ARM GAS  C:\Users\strap\AppData\Local\Temp\ccl91fmi.s 			page 1


   1              		.syntax unified
   2              		.cpu cortex-m3
   3              		.fpu softvfp
   4              		.eabi_attribute 20, 1
   5              		.eabi_attribute 21, 1
   6              		.eabi_attribute 23, 3
   7              		.eabi_attribute 24, 1
   8              		.eabi_attribute 25, 1
   9              		.eabi_attribute 26, 1
  10              		.eabi_attribute 30, 1
  11              		.eabi_attribute 34, 1
  12              		.eabi_attribute 18, 4
  13              		.thumb
  14              		.syntax unified
  15              		.file	"disp_spi.c"
  16              		.text
  17              	.Ltext0:
  18              		.cfi_sections	.debug_frame
  19              		.section	.text.display_tl_poll_is_busy,"ax",%progbits
  20              		.align	2
  21              		.global	display_tl_poll_is_busy
  22              		.thumb
  23              		.thumb_func
  24              		.type	display_tl_poll_is_busy, %function
  25              	display_tl_poll_is_busy:
  26              	.LFB378:
  27              		.file 1 "ili9341\\disp_spi.c"
   1:ili9341/disp_spi.c **** /**
   2:ili9341/disp_spi.c ****  * @file disp_spi.c
   3:ili9341/disp_spi.c ****  *
   4:ili9341/disp_spi.c ****  */
   5:ili9341/disp_spi.c **** 
   6:ili9341/disp_spi.c **** /*********************
   7:ili9341/disp_spi.c ****  *      INCLUDES
   8:ili9341/disp_spi.c ****  *********************/
   9:ili9341/disp_spi.c **** #include <string.h>
  10:ili9341/disp_spi.c **** 
  11:ili9341/disp_spi.c **** #include "lvgl/lvgl.h"
  12:ili9341/disp_spi.c **** 
  13:ili9341/disp_spi.c **** #include "disp_spi.h"
  14:ili9341/disp_spi.c **** #include "spi_dma.h"
  15:ili9341/disp_spi.c **** 
  16:ili9341/disp_spi.c **** /*********************
  17:ili9341/disp_spi.c ****  *      DEFINES
  18:ili9341/disp_spi.c ****  *********************/
  19:ili9341/disp_spi.c **** #define TAG "DISPLAY_TL"
  20:ili9341/disp_spi.c **** 
  21:ili9341/disp_spi.c **** /**********************
  22:ili9341/disp_spi.c ****  *      TYPEDEFS
  23:ili9341/disp_spi.c ****  **********************/
  24:ili9341/disp_spi.c **** 
  25:ili9341/disp_spi.c **** /**********************
  26:ili9341/disp_spi.c ****  *  STATIC PROTOTYPES
  27:ili9341/disp_spi.c ****  **********************/
  28:ili9341/disp_spi.c **** 
  29:ili9341/disp_spi.c **** /**********************
  30:ili9341/disp_spi.c ****  *  STATIC VARIABLES
ARM GAS  C:\Users\strap\AppData\Local\Temp\ccl91fmi.s 			page 2


  31:ili9341/disp_spi.c ****  **********************/
  32:ili9341/disp_spi.c **** 
  33:ili9341/disp_spi.c **** static volatile disp_spi_send_flag_t spi_flags = 0;
  34:ili9341/disp_spi.c **** 
  35:ili9341/disp_spi.c **** /**********************
  36:ili9341/disp_spi.c ****  *      MACROS
  37:ili9341/disp_spi.c ****  **********************/
  38:ili9341/disp_spi.c **** 
  39:ili9341/disp_spi.c **** /**********************
  40:ili9341/disp_spi.c ****  *   GLOBAL FUNCTIONS
  41:ili9341/disp_spi.c ****  **********************/
  42:ili9341/disp_spi.c **** void display_spi_transaction(const uint8_t *data, uint16_t length,
  43:ili9341/disp_spi.c ****     disp_spi_send_flag_t flags, disp_spi_read_data *out,
  44:ili9341/disp_spi.c ****     uint64_t addr)
  45:ili9341/disp_spi.c **** {
  46:ili9341/disp_spi.c ****     (void) addr;
  47:ili9341/disp_spi.c ****     (void) out;
  48:ili9341/disp_spi.c ****     
  49:ili9341/disp_spi.c ****     if (0 == length) {
  50:ili9341/disp_spi.c ****         return;
  51:ili9341/disp_spi.c ****     }
  52:ili9341/disp_spi.c **** 
  53:ili9341/disp_spi.c ****     spi_flags = flags;
  54:ili9341/disp_spi.c **** 
  55:ili9341/disp_spi.c ****     /* Wait for previous pending transaction results */
  56:ili9341/disp_spi.c ****     display_tl_poll_is_busy();
  57:ili9341/disp_spi.c **** 
  58:ili9341/disp_spi.c ****     if (flags & DISP_SPI_RECEIVE) {
  59:ili9341/disp_spi.c **** 
  60:ili9341/disp_spi.c ****     }
  61:ili9341/disp_spi.c **** 
  62:ili9341/disp_spi.c ****     if (flags & DISP_SPI_ADDRESS_24) {
  63:ili9341/disp_spi.c **** 
  64:ili9341/disp_spi.c ****     }
  65:ili9341/disp_spi.c **** 
  66:ili9341/disp_spi.c ****     /* Poll/Complete/Queue transaction */
  67:ili9341/disp_spi.c ****     if (flags & DISP_SPI_SEND_POLLING) {
  68:ili9341/disp_spi.c ****         // NOTE: Platform dependent
  69:ili9341/disp_spi.c ****         send_spi(data, (size_t) length);
  70:ili9341/disp_spi.c ****     } else if (flags & DISP_SPI_SEND_SYNCHRONOUS) {
  71:ili9341/disp_spi.c **** 
  72:ili9341/disp_spi.c ****     } else {
  73:ili9341/disp_spi.c ****         // NOTE: Platform dependent
  74:ili9341/disp_spi.c ****         send_spi_dma(data, NULL, (size_t) length);
  75:ili9341/disp_spi.c ****     }
  76:ili9341/disp_spi.c **** }
  77:ili9341/disp_spi.c **** 
  78:ili9341/disp_spi.c **** void display_tl_poll_is_busy(void)
  79:ili9341/disp_spi.c **** {
  28              		.loc 1 79 0
  29              		.cfi_startproc
  30              		@ args = 0, pretend = 0, frame = 0
  31              		@ frame_needed = 0, uses_anonymous_args = 0
  32 0000 08B5     		push	{r3, lr}
  33              		.cfi_def_cfa_offset 8
  34              		.cfi_offset 3, -8
  35              		.cfi_offset 14, -4
ARM GAS  C:\Users\strap\AppData\Local\Temp\ccl91fmi.s 			page 3


  36              	.L2:
  80:ili9341/disp_spi.c ****     while (spi_xfer_is_ongoing()) {
  37              		.loc 1 80 0 discriminator 1
  38 0002 FFF7FEFF 		bl	spi_xfer_is_ongoing
  39              	.LVL0:
  40 0006 0028     		cmp	r0, #0
  41 0008 FBD1     		bne	.L2
  81:ili9341/disp_spi.c ****         
  82:ili9341/disp_spi.c ****     }
  83:ili9341/disp_spi.c **** }
  42              		.loc 1 83 0
  43 000a 08BD     		pop	{r3, pc}
  44              		.cfi_endproc
  45              	.LFE378:
  46              		.size	display_tl_poll_is_busy, .-display_tl_poll_is_busy
  47              		.section	.text.display_spi_transaction,"ax",%progbits
  48              		.align	2
  49              		.global	display_spi_transaction
  50              		.thumb
  51              		.thumb_func
  52              		.type	display_spi_transaction, %function
  53              	display_spi_transaction:
  54              	.LFB377:
  45:ili9341/disp_spi.c ****     (void) addr;
  55              		.loc 1 45 0
  56              		.cfi_startproc
  57              		@ args = 8, pretend = 0, frame = 0
  58              		@ frame_needed = 0, uses_anonymous_args = 0
  59              	.LVL1:
  49:ili9341/disp_spi.c ****         return;
  60              		.loc 1 49 0
  61 0000 C9B1     		cbz	r1, .L8
  45:ili9341/disp_spi.c ****     (void) addr;
  62              		.loc 1 45 0
  63 0002 70B5     		push	{r4, r5, r6, lr}
  64              		.cfi_def_cfa_offset 16
  65              		.cfi_offset 4, -16
  66              		.cfi_offset 5, -12
  67              		.cfi_offset 6, -8
  68              		.cfi_offset 14, -4
  69 0004 0E46     		mov	r6, r1
  70 0006 1446     		mov	r4, r2
  71 0008 0546     		mov	r5, r0
  53:ili9341/disp_spi.c **** 
  72              		.loc 1 53 0
  73 000a 0B4B     		ldr	r3, .L9
  74              	.LVL2:
  75 000c 1A80     		strh	r2, [r3]	@ movhi
  56:ili9341/disp_spi.c **** 
  76              		.loc 1 56 0
  77 000e FFF7FEFF 		bl	display_tl_poll_is_busy
  78              	.LVL3:
  67:ili9341/disp_spi.c ****         // NOTE: Platform dependent
  79              		.loc 1 67 0
  80 0012 14F0010F 		tst	r4, #1
  81 0016 04D0     		beq	.L6
  69:ili9341/disp_spi.c ****     } else if (flags & DISP_SPI_SEND_SYNCHRONOUS) {
ARM GAS  C:\Users\strap\AppData\Local\Temp\ccl91fmi.s 			page 4


  82              		.loc 1 69 0
  83 0018 3146     		mov	r1, r6
  84 001a 2846     		mov	r0, r5
  85 001c FFF7FEFF 		bl	send_spi
  86              	.LVL4:
  87 0020 70BD     		pop	{r4, r5, r6, pc}
  88              	.LVL5:
  89              	.L6:
  70:ili9341/disp_spi.c **** 
  90              		.loc 1 70 0
  91 0022 04F00204 		and	r4, r4, #2
  92 0026 A4B2     		uxth	r4, r4
  93 0028 24B9     		cbnz	r4, .L4
  74:ili9341/disp_spi.c ****     }
  94              		.loc 1 74 0
  95 002a 3246     		mov	r2, r6
  96 002c 0021     		movs	r1, #0
  97 002e 2846     		mov	r0, r5
  98 0030 FFF7FEFF 		bl	send_spi_dma
  99              	.LVL6:
 100              	.L4:
 101 0034 70BD     		pop	{r4, r5, r6, pc}
 102              	.LVL7:
 103              	.L8:
 104              		.cfi_def_cfa_offset 0
 105              		.cfi_restore 4
 106              		.cfi_restore 5
 107              		.cfi_restore 6
 108              		.cfi_restore 14
 109 0036 7047     		bx	lr
 110              	.L10:
 111              		.align	2
 112              	.L9:
 113 0038 00000000 		.word	.LANCHOR0
 114              		.cfi_endproc
 115              	.LFE377:
 116              		.size	display_spi_transaction, .-display_spi_transaction
 117              		.section	.text.display_spi_acquire,"ax",%progbits
 118              		.align	2
 119              		.global	display_spi_acquire
 120              		.thumb
 121              		.thumb_func
 122              		.type	display_spi_acquire, %function
 123              	display_spi_acquire:
 124              	.LFB379:
  84:ili9341/disp_spi.c **** 
  85:ili9341/disp_spi.c **** void display_spi_acquire(void)
  86:ili9341/disp_spi.c **** {
 125              		.loc 1 86 0
 126              		.cfi_startproc
 127              		@ args = 0, pretend = 0, frame = 0
 128              		@ frame_needed = 0, uses_anonymous_args = 0
 129              		@ link register save eliminated.
 130 0000 7047     		bx	lr
 131              		.cfi_endproc
 132              	.LFE379:
 133              		.size	display_spi_acquire, .-display_spi_acquire
ARM GAS  C:\Users\strap\AppData\Local\Temp\ccl91fmi.s 			page 5


 134 0002 00BF     		.section	.text.display_spi_release,"ax",%progbits
 135              		.align	2
 136              		.global	display_spi_release
 137              		.thumb
 138              		.thumb_func
 139              		.type	display_spi_release, %function
 140              	display_spi_release:
 141              	.LFB380:
  87:ili9341/disp_spi.c **** 
  88:ili9341/disp_spi.c **** }
  89:ili9341/disp_spi.c **** 
  90:ili9341/disp_spi.c **** void display_spi_release(void)
  91:ili9341/disp_spi.c **** {
 142              		.loc 1 91 0
 143              		.cfi_startproc
 144              		@ args = 0, pretend = 0, frame = 0
 145              		@ frame_needed = 0, uses_anonymous_args = 0
 146              		@ link register save eliminated.
 147 0000 7047     		bx	lr
 148              		.cfi_endproc
 149              	.LFE380:
 150              		.size	display_spi_release, .-display_spi_release
 151 0002 00BF     		.section	.text.display_colors_sent_notification,"ax",%progbits
 152              		.align	2
 153              		.global	display_colors_sent_notification
 154              		.thumb
 155              		.thumb_func
 156              		.type	display_colors_sent_notification, %function
 157              	display_colors_sent_notification:
 158              	.LFB381:
  92:ili9341/disp_spi.c **** 
  93:ili9341/disp_spi.c **** }
  94:ili9341/disp_spi.c **** 
  95:ili9341/disp_spi.c **** /**********************
  96:ili9341/disp_spi.c ****  *   STATIC FUNCTIONS
  97:ili9341/disp_spi.c ****  **********************/
  98:ili9341/disp_spi.c **** 
  99:ili9341/disp_spi.c **** /* Called on the spi complete callback */
 100:ili9341/disp_spi.c **** void display_colors_sent_notification(void)
 101:ili9341/disp_spi.c **** {
 159              		.loc 1 101 0
 160              		.cfi_startproc
 161              		@ args = 0, pretend = 0, frame = 0
 162              		@ frame_needed = 0, uses_anonymous_args = 0
 163              		.loc 1 101 0
 164 0000 08B5     		push	{r3, lr}
 165              		.cfi_def_cfa_offset 8
 166              		.cfi_offset 3, -8
 167              		.cfi_offset 14, -4
 102:ili9341/disp_spi.c ****     if (spi_flags & DISP_SPI_SIGNAL_FLUSH) {
 168              		.loc 1 102 0
 169 0002 054B     		ldr	r3, .L16
 170 0004 1B88     		ldrh	r3, [r3]
 171 0006 03F00403 		and	r3, r3, #4
 172 000a 9BB2     		uxth	r3, r3
 173 000c 1BB1     		cbz	r3, .L13
 174              	.LVL8:
ARM GAS  C:\Users\strap\AppData\Local\Temp\ccl91fmi.s 			page 6


 175              	.LBB2:
 103:ili9341/disp_spi.c ****         lv_disp_t * disp = NULL;
 104:ili9341/disp_spi.c **** 
 105:ili9341/disp_spi.c **** #if (LVGL_VERSION_MAJOR >= 7)
 106:ili9341/disp_spi.c ****         disp = _lv_refr_get_disp_refreshing();
 176              		.loc 1 106 0
 177 000e FFF7FEFF 		bl	_lv_refr_get_disp_refreshing
 178              	.LVL9:
 107:ili9341/disp_spi.c **** #else /* Before v7 */
 108:ili9341/disp_spi.c ****         disp = lv_refr_get_disp_refreshing();
 109:ili9341/disp_spi.c **** #endif
 110:ili9341/disp_spi.c **** 
 111:ili9341/disp_spi.c ****         lv_disp_flush_ready(&disp->driver);
 179              		.loc 1 111 0
 180 0012 FFF7FEFF 		bl	lv_disp_flush_ready
 181              	.LVL10:
 182              	.L13:
 183 0016 08BD     		pop	{r3, pc}
 184              	.L17:
 185              		.align	2
 186              	.L16:
 187 0018 00000000 		.word	.LANCHOR0
 188              	.LBE2:
 189              		.cfi_endproc
 190              	.LFE381:
 191              		.size	display_colors_sent_notification, .-display_colors_sent_notification
 192              		.bss
 193              		.align	1
 194              		.set	.LANCHOR0,. + 0
 195              		.type	spi_flags, %object
 196              		.size	spi_flags, 2
 197              	spi_flags:
 198 0000 0000     		.space	2
 199              		.text
 200              	.Letext0:
 201              		.file 2 "c:\\program files (x86)\\cypress\\psoc creator\\4.4\\psoc creator\\import\\gnu\\arm\\5.4.
 202              		.file 3 "c:\\program files (x86)\\cypress\\psoc creator\\4.4\\psoc creator\\import\\gnu\\arm\\5.4.
 203              		.file 4 "c:\\program files (x86)\\cypress\\psoc creator\\4.4\\psoc creator\\import\\gnu\\arm\\5.4.
 204              		.file 5 "./lvgl/src/lv_misc/../../../lv_conf.h"
 205              		.file 6 "./lvgl/src/lv_misc/lv_types.h"
 206              		.file 7 "./lvgl/src/lv_misc/lv_ll.h"
 207              		.file 8 "./lvgl/src/lv_misc/lv_task.h"
 208              		.file 9 "./lvgl/src/lv_hal/../lv_misc/lv_color.h"
 209              		.file 10 "./lvgl/src/lv_hal/../lv_misc/lv_area.h"
 210              		.file 11 "./lvgl/src/lv_hal/lv_hal_disp.h"
 211              		.file 12 "./lvgl/src/lv_core/lv_obj.h"
 212              		.file 13 "./lvgl/src/lv_hal/lv_hal_indev.h"
 213              		.file 14 "./lvgl/src/lv_core/lv_style.h"
 214              		.file 15 "./lvgl/src/lv_core/../lv_draw/../lv_misc/lv_bidi.h"
 215              		.file 16 "./lvgl/src/lv_widgets/lv_cont.h"
 216              		.file 17 "./lvgl/src/lv_widgets/lv_btn.h"
 217              		.file 18 "./lvgl/src/lv_widgets/lv_page.h"
 218              		.file 19 "./lvgl/src/lv_widgets/lv_textarea.h"
 219              		.file 20 "ili9341\\disp_spi.h"
 220              		.file 21 "./spi_dma.h"
 221              		.file 22 "./lvgl/src/lv_core/lv_refr.h"