ARM GAS  C:\Users\d3bug\AppData\Local\Temp\ccsQ2xPh.s 			page 1


   1              		.syntax unified
   2              		.cpu cortex-m3
   3              		.fpu softvfp
   4              		.eabi_attribute 20, 1
   5              		.eabi_attribute 21, 1
   6              		.eabi_attribute 23, 3
   7              		.eabi_attribute 24, 1
   8              		.eabi_attribute 25, 1
   9              		.eabi_attribute 26, 1
  10              		.eabi_attribute 30, 1
  11              		.eabi_attribute 34, 1
  12              		.eabi_attribute 18, 4
  13              		.thumb
  14              		.syntax unified
  15              		.file	"disp_driver.c"
  16              		.text
  17              	.Ltext0:
  18              		.cfi_sections	.debug_frame
  19              		.section	.text.disp_driver_init,"ax",%progbits
  20              		.align	2
  21              		.global	disp_driver_init
  22              		.thumb
  23              		.thumb_func
  24              		.type	disp_driver_init, %function
  25              	disp_driver_init:
  26              	.LFB375:
  27              		.file 1 "ili9341\\disp_driver.c"
   1:ili9341/disp_driver.c **** /**
   2:ili9341/disp_driver.c ****  * @file disp_driver.c
   3:ili9341/disp_driver.c ****  */
   4:ili9341/disp_driver.c **** 
   5:ili9341/disp_driver.c **** #include "disp_driver.h"
   6:ili9341/disp_driver.c **** #include "disp_spi.h"
   7:ili9341/disp_driver.c **** 
   8:ili9341/disp_driver.c **** void disp_driver_init(void)
   9:ili9341/disp_driver.c **** {
  28              		.loc 1 9 0
  29              		.cfi_startproc
  30              		@ args = 0, pretend = 0, frame = 0
  31              		@ frame_needed = 0, uses_anonymous_args = 0
  32 0000 08B5     		push	{r3, lr}
  33              		.cfi_def_cfa_offset 8
  34              		.cfi_offset 3, -8
  35              		.cfi_offset 14, -4
  10:ili9341/disp_driver.c ****     ili9341_init();
  36              		.loc 1 10 0
  37 0002 FFF7FEFF 		bl	ili9341_init
  38              	.LVL0:
  39 0006 08BD     		pop	{r3, pc}
  40              		.cfi_endproc
  41              	.LFE375:
  42              		.size	disp_driver_init, .-disp_driver_init
  43              		.section	.text.disp_driver_flush,"ax",%progbits
  44              		.align	2
  45              		.global	disp_driver_flush
  46              		.thumb
  47              		.thumb_func
ARM GAS  C:\Users\d3bug\AppData\Local\Temp\ccsQ2xPh.s 			page 2


  48              		.type	disp_driver_flush, %function
  49              	disp_driver_flush:
  50              	.LFB376:
  11:ili9341/disp_driver.c **** }
  12:ili9341/disp_driver.c **** 
  13:ili9341/disp_driver.c **** void disp_driver_flush(lv_disp_drv_t * drv, const lv_area_t * area, lv_color_t * color_map)
  14:ili9341/disp_driver.c **** {
  51              		.loc 1 14 0
  52              		.cfi_startproc
  53              		@ args = 0, pretend = 0, frame = 0
  54              		@ frame_needed = 0, uses_anonymous_args = 0
  55              	.LVL1:
  56 0000 08B5     		push	{r3, lr}
  57              		.cfi_def_cfa_offset 8
  58              		.cfi_offset 3, -8
  59              		.cfi_offset 14, -4
  15:ili9341/disp_driver.c ****     ili9341_flush(drv, area, color_map);
  60              		.loc 1 15 0
  61 0002 FFF7FEFF 		bl	ili9341_flush
  62              	.LVL2:
  63 0006 08BD     		pop	{r3, pc}
  64              		.cfi_endproc
  65              	.LFE376:
  66              		.size	disp_driver_flush, .-disp_driver_flush
  67              		.section	.text.disp_driver_rounder,"ax",%progbits
  68              		.align	2
  69              		.global	disp_driver_rounder
  70              		.thumb
  71              		.thumb_func
  72              		.type	disp_driver_rounder, %function
  73              	disp_driver_rounder:
  74              	.LFB377:
  16:ili9341/disp_driver.c **** }
  17:ili9341/disp_driver.c **** 
  18:ili9341/disp_driver.c **** void disp_driver_rounder(lv_disp_drv_t * disp_drv, lv_area_t * area)
  19:ili9341/disp_driver.c **** {
  75              		.loc 1 19 0
  76              		.cfi_startproc
  77              		@ args = 0, pretend = 0, frame = 0
  78              		@ frame_needed = 0, uses_anonymous_args = 0
  79              		@ link register save eliminated.
  80              	.LVL3:
  81 0000 7047     		bx	lr
  82              		.cfi_endproc
  83              	.LFE377:
  84              		.size	disp_driver_rounder, .-disp_driver_rounder
  85 0002 00BF     		.section	.text.disp_driver_set_px,"ax",%progbits
  86              		.align	2
  87              		.global	disp_driver_set_px
  88              		.thumb
  89              		.thumb_func
  90              		.type	disp_driver_set_px, %function
  91              	disp_driver_set_px:
  92              	.LFB378:
  20:ili9341/disp_driver.c **** 
  21:ili9341/disp_driver.c **** }
  22:ili9341/disp_driver.c **** 
ARM GAS  C:\Users\d3bug\AppData\Local\Temp\ccsQ2xPh.s 			page 3


  23:ili9341/disp_driver.c **** void disp_driver_set_px(lv_disp_drv_t * disp_drv, uint8_t * buf, lv_coord_t buf_w, lv_coord_t x, lv
  24:ili9341/disp_driver.c ****     lv_color_t color, lv_opa_t opa) 
  25:ili9341/disp_driver.c **** {
  93              		.loc 1 25 0
  94              		.cfi_startproc
  95              		@ args = 12, pretend = 0, frame = 0
  96              		@ frame_needed = 0, uses_anonymous_args = 0
  97              		@ link register save eliminated.
  98              	.LVL4:
  99 0000 7047     		bx	lr
 100              		.cfi_endproc
 101              	.LFE378:
 102              		.size	disp_driver_set_px, .-disp_driver_set_px
 103 0002 00BF     		.text
 104              	.Letext0:
 105              		.file 2 "c:\\program files (x86)\\cypress\\psoc creator\\4.3\\psoc creator\\import\\gnu\\arm\\5.4.
 106              		.file 3 "c:\\program files (x86)\\cypress\\psoc creator\\4.3\\psoc creator\\import\\gnu\\arm\\5.4.
 107              		.file 4 "./lvgl/src/lv_misc/../../../lv_conf.h"
 108              		.file 5 "./lvgl/src/lv_hal/../lv_misc/lv_color.h"
 109              		.file 6 "./lvgl/src/lv_hal/../lv_misc/lv_area.h"
 110              		.file 7 "./lvgl/src/lv_hal/lv_hal_disp.h"
 111              		.file 8 "ili9341\\ili9341.h"