Archive member included to satisfy reference by file (symbol)

.\CortexM3\ARM_GCC_541\Debug\ili9341_master.a(SPI.o)
                              .\CortexM3\ARM_GCC_541\Debug\main.o (SPI_SetTxInterruptMode)
.\CortexM3\ARM_GCC_541\Debug\ili9341_master.a(DISP_RST.o)
                              .\CortexM3\ARM_GCC_541\Debug\psoc_platform.o (DISP_RST_Write)
.\CortexM3\ARM_GCC_541\Debug\ili9341_master.a(SPI_IntClock.o)
                              .\CortexM3\ARM_GCC_541\Debug\ili9341_master.a(SPI.o) (SPI_IntClock_Start)
.\CortexM3\ARM_GCC_541\Debug\ili9341_master.a(CyDmac.o)
                              .\CortexM3\ARM_GCC_541\Debug\Cm3Start.o (CyDmacConfigure)
.\CortexM3\ARM_GCC_541\Debug\ili9341_master.a(CyLib.o)
                              .\CortexM3\ARM_GCC_541\Debug\Cm3Start.o (CyHalt)
.\CortexM3\ARM_GCC_541\Debug\ili9341_master.a(cyPm.o)
                              .\CortexM3\ARM_GCC_541\Debug\ili9341_master.a(CyLib.o) (CyPmReadStatus)
.\CortexM3\ARM_GCC_541\Debug\ili9341_master.a(DISP_BCKL.o)
                              .\CortexM3\ARM_GCC_541\Debug\psoc_platform.o (DISP_BCKL_Write)
.\CortexM3\ARM_GCC_541\Debug\ili9341_master.a(DISP_DC.o)
                              .\CortexM3\ARM_GCC_541\Debug\psoc_platform.o (DISP_DC_Write)
.\CortexM3\ARM_GCC_541\Debug\ili9341_master.a(DMA_Tx_dma.o)
                              .\CortexM3\ARM_GCC_541\Debug\spi_dma.o (DMA_Tx_DmaInitialize)
.\CortexM3\ARM_GCC_541\Debug\ili9341_master.a(UART.o)
                              .\CortexM3\ARM_GCC_541\Debug\main.o (UART_Start)
.\CortexM3\ARM_GCC_541\Debug\ili9341_master.a(isr_SPI_TX_DMA.o)
                              .\CortexM3\ARM_GCC_541\Debug\main.o (isr_SPI_TX_DMA_StartEx)
.\CortexM3\ARM_GCC_541\Debug\ili9341_master.a(isr_SPI_TX.o)
                              .\CortexM3\ARM_GCC_541\Debug\main.o (isr_SPI_TX_StartEx)
.\CortexM3\ARM_GCC_541\Debug\ili9341_master.a(SS.o)
                              .\CortexM3\ARM_GCC_541\Debug\main.o (SS_Write)
.\CortexM3\ARM_GCC_541\Debug\ili9341_master.a(QuadDec.o)
                              .\CortexM3\ARM_GCC_541\Debug\main.o (QuadDec_GetCounter)
.\CortexM3\ARM_GCC_541\Debug\ili9341_master.a(QuadDec_Cnt8.o)
                              .\CortexM3\ARM_GCC_541\Debug\ili9341_master.a(QuadDec.o) (QuadDec_Cnt8_Stop)
.\CortexM3\ARM_GCC_541\Debug\ili9341_master.a(QuadDec_SW.o)
                              .\CortexM3\ARM_GCC_541\Debug\main.o (QuadDec_SW_Read)
.\CortexM3\ARM_GCC_541\Debug\ili9341_master.a(CyBootAsmGnu.o)
                              .\CortexM3\ARM_GCC_541\Debug\cyfitter_cfg.o (CyDelayCycles)
.\CortexM3\ARM_GCC_541\Debug\ili9341_master.a(UART_AsmGnu.o)
                              .\CortexM3\ARM_GCC_541\Debug\ili9341_master.a(UART.o) (UART_PutChar)
.\CortexM3\ARM_GCC_541\Debug\ili9341_master.a(CyFlash.o)
                              .\CortexM3\ARM_GCC_541\Debug\ili9341_master.a(cyPm.o) (CyFlash_SetWaitCycles)
.\CortexM3\ARM_GCC_541\Debug\ili9341_master.a(CySpc.o)
                              .\CortexM3\ARM_GCC_541\Debug\ili9341_master.a(CyFlash.o) (CySpcStart)
c:/program files (x86)/cypress/psoc creator/4.4/psoc creator/import/gnu/arm/5.4.1/bin/../lib/gcc/arm-none-eabi/5.4.1/armv7-m\libgcc.a(_udivsi3.o)
                              .\CortexM3\ARM_GCC_541\Debug\ili9341_master.a(UART_AsmGnu.o) (__aeabi_uidiv)
c:/program files (x86)/cypress/psoc creator/4.4/psoc creator/import/gnu/arm/5.4.1/bin/../lib/gcc/arm-none-eabi/5.4.1/armv7-m\libgcc.a(_dvmd_tls.o)
                              c:/program files (x86)/cypress/psoc creator/4.4/psoc creator/import/gnu/arm/5.4.1/bin/../lib/gcc/arm-none-eabi/5.4.1/armv7-m\libgcc.a(_udivsi3.o) (__aeabi_idiv0)
c:/program files (x86)/cypress/psoc creator/4.4/psoc creator/import/gnu/arm/5.4.1/bin/../lib/gcc/arm-none-eabi/5.4.1/armv7-m\libgcc.a(_aeabi_uldivmod.o)
                              .\CortexM3\ARM_GCC_541\Debug\lv_printf.o (__aeabi_uldivmod)
c:/program files (x86)/cypress/psoc creator/4.4/psoc creator/import/gnu/arm/5.4.1/bin/../lib/gcc/arm-none-eabi/5.4.1/armv7-m\libgcc.a(_udivmoddi4.o)
                              c:/program files (x86)/cypress/psoc creator/4.4/psoc creator/import/gnu/arm/5.4.1/bin/../lib/gcc/arm-none-eabi/5.4.1/armv7-m\libgcc.a(_aeabi_uldivmod.o) (__udivmoddi4)
c:/program files (x86)/cypress/psoc creator/4.4/psoc creator/import/gnu/arm/5.4.1/bin/../lib/gcc/arm-none-eabi/5.4.1/../../../../arm-none-eabi/lib/armv7-m\libg_nano.a(lib_a-errno.o)
                              .\CortexM3\ARM_GCC_541\Debug\Cm3Start.o (__errno)
c:/program files (x86)/cypress/psoc creator/4.4/psoc creator/import/gnu/arm/5.4.1/bin/../lib/gcc/arm-none-eabi/5.4.1/../../../../arm-none-eabi/lib/armv7-m\libg_nano.a(lib_a-exit.o)
                              c:/program files (x86)/cypress/psoc creator/4.4/psoc creator/import/gnu/arm/5.4.1/bin/../lib/gcc/arm-none-eabi/5.4.1/../../../../arm-none-eabi/lib/armv7-m/crt0.o (exit)
c:/program files (x86)/cypress/psoc creator/4.4/psoc creator/import/gnu/arm/5.4.1/bin/../lib/gcc/arm-none-eabi/5.4.1/../../../../arm-none-eabi/lib/armv7-m\libg_nano.a(lib_a-impure.o)
                              c:/program files (x86)/cypress/psoc creator/4.4/psoc creator/import/gnu/arm/5.4.1/bin/../lib/gcc/arm-none-eabi/5.4.1/../../../../arm-none-eabi/lib/armv7-m\libg_nano.a(lib_a-exit.o) (_global_impure_ptr)
c:/program files (x86)/cypress/psoc creator/4.4/psoc creator/import/gnu/arm/5.4.1/bin/../lib/gcc/arm-none-eabi/5.4.1/../../../../arm-none-eabi/lib/armv7-m\libg_nano.a(lib_a-init.o)
                              c:/program files (x86)/cypress/psoc creator/4.4/psoc creator/import/gnu/arm/5.4.1/bin/../lib/gcc/arm-none-eabi/5.4.1/../../../../arm-none-eabi/lib/armv7-m/crt0.o (__libc_init_array)
c:/program files (x86)/cypress/psoc creator/4.4/psoc creator/import/gnu/arm/5.4.1/bin/../lib/gcc/arm-none-eabi/5.4.1/../../../../arm-none-eabi/lib/armv7-m\libg_nano.a(lib_a-memcmp.o)
                              .\CortexM3\ARM_GCC_541\Debug\lv_obj.o (memcmp)
c:/program files (x86)/cypress/psoc creator/4.4/psoc creator/import/gnu/arm/5.4.1/bin/../lib/gcc/arm-none-eabi/5.4.1/../../../../arm-none-eabi/lib/armv7-m\libg_nano.a(lib_a-memcpy-stub.o)
                              .\CortexM3\ARM_GCC_541\Debug\lv_objmask.o (memcpy)
c:/program files (x86)/cypress/psoc creator/4.4/psoc creator/import/gnu/arm/5.4.1/bin/../lib/gcc/arm-none-eabi/5.4.1/../../../../arm-none-eabi/lib/armv7-m\libg_nano.a(lib_a-memset.o)
                              c:/program files (x86)/cypress/psoc creator/4.4/psoc creator/import/gnu/arm/5.4.1/bin/../lib/gcc/arm-none-eabi/5.4.1/../../../../arm-none-eabi/lib/armv7-m/crt0.o (memset)
c:/program files (x86)/cypress/psoc creator/4.4/psoc creator/import/gnu/arm/5.4.1/bin/../lib/gcc/arm-none-eabi/5.4.1/../../../../arm-none-eabi/lib/armv7-m\libg_nano.a(lib_a-strcmp.o)
                              .\CortexM3\ARM_GCC_541\Debug\lv_obj.o (strcmp)
c:/program files (x86)/cypress/psoc creator/4.4/psoc creator/import/gnu/arm/5.4.1/bin/../lib/gcc/arm-none-eabi/5.4.1/../../../../arm-none-eabi/lib/armv7-m\libg_nano.a(lib_a-strcpy.o)
                              .\CortexM3\ARM_GCC_541\Debug\lv_img_decoder.o (strcpy)
c:/program files (x86)/cypress/psoc creator/4.4/psoc creator/import/gnu/arm/5.4.1/bin/../lib/gcc/arm-none-eabi/5.4.1/../../../../arm-none-eabi/lib/armv7-m\libg_nano.a(lib_a-strlen.o)
                              .\CortexM3\ARM_GCC_541\Debug\lv_img_decoder.o (strlen)

Allocating common symbols
Common symbol       size              file

_lv_task_ll         0xc               .\CortexM3\ARM_GCC_541\Debug\lv_gc.o
_lv_font_decompr_buf
                    0x4               .\CortexM3\ARM_GCC_541\Debug\lv_gc.o
_lv_indev_ll        0xc               .\CortexM3\ARM_GCC_541\Debug\lv_gc.o
parameter_list_ssss
                    0x10              .\CortexM3\ARM_GCC_541\Debug\main.o
SPI_swStatusTx      0x1               .\CortexM3\ARM_GCC_541\Debug\ili9341_master.a(SPI.o)
shoot_btn_label     0x4               .\CortexM3\ARM_GCC_541\Debug\main.o
SPI_swStatusRx      0x1               .\CortexM3\ARM_GCC_541\Debug\ili9341_master.a(SPI.o)
custom_spinbox      0x4               .\CortexM3\ARM_GCC_541\Debug\main.o
_lv_disp_ll         0xc               .\CortexM3\ARM_GCC_541\Debug\lv_gc.o
_lv_img_defoder_ll  0xc               .\CortexM3\ARM_GCC_541\Debug\lv_gc.o
voltage_ddlist      0x4               .\CortexM3\ARM_GCC_541\Debug\main.o
_lv_mem_buf         0x80              .\CortexM3\ARM_GCC_541\Debug\lv_gc.o
_lv_drv_ll          0xc               .\CortexM3\ARM_GCC_541\Debug\lv_gc.o
_lv_obj_style_trans_ll
                    0xc               .\CortexM3\ARM_GCC_541\Debug\lv_gc.o
pulses_spinbox      0x4               .\CortexM3\ARM_GCC_541\Debug\main.o
_lv_theme_material_styles
                    0x4               .\CortexM3\ARM_GCC_541\Debug\lv_gc.o
selected_option     0x4               .\CortexM3\ARM_GCC_541\Debug\main.o
one_shoot_cb        0x4               .\CortexM3\ARM_GCC_541\Debug\main.o
_lv_task_act        0x4               .\CortexM3\ARM_GCC_541\Debug\lv_gc.o
pulses_ok_btn       0x4               .\CortexM3\ARM_GCC_541\Debug\main.o
custom_shoot_cb     0x4               .\CortexM3\ARM_GCC_541\Debug\main.o
_lv_theme_mono_styles
                    0x4               .\CortexM3\ARM_GCC_541\Debug\lv_gc.o
_lv_theme_template_styles
                    0x4               .\CortexM3\ARM_GCC_541\Debug\lv_gc.o
_lv_img_cache_array
                    0x4               .\CortexM3\ARM_GCC_541\Debug\lv_gc.o
voltage_ok_btn      0x4               .\CortexM3\ARM_GCC_541\Debug\main.o
shoot_btn           0x4               .\CortexM3\ARM_GCC_541\Debug\main.o
_lv_anim_ll         0xc               .\CortexM3\ARM_GCC_541\Debug\lv_gc.o
_lv_theme_empty_styles
                    0x4               .\CortexM3\ARM_GCC_541\Debug\lv_gc.o
_lv_draw_mask_list  0x80              .\CortexM3\ARM_GCC_541\Debug\lv_gc.o
_lv_group_ll        0xc               .\CortexM3\ARM_GCC_541\Debug\lv_gc.o
type_param_ok_btn   0x4               .\CortexM3\ARM_GCC_541\Debug\main.o
_lv_file_ll         0xc               .\CortexM3\ARM_GCC_541\Debug\lv_gc.o
dieTemperature      0x2               .\CortexM3\ARM_GCC_541\Debug\ili9341_master.a(CyFlash.o)
continuous_cb       0x4               .\CortexM3\ARM_GCC_541\Debug\main.o
app_screen          0x4               .\CortexM3\ARM_GCC_541\Debug\main.o
burst_type_list     0x4               .\CortexM3\ARM_GCC_541\Debug\main.o

Discarded input sections

 .text          0x00000000        0x0 c:/program files (x86)/cypress/psoc creator/4.4/psoc creator/import/gnu/arm/5.4.1/bin/../lib/gcc/arm-none-eabi/5.4.1/armv7-m/crti.o
 .data          0x00000000        0x0 c:/program files (x86)/cypress/psoc creator/4.4/psoc creator/import/gnu/arm/5.4.1/bin/../lib/gcc/arm-none-eabi/5.4.1/armv7-m/crti.o
 .bss           0x00000000        0x0 c:/program files (x86)/cypress/psoc creator/4.4/psoc creator/import/gnu/arm/5.4.1/bin/../lib/gcc/arm-none-eabi/5.4.1/armv7-m/crti.o
 .data          0x00000000        0x4 c:/program files (x86)/cypress/psoc creator/4.4/psoc creator/import/gnu/arm/5.4.1/bin/../lib/gcc/arm-none-eabi/5.4.1/armv7-m/crtbegin.o
 .text          0x00000000       0x74 c:/program files (x86)/cypress/psoc creator/4.4/psoc creator/import/gnu/arm/5.4.1/bin/../lib/gcc/arm-none-eabi/5.4.1/../../../../arm-none-eabi/lib/armv7-m/crt0.o
 .data          0x00000000        0x0 c:/program files (x86)/cypress/psoc creator/4.4/psoc creator/import/gnu/arm/5.4.1/bin/../lib/gcc/arm-none-eabi/5.4.1/../../../../arm-none-eabi/lib/armv7-m/crt0.o
 .bss           0x00000000        0x0 c:/program files (x86)/cypress/psoc creator/4.4/psoc creator/import/gnu/arm/5.4.1/bin/../lib/gcc/arm-none-eabi/5.4.1/../../../../arm-none-eabi/lib/armv7-m/crt0.o
 .ARM.extab     0x00000000        0x0 c:/program files (x86)/cypress/psoc creator/4.4/psoc creator/import/gnu/arm/5.4.1/bin/../lib/gcc/arm-none-eabi/5.4.1/../../../../arm-none-eabi/lib/armv7-m/crt0.o
 .ARM.exidx     0x00000000        0x8 c:/program files (x86)/cypress/psoc creator/4.4/psoc creator/import/gnu/arm/5.4.1/bin/../lib/gcc/arm-none-eabi/5.4.1/../../../../arm-none-eabi/lib/armv7-m/crt0.o
 .text          0x00000000        0x0 .\CortexM3\ARM_GCC_541\Debug\main.o
 .text          0x00000000        0x0 .\CortexM3\ARM_GCC_541\Debug\disp_spi.o
 .data          0x00000000        0x0 .\CortexM3\ARM_GCC_541\Debug\disp_spi.o
 .text.display_spi_acquire
                0x00000000        0x4 .\CortexM3\ARM_GCC_541\Debug\disp_spi.o
 .text.display_spi_release
                0x00000000        0x4 .\CortexM3\ARM_GCC_541\Debug\disp_spi.o
 .text          0x00000000        0x0 .\CortexM3\ARM_GCC_541\Debug\ili9341.o
 .data          0x00000000        0x0 .\CortexM3\ARM_GCC_541\Debug\ili9341.o
 .bss           0x00000000        0x0 .\CortexM3\ARM_GCC_541\Debug\ili9341.o
 .text.ili9341_sleep_in
                0x00000000       0x24 .\CortexM3\ARM_GCC_541\Debug\ili9341.o
 .text.ili9341_sleep_out
                0x00000000       0x24 .\CortexM3\ARM_GCC_541\Debug\ili9341.o
 .text          0x00000000        0x0 .\CortexM3\ARM_GCC_541\Debug\lv_disp.o
 .data          0x00000000        0x0 .\CortexM3\ARM_GCC_541\Debug\lv_disp.o
 .bss           0x00000000        0x0 .\CortexM3\ARM_GCC_541\Debug\lv_disp.o
 .text.scr_anim_ready
                0x00000000       0x34 .\CortexM3\ARM_GCC_541\Debug\lv_disp.o
 .text.opa_scale_anim
                0x00000000       0x10 .\CortexM3\ARM_GCC_541\Debug\lv_disp.o
 .text.scr_load_anim_start
                0x00000000       0x20 .\CortexM3\ARM_GCC_541\Debug\lv_disp.o
 .text.lv_disp_assign_screen
                0x00000000       0x28 .\CortexM3\ARM_GCC_541\Debug\lv_disp.o
 .text.lv_disp_set_bg_color
                0x00000000       0x44 .\CortexM3\ARM_GCC_541\Debug\lv_disp.o
 .text.lv_disp_set_bg_image
                0x00000000       0x44 .\CortexM3\ARM_GCC_541\Debug\lv_disp.o
 .text.lv_disp_set_bg_opa
                0x00000000       0x44 .\CortexM3\ARM_GCC_541\Debug\lv_disp.o
 .text.lv_scr_load_anim
                0x00000000      0x200 .\CortexM3\ARM_GCC_541\Debug\lv_disp.o
 .text.lv_disp_get_inactive_time
                0x00000000       0x3c .\CortexM3\ARM_GCC_541\Debug\lv_disp.o
 .text.lv_disp_trig_activity
                0x00000000       0x18 .\CortexM3\ARM_GCC_541\Debug\lv_disp.o
 .text.lv_disp_clean_dcache
                0x00000000       0x18 .\CortexM3\ARM_GCC_541\Debug\lv_disp.o
 .text._lv_disp_get_refr_task
                0x00000000       0x18 .\CortexM3\ARM_GCC_541\Debug\lv_disp.o
 .text          0x00000000        0x0 .\CortexM3\ARM_GCC_541\Debug\lv_group.o
 .data          0x00000000        0x0 .\CortexM3\ARM_GCC_541\Debug\lv_group.o
 .bss           0x00000000        0x0 .\CortexM3\ARM_GCC_541\Debug\lv_group.o
 .text.lv_group_del
                0x00000000       0x50 .\CortexM3\ARM_GCC_541\Debug\lv_group.o
 .text.lv_group_remove_all_objs
                0x00000000       0x44 .\CortexM3\ARM_GCC_541\Debug\lv_group.o
 .text.lv_group_focus_freeze
                0x00000000       0x18 .\CortexM3\ARM_GCC_541\Debug\lv_group.o
 .text.lv_group_set_focus_cb
                0x00000000        0x4 .\CortexM3\ARM_GCC_541\Debug\lv_group.o
 .text.lv_group_set_click_focus
                0x00000000        0xc .\CortexM3\ARM_GCC_541\Debug\lv_group.o
 .text.lv_group_set_refocus_policy
                0x00000000        0xc .\CortexM3\ARM_GCC_541\Debug\lv_group.o
 .text.lv_group_set_wrap
                0x00000000        0xc .\CortexM3\ARM_GCC_541\Debug\lv_group.o
 .text.lv_group_get_user_data
                0x00000000        0x4 .\CortexM3\ARM_GCC_541\Debug\lv_group.o
 .text.lv_group_get_focus_cb
                0x00000000        0xc .\CortexM3\ARM_GCC_541\Debug\lv_group.o
 .text.lv_group_get_click_focus
                0x00000000       0x10 .\CortexM3\ARM_GCC_541\Debug\lv_group.o
 .text.lv_group_get_wrap
                0x00000000       0x10 .\CortexM3\ARM_GCC_541\Debug\lv_group.o
 .text          0x00000000        0x0 .\CortexM3\ARM_GCC_541\Debug\lv_indev.o
 .data          0x00000000        0x0 .\CortexM3\ARM_GCC_541\Debug\lv_indev.o
 .text.lv_indev_reset_long_press
                0x00000000       0x20 .\CortexM3\ARM_GCC_541\Debug\lv_indev.o
 .text.lv_indev_enable
                0x00000000       0x1c .\CortexM3\ARM_GCC_541\Debug\lv_indev.o
 .text.lv_indev_set_cursor
                0x00000000       0x34 .\CortexM3\ARM_GCC_541\Debug\lv_indev.o
 .text.lv_indev_set_button_points
                0x00000000        0xc .\CortexM3\ARM_GCC_541\Debug\lv_indev.o
 .text.lv_indev_get_gesture_dir
                0x00000000        0x8 .\CortexM3\ARM_GCC_541\Debug\lv_indev.o
 .text.lv_indev_get_key
                0x00000000       0x10 .\CortexM3\ARM_GCC_541\Debug\lv_indev.o
 .text.lv_indev_finish_drag
                0x00000000       0x58 .\CortexM3\ARM_GCC_541\Debug\lv_indev.o
 .text.lv_indev_wait_release
                0x00000000       0x10 .\CortexM3\ARM_GCC_541\Debug\lv_indev.o
 .text.lv_indev_get_read_task
                0x00000000        0xc .\CortexM3\ARM_GCC_541\Debug\lv_indev.o
 .text          0x00000000        0x0 .\CortexM3\ARM_GCC_541\Debug\lv_obj.o
 .data          0x00000000        0x0 .\CortexM3\ARM_GCC_541\Debug\lv_obj.o
 .text.obj_valid_child
                0x00000000       0x38 .\CortexM3\ARM_GCC_541\Debug\lv_obj.o
 .text.lv_deinit
                0x00000000       0x1c .\CortexM3\ARM_GCC_541\Debug\lv_obj.o
 .text.lv_obj_del_async
                0x00000000       0x28 .\CortexM3\ARM_GCC_541\Debug\lv_obj.o
 .text.lv_obj_set_auto_realign
                0x00000000       0x2c .\CortexM3\ARM_GCC_541\Debug\lv_obj.o
 .text.lv_obj_set_ext_click_area
                0x00000000       0x3c .\CortexM3\ARM_GCC_541\Debug\lv_obj.o
 .text.lv_obj_set_adv_hittest
                0x00000000       0x34 .\CortexM3\ARM_GCC_541\Debug\lv_obj.o
 .text.lv_obj_set_top
                0x00000000       0x2c .\CortexM3\ARM_GCC_541\Debug\lv_obj.o
 .text.lv_obj_set_drag_dir
                0x00000000       0x38 .\CortexM3\ARM_GCC_541\Debug\lv_obj.o
 .text.lv_obj_set_gesture_parent
                0x00000000       0x10 .\CortexM3\ARM_GCC_541\Debug\lv_obj.o
 .text.lv_obj_set_parent_event
                0x00000000       0x2c .\CortexM3\ARM_GCC_541\Debug\lv_obj.o
 .text.lv_event_send_refresh
                0x00000000        0xc .\CortexM3\ARM_GCC_541\Debug\lv_obj.o
 .text.lv_event_send_refresh_recursive
                0x00000000       0x74 .\CortexM3\ARM_GCC_541\Debug\lv_obj.o
 .text.lv_obj_get_child_back
                0x00000000       0x30 .\CortexM3\ARM_GCC_541\Debug\lv_obj.o
 .text.lv_obj_count_children
                0x00000000       0x3c .\CortexM3\ARM_GCC_541\Debug\lv_obj.o
 .text.lv_obj_count_children_recursive
                0x00000000       0x48 .\CortexM3\ARM_GCC_541\Debug\lv_obj.o
 .text.lv_obj_get_ext_click_pad_left
                0x00000000       0x20 .\CortexM3\ARM_GCC_541\Debug\lv_obj.o
 .text.lv_obj_get_ext_click_pad_right
                0x00000000       0x20 .\CortexM3\ARM_GCC_541\Debug\lv_obj.o
 .text.lv_obj_get_ext_click_pad_top
                0x00000000       0x20 .\CortexM3\ARM_GCC_541\Debug\lv_obj.o
 .text.lv_obj_get_ext_click_pad_bottom
                0x00000000       0x20 .\CortexM3\ARM_GCC_541\Debug\lv_obj.o
 .text.lv_obj_get_ext_draw_pad
                0x00000000       0x20 .\CortexM3\ARM_GCC_541\Debug\lv_obj.o
 .text.lv_obj_get_local_style
                0x00000000       0x2c .\CortexM3\ARM_GCC_541\Debug\lv_obj.o
 .text.lv_obj_remove_style_local_prop
                0x00000000       0x34 .\CortexM3\ARM_GCC_541\Debug\lv_obj.o
 .text.fade_in_anim_ready
                0x00000000       0x14 .\CortexM3\ARM_GCC_541\Debug\lv_obj.o
 .text.lv_obj_move_background
                0x00000000       0x54 .\CortexM3\ARM_GCC_541\Debug\lv_obj.o
 .text.lv_obj_align_x
                0x00000000       0x58 .\CortexM3\ARM_GCC_541\Debug\lv_obj.o
 .text.lv_obj_align_y
                0x00000000       0x58 .\CortexM3\ARM_GCC_541\Debug\lv_obj.o
 .text.lv_obj_align_mid_x
                0x00000000       0x58 .\CortexM3\ARM_GCC_541\Debug\lv_obj.o
 .text.lv_obj_align_mid_y
                0x00000000       0x58 .\CortexM3\ARM_GCC_541\Debug\lv_obj.o
 .text.lv_obj_is_visible
                0x00000000       0x70 .\CortexM3\ARM_GCC_541\Debug\lv_obj.o
 .text.lv_obj_get_adv_hittest
                0x00000000       0x24 .\CortexM3\ARM_GCC_541\Debug\lv_obj.o
 .text.lv_obj_get_top
                0x00000000       0x24 .\CortexM3\ARM_GCC_541\Debug\lv_obj.o
 .text.lv_obj_get_parent_event
                0x00000000       0x24 .\CortexM3\ARM_GCC_541\Debug\lv_obj.o
 .text.lv_obj_get_protect
                0x00000000       0x20 .\CortexM3\ARM_GCC_541\Debug\lv_obj.o
 .text.lv_obj_set_height_fit
                0x00000000       0x28 .\CortexM3\ARM_GCC_541\Debug\lv_obj.o
 .text.lv_obj_get_height_fit
                0x00000000       0x40 .\CortexM3\ARM_GCC_541\Debug\lv_obj.o
 .text.lv_obj_set_width_margin
                0x00000000       0x28 .\CortexM3\ARM_GCC_541\Debug\lv_obj.o
 .text.lv_obj_get_width_margin
                0x00000000       0x28 .\CortexM3\ARM_GCC_541\Debug\lv_obj.o
 .text.lv_obj_set_height_margin
                0x00000000       0x28 .\CortexM3\ARM_GCC_541\Debug\lv_obj.o
 .text.lv_obj_get_height_margin
                0x00000000       0x28 .\CortexM3\ARM_GCC_541\Debug\lv_obj.o
 .text.lv_obj_get_width_grid
                0x00000000       0x30 .\CortexM3\ARM_GCC_541\Debug\lv_obj.o
 .text.lv_obj_get_height_grid
                0x00000000       0x30 .\CortexM3\ARM_GCC_541\Debug\lv_obj.o
 .text.lv_obj_get_inner_coords
                0x00000000       0x64 .\CortexM3\ARM_GCC_541\Debug\lv_obj.o
 .text.lv_obj_add_style
                0x00000000       0x30 .\CortexM3\ARM_GCC_541\Debug\lv_obj.o
 .text.lv_obj_remove_style
                0x00000000       0x30 .\CortexM3\ARM_GCC_541\Debug\lv_obj.o
 .text._lv_obj_set_style_local_int
                0x00000000       0x30 .\CortexM3\ARM_GCC_541\Debug\lv_obj.o
 .text._lv_obj_set_style_local_color
                0x00000000       0x30 .\CortexM3\ARM_GCC_541\Debug\lv_obj.o
 .text._lv_obj_set_style_local_opa
                0x00000000       0x30 .\CortexM3\ARM_GCC_541\Debug\lv_obj.o
 .text.opa_scale_anim
                0x00000000       0x10 .\CortexM3\ARM_GCC_541\Debug\lv_obj.o
 .text.lv_obj_get_event_cb
                0x00000000       0x20 .\CortexM3\ARM_GCC_541\Debug\lv_obj.o
 .text.lv_obj_get_type
                0x00000000       0x8c .\CortexM3\ARM_GCC_541\Debug\lv_obj.o
 .text.lv_obj_get_user_data
                0x00000000       0x20 .\CortexM3\ARM_GCC_541\Debug\lv_obj.o
 .text.lv_obj_get_user_data_ptr
                0x00000000       0x20 .\CortexM3\ARM_GCC_541\Debug\lv_obj.o
 .text.lv_obj_set_user_data
                0x00000000       0x30 .\CortexM3\ARM_GCC_541\Debug\lv_obj.o
 .text.lv_obj_del_anim_ready_cb
                0x00000000        0xc .\CortexM3\ARM_GCC_541\Debug\lv_obj.o
 .text.lv_obj_del_async_cb
                0x00000000       0x24 .\CortexM3\ARM_GCC_541\Debug\lv_obj.o
 .text.lv_obj_clean
                0x00000000       0x38 .\CortexM3\ARM_GCC_541\Debug\lv_obj.o
 .text.lv_obj_fade_in
                0x00000000       0x3c .\CortexM3\ARM_GCC_541\Debug\lv_obj.o
 .text.lv_obj_fade_out
                0x00000000       0x34 .\CortexM3\ARM_GCC_541\Debug\lv_obj.o
 .text.lv_debug_check_obj_type
                0x00000000       0x44 .\CortexM3\ARM_GCC_541\Debug\lv_obj.o
 .text.lv_debug_check_obj_valid
                0x00000000       0x50 .\CortexM3\ARM_GCC_541\Debug\lv_obj.o
 .text          0x00000000        0x0 .\CortexM3\ARM_GCC_541\Debug\lv_refr.o
 .data          0x00000000        0x0 .\CortexM3\ARM_GCC_541\Debug\lv_refr.o
 .text._lv_refr_set_disp_refreshing
                0x00000000        0xc .\CortexM3\ARM_GCC_541\Debug\lv_refr.o
 .text.lv_refr_now
                0x00000000       0x30 .\CortexM3\ARM_GCC_541\Debug\lv_refr.o
 .text          0x00000000        0x0 .\CortexM3\ARM_GCC_541\Debug\lv_style.o
 .data          0x00000000        0x0 .\CortexM3\ARM_GCC_541\Debug\lv_style.o
 .bss           0x00000000        0x0 .\CortexM3\ARM_GCC_541\Debug\lv_style.o
 .text._lv_style_list_set_local_int
                0x00000000       0x14 .\CortexM3\ARM_GCC_541\Debug\lv_style.o
 .text._lv_style_list_set_local_opa
                0x00000000       0x14 .\CortexM3\ARM_GCC_541\Debug\lv_style.o
 .text._lv_style_list_set_local_color
                0x00000000       0x14 .\CortexM3\ARM_GCC_541\Debug\lv_style.o
 .text.lv_debug_check_style
                0x00000000        0x4 .\CortexM3\ARM_GCC_541\Debug\lv_style.o
 .text.lv_debug_check_style_list
                0x00000000        0x4 .\CortexM3\ARM_GCC_541\Debug\lv_style.o
 .text          0x00000000        0x0 .\CortexM3\ARM_GCC_541\Debug\lv_draw_arc.o
 .data          0x00000000        0x0 .\CortexM3\ARM_GCC_541\Debug\lv_draw_arc.o
 .bss           0x00000000        0x0 .\CortexM3\ARM_GCC_541\Debug\lv_draw_arc.o
 .text.get_rounded_area
                0x00000000       0x9c .\CortexM3\ARM_GCC_541\Debug\lv_draw_arc.o
 .text.draw_quarter_0
                0x00000000      0x1f8 .\CortexM3\ARM_GCC_541\Debug\lv_draw_arc.o
 .text.draw_quarter_1
                0x00000000      0x1fc .\CortexM3\ARM_GCC_541\Debug\lv_draw_arc.o
 .text.draw_quarter_2
                0x00000000      0x200 .\CortexM3\ARM_GCC_541\Debug\lv_draw_arc.o
 .text.draw_quarter_3
                0x00000000      0x1fc .\CortexM3\ARM_GCC_541\Debug\lv_draw_arc.o
 .text.lv_draw_arc
                0x00000000      0x22c .\CortexM3\ARM_GCC_541\Debug\lv_draw_arc.o
 .text          0x00000000        0x0 .\CortexM3\ARM_GCC_541\Debug\lv_draw_blend.o
 .data          0x00000000        0x0 .\CortexM3\ARM_GCC_541\Debug\lv_draw_blend.o
 .bss           0x00000000        0x0 .\CortexM3\ARM_GCC_541\Debug\lv_draw_blend.o
 .text          0x00000000        0x0 .\CortexM3\ARM_GCC_541\Debug\lv_draw_img.o
 .data          0x00000000        0x0 .\CortexM3\ARM_GCC_541\Debug\lv_draw_img.o
 .bss           0x00000000        0x0 .\CortexM3\ARM_GCC_541\Debug\lv_draw_img.o
 .text          0x00000000        0x0 .\CortexM3\ARM_GCC_541\Debug\lv_draw_label.o
 .data          0x00000000        0x0 .\CortexM3\ARM_GCC_541\Debug\lv_draw_label.o
 .text          0x00000000        0x0 .\CortexM3\ARM_GCC_541\Debug\lv_draw_line.o
 .data          0x00000000        0x0 .\CortexM3\ARM_GCC_541\Debug\lv_draw_line.o
 .bss           0x00000000        0x0 .\CortexM3\ARM_GCC_541\Debug\lv_draw_line.o
 .text          0x00000000        0x0 .\CortexM3\ARM_GCC_541\Debug\lv_draw_mask.o
 .data          0x00000000        0x0 .\CortexM3\ARM_GCC_541\Debug\lv_draw_mask.o
 .bss           0x00000000        0x0 .\CortexM3\ARM_GCC_541\Debug\lv_draw_mask.o
 .text.lv_draw_mask_fade
                0x00000000      0x118 .\CortexM3\ARM_GCC_541\Debug\lv_draw_mask.o
 .text.lv_draw_mask_map
                0x00000000       0xa0 .\CortexM3\ARM_GCC_541\Debug\lv_draw_mask.o
 .text.lv_draw_mask_angle
                0x00000000      0x374 .\CortexM3\ARM_GCC_541\Debug\lv_draw_mask.o
 .text.lv_draw_mask_line_angle_init
                0x00000000       0x54 .\CortexM3\ARM_GCC_541\Debug\lv_draw_mask.o
 .text.lv_draw_mask_angle_init
                0x00000000       0xdc .\CortexM3\ARM_GCC_541\Debug\lv_draw_mask.o
 .text.lv_draw_mask_fade_init
                0x00000000       0x38 .\CortexM3\ARM_GCC_541\Debug\lv_draw_mask.o
 .text.lv_draw_mask_map_init
                0x00000000       0x2c .\CortexM3\ARM_GCC_541\Debug\lv_draw_mask.o
 .rodata.str1.4
                0x00000000       0x2d .\CortexM3\ARM_GCC_541\Debug\lv_draw_mask.o
 .text          0x00000000        0x0 .\CortexM3\ARM_GCC_541\Debug\lv_draw_rect.o
 .data          0x00000000        0x0 .\CortexM3\ARM_GCC_541\Debug\lv_draw_rect.o
 .bss           0x00000000        0x0 .\CortexM3\ARM_GCC_541\Debug\lv_draw_rect.o
 .text.lv_draw_px
                0x00000000        0x4 .\CortexM3\ARM_GCC_541\Debug\lv_draw_rect.o
 .text          0x00000000        0x0 .\CortexM3\ARM_GCC_541\Debug\lv_draw_triangle.o
 .data          0x00000000        0x0 .\CortexM3\ARM_GCC_541\Debug\lv_draw_triangle.o
 .bss           0x00000000        0x0 .\CortexM3\ARM_GCC_541\Debug\lv_draw_triangle.o
 .text.lv_draw_polygon
                0x00000000      0x1ec .\CortexM3\ARM_GCC_541\Debug\lv_draw_triangle.o
 .text.lv_draw_triangle
                0x00000000       0x10 .\CortexM3\ARM_GCC_541\Debug\lv_draw_triangle.o
 .rodata        0x00000000        0x8 .\CortexM3\ARM_GCC_541\Debug\lv_draw_triangle.o
 .text          0x00000000        0x0 .\CortexM3\ARM_GCC_541\Debug\lv_img_buf.o
 .data          0x00000000        0x0 .\CortexM3\ARM_GCC_541\Debug\lv_img_buf.o
 .bss           0x00000000        0x0 .\CortexM3\ARM_GCC_541\Debug\lv_img_buf.o
 .text.lv_img_buf_set_px_alpha
                0x00000000      0x100 .\CortexM3\ARM_GCC_541\Debug\lv_img_buf.o
 .text.lv_img_buf_set_px_color
                0x00000000      0x16c .\CortexM3\ARM_GCC_541\Debug\lv_img_buf.o
 .text.lv_img_buf_set_palette
                0x00000000       0x94 .\CortexM3\ARM_GCC_541\Debug\lv_img_buf.o
 .text.lv_img_buf_free
                0x00000000       0x18 .\CortexM3\ARM_GCC_541\Debug\lv_img_buf.o
 .text.lv_img_buf_get_img_size
                0x00000000       0xa8 .\CortexM3\ARM_GCC_541\Debug\lv_img_buf.o
 .text.lv_img_buf_alloc
                0x00000000       0x70 .\CortexM3\ARM_GCC_541\Debug\lv_img_buf.o
 .text          0x00000000        0x0 .\CortexM3\ARM_GCC_541\Debug\lv_img_cache.o
 .data          0x00000000        0x0 .\CortexM3\ARM_GCC_541\Debug\lv_img_cache.o
 .text          0x00000000        0x0 .\CortexM3\ARM_GCC_541\Debug\lv_img_decoder.o
 .data          0x00000000        0x0 .\CortexM3\ARM_GCC_541\Debug\lv_img_decoder.o
 .bss           0x00000000        0x0 .\CortexM3\ARM_GCC_541\Debug\lv_img_decoder.o
 .text.lv_img_decoder_delete
                0x00000000       0x18 .\CortexM3\ARM_GCC_541\Debug\lv_img_decoder.o
 .text          0x00000000        0x0 .\CortexM3\ARM_GCC_541\Debug\lv_font.o
 .data          0x00000000        0x0 .\CortexM3\ARM_GCC_541\Debug\lv_font.o
 .bss           0x00000000        0x0 .\CortexM3\ARM_GCC_541\Debug\lv_font.o
 .text          0x00000000        0x0 .\CortexM3\ARM_GCC_541\Debug\lv_font_dejavu_16_persian_hebrew.o
 .data          0x00000000        0x0 .\CortexM3\ARM_GCC_541\Debug\lv_font_dejavu_16_persian_hebrew.o
 .bss           0x00000000        0x0 .\CortexM3\ARM_GCC_541\Debug\lv_font_dejavu_16_persian_hebrew.o
 .text          0x00000000        0x0 .\CortexM3\ARM_GCC_541\Debug\lv_font_fmt_txt.o
 .data          0x00000000        0x0 .\CortexM3\ARM_GCC_541\Debug\lv_font_fmt_txt.o
 .text          0x00000000        0x0 .\CortexM3\ARM_GCC_541\Debug\lv_font_loader.o
 .data          0x00000000        0x0 .\CortexM3\ARM_GCC_541\Debug\lv_font_loader.o
 .bss           0x00000000        0x0 .\CortexM3\ARM_GCC_541\Debug\lv_font_loader.o
 .text          0x00000000        0x0 .\CortexM3\ARM_GCC_541\Debug\lv_font_montserrat_12.o
 .bss           0x00000000        0x0 .\CortexM3\ARM_GCC_541\Debug\lv_font_montserrat_12.o
 .text          0x00000000        0x0 .\CortexM3\ARM_GCC_541\Debug\lv_font_montserrat_12_subpx.o
 .data          0x00000000        0x0 .\CortexM3\ARM_GCC_541\Debug\lv_font_montserrat_12_subpx.o
 .bss           0x00000000        0x0 .\CortexM3\ARM_GCC_541\Debug\lv_font_montserrat_12_subpx.o
 .text          0x00000000        0x0 .\CortexM3\ARM_GCC_541\Debug\lv_font_montserrat_14.o
 .data          0x00000000        0x0 .\CortexM3\ARM_GCC_541\Debug\lv_font_montserrat_14.o
 .bss           0x00000000        0x0 .\CortexM3\ARM_GCC_541\Debug\lv_font_montserrat_14.o
 .text          0x00000000        0x0 .\CortexM3\ARM_GCC_541\Debug\lv_font_montserrat_16.o
 .data          0x00000000        0x0 .\CortexM3\ARM_GCC_541\Debug\lv_font_montserrat_16.o
 .bss           0x00000000        0x0 .\CortexM3\ARM_GCC_541\Debug\lv_font_montserrat_16.o
 .text          0x00000000        0x0 .\CortexM3\ARM_GCC_541\Debug\lv_font_montserrat_18.o
 .data          0x00000000        0x0 .\CortexM3\ARM_GCC_541\Debug\lv_font_montserrat_18.o
 .bss           0x00000000        0x0 .\CortexM3\ARM_GCC_541\Debug\lv_font_montserrat_18.o
 .text          0x00000000        0x0 .\CortexM3\ARM_GCC_541\Debug\lv_font_montserrat_20.o
 .data          0x00000000        0x0 .\CortexM3\ARM_GCC_541\Debug\lv_font_montserrat_20.o
 .bss           0x00000000        0x0 .\CortexM3\ARM_GCC_541\Debug\lv_font_montserrat_20.o
 .text          0x00000000        0x0 .\CortexM3\ARM_GCC_541\Debug\lv_font_montserrat_22.o
 .data          0x00000000        0x0 .\CortexM3\ARM_GCC_541\Debug\lv_font_montserrat_22.o
 .bss           0x00000000        0x0 .\CortexM3\ARM_GCC_541\Debug\lv_font_montserrat_22.o
 .text          0x00000000        0x0 .\CortexM3\ARM_GCC_541\Debug\lv_font_montserrat_24.o
 .data          0x00000000        0x0 .\CortexM3\ARM_GCC_541\Debug\lv_font_montserrat_24.o
 .bss           0x00000000        0x0 .\CortexM3\ARM_GCC_541\Debug\lv_font_montserrat_24.o
 .text          0x00000000        0x0 .\CortexM3\ARM_GCC_541\Debug\lv_font_montserrat_26.o
 .data          0x00000000        0x0 .\CortexM3\ARM_GCC_541\Debug\lv_font_montserrat_26.o
 .bss           0x00000000        0x0 .\CortexM3\ARM_GCC_541\Debug\lv_font_montserrat_26.o
 .text          0x00000000        0x0 .\CortexM3\ARM_GCC_541\Debug\lv_font_montserrat_28.o
 .data          0x00000000        0x0 .\CortexM3\ARM_GCC_541\Debug\lv_font_montserrat_28.o
 .bss           0x00000000        0x0 .\CortexM3\ARM_GCC_541\Debug\lv_font_montserrat_28.o
 .text          0x00000000        0x0 .\CortexM3\ARM_GCC_541\Debug\lv_font_montserrat_28_compressed.o
 .data          0x00000000        0x0 .\CortexM3\ARM_GCC_541\Debug\lv_font_montserrat_28_compressed.o
 .bss           0x00000000        0x0 .\CortexM3\ARM_GCC_541\Debug\lv_font_montserrat_28_compressed.o
 .text          0x00000000        0x0 .\CortexM3\ARM_GCC_541\Debug\lv_font_montserrat_30.o
 .data          0x00000000        0x0 .\CortexM3\ARM_GCC_541\Debug\lv_font_montserrat_30.o
 .bss           0x00000000        0x0 .\CortexM3\ARM_GCC_541\Debug\lv_font_montserrat_30.o
 .text          0x00000000        0x0 .\CortexM3\ARM_GCC_541\Debug\lv_font_montserrat_32.o
 .data          0x00000000        0x0 .\CortexM3\ARM_GCC_541\Debug\lv_font_montserrat_32.o
 .bss           0x00000000        0x0 .\CortexM3\ARM_GCC_541\Debug\lv_font_montserrat_32.o
 .text          0x00000000        0x0 .\CortexM3\ARM_GCC_541\Debug\lv_font_montserrat_34.o
 .data          0x00000000        0x0 .\CortexM3\ARM_GCC_541\Debug\lv_font_montserrat_34.o
 .bss           0x00000000        0x0 .\CortexM3\ARM_GCC_541\Debug\lv_font_montserrat_34.o
 .text          0x00000000        0x0 .\CortexM3\ARM_GCC_541\Debug\lv_font_montserrat_36.o
 .data          0x00000000        0x0 .\CortexM3\ARM_GCC_541\Debug\lv_font_montserrat_36.o
 .bss           0x00000000        0x0 .\CortexM3\ARM_GCC_541\Debug\lv_font_montserrat_36.o
 .text          0x00000000        0x0 .\CortexM3\ARM_GCC_541\Debug\lv_font_montserrat_38.o
 .data          0x00000000        0x0 .\CortexM3\ARM_GCC_541\Debug\lv_font_montserrat_38.o
 .bss           0x00000000        0x0 .\CortexM3\ARM_GCC_541\Debug\lv_font_montserrat_38.o
 .text          0x00000000        0x0 .\CortexM3\ARM_GCC_541\Debug\lv_font_montserrat_40.o
 .data          0x00000000        0x0 .\CortexM3\ARM_GCC_541\Debug\lv_font_montserrat_40.o
 .bss           0x00000000        0x0 .\CortexM3\ARM_GCC_541\Debug\lv_font_montserrat_40.o
 .text          0x00000000        0x0 .\CortexM3\ARM_GCC_541\Debug\lv_font_montserrat_42.o
 .data          0x00000000        0x0 .\CortexM3\ARM_GCC_541\Debug\lv_font_montserrat_42.o
 .bss           0x00000000        0x0 .\CortexM3\ARM_GCC_541\Debug\lv_font_montserrat_42.o
 .text          0x00000000        0x0 .\CortexM3\ARM_GCC_541\Debug\lv_font_montserrat_44.o
 .data          0x00000000        0x0 .\CortexM3\ARM_GCC_541\Debug\lv_font_montserrat_44.o
 .bss           0x00000000        0x0 .\CortexM3\ARM_GCC_541\Debug\lv_font_montserrat_44.o
 .text          0x00000000        0x0 .\CortexM3\ARM_GCC_541\Debug\lv_font_montserrat_46.o
 .data          0x00000000        0x0 .\CortexM3\ARM_GCC_541\Debug\lv_font_montserrat_46.o
 .bss           0x00000000        0x0 .\CortexM3\ARM_GCC_541\Debug\lv_font_montserrat_46.o
 .text          0x00000000        0x0 .\CortexM3\ARM_GCC_541\Debug\lv_font_montserrat_48.o
 .data          0x00000000        0x0 .\CortexM3\ARM_GCC_541\Debug\lv_font_montserrat_48.o
 .bss           0x00000000        0x0 .\CortexM3\ARM_GCC_541\Debug\lv_font_montserrat_48.o
 .text          0x00000000        0x0 .\CortexM3\ARM_GCC_541\Debug\lv_font_simsun_16_cjk.o
 .data          0x00000000        0x0 .\CortexM3\ARM_GCC_541\Debug\lv_font_simsun_16_cjk.o
 .bss           0x00000000        0x0 .\CortexM3\ARM_GCC_541\Debug\lv_font_simsun_16_cjk.o
 .text          0x00000000        0x0 .\CortexM3\ARM_GCC_541\Debug\lv_font_unscii_8.o
 .data          0x00000000        0x0 .\CortexM3\ARM_GCC_541\Debug\lv_font_unscii_8.o
 .bss           0x00000000        0x0 .\CortexM3\ARM_GCC_541\Debug\lv_font_unscii_8.o
 .text          0x00000000        0x0 .\CortexM3\ARM_GCC_541\Debug\lv_font_montserrat_8.o
 .data          0x00000000        0x0 .\CortexM3\ARM_GCC_541\Debug\lv_font_montserrat_8.o
 .bss           0x00000000        0x0 .\CortexM3\ARM_GCC_541\Debug\lv_font_montserrat_8.o
 .text          0x00000000        0x0 .\CortexM3\ARM_GCC_541\Debug\lv_font_montserrat_10.o
 .data          0x00000000        0x0 .\CortexM3\ARM_GCC_541\Debug\lv_font_montserrat_10.o
 .bss           0x00000000        0x0 .\CortexM3\ARM_GCC_541\Debug\lv_font_montserrat_10.o
 .text          0x00000000        0x0 .\CortexM3\ARM_GCC_541\Debug\lv_gpu_stm32_dma2d.o
 .data          0x00000000        0x0 .\CortexM3\ARM_GCC_541\Debug\lv_gpu_stm32_dma2d.o
 .bss           0x00000000        0x0 .\CortexM3\ARM_GCC_541\Debug\lv_gpu_stm32_dma2d.o
 .text          0x00000000        0x0 .\CortexM3\ARM_GCC_541\Debug\lv_hal_disp.o
 .data          0x00000000        0x0 .\CortexM3\ARM_GCC_541\Debug\lv_hal_disp.o
 .text.lv_disp_set_default
                0x00000000        0xc .\CortexM3\ARM_GCC_541\Debug\lv_hal_disp.o
 .text.lv_disp_remove
                0x00000000       0x4c .\CortexM3\ARM_GCC_541\Debug\lv_hal_disp.o
 .text.lv_disp_drv_update
                0x00000000       0x58 .\CortexM3\ARM_GCC_541\Debug\lv_hal_disp.o
 .text.lv_disp_get_antialiasing
                0x00000000       0x1c .\CortexM3\ARM_GCC_541\Debug\lv_hal_disp.o
 .text.lv_disp_flush_is_last
                0x00000000        0xc .\CortexM3\ARM_GCC_541\Debug\lv_hal_disp.o
 .text          0x00000000        0x0 .\CortexM3\ARM_GCC_541\Debug\lv_hal_indev.o
 .data          0x00000000        0x0 .\CortexM3\ARM_GCC_541\Debug\lv_hal_indev.o
 .bss           0x00000000        0x0 .\CortexM3\ARM_GCC_541\Debug\lv_hal_indev.o
 .text.lv_indev_drv_update
                0x00000000       0x28 .\CortexM3\ARM_GCC_541\Debug\lv_hal_indev.o
 .text          0x00000000        0x0 .\CortexM3\ARM_GCC_541\Debug\lv_hal_tick.o
 .data          0x00000000        0x0 .\CortexM3\ARM_GCC_541\Debug\lv_hal_tick.o
 .text          0x00000000        0x0 .\CortexM3\ARM_GCC_541\Debug\lv_anim.o
 .data          0x00000000        0x0 .\CortexM3\ARM_GCC_541\Debug\lv_anim.o
 .text.lv_anim_count_running
                0x00000000       0x24 .\CortexM3\ARM_GCC_541\Debug\lv_anim.o
 .text.lv_anim_refr_now
                0x00000000        0xc .\CortexM3\ARM_GCC_541\Debug\lv_anim.o
 .text.lv_anim_path_ease_in
                0x00000000       0x40 .\CortexM3\ARM_GCC_541\Debug\lv_anim.o
 .text.lv_anim_path_ease_out
                0x00000000       0x40 .\CortexM3\ARM_GCC_541\Debug\lv_anim.o
 .text.lv_anim_path_ease_in_out
                0x00000000       0x40 .\CortexM3\ARM_GCC_541\Debug\lv_anim.o
 .text.lv_anim_path_overshoot
                0x00000000       0x44 .\CortexM3\ARM_GCC_541\Debug\lv_anim.o
 .text.lv_anim_path_bounce
                0x00000000       0xd0 .\CortexM3\ARM_GCC_541\Debug\lv_anim.o
 .text          0x00000000        0x0 .\CortexM3\ARM_GCC_541\Debug\lv_area.o
 .data          0x00000000        0x0 .\CortexM3\ARM_GCC_541\Debug\lv_area.o
 .bss           0x00000000        0x0 .\CortexM3\ARM_GCC_541\Debug\lv_area.o
 .text          0x00000000        0x0 .\CortexM3\ARM_GCC_541\Debug\lv_async.o
 .data          0x00000000        0x0 .\CortexM3\ARM_GCC_541\Debug\lv_async.o
 .bss           0x00000000        0x0 .\CortexM3\ARM_GCC_541\Debug\lv_async.o
 .text.lv_async_task_cb
                0x00000000       0x14 .\CortexM3\ARM_GCC_541\Debug\lv_async.o
 .text.lv_async_call
                0x00000000       0x40 .\CortexM3\ARM_GCC_541\Debug\lv_async.o
 .text          0x00000000        0x0 .\CortexM3\ARM_GCC_541\Debug\lv_bidi.o
 .data          0x00000000        0x0 .\CortexM3\ARM_GCC_541\Debug\lv_bidi.o
 .bss           0x00000000        0x0 .\CortexM3\ARM_GCC_541\Debug\lv_bidi.o
 .text          0x00000000        0x0 .\CortexM3\ARM_GCC_541\Debug\lv_color.o
 .data          0x00000000        0x0 .\CortexM3\ARM_GCC_541\Debug\lv_color.o
 .bss           0x00000000        0x0 .\CortexM3\ARM_GCC_541\Debug\lv_color.o
 .text.lv_color_hsv_to_rgb
                0x00000000      0x100 .\CortexM3\ARM_GCC_541\Debug\lv_color.o
 .text.lv_color_rgb_to_hsv
                0x00000000      0x10c .\CortexM3\ARM_GCC_541\Debug\lv_color.o
 .text.lv_color_to_hsv
                0x00000000       0x70 .\CortexM3\ARM_GCC_541\Debug\lv_color.o
 .text          0x00000000        0x0 .\CortexM3\ARM_GCC_541\Debug\lv_debug.o
 .data          0x00000000        0x0 .\CortexM3\ARM_GCC_541\Debug\lv_debug.o
 .bss           0x00000000        0x0 .\CortexM3\ARM_GCC_541\Debug\lv_debug.o
 .text.lv_debug_check_mem_integrity
                0x00000000       0x10 .\CortexM3\ARM_GCC_541\Debug\lv_debug.o
 .text.lv_debug_check_str
                0x00000000       0x48 .\CortexM3\ARM_GCC_541\Debug\lv_debug.o
 .text          0x00000000        0x0 .\CortexM3\ARM_GCC_541\Debug\lv_fs.o
 .data          0x00000000        0x0 .\CortexM3\ARM_GCC_541\Debug\lv_fs.o
 .bss           0x00000000        0x0 .\CortexM3\ARM_GCC_541\Debug\lv_fs.o
 .text          0x00000000        0x0 .\CortexM3\ARM_GCC_541\Debug\lv_gc.o
 .data          0x00000000        0x0 .\CortexM3\ARM_GCC_541\Debug\lv_gc.o
 .bss           0x00000000        0x0 .\CortexM3\ARM_GCC_541\Debug\lv_gc.o
 .text._lv_gc_clear_roots
                0x00000000       0xdc .\CortexM3\ARM_GCC_541\Debug\lv_gc.o
 .text          0x00000000        0x0 .\CortexM3\ARM_GCC_541\Debug\lv_ll.o
 .data          0x00000000        0x0 .\CortexM3\ARM_GCC_541\Debug\lv_ll.o
 .bss           0x00000000        0x0 .\CortexM3\ARM_GCC_541\Debug\lv_ll.o
 .text._lv_ll_clear
                0x00000000       0x2c .\CortexM3\ARM_GCC_541\Debug\lv_ll.o
 .text._lv_ll_get_len
                0x00000000       0x20 .\CortexM3\ARM_GCC_541\Debug\lv_ll.o
 .text          0x00000000        0x0 .\CortexM3\ARM_GCC_541\Debug\lv_log.o
 .data          0x00000000        0x0 .\CortexM3\ARM_GCC_541\Debug\lv_log.o
 .bss           0x00000000        0x0 .\CortexM3\ARM_GCC_541\Debug\lv_log.o
 .text          0x00000000        0x0 .\CortexM3\ARM_GCC_541\Debug\lv_math.o
 .data          0x00000000        0x0 .\CortexM3\ARM_GCC_541\Debug\lv_math.o
 .bss           0x00000000        0x0 .\CortexM3\ARM_GCC_541\Debug\lv_math.o
 .text._lv_bezier3
                0x00000000       0x54 .\CortexM3\ARM_GCC_541\Debug\lv_math.o
 .text._lv_atan2
                0x00000000       0xb4 .\CortexM3\ARM_GCC_541\Debug\lv_math.o
 .text._lv_map  0x00000000       0x2c .\CortexM3\ARM_GCC_541\Debug\lv_math.o
 .text          0x00000000        0x0 .\CortexM3\ARM_GCC_541\Debug\lv_mem.o
 .text.lv_mem_test
                0x00000000       0x3c .\CortexM3\ARM_GCC_541\Debug\lv_mem.o
 .text.lv_mem_monitor
                0x00000000       0x88 .\CortexM3\ARM_GCC_541\Debug\lv_mem.o
 .text._lv_mem_deinit
                0x00000000       0x2c .\CortexM3\ARM_GCC_541\Debug\lv_mem.o
 .text          0x00000000        0x0 .\CortexM3\ARM_GCC_541\Debug\lv_printf.o
 .data          0x00000000        0x0 .\CortexM3\ARM_GCC_541\Debug\lv_printf.o
 .bss           0x00000000        0x0 .\CortexM3\ARM_GCC_541\Debug\lv_printf.o
 .text._out_buffer
                0x00000000        0x8 .\CortexM3\ARM_GCC_541\Debug\lv_printf.o
 .text._out_null
                0x00000000        0x4 .\CortexM3\ARM_GCC_541\Debug\lv_printf.o
 .text._atoi    0x00000000       0x28 .\CortexM3\ARM_GCC_541\Debug\lv_printf.o
 .text._out_rev
                0x00000000       0x7c .\CortexM3\ARM_GCC_541\Debug\lv_printf.o
 .text._ntoa_format
                0x00000000      0x118 .\CortexM3\ARM_GCC_541\Debug\lv_printf.o
 .text._ntoa_long
                0x00000000       0x94 .\CortexM3\ARM_GCC_541\Debug\lv_printf.o
 .text._ntoa_long_long
                0x00000000       0xbc .\CortexM3\ARM_GCC_541\Debug\lv_printf.o
 .text._vsnprintf
                0x00000000      0x5f4 .\CortexM3\ARM_GCC_541\Debug\lv_printf.o
 .text.lv_snprintf
                0x00000000       0x28 .\CortexM3\ARM_GCC_541\Debug\lv_printf.o
 .text.lv_vsnprintf
                0x00000000       0x1c .\CortexM3\ARM_GCC_541\Debug\lv_printf.o
 .text          0x00000000        0x0 .\CortexM3\ARM_GCC_541\Debug\lv_task.o
 .data          0x00000000        0x0 .\CortexM3\ARM_GCC_541\Debug\lv_task.o
 .text.lv_task_set_repeat_count
                0x00000000        0x4 .\CortexM3\ARM_GCC_541\Debug\lv_task.o
 .text.lv_task_reset
                0x00000000        0xc .\CortexM3\ARM_GCC_541\Debug\lv_task.o
 .text.lv_task_get_idle
                0x00000000        0xc .\CortexM3\ARM_GCC_541\Debug\lv_task.o
 .text.lv_task_get_next
                0x00000000       0x1c .\CortexM3\ARM_GCC_541\Debug\lv_task.o
 .text          0x00000000        0x0 .\CortexM3\ARM_GCC_541\Debug\lv_templ.o
 .data          0x00000000        0x0 .\CortexM3\ARM_GCC_541\Debug\lv_templ.o
 .bss           0x00000000        0x0 .\CortexM3\ARM_GCC_541\Debug\lv_templ.o
 .text          0x00000000        0x0 .\CortexM3\ARM_GCC_541\Debug\lv_txt.o
 .bss           0x00000000        0x0 .\CortexM3\ARM_GCC_541\Debug\lv_txt.o
 .text          0x00000000        0x0 .\CortexM3\ARM_GCC_541\Debug\lv_txt_ap.o
 .data          0x00000000        0x0 .\CortexM3\ARM_GCC_541\Debug\lv_txt_ap.o
 .bss           0x00000000        0x0 .\CortexM3\ARM_GCC_541\Debug\lv_txt_ap.o
 .text          0x00000000        0x0 .\CortexM3\ARM_GCC_541\Debug\lv_utils.o
 .data          0x00000000        0x0 .\CortexM3\ARM_GCC_541\Debug\lv_utils.o
 .bss           0x00000000        0x0 .\CortexM3\ARM_GCC_541\Debug\lv_utils.o
 .text          0x00000000        0x0 .\CortexM3\ARM_GCC_541\Debug\lv_theme.o
 .data          0x00000000        0x0 .\CortexM3\ARM_GCC_541\Debug\lv_theme.o
 .text.lv_theme_get_act
                0x00000000        0xc .\CortexM3\ARM_GCC_541\Debug\lv_theme.o
 .text.lv_theme_copy
                0x00000000       0x38 .\CortexM3\ARM_GCC_541\Debug\lv_theme.o
 .text.lv_theme_set_base
                0x00000000        0x4 .\CortexM3\ARM_GCC_541\Debug\lv_theme.o
 .text.lv_theme_set_apply_cb
                0x00000000        0x4 .\CortexM3\ARM_GCC_541\Debug\lv_theme.o
 .text.lv_theme_get_font_small
                0x00000000        0xc .\CortexM3\ARM_GCC_541\Debug\lv_theme.o
 .text.lv_theme_get_font_subtitle
                0x00000000        0xc .\CortexM3\ARM_GCC_541\Debug\lv_theme.o
 .text.lv_theme_get_font_title
                0x00000000        0xc .\CortexM3\ARM_GCC_541\Debug\lv_theme.o
 .text.lv_theme_get_color_primary
                0x00000000        0xc .\CortexM3\ARM_GCC_541\Debug\lv_theme.o
 .text.lv_theme_get_color_secondary
                0x00000000        0xc .\CortexM3\ARM_GCC_541\Debug\lv_theme.o
 .text.lv_theme_get_flags
                0x00000000        0xc .\CortexM3\ARM_GCC_541\Debug\lv_theme.o
 .text          0x00000000        0x0 .\CortexM3\ARM_GCC_541\Debug\lv_theme_empty.o
 .data          0x00000000        0x0 .\CortexM3\ARM_GCC_541\Debug\lv_theme_empty.o
 .bss           0x00000000        0x0 .\CortexM3\ARM_GCC_541\Debug\lv_theme_empty.o
 .text          0x00000000        0x0 .\CortexM3\ARM_GCC_541\Debug\lv_theme_material.o
 .data          0x00000000        0x0 .\CortexM3\ARM_GCC_541\Debug\lv_theme_material.o
 .text          0x00000000        0x0 .\CortexM3\ARM_GCC_541\Debug\lv_theme_mono.o
 .data          0x00000000        0x0 .\CortexM3\ARM_GCC_541\Debug\lv_theme_mono.o
 .bss           0x00000000        0x0 .\CortexM3\ARM_GCC_541\Debug\lv_theme_mono.o
 .text          0x00000000        0x0 .\CortexM3\ARM_GCC_541\Debug\lv_theme_template.o
 .data          0x00000000        0x0 .\CortexM3\ARM_GCC_541\Debug\lv_theme_template.o
 .bss           0x00000000        0x0 .\CortexM3\ARM_GCC_541\Debug\lv_theme_template.o
 .text          0x00000000        0x0 .\CortexM3\ARM_GCC_541\Debug\lv_arc.o
 .data          0x00000000        0x0 .\CortexM3\ARM_GCC_541\Debug\lv_arc.o
 .bss           0x00000000        0x0 .\CortexM3\ARM_GCC_541\Debug\lv_arc.o
 .text          0x00000000        0x0 .\CortexM3\ARM_GCC_541\Debug\lv_bar.o
 .data          0x00000000        0x0 .\CortexM3\ARM_GCC_541\Debug\lv_bar.o
 .bss           0x00000000        0x0 .\CortexM3\ARM_GCC_541\Debug\lv_bar.o
 .text          0x00000000        0x0 .\CortexM3\ARM_GCC_541\Debug\lv_btn.o
 .data          0x00000000        0x0 .\CortexM3\ARM_GCC_541\Debug\lv_btn.o
 .text.lv_btn_toggle
                0x00000000       0x3c .\CortexM3\ARM_GCC_541\Debug\lv_btn.o
 .text          0x00000000        0x0 .\CortexM3\ARM_GCC_541\Debug\lv_btnmatrix.o
 .data          0x00000000       0x1c .\CortexM3\ARM_GCC_541\Debug\lv_btnmatrix.o
 .bss           0x00000000        0x8 .\CortexM3\ARM_GCC_541\Debug\lv_btnmatrix.o
 .text.get_button_width
                0x00000000        0xc .\CortexM3\ARM_GCC_541\Debug\lv_btnmatrix.o
 .text.button_is_hidden
                0x00000000        0x8 .\CortexM3\ARM_GCC_541\Debug\lv_btnmatrix.o
 .text.button_is_repeat_disabled
                0x00000000        0x8 .\CortexM3\ARM_GCC_541\Debug\lv_btnmatrix.o
 .text.button_is_inactive
                0x00000000        0x8 .\CortexM3\ARM_GCC_541\Debug\lv_btnmatrix.o
 .text.button_is_click_trig
                0x00000000        0x8 .\CortexM3\ARM_GCC_541\Debug\lv_btnmatrix.o
 .text.button_is_tgl_enabled
                0x00000000        0x8 .\CortexM3\ARM_GCC_541\Debug\lv_btnmatrix.o
 .text.button_get_tgl_state
                0x00000000        0x8 .\CortexM3\ARM_GCC_541\Debug\lv_btnmatrix.o
 .text.lv_btnmatrix_get_style
                0x00000000       0x38 .\CortexM3\ARM_GCC_541\Debug\lv_btnmatrix.o
 .text.maps_are_identical
                0x00000000       0x58 .\CortexM3\ARM_GCC_541\Debug\lv_btnmatrix.o
 .text.get_button_from_point
                0x00000000      0x198 .\CortexM3\ARM_GCC_541\Debug\lv_btnmatrix.o
 .text.invalidate_button_area
                0x00000000       0x74 .\CortexM3\ARM_GCC_541\Debug\lv_btnmatrix.o
 .text.allocate_btn_areas_and_controls
                0x00000000       0xa0 .\CortexM3\ARM_GCC_541\Debug\lv_btnmatrix.o
 .text.lv_btnmatrix_set_map
                0x00000000      0x2c0 .\CortexM3\ARM_GCC_541\Debug\lv_btnmatrix.o
 .text.lv_btnmatrix_set_ctrl_map
                0x00000000       0x3c .\CortexM3\ARM_GCC_541\Debug\lv_btnmatrix.o
 .text.lv_btnmatrix_create
                0x00000000      0x10c .\CortexM3\ARM_GCC_541\Debug\lv_btnmatrix.o
 .text.lv_btnmatrix_set_focused_btn
                0x00000000       0x40 .\CortexM3\ARM_GCC_541\Debug\lv_btnmatrix.o
 .text.lv_btnmatrix_set_recolor
                0x00000000       0x34 .\CortexM3\ARM_GCC_541\Debug\lv_btnmatrix.o
 .text.lv_btnmatrix_set_btn_ctrl
                0x00000000       0x40 .\CortexM3\ARM_GCC_541\Debug\lv_btnmatrix.o
 .text.lv_btnmatrix_clear_btn_ctrl
                0x00000000       0x44 .\CortexM3\ARM_GCC_541\Debug\lv_btnmatrix.o
 .text.lv_btnmatrix_set_btn_ctrl_all
                0x00000000       0x40 .\CortexM3\ARM_GCC_541\Debug\lv_btnmatrix.o
 .text.lv_btnmatrix_clear_btn_ctrl_all
                0x00000000       0x40 .\CortexM3\ARM_GCC_541\Debug\lv_btnmatrix.o
 .text.lv_btnmatrix_set_btn_width
                0x00000000       0x54 .\CortexM3\ARM_GCC_541\Debug\lv_btnmatrix.o
 .text.lv_btnmatrix_set_align
                0x00000000       0x3c .\CortexM3\ARM_GCC_541\Debug\lv_btnmatrix.o
 .text.lv_btnmatrix_get_map_array
                0x00000000       0x24 .\CortexM3\ARM_GCC_541\Debug\lv_btnmatrix.o
 .text.lv_btnmatrix_get_recolor
                0x00000000       0x28 .\CortexM3\ARM_GCC_541\Debug\lv_btnmatrix.o
 .text.lv_btnmatrix_get_active_btn
                0x00000000       0x24 .\CortexM3\ARM_GCC_541\Debug\lv_btnmatrix.o
 .text.lv_btnmatrix_get_focused_btn
                0x00000000       0x24 .\CortexM3\ARM_GCC_541\Debug\lv_btnmatrix.o
 .text.lv_btnmatrix_get_btn_text
                0x00000000       0x74 .\CortexM3\ARM_GCC_541\Debug\lv_btnmatrix.o
 .text.lv_btnmatrix_get_active_btn_text
                0x00000000       0x38 .\CortexM3\ARM_GCC_541\Debug\lv_btnmatrix.o
 .text.lv_btnmatrix_get_btn_ctrl
                0x00000000       0x40 .\CortexM3\ARM_GCC_541\Debug\lv_btnmatrix.o
 .text.make_one_button_toggled
                0x00000000       0x24 .\CortexM3\ARM_GCC_541\Debug\lv_btnmatrix.o
 .text.lv_btnmatrix_signal
                0x00000000      0x5e0 .\CortexM3\ARM_GCC_541\Debug\lv_btnmatrix.o
 .text.lv_btnmatrix_set_one_check
                0x00000000       0x34 .\CortexM3\ARM_GCC_541\Debug\lv_btnmatrix.o
 .text.lv_btnmatrix_get_one_check
                0x00000000       0x28 .\CortexM3\ARM_GCC_541\Debug\lv_btnmatrix.o
 .text.lv_btnmatrix_get_align
                0x00000000       0x30 .\CortexM3\ARM_GCC_541\Debug\lv_btnmatrix.o
 .text.lv_btnmatrix_design
                0x00000000      0x464 .\CortexM3\ARM_GCC_541\Debug\lv_btnmatrix.o
 .rodata.str1.4
                0x00000000       0x5d .\CortexM3\ARM_GCC_541\Debug\lv_btnmatrix.o
 .text          0x00000000        0x0 .\CortexM3\ARM_GCC_541\Debug\lv_calendar.o
 .data          0x00000000        0x0 .\CortexM3\ARM_GCC_541\Debug\lv_calendar.o
 .bss           0x00000000        0x0 .\CortexM3\ARM_GCC_541\Debug\lv_calendar.o
 .text          0x00000000        0x0 .\CortexM3\ARM_GCC_541\Debug\lv_canvas.o
 .data          0x00000000        0x0 .\CortexM3\ARM_GCC_541\Debug\lv_canvas.o
 .bss           0x00000000        0x0 .\CortexM3\ARM_GCC_541\Debug\lv_canvas.o
 .text          0x00000000        0x0 .\CortexM3\ARM_GCC_541\Debug\lv_chart.o
 .data          0x00000000        0x0 .\CortexM3\ARM_GCC_541\Debug\lv_chart.o
 .bss           0x00000000        0x0 .\CortexM3\ARM_GCC_541\Debug\lv_chart.o
 .text          0x00000000        0x0 .\CortexM3\ARM_GCC_541\Debug\lv_checkbox.o
 .data          0x00000000        0x0 .\CortexM3\ARM_GCC_541\Debug\lv_checkbox.o
 .text.lv_checkbox_set_text_static
                0x00000000       0x2c .\CortexM3\ARM_GCC_541\Debug\lv_checkbox.o
 .text.lv_checkbox_set_disabled
                0x00000000       0x34 .\CortexM3\ARM_GCC_541\Debug\lv_checkbox.o
 .text.lv_checkbox_set_state
                0x00000000       0x4c .\CortexM3\ARM_GCC_541\Debug\lv_checkbox.o
 .text.lv_checkbox_get_text
                0x00000000       0x28 .\CortexM3\ARM_GCC_541\Debug\lv_checkbox.o
 .text          0x00000000        0x0 .\CortexM3\ARM_GCC_541\Debug\lv_cont.o
 .data          0x00000000        0x0 .\CortexM3\ARM_GCC_541\Debug\lv_cont.o
 .text.lv_cont_get_fit_bottom
                0x00000000       0x28 .\CortexM3\ARM_GCC_541\Debug\lv_cont.o
 .text          0x00000000        0x0 .\CortexM3\ARM_GCC_541\Debug\lv_cpicker.o
 .data          0x00000000        0x0 .\CortexM3\ARM_GCC_541\Debug\lv_cpicker.o
 .bss           0x00000000        0x0 .\CortexM3\ARM_GCC_541\Debug\lv_cpicker.o
 .text          0x00000000        0x0 .\CortexM3\ARM_GCC_541\Debug\lv_dropdown.o
 .data          0x00000000        0x0 .\CortexM3\ARM_GCC_541\Debug\lv_dropdown.o
 .text.lv_dropdown_set_text
                0x00000000       0x34 .\CortexM3\ARM_GCC_541\Debug\lv_dropdown.o
 .text.lv_dropdown_clear_options
                0x00000000       0x50 .\CortexM3\ARM_GCC_541\Debug\lv_dropdown.o
 .text.lv_dropdown_add_option
                0x00000000      0x178 .\CortexM3\ARM_GCC_541\Debug\lv_dropdown.o
 .text.lv_dropdown_set_selected
                0x00000000       0x44 .\CortexM3\ARM_GCC_541\Debug\lv_dropdown.o
 .text.lv_dropdown_set_dir
                0x00000000       0x44 .\CortexM3\ARM_GCC_541\Debug\lv_dropdown.o
 .text.lv_dropdown_set_max_height
                0x00000000       0x5c .\CortexM3\ARM_GCC_541\Debug\lv_dropdown.o
 .text.lv_dropdown_set_symbol
                0x00000000       0x2c .\CortexM3\ARM_GCC_541\Debug\lv_dropdown.o
 .text.lv_dropdown_set_show_selected
                0x00000000       0x44 .\CortexM3\ARM_GCC_541\Debug\lv_dropdown.o
 .text.lv_dropdown_get_text
                0x00000000       0x24 .\CortexM3\ARM_GCC_541\Debug\lv_dropdown.o
 .text.lv_dropdown_get_option_cnt
                0x00000000       0x24 .\CortexM3\ARM_GCC_541\Debug\lv_dropdown.o
 .text.lv_dropdown_get_max_height
                0x00000000       0x28 .\CortexM3\ARM_GCC_541\Debug\lv_dropdown.o
 .text.lv_dropdown_get_symbol
                0x00000000       0x24 .\CortexM3\ARM_GCC_541\Debug\lv_dropdown.o
 .text.lv_dropdown_get_dir
                0x00000000       0x2c .\CortexM3\ARM_GCC_541\Debug\lv_dropdown.o
 .text.lv_dropdown_get_show_selected
                0x00000000       0x2c .\CortexM3\ARM_GCC_541\Debug\lv_dropdown.o
 .text          0x00000000        0x0 .\CortexM3\ARM_GCC_541\Debug\lv_gauge.o
 .data          0x00000000        0x0 .\CortexM3\ARM_GCC_541\Debug\lv_gauge.o
 .bss           0x00000000        0x0 .\CortexM3\ARM_GCC_541\Debug\lv_gauge.o
 .text          0x00000000        0x0 .\CortexM3\ARM_GCC_541\Debug\lv_img.o
 .data          0x00000000        0x0 .\CortexM3\ARM_GCC_541\Debug\lv_img.o
 .bss           0x00000000        0x0 .\CortexM3\ARM_GCC_541\Debug\lv_img.o
 .text          0x00000000        0x0 .\CortexM3\ARM_GCC_541\Debug\lv_imgbtn.o
 .data          0x00000000        0x0 .\CortexM3\ARM_GCC_541\Debug\lv_imgbtn.o
 .bss           0x00000000        0x0 .\CortexM3\ARM_GCC_541\Debug\lv_imgbtn.o
 .text          0x00000000        0x0 .\CortexM3\ARM_GCC_541\Debug\lv_keyboard.o
 .data          0x00000000        0x0 .\CortexM3\ARM_GCC_541\Debug\lv_keyboard.o
 .bss           0x00000000        0x0 .\CortexM3\ARM_GCC_541\Debug\lv_keyboard.o
 .text          0x00000000        0x0 .\CortexM3\ARM_GCC_541\Debug\lv_label.o
 .data          0x00000000        0x0 .\CortexM3\ARM_GCC_541\Debug\lv_label.o
 .text.lv_label_set_text_sel_start
                0x00000000       0x1c .\CortexM3\ARM_GCC_541\Debug\lv_label.o
 .text.lv_label_set_text_sel_end
                0x00000000       0x1c .\CortexM3\ARM_GCC_541\Debug\lv_label.o
 .text.lv_label_get_anim_speed
                0x00000000       0x24 .\CortexM3\ARM_GCC_541\Debug\lv_label.o
 .text.lv_label_set_text_fmt
                0x00000000       0xc8 .\CortexM3\ARM_GCC_541\Debug\lv_label.o
 .text.lv_label_set_anim_speed
                0x00000000       0x40 .\CortexM3\ARM_GCC_541\Debug\lv_label.o
 .text.lv_label_is_char_under_pos
                0x00000000      0x228 .\CortexM3\ARM_GCC_541\Debug\lv_label.o
 .text.lv_label_cut_text
                0x00000000       0x48 .\CortexM3\ARM_GCC_541\Debug\lv_label.o
 .text          0x00000000        0x0 .\CortexM3\ARM_GCC_541\Debug\lv_led.o
 .data          0x00000000        0x0 .\CortexM3\ARM_GCC_541\Debug\lv_led.o
 .bss           0x00000000        0x8 .\CortexM3\ARM_GCC_541\Debug\lv_led.o
 .text.lv_led_signal
                0x00000000       0x38 .\CortexM3\ARM_GCC_541\Debug\lv_led.o
 .text.lv_led_design
                0x00000000      0x21c .\CortexM3\ARM_GCC_541\Debug\lv_led.o
 .text.lv_led_create
                0x00000000       0xc0 .\CortexM3\ARM_GCC_541\Debug\lv_led.o
 .text.lv_led_set_bright
                0x00000000       0x38 .\CortexM3\ARM_GCC_541\Debug\lv_led.o
 .text.lv_led_on
                0x00000000       0x24 .\CortexM3\ARM_GCC_541\Debug\lv_led.o
 .text.lv_led_off
                0x00000000       0x24 .\CortexM3\ARM_GCC_541\Debug\lv_led.o
 .text.lv_led_get_bright
                0x00000000       0x24 .\CortexM3\ARM_GCC_541\Debug\lv_led.o
 .text.lv_led_toggle
                0x00000000       0x34 .\CortexM3\ARM_GCC_541\Debug\lv_led.o
 .rodata.str1.4
                0x00000000       0x25 .\CortexM3\ARM_GCC_541\Debug\lv_led.o
 .text          0x00000000        0x0 .\CortexM3\ARM_GCC_541\Debug\lv_line.o
 .data          0x00000000        0x0 .\CortexM3\ARM_GCC_541\Debug\lv_line.o
 .bss           0x00000000        0x4 .\CortexM3\ARM_GCC_541\Debug\lv_line.o
 .text.lv_line_signal
                0x00000000       0x50 .\CortexM3\ARM_GCC_541\Debug\lv_line.o
 .text.lv_line_design
                0x00000000       0xfc .\CortexM3\ARM_GCC_541\Debug\lv_line.o
 .text.lv_line_set_points
                0x00000000       0x8c .\CortexM3\ARM_GCC_541\Debug\lv_line.o
 .text.lv_line_set_auto_size
                0x00000000       0x4c .\CortexM3\ARM_GCC_541\Debug\lv_line.o
 .text.lv_line_set_y_invert
                0x00000000       0x44 .\CortexM3\ARM_GCC_541\Debug\lv_line.o
 .text.lv_line_get_auto_size
                0x00000000       0x28 .\CortexM3\ARM_GCC_541\Debug\lv_line.o
 .text.lv_line_get_y_invert
                0x00000000       0x28 .\CortexM3\ARM_GCC_541\Debug\lv_line.o
 .text.lv_line_create
                0x00000000       0xf8 .\CortexM3\ARM_GCC_541\Debug\lv_line.o
 .rodata.str1.4
                0x00000000       0x26 .\CortexM3\ARM_GCC_541\Debug\lv_line.o
 .text          0x00000000        0x0 .\CortexM3\ARM_GCC_541\Debug\lv_linemeter.o
 .data          0x00000000        0x0 .\CortexM3\ARM_GCC_541\Debug\lv_linemeter.o
 .bss           0x00000000        0x0 .\CortexM3\ARM_GCC_541\Debug\lv_linemeter.o
 .text          0x00000000        0x0 .\CortexM3\ARM_GCC_541\Debug\lv_list.o
 .data          0x00000000        0x0 .\CortexM3\ARM_GCC_541\Debug\lv_list.o
 .bss           0x00000000        0x0 .\CortexM3\ARM_GCC_541\Debug\lv_list.o
 .text          0x00000000        0x0 .\CortexM3\ARM_GCC_541\Debug\lv_msgbox.o
 .data          0x00000000        0x0 .\CortexM3\ARM_GCC_541\Debug\lv_msgbox.o
 .bss           0x00000000        0x0 .\CortexM3\ARM_GCC_541\Debug\lv_msgbox.o
 .text          0x00000000        0x0 .\CortexM3\ARM_GCC_541\Debug\lv_objmask.o
 .data          0x00000000        0x0 .\CortexM3\ARM_GCC_541\Debug\lv_objmask.o
 .bss           0x00000000        0x8 .\CortexM3\ARM_GCC_541\Debug\lv_objmask.o
 .text.get_param_size
                0x00000000       0x28 .\CortexM3\ARM_GCC_541\Debug\lv_objmask.o
 .text.lv_objmask_design
                0x00000000      0x238 .\CortexM3\ARM_GCC_541\Debug\lv_objmask.o
 .text.lv_objmask_signal
                0x00000000       0x68 .\CortexM3\ARM_GCC_541\Debug\lv_objmask.o
 .text.lv_objmask_create
                0x00000000       0xb0 .\CortexM3\ARM_GCC_541\Debug\lv_objmask.o
 .text.lv_objmask_add_mask
                0x00000000       0x98 .\CortexM3\ARM_GCC_541\Debug\lv_objmask.o
 .text.lv_objmask_update_mask
                0x00000000       0x60 .\CortexM3\ARM_GCC_541\Debug\lv_objmask.o
 .text.lv_objmask_remove_mask
                0x00000000       0x6c .\CortexM3\ARM_GCC_541\Debug\lv_objmask.o
 .rodata.str1.4
                0x00000000       0x29 .\CortexM3\ARM_GCC_541\Debug\lv_objmask.o
 .text          0x00000000        0x0 .\CortexM3\ARM_GCC_541\Debug\lv_objx_templ.o
 .data          0x00000000        0x0 .\CortexM3\ARM_GCC_541\Debug\lv_objx_templ.o
 .bss           0x00000000        0x0 .\CortexM3\ARM_GCC_541\Debug\lv_objx_templ.o
 .text          0x00000000        0x0 .\CortexM3\ARM_GCC_541\Debug\lv_page.o
 .data          0x00000000        0x0 .\CortexM3\ARM_GCC_541\Debug\lv_page.o
 .text.lv_page_set_anim_time
                0x00000000       0x28 .\CortexM3\ARM_GCC_541\Debug\lv_page.o
 .text.lv_page_set_scroll_propagation
                0x00000000       0x48 .\CortexM3\ARM_GCC_541\Debug\lv_page.o
 .text.lv_page_clean
                0x00000000       0x28 .\CortexM3\ARM_GCC_541\Debug\lv_page.o
 .text.lv_page_get_scrollbar_mode
                0x00000000       0x2c .\CortexM3\ARM_GCC_541\Debug\lv_page.o
 .text.lv_page_get_scroll_propagation
                0x00000000       0x2c .\CortexM3\ARM_GCC_541\Debug\lv_page.o
 .text.lv_page_get_height_fit
                0x00000000       0x6c .\CortexM3\ARM_GCC_541\Debug\lv_page.o
 .text.lv_page_get_width_grid
                0x00000000       0x30 .\CortexM3\ARM_GCC_541\Debug\lv_page.o
 .text.lv_page_get_height_grid
                0x00000000       0x30 .\CortexM3\ARM_GCC_541\Debug\lv_page.o
 .text.lv_page_glue_obj
                0x00000000       0x14 .\CortexM3\ARM_GCC_541\Debug\lv_page.o
 .text.lv_page_focus
                0x00000000      0x234 .\CortexM3\ARM_GCC_541\Debug\lv_page.o
 .text          0x00000000        0x0 .\CortexM3\ARM_GCC_541\Debug\lv_roller.o
 .data          0x00000000        0x0 .\CortexM3\ARM_GCC_541\Debug\lv_roller.o
 .bss           0x00000000        0x0 .\CortexM3\ARM_GCC_541\Debug\lv_roller.o
 .text          0x00000000        0x0 .\CortexM3\ARM_GCC_541\Debug\lv_slider.o
 .data          0x00000000        0x0 .\CortexM3\ARM_GCC_541\Debug\lv_slider.o
 .bss           0x00000000        0x0 .\CortexM3\ARM_GCC_541\Debug\lv_slider.o
 .text          0x00000000        0x0 .\CortexM3\ARM_GCC_541\Debug\lv_spinbox.o
 .data          0x00000000        0x0 .\CortexM3\ARM_GCC_541\Debug\lv_spinbox.o
 .text.lv_spinbox_set_padding_left
                0x00000000       0x38 .\CortexM3\ARM_GCC_541\Debug\lv_spinbox.o
 .text.lv_spinbox_get_rollover
                0x00000000       0x2c .\CortexM3\ARM_GCC_541\Debug\lv_spinbox.o
 .text          0x00000000        0x0 .\CortexM3\ARM_GCC_541\Debug\lv_spinner.o
 .data          0x00000000        0x0 .\CortexM3\ARM_GCC_541\Debug\lv_spinner.o
 .bss           0x00000000        0x0 .\CortexM3\ARM_GCC_541\Debug\lv_spinner.o
 .text          0x00000000        0x0 .\CortexM3\ARM_GCC_541\Debug\lv_switch.o
 .data          0x00000000        0x0 .\CortexM3\ARM_GCC_541\Debug\lv_switch.o
 .bss           0x00000000        0x0 .\CortexM3\ARM_GCC_541\Debug\lv_switch.o
 .text          0x00000000        0x0 .\CortexM3\ARM_GCC_541\Debug\lv_table.o
 .data          0x00000000        0x0 .\CortexM3\ARM_GCC_541\Debug\lv_table.o
 .bss           0x00000000        0x0 .\CortexM3\ARM_GCC_541\Debug\lv_table.o
 .text          0x00000000        0x0 .\CortexM3\ARM_GCC_541\Debug\lv_tabview.o
 .data          0x00000000        0x4 .\CortexM3\ARM_GCC_541\Debug\lv_tabview.o
 .bss           0x00000000        0xc .\CortexM3\ARM_GCC_541\Debug\lv_tabview.o
 .text.lv_tabview_get_style
                0x00000000       0x6c .\CortexM3\ARM_GCC_541\Debug\lv_tabview.o
 .text.refr_btns_size
                0x00000000       0xfc .\CortexM3\ARM_GCC_541\Debug\lv_tabview.o
 .text.refr_content_size
                0x00000000       0xd0 .\CortexM3\ARM_GCC_541\Debug\lv_tabview.o
 .text.refr_indic_size
                0x00000000       0x9c .\CortexM3\ARM_GCC_541\Debug\lv_tabview.o
 .text.refr_align
                0x00000000       0xf4 .\CortexM3\ARM_GCC_541\Debug\lv_tabview.o
 .text.lv_tabview_clean_tab
                0x00000000       0x28 .\CortexM3\ARM_GCC_541\Debug\lv_tabview.o
 .text.lv_tabview_set_tab_name
                0x00000000       0x70 .\CortexM3\ARM_GCC_541\Debug\lv_tabview.o
 .text.lv_tabview_set_anim_time
                0x00000000       0x28 .\CortexM3\ARM_GCC_541\Debug\lv_tabview.o
 .text.lv_tabview_get_tab_act
                0x00000000       0x24 .\CortexM3\ARM_GCC_541\Debug\lv_tabview.o
 .text.lv_tabview_get_tab_count
                0x00000000       0x24 .\CortexM3\ARM_GCC_541\Debug\lv_tabview.o
 .text.lv_tabview_get_tab
                0x00000000       0x68 .\CortexM3\ARM_GCC_541\Debug\lv_tabview.o
 .text.lv_tabview_get_anim_time
                0x00000000       0x24 .\CortexM3\ARM_GCC_541\Debug\lv_tabview.o
 .text.lv_tabview_set_tab_act
                0x00000000      0x1e8 .\CortexM3\ARM_GCC_541\Debug\lv_tabview.o
 .text.tab_btnm_event_cb
                0x00000000       0x84 .\CortexM3\ARM_GCC_541\Debug\lv_tabview.o
 .text.tabview_scrl_signal
                0x00000000      0x160 .\CortexM3\ARM_GCC_541\Debug\lv_tabview.o
 .text.tabview_realign
                0x00000000       0x30 .\CortexM3\ARM_GCC_541\Debug\lv_tabview.o
 .text.lv_tabview_signal
                0x00000000      0x240 .\CortexM3\ARM_GCC_541\Debug\lv_tabview.o
 .text.lv_tabview_set_btns_pos
                0x00000000       0x38 .\CortexM3\ARM_GCC_541\Debug\lv_tabview.o
 .text.lv_tabview_add_tab
                0x00000000      0x1c0 .\CortexM3\ARM_GCC_541\Debug\lv_tabview.o
 .text.lv_tabview_create
                0x00000000      0x2c8 .\CortexM3\ARM_GCC_541\Debug\lv_tabview.o
 .text.lv_tabview_get_btns_pos
                0x00000000       0x28 .\CortexM3\ARM_GCC_541\Debug\lv_tabview.o
 .rodata.str1.4
                0x00000000       0x32 .\CortexM3\ARM_GCC_541\Debug\lv_tabview.o
 .text          0x00000000        0x0 .\CortexM3\ARM_GCC_541\Debug\lv_textarea.o
 .data          0x00000000        0x0 .\CortexM3\ARM_GCC_541\Debug\lv_textarea.o
 .text.lv_textarea_set_accepted_chars
                0x00000000       0x28 .\CortexM3\ARM_GCC_541\Debug\lv_textarea.o
 .text.lv_textarea_set_max_length
                0x00000000       0x28 .\CortexM3\ARM_GCC_541\Debug\lv_textarea.o
 .text.lv_textarea_set_insert_replace
                0x00000000       0x28 .\CortexM3\ARM_GCC_541\Debug\lv_textarea.o
 .text.lv_textarea_set_text_sel
                0x00000000       0x1c .\CortexM3\ARM_GCC_541\Debug\lv_textarea.o
 .text.lv_textarea_set_pwd_show_time
                0x00000000       0x28 .\CortexM3\ARM_GCC_541\Debug\lv_textarea.o
 .text.lv_textarea_set_cursor_blink_time
                0x00000000       0x94 .\CortexM3\ARM_GCC_541\Debug\lv_textarea.o
 .text.lv_textarea_get_placeholder_text
                0x00000000       0x2c .\CortexM3\ARM_GCC_541\Debug\lv_textarea.o
 .text.lv_textarea_get_cursor_hidden
                0x00000000       0x2c .\CortexM3\ARM_GCC_541\Debug\lv_textarea.o
 .text.lv_textarea_get_cursor_click_pos
                0x00000000       0x2c .\CortexM3\ARM_GCC_541\Debug\lv_textarea.o
 .text.lv_textarea_get_pwd_mode
                0x00000000       0x2c .\CortexM3\ARM_GCC_541\Debug\lv_textarea.o
 .text.lv_textarea_text_is_selected
                0x00000000       0x20 .\CortexM3\ARM_GCC_541\Debug\lv_textarea.o
 .text.lv_textarea_get_text_sel_en
                0x00000000       0x20 .\CortexM3\ARM_GCC_541\Debug\lv_textarea.o
 .text.lv_textarea_get_pwd_show_time
                0x00000000       0x28 .\CortexM3\ARM_GCC_541\Debug\lv_textarea.o
 .text.lv_textarea_get_cursor_blink_time
                0x00000000       0x28 .\CortexM3\ARM_GCC_541\Debug\lv_textarea.o
 .text.lv_textarea_set_pwd_mode
                0x00000000       0xb8 .\CortexM3\ARM_GCC_541\Debug\lv_textarea.o
 .text          0x00000000        0x0 .\CortexM3\ARM_GCC_541\Debug\lv_tileview.o
 .data          0x00000000        0x0 .\CortexM3\ARM_GCC_541\Debug\lv_tileview.o
 .bss           0x00000000        0x0 .\CortexM3\ARM_GCC_541\Debug\lv_tileview.o
 .text          0x00000000        0x0 .\CortexM3\ARM_GCC_541\Debug\lv_win.o
 .data          0x00000000        0x0 .\CortexM3\ARM_GCC_541\Debug\lv_win.o
 .bss           0x00000000        0x0 .\CortexM3\ARM_GCC_541\Debug\lv_win.o
 .text          0x00000000        0x0 .\CortexM3\ARM_GCC_541\Debug\spi_dma.o
 .data          0x00000000        0x0 .\CortexM3\ARM_GCC_541\Debug\spi_dma.o
 .text          0x00000000        0x0 .\CortexM3\ARM_GCC_541\Debug\psoc_platform.o
 .data          0x00000000        0x0 .\CortexM3\ARM_GCC_541\Debug\psoc_platform.o
 .bss           0x00000000        0x0 .\CortexM3\ARM_GCC_541\Debug\psoc_platform.o
 .text.psoc_write_blocking
                0x00000000        0x4 .\CortexM3\ARM_GCC_541\Debug\psoc_platform.o
 .text.psoc_write_async
                0x00000000        0x4 .\CortexM3\ARM_GCC_541\Debug\psoc_platform.o
 .text.psoc_hw_reset
                0x00000000       0x1c .\CortexM3\ARM_GCC_541\Debug\psoc_platform.o
 .text          0x00000000        0x0 .\CortexM3\ARM_GCC_541\Debug\GUI.o
 .data          0x00000000        0x0 .\CortexM3\ARM_GCC_541\Debug\GUI.o
 .bss           0x00000000        0x0 .\CortexM3\ARM_GCC_541\Debug\GUI.o
 .text          0x00000000        0x0 .\CortexM3\ARM_GCC_541\Debug\cyfitter_cfg.o
 .data          0x00000000        0x0 .\CortexM3\ARM_GCC_541\Debug\cyfitter_cfg.o
 .bss           0x00000000        0x0 .\CortexM3\ARM_GCC_541\Debug\cyfitter_cfg.o
 .text.SetAnalogRoutingPumps
                0x00000000       0x10 .\CortexM3\ARM_GCC_541\Debug\cyfitter_cfg.o
 .text          0x00000000        0x0 .\CortexM3\ARM_GCC_541\Debug\cymetadata.o
 .data          0x00000000        0x0 .\CortexM3\ARM_GCC_541\Debug\cymetadata.o
 .bss           0x00000000        0x0 .\CortexM3\ARM_GCC_541\Debug\cymetadata.o
 .text          0x00000000        0x0 .\CortexM3\ARM_GCC_541\Debug\Cm3Start.o
 .data          0x00000000        0x4 .\CortexM3\ARM_GCC_541\Debug\Cm3Start.o
 .bss           0x00000000        0x0 .\CortexM3\ARM_GCC_541\Debug\Cm3Start.o
 .text._exit    0x00000000        0xc .\CortexM3\ARM_GCC_541\Debug\Cm3Start.o
 .text._sbrk    0x00000000       0x30 .\CortexM3\ARM_GCC_541\Debug\Cm3Start.o
 .text          0x00000000        0x0 .\CortexM3\ARM_GCC_541\Debug\ili9341_master.a(SPI.o)
 .data          0x00000000        0x0 .\CortexM3\ARM_GCC_541\Debug\ili9341_master.a(SPI.o)
 .text.SPI_Stop
                0x00000000       0x28 .\CortexM3\ARM_GCC_541\Debug\ili9341_master.a(SPI.o)
 .text.SPI_EnableTxInt
                0x00000000        0x4 .\CortexM3\ARM_GCC_541\Debug\ili9341_master.a(SPI.o)
 .text.SPI_EnableRxInt
                0x00000000        0x4 .\CortexM3\ARM_GCC_541\Debug\ili9341_master.a(SPI.o)
 .text.SPI_DisableTxInt
                0x00000000        0x4 .\CortexM3\ARM_GCC_541\Debug\ili9341_master.a(SPI.o)
 .text.SPI_DisableRxInt
                0x00000000        0x4 .\CortexM3\ARM_GCC_541\Debug\ili9341_master.a(SPI.o)
 .text.SPI_SetRxInterruptMode
                0x00000000        0xc .\CortexM3\ARM_GCC_541\Debug\ili9341_master.a(SPI.o)
 .text.SPI_GetRxBufferSize
                0x00000000       0x18 .\CortexM3\ARM_GCC_541\Debug\ili9341_master.a(SPI.o)
 .text.SPI_GetTxBufferSize
                0x00000000       0x24 .\CortexM3\ARM_GCC_541\Debug\ili9341_master.a(SPI.o)
 .text.SPI_ClearRxBuffer
                0x00000000       0x1c .\CortexM3\ARM_GCC_541\Debug\ili9341_master.a(SPI.o)
 .text.SPI_PutArray
                0x00000000       0x20 .\CortexM3\ARM_GCC_541\Debug\ili9341_master.a(SPI.o)
 .text.SPI_EnableInt
                0x00000000        0x4 .\CortexM3\ARM_GCC_541\Debug\ili9341_master.a(SPI.o)
 .text.SPI_DisableInt
                0x00000000        0x4 .\CortexM3\ARM_GCC_541\Debug\ili9341_master.a(SPI.o)
 .text.SPI_SetInterruptMode
                0x00000000       0x14 .\CortexM3\ARM_GCC_541\Debug\ili9341_master.a(SPI.o)
 .text.SPI_ReadStatus
                0x00000000       0x18 .\CortexM3\ARM_GCC_541\Debug\ili9341_master.a(SPI.o)
 COMMON         0x00000000        0x2 .\CortexM3\ARM_GCC_541\Debug\ili9341_master.a(SPI.o)
 .text          0x00000000        0x0 .\CortexM3\ARM_GCC_541\Debug\ili9341_master.a(DISP_RST.o)
 .data          0x00000000        0x0 .\CortexM3\ARM_GCC_541\Debug\ili9341_master.a(DISP_RST.o)
 .bss           0x00000000        0x0 .\CortexM3\ARM_GCC_541\Debug\ili9341_master.a(DISP_RST.o)
 .text.DISP_RST_Write
                0x00000000       0x18 .\CortexM3\ARM_GCC_541\Debug\ili9341_master.a(DISP_RST.o)
 .text.DISP_RST_SetDriveMode
                0x00000000       0x18 .\CortexM3\ARM_GCC_541\Debug\ili9341_master.a(DISP_RST.o)
 .text.DISP_RST_Read
                0x00000000       0x10 .\CortexM3\ARM_GCC_541\Debug\ili9341_master.a(DISP_RST.o)
 .text.DISP_RST_ReadDataReg
                0x00000000       0x10 .\CortexM3\ARM_GCC_541\Debug\ili9341_master.a(DISP_RST.o)
 .text          0x00000000        0x0 .\CortexM3\ARM_GCC_541\Debug\ili9341_master.a(SPI_IntClock.o)
 .data          0x00000000        0x0 .\CortexM3\ARM_GCC_541\Debug\ili9341_master.a(SPI_IntClock.o)
 .bss           0x00000000        0x0 .\CortexM3\ARM_GCC_541\Debug\ili9341_master.a(SPI_IntClock.o)
 .text.SPI_IntClock_Stop
                0x00000000       0x1c .\CortexM3\ARM_GCC_541\Debug\ili9341_master.a(SPI_IntClock.o)
 .text.SPI_IntClock_StopBlock
                0x00000000       0x6c .\CortexM3\ARM_GCC_541\Debug\ili9341_master.a(SPI_IntClock.o)
 .text.SPI_IntClock_StandbyPower
                0x00000000       0x20 .\CortexM3\ARM_GCC_541\Debug\ili9341_master.a(SPI_IntClock.o)
 .text.SPI_IntClock_GetDividerRegister
                0x00000000        0xc .\CortexM3\ARM_GCC_541\Debug\ili9341_master.a(SPI_IntClock.o)
 .text.SPI_IntClock_SetModeRegister
                0x00000000       0x14 .\CortexM3\ARM_GCC_541\Debug\ili9341_master.a(SPI_IntClock.o)
 .text.SPI_IntClock_ClearModeRegister
                0x00000000       0x18 .\CortexM3\ARM_GCC_541\Debug\ili9341_master.a(SPI_IntClock.o)
 .text.SPI_IntClock_GetModeRegister
                0x00000000       0x10 .\CortexM3\ARM_GCC_541\Debug\ili9341_master.a(SPI_IntClock.o)
 .text.SPI_IntClock_GetSourceRegister
                0x00000000       0x10 .\CortexM3\ARM_GCC_541\Debug\ili9341_master.a(SPI_IntClock.o)
 .text.SPI_IntClock_SetDividerRegister
                0x00000000       0xdc .\CortexM3\ARM_GCC_541\Debug\ili9341_master.a(SPI_IntClock.o)
 .text.SPI_IntClock_SetSourceRegister
                0x00000000       0x5c .\CortexM3\ARM_GCC_541\Debug\ili9341_master.a(SPI_IntClock.o)
 .text          0x00000000        0x0 .\CortexM3\ARM_GCC_541\Debug\ili9341_master.a(CyDmac.o)
 .bss           0x00000000        0x0 .\CortexM3\ARM_GCC_541\Debug\ili9341_master.a(CyDmac.o)
 .text.CyDmacError
                0x00000000       0x10 .\CortexM3\ARM_GCC_541\Debug\ili9341_master.a(CyDmac.o)
 .text.CyDmacClearError
                0x00000000       0x10 .\CortexM3\ARM_GCC_541\Debug\ili9341_master.a(CyDmac.o)
 .text.CyDmacErrorAddress
                0x00000000        0xc .\CortexM3\ARM_GCC_541\Debug\ili9341_master.a(CyDmac.o)
 .text.CyDmaChAlloc
                0x00000000       0x38 .\CortexM3\ARM_GCC_541\Debug\ili9341_master.a(CyDmac.o)
 .text.CyDmaChFree
                0x00000000       0x2c .\CortexM3\ARM_GCC_541\Debug\ili9341_master.a(CyDmac.o)
 .text.CyDmaClearPendingDrq
                0x00000000       0x28 .\CortexM3\ARM_GCC_541\Debug\ili9341_master.a(CyDmac.o)
 .text.CyDmaChSetRequest
                0x00000000       0x20 .\CortexM3\ARM_GCC_541\Debug\ili9341_master.a(CyDmac.o)
 .text.CyDmaChGetRequest
                0x00000000       0x1c .\CortexM3\ARM_GCC_541\Debug\ili9341_master.a(CyDmac.o)
 .text.CyDmaChStatus
                0x00000000       0x30 .\CortexM3\ARM_GCC_541\Debug\ili9341_master.a(CyDmac.o)
 .text.CyDmaTdFreeCount
                0x00000000       0x10 .\CortexM3\ARM_GCC_541\Debug\ili9341_master.a(CyDmac.o)
 .text.CyDmaTdGetConfiguration
                0x00000000       0x4c .\CortexM3\ARM_GCC_541\Debug\ili9341_master.a(CyDmac.o)
 .text.CyDmaTdGetAddress
                0x00000000       0x34 .\CortexM3\ARM_GCC_541\Debug\ili9341_master.a(CyDmac.o)
 .text.CyDmaChRoundRobin
                0x00000000       0x30 .\CortexM3\ARM_GCC_541\Debug\ili9341_master.a(CyDmac.o)
 .text          0x00000000        0x0 .\CortexM3\ARM_GCC_541\Debug\ili9341_master.a(CyLib.o)
 .text.CyUSB_PowerOnCheck
                0x00000000       0x48 .\CortexM3\ARM_GCC_541\Debug\ili9341_master.a(CyLib.o)
 .text.CyBusClk_Internal_SetDivider
                0x00000000       0x48 .\CortexM3\ARM_GCC_541\Debug\ili9341_master.a(CyLib.o)
 .text.CyPLL_OUT_Stop
                0x00000000       0x10 .\CortexM3\ARM_GCC_541\Debug\ili9341_master.a(CyLib.o)
 .text.CyIMO_Stop
                0x00000000       0x1c .\CortexM3\ARM_GCC_541\Debug\ili9341_master.a(CyLib.o)
 .text.CyIMO_EnableDoubler
                0x00000000       0x10 .\CortexM3\ARM_GCC_541\Debug\ili9341_master.a(CyLib.o)
 .text.CyIMO_DisableDoubler
                0x00000000       0x10 .\CortexM3\ARM_GCC_541\Debug\ili9341_master.a(CyLib.o)
 .text.CyMasterClk_SetSource
                0x00000000       0x18 .\CortexM3\ARM_GCC_541\Debug\ili9341_master.a(CyLib.o)
 .text.CyMasterClk_SetDivider
                0x00000000        0xc .\CortexM3\ARM_GCC_541\Debug\ili9341_master.a(CyLib.o)
 .text.CyBusClk_SetDivider
                0x00000000       0x70 .\CortexM3\ARM_GCC_541\Debug\ili9341_master.a(CyLib.o)
 .text.CyUsbClk_SetSource
                0x00000000       0x18 .\CortexM3\ARM_GCC_541\Debug\ili9341_master.a(CyLib.o)
 .text.CyILO_Start1K
                0x00000000       0x10 .\CortexM3\ARM_GCC_541\Debug\ili9341_master.a(CyLib.o)
 .text.CyILO_Stop1K
                0x00000000       0x10 .\CortexM3\ARM_GCC_541\Debug\ili9341_master.a(CyLib.o)
 .text.CyILO_Start100K
                0x00000000       0x10 .\CortexM3\ARM_GCC_541\Debug\ili9341_master.a(CyLib.o)
 .text.CyILO_Stop100K
                0x00000000       0x10 .\CortexM3\ARM_GCC_541\Debug\ili9341_master.a(CyLib.o)
 .text.CyPLL_OUT_Start
                0x00000000       0x78 .\CortexM3\ARM_GCC_541\Debug\ili9341_master.a(CyLib.o)
 .text.CyIMO_Start
                0x00000000       0x60 .\CortexM3\ARM_GCC_541\Debug\ili9341_master.a(CyLib.o)
 .text.CyILO_Enable33K
                0x00000000       0x10 .\CortexM3\ARM_GCC_541\Debug\ili9341_master.a(CyLib.o)
 .text.CyILO_Disable33K
                0x00000000       0x10 .\CortexM3\ARM_GCC_541\Debug\ili9341_master.a(CyLib.o)
 .text.CyILO_SetSource
                0x00000000       0x18 .\CortexM3\ARM_GCC_541\Debug\ili9341_master.a(CyLib.o)
 .text.CyILO_SetPowerMode
                0x00000000       0x24 .\CortexM3\ARM_GCC_541\Debug\ili9341_master.a(CyLib.o)
 .text.CyXTAL_32KHZ_Stop
                0x00000000       0x30 .\CortexM3\ARM_GCC_541\Debug\ili9341_master.a(CyLib.o)
 .text.CyXTAL_32KHZ_ReadStatus
                0x00000000       0x10 .\CortexM3\ARM_GCC_541\Debug\ili9341_master.a(CyLib.o)
 .text.CyXTAL_Start
                0x00000000       0xac .\CortexM3\ARM_GCC_541\Debug\ili9341_master.a(CyLib.o)
 .text.CyXTAL_Stop
                0x00000000       0x10 .\CortexM3\ARM_GCC_541\Debug\ili9341_master.a(CyLib.o)
 .text.CyXTAL_EnableErrStatus
                0x00000000       0x10 .\CortexM3\ARM_GCC_541\Debug\ili9341_master.a(CyLib.o)
 .text.CyXTAL_DisableErrStatus
                0x00000000       0x10 .\CortexM3\ARM_GCC_541\Debug\ili9341_master.a(CyLib.o)
 .text.CyXTAL_ReadStatus
                0x00000000       0x18 .\CortexM3\ARM_GCC_541\Debug\ili9341_master.a(CyLib.o)
 .text.CyXTAL_EnableFaultRecovery
                0x00000000       0x10 .\CortexM3\ARM_GCC_541\Debug\ili9341_master.a(CyLib.o)
 .text.CyXTAL_DisableFaultRecovery
                0x00000000       0x10 .\CortexM3\ARM_GCC_541\Debug\ili9341_master.a(CyLib.o)
 .text.CyXTAL_SetStartup
                0x00000000       0x18 .\CortexM3\ARM_GCC_541\Debug\ili9341_master.a(CyLib.o)
 .text.CyXTAL_SetFbVoltage
                0x00000000       0x18 .\CortexM3\ARM_GCC_541\Debug\ili9341_master.a(CyLib.o)
 .text.CyXTAL_SetWdVoltage
                0x00000000       0x18 .\CortexM3\ARM_GCC_541\Debug\ili9341_master.a(CyLib.o)
 .text.CyPLL_OUT_SetPQ
                0x00000000       0x60 .\CortexM3\ARM_GCC_541\Debug\ili9341_master.a(CyLib.o)
 .text.CyPLL_OUT_SetSource
                0x00000000       0x34 .\CortexM3\ARM_GCC_541\Debug\ili9341_master.a(CyLib.o)
 .text.CyIMO_SetTrimValue
                0x00000000       0xcc .\CortexM3\ARM_GCC_541\Debug\ili9341_master.a(CyLib.o)
 .text.CyIMO_SetFreq
                0x00000000       0xf4 .\CortexM3\ARM_GCC_541\Debug\ili9341_master.a(CyLib.o)
 .text.CyIMO_SetSource
                0x00000000       0x58 .\CortexM3\ARM_GCC_541\Debug\ili9341_master.a(CyLib.o)
 .text.CySoftwareReset
                0x00000000       0x10 .\CortexM3\ARM_GCC_541\Debug\ili9341_master.a(CyLib.o)
 .text.CyDelayUs
                0x00000000       0x14 .\CortexM3\ARM_GCC_541\Debug\ili9341_master.a(CyLib.o)
 .text.CyXTAL_32KHZ_SetPowerMode
                0x00000000       0x84 .\CortexM3\ARM_GCC_541\Debug\ili9341_master.a(CyLib.o)
 .text.CyXTAL_32KHZ_Start
                0x00000000       0x74 .\CortexM3\ARM_GCC_541\Debug\ili9341_master.a(CyLib.o)
 .text.CyDelayFreq
                0x00000000       0x4c .\CortexM3\ARM_GCC_541\Debug\ili9341_master.a(CyLib.o)
 .text.CyWdtStart
                0x00000000       0x40 .\CortexM3\ARM_GCC_541\Debug\ili9341_master.a(CyLib.o)
 .text.CyWdtClear
                0x00000000        0xc .\CortexM3\ARM_GCC_541\Debug\ili9341_master.a(CyLib.o)
 .text.CyVdStickyStatus
                0x00000000       0x2c .\CortexM3\ARM_GCC_541\Debug\ili9341_master.a(CyLib.o)
 .text.CyVdLvDigitEnable
                0x00000000       0x84 .\CortexM3\ARM_GCC_541\Debug\ili9341_master.a(CyLib.o)
 .text.CyVdLvAnalogEnable
                0x00000000       0x80 .\CortexM3\ARM_GCC_541\Debug\ili9341_master.a(CyLib.o)
 .text.CyVdLvDigitDisable
                0x00000000       0x30 .\CortexM3\ARM_GCC_541\Debug\ili9341_master.a(CyLib.o)
 .text.CyVdLvAnalogDisable
                0x00000000       0x28 .\CortexM3\ARM_GCC_541\Debug\ili9341_master.a(CyLib.o)
 .text.CyVdHvAnalogEnable
                0x00000000       0x54 .\CortexM3\ARM_GCC_541\Debug\ili9341_master.a(CyLib.o)
 .text.CyVdHvAnalogDisable
                0x00000000       0x20 .\CortexM3\ARM_GCC_541\Debug\ili9341_master.a(CyLib.o)
 .text.CyVdRealTimeStatus
                0x00000000       0x1c .\CortexM3\ARM_GCC_541\Debug\ili9341_master.a(CyLib.o)
 .text.CyDisableInts
                0x00000000       0x1c .\CortexM3\ARM_GCC_541\Debug\ili9341_master.a(CyLib.o)
 .text.CyEnableInts
                0x00000000       0x18 .\CortexM3\ARM_GCC_541\Debug\ili9341_master.a(CyLib.o)
 .text.CyFlushCache
                0x00000000       0x44 .\CortexM3\ARM_GCC_541\Debug\ili9341_master.a(CyLib.o)
 .text.CyIntGetSysVector
                0x00000000       0x20 .\CortexM3\ARM_GCC_541\Debug\ili9341_master.a(CyLib.o)
 .text.CyIntSetVector
                0x00000000       0x28 .\CortexM3\ARM_GCC_541\Debug\ili9341_master.a(CyLib.o)
 .text.CyIntGetVector
                0x00000000       0x24 .\CortexM3\ARM_GCC_541\Debug\ili9341_master.a(CyLib.o)
 .text.CyIntSetPriority
                0x00000000       0x30 .\CortexM3\ARM_GCC_541\Debug\ili9341_master.a(CyLib.o)
 .text.CyIntGetPriority
                0x00000000       0x20 .\CortexM3\ARM_GCC_541\Debug\ili9341_master.a(CyLib.o)
 .text.CyIntGetState
                0x00000000       0x24 .\CortexM3\ARM_GCC_541\Debug\ili9341_master.a(CyLib.o)
 .text.CySysTickDisableInterrupt
                0x00000000       0x10 .\CortexM3\ARM_GCC_541\Debug\ili9341_master.a(CyLib.o)
 .text.CySysTickGetReload
                0x00000000       0x10 .\CortexM3\ARM_GCC_541\Debug\ili9341_master.a(CyLib.o)
 .text.CySysTickGetValue
                0x00000000       0x10 .\CortexM3\ARM_GCC_541\Debug\ili9341_master.a(CyLib.o)
 .text.CySysTickGetClockSource
                0x00000000       0x10 .\CortexM3\ARM_GCC_541\Debug\ili9341_master.a(CyLib.o)
 .text.CySysTickGetCallback
                0x00000000       0x10 .\CortexM3\ARM_GCC_541\Debug\ili9341_master.a(CyLib.o)
 .text.CyGetUniqueId
                0x00000000       0x70 .\CortexM3\ARM_GCC_541\Debug\ili9341_master.a(CyLib.o)
 .text          0x00000000        0x0 .\CortexM3\ARM_GCC_541\Debug\ili9341_master.a(cyPm.o)
 .data          0x00000000        0x0 .\CortexM3\ARM_GCC_541\Debug\ili9341_master.a(cyPm.o)
 .bss           0x00000000       0x43 .\CortexM3\ARM_GCC_541\Debug\ili9341_master.a(cyPm.o)
 .text.CyPmHibSlpSaveSet
                0x00000000      0x1dc .\CortexM3\ARM_GCC_541\Debug\ili9341_master.a(cyPm.o)
 .text.CyPmHibSlpRestore
                0x00000000       0xd8 .\CortexM3\ARM_GCC_541\Debug\ili9341_master.a(cyPm.o)
 .text.CyPmHviLviSaveDisable
                0x00000000       0xa0 .\CortexM3\ARM_GCC_541\Debug\ili9341_master.a(cyPm.o)
 .text.CyPmHibSaveSet
                0x00000000       0x98 .\CortexM3\ARM_GCC_541\Debug\ili9341_master.a(cyPm.o)
 .text.CyPmHviLviRestore
                0x00000000       0x48 .\CortexM3\ARM_GCC_541\Debug\ili9341_master.a(cyPm.o)
 .text.CyPmHibRestore
                0x00000000       0x60 .\CortexM3\ARM_GCC_541\Debug\ili9341_master.a(cyPm.o)
 .text.CyPmSaveClocks
                0x00000000      0x218 .\CortexM3\ARM_GCC_541\Debug\ili9341_master.a(cyPm.o)
 .text.CyPmRestoreClocks
                0x00000000      0x24c .\CortexM3\ARM_GCC_541\Debug\ili9341_master.a(cyPm.o)
 .text.CyPmAltAct
                0x00000000       0x6c .\CortexM3\ARM_GCC_541\Debug\ili9341_master.a(cyPm.o)
 .text.CyPmSleep
                0x00000000       0xf4 .\CortexM3\ARM_GCC_541\Debug\ili9341_master.a(cyPm.o)
 .text.CyPmHibernateEx
                0x00000000       0xf4 .\CortexM3\ARM_GCC_541\Debug\ili9341_master.a(cyPm.o)
 .text.CyPmHibernate
                0x00000000        0xc .\CortexM3\ARM_GCC_541\Debug\ili9341_master.a(cyPm.o)
 .text.CyPmReadStatus
                0x00000000       0x30 .\CortexM3\ARM_GCC_541\Debug\ili9341_master.a(cyPm.o)
 .text.CyPmCtwSetInterval
                0x00000000       0x5c .\CortexM3\ARM_GCC_541\Debug\ili9341_master.a(cyPm.o)
 .text.CyPmOppsSet
                0x00000000       0x2c .\CortexM3\ARM_GCC_541\Debug\ili9341_master.a(cyPm.o)
 .text.CyPmFtwSetInterval
                0x00000000       0x5c .\CortexM3\ARM_GCC_541\Debug\ili9341_master.a(cyPm.o)
 .rodata        0x00000000        0xf .\CortexM3\ARM_GCC_541\Debug\ili9341_master.a(cyPm.o)
 .text          0x00000000        0x0 .\CortexM3\ARM_GCC_541\Debug\ili9341_master.a(DISP_BCKL.o)
 .data          0x00000000        0x0 .\CortexM3\ARM_GCC_541\Debug\ili9341_master.a(DISP_BCKL.o)
 .bss           0x00000000        0x0 .\CortexM3\ARM_GCC_541\Debug\ili9341_master.a(DISP_BCKL.o)
 .text.DISP_BCKL_SetDriveMode
                0x00000000       0x18 .\CortexM3\ARM_GCC_541\Debug\ili9341_master.a(DISP_BCKL.o)
 .text.DISP_BCKL_Read
                0x00000000       0x10 .\CortexM3\ARM_GCC_541\Debug\ili9341_master.a(DISP_BCKL.o)
 .text.DISP_BCKL_ReadDataReg
                0x00000000       0x10 .\CortexM3\ARM_GCC_541\Debug\ili9341_master.a(DISP_BCKL.o)
 .text          0x00000000        0x0 .\CortexM3\ARM_GCC_541\Debug\ili9341_master.a(DISP_DC.o)
 .data          0x00000000        0x0 .\CortexM3\ARM_GCC_541\Debug\ili9341_master.a(DISP_DC.o)
 .bss           0x00000000        0x0 .\CortexM3\ARM_GCC_541\Debug\ili9341_master.a(DISP_DC.o)
 .text.DISP_DC_SetDriveMode
                0x00000000       0x18 .\CortexM3\ARM_GCC_541\Debug\ili9341_master.a(DISP_DC.o)
 .text.DISP_DC_Read
                0x00000000       0x10 .\CortexM3\ARM_GCC_541\Debug\ili9341_master.a(DISP_DC.o)
 .text.DISP_DC_ReadDataReg
                0x00000000       0x10 .\CortexM3\ARM_GCC_541\Debug\ili9341_master.a(DISP_DC.o)
 .text          0x00000000        0x0 .\CortexM3\ARM_GCC_541\Debug\ili9341_master.a(DMA_Tx_dma.o)
 .bss           0x00000000        0x0 .\CortexM3\ARM_GCC_541\Debug\ili9341_master.a(DMA_Tx_dma.o)
 .text.DMA_Tx_DmaRelease
                0x00000000       0x10 .\CortexM3\ARM_GCC_541\Debug\ili9341_master.a(DMA_Tx_dma.o)
 .text          0x00000000        0x0 .\CortexM3\ARM_GCC_541\Debug\ili9341_master.a(UART.o)
 .bss           0x00000000        0x0 .\CortexM3\ARM_GCC_541\Debug\ili9341_master.a(UART.o)
 .text.UART_Stop
                0x00000000        0x4 .\CortexM3\ARM_GCC_541\Debug\ili9341_master.a(UART.o)
 .text.UART_PutArray
                0x00000000       0x18 .\CortexM3\ARM_GCC_541\Debug\ili9341_master.a(UART.o)
 .text          0x00000000        0x0 .\CortexM3\ARM_GCC_541\Debug\ili9341_master.a(isr_SPI_TX_DMA.o)
 .data          0x00000000        0x0 .\CortexM3\ARM_GCC_541\Debug\ili9341_master.a(isr_SPI_TX_DMA.o)
 .bss           0x00000000        0x0 .\CortexM3\ARM_GCC_541\Debug\ili9341_master.a(isr_SPI_TX_DMA.o)
 .text.isr_SPI_TX_DMA_Interrupt
                0x00000000        0x4 .\CortexM3\ARM_GCC_541\Debug\ili9341_master.a(isr_SPI_TX_DMA.o)
 .text.isr_SPI_TX_DMA_GetVector
                0x00000000        0xc .\CortexM3\ARM_GCC_541\Debug\ili9341_master.a(isr_SPI_TX_DMA.o)
 .text.isr_SPI_TX_DMA_GetPriority
                0x00000000        0xc .\CortexM3\ARM_GCC_541\Debug\ili9341_master.a(isr_SPI_TX_DMA.o)
 .text.isr_SPI_TX_DMA_GetState
                0x00000000       0x18 .\CortexM3\ARM_GCC_541\Debug\ili9341_master.a(isr_SPI_TX_DMA.o)
 .text.isr_SPI_TX_DMA_Start
                0x00000000       0x1c .\CortexM3\ARM_GCC_541\Debug\ili9341_master.a(isr_SPI_TX_DMA.o)
 .text.isr_SPI_TX_DMA_Stop
                0x00000000       0x14 .\CortexM3\ARM_GCC_541\Debug\ili9341_master.a(isr_SPI_TX_DMA.o)
 .text.isr_SPI_TX_DMA_SetPending
                0x00000000        0xc .\CortexM3\ARM_GCC_541\Debug\ili9341_master.a(isr_SPI_TX_DMA.o)
 .text.isr_SPI_TX_DMA_ClearPending
                0x00000000        0xc .\CortexM3\ARM_GCC_541\Debug\ili9341_master.a(isr_SPI_TX_DMA.o)
 .text          0x00000000        0x0 .\CortexM3\ARM_GCC_541\Debug\ili9341_master.a(isr_SPI_TX.o)
 .data          0x00000000        0x0 .\CortexM3\ARM_GCC_541\Debug\ili9341_master.a(isr_SPI_TX.o)
 .bss           0x00000000        0x0 .\CortexM3\ARM_GCC_541\Debug\ili9341_master.a(isr_SPI_TX.o)
 .text.isr_SPI_TX_Interrupt
                0x00000000        0x4 .\CortexM3\ARM_GCC_541\Debug\ili9341_master.a(isr_SPI_TX.o)
 .text.isr_SPI_TX_GetVector
                0x00000000        0xc .\CortexM3\ARM_GCC_541\Debug\ili9341_master.a(isr_SPI_TX.o)
 .text.isr_SPI_TX_GetPriority
                0x00000000        0xc .\CortexM3\ARM_GCC_541\Debug\ili9341_master.a(isr_SPI_TX.o)
 .text.isr_SPI_TX_GetState
                0x00000000       0x10 .\CortexM3\ARM_GCC_541\Debug\ili9341_master.a(isr_SPI_TX.o)
 .text.isr_SPI_TX_Start
                0x00000000       0x1c .\CortexM3\ARM_GCC_541\Debug\ili9341_master.a(isr_SPI_TX.o)
 .text.isr_SPI_TX_Stop
                0x00000000       0x14 .\CortexM3\ARM_GCC_541\Debug\ili9341_master.a(isr_SPI_TX.o)
 .text.isr_SPI_TX_SetPending
                0x00000000        0xc .\CortexM3\ARM_GCC_541\Debug\ili9341_master.a(isr_SPI_TX.o)
 .text.isr_SPI_TX_ClearPending
                0x00000000        0xc .\CortexM3\ARM_GCC_541\Debug\ili9341_master.a(isr_SPI_TX.o)
 .text          0x00000000        0x0 .\CortexM3\ARM_GCC_541\Debug\ili9341_master.a(SS.o)
 .data          0x00000000        0x0 .\CortexM3\ARM_GCC_541\Debug\ili9341_master.a(SS.o)
 .bss           0x00000000        0x0 .\CortexM3\ARM_GCC_541\Debug\ili9341_master.a(SS.o)
 .text.SS_SetDriveMode
                0x00000000       0x18 .\CortexM3\ARM_GCC_541\Debug\ili9341_master.a(SS.o)
 .text.SS_Read  0x00000000       0x10 .\CortexM3\ARM_GCC_541\Debug\ili9341_master.a(SS.o)
 .text.SS_ReadDataReg
                0x00000000       0x10 .\CortexM3\ARM_GCC_541\Debug\ili9341_master.a(SS.o)
 .text          0x00000000        0x0 .\CortexM3\ARM_GCC_541\Debug\ili9341_master.a(QuadDec.o)
 .data          0x00000000        0x0 .\CortexM3\ARM_GCC_541\Debug\ili9341_master.a(QuadDec.o)
 .text.QuadDec_Init
                0x00000000        0x4 .\CortexM3\ARM_GCC_541\Debug\ili9341_master.a(QuadDec.o)
 .text.QuadDec_Stop
                0x00000000       0x20 .\CortexM3\ARM_GCC_541\Debug\ili9341_master.a(QuadDec.o)
 .text.QuadDec_SetCounter
                0x00000000       0x18 .\CortexM3\ARM_GCC_541\Debug\ili9341_master.a(QuadDec.o)
 .text.QuadDec_GetInterruptMask
                0x00000000       0x10 .\CortexM3\ARM_GCC_541\Debug\ili9341_master.a(QuadDec.o)
 .text          0x00000000        0x0 .\CortexM3\ARM_GCC_541\Debug\ili9341_master.a(QuadDec_Cnt8.o)
 .data          0x00000000        0x0 .\CortexM3\ARM_GCC_541\Debug\ili9341_master.a(QuadDec_Cnt8.o)
 .text.QuadDec_Cnt8_Stop
                0x00000000       0x10 .\CortexM3\ARM_GCC_541\Debug\ili9341_master.a(QuadDec_Cnt8.o)
 .text.QuadDec_Cnt8_ReadControlRegister
                0x00000000        0xc .\CortexM3\ARM_GCC_541\Debug\ili9341_master.a(QuadDec_Cnt8.o)
 .text.QuadDec_Cnt8_WriteControlRegister
                0x00000000        0xc .\CortexM3\ARM_GCC_541\Debug\ili9341_master.a(QuadDec_Cnt8.o)
 .text.QuadDec_Cnt8_ReadPeriod
                0x00000000        0xc .\CortexM3\ARM_GCC_541\Debug\ili9341_master.a(QuadDec_Cnt8.o)
 .text.QuadDec_Cnt8_ReadCompare
                0x00000000        0xc .\CortexM3\ARM_GCC_541\Debug\ili9341_master.a(QuadDec_Cnt8.o)
 .text          0x00000000        0x0 .\CortexM3\ARM_GCC_541\Debug\ili9341_master.a(QuadDec_SW.o)
 .data          0x00000000        0x0 .\CortexM3\ARM_GCC_541\Debug\ili9341_master.a(QuadDec_SW.o)
 .bss           0x00000000        0x0 .\CortexM3\ARM_GCC_541\Debug\ili9341_master.a(QuadDec_SW.o)
 .text.QuadDec_SW_Write
                0x00000000       0x18 .\CortexM3\ARM_GCC_541\Debug\ili9341_master.a(QuadDec_SW.o)
 .text.QuadDec_SW_SetDriveMode
                0x00000000       0x18 .\CortexM3\ARM_GCC_541\Debug\ili9341_master.a(QuadDec_SW.o)
 .text.QuadDec_SW_ReadDataReg
                0x00000000       0x10 .\CortexM3\ARM_GCC_541\Debug\ili9341_master.a(QuadDec_SW.o)
 .data          0x00000000        0x0 .\CortexM3\ARM_GCC_541\Debug\ili9341_master.a(CyBootAsmGnu.o)
 .bss           0x00000000        0x0 .\CortexM3\ARM_GCC_541\Debug\ili9341_master.a(CyBootAsmGnu.o)
 .data          0x00000000        0x0 .\CortexM3\ARM_GCC_541\Debug\ili9341_master.a(UART_AsmGnu.o)
 .bss           0x00000000        0x0 .\CortexM3\ARM_GCC_541\Debug\ili9341_master.a(UART_AsmGnu.o)
 .text          0x00000000        0x0 .\CortexM3\ARM_GCC_541\Debug\ili9341_master.a(CyFlash.o)
 .data          0x00000000        0x0 .\CortexM3\ARM_GCC_541\Debug\ili9341_master.a(CyFlash.o)
 .bss           0x00000000        0x0 .\CortexM3\ARM_GCC_541\Debug\ili9341_master.a(CyFlash.o)
 .text.CySetTempInt
                0x00000000       0x60 .\CortexM3\ARM_GCC_541\Debug\ili9341_master.a(CyFlash.o)
 .text.CyFlash_Start
                0x00000000       0x54 .\CortexM3\ARM_GCC_541\Debug\ili9341_master.a(CyFlash.o)
 .text.CyFlash_Stop
                0x00000000       0x24 .\CortexM3\ARM_GCC_541\Debug\ili9341_master.a(CyFlash.o)
 .text.CyFlash_EraseRow
                0x00000000       0x78 .\CortexM3\ARM_GCC_541\Debug\ili9341_master.a(CyFlash.o)
 .text.CyFlashGetSpcAlgorithm
                0x00000000       0x4c .\CortexM3\ARM_GCC_541\Debug\ili9341_master.a(CyFlash.o)
 .text.CySetTemp
                0x00000000       0x14 .\CortexM3\ARM_GCC_541\Debug\ili9341_master.a(CyFlash.o)
 .text.CySetFlashEEBuffer
                0x00000000       0x20 .\CortexM3\ARM_GCC_541\Debug\ili9341_master.a(CyFlash.o)
 .text.CyWriteRowFull
                0x00000000       0xf8 .\CortexM3\ARM_GCC_541\Debug\ili9341_master.a(CyFlash.o)
 .text.CyWriteRowData
                0x00000000       0x14 .\CortexM3\ARM_GCC_541\Debug\ili9341_master.a(CyFlash.o)
 .text.CyFlash_SetWaitCycles
                0x00000000       0x7c .\CortexM3\ARM_GCC_541\Debug\ili9341_master.a(CyFlash.o)
 .text.CyEEPROM_Start
                0x00000000       0x54 .\CortexM3\ARM_GCC_541\Debug\ili9341_master.a(CyFlash.o)
 .text.CyEEPROM_Stop
                0x00000000       0x24 .\CortexM3\ARM_GCC_541\Debug\ili9341_master.a(CyFlash.o)
 .text.CyEEPROM_ReadReserve
                0x00000000       0x1c .\CortexM3\ARM_GCC_541\Debug\ili9341_master.a(CyFlash.o)
 .text.CyEEPROM_ReadRelease
                0x00000000       0x10 .\CortexM3\ARM_GCC_541\Debug\ili9341_master.a(CyFlash.o)
 COMMON         0x00000000        0x2 .\CortexM3\ARM_GCC_541\Debug\ili9341_master.a(CyFlash.o)
 .text          0x00000000        0x0 .\CortexM3\ARM_GCC_541\Debug\ili9341_master.a(CySpc.o)
 .data          0x00000000        0x0 .\CortexM3\ARM_GCC_541\Debug\ili9341_master.a(CySpc.o)
 .bss           0x00000000        0x8 .\CortexM3\ARM_GCC_541\Debug\ili9341_master.a(CySpc.o)
 .text.CySpcStart
                0x00000000       0x24 .\CortexM3\ARM_GCC_541\Debug\ili9341_master.a(CySpc.o)
 .text.CySpcStop
                0x00000000       0x24 .\CortexM3\ARM_GCC_541\Debug\ili9341_master.a(CySpc.o)
 .text.CySpcReadData
                0x00000000       0x34 .\CortexM3\ARM_GCC_541\Debug\ili9341_master.a(CySpc.o)
 .text.CySpcLoadMultiByte
                0x00000000       0x78 .\CortexM3\ARM_GCC_541\Debug\ili9341_master.a(CySpc.o)
 .text.CySpcLoadRow
                0x00000000       0x50 .\CortexM3\ARM_GCC_541\Debug\ili9341_master.a(CySpc.o)
 .text.CySpcLoadRowFull
                0x00000000       0x80 .\CortexM3\ARM_GCC_541\Debug\ili9341_master.a(CySpc.o)
 .text.CySpcWriteRow
                0x00000000       0x4c .\CortexM3\ARM_GCC_541\Debug\ili9341_master.a(CySpc.o)
 .text.CySpcEraseSector
                0x00000000       0x3c .\CortexM3\ARM_GCC_541\Debug\ili9341_master.a(CySpc.o)
 .text.CySpcEraseRow
                0x00000000       0x4c .\CortexM3\ARM_GCC_541\Debug\ili9341_master.a(CySpc.o)
 .text.CySpcGetTemp
                0x00000000       0x3c .\CortexM3\ARM_GCC_541\Debug\ili9341_master.a(CySpc.o)
 .text.CySpcLock
                0x00000000       0x4c .\CortexM3\ARM_GCC_541\Debug\ili9341_master.a(CySpc.o)
 .text.CySpcUnlock
                0x00000000       0x38 .\CortexM3\ARM_GCC_541\Debug\ili9341_master.a(CySpc.o)
 .text.CySpcGetAlgorithm
                0x00000000       0x28 .\CortexM3\ARM_GCC_541\Debug\ili9341_master.a(CySpc.o)
 .data          0x00000000        0x0 c:/program files (x86)/cypress/psoc creator/4.4/psoc creator/import/gnu/arm/5.4.1/bin/../lib/gcc/arm-none-eabi/5.4.1/armv7-m\libgcc.a(_udivsi3.o)
 .bss           0x00000000        0x0 c:/program files (x86)/cypress/psoc creator/4.4/psoc creator/import/gnu/arm/5.4.1/bin/../lib/gcc/arm-none-eabi/5.4.1/armv7-m\libgcc.a(_udivsi3.o)
 .data          0x00000000        0x0 c:/program files (x86)/cypress/psoc creator/4.4/psoc creator/import/gnu/arm/5.4.1/bin/../lib/gcc/arm-none-eabi/5.4.1/armv7-m\libgcc.a(_dvmd_tls.o)
 .bss           0x00000000        0x0 c:/program files (x86)/cypress/psoc creator/4.4/psoc creator/import/gnu/arm/5.4.1/bin/../lib/gcc/arm-none-eabi/5.4.1/armv7-m\libgcc.a(_dvmd_tls.o)
 .text          0x00000000       0x30 c:/program files (x86)/cypress/psoc creator/4.4/psoc creator/import/gnu/arm/5.4.1/bin/../lib/gcc/arm-none-eabi/5.4.1/armv7-m\libgcc.a(_aeabi_uldivmod.o)
 .data          0x00000000        0x0 c:/program files (x86)/cypress/psoc creator/4.4/psoc creator/import/gnu/arm/5.4.1/bin/../lib/gcc/arm-none-eabi/5.4.1/armv7-m\libgcc.a(_aeabi_uldivmod.o)
 .bss           0x00000000        0x0 c:/program files (x86)/cypress/psoc creator/4.4/psoc creator/import/gnu/arm/5.4.1/bin/../lib/gcc/arm-none-eabi/5.4.1/armv7-m\libgcc.a(_aeabi_uldivmod.o)
 .text          0x00000000      0x2ec c:/program files (x86)/cypress/psoc creator/4.4/psoc creator/import/gnu/arm/5.4.1/bin/../lib/gcc/arm-none-eabi/5.4.1/armv7-m\libgcc.a(_udivmoddi4.o)
 .data          0x00000000        0x0 c:/program files (x86)/cypress/psoc creator/4.4/psoc creator/import/gnu/arm/5.4.1/bin/../lib/gcc/arm-none-eabi/5.4.1/armv7-m\libgcc.a(_udivmoddi4.o)
 .bss           0x00000000        0x0 c:/program files (x86)/cypress/psoc creator/4.4/psoc creator/import/gnu/arm/5.4.1/bin/../lib/gcc/arm-none-eabi/5.4.1/armv7-m\libgcc.a(_udivmoddi4.o)
 .ARM.extab     0x00000000        0x0 c:/program files (x86)/cypress/psoc creator/4.4/psoc creator/import/gnu/arm/5.4.1/bin/../lib/gcc/arm-none-eabi/5.4.1/armv7-m\libgcc.a(_udivmoddi4.o)
 .ARM.exidx     0x00000000        0x8 c:/program files (x86)/cypress/psoc creator/4.4/psoc creator/import/gnu/arm/5.4.1/bin/../lib/gcc/arm-none-eabi/5.4.1/armv7-m\libgcc.a(_udivmoddi4.o)
 .text          0x00000000        0x0 c:/program files (x86)/cypress/psoc creator/4.4/psoc creator/import/gnu/arm/5.4.1/bin/../lib/gcc/arm-none-eabi/5.4.1/../../../../arm-none-eabi/lib/armv7-m\libg_nano.a(lib_a-errno.o)
 .data          0x00000000        0x0 c:/program files (x86)/cypress/psoc creator/4.4/psoc creator/import/gnu/arm/5.4.1/bin/../lib/gcc/arm-none-eabi/5.4.1/../../../../arm-none-eabi/lib/armv7-m\libg_nano.a(lib_a-errno.o)
 .bss           0x00000000        0x0 c:/program files (x86)/cypress/psoc creator/4.4/psoc creator/import/gnu/arm/5.4.1/bin/../lib/gcc/arm-none-eabi/5.4.1/../../../../arm-none-eabi/lib/armv7-m\libg_nano.a(lib_a-errno.o)
 .text          0x00000000        0x0 c:/program files (x86)/cypress/psoc creator/4.4/psoc creator/import/gnu/arm/5.4.1/bin/../lib/gcc/arm-none-eabi/5.4.1/../../../../arm-none-eabi/lib/armv7-m\libg_nano.a(lib_a-exit.o)
 .data          0x00000000        0x0 c:/program files (x86)/cypress/psoc creator/4.4/psoc creator/import/gnu/arm/5.4.1/bin/../lib/gcc/arm-none-eabi/5.4.1/../../../../arm-none-eabi/lib/armv7-m\libg_nano.a(lib_a-exit.o)
 .bss           0x00000000        0x0 c:/program files (x86)/cypress/psoc creator/4.4/psoc creator/import/gnu/arm/5.4.1/bin/../lib/gcc/arm-none-eabi/5.4.1/../../../../arm-none-eabi/lib/armv7-m\libg_nano.a(lib_a-exit.o)
 .text.exit     0x00000000       0x28 c:/program files (x86)/cypress/psoc creator/4.4/psoc creator/import/gnu/arm/5.4.1/bin/../lib/gcc/arm-none-eabi/5.4.1/../../../../arm-none-eabi/lib/armv7-m\libg_nano.a(lib_a-exit.o)
 .text          0x00000000        0x0 c:/program files (x86)/cypress/psoc creator/4.4/psoc creator/import/gnu/arm/5.4.1/bin/../lib/gcc/arm-none-eabi/5.4.1/../../../../arm-none-eabi/lib/armv7-m\libg_nano.a(lib_a-impure.o)
 .data          0x00000000        0x0 c:/program files (x86)/cypress/psoc creator/4.4/psoc creator/import/gnu/arm/5.4.1/bin/../lib/gcc/arm-none-eabi/5.4.1/../../../../arm-none-eabi/lib/armv7-m\libg_nano.a(lib_a-impure.o)
 .bss           0x00000000        0x0 c:/program files (x86)/cypress/psoc creator/4.4/psoc creator/import/gnu/arm/5.4.1/bin/../lib/gcc/arm-none-eabi/5.4.1/../../../../arm-none-eabi/lib/armv7-m\libg_nano.a(lib_a-impure.o)
 .rodata._global_impure_ptr
                0x00000000        0x4 c:/program files (x86)/cypress/psoc creator/4.4/psoc creator/import/gnu/arm/5.4.1/bin/../lib/gcc/arm-none-eabi/5.4.1/../../../../arm-none-eabi/lib/armv7-m\libg_nano.a(lib_a-impure.o)
 .text          0x00000000        0x0 c:/program files (x86)/cypress/psoc creator/4.4/psoc creator/import/gnu/arm/5.4.1/bin/../lib/gcc/arm-none-eabi/5.4.1/../../../../arm-none-eabi/lib/armv7-m\libg_nano.a(lib_a-init.o)
 .data          0x00000000        0x0 c:/program files (x86)/cypress/psoc creator/4.4/psoc creator/import/gnu/arm/5.4.1/bin/../lib/gcc/arm-none-eabi/5.4.1/../../../../arm-none-eabi/lib/armv7-m\libg_nano.a(lib_a-init.o)
 .bss           0x00000000        0x0 c:/program files (x86)/cypress/psoc creator/4.4/psoc creator/import/gnu/arm/5.4.1/bin/../lib/gcc/arm-none-eabi/5.4.1/../../../../arm-none-eabi/lib/armv7-m\libg_nano.a(lib_a-init.o)
 .text          0x00000000        0x0 c:/program files (x86)/cypress/psoc creator/4.4/psoc creator/import/gnu/arm/5.4.1/bin/../lib/gcc/arm-none-eabi/5.4.1/../../../../arm-none-eabi/lib/armv7-m\libg_nano.a(lib_a-memcmp.o)
 .data          0x00000000        0x0 c:/program files (x86)/cypress/psoc creator/4.4/psoc creator/import/gnu/arm/5.4.1/bin/../lib/gcc/arm-none-eabi/5.4.1/../../../../arm-none-eabi/lib/armv7-m\libg_nano.a(lib_a-memcmp.o)
 .bss           0x00000000        0x0 c:/program files (x86)/cypress/psoc creator/4.4/psoc creator/import/gnu/arm/5.4.1/bin/../lib/gcc/arm-none-eabi/5.4.1/../../../../arm-none-eabi/lib/armv7-m\libg_nano.a(lib_a-memcmp.o)
 .text          0x00000000        0x0 c:/program files (x86)/cypress/psoc creator/4.4/psoc creator/import/gnu/arm/5.4.1/bin/../lib/gcc/arm-none-eabi/5.4.1/../../../../arm-none-eabi/lib/armv7-m\libg_nano.a(lib_a-memcpy-stub.o)
 .data          0x00000000        0x0 c:/program files (x86)/cypress/psoc creator/4.4/psoc creator/import/gnu/arm/5.4.1/bin/../lib/gcc/arm-none-eabi/5.4.1/../../../../arm-none-eabi/lib/armv7-m\libg_nano.a(lib_a-memcpy-stub.o)
 .bss           0x00000000        0x0 c:/program files (x86)/cypress/psoc creator/4.4/psoc creator/import/gnu/arm/5.4.1/bin/../lib/gcc/arm-none-eabi/5.4.1/../../../../arm-none-eabi/lib/armv7-m\libg_nano.a(lib_a-memcpy-stub.o)
 .text          0x00000000        0x0 c:/program files (x86)/cypress/psoc creator/4.4/psoc creator/import/gnu/arm/5.4.1/bin/../lib/gcc/arm-none-eabi/5.4.1/../../../../arm-none-eabi/lib/armv7-m\libg_nano.a(lib_a-memset.o)
 .data          0x00000000        0x0 c:/program files (x86)/cypress/psoc creator/4.4/psoc creator/import/gnu/arm/5.4.1/bin/../lib/gcc/arm-none-eabi/5.4.1/../../../../arm-none-eabi/lib/armv7-m\libg_nano.a(lib_a-memset.o)
 .bss           0x00000000        0x0 c:/program files (x86)/cypress/psoc creator/4.4/psoc creator/import/gnu/arm/5.4.1/bin/../lib/gcc/arm-none-eabi/5.4.1/../../../../arm-none-eabi/lib/armv7-m\libg_nano.a(lib_a-memset.o)
 .data          0x00000000        0x0 c:/program files (x86)/cypress/psoc creator/4.4/psoc creator/import/gnu/arm/5.4.1/bin/../lib/gcc/arm-none-eabi/5.4.1/../../../../arm-none-eabi/lib/armv7-m\libg_nano.a(lib_a-strcmp.o)
 .bss           0x00000000        0x0 c:/program files (x86)/cypress/psoc creator/4.4/psoc creator/import/gnu/arm/5.4.1/bin/../lib/gcc/arm-none-eabi/5.4.1/../../../../arm-none-eabi/lib/armv7-m\libg_nano.a(lib_a-strcmp.o)
 .text          0x00000000        0x0 c:/program files (x86)/cypress/psoc creator/4.4/psoc creator/import/gnu/arm/5.4.1/bin/../lib/gcc/arm-none-eabi/5.4.1/../../../../arm-none-eabi/lib/armv7-m\libg_nano.a(lib_a-strcpy.o)
 .data          0x00000000        0x0 c:/program files (x86)/cypress/psoc creator/4.4/psoc creator/import/gnu/arm/5.4.1/bin/../lib/gcc/arm-none-eabi/5.4.1/../../../../arm-none-eabi/lib/armv7-m\libg_nano.a(lib_a-strcpy.o)
 .bss           0x00000000        0x0 c:/program files (x86)/cypress/psoc creator/4.4/psoc creator/import/gnu/arm/5.4.1/bin/../lib/gcc/arm-none-eabi/5.4.1/../../../../arm-none-eabi/lib/armv7-m\libg_nano.a(lib_a-strcpy.o)
 .data          0x00000000        0x0 c:/program files (x86)/cypress/psoc creator/4.4/psoc creator/import/gnu/arm/5.4.1/bin/../lib/gcc/arm-none-eabi/5.4.1/../../../../arm-none-eabi/lib/armv7-m\libg_nano.a(lib_a-strlen.o)
 .bss           0x00000000        0x0 c:/program files (x86)/cypress/psoc creator/4.4/psoc creator/import/gnu/arm/5.4.1/bin/../lib/gcc/arm-none-eabi/5.4.1/../../../../arm-none-eabi/lib/armv7-m\libg_nano.a(lib_a-strlen.o)
 .text          0x00000000        0x0 c:/program files (x86)/cypress/psoc creator/4.4/psoc creator/import/gnu/arm/5.4.1/bin/../lib/gcc/arm-none-eabi/5.4.1/armv7-m/crtend.o
 .data          0x00000000        0x0 c:/program files (x86)/cypress/psoc creator/4.4/psoc creator/import/gnu/arm/5.4.1/bin/../lib/gcc/arm-none-eabi/5.4.1/armv7-m/crtend.o
 .bss           0x00000000        0x0 c:/program files (x86)/cypress/psoc creator/4.4/psoc creator/import/gnu/arm/5.4.1/bin/../lib/gcc/arm-none-eabi/5.4.1/armv7-m/crtend.o
 .text          0x00000000        0x0 c:/program files (x86)/cypress/psoc creator/4.4/psoc creator/import/gnu/arm/5.4.1/bin/../lib/gcc/arm-none-eabi/5.4.1/armv7-m/crtn.o
 .data          0x00000000        0x0 c:/program files (x86)/cypress/psoc creator/4.4/psoc creator/import/gnu/arm/5.4.1/bin/../lib/gcc/arm-none-eabi/5.4.1/armv7-m/crtn.o
 .bss           0x00000000        0x0 c:/program files (x86)/cypress/psoc creator/4.4/psoc creator/import/gnu/arm/5.4.1/bin/../lib/gcc/arm-none-eabi/5.4.1/armv7-m/crtn.o

Memory Configuration

Name             Origin             Length             Attributes
rom              0x00000000         0x00040000         xr
ram              0x1fff8000         0x00010000         xrw
*default*        0x00000000         0xffffffff

Linker script and memory map

LOAD c:/program files (x86)/cypress/psoc creator/4.4/psoc creator/import/gnu/arm/5.4.1/bin/../lib/gcc/arm-none-eabi/5.4.1/armv7-m/crti.o
LOAD c:/program files (x86)/cypress/psoc creator/4.4/psoc creator/import/gnu/arm/5.4.1/bin/../lib/gcc/arm-none-eabi/5.4.1/armv7-m/crtbegin.o
LOAD c:/program files (x86)/cypress/psoc creator/4.4/psoc creator/import/gnu/arm/5.4.1/bin/../lib/gcc/arm-none-eabi/5.4.1/../../../../arm-none-eabi/lib/armv7-m/crt0.o
START GROUP
LOAD .\CortexM3\ARM_GCC_541\Debug\main.o
LOAD .\CortexM3\ARM_GCC_541\Debug\disp_spi.o
LOAD .\CortexM3\ARM_GCC_541\Debug\ili9341.o
LOAD .\CortexM3\ARM_GCC_541\Debug\lv_disp.o
LOAD .\CortexM3\ARM_GCC_541\Debug\lv_group.o
LOAD .\CortexM3\ARM_GCC_541\Debug\lv_indev.o
LOAD .\CortexM3\ARM_GCC_541\Debug\lv_obj.o
LOAD .\CortexM3\ARM_GCC_541\Debug\lv_refr.o
LOAD .\CortexM3\ARM_GCC_541\Debug\lv_style.o
LOAD .\CortexM3\ARM_GCC_541\Debug\lv_draw_arc.o
LOAD .\CortexM3\ARM_GCC_541\Debug\lv_draw_blend.o
LOAD .\CortexM3\ARM_GCC_541\Debug\lv_draw_img.o
LOAD .\CortexM3\ARM_GCC_541\Debug\lv_draw_label.o
LOAD .\CortexM3\ARM_GCC_541\Debug\lv_draw_line.o
LOAD .\CortexM3\ARM_GCC_541\Debug\lv_draw_mask.o
LOAD .\CortexM3\ARM_GCC_541\Debug\lv_draw_rect.o
LOAD .\CortexM3\ARM_GCC_541\Debug\lv_draw_triangle.o
LOAD .\CortexM3\ARM_GCC_541\Debug\lv_img_buf.o
LOAD .\CortexM3\ARM_GCC_541\Debug\lv_img_cache.o
LOAD .\CortexM3\ARM_GCC_541\Debug\lv_img_decoder.o
LOAD .\CortexM3\ARM_GCC_541\Debug\lv_font.o
LOAD .\CortexM3\ARM_GCC_541\Debug\lv_font_dejavu_16_persian_hebrew.o
LOAD .\CortexM3\ARM_GCC_541\Debug\lv_font_fmt_txt.o
LOAD .\CortexM3\ARM_GCC_541\Debug\lv_font_loader.o
LOAD .\CortexM3\ARM_GCC_541\Debug\lv_font_montserrat_12.o
LOAD .\CortexM3\ARM_GCC_541\Debug\lv_font_montserrat_12_subpx.o
LOAD .\CortexM3\ARM_GCC_541\Debug\lv_font_montserrat_14.o
LOAD .\CortexM3\ARM_GCC_541\Debug\lv_font_montserrat_16.o
LOAD .\CortexM3\ARM_GCC_541\Debug\lv_font_montserrat_18.o
LOAD .\CortexM3\ARM_GCC_541\Debug\lv_font_montserrat_20.o
LOAD .\CortexM3\ARM_GCC_541\Debug\lv_font_montserrat_22.o
LOAD .\CortexM3\ARM_GCC_541\Debug\lv_font_montserrat_24.o
LOAD .\CortexM3\ARM_GCC_541\Debug\lv_font_montserrat_26.o
LOAD .\CortexM3\ARM_GCC_541\Debug\lv_font_montserrat_28.o
LOAD .\CortexM3\ARM_GCC_541\Debug\lv_font_montserrat_28_compressed.o
LOAD .\CortexM3\ARM_GCC_541\Debug\lv_font_montserrat_30.o
LOAD .\CortexM3\ARM_GCC_541\Debug\lv_font_montserrat_32.o
LOAD .\CortexM3\ARM_GCC_541\Debug\lv_font_montserrat_34.o
LOAD .\CortexM3\ARM_GCC_541\Debug\lv_font_montserrat_36.o
LOAD .\CortexM3\ARM_GCC_541\Debug\lv_font_montserrat_38.o
LOAD .\CortexM3\ARM_GCC_541\Debug\lv_font_montserrat_40.o
LOAD .\CortexM3\ARM_GCC_541\Debug\lv_font_montserrat_42.o
LOAD .\CortexM3\ARM_GCC_541\Debug\lv_font_montserrat_44.o
LOAD .\CortexM3\ARM_GCC_541\Debug\lv_font_montserrat_46.o
LOAD .\CortexM3\ARM_GCC_541\Debug\lv_font_montserrat_48.o
LOAD .\CortexM3\ARM_GCC_541\Debug\lv_font_simsun_16_cjk.o
LOAD .\CortexM3\ARM_GCC_541\Debug\lv_font_unscii_8.o
LOAD .\CortexM3\ARM_GCC_541\Debug\lv_font_montserrat_8.o
LOAD .\CortexM3\ARM_GCC_541\Debug\lv_font_montserrat_10.o
LOAD .\CortexM3\ARM_GCC_541\Debug\lv_gpu_stm32_dma2d.o
LOAD .\CortexM3\ARM_GCC_541\Debug\lv_hal_disp.o
LOAD .\CortexM3\ARM_GCC_541\Debug\lv_hal_indev.o
LOAD .\CortexM3\ARM_GCC_541\Debug\lv_hal_tick.o
LOAD .\CortexM3\ARM_GCC_541\Debug\lv_anim.o
LOAD .\CortexM3\ARM_GCC_541\Debug\lv_area.o
LOAD .\CortexM3\ARM_GCC_541\Debug\lv_async.o
LOAD .\CortexM3\ARM_GCC_541\Debug\lv_bidi.o
LOAD .\CortexM3\ARM_GCC_541\Debug\lv_color.o
LOAD .\CortexM3\ARM_GCC_541\Debug\lv_debug.o
LOAD .\CortexM3\ARM_GCC_541\Debug\lv_fs.o
LOAD .\CortexM3\ARM_GCC_541\Debug\lv_gc.o
LOAD .\CortexM3\ARM_GCC_541\Debug\lv_ll.o
LOAD .\CortexM3\ARM_GCC_541\Debug\lv_log.o
LOAD .\CortexM3\ARM_GCC_541\Debug\lv_math.o
LOAD .\CortexM3\ARM_GCC_541\Debug\lv_mem.o
LOAD .\CortexM3\ARM_GCC_541\Debug\lv_printf.o
LOAD .\CortexM3\ARM_GCC_541\Debug\lv_task.o
LOAD .\CortexM3\ARM_GCC_541\Debug\lv_templ.o
LOAD .\CortexM3\ARM_GCC_541\Debug\lv_txt.o
LOAD .\CortexM3\ARM_GCC_541\Debug\lv_txt_ap.o
LOAD .\CortexM3\ARM_GCC_541\Debug\lv_utils.o
LOAD .\CortexM3\ARM_GCC_541\Debug\lv_theme.o
LOAD .\CortexM3\ARM_GCC_541\Debug\lv_theme_empty.o
LOAD .\CortexM3\ARM_GCC_541\Debug\lv_theme_material.o
LOAD .\CortexM3\ARM_GCC_541\Debug\lv_theme_mono.o
LOAD .\CortexM3\ARM_GCC_541\Debug\lv_theme_template.o
LOAD .\CortexM3\ARM_GCC_541\Debug\lv_arc.o
LOAD .\CortexM3\ARM_GCC_541\Debug\lv_bar.o
LOAD .\CortexM3\ARM_GCC_541\Debug\lv_btn.o
LOAD .\CortexM3\ARM_GCC_541\Debug\lv_btnmatrix.o
LOAD .\CortexM3\ARM_GCC_541\Debug\lv_calendar.o
LOAD .\CortexM3\ARM_GCC_541\Debug\lv_canvas.o
LOAD .\CortexM3\ARM_GCC_541\Debug\lv_chart.o
LOAD .\CortexM3\ARM_GCC_541\Debug\lv_checkbox.o
LOAD .\CortexM3\ARM_GCC_541\Debug\lv_cont.o
LOAD .\CortexM3\ARM_GCC_541\Debug\lv_cpicker.o
LOAD .\CortexM3\ARM_GCC_541\Debug\lv_dropdown.o
LOAD .\CortexM3\ARM_GCC_541\Debug\lv_gauge.o
LOAD .\CortexM3\ARM_GCC_541\Debug\lv_img.o
LOAD .\CortexM3\ARM_GCC_541\Debug\lv_imgbtn.o
LOAD .\CortexM3\ARM_GCC_541\Debug\lv_keyboard.o
LOAD .\CortexM3\ARM_GCC_541\Debug\lv_label.o
LOAD .\CortexM3\ARM_GCC_541\Debug\lv_led.o
LOAD .\CortexM3\ARM_GCC_541\Debug\lv_line.o
LOAD .\CortexM3\ARM_GCC_541\Debug\lv_linemeter.o
LOAD .\CortexM3\ARM_GCC_541\Debug\lv_list.o
LOAD .\CortexM3\ARM_GCC_541\Debug\lv_msgbox.o
LOAD .\CortexM3\ARM_GCC_541\Debug\lv_objmask.o
LOAD .\CortexM3\ARM_GCC_541\Debug\lv_objx_templ.o
LOAD .\CortexM3\ARM_GCC_541\Debug\lv_page.o
LOAD .\CortexM3\ARM_GCC_541\Debug\lv_roller.o
LOAD .\CortexM3\ARM_GCC_541\Debug\lv_slider.o
LOAD .\CortexM3\ARM_GCC_541\Debug\lv_spinbox.o
LOAD .\CortexM3\ARM_GCC_541\Debug\lv_spinner.o
LOAD .\CortexM3\ARM_GCC_541\Debug\lv_switch.o
LOAD .\CortexM3\ARM_GCC_541\Debug\lv_table.o
LOAD .\CortexM3\ARM_GCC_541\Debug\lv_tabview.o
LOAD .\CortexM3\ARM_GCC_541\Debug\lv_textarea.o
LOAD .\CortexM3\ARM_GCC_541\Debug\lv_tileview.o
LOAD .\CortexM3\ARM_GCC_541\Debug\lv_win.o
LOAD .\CortexM3\ARM_GCC_541\Debug\spi_dma.o
LOAD .\CortexM3\ARM_GCC_541\Debug\psoc_platform.o
LOAD .\CortexM3\ARM_GCC_541\Debug\GUI.o
LOAD .\CortexM3\ARM_GCC_541\Debug\cyfitter_cfg.o
LOAD .\CortexM3\ARM_GCC_541\Debug\cymetadata.o
LOAD .\CortexM3\ARM_GCC_541\Debug\Cm3Start.o
LOAD .\CortexM3\ARM_GCC_541\Debug\ili9341_master.a
LOAD C:\Program Files (x86)\Cypress\PSoC Creator\4.4\PSoC Creator\psoc\content\cycomponentlibrary\CyComponentLibrary.cylib\CortexM3\ARM_GCC_541\Debug\CyComponentLibrary.a
END GROUP
START GROUP
LOAD c:/program files (x86)/cypress/psoc creator/4.4/psoc creator/import/gnu/arm/5.4.1/bin/../lib/gcc/arm-none-eabi/5.4.1/armv7-m\libgcc.a
LOAD c:/program files (x86)/cypress/psoc creator/4.4/psoc creator/import/gnu/arm/5.4.1/bin/../lib/gcc/arm-none-eabi/5.4.1/../../../../arm-none-eabi/lib/armv7-m\libg_nano.a
LOAD c:/program files (x86)/cypress/psoc creator/4.4/psoc creator/import/gnu/arm/5.4.1/bin/../lib/gcc/arm-none-eabi/5.4.1/../../../../arm-none-eabi/lib/armv7-m\libc_nano.a
END GROUP
START GROUP
LOAD c:/program files (x86)/cypress/psoc creator/4.4/psoc creator/import/gnu/arm/5.4.1/bin/../lib/gcc/arm-none-eabi/5.4.1/armv7-m\libgcc.a
LOAD c:/program files (x86)/cypress/psoc creator/4.4/psoc creator/import/gnu/arm/5.4.1/bin/../lib/gcc/arm-none-eabi/5.4.1/../../../../arm-none-eabi/lib/armv7-m\libc_nano.a
END GROUP
LOAD c:/program files (x86)/cypress/psoc creator/4.4/psoc creator/import/gnu/arm/5.4.1/bin/../lib/gcc/arm-none-eabi/5.4.1/armv7-m/crtend.o
LOAD c:/program files (x86)/cypress/psoc creator/4.4/psoc creator/import/gnu/arm/5.4.1/bin/../lib/gcc/arm-none-eabi/5.4.1/armv7-m/crtn.o
START GROUP
LOAD c:/program files (x86)/cypress/psoc creator/4.4/psoc creator/import/gnu/arm/5.4.1/bin/../lib/gcc/arm-none-eabi/5.4.1/armv7-m\libgcc.a
LOAD c:/program files (x86)/cypress/psoc creator/4.4/psoc creator/import/gnu/arm/5.4.1/bin/../lib/gcc/arm-none-eabi/5.4.1/../../../../arm-none-eabi/lib/armv7-m\libc.a
LOAD c:/program files (x86)/cypress/psoc creator/4.4/psoc creator/import/gnu/arm/5.4.1/bin/../lib/gcc/arm-none-eabi/5.4.1/../../../../arm-none-eabi/lib/armv7-m\libnosys.a
END GROUP
                0x00000000                CY_APPL_ORIGIN = 0x0
                0x00000100                CY_FLASH_ROW_SIZE = 0x100
                0x00000020                CY_ECC_ROW_SIZE = 0x20
                0x00000000                CY_EE_IN_BTLDR = 0x0
                0x00000000                CY_APPL_LOADABLE = 0x0
                0x00000800                CY_EE_SIZE = 0x800
                0x00000001                CY_APPL_NUM = 0x1
                0x00000001                CY_APPL_MAX = 0x1
                0x00000040                CY_METADATA_SIZE = 0x40
                0x00000000                CY_APPL_LOADABLE = 0x0
                0x00000000                CY_CHECKSUM_EXCLUDE_SIZE = ALIGN (0x0, CY_FLASH_ROW_SIZE)
                [!provide]                PROVIDE (__cy_heap_start, _end)
                0x00000001                PROVIDE (__cy_region_num, ((__cy_regions_end - __cy_regions) / 0x10))
                0x20008000                PROVIDE (__cy_stack, (ORIGIN (ram) + LENGTH (ram)))
                [!provide]                PROVIDE (__cy_heap_end, (__cy_stack - 0x4000))

.cybootloader   0x00000000        0x0
 *(.cybootloader)
                0x00000000                appl1_start = CY_APPL_ORIGIN?CY_APPL_ORIGIN:ALIGN (CY_FLASH_ROW_SIZE)
                0x0001ff00                appl2_start = (appl1_start + ALIGN ((((LENGTH (rom) - appl1_start) - (0x2 * CY_FLASH_ROW_SIZE)) / 0x2), CY_FLASH_ROW_SIZE))
                0x00000000                appl_start = (CY_APPL_NUM == 0x1)?appl1_start:appl2_start
                0x00000000                ecc_offset = ((appl_start / CY_FLASH_ROW_SIZE) * CY_ECC_ROW_SIZE)
                0x00000000                ee_offset = (CY_APPL_LOADABLE && ! (CY_EE_IN_BTLDR))?((CY_EE_SIZE / CY_APPL_MAX) * (CY_APPL_NUM - 0x1)):0x0
                0x00000800                ee_size = (CY_APPL_LOADABLE && ! (CY_EE_IN_BTLDR))?(CY_EE_SIZE / CY_APPL_MAX):CY_EE_SIZE
                [!provide]                PROVIDE (CY_ECC_OFFSET, ecc_offset)

.text           0x00000000    0x1dce4
 CREATE_OBJECT_SYMBOLS
                0x00000000                PROVIDE (__cy_interrupt_vector, RomVectors)
 *(.romvectors)
 .romvectors    0x00000000       0x10 .\CortexM3\ARM_GCC_541\Debug\Cm3Start.o
                0x00000000                RomVectors
                0x00000001                ASSERT ((. != __cy_interrupt_vector), No interrupt vector)
                0x00000001                ASSERT (CY_APPL_ORIGIN?(SIZEOF (.cybootloader) <= CY_APPL_ORIGIN):0x1, Wrong image location)
                0x00000010                PROVIDE (__cy_reset, Reset)
 *(.text.Reset)
 .text.Reset    0x00000010       0x18 .\CortexM3\ARM_GCC_541\Debug\Cm3Start.o
                0x00000010                Reset
                0x00000001                ASSERT ((. != __cy_reset), No reset code)
 *(.dma_init)
                0x00000001                ASSERT ((((appl_start + .) <= 0x10000) || 0x1), DMA Init must be within the first 64k of flash)
 *(.text .text.* .gnu.linkonce.t.*)
 .text          0x00000028       0x5c c:/program files (x86)/cypress/psoc creator/4.4/psoc creator/import/gnu/arm/5.4.1/bin/../lib/gcc/arm-none-eabi/5.4.1/armv7-m/crtbegin.o
 .text.voltage_ddlist_handler
                0x00000084        0x4 .\CortexM3\ARM_GCC_541\Debug\main.o
 .text.get_encoder_diff
                0x00000088       0x18 .\CortexM3\ARM_GCC_541\Debug\main.o
 .text.encoder_read
                0x000000a0       0x20 .\CortexM3\ARM_GCC_541\Debug\main.o
 .text.button_callback
                0x000000c0       0x30 .\CortexM3\ARM_GCC_541\Debug\main.o
 .text.type_param_ok_callback
                0x000000f0       0x4c .\CortexM3\ARM_GCC_541\Debug\main.o
 .text.voltage_ok_btn_handler
                0x0000013c       0x34 .\CortexM3\ARM_GCC_541\Debug\main.o
 .text.pulses_ok_btn_handler
                0x00000170       0x40 .\CortexM3\ARM_GCC_541\Debug\main.o
 .text.parameter_list_container_event_handler
                0x000001b0      0x124 .\CortexM3\ARM_GCC_541\Debug\main.o
 .text.create_voltage_container_widgets
                0x000002d4       0x90 .\CortexM3\ARM_GCC_541\Debug\main.o
 .text.create_type_container_widgets
                0x00000364      0x10c .\CortexM3\ARM_GCC_541\Debug\main.o
 .text.create_pulses_container_widgets
                0x00000470       0xb0 .\CortexM3\ARM_GCC_541\Debug\main.o
 .text.create_application_screen
                0x00000520      0x198 .\CortexM3\ARM_GCC_541\Debug\main.o
 .text.burst_type_list_handler
                0x000006b8       0x60 .\CortexM3\ARM_GCC_541\Debug\main.o
 .text.timer_tick_handler
                0x00000718        0xc .\CortexM3\ARM_GCC_541\Debug\main.o
                0x00000718                timer_tick_handler
 .text.spi_tx_dma_done
                0x00000724       0x10 .\CortexM3\ARM_GCC_541\Debug\main.o
                0x00000724                spi_tx_dma_done
 .text.spi_tx_isr_handler
                0x00000734       0x38 .\CortexM3\ARM_GCC_541\Debug\main.o
                0x00000734                spi_tx_isr_handler
 .text.main     0x0000076c       0xf4 .\CortexM3\ARM_GCC_541\Debug\main.o
                0x0000076c                main
 .text.display_tl_poll_is_busy
                0x00000860        0xc .\CortexM3\ARM_GCC_541\Debug\disp_spi.o
                0x00000860                display_tl_poll_is_busy
 .text.display_spi_transaction
                0x0000086c       0x3c .\CortexM3\ARM_GCC_541\Debug\disp_spi.o
                0x0000086c                display_spi_transaction
 .text.display_colors_sent_notification
                0x000008a8       0x1c .\CortexM3\ARM_GCC_541\Debug\disp_spi.o
                0x000008a8                display_colors_sent_notification
 .text.ili9341_send_data
                0x000008c4       0x30 .\CortexM3\ARM_GCC_541\Debug\ili9341.o
 .text.ili9341_send_cmd
                0x000008f4       0x34 .\CortexM3\ARM_GCC_541\Debug\ili9341.o
 .text.ili9341_set_orientation
                0x00000928       0x2c .\CortexM3\ARM_GCC_541\Debug\ili9341.o
 .text.ili9341_send_color
                0x00000954       0x30 .\CortexM3\ARM_GCC_541\Debug\ili9341.o
 .text.ili9341_reset
                0x00000984       0x20 .\CortexM3\ARM_GCC_541\Debug\ili9341.o
                0x00000984                ili9341_reset
 .text.ili9341_flush
                0x000009a4       0x9c .\CortexM3\ARM_GCC_541\Debug\ili9341.o
                0x000009a4                ili9341_flush
 .text.ili9341_enable_backlight
                0x00000a40        0xc .\CortexM3\ARM_GCC_541\Debug\ili9341.o
                0x00000a40                ili9341_enable_backlight
 .text.ili9341_init
                0x00000a4c      0x2d4 .\CortexM3\ARM_GCC_541\Debug\ili9341.o
                0x00000a4c                ili9341_init
 .text.lv_disp_get_scr_act
                0x00000d20       0x18 .\CortexM3\ARM_GCC_541\Debug\lv_disp.o
                0x00000d20                lv_disp_get_scr_act
 .text.lv_disp_get_scr_prev
                0x00000d38       0x18 .\CortexM3\ARM_GCC_541\Debug\lv_disp.o
                0x00000d38                lv_disp_get_scr_prev
 .text.lv_disp_load_scr
                0x00000d50       0x14 .\CortexM3\ARM_GCC_541\Debug\lv_disp.o
                0x00000d50                lv_disp_load_scr
 .text.lv_disp_get_layer_top
                0x00000d64       0x18 .\CortexM3\ARM_GCC_541\Debug\lv_disp.o
                0x00000d64                lv_disp_get_layer_top
 .text.lv_disp_get_layer_sys
                0x00000d7c       0x18 .\CortexM3\ARM_GCC_541\Debug\lv_disp.o
                0x00000d7c                lv_disp_get_layer_sys
 .text.obj_to_foreground
                0x00000d94       0x24 .\CortexM3\ARM_GCC_541\Debug\lv_group.o
 .text.focus_next_core
                0x00000db8       0xcc .\CortexM3\ARM_GCC_541\Debug\lv_group.o
 .text._lv_group_init
                0x00000e84       0x10 .\CortexM3\ARM_GCC_541\Debug\lv_group.o
                0x00000e84                _lv_group_init
 .text.lv_group_create
                0x00000e94       0x5c .\CortexM3\ARM_GCC_541\Debug\lv_group.o
                0x00000e94                lv_group_create
 .text.lv_group_focus_next
                0x00000ef0       0x14 .\CortexM3\ARM_GCC_541\Debug\lv_group.o
                0x00000ef0                lv_group_focus_next
 .text.lv_group_focus_prev
                0x00000f04       0x14 .\CortexM3\ARM_GCC_541\Debug\lv_group.o
                0x00000f04                lv_group_focus_prev
 .text.lv_group_refocus
                0x00000f18       0x30 .\CortexM3\ARM_GCC_541\Debug\lv_group.o
 .text.lv_group_add_obj
                0x00000f48       0x6c .\CortexM3\ARM_GCC_541\Debug\lv_group.o
                0x00000f48                lv_group_add_obj
 .text.lv_group_remove_obj
                0x00000fb4       0x94 .\CortexM3\ARM_GCC_541\Debug\lv_group.o
                0x00000fb4                lv_group_remove_obj
 .text.lv_group_get_focused
                0x00001048       0x14 .\CortexM3\ARM_GCC_541\Debug\lv_group.o
                0x00001048                lv_group_get_focused
 .text.lv_group_send_data
                0x0000105c       0x2c .\CortexM3\ARM_GCC_541\Debug\lv_group.o
                0x0000105c                lv_group_send_data
 .text.lv_group_set_editing
                0x00001088       0x44 .\CortexM3\ARM_GCC_541\Debug\lv_group.o
                0x00001088                lv_group_set_editing
 .text.lv_group_focus_obj
                0x000010cc       0xac .\CortexM3\ARM_GCC_541\Debug\lv_group.o
                0x000010cc                lv_group_focus_obj
 .text.lv_group_get_editing
                0x00001178       0x10 .\CortexM3\ARM_GCC_541\Debug\lv_group.o
                0x00001178                lv_group_get_editing
 .text.indev_proc_reset_query_handler
                0x00001188       0x54 .\CortexM3\ARM_GCC_541\Debug\lv_indev.o
 .text.indev_reset_check
                0x000011dc       0x20 .\CortexM3\ARM_GCC_541\Debug\lv_indev.o
 .text.get_dragged_obj
                0x000011fc       0x28 .\CortexM3\ARM_GCC_541\Debug\lv_indev.o
 .text.indev_drag_throw
                0x00001224      0x1ac .\CortexM3\ARM_GCC_541\Debug\lv_indev.o
 .text.indev_proc_release
                0x000013d0      0x18c .\CortexM3\ARM_GCC_541\Debug\lv_indev.o
 .text.indev_click_focus
                0x0000155c      0x160 .\CortexM3\ARM_GCC_541\Debug\lv_indev.o
 .text.indev_drag
                0x000016bc      0x2d0 .\CortexM3\ARM_GCC_541\Debug\lv_indev.o
 .text.indev_gesture
                0x0000198c       0xe8 .\CortexM3\ARM_GCC_541\Debug\lv_indev.o
 .text.indev_keypad_proc
                0x00001a74      0x2f8 .\CortexM3\ARM_GCC_541\Debug\lv_indev.o
 .text.indev_encoder_proc
                0x00001d6c      0x45c .\CortexM3\ARM_GCC_541\Debug\lv_indev.o
 .text.lv_indev_get_act
                0x000021c8        0xc .\CortexM3\ARM_GCC_541\Debug\lv_indev.o
                0x000021c8                lv_indev_get_act
 .text.lv_indev_get_type
                0x000021d4        0xc .\CortexM3\ARM_GCC_541\Debug\lv_indev.o
                0x000021d4                lv_indev_get_type
 .text.lv_indev_reset
                0x000021e0       0x6c .\CortexM3\ARM_GCC_541\Debug\lv_indev.o
                0x000021e0                lv_indev_reset
 .text._lv_indev_init
                0x0000224c        0xc .\CortexM3\ARM_GCC_541\Debug\lv_indev.o
                0x0000224c                _lv_indev_init
 .text.lv_indev_set_group
                0x00002258       0x10 .\CortexM3\ARM_GCC_541\Debug\lv_indev.o
                0x00002258                lv_indev_set_group
 .text.lv_indev_get_point
                0x00002268       0x30 .\CortexM3\ARM_GCC_541\Debug\lv_indev.o
                0x00002268                lv_indev_get_point
 .text.lv_indev_is_dragging
                0x00002298       0x20 .\CortexM3\ARM_GCC_541\Debug\lv_indev.o
                0x00002298                lv_indev_is_dragging
 .text.lv_indev_get_vect
                0x000022b8       0x2c .\CortexM3\ARM_GCC_541\Debug\lv_indev.o
                0x000022b8                lv_indev_get_vect
 .text.lv_indev_get_obj_act
                0x000022e4        0xc .\CortexM3\ARM_GCC_541\Debug\lv_indev.o
                0x000022e4                lv_indev_get_obj_act
 .text.lv_indev_search_obj
                0x000022f0       0x6c .\CortexM3\ARM_GCC_541\Debug\lv_indev.o
                0x000022f0                lv_indev_search_obj
 .text.indev_proc_press
                0x0000235c      0x360 .\CortexM3\ARM_GCC_541\Debug\lv_indev.o
 .text.indev_pointer_proc
                0x000026bc       0x54 .\CortexM3\ARM_GCC_541\Debug\lv_indev.o
 .text.indev_button_proc
                0x00002710       0x4c .\CortexM3\ARM_GCC_541\Debug\lv_indev.o
 .text._lv_indev_read_task
                0x0000275c       0xbc .\CortexM3\ARM_GCC_541\Debug\lv_indev.o
                0x0000275c                _lv_indev_read_task
 .text.lv_event_mark_deleted
                0x00002818       0x1c .\CortexM3\ARM_GCC_541\Debug\lv_obj.o
 .text.style_prop_is_cacheble
                0x00002834       0xa8 .\CortexM3\ARM_GCC_541\Debug\lv_obj.o
 .text.refresh_children_position
                0x000028dc       0x48 .\CortexM3\ARM_GCC_541\Debug\lv_obj.o
 .text.style_snapshot_compare
                0x00002924      0x174 .\CortexM3\ARM_GCC_541\Debug\lv_obj.o
 .text.lv_init  0x00002a98       0xb0 .\CortexM3\ARM_GCC_541\Debug\lv_obj.o
                0x00002a98                lv_init
 .text.lv_obj_set_click
                0x00002b48       0x2c .\CortexM3\ARM_GCC_541\Debug\lv_obj.o
                0x00002b48                lv_obj_set_click
 .text.lv_obj_set_drag
                0x00002b74       0x34 .\CortexM3\ARM_GCC_541\Debug\lv_obj.o
                0x00002b74                lv_obj_set_drag
 .text.lv_obj_set_drag_throw
                0x00002ba8       0x2c .\CortexM3\ARM_GCC_541\Debug\lv_obj.o
                0x00002ba8                lv_obj_set_drag_throw
 .text.lv_obj_set_drag_parent
                0x00002bd4       0x2c .\CortexM3\ARM_GCC_541\Debug\lv_obj.o
                0x00002bd4                lv_obj_set_drag_parent
 .text.lv_obj_add_protect
                0x00002c00       0x28 .\CortexM3\ARM_GCC_541\Debug\lv_obj.o
                0x00002c00                lv_obj_add_protect
 .text.lv_obj_clear_protect
                0x00002c28       0x2c .\CortexM3\ARM_GCC_541\Debug\lv_obj.o
                0x00002c28                lv_obj_clear_protect
 .text.lv_obj_set_event_cb
                0x00002c54       0x20 .\CortexM3\ARM_GCC_541\Debug\lv_obj.o
                0x00002c54                lv_obj_set_event_cb
 .text.lv_event_send_func
                0x00002c74       0xac .\CortexM3\ARM_GCC_541\Debug\lv_obj.o
                0x00002c74                lv_event_send_func
 .text.lv_event_send
                0x00002d20       0x34 .\CortexM3\ARM_GCC_541\Debug\lv_obj.o
                0x00002d20                lv_event_send
 .text.lv_event_get_data
                0x00002d54        0xc .\CortexM3\ARM_GCC_541\Debug\lv_obj.o
                0x00002d54                lv_event_get_data
 .text.lv_obj_set_signal_cb
                0x00002d60       0x20 .\CortexM3\ARM_GCC_541\Debug\lv_obj.o
                0x00002d60                lv_obj_set_signal_cb
 .text.lv_signal_send
                0x00002d80       0x14 .\CortexM3\ARM_GCC_541\Debug\lv_obj.o
                0x00002d80                lv_signal_send
 .text.lv_obj_set_design_cb
                0x00002d94       0x20 .\CortexM3\ARM_GCC_541\Debug\lv_obj.o
                0x00002d94                lv_obj_set_design_cb
 .text.lv_obj_allocate_ext_attr
                0x00002db4       0x30 .\CortexM3\ARM_GCC_541\Debug\lv_obj.o
                0x00002db4                lv_obj_allocate_ext_attr
 .text.lv_obj_refresh_ext_draw_pad
                0x00002de4       0x28 .\CortexM3\ARM_GCC_541\Debug\lv_obj.o
                0x00002de4                lv_obj_refresh_ext_draw_pad
 .text.lv_obj_get_parent
                0x00002e0c       0x20 .\CortexM3\ARM_GCC_541\Debug\lv_obj.o
                0x00002e0c                lv_obj_get_parent
 .text.lv_obj_get_screen
                0x00002e2c       0x2c .\CortexM3\ARM_GCC_541\Debug\lv_obj.o
                0x00002e2c                lv_obj_get_screen
 .text.lv_obj_get_disp
                0x00002e58       0x68 .\CortexM3\ARM_GCC_541\Debug\lv_obj.o
                0x00002e58                lv_obj_get_disp
 .text.lv_obj_get_child
                0x00002ec0       0x30 .\CortexM3\ARM_GCC_541\Debug\lv_obj.o
                0x00002ec0                lv_obj_get_child
 .text.base_dir_refr_children
                0x00002ef0       0x3c .\CortexM3\ARM_GCC_541\Debug\lv_obj.o
 .text.lv_obj_set_base_dir
                0x00002f2c       0x28 .\CortexM3\ARM_GCC_541\Debug\lv_obj.o
                0x00002f2c                lv_obj_set_base_dir
 .text.lv_obj_get_coords
                0x00002f54       0x34 .\CortexM3\ARM_GCC_541\Debug\lv_obj.o
                0x00002f54                lv_obj_get_coords
 .text.lv_obj_get_x
                0x00002f88       0x38 .\CortexM3\ARM_GCC_541\Debug\lv_obj.o
                0x00002f88                lv_obj_get_x
 .text.lv_obj_get_y
                0x00002fc0       0x38 .\CortexM3\ARM_GCC_541\Debug\lv_obj.o
                0x00002fc0                lv_obj_get_y
 .text.lv_obj_get_width
                0x00002ff8       0x2c .\CortexM3\ARM_GCC_541\Debug\lv_obj.o
                0x00002ff8                lv_obj_get_width
 .text.lv_obj_get_height
                0x00003024       0x2c .\CortexM3\ARM_GCC_541\Debug\lv_obj.o
                0x00003024                lv_obj_get_height
 .text.lv_obj_get_auto_realign
                0x00003050       0x24 .\CortexM3\ARM_GCC_541\Debug\lv_obj.o
                0x00003050                lv_obj_get_auto_realign
 .text.lv_obj_get_style_list
                0x00003074       0x2c .\CortexM3\ARM_GCC_541\Debug\lv_obj.o
                0x00003074                lv_obj_get_style_list
 .text.trans_del
                0x000030a0       0x74 .\CortexM3\ARM_GCC_541\Debug\lv_obj.o
 .text.lv_obj_clean_style_list
                0x00003114       0x20 .\CortexM3\ARM_GCC_541\Debug\lv_obj.o
                0x00003114                lv_obj_clean_style_list
 .text._lv_obj_disable_style_caching
                0x00003134       0x44 .\CortexM3\ARM_GCC_541\Debug\lv_obj.o
                0x00003134                _lv_obj_disable_style_caching
 .text.trans_anim_ready_cb
                0x00003178       0x60 .\CortexM3\ARM_GCC_541\Debug\lv_obj.o
 .text.lv_obj_get_hidden
                0x000031d8       0x24 .\CortexM3\ARM_GCC_541\Debug\lv_obj.o
                0x000031d8                lv_obj_get_hidden
 .text.lv_obj_area_is_visible
                0x000031fc       0xd8 .\CortexM3\ARM_GCC_541\Debug\lv_obj.o
                0x000031fc                lv_obj_area_is_visible
 .text.lv_obj_invalidate_area
                0x000032d4       0x4c .\CortexM3\ARM_GCC_541\Debug\lv_obj.o
                0x000032d4                lv_obj_invalidate_area
 .text.lv_obj_invalidate
                0x00003320       0x70 .\CortexM3\ARM_GCC_541\Debug\lv_obj.o
                0x00003320                lv_obj_invalidate
 .text.lv_obj_move_foreground
                0x00003390       0x54 .\CortexM3\ARM_GCC_541\Debug\lv_obj.o
                0x00003390                lv_obj_move_foreground
 .text.lv_obj_set_pos
                0x000033e4       0xac .\CortexM3\ARM_GCC_541\Debug\lv_obj.o
                0x000033e4                lv_obj_set_pos
 .text.lv_obj_set_x
                0x00003490       0x30 .\CortexM3\ARM_GCC_541\Debug\lv_obj.o
                0x00003490                lv_obj_set_x
 .text.lv_obj_set_y
                0x000034c0       0x30 .\CortexM3\ARM_GCC_541\Debug\lv_obj.o
                0x000034c0                lv_obj_set_y
 .text.obj_align_core
                0x000034f0       0x74 .\CortexM3\ARM_GCC_541\Debug\lv_obj.o
 .text.lv_obj_align
                0x00003564       0x78 .\CortexM3\ARM_GCC_541\Debug\lv_obj.o
                0x00003564                lv_obj_align
 .text.obj_align_mid_core
                0x000035dc      0x2c4 .\CortexM3\ARM_GCC_541\Debug\lv_obj.o
 .text.lv_obj_align_mid
                0x000038a0       0x78 .\CortexM3\ARM_GCC_541\Debug\lv_obj.o
                0x000038a0                lv_obj_align_mid
 .text.lv_obj_realign
                0x00003918       0x58 .\CortexM3\ARM_GCC_541\Debug\lv_obj.o
                0x00003918                lv_obj_realign
 .text.refresh_children_style
                0x00003970       0x3c .\CortexM3\ARM_GCC_541\Debug\lv_obj.o
 .text.lv_obj_set_hidden
                0x000039ac       0x60 .\CortexM3\ARM_GCC_541\Debug\lv_obj.o
                0x000039ac                lv_obj_set_hidden
 .text.lv_obj_get_click
                0x00003a0c       0x24 .\CortexM3\ARM_GCC_541\Debug\lv_obj.o
                0x00003a0c                lv_obj_get_click
 .text.lv_obj_get_drag
                0x00003a30       0x24 .\CortexM3\ARM_GCC_541\Debug\lv_obj.o
                0x00003a30                lv_obj_get_drag
 .text.lv_obj_get_drag_dir
                0x00003a54       0x24 .\CortexM3\ARM_GCC_541\Debug\lv_obj.o
                0x00003a54                lv_obj_get_drag_dir
 .text.lv_obj_get_drag_throw
                0x00003a78       0x24 .\CortexM3\ARM_GCC_541\Debug\lv_obj.o
                0x00003a78                lv_obj_get_drag_throw
 .text.lv_obj_get_drag_parent
                0x00003a9c        0xc .\CortexM3\ARM_GCC_541\Debug\lv_obj.o
                0x00003a9c                lv_obj_get_drag_parent
 .text.lv_obj_get_gesture_parent
                0x00003aa8        0xc .\CortexM3\ARM_GCC_541\Debug\lv_obj.o
                0x00003aa8                lv_obj_get_gesture_parent
 .text.lv_obj_get_focus_parent
                0x00003ab4        0xc .\CortexM3\ARM_GCC_541\Debug\lv_obj.o
                0x00003ab4                lv_obj_get_focus_parent
 .text.lv_obj_get_base_dir
                0x00003ac0       0x20 .\CortexM3\ARM_GCC_541\Debug\lv_obj.o
                0x00003ac0                lv_obj_get_base_dir
 .text.lv_obj_create
                0x00003ae0      0x408 .\CortexM3\ARM_GCC_541\Debug\lv_obj.o
                0x00003ae0                lv_obj_create
 .text.lv_obj_set_parent
                0x00003ee8       0xd8 .\CortexM3\ARM_GCC_541\Debug\lv_obj.o
                0x00003ee8                lv_obj_set_parent
 .text.lv_obj_set_size
                0x00003fc0       0xc4 .\CortexM3\ARM_GCC_541\Debug\lv_obj.o
                0x00003fc0                lv_obj_set_size
 .text.lv_obj_set_width
                0x00004084       0x30 .\CortexM3\ARM_GCC_541\Debug\lv_obj.o
                0x00004084                lv_obj_set_width
 .text.lv_obj_set_height
                0x000040b4       0x30 .\CortexM3\ARM_GCC_541\Debug\lv_obj.o
                0x000040b4                lv_obj_set_height
 .text.lv_obj_is_protected
                0x000040e4       0x2c .\CortexM3\ARM_GCC_541\Debug\lv_obj.o
                0x000040e4                lv_obj_is_protected
 .text.lv_obj_get_state
                0x00004110       0x44 .\CortexM3\ARM_GCC_541\Debug\lv_obj.o
                0x00004110                lv_obj_get_state
 .text._lv_obj_get_style_color
                0x00004154       0x78 .\CortexM3\ARM_GCC_541\Debug\lv_obj.o
                0x00004154                _lv_obj_get_style_color
 .text._lv_obj_get_style_opa
                0x000041cc       0xf8 .\CortexM3\ARM_GCC_541\Debug\lv_obj.o
                0x000041cc                _lv_obj_get_style_opa
 .text.update_style_cache
                0x000042c4      0x330 .\CortexM3\ARM_GCC_541\Debug\lv_obj.o
 .text._lv_obj_get_style_ptr
                0x000045f4       0xf0 .\CortexM3\ARM_GCC_541\Debug\lv_obj.o
                0x000045f4                _lv_obj_get_style_ptr
 .text._lv_obj_get_style_int
                0x000046e4      0x220 .\CortexM3\ARM_GCC_541\Debug\lv_obj.o
                0x000046e4                _lv_obj_get_style_int
 .text.lv_obj_set_width_fit
                0x00004904       0x28 .\CortexM3\ARM_GCC_541\Debug\lv_obj.o
                0x00004904                lv_obj_set_width_fit
 .text.lv_obj_get_width_fit
                0x0000492c       0x40 .\CortexM3\ARM_GCC_541\Debug\lv_obj.o
                0x0000492c                lv_obj_get_width_fit
 .text.update_style_cache_children
                0x0000496c       0xf8 .\CortexM3\ARM_GCC_541\Debug\lv_obj.o
 .text.invalidate_style_cache
                0x00004a64       0x88 .\CortexM3\ARM_GCC_541\Debug\lv_obj.o
 .text.lv_obj_refresh_style
                0x00004aec       0xe8 .\CortexM3\ARM_GCC_541\Debug\lv_obj.o
                0x00004aec                lv_obj_refresh_style
 .text.lv_obj_reset_style_list
                0x00004bd4       0x18 .\CortexM3\ARM_GCC_541\Debug\lv_obj.o
                0x00004bd4                lv_obj_reset_style_list
 .text._lv_obj_set_style_local_ptr
                0x00004bec       0x30 .\CortexM3\ARM_GCC_541\Debug\lv_obj.o
                0x00004bec                _lv_obj_set_style_local_ptr
 .text.report_style_mod_core
                0x00004c1c       0x94 .\CortexM3\ARM_GCC_541\Debug\lv_obj.o
 .text.lv_obj_report_style_mod
                0x00004cb0       0x40 .\CortexM3\ARM_GCC_541\Debug\lv_obj.o
                0x00004cb0                lv_obj_report_style_mod
 .text.trans_anim_cb
                0x00004cf0      0x130 .\CortexM3\ARM_GCC_541\Debug\lv_obj.o
 .text.lv_obj_finish_transitions
                0x00004e20       0x48 .\CortexM3\ARM_GCC_541\Debug\lv_obj.o
                0x00004e20                lv_obj_finish_transitions
 .text.trans_anim_start_cb
                0x00004e68       0x60 .\CortexM3\ARM_GCC_541\Debug\lv_obj.o
 .text.trans_create
                0x00004ec8      0x2c8 .\CortexM3\ARM_GCC_541\Debug\lv_obj.o
 .text.lv_obj_get_signal_cb
                0x00005190       0x20 .\CortexM3\ARM_GCC_541\Debug\lv_obj.o
                0x00005190                lv_obj_get_signal_cb
 .text.lv_obj_get_design_cb
                0x000051b0       0x20 .\CortexM3\ARM_GCC_541\Debug\lv_obj.o
                0x000051b0                lv_obj_get_design_cb
 .text.lv_obj_get_ext_attr
                0x000051d0       0x20 .\CortexM3\ARM_GCC_541\Debug\lv_obj.o
                0x000051d0                lv_obj_get_ext_attr
 .text.lv_obj_get_group
                0x000051f0       0x20 .\CortexM3\ARM_GCC_541\Debug\lv_obj.o
                0x000051f0                lv_obj_get_group
 .text.obj_del_core
                0x00005210       0xd4 .\CortexM3\ARM_GCC_541\Debug\lv_obj.o
 .text.lv_obj_del
                0x000052e4       0x64 .\CortexM3\ARM_GCC_541\Debug\lv_obj.o
                0x000052e4                lv_obj_del
 .text.lv_obj_is_focused
                0x00005348       0x34 .\CortexM3\ARM_GCC_541\Debug\lv_obj.o
                0x00005348                lv_obj_is_focused
 .text.lv_obj_is_point_on_coords
                0x0000537c       0x40 .\CortexM3\ARM_GCC_541\Debug\lv_obj.o
                0x0000537c                lv_obj_is_point_on_coords
 .text.lv_obj_hittest
                0x000053bc       0x30 .\CortexM3\ARM_GCC_541\Debug\lv_obj.o
                0x000053bc                lv_obj_hittest
 .text.lv_obj_handle_get_type_signal
                0x000053ec       0x1c .\CortexM3\ARM_GCC_541\Debug\lv_obj.o
                0x000053ec                lv_obj_handle_get_type_signal
 .text.lv_obj_init_draw_rect_dsc
                0x00005408      0x310 .\CortexM3\ARM_GCC_541\Debug\lv_obj.o
                0x00005408                lv_obj_init_draw_rect_dsc
 .text.lv_obj_design
                0x00005718      0x2c0 .\CortexM3\ARM_GCC_541\Debug\lv_obj.o
 .text.lv_obj_init_draw_label_dsc
                0x000059d8       0xc0 .\CortexM3\ARM_GCC_541\Debug\lv_obj.o
                0x000059d8                lv_obj_init_draw_label_dsc
 .text.lv_obj_init_draw_img_dsc
                0x00005a98       0x9c .\CortexM3\ARM_GCC_541\Debug\lv_obj.o
                0x00005a98                lv_obj_init_draw_img_dsc
 .text.lv_obj_init_draw_line_dsc
                0x00005b34       0xa0 .\CortexM3\ARM_GCC_541\Debug\lv_obj.o
                0x00005b34                lv_obj_init_draw_line_dsc
 .text.style_snapshot
                0x00005bd4      0x1f0 .\CortexM3\ARM_GCC_541\Debug\lv_obj.o
 .text.lv_obj_set_state
                0x00005dc4      0x1f8 .\CortexM3\ARM_GCC_541\Debug\lv_obj.o
                0x00005dc4                lv_obj_set_state
 .text.lv_obj_add_state
                0x00005fbc       0x30 .\CortexM3\ARM_GCC_541\Debug\lv_obj.o
                0x00005fbc                lv_obj_add_state
 .text.lv_obj_clear_state
                0x00005fec       0x30 .\CortexM3\ARM_GCC_541\Debug\lv_obj.o
                0x00005fec                lv_obj_clear_state
 .text.lv_obj_get_draw_rect_ext_pad_size
                0x0000601c      0x208 .\CortexM3\ARM_GCC_541\Debug\lv_obj.o
                0x0000601c                lv_obj_get_draw_rect_ext_pad_size
 .text.lv_obj_get_focused_obj
                0x00006224       0x28 .\CortexM3\ARM_GCC_541\Debug\lv_obj.o
                0x00006224                lv_obj_get_focused_obj
 .text.lv_obj_signal
                0x0000624c      0x100 .\CortexM3\ARM_GCC_541\Debug\lv_obj.o
 .text.lv_obj_set_focus_parent
                0x0000634c       0x60 .\CortexM3\ARM_GCC_541\Debug\lv_obj.o
                0x0000634c                lv_obj_set_focus_parent
 .text.lv_refr_join_area
                0x000063ac       0xe4 .\CortexM3\ARM_GCC_541\Debug\lv_refr.o
 .text.lv_refr_get_top_obj
                0x00006490       0x9c .\CortexM3\ARM_GCC_541\Debug\lv_refr.o
 .text.lv_refr_obj
                0x0000652c       0xe8 .\CortexM3\ARM_GCC_541\Debug\lv_refr.o
 .text.lv_refr_obj_and_children
                0x00006614       0x6c .\CortexM3\ARM_GCC_541\Debug\lv_refr.o
 .text._lv_refr_init
                0x00006680        0x4 .\CortexM3\ARM_GCC_541\Debug\lv_refr.o
                0x00006680                _lv_refr_init
 .text._lv_inv_area
                0x00006684       0xec .\CortexM3\ARM_GCC_541\Debug\lv_refr.o
                0x00006684                _lv_inv_area
 .text._lv_refr_get_disp_refreshing
                0x00006770        0xc .\CortexM3\ARM_GCC_541\Debug\lv_refr.o
                0x00006770                _lv_refr_get_disp_refreshing
 .text.lv_refr_vdb_flush
                0x0000677c       0x80 .\CortexM3\ARM_GCC_541\Debug\lv_refr.o
 .text.lv_refr_area_part
                0x000067fc      0x130 .\CortexM3\ARM_GCC_541\Debug\lv_refr.o
 .text.lv_refr_area
                0x0000692c      0x184 .\CortexM3\ARM_GCC_541\Debug\lv_refr.o
 .text.lv_refr_areas
                0x00006ab0       0xb8 .\CortexM3\ARM_GCC_541\Debug\lv_refr.o
 .text._lv_disp_refr_task
                0x00006b68      0x16c .\CortexM3\ARM_GCC_541\Debug\lv_refr.o
                0x00006b68                _lv_disp_refr_task
 .text.lv_style_init
                0x00006cd4        0xc .\CortexM3\ARM_GCC_541\Debug\lv_style.o
                0x00006cd4                lv_style_init
 .text.lv_style_list_init
                0x00006ce0        0xc .\CortexM3\ARM_GCC_541\Debug\lv_style.o
                0x00006ce0                lv_style_list_init
 .text._lv_style_list_remove_style
                0x00006cec       0xb0 .\CortexM3\ARM_GCC_541\Debug\lv_style.o
                0x00006cec                _lv_style_list_remove_style
 .text._lv_style_list_add_style
                0x00006d9c       0x9c .\CortexM3\ARM_GCC_541\Debug\lv_style.o
                0x00006d9c                _lv_style_list_add_style
 .text.get_alloc_local_style
                0x00006e38       0x7c .\CortexM3\ARM_GCC_541\Debug\lv_style.o
 .text.lv_style_reset
                0x00006eb4       0x10 .\CortexM3\ARM_GCC_541\Debug\lv_style.o
                0x00006eb4                lv_style_reset
 .text._lv_style_get_mem_size
                0x00006ec4       0x50 .\CortexM3\ARM_GCC_541\Debug\lv_style.o
                0x00006ec4                _lv_style_get_mem_size
 .text.lv_style_copy
                0x00006f14       0x28 .\CortexM3\ARM_GCC_541\Debug\lv_style.o
                0x00006f14                lv_style_copy
 .text.lv_style_remove_prop
                0x00006f3c      0x120 .\CortexM3\ARM_GCC_541\Debug\lv_style.o
                0x00006f3c                lv_style_remove_prop
 .text._lv_style_set_int
                0x0000705c      0x174 .\CortexM3\ARM_GCC_541\Debug\lv_style.o
                0x0000705c                _lv_style_set_int
 .text._lv_style_set_color
                0x000071d0      0x174 .\CortexM3\ARM_GCC_541\Debug\lv_style.o
                0x000071d0                _lv_style_set_color
 .text._lv_style_set_opa
                0x00007344      0x178 .\CortexM3\ARM_GCC_541\Debug\lv_style.o
                0x00007344                _lv_style_set_opa
 .text._lv_style_set_ptr
                0x000074bc      0x174 .\CortexM3\ARM_GCC_541\Debug\lv_style.o
                0x000074bc                _lv_style_set_ptr
 .text._lv_style_get_int
                0x00007630       0xfc .\CortexM3\ARM_GCC_541\Debug\lv_style.o
                0x00007630                _lv_style_get_int
 .text._lv_style_get_opa
                0x0000772c       0xfc .\CortexM3\ARM_GCC_541\Debug\lv_style.o
                0x0000772c                _lv_style_get_opa
 .text._lv_style_get_color
                0x00007828       0xfc .\CortexM3\ARM_GCC_541\Debug\lv_style.o
                0x00007828                _lv_style_get_color
 .text._lv_style_get_ptr
                0x00007924       0xfc .\CortexM3\ARM_GCC_541\Debug\lv_style.o
                0x00007924                _lv_style_get_ptr
 .text.lv_style_list_get_local_style
                0x00007a20       0x20 .\CortexM3\ARM_GCC_541\Debug\lv_style.o
                0x00007a20                lv_style_list_get_local_style
 .text._lv_style_list_get_transition_style
                0x00007a40       0x14 .\CortexM3\ARM_GCC_541\Debug\lv_style.o
                0x00007a40                _lv_style_list_get_transition_style
 .text._lv_style_list_reset
                0x00007a54       0x68 .\CortexM3\ARM_GCC_541\Debug\lv_style.o
                0x00007a54                _lv_style_list_reset
 .text.lv_style_list_copy
                0x00007abc       0xfc .\CortexM3\ARM_GCC_541\Debug\lv_style.o
                0x00007abc                lv_style_list_copy
 .text._lv_style_list_add_trans_style
                0x00007bb8       0x68 .\CortexM3\ARM_GCC_541\Debug\lv_style.o
                0x00007bb8                _lv_style_list_add_trans_style
 .text._lv_style_list_set_local_ptr
                0x00007c20       0x14 .\CortexM3\ARM_GCC_541\Debug\lv_style.o
                0x00007c20                _lv_style_list_set_local_ptr
 .text._lv_style_list_get_int
                0x00007c34       0xc4 .\CortexM3\ARM_GCC_541\Debug\lv_style.o
                0x00007c34                _lv_style_list_get_int
 .text._lv_style_list_get_color
                0x00007cf8       0xc0 .\CortexM3\ARM_GCC_541\Debug\lv_style.o
                0x00007cf8                _lv_style_list_get_color
 .text._lv_style_list_get_opa
                0x00007db8       0xc4 .\CortexM3\ARM_GCC_541\Debug\lv_style.o
                0x00007db8                _lv_style_list_get_opa
 .text._lv_style_list_get_ptr
                0x00007e7c       0xb8 .\CortexM3\ARM_GCC_541\Debug\lv_style.o
                0x00007e7c                _lv_style_list_get_ptr
 .text.map_blended
                0x00007f34      0x148 .\CortexM3\ARM_GCC_541\Debug\lv_draw_blend.o
 .text.fill_set_px
                0x0000807c       0xdc .\CortexM3\ARM_GCC_541\Debug\lv_draw_blend.o
 .text.map_set_px
                0x00008158      0x124 .\CortexM3\ARM_GCC_541\Debug\lv_draw_blend.o
 .text.map_normal
                0x0000827c      0x720 .\CortexM3\ARM_GCC_541\Debug\lv_draw_blend.o
 .text.fill_normal
                0x0000899c      0x71c .\CortexM3\ARM_GCC_541\Debug\lv_draw_blend.o
 .text.color_blend_true_color_additive
                0x000090b8       0xe4 .\CortexM3\ARM_GCC_541\Debug\lv_draw_blend.o
 .text.color_blend_true_color_subtractive
                0x0000919c       0xe0 .\CortexM3\ARM_GCC_541\Debug\lv_draw_blend.o
 .text.fill_blended
                0x0000927c      0x18c .\CortexM3\ARM_GCC_541\Debug\lv_draw_blend.o
 .text._lv_blend_fill
                0x00009408      0x10c .\CortexM3\ARM_GCC_541\Debug\lv_draw_blend.o
                0x00009408                _lv_blend_fill
 .text._lv_blend_map
                0x00009514      0x110 .\CortexM3\ARM_GCC_541\Debug\lv_draw_blend.o
                0x00009514                _lv_blend_map
 .text.lv_draw_map
                0x00009624      0x7b0 .\CortexM3\ARM_GCC_541\Debug\lv_draw_img.o
 .text.show_error
                0x00009dd4       0x40 .\CortexM3\ARM_GCC_541\Debug\lv_draw_img.o
 .text.lv_draw_img_dsc_init
                0x00009e14       0x24 .\CortexM3\ARM_GCC_541\Debug\lv_draw_img.o
                0x00009e14                lv_draw_img_dsc_init
 .text.lv_img_cf_get_px_size
                0x00009e38       0x34 .\CortexM3\ARM_GCC_541\Debug\lv_draw_img.o
                0x00009e38                lv_img_cf_get_px_size
 .text.lv_img_cf_is_chroma_keyed
                0x00009e6c       0x14 .\CortexM3\ARM_GCC_541\Debug\lv_draw_img.o
                0x00009e6c                lv_img_cf_is_chroma_keyed
 .text.lv_img_cf_has_alpha
                0x00009e80       0x20 .\CortexM3\ARM_GCC_541\Debug\lv_draw_img.o
                0x00009e80                lv_img_cf_has_alpha
 .text.lv_img_draw_core
                0x00009ea0      0x1e4 .\CortexM3\ARM_GCC_541\Debug\lv_draw_img.o
 .text.lv_draw_img
                0x0000a084       0x34 .\CortexM3\ARM_GCC_541\Debug\lv_draw_img.o
                0x0000a084                lv_draw_img
 .text.lv_img_src_get_type
                0x0000a0b8       0x24 .\CortexM3\ARM_GCC_541\Debug\lv_draw_img.o
                0x0000a0b8                lv_img_src_get_type
 .text.hex_char_to_num
                0x0000a0dc       0x40 .\CortexM3\ARM_GCC_541\Debug\lv_draw_label.o
 .text.draw_letter_subpx
                0x0000a11c      0x41c .\CortexM3\ARM_GCC_541\Debug\lv_draw_label.o
 .text.draw_letter_normal
                0x0000a538      0x2bc .\CortexM3\ARM_GCC_541\Debug\lv_draw_label.o
 .text.lv_draw_letter
                0x0000a7f4       0xec .\CortexM3\ARM_GCC_541\Debug\lv_draw_label.o
 .text.lv_draw_label_dsc_init
                0x0000a8e0       0x44 .\CortexM3\ARM_GCC_541\Debug\lv_draw_label.o
                0x0000a8e0                lv_draw_label_dsc_init
 .text.lv_draw_label
                0x0000a924      0x5bc .\CortexM3\ARM_GCC_541\Debug\lv_draw_label.o
                0x0000a924                lv_draw_label
 .text.draw_line_hor
                0x0000aee0      0x1f0 .\CortexM3\ARM_GCC_541\Debug\lv_draw_line.o
 .text.draw_line_ver
                0x0000b0d0      0x1cc .\CortexM3\ARM_GCC_541\Debug\lv_draw_line.o
 .text.draw_line_skew
                0x0000b29c      0x3ac .\CortexM3\ARM_GCC_541\Debug\lv_draw_line.o
 .text.lv_draw_line_dsc_init
                0x0000b648       0x18 .\CortexM3\ARM_GCC_541\Debug\lv_draw_line.o
                0x0000b648                lv_draw_line_dsc_init
 .text.lv_draw_line
                0x0000b660      0x194 .\CortexM3\ARM_GCC_541\Debug\lv_draw_line.o
                0x0000b660                lv_draw_line
 .text.line_mask_flat
                0x0000b7f4      0x200 .\CortexM3\ARM_GCC_541\Debug\lv_draw_mask.o
 .text.line_mask_steep
                0x0000b9f4      0x32c .\CortexM3\ARM_GCC_541\Debug\lv_draw_mask.o
 .text.lv_draw_mask_line
                0x0000bd20       0xec .\CortexM3\ARM_GCC_541\Debug\lv_draw_mask.o
 .text.lv_draw_mask_radius
                0x0000be0c      0x56c .\CortexM3\ARM_GCC_541\Debug\lv_draw_mask.o
 .text.lv_draw_mask_add
                0x0000c378       0x34 .\CortexM3\ARM_GCC_541\Debug\lv_draw_mask.o
                0x0000c378                lv_draw_mask_add
 .text.lv_draw_mask_apply
                0x0000c3ac       0x50 .\CortexM3\ARM_GCC_541\Debug\lv_draw_mask.o
                0x0000c3ac                lv_draw_mask_apply
 .text.lv_draw_mask_remove_id
                0x0000c3fc       0x24 .\CortexM3\ARM_GCC_541\Debug\lv_draw_mask.o
                0x0000c3fc                lv_draw_mask_remove_id
 .text.lv_draw_mask_remove_custom
                0x0000c420       0x38 .\CortexM3\ARM_GCC_541\Debug\lv_draw_mask.o
                0x0000c420                lv_draw_mask_remove_custom
 .text.lv_draw_mask_get_cnt
                0x0000c458       0x20 .\CortexM3\ARM_GCC_541\Debug\lv_draw_mask.o
                0x0000c458                lv_draw_mask_get_cnt
 .text.lv_draw_mask_line_points_init
                0x0000c478      0x158 .\CortexM3\ARM_GCC_541\Debug\lv_draw_mask.o
                0x0000c478                lv_draw_mask_line_points_init
 .text.lv_draw_mask_radius_init
                0x0000c5d0       0x68 .\CortexM3\ARM_GCC_541\Debug\lv_draw_mask.o
                0x0000c5d0                lv_draw_mask_radius_init
 .text.shadow_blur_corner
                0x0000c638      0x164 .\CortexM3\ARM_GCC_541\Debug\lv_draw_rect.o
 .text.shadow_draw_corner_buf
                0x0000c79c      0x1d0 .\CortexM3\ARM_GCC_541\Debug\lv_draw_rect.o
 .text.draw_shadow
                0x0000c96c      0xc48 .\CortexM3\ARM_GCC_541\Debug\lv_draw_rect.o
 .text.draw_full_border
                0x0000d5b4      0x4c0 .\CortexM3\ARM_GCC_541\Debug\lv_draw_rect.o
 .text.draw_outline
                0x0000da74       0xb8 .\CortexM3\ARM_GCC_541\Debug\lv_draw_rect.o
 .text.draw_border
                0x0000db2c      0x34c .\CortexM3\ARM_GCC_541\Debug\lv_draw_rect.o
 .text.draw_pattern
                0x0000de78      0x27c .\CortexM3\ARM_GCC_541\Debug\lv_draw_rect.o
 .text.draw_value_str
                0x0000e0f4       0xe0 .\CortexM3\ARM_GCC_541\Debug\lv_draw_rect.o
 .text.draw_bg  0x0000e1d4      0x694 .\CortexM3\ARM_GCC_541\Debug\lv_draw_rect.o
 .text.lv_draw_rect_dsc_init
                0x0000e868       0x48 .\CortexM3\ARM_GCC_541\Debug\lv_draw_rect.o
                0x0000e868                lv_draw_rect_dsc_init
 .text.lv_draw_rect
                0x0000e8b0       0x64 .\CortexM3\ARM_GCC_541\Debug\lv_draw_rect.o
                0x0000e8b0                lv_draw_rect
 .text.lv_img_buf_get_px_color
                0x0000e914      0x120 .\CortexM3\ARM_GCC_541\Debug\lv_img_buf.o
                0x0000e914                lv_img_buf_get_px_color
 .text.lv_img_buf_get_px_alpha
                0x0000ea34      0x100 .\CortexM3\ARM_GCC_541\Debug\lv_img_buf.o
                0x0000ea34                lv_img_buf_get_px_alpha
 .text._lv_img_buf_transform_init
                0x0000eb34      0x124 .\CortexM3\ARM_GCC_541\Debug\lv_img_buf.o
                0x0000eb34                _lv_img_buf_transform_init
 .text._lv_img_buf_get_transformed_area
                0x0000ec58      0x1f0 .\CortexM3\ARM_GCC_541\Debug\lv_img_buf.o
                0x0000ec58                _lv_img_buf_get_transformed_area
 .text._lv_img_buf_transform_anti_alias
                0x0000ee48      0x464 .\CortexM3\ARM_GCC_541\Debug\lv_img_buf.o
                0x0000ee48                _lv_img_buf_transform_anti_alias
 .text._lv_img_cache_open
                0x0000f2ac      0x148 .\CortexM3\ARM_GCC_541\Debug\lv_img_cache.o
                0x0000f2ac                _lv_img_cache_open
 .text.lv_img_cache_invalidate_src
                0x0000f3f4       0x4c .\CortexM3\ARM_GCC_541\Debug\lv_img_cache.o
                0x0000f3f4                lv_img_cache_invalidate_src
 .text.lv_img_cache_set_size
                0x0000f440       0x88 .\CortexM3\ARM_GCC_541\Debug\lv_img_cache.o
                0x0000f440                lv_img_cache_set_size
 .text.lv_img_decoder_built_in_line_true_color
                0x0000f4c8        0x4 .\CortexM3\ARM_GCC_541\Debug\lv_img_decoder.o
 .text.lv_img_decoder_built_in_info
                0x0000f4cc       0x70 .\CortexM3\ARM_GCC_541\Debug\lv_img_decoder.o
                0x0000f4cc                lv_img_decoder_built_in_info
 .text.lv_img_decoder_built_in_close
                0x0000f53c       0x24 .\CortexM3\ARM_GCC_541\Debug\lv_img_decoder.o
                0x0000f53c                lv_img_decoder_built_in_close
 .text.lv_img_decoder_built_in_open
                0x0000f560      0x154 .\CortexM3\ARM_GCC_541\Debug\lv_img_decoder.o
                0x0000f560                lv_img_decoder_built_in_open
 .text.lv_img_decoder_built_in_line_alpha
                0x0000f6b4      0x180 .\CortexM3\ARM_GCC_541\Debug\lv_img_decoder.o
 .text.lv_img_decoder_built_in_line_indexed
                0x0000f834      0x134 .\CortexM3\ARM_GCC_541\Debug\lv_img_decoder.o
 .text.lv_img_decoder_built_in_read_line
                0x0000f968       0x5c .\CortexM3\ARM_GCC_541\Debug\lv_img_decoder.o
                0x0000f968                lv_img_decoder_built_in_read_line
 .text.lv_img_decoder_get_info
                0x0000f9c4       0x5c .\CortexM3\ARM_GCC_541\Debug\lv_img_decoder.o
                0x0000f9c4                lv_img_decoder_get_info
 .text.lv_img_decoder_open
                0x0000fa20       0x80 .\CortexM3\ARM_GCC_541\Debug\lv_img_decoder.o
                0x0000fa20                lv_img_decoder_open
 .text.lv_img_decoder_read_line
                0x0000faa0       0x24 .\CortexM3\ARM_GCC_541\Debug\lv_img_decoder.o
                0x0000faa0                lv_img_decoder_read_line
 .text.lv_img_decoder_close
                0x0000fac4       0x28 .\CortexM3\ARM_GCC_541\Debug\lv_img_decoder.o
                0x0000fac4                lv_img_decoder_close
 .text.lv_img_decoder_create
                0x0000faec       0x38 .\CortexM3\ARM_GCC_541\Debug\lv_img_decoder.o
                0x0000faec                lv_img_decoder_create
 .text.lv_img_decoder_set_info_cb
                0x0000fb24        0x4 .\CortexM3\ARM_GCC_541\Debug\lv_img_decoder.o
                0x0000fb24                lv_img_decoder_set_info_cb
 .text.lv_img_decoder_set_open_cb
                0x0000fb28        0x4 .\CortexM3\ARM_GCC_541\Debug\lv_img_decoder.o
                0x0000fb28                lv_img_decoder_set_open_cb
 .text.lv_img_decoder_set_read_line_cb
                0x0000fb2c        0x4 .\CortexM3\ARM_GCC_541\Debug\lv_img_decoder.o
                0x0000fb2c                lv_img_decoder_set_read_line_cb
 .text.lv_img_decoder_set_close_cb
                0x0000fb30        0x4 .\CortexM3\ARM_GCC_541\Debug\lv_img_decoder.o
                0x0000fb30                lv_img_decoder_set_close_cb
 .text._lv_img_decoder_init
                0x0000fb34       0x5c .\CortexM3\ARM_GCC_541\Debug\lv_img_decoder.o
                0x0000fb34                _lv_img_decoder_init
 .text.lv_font_get_glyph_bitmap
                0x0000fb90        0x8 .\CortexM3\ARM_GCC_541\Debug\lv_font.o
                0x0000fb90                lv_font_get_glyph_bitmap
 .text.lv_font_get_glyph_dsc
                0x0000fb98        0x8 .\CortexM3\ARM_GCC_541\Debug\lv_font.o
                0x0000fb98                lv_font_get_glyph_dsc
 .text.lv_font_get_glyph_width
                0x0000fba0       0x20 .\CortexM3\ARM_GCC_541\Debug\lv_font.o
                0x0000fba0                lv_font_get_glyph_width
 .text.kern_pair_8_compare
                0x0000fbc0       0x14 .\CortexM3\ARM_GCC_541\Debug\lv_font_fmt_txt.o
 .text.kern_pair_16_compare
                0x0000fbd4       0x14 .\CortexM3\ARM_GCC_541\Debug\lv_font_fmt_txt.o
 .text.unicode_list_compare
                0x0000fbe8        0x8 .\CortexM3\ARM_GCC_541\Debug\lv_font_fmt_txt.o
 .text.get_glyph_dsc_id
                0x0000fbf0       0xd4 .\CortexM3\ARM_GCC_541\Debug\lv_font_fmt_txt.o
 .text.get_kern_value
                0x0000fcc4       0xb0 .\CortexM3\ARM_GCC_541\Debug\lv_font_fmt_txt.o
 .text.decompress
                0x0000fd74      0xc68 .\CortexM3\ARM_GCC_541\Debug\lv_font_fmt_txt.o
 .text.lv_font_get_bitmap_fmt_txt
                0x000109dc       0xf8 .\CortexM3\ARM_GCC_541\Debug\lv_font_fmt_txt.o
                0x000109dc                lv_font_get_bitmap_fmt_txt
 .text.lv_font_get_glyph_dsc_fmt_txt
                0x00010ad4       0x9c .\CortexM3\ARM_GCC_541\Debug\lv_font_fmt_txt.o
                0x00010ad4                lv_font_get_glyph_dsc_fmt_txt
 .text._lv_font_clean_up_fmt_txt
                0x00010b70       0x18 .\CortexM3\ARM_GCC_541\Debug\lv_font_fmt_txt.o
                0x00010b70                _lv_font_clean_up_fmt_txt
 .text.lv_disp_drv_init
                0x00010b88       0x50 .\CortexM3\ARM_GCC_541\Debug\lv_hal_disp.o
                0x00010b88                lv_disp_drv_init
 .text.lv_disp_buf_init
                0x00010bd8       0x1c .\CortexM3\ARM_GCC_541\Debug\lv_hal_disp.o
                0x00010bd8                lv_disp_buf_init
 .text.lv_disp_get_default
                0x00010bf4        0xc .\CortexM3\ARM_GCC_541\Debug\lv_hal_disp.o
                0x00010bf4                lv_disp_get_default
 .text.lv_disp_get_hor_res
                0x00010c00       0x28 .\CortexM3\ARM_GCC_541\Debug\lv_hal_disp.o
                0x00010c00                lv_disp_get_hor_res
 .text.lv_disp_get_ver_res
                0x00010c28       0x28 .\CortexM3\ARM_GCC_541\Debug\lv_hal_disp.o
                0x00010c28                lv_disp_get_ver_res
 .text.lv_disp_get_dpi
                0x00010c50       0x1c .\CortexM3\ARM_GCC_541\Debug\lv_hal_disp.o
                0x00010c50                lv_disp_get_dpi
 .text.lv_disp_get_size_category
                0x00010c6c       0x48 .\CortexM3\ARM_GCC_541\Debug\lv_hal_disp.o
                0x00010c6c                lv_disp_get_size_category
 .text.lv_disp_flush_ready
                0x00010cb4        0xc .\CortexM3\ARM_GCC_541\Debug\lv_hal_disp.o
                0x00010cb4                lv_disp_flush_ready
 .text.lv_disp_get_next
                0x00010cc0       0x1c .\CortexM3\ARM_GCC_541\Debug\lv_hal_disp.o
                0x00010cc0                lv_disp_get_next
 .text.lv_disp_get_buf
                0x00010cdc        0x4 .\CortexM3\ARM_GCC_541\Debug\lv_hal_disp.o
                0x00010cdc                lv_disp_get_buf
 .text.lv_disp_get_inv_buf_size
                0x00010ce0        0xc .\CortexM3\ARM_GCC_541\Debug\lv_hal_disp.o
                0x00010ce0                lv_disp_get_inv_buf_size
 .text._lv_disp_pop_from_inv_buf
                0x00010cec       0x2c .\CortexM3\ARM_GCC_541\Debug\lv_hal_disp.o
                0x00010cec                _lv_disp_pop_from_inv_buf
 .text.lv_disp_is_double_buf
                0x00010d18       0x18 .\CortexM3\ARM_GCC_541\Debug\lv_hal_disp.o
                0x00010d18                lv_disp_is_double_buf
 .text.lv_disp_is_true_double_buf
                0x00010d30       0x2c .\CortexM3\ARM_GCC_541\Debug\lv_hal_disp.o
                0x00010d30                lv_disp_is_true_double_buf
 .text.lv_disp_drv_register
                0x00010d5c      0x10c .\CortexM3\ARM_GCC_541\Debug\lv_hal_disp.o
                0x00010d5c                lv_disp_drv_register
 .text.lv_indev_drv_init
                0x00010e68       0x28 .\CortexM3\ARM_GCC_541\Debug\lv_hal_indev.o
                0x00010e68                lv_indev_drv_init
 .text.lv_indev_drv_register
                0x00010e90       0x78 .\CortexM3\ARM_GCC_541\Debug\lv_hal_indev.o
                0x00010e90                lv_indev_drv_register
 .text.lv_indev_get_next
                0x00010f08       0x1c .\CortexM3\ARM_GCC_541\Debug\lv_hal_indev.o
                0x00010f08                lv_indev_get_next
 .text._lv_indev_read
                0x00010f24       0x48 .\CortexM3\ARM_GCC_541\Debug\lv_hal_indev.o
                0x00010f24                _lv_indev_read
 .text.lv_tick_inc
                0x00010f6c       0x14 .\CortexM3\ARM_GCC_541\Debug\lv_hal_tick.o
                0x00010f6c                lv_tick_inc
 .text.lv_tick_get
                0x00010f80       0x18 .\CortexM3\ARM_GCC_541\Debug\lv_hal_tick.o
                0x00010f80                lv_tick_get
 .text.lv_tick_elaps
                0x00010f98       0x14 .\CortexM3\ARM_GCC_541\Debug\lv_hal_tick.o
                0x00010f98                lv_tick_elaps
 .text.lv_anim_path_linear
                0x00010fac       0x28 .\CortexM3\ARM_GCC_541\Debug\lv_anim.o
                0x00010fac                lv_anim_path_linear
 .text.anim_mark_list_change
                0x00010fd4       0x30 .\CortexM3\ARM_GCC_541\Debug\lv_anim.o
 .text.anim_ready_handler
                0x00011004       0x94 .\CortexM3\ARM_GCC_541\Debug\lv_anim.o
 .text.anim_task
                0x00011098       0xdc .\CortexM3\ARM_GCC_541\Debug\lv_anim.o
 .text._lv_anim_core_init
                0x00011174       0x38 .\CortexM3\ARM_GCC_541\Debug\lv_anim.o
                0x00011174                _lv_anim_core_init
 .text.lv_anim_init
                0x000111ac       0x48 .\CortexM3\ARM_GCC_541\Debug\lv_anim.o
                0x000111ac                lv_anim_init
 .text.lv_anim_del
                0x000111f4       0x54 .\CortexM3\ARM_GCC_541\Debug\lv_anim.o
                0x000111f4                lv_anim_del
 .text.lv_anim_start
                0x00011248       0x74 .\CortexM3\ARM_GCC_541\Debug\lv_anim.o
                0x00011248                lv_anim_start
 .text.lv_anim_get
                0x000112bc       0x2c .\CortexM3\ARM_GCC_541\Debug\lv_anim.o
                0x000112bc                lv_anim_get
 .text.lv_anim_speed_to_time
                0x000112e8       0x28 .\CortexM3\ARM_GCC_541\Debug\lv_anim.o
                0x000112e8                lv_anim_speed_to_time
 .text.lv_anim_path_step
                0x00011310       0x14 .\CortexM3\ARM_GCC_541\Debug\lv_anim.o
                0x00011310                lv_anim_path_step
 .text.lv_point_within_circle
                0x00011324       0x4c .\CortexM3\ARM_GCC_541\Debug\lv_area.o
 .text.lv_area_set
                0x00011370       0x10 .\CortexM3\ARM_GCC_541\Debug\lv_area.o
                0x00011370                lv_area_set
 .text.lv_area_set_width
                0x00011380        0xc .\CortexM3\ARM_GCC_541\Debug\lv_area.o
                0x00011380                lv_area_set_width
 .text.lv_area_set_height
                0x0001138c        0xc .\CortexM3\ARM_GCC_541\Debug\lv_area.o
                0x0001138c                lv_area_set_height
 .text._lv_area_set_pos
                0x00011398       0x34 .\CortexM3\ARM_GCC_541\Debug\lv_area.o
                0x00011398                _lv_area_set_pos
 .text.lv_area_get_size
                0x000113cc       0x1c .\CortexM3\ARM_GCC_541\Debug\lv_area.o
                0x000113cc                lv_area_get_size
 .text._lv_area_intersect
                0x000113e8       0x58 .\CortexM3\ARM_GCC_541\Debug\lv_area.o
                0x000113e8                _lv_area_intersect
 .text._lv_area_join
                0x00011440       0x48 .\CortexM3\ARM_GCC_541\Debug\lv_area.o
                0x00011440                _lv_area_join
 .text._lv_area_is_point_on
                0x00011488      0x17c .\CortexM3\ARM_GCC_541\Debug\lv_area.o
                0x00011488                _lv_area_is_point_on
 .text._lv_area_is_on
                0x00011604       0x44 .\CortexM3\ARM_GCC_541\Debug\lv_area.o
                0x00011604                _lv_area_is_on
 .text._lv_area_is_in
                0x00011648       0xb8 .\CortexM3\ARM_GCC_541\Debug\lv_area.o
                0x00011648                _lv_area_is_in
 .text._lv_area_align
                0x00011700      0x454 .\CortexM3\ARM_GCC_541\Debug\lv_area.o
                0x00011700                _lv_area_align
 .text.lv_color_fill
                0x00011b54       0x3c .\CortexM3\ARM_GCC_541\Debug\lv_color.o
                0x00011b54                lv_color_fill
 .text.lv_color_lighten
                0x00011b90       0x90 .\CortexM3\ARM_GCC_541\Debug\lv_color.o
                0x00011b90                lv_color_lighten
 .text.lv_color_darken
                0x00011c20       0x68 .\CortexM3\ARM_GCC_541\Debug\lv_color.o
                0x00011c20                lv_color_darken
 .text.lv_debug_check_null
                0x00011c88        0xc .\CortexM3\ARM_GCC_541\Debug\lv_debug.o
                0x00011c88                lv_debug_check_null
 .text.lv_debug_log_error
                0x00011c94       0x64 .\CortexM3\ARM_GCC_541\Debug\lv_debug.o
                0x00011c94                lv_debug_log_error
 .text.node_set_prev
                0x00011cf8        0xc .\CortexM3\ARM_GCC_541\Debug\lv_ll.o
 .text.node_set_next
                0x00011d04       0x10 .\CortexM3\ARM_GCC_541\Debug\lv_ll.o
 .text._lv_ll_init
                0x00011d14       0x10 .\CortexM3\ARM_GCC_541\Debug\lv_ll.o
                0x00011d14                _lv_ll_init
 .text._lv_ll_ins_head
                0x00011d24       0x3c .\CortexM3\ARM_GCC_541\Debug\lv_ll.o
                0x00011d24                _lv_ll_ins_head
 .text._lv_ll_ins_tail
                0x00011d60       0x3c .\CortexM3\ARM_GCC_541\Debug\lv_ll.o
                0x00011d60                _lv_ll_ins_tail
 .text._lv_ll_get_head
                0x00011d9c        0xc .\CortexM3\ARM_GCC_541\Debug\lv_ll.o
                0x00011d9c                _lv_ll_get_head
 .text._lv_ll_get_tail
                0x00011da8        0xc .\CortexM3\ARM_GCC_541\Debug\lv_ll.o
                0x00011da8                _lv_ll_get_tail
 .text._lv_ll_get_next
                0x00011db4       0x10 .\CortexM3\ARM_GCC_541\Debug\lv_ll.o
                0x00011db4                _lv_ll_get_next
 .text._lv_ll_get_prev
                0x00011dc4        0xc .\CortexM3\ARM_GCC_541\Debug\lv_ll.o
                0x00011dc4                _lv_ll_get_prev
 .text._lv_ll_ins_prev
                0x00011dd0       0x6c .\CortexM3\ARM_GCC_541\Debug\lv_ll.o
                0x00011dd0                _lv_ll_ins_prev
 .text._lv_ll_remove
                0x00011e3c       0x80 .\CortexM3\ARM_GCC_541\Debug\lv_ll.o
                0x00011e3c                _lv_ll_remove
 .text._lv_ll_chg_list
                0x00011ebc       0x64 .\CortexM3\ARM_GCC_541\Debug\lv_ll.o
                0x00011ebc                _lv_ll_chg_list
 .text._lv_ll_move_before
                0x00011f20       0x60 .\CortexM3\ARM_GCC_541\Debug\lv_ll.o
                0x00011f20                _lv_ll_move_before
 .text._lv_ll_is_empty
                0x00011f80       0x1c .\CortexM3\ARM_GCC_541\Debug\lv_ll.o
                0x00011f80                _lv_ll_is_empty
 .text._lv_trigo_sin
                0x00011f9c       0x78 .\CortexM3\ARM_GCC_541\Debug\lv_math.o
                0x00011f9c                _lv_trigo_sin
 .text._lv_sqrt
                0x00012014       0x24 .\CortexM3\ARM_GCC_541\Debug\lv_math.o
                0x00012014                _lv_sqrt
 .text._lv_pow  0x00012038       0x38 .\CortexM3\ARM_GCC_541\Debug\lv_math.o
                0x00012038                _lv_pow
 .text.ent_get_next
                0x00012070       0x28 .\CortexM3\ARM_GCC_541\Debug\lv_mem.o
 .text.ent_trunc
                0x00012098       0x4c .\CortexM3\ARM_GCC_541\Debug\lv_mem.o
 .text.ent_alloc
                0x000120e4       0x30 .\CortexM3\ARM_GCC_541\Debug\lv_mem.o
 .text._lv_mem_init
                0x00012114       0x2c .\CortexM3\ARM_GCC_541\Debug\lv_mem.o
                0x00012114                _lv_mem_init
 .text.lv_mem_alloc
                0x00012140       0x68 .\CortexM3\ARM_GCC_541\Debug\lv_mem.o
                0x00012140                lv_mem_alloc
 .text.lv_mem_defrag
                0x000121a8       0x54 .\CortexM3\ARM_GCC_541\Debug\lv_mem.o
                0x000121a8                lv_mem_defrag
 .text.lv_mem_free
                0x000121fc       0x74 .\CortexM3\ARM_GCC_541\Debug\lv_mem.o
                0x000121fc                lv_mem_free
 .text._lv_mem_get_size
                0x00012270       0x20 .\CortexM3\ARM_GCC_541\Debug\lv_mem.o
                0x00012270                _lv_mem_get_size
 .text._lv_mem_buf_release
                0x00012290       0x5c .\CortexM3\ARM_GCC_541\Debug\lv_mem.o
                0x00012290                _lv_mem_buf_release
 .text._lv_mem_buf_free_all
                0x000122ec       0x54 .\CortexM3\ARM_GCC_541\Debug\lv_mem.o
                0x000122ec                _lv_mem_buf_free_all
 .text._lv_memcpy
                0x00012340      0x124 .\CortexM3\ARM_GCC_541\Debug\lv_mem.o
                0x00012340                _lv_memcpy
 .text.lv_mem_realloc
                0x00012464       0x64 .\CortexM3\ARM_GCC_541\Debug\lv_mem.o
                0x00012464                lv_mem_realloc
 .text._lv_mem_buf_get
                0x000124c8      0x11c .\CortexM3\ARM_GCC_541\Debug\lv_mem.o
                0x000124c8                _lv_mem_buf_get
 .text._lv_memset
                0x000125e4       0x5c .\CortexM3\ARM_GCC_541\Debug\lv_mem.o
                0x000125e4                _lv_memset
 .text._lv_memset_00
                0x00012640       0x58 .\CortexM3\ARM_GCC_541\Debug\lv_mem.o
                0x00012640                _lv_memset_00
 .text._lv_memset_ff
                0x00012698       0x5c .\CortexM3\ARM_GCC_541\Debug\lv_mem.o
                0x00012698                _lv_memset_ff
 .text.lv_task_time_remaining
                0x000126f4       0x18 .\CortexM3\ARM_GCC_541\Debug\lv_task.o
 .text.lv_task_create_basic
                0x0001270c       0xc8 .\CortexM3\ARM_GCC_541\Debug\lv_task.o
                0x0001270c                lv_task_create_basic
 .text.lv_task_set_cb
                0x000127d4        0x4 .\CortexM3\ARM_GCC_541\Debug\lv_task.o
                0x000127d4                lv_task_set_cb
 .text.lv_task_del
                0x000127d8       0x34 .\CortexM3\ARM_GCC_541\Debug\lv_task.o
                0x000127d8                lv_task_del
 .text.lv_task_exec
                0x0001280c       0x50 .\CortexM3\ARM_GCC_541\Debug\lv_task.o
 .text.lv_task_handler
                0x0001285c      0x18c .\CortexM3\ARM_GCC_541\Debug\lv_task.o
                0x0001285c                lv_task_handler
 .text.lv_task_set_prio
                0x000129e8       0x68 .\CortexM3\ARM_GCC_541\Debug\lv_task.o
                0x000129e8                lv_task_set_prio
 .text.lv_task_set_period
                0x00012a50        0x4 .\CortexM3\ARM_GCC_541\Debug\lv_task.o
                0x00012a50                lv_task_set_period
 .text.lv_task_create
                0x00012a54       0x50 .\CortexM3\ARM_GCC_541\Debug\lv_task.o
                0x00012a54                lv_task_create
 .text.lv_task_ready
                0x00012aa4       0x14 .\CortexM3\ARM_GCC_541\Debug\lv_task.o
                0x00012aa4                lv_task_ready
 .text.lv_task_enable
                0x00012ab8        0xc .\CortexM3\ARM_GCC_541\Debug\lv_task.o
                0x00012ab8                lv_task_enable
 .text._lv_task_core_init
                0x00012ac4       0x20 .\CortexM3\ARM_GCC_541\Debug\lv_task.o
                0x00012ac4                _lv_task_core_init
 .text.lv_txt_utf8_size
                0x00012ae4       0x34 .\CortexM3\ARM_GCC_541\Debug\lv_txt.o
 .text.lv_txt_unicode_to_utf8
                0x00012b18       0xa0 .\CortexM3\ARM_GCC_541\Debug\lv_txt.o
 .text.lv_txt_utf8_conv_wc
                0x00012bb8       0x5c .\CortexM3\ARM_GCC_541\Debug\lv_txt.o
 .text.lv_txt_utf8_next
                0x00012c14       0xfc .\CortexM3\ARM_GCC_541\Debug\lv_txt.o
 .text.lv_txt_utf8_prev
                0x00012d10       0x50 .\CortexM3\ARM_GCC_541\Debug\lv_txt.o
 .text.lv_txt_utf8_get_byte_id
                0x00012d60       0x2c .\CortexM3\ARM_GCC_541\Debug\lv_txt.o
 .text.lv_txt_utf8_get_char_id
                0x00012d8c       0x2c .\CortexM3\ARM_GCC_541\Debug\lv_txt.o
 .text.lv_txt_utf8_get_length
                0x00012db8       0x2c .\CortexM3\ARM_GCC_541\Debug\lv_txt.o
 .text._lv_txt_is_cmd
                0x00012de4       0x48 .\CortexM3\ARM_GCC_541\Debug\lv_txt.o
                0x00012de4                _lv_txt_is_cmd
 .text.lv_txt_get_next_word
                0x00012e2c      0x154 .\CortexM3\ARM_GCC_541\Debug\lv_txt.o
 .text._lv_txt_get_next_line
                0x00012f80       0xdc .\CortexM3\ARM_GCC_541\Debug\lv_txt.o
                0x00012f80                _lv_txt_get_next_line
 .text._lv_txt_get_width
                0x0001305c       0x9c .\CortexM3\ARM_GCC_541\Debug\lv_txt.o
                0x0001305c                _lv_txt_get_width
 .text._lv_txt_get_size
                0x000130f8       0xc8 .\CortexM3\ARM_GCC_541\Debug\lv_txt.o
                0x000130f8                _lv_txt_get_size
 .text._lv_txt_ins
                0x000131c0       0x50 .\CortexM3\ARM_GCC_541\Debug\lv_txt.o
                0x000131c0                _lv_txt_ins
 .text._lv_txt_cut
                0x00013210       0x3c .\CortexM3\ARM_GCC_541\Debug\lv_txt.o
                0x00013210                _lv_txt_cut
 .text._lv_utils_num_to_str
                0x0001324c       0x7c .\CortexM3\ARM_GCC_541\Debug\lv_utils.o
                0x0001324c                _lv_utils_num_to_str
 .text._lv_utils_bsearch
                0x000132c8       0x4c .\CortexM3\ARM_GCC_541\Debug\lv_utils.o
                0x000132c8                _lv_utils_bsearch
 .text.apply_theme
                0x00013314       0x30 .\CortexM3\ARM_GCC_541\Debug\lv_theme.o
 .text.clear_styles
                0x00013344      0x12c .\CortexM3\ARM_GCC_541\Debug\lv_theme.o
 .text.lv_theme_set_act
                0x00013470        0xc .\CortexM3\ARM_GCC_541\Debug\lv_theme.o
                0x00013470                lv_theme_set_act
 .text.lv_theme_apply
                0x0001347c       0x1c .\CortexM3\ARM_GCC_541\Debug\lv_theme.o
                0x0001347c                lv_theme_apply
 .text.lv_theme_get_font_normal
                0x00013498        0xc .\CortexM3\ARM_GCC_541\Debug\lv_theme.o
                0x00013498                lv_theme_get_font_normal
 .text.theme_apply
                0x000134a4      0x2b8 .\CortexM3\ARM_GCC_541\Debug\lv_theme_material.o
 .text.style_init_reset
                0x0001375c       0x18 .\CortexM3\ARM_GCC_541\Debug\lv_theme_material.o
 .text.checkbox_init
                0x00013774      0x2f8 .\CortexM3\ARM_GCC_541\Debug\lv_theme_material.o
 .text.page_init
                0x00013a6c      0x174 .\CortexM3\ARM_GCC_541\Debug\lv_theme_material.o
 .text.textarea_init
                0x00013be0      0x150 .\CortexM3\ARM_GCC_541\Debug\lv_theme_material.o
 .text.spinbox_init
                0x00013d30       0xc4 .\CortexM3\ARM_GCC_541\Debug\lv_theme_material.o
 .text.ddlist_init
                0x00013df4      0x128 .\CortexM3\ARM_GCC_541\Debug\lv_theme_material.o
 .text.tabview_win_shared_init
                0x00013f1c      0x640 .\CortexM3\ARM_GCC_541\Debug\lv_theme_material.o
 .text.led_init
                0x0001455c       0xf0 .\CortexM3\ARM_GCC_541\Debug\lv_theme_material.o
 .text.basic_init
                0x0001464c     0x1578 .\CortexM3\ARM_GCC_541\Debug\lv_theme_material.o
 .text.lv_theme_material_init
                0x00015bc4       0x7c .\CortexM3\ARM_GCC_541\Debug\lv_theme_material.o
                0x00015bc4                lv_theme_material_init
 .text.lv_btn_design
                0x00015c40       0x30 .\CortexM3\ARM_GCC_541\Debug\lv_btn.o
 .text.lv_btn_create
                0x00015c70       0xe0 .\CortexM3\ARM_GCC_541\Debug\lv_btn.o
                0x00015c70                lv_btn_create
 .text.lv_btn_set_checkable
                0x00015d50       0x2c .\CortexM3\ARM_GCC_541\Debug\lv_btn.o
                0x00015d50                lv_btn_set_checkable
 .text.lv_btn_set_state
                0x00015d7c       0x90 .\CortexM3\ARM_GCC_541\Debug\lv_btn.o
                0x00015d7c                lv_btn_set_state
 .text.lv_btn_get_state
                0x00015e0c       0x58 .\CortexM3\ARM_GCC_541\Debug\lv_btn.o
                0x00015e0c                lv_btn_get_state
 .text.lv_btn_get_checkable
                0x00015e64       0x28 .\CortexM3\ARM_GCC_541\Debug\lv_btn.o
                0x00015e64                lv_btn_get_checkable
 .text.lv_btn_signal
                0x00015e8c       0xf8 .\CortexM3\ARM_GCC_541\Debug\lv_btn.o
 .text.lv_checkbox_get_style
                0x00015f84       0x28 .\CortexM3\ARM_GCC_541\Debug\lv_checkbox.o
 .text.lv_checkbox_signal
                0x00015fac      0x138 .\CortexM3\ARM_GCC_541\Debug\lv_checkbox.o
 .text.lv_checkbox_set_text
                0x000160e4       0x2c .\CortexM3\ARM_GCC_541\Debug\lv_checkbox.o
                0x000160e4                lv_checkbox_set_text
 .text.lv_checkbox_create
                0x00016110       0xf8 .\CortexM3\ARM_GCC_541\Debug\lv_checkbox.o
                0x00016110                lv_checkbox_create
 .text.lv_checkbox_set_checked
                0x00016208       0x60 .\CortexM3\ARM_GCC_541\Debug\lv_checkbox.o
                0x00016208                lv_checkbox_set_checked
 .text.lv_cont_get_style
                0x00016268        0xc .\CortexM3\ARM_GCC_541\Debug\lv_cont.o
 .text.lv_cont_layout_center
                0x00016274       0xd4 .\CortexM3\ARM_GCC_541\Debug\lv_cont.o
 .text.lv_cont_layout_grid
                0x00016348       0xbc .\CortexM3\ARM_GCC_541\Debug\lv_cont.o
 .text.lv_cont_refr_autofit
                0x00016404      0x3c0 .\CortexM3\ARM_GCC_541\Debug\lv_cont.o
 .text.lv_cont_create
                0x000167c4      0x104 .\CortexM3\ARM_GCC_541\Debug\lv_cont.o
                0x000167c4                lv_cont_create
 .text.lv_cont_set_layout
                0x000168c8       0x40 .\CortexM3\ARM_GCC_541\Debug\lv_cont.o
                0x000168c8                lv_cont_set_layout
 .text.lv_cont_set_fit4
                0x00016908       0x80 .\CortexM3\ARM_GCC_541\Debug\lv_cont.o
                0x00016908                lv_cont_set_fit4
 .text.lv_cont_get_layout
                0x00016988       0x28 .\CortexM3\ARM_GCC_541\Debug\lv_cont.o
                0x00016988                lv_cont_get_layout
 .text.lv_cont_layout_col
                0x000169b0      0x100 .\CortexM3\ARM_GCC_541\Debug\lv_cont.o
 .text.lv_cont_layout_row
                0x00016ab0      0x130 .\CortexM3\ARM_GCC_541\Debug\lv_cont.o
 .text.lv_cont_layout_pretty
                0x00016be0      0x308 .\CortexM3\ARM_GCC_541\Debug\lv_cont.o
 .text.lv_cont_refr_layout
                0x00016ee8       0x6c .\CortexM3\ARM_GCC_541\Debug\lv_cont.o
 .text.lv_cont_signal
                0x00016f54       0xd0 .\CortexM3\ARM_GCC_541\Debug\lv_cont.o
 .text.lv_cont_get_fit_left
                0x00017024       0x28 .\CortexM3\ARM_GCC_541\Debug\lv_cont.o
                0x00017024                lv_cont_get_fit_left
 .text.lv_cont_get_fit_right
                0x0001704c       0x28 .\CortexM3\ARM_GCC_541\Debug\lv_cont.o
                0x0001704c                lv_cont_get_fit_right
 .text.lv_cont_get_fit_top
                0x00017074       0x28 .\CortexM3\ARM_GCC_541\Debug\lv_cont.o
                0x00017074                lv_cont_get_fit_top
 .text.lv_dropdown_get_style
                0x0001709c       0x4c .\CortexM3\ARM_GCC_541\Debug\lv_dropdown.o
 .text.get_label
                0x000170e8       0x18 .\CortexM3\ARM_GCC_541\Debug\lv_dropdown.o
 .text.position_to_selected
                0x00017100       0x74 .\CortexM3\ARM_GCC_541\Debug\lv_dropdown.o
 .text.get_id_on_point
                0x00017174       0x48 .\CortexM3\ARM_GCC_541\Debug\lv_dropdown.o
 .text.page_press_handler
                0x000171bc       0x4c .\CortexM3\ARM_GCC_541\Debug\lv_dropdown.o
 .text.draw_box
                0x00017208       0xb8 .\CortexM3\ARM_GCC_541\Debug\lv_dropdown.o
 .text.draw_box_label
                0x000172c0       0xf0 .\CortexM3\ARM_GCC_541\Debug\lv_dropdown.o
 .text.lv_dropdown_page_design
                0x000173b0       0xc4 .\CortexM3\ARM_GCC_541\Debug\lv_dropdown.o
 .text.lv_dropdown_set_options
                0x00017474       0xb0 .\CortexM3\ARM_GCC_541\Debug\lv_dropdown.o
                0x00017474                lv_dropdown_set_options
 .text.lv_dropdown_set_options_static
                0x00017524       0x84 .\CortexM3\ARM_GCC_541\Debug\lv_dropdown.o
                0x00017524                lv_dropdown_set_options_static
 .text.lv_dropdown_get_options
                0x000175a8       0x24 .\CortexM3\ARM_GCC_541\Debug\lv_dropdown.o
                0x000175a8                lv_dropdown_get_options
 .text.lv_dropdown_create
                0x000175cc      0x1e8 .\CortexM3\ARM_GCC_541\Debug\lv_dropdown.o
                0x000175cc                lv_dropdown_create
 .text.lv_dropdown_get_selected
                0x000177b4       0x24 .\CortexM3\ARM_GCC_541\Debug\lv_dropdown.o
                0x000177b4                lv_dropdown_get_selected
 .text.lv_dropdown_get_selected_str
                0x000177d8       0x70 .\CortexM3\ARM_GCC_541\Debug\lv_dropdown.o
                0x000177d8                lv_dropdown_get_selected_str
 .text.lv_dropdown_design
                0x00017848      0x214 .\CortexM3\ARM_GCC_541\Debug\lv_dropdown.o
 .text.lv_dropdown_open
                0x00017a5c      0x300 .\CortexM3\ARM_GCC_541\Debug\lv_dropdown.o
                0x00017a5c                lv_dropdown_open
 .text.lv_dropdown_close
                0x00017d5c       0x1c .\CortexM3\ARM_GCC_541\Debug\lv_dropdown.o
                0x00017d5c                lv_dropdown_close
 .text.lv_dropdown_signal
                0x00017d78      0x278 .\CortexM3\ARM_GCC_541\Debug\lv_dropdown.o
 .text.page_release_handler
                0x00017ff0       0x9c .\CortexM3\ARM_GCC_541\Debug\lv_dropdown.o
 .text.lv_dropdown_page_scrl_signal
                0x0001808c       0xc8 .\CortexM3\ARM_GCC_541\Debug\lv_dropdown.o
 .text.lv_dropdown_page_signal
                0x00018154       0xc0 .\CortexM3\ARM_GCC_541\Debug\lv_dropdown.o
 .text.lv_label_get_dot_tmp
                0x00018214       0x18 .\CortexM3\ARM_GCC_541\Debug\lv_label.o
 .text.lv_label_dot_tmp_free
                0x0001822c       0x28 .\CortexM3\ARM_GCC_541\Debug\lv_label.o
 .text.lv_label_revert_dots
                0x00018254       0x64 .\CortexM3\ARM_GCC_541\Debug\lv_label.o
 .text.lv_label_set_offset_y
                0x000182b8       0x14 .\CortexM3\ARM_GCC_541\Debug\lv_label.o
 .text.lv_label_set_offset_x
                0x000182cc       0x14 .\CortexM3\ARM_GCC_541\Debug\lv_label.o
 .text.get_txt_coords
                0x000182e0       0x58 .\CortexM3\ARM_GCC_541\Debug\lv_label.o
 .text.lv_label_set_dot_tmp
                0x00018338       0x58 .\CortexM3\ARM_GCC_541\Debug\lv_label.o
 .text.lv_label_set_align
                0x00018390       0x3c .\CortexM3\ARM_GCC_541\Debug\lv_label.o
                0x00018390                lv_label_set_align
 .text.lv_label_get_text
                0x000183cc       0x24 .\CortexM3\ARM_GCC_541\Debug\lv_label.o
                0x000183cc                lv_label_get_text
 .text.lv_label_get_long_mode
                0x000183f0       0x28 .\CortexM3\ARM_GCC_541\Debug\lv_label.o
                0x000183f0                lv_label_get_long_mode
 .text.lv_label_get_align
                0x00018418       0x30 .\CortexM3\ARM_GCC_541\Debug\lv_label.o
                0x00018418                lv_label_get_align
 .text.lv_label_get_recolor
                0x00018448       0x28 .\CortexM3\ARM_GCC_541\Debug\lv_label.o
                0x00018448                lv_label_get_recolor
 .text.lv_label_get_letter_pos
                0x00018470      0x210 .\CortexM3\ARM_GCC_541\Debug\lv_label.o
                0x00018470                lv_label_get_letter_pos
 .text.lv_label_get_letter_on
                0x00018680      0x254 .\CortexM3\ARM_GCC_541\Debug\lv_label.o
                0x00018680                lv_label_get_letter_on
 .text.lv_label_refr_text
                0x000188d4      0x4c0 .\CortexM3\ARM_GCC_541\Debug\lv_label.o
 .text.lv_label_set_text
                0x00018d94       0xd0 .\CortexM3\ARM_GCC_541\Debug\lv_label.o
                0x00018d94                lv_label_set_text
 .text.lv_label_set_text_static
                0x00018e64       0x4c .\CortexM3\ARM_GCC_541\Debug\lv_label.o
                0x00018e64                lv_label_set_text_static
 .text.lv_label_set_long_mode
                0x00018eb0       0xa0 .\CortexM3\ARM_GCC_541\Debug\lv_label.o
                0x00018eb0                lv_label_set_long_mode
 .text.lv_label_set_recolor
                0x00018f50       0x44 .\CortexM3\ARM_GCC_541\Debug\lv_label.o
                0x00018f50                lv_label_set_recolor
 .text.lv_label_create
                0x00018f94      0x1cc .\CortexM3\ARM_GCC_541\Debug\lv_label.o
                0x00018f94                lv_label_create
 .text.lv_label_get_text_sel_start
                0x00019160       0x20 .\CortexM3\ARM_GCC_541\Debug\lv_label.o
                0x00019160                lv_label_get_text_sel_start
 .text.lv_label_get_text_sel_end
                0x00019180       0x20 .\CortexM3\ARM_GCC_541\Debug\lv_label.o
                0x00019180                lv_label_get_text_sel_end
 .text.lv_label_design
                0x000191a0      0x254 .\CortexM3\ARM_GCC_541\Debug\lv_label.o
 .text.lv_label_get_style
                0x000193f4        0xc .\CortexM3\ARM_GCC_541\Debug\lv_label.o
                0x000193f4                lv_label_get_style
 .text.lv_label_signal
                0x00019400      0x128 .\CortexM3\ARM_GCC_541\Debug\lv_label.o
 .text.lv_label_ins_text
                0x00019528       0xac .\CortexM3\ARM_GCC_541\Debug\lv_label.o
                0x00019528                lv_label_ins_text
 .text.get_edge_flash_area
                0x000195d4      0x110 .\CortexM3\ARM_GCC_541\Debug\lv_page.o
 .text.lv_page_design
                0x000196e4      0x184 .\CortexM3\ARM_GCC_541\Debug\lv_page.o
 .text.lv_page_get_style
                0x00019868       0x50 .\CortexM3\ARM_GCC_541\Debug\lv_page.o
 .text.refr_ext_draw_pad
                0x000198b8       0x34 .\CortexM3\ARM_GCC_541\Debug\lv_page.o
 .text.edge_flash_anim_end
                0x000198ec       0x34 .\CortexM3\ARM_GCC_541\Debug\lv_page.o
 .text.edge_flash_anim
                0x00019920       0x24 .\CortexM3\ARM_GCC_541\Debug\lv_page.o
 .text.scrl_def_event_cb
                0x00019944       0x40 .\CortexM3\ARM_GCC_541\Debug\lv_page.o
 .text.scrlbar_refresh
                0x00019984      0x3c4 .\CortexM3\ARM_GCC_541\Debug\lv_page.o
 .text.lv_page_set_scrollbar_mode
                0x00019d48       0x90 .\CortexM3\ARM_GCC_541\Debug\lv_page.o
                0x00019d48                lv_page_set_scrollbar_mode
 .text.lv_page_create
                0x00019dd8      0x1a8 .\CortexM3\ARM_GCC_541\Debug\lv_page.o
                0x00019dd8                lv_page_create
 .text.lv_page_set_edge_flash
                0x00019f80       0x30 .\CortexM3\ARM_GCC_541\Debug\lv_page.o
                0x00019f80                lv_page_set_edge_flash
 .text.lv_page_get_scrollable
                0x00019fb0       0x24 .\CortexM3\ARM_GCC_541\Debug\lv_page.o
                0x00019fb0                lv_page_get_scrollable
 .text.lv_page_get_anim_time
                0x00019fd4       0x24 .\CortexM3\ARM_GCC_541\Debug\lv_page.o
                0x00019fd4                lv_page_get_anim_time
 .text.lv_page_get_edge_flash
                0x00019ff8       0x2c .\CortexM3\ARM_GCC_541\Debug\lv_page.o
                0x00019ff8                lv_page_get_edge_flash
 .text.lv_page_get_width_fit
                0x0001a024       0x6c .\CortexM3\ARM_GCC_541\Debug\lv_page.o
                0x0001a024                lv_page_get_width_fit
 .text.lv_page_on_edge
                0x0001a090       0xb8 .\CortexM3\ARM_GCC_541\Debug\lv_page.o
                0x0001a090                lv_page_on_edge
 .text.lv_page_scroll_hor
                0x0001a148       0x48 .\CortexM3\ARM_GCC_541\Debug\lv_page.o
                0x0001a148                lv_page_scroll_hor
 .text.lv_page_scroll_ver
                0x0001a190       0x48 .\CortexM3\ARM_GCC_541\Debug\lv_page.o
                0x0001a190                lv_page_scroll_ver
 .text.lv_page_signal
                0x0001a1d8      0x38c .\CortexM3\ARM_GCC_541\Debug\lv_page.o
 .text.lv_page_start_edge_flash
                0x0001a564       0xa8 .\CortexM3\ARM_GCC_541\Debug\lv_page.o
                0x0001a564                lv_page_start_edge_flash
 .text.scrl_reposition
                0x0001a60c      0x15c .\CortexM3\ARM_GCC_541\Debug\lv_page.o
 .text.lv_page_scrollable_signal
                0x0001a768      0x3cc .\CortexM3\ARM_GCC_541\Debug\lv_page.o
 .text.lv_spinbox_get_style
                0x0001ab34       0x38 .\CortexM3\ARM_GCC_541\Debug\lv_spinbox.o
 .text.lv_spinbox_updatevalue
                0x0001ab6c      0x15c .\CortexM3\ARM_GCC_541\Debug\lv_spinbox.o
 .text.lv_spinbox_set_rollover
                0x0001acc8       0x30 .\CortexM3\ARM_GCC_541\Debug\lv_spinbox.o
                0x0001acc8                lv_spinbox_set_rollover
 .text.lv_spinbox_set_value
                0x0001acf8       0x48 .\CortexM3\ARM_GCC_541\Debug\lv_spinbox.o
                0x0001acf8                lv_spinbox_set_value
 .text.lv_spinbox_set_digit_format
                0x0001ad40       0xb0 .\CortexM3\ARM_GCC_541\Debug\lv_spinbox.o
                0x0001ad40                lv_spinbox_set_digit_format
 .text.lv_spinbox_set_step
                0x0001adf0       0x2c .\CortexM3\ARM_GCC_541\Debug\lv_spinbox.o
                0x0001adf0                lv_spinbox_set_step
 .text.lv_spinbox_set_range
                0x0001ae1c       0x60 .\CortexM3\ARM_GCC_541\Debug\lv_spinbox.o
                0x0001ae1c                lv_spinbox_set_range
 .text.lv_spinbox_create
                0x0001ae7c      0x164 .\CortexM3\ARM_GCC_541\Debug\lv_spinbox.o
                0x0001ae7c                lv_spinbox_create
 .text.lv_spinbox_get_value
                0x0001afe0       0x28 .\CortexM3\ARM_GCC_541\Debug\lv_spinbox.o
                0x0001afe0                lv_spinbox_get_value
 .text.lv_spinbox_step_next
                0x0001b008       0x4c .\CortexM3\ARM_GCC_541\Debug\lv_spinbox.o
                0x0001b008                lv_spinbox_step_next
 .text.lv_spinbox_step_prev
                0x0001b054       0x50 .\CortexM3\ARM_GCC_541\Debug\lv_spinbox.o
                0x0001b054                lv_spinbox_step_prev
 .text.lv_spinbox_increment
                0x0001b0a4       0x70 .\CortexM3\ARM_GCC_541\Debug\lv_spinbox.o
                0x0001b0a4                lv_spinbox_increment
 .text.lv_spinbox_decrement
                0x0001b114       0x70 .\CortexM3\ARM_GCC_541\Debug\lv_spinbox.o
                0x0001b114                lv_spinbox_decrement
 .text.lv_spinbox_signal
                0x0001b184      0x204 .\CortexM3\ARM_GCC_541\Debug\lv_spinbox.o
 .text.lv_textarea_design
                0x0001b388       0x30 .\CortexM3\ARM_GCC_541\Debug\lv_textarea.o
 .text.pwd_char_hider_anim
                0x0001b3b8        0x4 .\CortexM3\ARM_GCC_541\Debug\lv_textarea.o
 .text.lv_textarea_get_style
                0x0001b3bc       0x4c .\CortexM3\ARM_GCC_541\Debug\lv_textarea.o
 .text.cursor_blink_anim
                0x0001b408       0x84 .\CortexM3\ARM_GCC_541\Debug\lv_textarea.o
 .text.lv_textarea_scrollable_design
                0x0001b48c      0x1a4 .\CortexM3\ARM_GCC_541\Debug\lv_textarea.o
 .text.lv_page_set_scrollable_fit2
                0x0001b630       0x1c .\CortexM3\ARM_GCC_541\Debug\lv_textarea.o
 .text.pwd_char_hider
                0x0001b64c       0xa4 .\CortexM3\ARM_GCC_541\Debug\lv_textarea.o
 .text.pwd_char_hider_anim_ready
                0x0001b6f0        0xc .\CortexM3\ARM_GCC_541\Debug\lv_textarea.o
 .text.lv_textarea_set_placeholder_text
                0x0001b6fc       0x90 .\CortexM3\ARM_GCC_541\Debug\lv_textarea.o
                0x0001b6fc                lv_textarea_set_placeholder_text
 .text.lv_textarea_set_cursor_click_pos
                0x0001b78c       0x30 .\CortexM3\ARM_GCC_541\Debug\lv_textarea.o
                0x0001b78c                lv_textarea_set_cursor_click_pos
 .text.lv_textarea_get_text
                0x0001b7bc       0x38 .\CortexM3\ARM_GCC_541\Debug\lv_textarea.o
                0x0001b7bc                lv_textarea_get_text
 .text.char_is_accepted
                0x0001b7f4       0x6c .\CortexM3\ARM_GCC_541\Debug\lv_textarea.o
 .text.lv_textarea_get_label
                0x0001b860       0x24 .\CortexM3\ARM_GCC_541\Debug\lv_textarea.o
                0x0001b860                lv_textarea_get_label
 .text.lv_textarea_get_cursor_pos
                0x0001b884       0x24 .\CortexM3\ARM_GCC_541\Debug\lv_textarea.o
                0x0001b884                lv_textarea_get_cursor_pos
 .text.refr_cursor_area
                0x0001b8a8      0x230 .\CortexM3\ARM_GCC_541\Debug\lv_textarea.o
 .text.lv_textarea_set_cursor_pos
                0x0001bad8      0x1d0 .\CortexM3\ARM_GCC_541\Debug\lv_textarea.o
                0x0001bad8                lv_textarea_set_cursor_pos
 .text.update_cursor_position_on_click
                0x0001bca8       0xac .\CortexM3\ARM_GCC_541\Debug\lv_textarea.o
 .text.lv_textarea_scrollable_signal
                0x0001bd54      0x110 .\CortexM3\ARM_GCC_541\Debug\lv_textarea.o
 .text.lv_textarea_set_cursor_hidden
                0x0001be64       0x38 .\CortexM3\ARM_GCC_541\Debug\lv_textarea.o
                0x0001be64                lv_textarea_set_cursor_hidden
 .text.lv_textarea_set_text_align
                0x0001be9c       0x88 .\CortexM3\ARM_GCC_541\Debug\lv_textarea.o
                0x0001be9c                lv_textarea_set_text_align
 .text.lv_textarea_set_one_line
                0x0001bf24      0x104 .\CortexM3\ARM_GCC_541\Debug\lv_textarea.o
                0x0001bf24                lv_textarea_set_one_line
 .text.lv_textarea_create
                0x0001c028      0x2c0 .\CortexM3\ARM_GCC_541\Debug\lv_textarea.o
                0x0001c028                lv_textarea_create
 .text.lv_textarea_get_one_line
                0x0001c2e8       0x2c .\CortexM3\ARM_GCC_541\Debug\lv_textarea.o
                0x0001c2e8                lv_textarea_get_one_line
 .text.lv_textarea_get_accepted_chars
                0x0001c314       0x24 .\CortexM3\ARM_GCC_541\Debug\lv_textarea.o
                0x0001c314                lv_textarea_get_accepted_chars
 .text.lv_textarea_get_max_length
                0x0001c338       0x24 .\CortexM3\ARM_GCC_541\Debug\lv_textarea.o
                0x0001c338                lv_textarea_get_max_length
 .text.lv_textarea_clear_selection
                0x0001c35c       0x1c .\CortexM3\ARM_GCC_541\Debug\lv_textarea.o
                0x0001c35c                lv_textarea_clear_selection
 .text.lv_textarea_add_char
                0x0001c378      0x17c .\CortexM3\ARM_GCC_541\Debug\lv_textarea.o
                0x0001c378                lv_textarea_add_char
 .text.lv_textarea_add_text
                0x0001c4f4      0x1b0 .\CortexM3\ARM_GCC_541\Debug\lv_textarea.o
                0x0001c4f4                lv_textarea_add_text
 .text.insert_handler
                0x0001c6a4       0x44 .\CortexM3\ARM_GCC_541\Debug\lv_textarea.o
 .text.lv_textarea_del_char
                0x0001c6e8      0x110 .\CortexM3\ARM_GCC_541\Debug\lv_textarea.o
                0x0001c6e8                lv_textarea_del_char
 .text.lv_textarea_del_char_forward
                0x0001c7f8       0x3c .\CortexM3\ARM_GCC_541\Debug\lv_textarea.o
                0x0001c7f8                lv_textarea_del_char_forward
 .text.lv_textarea_set_text
                0x0001c834      0x19c .\CortexM3\ARM_GCC_541\Debug\lv_textarea.o
                0x0001c834                lv_textarea_set_text
 .text.lv_textarea_cursor_right
                0x0001c9d0       0x2c .\CortexM3\ARM_GCC_541\Debug\lv_textarea.o
                0x0001c9d0                lv_textarea_cursor_right
 .text.lv_textarea_cursor_left
                0x0001c9fc       0x2c .\CortexM3\ARM_GCC_541\Debug\lv_textarea.o
                0x0001c9fc                lv_textarea_cursor_left
 .text.lv_textarea_cursor_down
                0x0001ca28       0x94 .\CortexM3\ARM_GCC_541\Debug\lv_textarea.o
                0x0001ca28                lv_textarea_cursor_down
 .text.lv_textarea_cursor_up
                0x0001cabc       0x88 .\CortexM3\ARM_GCC_541\Debug\lv_textarea.o
                0x0001cabc                lv_textarea_cursor_up
 .text.lv_textarea_signal
                0x0001cb44      0x298 .\CortexM3\ARM_GCC_541\Debug\lv_textarea.o
 .text.calculate_needed_tds
                0x0001cddc       0x24 .\CortexM3\ARM_GCC_541\Debug\spi_dma.o
 .text.spi_initialize_dma
                0x0001ce00       0x1c .\CortexM3\ARM_GCC_541\Debug\spi_dma.o
                0x0001ce00                spi_initialize_dma
 .text.send_spi
                0x0001ce1c       0x44 .\CortexM3\ARM_GCC_541\Debug\spi_dma.o
                0x0001ce1c                send_spi
 .text.spi_xfer_is_ongoing
                0x0001ce60       0x14 .\CortexM3\ARM_GCC_541\Debug\spi_dma.o
                0x0001ce60                spi_xfer_is_ongoing
 .text.spi_xfer_set_status
                0x0001ce74        0xc .\CortexM3\ARM_GCC_541\Debug\spi_dma.o
                0x0001ce74                spi_xfer_set_status
 .text.spi_xfer_on_completion
                0x0001ce80       0x3c .\CortexM3\ARM_GCC_541\Debug\spi_dma.o
                0x0001ce80                spi_xfer_on_completion
 .text.spi_xfer_get_status
                0x0001cebc        0xc .\CortexM3\ARM_GCC_541\Debug\spi_dma.o
                0x0001cebc                spi_xfer_get_status
 .text.send_spi_dma
                0x0001cec8      0x140 .\CortexM3\ARM_GCC_541\Debug\spi_dma.o
                0x0001cec8                send_spi_dma
 .text.psoc_display_backlight_control
                0x0001d008       0x10 .\CortexM3\ARM_GCC_541\Debug\psoc_platform.o
                0x0001d008                psoc_display_backlight_control
 .text.psoc_data_mode
                0x0001d018       0x14 .\CortexM3\ARM_GCC_541\Debug\psoc_platform.o
                0x0001d018                psoc_data_mode
 .text.psoc_delay_ms
                0x0001d02c        0xc .\CortexM3\ARM_GCC_541\Debug\psoc_platform.o
                0x0001d02c                psoc_delay_ms
 .text.CyClockStartupError
                0x0001d038        0x4 .\CortexM3\ARM_GCC_541\Debug\cyfitter_cfg.o
 .text.cfg_write_bytes32
                0x0001d03c       0x34 .\CortexM3\ARM_GCC_541\Debug\cyfitter_cfg.o
 .text.AnalogSetDefault
                0x0001d070       0x28 .\CortexM3\ARM_GCC_541\Debug\cyfitter_cfg.o
 .text.CYMEMZERO
                0x0001d098        0xc .\CortexM3\ARM_GCC_541\Debug\cyfitter_cfg.o
 .text.ClockSetup
                0x0001d0a4       0xd4 .\CortexM3\ARM_GCC_541\Debug\cyfitter_cfg.o
 .text.CYCONFIGCPY
                0x0001d178        0x8 .\CortexM3\ARM_GCC_541\Debug\cyfitter_cfg.o
 .text.cyfitter_cfg
                0x0001d180      0x130 .\CortexM3\ARM_GCC_541\Debug\cyfitter_cfg.o
                0x0001d180                cyfitter_cfg
 .text.IntDefaultHandler
                0x0001d2b0       0x10 .\CortexM3\ARM_GCC_541\Debug\Cm3Start.o
                0x0001d2b0                IntDefaultHandler
 .text.Start_c  0x0001d2c0       0x4c .\CortexM3\ARM_GCC_541\Debug\Cm3Start.o
                0x0001d2c0                Start_c
 .text.initialize_psoc
                0x0001d30c       0x6c .\CortexM3\ARM_GCC_541\Debug\Cm3Start.o
                0x0001d30c                initialize_psoc
 .text.SPI_Enable
                0x0001d378       0x34 .\CortexM3\ARM_GCC_541\Debug\ili9341_master.a(SPI.o)
                0x0001d378                SPI_Enable
 .text.SPI_SetTxInterruptMode
                0x0001d3ac        0xc .\CortexM3\ARM_GCC_541\Debug\ili9341_master.a(SPI.o)
                0x0001d3ac                SPI_SetTxInterruptMode
 .text.SPI_ReadTxStatus
                0x0001d3b8        0xc .\CortexM3\ARM_GCC_541\Debug\ili9341_master.a(SPI.o)
                0x0001d3b8                SPI_ReadTxStatus
 .text.SPI_ReadRxStatus
                0x0001d3c4        0xc .\CortexM3\ARM_GCC_541\Debug\ili9341_master.a(SPI.o)
                0x0001d3c4                SPI_ReadRxStatus
 .text.SPI_WriteTxData
                0x0001d3d0       0x18 .\CortexM3\ARM_GCC_541\Debug\ili9341_master.a(SPI.o)
                0x0001d3d0                SPI_WriteTxData
 .text.SPI_ReadRxData
                0x0001d3e8        0xc .\CortexM3\ARM_GCC_541\Debug\ili9341_master.a(SPI.o)
                0x0001d3e8                SPI_ReadRxData
 .text.SPI_ClearTxBuffer
                0x0001d3f4       0x24 .\CortexM3\ARM_GCC_541\Debug\ili9341_master.a(SPI.o)
                0x0001d3f4                SPI_ClearTxBuffer
 .text.SPI_ClearFIFO
                0x0001d418       0x3c .\CortexM3\ARM_GCC_541\Debug\ili9341_master.a(SPI.o)
                0x0001d418                SPI_ClearFIFO
 .text.SPI_Init
                0x0001d454       0x28 .\CortexM3\ARM_GCC_541\Debug\ili9341_master.a(SPI.o)
                0x0001d454                SPI_Init
 .text.SPI_Start
                0x0001d47c       0x1c .\CortexM3\ARM_GCC_541\Debug\ili9341_master.a(SPI.o)
                0x0001d47c                SPI_Start
 .text.SPI_IntClock_Start
                0x0001d498       0x1c .\CortexM3\ARM_GCC_541\Debug\ili9341_master.a(SPI_IntClock.o)
                0x0001d498                SPI_IntClock_Start
 .text.CyDmacConfigure
                0x0001d4b4       0x34 .\CortexM3\ARM_GCC_541\Debug\ili9341_master.a(CyDmac.o)
                0x0001d4b4                CyDmacConfigure
 .text.CyDmaChEnable
                0x0001d4e8       0x38 .\CortexM3\ARM_GCC_541\Debug\ili9341_master.a(CyDmac.o)
                0x0001d4e8                CyDmaChEnable
 .text.CyDmaChDisable
                0x0001d520       0x24 .\CortexM3\ARM_GCC_541\Debug\ili9341_master.a(CyDmac.o)
                0x0001d520                CyDmaChDisable
 .text.CyDmaChPriority
                0x0001d544       0x24 .\CortexM3\ARM_GCC_541\Debug\ili9341_master.a(CyDmac.o)
                0x0001d544                CyDmaChPriority
 .text.CyDmaChSetExtendedAddress
                0x0001d568       0x34 .\CortexM3\ARM_GCC_541\Debug\ili9341_master.a(CyDmac.o)
                0x0001d568                CyDmaChSetExtendedAddress
 .text.CyDmaChSetInitialTd
                0x0001d59c       0x18 .\CortexM3\ARM_GCC_541\Debug\ili9341_master.a(CyDmac.o)
                0x0001d59c                CyDmaChSetInitialTd
 .text.CyDmaChSetConfiguration
                0x0001d5b4       0x44 .\CortexM3\ARM_GCC_541\Debug\ili9341_master.a(CyDmac.o)
                0x0001d5b4                CyDmaChSetConfiguration
 .text.CyDmaTdAllocate
                0x0001d5f8       0x34 .\CortexM3\ARM_GCC_541\Debug\ili9341_master.a(CyDmac.o)
                0x0001d5f8                CyDmaTdAllocate
 .text.CyDmaTdFree
                0x0001d62c       0x34 .\CortexM3\ARM_GCC_541\Debug\ili9341_master.a(CyDmac.o)
                0x0001d62c                CyDmaTdFree
 .text.CyDmaTdSetConfiguration
                0x0001d660       0x28 .\CortexM3\ARM_GCC_541\Debug\ili9341_master.a(CyDmac.o)
                0x0001d660                CyDmaTdSetConfiguration
 .text.CyDmaTdSetAddress
                0x0001d688       0x1c .\CortexM3\ARM_GCC_541\Debug\ili9341_master.a(CyDmac.o)
                0x0001d688                CyDmaTdSetAddress
 .text.CyHalt   0x0001d6a4        0x4 .\CortexM3\ARM_GCC_541\Debug\ili9341_master.a(CyLib.o)
                0x0001d6a4                CyHalt
 .text.CyDelay  0x0001d6a8       0x2c .\CortexM3\ARM_GCC_541\Debug\ili9341_master.a(CyLib.o)
                0x0001d6a8                CyDelay
 .text.CyIntSetSysVector
                0x0001d6d4       0x28 .\CortexM3\ARM_GCC_541\Debug\ili9341_master.a(CyLib.o)
                0x0001d6d4                CyIntSetSysVector
 .text.CySysTickStop
                0x0001d6fc       0x10 .\CortexM3\ARM_GCC_541\Debug\ili9341_master.a(CyLib.o)
                0x0001d6fc                CySysTickStop
 .text.CySysTickEnableInterrupt
                0x0001d70c       0x10 .\CortexM3\ARM_GCC_541\Debug\ili9341_master.a(CyLib.o)
                0x0001d70c                CySysTickEnableInterrupt
 .text.CySysTickEnable
                0x0001d71c       0x18 .\CortexM3\ARM_GCC_541\Debug\ili9341_master.a(CyLib.o)
                0x0001d71c                CySysTickEnable
 .text.CySysTickSetReload
                0x0001d734       0x10 .\CortexM3\ARM_GCC_541\Debug\ili9341_master.a(CyLib.o)
                0x0001d734                CySysTickSetReload
 .text.CySysTickSetClockSource
                0x0001d744       0x20 .\CortexM3\ARM_GCC_541\Debug\ili9341_master.a(CyLib.o)
                0x0001d744                CySysTickSetClockSource
 .text.CySysTickGetCountFlag
                0x0001d764       0x10 .\CortexM3\ARM_GCC_541\Debug\ili9341_master.a(CyLib.o)
                0x0001d764                CySysTickGetCountFlag
 .text.CySysTickServiceCallbacks
                0x0001d774       0x28 .\CortexM3\ARM_GCC_541\Debug\ili9341_master.a(CyLib.o)
 .text.CySysTickClear
                0x0001d79c        0xc .\CortexM3\ARM_GCC_541\Debug\ili9341_master.a(CyLib.o)
                0x0001d79c                CySysTickClear
 .text.CySysTickInit
                0x0001d7a8       0x58 .\CortexM3\ARM_GCC_541\Debug\ili9341_master.a(CyLib.o)
                0x0001d7a8                CySysTickInit
 .text.CySysTickStart
                0x0001d800       0x1c .\CortexM3\ARM_GCC_541\Debug\ili9341_master.a(CyLib.o)
                0x0001d800                CySysTickStart
 .text.CySysTickSetCallback
                0x0001d81c       0x10 .\CortexM3\ARM_GCC_541\Debug\ili9341_master.a(CyLib.o)
                0x0001d81c                CySysTickSetCallback
 .text.DISP_BCKL_Write
                0x0001d82c       0x18 .\CortexM3\ARM_GCC_541\Debug\ili9341_master.a(DISP_BCKL.o)
                0x0001d82c                DISP_BCKL_Write
 .text.DISP_DC_Write
                0x0001d844       0x18 .\CortexM3\ARM_GCC_541\Debug\ili9341_master.a(DISP_DC.o)
                0x0001d844                DISP_DC_Write
 .text.DMA_Tx_DmaInitialize
                0x0001d85c       0x3c .\CortexM3\ARM_GCC_541\Debug\ili9341_master.a(DMA_Tx_dma.o)
                0x0001d85c                DMA_Tx_DmaInitialize
 .text.UART_Start
                0x0001d898        0x4 .\CortexM3\ARM_GCC_541\Debug\ili9341_master.a(UART.o)
                0x0001d898                UART_Start
 .text.UART_PutString
                0x0001d89c       0x1c .\CortexM3\ARM_GCC_541\Debug\ili9341_master.a(UART.o)
                0x0001d89c                UART_PutString
 .text.UART_PutHexByte
                0x0001d8b8       0x20 .\CortexM3\ARM_GCC_541\Debug\ili9341_master.a(UART.o)
                0x0001d8b8                UART_PutHexByte
 .text.UART_PutHexInt
                0x0001d8d8       0x14 .\CortexM3\ARM_GCC_541\Debug\ili9341_master.a(UART.o)
                0x0001d8d8                UART_PutHexInt
 .text.UART_PutCRLF
                0x0001d8ec       0x10 .\CortexM3\ARM_GCC_541\Debug\ili9341_master.a(UART.o)
                0x0001d8ec                UART_PutCRLF
 .text.isr_SPI_TX_DMA_SetVector
                0x0001d8fc        0xc .\CortexM3\ARM_GCC_541\Debug\ili9341_master.a(isr_SPI_TX_DMA.o)
                0x0001d8fc                isr_SPI_TX_DMA_SetVector
 .text.isr_SPI_TX_DMA_SetPriority
                0x0001d908       0x10 .\CortexM3\ARM_GCC_541\Debug\ili9341_master.a(isr_SPI_TX_DMA.o)
                0x0001d908                isr_SPI_TX_DMA_SetPriority
 .text.isr_SPI_TX_DMA_Enable
                0x0001d918        0xc .\CortexM3\ARM_GCC_541\Debug\ili9341_master.a(isr_SPI_TX_DMA.o)
                0x0001d918                isr_SPI_TX_DMA_Enable
 .text.isr_SPI_TX_DMA_Disable
                0x0001d924        0xc .\CortexM3\ARM_GCC_541\Debug\ili9341_master.a(isr_SPI_TX_DMA.o)
                0x0001d924                isr_SPI_TX_DMA_Disable
 .text.isr_SPI_TX_DMA_StartEx
                0x0001d930       0x1c .\CortexM3\ARM_GCC_541\Debug\ili9341_master.a(isr_SPI_TX_DMA.o)
                0x0001d930                isr_SPI_TX_DMA_StartEx
 .text.isr_SPI_TX_SetVector
                0x0001d94c        0xc .\CortexM3\ARM_GCC_541\Debug\ili9341_master.a(isr_SPI_TX.o)
                0x0001d94c                isr_SPI_TX_SetVector
 .text.isr_SPI_TX_SetPriority
                0x0001d958       0x10 .\CortexM3\ARM_GCC_541\Debug\ili9341_master.a(isr_SPI_TX.o)
                0x0001d958                isr_SPI_TX_SetPriority
 .text.isr_SPI_TX_Enable
                0x0001d968        0xc .\CortexM3\ARM_GCC_541\Debug\ili9341_master.a(isr_SPI_TX.o)
                0x0001d968                isr_SPI_TX_Enable
 .text.isr_SPI_TX_Disable
                0x0001d974        0xc .\CortexM3\ARM_GCC_541\Debug\ili9341_master.a(isr_SPI_TX.o)
                0x0001d974                isr_SPI_TX_Disable
 .text.isr_SPI_TX_StartEx
                0x0001d980       0x1c .\CortexM3\ARM_GCC_541\Debug\ili9341_master.a(isr_SPI_TX.o)
                0x0001d980                isr_SPI_TX_StartEx
 .text.SS_Write
                0x0001d99c       0x18 .\CortexM3\ARM_GCC_541\Debug\ili9341_master.a(SS.o)
                0x0001d99c                SS_Write
 .text.QuadDec_GetCounter
                0x0001d9b4        0xc .\CortexM3\ARM_GCC_541\Debug\ili9341_master.a(QuadDec.o)
                0x0001d9b4                QuadDec_GetCounter
 .text.QuadDec_GetEvents
                0x0001d9c0       0x10 .\CortexM3\ARM_GCC_541\Debug\ili9341_master.a(QuadDec.o)
                0x0001d9c0                QuadDec_GetEvents
 .text.QuadDec_SetInterruptMask
                0x0001d9d0        0xc .\CortexM3\ARM_GCC_541\Debug\ili9341_master.a(QuadDec.o)
                0x0001d9d0                QuadDec_SetInterruptMask
 .text.QuadDec_Enable
                0x0001d9dc       0x24 .\CortexM3\ARM_GCC_541\Debug\ili9341_master.a(QuadDec.o)
                0x0001d9dc                QuadDec_Enable
 .text.QuadDec_Start
                0x0001da00       0x24 .\CortexM3\ARM_GCC_541\Debug\ili9341_master.a(QuadDec.o)
                0x0001da00                QuadDec_Start
 .text.QuadDec_Cnt8_Enable
                0x0001da24       0x10 .\CortexM3\ARM_GCC_541\Debug\ili9341_master.a(QuadDec_Cnt8.o)
                0x0001da24                QuadDec_Cnt8_Enable
 .text.QuadDec_Cnt8_SetInterruptMode
                0x0001da34        0xc .\CortexM3\ARM_GCC_541\Debug\ili9341_master.a(QuadDec_Cnt8.o)
                0x0001da34                QuadDec_Cnt8_SetInterruptMode
 .text.QuadDec_Cnt8_ReadStatusRegister
                0x0001da40        0xc .\CortexM3\ARM_GCC_541\Debug\ili9341_master.a(QuadDec_Cnt8.o)
                0x0001da40                QuadDec_Cnt8_ReadStatusRegister
 .text.QuadDec_Cnt8_WriteCounter
                0x0001da4c        0xc .\CortexM3\ARM_GCC_541\Debug\ili9341_master.a(QuadDec_Cnt8.o)
                0x0001da4c                QuadDec_Cnt8_WriteCounter
 .text.QuadDec_Cnt8_ReadCounter
                0x0001da58       0x14 .\CortexM3\ARM_GCC_541\Debug\ili9341_master.a(QuadDec_Cnt8.o)
                0x0001da58                QuadDec_Cnt8_ReadCounter
 .text.QuadDec_Cnt8_ReadCapture
                0x0001da6c        0xc .\CortexM3\ARM_GCC_541\Debug\ili9341_master.a(QuadDec_Cnt8.o)
                0x0001da6c                QuadDec_Cnt8_ReadCapture
 .text.QuadDec_Cnt8_WritePeriod
                0x0001da78        0xc .\CortexM3\ARM_GCC_541\Debug\ili9341_master.a(QuadDec_Cnt8.o)
                0x0001da78                QuadDec_Cnt8_WritePeriod
 .text.QuadDec_Cnt8_WriteCompare
                0x0001da84        0xc .\CortexM3\ARM_GCC_541\Debug\ili9341_master.a(QuadDec_Cnt8.o)
                0x0001da84                QuadDec_Cnt8_WriteCompare
 .text.QuadDec_Cnt8_ClearFIFO
                0x0001da90       0x14 .\CortexM3\ARM_GCC_541\Debug\ili9341_master.a(QuadDec_Cnt8.o)
                0x0001da90                QuadDec_Cnt8_ClearFIFO
 .text.QuadDec_Cnt8_Init
                0x0001daa4       0x50 .\CortexM3\ARM_GCC_541\Debug\ili9341_master.a(QuadDec_Cnt8.o)
                0x0001daa4                QuadDec_Cnt8_Init
 .text.QuadDec_Cnt8_Start
                0x0001daf4       0x1c .\CortexM3\ARM_GCC_541\Debug\ili9341_master.a(QuadDec_Cnt8.o)
                0x0001daf4                QuadDec_Cnt8_Start
 .text.QuadDec_SW_Read
                0x0001db10       0x10 .\CortexM3\ARM_GCC_541\Debug\ili9341_master.a(QuadDec_SW.o)
                0x0001db10                QuadDec_SW_Read
 .text          0x0001db20       0x20 .\CortexM3\ARM_GCC_541\Debug\ili9341_master.a(CyBootAsmGnu.o)
                0x0001db20                CyDelayCycles
                0x0001db30                CyEnterCriticalSection
                0x0001db38                CyExitCriticalSection
 .text          0x0001db40       0xac .\CortexM3\ARM_GCC_541\Debug\ili9341_master.a(UART_AsmGnu.o)
                0x0001db40                UART_PutChar
 .text          0x0001dbec       0x24 c:/program files (x86)/cypress/psoc creator/4.4/psoc creator/import/gnu/arm/5.4.1/bin/../lib/gcc/arm-none-eabi/5.4.1/armv7-m\libgcc.a(_udivsi3.o)
                0x0001dbec                __aeabi_uidiv
                0x0001dbec                __udivsi3
                0x0001dc00                __aeabi_uidivmod
 .text          0x0001dc10        0x4 c:/program files (x86)/cypress/psoc creator/4.4/psoc creator/import/gnu/arm/5.4.1/bin/../lib/gcc/arm-none-eabi/5.4.1/armv7-m\libgcc.a(_dvmd_tls.o)
                0x0001dc10                __aeabi_idiv0
                0x0001dc10                __aeabi_ldiv0
 .text.__errno  0x0001dc14        0xc c:/program files (x86)/cypress/psoc creator/4.4/psoc creator/import/gnu/arm/5.4.1/bin/../lib/gcc/arm-none-eabi/5.4.1/../../../../arm-none-eabi/lib/armv7-m\libg_nano.a(lib_a-errno.o)
                0x0001dc14                __errno
 .text.__libc_init_array
                0x0001dc20       0x4c c:/program files (x86)/cypress/psoc creator/4.4/psoc creator/import/gnu/arm/5.4.1/bin/../lib/gcc/arm-none-eabi/5.4.1/../../../../arm-none-eabi/lib/armv7-m\libg_nano.a(lib_a-init.o)
                0x0001dc20                __libc_init_array
 .text.memcmp   0x0001dc6c       0x1e c:/program files (x86)/cypress/psoc creator/4.4/psoc creator/import/gnu/arm/5.4.1/bin/../lib/gcc/arm-none-eabi/5.4.1/../../../../arm-none-eabi/lib/armv7-m\libg_nano.a(lib_a-memcmp.o)
                0x0001dc6c                memcmp
 .text.memcpy   0x0001dc8a       0x16 c:/program files (x86)/cypress/psoc creator/4.4/psoc creator/import/gnu/arm/5.4.1/bin/../lib/gcc/arm-none-eabi/5.4.1/../../../../arm-none-eabi/lib/armv7-m\libg_nano.a(lib_a-memcpy-stub.o)
                0x0001dc8a                memcpy
 .text.memset   0x0001dca0       0x10 c:/program files (x86)/cypress/psoc creator/4.4/psoc creator/import/gnu/arm/5.4.1/bin/../lib/gcc/arm-none-eabi/5.4.1/../../../../arm-none-eabi/lib/armv7-m\libg_nano.a(lib_a-memset.o)
                0x0001dca0                memset
 .text          0x0001dcb0       0x14 c:/program files (x86)/cypress/psoc creator/4.4/psoc creator/import/gnu/arm/5.4.1/bin/../lib/gcc/arm-none-eabi/5.4.1/../../../../arm-none-eabi/lib/armv7-m\libg_nano.a(lib_a-strcmp.o)
                0x0001dcb0                strcmp
 .text.strcpy   0x0001dcc4       0x10 c:/program files (x86)/cypress/psoc creator/4.4/psoc creator/import/gnu/arm/5.4.1/bin/../lib/gcc/arm-none-eabi/5.4.1/../../../../arm-none-eabi/lib/armv7-m\libg_nano.a(lib_a-strcpy.o)
                0x0001dcc4                strcpy
 .text          0x0001dcd4       0x10 c:/program files (x86)/cypress/psoc creator/4.4/psoc creator/import/gnu/arm/5.4.1/bin/../lib/gcc/arm-none-eabi/5.4.1/../../../../arm-none-eabi/lib/armv7-m\libg_nano.a(lib_a-strlen.o)
                0x0001dcd4                strlen
 *(.plt)
 *(.gnu.warning)
 *(.glue_7t)
 .glue_7t       0x0001dce4        0x0 linker stubs
 *(.glue_7)
 .glue_7        0x0001dce4        0x0 linker stubs
 *(.vfp11_veneer)
 .vfp11_veneer  0x0001dce4        0x0 linker stubs
 *(.bootloader)
 *(.ARM.extab* .gnu.linkonce.armextab.*)
 *(.gcc_except_table)

.v4_bx          0x0001dce4        0x0
 .v4_bx         0x0001dce4        0x0 linker stubs

.iplt           0x0001dce4        0x0
 .iplt          0x0001dce4        0x0 c:/program files (x86)/cypress/psoc creator/4.4/psoc creator/import/gnu/arm/5.4.1/bin/../lib/gcc/arm-none-eabi/5.4.1/armv7-m/crtbegin.o

.eh_frame_hdr
 *(.eh_frame_hdr)

.eh_frame       0x0001dce4        0x4
 *(.eh_frame)
 .eh_frame      0x0001dce4        0x0 c:/program files (x86)/cypress/psoc creator/4.4/psoc creator/import/gnu/arm/5.4.1/bin/../lib/gcc/arm-none-eabi/5.4.1/armv7-m/crtbegin.o
 .eh_frame      0x0001dce4        0x4 c:/program files (x86)/cypress/psoc creator/4.4/psoc creator/import/gnu/arm/5.4.1/bin/../lib/gcc/arm-none-eabi/5.4.1/armv7-m/crtend.o
                [!provide]                PROVIDE (__exidx_start, .)

.ARM.exidx
 *(.ARM.exidx* .gnu.linkonce.armexidx.*)
                0x0001dce8                __exidx_end = .

.rodata         0x0001dce8     0x3160
 *(.rodata .rodata.* .gnu.linkonce.r.*)
 .rodata.str1.4
                0x0001dce8       0xaf .\CortexM3\ARM_GCC_541\Debug\main.o
 *fill*         0x0001dd97        0x1 
 .rodata        0x0001dd98        0x4 .\CortexM3\ARM_GCC_541\Debug\ili9341.o
 .rodata.str1.4
                0x0001dd9c        0xe .\CortexM3\ARM_GCC_541\Debug\lv_group.o
 *fill*         0x0001ddaa        0x2 
 .rodata        0x0001ddac        0x2 .\CortexM3\ARM_GCC_541\Debug\lv_obj.o
 *fill*         0x0001ddae        0x2 
 .rodata.str1.4
                0x0001ddb0       0x17 .\CortexM3\ARM_GCC_541\Debug\lv_obj.o
                                 0x27 (size before relaxing)
 .rodata.str1.4
                0x0001ddc7        0xe .\CortexM3\ARM_GCC_541\Debug\lv_style.o
 *fill*         0x0001ddc7        0x1 
 .rodata        0x0001ddc8        0x2 .\CortexM3\ARM_GCC_541\Debug\lv_draw_img.o
 *fill*         0x0001ddca        0x2 
 .rodata.str1.4
                0x0001ddcc        0x8 .\CortexM3\ARM_GCC_541\Debug\lv_draw_img.o
 .rodata        0x0001ddd4      0x120 .\CortexM3\ARM_GCC_541\Debug\lv_draw_label.o
                0x0001ddd4                _lv_bpp1_opa_table
                0x0001ddd8                _lv_bpp2_opa_table
                0x0001dddc                _lv_bpp4_opa_table
                0x0001ddec                _lv_bpp8_opa_table
                0x0001deec                _lv_bpp3_opa_table
 .rodata        0x0001def4       0x21 .\CortexM3\ARM_GCC_541\Debug\lv_draw_line.o
 *fill*         0x0001df15        0x3 
 .rodata        0x0001df18        0x2 .\CortexM3\ARM_GCC_541\Debug\lv_draw_rect.o
 *fill*         0x0001df1a        0x2 
 .rodata        0x0001df1c       0x14 .\CortexM3\ARM_GCC_541\Debug\lv_img_buf.o
 .rodata.str1.4
                0x0001df30        0xe .\CortexM3\ARM_GCC_541\Debug\lv_img_cache.o
 .rodata        0x0001df30       0x14 .\CortexM3\ARM_GCC_541\Debug\lv_img_decoder.o
 .rodata.str1.4
                0x0001df44        0xe .\CortexM3\ARM_GCC_541\Debug\lv_img_decoder.o
 .rodata.str1.4
                0x0001df44        0xe .\CortexM3\ARM_GCC_541\Debug\lv_font_fmt_txt.o
 .rodata        0x0001df44     0x2bd1 .\CortexM3\ARM_GCC_541\Debug\lv_font_montserrat_12.o
 *fill*         0x00020b15        0x3 
 .rodata        0x00020b18        0x2 .\CortexM3\ARM_GCC_541\Debug\lv_hal_disp.o
 .rodata.str1.4
                0x00020b1a        0xe .\CortexM3\ARM_GCC_541\Debug\lv_hal_disp.o
 .rodata.str1.4
                0x00020b1a        0xe .\CortexM3\ARM_GCC_541\Debug\lv_hal_indev.o
 *fill*         0x00020b1a        0x2 
 .rodata        0x00020b1c        0x8 .\CortexM3\ARM_GCC_541\Debug\lv_anim.o
                0x00020b1c                lv_anim_path_def
 .rodata.str1.4
                0x00020b24        0xe .\CortexM3\ARM_GCC_541\Debug\lv_anim.o
 .rodata        0x00020b24        0x2 .\CortexM3\ARM_GCC_541\Debug\lv_color.o
 *fill*         0x00020b26        0x2 
 .rodata        0x00020b28       0x11 .\CortexM3\ARM_GCC_541\Debug\lv_debug.o
 *fill*         0x00020b39        0x3 
 .rodata        0x00020b3c       0xb6 .\CortexM3\ARM_GCC_541\Debug\lv_math.o
 *fill*         0x00020bf2        0x2 
 .rodata.str1.4
                0x00020bf4       0x82 .\CortexM3\ARM_GCC_541\Debug\lv_mem.o
 .rodata.str1.4
                0x00020c76        0xe .\CortexM3\ARM_GCC_541\Debug\lv_task.o
 *fill*         0x00020c76        0x2 
 .rodata.str1.4
                0x00020c78        0x8 .\CortexM3\ARM_GCC_541\Debug\lv_txt.o
 .rodata        0x00020c80        0x2 .\CortexM3\ARM_GCC_541\Debug\lv_theme_material.o
 *fill*         0x00020c82        0x2 
 .rodata.str1.4
                0x00020c84        0x4 .\CortexM3\ARM_GCC_541\Debug\lv_theme_material.o
 .rodata.str1.4
                0x00020c88        0x7 .\CortexM3\ARM_GCC_541\Debug\lv_btn.o
                                 0x27 (size before relaxing)
 *fill*         0x00020c8f        0x1 
 .rodata.str1.4
                0x00020c90       0x16 .\CortexM3\ARM_GCC_541\Debug\lv_checkbox.o
                                 0x36 (size before relaxing)
 *fill*         0x00020ca6        0x2 
 .rodata.str1.4
                0x00020ca8        0x8 .\CortexM3\ARM_GCC_541\Debug\lv_cont.o
                                 0x28 (size before relaxing)
 .rodata.str1.4
                0x00020cb0       0x38 .\CortexM3\ARM_GCC_541\Debug\lv_dropdown.o
                                 0x59 (size before relaxing)
 .rodata.str1.4
                0x00020ce8       0x11 .\CortexM3\ARM_GCC_541\Debug\lv_label.o
                                 0x31 (size before relaxing)
 *fill*         0x00020cf9        0x3 
 .rodata.str1.4
                0x00020cfc        0x8 .\CortexM3\ARM_GCC_541\Debug\lv_page.o
                                 0x29 (size before relaxing)
 .rodata.str1.4
                0x00020d04        0xb .\CortexM3\ARM_GCC_541\Debug\lv_spinbox.o
                                 0x2b (size before relaxing)
 *fill*         0x00020d0f        0x1 
 .rodata.str1.4
                0x00020d10       0x20 .\CortexM3\ARM_GCC_541\Debug\lv_textarea.o
                                 0x44 (size before relaxing)
 .rodata.str1.4
                0x00020d30       0x84 .\CortexM3\ARM_GCC_541\Debug\spi_dma.o
                                 0x83 (size before relaxing)
 .rodata        0x00020db4       0x4c .\CortexM3\ARM_GCC_541\Debug\cyfitter_cfg.o
 .rodata        0x00020e00       0x11 .\CortexM3\ARM_GCC_541\Debug\ili9341_master.a(UART.o)
 .rodata.str1.1
                0x00020e11        0x2 c:/program files (x86)/cypress/psoc creator/4.4/psoc creator/import/gnu/arm/5.4.1/bin/../lib/gcc/arm-none-eabi/5.4.1/../../../../arm-none-eabi/lib/armv7-m\libg_nano.a(lib_a-impure.o)
                0x00020e14                . = ALIGN (0x4)
 *fill*         0x00020e13        0x1 
 *(.init)
 .init          0x00020e14        0x4 c:/program files (x86)/cypress/psoc creator/4.4/psoc creator/import/gnu/arm/5.4.1/bin/../lib/gcc/arm-none-eabi/5.4.1/armv7-m/crti.o
                0x00020e14                _init
 .init          0x00020e18        0x8 c:/program files (x86)/cypress/psoc creator/4.4/psoc creator/import/gnu/arm/5.4.1/bin/../lib/gcc/arm-none-eabi/5.4.1/armv7-m/crtn.o
                0x00020e20                . = ALIGN (0x4)
                0x00020e20                __preinit_array_start = .
 *(.preinit_array)
                0x00020e20                __preinit_array_end = .
                0x00020e20                . = ALIGN (0x4)
                0x00020e20                __init_array_start = .
 *(SORT(.init_array.*))
 *(.init_array)
 .init_array    0x00020e20        0x4 c:/program files (x86)/cypress/psoc creator/4.4/psoc creator/import/gnu/arm/5.4.1/bin/../lib/gcc/arm-none-eabi/5.4.1/armv7-m/crtbegin.o
 .init_array    0x00020e24        0x4 .\CortexM3\ARM_GCC_541\Debug\Cm3Start.o
                0x00020e28                __init_array_end = .
                0x00020e28                . = ALIGN (0x4)
 *(.fini)
 .fini          0x00020e28        0x4 c:/program files (x86)/cypress/psoc creator/4.4/psoc creator/import/gnu/arm/5.4.1/bin/../lib/gcc/arm-none-eabi/5.4.1/armv7-m/crti.o
                0x00020e28                _fini
 .fini          0x00020e2c        0x8 c:/program files (x86)/cypress/psoc creator/4.4/psoc creator/import/gnu/arm/5.4.1/bin/../lib/gcc/arm-none-eabi/5.4.1/armv7-m/crtn.o
                0x00020e34                . = ALIGN (0x4)
                0x00020e34                __fini_array_start = .
 *(.fini_array)
 .fini_array    0x00020e34        0x4 c:/program files (x86)/cypress/psoc creator/4.4/psoc creator/import/gnu/arm/5.4.1/bin/../lib/gcc/arm-none-eabi/5.4.1/armv7-m/crtbegin.o
 *(SORT(.fini_array.*))
                0x00020e38                __fini_array_end = .
                0x00020e38                . = ALIGN (0x4)
 *crtbegin.o(.ctors)
 *(EXCLUDE_FILE(*crtend.o) .ctors)
 *(SORT(.ctors.*))
 *crtend.o(.ctors)
                0x00020e38                . = ALIGN (0x4)
 *crtbegin.o(.dtors)
 *(EXCLUDE_FILE(*crtend.o) .dtors)
 *(SORT(.dtors.*))
 *crtend.o(.dtors)
                0x00020e38                . = ALIGN (0x4)
                0x00020e38                __cy_regions = .
                0x00020e38        0x4 LONG 0x20e48 __cy_region_init_ram
                0x00020e3c        0x4 LONG 0x1fff80c8 __cy_region_start_data
                0x00020e40        0x4 LONG 0x110 __cy_region_init_size_ram
                0x00020e44        0x4 LONG 0x76b0 __cy_region_zero_size_ram
                0x00020e48                __cy_regions_end = .
                0x00020e48                . = ALIGN (0x8)
                0x00020e48                _etext = .

.cy_checksum_exclude
                0x00020e48        0x0
 *(.cy_checksum_exclude)

.ramvectors     0x1fff8000       0xc0
                0x1fff8000                __cy_region_start_ram = .
 *(.ramvectors)
 .ramvectors    0x1fff8000       0xc0 .\CortexM3\ARM_GCC_541\Debug\Cm3Start.o
                0x1fff8000                CyRamVectors

.noinit         0x1fff80c0        0x1
 *(.noinit)
 .noinit        0x1fff80c0        0x1 .\CortexM3\ARM_GCC_541\Debug\ili9341_master.a(CyLib.o)
                0x1fff80c0                CyResetStatus

.data           0x1fff80c8      0x110 load address 0x00020e48
                0x1fff80c8                __cy_region_start_data = .
 *(.jcr)
 .jcr           0x1fff80c8        0x0 c:/program files (x86)/cypress/psoc creator/4.4/psoc creator/import/gnu/arm/5.4.1/bin/../lib/gcc/arm-none-eabi/5.4.1/armv7-m/crtbegin.o
 .jcr           0x1fff80c8        0x4 c:/program files (x86)/cypress/psoc creator/4.4/psoc creator/import/gnu/arm/5.4.1/bin/../lib/gcc/arm-none-eabi/5.4.1/armv7-m/crtend.o
 *(.got.plt)
 *(.got)
 *(.shdata)
 *(.data .data.* .gnu.linkonce.d.*)
 .data          0x1fff80cc       0x18 .\CortexM3\ARM_GCC_541\Debug\main.o
                0x1fff80cc                ili9341_driver
 .data          0x1fff80e4       0x38 .\CortexM3\ARM_GCC_541\Debug\lv_font_montserrat_12.o
                0x1fff80e4                lv_font_montserrat_12
 .data          0x1fff811c       0x10 .\CortexM3\ARM_GCC_541\Debug\lv_mem.o
 .data          0x1fff812c       0x20 .\CortexM3\ARM_GCC_541\Debug\lv_txt.o
                0x1fff812c                _lv_txt_encoded_size
                0x1fff8130                _lv_txt_encoded_next
                0x1fff8134                _lv_txt_encoded_get_byte_id
                0x1fff8138                _lv_txt_get_encoded_length
                0x1fff813c                _lv_txt_encoded_get_char_id
                0x1fff8140                _lv_txt_encoded_prev
                0x1fff8144                _lv_txt_encoded_conv_wc
                0x1fff8148                _lv_txt_unicode_to_encoded
 .data          0x1fff814c        0x8 .\CortexM3\ARM_GCC_541\Debug\ili9341_master.a(CyDmac.o)
 .data          0x1fff8154       0x10 .\CortexM3\ARM_GCC_541\Debug\ili9341_master.a(CyLib.o)
                0x1fff8154                cydelay_32k_ms
                0x1fff8158                cydelay_freq_khz
                0x1fff815c                cydelay_freq_mhz
                0x1fff8160                cydelay_freq_hz
 .data          0x1fff8164        0x1 .\CortexM3\ARM_GCC_541\Debug\ili9341_master.a(DMA_Tx_dma.o)
                0x1fff8164                DMA_Tx_DmaHandle
 *fill*         0x1fff8165        0x3 
 .data          0x1fff8168        0xc .\CortexM3\ARM_GCC_541\Debug\ili9341_master.a(UART.o)
                0x1fff8168                UART_pinDrAdress
                0x1fff816c                UART_pinPortNumber
                0x1fff8170                UART_pinNumber
 .data.impure_data
                0x1fff8174       0x60 c:/program files (x86)/cypress/psoc creator/4.4/psoc creator/import/gnu/arm/5.4.1/bin/../lib/gcc/arm-none-eabi/5.4.1/../../../../arm-none-eabi/lib/armv7-m\libg_nano.a(lib_a-impure.o)
 .data._impure_ptr
                0x1fff81d4        0x4 c:/program files (x86)/cypress/psoc creator/4.4/psoc creator/import/gnu/arm/5.4.1/bin/../lib/gcc/arm-none-eabi/5.4.1/../../../../arm-none-eabi/lib/armv7-m\libg_nano.a(lib_a-impure.o)
                0x1fff81d4                _impure_ptr
                0x1fff81d8                . = ALIGN (0x8)
 *(.ram)
                0x1fff81d8                _edata = .

.igot.plt       0x1fff81d8        0x0 load address 0x00020f58
 .igot.plt      0x1fff81d8        0x0 c:/program files (x86)/cypress/psoc creator/4.4/psoc creator/import/gnu/arm/5.4.1/bin/../lib/gcc/arm-none-eabi/5.4.1/armv7-m/crtbegin.o

.bss            0x1fff81d8     0x76b0 load address 0x00020f58
                0x1fff81d8                PROVIDE (__bss_start__, .)
 *(.shbss)
 *(.bss .bss.* .gnu.linkonce.b.*)
 .bss           0x1fff81d8       0x1c c:/program files (x86)/cypress/psoc creator/4.4/psoc creator/import/gnu/arm/5.4.1/bin/../lib/gcc/arm-none-eabi/5.4.1/armv7-m/crtbegin.o
 .bss           0x1fff81f4     0x3264 .\CortexM3\ARM_GCC_541\Debug\main.o
                0x1fff81f4                qd_current_cnt
                0x1fff81f5                qd_old_cnt
                0x1fffb444                v72_checkbox
                0x1fffb448                v48_checkbox
                0x1fffb44c                v24_checkbox
                0x1fffb450                continous_checkbox
                0x1fffb454                one_shot_checkbox
 .bss           0x1fffb458        0x2 .\CortexM3\ARM_GCC_541\Debug\disp_spi.o
 *fill*         0x1fffb45a        0x2 
 .bss           0x1fffb45c        0x8 .\CortexM3\ARM_GCC_541\Debug\lv_indev.o
 .bss           0x1fffb464        0xc .\CortexM3\ARM_GCC_541\Debug\lv_obj.o
 .bss           0x1fffb470        0x8 .\CortexM3\ARM_GCC_541\Debug\lv_refr.o
 .bss           0x1fffb478      0x108 .\CortexM3\ARM_GCC_541\Debug\lv_draw_label.o
 .bss           0x1fffb580        0x2 .\CortexM3\ARM_GCC_541\Debug\lv_img_cache.o
 *fill*         0x1fffb582        0x2 
 .bss           0x1fffb584        0xe .\CortexM3\ARM_GCC_541\Debug\lv_font_fmt_txt.o
 *fill*         0x1fffb592        0x2 
 .bss           0x1fffb594        0x4 .\CortexM3\ARM_GCC_541\Debug\lv_hal_disp.o
 .bss           0x1fffb598        0x8 .\CortexM3\ARM_GCC_541\Debug\lv_hal_tick.o
 .bss           0x1fffb5a0        0xc .\CortexM3\ARM_GCC_541\Debug\lv_anim.o
 .bss           0x1fffb5ac     0x4030 .\CortexM3\ARM_GCC_541\Debug\lv_mem.o
 .bss           0x1ffff5dc       0x1c .\CortexM3\ARM_GCC_541\Debug\lv_task.o
 .bss           0x1ffff5f8        0x4 .\CortexM3\ARM_GCC_541\Debug\lv_theme.o
 .bss           0x1ffff5fc       0x30 .\CortexM3\ARM_GCC_541\Debug\lv_theme_material.o
 .bss           0x1ffff62c        0x8 .\CortexM3\ARM_GCC_541\Debug\lv_btn.o
 .bss           0x1ffff634        0x4 .\CortexM3\ARM_GCC_541\Debug\lv_checkbox.o
 .bss           0x1ffff638        0x8 .\CortexM3\ARM_GCC_541\Debug\lv_cont.o
 .bss           0x1ffff640       0x14 .\CortexM3\ARM_GCC_541\Debug\lv_dropdown.o
 .bss           0x1ffff654        0x4 .\CortexM3\ARM_GCC_541\Debug\lv_label.o
 .bss           0x1ffff658        0x8 .\CortexM3\ARM_GCC_541\Debug\lv_page.o
 .bss           0x1ffff660        0x8 .\CortexM3\ARM_GCC_541\Debug\lv_spinbox.o
 .bss           0x1ffff668       0x14 .\CortexM3\ARM_GCC_541\Debug\lv_textarea.o
 .bss           0x1ffff67c       0x14 .\CortexM3\ARM_GCC_541\Debug\spi_dma.o
 .bss           0x1ffff690        0x1 .\CortexM3\ARM_GCC_541\Debug\ili9341_master.a(SPI.o)
                0x1ffff690                SPI_initVar
 *fill*         0x1ffff691        0x3 
 .bss           0x1ffff694       0x1c .\CortexM3\ARM_GCC_541\Debug\ili9341_master.a(CyLib.o)
                0x1ffff6ac                CySysTickInitVar
 .bss           0x1ffff6b0        0x1 .\CortexM3\ARM_GCC_541\Debug\ili9341_master.a(QuadDec.o)
                0x1ffff6b0                QuadDec_initVar
 .bss           0x1ffff6b1        0x1 .\CortexM3\ARM_GCC_541\Debug\ili9341_master.a(QuadDec_Cnt8.o)
                0x1ffff6b1                QuadDec_Cnt8_initVar
 *(COMMON)
 *fill*         0x1ffff6b2        0x2 
 COMMON         0x1ffff6b4       0x48 .\CortexM3\ARM_GCC_541\Debug\main.o
                0x1ffff6b4                parameter_list_ssss
                0x1ffff6c4                shoot_btn_label
                0x1ffff6c8                custom_spinbox
                0x1ffff6cc                voltage_ddlist
                0x1ffff6d0                pulses_spinbox
                0x1ffff6d4                selected_option
                0x1ffff6d8                one_shoot_cb
                0x1ffff6dc                pulses_ok_btn
                0x1ffff6e0                custom_shoot_cb
                0x1ffff6e4                voltage_ok_btn
                0x1ffff6e8                shoot_btn
                0x1ffff6ec                type_param_ok_btn
                0x1ffff6f0                continuous_cb
                0x1ffff6f4                app_screen
                0x1ffff6f8                burst_type_list
 COMMON         0x1ffff6fc      0x188 .\CortexM3\ARM_GCC_541\Debug\lv_gc.o
                0x1ffff6fc                _lv_task_ll
                0x1ffff708                _lv_font_decompr_buf
                0x1ffff70c                _lv_indev_ll
                0x1ffff718                _lv_disp_ll
                0x1ffff724                _lv_img_defoder_ll
                0x1ffff730                _lv_mem_buf
                0x1ffff7b0                _lv_drv_ll
                0x1ffff7bc                _lv_obj_style_trans_ll
                0x1ffff7c8                _lv_theme_material_styles
                0x1ffff7cc                _lv_task_act
                0x1ffff7d0                _lv_theme_mono_styles
                0x1ffff7d4                _lv_theme_template_styles
                0x1ffff7d8                _lv_img_cache_array
                0x1ffff7dc                _lv_anim_ll
                0x1ffff7e8                _lv_theme_empty_styles
                0x1ffff7ec                _lv_draw_mask_list
                0x1ffff86c                _lv_group_ll
                0x1ffff878                _lv_file_ll
                0x1ffff888                . = ALIGN (0x8)
 *fill*         0x1ffff884        0x4 
 *(.ram.b)
                0x1ffff888                _end = .
                0x1ffff888                __end = .
                0x1ffff888                PROVIDE (end, .)
                0x1ffff888                PROVIDE (__bss_end__, .)
                0x00020e48                __cy_region_init_ram = LOADADDR (.data)
                0x00000110                __cy_region_init_size_ram = (_edata - ADDR (.data))
                0x000076b0                __cy_region_zero_size_ram = (_end - _edata)

.heap           0x1ffff888     0x2000 load address 0x00020f58
                0x1ffff888                . = _end
                0x20001888                . = (. + 0x2000)
 *fill*         0x1ffff888     0x2000 
                0x20001888                __cy_heap_limit = .

.stack          0x20004000     0x4000
                0x20004000                __cy_stack_limit = .
                0x20008000                . = (. + 0x4000)
 *fill*         0x20004000     0x4000 
                0x00000001                ASSERT ((__cy_stack_limit >= __cy_heap_limit), region RAM overflowed with stack)
                0x00000000                cy_checksum_exclude_size = (CY_APPL_LOADABLE == 0x1)?SIZEOF (.cy_checksum_exclude):0x0
                0x00000001                ASSERT ((cy_checksum_exclude_size <= CY_CHECKSUM_EXCLUDE_SIZE), CY_BOOT: Section .cy_checksum_exclude size exceedes specified limit.)

.cyloadermeta
 *(.cyloadermeta)

.cyloadablemeta
 *(.cyloadablemeta)

.cyconfigecc    0x80000000      0x6c8
 *(.cyconfigecc)
 .cyconfigecc   0x80000000      0x6c8 .\CortexM3\ARM_GCC_541\Debug\cymetadata.o
                0x80000000                cy_meta_configecc

.cycustnvl      0x90000000        0x4
 *(.cycustnvl)
 .cycustnvl     0x90000000        0x4 .\CortexM3\ARM_GCC_541\Debug\cymetadata.o
                0x90000000                cy_meta_custnvl

.cywolatch      0x90100000        0x4
 *(.cywolatch)
 .cywolatch     0x90100000        0x4 .\CortexM3\ARM_GCC_541\Debug\cymetadata.o
                0x90100000                cy_meta_wonvl

.cyeeprom       0x90200000        0x0
 *(.cyeeprom)
                0x00000001                ASSERT ((. <= ((0x90200000 + ee_offset) + ee_size)), .cyeeprom data will not fit in EEPROM)

.cyflashprotect
                0x90400000      0x100
 *(.cyflashprotect)
 .cyflashprotect
                0x90400000      0x100 .\CortexM3\ARM_GCC_541\Debug\cymetadata.o
                0x90400000                cy_meta_flashprotect

.cymeta         0x90500000        0xc
 *(.cymeta)
 .cymeta        0x90500000        0xc .\CortexM3\ARM_GCC_541\Debug\cymetadata.o
                0x90500000                cy_metadata

.rel.dyn        0x00020f58        0x0 load address 0x9050000c
 .rel.iplt      0x00020f58        0x0 c:/program files (x86)/cypress/psoc creator/4.4/psoc creator/import/gnu/arm/5.4.1/bin/../lib/gcc/arm-none-eabi/5.4.1/armv7-m/crtbegin.o

.stab
 *(.stab)

.stabstr
 *(.stabstr)

.debug
 *(.debug)

.line
 *(.line)

.debug_srcinfo
 *(.debug_srcinfo)

.debug_sfnames
 *(.debug_sfnames)

.debug_aranges  0x00000000     0x31d0
 *(.debug_aranges)
 .debug_aranges
                0x00000000       0xa0 .\CortexM3\ARM_GCC_541\Debug\main.o
 .debug_aranges
                0x000000a0       0x40 .\CortexM3\ARM_GCC_541\Debug\disp_spi.o
 .debug_aranges
                0x000000e0       0x68 .\CortexM3\ARM_GCC_541\Debug\ili9341.o
 .debug_aranges
                0x00000148       0xa0 .\CortexM3\ARM_GCC_541\Debug\lv_disp.o
 .debug_aranges
                0x000001e8       0xe0 .\CortexM3\ARM_GCC_541\Debug\lv_group.o
 .debug_aranges
                0x000002c8      0x120 .\CortexM3\ARM_GCC_541\Debug\lv_indev.o
 .debug_aranges
                0x000003e8      0x558 .\CortexM3\ARM_GCC_541\Debug\lv_obj.o
 .debug_aranges
                0x00000940       0x88 .\CortexM3\ARM_GCC_541\Debug\lv_refr.o
 .debug_aranges
                0x000009c8      0x118 .\CortexM3\ARM_GCC_541\Debug\lv_style.o
 .debug_aranges
                0x00000ae0       0x48 .\CortexM3\ARM_GCC_541\Debug\lv_draw_arc.o
 .debug_aranges
                0x00000b28       0x68 .\CortexM3\ARM_GCC_541\Debug\lv_draw_blend.o
 .debug_aranges
                0x00000b90       0x60 .\CortexM3\ARM_GCC_541\Debug\lv_draw_img.o
 .debug_aranges
                0x00000bf0       0x48 .\CortexM3\ARM_GCC_541\Debug\lv_draw_label.o
 .debug_aranges
                0x00000c38       0x40 .\CortexM3\ARM_GCC_541\Debug\lv_draw_line.o
 .debug_aranges
                0x00000c78       0xa8 .\CortexM3\ARM_GCC_541\Debug\lv_draw_mask.o
 .debug_aranges
                0x00000d20       0x78 .\CortexM3\ARM_GCC_541\Debug\lv_draw_rect.o
 .debug_aranges
                0x00000d98       0x28 .\CortexM3\ARM_GCC_541\Debug\lv_draw_triangle.o
 .debug_aranges
                0x00000dc0       0x70 .\CortexM3\ARM_GCC_541\Debug\lv_img_buf.o
 .debug_aranges
                0x00000e30       0x30 .\CortexM3\ARM_GCC_541\Debug\lv_img_cache.o
 .debug_aranges
                0x00000e60       0xa8 .\CortexM3\ARM_GCC_541\Debug\lv_img_decoder.o
 .debug_aranges
                0x00000f08       0x30 .\CortexM3\ARM_GCC_541\Debug\lv_font.o
 .debug_aranges
                0x00000f38       0x18 .\CortexM3\ARM_GCC_541\Debug\lv_font_dejavu_16_persian_hebrew.o
 .debug_aranges
                0x00000f50       0x60 .\CortexM3\ARM_GCC_541\Debug\lv_font_fmt_txt.o
 .debug_aranges
                0x00000fb0       0x18 .\CortexM3\ARM_GCC_541\Debug\lv_font_loader.o
 .debug_aranges
                0x00000fc8       0x18 .\CortexM3\ARM_GCC_541\Debug\lv_font_montserrat_12.o
 .debug_aranges
                0x00000fe0       0x18 .\CortexM3\ARM_GCC_541\Debug\lv_font_montserrat_12_subpx.o
 .debug_aranges
                0x00000ff8       0x18 .\CortexM3\ARM_GCC_541\Debug\lv_font_montserrat_14.o
 .debug_aranges
                0x00001010       0x18 .\CortexM3\ARM_GCC_541\Debug\lv_font_montserrat_16.o
 .debug_aranges
                0x00001028       0x18 .\CortexM3\ARM_GCC_541\Debug\lv_font_montserrat_18.o
 .debug_aranges
                0x00001040       0x18 .\CortexM3\ARM_GCC_541\Debug\lv_font_montserrat_20.o
 .debug_aranges
                0x00001058       0x18 .\CortexM3\ARM_GCC_541\Debug\lv_font_montserrat_22.o
 .debug_aranges
                0x00001070       0x18 .\CortexM3\ARM_GCC_541\Debug\lv_font_montserrat_24.o
 .debug_aranges
                0x00001088       0x18 .\CortexM3\ARM_GCC_541\Debug\lv_font_montserrat_26.o
 .debug_aranges
                0x000010a0       0x18 .\CortexM3\ARM_GCC_541\Debug\lv_font_montserrat_28.o
 .debug_aranges
                0x000010b8       0x18 .\CortexM3\ARM_GCC_541\Debug\lv_font_montserrat_28_compressed.o
 .debug_aranges
                0x000010d0       0x18 .\CortexM3\ARM_GCC_541\Debug\lv_font_montserrat_30.o
 .debug_aranges
                0x000010e8       0x18 .\CortexM3\ARM_GCC_541\Debug\lv_font_montserrat_32.o
 .debug_aranges
                0x00001100       0x18 .\CortexM3\ARM_GCC_541\Debug\lv_font_montserrat_34.o
 .debug_aranges
                0x00001118       0x18 .\CortexM3\ARM_GCC_541\Debug\lv_font_montserrat_36.o
 .debug_aranges
                0x00001130       0x18 .\CortexM3\ARM_GCC_541\Debug\lv_font_montserrat_38.o
 .debug_aranges
                0x00001148       0x18 .\CortexM3\ARM_GCC_541\Debug\lv_font_montserrat_40.o
 .debug_aranges
                0x00001160       0x18 .\CortexM3\ARM_GCC_541\Debug\lv_font_montserrat_42.o
 .debug_aranges
                0x00001178       0x18 .\CortexM3\ARM_GCC_541\Debug\lv_font_montserrat_44.o
 .debug_aranges
                0x00001190       0x18 .\CortexM3\ARM_GCC_541\Debug\lv_font_montserrat_46.o
 .debug_aranges
                0x000011a8       0x18 .\CortexM3\ARM_GCC_541\Debug\lv_font_montserrat_48.o
 .debug_aranges
                0x000011c0       0x18 .\CortexM3\ARM_GCC_541\Debug\lv_font_simsun_16_cjk.o
 .debug_aranges
                0x000011d8       0x18 .\CortexM3\ARM_GCC_541\Debug\lv_font_unscii_8.o
 .debug_aranges
                0x000011f0       0x18 .\CortexM3\ARM_GCC_541\Debug\lv_font_montserrat_8.o
 .debug_aranges
                0x00001208       0x18 .\CortexM3\ARM_GCC_541\Debug\lv_font_montserrat_10.o
 .debug_aranges
                0x00001220       0x18 .\CortexM3\ARM_GCC_541\Debug\lv_gpu_stm32_dma2d.o
 .debug_aranges
                0x00001238       0xb8 .\CortexM3\ARM_GCC_541\Debug\lv_hal_disp.o
 .debug_aranges
                0x000012f0       0x40 .\CortexM3\ARM_GCC_541\Debug\lv_hal_indev.o
 .debug_aranges
                0x00001330       0x30 .\CortexM3\ARM_GCC_541\Debug\lv_hal_tick.o
 .debug_aranges
                0x00001360       0xa8 .\CortexM3\ARM_GCC_541\Debug\lv_anim.o
 .debug_aranges
                0x00001408       0x78 .\CortexM3\ARM_GCC_541\Debug\lv_area.o
 .debug_aranges
                0x00001480       0x28 .\CortexM3\ARM_GCC_541\Debug\lv_async.o
 .debug_aranges
                0x000014a8       0x18 .\CortexM3\ARM_GCC_541\Debug\lv_bidi.o
 .debug_aranges
                0x000014c0       0x48 .\CortexM3\ARM_GCC_541\Debug\lv_color.o
 .debug_aranges
                0x00001508       0x38 .\CortexM3\ARM_GCC_541\Debug\lv_debug.o
 .debug_aranges
                0x00001540       0x18 .\CortexM3\ARM_GCC_541\Debug\lv_fs.o
 .debug_aranges
                0x00001558       0x20 .\CortexM3\ARM_GCC_541\Debug\lv_gc.o
 .debug_aranges
                0x00001578       0x98 .\CortexM3\ARM_GCC_541\Debug\lv_ll.o
 .debug_aranges
                0x00001610       0x18 .\CortexM3\ARM_GCC_541\Debug\lv_log.o
 .debug_aranges
                0x00001628       0x48 .\CortexM3\ARM_GCC_541\Debug\lv_math.o
 .debug_aranges
                0x00001670       0xb0 .\CortexM3\ARM_GCC_541\Debug\lv_mem.o
 .debug_aranges
                0x00001720       0x68 .\CortexM3\ARM_GCC_541\Debug\lv_printf.o
 .debug_aranges
                0x00001788       0x98 .\CortexM3\ARM_GCC_541\Debug\lv_task.o
 .debug_aranges
                0x00001820       0x18 .\CortexM3\ARM_GCC_541\Debug\lv_templ.o
 .debug_aranges
                0x00001838       0x90 .\CortexM3\ARM_GCC_541\Debug\lv_txt.o
 .debug_aranges
                0x000018c8       0x18 .\CortexM3\ARM_GCC_541\Debug\lv_txt_ap.o
 .debug_aranges
                0x000018e0       0x28 .\CortexM3\ARM_GCC_541\Debug\lv_utils.o
 .debug_aranges
                0x00001908       0x90 .\CortexM3\ARM_GCC_541\Debug\lv_theme.o
 .debug_aranges
                0x00001998       0x18 .\CortexM3\ARM_GCC_541\Debug\lv_theme_empty.o
 .debug_aranges
                0x000019b0       0x70 .\CortexM3\ARM_GCC_541\Debug\lv_theme_material.o
 .debug_aranges
                0x00001a20       0x18 .\CortexM3\ARM_GCC_541\Debug\lv_theme_mono.o
 .debug_aranges
                0x00001a38       0x18 .\CortexM3\ARM_GCC_541\Debug\lv_theme_template.o
 .debug_aranges
                0x00001a50       0x18 .\CortexM3\ARM_GCC_541\Debug\lv_arc.o
 .debug_aranges
                0x00001a68       0x18 .\CortexM3\ARM_GCC_541\Debug\lv_bar.o
 .debug_aranges
                0x00001a80       0x58 .\CortexM3\ARM_GCC_541\Debug\lv_btn.o
 .debug_aranges
                0x00001ad8      0x138 .\CortexM3\ARM_GCC_541\Debug\lv_btnmatrix.o
 .debug_aranges
                0x00001c10       0x18 .\CortexM3\ARM_GCC_541\Debug\lv_calendar.o
 .debug_aranges
                0x00001c28       0x18 .\CortexM3\ARM_GCC_541\Debug\lv_canvas.o
 .debug_aranges
                0x00001c40       0x18 .\CortexM3\ARM_GCC_541\Debug\lv_chart.o
 .debug_aranges
                0x00001c58       0x60 .\CortexM3\ARM_GCC_541\Debug\lv_checkbox.o
 .debug_aranges
                0x00001cb8       0xa0 .\CortexM3\ARM_GCC_541\Debug\lv_cont.o
 .debug_aranges
                0x00001d58       0x18 .\CortexM3\ARM_GCC_541\Debug\lv_cpicker.o
 .debug_aranges
                0x00001d70      0x130 .\CortexM3\ARM_GCC_541\Debug\lv_dropdown.o
 .debug_aranges
                0x00001ea0       0x18 .\CortexM3\ARM_GCC_541\Debug\lv_gauge.o
 .debug_aranges
                0x00001eb8       0x18 .\CortexM3\ARM_GCC_541\Debug\lv_img.o
 .debug_aranges
                0x00001ed0       0x18 .\CortexM3\ARM_GCC_541\Debug\lv_imgbtn.o
 .debug_aranges
                0x00001ee8       0x18 .\CortexM3\ARM_GCC_541\Debug\lv_keyboard.o
 .debug_aranges
                0x00001f00      0x120 .\CortexM3\ARM_GCC_541\Debug\lv_label.o
 .debug_aranges
                0x00002020       0x58 .\CortexM3\ARM_GCC_541\Debug\lv_led.o
 .debug_aranges
                0x00002078       0x58 .\CortexM3\ARM_GCC_541\Debug\lv_line.o
 .debug_aranges
                0x000020d0       0x18 .\CortexM3\ARM_GCC_541\Debug\lv_linemeter.o
 .debug_aranges
                0x000020e8       0x18 .\CortexM3\ARM_GCC_541\Debug\lv_list.o
 .debug_aranges
                0x00002100       0x18 .\CortexM3\ARM_GCC_541\Debug\lv_msgbox.o
 .debug_aranges
                0x00002118       0x50 .\CortexM3\ARM_GCC_541\Debug\lv_objmask.o
 .debug_aranges
                0x00002168       0x18 .\CortexM3\ARM_GCC_541\Debug\lv_objx_templ.o
 .debug_aranges
                0x00002180      0x118 .\CortexM3\ARM_GCC_541\Debug\lv_page.o
 .debug_aranges
                0x00002298       0x18 .\CortexM3\ARM_GCC_541\Debug\lv_roller.o
 .debug_aranges
                0x000022b0       0x18 .\CortexM3\ARM_GCC_541\Debug\lv_slider.o
 .debug_aranges
                0x000022c8       0x98 .\CortexM3\ARM_GCC_541\Debug\lv_spinbox.o
 .debug_aranges
                0x00002360       0x18 .\CortexM3\ARM_GCC_541\Debug\lv_spinner.o
 .debug_aranges
                0x00002378       0x18 .\CortexM3\ARM_GCC_541\Debug\lv_switch.o
 .debug_aranges
                0x00002390       0x18 .\CortexM3\ARM_GCC_541\Debug\lv_table.o
 .debug_aranges
                0x000023a8       0xc0 .\CortexM3\ARM_GCC_541\Debug\lv_tabview.o
 .debug_aranges
                0x00002468      0x1b8 .\CortexM3\ARM_GCC_541\Debug\lv_textarea.o
 .debug_aranges
                0x00002620       0x18 .\CortexM3\ARM_GCC_541\Debug\lv_tileview.o
 .debug_aranges
                0x00002638       0x18 .\CortexM3\ARM_GCC_541\Debug\lv_win.o
 .debug_aranges
                0x00002650       0x58 .\CortexM3\ARM_GCC_541\Debug\spi_dma.o
 .debug_aranges
                0x000026a8       0x48 .\CortexM3\ARM_GCC_541\Debug\psoc_platform.o
 .debug_aranges
                0x000026f0       0x58 .\CortexM3\ARM_GCC_541\Debug\cyfitter_cfg.o
 .debug_aranges
                0x00002748       0x18 .\CortexM3\ARM_GCC_541\Debug\cymetadata.o
 .debug_aranges
                0x00002760       0x48 .\CortexM3\ARM_GCC_541\Debug\Cm3Start.o
 .debug_aranges
                0x000027a8       0xd8 .\CortexM3\ARM_GCC_541\Debug\ili9341_master.a(SPI.o)
 .debug_aranges
                0x00002880       0x38 .\CortexM3\ARM_GCC_541\Debug\ili9341_master.a(DISP_RST.o)
 .debug_aranges
                0x000028b8       0x70 .\CortexM3\ARM_GCC_541\Debug\ili9341_master.a(SPI_IntClock.o)
 .debug_aranges
                0x00002928       0xd8 .\CortexM3\ARM_GCC_541\Debug\ili9341_master.a(CyDmac.o)
 .debug_aranges
                0x00002a00      0x2a0 .\CortexM3\ARM_GCC_541\Debug\ili9341_master.a(CyLib.o)
 .debug_aranges
                0x00002ca0       0x98 .\CortexM3\ARM_GCC_541\Debug\ili9341_master.a(cyPm.o)
 .debug_aranges
                0x00002d38       0x38 .\CortexM3\ARM_GCC_541\Debug\ili9341_master.a(DISP_BCKL.o)
 .debug_aranges
                0x00002d70       0x38 .\CortexM3\ARM_GCC_541\Debug\ili9341_master.a(DISP_DC.o)
 .debug_aranges
                0x00002da8       0x28 .\CortexM3\ARM_GCC_541\Debug\ili9341_master.a(DMA_Tx_dma.o)
 .debug_aranges
                0x00002dd0       0x50 .\CortexM3\ARM_GCC_541\Debug\ili9341_master.a(UART.o)
 .debug_aranges
                0x00002e20       0x80 .\CortexM3\ARM_GCC_541\Debug\ili9341_master.a(isr_SPI_TX_DMA.o)
 .debug_aranges
                0x00002ea0       0x80 .\CortexM3\ARM_GCC_541\Debug\ili9341_master.a(isr_SPI_TX.o)
 .debug_aranges
                0x00002f20       0x38 .\CortexM3\ARM_GCC_541\Debug\ili9341_master.a(SS.o)
 .debug_aranges
                0x00002f58       0x60 .\CortexM3\ARM_GCC_541\Debug\ili9341_master.a(QuadDec.o)
 .debug_aranges
                0x00002fb8       0x98 .\CortexM3\ARM_GCC_541\Debug\ili9341_master.a(QuadDec_Cnt8.o)
 .debug_aranges
                0x00003050       0x38 .\CortexM3\ARM_GCC_541\Debug\ili9341_master.a(QuadDec_SW.o)
 .debug_aranges
                0x00003088       0x20 .\CortexM3\ARM_GCC_541\Debug\ili9341_master.a(CyBootAsmGnu.o)
 .debug_aranges
                0x000030a8       0x20 .\CortexM3\ARM_GCC_541\Debug\ili9341_master.a(UART_AsmGnu.o)
 .debug_aranges
                0x000030c8       0x88 .\CortexM3\ARM_GCC_541\Debug\ili9341_master.a(CyFlash.o)
 .debug_aranges
                0x00003150       0x80 .\CortexM3\ARM_GCC_541\Debug\ili9341_master.a(CySpc.o)

.debug_pubnames
 *(.debug_pubnames)

.debug_info     0x00000000    0x7d204
 *(.debug_info .gnu.linkonce.wi.*)
 .debug_info    0x00000000     0x2f8c .\CortexM3\ARM_GCC_541\Debug\main.o
 .debug_info    0x00002f8c      0xdb5 .\CortexM3\ARM_GCC_541\Debug\disp_spi.o
 .debug_info    0x00003d41      0xddd .\CortexM3\ARM_GCC_541\Debug\ili9341.o
 .debug_info    0x00004b1e     0x20f0 .\CortexM3\ARM_GCC_541\Debug\lv_disp.o
 .debug_info    0x00006c0e     0x154b .\CortexM3\ARM_GCC_541\Debug\lv_group.o
 .debug_info    0x00008159     0x3399 .\CortexM3\ARM_GCC_541\Debug\lv_indev.o
 .debug_info    0x0000b4f2     0xe8af .\CortexM3\ARM_GCC_541\Debug\lv_obj.o
 .debug_info    0x00019da1     0x23f5 .\CortexM3\ARM_GCC_541\Debug\lv_refr.o
 .debug_info    0x0001c196     0x32f9 .\CortexM3\ARM_GCC_541\Debug\lv_style.o
 .debug_info    0x0001f48f     0x1351 .\CortexM3\ARM_GCC_541\Debug\lv_draw_arc.o
 .debug_info    0x000207e0     0x226b .\CortexM3\ARM_GCC_541\Debug\lv_draw_blend.o
 .debug_info    0x00022a4b     0x2918 .\CortexM3\ARM_GCC_541\Debug\lv_draw_img.o
 .debug_info    0x00025363     0x2532 .\CortexM3\ARM_GCC_541\Debug\lv_draw_label.o
 .debug_info    0x00027895     0x1f70 .\CortexM3\ARM_GCC_541\Debug\lv_draw_line.o
 .debug_info    0x00029805     0x1ed3 .\CortexM3\ARM_GCC_541\Debug\lv_draw_mask.o
 .debug_info    0x0002b6d8     0x4752 .\CortexM3\ARM_GCC_541\Debug\lv_draw_rect.o
 .debug_info    0x0002fe2a      0x9fa .\CortexM3\ARM_GCC_541\Debug\lv_draw_triangle.o
 .debug_info    0x00030824     0x158a .\CortexM3\ARM_GCC_541\Debug\lv_img_buf.o
 .debug_info    0x00031dae      0x778 .\CortexM3\ARM_GCC_541\Debug\lv_img_cache.o
 .debug_info    0x00032526     0x1299 .\CortexM3\ARM_GCC_541\Debug\lv_img_decoder.o
 .debug_info    0x000337bf      0x3a1 .\CortexM3\ARM_GCC_541\Debug\lv_font.o
 .debug_info    0x00033b60       0x80 .\CortexM3\ARM_GCC_541\Debug\lv_font_dejavu_16_persian_hebrew.o
 .debug_info    0x00033be0     0x17ae .\CortexM3\ARM_GCC_541\Debug\lv_font_fmt_txt.o
 .debug_info    0x0003538e       0x80 .\CortexM3\ARM_GCC_541\Debug\lv_font_loader.o
 .debug_info    0x0003540e      0x692 .\CortexM3\ARM_GCC_541\Debug\lv_font_montserrat_12.o
 .debug_info    0x00035aa0       0x80 .\CortexM3\ARM_GCC_541\Debug\lv_font_montserrat_12_subpx.o
 .debug_info    0x00035b20       0x80 .\CortexM3\ARM_GCC_541\Debug\lv_font_montserrat_14.o
 .debug_info    0x00035ba0       0x80 .\CortexM3\ARM_GCC_541\Debug\lv_font_montserrat_16.o
 .debug_info    0x00035c20       0x80 .\CortexM3\ARM_GCC_541\Debug\lv_font_montserrat_18.o
 .debug_info    0x00035ca0       0x80 .\CortexM3\ARM_GCC_541\Debug\lv_font_montserrat_20.o
 .debug_info    0x00035d20       0x80 .\CortexM3\ARM_GCC_541\Debug\lv_font_montserrat_22.o
 .debug_info    0x00035da0       0x80 .\CortexM3\ARM_GCC_541\Debug\lv_font_montserrat_24.o
 .debug_info    0x00035e20       0x80 .\CortexM3\ARM_GCC_541\Debug\lv_font_montserrat_26.o
 .debug_info    0x00035ea0       0x80 .\CortexM3\ARM_GCC_541\Debug\lv_font_montserrat_28.o
 .debug_info    0x00035f20       0x80 .\CortexM3\ARM_GCC_541\Debug\lv_font_montserrat_28_compressed.o
 .debug_info    0x00035fa0       0x80 .\CortexM3\ARM_GCC_541\Debug\lv_font_montserrat_30.o
 .debug_info    0x00036020       0x80 .\CortexM3\ARM_GCC_541\Debug\lv_font_montserrat_32.o
 .debug_info    0x000360a0       0x80 .\CortexM3\ARM_GCC_541\Debug\lv_font_montserrat_34.o
 .debug_info    0x00036120       0x80 .\CortexM3\ARM_GCC_541\Debug\lv_font_montserrat_36.o
 .debug_info    0x000361a0       0x80 .\CortexM3\ARM_GCC_541\Debug\lv_font_montserrat_38.o
 .debug_info    0x00036220       0x80 .\CortexM3\ARM_GCC_541\Debug\lv_font_montserrat_40.o
 .debug_info    0x000362a0       0x80 .\CortexM3\ARM_GCC_541\Debug\lv_font_montserrat_42.o
 .debug_info    0x00036320       0x80 .\CortexM3\ARM_GCC_541\Debug\lv_font_montserrat_44.o
 .debug_info    0x000363a0       0x80 .\CortexM3\ARM_GCC_541\Debug\lv_font_montserrat_46.o
 .debug_info    0x00036420       0x80 .\CortexM3\ARM_GCC_541\Debug\lv_font_montserrat_48.o
 .debug_info    0x000364a0       0x80 .\CortexM3\ARM_GCC_541\Debug\lv_font_simsun_16_cjk.o
 .debug_info    0x00036520       0x80 .\CortexM3\ARM_GCC_541\Debug\lv_font_unscii_8.o
 .debug_info    0x000365a0       0x80 .\CortexM3\ARM_GCC_541\Debug\lv_font_montserrat_8.o
 .debug_info    0x00036620       0x80 .\CortexM3\ARM_GCC_541\Debug\lv_font_montserrat_10.o
 .debug_info    0x000366a0       0x80 .\CortexM3\ARM_GCC_541\Debug\lv_gpu_stm32_dma2d.o
 .debug_info    0x00036720     0x16cb .\CortexM3\ARM_GCC_541\Debug\lv_hal_disp.o
 .debug_info    0x00037deb     0x11ea .\CortexM3\ARM_GCC_541\Debug\lv_hal_indev.o
 .debug_info    0x00038fd5      0x153 .\CortexM3\ARM_GCC_541\Debug\lv_hal_tick.o
 .debug_info    0x00039128      0xe57 .\CortexM3\ARM_GCC_541\Debug\lv_anim.o
 .debug_info    0x00039f7f      0xe42 .\CortexM3\ARM_GCC_541\Debug\lv_area.o
 .debug_info    0x0003adc1      0x316 .\CortexM3\ARM_GCC_541\Debug\lv_async.o
 .debug_info    0x0003b0d7       0x80 .\CortexM3\ARM_GCC_541\Debug\lv_bidi.o
 .debug_info    0x0003b157      0x630 .\CortexM3\ARM_GCC_541\Debug\lv_color.o
 .debug_info    0x0003b787      0x2f8 .\CortexM3\ARM_GCC_541\Debug\lv_debug.o
 .debug_info    0x0003ba7f       0x64 .\CortexM3\ARM_GCC_541\Debug\lv_fs.o
 .debug_info    0x0003bae3      0x89e .\CortexM3\ARM_GCC_541\Debug\lv_gc.o
 .debug_info    0x0003c381      0xa51 .\CortexM3\ARM_GCC_541\Debug\lv_ll.o
 .debug_info    0x0003cdd2       0x64 .\CortexM3\ARM_GCC_541\Debug\lv_log.o
 .debug_info    0x0003ce36      0x420 .\CortexM3\ARM_GCC_541\Debug\lv_math.o
 .debug_info    0x0003d256      0xb41 .\CortexM3\ARM_GCC_541\Debug\lv_mem.o
 .debug_info    0x0003dd97      0xd5e .\CortexM3\ARM_GCC_541\Debug\lv_printf.o
 .debug_info    0x0003eaf5      0x980 .\CortexM3\ARM_GCC_541\Debug\lv_task.o
 .debug_info    0x0003f475       0x25 .\CortexM3\ARM_GCC_541\Debug\lv_templ.o
 .debug_info    0x0003f49a      0xf41 .\CortexM3\ARM_GCC_541\Debug\lv_txt.o
 .debug_info    0x000403db       0x80 .\CortexM3\ARM_GCC_541\Debug\lv_txt_ap.o
 .debug_info    0x0004045b      0x217 .\CortexM3\ARM_GCC_541\Debug\lv_utils.o
 .debug_info    0x00040672     0x111b .\CortexM3\ARM_GCC_541\Debug\lv_theme.o
 .debug_info    0x0004178d       0x80 .\CortexM3\ARM_GCC_541\Debug\lv_theme_empty.o
 .debug_info    0x0004180d     0x73ae .\CortexM3\ARM_GCC_541\Debug\lv_theme_material.o
 .debug_info    0x00048bbb       0x80 .\CortexM3\ARM_GCC_541\Debug\lv_theme_mono.o
 .debug_info    0x00048c3b       0x80 .\CortexM3\ARM_GCC_541\Debug\lv_theme_template.o
 .debug_info    0x00048cbb       0x64 .\CortexM3\ARM_GCC_541\Debug\lv_arc.o
 .debug_info    0x00048d1f       0x64 .\CortexM3\ARM_GCC_541\Debug\lv_bar.o
 .debug_info    0x00048d83     0x1413 .\CortexM3\ARM_GCC_541\Debug\lv_btn.o
 .debug_info    0x0004a196     0x48b6 .\CortexM3\ARM_GCC_541\Debug\lv_btnmatrix.o
 .debug_info    0x0004ea4c       0x64 .\CortexM3\ARM_GCC_541\Debug\lv_calendar.o
 .debug_info    0x0004eab0       0x80 .\CortexM3\ARM_GCC_541\Debug\lv_canvas.o
 .debug_info    0x0004eb30       0x64 .\CortexM3\ARM_GCC_541\Debug\lv_chart.o
 .debug_info    0x0004eb94     0x1c40 .\CortexM3\ARM_GCC_541\Debug\lv_checkbox.o
 .debug_info    0x000507d4     0x3248 .\CortexM3\ARM_GCC_541\Debug\lv_cont.o
 .debug_info    0x00053a1c       0x64 .\CortexM3\ARM_GCC_541\Debug\lv_cpicker.o
 .debug_info    0x00053a80     0x5409 .\CortexM3\ARM_GCC_541\Debug\lv_dropdown.o
 .debug_info    0x00058e89       0x64 .\CortexM3\ARM_GCC_541\Debug\lv_gauge.o
 .debug_info    0x00058eed       0x64 .\CortexM3\ARM_GCC_541\Debug\lv_img.o
 .debug_info    0x00058f51       0x80 .\CortexM3\ARM_GCC_541\Debug\lv_imgbtn.o
 .debug_info    0x00058fd1       0x64 .\CortexM3\ARM_GCC_541\Debug\lv_keyboard.o
 .debug_info    0x00059035     0x50b4 .\CortexM3\ARM_GCC_541\Debug\lv_label.o
 .debug_info    0x0005e0e9     0x14c3 .\CortexM3\ARM_GCC_541\Debug\lv_led.o
 .debug_info    0x0005f5ac     0x1562 .\CortexM3\ARM_GCC_541\Debug\lv_line.o
 .debug_info    0x00060b0e       0x64 .\CortexM3\ARM_GCC_541\Debug\lv_linemeter.o
 .debug_info    0x00060b72       0x64 .\CortexM3\ARM_GCC_541\Debug\lv_list.o
 .debug_info    0x00060bd6       0x64 .\CortexM3\ARM_GCC_541\Debug\lv_msgbox.o
 .debug_info    0x00060c3a     0x1916 .\CortexM3\ARM_GCC_541\Debug\lv_objmask.o
 .debug_info    0x00062550       0x64 .\CortexM3\ARM_GCC_541\Debug\lv_objx_templ.o
 .debug_info    0x000625b4     0x5b99 .\CortexM3\ARM_GCC_541\Debug\lv_page.o
 .debug_info    0x0006814d       0x64 .\CortexM3\ARM_GCC_541\Debug\lv_roller.o
 .debug_info    0x000681b1       0x64 .\CortexM3\ARM_GCC_541\Debug\lv_slider.o
 .debug_info    0x00068215     0x25e3 .\CortexM3\ARM_GCC_541\Debug\lv_spinbox.o
 .debug_info    0x0006a7f8       0x64 .\CortexM3\ARM_GCC_541\Debug\lv_spinner.o
 .debug_info    0x0006a85c       0x64 .\CortexM3\ARM_GCC_541\Debug\lv_switch.o
 .debug_info    0x0006a8c0       0x64 .\CortexM3\ARM_GCC_541\Debug\lv_table.o
 .debug_info    0x0006a924     0x49f6 .\CortexM3\ARM_GCC_541\Debug\lv_tabview.o
 .debug_info    0x0006f31a     0x759c .\CortexM3\ARM_GCC_541\Debug\lv_textarea.o
 .debug_info    0x000768b6       0x64 .\CortexM3\ARM_GCC_541\Debug\lv_tileview.o
 .debug_info    0x0007691a       0x64 .\CortexM3\ARM_GCC_541\Debug\lv_win.o
 .debug_info    0x0007697e      0x6e8 .\CortexM3\ARM_GCC_541\Debug\spi_dma.o
 .debug_info    0x00077066      0x62f .\CortexM3\ARM_GCC_541\Debug\psoc_platform.o
 .debug_info    0x00077695      0x5e9 .\CortexM3\ARM_GCC_541\Debug\cyfitter_cfg.o
 .debug_info    0x00077c7e      0x139 .\CortexM3\ARM_GCC_541\Debug\cymetadata.o
 .debug_info    0x00077db7      0x3cf .\CortexM3\ARM_GCC_541\Debug\Cm3Start.o
 .debug_info    0x00078186      0x4bb .\CortexM3\ARM_GCC_541\Debug\ili9341_master.a(SPI.o)
 .debug_info    0x00078641      0x11f .\CortexM3\ARM_GCC_541\Debug\ili9341_master.a(DISP_RST.o)
 .debug_info    0x00078760      0x283 .\CortexM3\ARM_GCC_541\Debug\ili9341_master.a(SPI_IntClock.o)
 .debug_info    0x000789e3      0x94e .\CortexM3\ARM_GCC_541\Debug\ili9341_master.a(CyDmac.o)
 .debug_info    0x00079331     0x1374 .\CortexM3\ARM_GCC_541\Debug\ili9341_master.a(CyLib.o)
 .debug_info    0x0007a6a5      0xa2a .\CortexM3\ARM_GCC_541\Debug\ili9341_master.a(cyPm.o)
 .debug_info    0x0007b0cf      0x11f .\CortexM3\ARM_GCC_541\Debug\ili9341_master.a(DISP_BCKL.o)
 .debug_info    0x0007b1ee      0x11f .\CortexM3\ARM_GCC_541\Debug\ili9341_master.a(DISP_DC.o)
 .debug_info    0x0007b30d      0x1aa .\CortexM3\ARM_GCC_541\Debug\ili9341_master.a(DMA_Tx_dma.o)
 .debug_info    0x0007b4b7      0x2c4 .\CortexM3\ARM_GCC_541\Debug\ili9341_master.a(UART.o)
 .debug_info    0x0007b77b      0x2d2 .\CortexM3\ARM_GCC_541\Debug\ili9341_master.a(isr_SPI_TX_DMA.o)
 .debug_info    0x0007ba4d      0x2d2 .\CortexM3\ARM_GCC_541\Debug\ili9341_master.a(isr_SPI_TX.o)
 .debug_info    0x0007bd1f      0x11f .\CortexM3\ARM_GCC_541\Debug\ili9341_master.a(SS.o)
 .debug_info    0x0007be3e      0x2c7 .\CortexM3\ARM_GCC_541\Debug\ili9341_master.a(QuadDec.o)
 .debug_info    0x0007c105      0x328 .\CortexM3\ARM_GCC_541\Debug\ili9341_master.a(QuadDec_Cnt8.o)
 .debug_info    0x0007c42d      0x11f .\CortexM3\ARM_GCC_541\Debug\ili9341_master.a(QuadDec_SW.o)
 .debug_info    0x0007c54c       0x8e .\CortexM3\ARM_GCC_541\Debug\ili9341_master.a(CyBootAsmGnu.o)
 .debug_info    0x0007c5da       0x8d .\CortexM3\ARM_GCC_541\Debug\ili9341_master.a(UART_AsmGnu.o)
 .debug_info    0x0007c667      0x64d .\CortexM3\ARM_GCC_541\Debug\ili9341_master.a(CyFlash.o)
 .debug_info    0x0007ccb4      0x550 .\CortexM3\ARM_GCC_541\Debug\ili9341_master.a(CySpc.o)

.debug_abbrev   0x00000000     0xc0e3
 *(.debug_abbrev)
 .debug_abbrev  0x00000000      0x335 .\CortexM3\ARM_GCC_541\Debug\main.o
 .debug_abbrev  0x00000335      0x255 .\CortexM3\ARM_GCC_541\Debug\disp_spi.o
 .debug_abbrev  0x0000058a      0x29a .\CortexM3\ARM_GCC_541\Debug\ili9341.o
 .debug_abbrev  0x00000824      0x380 .\CortexM3\ARM_GCC_541\Debug\lv_disp.o
 .debug_abbrev  0x00000ba4      0x292 .\CortexM3\ARM_GCC_541\Debug\lv_group.o
 .debug_abbrev  0x00000e36      0x377 .\CortexM3\ARM_GCC_541\Debug\lv_indev.o
 .debug_abbrev  0x000011ad      0x4bf .\CortexM3\ARM_GCC_541\Debug\lv_obj.o
 .debug_abbrev  0x0000166c      0x3eb .\CortexM3\ARM_GCC_541\Debug\lv_refr.o
 .debug_abbrev  0x00001a57      0x36d .\CortexM3\ARM_GCC_541\Debug\lv_style.o
 .debug_abbrev  0x00001dc4      0x278 .\CortexM3\ARM_GCC_541\Debug\lv_draw_arc.o
 .debug_abbrev  0x0000203c      0x3e2 .\CortexM3\ARM_GCC_541\Debug\lv_draw_blend.o
 .debug_abbrev  0x0000241e      0x41d .\CortexM3\ARM_GCC_541\Debug\lv_draw_img.o
 .debug_abbrev  0x0000283b      0x3be .\CortexM3\ARM_GCC_541\Debug\lv_draw_label.o
 .debug_abbrev  0x00002bf9      0x312 .\CortexM3\ARM_GCC_541\Debug\lv_draw_line.o
 .debug_abbrev  0x00002f0b      0x3b9 .\CortexM3\ARM_GCC_541\Debug\lv_draw_mask.o
 .debug_abbrev  0x000032c4      0x421 .\CortexM3\ARM_GCC_541\Debug\lv_draw_rect.o
 .debug_abbrev  0x000036e5      0x1a0 .\CortexM3\ARM_GCC_541\Debug\lv_draw_triangle.o
 .debug_abbrev  0x00003885      0x35b .\CortexM3\ARM_GCC_541\Debug\lv_img_buf.o
 .debug_abbrev  0x00003be0      0x202 .\CortexM3\ARM_GCC_541\Debug\lv_img_cache.o
 .debug_abbrev  0x00003de2      0x338 .\CortexM3\ARM_GCC_541\Debug\lv_img_decoder.o
 .debug_abbrev  0x0000411a      0x14b .\CortexM3\ARM_GCC_541\Debug\lv_font.o
 .debug_abbrev  0x00004265       0x26 .\CortexM3\ARM_GCC_541\Debug\lv_font_dejavu_16_persian_hebrew.o
 .debug_abbrev  0x0000428b      0x349 .\CortexM3\ARM_GCC_541\Debug\lv_font_fmt_txt.o
 .debug_abbrev  0x000045d4       0x26 .\CortexM3\ARM_GCC_541\Debug\lv_font_loader.o
 .debug_abbrev  0x000045fa      0x134 .\CortexM3\ARM_GCC_541\Debug\lv_font_montserrat_12.o
 .debug_abbrev  0x0000472e       0x26 .\CortexM3\ARM_GCC_541\Debug\lv_font_montserrat_12_subpx.o
 .debug_abbrev  0x00004754       0x26 .\CortexM3\ARM_GCC_541\Debug\lv_font_montserrat_14.o
 .debug_abbrev  0x0000477a       0x26 .\CortexM3\ARM_GCC_541\Debug\lv_font_montserrat_16.o
 .debug_abbrev  0x000047a0       0x26 .\CortexM3\ARM_GCC_541\Debug\lv_font_montserrat_18.o
 .debug_abbrev  0x000047c6       0x26 .\CortexM3\ARM_GCC_541\Debug\lv_font_montserrat_20.o
 .debug_abbrev  0x000047ec       0x26 .\CortexM3\ARM_GCC_541\Debug\lv_font_montserrat_22.o
 .debug_abbrev  0x00004812       0x26 .\CortexM3\ARM_GCC_541\Debug\lv_font_montserrat_24.o
 .debug_abbrev  0x00004838       0x26 .\CortexM3\ARM_GCC_541\Debug\lv_font_montserrat_26.o
 .debug_abbrev  0x0000485e       0x26 .\CortexM3\ARM_GCC_541\Debug\lv_font_montserrat_28.o
 .debug_abbrev  0x00004884       0x26 .\CortexM3\ARM_GCC_541\Debug\lv_font_montserrat_28_compressed.o
 .debug_abbrev  0x000048aa       0x26 .\CortexM3\ARM_GCC_541\Debug\lv_font_montserrat_30.o
 .debug_abbrev  0x000048d0       0x26 .\CortexM3\ARM_GCC_541\Debug\lv_font_montserrat_32.o
 .debug_abbrev  0x000048f6       0x26 .\CortexM3\ARM_GCC_541\Debug\lv_font_montserrat_34.o
 .debug_abbrev  0x0000491c       0x26 .\CortexM3\ARM_GCC_541\Debug\lv_font_montserrat_36.o
 .debug_abbrev  0x00004942       0x26 .\CortexM3\ARM_GCC_541\Debug\lv_font_montserrat_38.o
 .debug_abbrev  0x00004968       0x26 .\CortexM3\ARM_GCC_541\Debug\lv_font_montserrat_40.o
 .debug_abbrev  0x0000498e       0x26 .\CortexM3\ARM_GCC_541\Debug\lv_font_montserrat_42.o
 .debug_abbrev  0x000049b4       0x26 .\CortexM3\ARM_GCC_541\Debug\lv_font_montserrat_44.o
 .debug_abbrev  0x000049da       0x26 .\CortexM3\ARM_GCC_541\Debug\lv_font_montserrat_46.o
 .debug_abbrev  0x00004a00       0x26 .\CortexM3\ARM_GCC_541\Debug\lv_font_montserrat_48.o
 .debug_abbrev  0x00004a26       0x26 .\CortexM3\ARM_GCC_541\Debug\lv_font_simsun_16_cjk.o
 .debug_abbrev  0x00004a4c       0x26 .\CortexM3\ARM_GCC_541\Debug\lv_font_unscii_8.o
 .debug_abbrev  0x00004a72       0x26 .\CortexM3\ARM_GCC_541\Debug\lv_font_montserrat_8.o
 .debug_abbrev  0x00004a98       0x26 .\CortexM3\ARM_GCC_541\Debug\lv_font_montserrat_10.o
 .debug_abbrev  0x00004abe       0x26 .\CortexM3\ARM_GCC_541\Debug\lv_gpu_stm32_dma2d.o
 .debug_abbrev  0x00004ae4      0x2f1 .\CortexM3\ARM_GCC_541\Debug\lv_hal_disp.o
 .debug_abbrev  0x00004dd5      0x227 .\CortexM3\ARM_GCC_541\Debug\lv_hal_indev.o
 .debug_abbrev  0x00004ffc       0xac .\CortexM3\ARM_GCC_541\Debug\lv_hal_tick.o
 .debug_abbrev  0x000050a8      0x329 .\CortexM3\ARM_GCC_541\Debug\lv_anim.o
 .debug_abbrev  0x000053d1      0x251 .\CortexM3\ARM_GCC_541\Debug\lv_area.o
 .debug_abbrev  0x00005622      0x147 .\CortexM3\ARM_GCC_541\Debug\lv_async.o
 .debug_abbrev  0x00005769       0x26 .\CortexM3\ARM_GCC_541\Debug\lv_bidi.o
 .debug_abbrev  0x0000578f      0x278 .\CortexM3\ARM_GCC_541\Debug\lv_color.o
 .debug_abbrev  0x00005a07      0x144 .\CortexM3\ARM_GCC_541\Debug\lv_debug.o
 .debug_abbrev  0x00005b4b       0x26 .\CortexM3\ARM_GCC_541\Debug\lv_fs.o
 .debug_abbrev  0x00005b71      0x178 .\CortexM3\ARM_GCC_541\Debug\lv_gc.o
 .debug_abbrev  0x00005ce9      0x1dd .\CortexM3\ARM_GCC_541\Debug\lv_ll.o
 .debug_abbrev  0x00005ec6       0x26 .\CortexM3\ARM_GCC_541\Debug\lv_log.o
 .debug_abbrev  0x00005eec      0x114 .\CortexM3\ARM_GCC_541\Debug\lv_math.o
 .debug_abbrev  0x00006000      0x28f .\CortexM3\ARM_GCC_541\Debug\lv_mem.o
 .debug_abbrev  0x0000628f      0x2b8 .\CortexM3\ARM_GCC_541\Debug\lv_printf.o
 .debug_abbrev  0x00006547      0x22e .\CortexM3\ARM_GCC_541\Debug\lv_task.o
 .debug_abbrev  0x00006775       0x1b .\CortexM3\ARM_GCC_541\Debug\lv_templ.o
 .debug_abbrev  0x00006790      0x3ab .\CortexM3\ARM_GCC_541\Debug\lv_txt.o
 .debug_abbrev  0x00006b3b       0x26 .\CortexM3\ARM_GCC_541\Debug\lv_txt_ap.o
 .debug_abbrev  0x00006b61       0xf5 .\CortexM3\ARM_GCC_541\Debug\lv_utils.o
 .debug_abbrev  0x00006c56      0x213 .\CortexM3\ARM_GCC_541\Debug\lv_theme.o
 .debug_abbrev  0x00006e69       0x26 .\CortexM3\ARM_GCC_541\Debug\lv_theme_empty.o
 .debug_abbrev  0x00006e8f      0x2af .\CortexM3\ARM_GCC_541\Debug\lv_theme_material.o
 .debug_abbrev  0x0000713e       0x26 .\CortexM3\ARM_GCC_541\Debug\lv_theme_mono.o
 .debug_abbrev  0x00007164       0x26 .\CortexM3\ARM_GCC_541\Debug\lv_theme_template.o
 .debug_abbrev  0x0000718a       0x26 .\CortexM3\ARM_GCC_541\Debug\lv_arc.o
 .debug_abbrev  0x000071b0       0x26 .\CortexM3\ARM_GCC_541\Debug\lv_bar.o
 .debug_abbrev  0x000071d6      0x2a5 .\CortexM3\ARM_GCC_541\Debug\lv_btn.o
 .debug_abbrev  0x0000747b      0x42e .\CortexM3\ARM_GCC_541\Debug\lv_btnmatrix.o
 .debug_abbrev  0x000078a9       0x26 .\CortexM3\ARM_GCC_541\Debug\lv_calendar.o
 .debug_abbrev  0x000078cf       0x26 .\CortexM3\ARM_GCC_541\Debug\lv_canvas.o
 .debug_abbrev  0x000078f5       0x26 .\CortexM3\ARM_GCC_541\Debug\lv_chart.o
 .debug_abbrev  0x0000791b      0x2f1 .\CortexM3\ARM_GCC_541\Debug\lv_checkbox.o
 .debug_abbrev  0x00007c0c      0x3a2 .\CortexM3\ARM_GCC_541\Debug\lv_cont.o
 .debug_abbrev  0x00007fae       0x26 .\CortexM3\ARM_GCC_541\Debug\lv_cpicker.o
 .debug_abbrev  0x00007fd4      0x411 .\CortexM3\ARM_GCC_541\Debug\lv_dropdown.o
 .debug_abbrev  0x000083e5       0x26 .\CortexM3\ARM_GCC_541\Debug\lv_gauge.o
 .debug_abbrev  0x0000840b       0x26 .\CortexM3\ARM_GCC_541\Debug\lv_img.o
 .debug_abbrev  0x00008431       0x26 .\CortexM3\ARM_GCC_541\Debug\lv_imgbtn.o
 .debug_abbrev  0x00008457       0x26 .\CortexM3\ARM_GCC_541\Debug\lv_keyboard.o
 .debug_abbrev  0x0000847d      0x47f .\CortexM3\ARM_GCC_541\Debug\lv_label.o
 .debug_abbrev  0x000088fc      0x2da .\CortexM3\ARM_GCC_541\Debug\lv_led.o
 .debug_abbrev  0x00008bd6      0x2e0 .\CortexM3\ARM_GCC_541\Debug\lv_line.o
 .debug_abbrev  0x00008eb6       0x26 .\CortexM3\ARM_GCC_541\Debug\lv_linemeter.o
 .debug_abbrev  0x00008edc       0x26 .\CortexM3\ARM_GCC_541\Debug\lv_list.o
 .debug_abbrev  0x00008f02       0x26 .\CortexM3\ARM_GCC_541\Debug\lv_msgbox.o
 .debug_abbrev  0x00008f28      0x282 .\CortexM3\ARM_GCC_541\Debug\lv_objmask.o
 .debug_abbrev  0x000091aa       0x26 .\CortexM3\ARM_GCC_541\Debug\lv_objx_templ.o
 .debug_abbrev  0x000091d0      0x46a .\CortexM3\ARM_GCC_541\Debug\lv_page.o
 .debug_abbrev  0x0000963a       0x26 .\CortexM3\ARM_GCC_541\Debug\lv_roller.o
 .debug_abbrev  0x00009660       0x26 .\CortexM3\ARM_GCC_541\Debug\lv_slider.o
 .debug_abbrev  0x00009686      0x367 .\CortexM3\ARM_GCC_541\Debug\lv_spinbox.o
 .debug_abbrev  0x000099ed       0x26 .\CortexM3\ARM_GCC_541\Debug\lv_spinner.o
 .debug_abbrev  0x00009a13       0x26 .\CortexM3\ARM_GCC_541\Debug\lv_switch.o
 .debug_abbrev  0x00009a39       0x26 .\CortexM3\ARM_GCC_541\Debug\lv_table.o
 .debug_abbrev  0x00009a5f      0x3c8 .\CortexM3\ARM_GCC_541\Debug\lv_tabview.o
 .debug_abbrev  0x00009e27      0x530 .\CortexM3\ARM_GCC_541\Debug\lv_textarea.o
 .debug_abbrev  0x0000a357       0x26 .\CortexM3\ARM_GCC_541\Debug\lv_tileview.o
 .debug_abbrev  0x0000a37d       0x26 .\CortexM3\ARM_GCC_541\Debug\lv_win.o
 .debug_abbrev  0x0000a3a3      0x1b1 .\CortexM3\ARM_GCC_541\Debug\spi_dma.o
 .debug_abbrev  0x0000a554      0x19c .\CortexM3\ARM_GCC_541\Debug\psoc_platform.o
 .debug_abbrev  0x0000a6f0      0x20d .\CortexM3\ARM_GCC_541\Debug\cyfitter_cfg.o
 .debug_abbrev  0x0000a8fd       0x77 .\CortexM3\ARM_GCC_541\Debug\cymetadata.o
 .debug_abbrev  0x0000a974      0x1e8 .\CortexM3\ARM_GCC_541\Debug\Cm3Start.o
 .debug_abbrev  0x0000ab5c      0x146 .\CortexM3\ARM_GCC_541\Debug\ili9341_master.a(SPI.o)
 .debug_abbrev  0x0000aca2       0x90 .\CortexM3\ARM_GCC_541\Debug\ili9341_master.a(DISP_RST.o)
 .debug_abbrev  0x0000ad32      0x139 .\CortexM3\ARM_GCC_541\Debug\ili9341_master.a(SPI_IntClock.o)
 .debug_abbrev  0x0000ae6b      0x1b2 .\CortexM3\ARM_GCC_541\Debug\ili9341_master.a(CyDmac.o)
 .debug_abbrev  0x0000b01d      0x254 .\CortexM3\ARM_GCC_541\Debug\ili9341_master.a(CyLib.o)
 .debug_abbrev  0x0000b271      0x1ab .\CortexM3\ARM_GCC_541\Debug\ili9341_master.a(cyPm.o)
 .debug_abbrev  0x0000b41c       0x90 .\CortexM3\ARM_GCC_541\Debug\ili9341_master.a(DISP_BCKL.o)
 .debug_abbrev  0x0000b4ac       0x90 .\CortexM3\ARM_GCC_541\Debug\ili9341_master.a(DISP_DC.o)
 .debug_abbrev  0x0000b53c       0xcd .\CortexM3\ARM_GCC_541\Debug\ili9341_master.a(DMA_Tx_dma.o)
 .debug_abbrev  0x0000b609      0x109 .\CortexM3\ARM_GCC_541\Debug\ili9341_master.a(UART.o)
 .debug_abbrev  0x0000b712      0x173 .\CortexM3\ARM_GCC_541\Debug\ili9341_master.a(isr_SPI_TX_DMA.o)
 .debug_abbrev  0x0000b885      0x173 .\CortexM3\ARM_GCC_541\Debug\ili9341_master.a(isr_SPI_TX.o)
 .debug_abbrev  0x0000b9f8       0x90 .\CortexM3\ARM_GCC_541\Debug\ili9341_master.a(SS.o)
 .debug_abbrev  0x0000ba88      0x151 .\CortexM3\ARM_GCC_541\Debug\ili9341_master.a(QuadDec.o)
 .debug_abbrev  0x0000bbd9      0x117 .\CortexM3\ARM_GCC_541\Debug\ili9341_master.a(QuadDec_Cnt8.o)
 .debug_abbrev  0x0000bcf0       0x90 .\CortexM3\ARM_GCC_541\Debug\ili9341_master.a(QuadDec_SW.o)
 .debug_abbrev  0x0000bd80       0x14 .\CortexM3\ARM_GCC_541\Debug\ili9341_master.a(CyBootAsmGnu.o)
 .debug_abbrev  0x0000bd94       0x14 .\CortexM3\ARM_GCC_541\Debug\ili9341_master.a(UART_AsmGnu.o)
 .debug_abbrev  0x0000bda8      0x1a7 .\CortexM3\ARM_GCC_541\Debug\ili9341_master.a(CyFlash.o)
 .debug_abbrev  0x0000bf4f      0x194 .\CortexM3\ARM_GCC_541\Debug\ili9341_master.a(CySpc.o)

.debug_line     0x00000000    0x1c9c3
 *(.debug_line)
 .debug_line    0x00000000      0x6d4 .\CortexM3\ARM_GCC_541\Debug\main.o
 .debug_line    0x000006d4      0x3be .\CortexM3\ARM_GCC_541\Debug\disp_spi.o
 .debug_line    0x00000a92      0x375 .\CortexM3\ARM_GCC_541\Debug\ili9341.o
 .debug_line    0x00000e07      0x5fc .\CortexM3\ARM_GCC_541\Debug\lv_disp.o
 .debug_line    0x00001403      0x561 .\CortexM3\ARM_GCC_541\Debug\lv_group.o
 .debug_line    0x00001964      0x9c6 .\CortexM3\ARM_GCC_541\Debug\lv_indev.o
 .debug_line    0x0000232a     0x27c3 .\CortexM3\ARM_GCC_541\Debug\lv_obj.o
 .debug_line    0x00004aed      0x7db .\CortexM3\ARM_GCC_541\Debug\lv_refr.o
 .debug_line    0x000052c8      0xbdc .\CortexM3\ARM_GCC_541\Debug\lv_style.o
 .debug_line    0x00005ea4      0x56b .\CortexM3\ARM_GCC_541\Debug\lv_draw_arc.o
 .debug_line    0x0000640f      0xb31 .\CortexM3\ARM_GCC_541\Debug\lv_draw_blend.o
 .debug_line    0x00006f40      0x821 .\CortexM3\ARM_GCC_541\Debug\lv_draw_img.o
 .debug_line    0x00007761      0x89e .\CortexM3\ARM_GCC_541\Debug\lv_draw_label.o
 .debug_line    0x00007fff      0x608 .\CortexM3\ARM_GCC_541\Debug\lv_draw_line.o
 .debug_line    0x00008607      0xaea .\CortexM3\ARM_GCC_541\Debug\lv_draw_mask.o
 .debug_line    0x000090f1     0x1010 .\CortexM3\ARM_GCC_541\Debug\lv_draw_rect.o
 .debug_line    0x0000a101      0x36e .\CortexM3\ARM_GCC_541\Debug\lv_draw_triangle.o
 .debug_line    0x0000a46f      0x588 .\CortexM3\ARM_GCC_541\Debug\lv_img_buf.o
 .debug_line    0x0000a9f7      0x398 .\CortexM3\ARM_GCC_541\Debug\lv_img_cache.o
 .debug_line    0x0000ad8f      0x688 .\CortexM3\ARM_GCC_541\Debug\lv_img_decoder.o
 .debug_line    0x0000b417      0x1a9 .\CortexM3\ARM_GCC_541\Debug\lv_font.o
 .debug_line    0x0000b5c0       0x1d .\CortexM3\ARM_GCC_541\Debug\lv_font_dejavu_16_persian_hebrew.o
 .debug_line    0x0000b5dd      0x66c .\CortexM3\ARM_GCC_541\Debug\lv_font_fmt_txt.o
 .debug_line    0x0000bc49       0x1d .\CortexM3\ARM_GCC_541\Debug\lv_font_loader.o
 .debug_line    0x0000bc66      0x27e .\CortexM3\ARM_GCC_541\Debug\lv_font_montserrat_12.o
 .debug_line    0x0000bee4       0x1d .\CortexM3\ARM_GCC_541\Debug\lv_font_montserrat_12_subpx.o
 .debug_line    0x0000bf01       0x1d .\CortexM3\ARM_GCC_541\Debug\lv_font_montserrat_14.o
 .debug_line    0x0000bf1e       0x1d .\CortexM3\ARM_GCC_541\Debug\lv_font_montserrat_16.o
 .debug_line    0x0000bf3b       0x1d .\CortexM3\ARM_GCC_541\Debug\lv_font_montserrat_18.o
 .debug_line    0x0000bf58       0x1d .\CortexM3\ARM_GCC_541\Debug\lv_font_montserrat_20.o
 .debug_line    0x0000bf75       0x1d .\CortexM3\ARM_GCC_541\Debug\lv_font_montserrat_22.o
 .debug_line    0x0000bf92       0x1d .\CortexM3\ARM_GCC_541\Debug\lv_font_montserrat_24.o
 .debug_line    0x0000bfaf       0x1d .\CortexM3\ARM_GCC_541\Debug\lv_font_montserrat_26.o
 .debug_line    0x0000bfcc       0x1d .\CortexM3\ARM_GCC_541\Debug\lv_font_montserrat_28.o
 .debug_line    0x0000bfe9       0x1d .\CortexM3\ARM_GCC_541\Debug\lv_font_montserrat_28_compressed.o
 .debug_line    0x0000c006       0x1d .\CortexM3\ARM_GCC_541\Debug\lv_font_montserrat_30.o
 .debug_line    0x0000c023       0x1d .\CortexM3\ARM_GCC_541\Debug\lv_font_montserrat_32.o
 .debug_line    0x0000c040       0x1d .\CortexM3\ARM_GCC_541\Debug\lv_font_montserrat_34.o
 .debug_line    0x0000c05d       0x1d .\CortexM3\ARM_GCC_541\Debug\lv_font_montserrat_36.o
 .debug_line    0x0000c07a       0x1d .\CortexM3\ARM_GCC_541\Debug\lv_font_montserrat_38.o
 .debug_line    0x0000c097       0x1d .\CortexM3\ARM_GCC_541\Debug\lv_font_montserrat_40.o
 .debug_line    0x0000c0b4       0x1d .\CortexM3\ARM_GCC_541\Debug\lv_font_montserrat_42.o
 .debug_line    0x0000c0d1       0x1d .\CortexM3\ARM_GCC_541\Debug\lv_font_montserrat_44.o
 .debug_line    0x0000c0ee       0x1d .\CortexM3\ARM_GCC_541\Debug\lv_font_montserrat_46.o
 .debug_line    0x0000c10b       0x1d .\CortexM3\ARM_GCC_541\Debug\lv_font_montserrat_48.o
 .debug_line    0x0000c128       0x1d .\CortexM3\ARM_GCC_541\Debug\lv_font_simsun_16_cjk.o
 .debug_line    0x0000c145       0x1d .\CortexM3\ARM_GCC_541\Debug\lv_font_unscii_8.o
 .debug_line    0x0000c162       0x1d .\CortexM3\ARM_GCC_541\Debug\lv_font_montserrat_8.o
 .debug_line    0x0000c17f       0x1d .\CortexM3\ARM_GCC_541\Debug\lv_font_montserrat_10.o
 .debug_line    0x0000c19c       0x1d .\CortexM3\ARM_GCC_541\Debug\lv_gpu_stm32_dma2d.o
 .debug_line    0x0000c1b9      0x525 .\CortexM3\ARM_GCC_541\Debug\lv_hal_disp.o
 .debug_line    0x0000c6de      0x3d2 .\CortexM3\ARM_GCC_541\Debug\lv_hal_indev.o
 .debug_line    0x0000cab0      0x182 .\CortexM3\ARM_GCC_541\Debug\lv_hal_tick.o
 .debug_line    0x0000cc32      0x513 .\CortexM3\ARM_GCC_541\Debug\lv_anim.o
 .debug_line    0x0000d145      0x48d .\CortexM3\ARM_GCC_541\Debug\lv_area.o
 .debug_line    0x0000d5d2      0x1a1 .\CortexM3\ARM_GCC_541\Debug\lv_async.o
 .debug_line    0x0000d773       0x1d .\CortexM3\ARM_GCC_541\Debug\lv_bidi.o
 .debug_line    0x0000d790      0x277 .\CortexM3\ARM_GCC_541\Debug\lv_color.o
 .debug_line    0x0000da07      0x2d7 .\CortexM3\ARM_GCC_541\Debug\lv_debug.o
 .debug_line    0x0000dcde       0x1d .\CortexM3\ARM_GCC_541\Debug\lv_fs.o
 .debug_line    0x0000dcfb      0x26a .\CortexM3\ARM_GCC_541\Debug\lv_gc.o
 .debug_line    0x0000df65      0x30c .\CortexM3\ARM_GCC_541\Debug\lv_ll.o
 .debug_line    0x0000e271       0x1d .\CortexM3\ARM_GCC_541\Debug\lv_log.o
 .debug_line    0x0000e28e      0x24a .\CortexM3\ARM_GCC_541\Debug\lv_math.o
 .debug_line    0x0000e4d8      0x548 .\CortexM3\ARM_GCC_541\Debug\lv_mem.o
 .debug_line    0x0000ea20      0x4d8 .\CortexM3\ARM_GCC_541\Debug\lv_printf.o
 .debug_line    0x0000eef8      0x3df .\CortexM3\ARM_GCC_541\Debug\lv_task.o
 .debug_line    0x0000f2d7       0x1d .\CortexM3\ARM_GCC_541\Debug\lv_templ.o
 .debug_line    0x0000f2f4      0x5c6 .\CortexM3\ARM_GCC_541\Debug\lv_txt.o
 .debug_line    0x0000f8ba       0x1d .\CortexM3\ARM_GCC_541\Debug\lv_txt_ap.o
 .debug_line    0x0000f8d7      0x18a .\CortexM3\ARM_GCC_541\Debug\lv_utils.o
 .debug_line    0x0000fa61      0x567 .\CortexM3\ARM_GCC_541\Debug\lv_theme.o
 .debug_line    0x0000ffc8       0x1d .\CortexM3\ARM_GCC_541\Debug\lv_theme_empty.o
 .debug_line    0x0000ffe5     0x1801 .\CortexM3\ARM_GCC_541\Debug\lv_theme_material.o
 .debug_line    0x000117e6       0x1d .\CortexM3\ARM_GCC_541\Debug\lv_theme_mono.o
 .debug_line    0x00011803       0x1d .\CortexM3\ARM_GCC_541\Debug\lv_theme_template.o
 .debug_line    0x00011820       0x1d .\CortexM3\ARM_GCC_541\Debug\lv_arc.o
 .debug_line    0x0001183d       0x1d .\CortexM3\ARM_GCC_541\Debug\lv_bar.o
 .debug_line    0x0001185a      0x4c4 .\CortexM3\ARM_GCC_541\Debug\lv_btn.o
 .debug_line    0x00011d1e      0xde7 .\CortexM3\ARM_GCC_541\Debug\lv_btnmatrix.o
 .debug_line    0x00012b05       0x1d .\CortexM3\ARM_GCC_541\Debug\lv_calendar.o
 .debug_line    0x00012b22       0x1d .\CortexM3\ARM_GCC_541\Debug\lv_canvas.o
 .debug_line    0x00012b3f       0x1d .\CortexM3\ARM_GCC_541\Debug\lv_chart.o
 .debug_line    0x00012b5c      0x546 .\CortexM3\ARM_GCC_541\Debug\lv_checkbox.o
 .debug_line    0x000130a2      0x973 .\CortexM3\ARM_GCC_541\Debug\lv_cont.o
 .debug_line    0x00013a15       0x1d .\CortexM3\ARM_GCC_541\Debug\lv_cpicker.o
 .debug_line    0x00013a32      0xe48 .\CortexM3\ARM_GCC_541\Debug\lv_dropdown.o
 .debug_line    0x0001487a       0x1d .\CortexM3\ARM_GCC_541\Debug\lv_gauge.o
 .debug_line    0x00014897       0x1d .\CortexM3\ARM_GCC_541\Debug\lv_img.o
 .debug_line    0x000148b4       0x1d .\CortexM3\ARM_GCC_541\Debug\lv_imgbtn.o
 .debug_line    0x000148d1       0x1d .\CortexM3\ARM_GCC_541\Debug\lv_keyboard.o
 .debug_line    0x000148ee      0xec0 .\CortexM3\ARM_GCC_541\Debug\lv_label.o
 .debug_line    0x000157ae      0x4fc .\CortexM3\ARM_GCC_541\Debug\lv_led.o
 .debug_line    0x00015caa      0x530 .\CortexM3\ARM_GCC_541\Debug\lv_line.o
 .debug_line    0x000161da       0x1d .\CortexM3\ARM_GCC_541\Debug\lv_linemeter.o
 .debug_line    0x000161f7       0x1d .\CortexM3\ARM_GCC_541\Debug\lv_list.o
 .debug_line    0x00016214       0x1d .\CortexM3\ARM_GCC_541\Debug\lv_msgbox.o
 .debug_line    0x00016231      0x559 .\CortexM3\ARM_GCC_541\Debug\lv_objmask.o
 .debug_line    0x0001678a       0x1d .\CortexM3\ARM_GCC_541\Debug\lv_objx_templ.o
 .debug_line    0x000167a7      0xf11 .\CortexM3\ARM_GCC_541\Debug\lv_page.o
 .debug_line    0x000176b8       0x1d .\CortexM3\ARM_GCC_541\Debug\lv_roller.o
 .debug_line    0x000176d5       0x1d .\CortexM3\ARM_GCC_541\Debug\lv_slider.o
 .debug_line    0x000176f2      0x8ff .\CortexM3\ARM_GCC_541\Debug\lv_spinbox.o
 .debug_line    0x00017ff1       0x1d .\CortexM3\ARM_GCC_541\Debug\lv_spinner.o
 .debug_line    0x0001800e       0x1d .\CortexM3\ARM_GCC_541\Debug\lv_switch.o
 .debug_line    0x0001802b       0x1d .\CortexM3\ARM_GCC_541\Debug\lv_table.o
 .debug_line    0x00018048      0xaac .\CortexM3\ARM_GCC_541\Debug\lv_tabview.o
 .debug_line    0x00018af4     0x11e9 .\CortexM3\ARM_GCC_541\Debug\lv_textarea.o
 .debug_line    0x00019cdd       0x1d .\CortexM3\ARM_GCC_541\Debug\lv_tileview.o
 .debug_line    0x00019cfa       0x1d .\CortexM3\ARM_GCC_541\Debug\lv_win.o
 .debug_line    0x00019d17      0x345 .\CortexM3\ARM_GCC_541\Debug\spi_dma.o
 .debug_line    0x0001a05c      0x2f1 .\CortexM3\ARM_GCC_541\Debug\psoc_platform.o
 .debug_line    0x0001a34d        0x0 .\CortexM3\ARM_GCC_541\Debug\GUI.o
 .debug_line    0x0001a34d      0x1f9 .\CortexM3\ARM_GCC_541\Debug\cyfitter_cfg.o
 .debug_line    0x0001a546      0x141 .\CortexM3\ARM_GCC_541\Debug\cymetadata.o
 .debug_line    0x0001a687      0x241 .\CortexM3\ARM_GCC_541\Debug\Cm3Start.o
 .debug_line    0x0001a8c8      0x241 .\CortexM3\ARM_GCC_541\Debug\ili9341_master.a(SPI.o)
 .debug_line    0x0001ab09       0x95 .\CortexM3\ARM_GCC_541\Debug\ili9341_master.a(DISP_RST.o)
 .debug_line    0x0001ab9e      0x17b .\CortexM3\ARM_GCC_541\Debug\ili9341_master.a(SPI_IntClock.o)
 .debug_line    0x0001ad19      0x2e4 .\CortexM3\ARM_GCC_541\Debug\ili9341_master.a(CyDmac.o)
 .debug_line    0x0001affd      0x816 .\CortexM3\ARM_GCC_541\Debug\ili9341_master.a(CyLib.o)
 .debug_line    0x0001b813      0x367 .\CortexM3\ARM_GCC_541\Debug\ili9341_master.a(cyPm.o)
 .debug_line    0x0001bb7a       0x96 .\CortexM3\ARM_GCC_541\Debug\ili9341_master.a(DISP_BCKL.o)
 .debug_line    0x0001bc10       0x94 .\CortexM3\ARM_GCC_541\Debug\ili9341_master.a(DISP_DC.o)
 .debug_line    0x0001bca4       0x83 .\CortexM3\ARM_GCC_541\Debug\ili9341_master.a(DMA_Tx_dma.o)
 .debug_line    0x0001bd27       0xe6 .\CortexM3\ARM_GCC_541\Debug\ili9341_master.a(UART.o)
 .debug_line    0x0001be0d      0x13b .\CortexM3\ARM_GCC_541\Debug\ili9341_master.a(isr_SPI_TX_DMA.o)
 .debug_line    0x0001bf48      0x137 .\CortexM3\ARM_GCC_541\Debug\ili9341_master.a(isr_SPI_TX.o)
 .debug_line    0x0001c07f       0x8f .\CortexM3\ARM_GCC_541\Debug\ili9341_master.a(SS.o)
 .debug_line    0x0001c10e      0x119 .\CortexM3\ARM_GCC_541\Debug\ili9341_master.a(QuadDec.o)
 .debug_line    0x0001c227      0x18c .\CortexM3\ARM_GCC_541\Debug\ili9341_master.a(QuadDec_Cnt8.o)
 .debug_line    0x0001c3b3       0x97 .\CortexM3\ARM_GCC_541\Debug\ili9341_master.a(QuadDec_SW.o)
 .debug_line    0x0001c44a       0x66 .\CortexM3\ARM_GCC_541\Debug\ili9341_master.a(CyBootAsmGnu.o)
 .debug_line    0x0001c4b0       0x99 .\CortexM3\ARM_GCC_541\Debug\ili9341_master.a(UART_AsmGnu.o)
 .debug_line    0x0001c549      0x21a .\CortexM3\ARM_GCC_541\Debug\ili9341_master.a(CyFlash.o)
 .debug_line    0x0001c763      0x260 .\CortexM3\ARM_GCC_541\Debug\ili9341_master.a(CySpc.o)

.debug_frame    0x00000000     0x98a8
 *(.debug_frame)
 .debug_frame   0x00000000      0x23c .\CortexM3\ARM_GCC_541\Debug\main.o
 .debug_frame   0x0000023c       0x94 .\CortexM3\ARM_GCC_541\Debug\disp_spi.o
 .debug_frame   0x000002d0      0x190 .\CortexM3\ARM_GCC_541\Debug\ili9341.o
 .debug_frame   0x00000460      0x228 .\CortexM3\ARM_GCC_541\Debug\lv_disp.o
 .debug_frame   0x00000688      0x2b0 .\CortexM3\ARM_GCC_541\Debug\lv_group.o
 .debug_frame   0x00000938      0x3ac .\CortexM3\ARM_GCC_541\Debug\lv_indev.o
 .debug_frame   0x00000ce4     0x163c .\CortexM3\ARM_GCC_541\Debug\lv_obj.o
 .debug_frame   0x00002320      0x208 .\CortexM3\ARM_GCC_541\Debug\lv_refr.o
 .debug_frame   0x00002528      0x604 .\CortexM3\ARM_GCC_541\Debug\lv_style.o
 .debug_frame   0x00002b2c      0x104 .\CortexM3\ARM_GCC_541\Debug\lv_draw_arc.o
 .debug_frame   0x00002c30      0x228 .\CortexM3\ARM_GCC_541\Debug\lv_draw_blend.o
 .debug_frame   0x00002e58      0x124 .\CortexM3\ARM_GCC_541\Debug\lv_draw_img.o
 .debug_frame   0x00002f7c      0x11c .\CortexM3\ARM_GCC_541\Debug\lv_draw_label.o
 .debug_frame   0x00003098      0x104 .\CortexM3\ARM_GCC_541\Debug\lv_draw_line.o
 .debug_frame   0x0000319c      0x2b0 .\CortexM3\ARM_GCC_541\Debug\lv_draw_mask.o
 .debug_frame   0x0000344c      0x264 .\CortexM3\ARM_GCC_541\Debug\lv_draw_rect.o
 .debug_frame   0x000036b0       0x78 .\CortexM3\ARM_GCC_541\Debug\lv_draw_triangle.o
 .debug_frame   0x00003728      0x1d4 .\CortexM3\ARM_GCC_541\Debug\lv_img_buf.o
 .debug_frame   0x000038fc       0x80 .\CortexM3\ARM_GCC_541\Debug\lv_img_cache.o
 .debug_frame   0x0000397c      0x23c .\CortexM3\ARM_GCC_541\Debug\lv_img_decoder.o
 .debug_frame   0x00003bb8       0x64 .\CortexM3\ARM_GCC_541\Debug\lv_font.o
 .debug_frame   0x00003c1c      0x184 .\CortexM3\ARM_GCC_541\Debug\lv_font_fmt_txt.o
 .debug_frame   0x00003da0      0x208 .\CortexM3\ARM_GCC_541\Debug\lv_hal_disp.o
 .debug_frame   0x00003fa8       0xa8 .\CortexM3\ARM_GCC_541\Debug\lv_hal_indev.o
 .debug_frame   0x00004050       0x4c .\CortexM3\ARM_GCC_541\Debug\lv_hal_tick.o
 .debug_frame   0x0000409c      0x218 .\CortexM3\ARM_GCC_541\Debug\lv_anim.o
 .debug_frame   0x000042b4      0x15c .\CortexM3\ARM_GCC_541\Debug\lv_area.o
 .debug_frame   0x00004410       0x4c .\CortexM3\ARM_GCC_541\Debug\lv_async.o
 .debug_frame   0x0000445c       0xdc .\CortexM3\ARM_GCC_541\Debug\lv_color.o
 .debug_frame   0x00004538       0x80 .\CortexM3\ARM_GCC_541\Debug\lv_debug.o
 .debug_frame   0x000045b8       0x2c .\CortexM3\ARM_GCC_541\Debug\lv_gc.o
 .debug_frame   0x000045e4      0x1dc .\CortexM3\ARM_GCC_541\Debug\lv_ll.o
 .debug_frame   0x000047c0       0xb0 .\CortexM3\ARM_GCC_541\Debug\lv_math.o
 .debug_frame   0x00004870      0x22c .\CortexM3\ARM_GCC_541\Debug\lv_mem.o
 .debug_frame   0x00004a9c      0x190 .\CortexM3\ARM_GCC_541\Debug\lv_printf.o
 .debug_frame   0x00004c2c      0x1bc .\CortexM3\ARM_GCC_541\Debug\lv_task.o
 .debug_frame   0x00004de8      0x248 .\CortexM3\ARM_GCC_541\Debug\lv_txt.o
 .debug_frame   0x00005030       0x64 .\CortexM3\ARM_GCC_541\Debug\lv_utils.o
 .debug_frame   0x00005094      0x13c .\CortexM3\ARM_GCC_541\Debug\lv_theme.o
 .debug_frame   0x000051d0      0x168 .\CortexM3\ARM_GCC_541\Debug\lv_theme_material.o
 .debug_frame   0x00005338      0x114 .\CortexM3\ARM_GCC_541\Debug\lv_btn.o
 .debug_frame   0x0000544c      0x4ec .\CortexM3\ARM_GCC_541\Debug\lv_btnmatrix.o
 .debug_frame   0x00005938      0x140 .\CortexM3\ARM_GCC_541\Debug\lv_checkbox.o
 .debug_frame   0x00005a78      0x2a4 .\CortexM3\ARM_GCC_541\Debug\lv_cont.o
 .debug_frame   0x00005d1c      0x510 .\CortexM3\ARM_GCC_541\Debug\lv_dropdown.o
 .debug_frame   0x0000622c      0x504 .\CortexM3\ARM_GCC_541\Debug\lv_label.o
 .debug_frame   0x00006730      0x10c .\CortexM3\ARM_GCC_541\Debug\lv_led.o
 .debug_frame   0x0000683c      0x150 .\CortexM3\ARM_GCC_541\Debug\lv_line.o
 .debug_frame   0x0000698c      0x108 .\CortexM3\ARM_GCC_541\Debug\lv_objmask.o
 .debug_frame   0x00006a94      0x4dc .\CortexM3\ARM_GCC_541\Debug\lv_page.o
 .debug_frame   0x00006f70      0x228 .\CortexM3\ARM_GCC_541\Debug\lv_spinbox.o
 .debug_frame   0x00007198      0x350 .\CortexM3\ARM_GCC_541\Debug\lv_tabview.o
 .debug_frame   0x000074e8      0x734 .\CortexM3\ARM_GCC_541\Debug\lv_textarea.o
 .debug_frame   0x00007c1c       0xe0 .\CortexM3\ARM_GCC_541\Debug\spi_dma.o
 .debug_frame   0x00007cfc       0xa0 .\CortexM3\ARM_GCC_541\Debug\psoc_platform.o
 .debug_frame   0x00007d9c       0xe4 .\CortexM3\ARM_GCC_541\Debug\cyfitter_cfg.o
 .debug_frame   0x00007e80       0xb8 .\CortexM3\ARM_GCC_541\Debug\Cm3Start.o
 .debug_frame   0x00007f38      0x1e8 .\CortexM3\ARM_GCC_541\Debug\ili9341_master.a(SPI.o)
 .debug_frame   0x00008120       0x50 .\CortexM3\ARM_GCC_541\Debug\ili9341_master.a(DISP_RST.o)
 .debug_frame   0x00008170       0xe0 .\CortexM3\ARM_GCC_541\Debug\ili9341_master.a(SPI_IntClock.o)
 .debug_frame   0x00008250      0x1f8 .\CortexM3\ARM_GCC_541\Debug\ili9341_master.a(CyDmac.o)
 .debug_frame   0x00008448      0x738 .\CortexM3\ARM_GCC_541\Debug\ili9341_master.a(CyLib.o)
 .debug_frame   0x00008b80      0x1f8 .\CortexM3\ARM_GCC_541\Debug\ili9341_master.a(cyPm.o)
 .debug_frame   0x00008d78       0x50 .\CortexM3\ARM_GCC_541\Debug\ili9341_master.a(DISP_BCKL.o)
 .debug_frame   0x00008dc8       0x50 .\CortexM3\ARM_GCC_541\Debug\ili9341_master.a(DISP_DC.o)
 .debug_frame   0x00008e18       0x54 .\CortexM3\ARM_GCC_541\Debug\ili9341_master.a(DMA_Tx_dma.o)
 .debug_frame   0x00008e6c       0xc8 .\CortexM3\ARM_GCC_541\Debug\ili9341_master.a(UART.o)
 .debug_frame   0x00008f34      0x104 .\CortexM3\ARM_GCC_541\Debug\ili9341_master.a(isr_SPI_TX_DMA.o)
 .debug_frame   0x00009038      0x104 .\CortexM3\ARM_GCC_541\Debug\ili9341_master.a(isr_SPI_TX.o)
 .debug_frame   0x0000913c       0x50 .\CortexM3\ARM_GCC_541\Debug\ili9341_master.a(SS.o)
 .debug_frame   0x0000918c       0xdc .\CortexM3\ARM_GCC_541\Debug\ili9341_master.a(QuadDec.o)
 .debug_frame   0x00009268      0x134 .\CortexM3\ARM_GCC_541\Debug\ili9341_master.a(QuadDec_Cnt8.o)
 .debug_frame   0x0000939c       0x50 .\CortexM3\ARM_GCC_541\Debug\ili9341_master.a(QuadDec_SW.o)
 .debug_frame   0x000093ec      0x194 .\CortexM3\ARM_GCC_541\Debug\ili9341_master.a(CyFlash.o)
 .debug_frame   0x00009580      0x180 .\CortexM3\ARM_GCC_541\Debug\ili9341_master.a(CySpc.o)
 .debug_frame   0x00009700       0x20 c:/program files (x86)/cypress/psoc creator/4.4/psoc creator/import/gnu/arm/5.4.1/bin/../lib/gcc/arm-none-eabi/5.4.1/armv7-m\libgcc.a(_udivsi3.o)
 .debug_frame   0x00009720       0x2c c:/program files (x86)/cypress/psoc creator/4.4/psoc creator/import/gnu/arm/5.4.1/bin/../lib/gcc/arm-none-eabi/5.4.1/armv7-m\libgcc.a(_aeabi_uldivmod.o)
 .debug_frame   0x0000974c       0x38 c:/program files (x86)/cypress/psoc creator/4.4/psoc creator/import/gnu/arm/5.4.1/bin/../lib/gcc/arm-none-eabi/5.4.1/armv7-m\libgcc.a(_udivmoddi4.o)
 .debug_frame   0x00009784       0x20 c:/program files (x86)/cypress/psoc creator/4.4/psoc creator/import/gnu/arm/5.4.1/bin/../lib/gcc/arm-none-eabi/5.4.1/../../../../arm-none-eabi/lib/armv7-m\libg_nano.a(lib_a-errno.o)
 .debug_frame   0x000097a4       0x28 c:/program files (x86)/cypress/psoc creator/4.4/psoc creator/import/gnu/arm/5.4.1/bin/../lib/gcc/arm-none-eabi/5.4.1/../../../../arm-none-eabi/lib/armv7-m\libg_nano.a(lib_a-exit.o)
 .debug_frame   0x000097cc       0x2c c:/program files (x86)/cypress/psoc creator/4.4/psoc creator/import/gnu/arm/5.4.1/bin/../lib/gcc/arm-none-eabi/5.4.1/../../../../arm-none-eabi/lib/armv7-m\libg_nano.a(lib_a-init.o)
 .debug_frame   0x000097f8       0x28 c:/program files (x86)/cypress/psoc creator/4.4/psoc creator/import/gnu/arm/5.4.1/bin/../lib/gcc/arm-none-eabi/5.4.1/../../../../arm-none-eabi/lib/armv7-m\libg_nano.a(lib_a-memcmp.o)
 .debug_frame   0x00009820       0x28 c:/program files (x86)/cypress/psoc creator/4.4/psoc creator/import/gnu/arm/5.4.1/bin/../lib/gcc/arm-none-eabi/5.4.1/../../../../arm-none-eabi/lib/armv7-m\libg_nano.a(lib_a-memcpy-stub.o)
 .debug_frame   0x00009848       0x20 c:/program files (x86)/cypress/psoc creator/4.4/psoc creator/import/gnu/arm/5.4.1/bin/../lib/gcc/arm-none-eabi/5.4.1/../../../../arm-none-eabi/lib/armv7-m\libg_nano.a(lib_a-memset.o)
 .debug_frame   0x00009868       0x20 c:/program files (x86)/cypress/psoc creator/4.4/psoc creator/import/gnu/arm/5.4.1/bin/../lib/gcc/arm-none-eabi/5.4.1/../../../../arm-none-eabi/lib/armv7-m\libg_nano.a(lib_a-strcmp.o)
 .debug_frame   0x00009888       0x20 c:/program files (x86)/cypress/psoc creator/4.4/psoc creator/import/gnu/arm/5.4.1/bin/../lib/gcc/arm-none-eabi/5.4.1/../../../../arm-none-eabi/lib/armv7-m\libg_nano.a(lib_a-strcpy.o)

.debug_str      0x00000000     0xf523
 *(.debug_str)
 .debug_str     0x00000000     0x246d .\CortexM3\ARM_GCC_541\Debug\main.o
                               0x27c0 (size before relaxing)
 .debug_str     0x0000246d      0x23e .\CortexM3\ARM_GCC_541\Debug\disp_spi.o
                                0xccd (size before relaxing)
 .debug_str     0x000026ab      0x1bc .\CortexM3\ARM_GCC_541\Debug\ili9341.o
                                0x773 (size before relaxing)
 .debug_str     0x00002867      0x5df .\CortexM3\ARM_GCC_541\Debug\lv_disp.o
                               0x17d9 (size before relaxing)
 .debug_str     0x00002e46      0x5c2 .\CortexM3\ARM_GCC_541\Debug\lv_group.o
                                0xf19 (size before relaxing)
 .debug_str     0x00003408      0x70e .\CortexM3\ARM_GCC_541\Debug\lv_indev.o
                               0x1914 (size before relaxing)
 .debug_str     0x00003b16     0x26b2 .\CortexM3\ARM_GCC_541\Debug\lv_obj.o
                               0x4f06 (size before relaxing)
 .debug_str     0x000061c8      0x387 .\CortexM3\ARM_GCC_541\Debug\lv_refr.o
                               0x1ba6 (size before relaxing)
 .debug_str     0x0000654f      0x243 .\CortexM3\ARM_GCC_541\Debug\lv_style.o
                                0xa15 (size before relaxing)
 .debug_str     0x00006792      0x234 .\CortexM3\ARM_GCC_541\Debug\lv_draw_arc.o
                                0x984 (size before relaxing)
 .debug_str     0x000069c6      0x266 .\CortexM3\ARM_GCC_541\Debug\lv_draw_blend.o
                                0xc45 (size before relaxing)
 .debug_str     0x00006c2c      0x762 .\CortexM3\ARM_GCC_541\Debug\lv_draw_img.o
                               0x17e6 (size before relaxing)
 .debug_str     0x0000738e      0x369 .\CortexM3\ARM_GCC_541\Debug\lv_draw_label.o
                               0x146e (size before relaxing)
 .debug_str     0x000076f7      0x1cc .\CortexM3\ARM_GCC_541\Debug\lv_draw_line.o
                               0x1146 (size before relaxing)
 .debug_str     0x000078c3      0x2ea .\CortexM3\ARM_GCC_541\Debug\lv_draw_mask.o
                                0x8e9 (size before relaxing)
 .debug_str     0x00007bad      0x2bd .\CortexM3\ARM_GCC_541\Debug\lv_draw_rect.o
                               0x15d8 (size before relaxing)
 .debug_str     0x00007e6a       0xad .\CortexM3\ARM_GCC_541\Debug\lv_draw_triangle.o
                                0x82b (size before relaxing)
 .debug_str     0x00007f17       0xfa .\CortexM3\ARM_GCC_541\Debug\lv_img_buf.o
                                0x8f3 (size before relaxing)
 .debug_str     0x00008011       0x94 .\CortexM3\ARM_GCC_541\Debug\lv_img_cache.o
                                0x590 (size before relaxing)
 .debug_str     0x000080a5      0x244 .\CortexM3\ARM_GCC_541\Debug\lv_img_decoder.o
                                0xb17 (size before relaxing)
 .debug_str     0x000082e9       0x23 .\CortexM3\ARM_GCC_541\Debug\lv_font.o
                                0x32e (size before relaxing)
 .debug_str     0x0000830c       0x34 .\CortexM3\ARM_GCC_541\Debug\lv_font_dejavu_16_persian_hebrew.o
                                0x1a6 (size before relaxing)
 .debug_str     0x00008340      0x540 .\CortexM3\ARM_GCC_541\Debug\lv_font_fmt_txt.o
                                0x92d (size before relaxing)
 .debug_str     0x00008880       0x22 .\CortexM3\ARM_GCC_541\Debug\lv_font_loader.o
                                0x194 (size before relaxing)
 .debug_str     0x000088a2       0xdb .\CortexM3\ARM_GCC_541\Debug\lv_font_montserrat_12.o
                                0x7ea (size before relaxing)
 .debug_str     0x0000897d       0x2f .\CortexM3\ARM_GCC_541\Debug\lv_font_montserrat_12_subpx.o
                                0x1a1 (size before relaxing)
 .debug_str     0x000089ac       0x29 .\CortexM3\ARM_GCC_541\Debug\lv_font_montserrat_14.o
                                0x19b (size before relaxing)
 .debug_str     0x000089d5       0x29 .\CortexM3\ARM_GCC_541\Debug\lv_font_montserrat_16.o
                                0x19b (size before relaxing)
 .debug_str     0x000089fe       0x29 .\CortexM3\ARM_GCC_541\Debug\lv_font_montserrat_18.o
                                0x19b (size before relaxing)
 .debug_str     0x00008a27       0x29 .\CortexM3\ARM_GCC_541\Debug\lv_font_montserrat_20.o
                                0x19b (size before relaxing)
 .debug_str     0x00008a50       0x29 .\CortexM3\ARM_GCC_541\Debug\lv_font_montserrat_22.o
                                0x19b (size before relaxing)
 .debug_str     0x00008a79       0x29 .\CortexM3\ARM_GCC_541\Debug\lv_font_montserrat_24.o
                                0x19b (size before relaxing)
 .debug_str     0x00008aa2       0x29 .\CortexM3\ARM_GCC_541\Debug\lv_font_montserrat_26.o
                                0x19b (size before relaxing)
 .debug_str     0x00008acb       0x29 .\CortexM3\ARM_GCC_541\Debug\lv_font_montserrat_28.o
                                0x19b (size before relaxing)
 .debug_str     0x00008af4       0x34 .\CortexM3\ARM_GCC_541\Debug\lv_font_montserrat_28_compressed.o
                                0x1a6 (size before relaxing)
 .debug_str     0x00008b28       0x29 .\CortexM3\ARM_GCC_541\Debug\lv_font_montserrat_30.o
                                0x19b (size before relaxing)
 .debug_str     0x00008b51       0x29 .\CortexM3\ARM_GCC_541\Debug\lv_font_montserrat_32.o
                                0x19b (size before relaxing)
 .debug_str     0x00008b7a       0x29 .\CortexM3\ARM_GCC_541\Debug\lv_font_montserrat_34.o
                                0x19b (size before relaxing)
 .debug_str     0x00008ba3       0x29 .\CortexM3\ARM_GCC_541\Debug\lv_font_montserrat_36.o
                                0x19b (size before relaxing)
 .debug_str     0x00008bcc       0x29 .\CortexM3\ARM_GCC_541\Debug\lv_font_montserrat_38.o
                                0x19b (size before relaxing)
 .debug_str     0x00008bf5       0x29 .\CortexM3\ARM_GCC_541\Debug\lv_font_montserrat_40.o
                                0x19b (size before relaxing)
 .debug_str     0x00008c1e       0x29 .\CortexM3\ARM_GCC_541\Debug\lv_font_montserrat_42.o
                                0x19b (size before relaxing)
 .debug_str     0x00008c47       0x29 .\CortexM3\ARM_GCC_541\Debug\lv_font_montserrat_44.o
                                0x19b (size before relaxing)
 .debug_str     0x00008c70       0x29 .\CortexM3\ARM_GCC_541\Debug\lv_font_montserrat_46.o
                                0x19b (size before relaxing)
 .debug_str     0x00008c99       0x29 .\CortexM3\ARM_GCC_541\Debug\lv_font_montserrat_48.o
                                0x19b (size before relaxing)
 .debug_str     0x00008cc2       0x29 .\CortexM3\ARM_GCC_541\Debug\lv_font_simsun_16_cjk.o
                                0x19b (size before relaxing)
 .debug_str     0x00008ceb       0x24 .\CortexM3\ARM_GCC_541\Debug\lv_font_unscii_8.o
                                0x196 (size before relaxing)
 .debug_str     0x00008d0f       0x28 .\CortexM3\ARM_GCC_541\Debug\lv_font_montserrat_8.o
                                0x19a (size before relaxing)
 .debug_str     0x00008d37       0x29 .\CortexM3\ARM_GCC_541\Debug\lv_font_montserrat_10.o
                                0x19b (size before relaxing)
 .debug_str     0x00008d60       0x25 .\CortexM3\ARM_GCC_541\Debug\lv_gpu_stm32_dma2d.o
                                0x197 (size before relaxing)
 .debug_str     0x00008d85      0x14a .\CortexM3\ARM_GCC_541\Debug\lv_hal_disp.o
                                0xfb6 (size before relaxing)
 .debug_str     0x00008ecf       0x33 .\CortexM3\ARM_GCC_541\Debug\lv_hal_indev.o
                                0xdd3 (size before relaxing)
 .debug_str     0x00008f02       0x4b .\CortexM3\ARM_GCC_541\Debug\lv_hal_tick.o
                                0x205 (size before relaxing)
 .debug_str     0x00008f4d      0x17e .\CortexM3\ARM_GCC_541\Debug\lv_anim.o
                                0x73d (size before relaxing)
 .debug_str     0x000090cb       0xa9 .\CortexM3\ARM_GCC_541\Debug\lv_area.o
                                0x561 (size before relaxing)
 .debug_str     0x00009174       0x6f .\CortexM3\ARM_GCC_541\Debug\lv_async.o
                                0x352 (size before relaxing)
 .debug_str     0x000091e3       0x1b .\CortexM3\ARM_GCC_541\Debug\lv_bidi.o
                                0x18d (size before relaxing)
 .debug_str     0x000091fe       0xb8 .\CortexM3\ARM_GCC_541\Debug\lv_color.o
                                0x312 (size before relaxing)
 .debug_str     0x000092b6       0x79 .\CortexM3\ARM_GCC_541\Debug\lv_debug.o
                                0x290 (size before relaxing)
 .debug_str     0x0000932f       0x19 .\CortexM3\ARM_GCC_541\Debug\lv_fs.o
                                0x16b (size before relaxing)
 .debug_str     0x00009348       0xd4 .\CortexM3\ARM_GCC_541\Debug\lv_gc.o
                                0x5ec (size before relaxing)
 .debug_str     0x0000941c       0xef .\CortexM3\ARM_GCC_541\Debug\lv_ll.o
                                0x37e (size before relaxing)
 .debug_str     0x0000950b       0x1a .\CortexM3\ARM_GCC_541\Debug\lv_log.o
                                0x16c (size before relaxing)
 .debug_str     0x00009525       0xb5 .\CortexM3\ARM_GCC_541\Debug\lv_math.o
                                0x2d4 (size before relaxing)
 .debug_str     0x000095da      0x19d .\CortexM3\ARM_GCC_541\Debug\lv_mem.o
                                0x4fb (size before relaxing)
 .debug_str     0x00009777      0x104 .\CortexM3\ARM_GCC_541\Debug\lv_printf.o
                                0x2d7 (size before relaxing)
 .debug_str     0x0000987b      0x198 .\CortexM3\ARM_GCC_541\Debug\lv_task.o
                                0x5ca (size before relaxing)
 .debug_str     0x00009a13       0x1c .\CortexM3\ARM_GCC_541\Debug\lv_templ.o
                                 0xea (size before relaxing)
 .debug_str     0x00009a2f      0x2ef .\CortexM3\ARM_GCC_541\Debug\lv_txt.o
                                0x76e (size before relaxing)
 .debug_str     0x00009d1e       0x1d .\CortexM3\ARM_GCC_541\Debug\lv_txt_ap.o
                                0x18f (size before relaxing)
 .debug_str     0x00009d3b       0x48 .\CortexM3\ARM_GCC_541\Debug\lv_utils.o
                                0x212 (size before relaxing)
 .debug_str     0x00009d83      0x365 .\CortexM3\ARM_GCC_541\Debug\lv_theme.o
                                0xed1 (size before relaxing)
 .debug_str     0x0000a0e8       0x24 .\CortexM3\ARM_GCC_541\Debug\lv_theme_empty.o
                                0x196 (size before relaxing)
 .debug_str     0x0000a10c      0x590 .\CortexM3\ARM_GCC_541\Debug\lv_theme_material.o
                               0x1f73 (size before relaxing)
 .debug_str     0x0000a69c       0x23 .\CortexM3\ARM_GCC_541\Debug\lv_theme_mono.o
                                0x195 (size before relaxing)
 .debug_str     0x0000a6bf       0x27 .\CortexM3\ARM_GCC_541\Debug\lv_theme_template.o
                                0x199 (size before relaxing)
 .debug_str     0x0000a6e6       0x1d .\CortexM3\ARM_GCC_541\Debug\lv_arc.o
                                0x16f (size before relaxing)
 .debug_str     0x0000a703       0x1d .\CortexM3\ARM_GCC_541\Debug\lv_bar.o
                                0x16f (size before relaxing)
 .debug_str     0x0000a720       0xfd .\CortexM3\ARM_GCC_541\Debug\lv_btn.o
                               0x11fc (size before relaxing)
 .debug_str     0x0000a81d      0x701 .\CortexM3\ARM_GCC_541\Debug\lv_btnmatrix.o
                               0x2d26 (size before relaxing)
 .debug_str     0x0000af1e       0x22 .\CortexM3\ARM_GCC_541\Debug\lv_calendar.o
                                0x174 (size before relaxing)
 .debug_str     0x0000af40       0x20 .\CortexM3\ARM_GCC_541\Debug\lv_canvas.o
                                0x192 (size before relaxing)
 .debug_str     0x0000af60       0x1f .\CortexM3\ARM_GCC_541\Debug\lv_chart.o
                                0x171 (size before relaxing)
 .debug_str     0x0000af7f      0x128 .\CortexM3\ARM_GCC_541\Debug\lv_checkbox.o
                               0x1c52 (size before relaxing)
 .debug_str     0x0000b0a7      0x1d1 .\CortexM3\ARM_GCC_541\Debug\lv_cont.o
                               0x1d6c (size before relaxing)
 .debug_str     0x0000b278       0x21 .\CortexM3\ARM_GCC_541\Debug\lv_cpicker.o
                                0x173 (size before relaxing)
 .debug_str     0x0000b299      0x583 .\CortexM3\ARM_GCC_541\Debug\lv_dropdown.o
                               0x31e2 (size before relaxing)
 .debug_str     0x0000b81c       0x1f .\CortexM3\ARM_GCC_541\Debug\lv_gauge.o
                                0x171 (size before relaxing)
 .debug_str     0x0000b83b       0x1d .\CortexM3\ARM_GCC_541\Debug\lv_img.o
                                0x16f (size before relaxing)
 .debug_str     0x0000b858       0x20 .\CortexM3\ARM_GCC_541\Debug\lv_imgbtn.o
                                0x192 (size before relaxing)
 .debug_str     0x0000b878       0x22 .\CortexM3\ARM_GCC_541\Debug\lv_keyboard.o
                                0x174 (size before relaxing)
 .debug_str     0x0000b89a      0x459 .\CortexM3\ARM_GCC_541\Debug\lv_label.o
                               0x25a1 (size before relaxing)
 .debug_str     0x0000bcf3       0x9b .\CortexM3\ARM_GCC_541\Debug\lv_led.o
                               0x105a (size before relaxing)
 .debug_str     0x0000bd8e      0x102 .\CortexM3\ARM_GCC_541\Debug\lv_line.o
                               0x1690 (size before relaxing)
 .debug_str     0x0000be90       0x23 .\CortexM3\ARM_GCC_541\Debug\lv_linemeter.o
                                0x175 (size before relaxing)
 .debug_str     0x0000beb3       0x1e .\CortexM3\ARM_GCC_541\Debug\lv_list.o
                                0x170 (size before relaxing)
 .debug_str     0x0000bed1       0x20 .\CortexM3\ARM_GCC_541\Debug\lv_msgbox.o
                                0x172 (size before relaxing)
 .debug_str     0x0000bef1       0xe1 .\CortexM3\ARM_GCC_541\Debug\lv_objmask.o
                               0x10ba (size before relaxing)
 .debug_str     0x0000bfd2       0x24 .\CortexM3\ARM_GCC_541\Debug\lv_objx_templ.o
                                0x176 (size before relaxing)
 .debug_str     0x0000bff6      0x57c .\CortexM3\ARM_GCC_541\Debug\lv_page.o
                               0x2eca (size before relaxing)
 .debug_str     0x0000c572       0x20 .\CortexM3\ARM_GCC_541\Debug\lv_roller.o
                                0x172 (size before relaxing)
 .debug_str     0x0000c592       0x20 .\CortexM3\ARM_GCC_541\Debug\lv_slider.o
                                0x172 (size before relaxing)
 .debug_str     0x0000c5b2      0x2fd .\CortexM3\ARM_GCC_541\Debug\lv_spinbox.o
                               0x1932 (size before relaxing)
 .debug_str     0x0000c8af       0x21 .\CortexM3\ARM_GCC_541\Debug\lv_spinner.o
                                0x173 (size before relaxing)
 .debug_str     0x0000c8d0       0x20 .\CortexM3\ARM_GCC_541\Debug\lv_switch.o
                                0x172 (size before relaxing)
 .debug_str     0x0000c8f0       0x1f .\CortexM3\ARM_GCC_541\Debug\lv_table.o
                                0x171 (size before relaxing)
 .debug_str     0x0000c90f      0x465 .\CortexM3\ARM_GCC_541\Debug\lv_tabview.o
                               0x2fe1 (size before relaxing)
 .debug_str     0x0000cd74      0x5f6 .\CortexM3\ARM_GCC_541\Debug\lv_textarea.o
                               0x3587 (size before relaxing)
 .debug_str     0x0000d36a       0x22 .\CortexM3\ARM_GCC_541\Debug\lv_tileview.o
                                0x174 (size before relaxing)
 .debug_str     0x0000d38c       0x1d .\CortexM3\ARM_GCC_541\Debug\lv_win.o
                                0x16f (size before relaxing)
 .debug_str     0x0000d3a9      0x212 .\CortexM3\ARM_GCC_541\Debug\spi_dma.o
                                0x4fd (size before relaxing)
 .debug_str     0x0000d5bb       0xac .\CortexM3\ARM_GCC_541\Debug\psoc_platform.o
                                0x4a0 (size before relaxing)
 .debug_str     0x0000d667        0x6 .\CortexM3\ARM_GCC_541\Debug\GUI.o
                                 0xd4 (size before relaxing)
 .debug_str     0x0000d66d      0x16e .\CortexM3\ARM_GCC_541\Debug\cyfitter_cfg.o
                                0x342 (size before relaxing)
 .debug_str     0x0000d7db       0x75 .\CortexM3\ARM_GCC_541\Debug\cymetadata.o
                                0x1e2 (size before relaxing)
 .debug_str     0x0000d850      0x149 .\CortexM3\ARM_GCC_541\Debug\Cm3Start.o
                                0x318 (size before relaxing)
 .debug_str     0x0000d999      0x1f9 .\CortexM3\ARM_GCC_541\Debug\ili9341_master.a(SPI.o)
                                0x3ec (size before relaxing)
 .debug_str     0x0000db92       0x66 .\CortexM3\ARM_GCC_541\Debug\ili9341_master.a(DISP_RST.o)
                                0x1ef (size before relaxing)
 .debug_str     0x0000dbf8      0x179 .\CortexM3\ARM_GCC_541\Debug\ili9341_master.a(SPI_IntClock.o)
                                0x328 (size before relaxing)
 .debug_str     0x0000dd71      0x2ab .\CortexM3\ARM_GCC_541\Debug\ili9341_master.a(CyDmac.o)
                                0x548 (size before relaxing)
 .debug_str     0x0000e01c      0x78e .\CortexM3\ARM_GCC_541\Debug\ili9341_master.a(CyLib.o)
                                0xa45 (size before relaxing)
 .debug_str     0x0000e7aa      0x365 .\CortexM3\ARM_GCC_541\Debug\ili9341_master.a(cyPm.o)
                                0x731 (size before relaxing)
 .debug_str     0x0000eb0f       0x5f .\CortexM3\ARM_GCC_541\Debug\ili9341_master.a(DISP_BCKL.o)
                                0x1f4 (size before relaxing)
 .debug_str     0x0000eb6e       0x57 .\CortexM3\ARM_GCC_541\Debug\ili9341_master.a(DISP_DC.o)
                                0x1ea (size before relaxing)
 .debug_str     0x0000ebc5       0x82 .\CortexM3\ARM_GCC_541\Debug\ili9341_master.a(DMA_Tx_dma.o)
                                0x26e (size before relaxing)
 .debug_str     0x0000ec47       0xb6 .\CortexM3\ARM_GCC_541\Debug\ili9341_master.a(UART.o)
                                0x295 (size before relaxing)
 .debug_str     0x0000ecfd      0x14d .\CortexM3\ARM_GCC_541\Debug\ili9341_master.a(isr_SPI_TX_DMA.o)
                                0x322 (size before relaxing)
 .debug_str     0x0000ee4a      0x119 .\CortexM3\ARM_GCC_541\Debug\ili9341_master.a(isr_SPI_TX.o)
                                0x2ea (size before relaxing)
 .debug_str     0x0000ef63       0x43 .\CortexM3\ARM_GCC_541\Debug\ili9341_master.a(SS.o)
                                0x1d1 (size before relaxing)
 .debug_str     0x0000efa6      0x110 .\CortexM3\ARM_GCC_541\Debug\ili9341_master.a(QuadDec.o)
                                0x30f (size before relaxing)
 .debug_str     0x0000f0b6      0x1a9 .\CortexM3\ARM_GCC_541\Debug\ili9341_master.a(QuadDec_Cnt8.o)
                                0x3ce (size before relaxing)
 .debug_str     0x0000f25f       0x64 .\CortexM3\ARM_GCC_541\Debug\ili9341_master.a(QuadDec_SW.o)
                                0x1f9 (size before relaxing)
 .debug_str     0x0000f2c3      0x1b4 .\CortexM3\ARM_GCC_541\Debug\ili9341_master.a(CyFlash.o)
                                0x3be (size before relaxing)
 .debug_str     0x0000f477       0xac .\CortexM3\ARM_GCC_541\Debug\ili9341_master.a(CySpc.o)
                                0x336 (size before relaxing)

.debug_loc      0x00000000    0x4012f
 *(.debug_loc)
 .debug_loc     0x00000000      0x660 .\CortexM3\ARM_GCC_541\Debug\main.o
 .debug_loc     0x00000660       0xec .\CortexM3\ARM_GCC_541\Debug\disp_spi.o
 .debug_loc     0x0000074c      0x4d0 .\CortexM3\ARM_GCC_541\Debug\ili9341.o
 .debug_loc     0x00000c1c      0xc6f .\CortexM3\ARM_GCC_541\Debug\lv_disp.o
 .debug_loc     0x0000188b      0x7fe .\CortexM3\ARM_GCC_541\Debug\lv_group.o
 .debug_loc     0x00002089      0xc86 .\CortexM3\ARM_GCC_541\Debug\lv_indev.o
 .debug_loc     0x00002d0f     0x7ac8 .\CortexM3\ARM_GCC_541\Debug\lv_obj.o
 .debug_loc     0x0000a7d7      0xa1e .\CortexM3\ARM_GCC_541\Debug\lv_refr.o
 .debug_loc     0x0000b1f5     0x3d13 .\CortexM3\ARM_GCC_541\Debug\lv_style.o
 .debug_loc     0x0000ef08      0x471 .\CortexM3\ARM_GCC_541\Debug\lv_draw_arc.o
 .debug_loc     0x0000f379     0x1f78 .\CortexM3\ARM_GCC_541\Debug\lv_draw_blend.o
 .debug_loc     0x000112f1     0x14bc .\CortexM3\ARM_GCC_541\Debug\lv_draw_img.o
 .debug_loc     0x000127ad     0x1481 .\CortexM3\ARM_GCC_541\Debug\lv_draw_label.o
 .debug_loc     0x00013c2e      0xbbd .\CortexM3\ARM_GCC_541\Debug\lv_draw_line.o
 .debug_loc     0x000147eb     0x2ffb .\CortexM3\ARM_GCC_541\Debug\lv_draw_mask.o
 .debug_loc     0x000177e6     0x31b2 .\CortexM3\ARM_GCC_541\Debug\lv_draw_rect.o
 .debug_loc     0x0001a998      0x38b .\CortexM3\ARM_GCC_541\Debug\lv_draw_triangle.o
 .debug_loc     0x0001ad23     0x1e4f .\CortexM3\ARM_GCC_541\Debug\lv_img_buf.o
 .debug_loc     0x0001cb72      0x2bc .\CortexM3\ARM_GCC_541\Debug\lv_img_cache.o
 .debug_loc     0x0001ce2e      0xe4c .\CortexM3\ARM_GCC_541\Debug\lv_img_decoder.o
 .debug_loc     0x0001dc7a      0x15d .\CortexM3\ARM_GCC_541\Debug\lv_font.o
 .debug_loc     0x0001ddd7     0x24a4 .\CortexM3\ARM_GCC_541\Debug\lv_font_fmt_txt.o
 .debug_loc     0x0002027b      0x52b .\CortexM3\ARM_GCC_541\Debug\lv_hal_disp.o
 .debug_loc     0x000207a6      0x140 .\CortexM3\ARM_GCC_541\Debug\lv_hal_indev.o
 .debug_loc     0x000208e6       0x81 .\CortexM3\ARM_GCC_541\Debug\lv_hal_tick.o
 .debug_loc     0x00020967      0x8be .\CortexM3\ARM_GCC_541\Debug\lv_anim.o
 .debug_loc     0x00021225     0x11e2 .\CortexM3\ARM_GCC_541\Debug\lv_area.o
 .debug_loc     0x00022407       0xcb .\CortexM3\ARM_GCC_541\Debug\lv_async.o
 .debug_loc     0x000224d2      0x653 .\CortexM3\ARM_GCC_541\Debug\lv_color.o
 .debug_loc     0x00022b25      0x2b9 .\CortexM3\ARM_GCC_541\Debug\lv_debug.o
 .debug_loc     0x00022dde      0x743 .\CortexM3\ARM_GCC_541\Debug\lv_ll.o
 .debug_loc     0x00023521      0x592 .\CortexM3\ARM_GCC_541\Debug\lv_math.o
 .debug_loc     0x00023ab3     0x10d5 .\CortexM3\ARM_GCC_541\Debug\lv_mem.o
 .debug_loc     0x00024b88      0xe77 .\CortexM3\ARM_GCC_541\Debug\lv_printf.o
 .debug_loc     0x000259ff      0x4cd .\CortexM3\ARM_GCC_541\Debug\lv_task.o
 .debug_loc     0x00025ecc     0x11d4 .\CortexM3\ARM_GCC_541\Debug\lv_txt.o
 .debug_loc     0x000270a0      0x23b .\CortexM3\ARM_GCC_541\Debug\lv_utils.o
 .debug_loc     0x000272db      0x2a1 .\CortexM3\ARM_GCC_541\Debug\lv_theme.o
 .debug_loc     0x0002757c     0x46a5 .\CortexM3\ARM_GCC_541\Debug\lv_theme_material.o
 .debug_loc     0x0002bc21      0x465 .\CortexM3\ARM_GCC_541\Debug\lv_btn.o
 .debug_loc     0x0002c086     0x2021 .\CortexM3\ARM_GCC_541\Debug\lv_btnmatrix.o
 .debug_loc     0x0002e0a7      0x66c .\CortexM3\ARM_GCC_541\Debug\lv_checkbox.o
 .debug_loc     0x0002e713     0x14e1 .\CortexM3\ARM_GCC_541\Debug\lv_cont.o
 .debug_loc     0x0002fbf4     0x1e91 .\CortexM3\ARM_GCC_541\Debug\lv_dropdown.o
 .debug_loc     0x00031a85     0x24da .\CortexM3\ARM_GCC_541\Debug\lv_label.o
 .debug_loc     0x00033f5f      0x4bf .\CortexM3\ARM_GCC_541\Debug\lv_led.o
 .debug_loc     0x0003441e      0x534 .\CortexM3\ARM_GCC_541\Debug\lv_line.o
 .debug_loc     0x00034952      0x8d3 .\CortexM3\ARM_GCC_541\Debug\lv_objmask.o
 .debug_loc     0x00035225     0x27ca .\CortexM3\ARM_GCC_541\Debug\lv_page.o
 .debug_loc     0x000379ef      0xb5a .\CortexM3\ARM_GCC_541\Debug\lv_spinbox.o
 .debug_loc     0x00038549     0x180d .\CortexM3\ARM_GCC_541\Debug\lv_tabview.o
 .debug_loc     0x00039d56     0x3284 .\CortexM3\ARM_GCC_541\Debug\lv_textarea.o
 .debug_loc     0x0003cfda      0x3dd .\CortexM3\ARM_GCC_541\Debug\spi_dma.o
 .debug_loc     0x0003d3b7      0x119 .\CortexM3\ARM_GCC_541\Debug\psoc_platform.o
 .debug_loc     0x0003d4d0      0x289 .\CortexM3\ARM_GCC_541\Debug\cyfitter_cfg.o
 .debug_loc     0x0003d759      0x144 .\CortexM3\ARM_GCC_541\Debug\Cm3Start.o
 .debug_loc     0x0003d89d       0xfe .\CortexM3\ARM_GCC_541\Debug\ili9341_master.a(SPI.o)
 .debug_loc     0x0003d99b       0x42 .\CortexM3\ARM_GCC_541\Debug\ili9341_master.a(DISP_RST.o)
 .debug_loc     0x0003d9dd      0x128 .\CortexM3\ARM_GCC_541\Debug\ili9341_master.a(SPI_IntClock.o)
 .debug_loc     0x0003db05      0xb8e .\CortexM3\ARM_GCC_541\Debug\ili9341_master.a(CyDmac.o)
 .debug_loc     0x0003e693      0xa11 .\CortexM3\ARM_GCC_541\Debug\ili9341_master.a(CyLib.o)
 .debug_loc     0x0003f0a4      0x1e4 .\CortexM3\ARM_GCC_541\Debug\ili9341_master.a(cyPm.o)
 .debug_loc     0x0003f288       0x42 .\CortexM3\ARM_GCC_541\Debug\ili9341_master.a(DISP_BCKL.o)
 .debug_loc     0x0003f2ca       0x42 .\CortexM3\ARM_GCC_541\Debug\ili9341_master.a(DISP_DC.o)
 .debug_loc     0x0003f30c       0x84 .\CortexM3\ARM_GCC_541\Debug\ili9341_master.a(DMA_Tx_dma.o)
 .debug_loc     0x0003f390      0x103 .\CortexM3\ARM_GCC_541\Debug\ili9341_master.a(UART.o)
 .debug_loc     0x0003f493       0x56 .\CortexM3\ARM_GCC_541\Debug\ili9341_master.a(isr_SPI_TX_DMA.o)
 .debug_loc     0x0003f4e9       0x56 .\CortexM3\ARM_GCC_541\Debug\ili9341_master.a(isr_SPI_TX.o)
 .debug_loc     0x0003f53f       0x42 .\CortexM3\ARM_GCC_541\Debug\ili9341_master.a(SS.o)
 .debug_loc     0x0003f581       0x78 .\CortexM3\ARM_GCC_541\Debug\ili9341_master.a(QuadDec.o)
 .debug_loc     0x0003f5f9       0x3d .\CortexM3\ARM_GCC_541\Debug\ili9341_master.a(QuadDec_Cnt8.o)
 .debug_loc     0x0003f636       0x42 .\CortexM3\ARM_GCC_541\Debug\ili9341_master.a(QuadDec_SW.o)
 .debug_loc     0x0003f678      0x3b2 .\CortexM3\ARM_GCC_541\Debug\ili9341_master.a(CyFlash.o)
 .debug_loc     0x0003fa2a      0x705 .\CortexM3\ARM_GCC_541\Debug\ili9341_master.a(CySpc.o)

.debug_macinfo
 *(.debug_macinfo)

.debug_ranges   0x00000000     0x3a08
 *(.debug_ranges)
 .debug_ranges  0x00000000       0x90 .\CortexM3\ARM_GCC_541\Debug\main.o
 .debug_ranges  0x00000090       0x30 .\CortexM3\ARM_GCC_541\Debug\disp_spi.o
 .debug_ranges  0x000000c0       0x58 .\CortexM3\ARM_GCC_541\Debug\ili9341.o
 .debug_ranges  0x00000118       0x90 .\CortexM3\ARM_GCC_541\Debug\lv_disp.o
 .debug_ranges  0x000001a8       0xd0 .\CortexM3\ARM_GCC_541\Debug\lv_group.o
 .debug_ranges  0x00000278      0x150 .\CortexM3\ARM_GCC_541\Debug\lv_indev.o
 .debug_ranges  0x000003c8      0x770 .\CortexM3\ARM_GCC_541\Debug\lv_obj.o
 .debug_ranges  0x00000b38       0xf8 .\CortexM3\ARM_GCC_541\Debug\lv_refr.o
 .debug_ranges  0x00000c30      0x288 .\CortexM3\ARM_GCC_541\Debug\lv_style.o
 .debug_ranges  0x00000eb8       0x38 .\CortexM3\ARM_GCC_541\Debug\lv_draw_arc.o
 .debug_ranges  0x00000ef0       0xa0 .\CortexM3\ARM_GCC_541\Debug\lv_draw_blend.o
 .debug_ranges  0x00000f90      0x110 .\CortexM3\ARM_GCC_541\Debug\lv_draw_img.o
 .debug_ranges  0x000010a0       0x68 .\CortexM3\ARM_GCC_541\Debug\lv_draw_label.o
 .debug_ranges  0x00001108       0x48 .\CortexM3\ARM_GCC_541\Debug\lv_draw_line.o
 .debug_ranges  0x00001150      0x200 .\CortexM3\ARM_GCC_541\Debug\lv_draw_mask.o
 .debug_ranges  0x00001350      0x1e8 .\CortexM3\ARM_GCC_541\Debug\lv_draw_rect.o
 .debug_ranges  0x00001538       0x18 .\CortexM3\ARM_GCC_541\Debug\lv_draw_triangle.o
 .debug_ranges  0x00001550      0x100 .\CortexM3\ARM_GCC_541\Debug\lv_img_buf.o
 .debug_ranges  0x00001650       0x40 .\CortexM3\ARM_GCC_541\Debug\lv_img_cache.o
 .debug_ranges  0x00001690       0xc8 .\CortexM3\ARM_GCC_541\Debug\lv_img_decoder.o
 .debug_ranges  0x00001758       0x20 .\CortexM3\ARM_GCC_541\Debug\lv_font.o
 .debug_ranges  0x00001778       0xb0 .\CortexM3\ARM_GCC_541\Debug\lv_font_fmt_txt.o
 .debug_ranges  0x00001828       0xa8 .\CortexM3\ARM_GCC_541\Debug\lv_hal_disp.o
 .debug_ranges  0x000018d0       0x30 .\CortexM3\ARM_GCC_541\Debug\lv_hal_indev.o
 .debug_ranges  0x00001900       0x20 .\CortexM3\ARM_GCC_541\Debug\lv_hal_tick.o
 .debug_ranges  0x00001920       0xb0 .\CortexM3\ARM_GCC_541\Debug\lv_anim.o
 .debug_ranges  0x000019d0       0x68 .\CortexM3\ARM_GCC_541\Debug\lv_area.o
 .debug_ranges  0x00001a38       0x18 .\CortexM3\ARM_GCC_541\Debug\lv_async.o
 .debug_ranges  0x00001a50       0x38 .\CortexM3\ARM_GCC_541\Debug\lv_color.o
 .debug_ranges  0x00001a88       0x28 .\CortexM3\ARM_GCC_541\Debug\lv_debug.o
 .debug_ranges  0x00001ab0       0x10 .\CortexM3\ARM_GCC_541\Debug\lv_gc.o
 .debug_ranges  0x00001ac0       0xa0 .\CortexM3\ARM_GCC_541\Debug\lv_ll.o
 .debug_ranges  0x00001b60       0x38 .\CortexM3\ARM_GCC_541\Debug\lv_math.o
 .debug_ranges  0x00001b98       0xb8 .\CortexM3\ARM_GCC_541\Debug\lv_mem.o
 .debug_ranges  0x00001c50       0xa0 .\CortexM3\ARM_GCC_541\Debug\lv_printf.o
 .debug_ranges  0x00001cf0       0x88 .\CortexM3\ARM_GCC_541\Debug\lv_task.o
 .debug_ranges  0x00001d78       0xe0 .\CortexM3\ARM_GCC_541\Debug\lv_txt.o
 .debug_ranges  0x00001e58       0x18 .\CortexM3\ARM_GCC_541\Debug\lv_utils.o
 .debug_ranges  0x00001e70       0x80 .\CortexM3\ARM_GCC_541\Debug\lv_theme.o
 .debug_ranges  0x00001ef0       0x60 .\CortexM3\ARM_GCC_541\Debug\lv_theme_material.o
 .debug_ranges  0x00001f50       0x48 .\CortexM3\ARM_GCC_541\Debug\lv_btn.o
 .debug_ranges  0x00001f98      0x1e8 .\CortexM3\ARM_GCC_541\Debug\lv_btnmatrix.o
 .debug_ranges  0x00002180       0x68 .\CortexM3\ARM_GCC_541\Debug\lv_checkbox.o
 .debug_ranges  0x000021e8       0xd8 .\CortexM3\ARM_GCC_541\Debug\lv_cont.o
 .debug_ranges  0x000022c0      0x1b8 .\CortexM3\ARM_GCC_541\Debug\lv_dropdown.o
 .debug_ranges  0x00002478      0x188 .\CortexM3\ARM_GCC_541\Debug\lv_label.o
 .debug_ranges  0x00002600       0x60 .\CortexM3\ARM_GCC_541\Debug\lv_led.o
 .debug_ranges  0x00002660       0x78 .\CortexM3\ARM_GCC_541\Debug\lv_line.o
 .debug_ranges  0x000026d8       0x70 .\CortexM3\ARM_GCC_541\Debug\lv_objmask.o
 .debug_ranges  0x00002748      0x260 .\CortexM3\ARM_GCC_541\Debug\lv_page.o
 .debug_ranges  0x000029a8      0x118 .\CortexM3\ARM_GCC_541\Debug\lv_spinbox.o
 .debug_ranges  0x00002ac0      0x140 .\CortexM3\ARM_GCC_541\Debug\lv_tabview.o
 .debug_ranges  0x00002c00      0x3f8 .\CortexM3\ARM_GCC_541\Debug\lv_textarea.o
 .debug_ranges  0x00002ff8       0x90 .\CortexM3\ARM_GCC_541\Debug\spi_dma.o
 .debug_ranges  0x00003088       0x38 .\CortexM3\ARM_GCC_541\Debug\psoc_platform.o
 .debug_ranges  0x000030c0       0x48 .\CortexM3\ARM_GCC_541\Debug\cyfitter_cfg.o
 .debug_ranges  0x00003108       0x38 .\CortexM3\ARM_GCC_541\Debug\Cm3Start.o
 .debug_ranges  0x00003140       0xc8 .\CortexM3\ARM_GCC_541\Debug\ili9341_master.a(SPI.o)
 .debug_ranges  0x00003208       0x28 .\CortexM3\ARM_GCC_541\Debug\ili9341_master.a(DISP_RST.o)
 .debug_ranges  0x00003230       0x60 .\CortexM3\ARM_GCC_541\Debug\ili9341_master.a(SPI_IntClock.o)
 .debug_ranges  0x00003290       0xc8 .\CortexM3\ARM_GCC_541\Debug\ili9341_master.a(CyDmac.o)
 .debug_ranges  0x00003358      0x290 .\CortexM3\ARM_GCC_541\Debug\ili9341_master.a(CyLib.o)
 .debug_ranges  0x000035e8       0x88 .\CortexM3\ARM_GCC_541\Debug\ili9341_master.a(cyPm.o)
 .debug_ranges  0x00003670       0x28 .\CortexM3\ARM_GCC_541\Debug\ili9341_master.a(DISP_BCKL.o)
 .debug_ranges  0x00003698       0x28 .\CortexM3\ARM_GCC_541\Debug\ili9341_master.a(DISP_DC.o)
 .debug_ranges  0x000036c0       0x18 .\CortexM3\ARM_GCC_541\Debug\ili9341_master.a(DMA_Tx_dma.o)
 .debug_ranges  0x000036d8       0x40 .\CortexM3\ARM_GCC_541\Debug\ili9341_master.a(UART.o)
 .debug_ranges  0x00003718       0x70 .\CortexM3\ARM_GCC_541\Debug\ili9341_master.a(isr_SPI_TX_DMA.o)
 .debug_ranges  0x00003788       0x70 .\CortexM3\ARM_GCC_541\Debug\ili9341_master.a(isr_SPI_TX.o)
 .debug_ranges  0x000037f8       0x28 .\CortexM3\ARM_GCC_541\Debug\ili9341_master.a(SS.o)
 .debug_ranges  0x00003820       0x50 .\CortexM3\ARM_GCC_541\Debug\ili9341_master.a(QuadDec.o)
 .debug_ranges  0x00003870       0x88 .\CortexM3\ARM_GCC_541\Debug\ili9341_master.a(QuadDec_Cnt8.o)
 .debug_ranges  0x000038f8       0x28 .\CortexM3\ARM_GCC_541\Debug\ili9341_master.a(QuadDec_SW.o)
 .debug_ranges  0x00003920       0x78 .\CortexM3\ARM_GCC_541\Debug\ili9341_master.a(CyFlash.o)
 .debug_ranges  0x00003998       0x70 .\CortexM3\ARM_GCC_541\Debug\ili9341_master.a(CySpc.o)

.comment        0x00000000       0x6e
 .comment       0x00000000       0x6e .\CortexM3\ARM_GCC_541\Debug\main.o
                                 0x6f (size before relaxing)
 .comment       0x0000006e       0x6f .\CortexM3\ARM_GCC_541\Debug\disp_spi.o
 .comment       0x0000006e       0x6f .\CortexM3\ARM_GCC_541\Debug\ili9341.o
 .comment       0x0000006e       0x6f .\CortexM3\ARM_GCC_541\Debug\lv_disp.o
 .comment       0x0000006e       0x6f .\CortexM3\ARM_GCC_541\Debug\lv_group.o
 .comment       0x0000006e       0x6f .\CortexM3\ARM_GCC_541\Debug\lv_indev.o
 .comment       0x0000006e       0x6f .\CortexM3\ARM_GCC_541\Debug\lv_obj.o
 .comment       0x0000006e       0x6f .\CortexM3\ARM_GCC_541\Debug\lv_refr.o
 .comment       0x0000006e       0x6f .\CortexM3\ARM_GCC_541\Debug\lv_style.o
 .comment       0x0000006e       0x6f .\CortexM3\ARM_GCC_541\Debug\lv_draw_arc.o
 .comment       0x0000006e       0x6f .\CortexM3\ARM_GCC_541\Debug\lv_draw_blend.o
 .comment       0x0000006e       0x6f .\CortexM3\ARM_GCC_541\Debug\lv_draw_img.o
 .comment       0x0000006e       0x6f .\CortexM3\ARM_GCC_541\Debug\lv_draw_label.o
 .comment       0x0000006e       0x6f .\CortexM3\ARM_GCC_541\Debug\lv_draw_line.o
 .comment       0x0000006e       0x6f .\CortexM3\ARM_GCC_541\Debug\lv_draw_mask.o
 .comment       0x0000006e       0x6f .\CortexM3\ARM_GCC_541\Debug\lv_draw_rect.o
 .comment       0x0000006e       0x6f .\CortexM3\ARM_GCC_541\Debug\lv_draw_triangle.o
 .comment       0x0000006e       0x6f .\CortexM3\ARM_GCC_541\Debug\lv_img_buf.o
 .comment       0x0000006e       0x6f .\CortexM3\ARM_GCC_541\Debug\lv_img_cache.o
 .comment       0x0000006e       0x6f .\CortexM3\ARM_GCC_541\Debug\lv_img_decoder.o
 .comment       0x0000006e       0x6f .\CortexM3\ARM_GCC_541\Debug\lv_font.o
 .comment       0x0000006e       0x6f .\CortexM3\ARM_GCC_541\Debug\lv_font_dejavu_16_persian_hebrew.o
 .comment       0x0000006e       0x6f .\CortexM3\ARM_GCC_541\Debug\lv_font_fmt_txt.o
 .comment       0x0000006e       0x6f .\CortexM3\ARM_GCC_541\Debug\lv_font_loader.o
 .comment       0x0000006e       0x6f .\CortexM3\ARM_GCC_541\Debug\lv_font_montserrat_12.o
 .comment       0x0000006e       0x6f .\CortexM3\ARM_GCC_541\Debug\lv_font_montserrat_12_subpx.o
 .comment       0x0000006e       0x6f .\CortexM3\ARM_GCC_541\Debug\lv_font_montserrat_14.o
 .comment       0x0000006e       0x6f .\CortexM3\ARM_GCC_541\Debug\lv_font_montserrat_16.o
 .comment       0x0000006e       0x6f .\CortexM3\ARM_GCC_541\Debug\lv_font_montserrat_18.o
 .comment       0x0000006e       0x6f .\CortexM3\ARM_GCC_541\Debug\lv_font_montserrat_20.o
 .comment       0x0000006e       0x6f .\CortexM3\ARM_GCC_541\Debug\lv_font_montserrat_22.o
 .comment       0x0000006e       0x6f .\CortexM3\ARM_GCC_541\Debug\lv_font_montserrat_24.o
 .comment       0x0000006e       0x6f .\CortexM3\ARM_GCC_541\Debug\lv_font_montserrat_26.o
 .comment       0x0000006e       0x6f .\CortexM3\ARM_GCC_541\Debug\lv_font_montserrat_28.o
 .comment       0x0000006e       0x6f .\CortexM3\ARM_GCC_541\Debug\lv_font_montserrat_28_compressed.o
 .comment       0x0000006e       0x6f .\CortexM3\ARM_GCC_541\Debug\lv_font_montserrat_30.o
 .comment       0x0000006e       0x6f .\CortexM3\ARM_GCC_541\Debug\lv_font_montserrat_32.o
 .comment       0x0000006e       0x6f .\CortexM3\ARM_GCC_541\Debug\lv_font_montserrat_34.o
 .comment       0x0000006e       0x6f .\CortexM3\ARM_GCC_541\Debug\lv_font_montserrat_36.o
 .comment       0x0000006e       0x6f .\CortexM3\ARM_GCC_541\Debug\lv_font_montserrat_38.o
 .comment       0x0000006e       0x6f .\CortexM3\ARM_GCC_541\Debug\lv_font_montserrat_40.o
 .comment       0x0000006e       0x6f .\CortexM3\ARM_GCC_541\Debug\lv_font_montserrat_42.o
 .comment       0x0000006e       0x6f .\CortexM3\ARM_GCC_541\Debug\lv_font_montserrat_44.o
 .comment       0x0000006e       0x6f .\CortexM3\ARM_GCC_541\Debug\lv_font_montserrat_46.o
 .comment       0x0000006e       0x6f .\CortexM3\ARM_GCC_541\Debug\lv_font_montserrat_48.o
 .comment       0x0000006e       0x6f .\CortexM3\ARM_GCC_541\Debug\lv_font_simsun_16_cjk.o
 .comment       0x0000006e       0x6f .\CortexM3\ARM_GCC_541\Debug\lv_font_unscii_8.o
 .comment       0x0000006e       0x6f .\CortexM3\ARM_GCC_541\Debug\lv_font_montserrat_8.o
 .comment       0x0000006e       0x6f .\CortexM3\ARM_GCC_541\Debug\lv_font_montserrat_10.o
 .comment       0x0000006e       0x6f .\CortexM3\ARM_GCC_541\Debug\lv_gpu_stm32_dma2d.o
 .comment       0x0000006e       0x6f .\CortexM3\ARM_GCC_541\Debug\lv_hal_disp.o
 .comment       0x0000006e       0x6f .\CortexM3\ARM_GCC_541\Debug\lv_hal_indev.o
 .comment       0x0000006e       0x6f .\CortexM3\ARM_GCC_541\Debug\lv_hal_tick.o
 .comment       0x0000006e       0x6f .\CortexM3\ARM_GCC_541\Debug\lv_anim.o
 .comment       0x0000006e       0x6f .\CortexM3\ARM_GCC_541\Debug\lv_area.o
 .comment       0x0000006e       0x6f .\CortexM3\ARM_GCC_541\Debug\lv_async.o
 .comment       0x0000006e       0x6f .\CortexM3\ARM_GCC_541\Debug\lv_bidi.o
 .comment       0x0000006e       0x6f .\CortexM3\ARM_GCC_541\Debug\lv_color.o
 .comment       0x0000006e       0x6f .\CortexM3\ARM_GCC_541\Debug\lv_debug.o
 .comment       0x0000006e       0x6f .\CortexM3\ARM_GCC_541\Debug\lv_fs.o
 .comment       0x0000006e       0x6f .\CortexM3\ARM_GCC_541\Debug\lv_gc.o
 .comment       0x0000006e       0x6f .\CortexM3\ARM_GCC_541\Debug\lv_ll.o
 .comment       0x0000006e       0x6f .\CortexM3\ARM_GCC_541\Debug\lv_log.o
 .comment       0x0000006e       0x6f .\CortexM3\ARM_GCC_541\Debug\lv_math.o
 .comment       0x0000006e       0x6f .\CortexM3\ARM_GCC_541\Debug\lv_mem.o
 .comment       0x0000006e       0x6f .\CortexM3\ARM_GCC_541\Debug\lv_printf.o
 .comment       0x0000006e       0x6f .\CortexM3\ARM_GCC_541\Debug\lv_task.o
 .comment       0x0000006e       0x6f .\CortexM3\ARM_GCC_541\Debug\lv_templ.o
 .comment       0x0000006e       0x6f .\CortexM3\ARM_GCC_541\Debug\lv_txt.o
 .comment       0x0000006e       0x6f .\CortexM3\ARM_GCC_541\Debug\lv_txt_ap.o
 .comment       0x0000006e       0x6f .\CortexM3\ARM_GCC_541\Debug\lv_utils.o
 .comment       0x0000006e       0x6f .\CortexM3\ARM_GCC_541\Debug\lv_theme.o
 .comment       0x0000006e       0x6f .\CortexM3\ARM_GCC_541\Debug\lv_theme_empty.o
 .comment       0x0000006e       0x6f .\CortexM3\ARM_GCC_541\Debug\lv_theme_material.o
 .comment       0x0000006e       0x6f .\CortexM3\ARM_GCC_541\Debug\lv_theme_mono.o
 .comment       0x0000006e       0x6f .\CortexM3\ARM_GCC_541\Debug\lv_theme_template.o
 .comment       0x0000006e       0x6f .\CortexM3\ARM_GCC_541\Debug\lv_arc.o
 .comment       0x0000006e       0x6f .\CortexM3\ARM_GCC_541\Debug\lv_bar.o
 .comment       0x0000006e       0x6f .\CortexM3\ARM_GCC_541\Debug\lv_btn.o
 .comment       0x0000006e       0x6f .\CortexM3\ARM_GCC_541\Debug\lv_btnmatrix.o
 .comment       0x0000006e       0x6f .\CortexM3\ARM_GCC_541\Debug\lv_calendar.o
 .comment       0x0000006e       0x6f .\CortexM3\ARM_GCC_541\Debug\lv_canvas.o
 .comment       0x0000006e       0x6f .\CortexM3\ARM_GCC_541\Debug\lv_chart.o
 .comment       0x0000006e       0x6f .\CortexM3\ARM_GCC_541\Debug\lv_checkbox.o
 .comment       0x0000006e       0x6f .\CortexM3\ARM_GCC_541\Debug\lv_cont.o
 .comment       0x0000006e       0x6f .\CortexM3\ARM_GCC_541\Debug\lv_cpicker.o
 .comment       0x0000006e       0x6f .\CortexM3\ARM_GCC_541\Debug\lv_dropdown.o
 .comment       0x0000006e       0x6f .\CortexM3\ARM_GCC_541\Debug\lv_gauge.o
 .comment       0x0000006e       0x6f .\CortexM3\ARM_GCC_541\Debug\lv_img.o
 .comment       0x0000006e       0x6f .\CortexM3\ARM_GCC_541\Debug\lv_imgbtn.o
 .comment       0x0000006e       0x6f .\CortexM3\ARM_GCC_541\Debug\lv_keyboard.o
 .comment       0x0000006e       0x6f .\CortexM3\ARM_GCC_541\Debug\lv_label.o
 .comment       0x0000006e       0x6f .\CortexM3\ARM_GCC_541\Debug\lv_led.o
 .comment       0x0000006e       0x6f .\CortexM3\ARM_GCC_541\Debug\lv_line.o
 .comment       0x0000006e       0x6f .\CortexM3\ARM_GCC_541\Debug\lv_linemeter.o
 .comment       0x0000006e       0x6f .\CortexM3\ARM_GCC_541\Debug\lv_list.o
 .comment       0x0000006e       0x6f .\CortexM3\ARM_GCC_541\Debug\lv_msgbox.o
 .comment       0x0000006e       0x6f .\CortexM3\ARM_GCC_541\Debug\lv_objmask.o
 .comment       0x0000006e       0x6f .\CortexM3\ARM_GCC_541\Debug\lv_objx_templ.o
 .comment       0x0000006e       0x6f .\CortexM3\ARM_GCC_541\Debug\lv_page.o
 .comment       0x0000006e       0x6f .\CortexM3\ARM_GCC_541\Debug\lv_roller.o
 .comment       0x0000006e       0x6f .\CortexM3\ARM_GCC_541\Debug\lv_slider.o
 .comment       0x0000006e       0x6f .\CortexM3\ARM_GCC_541\Debug\lv_spinbox.o
 .comment       0x0000006e       0x6f .\CortexM3\ARM_GCC_541\Debug\lv_spinner.o
 .comment       0x0000006e       0x6f .\CortexM3\ARM_GCC_541\Debug\lv_switch.o
 .comment       0x0000006e       0x6f .\CortexM3\ARM_GCC_541\Debug\lv_table.o
 .comment       0x0000006e       0x6f .\CortexM3\ARM_GCC_541\Debug\lv_tabview.o
 .comment       0x0000006e       0x6f .\CortexM3\ARM_GCC_541\Debug\lv_textarea.o
 .comment       0x0000006e       0x6f .\CortexM3\ARM_GCC_541\Debug\lv_tileview.o
 .comment       0x0000006e       0x6f .\CortexM3\ARM_GCC_541\Debug\lv_win.o
 .comment       0x0000006e       0x6f .\CortexM3\ARM_GCC_541\Debug\spi_dma.o
 .comment       0x0000006e       0x6f .\CortexM3\ARM_GCC_541\Debug\psoc_platform.o
 .comment       0x0000006e       0x6f .\CortexM3\ARM_GCC_541\Debug\GUI.o
 .comment       0x0000006e       0x6f .\CortexM3\ARM_GCC_541\Debug\cyfitter_cfg.o
 .comment       0x0000006e       0x6f .\CortexM3\ARM_GCC_541\Debug\cymetadata.o
 .comment       0x0000006e       0x6f .\CortexM3\ARM_GCC_541\Debug\Cm3Start.o
 .comment       0x0000006e       0x6f .\CortexM3\ARM_GCC_541\Debug\ili9341_master.a(SPI.o)
 .comment       0x0000006e       0x6f .\CortexM3\ARM_GCC_541\Debug\ili9341_master.a(DISP_RST.o)
 .comment       0x0000006e       0x6f .\CortexM3\ARM_GCC_541\Debug\ili9341_master.a(SPI_IntClock.o)
 .comment       0x0000006e       0x6f .\CortexM3\ARM_GCC_541\Debug\ili9341_master.a(CyDmac.o)
 .comment       0x0000006e       0x6f .\CortexM3\ARM_GCC_541\Debug\ili9341_master.a(CyLib.o)
 .comment       0x0000006e       0x6f .\CortexM3\ARM_GCC_541\Debug\ili9341_master.a(cyPm.o)
 .comment       0x0000006e       0x6f .\CortexM3\ARM_GCC_541\Debug\ili9341_master.a(DISP_BCKL.o)
 .comment       0x0000006e       0x6f .\CortexM3\ARM_GCC_541\Debug\ili9341_master.a(DISP_DC.o)
 .comment       0x0000006e       0x6f .\CortexM3\ARM_GCC_541\Debug\ili9341_master.a(DMA_Tx_dma.o)
 .comment       0x0000006e       0x6f .\CortexM3\ARM_GCC_541\Debug\ili9341_master.a(UART.o)
 .comment       0x0000006e       0x6f .\CortexM3\ARM_GCC_541\Debug\ili9341_master.a(isr_SPI_TX_DMA.o)
 .comment       0x0000006e       0x6f .\CortexM3\ARM_GCC_541\Debug\ili9341_master.a(isr_SPI_TX.o)
 .comment       0x0000006e       0x6f .\CortexM3\ARM_GCC_541\Debug\ili9341_master.a(SS.o)
 .comment       0x0000006e       0x6f .\CortexM3\ARM_GCC_541\Debug\ili9341_master.a(QuadDec.o)
 .comment       0x0000006e       0x6f .\CortexM3\ARM_GCC_541\Debug\ili9341_master.a(QuadDec_Cnt8.o)
 .comment       0x0000006e       0x6f .\CortexM3\ARM_GCC_541\Debug\ili9341_master.a(QuadDec_SW.o)
 .comment       0x0000006e       0x6f .\CortexM3\ARM_GCC_541\Debug\ili9341_master.a(CyFlash.o)
 .comment       0x0000006e       0x6f .\CortexM3\ARM_GCC_541\Debug\ili9341_master.a(CySpc.o)

.debug_weaknames
 *(.debug_weaknames)

.debug_funcnames
 *(.debug_funcnames)

.debug_typenames
 *(.debug_typenames)

.debug_varnames
 *(.debug_varnames)

.note.gnu.arm.ident
 *(.note.gnu.arm.ident)

.ARM.attributes
                0x00000000       0x29
 *(.ARM.attributes)
 .ARM.attributes
                0x00000000       0x1d c:/program files (x86)/cypress/psoc creator/4.4/psoc creator/import/gnu/arm/5.4.1/bin/../lib/gcc/arm-none-eabi/5.4.1/armv7-m/crti.o
 .ARM.attributes
                0x0000001d       0x2d c:/program files (x86)/cypress/psoc creator/4.4/psoc creator/import/gnu/arm/5.4.1/bin/../lib/gcc/arm-none-eabi/5.4.1/armv7-m/crtbegin.o
 .ARM.attributes
                0x0000004a       0x1b c:/program files (x86)/cypress/psoc creator/4.4/psoc creator/import/gnu/arm/5.4.1/bin/../lib/gcc/arm-none-eabi/5.4.1/../../../../arm-none-eabi/lib/armv7-m/crt0.o
 .ARM.attributes
                0x00000065       0x33 .\CortexM3\ARM_GCC_541\Debug\main.o
 .ARM.attributes
                0x00000098       0x33 .\CortexM3\ARM_GCC_541\Debug\disp_spi.o
 .ARM.attributes
                0x000000cb       0x33 .\CortexM3\ARM_GCC_541\Debug\ili9341.o
 .ARM.attributes
                0x000000fe       0x33 .\CortexM3\ARM_GCC_541\Debug\lv_disp.o
 .ARM.attributes
                0x00000131       0x33 .\CortexM3\ARM_GCC_541\Debug\lv_group.o
 .ARM.attributes
                0x00000164       0x33 .\CortexM3\ARM_GCC_541\Debug\lv_indev.o
 .ARM.attributes
                0x00000197       0x33 .\CortexM3\ARM_GCC_541\Debug\lv_obj.o
 .ARM.attributes
                0x000001ca       0x33 .\CortexM3\ARM_GCC_541\Debug\lv_refr.o
 .ARM.attributes
                0x000001fd       0x33 .\CortexM3\ARM_GCC_541\Debug\lv_style.o
 .ARM.attributes
                0x00000230       0x33 .\CortexM3\ARM_GCC_541\Debug\lv_draw_arc.o
 .ARM.attributes
                0x00000263       0x33 .\CortexM3\ARM_GCC_541\Debug\lv_draw_blend.o
 .ARM.attributes
                0x00000296       0x33 .\CortexM3\ARM_GCC_541\Debug\lv_draw_img.o
 .ARM.attributes
                0x000002c9       0x33 .\CortexM3\ARM_GCC_541\Debug\lv_draw_label.o
 .ARM.attributes
                0x000002fc       0x33 .\CortexM3\ARM_GCC_541\Debug\lv_draw_line.o
 .ARM.attributes
                0x0000032f       0x33 .\CortexM3\ARM_GCC_541\Debug\lv_draw_mask.o
 .ARM.attributes
                0x00000362       0x33 .\CortexM3\ARM_GCC_541\Debug\lv_draw_rect.o
 .ARM.attributes
                0x00000395       0x33 .\CortexM3\ARM_GCC_541\Debug\lv_draw_triangle.o
 .ARM.attributes
                0x000003c8       0x33 .\CortexM3\ARM_GCC_541\Debug\lv_img_buf.o
 .ARM.attributes
                0x000003fb       0x33 .\CortexM3\ARM_GCC_541\Debug\lv_img_cache.o
 .ARM.attributes
                0x0000042e       0x33 .\CortexM3\ARM_GCC_541\Debug\lv_img_decoder.o
 .ARM.attributes
                0x00000461       0x33 .\CortexM3\ARM_GCC_541\Debug\lv_font.o
 .ARM.attributes
                0x00000494       0x33 .\CortexM3\ARM_GCC_541\Debug\lv_font_dejavu_16_persian_hebrew.o
 .ARM.attributes
                0x000004c7       0x33 .\CortexM3\ARM_GCC_541\Debug\lv_font_fmt_txt.o
 .ARM.attributes
                0x000004fa       0x33 .\CortexM3\ARM_GCC_541\Debug\lv_font_loader.o
 .ARM.attributes
                0x0000052d       0x33 .\CortexM3\ARM_GCC_541\Debug\lv_font_montserrat_12.o
 .ARM.attributes
                0x00000560       0x33 .\CortexM3\ARM_GCC_541\Debug\lv_font_montserrat_12_subpx.o
 .ARM.attributes
                0x00000593       0x33 .\CortexM3\ARM_GCC_541\Debug\lv_font_montserrat_14.o
 .ARM.attributes
                0x000005c6       0x33 .\CortexM3\ARM_GCC_541\Debug\lv_font_montserrat_16.o
 .ARM.attributes
                0x000005f9       0x33 .\CortexM3\ARM_GCC_541\Debug\lv_font_montserrat_18.o
 .ARM.attributes
                0x0000062c       0x33 .\CortexM3\ARM_GCC_541\Debug\lv_font_montserrat_20.o
 .ARM.attributes
                0x0000065f       0x33 .\CortexM3\ARM_GCC_541\Debug\lv_font_montserrat_22.o
 .ARM.attributes
                0x00000692       0x33 .\CortexM3\ARM_GCC_541\Debug\lv_font_montserrat_24.o
 .ARM.attributes
                0x000006c5       0x33 .\CortexM3\ARM_GCC_541\Debug\lv_font_montserrat_26.o
 .ARM.attributes
                0x000006f8       0x33 .\CortexM3\ARM_GCC_541\Debug\lv_font_montserrat_28.o
 .ARM.attributes
                0x0000072b       0x33 .\CortexM3\ARM_GCC_541\Debug\lv_font_montserrat_28_compressed.o
 .ARM.attributes
                0x0000075e       0x33 .\CortexM3\ARM_GCC_541\Debug\lv_font_montserrat_30.o
 .ARM.attributes
                0x00000791       0x33 .\CortexM3\ARM_GCC_541\Debug\lv_font_montserrat_32.o
 .ARM.attributes
                0x000007c4       0x33 .\CortexM3\ARM_GCC_541\Debug\lv_font_montserrat_34.o
 .ARM.attributes
                0x000007f7       0x33 .\CortexM3\ARM_GCC_541\Debug\lv_font_montserrat_36.o
 .ARM.attributes
                0x0000082a       0x33 .\CortexM3\ARM_GCC_541\Debug\lv_font_montserrat_38.o
 .ARM.attributes
                0x0000085d       0x33 .\CortexM3\ARM_GCC_541\Debug\lv_font_montserrat_40.o
 .ARM.attributes
                0x00000890       0x33 .\CortexM3\ARM_GCC_541\Debug\lv_font_montserrat_42.o
 .ARM.attributes
                0x000008c3       0x33 .\CortexM3\ARM_GCC_541\Debug\lv_font_montserrat_44.o
 .ARM.attributes
                0x000008f6       0x33 .\CortexM3\ARM_GCC_541\Debug\lv_font_montserrat_46.o
 .ARM.attributes
                0x00000929       0x33 .\CortexM3\ARM_GCC_541\Debug\lv_font_montserrat_48.o
 .ARM.attributes
                0x0000095c       0x33 .\CortexM3\ARM_GCC_541\Debug\lv_font_simsun_16_cjk.o
 .ARM.attributes
                0x0000098f       0x33 .\CortexM3\ARM_GCC_541\Debug\lv_font_unscii_8.o
 .ARM.attributes
                0x000009c2       0x33 .\CortexM3\ARM_GCC_541\Debug\lv_font_montserrat_8.o
 .ARM.attributes
                0x000009f5       0x33 .\CortexM3\ARM_GCC_541\Debug\lv_font_montserrat_10.o
 .ARM.attributes
                0x00000a28       0x33 .\CortexM3\ARM_GCC_541\Debug\lv_gpu_stm32_dma2d.o
 .ARM.attributes
                0x00000a5b       0x33 .\CortexM3\ARM_GCC_541\Debug\lv_hal_disp.o
 .ARM.attributes
                0x00000a8e       0x33 .\CortexM3\ARM_GCC_541\Debug\lv_hal_indev.o
 .ARM.attributes
                0x00000ac1       0x33 .\CortexM3\ARM_GCC_541\Debug\lv_hal_tick.o
 .ARM.attributes
                0x00000af4       0x33 .\CortexM3\ARM_GCC_541\Debug\lv_anim.o
 .ARM.attributes
                0x00000b27       0x33 .\CortexM3\ARM_GCC_541\Debug\lv_area.o
 .ARM.attributes
                0x00000b5a       0x33 .\CortexM3\ARM_GCC_541\Debug\lv_async.o
 .ARM.attributes
                0x00000b8d       0x33 .\CortexM3\ARM_GCC_541\Debug\lv_bidi.o
 .ARM.attributes
                0x00000bc0       0x33 .\CortexM3\ARM_GCC_541\Debug\lv_color.o
 .ARM.attributes
                0x00000bf3       0x33 .\CortexM3\ARM_GCC_541\Debug\lv_debug.o
 .ARM.attributes
                0x00000c26       0x33 .\CortexM3\ARM_GCC_541\Debug\lv_fs.o
 .ARM.attributes
                0x00000c59       0x33 .\CortexM3\ARM_GCC_541\Debug\lv_gc.o
 .ARM.attributes
                0x00000c8c       0x33 .\CortexM3\ARM_GCC_541\Debug\lv_ll.o
 .ARM.attributes
                0x00000cbf       0x33 .\CortexM3\ARM_GCC_541\Debug\lv_log.o
 .ARM.attributes
                0x00000cf2       0x33 .\CortexM3\ARM_GCC_541\Debug\lv_math.o
 .ARM.attributes
                0x00000d25       0x33 .\CortexM3\ARM_GCC_541\Debug\lv_mem.o
 .ARM.attributes
                0x00000d58       0x33 .\CortexM3\ARM_GCC_541\Debug\lv_printf.o
 .ARM.attributes
                0x00000d8b       0x33 .\CortexM3\ARM_GCC_541\Debug\lv_task.o
 .ARM.attributes
                0x00000dbe       0x33 .\CortexM3\ARM_GCC_541\Debug\lv_templ.o
 .ARM.attributes
                0x00000df1       0x33 .\CortexM3\ARM_GCC_541\Debug\lv_txt.o
 .ARM.attributes
                0x00000e24       0x33 .\CortexM3\ARM_GCC_541\Debug\lv_txt_ap.o
 .ARM.attributes
                0x00000e57       0x33 .\CortexM3\ARM_GCC_541\Debug\lv_utils.o
 .ARM.attributes
                0x00000e8a       0x33 .\CortexM3\ARM_GCC_541\Debug\lv_theme.o
 .ARM.attributes
                0x00000ebd       0x33 .\CortexM3\ARM_GCC_541\Debug\lv_theme_empty.o
 .ARM.attributes
                0x00000ef0       0x33 .\CortexM3\ARM_GCC_541\Debug\lv_theme_material.o
 .ARM.attributes
                0x00000f23       0x33 .\CortexM3\ARM_GCC_541\Debug\lv_theme_mono.o
 .ARM.attributes
                0x00000f56       0x33 .\CortexM3\ARM_GCC_541\Debug\lv_theme_template.o
 .ARM.attributes
                0x00000f89       0x33 .\CortexM3\ARM_GCC_541\Debug\lv_arc.o
 .ARM.attributes
                0x00000fbc       0x33 .\CortexM3\ARM_GCC_541\Debug\lv_bar.o
 .ARM.attributes
                0x00000fef       0x33 .\CortexM3\ARM_GCC_541\Debug\lv_btn.o
 .ARM.attributes
                0x00001022       0x33 .\CortexM3\ARM_GCC_541\Debug\lv_btnmatrix.o
 .ARM.attributes
                0x00001055       0x33 .\CortexM3\ARM_GCC_541\Debug\lv_calendar.o
 .ARM.attributes
                0x00001088       0x33 .\CortexM3\ARM_GCC_541\Debug\lv_canvas.o
 .ARM.attributes
                0x000010bb       0x33 .\CortexM3\ARM_GCC_541\Debug\lv_chart.o
 .ARM.attributes
                0x000010ee       0x33 .\CortexM3\ARM_GCC_541\Debug\lv_checkbox.o
 .ARM.attributes
                0x00001121       0x33 .\CortexM3\ARM_GCC_541\Debug\lv_cont.o
 .ARM.attributes
                0x00001154       0x33 .\CortexM3\ARM_GCC_541\Debug\lv_cpicker.o
 .ARM.attributes
                0x00001187       0x33 .\CortexM3\ARM_GCC_541\Debug\lv_dropdown.o
 .ARM.attributes
                0x000011ba       0x33 .\CortexM3\ARM_GCC_541\Debug\lv_gauge.o
 .ARM.attributes
                0x000011ed       0x33 .\CortexM3\ARM_GCC_541\Debug\lv_img.o
 .ARM.attributes
                0x00001220       0x33 .\CortexM3\ARM_GCC_541\Debug\lv_imgbtn.o
 .ARM.attributes
                0x00001253       0x33 .\CortexM3\ARM_GCC_541\Debug\lv_keyboard.o
 .ARM.attributes
                0x00001286       0x33 .\CortexM3\ARM_GCC_541\Debug\lv_label.o
 .ARM.attributes
                0x000012b9       0x33 .\CortexM3\ARM_GCC_541\Debug\lv_led.o
 .ARM.attributes
                0x000012ec       0x33 .\CortexM3\ARM_GCC_541\Debug\lv_line.o
 .ARM.attributes
                0x0000131f       0x33 .\CortexM3\ARM_GCC_541\Debug\lv_linemeter.o
 .ARM.attributes
                0x00001352       0x33 .\CortexM3\ARM_GCC_541\Debug\lv_list.o
 .ARM.attributes
                0x00001385       0x33 .\CortexM3\ARM_GCC_541\Debug\lv_msgbox.o
 .ARM.attributes
                0x000013b8       0x33 .\CortexM3\ARM_GCC_541\Debug\lv_objmask.o
 .ARM.attributes
                0x000013eb       0x33 .\CortexM3\ARM_GCC_541\Debug\lv_objx_templ.o
 .ARM.attributes
                0x0000141e       0x33 .\CortexM3\ARM_GCC_541\Debug\lv_page.o
 .ARM.attributes
                0x00001451       0x33 .\CortexM3\ARM_GCC_541\Debug\lv_roller.o
 .ARM.attributes
                0x00001484       0x33 .\CortexM3\ARM_GCC_541\Debug\lv_slider.o
 .ARM.attributes
                0x000014b7       0x33 .\CortexM3\ARM_GCC_541\Debug\lv_spinbox.o
 .ARM.attributes
                0x000014ea       0x33 .\CortexM3\ARM_GCC_541\Debug\lv_spinner.o
 .ARM.attributes
                0x0000151d       0x33 .\CortexM3\ARM_GCC_541\Debug\lv_switch.o
 .ARM.attributes
                0x00001550       0x33 .\CortexM3\ARM_GCC_541\Debug\lv_table.o
 .ARM.attributes
                0x00001583       0x33 .\CortexM3\ARM_GCC_541\Debug\lv_tabview.o
 .ARM.attributes
                0x000015b6       0x33 .\CortexM3\ARM_GCC_541\Debug\lv_textarea.o
 .ARM.attributes
                0x000015e9       0x33 .\CortexM3\ARM_GCC_541\Debug\lv_tileview.o
 .ARM.attributes
                0x0000161c       0x33 .\CortexM3\ARM_GCC_541\Debug\lv_win.o
 .ARM.attributes
                0x0000164f       0x33 .\CortexM3\ARM_GCC_541\Debug\spi_dma.o
 .ARM.attributes
                0x00001682       0x33 .\CortexM3\ARM_GCC_541\Debug\psoc_platform.o
 .ARM.attributes
                0x000016b5       0x33 .\CortexM3\ARM_GCC_541\Debug\GUI.o
 .ARM.attributes
                0x000016e8       0x33 .\CortexM3\ARM_GCC_541\Debug\cyfitter_cfg.o
 .ARM.attributes
                0x0000171b       0x33 .\CortexM3\ARM_GCC_541\Debug\cymetadata.o
 .ARM.attributes
                0x0000174e       0x33 .\CortexM3\ARM_GCC_541\Debug\Cm3Start.o
 .ARM.attributes
                0x00001781       0x33 .\CortexM3\ARM_GCC_541\Debug\ili9341_master.a(SPI.o)
 .ARM.attributes
                0x000017b4       0x33 .\CortexM3\ARM_GCC_541\Debug\ili9341_master.a(DISP_RST.o)
 .ARM.attributes
                0x000017e7       0x33 .\CortexM3\ARM_GCC_541\Debug\ili9341_master.a(SPI_IntClock.o)
 .ARM.attributes
                0x0000181a       0x33 .\CortexM3\ARM_GCC_541\Debug\ili9341_master.a(CyDmac.o)
 .ARM.attributes
                0x0000184d       0x33 .\CortexM3\ARM_GCC_541\Debug\ili9341_master.a(CyLib.o)
 .ARM.attributes
                0x00001880       0x33 .\CortexM3\ARM_GCC_541\Debug\ili9341_master.a(cyPm.o)
 .ARM.attributes
                0x000018b3       0x33 .\CortexM3\ARM_GCC_541\Debug\ili9341_master.a(DISP_BCKL.o)
 .ARM.attributes
                0x000018e6       0x33 .\CortexM3\ARM_GCC_541\Debug\ili9341_master.a(DISP_DC.o)
 .ARM.attributes
                0x00001919       0x33 .\CortexM3\ARM_GCC_541\Debug\ili9341_master.a(DMA_Tx_dma.o)
 .ARM.attributes
                0x0000194c       0x33 .\CortexM3\ARM_GCC_541\Debug\ili9341_master.a(UART.o)
 .ARM.attributes
                0x0000197f       0x33 .\CortexM3\ARM_GCC_541\Debug\ili9341_master.a(isr_SPI_TX_DMA.o)
 .ARM.attributes
                0x000019b2       0x33 .\CortexM3\ARM_GCC_541\Debug\ili9341_master.a(isr_SPI_TX.o)
 .ARM.attributes
                0x000019e5       0x33 .\CortexM3\ARM_GCC_541\Debug\ili9341_master.a(SS.o)
 .ARM.attributes
                0x00001a18       0x33 .\CortexM3\ARM_GCC_541\Debug\ili9341_master.a(QuadDec.o)
 .ARM.attributes
                0x00001a4b       0x33 .\CortexM3\ARM_GCC_541\Debug\ili9341_master.a(QuadDec_Cnt8.o)
 .ARM.attributes
                0x00001a7e       0x33 .\CortexM3\ARM_GCC_541\Debug\ili9341_master.a(QuadDec_SW.o)
 .ARM.attributes
                0x00001ab1       0x21 .\CortexM3\ARM_GCC_541\Debug\ili9341_master.a(CyBootAsmGnu.o)
 .ARM.attributes
                0x00001ad2       0x21 .\CortexM3\ARM_GCC_541\Debug\ili9341_master.a(UART_AsmGnu.o)
 .ARM.attributes
                0x00001af3       0x33 .\CortexM3\ARM_GCC_541\Debug\ili9341_master.a(CyFlash.o)
 .ARM.attributes
                0x00001b26       0x33 .\CortexM3\ARM_GCC_541\Debug\ili9341_master.a(CySpc.o)
 .ARM.attributes
                0x00001b59       0x1d c:/program files (x86)/cypress/psoc creator/4.4/psoc creator/import/gnu/arm/5.4.1/bin/../lib/gcc/arm-none-eabi/5.4.1/armv7-m\libgcc.a(_udivsi3.o)
 .ARM.attributes
                0x00001b76       0x1d c:/program files (x86)/cypress/psoc creator/4.4/psoc creator/import/gnu/arm/5.4.1/bin/../lib/gcc/arm-none-eabi/5.4.1/armv7-m\libgcc.a(_dvmd_tls.o)
 .ARM.attributes
                0x00001b93       0x1d c:/program files (x86)/cypress/psoc creator/4.4/psoc creator/import/gnu/arm/5.4.1/bin/../lib/gcc/arm-none-eabi/5.4.1/armv7-m\libgcc.a(_aeabi_uldivmod.o)
 .ARM.attributes
                0x00001bb0       0x2d c:/program files (x86)/cypress/psoc creator/4.4/psoc creator/import/gnu/arm/5.4.1/bin/../lib/gcc/arm-none-eabi/5.4.1/armv7-m\libgcc.a(_udivmoddi4.o)
 .ARM.attributes
                0x00001bdd       0x2d c:/program files (x86)/cypress/psoc creator/4.4/psoc creator/import/gnu/arm/5.4.1/bin/../lib/gcc/arm-none-eabi/5.4.1/../../../../arm-none-eabi/lib/armv7-m\libg_nano.a(lib_a-errno.o)
 .ARM.attributes
                0x00001c0a       0x2d c:/program files (x86)/cypress/psoc creator/4.4/psoc creator/import/gnu/arm/5.4.1/bin/../lib/gcc/arm-none-eabi/5.4.1/../../../../arm-none-eabi/lib/armv7-m\libg_nano.a(lib_a-exit.o)
 .ARM.attributes
                0x00001c37       0x2d c:/program files (x86)/cypress/psoc creator/4.4/psoc creator/import/gnu/arm/5.4.1/bin/../lib/gcc/arm-none-eabi/5.4.1/../../../../arm-none-eabi/lib/armv7-m\libg_nano.a(lib_a-impure.o)
 .ARM.attributes
                0x00001c64       0x2d c:/program files (x86)/cypress/psoc creator/4.4/psoc creator/import/gnu/arm/5.4.1/bin/../lib/gcc/arm-none-eabi/5.4.1/../../../../arm-none-eabi/lib/armv7-m\libg_nano.a(lib_a-init.o)
 .ARM.attributes
                0x00001c91       0x2d c:/program files (x86)/cypress/psoc creator/4.4/psoc creator/import/gnu/arm/5.4.1/bin/../lib/gcc/arm-none-eabi/5.4.1/../../../../arm-none-eabi/lib/armv7-m\libg_nano.a(lib_a-memcmp.o)
 .ARM.attributes
                0x00001cbe       0x2d c:/program files (x86)/cypress/psoc creator/4.4/psoc creator/import/gnu/arm/5.4.1/bin/../lib/gcc/arm-none-eabi/5.4.1/../../../../arm-none-eabi/lib/armv7-m\libg_nano.a(lib_a-memcpy-stub.o)
 .ARM.attributes
                0x00001ceb       0x2d c:/program files (x86)/cypress/psoc creator/4.4/psoc creator/import/gnu/arm/5.4.1/bin/../lib/gcc/arm-none-eabi/5.4.1/../../../../arm-none-eabi/lib/armv7-m\libg_nano.a(lib_a-memset.o)
 .ARM.attributes
                0x00001d18       0x1b c:/program files (x86)/cypress/psoc creator/4.4/psoc creator/import/gnu/arm/5.4.1/bin/../lib/gcc/arm-none-eabi/5.4.1/../../../../arm-none-eabi/lib/armv7-m\libg_nano.a(lib_a-strcmp.o)
 .ARM.attributes
                0x00001d33       0x2d c:/program files (x86)/cypress/psoc creator/4.4/psoc creator/import/gnu/arm/5.4.1/bin/../lib/gcc/arm-none-eabi/5.4.1/../../../../arm-none-eabi/lib/armv7-m\libg_nano.a(lib_a-strcpy.o)
 .ARM.attributes
                0x00001d60       0x17 c:/program files (x86)/cypress/psoc creator/4.4/psoc creator/import/gnu/arm/5.4.1/bin/../lib/gcc/arm-none-eabi/5.4.1/../../../../arm-none-eabi/lib/armv7-m\libg_nano.a(lib_a-strlen.o)
 .ARM.attributes
                0x00001d77       0x2d c:/program files (x86)/cypress/psoc creator/4.4/psoc creator/import/gnu/arm/5.4.1/bin/../lib/gcc/arm-none-eabi/5.4.1/armv7-m/crtend.o
 .ARM.attributes
                0x00001da4       0x1d c:/program files (x86)/cypress/psoc creator/4.4/psoc creator/import/gnu/arm/5.4.1/bin/../lib/gcc/arm-none-eabi/5.4.1/armv7-m/crtn.o

/DISCARD/
 *(.note.GNU-stack)
OUTPUT(C:\Users\strap\Documents\Creator\test_lvgl\ili9341_master.cydsn\CortexM3\ARM_GCC_541\Debug\ili9341_master.elf elf32-littlearm)
