ARM GAS  C:\Users\strap\AppData\Local\Temp\ccEoi7AG.s 			page 1


   1              		.syntax unified
   2              		.cpu cortex-m3
   3              		.fpu softvfp
   4              		.eabi_attribute 20, 1
   5              		.eabi_attribute 21, 1
   6              		.eabi_attribute 23, 3
   7              		.eabi_attribute 24, 1
   8              		.eabi_attribute 25, 1
   9              		.eabi_attribute 26, 1
  10              		.eabi_attribute 30, 1
  11              		.eabi_attribute 34, 1
  12              		.eabi_attribute 18, 4
  13              		.thumb
  14              		.syntax unified
  15              		.file	"lv_async.c"
  16              		.text
  17              	.Ltext0:
  18              		.cfi_sections	.debug_frame
  19              		.section	.text.lv_async_task_cb,"ax",%progbits
  20              		.align	2
  21              		.thumb
  22              		.thumb_func
  23              		.type	lv_async_task_cb, %function
  24              	lv_async_task_cb:
  25              	.LFB2:
  26              		.file 1 "lvgl\\src\\lv_misc\\lv_async.c"
   1:lvgl\src\lv_misc/lv_async.c **** /**
   2:lvgl\src\lv_misc/lv_async.c ****  * @file lv_async.c
   3:lvgl\src\lv_misc/lv_async.c ****  *
   4:lvgl\src\lv_misc/lv_async.c ****  */
   5:lvgl\src\lv_misc/lv_async.c **** 
   6:lvgl\src\lv_misc/lv_async.c **** /*********************
   7:lvgl\src\lv_misc/lv_async.c ****  *      INCLUDES
   8:lvgl\src\lv_misc/lv_async.c ****  *********************/
   9:lvgl\src\lv_misc/lv_async.c **** 
  10:lvgl\src\lv_misc/lv_async.c **** #include "lv_async.h"
  11:lvgl\src\lv_misc/lv_async.c **** 
  12:lvgl\src\lv_misc/lv_async.c **** /*********************
  13:lvgl\src\lv_misc/lv_async.c ****  *      DEFINES
  14:lvgl\src\lv_misc/lv_async.c ****  *********************/
  15:lvgl\src\lv_misc/lv_async.c **** 
  16:lvgl\src\lv_misc/lv_async.c **** /**********************
  17:lvgl\src\lv_misc/lv_async.c ****  *      TYPEDEFS
  18:lvgl\src\lv_misc/lv_async.c ****  **********************/
  19:lvgl\src\lv_misc/lv_async.c **** 
  20:lvgl\src\lv_misc/lv_async.c **** /**********************
  21:lvgl\src\lv_misc/lv_async.c ****  *  STATIC PROTOTYPES
  22:lvgl\src\lv_misc/lv_async.c ****  **********************/
  23:lvgl\src\lv_misc/lv_async.c **** 
  24:lvgl\src\lv_misc/lv_async.c **** static void lv_async_task_cb(lv_task_t * task);
  25:lvgl\src\lv_misc/lv_async.c **** 
  26:lvgl\src\lv_misc/lv_async.c **** /**********************
  27:lvgl\src\lv_misc/lv_async.c ****  *  STATIC VARIABLES
  28:lvgl\src\lv_misc/lv_async.c ****  **********************/
  29:lvgl\src\lv_misc/lv_async.c **** 
  30:lvgl\src\lv_misc/lv_async.c **** /**********************
  31:lvgl\src\lv_misc/lv_async.c ****  *      MACROS
ARM GAS  C:\Users\strap\AppData\Local\Temp\ccEoi7AG.s 			page 2


  32:lvgl\src\lv_misc/lv_async.c ****  **********************/
  33:lvgl\src\lv_misc/lv_async.c **** 
  34:lvgl\src\lv_misc/lv_async.c **** /**********************
  35:lvgl\src\lv_misc/lv_async.c ****  *   GLOBAL FUNCTIONS
  36:lvgl\src\lv_misc/lv_async.c ****  **********************/
  37:lvgl\src\lv_misc/lv_async.c **** 
  38:lvgl\src\lv_misc/lv_async.c **** lv_res_t lv_async_call(lv_async_cb_t async_xcb, void * user_data)
  39:lvgl\src\lv_misc/lv_async.c **** {
  40:lvgl\src\lv_misc/lv_async.c ****     /*Allocate an info structure */
  41:lvgl\src\lv_misc/lv_async.c ****     lv_async_info_t * info = lv_mem_alloc(sizeof(lv_async_info_t));
  42:lvgl\src\lv_misc/lv_async.c **** 
  43:lvgl\src\lv_misc/lv_async.c ****     if(info == NULL)
  44:lvgl\src\lv_misc/lv_async.c ****         return LV_RES_INV;
  45:lvgl\src\lv_misc/lv_async.c **** 
  46:lvgl\src\lv_misc/lv_async.c ****     /* Create a new task */
  47:lvgl\src\lv_misc/lv_async.c ****     /* Use highest priority so that it will run before a refresh */
  48:lvgl\src\lv_misc/lv_async.c ****     lv_task_t * task = lv_task_create(lv_async_task_cb, 0, LV_TASK_PRIO_HIGHEST, info);
  49:lvgl\src\lv_misc/lv_async.c **** 
  50:lvgl\src\lv_misc/lv_async.c ****     if(task == NULL) {
  51:lvgl\src\lv_misc/lv_async.c ****         lv_mem_free(info);
  52:lvgl\src\lv_misc/lv_async.c ****         return LV_RES_INV;
  53:lvgl\src\lv_misc/lv_async.c ****     }
  54:lvgl\src\lv_misc/lv_async.c **** 
  55:lvgl\src\lv_misc/lv_async.c ****     info->cb = async_xcb;
  56:lvgl\src\lv_misc/lv_async.c ****     info->user_data = user_data;
  57:lvgl\src\lv_misc/lv_async.c **** 
  58:lvgl\src\lv_misc/lv_async.c ****     /* Set the task's user data */
  59:lvgl\src\lv_misc/lv_async.c ****     task->user_data = info;
  60:lvgl\src\lv_misc/lv_async.c ****     lv_task_set_repeat_count(task, 1);
  61:lvgl\src\lv_misc/lv_async.c ****     return LV_RES_OK;
  62:lvgl\src\lv_misc/lv_async.c **** }
  63:lvgl\src\lv_misc/lv_async.c **** 
  64:lvgl\src\lv_misc/lv_async.c **** /**********************
  65:lvgl\src\lv_misc/lv_async.c ****  *   STATIC FUNCTIONS
  66:lvgl\src\lv_misc/lv_async.c ****  **********************/
  67:lvgl\src\lv_misc/lv_async.c **** 
  68:lvgl\src\lv_misc/lv_async.c **** static void lv_async_task_cb(lv_task_t * task)
  69:lvgl\src\lv_misc/lv_async.c **** {
  27              		.loc 1 69 0
  28              		.cfi_startproc
  29              		@ args = 0, pretend = 0, frame = 0
  30              		@ frame_needed = 0, uses_anonymous_args = 0
  31              	.LVL0:
  32 0000 10B5     		push	{r4, lr}
  33              		.cfi_def_cfa_offset 8
  34              		.cfi_offset 4, -8
  35              		.cfi_offset 14, -4
  70:lvgl\src\lv_misc/lv_async.c ****     lv_async_info_t * info = (lv_async_info_t *)task->user_data;
  36              		.loc 1 70 0
  37 0002 C468     		ldr	r4, [r0, #12]
  38              	.LVL1:
  71:lvgl\src\lv_misc/lv_async.c **** 
  72:lvgl\src\lv_misc/lv_async.c ****     info->cb(info->user_data);
  39              		.loc 1 72 0
  40 0004 2368     		ldr	r3, [r4]
  41 0006 6068     		ldr	r0, [r4, #4]
  42              	.LVL2:
ARM GAS  C:\Users\strap\AppData\Local\Temp\ccEoi7AG.s 			page 3


  43 0008 9847     		blx	r3
  44              	.LVL3:
  73:lvgl\src\lv_misc/lv_async.c **** 
  74:lvgl\src\lv_misc/lv_async.c ****     lv_mem_free(info);
  45              		.loc 1 74 0
  46 000a 2046     		mov	r0, r4
  47 000c FFF7FEFF 		bl	lv_mem_free
  48              	.LVL4:
  49 0010 10BD     		pop	{r4, pc}
  50              		.cfi_endproc
  51              	.LFE2:
  52              		.size	lv_async_task_cb, .-lv_async_task_cb
  53 0012 00BF     		.section	.text.lv_async_call,"ax",%progbits
  54              		.align	2
  55              		.global	lv_async_call
  56              		.thumb
  57              		.thumb_func
  58              		.type	lv_async_call, %function
  59              	lv_async_call:
  60              	.LFB1:
  39:lvgl\src\lv_misc/lv_async.c ****     /*Allocate an info structure */
  61              		.loc 1 39 0
  62              		.cfi_startproc
  63              		@ args = 0, pretend = 0, frame = 0
  64              		@ frame_needed = 0, uses_anonymous_args = 0
  65              	.LVL5:
  66 0000 70B5     		push	{r4, r5, r6, lr}
  67              		.cfi_def_cfa_offset 16
  68              		.cfi_offset 4, -16
  69              		.cfi_offset 5, -12
  70              		.cfi_offset 6, -8
  71              		.cfi_offset 14, -4
  72 0002 0646     		mov	r6, r0
  73 0004 0D46     		mov	r5, r1
  41:lvgl\src\lv_misc/lv_async.c **** 
  74              		.loc 1 41 0
  75 0006 0820     		movs	r0, #8
  76              	.LVL6:
  77 0008 FFF7FEFF 		bl	lv_mem_alloc
  78              	.LVL7:
  43:lvgl\src\lv_misc/lv_async.c ****         return LV_RES_INV;
  79              		.loc 1 43 0
  80 000c A0B1     		cbz	r0, .L6
  81 000e 0446     		mov	r4, r0
  48:lvgl\src\lv_misc/lv_async.c **** 
  82              		.loc 1 48 0
  83 0010 0346     		mov	r3, r0
  84 0012 0522     		movs	r2, #5
  85 0014 0021     		movs	r1, #0
  86 0016 0948     		ldr	r0, .L8
  87              	.LVL8:
  88 0018 FFF7FEFF 		bl	lv_task_create
  89              	.LVL9:
  50:lvgl\src\lv_misc/lv_async.c ****         lv_mem_free(info);
  90              		.loc 1 50 0
  91 001c 20B9     		cbnz	r0, .L5
  51:lvgl\src\lv_misc/lv_async.c ****         return LV_RES_INV;
ARM GAS  C:\Users\strap\AppData\Local\Temp\ccEoi7AG.s 			page 4


  92              		.loc 1 51 0
  93 001e 2046     		mov	r0, r4
  94              	.LVL10:
  95 0020 FFF7FEFF 		bl	lv_mem_free
  96              	.LVL11:
  52:lvgl\src\lv_misc/lv_async.c ****     }
  97              		.loc 1 52 0
  98 0024 0020     		movs	r0, #0
  99 0026 70BD     		pop	{r4, r5, r6, pc}
 100              	.LVL12:
 101              	.L5:
  55:lvgl\src\lv_misc/lv_async.c ****     info->user_data = user_data;
 102              		.loc 1 55 0
 103 0028 2660     		str	r6, [r4]
  56:lvgl\src\lv_misc/lv_async.c **** 
 104              		.loc 1 56 0
 105 002a 6560     		str	r5, [r4, #4]
  59:lvgl\src\lv_misc/lv_async.c ****     lv_task_set_repeat_count(task, 1);
 106              		.loc 1 59 0
 107 002c C460     		str	r4, [r0, #12]
  60:lvgl\src\lv_misc/lv_async.c ****     return LV_RES_OK;
 108              		.loc 1 60 0
 109 002e 0121     		movs	r1, #1
 110 0030 FFF7FEFF 		bl	lv_task_set_repeat_count
 111              	.LVL13:
  61:lvgl\src\lv_misc/lv_async.c **** }
 112              		.loc 1 61 0
 113 0034 0120     		movs	r0, #1
 114 0036 70BD     		pop	{r4, r5, r6, pc}
 115              	.LVL14:
 116              	.L6:
  44:lvgl\src\lv_misc/lv_async.c **** 
 117              		.loc 1 44 0
 118 0038 0020     		movs	r0, #0
 119              	.LVL15:
  62:lvgl\src\lv_misc/lv_async.c **** 
 120              		.loc 1 62 0
 121 003a 70BD     		pop	{r4, r5, r6, pc}
 122              	.LVL16:
 123              	.L9:
 124              		.align	2
 125              	.L8:
 126 003c 00000000 		.word	lv_async_task_cb
 127              		.cfi_endproc
 128              	.LFE1:
 129              		.size	lv_async_call, .-lv_async_call
 130              		.text
 131              	.Letext0:
 132              		.file 2 "c:\\program files (x86)\\cypress\\psoc creator\\4.4\\psoc creator\\import\\gnu\\arm\\5.4.
 133              		.file 3 "c:\\program files (x86)\\cypress\\psoc creator\\4.4\\psoc creator\\import\\gnu\\arm\\5.4.
 134              		.file 4 "lvgl\\src\\lv_misc\\lv_types.h"
 135              		.file 5 "lvgl\\src\\lv_misc\\lv_task.h"
 136              		.file 6 "lvgl\\src\\lv_misc\\lv_async.h"
 137              		.file 7 "lvgl\\src\\lv_misc\\lv_mem.h"