ARM GAS  C:\Users\strap\AppData\Local\Temp\ccebyBxd.s 			page 1


   1              		.syntax unified
   2              		.cpu cortex-m3
   3              		.fpu softvfp
   4              		.eabi_attribute 20, 1
   5              		.eabi_attribute 21, 1
   6              		.eabi_attribute 23, 3
   7              		.eabi_attribute 24, 1
   8              		.eabi_attribute 25, 1
   9              		.eabi_attribute 26, 1
  10              		.eabi_attribute 30, 1
  11              		.eabi_attribute 34, 1
  12              		.eabi_attribute 18, 4
  13              		.thumb
  14              		.syntax unified
  15              		.file	"lv_anim.c"
  16              		.text
  17              	.Ltext0:
  18              		.cfi_sections	.debug_frame
  19              		.section	.text.lv_anim_path_linear,"ax",%progbits
  20              		.align	2
  21              		.global	lv_anim_path_linear
  22              		.thumb
  23              		.thumb_func
  24              		.type	lv_anim_path_linear, %function
  25              	lv_anim_path_linear:
  26              	.LFB45:
  27              		.file 1 "lvgl\\src\\lv_misc\\lv_anim.c"
   1:lvgl\src\lv_misc/lv_anim.c **** /**
   2:lvgl\src\lv_misc/lv_anim.c ****  * @file anim.c
   3:lvgl\src\lv_misc/lv_anim.c ****  *
   4:lvgl\src\lv_misc/lv_anim.c ****  */
   5:lvgl\src\lv_misc/lv_anim.c **** 
   6:lvgl\src\lv_misc/lv_anim.c **** /*********************
   7:lvgl\src\lv_misc/lv_anim.c ****  *      INCLUDES
   8:lvgl\src\lv_misc/lv_anim.c ****  *********************/
   9:lvgl\src\lv_misc/lv_anim.c **** #include "lv_anim.h"
  10:lvgl\src\lv_misc/lv_anim.c **** 
  11:lvgl\src\lv_misc/lv_anim.c **** #if LV_USE_ANIMATION
  12:lvgl\src\lv_misc/lv_anim.c **** #include <stddef.h>
  13:lvgl\src\lv_misc/lv_anim.c **** #include <string.h>
  14:lvgl\src\lv_misc/lv_anim.c **** #include "../lv_misc/lv_debug.h"
  15:lvgl\src\lv_misc/lv_anim.c **** #include "../lv_hal/lv_hal_tick.h"
  16:lvgl\src\lv_misc/lv_anim.c **** #include "lv_task.h"
  17:lvgl\src\lv_misc/lv_anim.c **** #include "lv_math.h"
  18:lvgl\src\lv_misc/lv_anim.c **** #include "lv_gc.h"
  19:lvgl\src\lv_misc/lv_anim.c **** 
  20:lvgl\src\lv_misc/lv_anim.c **** #if defined(LV_GC_INCLUDE)
  21:lvgl\src\lv_misc/lv_anim.c ****     #include LV_GC_INCLUDE
  22:lvgl\src\lv_misc/lv_anim.c **** #endif /* LV_ENABLE_GC */
  23:lvgl\src\lv_misc/lv_anim.c **** 
  24:lvgl\src\lv_misc/lv_anim.c **** /*********************
  25:lvgl\src\lv_misc/lv_anim.c ****  *      DEFINES
  26:lvgl\src\lv_misc/lv_anim.c ****  *********************/
  27:lvgl\src\lv_misc/lv_anim.c **** #define LV_ANIM_RESOLUTION 1024
  28:lvgl\src\lv_misc/lv_anim.c **** #define LV_ANIM_RES_SHIFT 10
  29:lvgl\src\lv_misc/lv_anim.c **** #define LV_ANIM_TASK_PRIO LV_TASK_PRIO_HIGH
  30:lvgl\src\lv_misc/lv_anim.c **** 
ARM GAS  C:\Users\strap\AppData\Local\Temp\ccebyBxd.s 			page 2


  31:lvgl\src\lv_misc/lv_anim.c **** /**********************
  32:lvgl\src\lv_misc/lv_anim.c ****  *      TYPEDEFS
  33:lvgl\src\lv_misc/lv_anim.c ****  **********************/
  34:lvgl\src\lv_misc/lv_anim.c **** 
  35:lvgl\src\lv_misc/lv_anim.c **** /**********************
  36:lvgl\src\lv_misc/lv_anim.c ****  *  STATIC PROTOTYPES
  37:lvgl\src\lv_misc/lv_anim.c ****  **********************/
  38:lvgl\src\lv_misc/lv_anim.c **** static void anim_task(lv_task_t * param);
  39:lvgl\src\lv_misc/lv_anim.c **** static void anim_mark_list_change(void);
  40:lvgl\src\lv_misc/lv_anim.c **** static bool anim_ready_handler(lv_anim_t * a);
  41:lvgl\src\lv_misc/lv_anim.c **** 
  42:lvgl\src\lv_misc/lv_anim.c **** /**********************
  43:lvgl\src\lv_misc/lv_anim.c ****  *  STATIC VARIABLES
  44:lvgl\src\lv_misc/lv_anim.c ****  **********************/
  45:lvgl\src\lv_misc/lv_anim.c **** static uint32_t last_task_run;
  46:lvgl\src\lv_misc/lv_anim.c **** static bool anim_list_changed;
  47:lvgl\src\lv_misc/lv_anim.c **** static lv_task_t * _lv_anim_task;
  48:lvgl\src\lv_misc/lv_anim.c **** const lv_anim_path_t lv_anim_path_def = {.cb = lv_anim_path_linear};
  49:lvgl\src\lv_misc/lv_anim.c **** 
  50:lvgl\src\lv_misc/lv_anim.c **** /**********************
  51:lvgl\src\lv_misc/lv_anim.c ****  *      MACROS
  52:lvgl\src\lv_misc/lv_anim.c ****  **********************/
  53:lvgl\src\lv_misc/lv_anim.c **** 
  54:lvgl\src\lv_misc/lv_anim.c **** /**********************
  55:lvgl\src\lv_misc/lv_anim.c ****  *   GLOBAL FUNCTIONS
  56:lvgl\src\lv_misc/lv_anim.c ****  **********************/
  57:lvgl\src\lv_misc/lv_anim.c **** 
  58:lvgl\src\lv_misc/lv_anim.c **** /**
  59:lvgl\src\lv_misc/lv_anim.c ****  * Init. the animation module
  60:lvgl\src\lv_misc/lv_anim.c ****  */
  61:lvgl\src\lv_misc/lv_anim.c **** void _lv_anim_core_init(void)
  62:lvgl\src\lv_misc/lv_anim.c **** {
  63:lvgl\src\lv_misc/lv_anim.c ****     _lv_ll_init(&LV_GC_ROOT(_lv_anim_ll), sizeof(lv_anim_t));
  64:lvgl\src\lv_misc/lv_anim.c ****     last_task_run = lv_tick_get();
  65:lvgl\src\lv_misc/lv_anim.c ****     _lv_anim_task = lv_task_create(anim_task, LV_DISP_DEF_REFR_PERIOD, LV_ANIM_TASK_PRIO, NULL);
  66:lvgl\src\lv_misc/lv_anim.c ****     anim_mark_list_change(); /*Turn off the animation task*/
  67:lvgl\src\lv_misc/lv_anim.c ****     anim_list_changed = false; /*The list has not actually changed*/
  68:lvgl\src\lv_misc/lv_anim.c **** }
  69:lvgl\src\lv_misc/lv_anim.c **** 
  70:lvgl\src\lv_misc/lv_anim.c **** /**
  71:lvgl\src\lv_misc/lv_anim.c ****  * Initialize an animation variable.
  72:lvgl\src\lv_misc/lv_anim.c ****  * E.g.:
  73:lvgl\src\lv_misc/lv_anim.c ****  * lv_anim_t a;
  74:lvgl\src\lv_misc/lv_anim.c ****  * lv_anim_init(&a);
  75:lvgl\src\lv_misc/lv_anim.c ****  * lv_anim_set_...(&a);
  76:lvgl\src\lv_misc/lv_anim.c ****  * @param a pointer to an `lv_anim_t` variable to initialize
  77:lvgl\src\lv_misc/lv_anim.c ****  */
  78:lvgl\src\lv_misc/lv_anim.c **** void lv_anim_init(lv_anim_t * a)
  79:lvgl\src\lv_misc/lv_anim.c **** {
  80:lvgl\src\lv_misc/lv_anim.c ****     _lv_memset_00(a, sizeof(lv_anim_t));
  81:lvgl\src\lv_misc/lv_anim.c ****     a->time    = 500;
  82:lvgl\src\lv_misc/lv_anim.c ****     a->start   = 0;
  83:lvgl\src\lv_misc/lv_anim.c ****     a->end     = 100;
  84:lvgl\src\lv_misc/lv_anim.c ****     _lv_memcpy_small(&a->path, &lv_anim_path_def, sizeof(lv_anim_path_cb_t));
  85:lvgl\src\lv_misc/lv_anim.c ****     a->repeat_cnt = 1;
  86:lvgl\src\lv_misc/lv_anim.c ****     a->early_apply = 1;
  87:lvgl\src\lv_misc/lv_anim.c **** }
ARM GAS  C:\Users\strap\AppData\Local\Temp\ccebyBxd.s 			page 3


  88:lvgl\src\lv_misc/lv_anim.c **** /**
  89:lvgl\src\lv_misc/lv_anim.c ****  * Create an animation
  90:lvgl\src\lv_misc/lv_anim.c ****  * @param a an initialized 'anim_t' variable. Not required after call.
  91:lvgl\src\lv_misc/lv_anim.c ****  */
  92:lvgl\src\lv_misc/lv_anim.c **** void lv_anim_start(lv_anim_t * a)
  93:lvgl\src\lv_misc/lv_anim.c **** {
  94:lvgl\src\lv_misc/lv_anim.c ****     LV_LOG_TRACE("animation create started")
  95:lvgl\src\lv_misc/lv_anim.c ****     /* Do not let two animations for the  same 'var' with the same 'fp'*/
  96:lvgl\src\lv_misc/lv_anim.c ****     if(a->exec_cb != NULL) lv_anim_del(a->var, a->exec_cb); /*fp == NULL would delete all animation
  97:lvgl\src\lv_misc/lv_anim.c **** 
  98:lvgl\src\lv_misc/lv_anim.c ****     /*If the list is empty the anim task was suspended and it's last run measure is invalid*/
  99:lvgl\src\lv_misc/lv_anim.c ****     if(_lv_ll_is_empty(&LV_GC_ROOT(_lv_anim_ll))) {
 100:lvgl\src\lv_misc/lv_anim.c ****         last_task_run = lv_tick_get() - 1;
 101:lvgl\src\lv_misc/lv_anim.c ****     }
 102:lvgl\src\lv_misc/lv_anim.c **** 
 103:lvgl\src\lv_misc/lv_anim.c ****     /*Add the new animation to the animation linked list*/
 104:lvgl\src\lv_misc/lv_anim.c ****     lv_anim_t * new_anim = _lv_ll_ins_head(&LV_GC_ROOT(_lv_anim_ll));
 105:lvgl\src\lv_misc/lv_anim.c ****     LV_ASSERT_MEM(new_anim);
 106:lvgl\src\lv_misc/lv_anim.c ****     if(new_anim == NULL) return;
 107:lvgl\src\lv_misc/lv_anim.c **** 
 108:lvgl\src\lv_misc/lv_anim.c ****     /*Initialize the animation descriptor*/
 109:lvgl\src\lv_misc/lv_anim.c ****     a->time_orig = a->time;
 110:lvgl\src\lv_misc/lv_anim.c ****     _lv_memcpy(new_anim, a, sizeof(lv_anim_t));
 111:lvgl\src\lv_misc/lv_anim.c **** 
 112:lvgl\src\lv_misc/lv_anim.c ****     /*Set the start value*/
 113:lvgl\src\lv_misc/lv_anim.c ****     if(new_anim->early_apply) {
 114:lvgl\src\lv_misc/lv_anim.c ****         if(new_anim->exec_cb && new_anim->var) new_anim->exec_cb(new_anim->var, new_anim->start);
 115:lvgl\src\lv_misc/lv_anim.c ****     }
 116:lvgl\src\lv_misc/lv_anim.c **** 
 117:lvgl\src\lv_misc/lv_anim.c ****     /* Creating an animation changed the linked list.
 118:lvgl\src\lv_misc/lv_anim.c ****      * It's important if it happens in a ready callback. (see `anim_task`)*/
 119:lvgl\src\lv_misc/lv_anim.c ****     anim_mark_list_change();
 120:lvgl\src\lv_misc/lv_anim.c **** 
 121:lvgl\src\lv_misc/lv_anim.c ****     LV_LOG_TRACE("animation created")
 122:lvgl\src\lv_misc/lv_anim.c **** }
 123:lvgl\src\lv_misc/lv_anim.c **** 
 124:lvgl\src\lv_misc/lv_anim.c **** /**
 125:lvgl\src\lv_misc/lv_anim.c ****  * Delete an animation of a variable with a given animator function
 126:lvgl\src\lv_misc/lv_anim.c ****  * @param var pointer to variable
 127:lvgl\src\lv_misc/lv_anim.c ****  * @param exec_cb a function pointer which is animating 'var',
 128:lvgl\src\lv_misc/lv_anim.c ****  *           or NULL to delete all the animations of 'var'
 129:lvgl\src\lv_misc/lv_anim.c ****  * @return true: at least 1 animation is deleted, false: no animation is deleted
 130:lvgl\src\lv_misc/lv_anim.c ****  */
 131:lvgl\src\lv_misc/lv_anim.c **** bool lv_anim_del(void * var, lv_anim_exec_xcb_t exec_cb)
 132:lvgl\src\lv_misc/lv_anim.c **** {
 133:lvgl\src\lv_misc/lv_anim.c ****     lv_anim_t * a;
 134:lvgl\src\lv_misc/lv_anim.c ****     lv_anim_t * a_next;
 135:lvgl\src\lv_misc/lv_anim.c ****     bool del = false;
 136:lvgl\src\lv_misc/lv_anim.c ****     a        = _lv_ll_get_head(&LV_GC_ROOT(_lv_anim_ll));
 137:lvgl\src\lv_misc/lv_anim.c ****     while(a != NULL) {
 138:lvgl\src\lv_misc/lv_anim.c ****         /*'a' might be deleted, so get the next object while 'a' is valid*/
 139:lvgl\src\lv_misc/lv_anim.c ****         a_next = _lv_ll_get_next(&LV_GC_ROOT(_lv_anim_ll), a);
 140:lvgl\src\lv_misc/lv_anim.c **** 
 141:lvgl\src\lv_misc/lv_anim.c ****         if(a->var == var && (a->exec_cb == exec_cb || exec_cb == NULL)) {
 142:lvgl\src\lv_misc/lv_anim.c ****             _lv_ll_remove(&LV_GC_ROOT(_lv_anim_ll), a);
 143:lvgl\src\lv_misc/lv_anim.c ****             lv_mem_free(a);
 144:lvgl\src\lv_misc/lv_anim.c ****             anim_mark_list_change(); /*Read by `anim_task`. It need to know if a delete occurred in
ARM GAS  C:\Users\strap\AppData\Local\Temp\ccebyBxd.s 			page 4


 145:lvgl\src\lv_misc/lv_anim.c ****                                          the linked list*/
 146:lvgl\src\lv_misc/lv_anim.c ****             del = true;
 147:lvgl\src\lv_misc/lv_anim.c ****         }
 148:lvgl\src\lv_misc/lv_anim.c **** 
 149:lvgl\src\lv_misc/lv_anim.c ****         a = a_next;
 150:lvgl\src\lv_misc/lv_anim.c ****     }
 151:lvgl\src\lv_misc/lv_anim.c **** 
 152:lvgl\src\lv_misc/lv_anim.c ****     return del;
 153:lvgl\src\lv_misc/lv_anim.c **** }
 154:lvgl\src\lv_misc/lv_anim.c **** 
 155:lvgl\src\lv_misc/lv_anim.c **** /**
 156:lvgl\src\lv_misc/lv_anim.c ****  * Get the animation of a variable and its `exec_cb`.
 157:lvgl\src\lv_misc/lv_anim.c ****  * @param var pointer to variable
 158:lvgl\src\lv_misc/lv_anim.c ****  * @param exec_cb a function pointer which is animating 'var',
 159:lvgl\src\lv_misc/lv_anim.c ****  *           or NULL to delete all the animations of 'var'
 160:lvgl\src\lv_misc/lv_anim.c ****  * @return pointer to the animation.
 161:lvgl\src\lv_misc/lv_anim.c ****  */
 162:lvgl\src\lv_misc/lv_anim.c **** lv_anim_t * lv_anim_get(void * var, lv_anim_exec_xcb_t exec_cb)
 163:lvgl\src\lv_misc/lv_anim.c **** {
 164:lvgl\src\lv_misc/lv_anim.c ****     lv_anim_t * a;
 165:lvgl\src\lv_misc/lv_anim.c ****     _LV_LL_READ(LV_GC_ROOT(_lv_anim_ll), a) {
 166:lvgl\src\lv_misc/lv_anim.c ****         if(a->var == var && a->exec_cb == exec_cb) {
 167:lvgl\src\lv_misc/lv_anim.c ****             return a;
 168:lvgl\src\lv_misc/lv_anim.c ****         }
 169:lvgl\src\lv_misc/lv_anim.c ****     }
 170:lvgl\src\lv_misc/lv_anim.c **** 
 171:lvgl\src\lv_misc/lv_anim.c ****     return NULL;
 172:lvgl\src\lv_misc/lv_anim.c **** }
 173:lvgl\src\lv_misc/lv_anim.c **** 
 174:lvgl\src\lv_misc/lv_anim.c **** /**
 175:lvgl\src\lv_misc/lv_anim.c ****  * Get the number of currently running animations
 176:lvgl\src\lv_misc/lv_anim.c ****  * @return the number of running animations
 177:lvgl\src\lv_misc/lv_anim.c ****  */
 178:lvgl\src\lv_misc/lv_anim.c **** uint16_t lv_anim_count_running(void)
 179:lvgl\src\lv_misc/lv_anim.c **** {
 180:lvgl\src\lv_misc/lv_anim.c ****     uint16_t cnt = 0;
 181:lvgl\src\lv_misc/lv_anim.c ****     lv_anim_t * a;
 182:lvgl\src\lv_misc/lv_anim.c ****     _LV_LL_READ(LV_GC_ROOT(_lv_anim_ll), a) cnt++;
 183:lvgl\src\lv_misc/lv_anim.c **** 
 184:lvgl\src\lv_misc/lv_anim.c ****     return cnt;
 185:lvgl\src\lv_misc/lv_anim.c **** }
 186:lvgl\src\lv_misc/lv_anim.c **** 
 187:lvgl\src\lv_misc/lv_anim.c **** /**
 188:lvgl\src\lv_misc/lv_anim.c ****  * Calculate the time of an animation with a given speed and the start and end values
 189:lvgl\src\lv_misc/lv_anim.c ****  * @param speed speed of animation in unit/sec
 190:lvgl\src\lv_misc/lv_anim.c ****  * @param start start value of the animation
 191:lvgl\src\lv_misc/lv_anim.c ****  * @param end end value of the animation
 192:lvgl\src\lv_misc/lv_anim.c ****  * @return the required time [ms] for the animation with the given parameters
 193:lvgl\src\lv_misc/lv_anim.c ****  */
 194:lvgl\src\lv_misc/lv_anim.c **** uint16_t lv_anim_speed_to_time(uint16_t speed, lv_anim_value_t start, lv_anim_value_t end)
 195:lvgl\src\lv_misc/lv_anim.c **** {
 196:lvgl\src\lv_misc/lv_anim.c ****     int32_t d     = LV_MATH_ABS((int32_t)start - end);
 197:lvgl\src\lv_misc/lv_anim.c ****     uint32_t time = (int32_t)((int32_t)(d * 1000) / speed);
 198:lvgl\src\lv_misc/lv_anim.c **** 
 199:lvgl\src\lv_misc/lv_anim.c ****     if(time > UINT16_MAX) time = UINT16_MAX;
 200:lvgl\src\lv_misc/lv_anim.c **** 
 201:lvgl\src\lv_misc/lv_anim.c ****     if(time == 0) {
ARM GAS  C:\Users\strap\AppData\Local\Temp\ccebyBxd.s 			page 5


 202:lvgl\src\lv_misc/lv_anim.c ****         time++;
 203:lvgl\src\lv_misc/lv_anim.c ****     }
 204:lvgl\src\lv_misc/lv_anim.c **** 
 205:lvgl\src\lv_misc/lv_anim.c ****     return time;
 206:lvgl\src\lv_misc/lv_anim.c **** }
 207:lvgl\src\lv_misc/lv_anim.c **** 
 208:lvgl\src\lv_misc/lv_anim.c **** /**
 209:lvgl\src\lv_misc/lv_anim.c ****  * Manually refresh the state of the animations.
 210:lvgl\src\lv_misc/lv_anim.c ****  * Useful to make the animations running in a blocking process where
 211:lvgl\src\lv_misc/lv_anim.c ****  * `lv_task_handler` can't run for a while.
 212:lvgl\src\lv_misc/lv_anim.c ****  * Shouldn't be used directly because it is called in `lv_refr_now()`.
 213:lvgl\src\lv_misc/lv_anim.c ****  */
 214:lvgl\src\lv_misc/lv_anim.c **** void lv_anim_refr_now(void)
 215:lvgl\src\lv_misc/lv_anim.c **** {
 216:lvgl\src\lv_misc/lv_anim.c ****     anim_task(NULL);
 217:lvgl\src\lv_misc/lv_anim.c **** }
 218:lvgl\src\lv_misc/lv_anim.c **** 
 219:lvgl\src\lv_misc/lv_anim.c **** /**
 220:lvgl\src\lv_misc/lv_anim.c ****  * Calculate the current value of an animation applying linear characteristic
 221:lvgl\src\lv_misc/lv_anim.c ****  * @param a pointer to an animation
 222:lvgl\src\lv_misc/lv_anim.c ****  * @return the current value to set
 223:lvgl\src\lv_misc/lv_anim.c ****  */
 224:lvgl\src\lv_misc/lv_anim.c **** lv_anim_value_t lv_anim_path_linear(const lv_anim_path_t * path, const lv_anim_t * a)
 225:lvgl\src\lv_misc/lv_anim.c **** {
  28              		.loc 1 225 0
  29              		.cfi_startproc
  30              		@ args = 0, pretend = 0, frame = 0
  31              		@ frame_needed = 0, uses_anonymous_args = 0
  32              		@ link register save eliminated.
  33              	.LVL0:
 226:lvgl\src\lv_misc/lv_anim.c ****     LV_UNUSED(path);
 227:lvgl\src\lv_misc/lv_anim.c **** 
 228:lvgl\src\lv_misc/lv_anim.c ****     /*Calculate the current step*/
 229:lvgl\src\lv_misc/lv_anim.c ****     uint32_t step;
 230:lvgl\src\lv_misc/lv_anim.c ****     if(a->time == a->act_time) {
  34              		.loc 1 230 0
  35 0000 4A6A     		ldr	r2, [r1, #36]
  36 0002 8B6A     		ldr	r3, [r1, #40]
  37 0004 9A42     		cmp	r2, r3
  38 0006 03D0     		beq	.L3
 231:lvgl\src\lv_misc/lv_anim.c ****         step = LV_ANIM_RESOLUTION; /*Use the last value if the time fully elapsed*/
 232:lvgl\src\lv_misc/lv_anim.c ****     }
 233:lvgl\src\lv_misc/lv_anim.c ****     else {
 234:lvgl\src\lv_misc/lv_anim.c ****         step = ((int32_t)a->act_time * LV_ANIM_RESOLUTION) / a->time;
  39              		.loc 1 234 0
  40 0008 9B02     		lsls	r3, r3, #10
  41 000a 93FBF2F2 		sdiv	r2, r3, r2
  42              	.LVL1:
  43 000e 01E0     		b	.L2
  44              	.LVL2:
  45              	.L3:
 231:lvgl\src\lv_misc/lv_anim.c ****         step = LV_ANIM_RESOLUTION; /*Use the last value if the time fully elapsed*/
  46              		.loc 1 231 0
  47 0010 4FF48062 		mov	r2, #1024
  48              	.L2:
  49              	.LVL3:
 235:lvgl\src\lv_misc/lv_anim.c ****     }
ARM GAS  C:\Users\strap\AppData\Local\Temp\ccebyBxd.s 			page 6


 236:lvgl\src\lv_misc/lv_anim.c **** 
 237:lvgl\src\lv_misc/lv_anim.c ****     /* Get the new value which will be proportional to `step`
 238:lvgl\src\lv_misc/lv_anim.c ****      * and the `start` and `end` values*/
 239:lvgl\src\lv_misc/lv_anim.c ****     int32_t new_value;
 240:lvgl\src\lv_misc/lv_anim.c ****     new_value = (int32_t)step * (a->end - a->start);
  50              		.loc 1 240 0
  51 0014 0B6A     		ldr	r3, [r1, #32]
  52 0016 8969     		ldr	r1, [r1, #24]
  53              	.LVL4:
  54 0018 5B1A     		subs	r3, r3, r1
  55 001a 02FB03F3 		mul	r3, r2, r3
  56              	.LVL5:
 241:lvgl\src\lv_misc/lv_anim.c ****     new_value = new_value >> LV_ANIM_RES_SHIFT;
 242:lvgl\src\lv_misc/lv_anim.c ****     new_value += a->start;
  57              		.loc 1 242 0
  58 001e 01EBA320 		add	r0, r1, r3, asr #10
  59              	.LVL6:
 243:lvgl\src\lv_misc/lv_anim.c **** 
 244:lvgl\src\lv_misc/lv_anim.c ****     return (lv_anim_value_t)new_value;
 245:lvgl\src\lv_misc/lv_anim.c **** }
  60              		.loc 1 245 0
  61 0022 00B2     		sxth	r0, r0
  62              	.LVL7:
  63 0024 7047     		bx	lr
  64              		.cfi_endproc
  65              	.LFE45:
  66              		.size	lv_anim_path_linear, .-lv_anim_path_linear
  67 0026 00BF     		.section	.text.anim_mark_list_change,"ax",%progbits
  68              		.align	2
  69              		.thumb
  70              		.thumb_func
  71              		.type	anim_mark_list_change, %function
  72              	anim_mark_list_change:
  73              	.LFB54:
 246:lvgl\src\lv_misc/lv_anim.c **** 
 247:lvgl\src\lv_misc/lv_anim.c **** /**
 248:lvgl\src\lv_misc/lv_anim.c ****  * Calculate the current value of an animation slowing down the start phase
 249:lvgl\src\lv_misc/lv_anim.c ****  * @param a pointer to an animation
 250:lvgl\src\lv_misc/lv_anim.c ****  * @return the current value to set
 251:lvgl\src\lv_misc/lv_anim.c ****  */
 252:lvgl\src\lv_misc/lv_anim.c **** lv_anim_value_t lv_anim_path_ease_in(const lv_anim_path_t * path, const lv_anim_t * a)
 253:lvgl\src\lv_misc/lv_anim.c **** {
 254:lvgl\src\lv_misc/lv_anim.c ****     LV_UNUSED(path);
 255:lvgl\src\lv_misc/lv_anim.c **** 
 256:lvgl\src\lv_misc/lv_anim.c ****     /*Calculate the current step*/
 257:lvgl\src\lv_misc/lv_anim.c ****     uint32_t t;
 258:lvgl\src\lv_misc/lv_anim.c ****     if(a->time == a->act_time)
 259:lvgl\src\lv_misc/lv_anim.c ****         t = 1024;
 260:lvgl\src\lv_misc/lv_anim.c ****     else
 261:lvgl\src\lv_misc/lv_anim.c ****         t = (uint32_t)((uint32_t)a->act_time * 1024) / a->time;
 262:lvgl\src\lv_misc/lv_anim.c **** 
 263:lvgl\src\lv_misc/lv_anim.c ****     int32_t step = _lv_bezier3(t, 0, 1, 1, 1024);
 264:lvgl\src\lv_misc/lv_anim.c **** 
 265:lvgl\src\lv_misc/lv_anim.c ****     int32_t new_value;
 266:lvgl\src\lv_misc/lv_anim.c ****     new_value = (int32_t)step * (a->end - a->start);
 267:lvgl\src\lv_misc/lv_anim.c ****     new_value = new_value >> 10;
 268:lvgl\src\lv_misc/lv_anim.c ****     new_value += a->start;
ARM GAS  C:\Users\strap\AppData\Local\Temp\ccebyBxd.s 			page 7


 269:lvgl\src\lv_misc/lv_anim.c **** 
 270:lvgl\src\lv_misc/lv_anim.c ****     return (lv_anim_value_t)new_value;
 271:lvgl\src\lv_misc/lv_anim.c **** }
 272:lvgl\src\lv_misc/lv_anim.c **** 
 273:lvgl\src\lv_misc/lv_anim.c **** /**
 274:lvgl\src\lv_misc/lv_anim.c ****  * Calculate the current value of an animation slowing down the end phase
 275:lvgl\src\lv_misc/lv_anim.c ****  * @param a pointer to an animation
 276:lvgl\src\lv_misc/lv_anim.c ****  * @return the current value to set
 277:lvgl\src\lv_misc/lv_anim.c ****  */
 278:lvgl\src\lv_misc/lv_anim.c **** lv_anim_value_t lv_anim_path_ease_out(const lv_anim_path_t * path, const lv_anim_t * a)
 279:lvgl\src\lv_misc/lv_anim.c **** {
 280:lvgl\src\lv_misc/lv_anim.c ****     LV_UNUSED(path);
 281:lvgl\src\lv_misc/lv_anim.c **** 
 282:lvgl\src\lv_misc/lv_anim.c ****     /*Calculate the current step*/
 283:lvgl\src\lv_misc/lv_anim.c **** 
 284:lvgl\src\lv_misc/lv_anim.c ****     uint32_t t;
 285:lvgl\src\lv_misc/lv_anim.c ****     if(a->time == a->act_time)
 286:lvgl\src\lv_misc/lv_anim.c ****         t = 1024;
 287:lvgl\src\lv_misc/lv_anim.c ****     else
 288:lvgl\src\lv_misc/lv_anim.c ****         t = (uint32_t)((uint32_t)a->act_time * 1024) / a->time;
 289:lvgl\src\lv_misc/lv_anim.c **** 
 290:lvgl\src\lv_misc/lv_anim.c ****     int32_t step = _lv_bezier3(t, 0, 1023, 1023, 1024);
 291:lvgl\src\lv_misc/lv_anim.c **** 
 292:lvgl\src\lv_misc/lv_anim.c ****     int32_t new_value;
 293:lvgl\src\lv_misc/lv_anim.c ****     new_value = (int32_t)step * (a->end - a->start);
 294:lvgl\src\lv_misc/lv_anim.c ****     new_value = new_value >> 10;
 295:lvgl\src\lv_misc/lv_anim.c ****     new_value += a->start;
 296:lvgl\src\lv_misc/lv_anim.c **** 
 297:lvgl\src\lv_misc/lv_anim.c ****     return (lv_anim_value_t)new_value;
 298:lvgl\src\lv_misc/lv_anim.c **** }
 299:lvgl\src\lv_misc/lv_anim.c **** 
 300:lvgl\src\lv_misc/lv_anim.c **** /**
 301:lvgl\src\lv_misc/lv_anim.c ****  * Calculate the current value of an animation applying an "S" characteristic (cosine)
 302:lvgl\src\lv_misc/lv_anim.c ****  * @param a pointer to an animation
 303:lvgl\src\lv_misc/lv_anim.c ****  * @return the current value to set
 304:lvgl\src\lv_misc/lv_anim.c ****  */
 305:lvgl\src\lv_misc/lv_anim.c **** lv_anim_value_t lv_anim_path_ease_in_out(const lv_anim_path_t * path, const lv_anim_t * a)
 306:lvgl\src\lv_misc/lv_anim.c **** {
 307:lvgl\src\lv_misc/lv_anim.c ****     LV_UNUSED(path);
 308:lvgl\src\lv_misc/lv_anim.c **** 
 309:lvgl\src\lv_misc/lv_anim.c ****     /*Calculate the current step*/
 310:lvgl\src\lv_misc/lv_anim.c **** 
 311:lvgl\src\lv_misc/lv_anim.c ****     uint32_t t;
 312:lvgl\src\lv_misc/lv_anim.c ****     if(a->time == a->act_time)
 313:lvgl\src\lv_misc/lv_anim.c ****         t = 1024;
 314:lvgl\src\lv_misc/lv_anim.c ****     else
 315:lvgl\src\lv_misc/lv_anim.c ****         t = (uint32_t)((uint32_t)a->act_time * 1024) / a->time;
 316:lvgl\src\lv_misc/lv_anim.c **** 
 317:lvgl\src\lv_misc/lv_anim.c ****     int32_t step = _lv_bezier3(t, 0, 100, 924, 1024);
 318:lvgl\src\lv_misc/lv_anim.c **** 
 319:lvgl\src\lv_misc/lv_anim.c ****     int32_t new_value;
 320:lvgl\src\lv_misc/lv_anim.c ****     new_value = (int32_t)step * (a->end - a->start);
 321:lvgl\src\lv_misc/lv_anim.c ****     new_value = new_value >> 10;
 322:lvgl\src\lv_misc/lv_anim.c ****     new_value += a->start;
 323:lvgl\src\lv_misc/lv_anim.c **** 
 324:lvgl\src\lv_misc/lv_anim.c ****     return (lv_anim_value_t)new_value;
 325:lvgl\src\lv_misc/lv_anim.c **** }
ARM GAS  C:\Users\strap\AppData\Local\Temp\ccebyBxd.s 			page 8


 326:lvgl\src\lv_misc/lv_anim.c **** 
 327:lvgl\src\lv_misc/lv_anim.c **** /**
 328:lvgl\src\lv_misc/lv_anim.c ****  * Calculate the current value of an animation with overshoot at the end
 329:lvgl\src\lv_misc/lv_anim.c ****  * @param a pointer to an animation
 330:lvgl\src\lv_misc/lv_anim.c ****  * @return the current value to set
 331:lvgl\src\lv_misc/lv_anim.c ****  */
 332:lvgl\src\lv_misc/lv_anim.c **** lv_anim_value_t lv_anim_path_overshoot(const lv_anim_path_t * path, const lv_anim_t * a)
 333:lvgl\src\lv_misc/lv_anim.c **** {
 334:lvgl\src\lv_misc/lv_anim.c ****     LV_UNUSED(path);
 335:lvgl\src\lv_misc/lv_anim.c **** 
 336:lvgl\src\lv_misc/lv_anim.c ****     /*Calculate the current step*/
 337:lvgl\src\lv_misc/lv_anim.c **** 
 338:lvgl\src\lv_misc/lv_anim.c ****     uint32_t t;
 339:lvgl\src\lv_misc/lv_anim.c ****     if(a->time == a->act_time)
 340:lvgl\src\lv_misc/lv_anim.c ****         t = 1024;
 341:lvgl\src\lv_misc/lv_anim.c ****     else
 342:lvgl\src\lv_misc/lv_anim.c ****         t = (uint32_t)((uint32_t)a->act_time * 1024) / a->time;
 343:lvgl\src\lv_misc/lv_anim.c **** 
 344:lvgl\src\lv_misc/lv_anim.c ****     int32_t step = _lv_bezier3(t, 0, 1000, 2000, 1024);
 345:lvgl\src\lv_misc/lv_anim.c **** 
 346:lvgl\src\lv_misc/lv_anim.c ****     int32_t new_value;
 347:lvgl\src\lv_misc/lv_anim.c ****     new_value = (int32_t)step * (a->end - a->start);
 348:lvgl\src\lv_misc/lv_anim.c ****     new_value = new_value >> 10;
 349:lvgl\src\lv_misc/lv_anim.c ****     new_value += a->start;
 350:lvgl\src\lv_misc/lv_anim.c **** 
 351:lvgl\src\lv_misc/lv_anim.c ****     return (lv_anim_value_t)new_value;
 352:lvgl\src\lv_misc/lv_anim.c **** }
 353:lvgl\src\lv_misc/lv_anim.c **** 
 354:lvgl\src\lv_misc/lv_anim.c **** 
 355:lvgl\src\lv_misc/lv_anim.c **** /**
 356:lvgl\src\lv_misc/lv_anim.c ****  * Calculate the current value of an animation with 3 bounces
 357:lvgl\src\lv_misc/lv_anim.c ****  * @param a pointer to an animation
 358:lvgl\src\lv_misc/lv_anim.c ****  * @return the current value to set
 359:lvgl\src\lv_misc/lv_anim.c ****  */
 360:lvgl\src\lv_misc/lv_anim.c **** lv_anim_value_t lv_anim_path_bounce(const lv_anim_path_t * path, const lv_anim_t * a)
 361:lvgl\src\lv_misc/lv_anim.c **** {
 362:lvgl\src\lv_misc/lv_anim.c ****     LV_UNUSED(path);
 363:lvgl\src\lv_misc/lv_anim.c **** 
 364:lvgl\src\lv_misc/lv_anim.c ****     /*Calculate the current step*/
 365:lvgl\src\lv_misc/lv_anim.c ****     uint32_t t;
 366:lvgl\src\lv_misc/lv_anim.c ****     if(a->time == a->act_time)
 367:lvgl\src\lv_misc/lv_anim.c ****         t = 1024;
 368:lvgl\src\lv_misc/lv_anim.c ****     else
 369:lvgl\src\lv_misc/lv_anim.c ****         t = (uint32_t)((uint32_t)a->act_time * 1024) / a->time;
 370:lvgl\src\lv_misc/lv_anim.c **** 
 371:lvgl\src\lv_misc/lv_anim.c ****     int32_t diff = (a->end - a->start);
 372:lvgl\src\lv_misc/lv_anim.c **** 
 373:lvgl\src\lv_misc/lv_anim.c ****     /*3 bounces has 5 parts: 3 down and 2 up. One part is t / 5 long*/
 374:lvgl\src\lv_misc/lv_anim.c **** 
 375:lvgl\src\lv_misc/lv_anim.c ****     if(t < 408) {
 376:lvgl\src\lv_misc/lv_anim.c ****         /*Go down*/
 377:lvgl\src\lv_misc/lv_anim.c ****         t = (t * 2500) >> 10; /*[0..1024] range*/
 378:lvgl\src\lv_misc/lv_anim.c ****     }
 379:lvgl\src\lv_misc/lv_anim.c ****     else if(t >= 408 && t < 614) {
 380:lvgl\src\lv_misc/lv_anim.c ****         /*First bounce back*/
 381:lvgl\src\lv_misc/lv_anim.c ****         t -= 408;
 382:lvgl\src\lv_misc/lv_anim.c ****         t    = t * 5; /*to [0..1024] range*/
ARM GAS  C:\Users\strap\AppData\Local\Temp\ccebyBxd.s 			page 9


 383:lvgl\src\lv_misc/lv_anim.c ****         t    = 1024 - t;
 384:lvgl\src\lv_misc/lv_anim.c ****         diff = diff / 6;
 385:lvgl\src\lv_misc/lv_anim.c ****     }
 386:lvgl\src\lv_misc/lv_anim.c ****     else if(t >= 614 && t < 819) {
 387:lvgl\src\lv_misc/lv_anim.c ****         /*Fall back*/
 388:lvgl\src\lv_misc/lv_anim.c ****         t -= 614;
 389:lvgl\src\lv_misc/lv_anim.c ****         t    = t * 5; /*to [0..1024] range*/
 390:lvgl\src\lv_misc/lv_anim.c ****         diff = diff / 6;
 391:lvgl\src\lv_misc/lv_anim.c ****     }
 392:lvgl\src\lv_misc/lv_anim.c ****     else if(t >= 819 && t < 921) {
 393:lvgl\src\lv_misc/lv_anim.c ****         /*Second bounce back*/
 394:lvgl\src\lv_misc/lv_anim.c ****         t -= 819;
 395:lvgl\src\lv_misc/lv_anim.c ****         t    = t * 10; /*to [0..1024] range*/
 396:lvgl\src\lv_misc/lv_anim.c ****         t    = 1024 - t;
 397:lvgl\src\lv_misc/lv_anim.c ****         diff = diff / 16;
 398:lvgl\src\lv_misc/lv_anim.c ****     }
 399:lvgl\src\lv_misc/lv_anim.c ****     else if(t >= 921 && t <= 1024) {
 400:lvgl\src\lv_misc/lv_anim.c ****         /*Fall back*/
 401:lvgl\src\lv_misc/lv_anim.c ****         t -= 921;
 402:lvgl\src\lv_misc/lv_anim.c ****         t    = t * 10; /*to [0..1024] range*/
 403:lvgl\src\lv_misc/lv_anim.c ****         diff = diff / 16;
 404:lvgl\src\lv_misc/lv_anim.c ****     }
 405:lvgl\src\lv_misc/lv_anim.c **** 
 406:lvgl\src\lv_misc/lv_anim.c ****     if(t > 1024) t = 1024;
 407:lvgl\src\lv_misc/lv_anim.c **** 
 408:lvgl\src\lv_misc/lv_anim.c ****     int32_t step = _lv_bezier3(t, 1024, 1024, 800, 0);
 409:lvgl\src\lv_misc/lv_anim.c **** 
 410:lvgl\src\lv_misc/lv_anim.c ****     int32_t new_value;
 411:lvgl\src\lv_misc/lv_anim.c ****     new_value = (int32_t)step * diff;
 412:lvgl\src\lv_misc/lv_anim.c ****     new_value = new_value >> 10;
 413:lvgl\src\lv_misc/lv_anim.c ****     new_value = a->end - new_value;
 414:lvgl\src\lv_misc/lv_anim.c **** 
 415:lvgl\src\lv_misc/lv_anim.c ****     return (lv_anim_value_t)new_value;
 416:lvgl\src\lv_misc/lv_anim.c **** }
 417:lvgl\src\lv_misc/lv_anim.c **** 
 418:lvgl\src\lv_misc/lv_anim.c **** /**
 419:lvgl\src\lv_misc/lv_anim.c ****  * Calculate the current value of an animation applying step characteristic.
 420:lvgl\src\lv_misc/lv_anim.c ****  * (Set end value on the end of the animation)
 421:lvgl\src\lv_misc/lv_anim.c ****  * @param a pointer to an animation
 422:lvgl\src\lv_misc/lv_anim.c ****  * @return the current value to set
 423:lvgl\src\lv_misc/lv_anim.c ****  */
 424:lvgl\src\lv_misc/lv_anim.c **** lv_anim_value_t lv_anim_path_step(const lv_anim_path_t * path, const lv_anim_t * a)
 425:lvgl\src\lv_misc/lv_anim.c **** {
 426:lvgl\src\lv_misc/lv_anim.c ****     LV_UNUSED(path);
 427:lvgl\src\lv_misc/lv_anim.c **** 
 428:lvgl\src\lv_misc/lv_anim.c ****     if(a->act_time >= a->time)
 429:lvgl\src\lv_misc/lv_anim.c ****         return a->end;
 430:lvgl\src\lv_misc/lv_anim.c ****     else
 431:lvgl\src\lv_misc/lv_anim.c ****         return a->start;
 432:lvgl\src\lv_misc/lv_anim.c **** }
 433:lvgl\src\lv_misc/lv_anim.c **** 
 434:lvgl\src\lv_misc/lv_anim.c **** /**********************
 435:lvgl\src\lv_misc/lv_anim.c ****  *   STATIC FUNCTIONS
 436:lvgl\src\lv_misc/lv_anim.c ****  **********************/
 437:lvgl\src\lv_misc/lv_anim.c **** 
 438:lvgl\src\lv_misc/lv_anim.c **** /**
 439:lvgl\src\lv_misc/lv_anim.c ****  * Periodically handle the animations.
ARM GAS  C:\Users\strap\AppData\Local\Temp\ccebyBxd.s 			page 10


 440:lvgl\src\lv_misc/lv_anim.c ****  * @param param unused
 441:lvgl\src\lv_misc/lv_anim.c ****  */
 442:lvgl\src\lv_misc/lv_anim.c **** static void anim_task(lv_task_t * param)
 443:lvgl\src\lv_misc/lv_anim.c **** {
 444:lvgl\src\lv_misc/lv_anim.c ****     (void)param;
 445:lvgl\src\lv_misc/lv_anim.c **** 
 446:lvgl\src\lv_misc/lv_anim.c ****     lv_anim_t * a;
 447:lvgl\src\lv_misc/lv_anim.c ****     _LV_LL_READ(LV_GC_ROOT(_lv_anim_ll), a) {
 448:lvgl\src\lv_misc/lv_anim.c ****         a->has_run = 0;
 449:lvgl\src\lv_misc/lv_anim.c ****     }
 450:lvgl\src\lv_misc/lv_anim.c **** 
 451:lvgl\src\lv_misc/lv_anim.c ****     uint32_t elaps = lv_tick_elaps(last_task_run);
 452:lvgl\src\lv_misc/lv_anim.c **** 
 453:lvgl\src\lv_misc/lv_anim.c ****     a = _lv_ll_get_head(&LV_GC_ROOT(_lv_anim_ll));
 454:lvgl\src\lv_misc/lv_anim.c **** 
 455:lvgl\src\lv_misc/lv_anim.c ****     while(a != NULL) {
 456:lvgl\src\lv_misc/lv_anim.c ****         /*It can be set by `lv_anim_del()` typically in `end_cb`. If set then an animation delete
 457:lvgl\src\lv_misc/lv_anim.c ****          * happened in `anim_ready_handler` which could make this linked list reading corrupt
 458:lvgl\src\lv_misc/lv_anim.c ****          * because the list is changed meanwhile
 459:lvgl\src\lv_misc/lv_anim.c ****          */
 460:lvgl\src\lv_misc/lv_anim.c ****         anim_list_changed = false;
 461:lvgl\src\lv_misc/lv_anim.c **** 
 462:lvgl\src\lv_misc/lv_anim.c ****         if(!a->has_run) {
 463:lvgl\src\lv_misc/lv_anim.c ****             a->has_run = 1; /*The list readying might be reseted so need to know which anim has run
 464:lvgl\src\lv_misc/lv_anim.c **** 
 465:lvgl\src\lv_misc/lv_anim.c ****             /*The animation will run now for the first time. Call `start_cb`*/
 466:lvgl\src\lv_misc/lv_anim.c ****             int32_t new_act_time = a->act_time + elaps;
 467:lvgl\src\lv_misc/lv_anim.c ****             if(a->act_time <= 0 && new_act_time >= 0) {
 468:lvgl\src\lv_misc/lv_anim.c ****                 if(a->start_cb) a->start_cb(a);
 469:lvgl\src\lv_misc/lv_anim.c ****             }
 470:lvgl\src\lv_misc/lv_anim.c ****             a->act_time += elaps;
 471:lvgl\src\lv_misc/lv_anim.c ****             if(a->act_time >= 0) {
 472:lvgl\src\lv_misc/lv_anim.c ****                 if(a->act_time > a->time) a->act_time = a->time;
 473:lvgl\src\lv_misc/lv_anim.c **** 
 474:lvgl\src\lv_misc/lv_anim.c ****                 int32_t new_value;
 475:lvgl\src\lv_misc/lv_anim.c ****                 if(a->path.cb) new_value = a->path.cb(&a->path, a);
 476:lvgl\src\lv_misc/lv_anim.c ****                 else new_value = lv_anim_path_linear(&a->path, a);
 477:lvgl\src\lv_misc/lv_anim.c **** 
 478:lvgl\src\lv_misc/lv_anim.c ****                 if(new_value != a->current) {
 479:lvgl\src\lv_misc/lv_anim.c ****                     a->current = new_value;
 480:lvgl\src\lv_misc/lv_anim.c ****                     /*Apply the calculated value*/
 481:lvgl\src\lv_misc/lv_anim.c ****                     if(a->exec_cb) a->exec_cb(a->var, new_value);
 482:lvgl\src\lv_misc/lv_anim.c ****                 }
 483:lvgl\src\lv_misc/lv_anim.c **** 
 484:lvgl\src\lv_misc/lv_anim.c ****                 /*If the time is elapsed the animation is ready*/
 485:lvgl\src\lv_misc/lv_anim.c ****                 if(a->act_time >= a->time) {
 486:lvgl\src\lv_misc/lv_anim.c ****                     anim_ready_handler(a);
 487:lvgl\src\lv_misc/lv_anim.c ****                 }
 488:lvgl\src\lv_misc/lv_anim.c ****             }
 489:lvgl\src\lv_misc/lv_anim.c ****         }
 490:lvgl\src\lv_misc/lv_anim.c **** 
 491:lvgl\src\lv_misc/lv_anim.c ****         /* If the linked list changed due to anim. delete then it's not safe to continue
 492:lvgl\src\lv_misc/lv_anim.c ****          * the reading of the list from here -> start from the head*/
 493:lvgl\src\lv_misc/lv_anim.c ****         if(anim_list_changed)
 494:lvgl\src\lv_misc/lv_anim.c ****             a = _lv_ll_get_head(&LV_GC_ROOT(_lv_anim_ll));
 495:lvgl\src\lv_misc/lv_anim.c ****         else
 496:lvgl\src\lv_misc/lv_anim.c ****             a = _lv_ll_get_next(&LV_GC_ROOT(_lv_anim_ll), a);
ARM GAS  C:\Users\strap\AppData\Local\Temp\ccebyBxd.s 			page 11


 497:lvgl\src\lv_misc/lv_anim.c ****     }
 498:lvgl\src\lv_misc/lv_anim.c **** 
 499:lvgl\src\lv_misc/lv_anim.c ****     last_task_run = lv_tick_get();
 500:lvgl\src\lv_misc/lv_anim.c **** }
 501:lvgl\src\lv_misc/lv_anim.c **** 
 502:lvgl\src\lv_misc/lv_anim.c **** /**
 503:lvgl\src\lv_misc/lv_anim.c ****  * Called when an animation is ready to do the necessary thinks
 504:lvgl\src\lv_misc/lv_anim.c ****  * e.g. repeat, play back, delete etc.
 505:lvgl\src\lv_misc/lv_anim.c ****  * @param a pointer to an animation descriptor
 506:lvgl\src\lv_misc/lv_anim.c ****  * @return true: animation delete occurred and the `LV_GC_ROOT(_lv_anim_ll)` has changed
 507:lvgl\src\lv_misc/lv_anim.c ****  * */
 508:lvgl\src\lv_misc/lv_anim.c **** static bool anim_ready_handler(lv_anim_t * a)
 509:lvgl\src\lv_misc/lv_anim.c **** {
 510:lvgl\src\lv_misc/lv_anim.c ****     /*In the end of a forward anim decrement repeat cnt.*/
 511:lvgl\src\lv_misc/lv_anim.c ****     if(a->playback_now == 0 && a->repeat_cnt > 0 && a->repeat_cnt != LV_ANIM_REPEAT_INFINITE) {
 512:lvgl\src\lv_misc/lv_anim.c ****         a->repeat_cnt--;
 513:lvgl\src\lv_misc/lv_anim.c ****     }
 514:lvgl\src\lv_misc/lv_anim.c **** 
 515:lvgl\src\lv_misc/lv_anim.c ****     /*Delete the animation if
 516:lvgl\src\lv_misc/lv_anim.c ****      * - no repeat left and no play back (simple one shot animation)
 517:lvgl\src\lv_misc/lv_anim.c ****      * - no repeat, play back is enabled and play back is ready */
 518:lvgl\src\lv_misc/lv_anim.c ****     if(a->repeat_cnt == 0 && ((a->playback_time == 0) || (a->playback_time && a->playback_now == 1)
 519:lvgl\src\lv_misc/lv_anim.c **** 
 520:lvgl\src\lv_misc/lv_anim.c ****         /*Create copy from the animation and delete the animation from the list.
 521:lvgl\src\lv_misc/lv_anim.c ****          * This way the `ready_cb` will see the animations like it's animation is ready deleted*/
 522:lvgl\src\lv_misc/lv_anim.c ****         lv_anim_t a_tmp;
 523:lvgl\src\lv_misc/lv_anim.c ****         _lv_memcpy(&a_tmp, a, sizeof(lv_anim_t));
 524:lvgl\src\lv_misc/lv_anim.c ****         _lv_ll_remove(&LV_GC_ROOT(_lv_anim_ll), a);
 525:lvgl\src\lv_misc/lv_anim.c ****         lv_mem_free(a);
 526:lvgl\src\lv_misc/lv_anim.c ****         /*Flag that the list has changed */
 527:lvgl\src\lv_misc/lv_anim.c ****         anim_mark_list_change();
 528:lvgl\src\lv_misc/lv_anim.c **** 
 529:lvgl\src\lv_misc/lv_anim.c ****         /* Call the callback function at the end*/
 530:lvgl\src\lv_misc/lv_anim.c ****         if(a_tmp.ready_cb != NULL) a_tmp.ready_cb(&a_tmp);
 531:lvgl\src\lv_misc/lv_anim.c ****     }
 532:lvgl\src\lv_misc/lv_anim.c ****     /*If the animation is not deleted then restart it*/
 533:lvgl\src\lv_misc/lv_anim.c ****     else {
 534:lvgl\src\lv_misc/lv_anim.c ****         a->act_time = -(int32_t)(a->repeat_delay); /*Restart the animation*/
 535:lvgl\src\lv_misc/lv_anim.c ****         /*Swap the start and end values in play back mode*/
 536:lvgl\src\lv_misc/lv_anim.c ****         if(a->playback_time != 0) {
 537:lvgl\src\lv_misc/lv_anim.c ****             /*If now turning back use the 'playback_pause*/
 538:lvgl\src\lv_misc/lv_anim.c ****             if(a->playback_now == 0) a->act_time = -(int32_t)(a->playback_delay);
 539:lvgl\src\lv_misc/lv_anim.c **** 
 540:lvgl\src\lv_misc/lv_anim.c ****             /*Toggle the play back state*/
 541:lvgl\src\lv_misc/lv_anim.c ****             a->playback_now = a->playback_now == 0 ? 1 : 0;
 542:lvgl\src\lv_misc/lv_anim.c ****             /*Swap the start and end values*/
 543:lvgl\src\lv_misc/lv_anim.c ****             int32_t tmp;
 544:lvgl\src\lv_misc/lv_anim.c ****             tmp      = a->start;
 545:lvgl\src\lv_misc/lv_anim.c ****             a->start = a->end;
 546:lvgl\src\lv_misc/lv_anim.c ****             a->end   = tmp;
 547:lvgl\src\lv_misc/lv_anim.c **** 
 548:lvgl\src\lv_misc/lv_anim.c ****             a->time = a->playback_now == 0 ? a->time_orig : a->playback_time;
 549:lvgl\src\lv_misc/lv_anim.c ****         }
 550:lvgl\src\lv_misc/lv_anim.c ****     }
 551:lvgl\src\lv_misc/lv_anim.c **** 
 552:lvgl\src\lv_misc/lv_anim.c ****     return anim_list_changed;
 553:lvgl\src\lv_misc/lv_anim.c **** }
ARM GAS  C:\Users\strap\AppData\Local\Temp\ccebyBxd.s 			page 12


 554:lvgl\src\lv_misc/lv_anim.c **** static void anim_mark_list_change(void)
 555:lvgl\src\lv_misc/lv_anim.c **** {
  74              		.loc 1 555 0
  75              		.cfi_startproc
  76              		@ args = 0, pretend = 0, frame = 0
  77              		@ frame_needed = 0, uses_anonymous_args = 0
  78 0000 08B5     		push	{r3, lr}
  79              		.cfi_def_cfa_offset 8
  80              		.cfi_offset 3, -8
  81              		.cfi_offset 14, -4
 556:lvgl\src\lv_misc/lv_anim.c ****     anim_list_changed = true;
  82              		.loc 1 556 0
  83 0002 0122     		movs	r2, #1
  84 0004 084B     		ldr	r3, .L8
  85 0006 1A70     		strb	r2, [r3]
 557:lvgl\src\lv_misc/lv_anim.c ****     if(_lv_ll_get_head(&LV_GC_ROOT(_lv_anim_ll)) == NULL)
  86              		.loc 1 557 0
  87 0008 0848     		ldr	r0, .L8+4
  88 000a FFF7FEFF 		bl	_lv_ll_get_head
  89              	.LVL8:
  90 000e 28B9     		cbnz	r0, .L5
 558:lvgl\src\lv_misc/lv_anim.c ****         lv_task_set_prio(_lv_anim_task, LV_TASK_PRIO_OFF);
  91              		.loc 1 558 0
  92 0010 0021     		movs	r1, #0
  93 0012 054B     		ldr	r3, .L8
  94 0014 5868     		ldr	r0, [r3, #4]
  95 0016 FFF7FEFF 		bl	lv_task_set_prio
  96              	.LVL9:
  97 001a 08BD     		pop	{r3, pc}
  98              	.L5:
 559:lvgl\src\lv_misc/lv_anim.c ****     else
 560:lvgl\src\lv_misc/lv_anim.c ****         lv_task_set_prio(_lv_anim_task, LV_ANIM_TASK_PRIO);
  99              		.loc 1 560 0
 100 001c 0421     		movs	r1, #4
 101 001e 024B     		ldr	r3, .L8
 102 0020 5868     		ldr	r0, [r3, #4]
 103 0022 FFF7FEFF 		bl	lv_task_set_prio
 104              	.LVL10:
 105 0026 08BD     		pop	{r3, pc}
 106              	.L9:
 107              		.align	2
 108              	.L8:
 109 0028 00000000 		.word	.LANCHOR0
 110 002c 00000000 		.word	_lv_anim_ll
 111              		.cfi_endproc
 112              	.LFE54:
 113              		.size	anim_mark_list_change, .-anim_mark_list_change
 114              		.section	.text.anim_ready_handler,"ax",%progbits
 115              		.align	2
 116              		.thumb
 117              		.thumb_func
 118              		.type	anim_ready_handler, %function
 119              	anim_ready_handler:
 120              	.LFB53:
 509:lvgl\src\lv_misc/lv_anim.c ****     /*In the end of a forward anim decrement repeat cnt.*/
 121              		.loc 1 509 0
 122              		.cfi_startproc
ARM GAS  C:\Users\strap\AppData\Local\Temp\ccebyBxd.s 			page 13


 123              		@ args = 0, pretend = 0, frame = 72
 124              		@ frame_needed = 0, uses_anonymous_args = 0
 125              	.LVL11:
 126 0000 10B5     		push	{r4, lr}
 127              		.cfi_def_cfa_offset 8
 128              		.cfi_offset 4, -8
 129              		.cfi_offset 14, -4
 130 0002 92B0     		sub	sp, sp, #72
 131              		.cfi_def_cfa_offset 80
 511:lvgl\src\lv_misc/lv_anim.c ****         a->repeat_cnt--;
 132              		.loc 1 511 0
 133 0004 90F84430 		ldrb	r3, [r0, #68]	@ zero_extendqisi2
 134 0008 13F00103 		ands	r3, r3, #1
 135 000c 07D1     		bne	.L11
 511:lvgl\src\lv_misc/lv_anim.c ****         a->repeat_cnt--;
 136              		.loc 1 511 0 is_stmt 0 discriminator 1
 137 000e 028F     		ldrh	r2, [r0, #56]
 138 0010 2AB1     		cbz	r2, .L11
 511:lvgl\src\lv_misc/lv_anim.c ****         a->repeat_cnt--;
 139              		.loc 1 511 0 discriminator 2
 140 0012 4FF6FF71 		movw	r1, #65535
 141 0016 8A42     		cmp	r2, r1
 142 0018 01D0     		beq	.L11
 512:lvgl\src\lv_misc/lv_anim.c ****     }
 143              		.loc 1 512 0 is_stmt 1
 144 001a 013A     		subs	r2, r2, #1
 145 001c 0287     		strh	r2, [r0, #56]	@ movhi
 146              	.L11:
 518:lvgl\src\lv_misc/lv_anim.c **** 
 147              		.loc 1 518 0
 148 001e 028F     		ldrh	r2, [r0, #56]
 149 0020 B2B9     		cbnz	r2, .L12
 518:lvgl\src\lv_misc/lv_anim.c **** 
 150              		.loc 1 518 0 is_stmt 0 discriminator 1
 151 0022 026B     		ldr	r2, [r0, #48]
 152 0024 02B1     		cbz	r2, .L13
 518:lvgl\src\lv_misc/lv_anim.c **** 
 153              		.loc 1 518 0 discriminator 2
 154 0026 9BB1     		cbz	r3, .L12
 155              	.L13:
 156 0028 0446     		mov	r4, r0
 157              	.LBB4:
 523:lvgl\src\lv_misc/lv_anim.c ****         _lv_ll_remove(&LV_GC_ROOT(_lv_anim_ll), a);
 158              		.loc 1 523 0 is_stmt 1
 159 002a 4822     		movs	r2, #72
 160 002c 0146     		mov	r1, r0
 161 002e 6846     		mov	r0, sp
 162              	.LVL12:
 163 0030 FFF7FEFF 		bl	_lv_memcpy
 164              	.LVL13:
 524:lvgl\src\lv_misc/lv_anim.c ****         lv_mem_free(a);
 165              		.loc 1 524 0
 166 0034 2146     		mov	r1, r4
 167 0036 1548     		ldr	r0, .L20
 168 0038 FFF7FEFF 		bl	_lv_ll_remove
 169              	.LVL14:
 525:lvgl\src\lv_misc/lv_anim.c ****         /*Flag that the list has changed */
ARM GAS  C:\Users\strap\AppData\Local\Temp\ccebyBxd.s 			page 14


 170              		.loc 1 525 0
 171 003c 2046     		mov	r0, r4
 172 003e FFF7FEFF 		bl	lv_mem_free
 173              	.LVL15:
 527:lvgl\src\lv_misc/lv_anim.c **** 
 174              		.loc 1 527 0
 175 0042 FFF7FEFF 		bl	anim_mark_list_change
 176              	.LVL16:
 530:lvgl\src\lv_misc/lv_anim.c ****     }
 177              		.loc 1 530 0
 178 0046 039B     		ldr	r3, [sp, #12]
 179 0048 E3B1     		cbz	r3, .L15
 530:lvgl\src\lv_misc/lv_anim.c ****     }
 180              		.loc 1 530 0 is_stmt 0 discriminator 1
 181 004a 6846     		mov	r0, sp
 182 004c 9847     		blx	r3
 183              	.LVL17:
 184              	.LBE4:
 518:lvgl\src\lv_misc/lv_anim.c **** 
 185              		.loc 1 518 0 is_stmt 1 discriminator 1
 186 004e 19E0     		b	.L15
 187              	.LVL18:
 188              	.L12:
 534:lvgl\src\lv_misc/lv_anim.c ****         /*Swap the start and end values in play back mode*/
 189              		.loc 1 534 0
 190 0050 426B     		ldr	r2, [r0, #52]
 191 0052 5242     		negs	r2, r2
 192 0054 8262     		str	r2, [r0, #40]
 536:lvgl\src\lv_misc/lv_anim.c ****             /*If now turning back use the 'playback_pause*/
 193              		.loc 1 536 0
 194 0056 026B     		ldr	r2, [r0, #48]
 195 0058 A2B1     		cbz	r2, .L15
 196              	.LBB5:
 538:lvgl\src\lv_misc/lv_anim.c **** 
 197              		.loc 1 538 0
 198 005a 13B9     		cbnz	r3, .L16
 538:lvgl\src\lv_misc/lv_anim.c **** 
 199              		.loc 1 538 0 is_stmt 0 discriminator 1
 200 005c C16A     		ldr	r1, [r0, #44]
 201 005e 4942     		negs	r1, r1
 202 0060 8162     		str	r1, [r0, #40]
 203              	.L16:
 541:lvgl\src\lv_misc/lv_anim.c ****             /*Swap the start and end values*/
 204              		.loc 1 541 0 is_stmt 1
 205 0062 83F00103 		eor	r3, r3, #1
 206 0066 90F84410 		ldrb	r1, [r0, #68]	@ zero_extendqisi2
 207 006a 63F30001 		bfi	r1, r3, #0, #1
 208 006e 80F84410 		strb	r1, [r0, #68]
 544:lvgl\src\lv_misc/lv_anim.c ****             a->start = a->end;
 209              		.loc 1 544 0
 210 0072 8369     		ldr	r3, [r0, #24]
 211              	.LVL19:
 545:lvgl\src\lv_misc/lv_anim.c ****             a->end   = tmp;
 212              		.loc 1 545 0
 213 0074 046A     		ldr	r4, [r0, #32]
 214 0076 8461     		str	r4, [r0, #24]
 546:lvgl\src\lv_misc/lv_anim.c **** 
ARM GAS  C:\Users\strap\AppData\Local\Temp\ccebyBxd.s 			page 15


 215              		.loc 1 546 0
 216 0078 0362     		str	r3, [r0, #32]
 548:lvgl\src\lv_misc/lv_anim.c ****         }
 217              		.loc 1 548 0
 218 007a 11F0010F 		tst	r1, #1
 219 007e 00D1     		bne	.L18
 548:lvgl\src\lv_misc/lv_anim.c ****         }
 220              		.loc 1 548 0 is_stmt 0 discriminator 1
 221 0080 026C     		ldr	r2, [r0, #64]
 222              	.L18:
 548:lvgl\src\lv_misc/lv_anim.c ****         }
 223              		.loc 1 548 0 discriminator 4
 224 0082 4262     		str	r2, [r0, #36]
 225              	.LVL20:
 226              	.L15:
 227              	.LBE5:
 553:lvgl\src\lv_misc/lv_anim.c **** static void anim_mark_list_change(void)
 228              		.loc 1 553 0 is_stmt 1
 229 0084 024B     		ldr	r3, .L20+4
 230 0086 1878     		ldrb	r0, [r3]	@ zero_extendqisi2
 231 0088 12B0     		add	sp, sp, #72
 232              		.cfi_def_cfa_offset 8
 233              		@ sp needed
 234 008a 10BD     		pop	{r4, pc}
 235              	.L21:
 236              		.align	2
 237              	.L20:
 238 008c 00000000 		.word	_lv_anim_ll
 239 0090 00000000 		.word	.LANCHOR0
 240              		.cfi_endproc
 241              	.LFE53:
 242              		.size	anim_ready_handler, .-anim_ready_handler
 243              		.section	.text.anim_task,"ax",%progbits
 244              		.align	2
 245              		.thumb
 246              		.thumb_func
 247              		.type	anim_task, %function
 248              	anim_task:
 249              	.LFB52:
 443:lvgl\src\lv_misc/lv_anim.c ****     (void)param;
 250              		.loc 1 443 0
 251              		.cfi_startproc
 252              		@ args = 0, pretend = 0, frame = 0
 253              		@ frame_needed = 0, uses_anonymous_args = 0
 254              	.LVL21:
 255 0000 38B5     		push	{r3, r4, r5, lr}
 256              		.cfi_def_cfa_offset 16
 257              		.cfi_offset 3, -16
 258              		.cfi_offset 4, -12
 259              		.cfi_offset 5, -8
 260              		.cfi_offset 14, -4
 447:lvgl\src\lv_misc/lv_anim.c ****         a->has_run = 0;
 261              		.loc 1 447 0
 262 0002 3448     		ldr	r0, .L36
 263              	.LVL22:
 264 0004 FFF7FEFF 		bl	_lv_ll_get_head
 265              	.LVL23:
ARM GAS  C:\Users\strap\AppData\Local\Temp\ccebyBxd.s 			page 16


 266 0008 09E0     		b	.L23
 267              	.L24:
 448:lvgl\src\lv_misc/lv_anim.c ****     }
 268              		.loc 1 448 0 discriminator 3
 269 000a 90F84430 		ldrb	r3, [r0, #68]	@ zero_extendqisi2
 270 000e 6FF34103 		bfc	r3, #1, #1
 271 0012 80F84430 		strb	r3, [r0, #68]
 447:lvgl\src\lv_misc/lv_anim.c ****         a->has_run = 0;
 272              		.loc 1 447 0 discriminator 3
 273 0016 0146     		mov	r1, r0
 274 0018 2E48     		ldr	r0, .L36
 275              	.LVL24:
 276 001a FFF7FEFF 		bl	_lv_ll_get_next
 277              	.LVL25:
 278              	.L23:
 447:lvgl\src\lv_misc/lv_anim.c ****         a->has_run = 0;
 279              		.loc 1 447 0 is_stmt 0 discriminator 1
 280 001e 0028     		cmp	r0, #0
 281 0020 F3D1     		bne	.L24
 451:lvgl\src\lv_misc/lv_anim.c **** 
 282              		.loc 1 451 0 is_stmt 1
 283 0022 2D4B     		ldr	r3, .L36+4
 284 0024 9868     		ldr	r0, [r3, #8]
 285              	.LVL26:
 286 0026 FFF7FEFF 		bl	lv_tick_elaps
 287              	.LVL27:
 288 002a 0546     		mov	r5, r0
 289              	.LVL28:
 453:lvgl\src\lv_misc/lv_anim.c **** 
 290              		.loc 1 453 0
 291 002c 2948     		ldr	r0, .L36
 292              	.LVL29:
 293 002e FFF7FEFF 		bl	_lv_ll_get_head
 294              	.LVL30:
 295 0032 0446     		mov	r4, r0
 296              	.LVL31:
 455:lvgl\src\lv_misc/lv_anim.c ****         /*It can be set by `lv_anim_del()` typically in `end_cb`. If set then an animation delete
 297              		.loc 1 455 0
 298 0034 47E0     		b	.L25
 299              	.L34:
 460:lvgl\src\lv_misc/lv_anim.c **** 
 300              		.loc 1 460 0
 301 0036 0022     		movs	r2, #0
 302 0038 274B     		ldr	r3, .L36+4
 303 003a 1A70     		strb	r2, [r3]
 462:lvgl\src\lv_misc/lv_anim.c ****             a->has_run = 1; /*The list readying might be reseted so need to know which anim has run
 304              		.loc 1 462 0
 305 003c 94F84430 		ldrb	r3, [r4, #68]	@ zero_extendqisi2
 306 0040 13F0020F 		tst	r3, #2
 307 0044 32D1     		bne	.L26
 308              	.LBB6:
 463:lvgl\src\lv_misc/lv_anim.c **** 
 309              		.loc 1 463 0
 310 0046 43F00203 		orr	r3, r3, #2
 311 004a 84F84430 		strb	r3, [r4, #68]
 466:lvgl\src\lv_misc/lv_anim.c ****             if(a->act_time <= 0 && new_act_time >= 0) {
 312              		.loc 1 466 0
ARM GAS  C:\Users\strap\AppData\Local\Temp\ccebyBxd.s 			page 17


 313 004e A36A     		ldr	r3, [r4, #40]
 314 0050 5A19     		adds	r2, r3, r5
 315              	.LVL32:
 467:lvgl\src\lv_misc/lv_anim.c ****                 if(a->start_cb) a->start_cb(a);
 316              		.loc 1 467 0
 317 0052 002B     		cmp	r3, #0
 318 0054 05DC     		bgt	.L27
 467:lvgl\src\lv_misc/lv_anim.c ****                 if(a->start_cb) a->start_cb(a);
 319              		.loc 1 467 0 is_stmt 0 discriminator 1
 320 0056 002A     		cmp	r2, #0
 321 0058 03DB     		blt	.L27
 468:lvgl\src\lv_misc/lv_anim.c ****             }
 322              		.loc 1 468 0 is_stmt 1
 323 005a A368     		ldr	r3, [r4, #8]
 324 005c 0BB1     		cbz	r3, .L27
 468:lvgl\src\lv_misc/lv_anim.c ****             }
 325              		.loc 1 468 0 is_stmt 0 discriminator 1
 326 005e 2046     		mov	r0, r4
 327 0060 9847     		blx	r3
 328              	.LVL33:
 329              	.L27:
 470:lvgl\src\lv_misc/lv_anim.c ****             if(a->act_time >= 0) {
 330              		.loc 1 470 0 is_stmt 1
 331 0062 A36A     		ldr	r3, [r4, #40]
 332 0064 2B44     		add	r3, r3, r5
 333 0066 A362     		str	r3, [r4, #40]
 471:lvgl\src\lv_misc/lv_anim.c ****                 if(a->act_time > a->time) a->act_time = a->time;
 334              		.loc 1 471 0
 335 0068 002B     		cmp	r3, #0
 336 006a 1FDB     		blt	.L26
 337              	.LBB7:
 472:lvgl\src\lv_misc/lv_anim.c **** 
 338              		.loc 1 472 0
 339 006c 626A     		ldr	r2, [r4, #36]
 340 006e 9342     		cmp	r3, r2
 341 0070 00DD     		ble	.L28
 472:lvgl\src\lv_misc/lv_anim.c **** 
 342              		.loc 1 472 0 is_stmt 0 discriminator 1
 343 0072 A262     		str	r2, [r4, #40]
 344              	.L28:
 475:lvgl\src\lv_misc/lv_anim.c ****                 else new_value = lv_anim_path_linear(&a->path, a);
 345              		.loc 1 475 0 is_stmt 1
 346 0074 2369     		ldr	r3, [r4, #16]
 347 0076 23B1     		cbz	r3, .L29
 475:lvgl\src\lv_misc/lv_anim.c ****                 else new_value = lv_anim_path_linear(&a->path, a);
 348              		.loc 1 475 0 is_stmt 0 discriminator 1
 349 0078 2146     		mov	r1, r4
 350 007a 04F11000 		add	r0, r4, #16
 351 007e 9847     		blx	r3
 352              	.LVL34:
 353 0080 04E0     		b	.L30
 354              	.LVL35:
 355              	.L29:
 476:lvgl\src\lv_misc/lv_anim.c **** 
 356              		.loc 1 476 0 is_stmt 1
 357 0082 2146     		mov	r1, r4
 358 0084 04F11000 		add	r0, r4, #16
ARM GAS  C:\Users\strap\AppData\Local\Temp\ccebyBxd.s 			page 18


 359 0088 FFF7FEFF 		bl	lv_anim_path_linear
 360              	.LVL36:
 361              	.L30:
 478:lvgl\src\lv_misc/lv_anim.c ****                     a->current = new_value;
 362              		.loc 1 478 0
 363 008c E369     		ldr	r3, [r4, #28]
 364 008e 9842     		cmp	r0, r3
 365 0090 05D0     		beq	.L31
 479:lvgl\src\lv_misc/lv_anim.c ****                     /*Apply the calculated value*/
 366              		.loc 1 479 0
 367 0092 E061     		str	r0, [r4, #28]
 481:lvgl\src\lv_misc/lv_anim.c ****                 }
 368              		.loc 1 481 0
 369 0094 6368     		ldr	r3, [r4, #4]
 370 0096 13B1     		cbz	r3, .L31
 481:lvgl\src\lv_misc/lv_anim.c ****                 }
 371              		.loc 1 481 0 is_stmt 0 discriminator 1
 372 0098 01B2     		sxth	r1, r0
 373 009a 2068     		ldr	r0, [r4]
 374              	.LVL37:
 375 009c 9847     		blx	r3
 376              	.LVL38:
 377              	.L31:
 485:lvgl\src\lv_misc/lv_anim.c ****                     anim_ready_handler(a);
 378              		.loc 1 485 0 is_stmt 1
 379 009e A26A     		ldr	r2, [r4, #40]
 380 00a0 636A     		ldr	r3, [r4, #36]
 381 00a2 9A42     		cmp	r2, r3
 382 00a4 02DB     		blt	.L26
 486:lvgl\src\lv_misc/lv_anim.c ****                 }
 383              		.loc 1 486 0
 384 00a6 2046     		mov	r0, r4
 385 00a8 FFF7FEFF 		bl	anim_ready_handler
 386              	.LVL39:
 387              	.L26:
 388              	.LBE7:
 389              	.LBE6:
 493:lvgl\src\lv_misc/lv_anim.c ****             a = _lv_ll_get_head(&LV_GC_ROOT(_lv_anim_ll));
 390              		.loc 1 493 0
 391 00ac 0A4B     		ldr	r3, .L36+4
 392 00ae 1B78     		ldrb	r3, [r3]	@ zero_extendqisi2
 393 00b0 23B1     		cbz	r3, .L32
 494:lvgl\src\lv_misc/lv_anim.c ****         else
 394              		.loc 1 494 0
 395 00b2 0848     		ldr	r0, .L36
 396 00b4 FFF7FEFF 		bl	_lv_ll_get_head
 397              	.LVL40:
 398 00b8 0446     		mov	r4, r0
 399              	.LVL41:
 400 00ba 04E0     		b	.L25
 401              	.LVL42:
 402              	.L32:
 496:lvgl\src\lv_misc/lv_anim.c ****     }
 403              		.loc 1 496 0
 404 00bc 2146     		mov	r1, r4
 405 00be 0548     		ldr	r0, .L36
 406 00c0 FFF7FEFF 		bl	_lv_ll_get_next
ARM GAS  C:\Users\strap\AppData\Local\Temp\ccebyBxd.s 			page 19


 407              	.LVL43:
 408 00c4 0446     		mov	r4, r0
 409              	.LVL44:
 410              	.L25:
 455:lvgl\src\lv_misc/lv_anim.c ****         /*It can be set by `lv_anim_del()` typically in `end_cb`. If set then an animation delete
 411              		.loc 1 455 0
 412 00c6 002C     		cmp	r4, #0
 413 00c8 B5D1     		bne	.L34
 499:lvgl\src\lv_misc/lv_anim.c **** }
 414              		.loc 1 499 0
 415 00ca FFF7FEFF 		bl	lv_tick_get
 416              	.LVL45:
 417 00ce 024B     		ldr	r3, .L36+4
 418 00d0 9860     		str	r0, [r3, #8]
 419 00d2 38BD     		pop	{r3, r4, r5, pc}
 420              	.LVL46:
 421              	.L37:
 422              		.align	2
 423              	.L36:
 424 00d4 00000000 		.word	_lv_anim_ll
 425 00d8 00000000 		.word	.LANCHOR0
 426              		.cfi_endproc
 427              	.LFE52:
 428              		.size	anim_task, .-anim_task
 429              		.section	.text._lv_anim_core_init,"ax",%progbits
 430              		.align	2
 431              		.global	_lv_anim_core_init
 432              		.thumb
 433              		.thumb_func
 434              		.type	_lv_anim_core_init, %function
 435              	_lv_anim_core_init:
 436              	.LFB37:
  62:lvgl\src\lv_misc/lv_anim.c ****     _lv_ll_init(&LV_GC_ROOT(_lv_anim_ll), sizeof(lv_anim_t));
 437              		.loc 1 62 0
 438              		.cfi_startproc
 439              		@ args = 0, pretend = 0, frame = 0
 440              		@ frame_needed = 0, uses_anonymous_args = 0
 441 0000 10B5     		push	{r4, lr}
 442              		.cfi_def_cfa_offset 8
 443              		.cfi_offset 4, -8
 444              		.cfi_offset 14, -4
  63:lvgl\src\lv_misc/lv_anim.c ****     last_task_run = lv_tick_get();
 445              		.loc 1 63 0
 446 0002 4821     		movs	r1, #72
 447 0004 0948     		ldr	r0, .L40
 448 0006 FFF7FEFF 		bl	_lv_ll_init
 449              	.LVL47:
  64:lvgl\src\lv_misc/lv_anim.c ****     _lv_anim_task = lv_task_create(anim_task, LV_DISP_DEF_REFR_PERIOD, LV_ANIM_TASK_PRIO, NULL);
 450              		.loc 1 64 0
 451 000a FFF7FEFF 		bl	lv_tick_get
 452              	.LVL48:
 453 000e 084C     		ldr	r4, .L40+4
 454 0010 A060     		str	r0, [r4, #8]
  65:lvgl\src\lv_misc/lv_anim.c ****     anim_mark_list_change(); /*Turn off the animation task*/
 455              		.loc 1 65 0
 456 0012 0023     		movs	r3, #0
 457 0014 0422     		movs	r2, #4
ARM GAS  C:\Users\strap\AppData\Local\Temp\ccebyBxd.s 			page 20


 458 0016 1E21     		movs	r1, #30
 459 0018 0648     		ldr	r0, .L40+8
 460 001a FFF7FEFF 		bl	lv_task_create
 461              	.LVL49:
 462 001e 6060     		str	r0, [r4, #4]
  66:lvgl\src\lv_misc/lv_anim.c ****     anim_list_changed = false; /*The list has not actually changed*/
 463              		.loc 1 66 0
 464 0020 FFF7FEFF 		bl	anim_mark_list_change
 465              	.LVL50:
  67:lvgl\src\lv_misc/lv_anim.c **** }
 466              		.loc 1 67 0
 467 0024 0023     		movs	r3, #0
 468 0026 2370     		strb	r3, [r4]
 469 0028 10BD     		pop	{r4, pc}
 470              	.L41:
 471 002a 00BF     		.align	2
 472              	.L40:
 473 002c 00000000 		.word	_lv_anim_ll
 474 0030 00000000 		.word	.LANCHOR0
 475 0034 00000000 		.word	anim_task
 476              		.cfi_endproc
 477              	.LFE37:
 478              		.size	_lv_anim_core_init, .-_lv_anim_core_init
 479              		.section	.text.lv_anim_init,"ax",%progbits
 480              		.align	2
 481              		.global	lv_anim_init
 482              		.thumb
 483              		.thumb_func
 484              		.type	lv_anim_init, %function
 485              	lv_anim_init:
 486              	.LFB38:
  79:lvgl\src\lv_misc/lv_anim.c ****     _lv_memset_00(a, sizeof(lv_anim_t));
 487              		.loc 1 79 0
 488              		.cfi_startproc
 489              		@ args = 0, pretend = 0, frame = 0
 490              		@ frame_needed = 0, uses_anonymous_args = 0
 491              	.LVL51:
 492 0000 10B5     		push	{r4, lr}
 493              		.cfi_def_cfa_offset 8
 494              		.cfi_offset 4, -8
 495              		.cfi_offset 14, -4
 496 0002 0446     		mov	r4, r0
  80:lvgl\src\lv_misc/lv_anim.c ****     a->time    = 500;
 497              		.loc 1 80 0
 498 0004 4821     		movs	r1, #72
 499 0006 FFF7FEFF 		bl	_lv_memset_00
 500              	.LVL52:
  81:lvgl\src\lv_misc/lv_anim.c ****     a->start   = 0;
 501              		.loc 1 81 0
 502 000a 4FF4FA73 		mov	r3, #500
 503 000e 6362     		str	r3, [r4, #36]
  82:lvgl\src\lv_misc/lv_anim.c ****     a->end     = 100;
 504              		.loc 1 82 0
 505 0010 0023     		movs	r3, #0
 506 0012 A361     		str	r3, [r4, #24]
  83:lvgl\src\lv_misc/lv_anim.c ****     _lv_memcpy_small(&a->path, &lv_anim_path_def, sizeof(lv_anim_path_cb_t));
 507              		.loc 1 83 0
ARM GAS  C:\Users\strap\AppData\Local\Temp\ccebyBxd.s 			page 21


 508 0014 6423     		movs	r3, #100
 509 0016 2362     		str	r3, [r4, #32]
  84:lvgl\src\lv_misc/lv_anim.c ****     a->repeat_cnt = 1;
 510              		.loc 1 84 0
 511 0018 04F11001 		add	r1, r4, #16
 512              	.LVL53:
 513              	.LBB8:
 514              	.LBB9:
 515              		.file 2 "lvgl\\src\\lv_misc\\lv_mem.h"
   1:lvgl\src\lv_misc/lv_mem.h **** /**
   2:lvgl\src\lv_misc/lv_mem.h ****  * @file lv_mem.h
   3:lvgl\src\lv_misc/lv_mem.h ****  *
   4:lvgl\src\lv_misc/lv_mem.h ****  */
   5:lvgl\src\lv_misc/lv_mem.h **** 
   6:lvgl\src\lv_misc/lv_mem.h **** #ifndef LV_MEM_H
   7:lvgl\src\lv_misc/lv_mem.h **** #define LV_MEM_H
   8:lvgl\src\lv_misc/lv_mem.h **** 
   9:lvgl\src\lv_misc/lv_mem.h **** #ifdef __cplusplus
  10:lvgl\src\lv_misc/lv_mem.h **** extern "C" {
  11:lvgl\src\lv_misc/lv_mem.h **** #endif
  12:lvgl\src\lv_misc/lv_mem.h **** 
  13:lvgl\src\lv_misc/lv_mem.h **** /*********************
  14:lvgl\src\lv_misc/lv_mem.h ****  *      INCLUDES
  15:lvgl\src\lv_misc/lv_mem.h ****  *********************/
  16:lvgl\src\lv_misc/lv_mem.h **** #include "../lv_conf_internal.h"
  17:lvgl\src\lv_misc/lv_mem.h **** 
  18:lvgl\src\lv_misc/lv_mem.h **** #include <stdint.h>
  19:lvgl\src\lv_misc/lv_mem.h **** #include <stddef.h>
  20:lvgl\src\lv_misc/lv_mem.h **** #include "lv_log.h"
  21:lvgl\src\lv_misc/lv_mem.h **** #include "lv_types.h"
  22:lvgl\src\lv_misc/lv_mem.h **** 
  23:lvgl\src\lv_misc/lv_mem.h **** #if LV_MEMCPY_MEMSET_STD
  24:lvgl\src\lv_misc/lv_mem.h **** #include <string.h>
  25:lvgl\src\lv_misc/lv_mem.h **** #endif
  26:lvgl\src\lv_misc/lv_mem.h **** 
  27:lvgl\src\lv_misc/lv_mem.h **** /*********************
  28:lvgl\src\lv_misc/lv_mem.h ****  *      DEFINES
  29:lvgl\src\lv_misc/lv_mem.h ****  *********************/
  30:lvgl\src\lv_misc/lv_mem.h **** 
  31:lvgl\src\lv_misc/lv_mem.h **** #ifndef LV_MEM_BUF_MAX_NUM
  32:lvgl\src\lv_misc/lv_mem.h **** #define LV_MEM_BUF_MAX_NUM    16
  33:lvgl\src\lv_misc/lv_mem.h **** #endif
  34:lvgl\src\lv_misc/lv_mem.h **** 
  35:lvgl\src\lv_misc/lv_mem.h **** /**********************
  36:lvgl\src\lv_misc/lv_mem.h ****  *      TYPEDEFS
  37:lvgl\src\lv_misc/lv_mem.h ****  **********************/
  38:lvgl\src\lv_misc/lv_mem.h **** 
  39:lvgl\src\lv_misc/lv_mem.h **** /**
  40:lvgl\src\lv_misc/lv_mem.h ****  * Heap information structure.
  41:lvgl\src\lv_misc/lv_mem.h ****  */
  42:lvgl\src\lv_misc/lv_mem.h **** typedef struct {
  43:lvgl\src\lv_misc/lv_mem.h ****     uint32_t total_size; /**< Total heap size */
  44:lvgl\src\lv_misc/lv_mem.h ****     uint32_t free_cnt;
  45:lvgl\src\lv_misc/lv_mem.h ****     uint32_t free_size; /**< Size of available memory */
  46:lvgl\src\lv_misc/lv_mem.h ****     uint32_t free_biggest_size;
  47:lvgl\src\lv_misc/lv_mem.h ****     uint32_t used_cnt;
  48:lvgl\src\lv_misc/lv_mem.h ****     uint32_t max_used; /**< Max size of Heap memory used */
ARM GAS  C:\Users\strap\AppData\Local\Temp\ccebyBxd.s 			page 22


  49:lvgl\src\lv_misc/lv_mem.h ****     uint8_t used_pct; /**< Percentage used */
  50:lvgl\src\lv_misc/lv_mem.h ****     uint8_t frag_pct; /**< Amount of fragmentation */
  51:lvgl\src\lv_misc/lv_mem.h **** } lv_mem_monitor_t;
  52:lvgl\src\lv_misc/lv_mem.h **** 
  53:lvgl\src\lv_misc/lv_mem.h **** typedef struct {
  54:lvgl\src\lv_misc/lv_mem.h ****     void * p;
  55:lvgl\src\lv_misc/lv_mem.h ****     uint16_t size;
  56:lvgl\src\lv_misc/lv_mem.h ****     uint8_t used    : 1;
  57:lvgl\src\lv_misc/lv_mem.h **** } lv_mem_buf_t;
  58:lvgl\src\lv_misc/lv_mem.h **** 
  59:lvgl\src\lv_misc/lv_mem.h **** typedef lv_mem_buf_t lv_mem_buf_arr_t[LV_MEM_BUF_MAX_NUM];
  60:lvgl\src\lv_misc/lv_mem.h **** extern lv_mem_buf_arr_t _lv_mem_buf;
  61:lvgl\src\lv_misc/lv_mem.h **** 
  62:lvgl\src\lv_misc/lv_mem.h **** /**********************
  63:lvgl\src\lv_misc/lv_mem.h ****  * GLOBAL PROTOTYPES
  64:lvgl\src\lv_misc/lv_mem.h ****  **********************/
  65:lvgl\src\lv_misc/lv_mem.h **** 
  66:lvgl\src\lv_misc/lv_mem.h **** /**
  67:lvgl\src\lv_misc/lv_mem.h ****  * Initialize the dyn_mem module (work memory and other variables)
  68:lvgl\src\lv_misc/lv_mem.h ****  */
  69:lvgl\src\lv_misc/lv_mem.h **** void _lv_mem_init(void);
  70:lvgl\src\lv_misc/lv_mem.h **** 
  71:lvgl\src\lv_misc/lv_mem.h **** /**
  72:lvgl\src\lv_misc/lv_mem.h ****  * Clean up the memory buffer which frees all the allocated memories.
  73:lvgl\src\lv_misc/lv_mem.h ****  * @note It work only if `LV_MEM_CUSTOM == 0`
  74:lvgl\src\lv_misc/lv_mem.h ****  */
  75:lvgl\src\lv_misc/lv_mem.h **** void _lv_mem_deinit(void);
  76:lvgl\src\lv_misc/lv_mem.h **** 
  77:lvgl\src\lv_misc/lv_mem.h **** /**
  78:lvgl\src\lv_misc/lv_mem.h ****  * Allocate a memory dynamically
  79:lvgl\src\lv_misc/lv_mem.h ****  * @param size size of the memory to allocate in bytes
  80:lvgl\src\lv_misc/lv_mem.h ****  * @return pointer to the allocated memory
  81:lvgl\src\lv_misc/lv_mem.h ****  */
  82:lvgl\src\lv_misc/lv_mem.h **** void * lv_mem_alloc(size_t size);
  83:lvgl\src\lv_misc/lv_mem.h **** 
  84:lvgl\src\lv_misc/lv_mem.h **** /**
  85:lvgl\src\lv_misc/lv_mem.h ****  * Free an allocated data
  86:lvgl\src\lv_misc/lv_mem.h ****  * @param data pointer to an allocated memory
  87:lvgl\src\lv_misc/lv_mem.h ****  */
  88:lvgl\src\lv_misc/lv_mem.h **** void lv_mem_free(const void * data);
  89:lvgl\src\lv_misc/lv_mem.h **** 
  90:lvgl\src\lv_misc/lv_mem.h **** /**
  91:lvgl\src\lv_misc/lv_mem.h ****  * Reallocate a memory with a new size. The old content will be kept.
  92:lvgl\src\lv_misc/lv_mem.h ****  * @param data pointer to an allocated memory.
  93:lvgl\src\lv_misc/lv_mem.h ****  * Its content will be copied to the new memory block and freed
  94:lvgl\src\lv_misc/lv_mem.h ****  * @param new_size the desired new size in byte
  95:lvgl\src\lv_misc/lv_mem.h ****  * @return pointer to the new memory
  96:lvgl\src\lv_misc/lv_mem.h ****  */
  97:lvgl\src\lv_misc/lv_mem.h **** void * lv_mem_realloc(void * data_p, size_t new_size);
  98:lvgl\src\lv_misc/lv_mem.h **** 
  99:lvgl\src\lv_misc/lv_mem.h **** /**
 100:lvgl\src\lv_misc/lv_mem.h ****  * Join the adjacent free memory blocks
 101:lvgl\src\lv_misc/lv_mem.h ****  */
 102:lvgl\src\lv_misc/lv_mem.h **** void lv_mem_defrag(void);
 103:lvgl\src\lv_misc/lv_mem.h **** 
 104:lvgl\src\lv_misc/lv_mem.h **** /**
 105:lvgl\src\lv_misc/lv_mem.h ****  *
ARM GAS  C:\Users\strap\AppData\Local\Temp\ccebyBxd.s 			page 23


 106:lvgl\src\lv_misc/lv_mem.h ****  * @return
 107:lvgl\src\lv_misc/lv_mem.h ****  */
 108:lvgl\src\lv_misc/lv_mem.h **** lv_res_t lv_mem_test(void);
 109:lvgl\src\lv_misc/lv_mem.h **** 
 110:lvgl\src\lv_misc/lv_mem.h **** /**
 111:lvgl\src\lv_misc/lv_mem.h ****  * Give information about the work memory of dynamic allocation
 112:lvgl\src\lv_misc/lv_mem.h ****  * @param mon_p pointer to a dm_mon_p variable,
 113:lvgl\src\lv_misc/lv_mem.h ****  *              the result of the analysis will be stored here
 114:lvgl\src\lv_misc/lv_mem.h ****  */
 115:lvgl\src\lv_misc/lv_mem.h **** void lv_mem_monitor(lv_mem_monitor_t * mon_p);
 116:lvgl\src\lv_misc/lv_mem.h **** 
 117:lvgl\src\lv_misc/lv_mem.h **** /**
 118:lvgl\src\lv_misc/lv_mem.h ****  * Give the size of an allocated memory
 119:lvgl\src\lv_misc/lv_mem.h ****  * @param data pointer to an allocated memory
 120:lvgl\src\lv_misc/lv_mem.h ****  * @return the size of data memory in bytes
 121:lvgl\src\lv_misc/lv_mem.h ****  */
 122:lvgl\src\lv_misc/lv_mem.h **** uint32_t _lv_mem_get_size(const void * data);
 123:lvgl\src\lv_misc/lv_mem.h **** 
 124:lvgl\src\lv_misc/lv_mem.h **** /**
 125:lvgl\src\lv_misc/lv_mem.h ****  * Get a temporal buffer with the given size.
 126:lvgl\src\lv_misc/lv_mem.h ****  * @param size the required size
 127:lvgl\src\lv_misc/lv_mem.h ****  */
 128:lvgl\src\lv_misc/lv_mem.h **** void * _lv_mem_buf_get(uint32_t size);
 129:lvgl\src\lv_misc/lv_mem.h **** 
 130:lvgl\src\lv_misc/lv_mem.h **** /**
 131:lvgl\src\lv_misc/lv_mem.h ****  * Release a memory buffer
 132:lvgl\src\lv_misc/lv_mem.h ****  * @param p buffer to release
 133:lvgl\src\lv_misc/lv_mem.h ****  */
 134:lvgl\src\lv_misc/lv_mem.h **** void _lv_mem_buf_release(void * p);
 135:lvgl\src\lv_misc/lv_mem.h **** 
 136:lvgl\src\lv_misc/lv_mem.h **** /**
 137:lvgl\src\lv_misc/lv_mem.h ****  * Free all memory buffers
 138:lvgl\src\lv_misc/lv_mem.h ****  */
 139:lvgl\src\lv_misc/lv_mem.h **** void _lv_mem_buf_free_all(void);
 140:lvgl\src\lv_misc/lv_mem.h **** 
 141:lvgl\src\lv_misc/lv_mem.h **** 
 142:lvgl\src\lv_misc/lv_mem.h **** //! @cond Doxygen_Suppress
 143:lvgl\src\lv_misc/lv_mem.h **** 
 144:lvgl\src\lv_misc/lv_mem.h **** #if LV_MEMCPY_MEMSET_STD
 145:lvgl\src\lv_misc/lv_mem.h **** 
 146:lvgl\src\lv_misc/lv_mem.h **** /**
 147:lvgl\src\lv_misc/lv_mem.h ****  * Wrapper for the standard memcpy
 148:lvgl\src\lv_misc/lv_mem.h ****  * @param dst pointer to the destination buffer
 149:lvgl\src\lv_misc/lv_mem.h ****  * @param src pointer to the source buffer
 150:lvgl\src\lv_misc/lv_mem.h ****  * @param len number of byte to copy
 151:lvgl\src\lv_misc/lv_mem.h ****  */
 152:lvgl\src\lv_misc/lv_mem.h **** static inline void * _lv_memcpy(void * dst, const void * src, size_t len)
 153:lvgl\src\lv_misc/lv_mem.h **** {
 154:lvgl\src\lv_misc/lv_mem.h ****     return memcpy(dst, src, len);
 155:lvgl\src\lv_misc/lv_mem.h **** }
 156:lvgl\src\lv_misc/lv_mem.h **** 
 157:lvgl\src\lv_misc/lv_mem.h **** /**
 158:lvgl\src\lv_misc/lv_mem.h ****  * Wrapper for the standard memcpy
 159:lvgl\src\lv_misc/lv_mem.h ****  * @param dst pointer to the destination buffer
 160:lvgl\src\lv_misc/lv_mem.h ****  * @param src pointer to the source buffer
 161:lvgl\src\lv_misc/lv_mem.h ****  * @param len number of byte to copy
 162:lvgl\src\lv_misc/lv_mem.h ****  */
ARM GAS  C:\Users\strap\AppData\Local\Temp\ccebyBxd.s 			page 24


 163:lvgl\src\lv_misc/lv_mem.h **** static inline void * _lv_memcpy_small(void * dst, const void * src, size_t len)
 164:lvgl\src\lv_misc/lv_mem.h **** {
 165:lvgl\src\lv_misc/lv_mem.h ****     return memcpy(dst, src, len);
 166:lvgl\src\lv_misc/lv_mem.h **** }
 167:lvgl\src\lv_misc/lv_mem.h **** 
 168:lvgl\src\lv_misc/lv_mem.h **** /**
 169:lvgl\src\lv_misc/lv_mem.h ****  * Wrapper for the standard memset
 170:lvgl\src\lv_misc/lv_mem.h ****  * @param dst pointer to the destination buffer
 171:lvgl\src\lv_misc/lv_mem.h ****  * @param v value to set [0..255]
 172:lvgl\src\lv_misc/lv_mem.h ****  * @param len number of byte to set
 173:lvgl\src\lv_misc/lv_mem.h ****  */
 174:lvgl\src\lv_misc/lv_mem.h **** static inline void _lv_memset(void * dst, uint8_t v, size_t len)
 175:lvgl\src\lv_misc/lv_mem.h **** {
 176:lvgl\src\lv_misc/lv_mem.h ****     memset(dst, v, len);
 177:lvgl\src\lv_misc/lv_mem.h **** }
 178:lvgl\src\lv_misc/lv_mem.h **** 
 179:lvgl\src\lv_misc/lv_mem.h **** /**
 180:lvgl\src\lv_misc/lv_mem.h ****  * Wrapper for the standard memset with fixed 0x00 value
 181:lvgl\src\lv_misc/lv_mem.h ****  * @param dst pointer to the destination buffer
 182:lvgl\src\lv_misc/lv_mem.h ****  * @param len number of byte to set
 183:lvgl\src\lv_misc/lv_mem.h ****  */
 184:lvgl\src\lv_misc/lv_mem.h **** static inline void _lv_memset_00(void * dst, size_t len)
 185:lvgl\src\lv_misc/lv_mem.h **** {
 186:lvgl\src\lv_misc/lv_mem.h ****     memset(dst, 0x00, len);
 187:lvgl\src\lv_misc/lv_mem.h **** }
 188:lvgl\src\lv_misc/lv_mem.h **** 
 189:lvgl\src\lv_misc/lv_mem.h **** /**
 190:lvgl\src\lv_misc/lv_mem.h ****  * Wrapper for the standard memset with fixed 0xFF value
 191:lvgl\src\lv_misc/lv_mem.h ****  * @param dst pointer to the destination buffer
 192:lvgl\src\lv_misc/lv_mem.h ****  * @param len number of byte to set
 193:lvgl\src\lv_misc/lv_mem.h ****  */
 194:lvgl\src\lv_misc/lv_mem.h **** static inline void _lv_memset_ff(void * dst, size_t len)
 195:lvgl\src\lv_misc/lv_mem.h **** {
 196:lvgl\src\lv_misc/lv_mem.h ****     memset(dst, 0xFF, len);
 197:lvgl\src\lv_misc/lv_mem.h **** }
 198:lvgl\src\lv_misc/lv_mem.h **** 
 199:lvgl\src\lv_misc/lv_mem.h **** #else
 200:lvgl\src\lv_misc/lv_mem.h **** /**
 201:lvgl\src\lv_misc/lv_mem.h ****  * Same as `memcpy` but optimized for 4 byte operation.
 202:lvgl\src\lv_misc/lv_mem.h ****  * @param dst pointer to the destination buffer
 203:lvgl\src\lv_misc/lv_mem.h ****  * @param src pointer to the source buffer
 204:lvgl\src\lv_misc/lv_mem.h ****  * @param len number of byte to copy
 205:lvgl\src\lv_misc/lv_mem.h ****  */
 206:lvgl\src\lv_misc/lv_mem.h **** LV_ATTRIBUTE_FAST_MEM void * _lv_memcpy(void * dst, const void * src, size_t len);
 207:lvgl\src\lv_misc/lv_mem.h **** 
 208:lvgl\src\lv_misc/lv_mem.h **** /**
 209:lvgl\src\lv_misc/lv_mem.h ****  * Same as `memcpy` but optimized to copy only a few bytes.
 210:lvgl\src\lv_misc/lv_mem.h ****  * @param dst pointer to the destination buffer
 211:lvgl\src\lv_misc/lv_mem.h ****  * @param src pointer to the source buffer
 212:lvgl\src\lv_misc/lv_mem.h ****  * @param len number of byte to copy
 213:lvgl\src\lv_misc/lv_mem.h ****  */
 214:lvgl\src\lv_misc/lv_mem.h **** LV_ATTRIBUTE_FAST_MEM static inline void * _lv_memcpy_small(void * dst, const void * src, size_t le
 215:lvgl\src\lv_misc/lv_mem.h **** {
 216:lvgl\src\lv_misc/lv_mem.h ****     uint8_t * d8 = (uint8_t *)dst;
 217:lvgl\src\lv_misc/lv_mem.h ****     const uint8_t * s8 = (const uint8_t *)src;
 516              		.loc 2 217 0
 517 001c 094A     		ldr	r2, .L46
ARM GAS  C:\Users\strap\AppData\Local\Temp\ccebyBxd.s 			page 25


 518              	.LBE9:
 519              	.LBE8:
  84:lvgl\src\lv_misc/lv_anim.c ****     a->repeat_cnt = 1;
 520              		.loc 1 84 0
 521 001e 0423     		movs	r3, #4
 522 0020 04E0     		b	.L43
 523              	.LVL54:
 524              	.L44:
 525              	.LBB11:
 526              	.LBB10:
 218:lvgl\src\lv_misc/lv_mem.h **** 
 219:lvgl\src\lv_misc/lv_mem.h ****     while(len) {
 220:lvgl\src\lv_misc/lv_mem.h ****         *d8 = *s8;
 527              		.loc 2 220 0
 528 0022 12F8010B 		ldrb	r0, [r2], #1	@ zero_extendqisi2
 529              	.LVL55:
 530 0026 01F8010B 		strb	r0, [r1], #1
 531              	.LVL56:
 221:lvgl\src\lv_misc/lv_mem.h ****         d8++;
 222:lvgl\src\lv_misc/lv_mem.h ****         s8++;
 223:lvgl\src\lv_misc/lv_mem.h ****         len--;
 532              		.loc 2 223 0
 533 002a 013B     		subs	r3, r3, #1
 534              	.LVL57:
 535              	.L43:
 219:lvgl\src\lv_misc/lv_mem.h ****         *d8 = *s8;
 536              		.loc 2 219 0
 537 002c 002B     		cmp	r3, #0
 538 002e F8D1     		bne	.L44
 539              	.LVL58:
 540              	.LBE10:
 541              	.LBE11:
  85:lvgl\src\lv_misc/lv_anim.c ****     a->early_apply = 1;
 542              		.loc 1 85 0
 543 0030 0123     		movs	r3, #1
 544 0032 2387     		strh	r3, [r4, #56]	@ movhi
  86:lvgl\src\lv_misc/lv_anim.c **** }
 545              		.loc 1 86 0
 546 0034 94F83A30 		ldrb	r3, [r4, #58]	@ zero_extendqisi2
 547 0038 43F00103 		orr	r3, r3, #1
 548 003c 84F83A30 		strb	r3, [r4, #58]
 549 0040 10BD     		pop	{r4, pc}
 550              	.LVL59:
 551              	.L47:
 552 0042 00BF     		.align	2
 553              	.L46:
 554 0044 00000000 		.word	.LANCHOR1
 555              		.cfi_endproc
 556              	.LFE38:
 557              		.size	lv_anim_init, .-lv_anim_init
 558              		.section	.text.lv_anim_del,"ax",%progbits
 559              		.align	2
 560              		.global	lv_anim_del
 561              		.thumb
 562              		.thumb_func
 563              		.type	lv_anim_del, %function
 564              	lv_anim_del:
ARM GAS  C:\Users\strap\AppData\Local\Temp\ccebyBxd.s 			page 26


 565              	.LFB40:
 132:lvgl\src\lv_misc/lv_anim.c ****     lv_anim_t * a;
 566              		.loc 1 132 0
 567              		.cfi_startproc
 568              		@ args = 0, pretend = 0, frame = 0
 569              		@ frame_needed = 0, uses_anonymous_args = 0
 570              	.LVL60:
 571 0000 2DE9F041 		push	{r4, r5, r6, r7, r8, lr}
 572              		.cfi_def_cfa_offset 24
 573              		.cfi_offset 4, -24
 574              		.cfi_offset 5, -20
 575              		.cfi_offset 6, -16
 576              		.cfi_offset 7, -12
 577              		.cfi_offset 8, -8
 578              		.cfi_offset 14, -4
 579 0004 0646     		mov	r6, r0
 580 0006 0F46     		mov	r7, r1
 581              	.LVL61:
 136:lvgl\src\lv_misc/lv_anim.c ****     while(a != NULL) {
 582              		.loc 1 136 0
 583 0008 1148     		ldr	r0, .L54
 584              	.LVL62:
 585 000a FFF7FEFF 		bl	_lv_ll_get_head
 586              	.LVL63:
 587 000e 0446     		mov	r4, r0
 588              	.LVL64:
 135:lvgl\src\lv_misc/lv_anim.c ****     a        = _lv_ll_get_head(&LV_GC_ROOT(_lv_anim_ll));
 589              		.loc 1 135 0
 590 0010 4FF00008 		mov	r8, #0
 137:lvgl\src\lv_misc/lv_anim.c ****         /*'a' might be deleted, so get the next object while 'a' is valid*/
 591              		.loc 1 137 0
 592 0014 17E0     		b	.L49
 593              	.LVL65:
 594              	.L52:
 139:lvgl\src\lv_misc/lv_anim.c **** 
 595              		.loc 1 139 0
 596 0016 2146     		mov	r1, r4
 597 0018 0D48     		ldr	r0, .L54
 598 001a FFF7FEFF 		bl	_lv_ll_get_next
 599              	.LVL66:
 600 001e 0546     		mov	r5, r0
 601              	.LVL67:
 141:lvgl\src\lv_misc/lv_anim.c ****             _lv_ll_remove(&LV_GC_ROOT(_lv_anim_ll), a);
 602              		.loc 1 141 0
 603 0020 2368     		ldr	r3, [r4]
 604 0022 B342     		cmp	r3, r6
 605 0024 0ED1     		bne	.L50
 141:lvgl\src\lv_misc/lv_anim.c ****             _lv_ll_remove(&LV_GC_ROOT(_lv_anim_ll), a);
 606              		.loc 1 141 0 is_stmt 0 discriminator 1
 607 0026 6368     		ldr	r3, [r4, #4]
 608 0028 BB42     		cmp	r3, r7
 609 002a 00D0     		beq	.L51
 141:lvgl\src\lv_misc/lv_anim.c ****             _lv_ll_remove(&LV_GC_ROOT(_lv_anim_ll), a);
 610              		.loc 1 141 0 discriminator 2
 611 002c 57B9     		cbnz	r7, .L50
 612              	.L51:
 142:lvgl\src\lv_misc/lv_anim.c ****             lv_mem_free(a);
ARM GAS  C:\Users\strap\AppData\Local\Temp\ccebyBxd.s 			page 27


 613              		.loc 1 142 0 is_stmt 1
 614 002e 2146     		mov	r1, r4
 615 0030 0748     		ldr	r0, .L54
 616              	.LVL68:
 617 0032 FFF7FEFF 		bl	_lv_ll_remove
 618              	.LVL69:
 143:lvgl\src\lv_misc/lv_anim.c ****             anim_mark_list_change(); /*Read by `anim_task`. It need to know if a delete occurred in
 619              		.loc 1 143 0
 620 0036 2046     		mov	r0, r4
 621 0038 FFF7FEFF 		bl	lv_mem_free
 622              	.LVL70:
 144:lvgl\src\lv_misc/lv_anim.c ****                                          the linked list*/
 623              		.loc 1 144 0
 624 003c FFF7FEFF 		bl	anim_mark_list_change
 625              	.LVL71:
 146:lvgl\src\lv_misc/lv_anim.c ****         }
 626              		.loc 1 146 0
 627 0040 4FF00108 		mov	r8, #1
 628              	.LVL72:
 629              	.L50:
 630 0044 2C46     		mov	r4, r5
 631              	.LVL73:
 632              	.L49:
 137:lvgl\src\lv_misc/lv_anim.c ****         /*'a' might be deleted, so get the next object while 'a' is valid*/
 633              		.loc 1 137 0
 634 0046 002C     		cmp	r4, #0
 635 0048 E5D1     		bne	.L52
 153:lvgl\src\lv_misc/lv_anim.c **** 
 636              		.loc 1 153 0
 637 004a 4046     		mov	r0, r8
 638 004c BDE8F081 		pop	{r4, r5, r6, r7, r8, pc}
 639              	.LVL74:
 640              	.L55:
 641              		.align	2
 642              	.L54:
 643 0050 00000000 		.word	_lv_anim_ll
 644              		.cfi_endproc
 645              	.LFE40:
 646              		.size	lv_anim_del, .-lv_anim_del
 647              		.section	.text.lv_anim_start,"ax",%progbits
 648              		.align	2
 649              		.global	lv_anim_start
 650              		.thumb
 651              		.thumb_func
 652              		.type	lv_anim_start, %function
 653              	lv_anim_start:
 654              	.LFB39:
  93:lvgl\src\lv_misc/lv_anim.c ****     LV_LOG_TRACE("animation create started")
 655              		.loc 1 93 0
 656              		.cfi_startproc
 657              		@ args = 0, pretend = 0, frame = 0
 658              		@ frame_needed = 0, uses_anonymous_args = 0
 659              	.LVL75:
 660 0000 38B5     		push	{r3, r4, r5, lr}
 661              		.cfi_def_cfa_offset 16
 662              		.cfi_offset 3, -16
 663              		.cfi_offset 4, -12
ARM GAS  C:\Users\strap\AppData\Local\Temp\ccebyBxd.s 			page 28


 664              		.cfi_offset 5, -8
 665              		.cfi_offset 14, -4
 666 0002 0546     		mov	r5, r0
  96:lvgl\src\lv_misc/lv_anim.c **** 
 667              		.loc 1 96 0
 668 0004 4168     		ldr	r1, [r0, #4]
 669 0006 11B1     		cbz	r1, .L57
  96:lvgl\src\lv_misc/lv_anim.c **** 
 670              		.loc 1 96 0 is_stmt 0 discriminator 1
 671 0008 0068     		ldr	r0, [r0]
 672              	.LVL76:
 673 000a FFF7FEFF 		bl	lv_anim_del
 674              	.LVL77:
 675              	.L57:
  99:lvgl\src\lv_misc/lv_anim.c ****         last_task_run = lv_tick_get() - 1;
 676              		.loc 1 99 0 is_stmt 1
 677 000e 1648     		ldr	r0, .L64
 678 0010 FFF7FEFF 		bl	_lv_ll_is_empty
 679              	.LVL78:
 680 0014 20B1     		cbz	r0, .L58
 100:lvgl\src\lv_misc/lv_anim.c ****     }
 681              		.loc 1 100 0
 682 0016 FFF7FEFF 		bl	lv_tick_get
 683              	.LVL79:
 684 001a 0138     		subs	r0, r0, #1
 685 001c 134B     		ldr	r3, .L64+4
 686 001e 9860     		str	r0, [r3, #8]
 687              	.L58:
 104:lvgl\src\lv_misc/lv_anim.c ****     LV_ASSERT_MEM(new_anim);
 688              		.loc 1 104 0
 689 0020 1148     		ldr	r0, .L64
 690 0022 FFF7FEFF 		bl	_lv_ll_ins_head
 691              	.LVL80:
 692 0026 0446     		mov	r4, r0
 693              	.LVL81:
 105:lvgl\src\lv_misc/lv_anim.c ****     if(new_anim == NULL) return;
 694              		.loc 1 105 0
 695 0028 FFF7FEFF 		bl	lv_debug_check_null
 696              	.LVL82:
 697 002c 28B9     		cbnz	r0, .L59
 105:lvgl\src\lv_misc/lv_anim.c ****     if(new_anim == NULL) return;
 698              		.loc 1 105 0 is_stmt 0 discriminator 1
 699 002e 2246     		mov	r2, r4
 700 0030 0023     		movs	r3, #0
 701 0032 0F48     		ldr	r0, .L64+8
 702 0034 FFF7FEFF 		bl	lv_debug_log_error
 703              	.LVL83:
 704              	.L60:
 705 0038 FEE7     		b	.L60
 706              	.L59:
 106:lvgl\src\lv_misc/lv_anim.c **** 
 707              		.loc 1 106 0 is_stmt 1
 708 003a A4B1     		cbz	r4, .L56
 109:lvgl\src\lv_misc/lv_anim.c ****     _lv_memcpy(new_anim, a, sizeof(lv_anim_t));
 709              		.loc 1 109 0
 710 003c 6B6A     		ldr	r3, [r5, #36]
 711 003e 2B64     		str	r3, [r5, #64]
ARM GAS  C:\Users\strap\AppData\Local\Temp\ccebyBxd.s 			page 29


 110:lvgl\src\lv_misc/lv_anim.c **** 
 712              		.loc 1 110 0
 713 0040 4822     		movs	r2, #72
 714 0042 2946     		mov	r1, r5
 715 0044 2046     		mov	r0, r4
 716 0046 FFF7FEFF 		bl	_lv_memcpy
 717              	.LVL84:
 113:lvgl\src\lv_misc/lv_anim.c ****         if(new_anim->exec_cb && new_anim->var) new_anim->exec_cb(new_anim->var, new_anim->start);
 718              		.loc 1 113 0
 719 004a 94F83A30 		ldrb	r3, [r4, #58]	@ zero_extendqisi2
 720 004e 13F0010F 		tst	r3, #1
 721 0052 06D0     		beq	.L62
 114:lvgl\src\lv_misc/lv_anim.c ****     }
 722              		.loc 1 114 0
 723 0054 6368     		ldr	r3, [r4, #4]
 724 0056 23B1     		cbz	r3, .L62
 114:lvgl\src\lv_misc/lv_anim.c ****     }
 725              		.loc 1 114 0 is_stmt 0 discriminator 1
 726 0058 2068     		ldr	r0, [r4]
 727 005a 10B1     		cbz	r0, .L62
 114:lvgl\src\lv_misc/lv_anim.c ****     }
 728              		.loc 1 114 0 discriminator 2
 729 005c B4F91810 		ldrsh	r1, [r4, #24]
 730 0060 9847     		blx	r3
 731              	.LVL85:
 732              	.L62:
 119:lvgl\src\lv_misc/lv_anim.c **** 
 733              		.loc 1 119 0 is_stmt 1
 734 0062 FFF7FEFF 		bl	anim_mark_list_change
 735              	.LVL86:
 736              	.L56:
 737 0066 38BD     		pop	{r3, r4, r5, pc}
 738              	.LVL87:
 739              	.L65:
 740              		.align	2
 741              	.L64:
 742 0068 00000000 		.word	_lv_anim_ll
 743 006c 00000000 		.word	.LANCHOR0
 744 0070 00000000 		.word	.LC0
 745              		.cfi_endproc
 746              	.LFE39:
 747              		.size	lv_anim_start, .-lv_anim_start
 748              		.section	.text.lv_anim_get,"ax",%progbits
 749              		.align	2
 750              		.global	lv_anim_get
 751              		.thumb
 752              		.thumb_func
 753              		.type	lv_anim_get, %function
 754              	lv_anim_get:
 755              	.LFB41:
 163:lvgl\src\lv_misc/lv_anim.c ****     lv_anim_t * a;
 756              		.loc 1 163 0
 757              		.cfi_startproc
 758              		@ args = 0, pretend = 0, frame = 0
 759              		@ frame_needed = 0, uses_anonymous_args = 0
 760              	.LVL88:
 761 0000 38B5     		push	{r3, r4, r5, lr}
ARM GAS  C:\Users\strap\AppData\Local\Temp\ccebyBxd.s 			page 30


 762              		.cfi_def_cfa_offset 16
 763              		.cfi_offset 3, -16
 764              		.cfi_offset 4, -12
 765              		.cfi_offset 5, -8
 766              		.cfi_offset 14, -4
 767 0002 0446     		mov	r4, r0
 768 0004 0D46     		mov	r5, r1
 165:lvgl\src\lv_misc/lv_anim.c ****         if(a->var == var && a->exec_cb == exec_cb) {
 769              		.loc 1 165 0
 770 0006 0848     		ldr	r0, .L73
 771              	.LVL89:
 772 0008 FFF7FEFF 		bl	_lv_ll_get_head
 773              	.LVL90:
 774 000c 09E0     		b	.L67
 775              	.L70:
 166:lvgl\src\lv_misc/lv_anim.c ****             return a;
 776              		.loc 1 166 0
 777 000e 0368     		ldr	r3, [r0]
 778 0010 A342     		cmp	r3, r4
 779 0012 02D1     		bne	.L68
 166:lvgl\src\lv_misc/lv_anim.c ****             return a;
 780              		.loc 1 166 0 is_stmt 0 discriminator 1
 781 0014 4368     		ldr	r3, [r0, #4]
 782 0016 AB42     		cmp	r3, r5
 783 0018 05D0     		beq	.L69
 784              	.L68:
 165:lvgl\src\lv_misc/lv_anim.c ****         if(a->var == var && a->exec_cb == exec_cb) {
 785              		.loc 1 165 0 is_stmt 1 discriminator 2
 786 001a 0146     		mov	r1, r0
 787 001c 0248     		ldr	r0, .L73
 788              	.LVL91:
 789 001e FFF7FEFF 		bl	_lv_ll_get_next
 790              	.LVL92:
 791              	.L67:
 165:lvgl\src\lv_misc/lv_anim.c ****         if(a->var == var && a->exec_cb == exec_cb) {
 792              		.loc 1 165 0 is_stmt 0 discriminator 1
 793 0022 0028     		cmp	r0, #0
 794 0024 F3D1     		bne	.L70
 795              	.L69:
 172:lvgl\src\lv_misc/lv_anim.c **** 
 796              		.loc 1 172 0 is_stmt 1
 797 0026 38BD     		pop	{r3, r4, r5, pc}
 798              	.LVL93:
 799              	.L74:
 800              		.align	2
 801              	.L73:
 802 0028 00000000 		.word	_lv_anim_ll
 803              		.cfi_endproc
 804              	.LFE41:
 805              		.size	lv_anim_get, .-lv_anim_get
 806              		.section	.text.lv_anim_count_running,"ax",%progbits
 807              		.align	2
 808              		.global	lv_anim_count_running
 809              		.thumb
 810              		.thumb_func
 811              		.type	lv_anim_count_running, %function
 812              	lv_anim_count_running:
ARM GAS  C:\Users\strap\AppData\Local\Temp\ccebyBxd.s 			page 31


 813              	.LFB42:
 179:lvgl\src\lv_misc/lv_anim.c ****     uint16_t cnt = 0;
 814              		.loc 1 179 0
 815              		.cfi_startproc
 816              		@ args = 0, pretend = 0, frame = 0
 817              		@ frame_needed = 0, uses_anonymous_args = 0
 818 0000 10B5     		push	{r4, lr}
 819              		.cfi_def_cfa_offset 8
 820              		.cfi_offset 4, -8
 821              		.cfi_offset 14, -4
 822              	.LVL94:
 182:lvgl\src\lv_misc/lv_anim.c **** 
 823              		.loc 1 182 0
 824 0002 0748     		ldr	r0, .L79
 825 0004 FFF7FEFF 		bl	_lv_ll_get_head
 826              	.LVL95:
 180:lvgl\src\lv_misc/lv_anim.c ****     lv_anim_t * a;
 827              		.loc 1 180 0
 828 0008 0024     		movs	r4, #0
 182:lvgl\src\lv_misc/lv_anim.c **** 
 829              		.loc 1 182 0
 830 000a 05E0     		b	.L76
 831              	.LVL96:
 832              	.L77:
 182:lvgl\src\lv_misc/lv_anim.c **** 
 833              		.loc 1 182 0 is_stmt 0 discriminator 3
 834 000c 0134     		adds	r4, r4, #1
 835              	.LVL97:
 836 000e A4B2     		uxth	r4, r4
 837              	.LVL98:
 838 0010 0146     		mov	r1, r0
 839 0012 0348     		ldr	r0, .L79
 840              	.LVL99:
 841 0014 FFF7FEFF 		bl	_lv_ll_get_next
 842              	.LVL100:
 843              	.L76:
 182:lvgl\src\lv_misc/lv_anim.c **** 
 844              		.loc 1 182 0 discriminator 1
 845 0018 0028     		cmp	r0, #0
 846 001a F7D1     		bne	.L77
 185:lvgl\src\lv_misc/lv_anim.c **** 
 847              		.loc 1 185 0 is_stmt 1
 848 001c 2046     		mov	r0, r4
 849              	.LVL101:
 850 001e 10BD     		pop	{r4, pc}
 851              	.LVL102:
 852              	.L80:
 853              		.align	2
 854              	.L79:
 855 0020 00000000 		.word	_lv_anim_ll
 856              		.cfi_endproc
 857              	.LFE42:
 858              		.size	lv_anim_count_running, .-lv_anim_count_running
 859              		.section	.text.lv_anim_speed_to_time,"ax",%progbits
 860              		.align	2
 861              		.global	lv_anim_speed_to_time
 862              		.thumb
ARM GAS  C:\Users\strap\AppData\Local\Temp\ccebyBxd.s 			page 32


 863              		.thumb_func
 864              		.type	lv_anim_speed_to_time, %function
 865              	lv_anim_speed_to_time:
 866              	.LFB43:
 195:lvgl\src\lv_misc/lv_anim.c ****     int32_t d     = LV_MATH_ABS((int32_t)start - end);
 867              		.loc 1 195 0
 868              		.cfi_startproc
 869              		@ args = 0, pretend = 0, frame = 0
 870              		@ frame_needed = 0, uses_anonymous_args = 0
 871              		@ link register save eliminated.
 872              	.LVL103:
 196:lvgl\src\lv_misc/lv_anim.c ****     uint32_t time = (int32_t)((int32_t)(d * 1000) / speed);
 873              		.loc 1 196 0
 874 0000 8A1A     		subs	r2, r1, r2
 875              	.LVL104:
 876 0002 002A     		cmp	r2, #0
 877 0004 B8BF     		it	lt
 878 0006 5242     		rsblt	r2, r2, #0
 879              	.LVL105:
 197:lvgl\src\lv_misc/lv_anim.c **** 
 880              		.loc 1 197 0
 881 0008 4FF47A73 		mov	r3, #1000
 882 000c 03FB02F2 		mul	r2, r3, r2
 883              	.LVL106:
 884 0010 92FBF0F0 		sdiv	r0, r2, r0
 885              	.LVL107:
 199:lvgl\src\lv_misc/lv_anim.c **** 
 886              		.loc 1 199 0
 887 0014 B0F5803F 		cmp	r0, #65536
 888 0018 01D3     		bcc	.L82
 889 001a 4FF6FF70 		movw	r0, #65535
 890              	.LVL108:
 891              	.L82:
 201:lvgl\src\lv_misc/lv_anim.c ****         time++;
 892              		.loc 1 201 0
 893 001e 00B9     		cbnz	r0, .L83
 202:lvgl\src\lv_misc/lv_anim.c ****     }
 894              		.loc 1 202 0
 895 0020 0130     		adds	r0, r0, #1
 896              	.LVL109:
 897              	.L83:
 206:lvgl\src\lv_misc/lv_anim.c **** 
 898              		.loc 1 206 0
 899 0022 80B2     		uxth	r0, r0
 900              	.LVL110:
 901 0024 7047     		bx	lr
 902              		.cfi_endproc
 903              	.LFE43:
 904              		.size	lv_anim_speed_to_time, .-lv_anim_speed_to_time
 905 0026 00BF     		.section	.text.lv_anim_refr_now,"ax",%progbits
 906              		.align	2
 907              		.global	lv_anim_refr_now
 908              		.thumb
 909              		.thumb_func
 910              		.type	lv_anim_refr_now, %function
 911              	lv_anim_refr_now:
 912              	.LFB44:
ARM GAS  C:\Users\strap\AppData\Local\Temp\ccebyBxd.s 			page 33


 215:lvgl\src\lv_misc/lv_anim.c ****     anim_task(NULL);
 913              		.loc 1 215 0
 914              		.cfi_startproc
 915              		@ args = 0, pretend = 0, frame = 0
 916              		@ frame_needed = 0, uses_anonymous_args = 0
 917 0000 08B5     		push	{r3, lr}
 918              		.cfi_def_cfa_offset 8
 919              		.cfi_offset 3, -8
 920              		.cfi_offset 14, -4
 216:lvgl\src\lv_misc/lv_anim.c **** }
 921              		.loc 1 216 0
 922 0002 0020     		movs	r0, #0
 923 0004 FFF7FEFF 		bl	anim_task
 924              	.LVL111:
 925 0008 08BD     		pop	{r3, pc}
 926              		.cfi_endproc
 927              	.LFE44:
 928              		.size	lv_anim_refr_now, .-lv_anim_refr_now
 929 000a 00BF     		.section	.text.lv_anim_path_ease_in,"ax",%progbits
 930              		.align	2
 931              		.global	lv_anim_path_ease_in
 932              		.thumb
 933              		.thumb_func
 934              		.type	lv_anim_path_ease_in, %function
 935              	lv_anim_path_ease_in:
 936              	.LFB46:
 253:lvgl\src\lv_misc/lv_anim.c ****     LV_UNUSED(path);
 937              		.loc 1 253 0
 938              		.cfi_startproc
 939              		@ args = 0, pretend = 0, frame = 0
 940              		@ frame_needed = 0, uses_anonymous_args = 0
 941              	.LVL112:
 942 0000 10B5     		push	{r4, lr}
 943              		.cfi_def_cfa_offset 8
 944              		.cfi_offset 4, -8
 945              		.cfi_offset 14, -4
 946 0002 82B0     		sub	sp, sp, #8
 947              		.cfi_def_cfa_offset 16
 948 0004 0C46     		mov	r4, r1
 258:lvgl\src\lv_misc/lv_anim.c ****         t = 1024;
 949              		.loc 1 258 0
 950 0006 486A     		ldr	r0, [r1, #36]
 951              	.LVL113:
 952 0008 8B6A     		ldr	r3, [r1, #40]
 953 000a 9842     		cmp	r0, r3
 954 000c 03D0     		beq	.L89
 261:lvgl\src\lv_misc/lv_anim.c **** 
 955              		.loc 1 261 0
 956 000e 9B02     		lsls	r3, r3, #10
 957 0010 B3FBF0F0 		udiv	r0, r3, r0
 958              	.LVL114:
 959 0014 01E0     		b	.L88
 960              	.LVL115:
 961              	.L89:
 259:lvgl\src\lv_misc/lv_anim.c ****     else
 962              		.loc 1 259 0
 963 0016 4FF48060 		mov	r0, #1024
ARM GAS  C:\Users\strap\AppData\Local\Temp\ccebyBxd.s 			page 34


 964              	.L88:
 965              	.LVL116:
 263:lvgl\src\lv_misc/lv_anim.c **** 
 966              		.loc 1 263 0
 967 001a 4FF48063 		mov	r3, #1024
 968 001e 0093     		str	r3, [sp]
 969 0020 0123     		movs	r3, #1
 970 0022 1A46     		mov	r2, r3
 971 0024 0021     		movs	r1, #0
 972              	.LVL117:
 973 0026 FFF7FEFF 		bl	_lv_bezier3
 974              	.LVL118:
 266:lvgl\src\lv_misc/lv_anim.c ****     new_value = new_value >> 10;
 975              		.loc 1 266 0
 976 002a 236A     		ldr	r3, [r4, #32]
 977 002c A269     		ldr	r2, [r4, #24]
 978 002e 9B1A     		subs	r3, r3, r2
 979 0030 03FB00F0 		mul	r0, r3, r0
 980              	.LVL119:
 268:lvgl\src\lv_misc/lv_anim.c **** 
 981              		.loc 1 268 0
 982 0034 02EBA020 		add	r0, r2, r0, asr #10
 983              	.LVL120:
 271:lvgl\src\lv_misc/lv_anim.c **** 
 984              		.loc 1 271 0
 985 0038 00B2     		sxth	r0, r0
 986              	.LVL121:
 987 003a 02B0     		add	sp, sp, #8
 988              		.cfi_def_cfa_offset 8
 989              		@ sp needed
 990 003c 10BD     		pop	{r4, pc}
 991              		.cfi_endproc
 992              	.LFE46:
 993              		.size	lv_anim_path_ease_in, .-lv_anim_path_ease_in
 994 003e 00BF     		.section	.text.lv_anim_path_ease_out,"ax",%progbits
 995              		.align	2
 996              		.global	lv_anim_path_ease_out
 997              		.thumb
 998              		.thumb_func
 999              		.type	lv_anim_path_ease_out, %function
 1000              	lv_anim_path_ease_out:
 1001              	.LFB47:
 279:lvgl\src\lv_misc/lv_anim.c ****     LV_UNUSED(path);
 1002              		.loc 1 279 0
 1003              		.cfi_startproc
 1004              		@ args = 0, pretend = 0, frame = 0
 1005              		@ frame_needed = 0, uses_anonymous_args = 0
 1006              	.LVL122:
 1007 0000 10B5     		push	{r4, lr}
 1008              		.cfi_def_cfa_offset 8
 1009              		.cfi_offset 4, -8
 1010              		.cfi_offset 14, -4
 1011 0002 82B0     		sub	sp, sp, #8
 1012              		.cfi_def_cfa_offset 16
 1013 0004 0C46     		mov	r4, r1
 285:lvgl\src\lv_misc/lv_anim.c ****         t = 1024;
 1014              		.loc 1 285 0
ARM GAS  C:\Users\strap\AppData\Local\Temp\ccebyBxd.s 			page 35


 1015 0006 486A     		ldr	r0, [r1, #36]
 1016              	.LVL123:
 1017 0008 8B6A     		ldr	r3, [r1, #40]
 1018 000a 9842     		cmp	r0, r3
 1019 000c 03D0     		beq	.L93
 288:lvgl\src\lv_misc/lv_anim.c **** 
 1020              		.loc 1 288 0
 1021 000e 9B02     		lsls	r3, r3, #10
 1022 0010 B3FBF0F0 		udiv	r0, r3, r0
 1023              	.LVL124:
 1024 0014 01E0     		b	.L92
 1025              	.LVL125:
 1026              	.L93:
 286:lvgl\src\lv_misc/lv_anim.c ****     else
 1027              		.loc 1 286 0
 1028 0016 4FF48060 		mov	r0, #1024
 1029              	.L92:
 1030              	.LVL126:
 290:lvgl\src\lv_misc/lv_anim.c **** 
 1031              		.loc 1 290 0
 1032 001a 4FF48063 		mov	r3, #1024
 1033 001e 0093     		str	r3, [sp]
 1034 0020 40F2FF33 		movw	r3, #1023
 1035 0024 1A46     		mov	r2, r3
 1036 0026 0021     		movs	r1, #0
 1037              	.LVL127:
 1038 0028 FFF7FEFF 		bl	_lv_bezier3
 1039              	.LVL128:
 293:lvgl\src\lv_misc/lv_anim.c ****     new_value = new_value >> 10;
 1040              		.loc 1 293 0
 1041 002c 236A     		ldr	r3, [r4, #32]
 1042 002e A269     		ldr	r2, [r4, #24]
 1043 0030 9B1A     		subs	r3, r3, r2
 1044 0032 03FB00F0 		mul	r0, r3, r0
 1045              	.LVL129:
 295:lvgl\src\lv_misc/lv_anim.c **** 
 1046              		.loc 1 295 0
 1047 0036 02EBA020 		add	r0, r2, r0, asr #10
 1048              	.LVL130:
 298:lvgl\src\lv_misc/lv_anim.c **** 
 1049              		.loc 1 298 0
 1050 003a 00B2     		sxth	r0, r0
 1051              	.LVL131:
 1052 003c 02B0     		add	sp, sp, #8
 1053              		.cfi_def_cfa_offset 8
 1054              		@ sp needed
 1055 003e 10BD     		pop	{r4, pc}
 1056              		.cfi_endproc
 1057              	.LFE47:
 1058              		.size	lv_anim_path_ease_out, .-lv_anim_path_ease_out
 1059              		.section	.text.lv_anim_path_ease_in_out,"ax",%progbits
 1060              		.align	2
 1061              		.global	lv_anim_path_ease_in_out
 1062              		.thumb
 1063              		.thumb_func
 1064              		.type	lv_anim_path_ease_in_out, %function
 1065              	lv_anim_path_ease_in_out:
ARM GAS  C:\Users\strap\AppData\Local\Temp\ccebyBxd.s 			page 36


 1066              	.LFB48:
 306:lvgl\src\lv_misc/lv_anim.c ****     LV_UNUSED(path);
 1067              		.loc 1 306 0
 1068              		.cfi_startproc
 1069              		@ args = 0, pretend = 0, frame = 0
 1070              		@ frame_needed = 0, uses_anonymous_args = 0
 1071              	.LVL132:
 1072 0000 10B5     		push	{r4, lr}
 1073              		.cfi_def_cfa_offset 8
 1074              		.cfi_offset 4, -8
 1075              		.cfi_offset 14, -4
 1076 0002 82B0     		sub	sp, sp, #8
 1077              		.cfi_def_cfa_offset 16
 1078 0004 0C46     		mov	r4, r1
 312:lvgl\src\lv_misc/lv_anim.c ****         t = 1024;
 1079              		.loc 1 312 0
 1080 0006 486A     		ldr	r0, [r1, #36]
 1081              	.LVL133:
 1082 0008 8B6A     		ldr	r3, [r1, #40]
 1083 000a 9842     		cmp	r0, r3
 1084 000c 03D0     		beq	.L97
 315:lvgl\src\lv_misc/lv_anim.c **** 
 1085              		.loc 1 315 0
 1086 000e 9B02     		lsls	r3, r3, #10
 1087 0010 B3FBF0F0 		udiv	r0, r3, r0
 1088              	.LVL134:
 1089 0014 01E0     		b	.L96
 1090              	.LVL135:
 1091              	.L97:
 313:lvgl\src\lv_misc/lv_anim.c ****     else
 1092              		.loc 1 313 0
 1093 0016 4FF48060 		mov	r0, #1024
 1094              	.L96:
 1095              	.LVL136:
 317:lvgl\src\lv_misc/lv_anim.c **** 
 1096              		.loc 1 317 0
 1097 001a 4FF48063 		mov	r3, #1024
 1098 001e 0093     		str	r3, [sp]
 1099 0020 4FF46773 		mov	r3, #924
 1100 0024 6422     		movs	r2, #100
 1101 0026 0021     		movs	r1, #0
 1102              	.LVL137:
 1103 0028 FFF7FEFF 		bl	_lv_bezier3
 1104              	.LVL138:
 320:lvgl\src\lv_misc/lv_anim.c ****     new_value = new_value >> 10;
 1105              		.loc 1 320 0
 1106 002c 236A     		ldr	r3, [r4, #32]
 1107 002e A269     		ldr	r2, [r4, #24]
 1108 0030 9B1A     		subs	r3, r3, r2
 1109 0032 03FB00F0 		mul	r0, r3, r0
 1110              	.LVL139:
 322:lvgl\src\lv_misc/lv_anim.c **** 
 1111              		.loc 1 322 0
 1112 0036 02EBA020 		add	r0, r2, r0, asr #10
 1113              	.LVL140:
 325:lvgl\src\lv_misc/lv_anim.c **** 
 1114              		.loc 1 325 0
ARM GAS  C:\Users\strap\AppData\Local\Temp\ccebyBxd.s 			page 37


 1115 003a 00B2     		sxth	r0, r0
 1116              	.LVL141:
 1117 003c 02B0     		add	sp, sp, #8
 1118              		.cfi_def_cfa_offset 8
 1119              		@ sp needed
 1120 003e 10BD     		pop	{r4, pc}
 1121              		.cfi_endproc
 1122              	.LFE48:
 1123              		.size	lv_anim_path_ease_in_out, .-lv_anim_path_ease_in_out
 1124              		.section	.text.lv_anim_path_overshoot,"ax",%progbits
 1125              		.align	2
 1126              		.global	lv_anim_path_overshoot
 1127              		.thumb
 1128              		.thumb_func
 1129              		.type	lv_anim_path_overshoot, %function
 1130              	lv_anim_path_overshoot:
 1131              	.LFB49:
 333:lvgl\src\lv_misc/lv_anim.c ****     LV_UNUSED(path);
 1132              		.loc 1 333 0
 1133              		.cfi_startproc
 1134              		@ args = 0, pretend = 0, frame = 0
 1135              		@ frame_needed = 0, uses_anonymous_args = 0
 1136              	.LVL142:
 1137 0000 10B5     		push	{r4, lr}
 1138              		.cfi_def_cfa_offset 8
 1139              		.cfi_offset 4, -8
 1140              		.cfi_offset 14, -4
 1141 0002 82B0     		sub	sp, sp, #8
 1142              		.cfi_def_cfa_offset 16
 1143 0004 0C46     		mov	r4, r1
 339:lvgl\src\lv_misc/lv_anim.c ****         t = 1024;
 1144              		.loc 1 339 0
 1145 0006 486A     		ldr	r0, [r1, #36]
 1146              	.LVL143:
 1147 0008 8B6A     		ldr	r3, [r1, #40]
 1148 000a 9842     		cmp	r0, r3
 1149 000c 03D0     		beq	.L101
 342:lvgl\src\lv_misc/lv_anim.c **** 
 1150              		.loc 1 342 0
 1151 000e 9B02     		lsls	r3, r3, #10
 1152 0010 B3FBF0F0 		udiv	r0, r3, r0
 1153              	.LVL144:
 1154 0014 01E0     		b	.L100
 1155              	.LVL145:
 1156              	.L101:
 340:lvgl\src\lv_misc/lv_anim.c ****     else
 1157              		.loc 1 340 0
 1158 0016 4FF48060 		mov	r0, #1024
 1159              	.L100:
 1160              	.LVL146:
 344:lvgl\src\lv_misc/lv_anim.c **** 
 1161              		.loc 1 344 0
 1162 001a 4FF48063 		mov	r3, #1024
 1163 001e 0093     		str	r3, [sp]
 1164 0020 4FF4FA63 		mov	r3, #2000
 1165 0024 4FF47A72 		mov	r2, #1000
 1166 0028 0021     		movs	r1, #0
ARM GAS  C:\Users\strap\AppData\Local\Temp\ccebyBxd.s 			page 38


 1167              	.LVL147:
 1168 002a FFF7FEFF 		bl	_lv_bezier3
 1169              	.LVL148:
 347:lvgl\src\lv_misc/lv_anim.c ****     new_value = new_value >> 10;
 1170              		.loc 1 347 0
 1171 002e 236A     		ldr	r3, [r4, #32]
 1172 0030 A269     		ldr	r2, [r4, #24]
 1173 0032 9B1A     		subs	r3, r3, r2
 1174 0034 03FB00F0 		mul	r0, r3, r0
 1175              	.LVL149:
 349:lvgl\src\lv_misc/lv_anim.c **** 
 1176              		.loc 1 349 0
 1177 0038 02EBA020 		add	r0, r2, r0, asr #10
 1178              	.LVL150:
 352:lvgl\src\lv_misc/lv_anim.c **** 
 1179              		.loc 1 352 0
 1180 003c 00B2     		sxth	r0, r0
 1181              	.LVL151:
 1182 003e 02B0     		add	sp, sp, #8
 1183              		.cfi_def_cfa_offset 8
 1184              		@ sp needed
 1185 0040 10BD     		pop	{r4, pc}
 1186              		.cfi_endproc
 1187              	.LFE49:
 1188              		.size	lv_anim_path_overshoot, .-lv_anim_path_overshoot
 1189 0042 00BF     		.section	.text.lv_anim_path_bounce,"ax",%progbits
 1190              		.align	2
 1191              		.global	lv_anim_path_bounce
 1192              		.thumb
 1193              		.thumb_func
 1194              		.type	lv_anim_path_bounce, %function
 1195              	lv_anim_path_bounce:
 1196              	.LFB50:
 361:lvgl\src\lv_misc/lv_anim.c ****     LV_UNUSED(path);
 1197              		.loc 1 361 0
 1198              		.cfi_startproc
 1199              		@ args = 0, pretend = 0, frame = 0
 1200              		@ frame_needed = 0, uses_anonymous_args = 0
 1201              	.LVL152:
 1202 0000 30B5     		push	{r4, r5, lr}
 1203              		.cfi_def_cfa_offset 12
 1204              		.cfi_offset 4, -12
 1205              		.cfi_offset 5, -8
 1206              		.cfi_offset 14, -4
 1207 0002 83B0     		sub	sp, sp, #12
 1208              		.cfi_def_cfa_offset 24
 1209 0004 0D46     		mov	r5, r1
 366:lvgl\src\lv_misc/lv_anim.c ****         t = 1024;
 1210              		.loc 1 366 0
 1211 0006 486A     		ldr	r0, [r1, #36]
 1212              	.LVL153:
 1213 0008 8B6A     		ldr	r3, [r1, #40]
 1214 000a 9842     		cmp	r0, r3
 1215 000c 03D0     		beq	.L113
 369:lvgl\src\lv_misc/lv_anim.c **** 
 1216              		.loc 1 369 0
 1217 000e 9B02     		lsls	r3, r3, #10
ARM GAS  C:\Users\strap\AppData\Local\Temp\ccebyBxd.s 			page 39


 1218 0010 B3FBF0F0 		udiv	r0, r3, r0
 1219              	.LVL154:
 1220 0014 01E0     		b	.L104
 1221              	.LVL155:
 1222              	.L113:
 367:lvgl\src\lv_misc/lv_anim.c ****     else
 1223              		.loc 1 367 0
 1224 0016 4FF48060 		mov	r0, #1024
 1225              	.L104:
 1226              	.LVL156:
 371:lvgl\src\lv_misc/lv_anim.c **** 
 1227              		.loc 1 371 0
 1228 001a 2C6A     		ldr	r4, [r5, #32]
 1229 001c AB69     		ldr	r3, [r5, #24]
 1230 001e E41A     		subs	r4, r4, r3
 1231              	.LVL157:
 375:lvgl\src\lv_misc/lv_anim.c ****         /*Go down*/
 1232              		.loc 1 375 0
 1233 0020 B0F5CC7F 		cmp	r0, #408
 1234 0024 05D2     		bcs	.L105
 377:lvgl\src\lv_misc/lv_anim.c ****     }
 1235              		.loc 1 377 0
 1236 0026 40F6C413 		movw	r3, #2500
 1237 002a 03FB00F0 		mul	r0, r3, r0
 1238              	.LVL158:
 1239 002e 800A     		lsrs	r0, r0, #10
 1240              	.LVL159:
 1241 0030 36E0     		b	.L106
 1242              	.L105:
 379:lvgl\src\lv_misc/lv_anim.c ****         /*First bounce back*/
 1243              		.loc 1 379 0
 1244 0032 A0F5CC73 		sub	r3, r0, #408
 1245 0036 CD2B     		cmp	r3, #205
 1246 0038 09D8     		bhi	.L107
 1247              	.LVL160:
 382:lvgl\src\lv_misc/lv_anim.c ****         t    = 1024 - t;
 1248              		.loc 1 382 0
 1249 003a 03EB8303 		add	r3, r3, r3, lsl #2
 1250              	.LVL161:
 383:lvgl\src\lv_misc/lv_anim.c ****         diff = diff / 6;
 1251              		.loc 1 383 0
 1252 003e C3F58060 		rsb	r0, r3, #1024
 1253              	.LVL162:
 384:lvgl\src\lv_misc/lv_anim.c ****     }
 1254              		.loc 1 384 0
 1255 0042 224B     		ldr	r3, .L116
 1256 0044 83FB0423 		smull	r2, r3, r3, r4
 1257 0048 A3EBE474 		sub	r4, r3, r4, asr #31
 1258              	.LVL163:
 1259 004c 28E0     		b	.L106
 1260              	.L107:
 386:lvgl\src\lv_misc/lv_anim.c ****         /*Fall back*/
 1261              		.loc 1 386 0
 1262 004e A0F26623 		subw	r3, r0, #614
 1263 0052 CC2B     		cmp	r3, #204
 1264 0054 07D8     		bhi	.L108
 1265              	.LVL164:
ARM GAS  C:\Users\strap\AppData\Local\Temp\ccebyBxd.s 			page 40


 389:lvgl\src\lv_misc/lv_anim.c ****         diff = diff / 6;
 1266              		.loc 1 389 0
 1267 0056 03EB8300 		add	r0, r3, r3, lsl #2
 1268              	.LVL165:
 390:lvgl\src\lv_misc/lv_anim.c ****     }
 1269              		.loc 1 390 0
 1270 005a 1C4B     		ldr	r3, .L116
 1271 005c 83FB0423 		smull	r2, r3, r3, r4
 1272 0060 A3EBE474 		sub	r4, r3, r4, asr #31
 1273              	.LVL166:
 1274 0064 1CE0     		b	.L106
 1275              	.L108:
 392:lvgl\src\lv_misc/lv_anim.c ****         /*Second bounce back*/
 1276              		.loc 1 392 0
 1277 0066 A0F23333 		subw	r3, r0, #819
 1278 006a 652B     		cmp	r3, #101
 1279 006c 0BD8     		bhi	.L109
 1280              	.LVL167:
 395:lvgl\src\lv_misc/lv_anim.c ****         t    = 1024 - t;
 1281              		.loc 1 395 0
 1282 006e 03EB8303 		add	r3, r3, r3, lsl #2
 1283              	.LVL168:
 1284 0072 5800     		lsls	r0, r3, #1
 1285              	.LVL169:
 396:lvgl\src\lv_misc/lv_anim.c ****         diff = diff / 16;
 1286              		.loc 1 396 0
 1287 0074 C0F58060 		rsb	r0, r0, #1024
 1288              	.LVL170:
 397:lvgl\src\lv_misc/lv_anim.c ****     }
 1289              		.loc 1 397 0
 1290 0078 2346     		mov	r3, r4
 1291 007a 002C     		cmp	r4, #0
 1292 007c 01DA     		bge	.L110
 1293              	.LVL171:
 1294 007e 04F10F03 		add	r3, r4, #15
 1295              	.LVL172:
 1296              	.L110:
 1297 0082 1C11     		asrs	r4, r3, #4
 1298              	.LVL173:
 1299 0084 0CE0     		b	.L106
 1300              	.L109:
 399:lvgl\src\lv_misc/lv_anim.c ****         /*Fall back*/
 1301              		.loc 1 399 0
 1302 0086 A0F29933 		subw	r3, r0, #921
 1303 008a 672B     		cmp	r3, #103
 1304 008c 08D8     		bhi	.L106
 1305              	.LVL174:
 402:lvgl\src\lv_misc/lv_anim.c ****         diff = diff / 16;
 1306              		.loc 1 402 0
 1307 008e 03EB8303 		add	r3, r3, r3, lsl #2
 1308              	.LVL175:
 1309 0092 5800     		lsls	r0, r3, #1
 1310              	.LVL176:
 403:lvgl\src\lv_misc/lv_anim.c ****     }
 1311              		.loc 1 403 0
 1312 0094 2346     		mov	r3, r4
 1313 0096 002C     		cmp	r4, #0
ARM GAS  C:\Users\strap\AppData\Local\Temp\ccebyBxd.s 			page 41


 1314 0098 01DA     		bge	.L111
 1315              	.LVL177:
 1316 009a 04F10F03 		add	r3, r4, #15
 1317              	.LVL178:
 1318              	.L111:
 1319 009e 1C11     		asrs	r4, r3, #4
 1320              	.LVL179:
 1321              	.L106:
 406:lvgl\src\lv_misc/lv_anim.c **** 
 1322              		.loc 1 406 0
 1323 00a0 B0F5806F 		cmp	r0, #1024
 1324 00a4 01D9     		bls	.L112
 1325 00a6 4FF48060 		mov	r0, #1024
 1326              	.LVL180:
 1327              	.L112:
 408:lvgl\src\lv_misc/lv_anim.c **** 
 1328              		.loc 1 408 0
 1329 00aa 0023     		movs	r3, #0
 1330 00ac 0093     		str	r3, [sp]
 1331 00ae 4FF44873 		mov	r3, #800
 1332 00b2 4FF48062 		mov	r2, #1024
 1333 00b6 1146     		mov	r1, r2
 1334              	.LVL181:
 1335 00b8 FFF7FEFF 		bl	_lv_bezier3
 1336              	.LVL182:
 411:lvgl\src\lv_misc/lv_anim.c ****     new_value = new_value >> 10;
 1337              		.loc 1 411 0
 1338 00bc 00FB04F0 		mul	r0, r0, r4
 1339              	.LVL183:
 413:lvgl\src\lv_misc/lv_anim.c **** 
 1340              		.loc 1 413 0
 1341 00c0 2B6A     		ldr	r3, [r5, #32]
 1342 00c2 A3EBA020 		sub	r0, r3, r0, asr #10
 1343              	.LVL184:
 416:lvgl\src\lv_misc/lv_anim.c **** 
 1344              		.loc 1 416 0
 1345 00c6 00B2     		sxth	r0, r0
 1346              	.LVL185:
 1347 00c8 03B0     		add	sp, sp, #12
 1348              		.cfi_def_cfa_offset 12
 1349              		@ sp needed
 1350 00ca 30BD     		pop	{r4, r5, pc}
 1351              	.LVL186:
 1352              	.L117:
 1353              		.align	2
 1354              	.L116:
 1355 00cc ABAAAA2A 		.word	715827883
 1356              		.cfi_endproc
 1357              	.LFE50:
 1358              		.size	lv_anim_path_bounce, .-lv_anim_path_bounce
 1359              		.section	.text.lv_anim_path_step,"ax",%progbits
 1360              		.align	2
 1361              		.global	lv_anim_path_step
 1362              		.thumb
 1363              		.thumb_func
 1364              		.type	lv_anim_path_step, %function
 1365              	lv_anim_path_step:
ARM GAS  C:\Users\strap\AppData\Local\Temp\ccebyBxd.s 			page 42


 1366              	.LFB51:
 425:lvgl\src\lv_misc/lv_anim.c ****     LV_UNUSED(path);
 1367              		.loc 1 425 0
 1368              		.cfi_startproc
 1369              		@ args = 0, pretend = 0, frame = 0
 1370              		@ frame_needed = 0, uses_anonymous_args = 0
 1371              		@ link register save eliminated.
 1372              	.LVL187:
 428:lvgl\src\lv_misc/lv_anim.c ****         return a->end;
 1373              		.loc 1 428 0
 1374 0000 8A6A     		ldr	r2, [r1, #40]
 1375 0002 4B6A     		ldr	r3, [r1, #36]
 1376 0004 9A42     		cmp	r2, r3
 1377 0006 02DB     		blt	.L119
 429:lvgl\src\lv_misc/lv_anim.c ****     else
 1378              		.loc 1 429 0
 1379 0008 B1F92000 		ldrsh	r0, [r1, #32]
 1380              	.LVL188:
 1381 000c 7047     		bx	lr
 1382              	.LVL189:
 1383              	.L119:
 431:lvgl\src\lv_misc/lv_anim.c **** }
 1384              		.loc 1 431 0
 1385 000e B1F91800 		ldrsh	r0, [r1, #24]
 1386              	.LVL190:
 432:lvgl\src\lv_misc/lv_anim.c **** 
 1387              		.loc 1 432 0
 1388 0012 7047     		bx	lr
 1389              		.cfi_endproc
 1390              	.LFE51:
 1391              		.size	lv_anim_path_step, .-lv_anim_path_step
 1392              		.global	lv_anim_path_def
 1393              		.section	.rodata
 1394              		.align	2
 1395              		.set	.LANCHOR1,. + 0
 1396              		.type	lv_anim_path_def, %object
 1397              		.size	lv_anim_path_def, 8
 1398              	lv_anim_path_def:
 1399 0000 00000000 		.word	lv_anim_path_linear
 1400 0004 00000000 		.space	4
 1401              		.section	.rodata.str1.4,"aMS",%progbits,1
 1402              		.align	2
 1403              	.LC0:
 1404 0000 4F757420 		.ascii	"Out of memory\000"
 1404      6F66206D 
 1404      656D6F72 
 1404      7900
 1405              		.bss
 1406              		.align	2
 1407              		.set	.LANCHOR0,. + 0
 1408              		.type	anim_list_changed, %object
 1409              		.size	anim_list_changed, 1
 1410              	anim_list_changed:
 1411 0000 00       		.space	1
 1412 0001 000000   		.space	3
 1413              		.type	_lv_anim_task, %object
 1414              		.size	_lv_anim_task, 4
ARM GAS  C:\Users\strap\AppData\Local\Temp\ccebyBxd.s 			page 43


 1415              	_lv_anim_task:
 1416 0004 00000000 		.space	4
 1417              		.type	last_task_run, %object
 1418              		.size	last_task_run, 4
 1419              	last_task_run:
 1420 0008 00000000 		.space	4
 1421              		.text
 1422              	.Letext0:
 1423              		.file 3 "c:\\program files (x86)\\cypress\\psoc creator\\4.4\\psoc creator\\import\\gnu\\arm\\5.4.
 1424              		.file 4 "c:\\program files (x86)\\cypress\\psoc creator\\4.4\\psoc creator\\import\\gnu\\arm\\5.4.
 1425              		.file 5 "lvgl\\src\\lv_misc\\../../../lv_conf.h"
 1426              		.file 6 "c:\\program files (x86)\\cypress\\psoc creator\\4.4\\psoc creator\\import\\gnu\\arm\\5.4.
 1427              		.file 7 "lvgl\\src\\lv_misc\\lv_anim.h"
 1428              		.file 8 "lvgl\\src\\lv_misc\\lv_ll.h"
 1429              		.file 9 "lvgl\\src\\lv_misc\\lv_task.h"
 1430              		.file 10 "lvgl\\src\\lv_misc\\lv_gc.h"
 1431              		.file 11 "lvgl\\src\\lv_misc\\../lv_hal/lv_hal_tick.h"
 1432              		.file 12 "lvgl\\src\\lv_misc\\../lv_misc/lv_debug.h"
 1433              		.file 13 "lvgl\\src\\lv_misc\\lv_math.h"