ARM GAS  C:\Users\strap\AppData\Local\Temp\cc54kd2Z.s 			page 1


   1              		.syntax unified
   2              		.cpu cortex-m3
   3              		.fpu softvfp
   4              		.eabi_attribute 20, 1
   5              		.eabi_attribute 21, 1
   6              		.eabi_attribute 23, 3
   7              		.eabi_attribute 24, 1
   8              		.eabi_attribute 25, 1
   9              		.eabi_attribute 26, 1
  10              		.eabi_attribute 30, 1
  11              		.eabi_attribute 34, 1
  12              		.eabi_attribute 18, 4
  13              		.thumb
  14              		.syntax unified
  15              		.file	"lv_btn.c"
  16              		.text
  17              	.Ltext0:
  18              		.cfi_sections	.debug_frame
  19              		.section	.text.lv_btn_design,"ax",%progbits
  20              		.align	2
  21              		.thumb
  22              		.thumb_func
  23              		.type	lv_btn_design, %function
  24              	lv_btn_design:
  25              	.LFB345:
  26              		.file 1 "lvgl\\src\\lv_widgets\\lv_btn.c"
   1:lvgl\src\lv_widgets/lv_btn.c **** /**
   2:lvgl\src\lv_widgets/lv_btn.c ****  * @file lv_btn.c
   3:lvgl\src\lv_widgets/lv_btn.c ****  *
   4:lvgl\src\lv_widgets/lv_btn.c ****  */
   5:lvgl\src\lv_widgets/lv_btn.c **** 
   6:lvgl\src\lv_widgets/lv_btn.c **** /*********************
   7:lvgl\src\lv_widgets/lv_btn.c ****  *      INCLUDES
   8:lvgl\src\lv_widgets/lv_btn.c ****  *********************/
   9:lvgl\src\lv_widgets/lv_btn.c **** 
  10:lvgl\src\lv_widgets/lv_btn.c **** #include "lv_btn.h"
  11:lvgl\src\lv_widgets/lv_btn.c **** #if LV_USE_BTN != 0
  12:lvgl\src\lv_widgets/lv_btn.c **** 
  13:lvgl\src\lv_widgets/lv_btn.c **** #include <string.h>
  14:lvgl\src\lv_widgets/lv_btn.c **** #include "../lv_core/lv_group.h"
  15:lvgl\src\lv_widgets/lv_btn.c **** #include "../lv_misc/lv_debug.h"
  16:lvgl\src\lv_widgets/lv_btn.c **** #include "../lv_draw/lv_draw.h"
  17:lvgl\src\lv_widgets/lv_btn.c **** #include "../lv_themes/lv_theme.h"
  18:lvgl\src\lv_widgets/lv_btn.c **** #include "../lv_misc/lv_area.h"
  19:lvgl\src\lv_widgets/lv_btn.c **** #include "../lv_misc/lv_color.h"
  20:lvgl\src\lv_widgets/lv_btn.c **** #include "../lv_misc/lv_math.h"
  21:lvgl\src\lv_widgets/lv_btn.c **** 
  22:lvgl\src\lv_widgets/lv_btn.c **** /*********************
  23:lvgl\src\lv_widgets/lv_btn.c ****  *      DEFINES
  24:lvgl\src\lv_widgets/lv_btn.c ****  *********************/
  25:lvgl\src\lv_widgets/lv_btn.c **** #define LV_OBJX_NAME "lv_btn"
  26:lvgl\src\lv_widgets/lv_btn.c **** #define LV_BTN_INK_VALUE_MAX 256
  27:lvgl\src\lv_widgets/lv_btn.c **** #define LV_BTN_INK_VALUE_MAX_SHIFT 8
  28:lvgl\src\lv_widgets/lv_btn.c **** 
  29:lvgl\src\lv_widgets/lv_btn.c **** /**********************
  30:lvgl\src\lv_widgets/lv_btn.c ****  *      TYPEDEFS
  31:lvgl\src\lv_widgets/lv_btn.c ****  **********************/
ARM GAS  C:\Users\strap\AppData\Local\Temp\cc54kd2Z.s 			page 2


  32:lvgl\src\lv_widgets/lv_btn.c **** 
  33:lvgl\src\lv_widgets/lv_btn.c **** /**********************
  34:lvgl\src\lv_widgets/lv_btn.c ****  *  STATIC PROTOTYPES
  35:lvgl\src\lv_widgets/lv_btn.c ****  **********************/
  36:lvgl\src\lv_widgets/lv_btn.c **** static lv_design_res_t lv_btn_design(lv_obj_t * btn, const lv_area_t * clip_area, lv_design_mode_t 
  37:lvgl\src\lv_widgets/lv_btn.c **** static lv_res_t lv_btn_signal(lv_obj_t * btn, lv_signal_t sign, void * param);
  38:lvgl\src\lv_widgets/lv_btn.c **** 
  39:lvgl\src\lv_widgets/lv_btn.c **** /**********************
  40:lvgl\src\lv_widgets/lv_btn.c ****  *  STATIC VARIABLES
  41:lvgl\src\lv_widgets/lv_btn.c ****  **********************/
  42:lvgl\src\lv_widgets/lv_btn.c **** static lv_signal_cb_t ancestor_signal;
  43:lvgl\src\lv_widgets/lv_btn.c **** static lv_design_cb_t ancestor_design;
  44:lvgl\src\lv_widgets/lv_btn.c **** 
  45:lvgl\src\lv_widgets/lv_btn.c **** /**********************
  46:lvgl\src\lv_widgets/lv_btn.c ****  *      MACROS
  47:lvgl\src\lv_widgets/lv_btn.c ****  **********************/
  48:lvgl\src\lv_widgets/lv_btn.c **** 
  49:lvgl\src\lv_widgets/lv_btn.c **** /**********************
  50:lvgl\src\lv_widgets/lv_btn.c ****  *   GLOBAL FUNCTIONS
  51:lvgl\src\lv_widgets/lv_btn.c ****  **********************/
  52:lvgl\src\lv_widgets/lv_btn.c **** 
  53:lvgl\src\lv_widgets/lv_btn.c **** /**
  54:lvgl\src\lv_widgets/lv_btn.c ****  * Create a button object
  55:lvgl\src\lv_widgets/lv_btn.c ****  * @param par pointer to an object, it will be the parent of the new button
  56:lvgl\src\lv_widgets/lv_btn.c ****  * @param copy pointer to a button object, if not NULL then the new object will be copied from it
  57:lvgl\src\lv_widgets/lv_btn.c ****  * @return pointer to the created button
  58:lvgl\src\lv_widgets/lv_btn.c ****  */
  59:lvgl\src\lv_widgets/lv_btn.c **** lv_obj_t * lv_btn_create(lv_obj_t * par, const lv_obj_t * copy)
  60:lvgl\src\lv_widgets/lv_btn.c **** {
  61:lvgl\src\lv_widgets/lv_btn.c ****     LV_LOG_TRACE("button create started");
  62:lvgl\src\lv_widgets/lv_btn.c **** 
  63:lvgl\src\lv_widgets/lv_btn.c ****     lv_obj_t * btn;
  64:lvgl\src\lv_widgets/lv_btn.c **** 
  65:lvgl\src\lv_widgets/lv_btn.c ****     btn = lv_cont_create(par, copy);
  66:lvgl\src\lv_widgets/lv_btn.c ****     LV_ASSERT_MEM(btn);
  67:lvgl\src\lv_widgets/lv_btn.c ****     if(btn == NULL) return NULL;
  68:lvgl\src\lv_widgets/lv_btn.c **** 
  69:lvgl\src\lv_widgets/lv_btn.c ****     if(ancestor_signal == NULL) ancestor_signal = lv_obj_get_signal_cb(btn);
  70:lvgl\src\lv_widgets/lv_btn.c ****     if(ancestor_design == NULL) ancestor_design = lv_obj_get_design_cb(btn);
  71:lvgl\src\lv_widgets/lv_btn.c **** 
  72:lvgl\src\lv_widgets/lv_btn.c ****     /*Allocate the extended data*/
  73:lvgl\src\lv_widgets/lv_btn.c ****     lv_btn_ext_t * ext = lv_obj_allocate_ext_attr(btn, sizeof(lv_btn_ext_t));
  74:lvgl\src\lv_widgets/lv_btn.c ****     LV_ASSERT_MEM(ext);
  75:lvgl\src\lv_widgets/lv_btn.c ****     if(ext == NULL) {
  76:lvgl\src\lv_widgets/lv_btn.c ****         lv_obj_del(btn);
  77:lvgl\src\lv_widgets/lv_btn.c ****         return NULL;
  78:lvgl\src\lv_widgets/lv_btn.c ****     }
  79:lvgl\src\lv_widgets/lv_btn.c **** 
  80:lvgl\src\lv_widgets/lv_btn.c ****     ext->checkable = 0;
  81:lvgl\src\lv_widgets/lv_btn.c **** 
  82:lvgl\src\lv_widgets/lv_btn.c ****     lv_obj_set_signal_cb(btn, lv_btn_signal);
  83:lvgl\src\lv_widgets/lv_btn.c ****     lv_obj_set_design_cb(btn, lv_btn_design);
  84:lvgl\src\lv_widgets/lv_btn.c **** 
  85:lvgl\src\lv_widgets/lv_btn.c ****     /*If no copy do the basic initialization*/
  86:lvgl\src\lv_widgets/lv_btn.c ****     if(copy == NULL) {
  87:lvgl\src\lv_widgets/lv_btn.c ****         /*Set layout if the button is not a screen*/
  88:lvgl\src\lv_widgets/lv_btn.c ****         if(par) {
ARM GAS  C:\Users\strap\AppData\Local\Temp\cc54kd2Z.s 			page 3


  89:lvgl\src\lv_widgets/lv_btn.c ****             lv_obj_set_size(btn, LV_DPI, LV_DPI / 3);
  90:lvgl\src\lv_widgets/lv_btn.c ****             lv_btn_set_layout(btn, LV_LAYOUT_CENTER);
  91:lvgl\src\lv_widgets/lv_btn.c ****         }
  92:lvgl\src\lv_widgets/lv_btn.c **** 
  93:lvgl\src\lv_widgets/lv_btn.c ****         lv_obj_set_click(btn, true); /*Be sure the button is clickable*/
  94:lvgl\src\lv_widgets/lv_btn.c **** 
  95:lvgl\src\lv_widgets/lv_btn.c ****         lv_theme_apply(btn, LV_THEME_BTN);
  96:lvgl\src\lv_widgets/lv_btn.c ****     }
  97:lvgl\src\lv_widgets/lv_btn.c ****     /*Copy 'copy'*/
  98:lvgl\src\lv_widgets/lv_btn.c ****     else {
  99:lvgl\src\lv_widgets/lv_btn.c ****         lv_btn_ext_t * copy_ext = lv_obj_get_ext_attr(copy);
 100:lvgl\src\lv_widgets/lv_btn.c ****         ext->checkable             = copy_ext->checkable;
 101:lvgl\src\lv_widgets/lv_btn.c **** 
 102:lvgl\src\lv_widgets/lv_btn.c ****         /*Refresh the style with new signal function*/
 103:lvgl\src\lv_widgets/lv_btn.c ****         lv_obj_refresh_style(btn, LV_OBJ_PART_ALL, LV_STYLE_PROP_ALL);
 104:lvgl\src\lv_widgets/lv_btn.c ****     }
 105:lvgl\src\lv_widgets/lv_btn.c **** 
 106:lvgl\src\lv_widgets/lv_btn.c ****     LV_LOG_INFO("button created");
 107:lvgl\src\lv_widgets/lv_btn.c **** 
 108:lvgl\src\lv_widgets/lv_btn.c ****     return btn;
 109:lvgl\src\lv_widgets/lv_btn.c **** }
 110:lvgl\src\lv_widgets/lv_btn.c **** 
 111:lvgl\src\lv_widgets/lv_btn.c **** /*=====================
 112:lvgl\src\lv_widgets/lv_btn.c ****  * Setter functions
 113:lvgl\src\lv_widgets/lv_btn.c ****  *====================*/
 114:lvgl\src\lv_widgets/lv_btn.c **** 
 115:lvgl\src\lv_widgets/lv_btn.c **** /**
 116:lvgl\src\lv_widgets/lv_btn.c ****  * Enable the toggled states
 117:lvgl\src\lv_widgets/lv_btn.c ****  * @param btn pointer to a button object
 118:lvgl\src\lv_widgets/lv_btn.c ****  * @param tgl true: enable toggled states, false: disable
 119:lvgl\src\lv_widgets/lv_btn.c ****  */
 120:lvgl\src\lv_widgets/lv_btn.c **** void lv_btn_set_checkable(lv_obj_t * btn, bool tgl)
 121:lvgl\src\lv_widgets/lv_btn.c **** {
 122:lvgl\src\lv_widgets/lv_btn.c ****     LV_ASSERT_OBJ(btn, LV_OBJX_NAME);
 123:lvgl\src\lv_widgets/lv_btn.c **** 
 124:lvgl\src\lv_widgets/lv_btn.c ****     lv_btn_ext_t * ext = lv_obj_get_ext_attr(btn);
 125:lvgl\src\lv_widgets/lv_btn.c **** 
 126:lvgl\src\lv_widgets/lv_btn.c ****     ext->checkable = tgl != false ? 1 : 0;
 127:lvgl\src\lv_widgets/lv_btn.c **** }
 128:lvgl\src\lv_widgets/lv_btn.c **** 
 129:lvgl\src\lv_widgets/lv_btn.c **** /**
 130:lvgl\src\lv_widgets/lv_btn.c ****  * Set the state of the button
 131:lvgl\src\lv_widgets/lv_btn.c ****  * @param btn pointer to a button object
 132:lvgl\src\lv_widgets/lv_btn.c ****  * @param state the new state of the button (from lv_btn_state_t enum)
 133:lvgl\src\lv_widgets/lv_btn.c ****  */
 134:lvgl\src\lv_widgets/lv_btn.c **** void lv_btn_set_state(lv_obj_t * btn, lv_btn_state_t state)
 135:lvgl\src\lv_widgets/lv_btn.c **** {
 136:lvgl\src\lv_widgets/lv_btn.c ****     LV_ASSERT_OBJ(btn, LV_OBJX_NAME);
 137:lvgl\src\lv_widgets/lv_btn.c **** 
 138:lvgl\src\lv_widgets/lv_btn.c ****     switch(state) {
 139:lvgl\src\lv_widgets/lv_btn.c ****         case LV_BTN_STATE_RELEASED:
 140:lvgl\src\lv_widgets/lv_btn.c ****             lv_obj_clear_state(btn, LV_STATE_PRESSED | LV_STATE_CHECKED | LV_STATE_DISABLED);
 141:lvgl\src\lv_widgets/lv_btn.c ****             break;
 142:lvgl\src\lv_widgets/lv_btn.c ****         case LV_BTN_STATE_PRESSED:
 143:lvgl\src\lv_widgets/lv_btn.c ****             lv_obj_clear_state(btn, LV_STATE_CHECKED | LV_STATE_DISABLED);
 144:lvgl\src\lv_widgets/lv_btn.c ****             lv_obj_add_state(btn, LV_STATE_PRESSED);
 145:lvgl\src\lv_widgets/lv_btn.c ****             break;
ARM GAS  C:\Users\strap\AppData\Local\Temp\cc54kd2Z.s 			page 4


 146:lvgl\src\lv_widgets/lv_btn.c ****         case LV_BTN_STATE_CHECKED_RELEASED:
 147:lvgl\src\lv_widgets/lv_btn.c ****             lv_obj_add_state(btn, LV_STATE_CHECKED);
 148:lvgl\src\lv_widgets/lv_btn.c ****             lv_obj_clear_state(btn, LV_STATE_PRESSED | LV_STATE_DISABLED);
 149:lvgl\src\lv_widgets/lv_btn.c ****             break;
 150:lvgl\src\lv_widgets/lv_btn.c ****         case LV_BTN_STATE_CHECKED_PRESSED:
 151:lvgl\src\lv_widgets/lv_btn.c ****             lv_obj_add_state(btn, LV_STATE_PRESSED | LV_STATE_CHECKED);
 152:lvgl\src\lv_widgets/lv_btn.c ****             lv_obj_clear_state(btn, LV_STATE_DISABLED);
 153:lvgl\src\lv_widgets/lv_btn.c ****             break;
 154:lvgl\src\lv_widgets/lv_btn.c ****         case LV_BTN_STATE_DISABLED:
 155:lvgl\src\lv_widgets/lv_btn.c ****             lv_obj_clear_state(btn, LV_STATE_PRESSED | LV_STATE_CHECKED);
 156:lvgl\src\lv_widgets/lv_btn.c ****             lv_obj_add_state(btn, LV_STATE_DISABLED);
 157:lvgl\src\lv_widgets/lv_btn.c ****             break;
 158:lvgl\src\lv_widgets/lv_btn.c ****         case LV_BTN_STATE_CHECKED_DISABLED:
 159:lvgl\src\lv_widgets/lv_btn.c ****             lv_obj_clear_state(btn, LV_STATE_PRESSED);
 160:lvgl\src\lv_widgets/lv_btn.c ****             lv_obj_add_state(btn, LV_STATE_DISABLED | LV_STATE_CHECKED);
 161:lvgl\src\lv_widgets/lv_btn.c ****             break;
 162:lvgl\src\lv_widgets/lv_btn.c ****     }
 163:lvgl\src\lv_widgets/lv_btn.c **** }
 164:lvgl\src\lv_widgets/lv_btn.c **** 
 165:lvgl\src\lv_widgets/lv_btn.c **** /**
 166:lvgl\src\lv_widgets/lv_btn.c ****  * Toggle the state of the button (ON->OFF, OFF->ON)
 167:lvgl\src\lv_widgets/lv_btn.c ****  * @param btn pointer to a button object
 168:lvgl\src\lv_widgets/lv_btn.c ****  */
 169:lvgl\src\lv_widgets/lv_btn.c **** void lv_btn_toggle(lv_obj_t * btn)
 170:lvgl\src\lv_widgets/lv_btn.c **** {
 171:lvgl\src\lv_widgets/lv_btn.c ****     LV_ASSERT_OBJ(btn, LV_OBJX_NAME);
 172:lvgl\src\lv_widgets/lv_btn.c **** 
 173:lvgl\src\lv_widgets/lv_btn.c ****     if(lv_obj_get_state(btn, LV_BTN_PART_MAIN) & LV_STATE_CHECKED) {
 174:lvgl\src\lv_widgets/lv_btn.c ****         lv_obj_clear_state(btn, LV_STATE_CHECKED);
 175:lvgl\src\lv_widgets/lv_btn.c ****     }
 176:lvgl\src\lv_widgets/lv_btn.c ****     else {
 177:lvgl\src\lv_widgets/lv_btn.c ****         lv_obj_add_state(btn, LV_STATE_CHECKED);
 178:lvgl\src\lv_widgets/lv_btn.c ****     }
 179:lvgl\src\lv_widgets/lv_btn.c **** }
 180:lvgl\src\lv_widgets/lv_btn.c **** 
 181:lvgl\src\lv_widgets/lv_btn.c **** /*=====================
 182:lvgl\src\lv_widgets/lv_btn.c ****  * Getter functions
 183:lvgl\src\lv_widgets/lv_btn.c ****  *====================*/
 184:lvgl\src\lv_widgets/lv_btn.c **** 
 185:lvgl\src\lv_widgets/lv_btn.c **** /**
 186:lvgl\src\lv_widgets/lv_btn.c ****  * Get the current state of the button
 187:lvgl\src\lv_widgets/lv_btn.c ****  * @param btn pointer to a button object
 188:lvgl\src\lv_widgets/lv_btn.c ****  * @return the state of the button (from lv_btn_state_t enum).
 189:lvgl\src\lv_widgets/lv_btn.c ****  * If the button is in disabled state `LV_BTN_STATE_DISABLED` will be ORed to the other button stat
 190:lvgl\src\lv_widgets/lv_btn.c ****  */
 191:lvgl\src\lv_widgets/lv_btn.c **** lv_btn_state_t lv_btn_get_state(const lv_obj_t * btn)
 192:lvgl\src\lv_widgets/lv_btn.c **** {
 193:lvgl\src\lv_widgets/lv_btn.c ****     LV_ASSERT_OBJ(btn, LV_OBJX_NAME);
 194:lvgl\src\lv_widgets/lv_btn.c **** 
 195:lvgl\src\lv_widgets/lv_btn.c ****     lv_state_t obj_state = lv_obj_get_state(btn, LV_BTN_PART_MAIN);
 196:lvgl\src\lv_widgets/lv_btn.c **** 
 197:lvgl\src\lv_widgets/lv_btn.c ****     if(obj_state & LV_STATE_DISABLED) {
 198:lvgl\src\lv_widgets/lv_btn.c ****         if(obj_state & LV_STATE_CHECKED) return LV_BTN_STATE_CHECKED_DISABLED;
 199:lvgl\src\lv_widgets/lv_btn.c ****         else return LV_BTN_STATE_DISABLED;
 200:lvgl\src\lv_widgets/lv_btn.c ****     }
 201:lvgl\src\lv_widgets/lv_btn.c **** 
 202:lvgl\src\lv_widgets/lv_btn.c ****     if(obj_state & LV_STATE_CHECKED) {
ARM GAS  C:\Users\strap\AppData\Local\Temp\cc54kd2Z.s 			page 5


 203:lvgl\src\lv_widgets/lv_btn.c ****         if(obj_state & LV_STATE_PRESSED) return LV_BTN_STATE_CHECKED_PRESSED;
 204:lvgl\src\lv_widgets/lv_btn.c ****         else return LV_BTN_STATE_CHECKED_RELEASED;
 205:lvgl\src\lv_widgets/lv_btn.c ****     }
 206:lvgl\src\lv_widgets/lv_btn.c ****     else {
 207:lvgl\src\lv_widgets/lv_btn.c ****         if(obj_state & LV_STATE_PRESSED) return LV_BTN_STATE_PRESSED;
 208:lvgl\src\lv_widgets/lv_btn.c ****         else return LV_BTN_STATE_RELEASED;
 209:lvgl\src\lv_widgets/lv_btn.c ****     }
 210:lvgl\src\lv_widgets/lv_btn.c **** }
 211:lvgl\src\lv_widgets/lv_btn.c **** 
 212:lvgl\src\lv_widgets/lv_btn.c **** /**
 213:lvgl\src\lv_widgets/lv_btn.c ****  * Get the toggle enable attribute of the button
 214:lvgl\src\lv_widgets/lv_btn.c ****  * @param btn pointer to a button object
 215:lvgl\src\lv_widgets/lv_btn.c ****  * @return true: toggle enabled, false: disabled
 216:lvgl\src\lv_widgets/lv_btn.c ****  */
 217:lvgl\src\lv_widgets/lv_btn.c **** bool lv_btn_get_checkable(const lv_obj_t * btn)
 218:lvgl\src\lv_widgets/lv_btn.c **** {
 219:lvgl\src\lv_widgets/lv_btn.c ****     LV_ASSERT_OBJ(btn, LV_OBJX_NAME);
 220:lvgl\src\lv_widgets/lv_btn.c **** 
 221:lvgl\src\lv_widgets/lv_btn.c ****     lv_btn_ext_t * ext = lv_obj_get_ext_attr(btn);
 222:lvgl\src\lv_widgets/lv_btn.c **** 
 223:lvgl\src\lv_widgets/lv_btn.c ****     return ext->checkable != 0 ? true : false;
 224:lvgl\src\lv_widgets/lv_btn.c **** }
 225:lvgl\src\lv_widgets/lv_btn.c **** 
 226:lvgl\src\lv_widgets/lv_btn.c **** /**********************
 227:lvgl\src\lv_widgets/lv_btn.c ****  *   STATIC FUNCTIONS
 228:lvgl\src\lv_widgets/lv_btn.c ****  **********************/
 229:lvgl\src\lv_widgets/lv_btn.c **** 
 230:lvgl\src\lv_widgets/lv_btn.c **** /**
 231:lvgl\src\lv_widgets/lv_btn.c ****  * Handle the drawing related tasks of the drop down lists
 232:lvgl\src\lv_widgets/lv_btn.c ****  * @param btn pointer to an object
 233:lvgl\src\lv_widgets/lv_btn.c ****  * @param mask the object will be drawn only in this area
 234:lvgl\src\lv_widgets/lv_btn.c ****  * @param mode LV_DESIGN_COVER_CHK: only check if the object fully covers the 'mask_p' area
 235:lvgl\src\lv_widgets/lv_btn.c ****  *                                  (return 'true' if yes)
 236:lvgl\src\lv_widgets/lv_btn.c ****  *             LV_DESIGN_DRAW: draw the object (always return 'true')
 237:lvgl\src\lv_widgets/lv_btn.c ****  *             LV_DESIGN_DRAW_POST: drawing after every children are drawn
 238:lvgl\src\lv_widgets/lv_btn.c ****  * @param return an element of `lv_design_res_t`
 239:lvgl\src\lv_widgets/lv_btn.c ****  */
 240:lvgl\src\lv_widgets/lv_btn.c **** static lv_design_res_t lv_btn_design(lv_obj_t * btn, const lv_area_t * clip_area, lv_design_mode_t 
 241:lvgl\src\lv_widgets/lv_btn.c **** {
  27              		.loc 1 241 0
  28              		.cfi_startproc
  29              		@ args = 0, pretend = 0, frame = 0
  30              		@ frame_needed = 0, uses_anonymous_args = 0
  31              	.LVL0:
  32 0000 08B5     		push	{r3, lr}
  33              		.cfi_def_cfa_offset 8
  34              		.cfi_offset 3, -8
  35              		.cfi_offset 14, -4
 242:lvgl\src\lv_widgets/lv_btn.c ****     if(mode == LV_DESIGN_COVER_CHK) {
  36              		.loc 1 242 0
  37 0002 022A     		cmp	r2, #2
  38 0004 03D1     		bne	.L2
 243:lvgl\src\lv_widgets/lv_btn.c ****         return ancestor_design(btn, clip_area, mode);
  39              		.loc 1 243 0
  40 0006 094B     		ldr	r3, .L7
  41 0008 1B68     		ldr	r3, [r3]
  42 000a 9847     		blx	r3
ARM GAS  C:\Users\strap\AppData\Local\Temp\cc54kd2Z.s 			page 6


  43              	.LVL1:
  44 000c 08BD     		pop	{r3, pc}
  45              	.LVL2:
  46              	.L2:
 244:lvgl\src\lv_widgets/lv_btn.c ****     }
 245:lvgl\src\lv_widgets/lv_btn.c ****     else if(mode == LV_DESIGN_DRAW_MAIN) {
  47              		.loc 1 245 0
  48 000e 22B9     		cbnz	r2, .L4
 246:lvgl\src\lv_widgets/lv_btn.c ****         ancestor_design(btn, clip_area, mode);
  49              		.loc 1 246 0
  50 0010 064B     		ldr	r3, .L7
  51 0012 1B68     		ldr	r3, [r3]
  52 0014 9847     		blx	r3
  53              	.LVL3:
 247:lvgl\src\lv_widgets/lv_btn.c ****     }
 248:lvgl\src\lv_widgets/lv_btn.c ****     else if(mode == LV_DESIGN_DRAW_POST) {
 249:lvgl\src\lv_widgets/lv_btn.c ****         ancestor_design(btn, clip_area, mode);
 250:lvgl\src\lv_widgets/lv_btn.c ****     }
 251:lvgl\src\lv_widgets/lv_btn.c **** 
 252:lvgl\src\lv_widgets/lv_btn.c ****     return LV_DESIGN_RES_OK;
  54              		.loc 1 252 0
  55 0016 0020     		movs	r0, #0
  56 0018 08BD     		pop	{r3, pc}
  57              	.LVL4:
  58              	.L4:
 248:lvgl\src\lv_widgets/lv_btn.c ****         ancestor_design(btn, clip_area, mode);
  59              		.loc 1 248 0
  60 001a 012A     		cmp	r2, #1
  61 001c 04D1     		bne	.L5
 249:lvgl\src\lv_widgets/lv_btn.c ****     }
  62              		.loc 1 249 0
  63 001e 034B     		ldr	r3, .L7
  64 0020 1B68     		ldr	r3, [r3]
  65 0022 9847     		blx	r3
  66              	.LVL5:
  67              		.loc 1 252 0
  68 0024 0020     		movs	r0, #0
  69 0026 08BD     		pop	{r3, pc}
  70              	.LVL6:
  71              	.L5:
  72 0028 0020     		movs	r0, #0
  73              	.LVL7:
 253:lvgl\src\lv_widgets/lv_btn.c **** }
  74              		.loc 1 253 0
  75 002a 08BD     		pop	{r3, pc}
  76              	.L8:
  77              		.align	2
  78              	.L7:
  79 002c 00000000 		.word	.LANCHOR0
  80              		.cfi_endproc
  81              	.LFE345:
  82              		.size	lv_btn_design, .-lv_btn_design
  83              		.section	.text.lv_btn_create,"ax",%progbits
  84              		.align	2
  85              		.global	lv_btn_create
  86              		.thumb
  87              		.thumb_func
ARM GAS  C:\Users\strap\AppData\Local\Temp\cc54kd2Z.s 			page 7


  88              		.type	lv_btn_create, %function
  89              	lv_btn_create:
  90              	.LFB339:
  60:lvgl\src\lv_widgets/lv_btn.c ****     LV_LOG_TRACE("button create started");
  91              		.loc 1 60 0
  92              		.cfi_startproc
  93              		@ args = 0, pretend = 0, frame = 0
  94              		@ frame_needed = 0, uses_anonymous_args = 0
  95              	.LVL8:
  96 0000 F8B5     		push	{r3, r4, r5, r6, r7, lr}
  97              		.cfi_def_cfa_offset 24
  98              		.cfi_offset 3, -24
  99              		.cfi_offset 4, -20
 100              		.cfi_offset 5, -16
 101              		.cfi_offset 6, -12
 102              		.cfi_offset 7, -8
 103              		.cfi_offset 14, -4
 104 0002 0746     		mov	r7, r0
 105 0004 0E46     		mov	r6, r1
  65:lvgl\src\lv_widgets/lv_btn.c ****     LV_ASSERT_MEM(btn);
 106              		.loc 1 65 0
 107 0006 FFF7FEFF 		bl	lv_cont_create
 108              	.LVL9:
 109 000a 0446     		mov	r4, r0
 110              	.LVL10:
  66:lvgl\src\lv_widgets/lv_btn.c ****     if(btn == NULL) return NULL;
 111              		.loc 1 66 0
 112 000c FFF7FEFF 		bl	lv_debug_check_null
 113              	.LVL11:
 114 0010 28B9     		cbnz	r0, .L10
  66:lvgl\src\lv_widgets/lv_btn.c ****     if(btn == NULL) return NULL;
 115              		.loc 1 66 0 is_stmt 0 discriminator 1
 116 0012 2246     		mov	r2, r4
 117 0014 0023     		movs	r3, #0
 118 0016 2E48     		ldr	r0, .L22
 119 0018 FFF7FEFF 		bl	lv_debug_log_error
 120              	.LVL12:
 121              	.L11:
 122 001c FEE7     		b	.L11
 123              	.L10:
  67:lvgl\src\lv_widgets/lv_btn.c **** 
 124              		.loc 1 67 0 is_stmt 1
 125 001e 002C     		cmp	r4, #0
 126 0020 53D0     		beq	.L20
  69:lvgl\src\lv_widgets/lv_btn.c ****     if(ancestor_design == NULL) ancestor_design = lv_obj_get_design_cb(btn);
 127              		.loc 1 69 0
 128 0022 2C4B     		ldr	r3, .L22+4
 129 0024 5B68     		ldr	r3, [r3, #4]
 130 0026 23B9     		cbnz	r3, .L13
  69:lvgl\src\lv_widgets/lv_btn.c ****     if(ancestor_design == NULL) ancestor_design = lv_obj_get_design_cb(btn);
 131              		.loc 1 69 0 is_stmt 0 discriminator 1
 132 0028 2046     		mov	r0, r4
 133 002a FFF7FEFF 		bl	lv_obj_get_signal_cb
 134              	.LVL13:
 135 002e 294B     		ldr	r3, .L22+4
 136 0030 5860     		str	r0, [r3, #4]
 137              	.L13:
ARM GAS  C:\Users\strap\AppData\Local\Temp\cc54kd2Z.s 			page 8


  70:lvgl\src\lv_widgets/lv_btn.c **** 
 138              		.loc 1 70 0 is_stmt 1
 139 0032 284B     		ldr	r3, .L22+4
 140 0034 1B68     		ldr	r3, [r3]
 141 0036 23B9     		cbnz	r3, .L14
  70:lvgl\src\lv_widgets/lv_btn.c **** 
 142              		.loc 1 70 0 is_stmt 0 discriminator 1
 143 0038 2046     		mov	r0, r4
 144 003a FFF7FEFF 		bl	lv_obj_get_design_cb
 145              	.LVL14:
 146 003e 254B     		ldr	r3, .L22+4
 147 0040 1860     		str	r0, [r3]
 148              	.L14:
  73:lvgl\src\lv_widgets/lv_btn.c ****     LV_ASSERT_MEM(ext);
 149              		.loc 1 73 0 is_stmt 1
 150 0042 0321     		movs	r1, #3
 151 0044 2046     		mov	r0, r4
 152 0046 FFF7FEFF 		bl	lv_obj_allocate_ext_attr
 153              	.LVL15:
 154 004a 0546     		mov	r5, r0
 155              	.LVL16:
  74:lvgl\src\lv_widgets/lv_btn.c ****     if(ext == NULL) {
 156              		.loc 1 74 0
 157 004c FFF7FEFF 		bl	lv_debug_check_null
 158              	.LVL17:
 159 0050 28B9     		cbnz	r0, .L15
  74:lvgl\src\lv_widgets/lv_btn.c ****     if(ext == NULL) {
 160              		.loc 1 74 0 is_stmt 0 discriminator 1
 161 0052 2A46     		mov	r2, r5
 162 0054 0023     		movs	r3, #0
 163 0056 1E48     		ldr	r0, .L22
 164 0058 FFF7FEFF 		bl	lv_debug_log_error
 165              	.LVL18:
 166              	.L16:
 167 005c FEE7     		b	.L16
 168              	.L15:
  75:lvgl\src\lv_widgets/lv_btn.c ****         lv_obj_del(btn);
 169              		.loc 1 75 0 is_stmt 1
 170 005e 25B9     		cbnz	r5, .L17
  76:lvgl\src\lv_widgets/lv_btn.c ****         return NULL;
 171              		.loc 1 76 0
 172 0060 2046     		mov	r0, r4
 173 0062 FFF7FEFF 		bl	lv_obj_del
 174              	.LVL19:
  77:lvgl\src\lv_widgets/lv_btn.c ****     }
 175              		.loc 1 77 0
 176 0066 0020     		movs	r0, #0
 177 0068 F8BD     		pop	{r3, r4, r5, r6, r7, pc}
 178              	.LVL20:
 179              	.L17:
  80:lvgl\src\lv_widgets/lv_btn.c **** 
 180              		.loc 1 80 0
 181 006a AB78     		ldrb	r3, [r5, #2]	@ zero_extendqisi2
 182 006c 6FF30003 		bfc	r3, #0, #1
 183 0070 AB70     		strb	r3, [r5, #2]
  82:lvgl\src\lv_widgets/lv_btn.c ****     lv_obj_set_design_cb(btn, lv_btn_design);
 184              		.loc 1 82 0
ARM GAS  C:\Users\strap\AppData\Local\Temp\cc54kd2Z.s 			page 9


 185 0072 1949     		ldr	r1, .L22+8
 186 0074 2046     		mov	r0, r4
 187 0076 FFF7FEFF 		bl	lv_obj_set_signal_cb
 188              	.LVL21:
  83:lvgl\src\lv_widgets/lv_btn.c **** 
 189              		.loc 1 83 0
 190 007a 1849     		ldr	r1, .L22+12
 191 007c 2046     		mov	r0, r4
 192 007e FFF7FEFF 		bl	lv_obj_set_design_cb
 193              	.LVL22:
  86:lvgl\src\lv_widgets/lv_btn.c ****         /*Set layout if the button is not a screen*/
 194              		.loc 1 86 0
 195 0082 9EB9     		cbnz	r6, .L18
  88:lvgl\src\lv_widgets/lv_btn.c ****             lv_obj_set_size(btn, LV_DPI, LV_DPI / 3);
 196              		.loc 1 88 0
 197 0084 47B1     		cbz	r7, .L19
  89:lvgl\src\lv_widgets/lv_btn.c ****             lv_btn_set_layout(btn, LV_LAYOUT_CENTER);
 198              		.loc 1 89 0
 199 0086 2B22     		movs	r2, #43
 200 0088 8221     		movs	r1, #130
 201 008a 2046     		mov	r0, r4
 202 008c FFF7FEFF 		bl	lv_obj_set_size
 203              	.LVL23:
 204              	.LBB5:
 205              	.LBB6:
 206              		.file 2 "lvgl\\src\\lv_widgets\\lv_btn.h"
   1:lvgl\src\lv_widgets/lv_btn.h **** /**
   2:lvgl\src\lv_widgets/lv_btn.h ****  * @file lv_btn.h
   3:lvgl\src\lv_widgets/lv_btn.h ****  *
   4:lvgl\src\lv_widgets/lv_btn.h ****  */
   5:lvgl\src\lv_widgets/lv_btn.h **** 
   6:lvgl\src\lv_widgets/lv_btn.h **** #ifndef LV_BTN_H
   7:lvgl\src\lv_widgets/lv_btn.h **** #define LV_BTN_H
   8:lvgl\src\lv_widgets/lv_btn.h **** 
   9:lvgl\src\lv_widgets/lv_btn.h **** #ifdef __cplusplus
  10:lvgl\src\lv_widgets/lv_btn.h **** extern "C" {
  11:lvgl\src\lv_widgets/lv_btn.h **** #endif
  12:lvgl\src\lv_widgets/lv_btn.h **** 
  13:lvgl\src\lv_widgets/lv_btn.h **** /*********************
  14:lvgl\src\lv_widgets/lv_btn.h ****  *      INCLUDES
  15:lvgl\src\lv_widgets/lv_btn.h ****  *********************/
  16:lvgl\src\lv_widgets/lv_btn.h **** #include "../lv_conf_internal.h"
  17:lvgl\src\lv_widgets/lv_btn.h **** 
  18:lvgl\src\lv_widgets/lv_btn.h **** #if LV_USE_BTN != 0
  19:lvgl\src\lv_widgets/lv_btn.h **** 
  20:lvgl\src\lv_widgets/lv_btn.h **** /*Testing of dependencies*/
  21:lvgl\src\lv_widgets/lv_btn.h **** #if LV_USE_CONT == 0
  22:lvgl\src\lv_widgets/lv_btn.h **** #error "lv_btn: lv_cont is required. Enable it in lv_conf.h (LV_USE_CONT  1) "
  23:lvgl\src\lv_widgets/lv_btn.h **** #endif
  24:lvgl\src\lv_widgets/lv_btn.h **** 
  25:lvgl\src\lv_widgets/lv_btn.h **** #include "lv_cont.h"
  26:lvgl\src\lv_widgets/lv_btn.h **** #include "../lv_core/lv_indev.h"
  27:lvgl\src\lv_widgets/lv_btn.h **** 
  28:lvgl\src\lv_widgets/lv_btn.h **** /*********************
  29:lvgl\src\lv_widgets/lv_btn.h ****  *      DEFINES
  30:lvgl\src\lv_widgets/lv_btn.h ****  *********************/
  31:lvgl\src\lv_widgets/lv_btn.h **** 
ARM GAS  C:\Users\strap\AppData\Local\Temp\cc54kd2Z.s 			page 10


  32:lvgl\src\lv_widgets/lv_btn.h **** /**********************
  33:lvgl\src\lv_widgets/lv_btn.h ****  *      TYPEDEFS
  34:lvgl\src\lv_widgets/lv_btn.h ****  **********************/
  35:lvgl\src\lv_widgets/lv_btn.h **** 
  36:lvgl\src\lv_widgets/lv_btn.h **** /** Possible states of a button.
  37:lvgl\src\lv_widgets/lv_btn.h ****  * It can be used not only by buttons but other button-like objects too*/
  38:lvgl\src\lv_widgets/lv_btn.h **** enum {
  39:lvgl\src\lv_widgets/lv_btn.h ****     LV_BTN_STATE_RELEASED,
  40:lvgl\src\lv_widgets/lv_btn.h ****     LV_BTN_STATE_PRESSED,
  41:lvgl\src\lv_widgets/lv_btn.h ****     LV_BTN_STATE_DISABLED,
  42:lvgl\src\lv_widgets/lv_btn.h ****     LV_BTN_STATE_CHECKED_RELEASED,
  43:lvgl\src\lv_widgets/lv_btn.h ****     LV_BTN_STATE_CHECKED_PRESSED,
  44:lvgl\src\lv_widgets/lv_btn.h ****     LV_BTN_STATE_CHECKED_DISABLED,
  45:lvgl\src\lv_widgets/lv_btn.h ****     _LV_BTN_STATE_LAST, /* Number of states*/
  46:lvgl\src\lv_widgets/lv_btn.h **** };
  47:lvgl\src\lv_widgets/lv_btn.h **** typedef uint8_t lv_btn_state_t;
  48:lvgl\src\lv_widgets/lv_btn.h **** 
  49:lvgl\src\lv_widgets/lv_btn.h **** /** Extended data of button*/
  50:lvgl\src\lv_widgets/lv_btn.h **** typedef struct {
  51:lvgl\src\lv_widgets/lv_btn.h ****     /** Ext. of ancestor*/
  52:lvgl\src\lv_widgets/lv_btn.h ****     lv_cont_ext_t cont;
  53:lvgl\src\lv_widgets/lv_btn.h **** 
  54:lvgl\src\lv_widgets/lv_btn.h ****     /** 1: Toggle enabled*/
  55:lvgl\src\lv_widgets/lv_btn.h ****     uint8_t checkable : 1;
  56:lvgl\src\lv_widgets/lv_btn.h **** } lv_btn_ext_t;
  57:lvgl\src\lv_widgets/lv_btn.h **** 
  58:lvgl\src\lv_widgets/lv_btn.h **** /**Styles*/
  59:lvgl\src\lv_widgets/lv_btn.h **** enum {
  60:lvgl\src\lv_widgets/lv_btn.h ****     LV_BTN_PART_MAIN = LV_OBJ_PART_MAIN,
  61:lvgl\src\lv_widgets/lv_btn.h ****     _LV_BTN_PART_VIRTUAL_LAST,
  62:lvgl\src\lv_widgets/lv_btn.h ****     _LV_BTN_PART_REAL_LAST = _LV_OBJ_PART_REAL_LAST,
  63:lvgl\src\lv_widgets/lv_btn.h **** };
  64:lvgl\src\lv_widgets/lv_btn.h **** typedef uint8_t lv_btn_part_t;
  65:lvgl\src\lv_widgets/lv_btn.h **** 
  66:lvgl\src\lv_widgets/lv_btn.h **** /**********************
  67:lvgl\src\lv_widgets/lv_btn.h ****  * GLOBAL PROTOTYPES
  68:lvgl\src\lv_widgets/lv_btn.h ****  **********************/
  69:lvgl\src\lv_widgets/lv_btn.h **** 
  70:lvgl\src\lv_widgets/lv_btn.h **** /**
  71:lvgl\src\lv_widgets/lv_btn.h ****  * Create a button object
  72:lvgl\src\lv_widgets/lv_btn.h ****  * @param par pointer to an object, it will be the parent of the new button
  73:lvgl\src\lv_widgets/lv_btn.h ****  * @param copy pointer to a button object, if not NULL then the new object will be copied from it
  74:lvgl\src\lv_widgets/lv_btn.h ****  * @return pointer to the created button
  75:lvgl\src\lv_widgets/lv_btn.h ****  */
  76:lvgl\src\lv_widgets/lv_btn.h **** lv_obj_t * lv_btn_create(lv_obj_t * par, const lv_obj_t * copy);
  77:lvgl\src\lv_widgets/lv_btn.h **** 
  78:lvgl\src\lv_widgets/lv_btn.h **** /*=====================
  79:lvgl\src\lv_widgets/lv_btn.h ****  * Setter functions
  80:lvgl\src\lv_widgets/lv_btn.h ****  *====================*/
  81:lvgl\src\lv_widgets/lv_btn.h **** 
  82:lvgl\src\lv_widgets/lv_btn.h **** /**
  83:lvgl\src\lv_widgets/lv_btn.h ****  * Enable the toggled states. On release the button will change from/to toggled state.
  84:lvgl\src\lv_widgets/lv_btn.h ****  * @param btn pointer to a button object
  85:lvgl\src\lv_widgets/lv_btn.h ****  * @param tgl true: enable toggled states, false: disable
  86:lvgl\src\lv_widgets/lv_btn.h ****  */
  87:lvgl\src\lv_widgets/lv_btn.h **** void lv_btn_set_checkable(lv_obj_t * btn, bool tgl);
  88:lvgl\src\lv_widgets/lv_btn.h **** 
ARM GAS  C:\Users\strap\AppData\Local\Temp\cc54kd2Z.s 			page 11


  89:lvgl\src\lv_widgets/lv_btn.h **** /**
  90:lvgl\src\lv_widgets/lv_btn.h ****  * Set the state of the button
  91:lvgl\src\lv_widgets/lv_btn.h ****  * @param btn pointer to a button object
  92:lvgl\src\lv_widgets/lv_btn.h ****  * @param state the new state of the button (from lv_btn_state_t enum)
  93:lvgl\src\lv_widgets/lv_btn.h ****  */
  94:lvgl\src\lv_widgets/lv_btn.h **** void lv_btn_set_state(lv_obj_t * btn, lv_btn_state_t state);
  95:lvgl\src\lv_widgets/lv_btn.h **** 
  96:lvgl\src\lv_widgets/lv_btn.h **** /**
  97:lvgl\src\lv_widgets/lv_btn.h ****  * Toggle the state of the button (ON->OFF, OFF->ON)
  98:lvgl\src\lv_widgets/lv_btn.h ****  * @param btn pointer to a button object
  99:lvgl\src\lv_widgets/lv_btn.h ****  */
 100:lvgl\src\lv_widgets/lv_btn.h **** void lv_btn_toggle(lv_obj_t * btn);
 101:lvgl\src\lv_widgets/lv_btn.h **** 
 102:lvgl\src\lv_widgets/lv_btn.h **** /**
 103:lvgl\src\lv_widgets/lv_btn.h ****  * Set the layout on a button
 104:lvgl\src\lv_widgets/lv_btn.h ****  * @param btn pointer to a button object
 105:lvgl\src\lv_widgets/lv_btn.h ****  * @param layout a layout from 'lv_cont_layout_t'
 106:lvgl\src\lv_widgets/lv_btn.h ****  */
 107:lvgl\src\lv_widgets/lv_btn.h **** static inline void lv_btn_set_layout(lv_obj_t * btn, lv_layout_t layout)
 108:lvgl\src\lv_widgets/lv_btn.h **** {
 109:lvgl\src\lv_widgets/lv_btn.h ****     lv_cont_set_layout(btn, layout);
 207              		.loc 2 109 0
 208 0090 0121     		movs	r1, #1
 209 0092 2046     		mov	r0, r4
 210 0094 FFF7FEFF 		bl	lv_cont_set_layout
 211              	.LVL24:
 212              	.L19:
 213              	.LBE6:
 214              	.LBE5:
  93:lvgl\src\lv_widgets/lv_btn.c **** 
 215              		.loc 1 93 0
 216 0098 0121     		movs	r1, #1
 217 009a 2046     		mov	r0, r4
 218 009c FFF7FEFF 		bl	lv_obj_set_click
 219              	.LVL25:
  95:lvgl\src\lv_widgets/lv_btn.c ****     }
 220              		.loc 1 95 0
 221 00a0 0321     		movs	r1, #3
 222 00a2 2046     		mov	r0, r4
 223 00a4 FFF7FEFF 		bl	lv_theme_apply
 224              	.LVL26:
 108:lvgl\src\lv_widgets/lv_btn.c **** }
 225              		.loc 1 108 0
 226 00a8 2046     		mov	r0, r4
 227 00aa F8BD     		pop	{r3, r4, r5, r6, r7, pc}
 228              	.LVL27:
 229              	.L18:
 230              	.LBB7:
  99:lvgl\src\lv_widgets/lv_btn.c ****         ext->checkable             = copy_ext->checkable;
 231              		.loc 1 99 0
 232 00ac 3046     		mov	r0, r6
 233 00ae FFF7FEFF 		bl	lv_obj_get_ext_attr
 234              	.LVL28:
 100:lvgl\src\lv_widgets/lv_btn.c **** 
 235              		.loc 1 100 0
 236 00b2 8278     		ldrb	r2, [r0, #2]	@ zero_extendqisi2
 237 00b4 AB78     		ldrb	r3, [r5, #2]	@ zero_extendqisi2
ARM GAS  C:\Users\strap\AppData\Local\Temp\cc54kd2Z.s 			page 12


 238 00b6 62F30003 		bfi	r3, r2, #0, #1
 239 00ba AB70     		strb	r3, [r5, #2]
 103:lvgl\src\lv_widgets/lv_btn.c ****     }
 240              		.loc 1 103 0
 241 00bc FF22     		movs	r2, #255
 242 00be 1146     		mov	r1, r2
 243 00c0 2046     		mov	r0, r4
 244              	.LVL29:
 245 00c2 FFF7FEFF 		bl	lv_obj_refresh_style
 246              	.LVL30:
 247              	.LBE7:
 108:lvgl\src\lv_widgets/lv_btn.c **** }
 248              		.loc 1 108 0
 249 00c6 2046     		mov	r0, r4
 250 00c8 F8BD     		pop	{r3, r4, r5, r6, r7, pc}
 251              	.LVL31:
 252              	.L20:
  67:lvgl\src\lv_widgets/lv_btn.c **** 
 253              		.loc 1 67 0
 254 00ca 0020     		movs	r0, #0
 109:lvgl\src\lv_widgets/lv_btn.c **** 
 255              		.loc 1 109 0
 256 00cc F8BD     		pop	{r3, r4, r5, r6, r7, pc}
 257              	.LVL32:
 258              	.L23:
 259 00ce 00BF     		.align	2
 260              	.L22:
 261 00d0 00000000 		.word	.LC0
 262 00d4 00000000 		.word	.LANCHOR0
 263 00d8 00000000 		.word	lv_btn_signal
 264 00dc 00000000 		.word	lv_btn_design
 265              		.cfi_endproc
 266              	.LFE339:
 267              		.size	lv_btn_create, .-lv_btn_create
 268              		.section	.text.lv_btn_set_checkable,"ax",%progbits
 269              		.align	2
 270              		.global	lv_btn_set_checkable
 271              		.thumb
 272              		.thumb_func
 273              		.type	lv_btn_set_checkable, %function
 274              	lv_btn_set_checkable:
 275              	.LFB340:
 121:lvgl\src\lv_widgets/lv_btn.c ****     LV_ASSERT_OBJ(btn, LV_OBJX_NAME);
 276              		.loc 1 121 0
 277              		.cfi_startproc
 278              		@ args = 0, pretend = 0, frame = 0
 279              		@ frame_needed = 0, uses_anonymous_args = 0
 280              	.LVL33:
 281 0000 38B5     		push	{r3, r4, r5, lr}
 282              		.cfi_def_cfa_offset 16
 283              		.cfi_offset 3, -16
 284              		.cfi_offset 4, -12
 285              		.cfi_offset 5, -8
 286              		.cfi_offset 14, -4
 287 0002 0446     		mov	r4, r0
 288 0004 0D46     		mov	r5, r1
 122:lvgl\src\lv_widgets/lv_btn.c **** 
ARM GAS  C:\Users\strap\AppData\Local\Temp\cc54kd2Z.s 			page 13


 289              		.loc 1 122 0
 290 0006 FFF7FEFF 		bl	lv_debug_check_null
 291              	.LVL34:
 292 000a 28B9     		cbnz	r0, .L25
 122:lvgl\src\lv_widgets/lv_btn.c **** 
 293              		.loc 1 122 0 is_stmt 0 discriminator 1
 294 000c 2246     		mov	r2, r4
 295 000e 0023     		movs	r3, #0
 296 0010 0548     		ldr	r0, .L28
 297 0012 FFF7FEFF 		bl	lv_debug_log_error
 298              	.LVL35:
 299              	.L26:
 300 0016 FEE7     		b	.L26
 301              	.L25:
 124:lvgl\src\lv_widgets/lv_btn.c **** 
 302              		.loc 1 124 0 is_stmt 1
 303 0018 2046     		mov	r0, r4
 304 001a FFF7FEFF 		bl	lv_obj_get_ext_attr
 305              	.LVL36:
 126:lvgl\src\lv_widgets/lv_btn.c **** }
 306              		.loc 1 126 0
 307 001e 8378     		ldrb	r3, [r0, #2]	@ zero_extendqisi2
 308 0020 65F30003 		bfi	r3, r5, #0, #1
 309 0024 8370     		strb	r3, [r0, #2]
 310 0026 38BD     		pop	{r3, r4, r5, pc}
 311              	.LVL37:
 312              	.L29:
 313              		.align	2
 314              	.L28:
 315 0028 10000000 		.word	.LC1
 316              		.cfi_endproc
 317              	.LFE340:
 318              		.size	lv_btn_set_checkable, .-lv_btn_set_checkable
 319              		.section	.text.lv_btn_set_state,"ax",%progbits
 320              		.align	2
 321              		.global	lv_btn_set_state
 322              		.thumb
 323              		.thumb_func
 324              		.type	lv_btn_set_state, %function
 325              	lv_btn_set_state:
 326              	.LFB341:
 135:lvgl\src\lv_widgets/lv_btn.c ****     LV_ASSERT_OBJ(btn, LV_OBJX_NAME);
 327              		.loc 1 135 0
 328              		.cfi_startproc
 329              		@ args = 0, pretend = 0, frame = 0
 330              		@ frame_needed = 0, uses_anonymous_args = 0
 331              	.LVL38:
 332 0000 38B5     		push	{r3, r4, r5, lr}
 333              		.cfi_def_cfa_offset 16
 334              		.cfi_offset 3, -16
 335              		.cfi_offset 4, -12
 336              		.cfi_offset 5, -8
 337              		.cfi_offset 14, -4
 338 0002 0446     		mov	r4, r0
 339 0004 0D46     		mov	r5, r1
 136:lvgl\src\lv_widgets/lv_btn.c **** 
 340              		.loc 1 136 0
ARM GAS  C:\Users\strap\AppData\Local\Temp\cc54kd2Z.s 			page 14


 341 0006 FFF7FEFF 		bl	lv_debug_check_null
 342              	.LVL39:
 343 000a 28B9     		cbnz	r0, .L31
 136:lvgl\src\lv_widgets/lv_btn.c **** 
 344              		.loc 1 136 0 is_stmt 0 discriminator 1
 345 000c 2246     		mov	r2, r4
 346 000e 0023     		movs	r3, #0
 347 0010 1E48     		ldr	r0, .L42
 348 0012 FFF7FEFF 		bl	lv_debug_log_error
 349              	.LVL40:
 350              	.L32:
 351 0016 FEE7     		b	.L32
 352              	.L31:
 138:lvgl\src\lv_widgets/lv_btn.c ****         case LV_BTN_STATE_RELEASED:
 353              		.loc 1 138 0 is_stmt 1
 354 0018 052D     		cmp	r5, #5
 355 001a 35D8     		bhi	.L30
 356 001c DFE805F0 		tbb	[pc, r5]
 357              	.L35:
 358 0020 03       		.byte	(.L34-.L35)/2
 359 0021 08       		.byte	(.L36-.L35)/2
 360 0022 23       		.byte	(.L37-.L35)/2
 361 0023 11       		.byte	(.L38-.L35)/2
 362 0024 1A       		.byte	(.L39-.L35)/2
 363 0025 2C       		.byte	(.L40-.L35)/2
 364              		.p2align 1
 365              	.L34:
 140:lvgl\src\lv_widgets/lv_btn.c ****             break;
 366              		.loc 1 140 0
 367 0026 3121     		movs	r1, #49
 368 0028 2046     		mov	r0, r4
 369 002a FFF7FEFF 		bl	lv_obj_clear_state
 370              	.LVL41:
 141:lvgl\src\lv_widgets/lv_btn.c ****         case LV_BTN_STATE_PRESSED:
 371              		.loc 1 141 0
 372 002e 38BD     		pop	{r3, r4, r5, pc}
 373              	.LVL42:
 374              	.L36:
 143:lvgl\src\lv_widgets/lv_btn.c ****             lv_obj_add_state(btn, LV_STATE_PRESSED);
 375              		.loc 1 143 0
 376 0030 2121     		movs	r1, #33
 377 0032 2046     		mov	r0, r4
 378 0034 FFF7FEFF 		bl	lv_obj_clear_state
 379              	.LVL43:
 144:lvgl\src\lv_widgets/lv_btn.c ****             break;
 380              		.loc 1 144 0
 381 0038 1021     		movs	r1, #16
 382 003a 2046     		mov	r0, r4
 383 003c FFF7FEFF 		bl	lv_obj_add_state
 384              	.LVL44:
 145:lvgl\src\lv_widgets/lv_btn.c ****         case LV_BTN_STATE_CHECKED_RELEASED:
 385              		.loc 1 145 0
 386 0040 38BD     		pop	{r3, r4, r5, pc}
 387              	.LVL45:
 388              	.L38:
 147:lvgl\src\lv_widgets/lv_btn.c ****             lv_obj_clear_state(btn, LV_STATE_PRESSED | LV_STATE_DISABLED);
 389              		.loc 1 147 0
ARM GAS  C:\Users\strap\AppData\Local\Temp\cc54kd2Z.s 			page 15


 390 0042 0121     		movs	r1, #1
 391 0044 2046     		mov	r0, r4
 392 0046 FFF7FEFF 		bl	lv_obj_add_state
 393              	.LVL46:
 148:lvgl\src\lv_widgets/lv_btn.c ****             break;
 394              		.loc 1 148 0
 395 004a 3021     		movs	r1, #48
 396 004c 2046     		mov	r0, r4
 397 004e FFF7FEFF 		bl	lv_obj_clear_state
 398              	.LVL47:
 149:lvgl\src\lv_widgets/lv_btn.c ****         case LV_BTN_STATE_CHECKED_PRESSED:
 399              		.loc 1 149 0
 400 0052 38BD     		pop	{r3, r4, r5, pc}
 401              	.LVL48:
 402              	.L39:
 151:lvgl\src\lv_widgets/lv_btn.c ****             lv_obj_clear_state(btn, LV_STATE_DISABLED);
 403              		.loc 1 151 0
 404 0054 1121     		movs	r1, #17
 405 0056 2046     		mov	r0, r4
 406 0058 FFF7FEFF 		bl	lv_obj_add_state
 407              	.LVL49:
 152:lvgl\src\lv_widgets/lv_btn.c ****             break;
 408              		.loc 1 152 0
 409 005c 2021     		movs	r1, #32
 410 005e 2046     		mov	r0, r4
 411 0060 FFF7FEFF 		bl	lv_obj_clear_state
 412              	.LVL50:
 153:lvgl\src\lv_widgets/lv_btn.c ****         case LV_BTN_STATE_DISABLED:
 413              		.loc 1 153 0
 414 0064 38BD     		pop	{r3, r4, r5, pc}
 415              	.LVL51:
 416              	.L37:
 155:lvgl\src\lv_widgets/lv_btn.c ****             lv_obj_add_state(btn, LV_STATE_DISABLED);
 417              		.loc 1 155 0
 418 0066 1121     		movs	r1, #17
 419 0068 2046     		mov	r0, r4
 420 006a FFF7FEFF 		bl	lv_obj_clear_state
 421              	.LVL52:
 156:lvgl\src\lv_widgets/lv_btn.c ****             break;
 422              		.loc 1 156 0
 423 006e 2021     		movs	r1, #32
 424 0070 2046     		mov	r0, r4
 425 0072 FFF7FEFF 		bl	lv_obj_add_state
 426              	.LVL53:
 157:lvgl\src\lv_widgets/lv_btn.c ****         case LV_BTN_STATE_CHECKED_DISABLED:
 427              		.loc 1 157 0
 428 0076 38BD     		pop	{r3, r4, r5, pc}
 429              	.LVL54:
 430              	.L40:
 159:lvgl\src\lv_widgets/lv_btn.c ****             lv_obj_add_state(btn, LV_STATE_DISABLED | LV_STATE_CHECKED);
 431              		.loc 1 159 0
 432 0078 1021     		movs	r1, #16
 433 007a 2046     		mov	r0, r4
 434 007c FFF7FEFF 		bl	lv_obj_clear_state
 435              	.LVL55:
 160:lvgl\src\lv_widgets/lv_btn.c ****             break;
 436              		.loc 1 160 0
ARM GAS  C:\Users\strap\AppData\Local\Temp\cc54kd2Z.s 			page 16


 437 0080 2121     		movs	r1, #33
 438 0082 2046     		mov	r0, r4
 439 0084 FFF7FEFF 		bl	lv_obj_add_state
 440              	.LVL56:
 441              	.L30:
 442 0088 38BD     		pop	{r3, r4, r5, pc}
 443              	.LVL57:
 444              	.L43:
 445 008a 00BF     		.align	2
 446              	.L42:
 447 008c 10000000 		.word	.LC1
 448              		.cfi_endproc
 449              	.LFE341:
 450              		.size	lv_btn_set_state, .-lv_btn_set_state
 451              		.section	.text.lv_btn_toggle,"ax",%progbits
 452              		.align	2
 453              		.global	lv_btn_toggle
 454              		.thumb
 455              		.thumb_func
 456              		.type	lv_btn_toggle, %function
 457              	lv_btn_toggle:
 458              	.LFB342:
 170:lvgl\src\lv_widgets/lv_btn.c ****     LV_ASSERT_OBJ(btn, LV_OBJX_NAME);
 459              		.loc 1 170 0
 460              		.cfi_startproc
 461              		@ args = 0, pretend = 0, frame = 0
 462              		@ frame_needed = 0, uses_anonymous_args = 0
 463              	.LVL58:
 464 0000 10B5     		push	{r4, lr}
 465              		.cfi_def_cfa_offset 8
 466              		.cfi_offset 4, -8
 467              		.cfi_offset 14, -4
 468 0002 0446     		mov	r4, r0
 171:lvgl\src\lv_widgets/lv_btn.c **** 
 469              		.loc 1 171 0
 470 0004 FFF7FEFF 		bl	lv_debug_check_null
 471              	.LVL59:
 472 0008 28B9     		cbnz	r0, .L45
 171:lvgl\src\lv_widgets/lv_btn.c **** 
 473              		.loc 1 171 0 is_stmt 0 discriminator 1
 474 000a 2246     		mov	r2, r4
 475 000c 0023     		movs	r3, #0
 476 000e 0A48     		ldr	r0, .L50
 477 0010 FFF7FEFF 		bl	lv_debug_log_error
 478              	.LVL60:
 479              	.L46:
 480 0014 FEE7     		b	.L46
 481              	.L45:
 173:lvgl\src\lv_widgets/lv_btn.c ****         lv_obj_clear_state(btn, LV_STATE_CHECKED);
 482              		.loc 1 173 0 is_stmt 1
 483 0016 0021     		movs	r1, #0
 484 0018 2046     		mov	r0, r4
 485 001a FFF7FEFF 		bl	lv_obj_get_state
 486              	.LVL61:
 487 001e 10F0010F 		tst	r0, #1
 488 0022 04D0     		beq	.L47
 174:lvgl\src\lv_widgets/lv_btn.c ****     }
ARM GAS  C:\Users\strap\AppData\Local\Temp\cc54kd2Z.s 			page 17


 489              		.loc 1 174 0
 490 0024 0121     		movs	r1, #1
 491 0026 2046     		mov	r0, r4
 492 0028 FFF7FEFF 		bl	lv_obj_clear_state
 493              	.LVL62:
 494 002c 10BD     		pop	{r4, pc}
 495              	.LVL63:
 496              	.L47:
 177:lvgl\src\lv_widgets/lv_btn.c ****     }
 497              		.loc 1 177 0
 498 002e 0121     		movs	r1, #1
 499 0030 2046     		mov	r0, r4
 500 0032 FFF7FEFF 		bl	lv_obj_add_state
 501              	.LVL64:
 502 0036 10BD     		pop	{r4, pc}
 503              	.LVL65:
 504              	.L51:
 505              		.align	2
 506              	.L50:
 507 0038 10000000 		.word	.LC1
 508              		.cfi_endproc
 509              	.LFE342:
 510              		.size	lv_btn_toggle, .-lv_btn_toggle
 511              		.section	.text.lv_btn_get_state,"ax",%progbits
 512              		.align	2
 513              		.global	lv_btn_get_state
 514              		.thumb
 515              		.thumb_func
 516              		.type	lv_btn_get_state, %function
 517              	lv_btn_get_state:
 518              	.LFB343:
 192:lvgl\src\lv_widgets/lv_btn.c ****     LV_ASSERT_OBJ(btn, LV_OBJX_NAME);
 519              		.loc 1 192 0
 520              		.cfi_startproc
 521              		@ args = 0, pretend = 0, frame = 0
 522              		@ frame_needed = 0, uses_anonymous_args = 0
 523              	.LVL66:
 524 0000 10B5     		push	{r4, lr}
 525              		.cfi_def_cfa_offset 8
 526              		.cfi_offset 4, -8
 527              		.cfi_offset 14, -4
 528 0002 0446     		mov	r4, r0
 193:lvgl\src\lv_widgets/lv_btn.c **** 
 529              		.loc 1 193 0
 530 0004 FFF7FEFF 		bl	lv_debug_check_null
 531              	.LVL67:
 532 0008 28B9     		cbnz	r0, .L53
 193:lvgl\src\lv_widgets/lv_btn.c **** 
 533              		.loc 1 193 0 is_stmt 0 discriminator 1
 534 000a 2246     		mov	r2, r4
 535 000c 0023     		movs	r3, #0
 536 000e 1148     		ldr	r0, .L61
 537 0010 FFF7FEFF 		bl	lv_debug_log_error
 538              	.LVL68:
 539              	.L54:
 540 0014 FEE7     		b	.L54
 541              	.L53:
ARM GAS  C:\Users\strap\AppData\Local\Temp\cc54kd2Z.s 			page 18


 195:lvgl\src\lv_widgets/lv_btn.c **** 
 542              		.loc 1 195 0 is_stmt 1
 543 0016 0021     		movs	r1, #0
 544 0018 2046     		mov	r0, r4
 545 001a FFF7FEFF 		bl	lv_obj_get_state
 546              	.LVL69:
 197:lvgl\src\lv_widgets/lv_btn.c ****         if(obj_state & LV_STATE_CHECKED) return LV_BTN_STATE_CHECKED_DISABLED;
 547              		.loc 1 197 0
 548 001e 10F0200F 		tst	r0, #32
 549 0022 04D0     		beq	.L55
 198:lvgl\src\lv_widgets/lv_btn.c ****         else return LV_BTN_STATE_DISABLED;
 550              		.loc 1 198 0
 551 0024 10F0010F 		tst	r0, #1
 552 0028 10D0     		beq	.L58
 553 002a 0520     		movs	r0, #5
 554              	.LVL70:
 555 002c 10BD     		pop	{r4, pc}
 556              	.LVL71:
 557              	.L55:
 202:lvgl\src\lv_widgets/lv_btn.c ****         if(obj_state & LV_STATE_PRESSED) return LV_BTN_STATE_CHECKED_PRESSED;
 558              		.loc 1 202 0
 559 002e 10F0010F 		tst	r0, #1
 560 0032 04D0     		beq	.L57
 203:lvgl\src\lv_widgets/lv_btn.c ****         else return LV_BTN_STATE_CHECKED_RELEASED;
 561              		.loc 1 203 0
 562 0034 10F0100F 		tst	r0, #16
 563 0038 0AD0     		beq	.L59
 564 003a 0420     		movs	r0, #4
 565              	.LVL72:
 566 003c 10BD     		pop	{r4, pc}
 567              	.LVL73:
 568              	.L57:
 569 003e 00F01003 		and	r3, r0, #16
 207:lvgl\src\lv_widgets/lv_btn.c ****         else return LV_BTN_STATE_RELEASED;
 570              		.loc 1 207 0
 571 0042 03F0FF00 		and	r0, r3, #255
 572              	.LVL74:
 573 0046 23B1     		cbz	r3, .L56
 574 0048 0120     		movs	r0, #1
 575 004a 10BD     		pop	{r4, pc}
 576              	.LVL75:
 577              	.L58:
 199:lvgl\src\lv_widgets/lv_btn.c ****     }
 578              		.loc 1 199 0
 579 004c 0220     		movs	r0, #2
 580              	.LVL76:
 581 004e 10BD     		pop	{r4, pc}
 582              	.LVL77:
 583              	.L59:
 204:lvgl\src\lv_widgets/lv_btn.c ****     }
 584              		.loc 1 204 0
 585 0050 0320     		movs	r0, #3
 586              	.LVL78:
 587              	.L56:
 210:lvgl\src\lv_widgets/lv_btn.c **** 
 588              		.loc 1 210 0
 589 0052 10BD     		pop	{r4, pc}
ARM GAS  C:\Users\strap\AppData\Local\Temp\cc54kd2Z.s 			page 19


 590              	.LVL79:
 591              	.L62:
 592              		.align	2
 593              	.L61:
 594 0054 10000000 		.word	.LC1
 595              		.cfi_endproc
 596              	.LFE343:
 597              		.size	lv_btn_get_state, .-lv_btn_get_state
 598              		.section	.text.lv_btn_get_checkable,"ax",%progbits
 599              		.align	2
 600              		.global	lv_btn_get_checkable
 601              		.thumb
 602              		.thumb_func
 603              		.type	lv_btn_get_checkable, %function
 604              	lv_btn_get_checkable:
 605              	.LFB344:
 218:lvgl\src\lv_widgets/lv_btn.c ****     LV_ASSERT_OBJ(btn, LV_OBJX_NAME);
 606              		.loc 1 218 0
 607              		.cfi_startproc
 608              		@ args = 0, pretend = 0, frame = 0
 609              		@ frame_needed = 0, uses_anonymous_args = 0
 610              	.LVL80:
 611 0000 10B5     		push	{r4, lr}
 612              		.cfi_def_cfa_offset 8
 613              		.cfi_offset 4, -8
 614              		.cfi_offset 14, -4
 615 0002 0446     		mov	r4, r0
 219:lvgl\src\lv_widgets/lv_btn.c **** 
 616              		.loc 1 219 0
 617 0004 FFF7FEFF 		bl	lv_debug_check_null
 618              	.LVL81:
 619 0008 28B9     		cbnz	r0, .L64
 219:lvgl\src\lv_widgets/lv_btn.c **** 
 620              		.loc 1 219 0 is_stmt 0 discriminator 1
 621 000a 2246     		mov	r2, r4
 622 000c 0023     		movs	r3, #0
 623 000e 0548     		ldr	r0, .L67
 624 0010 FFF7FEFF 		bl	lv_debug_log_error
 625              	.LVL82:
 626              	.L65:
 627 0014 FEE7     		b	.L65
 628              	.L64:
 221:lvgl\src\lv_widgets/lv_btn.c **** 
 629              		.loc 1 221 0 is_stmt 1
 630 0016 2046     		mov	r0, r4
 631 0018 FFF7FEFF 		bl	lv_obj_get_ext_attr
 632              	.LVL83:
 223:lvgl\src\lv_widgets/lv_btn.c **** }
 633              		.loc 1 223 0
 634 001c 8078     		ldrb	r0, [r0, #2]	@ zero_extendqisi2
 635              	.LVL84:
 224:lvgl\src\lv_widgets/lv_btn.c **** 
 636              		.loc 1 224 0
 637 001e 00F00100 		and	r0, r0, #1
 638 0022 10BD     		pop	{r4, pc}
 639              	.LVL85:
 640              	.L68:
ARM GAS  C:\Users\strap\AppData\Local\Temp\cc54kd2Z.s 			page 20


 641              		.align	2
 642              	.L67:
 643 0024 10000000 		.word	.LC1
 644              		.cfi_endproc
 645              	.LFE344:
 646              		.size	lv_btn_get_checkable, .-lv_btn_get_checkable
 647              		.section	.text.lv_btn_signal,"ax",%progbits
 648              		.align	2
 649              		.thumb
 650              		.thumb_func
 651              		.type	lv_btn_signal, %function
 652              	lv_btn_signal:
 653              	.LFB346:
 254:lvgl\src\lv_widgets/lv_btn.c **** 
 255:lvgl\src\lv_widgets/lv_btn.c **** /**
 256:lvgl\src\lv_widgets/lv_btn.c ****  * Signal function of the button
 257:lvgl\src\lv_widgets/lv_btn.c ****  * @param btn pointer to a button object
 258:lvgl\src\lv_widgets/lv_btn.c ****  * @param sign a signal type from lv_signal_t enum
 259:lvgl\src\lv_widgets/lv_btn.c ****  * @param param pointer to a signal specific variable
 260:lvgl\src\lv_widgets/lv_btn.c ****  * @return LV_RES_OK: the object is not deleted in the function; LV_RES_INV: the object is deleted
 261:lvgl\src\lv_widgets/lv_btn.c ****  */
 262:lvgl\src\lv_widgets/lv_btn.c **** static lv_res_t lv_btn_signal(lv_obj_t * btn, lv_signal_t sign, void * param)
 263:lvgl\src\lv_widgets/lv_btn.c **** {
 654              		.loc 1 263 0
 655              		.cfi_startproc
 656              		@ args = 0, pretend = 0, frame = 8
 657              		@ frame_needed = 0, uses_anonymous_args = 0
 658              	.LVL86:
 659 0000 2DE9F041 		push	{r4, r5, r6, r7, r8, lr}
 660              		.cfi_def_cfa_offset 24
 661              		.cfi_offset 4, -24
 662              		.cfi_offset 5, -20
 663              		.cfi_offset 6, -16
 664              		.cfi_offset 7, -12
 665              		.cfi_offset 8, -8
 666              		.cfi_offset 14, -4
 667 0004 82B0     		sub	sp, sp, #8
 668              		.cfi_def_cfa_offset 32
 669 0006 0646     		mov	r6, r0
 670 0008 0D46     		mov	r5, r1
 671 000a 1746     		mov	r7, r2
 264:lvgl\src\lv_widgets/lv_btn.c ****     lv_res_t res;
 265:lvgl\src\lv_widgets/lv_btn.c **** 
 266:lvgl\src\lv_widgets/lv_btn.c ****     /* Include the ancient signal function */
 267:lvgl\src\lv_widgets/lv_btn.c ****     res = ancestor_signal(btn, sign, param);
 672              		.loc 1 267 0
 673 000c 384B     		ldr	r3, .L89
 674 000e 5B68     		ldr	r3, [r3, #4]
 675 0010 9847     		blx	r3
 676              	.LVL87:
 677 0012 0446     		mov	r4, r0
 678              	.LVL88:
 268:lvgl\src\lv_widgets/lv_btn.c ****     if(res != LV_RES_OK) return res;
 679              		.loc 1 268 0
 680 0014 0128     		cmp	r0, #1
 681 0016 5CD1     		bne	.L81
 269:lvgl\src\lv_widgets/lv_btn.c ****     if(sign == LV_SIGNAL_GET_TYPE) return lv_obj_handle_get_type_signal(param, LV_OBJX_NAME);
ARM GAS  C:\Users\strap\AppData\Local\Temp\cc54kd2Z.s 			page 21


 682              		.loc 1 269 0
 683 0018 072D     		cmp	r5, #7
 684 001a 04D1     		bne	.L71
 685              		.loc 1 269 0 is_stmt 0 discriminator 1
 686 001c 3549     		ldr	r1, .L89+4
 687 001e 3846     		mov	r0, r7
 688              	.LVL89:
 689 0020 FFF7FEFF 		bl	lv_obj_handle_get_type_signal
 690              	.LVL90:
 691 0024 61E0     		b	.L70
 692              	.LVL91:
 693              	.L71:
 270:lvgl\src\lv_widgets/lv_btn.c **** 
 271:lvgl\src\lv_widgets/lv_btn.c ****     bool tgl           = lv_btn_get_checkable(btn);
 694              		.loc 1 271 0 is_stmt 1
 695 0026 3046     		mov	r0, r6
 696              	.LVL92:
 697 0028 FFF7FEFF 		bl	lv_btn_get_checkable
 698              	.LVL93:
 699 002c 8046     		mov	r8, r0
 700              	.LVL94:
 272:lvgl\src\lv_widgets/lv_btn.c **** 
 273:lvgl\src\lv_widgets/lv_btn.c ****     if(sign == LV_SIGNAL_RELEASED) {
 701              		.loc 1 273 0
 702 002e 0E2D     		cmp	r5, #14
 703 0030 22D1     		bne	.L72
 274:lvgl\src\lv_widgets/lv_btn.c ****         /*If not dragged and it was not long press action then
 275:lvgl\src\lv_widgets/lv_btn.c ****          *change state and run the action*/
 276:lvgl\src\lv_widgets/lv_btn.c ****         if(lv_indev_is_dragging(param) == false && tgl) {
 704              		.loc 1 276 0
 705 0032 3846     		mov	r0, r7
 706 0034 FFF7FEFF 		bl	lv_indev_is_dragging
 707              	.LVL95:
 708 0038 0028     		cmp	r0, #0
 709 003a 4BD1     		bne	.L82
 710              		.loc 1 276 0 is_stmt 0 discriminator 1
 711 003c B8F1000F 		cmp	r8, #0
 712 0040 4AD0     		beq	.L83
 713              	.LBB8:
 277:lvgl\src\lv_widgets/lv_btn.c ****             uint32_t toggled = 0;
 714              		.loc 1 277 0 is_stmt 1
 715 0042 0021     		movs	r1, #0
 716 0044 0191     		str	r1, [sp, #4]
 278:lvgl\src\lv_widgets/lv_btn.c ****             if(lv_obj_get_state(btn, LV_BTN_PART_MAIN) & LV_STATE_CHECKED) {
 717              		.loc 1 278 0
 718 0046 3046     		mov	r0, r6
 719 0048 FFF7FEFF 		bl	lv_obj_get_state
 720              	.LVL96:
 721 004c 10F0010F 		tst	r0, #1
 722 0050 06D0     		beq	.L73
 279:lvgl\src\lv_widgets/lv_btn.c ****                 lv_btn_set_state(btn, LV_BTN_STATE_RELEASED);
 723              		.loc 1 279 0
 724 0052 0021     		movs	r1, #0
 725 0054 3046     		mov	r0, r6
 726 0056 FFF7FEFF 		bl	lv_btn_set_state
 727              	.LVL97:
 280:lvgl\src\lv_widgets/lv_btn.c ****                 toggled = 0;
ARM GAS  C:\Users\strap\AppData\Local\Temp\cc54kd2Z.s 			page 22


 728              		.loc 1 280 0
 729 005a 0023     		movs	r3, #0
 730 005c 0193     		str	r3, [sp, #4]
 731 005e 05E0     		b	.L74
 732              	.L73:
 281:lvgl\src\lv_widgets/lv_btn.c ****             }
 282:lvgl\src\lv_widgets/lv_btn.c ****             else {
 283:lvgl\src\lv_widgets/lv_btn.c ****                 lv_btn_set_state(btn, LV_BTN_STATE_CHECKED_RELEASED);
 733              		.loc 1 283 0
 734 0060 0321     		movs	r1, #3
 735 0062 3046     		mov	r0, r6
 736 0064 FFF7FEFF 		bl	lv_btn_set_state
 737              	.LVL98:
 284:lvgl\src\lv_widgets/lv_btn.c ****                 toggled = 1;
 738              		.loc 1 284 0
 739 0068 0123     		movs	r3, #1
 740 006a 0193     		str	r3, [sp, #4]
 741              	.L74:
 285:lvgl\src\lv_widgets/lv_btn.c ****             }
 286:lvgl\src\lv_widgets/lv_btn.c **** 
 287:lvgl\src\lv_widgets/lv_btn.c ****             res = lv_event_send(btn, LV_EVENT_VALUE_CHANGED, &toggled);
 742              		.loc 1 287 0
 743 006c 01AA     		add	r2, sp, #4
 744 006e 1021     		movs	r1, #16
 745 0070 3046     		mov	r0, r6
 746 0072 FFF7FEFF 		bl	lv_event_send
 747              	.LVL99:
 748 0076 38E0     		b	.L70
 749              	.LVL100:
 750              	.L72:
 751              	.LBE8:
 288:lvgl\src\lv_widgets/lv_btn.c ****             if(res != LV_RES_OK) return res;
 289:lvgl\src\lv_widgets/lv_btn.c ****         }
 290:lvgl\src\lv_widgets/lv_btn.c ****     }
 291:lvgl\src\lv_widgets/lv_btn.c ****     else if(sign == LV_SIGNAL_CONTROL) {
 752              		.loc 1 291 0
 753 0078 182D     		cmp	r5, #24
 754 007a 2FD1     		bne	.L84
 755              	.LBB9:
 292:lvgl\src\lv_widgets/lv_btn.c **** #if LV_USE_GROUP
 293:lvgl\src\lv_widgets/lv_btn.c ****         char c = *((char *)param);
 756              		.loc 1 293 0
 757 007c 3B78     		ldrb	r3, [r7]	@ zero_extendqisi2
 758              	.LVL101:
 294:lvgl\src\lv_widgets/lv_btn.c ****         if(c == LV_KEY_RIGHT || c == LV_KEY_UP) {
 759              		.loc 1 294 0
 760 007e 132B     		cmp	r3, #19
 761 0080 01D0     		beq	.L76
 762              		.loc 1 294 0 is_stmt 0 discriminator 1
 763 0082 112B     		cmp	r3, #17
 764 0084 10D1     		bne	.L77
 765              	.L76:
 295:lvgl\src\lv_widgets/lv_btn.c ****             if(lv_btn_get_checkable(btn)) {
 766              		.loc 1 295 0 is_stmt 1
 767 0086 3046     		mov	r0, r6
 768 0088 FFF7FEFF 		bl	lv_btn_get_checkable
 769              	.LVL102:
ARM GAS  C:\Users\strap\AppData\Local\Temp\cc54kd2Z.s 			page 23


 770 008c 40B3     		cbz	r0, .L85
 771              	.LBB10:
 296:lvgl\src\lv_widgets/lv_btn.c ****                 lv_btn_set_state(btn, LV_BTN_STATE_CHECKED_RELEASED);
 772              		.loc 1 296 0
 773 008e 0321     		movs	r1, #3
 774 0090 3046     		mov	r0, r6
 775 0092 FFF7FEFF 		bl	lv_btn_set_state
 776              	.LVL103:
 297:lvgl\src\lv_widgets/lv_btn.c **** 
 298:lvgl\src\lv_widgets/lv_btn.c ****                 uint32_t state = 1;
 777              		.loc 1 298 0
 778 0096 02AA     		add	r2, sp, #8
 779 0098 0123     		movs	r3, #1
 780 009a 42F8043D 		str	r3, [r2, #-4]!
 299:lvgl\src\lv_widgets/lv_btn.c ****                 res            = lv_event_send(btn, LV_EVENT_VALUE_CHANGED, &state);
 781              		.loc 1 299 0
 782 009e 1021     		movs	r1, #16
 783 00a0 3046     		mov	r0, r6
 784 00a2 FFF7FEFF 		bl	lv_event_send
 785              	.LVL104:
 786 00a6 20E0     		b	.L70
 787              	.LVL105:
 788              	.L77:
 789              	.LBE10:
 300:lvgl\src\lv_widgets/lv_btn.c ****                 if(res != LV_RES_OK) return res;
 301:lvgl\src\lv_widgets/lv_btn.c ****             }
 302:lvgl\src\lv_widgets/lv_btn.c **** 
 303:lvgl\src\lv_widgets/lv_btn.c ****         }
 304:lvgl\src\lv_widgets/lv_btn.c ****         else if(c == LV_KEY_LEFT || c == LV_KEY_DOWN) {
 790              		.loc 1 304 0
 791 00a8 142B     		cmp	r3, #20
 792 00aa 01D0     		beq	.L79
 793              		.loc 1 304 0 is_stmt 0 discriminator 1
 794 00ac 122B     		cmp	r3, #18
 795 00ae 19D1     		bne	.L86
 796              	.L79:
 305:lvgl\src\lv_widgets/lv_btn.c ****             if(lv_btn_get_checkable(btn)) {
 797              		.loc 1 305 0 is_stmt 1
 798 00b0 3046     		mov	r0, r6
 799 00b2 FFF7FEFF 		bl	lv_btn_get_checkable
 800              	.LVL106:
 801 00b6 B8B1     		cbz	r0, .L87
 802              	.LBB11:
 306:lvgl\src\lv_widgets/lv_btn.c ****                 lv_btn_set_state(btn, LV_BTN_STATE_RELEASED);
 803              		.loc 1 306 0
 804 00b8 0021     		movs	r1, #0
 805 00ba 3046     		mov	r0, r6
 806 00bc FFF7FEFF 		bl	lv_btn_set_state
 807              	.LVL107:
 307:lvgl\src\lv_widgets/lv_btn.c **** 
 308:lvgl\src\lv_widgets/lv_btn.c ****                 uint32_t state = 0;
 808              		.loc 1 308 0
 809 00c0 02AA     		add	r2, sp, #8
 810 00c2 0023     		movs	r3, #0
 811 00c4 42F8043D 		str	r3, [r2, #-4]!
 309:lvgl\src\lv_widgets/lv_btn.c ****                 res            = lv_event_send(btn, LV_EVENT_VALUE_CHANGED, &state);
 812              		.loc 1 309 0
ARM GAS  C:\Users\strap\AppData\Local\Temp\cc54kd2Z.s 			page 24


 813 00c8 1021     		movs	r1, #16
 814 00ca 3046     		mov	r0, r6
 815 00cc FFF7FEFF 		bl	lv_event_send
 816              	.LVL108:
 817 00d0 0BE0     		b	.L70
 818              	.LVL109:
 819              	.L81:
 820 00d2 0AE0     		b	.L70
 821              	.LVL110:
 822              	.L82:
 823              	.LBE11:
 824              	.LBE9:
 267:lvgl\src\lv_widgets/lv_btn.c ****     if(res != LV_RES_OK) return res;
 825              		.loc 1 267 0
 826 00d4 2046     		mov	r0, r4
 827 00d6 08E0     		b	.L70
 828              	.L83:
 829 00d8 2046     		mov	r0, r4
 830 00da 06E0     		b	.L70
 831              	.L84:
 832 00dc 2046     		mov	r0, r4
 833 00de 04E0     		b	.L70
 834              	.L85:
 835 00e0 2046     		mov	r0, r4
 836 00e2 02E0     		b	.L70
 837              	.LVL111:
 838              	.L86:
 839 00e4 2046     		mov	r0, r4
 840 00e6 00E0     		b	.L70
 841              	.LVL112:
 842              	.L87:
 843 00e8 2046     		mov	r0, r4
 844              	.LVL113:
 845              	.L70:
 310:lvgl\src\lv_widgets/lv_btn.c ****                 if(res != LV_RES_OK) return res;
 311:lvgl\src\lv_widgets/lv_btn.c ****             }
 312:lvgl\src\lv_widgets/lv_btn.c ****         }
 313:lvgl\src\lv_widgets/lv_btn.c **** #endif
 314:lvgl\src\lv_widgets/lv_btn.c ****     }
 315:lvgl\src\lv_widgets/lv_btn.c **** 
 316:lvgl\src\lv_widgets/lv_btn.c ****     return res;
 317:lvgl\src\lv_widgets/lv_btn.c **** }
 846              		.loc 1 317 0
 847 00ea 02B0     		add	sp, sp, #8
 848              		.cfi_def_cfa_offset 24
 849              		@ sp needed
 850 00ec BDE8F081 		pop	{r4, r5, r6, r7, r8, pc}
 851              	.LVL114:
 852              	.L90:
 853              		.align	2
 854              	.L89:
 855 00f0 00000000 		.word	.LANCHOR0
 856 00f4 20000000 		.word	.LC2
 857              		.cfi_endproc
 858              	.LFE346:
 859              		.size	lv_btn_signal, .-lv_btn_signal
 860              		.section	.rodata.str1.4,"aMS",%progbits,1
ARM GAS  C:\Users\strap\AppData\Local\Temp\cc54kd2Z.s 			page 25


 861              		.align	2
 862              	.LC0:
 863 0000 4F757420 		.ascii	"Out of memory\000"
 863      6F66206D 
 863      656D6F72 
 863      7900
 864 000e 0000     		.space	2
 865              	.LC1:
 866 0010 4E554C4C 		.ascii	"NULL pointer\000"
 866      20706F69 
 866      6E746572 
 866      00
 867 001d 000000   		.space	3
 868              	.LC2:
 869 0020 6C765F62 		.ascii	"lv_btn\000"
 869      746E00
 870              		.bss
 871              		.align	2
 872              		.set	.LANCHOR0,. + 0
 873              		.type	ancestor_design, %object
 874              		.size	ancestor_design, 4
 875              	ancestor_design:
 876 0000 00000000 		.space	4
 877              		.type	ancestor_signal, %object
 878              		.size	ancestor_signal, 4
 879              	ancestor_signal:
 880 0004 00000000 		.space	4
 881              		.text
 882              	.Letext0:
 883              		.file 3 "c:\\program files (x86)\\cypress\\psoc creator\\4.4\\psoc creator\\import\\gnu\\arm\\5.4.
 884              		.file 4 "c:\\program files (x86)\\cypress\\psoc creator\\4.4\\psoc creator\\import\\gnu\\arm\\5.4.
 885              		.file 5 "lvgl\\src\\lv_widgets\\../../../lv_conf.h"
 886              		.file 6 "lvgl\\src\\lv_widgets\\../lv_core/../lv_font/../lv_misc/lv_types.h"
 887              		.file 7 "lvgl\\src\\lv_widgets\\../lv_core/../lv_font/../lv_misc/lv_area.h"
 888              		.file 8 "lvgl\\src\\lv_widgets\\../lv_core/lv_style.h"
 889              		.file 9 "lvgl\\src\\lv_widgets\\../lv_core/../lv_hal/../lv_misc/lv_ll.h"
 890              		.file 10 "lvgl\\src\\lv_widgets\\../lv_core/lv_obj.h"
 891              		.file 11 "lvgl\\src\\lv_widgets\\../lv_core/../lv_hal/lv_hal_indev.h"
 892              		.file 12 "lvgl\\src\\lv_widgets\\../lv_core/../lv_draw/../lv_misc/lv_bidi.h"
 893              		.file 13 "lvgl\\src\\lv_widgets\\lv_cont.h"
 894              		.file 14 "lvgl\\src\\lv_widgets\\../lv_core/../lv_core/lv_group.h"
 895              		.file 15 "lvgl\\src\\lv_widgets\\../lv_themes/lv_theme.h"
 896              		.file 16 "lvgl\\src\\lv_widgets\\../lv_core/../lv_misc/lv_debug.h"
 897              		.file 17 "lvgl\\src\\lv_widgets\\../lv_core/lv_indev.h"