ARM GAS  C:\Users\strap\AppData\Local\Temp\cc7wbcEe.s 			page 1


   1              		.syntax unified
   2              		.cpu cortex-m3
   3              		.fpu softvfp
   4              		.eabi_attribute 20, 1
   5              		.eabi_attribute 21, 1
   6              		.eabi_attribute 23, 3
   7              		.eabi_attribute 24, 1
   8              		.eabi_attribute 25, 1
   9              		.eabi_attribute 26, 1
  10              		.eabi_attribute 30, 1
  11              		.eabi_attribute 34, 1
  12              		.eabi_attribute 18, 4
  13              		.thumb
  14              		.syntax unified
  15              		.file	"lv_cont.c"
  16              		.text
  17              	.Ltext0:
  18              		.cfi_sections	.debug_frame
  19              		.section	.text.lv_cont_get_style,"ax",%progbits
  20              		.align	2
  21              		.thumb
  22              		.thumb_func
  23              		.type	lv_cont_get_style, %function
  24              	lv_cont_get_style:
  25              	.LFB339:
  26              		.file 1 "lvgl\\src\\lv_widgets\\lv_cont.c"
   1:lvgl\src\lv_widgets/lv_cont.c **** /**
   2:lvgl\src\lv_widgets/lv_cont.c ****  * @file lv_cont.c
   3:lvgl\src\lv_widgets/lv_cont.c ****  *
   4:lvgl\src\lv_widgets/lv_cont.c ****  */
   5:lvgl\src\lv_widgets/lv_cont.c **** 
   6:lvgl\src\lv_widgets/lv_cont.c **** /*********************
   7:lvgl\src\lv_widgets/lv_cont.c ****  *      INCLUDES
   8:lvgl\src\lv_widgets/lv_cont.c ****  *********************/
   9:lvgl\src\lv_widgets/lv_cont.c **** 
  10:lvgl\src\lv_widgets/lv_cont.c **** #include "lv_cont.h"
  11:lvgl\src\lv_widgets/lv_cont.c **** #if LV_USE_CONT != 0
  12:lvgl\src\lv_widgets/lv_cont.c **** 
  13:lvgl\src\lv_widgets/lv_cont.c **** #include <stdbool.h>
  14:lvgl\src\lv_widgets/lv_cont.c **** #include <stdint.h>
  15:lvgl\src\lv_widgets/lv_cont.c **** #include <string.h>
  16:lvgl\src\lv_widgets/lv_cont.c **** 
  17:lvgl\src\lv_widgets/lv_cont.c **** #include "../lv_misc/lv_debug.h"
  18:lvgl\src\lv_widgets/lv_cont.c **** #include "../lv_draw/lv_draw.h"
  19:lvgl\src\lv_widgets/lv_cont.c **** #include "../lv_draw/lv_draw_mask.h"
  20:lvgl\src\lv_widgets/lv_cont.c **** #include "../lv_themes/lv_theme.h"
  21:lvgl\src\lv_widgets/lv_cont.c **** #include "../lv_misc/lv_area.h"
  22:lvgl\src\lv_widgets/lv_cont.c **** #include "../lv_misc/lv_color.h"
  23:lvgl\src\lv_widgets/lv_cont.c **** #include "../lv_misc/lv_math.h"
  24:lvgl\src\lv_widgets/lv_cont.c **** 
  25:lvgl\src\lv_widgets/lv_cont.c **** /*********************
  26:lvgl\src\lv_widgets/lv_cont.c ****  *      DEFINES
  27:lvgl\src\lv_widgets/lv_cont.c ****  *********************/
  28:lvgl\src\lv_widgets/lv_cont.c **** #define LV_OBJX_NAME "lv_cont"
  29:lvgl\src\lv_widgets/lv_cont.c **** 
  30:lvgl\src\lv_widgets/lv_cont.c **** /**********************
  31:lvgl\src\lv_widgets/lv_cont.c ****  *      TYPEDEFS
ARM GAS  C:\Users\strap\AppData\Local\Temp\cc7wbcEe.s 			page 2


  32:lvgl\src\lv_widgets/lv_cont.c ****  **********************/
  33:lvgl\src\lv_widgets/lv_cont.c **** 
  34:lvgl\src\lv_widgets/lv_cont.c **** /**********************
  35:lvgl\src\lv_widgets/lv_cont.c ****  *  STATIC PROTOTYPES
  36:lvgl\src\lv_widgets/lv_cont.c ****  **********************/
  37:lvgl\src\lv_widgets/lv_cont.c **** static lv_res_t lv_cont_signal(lv_obj_t * cont, lv_signal_t sign, void * param);
  38:lvgl\src\lv_widgets/lv_cont.c **** static lv_style_list_t * lv_cont_get_style(lv_obj_t * cont, uint8_t type);
  39:lvgl\src\lv_widgets/lv_cont.c **** static void lv_cont_refr_layout(lv_obj_t * cont);
  40:lvgl\src\lv_widgets/lv_cont.c **** static void lv_cont_layout_col(lv_obj_t * cont);
  41:lvgl\src\lv_widgets/lv_cont.c **** static void lv_cont_layout_row(lv_obj_t * cont);
  42:lvgl\src\lv_widgets/lv_cont.c **** static void lv_cont_layout_center(lv_obj_t * cont);
  43:lvgl\src\lv_widgets/lv_cont.c **** static void lv_cont_layout_pretty(lv_obj_t * cont);
  44:lvgl\src\lv_widgets/lv_cont.c **** static void lv_cont_layout_grid(lv_obj_t * cont);
  45:lvgl\src\lv_widgets/lv_cont.c **** static void lv_cont_refr_autofit(lv_obj_t * cont);
  46:lvgl\src\lv_widgets/lv_cont.c **** 
  47:lvgl\src\lv_widgets/lv_cont.c **** /**********************
  48:lvgl\src\lv_widgets/lv_cont.c ****  *  STATIC VARIABLES
  49:lvgl\src\lv_widgets/lv_cont.c ****  **********************/
  50:lvgl\src\lv_widgets/lv_cont.c **** static lv_design_cb_t ancestor_design;
  51:lvgl\src\lv_widgets/lv_cont.c **** static lv_signal_cb_t ancestor_signal;
  52:lvgl\src\lv_widgets/lv_cont.c **** 
  53:lvgl\src\lv_widgets/lv_cont.c **** /**********************
  54:lvgl\src\lv_widgets/lv_cont.c ****  *      MACROS
  55:lvgl\src\lv_widgets/lv_cont.c ****  **********************/
  56:lvgl\src\lv_widgets/lv_cont.c **** 
  57:lvgl\src\lv_widgets/lv_cont.c **** /**********************
  58:lvgl\src\lv_widgets/lv_cont.c ****  *   GLOBAL FUNCTIONS
  59:lvgl\src\lv_widgets/lv_cont.c ****  **********************/
  60:lvgl\src\lv_widgets/lv_cont.c **** 
  61:lvgl\src\lv_widgets/lv_cont.c **** /**
  62:lvgl\src\lv_widgets/lv_cont.c ****  * Create a container objects
  63:lvgl\src\lv_widgets/lv_cont.c ****  * @param par pointer to an object, it will be the parent of the new container
  64:lvgl\src\lv_widgets/lv_cont.c ****  * @param copy pointer to a container object, if not NULL then the new object will be copied from i
  65:lvgl\src\lv_widgets/lv_cont.c ****  * @return pointer to the created container
  66:lvgl\src\lv_widgets/lv_cont.c ****  */
  67:lvgl\src\lv_widgets/lv_cont.c **** lv_obj_t * lv_cont_create(lv_obj_t * par, const lv_obj_t * copy)
  68:lvgl\src\lv_widgets/lv_cont.c **** {
  69:lvgl\src\lv_widgets/lv_cont.c **** 
  70:lvgl\src\lv_widgets/lv_cont.c ****     LV_LOG_TRACE("container create started");
  71:lvgl\src\lv_widgets/lv_cont.c **** 
  72:lvgl\src\lv_widgets/lv_cont.c ****     /*Create a basic object*/
  73:lvgl\src\lv_widgets/lv_cont.c ****     lv_obj_t * cont = lv_obj_create(par, copy);
  74:lvgl\src\lv_widgets/lv_cont.c ****     LV_ASSERT_MEM(cont);
  75:lvgl\src\lv_widgets/lv_cont.c ****     if(cont == NULL) return NULL;
  76:lvgl\src\lv_widgets/lv_cont.c **** 
  77:lvgl\src\lv_widgets/lv_cont.c ****     if(ancestor_signal == NULL) ancestor_signal = lv_obj_get_signal_cb(cont);
  78:lvgl\src\lv_widgets/lv_cont.c ****     if(ancestor_design == NULL) ancestor_design = lv_obj_get_design_cb(cont);
  79:lvgl\src\lv_widgets/lv_cont.c **** 
  80:lvgl\src\lv_widgets/lv_cont.c ****     lv_obj_allocate_ext_attr(cont, sizeof(lv_cont_ext_t));
  81:lvgl\src\lv_widgets/lv_cont.c ****     lv_cont_ext_t * ext = lv_obj_get_ext_attr(cont);
  82:lvgl\src\lv_widgets/lv_cont.c ****     if(ext == NULL) {
  83:lvgl\src\lv_widgets/lv_cont.c ****         lv_obj_del(cont);
  84:lvgl\src\lv_widgets/lv_cont.c ****         return NULL;
  85:lvgl\src\lv_widgets/lv_cont.c ****     }
  86:lvgl\src\lv_widgets/lv_cont.c **** 
  87:lvgl\src\lv_widgets/lv_cont.c ****     LV_ASSERT_MEM(ext);
  88:lvgl\src\lv_widgets/lv_cont.c ****     ext->fit_left   = LV_FIT_NONE;
ARM GAS  C:\Users\strap\AppData\Local\Temp\cc7wbcEe.s 			page 3


  89:lvgl\src\lv_widgets/lv_cont.c ****     ext->fit_right  = LV_FIT_NONE;
  90:lvgl\src\lv_widgets/lv_cont.c ****     ext->fit_top    = LV_FIT_NONE;
  91:lvgl\src\lv_widgets/lv_cont.c ****     ext->fit_bottom = LV_FIT_NONE;
  92:lvgl\src\lv_widgets/lv_cont.c ****     ext->layout     = LV_LAYOUT_OFF;
  93:lvgl\src\lv_widgets/lv_cont.c **** 
  94:lvgl\src\lv_widgets/lv_cont.c ****     lv_obj_set_signal_cb(cont, lv_cont_signal);
  95:lvgl\src\lv_widgets/lv_cont.c **** 
  96:lvgl\src\lv_widgets/lv_cont.c ****     /*Init the new container*/
  97:lvgl\src\lv_widgets/lv_cont.c ****     if(copy == NULL) {
  98:lvgl\src\lv_widgets/lv_cont.c ****         /*Set the default styles if it's not screen*/
  99:lvgl\src\lv_widgets/lv_cont.c ****         if(par != NULL) {
 100:lvgl\src\lv_widgets/lv_cont.c ****             lv_theme_apply(cont, LV_THEME_CONT);
 101:lvgl\src\lv_widgets/lv_cont.c ****         }
 102:lvgl\src\lv_widgets/lv_cont.c **** 
 103:lvgl\src\lv_widgets/lv_cont.c **** 
 104:lvgl\src\lv_widgets/lv_cont.c ****     }
 105:lvgl\src\lv_widgets/lv_cont.c ****     /*Copy an existing object*/
 106:lvgl\src\lv_widgets/lv_cont.c ****     else {
 107:lvgl\src\lv_widgets/lv_cont.c ****         lv_cont_ext_t * copy_ext = lv_obj_get_ext_attr(copy);
 108:lvgl\src\lv_widgets/lv_cont.c ****         ext->fit_left            = copy_ext->fit_left;
 109:lvgl\src\lv_widgets/lv_cont.c ****         ext->fit_right           = copy_ext->fit_right;
 110:lvgl\src\lv_widgets/lv_cont.c ****         ext->fit_top             = copy_ext->fit_top;
 111:lvgl\src\lv_widgets/lv_cont.c ****         ext->fit_bottom          = copy_ext->fit_bottom;
 112:lvgl\src\lv_widgets/lv_cont.c ****         ext->layout              = copy_ext->layout;
 113:lvgl\src\lv_widgets/lv_cont.c **** 
 114:lvgl\src\lv_widgets/lv_cont.c ****         /*Refresh the style with new signal function*/
 115:lvgl\src\lv_widgets/lv_cont.c ****         lv_obj_refresh_style(cont, LV_OBJ_PART_ALL, LV_STYLE_PROP_ALL);
 116:lvgl\src\lv_widgets/lv_cont.c ****     }
 117:lvgl\src\lv_widgets/lv_cont.c **** 
 118:lvgl\src\lv_widgets/lv_cont.c ****     LV_LOG_INFO("container created");
 119:lvgl\src\lv_widgets/lv_cont.c **** 
 120:lvgl\src\lv_widgets/lv_cont.c ****     return cont;
 121:lvgl\src\lv_widgets/lv_cont.c **** }
 122:lvgl\src\lv_widgets/lv_cont.c **** 
 123:lvgl\src\lv_widgets/lv_cont.c **** /*=====================
 124:lvgl\src\lv_widgets/lv_cont.c ****  * Setter functions
 125:lvgl\src\lv_widgets/lv_cont.c ****  *====================*/
 126:lvgl\src\lv_widgets/lv_cont.c **** 
 127:lvgl\src\lv_widgets/lv_cont.c **** /**
 128:lvgl\src\lv_widgets/lv_cont.c ****  * Set a layout on a container
 129:lvgl\src\lv_widgets/lv_cont.c ****  * @param cont pointer to a container object
 130:lvgl\src\lv_widgets/lv_cont.c ****  * @param layout a layout from 'lv_cont_layout_t'
 131:lvgl\src\lv_widgets/lv_cont.c ****  */
 132:lvgl\src\lv_widgets/lv_cont.c **** void lv_cont_set_layout(lv_obj_t * cont, lv_layout_t layout)
 133:lvgl\src\lv_widgets/lv_cont.c **** {
 134:lvgl\src\lv_widgets/lv_cont.c ****     LV_ASSERT_OBJ(cont, LV_OBJX_NAME);
 135:lvgl\src\lv_widgets/lv_cont.c **** 
 136:lvgl\src\lv_widgets/lv_cont.c ****     lv_cont_ext_t * ext = lv_obj_get_ext_attr(cont);
 137:lvgl\src\lv_widgets/lv_cont.c ****     if(ext->layout == layout) return;
 138:lvgl\src\lv_widgets/lv_cont.c **** 
 139:lvgl\src\lv_widgets/lv_cont.c ****     ext->layout = layout;
 140:lvgl\src\lv_widgets/lv_cont.c **** 
 141:lvgl\src\lv_widgets/lv_cont.c ****     /*Send a signal to refresh the layout*/
 142:lvgl\src\lv_widgets/lv_cont.c ****     cont->signal_cb(cont, LV_SIGNAL_CHILD_CHG, NULL);
 143:lvgl\src\lv_widgets/lv_cont.c **** }
 144:lvgl\src\lv_widgets/lv_cont.c **** 
 145:lvgl\src\lv_widgets/lv_cont.c **** /**
ARM GAS  C:\Users\strap\AppData\Local\Temp\cc7wbcEe.s 			page 4


 146:lvgl\src\lv_widgets/lv_cont.c ****  * Set the fit policy in all 4 directions separately.
 147:lvgl\src\lv_widgets/lv_cont.c ****  * It tell how to change the container's size automatically.
 148:lvgl\src\lv_widgets/lv_cont.c ****  * @param cont pointer to a container object
 149:lvgl\src\lv_widgets/lv_cont.c ****  * @param left left fit policy from `lv_fit_t`
 150:lvgl\src\lv_widgets/lv_cont.c ****  * @param right right fit policy from `lv_fit_t`
 151:lvgl\src\lv_widgets/lv_cont.c ****  * @param top bottom fit policy from `lv_fit_t`
 152:lvgl\src\lv_widgets/lv_cont.c ****  * @param bottom bottom fit policy from `lv_fit_t`
 153:lvgl\src\lv_widgets/lv_cont.c ****  */
 154:lvgl\src\lv_widgets/lv_cont.c **** void lv_cont_set_fit4(lv_obj_t * cont, lv_fit_t left, lv_fit_t right, lv_fit_t top, lv_fit_t bottom
 155:lvgl\src\lv_widgets/lv_cont.c **** {
 156:lvgl\src\lv_widgets/lv_cont.c ****     LV_ASSERT_OBJ(cont, LV_OBJX_NAME);
 157:lvgl\src\lv_widgets/lv_cont.c **** 
 158:lvgl\src\lv_widgets/lv_cont.c ****     lv_obj_invalidate(cont);
 159:lvgl\src\lv_widgets/lv_cont.c ****     lv_cont_ext_t * ext = lv_obj_get_ext_attr(cont);
 160:lvgl\src\lv_widgets/lv_cont.c ****     if(ext->fit_left == left && ext->fit_right == right && ext->fit_top == top && ext->fit_bottom =
 161:lvgl\src\lv_widgets/lv_cont.c ****         return;
 162:lvgl\src\lv_widgets/lv_cont.c ****     }
 163:lvgl\src\lv_widgets/lv_cont.c **** 
 164:lvgl\src\lv_widgets/lv_cont.c ****     ext->fit_left   = left;
 165:lvgl\src\lv_widgets/lv_cont.c ****     ext->fit_right  = right;
 166:lvgl\src\lv_widgets/lv_cont.c ****     ext->fit_top    = top;
 167:lvgl\src\lv_widgets/lv_cont.c ****     ext->fit_bottom = bottom;
 168:lvgl\src\lv_widgets/lv_cont.c **** 
 169:lvgl\src\lv_widgets/lv_cont.c ****     /*Send a signal to refresh the layout*/
 170:lvgl\src\lv_widgets/lv_cont.c ****     cont->signal_cb(cont, LV_SIGNAL_CHILD_CHG, NULL);
 171:lvgl\src\lv_widgets/lv_cont.c **** }
 172:lvgl\src\lv_widgets/lv_cont.c **** 
 173:lvgl\src\lv_widgets/lv_cont.c **** /*=====================
 174:lvgl\src\lv_widgets/lv_cont.c ****  * Getter functions
 175:lvgl\src\lv_widgets/lv_cont.c ****  *====================*/
 176:lvgl\src\lv_widgets/lv_cont.c **** 
 177:lvgl\src\lv_widgets/lv_cont.c **** /**
 178:lvgl\src\lv_widgets/lv_cont.c ****  * Get the layout of a container
 179:lvgl\src\lv_widgets/lv_cont.c ****  * @param cont pointer to container object
 180:lvgl\src\lv_widgets/lv_cont.c ****  * @return the layout from 'lv_cont_layout_t'
 181:lvgl\src\lv_widgets/lv_cont.c ****  */
 182:lvgl\src\lv_widgets/lv_cont.c **** lv_layout_t lv_cont_get_layout(const lv_obj_t * cont)
 183:lvgl\src\lv_widgets/lv_cont.c **** {
 184:lvgl\src\lv_widgets/lv_cont.c ****     LV_ASSERT_OBJ(cont, LV_OBJX_NAME);
 185:lvgl\src\lv_widgets/lv_cont.c **** 
 186:lvgl\src\lv_widgets/lv_cont.c ****     lv_cont_ext_t * ext = lv_obj_get_ext_attr(cont);
 187:lvgl\src\lv_widgets/lv_cont.c ****     return ext->layout;
 188:lvgl\src\lv_widgets/lv_cont.c **** }
 189:lvgl\src\lv_widgets/lv_cont.c **** 
 190:lvgl\src\lv_widgets/lv_cont.c **** /**
 191:lvgl\src\lv_widgets/lv_cont.c ****  * Get left fit mode of a container
 192:lvgl\src\lv_widgets/lv_cont.c ****  * @param cont pointer to a container object
 193:lvgl\src\lv_widgets/lv_cont.c ****  * @return an element of `lv_fit_t`
 194:lvgl\src\lv_widgets/lv_cont.c ****  */
 195:lvgl\src\lv_widgets/lv_cont.c **** lv_fit_t lv_cont_get_fit_left(const lv_obj_t * cont)
 196:lvgl\src\lv_widgets/lv_cont.c **** {
 197:lvgl\src\lv_widgets/lv_cont.c ****     LV_ASSERT_OBJ(cont, LV_OBJX_NAME);
 198:lvgl\src\lv_widgets/lv_cont.c **** 
 199:lvgl\src\lv_widgets/lv_cont.c ****     lv_cont_ext_t * ext = lv_obj_get_ext_attr(cont);
 200:lvgl\src\lv_widgets/lv_cont.c ****     return ext->fit_left;
 201:lvgl\src\lv_widgets/lv_cont.c **** }
 202:lvgl\src\lv_widgets/lv_cont.c **** 
ARM GAS  C:\Users\strap\AppData\Local\Temp\cc7wbcEe.s 			page 5


 203:lvgl\src\lv_widgets/lv_cont.c **** /**
 204:lvgl\src\lv_widgets/lv_cont.c ****  * Get right fit mode of a container
 205:lvgl\src\lv_widgets/lv_cont.c ****  * @param cont pointer to a container object
 206:lvgl\src\lv_widgets/lv_cont.c ****  * @return an element of `lv_fit_t`
 207:lvgl\src\lv_widgets/lv_cont.c ****  */
 208:lvgl\src\lv_widgets/lv_cont.c **** lv_fit_t lv_cont_get_fit_right(const lv_obj_t * cont)
 209:lvgl\src\lv_widgets/lv_cont.c **** {
 210:lvgl\src\lv_widgets/lv_cont.c ****     LV_ASSERT_OBJ(cont, LV_OBJX_NAME);
 211:lvgl\src\lv_widgets/lv_cont.c **** 
 212:lvgl\src\lv_widgets/lv_cont.c ****     lv_cont_ext_t * ext = lv_obj_get_ext_attr(cont);
 213:lvgl\src\lv_widgets/lv_cont.c ****     return ext->fit_right;
 214:lvgl\src\lv_widgets/lv_cont.c **** }
 215:lvgl\src\lv_widgets/lv_cont.c **** 
 216:lvgl\src\lv_widgets/lv_cont.c **** /**
 217:lvgl\src\lv_widgets/lv_cont.c ****  * Get top fit mode of a container
 218:lvgl\src\lv_widgets/lv_cont.c ****  * @param cont pointer to a container object
 219:lvgl\src\lv_widgets/lv_cont.c ****  * @return an element of `lv_fit_t`
 220:lvgl\src\lv_widgets/lv_cont.c ****  */
 221:lvgl\src\lv_widgets/lv_cont.c **** lv_fit_t lv_cont_get_fit_top(const lv_obj_t * cont)
 222:lvgl\src\lv_widgets/lv_cont.c **** {
 223:lvgl\src\lv_widgets/lv_cont.c ****     LV_ASSERT_OBJ(cont, LV_OBJX_NAME);
 224:lvgl\src\lv_widgets/lv_cont.c **** 
 225:lvgl\src\lv_widgets/lv_cont.c ****     lv_cont_ext_t * ext = lv_obj_get_ext_attr(cont);
 226:lvgl\src\lv_widgets/lv_cont.c ****     return ext->fit_top;
 227:lvgl\src\lv_widgets/lv_cont.c **** }
 228:lvgl\src\lv_widgets/lv_cont.c **** 
 229:lvgl\src\lv_widgets/lv_cont.c **** /**
 230:lvgl\src\lv_widgets/lv_cont.c ****  * Get bottom fit mode of a container
 231:lvgl\src\lv_widgets/lv_cont.c ****  * @param cont pointer to a container object
 232:lvgl\src\lv_widgets/lv_cont.c ****  * @return an element of `lv_fit_t`
 233:lvgl\src\lv_widgets/lv_cont.c ****  */
 234:lvgl\src\lv_widgets/lv_cont.c **** lv_fit_t lv_cont_get_fit_bottom(const lv_obj_t * cont)
 235:lvgl\src\lv_widgets/lv_cont.c **** {
 236:lvgl\src\lv_widgets/lv_cont.c ****     LV_ASSERT_OBJ(cont, LV_OBJX_NAME);
 237:lvgl\src\lv_widgets/lv_cont.c **** 
 238:lvgl\src\lv_widgets/lv_cont.c ****     lv_cont_ext_t * ext = lv_obj_get_ext_attr(cont);
 239:lvgl\src\lv_widgets/lv_cont.c ****     return ext->fit_bottom;
 240:lvgl\src\lv_widgets/lv_cont.c **** }
 241:lvgl\src\lv_widgets/lv_cont.c **** 
 242:lvgl\src\lv_widgets/lv_cont.c **** /**********************
 243:lvgl\src\lv_widgets/lv_cont.c ****  *   STATIC FUNCTIONS
 244:lvgl\src\lv_widgets/lv_cont.c ****  **********************/
 245:lvgl\src\lv_widgets/lv_cont.c **** 
 246:lvgl\src\lv_widgets/lv_cont.c **** /**
 247:lvgl\src\lv_widgets/lv_cont.c ****  * Signal function of the container
 248:lvgl\src\lv_widgets/lv_cont.c ****  * @param cont pointer to a container object
 249:lvgl\src\lv_widgets/lv_cont.c ****  * @param sign a signal type from lv_signal_t enum
 250:lvgl\src\lv_widgets/lv_cont.c ****  * @param param pointer to a signal specific variable
 251:lvgl\src\lv_widgets/lv_cont.c ****  * @return LV_RES_OK: the object is not deleted in the function; LV_RES_INV: the object is deleted
 252:lvgl\src\lv_widgets/lv_cont.c ****  */
 253:lvgl\src\lv_widgets/lv_cont.c **** static lv_res_t lv_cont_signal(lv_obj_t * cont, lv_signal_t sign, void * param)
 254:lvgl\src\lv_widgets/lv_cont.c **** {
 255:lvgl\src\lv_widgets/lv_cont.c ****     if(sign == LV_SIGNAL_GET_STYLE) {
 256:lvgl\src\lv_widgets/lv_cont.c ****         lv_get_style_info_t * info = param;
 257:lvgl\src\lv_widgets/lv_cont.c ****         info->result = lv_cont_get_style(cont, info->part);
 258:lvgl\src\lv_widgets/lv_cont.c ****         if(info->result != NULL) return LV_RES_OK;
 259:lvgl\src\lv_widgets/lv_cont.c ****         else return ancestor_signal(cont, sign, param);
ARM GAS  C:\Users\strap\AppData\Local\Temp\cc7wbcEe.s 			page 6


 260:lvgl\src\lv_widgets/lv_cont.c ****     }
 261:lvgl\src\lv_widgets/lv_cont.c **** 
 262:lvgl\src\lv_widgets/lv_cont.c ****     lv_res_t res;
 263:lvgl\src\lv_widgets/lv_cont.c **** 
 264:lvgl\src\lv_widgets/lv_cont.c ****     /* Include the ancient signal function */
 265:lvgl\src\lv_widgets/lv_cont.c ****     res = ancestor_signal(cont, sign, param);
 266:lvgl\src\lv_widgets/lv_cont.c ****     if(res != LV_RES_OK) return res;
 267:lvgl\src\lv_widgets/lv_cont.c ****     if(sign == LV_SIGNAL_GET_TYPE) return lv_obj_handle_get_type_signal(param, LV_OBJX_NAME);
 268:lvgl\src\lv_widgets/lv_cont.c **** 
 269:lvgl\src\lv_widgets/lv_cont.c ****     if(sign == LV_SIGNAL_STYLE_CHG) { /*Recalculate the padding if the style changed*/
 270:lvgl\src\lv_widgets/lv_cont.c ****         lv_cont_refr_layout(cont);
 271:lvgl\src\lv_widgets/lv_cont.c ****         lv_cont_refr_autofit(cont);
 272:lvgl\src\lv_widgets/lv_cont.c ****     }
 273:lvgl\src\lv_widgets/lv_cont.c ****     else if(sign == LV_SIGNAL_CHILD_CHG) {
 274:lvgl\src\lv_widgets/lv_cont.c ****         lv_cont_refr_layout(cont);
 275:lvgl\src\lv_widgets/lv_cont.c ****         lv_cont_refr_autofit(cont);
 276:lvgl\src\lv_widgets/lv_cont.c ****     }
 277:lvgl\src\lv_widgets/lv_cont.c ****     else if(sign == LV_SIGNAL_COORD_CHG) {
 278:lvgl\src\lv_widgets/lv_cont.c ****         if(lv_obj_get_width(cont) != lv_area_get_width(param) || lv_obj_get_height(cont) != lv_area
 279:lvgl\src\lv_widgets/lv_cont.c ****             lv_cont_refr_layout(cont);
 280:lvgl\src\lv_widgets/lv_cont.c ****             lv_cont_refr_autofit(cont);
 281:lvgl\src\lv_widgets/lv_cont.c ****         }
 282:lvgl\src\lv_widgets/lv_cont.c ****     }
 283:lvgl\src\lv_widgets/lv_cont.c ****     else if(sign == LV_SIGNAL_PARENT_SIZE_CHG) {
 284:lvgl\src\lv_widgets/lv_cont.c ****         /*MAX and EDGE fit needs to be refreshed if the parent's size has changed*/
 285:lvgl\src\lv_widgets/lv_cont.c ****         lv_cont_refr_autofit(cont);
 286:lvgl\src\lv_widgets/lv_cont.c ****     }
 287:lvgl\src\lv_widgets/lv_cont.c **** 
 288:lvgl\src\lv_widgets/lv_cont.c ****     return res;
 289:lvgl\src\lv_widgets/lv_cont.c **** }
 290:lvgl\src\lv_widgets/lv_cont.c **** 
 291:lvgl\src\lv_widgets/lv_cont.c **** 
 292:lvgl\src\lv_widgets/lv_cont.c **** static lv_style_list_t * lv_cont_get_style(lv_obj_t * cont, uint8_t type)
 293:lvgl\src\lv_widgets/lv_cont.c **** {
  27              		.loc 1 293 0
  28              		.cfi_startproc
  29              		@ args = 0, pretend = 0, frame = 0
  30              		@ frame_needed = 0, uses_anonymous_args = 0
  31              		@ link register save eliminated.
  32              	.LVL0:
 294:lvgl\src\lv_widgets/lv_cont.c ****     lv_style_list_t * style_dsc_p;
 295:lvgl\src\lv_widgets/lv_cont.c ****     switch(type) {
  33              		.loc 1 295 0
  34 0000 09B9     		cbnz	r1, .L5
 296:lvgl\src\lv_widgets/lv_cont.c ****         case LV_CONT_PART_MAIN:
 297:lvgl\src\lv_widgets/lv_cont.c ****             style_dsc_p = &cont->style_list;
  35              		.loc 1 297 0
  36 0002 2830     		adds	r0, r0, #40
  37              	.LVL1:
 298:lvgl\src\lv_widgets/lv_cont.c ****             break;
  38              		.loc 1 298 0
  39 0004 7047     		bx	lr
  40              	.LVL2:
  41              	.L5:
 299:lvgl\src\lv_widgets/lv_cont.c ****         default:
 300:lvgl\src\lv_widgets/lv_cont.c ****             style_dsc_p = NULL;
  42              		.loc 1 300 0
ARM GAS  C:\Users\strap\AppData\Local\Temp\cc7wbcEe.s 			page 7


  43 0006 0020     		movs	r0, #0
  44              	.LVL3:
 301:lvgl\src\lv_widgets/lv_cont.c ****     }
 302:lvgl\src\lv_widgets/lv_cont.c **** 
 303:lvgl\src\lv_widgets/lv_cont.c ****     return style_dsc_p;
 304:lvgl\src\lv_widgets/lv_cont.c **** }
  45              		.loc 1 304 0
  46 0008 7047     		bx	lr
  47              		.cfi_endproc
  48              	.LFE339:
  49              		.size	lv_cont_get_style, .-lv_cont_get_style
  50 000a 00BF     		.section	.text.lv_cont_layout_center,"ax",%progbits
  51              		.align	2
  52              		.thumb
  53              		.thumb_func
  54              		.type	lv_cont_layout_center, %function
  55              	lv_cont_layout_center:
  56              	.LFB343:
 305:lvgl\src\lv_widgets/lv_cont.c **** 
 306:lvgl\src\lv_widgets/lv_cont.c **** /**
 307:lvgl\src\lv_widgets/lv_cont.c ****  * Refresh the layout of a container
 308:lvgl\src\lv_widgets/lv_cont.c ****  * @param cont pointer to an object which layout should be refreshed
 309:lvgl\src\lv_widgets/lv_cont.c ****  */
 310:lvgl\src\lv_widgets/lv_cont.c **** static void lv_cont_refr_layout(lv_obj_t * cont)
 311:lvgl\src\lv_widgets/lv_cont.c **** {
 312:lvgl\src\lv_widgets/lv_cont.c ****     if(lv_obj_is_protected(cont, LV_PROTECT_CHILD_CHG)) return;
 313:lvgl\src\lv_widgets/lv_cont.c ****     lv_layout_t type = lv_cont_get_layout(cont);
 314:lvgl\src\lv_widgets/lv_cont.c **** 
 315:lvgl\src\lv_widgets/lv_cont.c ****     /*'cont' has to be at least 1 child*/
 316:lvgl\src\lv_widgets/lv_cont.c ****     if(lv_obj_get_child(cont, NULL) == NULL) return;
 317:lvgl\src\lv_widgets/lv_cont.c **** 
 318:lvgl\src\lv_widgets/lv_cont.c ****     if(type == LV_LAYOUT_OFF) return;
 319:lvgl\src\lv_widgets/lv_cont.c **** 
 320:lvgl\src\lv_widgets/lv_cont.c ****     if(type == LV_LAYOUT_CENTER) {
 321:lvgl\src\lv_widgets/lv_cont.c ****         lv_cont_layout_center(cont);
 322:lvgl\src\lv_widgets/lv_cont.c ****     }
 323:lvgl\src\lv_widgets/lv_cont.c ****     else if(type == LV_LAYOUT_COLUMN_LEFT || type == LV_LAYOUT_COLUMN_MID || type == LV_LAYOUT_COLU
 324:lvgl\src\lv_widgets/lv_cont.c ****         lv_cont_layout_col(cont);
 325:lvgl\src\lv_widgets/lv_cont.c ****     }
 326:lvgl\src\lv_widgets/lv_cont.c ****     else if(type == LV_LAYOUT_ROW_TOP || type == LV_LAYOUT_ROW_MID || type == LV_LAYOUT_ROW_BOTTOM)
 327:lvgl\src\lv_widgets/lv_cont.c ****         lv_cont_layout_row(cont);
 328:lvgl\src\lv_widgets/lv_cont.c ****     }
 329:lvgl\src\lv_widgets/lv_cont.c ****     else if(type == LV_LAYOUT_PRETTY_MID || type == LV_LAYOUT_PRETTY_TOP || type == LV_LAYOUT_PRETT
 330:lvgl\src\lv_widgets/lv_cont.c ****         lv_cont_layout_pretty(cont);
 331:lvgl\src\lv_widgets/lv_cont.c ****     }
 332:lvgl\src\lv_widgets/lv_cont.c ****     else if(type == LV_LAYOUT_GRID) {
 333:lvgl\src\lv_widgets/lv_cont.c ****         lv_cont_layout_grid(cont);
 334:lvgl\src\lv_widgets/lv_cont.c ****     }
 335:lvgl\src\lv_widgets/lv_cont.c **** }
 336:lvgl\src\lv_widgets/lv_cont.c **** 
 337:lvgl\src\lv_widgets/lv_cont.c **** /**
 338:lvgl\src\lv_widgets/lv_cont.c ****  * Handle column type layouts
 339:lvgl\src\lv_widgets/lv_cont.c ****  * @param cont pointer to an object which layout should be handled
 340:lvgl\src\lv_widgets/lv_cont.c ****  */
 341:lvgl\src\lv_widgets/lv_cont.c **** static void lv_cont_layout_col(lv_obj_t * cont)
 342:lvgl\src\lv_widgets/lv_cont.c **** {
 343:lvgl\src\lv_widgets/lv_cont.c ****     lv_coord_t left = lv_obj_get_style_pad_left(cont, LV_CONT_PART_MAIN);
ARM GAS  C:\Users\strap\AppData\Local\Temp\cc7wbcEe.s 			page 8


 344:lvgl\src\lv_widgets/lv_cont.c ****     lv_coord_t right = lv_obj_get_style_pad_right(cont, LV_CONT_PART_MAIN);
 345:lvgl\src\lv_widgets/lv_cont.c ****     lv_coord_t top = lv_obj_get_style_pad_top(cont, LV_CONT_PART_MAIN);
 346:lvgl\src\lv_widgets/lv_cont.c ****     lv_coord_t inner = lv_obj_get_style_pad_inner(cont, LV_CONT_PART_MAIN);
 347:lvgl\src\lv_widgets/lv_cont.c **** 
 348:lvgl\src\lv_widgets/lv_cont.c ****     lv_layout_t type = lv_cont_get_layout(cont);
 349:lvgl\src\lv_widgets/lv_cont.c ****     lv_obj_t * child;
 350:lvgl\src\lv_widgets/lv_cont.c **** 
 351:lvgl\src\lv_widgets/lv_cont.c ****     /*Adjust margin and get the alignment type*/
 352:lvgl\src\lv_widgets/lv_cont.c ****     lv_align_t align;
 353:lvgl\src\lv_widgets/lv_cont.c ****     lv_coord_t hpad_corr;
 354:lvgl\src\lv_widgets/lv_cont.c **** 
 355:lvgl\src\lv_widgets/lv_cont.c ****     switch(type) {
 356:lvgl\src\lv_widgets/lv_cont.c ****         case LV_LAYOUT_COLUMN_LEFT:
 357:lvgl\src\lv_widgets/lv_cont.c ****             hpad_corr = left;
 358:lvgl\src\lv_widgets/lv_cont.c ****             align     = LV_ALIGN_IN_TOP_LEFT;
 359:lvgl\src\lv_widgets/lv_cont.c ****             break;
 360:lvgl\src\lv_widgets/lv_cont.c ****         case LV_LAYOUT_COLUMN_MID:
 361:lvgl\src\lv_widgets/lv_cont.c ****             hpad_corr = 0;
 362:lvgl\src\lv_widgets/lv_cont.c ****             align     = LV_ALIGN_IN_TOP_MID;
 363:lvgl\src\lv_widgets/lv_cont.c ****             break;
 364:lvgl\src\lv_widgets/lv_cont.c ****         case LV_LAYOUT_COLUMN_RIGHT:
 365:lvgl\src\lv_widgets/lv_cont.c ****             hpad_corr = -right;
 366:lvgl\src\lv_widgets/lv_cont.c ****             align     = LV_ALIGN_IN_TOP_RIGHT;
 367:lvgl\src\lv_widgets/lv_cont.c ****             break;
 368:lvgl\src\lv_widgets/lv_cont.c ****         default:
 369:lvgl\src\lv_widgets/lv_cont.c ****             hpad_corr = 0;
 370:lvgl\src\lv_widgets/lv_cont.c ****             align     = LV_ALIGN_IN_TOP_LEFT;
 371:lvgl\src\lv_widgets/lv_cont.c ****             break;
 372:lvgl\src\lv_widgets/lv_cont.c ****     }
 373:lvgl\src\lv_widgets/lv_cont.c **** 
 374:lvgl\src\lv_widgets/lv_cont.c ****     /* Disable child change action because the children will be moved a lot
 375:lvgl\src\lv_widgets/lv_cont.c ****      * an unnecessary child change signals could be sent*/
 376:lvgl\src\lv_widgets/lv_cont.c ****     lv_obj_add_protect(cont, LV_PROTECT_CHILD_CHG);
 377:lvgl\src\lv_widgets/lv_cont.c ****     /* Align the children */
 378:lvgl\src\lv_widgets/lv_cont.c ****     lv_coord_t last_cord = top;
 379:lvgl\src\lv_widgets/lv_cont.c ****     _LV_LL_READ_BACK(cont->child_ll, child) {
 380:lvgl\src\lv_widgets/lv_cont.c ****         if(lv_obj_get_hidden(child) != false || lv_obj_is_protected(child, LV_PROTECT_POS) != false
 381:lvgl\src\lv_widgets/lv_cont.c ****         lv_style_int_t mtop = lv_obj_get_style_margin_top(child, LV_OBJ_PART_MAIN);
 382:lvgl\src\lv_widgets/lv_cont.c ****         lv_style_int_t mbottom = lv_obj_get_style_margin_bottom(child, LV_OBJ_PART_MAIN);
 383:lvgl\src\lv_widgets/lv_cont.c ****         lv_style_int_t mleft = lv_obj_get_style_margin_left(child, LV_OBJ_PART_MAIN);
 384:lvgl\src\lv_widgets/lv_cont.c ****         lv_obj_align(child, cont, align, hpad_corr + mleft, last_cord + mtop);
 385:lvgl\src\lv_widgets/lv_cont.c ****         last_cord += lv_obj_get_height(child) + inner + mtop + mbottom;
 386:lvgl\src\lv_widgets/lv_cont.c ****     }
 387:lvgl\src\lv_widgets/lv_cont.c **** 
 388:lvgl\src\lv_widgets/lv_cont.c ****     lv_obj_clear_protect(cont, LV_PROTECT_CHILD_CHG);
 389:lvgl\src\lv_widgets/lv_cont.c **** }
 390:lvgl\src\lv_widgets/lv_cont.c **** 
 391:lvgl\src\lv_widgets/lv_cont.c **** /**
 392:lvgl\src\lv_widgets/lv_cont.c ****  * Handle row type layouts
 393:lvgl\src\lv_widgets/lv_cont.c ****  * @param cont pointer to an object which layout should be handled
 394:lvgl\src\lv_widgets/lv_cont.c ****  */
 395:lvgl\src\lv_widgets/lv_cont.c **** static void lv_cont_layout_row(lv_obj_t * cont)
 396:lvgl\src\lv_widgets/lv_cont.c **** {
 397:lvgl\src\lv_widgets/lv_cont.c **** 
 398:lvgl\src\lv_widgets/lv_cont.c ****     lv_layout_t type = lv_cont_get_layout(cont);
 399:lvgl\src\lv_widgets/lv_cont.c ****     lv_obj_t * child;
 400:lvgl\src\lv_widgets/lv_cont.c **** 
ARM GAS  C:\Users\strap\AppData\Local\Temp\cc7wbcEe.s 			page 9


 401:lvgl\src\lv_widgets/lv_cont.c ****     /*Adjust margin and get the alignment type*/
 402:lvgl\src\lv_widgets/lv_cont.c ****     lv_align_t align;
 403:lvgl\src\lv_widgets/lv_cont.c ****     lv_coord_t vpad_corr;
 404:lvgl\src\lv_widgets/lv_cont.c ****     lv_bidi_dir_t base_dir = lv_obj_get_base_dir(cont);
 405:lvgl\src\lv_widgets/lv_cont.c ****     switch(type) {
 406:lvgl\src\lv_widgets/lv_cont.c ****         case LV_LAYOUT_ROW_TOP:
 407:lvgl\src\lv_widgets/lv_cont.c ****             vpad_corr = lv_obj_get_style_pad_top(cont, LV_CONT_PART_MAIN);
 408:lvgl\src\lv_widgets/lv_cont.c ****             align     = base_dir == LV_BIDI_DIR_RTL ? LV_ALIGN_IN_TOP_RIGHT : LV_ALIGN_IN_TOP_LEFT;
 409:lvgl\src\lv_widgets/lv_cont.c ****             break;
 410:lvgl\src\lv_widgets/lv_cont.c ****         case LV_LAYOUT_ROW_MID:
 411:lvgl\src\lv_widgets/lv_cont.c ****             vpad_corr = 0;
 412:lvgl\src\lv_widgets/lv_cont.c ****             align     = base_dir == LV_BIDI_DIR_RTL ? LV_ALIGN_IN_RIGHT_MID : LV_ALIGN_IN_LEFT_MID;
 413:lvgl\src\lv_widgets/lv_cont.c ****             break;
 414:lvgl\src\lv_widgets/lv_cont.c ****         case LV_LAYOUT_ROW_BOTTOM:
 415:lvgl\src\lv_widgets/lv_cont.c ****             vpad_corr = -lv_obj_get_style_pad_bottom(cont, LV_CONT_PART_MAIN);
 416:lvgl\src\lv_widgets/lv_cont.c ****             align     = base_dir == LV_BIDI_DIR_RTL ? LV_ALIGN_IN_BOTTOM_RIGHT : LV_ALIGN_IN_BOTTOM
 417:lvgl\src\lv_widgets/lv_cont.c ****             break;
 418:lvgl\src\lv_widgets/lv_cont.c ****         default:
 419:lvgl\src\lv_widgets/lv_cont.c ****             vpad_corr = 0;
 420:lvgl\src\lv_widgets/lv_cont.c ****             align     = base_dir == LV_BIDI_DIR_RTL ? LV_ALIGN_IN_TOP_RIGHT : LV_ALIGN_IN_TOP_LEFT;
 421:lvgl\src\lv_widgets/lv_cont.c ****             break;
 422:lvgl\src\lv_widgets/lv_cont.c ****     }
 423:lvgl\src\lv_widgets/lv_cont.c **** 
 424:lvgl\src\lv_widgets/lv_cont.c ****     /* Disable child change action because the children will be moved a lot
 425:lvgl\src\lv_widgets/lv_cont.c ****      * an unnecessary child change signals could be sent*/
 426:lvgl\src\lv_widgets/lv_cont.c ****     lv_obj_add_protect(cont, LV_PROTECT_CHILD_CHG);
 427:lvgl\src\lv_widgets/lv_cont.c **** 
 428:lvgl\src\lv_widgets/lv_cont.c ****     /* Align the children */
 429:lvgl\src\lv_widgets/lv_cont.c ****     lv_coord_t last_cord;
 430:lvgl\src\lv_widgets/lv_cont.c ****     if(base_dir == LV_BIDI_DIR_RTL) last_cord = lv_obj_get_style_pad_right(cont, LV_CONT_PART_MAIN)
 431:lvgl\src\lv_widgets/lv_cont.c ****     else last_cord = lv_obj_get_style_pad_left(cont, LV_CONT_PART_MAIN);
 432:lvgl\src\lv_widgets/lv_cont.c **** 
 433:lvgl\src\lv_widgets/lv_cont.c ****     lv_coord_t inner = lv_obj_get_style_pad_inner(cont, LV_CONT_PART_MAIN);
 434:lvgl\src\lv_widgets/lv_cont.c **** 
 435:lvgl\src\lv_widgets/lv_cont.c ****     _LV_LL_READ_BACK(cont->child_ll, child) {
 436:lvgl\src\lv_widgets/lv_cont.c ****         if(lv_obj_get_hidden(child) != false || lv_obj_is_protected(child, LV_PROTECT_POS) != false
 437:lvgl\src\lv_widgets/lv_cont.c **** 
 438:lvgl\src\lv_widgets/lv_cont.c ****         if(base_dir == LV_BIDI_DIR_RTL) lv_obj_align(child, cont, align, -last_cord, vpad_corr);
 439:lvgl\src\lv_widgets/lv_cont.c ****         else lv_obj_align(child, cont, align, last_cord, vpad_corr);
 440:lvgl\src\lv_widgets/lv_cont.c **** 
 441:lvgl\src\lv_widgets/lv_cont.c ****         last_cord += lv_obj_get_width(child) + inner;
 442:lvgl\src\lv_widgets/lv_cont.c ****     }
 443:lvgl\src\lv_widgets/lv_cont.c **** 
 444:lvgl\src\lv_widgets/lv_cont.c ****     lv_obj_clear_protect(cont, LV_PROTECT_CHILD_CHG);
 445:lvgl\src\lv_widgets/lv_cont.c **** }
 446:lvgl\src\lv_widgets/lv_cont.c **** 
 447:lvgl\src\lv_widgets/lv_cont.c **** /**
 448:lvgl\src\lv_widgets/lv_cont.c ****  * Handle the center layout
 449:lvgl\src\lv_widgets/lv_cont.c ****  * @param cont pointer to an object which layout should be handled
 450:lvgl\src\lv_widgets/lv_cont.c ****  */
 451:lvgl\src\lv_widgets/lv_cont.c **** static void lv_cont_layout_center(lv_obj_t * cont)
 452:lvgl\src\lv_widgets/lv_cont.c **** {
  57              		.loc 1 452 0
  58              		.cfi_startproc
  59              		@ args = 0, pretend = 0, frame = 0
  60              		@ frame_needed = 0, uses_anonymous_args = 0
  61              	.LVL4:
ARM GAS  C:\Users\strap\AppData\Local\Temp\cc7wbcEe.s 			page 10


  62 0000 2DE9F043 		push	{r4, r5, r6, r7, r8, r9, lr}
  63              		.cfi_def_cfa_offset 28
  64              		.cfi_offset 4, -28
  65              		.cfi_offset 5, -24
  66              		.cfi_offset 6, -20
  67              		.cfi_offset 7, -16
  68              		.cfi_offset 8, -12
  69              		.cfi_offset 9, -8
  70              		.cfi_offset 14, -4
  71 0004 83B0     		sub	sp, sp, #12
  72              		.cfi_def_cfa_offset 40
  73 0006 0746     		mov	r7, r0
  74              	.LVL5:
  75              	.LBB118:
  76              	.LBB119:
  77              		.file 2 "lvgl\\src\\lv_widgets\\../lv_core/lv_obj_style_dec.h"
   1:lvgl\src\lv_widgets\../lv_core/lv_obj_style_dec.h **** 
   2:lvgl\src\lv_widgets\../lv_core/lv_obj_style_dec.h **** /**
   3:lvgl\src\lv_widgets\../lv_core/lv_obj_style_dec.h ****  * @file lv_obj_style_dec.h
   4:lvgl\src\lv_widgets\../lv_core/lv_obj_style_dec.h ****  *
   5:lvgl\src\lv_widgets\../lv_core/lv_obj_style_dec.h ****  */
   6:lvgl\src\lv_widgets\../lv_core/lv_obj_style_dec.h **** 
   7:lvgl\src\lv_widgets\../lv_core/lv_obj_style_dec.h **** #ifndef LV_OBJ_STYLE_DEC_H
   8:lvgl\src\lv_widgets\../lv_core/lv_obj_style_dec.h **** #define LV_OBJ_STYLE_DEC_H
   9:lvgl\src\lv_widgets\../lv_core/lv_obj_style_dec.h **** 
  10:lvgl\src\lv_widgets\../lv_core/lv_obj_style_dec.h **** #ifdef __cplusplus
  11:lvgl\src\lv_widgets\../lv_core/lv_obj_style_dec.h **** extern "C" {
  12:lvgl\src\lv_widgets\../lv_core/lv_obj_style_dec.h **** #endif
  13:lvgl\src\lv_widgets\../lv_core/lv_obj_style_dec.h **** 
  14:lvgl\src\lv_widgets\../lv_core/lv_obj_style_dec.h **** /*********************
  15:lvgl\src\lv_widgets\../lv_core/lv_obj_style_dec.h ****  *      DEFINES
  16:lvgl\src\lv_widgets\../lv_core/lv_obj_style_dec.h ****  *********************/
  17:lvgl\src\lv_widgets\../lv_core/lv_obj_style_dec.h **** 
  18:lvgl\src\lv_widgets\../lv_core/lv_obj_style_dec.h **** /**
  19:lvgl\src\lv_widgets\../lv_core/lv_obj_style_dec.h ****  * Macro to declare the most important style set/get API functions.
  20:lvgl\src\lv_widgets\../lv_core/lv_obj_style_dec.h ****  *
  21:lvgl\src\lv_widgets\../lv_core/lv_obj_style_dec.h ****  * Get the value of a style property from an object in the object's current state
  22:lvgl\src\lv_widgets\../lv_core/lv_obj_style_dec.h ****  * -----------------------------------------------------------------------------
  23:lvgl\src\lv_widgets\../lv_core/lv_obj_style_dec.h ****  *  - Get the value of a style property from an object in the object's current state.
  24:lvgl\src\lv_widgets\../lv_core/lv_obj_style_dec.h ****  *  - Transition animation is taken into account.
  25:lvgl\src\lv_widgets\../lv_core/lv_obj_style_dec.h ****  *  - If the property is not set in the object's styles check the parent(s) if the property can be 
  26:lvgl\src\lv_widgets\../lv_core/lv_obj_style_dec.h ****  *  - If still not found return a default value.
  27:lvgl\src\lv_widgets\../lv_core/lv_obj_style_dec.h ****  *  - For example:
  28:lvgl\src\lv_widgets\../lv_core/lv_obj_style_dec.h ****  *      `lv_style_int_t w = lv_obj_get_style_border_width(btn1, LV_BTN_PART_MAIN);`
  29:lvgl\src\lv_widgets\../lv_core/lv_obj_style_dec.h ****  *
  30:lvgl\src\lv_widgets\../lv_core/lv_obj_style_dec.h ****  * Set a local style property for an object in a given state
  31:lvgl\src\lv_widgets\../lv_core/lv_obj_style_dec.h ****  * ---------------------------------------------------------
  32:lvgl\src\lv_widgets\../lv_core/lv_obj_style_dec.h ****  *  - For example:
  33:lvgl\src\lv_widgets\../lv_core/lv_obj_style_dec.h ****  *      `lv_obj_set_style_local_border_width(btn1, LV_BTN_PART_MAIN, LV_STATE_PRESSED, 2);`
  34:lvgl\src\lv_widgets\../lv_core/lv_obj_style_dec.h ****  *
  35:lvgl\src\lv_widgets\../lv_core/lv_obj_style_dec.h ****  * Get a local style property's value of an object in a given state
  36:lvgl\src\lv_widgets\../lv_core/lv_obj_style_dec.h ****  * ----------------------------------------------------------------
  37:lvgl\src\lv_widgets\../lv_core/lv_obj_style_dec.h ****  *  - Return the best matching property in the given state.
  38:lvgl\src\lv_widgets\../lv_core/lv_obj_style_dec.h ****  *  - E.g. if `state` parameter is LV_STATE_PRESSED | LV_STATE_CHECKED` but the property defined on
  39:lvgl\src\lv_widgets\../lv_core/lv_obj_style_dec.h ****  *    `LV_STATE_PRESSED` and `LV_STATE_DEFAULT` the best matching state is `LV_STATE_PRESSED`
  40:lvgl\src\lv_widgets\../lv_core/lv_obj_style_dec.h ****  *    (because it has higher precedence) and it will be returned.
  41:lvgl\src\lv_widgets\../lv_core/lv_obj_style_dec.h ****  *  - If the property is not found even in `LV_STATE_DEFAULT` `-1` is returned.
ARM GAS  C:\Users\strap\AppData\Local\Temp\cc7wbcEe.s 			page 11


  42:lvgl\src\lv_widgets\../lv_core/lv_obj_style_dec.h ****  *  - For example:
  43:lvgl\src\lv_widgets\../lv_core/lv_obj_style_dec.h ****  *      `//Type of result should be lv_style_int_t/lv_opa_t/lv_color_t/const void * according to th
  44:lvgl\src\lv_widgets\../lv_core/lv_obj_style_dec.h ****  *      `lv_style_int_t result;`
  45:lvgl\src\lv_widgets\../lv_core/lv_obj_style_dec.h ****  *      `lv_obj_get_style_local_border_width(btn1, LV_BTN_PART_MAIN, LV_STATE_PRESSED, &result);`
  46:lvgl\src\lv_widgets\../lv_core/lv_obj_style_dec.h ****  *      `if(weight > 0) ...the property is found and loaded into result...`
  47:lvgl\src\lv_widgets\../lv_core/lv_obj_style_dec.h ****  *
  48:lvgl\src\lv_widgets\../lv_core/lv_obj_style_dec.h ****  * Get the value from a style in a given state
  49:lvgl\src\lv_widgets\../lv_core/lv_obj_style_dec.h ****  * -------------------------------------------
  50:lvgl\src\lv_widgets\../lv_core/lv_obj_style_dec.h ****  * - The same rules applies to the return value then for "lv_obj_get_style_local_...()" above
  51:lvgl\src\lv_widgets\../lv_core/lv_obj_style_dec.h ****  * - For example
  52:lvgl\src\lv_widgets\../lv_core/lv_obj_style_dec.h ****  *      `int16_t weight = lv_style_get_border_width(&style1, LV_STATE_PRESSED, &result);`
  53:lvgl\src\lv_widgets\../lv_core/lv_obj_style_dec.h ****  *      `if(weight > 0) ...the property is found and loaded into result...`
  54:lvgl\src\lv_widgets\../lv_core/lv_obj_style_dec.h **** 
  55:lvgl\src\lv_widgets\../lv_core/lv_obj_style_dec.h ****  * Set a value in a style in a given state
  56:lvgl\src\lv_widgets\../lv_core/lv_obj_style_dec.h ****  * ---------------------------------------
  57:lvgl\src\lv_widgets\../lv_core/lv_obj_style_dec.h ****  * - For example
  58:lvgl\src\lv_widgets\../lv_core/lv_obj_style_dec.h ****  *      `lv_style_set_border_width(&style1, LV_STATE_PRESSED, 2);`
  59:lvgl\src\lv_widgets\../lv_core/lv_obj_style_dec.h ****  */
  60:lvgl\src\lv_widgets\../lv_core/lv_obj_style_dec.h **** 
  61:lvgl\src\lv_widgets\../lv_core/lv_obj_style_dec.h **** #define _OBJ_GET_STYLE_scalar(prop_name, func_name, value_type, style_type)                        
  62:lvgl\src\lv_widgets\../lv_core/lv_obj_style_dec.h ****     static inline value_type lv_obj_get_style_##func_name (const lv_obj_t * obj, uint8_t part)     
  63:lvgl\src\lv_widgets\../lv_core/lv_obj_style_dec.h ****     {                                                                                              
  64:lvgl\src\lv_widgets\../lv_core/lv_obj_style_dec.h ****         return (value_type) _lv_obj_get_style##style_type (obj, part, LV_STYLE_##prop_name);       
  65:lvgl\src\lv_widgets\../lv_core/lv_obj_style_dec.h ****     }
  66:lvgl\src\lv_widgets\../lv_core/lv_obj_style_dec.h **** 
  67:lvgl\src\lv_widgets\../lv_core/lv_obj_style_dec.h **** #define _OBJ_GET_STYLE_nonscalar(prop_name, func_name, value_type, style_type)                     
  68:lvgl\src\lv_widgets\../lv_core/lv_obj_style_dec.h ****     static inline value_type lv_obj_get_style_##func_name (const lv_obj_t * obj, uint8_t part)     
  69:lvgl\src\lv_widgets\../lv_core/lv_obj_style_dec.h ****     {                                                                                              
  70:lvgl\src\lv_widgets\../lv_core/lv_obj_style_dec.h ****         return _lv_obj_get_style##style_type (obj, part, LV_STYLE_##prop_name);                    
  71:lvgl\src\lv_widgets\../lv_core/lv_obj_style_dec.h ****     }
  72:lvgl\src\lv_widgets\../lv_core/lv_obj_style_dec.h **** 
  73:lvgl\src\lv_widgets\../lv_core/lv_obj_style_dec.h **** #define _OBJ_SET_STYLE_LOCAL_scalar(prop_name, func_name, value_type, style_type)                  
  74:lvgl\src\lv_widgets\../lv_core/lv_obj_style_dec.h ****     static inline void lv_obj_set_style_local_##func_name (lv_obj_t * obj, uint8_t part, lv_state_t
  75:lvgl\src\lv_widgets\../lv_core/lv_obj_style_dec.h ****     {                                                                                              
  76:lvgl\src\lv_widgets\../lv_core/lv_obj_style_dec.h ****         _lv_obj_set_style_local##style_type (obj, part, LV_STYLE_##prop_name | (state << LV_STYLE_S
  77:lvgl\src\lv_widgets\../lv_core/lv_obj_style_dec.h ****     }
  78:lvgl\src\lv_widgets\../lv_core/lv_obj_style_dec.h **** 
  79:lvgl\src\lv_widgets\../lv_core/lv_obj_style_dec.h **** #define _OBJ_SET_STYLE_LOCAL_nonscalar(prop_name, func_name, value_type, style_type)               
  80:lvgl\src\lv_widgets\../lv_core/lv_obj_style_dec.h ****     static inline void lv_obj_set_style_local_##func_name (lv_obj_t * obj, uint8_t part, lv_state_t
  81:lvgl\src\lv_widgets\../lv_core/lv_obj_style_dec.h ****     {                                                                                              
  82:lvgl\src\lv_widgets\../lv_core/lv_obj_style_dec.h ****         _lv_obj_set_style_local##style_type (obj, part, LV_STYLE_##prop_name | (state << LV_STYLE_S
  83:lvgl\src\lv_widgets\../lv_core/lv_obj_style_dec.h ****     }
  84:lvgl\src\lv_widgets\../lv_core/lv_obj_style_dec.h **** 
  85:lvgl\src\lv_widgets\../lv_core/lv_obj_style_dec.h **** #define _OBJ_SET_STYLE_scalar(prop_name, func_name, value_type, style_type)                        
  86:lvgl\src\lv_widgets\../lv_core/lv_obj_style_dec.h ****     static inline void lv_style_set_##func_name (lv_style_t * style, lv_state_t state, value_type v
  87:lvgl\src\lv_widgets\../lv_core/lv_obj_style_dec.h ****     {                                                                                              
  88:lvgl\src\lv_widgets\../lv_core/lv_obj_style_dec.h ****         _lv_style_set##style_type (style, LV_STYLE_##prop_name | (state << LV_STYLE_STATE_POS), val
  89:lvgl\src\lv_widgets\../lv_core/lv_obj_style_dec.h ****     }
  90:lvgl\src\lv_widgets\../lv_core/lv_obj_style_dec.h **** 
  91:lvgl\src\lv_widgets\../lv_core/lv_obj_style_dec.h **** #define _OBJ_SET_STYLE_nonscalar(prop_name, func_name, value_type, style_type)                     
  92:lvgl\src\lv_widgets\../lv_core/lv_obj_style_dec.h ****     static inline void lv_style_set_##func_name (lv_style_t * style, lv_state_t state, value_type v
  93:lvgl\src\lv_widgets\../lv_core/lv_obj_style_dec.h ****     {                                                                                              
  94:lvgl\src\lv_widgets\../lv_core/lv_obj_style_dec.h ****         _lv_style_set##style_type (style, LV_STYLE_##prop_name | (state << LV_STYLE_STATE_POS), val
  95:lvgl\src\lv_widgets\../lv_core/lv_obj_style_dec.h ****     }
  96:lvgl\src\lv_widgets\../lv_core/lv_obj_style_dec.h **** 
  97:lvgl\src\lv_widgets\../lv_core/lv_obj_style_dec.h **** #define _LV_OBJ_STYLE_SET_GET_DECLARE(prop_name, func_name, value_type, style_type, scalar)        
  98:lvgl\src\lv_widgets\../lv_core/lv_obj_style_dec.h ****     _OBJ_GET_STYLE_##scalar(prop_name, func_name, value_type, style_type)                          
ARM GAS  C:\Users\strap\AppData\Local\Temp\cc7wbcEe.s 			page 12


  99:lvgl\src\lv_widgets\../lv_core/lv_obj_style_dec.h ****     _OBJ_SET_STYLE_LOCAL_##scalar(prop_name, func_name, value_type, style_type)                    
 100:lvgl\src\lv_widgets\../lv_core/lv_obj_style_dec.h ****     _OBJ_SET_STYLE_##scalar(prop_name, func_name, value_type, style_type)
 101:lvgl\src\lv_widgets\../lv_core/lv_obj_style_dec.h **** 
 102:lvgl\src\lv_widgets\../lv_core/lv_obj_style_dec.h **** _LV_OBJ_STYLE_SET_GET_DECLARE(RADIUS, radius, lv_style_int_t, _int, scalar)
 103:lvgl\src\lv_widgets\../lv_core/lv_obj_style_dec.h **** _LV_OBJ_STYLE_SET_GET_DECLARE(CLIP_CORNER, clip_corner, bool, _int, scalar)
 104:lvgl\src\lv_widgets\../lv_core/lv_obj_style_dec.h **** _LV_OBJ_STYLE_SET_GET_DECLARE(SIZE, size, lv_style_int_t, _int, scalar)
 105:lvgl\src\lv_widgets\../lv_core/lv_obj_style_dec.h **** _LV_OBJ_STYLE_SET_GET_DECLARE(TRANSFORM_WIDTH, transform_width, lv_style_int_t, _int, scalar)
 106:lvgl\src\lv_widgets\../lv_core/lv_obj_style_dec.h **** _LV_OBJ_STYLE_SET_GET_DECLARE(TRANSFORM_HEIGHT, transform_height, lv_style_int_t, _int, scalar)
 107:lvgl\src\lv_widgets\../lv_core/lv_obj_style_dec.h **** _LV_OBJ_STYLE_SET_GET_DECLARE(TRANSFORM_ANGLE, transform_angle, lv_style_int_t, _int, scalar)
 108:lvgl\src\lv_widgets\../lv_core/lv_obj_style_dec.h **** _LV_OBJ_STYLE_SET_GET_DECLARE(TRANSFORM_ZOOM, transform_zoom, lv_style_int_t, _int, scalar)
 109:lvgl\src\lv_widgets\../lv_core/lv_obj_style_dec.h **** _LV_OBJ_STYLE_SET_GET_DECLARE(OPA_SCALE, opa_scale, lv_opa_t, _opa, scalar)
 110:lvgl\src\lv_widgets\../lv_core/lv_obj_style_dec.h **** _LV_OBJ_STYLE_SET_GET_DECLARE(PAD_TOP, pad_top, lv_style_int_t, _int, scalar)
 111:lvgl\src\lv_widgets\../lv_core/lv_obj_style_dec.h **** _LV_OBJ_STYLE_SET_GET_DECLARE(PAD_BOTTOM, pad_bottom, lv_style_int_t, _int, scalar)
 112:lvgl\src\lv_widgets\../lv_core/lv_obj_style_dec.h **** _LV_OBJ_STYLE_SET_GET_DECLARE(PAD_LEFT, pad_left, lv_style_int_t, _int, scalar)
 113:lvgl\src\lv_widgets\../lv_core/lv_obj_style_dec.h **** _LV_OBJ_STYLE_SET_GET_DECLARE(PAD_RIGHT, pad_right, lv_style_int_t, _int, scalar)
 114:lvgl\src\lv_widgets\../lv_core/lv_obj_style_dec.h **** _LV_OBJ_STYLE_SET_GET_DECLARE(PAD_INNER, pad_inner, lv_style_int_t, _int, scalar)
  78              		.loc 2 114 0
  79 0008 1422     		movs	r2, #20
  80 000a 0021     		movs	r1, #0
  81 000c FFF7FEFF 		bl	_lv_obj_get_style_int
  82              	.LVL6:
  83 0010 8046     		mov	r8, r0
  84              	.LVL7:
  85              	.LBE119:
  86              	.LBE118:
 453:lvgl\src\lv_widgets/lv_cont.c ****     lv_obj_t * child;
 454:lvgl\src\lv_widgets/lv_cont.c ****     uint32_t obj_num         = 0;
 455:lvgl\src\lv_widgets/lv_cont.c ****     lv_coord_t h_tot         = 0;
 456:lvgl\src\lv_widgets/lv_cont.c **** 
 457:lvgl\src\lv_widgets/lv_cont.c ****     lv_coord_t inner = lv_obj_get_style_pad_inner(cont, LV_CONT_PART_MAIN);
 458:lvgl\src\lv_widgets/lv_cont.c ****     _LV_LL_READ(cont->child_ll, child) {
  87              		.loc 1 458 0
  88 0012 3D1D     		adds	r5, r7, #4
  89 0014 2846     		mov	r0, r5
  90 0016 FFF7FEFF 		bl	_lv_ll_get_head
  91              	.LVL8:
  92 001a 0446     		mov	r4, r0
  93              	.LVL9:
 455:lvgl\src\lv_widgets/lv_cont.c **** 
  94              		.loc 1 455 0
  95 001c 0026     		movs	r6, #0
 454:lvgl\src\lv_widgets/lv_cont.c ****     lv_coord_t h_tot         = 0;
  96              		.loc 1 454 0
  97 001e B146     		mov	r9, r6
  98              		.loc 1 458 0
  99 0020 15E0     		b	.L7
 100              	.LVL10:
 101              	.L11:
 459:lvgl\src\lv_widgets/lv_cont.c ****         if(lv_obj_get_hidden(child) != false || lv_obj_is_protected(child, LV_PROTECT_POS) != false
 102              		.loc 1 459 0
 103 0022 2046     		mov	r0, r4
 104              	.LVL11:
 105 0024 FFF7FEFF 		bl	lv_obj_get_hidden
 106              	.LVL12:
 107 0028 60B9     		cbnz	r0, .L10
 108              		.loc 1 459 0 is_stmt 0 discriminator 2
 109 002a 0421     		movs	r1, #4
ARM GAS  C:\Users\strap\AppData\Local\Temp\cc7wbcEe.s 			page 13


 110 002c 2046     		mov	r0, r4
 111 002e FFF7FEFF 		bl	lv_obj_is_protected
 112              	.LVL13:
 113 0032 38B9     		cbnz	r0, .L10
 460:lvgl\src\lv_widgets/lv_cont.c ****         h_tot += lv_obj_get_height(child) + inner;
 114              		.loc 1 460 0 is_stmt 1
 115 0034 2046     		mov	r0, r4
 116 0036 FFF7FEFF 		bl	lv_obj_get_height
 117              	.LVL14:
 118 003a 4044     		add	r0, r0, r8
 119 003c 0644     		add	r6, r6, r0
 120              	.LVL15:
 121 003e 36B2     		sxth	r6, r6
 122              	.LVL16:
 461:lvgl\src\lv_widgets/lv_cont.c ****         obj_num++;
 123              		.loc 1 461 0
 124 0040 09F10109 		add	r9, r9, #1
 125              	.LVL17:
 126              	.L10:
 458:lvgl\src\lv_widgets/lv_cont.c ****         if(lv_obj_get_hidden(child) != false || lv_obj_is_protected(child, LV_PROTECT_POS) != false
 127              		.loc 1 458 0 discriminator 2
 128 0044 2146     		mov	r1, r4
 129 0046 2846     		mov	r0, r5
 130 0048 FFF7FEFF 		bl	_lv_ll_get_next
 131              	.LVL18:
 132 004c 0446     		mov	r4, r0
 133              	.LVL19:
 134              	.L7:
 458:lvgl\src\lv_widgets/lv_cont.c ****         if(lv_obj_get_hidden(child) != false || lv_obj_is_protected(child, LV_PROTECT_POS) != false
 135              		.loc 1 458 0 is_stmt 0 discriminator 1
 136 004e 002C     		cmp	r4, #0
 137 0050 E7D1     		bne	.L11
 462:lvgl\src\lv_widgets/lv_cont.c ****     }
 463:lvgl\src\lv_widgets/lv_cont.c **** 
 464:lvgl\src\lv_widgets/lv_cont.c ****     if(obj_num == 0) return;
 138              		.loc 1 464 0 is_stmt 1
 139 0052 B9F1000F 		cmp	r9, #0
 140 0056 3AD0     		beq	.L6
 465:lvgl\src\lv_widgets/lv_cont.c **** 
 466:lvgl\src\lv_widgets/lv_cont.c ****     h_tot -= inner;
 141              		.loc 1 466 0
 142 0058 C8EB0606 		rsb	r6, r8, r6
 143              	.LVL20:
 144 005c 36B2     		sxth	r6, r6
 145              	.LVL21:
 467:lvgl\src\lv_widgets/lv_cont.c **** 
 468:lvgl\src\lv_widgets/lv_cont.c ****     /* Disable child change action because the children will be moved a lot
 469:lvgl\src\lv_widgets/lv_cont.c ****      * an unnecessary child change signals could be sent*/
 470:lvgl\src\lv_widgets/lv_cont.c ****     lv_obj_add_protect(cont, LV_PROTECT_CHILD_CHG);
 146              		.loc 1 470 0
 147 005e 0121     		movs	r1, #1
 148 0060 3846     		mov	r0, r7
 149              	.LVL22:
 150 0062 FFF7FEFF 		bl	lv_obj_add_protect
 151              	.LVL23:
 471:lvgl\src\lv_widgets/lv_cont.c **** 
 472:lvgl\src\lv_widgets/lv_cont.c ****     /* Align the children */
ARM GAS  C:\Users\strap\AppData\Local\Temp\cc7wbcEe.s 			page 14


 473:lvgl\src\lv_widgets/lv_cont.c ****     lv_coord_t last_cord = -(h_tot / 2);
 152              		.loc 1 473 0
 153 0066 06EBD676 		add	r6, r6, r6, lsr #31
 154              	.LVL24:
 155 006a 7610     		asrs	r6, r6, #1
 156 006c 7642     		negs	r6, r6
 157 006e 36B2     		sxth	r6, r6
 158              	.LVL25:
 474:lvgl\src\lv_widgets/lv_cont.c ****     _LV_LL_READ_BACK(cont->child_ll, child) {
 159              		.loc 1 474 0
 160 0070 2846     		mov	r0, r5
 161 0072 FFF7FEFF 		bl	_lv_ll_get_tail
 162              	.LVL26:
 163 0076 0446     		mov	r4, r0
 164              	.LVL27:
 165 0078 23E0     		b	.L13
 166              	.L17:
 475:lvgl\src\lv_widgets/lv_cont.c ****         if(lv_obj_get_hidden(child) != false || lv_obj_is_protected(child, LV_PROTECT_POS) != false
 167              		.loc 1 475 0
 168 007a 2046     		mov	r0, r4
 169              	.LVL28:
 170 007c FFF7FEFF 		bl	lv_obj_get_hidden
 171              	.LVL29:
 172 0080 D0B9     		cbnz	r0, .L16
 173              		.loc 1 475 0 is_stmt 0 discriminator 2
 174 0082 0421     		movs	r1, #4
 175 0084 2046     		mov	r0, r4
 176 0086 FFF7FEFF 		bl	lv_obj_is_protected
 177              	.LVL30:
 178 008a A8B9     		cbnz	r0, .L16
 476:lvgl\src\lv_widgets/lv_cont.c **** 
 477:lvgl\src\lv_widgets/lv_cont.c ****         lv_obj_align(child, cont, LV_ALIGN_CENTER, 0, last_cord + lv_obj_get_height(child) / 2);
 179              		.loc 1 477 0 is_stmt 1
 180 008c 2046     		mov	r0, r4
 181 008e FFF7FEFF 		bl	lv_obj_get_height
 182              	.LVL31:
 183 0092 B6B2     		uxth	r6, r6
 184 0094 00EBD070 		add	r0, r0, r0, lsr #31
 185 0098 06EB6003 		add	r3, r6, r0, asr #1
 186 009c 1BB2     		sxth	r3, r3
 187 009e 0093     		str	r3, [sp]
 188 00a0 0023     		movs	r3, #0
 189 00a2 1A46     		mov	r2, r3
 190 00a4 3946     		mov	r1, r7
 191 00a6 2046     		mov	r0, r4
 192 00a8 FFF7FEFF 		bl	lv_obj_align
 193              	.LVL32:
 478:lvgl\src\lv_widgets/lv_cont.c ****         last_cord += lv_obj_get_height(child) + inner;
 194              		.loc 1 478 0
 195 00ac 2046     		mov	r0, r4
 196 00ae FFF7FEFF 		bl	lv_obj_get_height
 197              	.LVL33:
 198 00b2 4044     		add	r0, r0, r8
 199 00b4 0644     		add	r6, r6, r0
 200              	.LVL34:
 201 00b6 36B2     		sxth	r6, r6
 202              	.LVL35:
ARM GAS  C:\Users\strap\AppData\Local\Temp\cc7wbcEe.s 			page 15


 203              	.L16:
 474:lvgl\src\lv_widgets/lv_cont.c ****         if(lv_obj_get_hidden(child) != false || lv_obj_is_protected(child, LV_PROTECT_POS) != false
 204              		.loc 1 474 0 discriminator 2
 205 00b8 2146     		mov	r1, r4
 206 00ba 2846     		mov	r0, r5
 207 00bc FFF7FEFF 		bl	_lv_ll_get_prev
 208              	.LVL36:
 209 00c0 0446     		mov	r4, r0
 210              	.LVL37:
 211              	.L13:
 474:lvgl\src\lv_widgets/lv_cont.c ****         if(lv_obj_get_hidden(child) != false || lv_obj_is_protected(child, LV_PROTECT_POS) != false
 212              		.loc 1 474 0 is_stmt 0 discriminator 1
 213 00c2 002C     		cmp	r4, #0
 214 00c4 D9D1     		bne	.L17
 479:lvgl\src\lv_widgets/lv_cont.c ****     }
 480:lvgl\src\lv_widgets/lv_cont.c **** 
 481:lvgl\src\lv_widgets/lv_cont.c ****     lv_obj_clear_protect(cont, LV_PROTECT_CHILD_CHG);
 215              		.loc 1 481 0 is_stmt 1
 216 00c6 0121     		movs	r1, #1
 217 00c8 3846     		mov	r0, r7
 218              	.LVL38:
 219 00ca FFF7FEFF 		bl	lv_obj_clear_protect
 220              	.LVL39:
 221              	.L6:
 482:lvgl\src\lv_widgets/lv_cont.c **** }
 222              		.loc 1 482 0
 223 00ce 03B0     		add	sp, sp, #12
 224              		.cfi_def_cfa_offset 28
 225              		@ sp needed
 226 00d0 BDE8F083 		pop	{r4, r5, r6, r7, r8, r9, pc}
 227              		.cfi_endproc
 228              	.LFE343:
 229              		.size	lv_cont_layout_center, .-lv_cont_layout_center
 230              		.section	.text.lv_cont_layout_grid,"ax",%progbits
 231              		.align	2
 232              		.thumb
 233              		.thumb_func
 234              		.type	lv_cont_layout_grid, %function
 235              	lv_cont_layout_grid:
 236              	.LFB345:
 483:lvgl\src\lv_widgets/lv_cont.c **** 
 484:lvgl\src\lv_widgets/lv_cont.c **** /**
 485:lvgl\src\lv_widgets/lv_cont.c ****  * Handle the pretty layout. Put as many object as possible in row
 486:lvgl\src\lv_widgets/lv_cont.c ****  * then begin a new row
 487:lvgl\src\lv_widgets/lv_cont.c ****  * @param cont pointer to an object which layout should be handled
 488:lvgl\src\lv_widgets/lv_cont.c ****  */
 489:lvgl\src\lv_widgets/lv_cont.c **** static void lv_cont_layout_pretty(lv_obj_t * cont)
 490:lvgl\src\lv_widgets/lv_cont.c **** {
 491:lvgl\src\lv_widgets/lv_cont.c ****     lv_layout_t type = lv_cont_get_layout(cont);
 492:lvgl\src\lv_widgets/lv_cont.c **** 
 493:lvgl\src\lv_widgets/lv_cont.c ****     lv_obj_t * child_rs;  /* Row starter child */
 494:lvgl\src\lv_widgets/lv_cont.c ****     lv_obj_t * child_rc;  /* Row closer child */
 495:lvgl\src\lv_widgets/lv_cont.c ****     lv_obj_t * child_tmp; /* Temporary child */
 496:lvgl\src\lv_widgets/lv_cont.c ****     lv_coord_t w_obj         = lv_obj_get_width(cont);
 497:lvgl\src\lv_widgets/lv_cont.c ****     lv_coord_t act_y         =  lv_obj_get_style_pad_top(cont, LV_CONT_PART_MAIN);
 498:lvgl\src\lv_widgets/lv_cont.c ****     /* Disable child change action because the children will be moved a lot
 499:lvgl\src\lv_widgets/lv_cont.c ****      * an unnecessary child change signals could be sent*/
ARM GAS  C:\Users\strap\AppData\Local\Temp\cc7wbcEe.s 			page 16


 500:lvgl\src\lv_widgets/lv_cont.c **** 
 501:lvgl\src\lv_widgets/lv_cont.c ****     child_rs = _lv_ll_get_tail(&cont->child_ll); /*Set the row starter child*/
 502:lvgl\src\lv_widgets/lv_cont.c ****     if(child_rs == NULL) return;                /*Return if no child*/
 503:lvgl\src\lv_widgets/lv_cont.c **** 
 504:lvgl\src\lv_widgets/lv_cont.c ****     lv_obj_add_protect(cont, LV_PROTECT_CHILD_CHG);
 505:lvgl\src\lv_widgets/lv_cont.c ****     lv_coord_t pleft          =  lv_obj_get_style_pad_left(cont, LV_CONT_PART_MAIN);
 506:lvgl\src\lv_widgets/lv_cont.c ****     lv_coord_t pright         =  lv_obj_get_style_pad_right(cont, LV_CONT_PART_MAIN);
 507:lvgl\src\lv_widgets/lv_cont.c ****     lv_coord_t pinner = lv_obj_get_style_pad_inner(cont, LV_CONT_PART_MAIN);
 508:lvgl\src\lv_widgets/lv_cont.c **** 
 509:lvgl\src\lv_widgets/lv_cont.c ****     child_rc = child_rs; /*Initially the the row starter and closer is the same*/
 510:lvgl\src\lv_widgets/lv_cont.c ****     while(child_rs != NULL) {
 511:lvgl\src\lv_widgets/lv_cont.c ****         lv_coord_t h_row = 0;
 512:lvgl\src\lv_widgets/lv_cont.c ****         lv_coord_t w_row = pleft + pright; /*The width is at least the left+right pad*/
 513:lvgl\src\lv_widgets/lv_cont.c ****         uint32_t obj_num = 0;
 514:lvgl\src\lv_widgets/lv_cont.c **** 
 515:lvgl\src\lv_widgets/lv_cont.c ****         /*Find the row closer object and collect some data*/
 516:lvgl\src\lv_widgets/lv_cont.c ****         do {
 517:lvgl\src\lv_widgets/lv_cont.c ****             if(lv_obj_get_hidden(child_rc) == false && lv_obj_is_protected(child_rc, LV_PROTECT_POS
 518:lvgl\src\lv_widgets/lv_cont.c ****                 /*If this object is already not fit then break*/
 519:lvgl\src\lv_widgets/lv_cont.c ****                 lv_coord_t w = lv_obj_get_width(child_rc);
 520:lvgl\src\lv_widgets/lv_cont.c ****                 w += lv_obj_get_style_margin_left(child_rc, LV_OBJ_PART_MAIN);
 521:lvgl\src\lv_widgets/lv_cont.c ****                 w += lv_obj_get_style_margin_right(child_rc, LV_OBJ_PART_MAIN);
 522:lvgl\src\lv_widgets/lv_cont.c ****                 if(w_row + w > w_obj) {
 523:lvgl\src\lv_widgets/lv_cont.c ****                     /*Step back one child because the last already not fit, so the previous is the
 524:lvgl\src\lv_widgets/lv_cont.c ****                      * closer*/
 525:lvgl\src\lv_widgets/lv_cont.c ****                     if(child_rc != NULL && obj_num != 0) {
 526:lvgl\src\lv_widgets/lv_cont.c ****                         child_rc = _lv_ll_get_next(&cont->child_ll, child_rc);
 527:lvgl\src\lv_widgets/lv_cont.c ****                     }
 528:lvgl\src\lv_widgets/lv_cont.c ****                     break;
 529:lvgl\src\lv_widgets/lv_cont.c ****                 }
 530:lvgl\src\lv_widgets/lv_cont.c ****                 w_row += w + pinner; /*Add the object width + inner padding*/
 531:lvgl\src\lv_widgets/lv_cont.c **** 
 532:lvgl\src\lv_widgets/lv_cont.c ****                 lv_coord_t h = lv_obj_get_height(child_rc);
 533:lvgl\src\lv_widgets/lv_cont.c ****                 h += lv_obj_get_style_margin_top(child_rc, LV_OBJ_PART_MAIN);
 534:lvgl\src\lv_widgets/lv_cont.c ****                 h += lv_obj_get_style_margin_bottom(child_rc, LV_OBJ_PART_MAIN);
 535:lvgl\src\lv_widgets/lv_cont.c ****                 h_row = LV_MATH_MAX(h_row, h);         /*Search the highest object*/
 536:lvgl\src\lv_widgets/lv_cont.c ****                 obj_num++;
 537:lvgl\src\lv_widgets/lv_cont.c ****                 if(lv_obj_is_protected(child_rc, LV_PROTECT_FOLLOW))
 538:lvgl\src\lv_widgets/lv_cont.c ****                     break; /*If can not be followed by an other object then break here*/
 539:lvgl\src\lv_widgets/lv_cont.c ****             }
 540:lvgl\src\lv_widgets/lv_cont.c ****             child_rc = _lv_ll_get_prev(&cont->child_ll, child_rc); /*Load the next object*/
 541:lvgl\src\lv_widgets/lv_cont.c ****             if(obj_num == 0)
 542:lvgl\src\lv_widgets/lv_cont.c ****                 child_rs = child_rc; /*If the first object was hidden (or too long) then set the
 543:lvgl\src\lv_widgets/lv_cont.c ****                                         next as first */
 544:lvgl\src\lv_widgets/lv_cont.c ****         } while(child_rc != NULL);
 545:lvgl\src\lv_widgets/lv_cont.c **** 
 546:lvgl\src\lv_widgets/lv_cont.c ****         /*If the object is too long then align it to the middle*/
 547:lvgl\src\lv_widgets/lv_cont.c ****         if(obj_num == 0) {
 548:lvgl\src\lv_widgets/lv_cont.c ****             if(child_rc != NULL) {
 549:lvgl\src\lv_widgets/lv_cont.c ****                 lv_style_int_t mtop = lv_obj_get_style_margin_top(child_rc, LV_OBJ_PART_MAIN);
 550:lvgl\src\lv_widgets/lv_cont.c **** 
 551:lvgl\src\lv_widgets/lv_cont.c ****                 lv_obj_align(child_rc, cont, LV_ALIGN_IN_TOP_MID, 0, act_y + mtop);
 552:lvgl\src\lv_widgets/lv_cont.c ****                 h_row = lv_obj_get_height(child_rc); /*Not set previously because of the early brea
 553:lvgl\src\lv_widgets/lv_cont.c ****                 h_row += mtop;
 554:lvgl\src\lv_widgets/lv_cont.c ****                 h_row += lv_obj_get_style_margin_bottom(child_rc, LV_OBJ_PART_MAIN);
 555:lvgl\src\lv_widgets/lv_cont.c ****             }
 556:lvgl\src\lv_widgets/lv_cont.c ****         }
ARM GAS  C:\Users\strap\AppData\Local\Temp\cc7wbcEe.s 			page 17


 557:lvgl\src\lv_widgets/lv_cont.c ****         /*If there is only one object in the row then align it to the middle*/
 558:lvgl\src\lv_widgets/lv_cont.c ****         else if(obj_num == 1) {
 559:lvgl\src\lv_widgets/lv_cont.c ****             lv_obj_align(child_rs, cont, LV_ALIGN_IN_TOP_MID,
 560:lvgl\src\lv_widgets/lv_cont.c ****                          0,
 561:lvgl\src\lv_widgets/lv_cont.c ****                          act_y + lv_obj_get_style_margin_top(child_rs, LV_OBJ_PART_MAIN));
 562:lvgl\src\lv_widgets/lv_cont.c ****         }
 563:lvgl\src\lv_widgets/lv_cont.c ****         /* Align the children (from child_rs to child_rc)*/
 564:lvgl\src\lv_widgets/lv_cont.c ****         else {
 565:lvgl\src\lv_widgets/lv_cont.c ****             w_row -= pinner * obj_num;
 566:lvgl\src\lv_widgets/lv_cont.c ****             lv_coord_t new_pinner = (w_obj - w_row) / (obj_num - 1);
 567:lvgl\src\lv_widgets/lv_cont.c ****             lv_coord_t act_x    = pleft; /*x init*/
 568:lvgl\src\lv_widgets/lv_cont.c ****             child_tmp           = child_rs;
 569:lvgl\src\lv_widgets/lv_cont.c ****             lv_align_t align;
 570:lvgl\src\lv_widgets/lv_cont.c ****             int32_t inv;
 571:lvgl\src\lv_widgets/lv_cont.c ****             if(lv_obj_get_base_dir(cont) == LV_BIDI_DIR_RTL) {
 572:lvgl\src\lv_widgets/lv_cont.c ****                 align = LV_ALIGN_IN_TOP_RIGHT;
 573:lvgl\src\lv_widgets/lv_cont.c ****                 inv = -1;
 574:lvgl\src\lv_widgets/lv_cont.c ****             } else {
 575:lvgl\src\lv_widgets/lv_cont.c ****                 align = LV_ALIGN_IN_TOP_LEFT;
 576:lvgl\src\lv_widgets/lv_cont.c ****                 inv = 1;
 577:lvgl\src\lv_widgets/lv_cont.c ****             }
 578:lvgl\src\lv_widgets/lv_cont.c ****             while(child_tmp != NULL) {
 579:lvgl\src\lv_widgets/lv_cont.c ****                 if(lv_obj_get_hidden(child_tmp) == false && lv_obj_is_protected(child_tmp, LV_PROTE
 580:lvgl\src\lv_widgets/lv_cont.c ****                     lv_coord_t mleft = lv_obj_get_style_margin_left(child_tmp, LV_OBJ_PART_MAIN);
 581:lvgl\src\lv_widgets/lv_cont.c ****                     lv_coord_t mright = lv_obj_get_style_margin_right(child_tmp, LV_OBJ_PART_MAIN);
 582:lvgl\src\lv_widgets/lv_cont.c ****                     switch(type) {
 583:lvgl\src\lv_widgets/lv_cont.c ****                         case LV_LAYOUT_PRETTY_TOP:
 584:lvgl\src\lv_widgets/lv_cont.c ****                             lv_obj_align(child_tmp, cont, align,
 585:lvgl\src\lv_widgets/lv_cont.c ****                                         inv * (act_x + mleft),
 586:lvgl\src\lv_widgets/lv_cont.c ****                                          act_y + lv_obj_get_style_margin_top(child_tmp, LV_OBJ_PART
 587:lvgl\src\lv_widgets/lv_cont.c ****                             break;
 588:lvgl\src\lv_widgets/lv_cont.c ****                         case LV_LAYOUT_PRETTY_MID:
 589:lvgl\src\lv_widgets/lv_cont.c ****                             lv_obj_align(child_tmp, cont, align,
 590:lvgl\src\lv_widgets/lv_cont.c ****                                          inv * (act_x + mleft),
 591:lvgl\src\lv_widgets/lv_cont.c ****                                          act_y + (h_row - lv_obj_get_height(child_tmp)) / 2);
 592:lvgl\src\lv_widgets/lv_cont.c **** 
 593:lvgl\src\lv_widgets/lv_cont.c ****                             break;
 594:lvgl\src\lv_widgets/lv_cont.c ****                         case LV_LAYOUT_PRETTY_BOTTOM:
 595:lvgl\src\lv_widgets/lv_cont.c ****                             lv_obj_align(child_tmp, cont, align,
 596:lvgl\src\lv_widgets/lv_cont.c ****                                          inv * (act_x + mleft),
 597:lvgl\src\lv_widgets/lv_cont.c ****                                          act_y + h_row - lv_obj_get_height(child_tmp) - lv_obj_get_
 598:lvgl\src\lv_widgets/lv_cont.c ****                             break;
 599:lvgl\src\lv_widgets/lv_cont.c ****                         default:
 600:lvgl\src\lv_widgets/lv_cont.c ****                             break;
 601:lvgl\src\lv_widgets/lv_cont.c ****                     }
 602:lvgl\src\lv_widgets/lv_cont.c **** 
 603:lvgl\src\lv_widgets/lv_cont.c ****                     act_x += lv_obj_get_width(child_tmp) + new_pinner + mleft + mright;
 604:lvgl\src\lv_widgets/lv_cont.c ****                 }
 605:lvgl\src\lv_widgets/lv_cont.c ****                 if(child_tmp == child_rc) break;
 606:lvgl\src\lv_widgets/lv_cont.c ****                 child_tmp = _lv_ll_get_prev(&cont->child_ll, child_tmp);
 607:lvgl\src\lv_widgets/lv_cont.c ****             }
 608:lvgl\src\lv_widgets/lv_cont.c ****         }
 609:lvgl\src\lv_widgets/lv_cont.c **** 
 610:lvgl\src\lv_widgets/lv_cont.c ****         if(child_rc == NULL) break;
 611:lvgl\src\lv_widgets/lv_cont.c ****         act_y += pinner + h_row;           /*y increment*/
 612:lvgl\src\lv_widgets/lv_cont.c ****         child_rs = _lv_ll_get_prev(&cont->child_ll, child_rc); /*Go to the next object*/
 613:lvgl\src\lv_widgets/lv_cont.c ****         child_rc = child_rs;
ARM GAS  C:\Users\strap\AppData\Local\Temp\cc7wbcEe.s 			page 18


 614:lvgl\src\lv_widgets/lv_cont.c ****     }
 615:lvgl\src\lv_widgets/lv_cont.c ****     lv_obj_clear_protect(cont, LV_PROTECT_CHILD_CHG);
 616:lvgl\src\lv_widgets/lv_cont.c **** }
 617:lvgl\src\lv_widgets/lv_cont.c **** 
 618:lvgl\src\lv_widgets/lv_cont.c **** /**
 619:lvgl\src\lv_widgets/lv_cont.c ****  * Handle the grid layout. Align same-sized objects in a grid
 620:lvgl\src\lv_widgets/lv_cont.c ****  * @param cont pointer to an object which layout should be handled
 621:lvgl\src\lv_widgets/lv_cont.c ****  */
 622:lvgl\src\lv_widgets/lv_cont.c **** static void lv_cont_layout_grid(lv_obj_t * cont)
 623:lvgl\src\lv_widgets/lv_cont.c **** {
 237              		.loc 1 623 0
 238              		.cfi_startproc
 239              		@ args = 0, pretend = 0, frame = 8
 240              		@ frame_needed = 0, uses_anonymous_args = 0
 241              	.LVL40:
 242 0000 2DE9F04F 		push	{r4, r5, r6, r7, r8, r9, r10, fp, lr}
 243              		.cfi_def_cfa_offset 36
 244              		.cfi_offset 4, -36
 245              		.cfi_offset 5, -32
 246              		.cfi_offset 6, -28
 247              		.cfi_offset 7, -24
 248              		.cfi_offset 8, -20
 249              		.cfi_offset 9, -16
 250              		.cfi_offset 10, -12
 251              		.cfi_offset 11, -8
 252              		.cfi_offset 14, -4
 253 0004 83B0     		sub	sp, sp, #12
 254              		.cfi_def_cfa_offset 48
 255 0006 8046     		mov	r8, r0
 624:lvgl\src\lv_widgets/lv_cont.c ****     lv_coord_t w_fit         =  lv_obj_get_width_fit(cont);
 256              		.loc 1 624 0
 257 0008 FFF7FEFF 		bl	lv_obj_get_width_fit
 258              	.LVL41:
 259 000c 0090     		str	r0, [sp]
 260              	.LVL42:
 261              	.LBB120:
 262              	.LBB121:
 263              		.loc 2 114 0
 264 000e 1422     		movs	r2, #20
 265 0010 0021     		movs	r1, #0
 266 0012 4046     		mov	r0, r8
 267 0014 FFF7FEFF 		bl	_lv_obj_get_style_int
 268              	.LVL43:
 269 0018 8146     		mov	r9, r0
 270              	.LVL44:
 271              	.LBE121:
 272              	.LBE120:
 625:lvgl\src\lv_widgets/lv_cont.c ****     lv_coord_t inner = lv_obj_get_style_pad_inner(cont, LV_CONT_PART_MAIN);
 626:lvgl\src\lv_widgets/lv_cont.c ****     lv_coord_t y_ofs = inner + lv_obj_get_height(lv_obj_get_child(cont, NULL));
 273              		.loc 1 626 0
 274 001a 0021     		movs	r1, #0
 275 001c 4046     		mov	r0, r8
 276 001e FFF7FEFF 		bl	lv_obj_get_child
 277              	.LVL45:
 278 0022 FFF7FEFF 		bl	lv_obj_get_height
 279              	.LVL46:
 280 0026 1FFA89F9 		uxth	r9, r9
ARM GAS  C:\Users\strap\AppData\Local\Temp\cc7wbcEe.s 			page 19


 281 002a 4844     		add	r0, r0, r9
 282 002c 1FFA80FB 		uxth	fp, r0
 283              	.LVL47:
 627:lvgl\src\lv_widgets/lv_cont.c **** 
 628:lvgl\src\lv_widgets/lv_cont.c ****     /* Disable child change action because the children will be moved a lot
 629:lvgl\src\lv_widgets/lv_cont.c ****      * an unnecessary child change signals could be sent*/
 630:lvgl\src\lv_widgets/lv_cont.c ****     lv_obj_add_protect(cont, LV_PROTECT_CHILD_CHG);
 284              		.loc 1 630 0
 285 0030 0121     		movs	r1, #1
 286 0032 4046     		mov	r0, r8
 287 0034 FFF7FEFF 		bl	lv_obj_add_protect
 288              	.LVL48:
 289              	.LBB122:
 290              	.LBB123:
 112:lvgl\src\lv_widgets\../lv_core/lv_obj_style_dec.h **** _LV_OBJ_STYLE_SET_GET_DECLARE(PAD_RIGHT, pad_right, lv_style_int_t, _int, scalar)
 291              		.loc 2 112 0
 292 0038 1222     		movs	r2, #18
 293 003a 0021     		movs	r1, #0
 294 003c 4046     		mov	r0, r8
 295 003e FFF7FEFF 		bl	_lv_obj_get_style_int
 296              	.LVL49:
 297 0042 0646     		mov	r6, r0
 298 0044 0190     		str	r0, [sp, #4]
 299              	.LVL50:
 300              	.LBE123:
 301              	.LBE122:
 302              	.LBB124:
 303              	.LBB125:
 110:lvgl\src\lv_widgets\../lv_core/lv_obj_style_dec.h **** _LV_OBJ_STYLE_SET_GET_DECLARE(PAD_BOTTOM, pad_bottom, lv_style_int_t, _int, scalar)
 304              		.loc 2 110 0
 305 0046 1022     		movs	r2, #16
 306 0048 0021     		movs	r1, #0
 307 004a 4046     		mov	r0, r8
 308 004c FFF7FEFF 		bl	_lv_obj_get_style_int
 309              	.LVL51:
 310 0050 8246     		mov	r10, r0
 311              	.LVL52:
 312              	.LBE125:
 313              	.LBE124:
 631:lvgl\src\lv_widgets/lv_cont.c **** 
 632:lvgl\src\lv_widgets/lv_cont.c ****     /* Align the children */
 633:lvgl\src\lv_widgets/lv_cont.c ****     lv_coord_t left = lv_obj_get_style_pad_left(cont, LV_CONT_PART_MAIN);
 634:lvgl\src\lv_widgets/lv_cont.c ****     lv_coord_t act_x = left;
 635:lvgl\src\lv_widgets/lv_cont.c ****     lv_coord_t act_y = lv_obj_get_style_pad_top(cont, LV_CONT_PART_MAIN);
 636:lvgl\src\lv_widgets/lv_cont.c ****     lv_obj_t * child;
 637:lvgl\src\lv_widgets/lv_cont.c ****     _LV_LL_READ_BACK(cont->child_ll, child) {
 314              		.loc 1 637 0
 315 0052 08F10405 		add	r5, r8, #4
 316 0056 2846     		mov	r0, r5
 317 0058 FFF7FEFF 		bl	_lv_ll_get_tail
 318              	.LVL53:
 319 005c 0446     		mov	r4, r0
 320              	.LVL54:
 321 005e 23E0     		b	.L20
 322              	.LVL55:
 323              	.L25:
 324              	.LBB126:
ARM GAS  C:\Users\strap\AppData\Local\Temp\cc7wbcEe.s 			page 20


 638:lvgl\src\lv_widgets/lv_cont.c ****         if(lv_obj_get_hidden(child) != false || lv_obj_is_protected(child, LV_PROTECT_POS) != false
 325              		.loc 1 638 0
 326 0060 2046     		mov	r0, r4
 327              	.LVL56:
 328 0062 FFF7FEFF 		bl	lv_obj_get_hidden
 329              	.LVL57:
 330 0066 D0B9     		cbnz	r0, .L23
 331              		.loc 1 638 0 is_stmt 0 discriminator 2
 332 0068 0421     		movs	r1, #4
 333 006a 2046     		mov	r0, r4
 334 006c FFF7FEFF 		bl	lv_obj_is_protected
 335              	.LVL58:
 336 0070 A8B9     		cbnz	r0, .L23
 639:lvgl\src\lv_widgets/lv_cont.c ****         lv_coord_t obj_w = lv_obj_get_width(child);
 337              		.loc 1 639 0 is_stmt 1
 338 0072 2046     		mov	r0, r4
 339 0074 FFF7FEFF 		bl	lv_obj_get_width
 340              	.LVL59:
 341 0078 0746     		mov	r7, r0
 342              	.LVL60:
 640:lvgl\src\lv_widgets/lv_cont.c ****         if(act_x + obj_w > w_fit + left) {
 343              		.loc 1 640 0
 344 007a 3218     		adds	r2, r6, r0
 345 007c 0098     		ldr	r0, [sp]
 346              	.LVL61:
 347 007e 0199     		ldr	r1, [sp, #4]
 348 0080 4318     		adds	r3, r0, r1
 349 0082 9A42     		cmp	r2, r3
 350 0084 03DD     		ble	.L24
 351              	.LVL62:
 641:lvgl\src\lv_widgets/lv_cont.c ****             act_x = left;
 642:lvgl\src\lv_widgets/lv_cont.c ****             act_y += y_ofs;
 352              		.loc 1 642 0
 353 0086 DA44     		add	r10, r10, fp
 354              	.LVL63:
 355 0088 0FFA8AFA 		sxth	r10, r10
 356              	.LVL64:
 641:lvgl\src\lv_widgets/lv_cont.c ****             act_x = left;
 357              		.loc 1 641 0
 358 008c 0E46     		mov	r6, r1
 359              	.LVL65:
 360              	.L24:
 643:lvgl\src\lv_widgets/lv_cont.c ****         }
 644:lvgl\src\lv_widgets/lv_cont.c **** 
 645:lvgl\src\lv_widgets/lv_cont.c ****         lv_obj_set_pos(child, act_x, act_y);
 361              		.loc 1 645 0
 362 008e 5246     		mov	r2, r10
 363 0090 3146     		mov	r1, r6
 364 0092 2046     		mov	r0, r4
 365 0094 FFF7FEFF 		bl	lv_obj_set_pos
 366              	.LVL66:
 646:lvgl\src\lv_widgets/lv_cont.c ****         act_x += inner + obj_w;
 367              		.loc 1 646 0
 368 0098 4F44     		add	r7, r7, r9
 369 009a 3744     		add	r7, r7, r6
 370 009c 3EB2     		sxth	r6, r7
 371              	.LVL67:
ARM GAS  C:\Users\strap\AppData\Local\Temp\cc7wbcEe.s 			page 21


 372              	.L23:
 373              	.LBE126:
 637:lvgl\src\lv_widgets/lv_cont.c ****         if(lv_obj_get_hidden(child) != false || lv_obj_is_protected(child, LV_PROTECT_POS) != false
 374              		.loc 1 637 0 discriminator 2
 375 009e 2146     		mov	r1, r4
 376 00a0 2846     		mov	r0, r5
 377 00a2 FFF7FEFF 		bl	_lv_ll_get_prev
 378              	.LVL68:
 379 00a6 0446     		mov	r4, r0
 380              	.LVL69:
 381              	.L20:
 637:lvgl\src\lv_widgets/lv_cont.c ****         if(lv_obj_get_hidden(child) != false || lv_obj_is_protected(child, LV_PROTECT_POS) != false
 382              		.loc 1 637 0 is_stmt 0 discriminator 1
 383 00a8 002C     		cmp	r4, #0
 384 00aa D9D1     		bne	.L25
 647:lvgl\src\lv_widgets/lv_cont.c ****     }
 648:lvgl\src\lv_widgets/lv_cont.c **** 
 649:lvgl\src\lv_widgets/lv_cont.c ****     lv_obj_clear_protect(cont, LV_PROTECT_CHILD_CHG);
 385              		.loc 1 649 0 is_stmt 1
 386 00ac 0121     		movs	r1, #1
 387 00ae 4046     		mov	r0, r8
 388              	.LVL70:
 389 00b0 FFF7FEFF 		bl	lv_obj_clear_protect
 390              	.LVL71:
 650:lvgl\src\lv_widgets/lv_cont.c **** }
 391              		.loc 1 650 0
 392 00b4 03B0     		add	sp, sp, #12
 393              		.cfi_def_cfa_offset 36
 394              	.LVL72:
 395              		@ sp needed
 396 00b6 BDE8F08F 		pop	{r4, r5, r6, r7, r8, r9, r10, fp, pc}
 397              		.cfi_endproc
 398              	.LFE345:
 399              		.size	lv_cont_layout_grid, .-lv_cont_layout_grid
 400 00ba 00BF     		.section	.text.lv_cont_refr_autofit,"ax",%progbits
 401              		.align	2
 402              		.thumb
 403              		.thumb_func
 404              		.type	lv_cont_refr_autofit, %function
 405              	lv_cont_refr_autofit:
 406              	.LFB346:
 651:lvgl\src\lv_widgets/lv_cont.c **** 
 652:lvgl\src\lv_widgets/lv_cont.c **** /**
 653:lvgl\src\lv_widgets/lv_cont.c ****  * Handle auto fit. Set the size of the object to involve all children.
 654:lvgl\src\lv_widgets/lv_cont.c ****  * @param cont pointer to an object which size will be modified
 655:lvgl\src\lv_widgets/lv_cont.c ****  */
 656:lvgl\src\lv_widgets/lv_cont.c **** static void lv_cont_refr_autofit(lv_obj_t * cont)
 657:lvgl\src\lv_widgets/lv_cont.c **** {
 407              		.loc 1 657 0
 408              		.cfi_startproc
 409              		@ args = 0, pretend = 0, frame = 32
 410              		@ frame_needed = 0, uses_anonymous_args = 0
 411              	.LVL73:
 412 0000 2DE9F043 		push	{r4, r5, r6, r7, r8, r9, lr}
 413              		.cfi_def_cfa_offset 28
 414              		.cfi_offset 4, -28
 415              		.cfi_offset 5, -24
ARM GAS  C:\Users\strap\AppData\Local\Temp\cc7wbcEe.s 			page 22


 416              		.cfi_offset 6, -20
 417              		.cfi_offset 7, -16
 418              		.cfi_offset 8, -12
 419              		.cfi_offset 9, -8
 420              		.cfi_offset 14, -4
 421 0004 89B0     		sub	sp, sp, #36
 422              		.cfi_def_cfa_offset 64
 423 0006 0446     		mov	r4, r0
 658:lvgl\src\lv_widgets/lv_cont.c ****     if(lv_obj_is_protected(cont, LV_PROTECT_CHILD_CHG)) return;
 424              		.loc 1 658 0
 425 0008 0121     		movs	r1, #1
 426 000a FFF7FEFF 		bl	lv_obj_is_protected
 427              	.LVL74:
 428 000e 0028     		cmp	r0, #0
 429 0010 40F0D281 		bne	.L27
 659:lvgl\src\lv_widgets/lv_cont.c ****     lv_cont_ext_t * ext = lv_obj_get_ext_attr(cont);
 430              		.loc 1 659 0
 431 0014 2046     		mov	r0, r4
 432 0016 FFF7FEFF 		bl	lv_obj_get_ext_attr
 433              	.LVL75:
 434 001a 8046     		mov	r8, r0
 435              	.LVL76:
 660:lvgl\src\lv_widgets/lv_cont.c **** 
 661:lvgl\src\lv_widgets/lv_cont.c ****     if(ext->fit_left == LV_FIT_NONE && ext->fit_right == LV_FIT_NONE && ext->fit_top == LV_FIT_NONE
 436              		.loc 1 661 0
 437 001c 0378     		ldrb	r3, [r0]	@ zero_extendqisi2
 438 001e 13F0F00F 		tst	r3, #240
 439 0022 04D1     		bne	.L29
 440              		.loc 1 661 0 is_stmt 0 discriminator 1
 441 0024 4378     		ldrb	r3, [r0, #1]	@ zero_extendqisi2
 442 0026 13F00F0F 		tst	r3, #15
 443 002a 00F0C581 		beq	.L27
 444              	.L29:
 662:lvgl\src\lv_widgets/lv_cont.c ****        ext->fit_bottom == LV_FIT_NONE) {
 663:lvgl\src\lv_widgets/lv_cont.c ****         return;
 664:lvgl\src\lv_widgets/lv_cont.c ****     }
 665:lvgl\src\lv_widgets/lv_cont.c **** 
 666:lvgl\src\lv_widgets/lv_cont.c ****     lv_area_t tight_area;
 667:lvgl\src\lv_widgets/lv_cont.c ****     lv_area_t ori;
 668:lvgl\src\lv_widgets/lv_cont.c ****     lv_obj_t * child_i;
 669:lvgl\src\lv_widgets/lv_cont.c **** 
 670:lvgl\src\lv_widgets/lv_cont.c ****     lv_obj_t * par               = lv_obj_get_parent(cont);
 445              		.loc 1 670 0 is_stmt 1
 446 002e 2046     		mov	r0, r4
 447              	.LVL77:
 448 0030 FFF7FEFF 		bl	lv_obj_get_parent
 449              	.LVL78:
 450 0034 0746     		mov	r7, r0
 451              	.LVL79:
 671:lvgl\src\lv_widgets/lv_cont.c ****     lv_area_t parent_area;
 672:lvgl\src\lv_widgets/lv_cont.c ****     lv_area_copy(&parent_area, &par->coords);
 452              		.loc 1 672 0
 453 0036 00F11001 		add	r1, r0, #16
 454              	.LVL80:
 455              	.LBB127:
 456              	.LBB128:
 457              	.LBB129:
ARM GAS  C:\Users\strap\AppData\Local\Temp\cc7wbcEe.s 			page 23


 458              		.file 3 "lvgl\\src\\lv_widgets\\../lv_core/../lv_font/../lv_misc/lv_mem.h"
   1:lvgl\src\lv_widgets\../lv_core/../lv_font/../lv_misc/lv_mem.h **** /**
   2:lvgl\src\lv_widgets\../lv_core/../lv_font/../lv_misc/lv_mem.h ****  * @file lv_mem.h
   3:lvgl\src\lv_widgets\../lv_core/../lv_font/../lv_misc/lv_mem.h ****  *
   4:lvgl\src\lv_widgets\../lv_core/../lv_font/../lv_misc/lv_mem.h ****  */
   5:lvgl\src\lv_widgets\../lv_core/../lv_font/../lv_misc/lv_mem.h **** 
   6:lvgl\src\lv_widgets\../lv_core/../lv_font/../lv_misc/lv_mem.h **** #ifndef LV_MEM_H
   7:lvgl\src\lv_widgets\../lv_core/../lv_font/../lv_misc/lv_mem.h **** #define LV_MEM_H
   8:lvgl\src\lv_widgets\../lv_core/../lv_font/../lv_misc/lv_mem.h **** 
   9:lvgl\src\lv_widgets\../lv_core/../lv_font/../lv_misc/lv_mem.h **** #ifdef __cplusplus
  10:lvgl\src\lv_widgets\../lv_core/../lv_font/../lv_misc/lv_mem.h **** extern "C" {
  11:lvgl\src\lv_widgets\../lv_core/../lv_font/../lv_misc/lv_mem.h **** #endif
  12:lvgl\src\lv_widgets\../lv_core/../lv_font/../lv_misc/lv_mem.h **** 
  13:lvgl\src\lv_widgets\../lv_core/../lv_font/../lv_misc/lv_mem.h **** /*********************
  14:lvgl\src\lv_widgets\../lv_core/../lv_font/../lv_misc/lv_mem.h ****  *      INCLUDES
  15:lvgl\src\lv_widgets\../lv_core/../lv_font/../lv_misc/lv_mem.h ****  *********************/
  16:lvgl\src\lv_widgets\../lv_core/../lv_font/../lv_misc/lv_mem.h **** #include "../lv_conf_internal.h"
  17:lvgl\src\lv_widgets\../lv_core/../lv_font/../lv_misc/lv_mem.h **** 
  18:lvgl\src\lv_widgets\../lv_core/../lv_font/../lv_misc/lv_mem.h **** #include <stdint.h>
  19:lvgl\src\lv_widgets\../lv_core/../lv_font/../lv_misc/lv_mem.h **** #include <stddef.h>
  20:lvgl\src\lv_widgets\../lv_core/../lv_font/../lv_misc/lv_mem.h **** #include "lv_log.h"
  21:lvgl\src\lv_widgets\../lv_core/../lv_font/../lv_misc/lv_mem.h **** #include "lv_types.h"
  22:lvgl\src\lv_widgets\../lv_core/../lv_font/../lv_misc/lv_mem.h **** 
  23:lvgl\src\lv_widgets\../lv_core/../lv_font/../lv_misc/lv_mem.h **** #if LV_MEMCPY_MEMSET_STD
  24:lvgl\src\lv_widgets\../lv_core/../lv_font/../lv_misc/lv_mem.h **** #include <string.h>
  25:lvgl\src\lv_widgets\../lv_core/../lv_font/../lv_misc/lv_mem.h **** #endif
  26:lvgl\src\lv_widgets\../lv_core/../lv_font/../lv_misc/lv_mem.h **** 
  27:lvgl\src\lv_widgets\../lv_core/../lv_font/../lv_misc/lv_mem.h **** /*********************
  28:lvgl\src\lv_widgets\../lv_core/../lv_font/../lv_misc/lv_mem.h ****  *      DEFINES
  29:lvgl\src\lv_widgets\../lv_core/../lv_font/../lv_misc/lv_mem.h ****  *********************/
  30:lvgl\src\lv_widgets\../lv_core/../lv_font/../lv_misc/lv_mem.h **** 
  31:lvgl\src\lv_widgets\../lv_core/../lv_font/../lv_misc/lv_mem.h **** #ifndef LV_MEM_BUF_MAX_NUM
  32:lvgl\src\lv_widgets\../lv_core/../lv_font/../lv_misc/lv_mem.h **** #define LV_MEM_BUF_MAX_NUM    16
  33:lvgl\src\lv_widgets\../lv_core/../lv_font/../lv_misc/lv_mem.h **** #endif
  34:lvgl\src\lv_widgets\../lv_core/../lv_font/../lv_misc/lv_mem.h **** 
  35:lvgl\src\lv_widgets\../lv_core/../lv_font/../lv_misc/lv_mem.h **** /**********************
  36:lvgl\src\lv_widgets\../lv_core/../lv_font/../lv_misc/lv_mem.h ****  *      TYPEDEFS
  37:lvgl\src\lv_widgets\../lv_core/../lv_font/../lv_misc/lv_mem.h ****  **********************/
  38:lvgl\src\lv_widgets\../lv_core/../lv_font/../lv_misc/lv_mem.h **** 
  39:lvgl\src\lv_widgets\../lv_core/../lv_font/../lv_misc/lv_mem.h **** /**
  40:lvgl\src\lv_widgets\../lv_core/../lv_font/../lv_misc/lv_mem.h ****  * Heap information structure.
  41:lvgl\src\lv_widgets\../lv_core/../lv_font/../lv_misc/lv_mem.h ****  */
  42:lvgl\src\lv_widgets\../lv_core/../lv_font/../lv_misc/lv_mem.h **** typedef struct {
  43:lvgl\src\lv_widgets\../lv_core/../lv_font/../lv_misc/lv_mem.h ****     uint32_t total_size; /**< Total heap size */
  44:lvgl\src\lv_widgets\../lv_core/../lv_font/../lv_misc/lv_mem.h ****     uint32_t free_cnt;
  45:lvgl\src\lv_widgets\../lv_core/../lv_font/../lv_misc/lv_mem.h ****     uint32_t free_size; /**< Size of available memory */
  46:lvgl\src\lv_widgets\../lv_core/../lv_font/../lv_misc/lv_mem.h ****     uint32_t free_biggest_size;
  47:lvgl\src\lv_widgets\../lv_core/../lv_font/../lv_misc/lv_mem.h ****     uint32_t used_cnt;
  48:lvgl\src\lv_widgets\../lv_core/../lv_font/../lv_misc/lv_mem.h ****     uint32_t max_used; /**< Max size of Heap memory used */
  49:lvgl\src\lv_widgets\../lv_core/../lv_font/../lv_misc/lv_mem.h ****     uint8_t used_pct; /**< Percentage used */
  50:lvgl\src\lv_widgets\../lv_core/../lv_font/../lv_misc/lv_mem.h ****     uint8_t frag_pct; /**< Amount of fragmentation */
  51:lvgl\src\lv_widgets\../lv_core/../lv_font/../lv_misc/lv_mem.h **** } lv_mem_monitor_t;
  52:lvgl\src\lv_widgets\../lv_core/../lv_font/../lv_misc/lv_mem.h **** 
  53:lvgl\src\lv_widgets\../lv_core/../lv_font/../lv_misc/lv_mem.h **** typedef struct {
  54:lvgl\src\lv_widgets\../lv_core/../lv_font/../lv_misc/lv_mem.h ****     void * p;
  55:lvgl\src\lv_widgets\../lv_core/../lv_font/../lv_misc/lv_mem.h ****     uint16_t size;
  56:lvgl\src\lv_widgets\../lv_core/../lv_font/../lv_misc/lv_mem.h ****     uint8_t used    : 1;
ARM GAS  C:\Users\strap\AppData\Local\Temp\cc7wbcEe.s 			page 24


  57:lvgl\src\lv_widgets\../lv_core/../lv_font/../lv_misc/lv_mem.h **** } lv_mem_buf_t;
  58:lvgl\src\lv_widgets\../lv_core/../lv_font/../lv_misc/lv_mem.h **** 
  59:lvgl\src\lv_widgets\../lv_core/../lv_font/../lv_misc/lv_mem.h **** typedef lv_mem_buf_t lv_mem_buf_arr_t[LV_MEM_BUF_MAX_NUM];
  60:lvgl\src\lv_widgets\../lv_core/../lv_font/../lv_misc/lv_mem.h **** extern lv_mem_buf_arr_t _lv_mem_buf;
  61:lvgl\src\lv_widgets\../lv_core/../lv_font/../lv_misc/lv_mem.h **** 
  62:lvgl\src\lv_widgets\../lv_core/../lv_font/../lv_misc/lv_mem.h **** /**********************
  63:lvgl\src\lv_widgets\../lv_core/../lv_font/../lv_misc/lv_mem.h ****  * GLOBAL PROTOTYPES
  64:lvgl\src\lv_widgets\../lv_core/../lv_font/../lv_misc/lv_mem.h ****  **********************/
  65:lvgl\src\lv_widgets\../lv_core/../lv_font/../lv_misc/lv_mem.h **** 
  66:lvgl\src\lv_widgets\../lv_core/../lv_font/../lv_misc/lv_mem.h **** /**
  67:lvgl\src\lv_widgets\../lv_core/../lv_font/../lv_misc/lv_mem.h ****  * Initialize the dyn_mem module (work memory and other variables)
  68:lvgl\src\lv_widgets\../lv_core/../lv_font/../lv_misc/lv_mem.h ****  */
  69:lvgl\src\lv_widgets\../lv_core/../lv_font/../lv_misc/lv_mem.h **** void _lv_mem_init(void);
  70:lvgl\src\lv_widgets\../lv_core/../lv_font/../lv_misc/lv_mem.h **** 
  71:lvgl\src\lv_widgets\../lv_core/../lv_font/../lv_misc/lv_mem.h **** /**
  72:lvgl\src\lv_widgets\../lv_core/../lv_font/../lv_misc/lv_mem.h ****  * Clean up the memory buffer which frees all the allocated memories.
  73:lvgl\src\lv_widgets\../lv_core/../lv_font/../lv_misc/lv_mem.h ****  * @note It work only if `LV_MEM_CUSTOM == 0`
  74:lvgl\src\lv_widgets\../lv_core/../lv_font/../lv_misc/lv_mem.h ****  */
  75:lvgl\src\lv_widgets\../lv_core/../lv_font/../lv_misc/lv_mem.h **** void _lv_mem_deinit(void);
  76:lvgl\src\lv_widgets\../lv_core/../lv_font/../lv_misc/lv_mem.h **** 
  77:lvgl\src\lv_widgets\../lv_core/../lv_font/../lv_misc/lv_mem.h **** /**
  78:lvgl\src\lv_widgets\../lv_core/../lv_font/../lv_misc/lv_mem.h ****  * Allocate a memory dynamically
  79:lvgl\src\lv_widgets\../lv_core/../lv_font/../lv_misc/lv_mem.h ****  * @param size size of the memory to allocate in bytes
  80:lvgl\src\lv_widgets\../lv_core/../lv_font/../lv_misc/lv_mem.h ****  * @return pointer to the allocated memory
  81:lvgl\src\lv_widgets\../lv_core/../lv_font/../lv_misc/lv_mem.h ****  */
  82:lvgl\src\lv_widgets\../lv_core/../lv_font/../lv_misc/lv_mem.h **** void * lv_mem_alloc(size_t size);
  83:lvgl\src\lv_widgets\../lv_core/../lv_font/../lv_misc/lv_mem.h **** 
  84:lvgl\src\lv_widgets\../lv_core/../lv_font/../lv_misc/lv_mem.h **** /**
  85:lvgl\src\lv_widgets\../lv_core/../lv_font/../lv_misc/lv_mem.h ****  * Free an allocated data
  86:lvgl\src\lv_widgets\../lv_core/../lv_font/../lv_misc/lv_mem.h ****  * @param data pointer to an allocated memory
  87:lvgl\src\lv_widgets\../lv_core/../lv_font/../lv_misc/lv_mem.h ****  */
  88:lvgl\src\lv_widgets\../lv_core/../lv_font/../lv_misc/lv_mem.h **** void lv_mem_free(const void * data);
  89:lvgl\src\lv_widgets\../lv_core/../lv_font/../lv_misc/lv_mem.h **** 
  90:lvgl\src\lv_widgets\../lv_core/../lv_font/../lv_misc/lv_mem.h **** /**
  91:lvgl\src\lv_widgets\../lv_core/../lv_font/../lv_misc/lv_mem.h ****  * Reallocate a memory with a new size. The old content will be kept.
  92:lvgl\src\lv_widgets\../lv_core/../lv_font/../lv_misc/lv_mem.h ****  * @param data pointer to an allocated memory.
  93:lvgl\src\lv_widgets\../lv_core/../lv_font/../lv_misc/lv_mem.h ****  * Its content will be copied to the new memory block and freed
  94:lvgl\src\lv_widgets\../lv_core/../lv_font/../lv_misc/lv_mem.h ****  * @param new_size the desired new size in byte
  95:lvgl\src\lv_widgets\../lv_core/../lv_font/../lv_misc/lv_mem.h ****  * @return pointer to the new memory
  96:lvgl\src\lv_widgets\../lv_core/../lv_font/../lv_misc/lv_mem.h ****  */
  97:lvgl\src\lv_widgets\../lv_core/../lv_font/../lv_misc/lv_mem.h **** void * lv_mem_realloc(void * data_p, size_t new_size);
  98:lvgl\src\lv_widgets\../lv_core/../lv_font/../lv_misc/lv_mem.h **** 
  99:lvgl\src\lv_widgets\../lv_core/../lv_font/../lv_misc/lv_mem.h **** /**
 100:lvgl\src\lv_widgets\../lv_core/../lv_font/../lv_misc/lv_mem.h ****  * Join the adjacent free memory blocks
 101:lvgl\src\lv_widgets\../lv_core/../lv_font/../lv_misc/lv_mem.h ****  */
 102:lvgl\src\lv_widgets\../lv_core/../lv_font/../lv_misc/lv_mem.h **** void lv_mem_defrag(void);
 103:lvgl\src\lv_widgets\../lv_core/../lv_font/../lv_misc/lv_mem.h **** 
 104:lvgl\src\lv_widgets\../lv_core/../lv_font/../lv_misc/lv_mem.h **** /**
 105:lvgl\src\lv_widgets\../lv_core/../lv_font/../lv_misc/lv_mem.h ****  *
 106:lvgl\src\lv_widgets\../lv_core/../lv_font/../lv_misc/lv_mem.h ****  * @return
 107:lvgl\src\lv_widgets\../lv_core/../lv_font/../lv_misc/lv_mem.h ****  */
 108:lvgl\src\lv_widgets\../lv_core/../lv_font/../lv_misc/lv_mem.h **** lv_res_t lv_mem_test(void);
 109:lvgl\src\lv_widgets\../lv_core/../lv_font/../lv_misc/lv_mem.h **** 
 110:lvgl\src\lv_widgets\../lv_core/../lv_font/../lv_misc/lv_mem.h **** /**
 111:lvgl\src\lv_widgets\../lv_core/../lv_font/../lv_misc/lv_mem.h ****  * Give information about the work memory of dynamic allocation
 112:lvgl\src\lv_widgets\../lv_core/../lv_font/../lv_misc/lv_mem.h ****  * @param mon_p pointer to a dm_mon_p variable,
 113:lvgl\src\lv_widgets\../lv_core/../lv_font/../lv_misc/lv_mem.h ****  *              the result of the analysis will be stored here
ARM GAS  C:\Users\strap\AppData\Local\Temp\cc7wbcEe.s 			page 25


 114:lvgl\src\lv_widgets\../lv_core/../lv_font/../lv_misc/lv_mem.h ****  */
 115:lvgl\src\lv_widgets\../lv_core/../lv_font/../lv_misc/lv_mem.h **** void lv_mem_monitor(lv_mem_monitor_t * mon_p);
 116:lvgl\src\lv_widgets\../lv_core/../lv_font/../lv_misc/lv_mem.h **** 
 117:lvgl\src\lv_widgets\../lv_core/../lv_font/../lv_misc/lv_mem.h **** /**
 118:lvgl\src\lv_widgets\../lv_core/../lv_font/../lv_misc/lv_mem.h ****  * Give the size of an allocated memory
 119:lvgl\src\lv_widgets\../lv_core/../lv_font/../lv_misc/lv_mem.h ****  * @param data pointer to an allocated memory
 120:lvgl\src\lv_widgets\../lv_core/../lv_font/../lv_misc/lv_mem.h ****  * @return the size of data memory in bytes
 121:lvgl\src\lv_widgets\../lv_core/../lv_font/../lv_misc/lv_mem.h ****  */
 122:lvgl\src\lv_widgets\../lv_core/../lv_font/../lv_misc/lv_mem.h **** uint32_t _lv_mem_get_size(const void * data);
 123:lvgl\src\lv_widgets\../lv_core/../lv_font/../lv_misc/lv_mem.h **** 
 124:lvgl\src\lv_widgets\../lv_core/../lv_font/../lv_misc/lv_mem.h **** /**
 125:lvgl\src\lv_widgets\../lv_core/../lv_font/../lv_misc/lv_mem.h ****  * Get a temporal buffer with the given size.
 126:lvgl\src\lv_widgets\../lv_core/../lv_font/../lv_misc/lv_mem.h ****  * @param size the required size
 127:lvgl\src\lv_widgets\../lv_core/../lv_font/../lv_misc/lv_mem.h ****  */
 128:lvgl\src\lv_widgets\../lv_core/../lv_font/../lv_misc/lv_mem.h **** void * _lv_mem_buf_get(uint32_t size);
 129:lvgl\src\lv_widgets\../lv_core/../lv_font/../lv_misc/lv_mem.h **** 
 130:lvgl\src\lv_widgets\../lv_core/../lv_font/../lv_misc/lv_mem.h **** /**
 131:lvgl\src\lv_widgets\../lv_core/../lv_font/../lv_misc/lv_mem.h ****  * Release a memory buffer
 132:lvgl\src\lv_widgets\../lv_core/../lv_font/../lv_misc/lv_mem.h ****  * @param p buffer to release
 133:lvgl\src\lv_widgets\../lv_core/../lv_font/../lv_misc/lv_mem.h ****  */
 134:lvgl\src\lv_widgets\../lv_core/../lv_font/../lv_misc/lv_mem.h **** void _lv_mem_buf_release(void * p);
 135:lvgl\src\lv_widgets\../lv_core/../lv_font/../lv_misc/lv_mem.h **** 
 136:lvgl\src\lv_widgets\../lv_core/../lv_font/../lv_misc/lv_mem.h **** /**
 137:lvgl\src\lv_widgets\../lv_core/../lv_font/../lv_misc/lv_mem.h ****  * Free all memory buffers
 138:lvgl\src\lv_widgets\../lv_core/../lv_font/../lv_misc/lv_mem.h ****  */
 139:lvgl\src\lv_widgets\../lv_core/../lv_font/../lv_misc/lv_mem.h **** void _lv_mem_buf_free_all(void);
 140:lvgl\src\lv_widgets\../lv_core/../lv_font/../lv_misc/lv_mem.h **** 
 141:lvgl\src\lv_widgets\../lv_core/../lv_font/../lv_misc/lv_mem.h **** 
 142:lvgl\src\lv_widgets\../lv_core/../lv_font/../lv_misc/lv_mem.h **** //! @cond Doxygen_Suppress
 143:lvgl\src\lv_widgets\../lv_core/../lv_font/../lv_misc/lv_mem.h **** 
 144:lvgl\src\lv_widgets\../lv_core/../lv_font/../lv_misc/lv_mem.h **** #if LV_MEMCPY_MEMSET_STD
 145:lvgl\src\lv_widgets\../lv_core/../lv_font/../lv_misc/lv_mem.h **** 
 146:lvgl\src\lv_widgets\../lv_core/../lv_font/../lv_misc/lv_mem.h **** /**
 147:lvgl\src\lv_widgets\../lv_core/../lv_font/../lv_misc/lv_mem.h ****  * Wrapper for the standard memcpy
 148:lvgl\src\lv_widgets\../lv_core/../lv_font/../lv_misc/lv_mem.h ****  * @param dst pointer to the destination buffer
 149:lvgl\src\lv_widgets\../lv_core/../lv_font/../lv_misc/lv_mem.h ****  * @param src pointer to the source buffer
 150:lvgl\src\lv_widgets\../lv_core/../lv_font/../lv_misc/lv_mem.h ****  * @param len number of byte to copy
 151:lvgl\src\lv_widgets\../lv_core/../lv_font/../lv_misc/lv_mem.h ****  */
 152:lvgl\src\lv_widgets\../lv_core/../lv_font/../lv_misc/lv_mem.h **** static inline void * _lv_memcpy(void * dst, const void * src, size_t len)
 153:lvgl\src\lv_widgets\../lv_core/../lv_font/../lv_misc/lv_mem.h **** {
 154:lvgl\src\lv_widgets\../lv_core/../lv_font/../lv_misc/lv_mem.h ****     return memcpy(dst, src, len);
 155:lvgl\src\lv_widgets\../lv_core/../lv_font/../lv_misc/lv_mem.h **** }
 156:lvgl\src\lv_widgets\../lv_core/../lv_font/../lv_misc/lv_mem.h **** 
 157:lvgl\src\lv_widgets\../lv_core/../lv_font/../lv_misc/lv_mem.h **** /**
 158:lvgl\src\lv_widgets\../lv_core/../lv_font/../lv_misc/lv_mem.h ****  * Wrapper for the standard memcpy
 159:lvgl\src\lv_widgets\../lv_core/../lv_font/../lv_misc/lv_mem.h ****  * @param dst pointer to the destination buffer
 160:lvgl\src\lv_widgets\../lv_core/../lv_font/../lv_misc/lv_mem.h ****  * @param src pointer to the source buffer
 161:lvgl\src\lv_widgets\../lv_core/../lv_font/../lv_misc/lv_mem.h ****  * @param len number of byte to copy
 162:lvgl\src\lv_widgets\../lv_core/../lv_font/../lv_misc/lv_mem.h ****  */
 163:lvgl\src\lv_widgets\../lv_core/../lv_font/../lv_misc/lv_mem.h **** static inline void * _lv_memcpy_small(void * dst, const void * src, size_t len)
 164:lvgl\src\lv_widgets\../lv_core/../lv_font/../lv_misc/lv_mem.h **** {
 165:lvgl\src\lv_widgets\../lv_core/../lv_font/../lv_misc/lv_mem.h ****     return memcpy(dst, src, len);
 166:lvgl\src\lv_widgets\../lv_core/../lv_font/../lv_misc/lv_mem.h **** }
 167:lvgl\src\lv_widgets\../lv_core/../lv_font/../lv_misc/lv_mem.h **** 
 168:lvgl\src\lv_widgets\../lv_core/../lv_font/../lv_misc/lv_mem.h **** /**
 169:lvgl\src\lv_widgets\../lv_core/../lv_font/../lv_misc/lv_mem.h ****  * Wrapper for the standard memset
 170:lvgl\src\lv_widgets\../lv_core/../lv_font/../lv_misc/lv_mem.h ****  * @param dst pointer to the destination buffer
ARM GAS  C:\Users\strap\AppData\Local\Temp\cc7wbcEe.s 			page 26


 171:lvgl\src\lv_widgets\../lv_core/../lv_font/../lv_misc/lv_mem.h ****  * @param v value to set [0..255]
 172:lvgl\src\lv_widgets\../lv_core/../lv_font/../lv_misc/lv_mem.h ****  * @param len number of byte to set
 173:lvgl\src\lv_widgets\../lv_core/../lv_font/../lv_misc/lv_mem.h ****  */
 174:lvgl\src\lv_widgets\../lv_core/../lv_font/../lv_misc/lv_mem.h **** static inline void _lv_memset(void * dst, uint8_t v, size_t len)
 175:lvgl\src\lv_widgets\../lv_core/../lv_font/../lv_misc/lv_mem.h **** {
 176:lvgl\src\lv_widgets\../lv_core/../lv_font/../lv_misc/lv_mem.h ****     memset(dst, v, len);
 177:lvgl\src\lv_widgets\../lv_core/../lv_font/../lv_misc/lv_mem.h **** }
 178:lvgl\src\lv_widgets\../lv_core/../lv_font/../lv_misc/lv_mem.h **** 
 179:lvgl\src\lv_widgets\../lv_core/../lv_font/../lv_misc/lv_mem.h **** /**
 180:lvgl\src\lv_widgets\../lv_core/../lv_font/../lv_misc/lv_mem.h ****  * Wrapper for the standard memset with fixed 0x00 value
 181:lvgl\src\lv_widgets\../lv_core/../lv_font/../lv_misc/lv_mem.h ****  * @param dst pointer to the destination buffer
 182:lvgl\src\lv_widgets\../lv_core/../lv_font/../lv_misc/lv_mem.h ****  * @param len number of byte to set
 183:lvgl\src\lv_widgets\../lv_core/../lv_font/../lv_misc/lv_mem.h ****  */
 184:lvgl\src\lv_widgets\../lv_core/../lv_font/../lv_misc/lv_mem.h **** static inline void _lv_memset_00(void * dst, size_t len)
 185:lvgl\src\lv_widgets\../lv_core/../lv_font/../lv_misc/lv_mem.h **** {
 186:lvgl\src\lv_widgets\../lv_core/../lv_font/../lv_misc/lv_mem.h ****     memset(dst, 0x00, len);
 187:lvgl\src\lv_widgets\../lv_core/../lv_font/../lv_misc/lv_mem.h **** }
 188:lvgl\src\lv_widgets\../lv_core/../lv_font/../lv_misc/lv_mem.h **** 
 189:lvgl\src\lv_widgets\../lv_core/../lv_font/../lv_misc/lv_mem.h **** /**
 190:lvgl\src\lv_widgets\../lv_core/../lv_font/../lv_misc/lv_mem.h ****  * Wrapper for the standard memset with fixed 0xFF value
 191:lvgl\src\lv_widgets\../lv_core/../lv_font/../lv_misc/lv_mem.h ****  * @param dst pointer to the destination buffer
 192:lvgl\src\lv_widgets\../lv_core/../lv_font/../lv_misc/lv_mem.h ****  * @param len number of byte to set
 193:lvgl\src\lv_widgets\../lv_core/../lv_font/../lv_misc/lv_mem.h ****  */
 194:lvgl\src\lv_widgets\../lv_core/../lv_font/../lv_misc/lv_mem.h **** static inline void _lv_memset_ff(void * dst, size_t len)
 195:lvgl\src\lv_widgets\../lv_core/../lv_font/../lv_misc/lv_mem.h **** {
 196:lvgl\src\lv_widgets\../lv_core/../lv_font/../lv_misc/lv_mem.h ****     memset(dst, 0xFF, len);
 197:lvgl\src\lv_widgets\../lv_core/../lv_font/../lv_misc/lv_mem.h **** }
 198:lvgl\src\lv_widgets\../lv_core/../lv_font/../lv_misc/lv_mem.h **** 
 199:lvgl\src\lv_widgets\../lv_core/../lv_font/../lv_misc/lv_mem.h **** #else
 200:lvgl\src\lv_widgets\../lv_core/../lv_font/../lv_misc/lv_mem.h **** /**
 201:lvgl\src\lv_widgets\../lv_core/../lv_font/../lv_misc/lv_mem.h ****  * Same as `memcpy` but optimized for 4 byte operation.
 202:lvgl\src\lv_widgets\../lv_core/../lv_font/../lv_misc/lv_mem.h ****  * @param dst pointer to the destination buffer
 203:lvgl\src\lv_widgets\../lv_core/../lv_font/../lv_misc/lv_mem.h ****  * @param src pointer to the source buffer
 204:lvgl\src\lv_widgets\../lv_core/../lv_font/../lv_misc/lv_mem.h ****  * @param len number of byte to copy
 205:lvgl\src\lv_widgets\../lv_core/../lv_font/../lv_misc/lv_mem.h ****  */
 206:lvgl\src\lv_widgets\../lv_core/../lv_font/../lv_misc/lv_mem.h **** LV_ATTRIBUTE_FAST_MEM void * _lv_memcpy(void * dst, const void * src, size_t len);
 207:lvgl\src\lv_widgets\../lv_core/../lv_font/../lv_misc/lv_mem.h **** 
 208:lvgl\src\lv_widgets\../lv_core/../lv_font/../lv_misc/lv_mem.h **** /**
 209:lvgl\src\lv_widgets\../lv_core/../lv_font/../lv_misc/lv_mem.h ****  * Same as `memcpy` but optimized to copy only a few bytes.
 210:lvgl\src\lv_widgets\../lv_core/../lv_font/../lv_misc/lv_mem.h ****  * @param dst pointer to the destination buffer
 211:lvgl\src\lv_widgets\../lv_core/../lv_font/../lv_misc/lv_mem.h ****  * @param src pointer to the source buffer
 212:lvgl\src\lv_widgets\../lv_core/../lv_font/../lv_misc/lv_mem.h ****  * @param len number of byte to copy
 213:lvgl\src\lv_widgets\../lv_core/../lv_font/../lv_misc/lv_mem.h ****  */
 214:lvgl\src\lv_widgets\../lv_core/../lv_font/../lv_misc/lv_mem.h **** LV_ATTRIBUTE_FAST_MEM static inline void * _lv_memcpy_small(void * dst, const void * src, size_t le
 215:lvgl\src\lv_widgets\../lv_core/../lv_font/../lv_misc/lv_mem.h **** {
 216:lvgl\src\lv_widgets\../lv_core/../lv_font/../lv_misc/lv_mem.h ****     uint8_t * d8 = (uint8_t *)dst;
 459              		.loc 3 216 0
 460 003a 02AA     		add	r2, sp, #8
 461              	.LVL81:
 462              	.LBE129:
 463              	.LBE128:
 464              	.LBE127:
 465              		.loc 1 672 0
 466 003c 0823     		movs	r3, #8
 467 003e 04E0     		b	.L30
 468              	.LVL82:
 469              	.L31:
ARM GAS  C:\Users\strap\AppData\Local\Temp\cc7wbcEe.s 			page 27


 470              	.LBB132:
 471              	.LBB131:
 472              	.LBB130:
 217:lvgl\src\lv_widgets\../lv_core/../lv_font/../lv_misc/lv_mem.h ****     const uint8_t * s8 = (const uint8_t *)src;
 218:lvgl\src\lv_widgets\../lv_core/../lv_font/../lv_misc/lv_mem.h **** 
 219:lvgl\src\lv_widgets\../lv_core/../lv_font/../lv_misc/lv_mem.h ****     while(len) {
 220:lvgl\src\lv_widgets\../lv_core/../lv_font/../lv_misc/lv_mem.h ****         *d8 = *s8;
 473              		.loc 3 220 0
 474 0040 11F8010B 		ldrb	r0, [r1], #1	@ zero_extendqisi2
 475              	.LVL83:
 476 0044 02F8010B 		strb	r0, [r2], #1
 477              	.LVL84:
 221:lvgl\src\lv_widgets\../lv_core/../lv_font/../lv_misc/lv_mem.h ****         d8++;
 222:lvgl\src\lv_widgets\../lv_core/../lv_font/../lv_misc/lv_mem.h ****         s8++;
 223:lvgl\src\lv_widgets\../lv_core/../lv_font/../lv_misc/lv_mem.h ****         len--;
 478              		.loc 3 223 0
 479 0048 013B     		subs	r3, r3, #1
 480              	.LVL85:
 481              	.L30:
 219:lvgl\src\lv_widgets\../lv_core/../lv_font/../lv_misc/lv_mem.h ****         *d8 = *s8;
 482              		.loc 3 219 0
 483 004a 002B     		cmp	r3, #0
 484 004c F8D1     		bne	.L31
 485              	.LVL86:
 486              	.LBE130:
 487              	.LBE131:
 488              	.LBE132:
 489              	.LBB133:
 490              	.LBB134:
 112:lvgl\src\lv_widgets\../lv_core/lv_obj_style_dec.h **** _LV_OBJ_STYLE_SET_GET_DECLARE(PAD_RIGHT, pad_right, lv_style_int_t, _int, scalar)
 491              		.loc 2 112 0
 492 004e 1222     		movs	r2, #18
 493              	.LVL87:
 494 0050 0021     		movs	r1, #0
 495              	.LVL88:
 496 0052 3846     		mov	r0, r7
 497 0054 FFF7FEFF 		bl	_lv_obj_get_style_int
 498              	.LVL89:
 499              	.LBE134:
 500              	.LBE133:
 673:lvgl\src\lv_widgets/lv_cont.c ****     parent_area.x1 += lv_obj_get_style_pad_left(par, LV_OBJ_PART_MAIN);
 501              		.loc 1 673 0
 502 0058 BDF80830 		ldrh	r3, [sp, #8]
 503 005c 1844     		add	r0, r0, r3
 504 005e ADF80800 		strh	r0, [sp, #8]	@ movhi
 505              	.LVL90:
 506              	.LBB135:
 507              	.LBB136:
 113:lvgl\src\lv_widgets\../lv_core/lv_obj_style_dec.h **** _LV_OBJ_STYLE_SET_GET_DECLARE(PAD_INNER, pad_inner, lv_style_int_t, _int, scalar)
 508              		.loc 2 113 0
 509 0062 1322     		movs	r2, #19
 510 0064 0021     		movs	r1, #0
 511 0066 3846     		mov	r0, r7
 512 0068 FFF7FEFF 		bl	_lv_obj_get_style_int
 513              	.LVL91:
 514              	.LBE136:
 515              	.LBE135:
ARM GAS  C:\Users\strap\AppData\Local\Temp\cc7wbcEe.s 			page 28


 674:lvgl\src\lv_widgets/lv_cont.c ****     parent_area.x2 -= lv_obj_get_style_pad_right(par, LV_OBJ_PART_MAIN);
 516              		.loc 1 674 0
 517 006c BDF80C30 		ldrh	r3, [sp, #12]
 518 0070 181A     		subs	r0, r3, r0
 519 0072 ADF80C00 		strh	r0, [sp, #12]	@ movhi
 520              	.LVL92:
 521              	.LBB137:
 522              	.LBB138:
 110:lvgl\src\lv_widgets\../lv_core/lv_obj_style_dec.h **** _LV_OBJ_STYLE_SET_GET_DECLARE(PAD_BOTTOM, pad_bottom, lv_style_int_t, _int, scalar)
 523              		.loc 2 110 0
 524 0076 1022     		movs	r2, #16
 525 0078 0021     		movs	r1, #0
 526 007a 3846     		mov	r0, r7
 527 007c FFF7FEFF 		bl	_lv_obj_get_style_int
 528              	.LVL93:
 529              	.LBE138:
 530              	.LBE137:
 675:lvgl\src\lv_widgets/lv_cont.c ****     parent_area.y1 += lv_obj_get_style_pad_top(par, LV_OBJ_PART_MAIN);
 531              		.loc 1 675 0
 532 0080 BDF80A30 		ldrh	r3, [sp, #10]
 533 0084 1844     		add	r0, r0, r3
 534 0086 ADF80A00 		strh	r0, [sp, #10]	@ movhi
 535              	.LVL94:
 536              	.LBB139:
 537              	.LBB140:
 111:lvgl\src\lv_widgets\../lv_core/lv_obj_style_dec.h **** _LV_OBJ_STYLE_SET_GET_DECLARE(PAD_LEFT, pad_left, lv_style_int_t, _int, scalar)
 538              		.loc 2 111 0
 539 008a 1122     		movs	r2, #17
 540 008c 0021     		movs	r1, #0
 541 008e 3846     		mov	r0, r7
 542 0090 FFF7FEFF 		bl	_lv_obj_get_style_int
 543              	.LVL95:
 544              	.LBE140:
 545              	.LBE139:
 676:lvgl\src\lv_widgets/lv_cont.c ****     parent_area.y2 -= lv_obj_get_style_pad_bottom(par, LV_OBJ_PART_MAIN);
 546              		.loc 1 676 0
 547 0094 BDF80E30 		ldrh	r3, [sp, #14]
 548 0098 181A     		subs	r0, r3, r0
 549 009a ADF80E00 		strh	r0, [sp, #14]	@ movhi
 677:lvgl\src\lv_widgets/lv_cont.c **** 
 678:lvgl\src\lv_widgets/lv_cont.c ****     /*Search the side coordinates of the children*/
 679:lvgl\src\lv_widgets/lv_cont.c ****     lv_obj_get_coords(cont, &ori);
 550              		.loc 1 679 0
 551 009e 04A9     		add	r1, sp, #16
 552 00a0 2046     		mov	r0, r4
 553 00a2 FFF7FEFF 		bl	lv_obj_get_coords
 554              	.LVL96:
 680:lvgl\src\lv_widgets/lv_cont.c ****     lv_obj_get_coords(cont, &tight_area);
 555              		.loc 1 680 0
 556 00a6 06A9     		add	r1, sp, #24
 557 00a8 2046     		mov	r0, r4
 558 00aa FFF7FEFF 		bl	lv_obj_get_coords
 559              	.LVL97:
 681:lvgl\src\lv_widgets/lv_cont.c **** 
 682:lvgl\src\lv_widgets/lv_cont.c ****     bool has_children = _lv_ll_is_empty(&cont->child_ll) ? false : true;
 560              		.loc 1 682 0
 561 00ae 261D     		adds	r6, r4, #4
ARM GAS  C:\Users\strap\AppData\Local\Temp\cc7wbcEe.s 			page 29


 562 00b0 3046     		mov	r0, r6
 563 00b2 FFF7FEFF 		bl	_lv_ll_is_empty
 564              	.LVL98:
 565 00b6 10B1     		cbz	r0, .L74
 566 00b8 4FF00009 		mov	r9, #0
 567 00bc 01E0     		b	.L32
 568              	.L74:
 569 00be 4FF00109 		mov	r9, #1
 570              	.L32:
 571              	.LVL99:
 683:lvgl\src\lv_widgets/lv_cont.c **** 
 684:lvgl\src\lv_widgets/lv_cont.c ****     if(has_children) {
 572              		.loc 1 684 0 discriminator 4
 573 00c2 B9F1000F 		cmp	r9, #0
 574 00c6 00F09980 		beq	.L33
 685:lvgl\src\lv_widgets/lv_cont.c ****         tight_area.x1 = LV_COORD_MAX;
 575              		.loc 1 685 0
 576 00ca 47F61843 		movw	r3, #31768
 577 00ce ADF81830 		strh	r3, [sp, #24]	@ movhi
 686:lvgl\src\lv_widgets/lv_cont.c ****         tight_area.y1 = LV_COORD_MAX;
 578              		.loc 1 686 0
 579 00d2 ADF81A30 		strh	r3, [sp, #26]	@ movhi
 687:lvgl\src\lv_widgets/lv_cont.c ****         tight_area.x2 = LV_COORD_MIN;
 580              		.loc 1 687 0
 581 00d6 48F2E833 		movw	r3, #33768
 582 00da ADF81C30 		strh	r3, [sp, #28]	@ movhi
 688:lvgl\src\lv_widgets/lv_cont.c ****         tight_area.y2 = LV_COORD_MIN;
 583              		.loc 1 688 0
 584 00de ADF81E30 		strh	r3, [sp, #30]	@ movhi
 689:lvgl\src\lv_widgets/lv_cont.c **** 
 690:lvgl\src\lv_widgets/lv_cont.c ****         _LV_LL_READ(cont->child_ll, child_i) {
 585              		.loc 1 690 0
 586 00e2 3046     		mov	r0, r6
 587 00e4 FFF7FEFF 		bl	_lv_ll_get_head
 588              	.LVL100:
 589 00e8 0546     		mov	r5, r0
 590              	.LVL101:
 591 00ea 5DE0     		b	.L34
 592              	.L39:
 691:lvgl\src\lv_widgets/lv_cont.c ****             if(lv_obj_get_hidden(child_i) != false) continue;
 593              		.loc 1 691 0
 594 00ec 2846     		mov	r0, r5
 595              	.LVL102:
 596 00ee FFF7FEFF 		bl	lv_obj_get_hidden
 597              	.LVL103:
 598 00f2 0028     		cmp	r0, #0
 599 00f4 53D1     		bne	.L35
 692:lvgl\src\lv_widgets/lv_cont.c **** 
 693:lvgl\src\lv_widgets/lv_cont.c ****             if(ext->fit_left != LV_FIT_PARENT) {
 600              		.loc 1 693 0
 601 00f6 98F80030 		ldrb	r3, [r8]	@ zero_extendqisi2
 602 00fa 03F03003 		and	r3, r3, #48
 603 00fe 202B     		cmp	r3, #32
 604 0100 0ED0     		beq	.L36
 605              	.LVL104:
 606              	.LBB141:
 607              	.LBB142:
ARM GAS  C:\Users\strap\AppData\Local\Temp\cc7wbcEe.s 			page 30


 608              	.LBB143:
 115:lvgl\src\lv_widgets\../lv_core/lv_obj_style_dec.h **** _LV_OBJ_STYLE_SET_GET_DECLARE(MARGIN_TOP, margin_top, lv_style_int_t, _int, scalar)
 116:lvgl\src\lv_widgets\../lv_core/lv_obj_style_dec.h **** _LV_OBJ_STYLE_SET_GET_DECLARE(MARGIN_BOTTOM, margin_bottom, lv_style_int_t, _int, scalar)
 117:lvgl\src\lv_widgets\../lv_core/lv_obj_style_dec.h **** _LV_OBJ_STYLE_SET_GET_DECLARE(MARGIN_LEFT, margin_left, lv_style_int_t, _int, scalar)
 609              		.loc 2 117 0
 610 0102 1722     		movs	r2, #23
 611 0104 0021     		movs	r1, #0
 612 0106 2846     		mov	r0, r5
 613 0108 FFF7FEFF 		bl	_lv_obj_get_style_int
 614              	.LVL105:
 615              	.LBE143:
 616              	.LBE142:
 694:lvgl\src\lv_widgets/lv_cont.c ****                 lv_style_int_t mleft = lv_obj_get_style_margin_left(child_i, LV_OBJ_PART_MAIN);
 695:lvgl\src\lv_widgets/lv_cont.c ****                 tight_area.x1 = LV_MATH_MIN(tight_area.x1, child_i->coords.x1 - mleft);
 617              		.loc 1 695 0
 618 010c B5F91030 		ldrsh	r3, [r5, #16]
 619 0110 181A     		subs	r0, r3, r0
 620 0112 BDF91830 		ldrsh	r3, [sp, #24]
 621 0116 9842     		cmp	r0, r3
 622 0118 A8BF     		it	ge
 623 011a 1846     		movge	r0, r3
 624 011c ADF81800 		strh	r0, [sp, #24]	@ movhi
 625              	.L36:
 626              	.LBE141:
 696:lvgl\src\lv_widgets/lv_cont.c ****             }
 697:lvgl\src\lv_widgets/lv_cont.c **** 
 698:lvgl\src\lv_widgets/lv_cont.c ****             if(ext->fit_right != LV_FIT_PARENT) {
 627              		.loc 1 698 0
 628 0120 98F80030 		ldrb	r3, [r8]	@ zero_extendqisi2
 629 0124 03F0C003 		and	r3, r3, #192
 630 0128 802B     		cmp	r3, #128
 631 012a 0ED0     		beq	.L37
 632              	.LVL106:
 633              	.LBB144:
 634              	.LBB145:
 635              	.LBB146:
 118:lvgl\src\lv_widgets\../lv_core/lv_obj_style_dec.h **** _LV_OBJ_STYLE_SET_GET_DECLARE(MARGIN_RIGHT, margin_right, lv_style_int_t, _int, scalar)
 636              		.loc 2 118 0
 637 012c 1822     		movs	r2, #24
 638 012e 0021     		movs	r1, #0
 639 0130 2846     		mov	r0, r5
 640 0132 FFF7FEFF 		bl	_lv_obj_get_style_int
 641              	.LVL107:
 642              	.LBE146:
 643              	.LBE145:
 699:lvgl\src\lv_widgets/lv_cont.c ****                 lv_style_int_t mright = lv_obj_get_style_margin_right(child_i, LV_OBJ_PART_MAIN);
 700:lvgl\src\lv_widgets/lv_cont.c ****                 tight_area.x2 = LV_MATH_MAX(tight_area.x2, child_i->coords.x2 + mright);
 644              		.loc 1 700 0
 645 0136 B5F91430 		ldrsh	r3, [r5, #20]
 646 013a 1844     		add	r0, r0, r3
 647 013c BDF91C30 		ldrsh	r3, [sp, #28]
 648 0140 9842     		cmp	r0, r3
 649 0142 B8BF     		it	lt
 650 0144 1846     		movlt	r0, r3
 651 0146 ADF81C00 		strh	r0, [sp, #28]	@ movhi
 652              	.L37:
 653              	.LBE144:
ARM GAS  C:\Users\strap\AppData\Local\Temp\cc7wbcEe.s 			page 31


 701:lvgl\src\lv_widgets/lv_cont.c ****             }
 702:lvgl\src\lv_widgets/lv_cont.c **** 
 703:lvgl\src\lv_widgets/lv_cont.c ****             if(ext->fit_top != LV_FIT_PARENT) {
 654              		.loc 1 703 0
 655 014a 98F80130 		ldrb	r3, [r8, #1]	@ zero_extendqisi2
 656 014e 03F00303 		and	r3, r3, #3
 657 0152 022B     		cmp	r3, #2
 658 0154 0ED0     		beq	.L38
 659              	.LVL108:
 660              	.LBB147:
 661              	.LBB148:
 662              	.LBB149:
 115:lvgl\src\lv_widgets\../lv_core/lv_obj_style_dec.h **** _LV_OBJ_STYLE_SET_GET_DECLARE(MARGIN_BOTTOM, margin_bottom, lv_style_int_t, _int, scalar)
 663              		.loc 2 115 0
 664 0156 1522     		movs	r2, #21
 665 0158 0021     		movs	r1, #0
 666 015a 2846     		mov	r0, r5
 667 015c FFF7FEFF 		bl	_lv_obj_get_style_int
 668              	.LVL109:
 669              	.LBE149:
 670              	.LBE148:
 704:lvgl\src\lv_widgets/lv_cont.c ****                 lv_style_int_t mtop = lv_obj_get_style_margin_top(child_i, LV_OBJ_PART_MAIN);
 705:lvgl\src\lv_widgets/lv_cont.c ****                 tight_area.y1 = LV_MATH_MIN(tight_area.y1, child_i->coords.y1 - mtop);
 671              		.loc 1 705 0
 672 0160 B5F91230 		ldrsh	r3, [r5, #18]
 673 0164 181A     		subs	r0, r3, r0
 674 0166 BDF91A30 		ldrsh	r3, [sp, #26]
 675 016a 9842     		cmp	r0, r3
 676 016c A8BF     		it	ge
 677 016e 1846     		movge	r0, r3
 678 0170 ADF81A00 		strh	r0, [sp, #26]	@ movhi
 679              	.L38:
 680              	.LBE147:
 706:lvgl\src\lv_widgets/lv_cont.c ****             }
 707:lvgl\src\lv_widgets/lv_cont.c **** 
 708:lvgl\src\lv_widgets/lv_cont.c ****             if(ext->fit_bottom != LV_FIT_PARENT) {
 681              		.loc 1 708 0
 682 0174 98F80130 		ldrb	r3, [r8, #1]	@ zero_extendqisi2
 683 0178 03F00C03 		and	r3, r3, #12
 684 017c 082B     		cmp	r3, #8
 685 017e 0ED0     		beq	.L35
 686              	.LVL110:
 687              	.LBB150:
 688              	.LBB151:
 689              	.LBB152:
 116:lvgl\src\lv_widgets\../lv_core/lv_obj_style_dec.h **** _LV_OBJ_STYLE_SET_GET_DECLARE(MARGIN_LEFT, margin_left, lv_style_int_t, _int, scalar)
 690              		.loc 2 116 0
 691 0180 1622     		movs	r2, #22
 692 0182 0021     		movs	r1, #0
 693 0184 2846     		mov	r0, r5
 694 0186 FFF7FEFF 		bl	_lv_obj_get_style_int
 695              	.LVL111:
 696              	.LBE152:
 697              	.LBE151:
 709:lvgl\src\lv_widgets/lv_cont.c ****                 lv_style_int_t mbottom = lv_obj_get_style_margin_bottom(child_i, LV_OBJ_PART_MAIN);
 710:lvgl\src\lv_widgets/lv_cont.c ****                 tight_area.y2 = LV_MATH_MAX(tight_area.y2, child_i->coords.y2 + mbottom);
 698              		.loc 1 710 0
ARM GAS  C:\Users\strap\AppData\Local\Temp\cc7wbcEe.s 			page 32


 699 018a B5F91630 		ldrsh	r3, [r5, #22]
 700 018e 1844     		add	r0, r0, r3
 701 0190 BDF91E30 		ldrsh	r3, [sp, #30]
 702 0194 9842     		cmp	r0, r3
 703 0196 B8BF     		it	lt
 704 0198 1846     		movlt	r0, r3
 705 019a ADF81E00 		strh	r0, [sp, #30]	@ movhi
 706              	.L35:
 707              	.LBE150:
 690:lvgl\src\lv_widgets/lv_cont.c ****             if(lv_obj_get_hidden(child_i) != false) continue;
 708              		.loc 1 690 0 discriminator 2
 709 019e 2946     		mov	r1, r5
 710 01a0 3046     		mov	r0, r6
 711 01a2 FFF7FEFF 		bl	_lv_ll_get_next
 712              	.LVL112:
 713 01a6 0546     		mov	r5, r0
 714              	.LVL113:
 715              	.L34:
 690:lvgl\src\lv_widgets/lv_cont.c ****             if(lv_obj_get_hidden(child_i) != false) continue;
 716              		.loc 1 690 0 is_stmt 0 discriminator 1
 717 01a8 002D     		cmp	r5, #0
 718 01aa 9FD1     		bne	.L39
 719              	.LVL114:
 720              	.LBB153:
 721              	.LBB154:
 112:lvgl\src\lv_widgets\../lv_core/lv_obj_style_dec.h **** _LV_OBJ_STYLE_SET_GET_DECLARE(PAD_RIGHT, pad_right, lv_style_int_t, _int, scalar)
 722              		.loc 2 112 0 is_stmt 1
 723 01ac 1222     		movs	r2, #18
 724 01ae 0021     		movs	r1, #0
 725 01b0 2046     		mov	r0, r4
 726              	.LVL115:
 727 01b2 FFF7FEFF 		bl	_lv_obj_get_style_int
 728              	.LVL116:
 729              	.LBE154:
 730              	.LBE153:
 711:lvgl\src\lv_widgets/lv_cont.c ****             }
 712:lvgl\src\lv_widgets/lv_cont.c ****         }
 713:lvgl\src\lv_widgets/lv_cont.c **** 
 714:lvgl\src\lv_widgets/lv_cont.c ****         tight_area.x1 -= lv_obj_get_style_pad_left(cont, LV_CONT_PART_MAIN);
 731              		.loc 1 714 0
 732 01b6 BDF81830 		ldrh	r3, [sp, #24]
 733 01ba 181A     		subs	r0, r3, r0
 734 01bc ADF81800 		strh	r0, [sp, #24]	@ movhi
 735              	.LVL117:
 736              	.LBB155:
 737              	.LBB156:
 113:lvgl\src\lv_widgets\../lv_core/lv_obj_style_dec.h **** _LV_OBJ_STYLE_SET_GET_DECLARE(PAD_INNER, pad_inner, lv_style_int_t, _int, scalar)
 738              		.loc 2 113 0
 739 01c0 1322     		movs	r2, #19
 740 01c2 0021     		movs	r1, #0
 741 01c4 2046     		mov	r0, r4
 742 01c6 FFF7FEFF 		bl	_lv_obj_get_style_int
 743              	.LVL118:
 744              	.LBE156:
 745              	.LBE155:
 715:lvgl\src\lv_widgets/lv_cont.c ****         tight_area.x2 += lv_obj_get_style_pad_right(cont, LV_CONT_PART_MAIN);
 746              		.loc 1 715 0
ARM GAS  C:\Users\strap\AppData\Local\Temp\cc7wbcEe.s 			page 33


 747 01ca BDF81C30 		ldrh	r3, [sp, #28]
 748 01ce 1844     		add	r0, r0, r3
 749 01d0 ADF81C00 		strh	r0, [sp, #28]	@ movhi
 750              	.LVL119:
 751              	.LBB157:
 752              	.LBB158:
 110:lvgl\src\lv_widgets\../lv_core/lv_obj_style_dec.h **** _LV_OBJ_STYLE_SET_GET_DECLARE(PAD_BOTTOM, pad_bottom, lv_style_int_t, _int, scalar)
 753              		.loc 2 110 0
 754 01d4 1022     		movs	r2, #16
 755 01d6 0021     		movs	r1, #0
 756 01d8 2046     		mov	r0, r4
 757 01da FFF7FEFF 		bl	_lv_obj_get_style_int
 758              	.LVL120:
 759              	.LBE158:
 760              	.LBE157:
 716:lvgl\src\lv_widgets/lv_cont.c ****         tight_area.y1 -= lv_obj_get_style_pad_top(cont, LV_CONT_PART_MAIN);
 761              		.loc 1 716 0
 762 01de BDF81A30 		ldrh	r3, [sp, #26]
 763 01e2 181A     		subs	r0, r3, r0
 764 01e4 ADF81A00 		strh	r0, [sp, #26]	@ movhi
 765              	.LVL121:
 766              	.LBB159:
 767              	.LBB160:
 111:lvgl\src\lv_widgets\../lv_core/lv_obj_style_dec.h **** _LV_OBJ_STYLE_SET_GET_DECLARE(PAD_LEFT, pad_left, lv_style_int_t, _int, scalar)
 768              		.loc 2 111 0
 769 01e8 1122     		movs	r2, #17
 770 01ea 0021     		movs	r1, #0
 771 01ec 2046     		mov	r0, r4
 772 01ee FFF7FEFF 		bl	_lv_obj_get_style_int
 773              	.LVL122:
 774              	.LBE160:
 775              	.LBE159:
 717:lvgl\src\lv_widgets/lv_cont.c ****         tight_area.y2 += lv_obj_get_style_pad_bottom(cont, LV_CONT_PART_MAIN);
 776              		.loc 1 717 0
 777 01f2 BDF81E30 		ldrh	r3, [sp, #30]
 778 01f6 1844     		add	r0, r0, r3
 779 01f8 ADF81E00 		strh	r0, [sp, #30]	@ movhi
 780              	.LVL123:
 781              	.L33:
 682:lvgl\src\lv_widgets/lv_cont.c **** 
 782              		.loc 1 682 0
 783 01fc 04A9     		add	r1, sp, #16
 784 01fe 6A46     		mov	r2, sp
 785 0200 0823     		movs	r3, #8
 786 0202 04E0     		b	.L40
 787              	.LVL124:
 788              	.L41:
 789              	.LBB161:
 790              	.LBB162:
 791              	.LBB163:
 220:lvgl\src\lv_widgets\../lv_core/../lv_font/../lv_misc/lv_mem.h ****         d8++;
 792              		.loc 3 220 0
 793 0204 11F8010B 		ldrb	r0, [r1], #1	@ zero_extendqisi2
 794              	.LVL125:
 795 0208 02F8010B 		strb	r0, [r2], #1
 796              	.LVL126:
 797              		.loc 3 223 0
ARM GAS  C:\Users\strap\AppData\Local\Temp\cc7wbcEe.s 			page 34


 798 020c 013B     		subs	r3, r3, #1
 799              	.LVL127:
 800              	.L40:
 219:lvgl\src\lv_widgets\../lv_core/../lv_font/../lv_misc/lv_mem.h ****         *d8 = *s8;
 801              		.loc 3 219 0
 802 020e 002B     		cmp	r3, #0
 803 0210 F8D1     		bne	.L41
 804              	.LVL128:
 805              	.LBE163:
 806              	.LBE162:
 807              	.LBE161:
 718:lvgl\src\lv_widgets/lv_cont.c ****     }
 719:lvgl\src\lv_widgets/lv_cont.c **** 
 720:lvgl\src\lv_widgets/lv_cont.c ****     lv_area_t new_area;
 721:lvgl\src\lv_widgets/lv_cont.c ****     lv_area_copy(&new_area, &ori);
 722:lvgl\src\lv_widgets/lv_cont.c **** 
 723:lvgl\src\lv_widgets/lv_cont.c ****     switch(ext->fit_left) {
 808              		.loc 1 723 0
 809 0212 98F80030 		ldrb	r3, [r8]	@ zero_extendqisi2
 810 0216 C3F30113 		ubfx	r3, r3, #4, #2
 811 021a 022B     		cmp	r3, #2
 812 021c 07D0     		beq	.L43
 813 021e 0BD8     		bhi	.L44
 814 0220 012B     		cmp	r3, #1
 815 0222 18D1     		bne	.L42
 724:lvgl\src\lv_widgets/lv_cont.c ****         case LV_FIT_TIGHT:
 725:lvgl\src\lv_widgets/lv_cont.c ****             new_area.x1 = tight_area.x1;
 816              		.loc 1 725 0
 817 0224 BDF91830 		ldrsh	r3, [sp, #24]
 818 0228 ADF80030 		strh	r3, [sp]	@ movhi
 726:lvgl\src\lv_widgets/lv_cont.c ****             break;
 819              		.loc 1 726 0
 820 022c 13E0     		b	.L42
 821              	.L43:
 727:lvgl\src\lv_widgets/lv_cont.c ****         case LV_FIT_PARENT:
 728:lvgl\src\lv_widgets/lv_cont.c ****             new_area.x1 = parent_area.x1;
 822              		.loc 1 728 0
 823 022e BDF90830 		ldrsh	r3, [sp, #8]
 824 0232 ADF80030 		strh	r3, [sp]	@ movhi
 729:lvgl\src\lv_widgets/lv_cont.c ****             break;
 825              		.loc 1 729 0
 826 0236 0EE0     		b	.L42
 827              	.L44:
 730:lvgl\src\lv_widgets/lv_cont.c ****         case LV_FIT_MAX:
 731:lvgl\src\lv_widgets/lv_cont.c ****             new_area.x1 = has_children ? LV_MATH_MIN(tight_area.x1, parent_area.x1) : parent_area.x
 828              		.loc 1 731 0
 829 0238 B9F1000F 		cmp	r9, #0
 830 023c 07D0     		beq	.L46
 831              		.loc 1 731 0 is_stmt 0 discriminator 1
 832 023e BDF90820 		ldrsh	r2, [sp, #8]
 833              	.LVL129:
 834 0242 BDF91830 		ldrsh	r3, [sp, #24]
 835 0246 9342     		cmp	r3, r2
 836 0248 A8BF     		it	ge
 837 024a 1346     		movge	r3, r2
 838 024c 01E0     		b	.L47
 839              	.LVL130:
ARM GAS  C:\Users\strap\AppData\Local\Temp\cc7wbcEe.s 			page 35


 840              	.L46:
 841              		.loc 1 731 0 discriminator 2
 842 024e BDF90830 		ldrsh	r3, [sp, #8]
 843              	.LVL131:
 844              	.L47:
 845              		.loc 1 731 0 discriminator 4
 846 0252 ADF80030 		strh	r3, [sp]	@ movhi
 847              	.L42:
 732:lvgl\src\lv_widgets/lv_cont.c ****             break;
 733:lvgl\src\lv_widgets/lv_cont.c ****         default:
 734:lvgl\src\lv_widgets/lv_cont.c ****             break;
 735:lvgl\src\lv_widgets/lv_cont.c ****     }
 736:lvgl\src\lv_widgets/lv_cont.c **** 
 737:lvgl\src\lv_widgets/lv_cont.c ****     switch(ext->fit_right) {
 848              		.loc 1 737 0 is_stmt 1
 849 0256 98F80030 		ldrb	r3, [r8]	@ zero_extendqisi2
 850 025a 9B09     		lsrs	r3, r3, #6
 851 025c 022B     		cmp	r3, #2
 852 025e 07D0     		beq	.L49
 853 0260 0BD8     		bhi	.L50
 854 0262 012B     		cmp	r3, #1
 855 0264 18D1     		bne	.L48
 738:lvgl\src\lv_widgets/lv_cont.c ****         case LV_FIT_TIGHT:
 739:lvgl\src\lv_widgets/lv_cont.c ****             new_area.x2 = tight_area.x2;
 856              		.loc 1 739 0
 857 0266 BDF91C30 		ldrsh	r3, [sp, #28]
 858 026a ADF80430 		strh	r3, [sp, #4]	@ movhi
 740:lvgl\src\lv_widgets/lv_cont.c ****             break;
 859              		.loc 1 740 0
 860 026e 13E0     		b	.L48
 861              	.L49:
 741:lvgl\src\lv_widgets/lv_cont.c ****         case LV_FIT_PARENT:
 742:lvgl\src\lv_widgets/lv_cont.c ****             new_area.x2 = parent_area.x2;
 862              		.loc 1 742 0
 863 0270 BDF90C30 		ldrsh	r3, [sp, #12]
 864 0274 ADF80430 		strh	r3, [sp, #4]	@ movhi
 743:lvgl\src\lv_widgets/lv_cont.c ****             break;
 865              		.loc 1 743 0
 866 0278 0EE0     		b	.L48
 867              	.L50:
 744:lvgl\src\lv_widgets/lv_cont.c ****         case LV_FIT_MAX:
 745:lvgl\src\lv_widgets/lv_cont.c ****             new_area.x2 = has_children ? LV_MATH_MAX(tight_area.x2, parent_area.x2) : parent_area.x
 868              		.loc 1 745 0
 869 027a B9F1000F 		cmp	r9, #0
 870 027e 07D0     		beq	.L52
 871              		.loc 1 745 0 is_stmt 0 discriminator 1
 872 0280 BDF90C20 		ldrsh	r2, [sp, #12]
 873 0284 BDF91C30 		ldrsh	r3, [sp, #28]
 874 0288 9342     		cmp	r3, r2
 875 028a B8BF     		it	lt
 876 028c 1346     		movlt	r3, r2
 877 028e 01E0     		b	.L53
 878              	.L52:
 879              		.loc 1 745 0 discriminator 2
 880 0290 BDF90C30 		ldrsh	r3, [sp, #12]
 881              	.L53:
 882              		.loc 1 745 0 discriminator 4
ARM GAS  C:\Users\strap\AppData\Local\Temp\cc7wbcEe.s 			page 36


 883 0294 ADF80430 		strh	r3, [sp, #4]	@ movhi
 884              	.L48:
 746:lvgl\src\lv_widgets/lv_cont.c ****             break;
 747:lvgl\src\lv_widgets/lv_cont.c ****         default:
 748:lvgl\src\lv_widgets/lv_cont.c ****             break;
 749:lvgl\src\lv_widgets/lv_cont.c ****     }
 750:lvgl\src\lv_widgets/lv_cont.c **** 
 751:lvgl\src\lv_widgets/lv_cont.c ****     switch(ext->fit_top) {
 885              		.loc 1 751 0 is_stmt 1
 886 0298 98F80130 		ldrb	r3, [r8, #1]	@ zero_extendqisi2
 887 029c 03F00303 		and	r3, r3, #3
 888 02a0 022B     		cmp	r3, #2
 889 02a2 07D0     		beq	.L55
 890 02a4 0BD8     		bhi	.L56
 891 02a6 012B     		cmp	r3, #1
 892 02a8 18D1     		bne	.L54
 752:lvgl\src\lv_widgets/lv_cont.c ****         case LV_FIT_TIGHT:
 753:lvgl\src\lv_widgets/lv_cont.c ****             new_area.y1 = tight_area.y1;
 893              		.loc 1 753 0
 894 02aa BDF91A30 		ldrsh	r3, [sp, #26]
 895 02ae ADF80230 		strh	r3, [sp, #2]	@ movhi
 754:lvgl\src\lv_widgets/lv_cont.c ****             break;
 896              		.loc 1 754 0
 897 02b2 13E0     		b	.L54
 898              	.L55:
 755:lvgl\src\lv_widgets/lv_cont.c ****         case LV_FIT_PARENT:
 756:lvgl\src\lv_widgets/lv_cont.c ****             new_area.y1 = parent_area.y1;
 899              		.loc 1 756 0
 900 02b4 BDF90A30 		ldrsh	r3, [sp, #10]
 901 02b8 ADF80230 		strh	r3, [sp, #2]	@ movhi
 757:lvgl\src\lv_widgets/lv_cont.c ****             break;
 902              		.loc 1 757 0
 903 02bc 0EE0     		b	.L54
 904              	.L56:
 758:lvgl\src\lv_widgets/lv_cont.c ****         case LV_FIT_MAX:
 759:lvgl\src\lv_widgets/lv_cont.c ****             new_area.y1 = has_children ? LV_MATH_MIN(tight_area.y1, parent_area.y1) : parent_area.y
 905              		.loc 1 759 0
 906 02be B9F1000F 		cmp	r9, #0
 907 02c2 07D0     		beq	.L58
 908              		.loc 1 759 0 is_stmt 0 discriminator 1
 909 02c4 BDF90A20 		ldrsh	r2, [sp, #10]
 910 02c8 BDF91A30 		ldrsh	r3, [sp, #26]
 911 02cc 9342     		cmp	r3, r2
 912 02ce A8BF     		it	ge
 913 02d0 1346     		movge	r3, r2
 914 02d2 01E0     		b	.L59
 915              	.L58:
 916              		.loc 1 759 0 discriminator 2
 917 02d4 BDF90A30 		ldrsh	r3, [sp, #10]
 918              	.L59:
 919              		.loc 1 759 0 discriminator 4
 920 02d8 ADF80230 		strh	r3, [sp, #2]	@ movhi
 921              	.L54:
 760:lvgl\src\lv_widgets/lv_cont.c ****             break;
 761:lvgl\src\lv_widgets/lv_cont.c ****         default:
 762:lvgl\src\lv_widgets/lv_cont.c ****             break;
 763:lvgl\src\lv_widgets/lv_cont.c ****     }
ARM GAS  C:\Users\strap\AppData\Local\Temp\cc7wbcEe.s 			page 37


 764:lvgl\src\lv_widgets/lv_cont.c **** 
 765:lvgl\src\lv_widgets/lv_cont.c ****     switch(ext->fit_bottom) {
 922              		.loc 1 765 0 is_stmt 1
 923 02dc 98F80130 		ldrb	r3, [r8, #1]	@ zero_extendqisi2
 924 02e0 C3F38103 		ubfx	r3, r3, #2, #2
 925 02e4 022B     		cmp	r3, #2
 926 02e6 07D0     		beq	.L61
 927 02e8 0BD8     		bhi	.L62
 928 02ea 012B     		cmp	r3, #1
 929 02ec 18D1     		bne	.L60
 766:lvgl\src\lv_widgets/lv_cont.c ****         case LV_FIT_TIGHT:
 767:lvgl\src\lv_widgets/lv_cont.c ****             new_area.y2 = tight_area.y2;
 930              		.loc 1 767 0
 931 02ee BDF91E30 		ldrsh	r3, [sp, #30]
 932 02f2 ADF80630 		strh	r3, [sp, #6]	@ movhi
 768:lvgl\src\lv_widgets/lv_cont.c ****             break;
 933              		.loc 1 768 0
 934 02f6 13E0     		b	.L60
 935              	.L61:
 769:lvgl\src\lv_widgets/lv_cont.c ****         case LV_FIT_PARENT:
 770:lvgl\src\lv_widgets/lv_cont.c ****             new_area.y2 = parent_area.y2;
 936              		.loc 1 770 0
 937 02f8 BDF90E30 		ldrsh	r3, [sp, #14]
 938 02fc ADF80630 		strh	r3, [sp, #6]	@ movhi
 771:lvgl\src\lv_widgets/lv_cont.c ****             break;
 939              		.loc 1 771 0
 940 0300 0EE0     		b	.L60
 941              	.L62:
 772:lvgl\src\lv_widgets/lv_cont.c ****         case LV_FIT_MAX:
 773:lvgl\src\lv_widgets/lv_cont.c ****             new_area.y2 = has_children ? LV_MATH_MAX(tight_area.y2, parent_area.y2) : parent_area.y
 942              		.loc 1 773 0
 943 0302 B9F1000F 		cmp	r9, #0
 944 0306 07D0     		beq	.L64
 945              		.loc 1 773 0 is_stmt 0 discriminator 1
 946 0308 BDF90E20 		ldrsh	r2, [sp, #14]
 947 030c BDF91E30 		ldrsh	r3, [sp, #30]
 948 0310 9342     		cmp	r3, r2
 949 0312 B8BF     		it	lt
 950 0314 1346     		movlt	r3, r2
 951 0316 01E0     		b	.L65
 952              	.L64:
 953              		.loc 1 773 0 discriminator 2
 954 0318 BDF90E30 		ldrsh	r3, [sp, #14]
 955              	.L65:
 956              		.loc 1 773 0 discriminator 4
 957 031c ADF80630 		strh	r3, [sp, #6]	@ movhi
 958              	.L60:
 774:lvgl\src\lv_widgets/lv_cont.c ****             break;
 775:lvgl\src\lv_widgets/lv_cont.c ****         default:
 776:lvgl\src\lv_widgets/lv_cont.c ****             break;
 777:lvgl\src\lv_widgets/lv_cont.c ****     }
 778:lvgl\src\lv_widgets/lv_cont.c **** 
 779:lvgl\src\lv_widgets/lv_cont.c ****     /*Do nothing if the coordinates are not changed*/
 780:lvgl\src\lv_widgets/lv_cont.c ****     if(cont->coords.x1 != new_area.x1 || cont->coords.y1 != new_area.y1 || cont->coords.x2 != new_a
 959              		.loc 1 780 0 is_stmt 1
 960 0320 B4F91020 		ldrsh	r2, [r4, #16]
 961 0324 BDF90030 		ldrsh	r3, [sp]
ARM GAS  C:\Users\strap\AppData\Local\Temp\cc7wbcEe.s 			page 38


 962 0328 9A42     		cmp	r2, r3
 963 032a 11D1     		bne	.L66
 964              		.loc 1 780 0 is_stmt 0 discriminator 1
 965 032c B4F91220 		ldrsh	r2, [r4, #18]
 966 0330 BDF90230 		ldrsh	r3, [sp, #2]
 967 0334 9A42     		cmp	r2, r3
 968 0336 0BD1     		bne	.L66
 969              		.loc 1 780 0 discriminator 2
 970 0338 B4F91420 		ldrsh	r2, [r4, #20]
 971 033c BDF90430 		ldrsh	r3, [sp, #4]
 972 0340 9A42     		cmp	r2, r3
 973 0342 05D1     		bne	.L66
 781:lvgl\src\lv_widgets/lv_cont.c ****        cont->coords.y2 != new_area.y2) {
 974              		.loc 1 781 0 is_stmt 1 discriminator 3
 975 0344 B4F91620 		ldrsh	r2, [r4, #22]
 976 0348 BDF90630 		ldrsh	r3, [sp, #6]
 780:lvgl\src\lv_widgets/lv_cont.c ****        cont->coords.y2 != new_area.y2) {
 977              		.loc 1 780 0 discriminator 3
 978 034c 9A42     		cmp	r2, r3
 979 034e 33D0     		beq	.L27
 980              	.L66:
 782:lvgl\src\lv_widgets/lv_cont.c **** 
 783:lvgl\src\lv_widgets/lv_cont.c ****         lv_obj_invalidate(cont);
 981              		.loc 1 783 0
 982 0350 2046     		mov	r0, r4
 983 0352 FFF7FEFF 		bl	lv_obj_invalidate
 984              	.LVL132:
 784:lvgl\src\lv_widgets/lv_cont.c ****         lv_area_copy(&cont->coords, &new_area);
 985              		.loc 1 784 0
 986 0356 04F11001 		add	r1, r4, #16
 987              	.LVL133:
 988              	.LBB164:
 989              	.LBB165:
 990              	.LBB166:
 217:lvgl\src\lv_widgets\../lv_core/../lv_font/../lv_misc/lv_mem.h **** 
 991              		.loc 3 217 0
 992 035a 6A46     		mov	r2, sp
 993              	.LBE166:
 994              	.LBE165:
 995              	.LBE164:
 996              		.loc 1 784 0
 997 035c 0823     		movs	r3, #8
 998 035e 04E0     		b	.L68
 999              	.LVL134:
 1000              	.L69:
 1001              	.LBB169:
 1002              	.LBB168:
 1003              	.LBB167:
 220:lvgl\src\lv_widgets\../lv_core/../lv_font/../lv_misc/lv_mem.h ****         d8++;
 1004              		.loc 3 220 0
 1005 0360 12F8010B 		ldrb	r0, [r2], #1	@ zero_extendqisi2
 1006              	.LVL135:
 1007 0364 01F8010B 		strb	r0, [r1], #1
 1008              	.LVL136:
 1009              		.loc 3 223 0
 1010 0368 013B     		subs	r3, r3, #1
 1011              	.LVL137:
ARM GAS  C:\Users\strap\AppData\Local\Temp\cc7wbcEe.s 			page 39


 1012              	.L68:
 219:lvgl\src\lv_widgets\../lv_core/../lv_font/../lv_misc/lv_mem.h ****         *d8 = *s8;
 1013              		.loc 3 219 0
 1014 036a 002B     		cmp	r3, #0
 1015 036c F8D1     		bne	.L69
 1016              	.LVL138:
 1017              	.LBE167:
 1018              	.LBE168:
 1019              	.LBE169:
 785:lvgl\src\lv_widgets/lv_cont.c ****         lv_obj_invalidate(cont);
 1020              		.loc 1 785 0
 1021 036e 2046     		mov	r0, r4
 1022 0370 FFF7FEFF 		bl	lv_obj_invalidate
 1023              	.LVL139:
 786:lvgl\src\lv_widgets/lv_cont.c **** 
 787:lvgl\src\lv_widgets/lv_cont.c ****         /*Notify the object about its new coordinates*/
 788:lvgl\src\lv_widgets/lv_cont.c ****         cont->signal_cb(cont, LV_SIGNAL_COORD_CHG, &ori);
 1024              		.loc 1 788 0
 1025 0374 E369     		ldr	r3, [r4, #28]
 1026 0376 04AA     		add	r2, sp, #16
 1027 0378 0221     		movs	r1, #2
 1028 037a 2046     		mov	r0, r4
 1029 037c 9847     		blx	r3
 1030              	.LVL140:
 789:lvgl\src\lv_widgets/lv_cont.c **** 
 790:lvgl\src\lv_widgets/lv_cont.c ****         /*Inform the parent about the new coordinates*/
 791:lvgl\src\lv_widgets/lv_cont.c ****         par->signal_cb(par, LV_SIGNAL_CHILD_CHG, cont);
 1031              		.loc 1 791 0
 1032 037e FB69     		ldr	r3, [r7, #28]
 1033 0380 2246     		mov	r2, r4
 1034 0382 0121     		movs	r1, #1
 1035 0384 3846     		mov	r0, r7
 1036 0386 9847     		blx	r3
 1037              	.LVL141:
 792:lvgl\src\lv_widgets/lv_cont.c **** 
 793:lvgl\src\lv_widgets/lv_cont.c ****         if(lv_obj_get_auto_realign(cont)) {
 1038              		.loc 1 793 0
 1039 0388 2046     		mov	r0, r4
 1040 038a FFF7FEFF 		bl	lv_obj_get_auto_realign
 1041              	.LVL142:
 1042 038e 10B1     		cbz	r0, .L70
 794:lvgl\src\lv_widgets/lv_cont.c ****             lv_obj_realign(cont);
 1043              		.loc 1 794 0
 1044 0390 2046     		mov	r0, r4
 1045 0392 FFF7FEFF 		bl	lv_obj_realign
 1046              	.LVL143:
 1047              	.L70:
 795:lvgl\src\lv_widgets/lv_cont.c ****         }
 796:lvgl\src\lv_widgets/lv_cont.c **** 
 797:lvgl\src\lv_widgets/lv_cont.c ****         /*Tell the children the parent's size has changed*/
 798:lvgl\src\lv_widgets/lv_cont.c ****         _LV_LL_READ(cont->child_ll, child_i) {
 1048              		.loc 1 798 0
 1049 0396 3046     		mov	r0, r6
 1050 0398 FFF7FEFF 		bl	_lv_ll_get_head
 1051              	.LVL144:
 1052 039c 0446     		mov	r4, r0
 1053              	.LVL145:
ARM GAS  C:\Users\strap\AppData\Local\Temp\cc7wbcEe.s 			page 40


 1054 039e 09E0     		b	.L71
 1055              	.L72:
 799:lvgl\src\lv_widgets/lv_cont.c ****             child_i->signal_cb(child_i, LV_SIGNAL_PARENT_SIZE_CHG, &ori);
 1056              		.loc 1 799 0 discriminator 3
 1057 03a0 E369     		ldr	r3, [r4, #28]
 1058 03a2 04AA     		add	r2, sp, #16
 1059 03a4 0321     		movs	r1, #3
 1060 03a6 2046     		mov	r0, r4
 1061              	.LVL146:
 1062 03a8 9847     		blx	r3
 1063              	.LVL147:
 798:lvgl\src\lv_widgets/lv_cont.c ****             child_i->signal_cb(child_i, LV_SIGNAL_PARENT_SIZE_CHG, &ori);
 1064              		.loc 1 798 0 discriminator 3
 1065 03aa 2146     		mov	r1, r4
 1066 03ac 3046     		mov	r0, r6
 1067 03ae FFF7FEFF 		bl	_lv_ll_get_next
 1068              	.LVL148:
 1069 03b2 0446     		mov	r4, r0
 1070              	.LVL149:
 1071              	.L71:
 798:lvgl\src\lv_widgets/lv_cont.c ****             child_i->signal_cb(child_i, LV_SIGNAL_PARENT_SIZE_CHG, &ori);
 1072              		.loc 1 798 0 is_stmt 0 discriminator 1
 1073 03b4 002C     		cmp	r4, #0
 1074 03b6 F3D1     		bne	.L72
 1075              	.LVL150:
 1076              	.L27:
 800:lvgl\src\lv_widgets/lv_cont.c ****         }
 801:lvgl\src\lv_widgets/lv_cont.c ****     }
 802:lvgl\src\lv_widgets/lv_cont.c **** }
 1077              		.loc 1 802 0 is_stmt 1
 1078 03b8 09B0     		add	sp, sp, #36
 1079              		.cfi_def_cfa_offset 28
 1080              		@ sp needed
 1081 03ba BDE8F083 		pop	{r4, r5, r6, r7, r8, r9, pc}
 1082              		.cfi_endproc
 1083              	.LFE346:
 1084              		.size	lv_cont_refr_autofit, .-lv_cont_refr_autofit
 1085 03be 00BF     		.section	.text.lv_cont_create,"ax",%progbits
 1086              		.align	2
 1087              		.global	lv_cont_create
 1088              		.thumb
 1089              		.thumb_func
 1090              		.type	lv_cont_create, %function
 1091              	lv_cont_create:
 1092              	.LFB330:
  68:lvgl\src\lv_widgets/lv_cont.c **** 
 1093              		.loc 1 68 0
 1094              		.cfi_startproc
 1095              		@ args = 0, pretend = 0, frame = 0
 1096              		@ frame_needed = 0, uses_anonymous_args = 0
 1097              	.LVL151:
 1098 0000 F8B5     		push	{r3, r4, r5, r6, r7, lr}
 1099              		.cfi_def_cfa_offset 24
 1100              		.cfi_offset 3, -24
 1101              		.cfi_offset 4, -20
 1102              		.cfi_offset 5, -16
 1103              		.cfi_offset 6, -12
ARM GAS  C:\Users\strap\AppData\Local\Temp\cc7wbcEe.s 			page 41


 1104              		.cfi_offset 7, -8
 1105              		.cfi_offset 14, -4
 1106 0002 0746     		mov	r7, r0
 1107 0004 0E46     		mov	r6, r1
  73:lvgl\src\lv_widgets/lv_cont.c ****     LV_ASSERT_MEM(cont);
 1108              		.loc 1 73 0
 1109 0006 FFF7FEFF 		bl	lv_obj_create
 1110              	.LVL152:
 1111 000a 0446     		mov	r4, r0
 1112              	.LVL153:
  74:lvgl\src\lv_widgets/lv_cont.c ****     if(cont == NULL) return NULL;
 1113              		.loc 1 74 0
 1114 000c FFF7FEFF 		bl	lv_debug_check_null
 1115              	.LVL154:
 1116 0010 28B9     		cbnz	r0, .L77
  74:lvgl\src\lv_widgets/lv_cont.c ****     if(cont == NULL) return NULL;
 1117              		.loc 1 74 0 is_stmt 0 discriminator 1
 1118 0012 2246     		mov	r2, r4
 1119 0014 0023     		movs	r3, #0
 1120 0016 3848     		ldr	r0, .L89
 1121 0018 FFF7FEFF 		bl	lv_debug_log_error
 1122              	.LVL155:
 1123              	.L78:
 1124 001c FEE7     		b	.L78
 1125              	.L77:
  75:lvgl\src\lv_widgets/lv_cont.c **** 
 1126              		.loc 1 75 0 is_stmt 1
 1127 001e 002C     		cmp	r4, #0
 1128 0020 66D0     		beq	.L86
  77:lvgl\src\lv_widgets/lv_cont.c ****     if(ancestor_design == NULL) ancestor_design = lv_obj_get_design_cb(cont);
 1129              		.loc 1 77 0
 1130 0022 364B     		ldr	r3, .L89+4
 1131 0024 1B68     		ldr	r3, [r3]
 1132 0026 23B9     		cbnz	r3, .L80
  77:lvgl\src\lv_widgets/lv_cont.c ****     if(ancestor_design == NULL) ancestor_design = lv_obj_get_design_cb(cont);
 1133              		.loc 1 77 0 is_stmt 0 discriminator 1
 1134 0028 2046     		mov	r0, r4
 1135 002a FFF7FEFF 		bl	lv_obj_get_signal_cb
 1136              	.LVL156:
 1137 002e 334B     		ldr	r3, .L89+4
 1138 0030 1860     		str	r0, [r3]
 1139              	.L80:
  78:lvgl\src\lv_widgets/lv_cont.c **** 
 1140              		.loc 1 78 0 is_stmt 1
 1141 0032 324B     		ldr	r3, .L89+4
 1142 0034 5B68     		ldr	r3, [r3, #4]
 1143 0036 23B9     		cbnz	r3, .L81
  78:lvgl\src\lv_widgets/lv_cont.c **** 
 1144              		.loc 1 78 0 is_stmt 0 discriminator 1
 1145 0038 2046     		mov	r0, r4
 1146 003a FFF7FEFF 		bl	lv_obj_get_design_cb
 1147              	.LVL157:
 1148 003e 2F4B     		ldr	r3, .L89+4
 1149 0040 5860     		str	r0, [r3, #4]
 1150              	.L81:
  80:lvgl\src\lv_widgets/lv_cont.c ****     lv_cont_ext_t * ext = lv_obj_get_ext_attr(cont);
 1151              		.loc 1 80 0 is_stmt 1
ARM GAS  C:\Users\strap\AppData\Local\Temp\cc7wbcEe.s 			page 42


 1152 0042 0221     		movs	r1, #2
 1153 0044 2046     		mov	r0, r4
 1154 0046 FFF7FEFF 		bl	lv_obj_allocate_ext_attr
 1155              	.LVL158:
  81:lvgl\src\lv_widgets/lv_cont.c ****     if(ext == NULL) {
 1156              		.loc 1 81 0
 1157 004a 2046     		mov	r0, r4
 1158 004c FFF7FEFF 		bl	lv_obj_get_ext_attr
 1159              	.LVL159:
  82:lvgl\src\lv_widgets/lv_cont.c ****         lv_obj_del(cont);
 1160              		.loc 1 82 0
 1161 0050 0546     		mov	r5, r0
 1162 0052 20B9     		cbnz	r0, .L82
  83:lvgl\src\lv_widgets/lv_cont.c ****         return NULL;
 1163              		.loc 1 83 0
 1164 0054 2046     		mov	r0, r4
 1165              	.LVL160:
 1166 0056 FFF7FEFF 		bl	lv_obj_del
 1167              	.LVL161:
  84:lvgl\src\lv_widgets/lv_cont.c ****     }
 1168              		.loc 1 84 0
 1169 005a 0020     		movs	r0, #0
 1170 005c F8BD     		pop	{r3, r4, r5, r6, r7, pc}
 1171              	.LVL162:
 1172              	.L82:
  87:lvgl\src\lv_widgets/lv_cont.c ****     ext->fit_left   = LV_FIT_NONE;
 1173              		.loc 1 87 0
 1174 005e FFF7FEFF 		bl	lv_debug_check_null
 1175              	.LVL163:
 1176 0062 28B9     		cbnz	r0, .L83
  87:lvgl\src\lv_widgets/lv_cont.c ****     ext->fit_left   = LV_FIT_NONE;
 1177              		.loc 1 87 0 is_stmt 0 discriminator 1
 1178 0064 2A46     		mov	r2, r5
 1179 0066 0023     		movs	r3, #0
 1180 0068 2348     		ldr	r0, .L89
 1181 006a FFF7FEFF 		bl	lv_debug_log_error
 1182              	.LVL164:
 1183              	.L84:
 1184 006e FEE7     		b	.L84
 1185              	.L83:
  88:lvgl\src\lv_widgets/lv_cont.c ****     ext->fit_right  = LV_FIT_NONE;
 1186              		.loc 1 88 0 is_stmt 1
 1187 0070 2B78     		ldrb	r3, [r5]	@ zero_extendqisi2
  90:lvgl\src\lv_widgets/lv_cont.c ****     ext->fit_bottom = LV_FIT_NONE;
 1188              		.loc 1 90 0
 1189 0072 6A78     		ldrb	r2, [r5, #1]	@ zero_extendqisi2
  91:lvgl\src\lv_widgets/lv_cont.c ****     ext->layout     = LV_LAYOUT_OFF;
 1190              		.loc 1 91 0
 1191 0074 02F0FC02 		and	r2, r2, #252
 1192 0078 6FF38302 		bfc	r2, #2, #2
 1193 007c 6A70     		strb	r2, [r5, #1]
  92:lvgl\src\lv_widgets/lv_cont.c **** 
 1194              		.loc 1 92 0
 1195 007e 03F00F03 		and	r3, r3, #15
 1196 0082 6FF30303 		bfc	r3, #0, #4
 1197 0086 2B70     		strb	r3, [r5]
  94:lvgl\src\lv_widgets/lv_cont.c **** 
ARM GAS  C:\Users\strap\AppData\Local\Temp\cc7wbcEe.s 			page 43


 1198              		.loc 1 94 0
 1199 0088 1D49     		ldr	r1, .L89+8
 1200 008a 2046     		mov	r0, r4
 1201 008c FFF7FEFF 		bl	lv_obj_set_signal_cb
 1202              	.LVL165:
  97:lvgl\src\lv_widgets/lv_cont.c ****         /*Set the default styles if it's not screen*/
 1203              		.loc 1 97 0
 1204 0090 36B9     		cbnz	r6, .L85
  99:lvgl\src\lv_widgets/lv_cont.c ****             lv_theme_apply(cont, LV_THEME_CONT);
 1205              		.loc 1 99 0
 1206 0092 7FB3     		cbz	r7, .L87
 100:lvgl\src\lv_widgets/lv_cont.c ****         }
 1207              		.loc 1 100 0
 1208 0094 0621     		movs	r1, #6
 1209 0096 2046     		mov	r0, r4
 1210 0098 FFF7FEFF 		bl	lv_theme_apply
 1211              	.LVL166:
 120:lvgl\src\lv_widgets/lv_cont.c **** }
 1212              		.loc 1 120 0
 1213 009c 2046     		mov	r0, r4
 1214 009e F8BD     		pop	{r3, r4, r5, r6, r7, pc}
 1215              	.LVL167:
 1216              	.L85:
 1217              	.LBB170:
 107:lvgl\src\lv_widgets/lv_cont.c ****         ext->fit_left            = copy_ext->fit_left;
 1218              		.loc 1 107 0
 1219 00a0 3046     		mov	r0, r6
 1220 00a2 FFF7FEFF 		bl	lv_obj_get_ext_attr
 1221              	.LVL168:
 108:lvgl\src\lv_widgets/lv_cont.c ****         ext->fit_right           = copy_ext->fit_right;
 1222              		.loc 1 108 0
 1223 00a6 0378     		ldrb	r3, [r0]	@ zero_extendqisi2
 1224 00a8 C3F30113 		ubfx	r3, r3, #4, #2
 1225 00ac 2A78     		ldrb	r2, [r5]	@ zero_extendqisi2
 1226 00ae 63F30512 		bfi	r2, r3, #4, #2
 1227 00b2 2A70     		strb	r2, [r5]
 109:lvgl\src\lv_widgets/lv_cont.c ****         ext->fit_top             = copy_ext->fit_top;
 1228              		.loc 1 109 0
 1229 00b4 0378     		ldrb	r3, [r0]	@ zero_extendqisi2
 1230 00b6 9B09     		lsrs	r3, r3, #6
 1231 00b8 D2B2     		uxtb	r2, r2
 1232 00ba 63F38712 		bfi	r2, r3, #6, #2
 1233 00be 2A70     		strb	r2, [r5]
 110:lvgl\src\lv_widgets/lv_cont.c ****         ext->fit_bottom          = copy_ext->fit_bottom;
 1234              		.loc 1 110 0
 1235 00c0 4278     		ldrb	r2, [r0, #1]	@ zero_extendqisi2
 1236 00c2 6B78     		ldrb	r3, [r5, #1]	@ zero_extendqisi2
 1237 00c4 62F30103 		bfi	r3, r2, #0, #2
 1238 00c8 6B70     		strb	r3, [r5, #1]
 111:lvgl\src\lv_widgets/lv_cont.c ****         ext->layout              = copy_ext->layout;
 1239              		.loc 1 111 0
 1240 00ca 4378     		ldrb	r3, [r0, #1]	@ zero_extendqisi2
 1241 00cc C3F38103 		ubfx	r3, r3, #2, #2
 1242 00d0 6A78     		ldrb	r2, [r5, #1]	@ zero_extendqisi2
 1243 00d2 63F38302 		bfi	r2, r3, #2, #2
 1244 00d6 6A70     		strb	r2, [r5, #1]
 112:lvgl\src\lv_widgets/lv_cont.c **** 
ARM GAS  C:\Users\strap\AppData\Local\Temp\cc7wbcEe.s 			page 44


 1245              		.loc 1 112 0
 1246 00d8 0278     		ldrb	r2, [r0]	@ zero_extendqisi2
 1247 00da 2B78     		ldrb	r3, [r5]	@ zero_extendqisi2
 1248 00dc 62F30303 		bfi	r3, r2, #0, #4
 1249 00e0 2B70     		strb	r3, [r5]
 115:lvgl\src\lv_widgets/lv_cont.c ****     }
 1250              		.loc 1 115 0
 1251 00e2 FF22     		movs	r2, #255
 1252 00e4 1146     		mov	r1, r2
 1253 00e6 2046     		mov	r0, r4
 1254              	.LVL169:
 1255 00e8 FFF7FEFF 		bl	lv_obj_refresh_style
 1256              	.LVL170:
 1257              	.LBE170:
 120:lvgl\src\lv_widgets/lv_cont.c **** }
 1258              		.loc 1 120 0
 1259 00ec 2046     		mov	r0, r4
 1260 00ee F8BD     		pop	{r3, r4, r5, r6, r7, pc}
 1261              	.LVL171:
 1262              	.L86:
  75:lvgl\src\lv_widgets/lv_cont.c **** 
 1263              		.loc 1 75 0
 1264 00f0 0020     		movs	r0, #0
 1265 00f2 F8BD     		pop	{r3, r4, r5, r6, r7, pc}
 1266              	.LVL172:
 1267              	.L87:
 120:lvgl\src\lv_widgets/lv_cont.c **** }
 1268              		.loc 1 120 0
 1269 00f4 2046     		mov	r0, r4
 121:lvgl\src\lv_widgets/lv_cont.c **** 
 1270              		.loc 1 121 0
 1271 00f6 F8BD     		pop	{r3, r4, r5, r6, r7, pc}
 1272              	.LVL173:
 1273              	.L90:
 1274              		.align	2
 1275              	.L89:
 1276 00f8 00000000 		.word	.LC0
 1277 00fc 00000000 		.word	.LANCHOR0
 1278 0100 00000000 		.word	lv_cont_signal
 1279              		.cfi_endproc
 1280              	.LFE330:
 1281              		.size	lv_cont_create, .-lv_cont_create
 1282              		.section	.text.lv_cont_set_layout,"ax",%progbits
 1283              		.align	2
 1284              		.global	lv_cont_set_layout
 1285              		.thumb
 1286              		.thumb_func
 1287              		.type	lv_cont_set_layout, %function
 1288              	lv_cont_set_layout:
 1289              	.LFB331:
 133:lvgl\src\lv_widgets/lv_cont.c ****     LV_ASSERT_OBJ(cont, LV_OBJX_NAME);
 1290              		.loc 1 133 0
 1291              		.cfi_startproc
 1292              		@ args = 0, pretend = 0, frame = 0
 1293              		@ frame_needed = 0, uses_anonymous_args = 0
 1294              	.LVL174:
 1295 0000 38B5     		push	{r3, r4, r5, lr}
ARM GAS  C:\Users\strap\AppData\Local\Temp\cc7wbcEe.s 			page 45


 1296              		.cfi_def_cfa_offset 16
 1297              		.cfi_offset 3, -16
 1298              		.cfi_offset 4, -12
 1299              		.cfi_offset 5, -8
 1300              		.cfi_offset 14, -4
 1301 0002 0446     		mov	r4, r0
 1302 0004 0D46     		mov	r5, r1
 134:lvgl\src\lv_widgets/lv_cont.c **** 
 1303              		.loc 1 134 0
 1304 0006 FFF7FEFF 		bl	lv_debug_check_null
 1305              	.LVL175:
 1306 000a 28B9     		cbnz	r0, .L92
 134:lvgl\src\lv_widgets/lv_cont.c **** 
 1307              		.loc 1 134 0 is_stmt 0 discriminator 1
 1308 000c 2246     		mov	r2, r4
 1309 000e 0023     		movs	r3, #0
 1310 0010 0A48     		ldr	r0, .L96
 1311 0012 FFF7FEFF 		bl	lv_debug_log_error
 1312              	.LVL176:
 1313              	.L93:
 1314 0016 FEE7     		b	.L93
 1315              	.L92:
 136:lvgl\src\lv_widgets/lv_cont.c ****     if(ext->layout == layout) return;
 1316              		.loc 1 136 0 is_stmt 1
 1317 0018 2046     		mov	r0, r4
 1318 001a FFF7FEFF 		bl	lv_obj_get_ext_attr
 1319              	.LVL177:
 137:lvgl\src\lv_widgets/lv_cont.c **** 
 1320              		.loc 1 137 0
 1321 001e 0378     		ldrb	r3, [r0]	@ zero_extendqisi2
 1322 0020 03F00F03 		and	r3, r3, #15
 1323 0024 AB42     		cmp	r3, r5
 1324 0026 08D0     		beq	.L91
 139:lvgl\src\lv_widgets/lv_cont.c **** 
 1325              		.loc 1 139 0
 1326 0028 0378     		ldrb	r3, [r0]	@ zero_extendqisi2
 1327 002a 65F30303 		bfi	r3, r5, #0, #4
 1328 002e 0370     		strb	r3, [r0]
 142:lvgl\src\lv_widgets/lv_cont.c **** }
 1329              		.loc 1 142 0
 1330 0030 E369     		ldr	r3, [r4, #28]
 1331 0032 0022     		movs	r2, #0
 1332 0034 0121     		movs	r1, #1
 1333 0036 2046     		mov	r0, r4
 1334              	.LVL178:
 1335 0038 9847     		blx	r3
 1336              	.LVL179:
 1337              	.L91:
 1338 003a 38BD     		pop	{r3, r4, r5, pc}
 1339              	.LVL180:
 1340              	.L97:
 1341              		.align	2
 1342              	.L96:
 1343 003c 10000000 		.word	.LC1
 1344              		.cfi_endproc
 1345              	.LFE331:
 1346              		.size	lv_cont_set_layout, .-lv_cont_set_layout
ARM GAS  C:\Users\strap\AppData\Local\Temp\cc7wbcEe.s 			page 46


 1347              		.section	.text.lv_cont_set_fit4,"ax",%progbits
 1348              		.align	2
 1349              		.global	lv_cont_set_fit4
 1350              		.thumb
 1351              		.thumb_func
 1352              		.type	lv_cont_set_fit4, %function
 1353              	lv_cont_set_fit4:
 1354              	.LFB332:
 155:lvgl\src\lv_widgets/lv_cont.c ****     LV_ASSERT_OBJ(cont, LV_OBJX_NAME);
 1355              		.loc 1 155 0
 1356              		.cfi_startproc
 1357              		@ args = 4, pretend = 0, frame = 0
 1358              		@ frame_needed = 0, uses_anonymous_args = 0
 1359              	.LVL181:
 1360 0000 2DE9F041 		push	{r4, r5, r6, r7, r8, lr}
 1361              		.cfi_def_cfa_offset 24
 1362              		.cfi_offset 4, -24
 1363              		.cfi_offset 5, -20
 1364              		.cfi_offset 6, -16
 1365              		.cfi_offset 7, -12
 1366              		.cfi_offset 8, -8
 1367              		.cfi_offset 14, -4
 1368 0004 0446     		mov	r4, r0
 1369 0006 8846     		mov	r8, r1
 1370 0008 1746     		mov	r7, r2
 1371 000a 1E46     		mov	r6, r3
 1372 000c 9DF81850 		ldrb	r5, [sp, #24]	@ zero_extendqisi2
 156:lvgl\src\lv_widgets/lv_cont.c **** 
 1373              		.loc 1 156 0
 1374 0010 FFF7FEFF 		bl	lv_debug_check_null
 1375              	.LVL182:
 1376 0014 28B9     		cbnz	r0, .L99
 156:lvgl\src\lv_widgets/lv_cont.c **** 
 1377              		.loc 1 156 0 is_stmt 0 discriminator 1
 1378 0016 2246     		mov	r2, r4
 1379 0018 0023     		movs	r3, #0
 1380 001a 1848     		ldr	r0, .L104
 1381 001c FFF7FEFF 		bl	lv_debug_log_error
 1382              	.LVL183:
 1383              	.L100:
 1384 0020 FEE7     		b	.L100
 1385              	.L99:
 158:lvgl\src\lv_widgets/lv_cont.c ****     lv_cont_ext_t * ext = lv_obj_get_ext_attr(cont);
 1386              		.loc 1 158 0 is_stmt 1
 1387 0022 2046     		mov	r0, r4
 1388 0024 FFF7FEFF 		bl	lv_obj_invalidate
 1389              	.LVL184:
 159:lvgl\src\lv_widgets/lv_cont.c ****     if(ext->fit_left == left && ext->fit_right == right && ext->fit_top == top && ext->fit_bottom =
 1390              		.loc 1 159 0
 1391 0028 2046     		mov	r0, r4
 1392 002a FFF7FEFF 		bl	lv_obj_get_ext_attr
 1393              	.LVL185:
 160:lvgl\src\lv_widgets/lv_cont.c ****         return;
 1394              		.loc 1 160 0
 1395 002e 0378     		ldrb	r3, [r0]	@ zero_extendqisi2
 1396 0030 C3F30113 		ubfx	r3, r3, #4, #2
 1397 0034 4345     		cmp	r3, r8
ARM GAS  C:\Users\strap\AppData\Local\Temp\cc7wbcEe.s 			page 47


 1398 0036 0DD1     		bne	.L101
 160:lvgl\src\lv_widgets/lv_cont.c ****         return;
 1399              		.loc 1 160 0 is_stmt 0 discriminator 1
 1400 0038 0378     		ldrb	r3, [r0]	@ zero_extendqisi2
 1401 003a B7EB931F 		cmp	r7, r3, lsr #6
 1402 003e 09D1     		bne	.L101
 160:lvgl\src\lv_widgets/lv_cont.c ****         return;
 1403              		.loc 1 160 0 discriminator 2
 1404 0040 4378     		ldrb	r3, [r0, #1]	@ zero_extendqisi2
 1405 0042 03F00303 		and	r3, r3, #3
 1406 0046 B342     		cmp	r3, r6
 1407 0048 04D1     		bne	.L101
 160:lvgl\src\lv_widgets/lv_cont.c ****         return;
 1408              		.loc 1 160 0 discriminator 3
 1409 004a 4378     		ldrb	r3, [r0, #1]	@ zero_extendqisi2
 1410 004c C3F38103 		ubfx	r3, r3, #2, #2
 1411 0050 AB42     		cmp	r3, r5
 1412 0052 10D0     		beq	.L98
 1413              	.L101:
 164:lvgl\src\lv_widgets/lv_cont.c ****     ext->fit_right  = right;
 1414              		.loc 1 164 0 is_stmt 1
 1415 0054 0378     		ldrb	r3, [r0]	@ zero_extendqisi2
 1416 0056 68F30513 		bfi	r3, r8, #4, #2
 165:lvgl\src\lv_widgets/lv_cont.c ****     ext->fit_top    = top;
 1417              		.loc 1 165 0
 1418 005a 67F38713 		bfi	r3, r7, #6, #2
 1419 005e 0370     		strb	r3, [r0]
 166:lvgl\src\lv_widgets/lv_cont.c ****     ext->fit_bottom = bottom;
 1420              		.loc 1 166 0
 1421 0060 4378     		ldrb	r3, [r0, #1]	@ zero_extendqisi2
 1422 0062 66F30103 		bfi	r3, r6, #0, #2
 167:lvgl\src\lv_widgets/lv_cont.c **** 
 1423              		.loc 1 167 0
 1424 0066 65F38303 		bfi	r3, r5, #2, #2
 1425 006a 4370     		strb	r3, [r0, #1]
 170:lvgl\src\lv_widgets/lv_cont.c **** }
 1426              		.loc 1 170 0
 1427 006c E369     		ldr	r3, [r4, #28]
 1428 006e 0022     		movs	r2, #0
 1429 0070 0121     		movs	r1, #1
 1430 0072 2046     		mov	r0, r4
 1431              	.LVL186:
 1432 0074 9847     		blx	r3
 1433              	.LVL187:
 1434              	.L98:
 1435 0076 BDE8F081 		pop	{r4, r5, r6, r7, r8, pc}
 1436              	.LVL188:
 1437              	.L105:
 1438 007a 00BF     		.align	2
 1439              	.L104:
 1440 007c 10000000 		.word	.LC1
 1441              		.cfi_endproc
 1442              	.LFE332:
 1443              		.size	lv_cont_set_fit4, .-lv_cont_set_fit4
 1444              		.section	.text.lv_cont_get_layout,"ax",%progbits
 1445              		.align	2
 1446              		.global	lv_cont_get_layout
ARM GAS  C:\Users\strap\AppData\Local\Temp\cc7wbcEe.s 			page 48


 1447              		.thumb
 1448              		.thumb_func
 1449              		.type	lv_cont_get_layout, %function
 1450              	lv_cont_get_layout:
 1451              	.LFB333:
 183:lvgl\src\lv_widgets/lv_cont.c ****     LV_ASSERT_OBJ(cont, LV_OBJX_NAME);
 1452              		.loc 1 183 0
 1453              		.cfi_startproc
 1454              		@ args = 0, pretend = 0, frame = 0
 1455              		@ frame_needed = 0, uses_anonymous_args = 0
 1456              	.LVL189:
 1457 0000 10B5     		push	{r4, lr}
 1458              		.cfi_def_cfa_offset 8
 1459              		.cfi_offset 4, -8
 1460              		.cfi_offset 14, -4
 1461 0002 0446     		mov	r4, r0
 184:lvgl\src\lv_widgets/lv_cont.c **** 
 1462              		.loc 1 184 0
 1463 0004 FFF7FEFF 		bl	lv_debug_check_null
 1464              	.LVL190:
 1465 0008 28B9     		cbnz	r0, .L107
 184:lvgl\src\lv_widgets/lv_cont.c **** 
 1466              		.loc 1 184 0 is_stmt 0 discriminator 1
 1467 000a 2246     		mov	r2, r4
 1468 000c 0023     		movs	r3, #0
 1469 000e 0548     		ldr	r0, .L110
 1470 0010 FFF7FEFF 		bl	lv_debug_log_error
 1471              	.LVL191:
 1472              	.L108:
 1473 0014 FEE7     		b	.L108
 1474              	.L107:
 186:lvgl\src\lv_widgets/lv_cont.c ****     return ext->layout;
 1475              		.loc 1 186 0 is_stmt 1
 1476 0016 2046     		mov	r0, r4
 1477 0018 FFF7FEFF 		bl	lv_obj_get_ext_attr
 1478              	.LVL192:
 187:lvgl\src\lv_widgets/lv_cont.c **** }
 1479              		.loc 1 187 0
 1480 001c 0078     		ldrb	r0, [r0]	@ zero_extendqisi2
 1481              	.LVL193:
 188:lvgl\src\lv_widgets/lv_cont.c **** 
 1482              		.loc 1 188 0
 1483 001e 00F00F00 		and	r0, r0, #15
 1484 0022 10BD     		pop	{r4, pc}
 1485              	.LVL194:
 1486              	.L111:
 1487              		.align	2
 1488              	.L110:
 1489 0024 10000000 		.word	.LC1
 1490              		.cfi_endproc
 1491              	.LFE333:
 1492              		.size	lv_cont_get_layout, .-lv_cont_get_layout
 1493              		.section	.text.lv_cont_layout_col,"ax",%progbits
 1494              		.align	2
 1495              		.thumb
 1496              		.thumb_func
 1497              		.type	lv_cont_layout_col, %function
ARM GAS  C:\Users\strap\AppData\Local\Temp\cc7wbcEe.s 			page 49


 1498              	lv_cont_layout_col:
 1499              	.LFB341:
 342:lvgl\src\lv_widgets/lv_cont.c ****     lv_coord_t left = lv_obj_get_style_pad_left(cont, LV_CONT_PART_MAIN);
 1500              		.loc 1 342 0
 1501              		.cfi_startproc
 1502              		@ args = 0, pretend = 0, frame = 8
 1503              		@ frame_needed = 0, uses_anonymous_args = 0
 1504              	.LVL195:
 1505 0000 2DE9F04F 		push	{r4, r5, r6, r7, r8, r9, r10, fp, lr}
 1506              		.cfi_def_cfa_offset 36
 1507              		.cfi_offset 4, -36
 1508              		.cfi_offset 5, -32
 1509              		.cfi_offset 6, -28
 1510              		.cfi_offset 7, -24
 1511              		.cfi_offset 8, -20
 1512              		.cfi_offset 9, -16
 1513              		.cfi_offset 10, -12
 1514              		.cfi_offset 11, -8
 1515              		.cfi_offset 14, -4
 1516 0004 85B0     		sub	sp, sp, #20
 1517              		.cfi_def_cfa_offset 56
 1518 0006 8146     		mov	r9, r0
 1519              	.LVL196:
 1520              	.LBB171:
 1521              	.LBB172:
 112:lvgl\src\lv_widgets\../lv_core/lv_obj_style_dec.h **** _LV_OBJ_STYLE_SET_GET_DECLARE(PAD_RIGHT, pad_right, lv_style_int_t, _int, scalar)
 1522              		.loc 2 112 0
 1523 0008 1222     		movs	r2, #18
 1524 000a 0021     		movs	r1, #0
 1525 000c FFF7FEFF 		bl	_lv_obj_get_style_int
 1526              	.LVL197:
 1527 0010 8246     		mov	r10, r0
 1528              	.LVL198:
 1529              	.LBE172:
 1530              	.LBE171:
 1531              	.LBB173:
 1532              	.LBB174:
 113:lvgl\src\lv_widgets\../lv_core/lv_obj_style_dec.h **** _LV_OBJ_STYLE_SET_GET_DECLARE(PAD_INNER, pad_inner, lv_style_int_t, _int, scalar)
 1533              		.loc 2 113 0
 1534 0012 1322     		movs	r2, #19
 1535 0014 0021     		movs	r1, #0
 1536 0016 4846     		mov	r0, r9
 1537 0018 FFF7FEFF 		bl	_lv_obj_get_style_int
 1538              	.LVL199:
 1539 001c 0446     		mov	r4, r0
 1540              	.LVL200:
 1541              	.LBE174:
 1542              	.LBE173:
 1543              	.LBB175:
 1544              	.LBB176:
 110:lvgl\src\lv_widgets\../lv_core/lv_obj_style_dec.h **** _LV_OBJ_STYLE_SET_GET_DECLARE(PAD_BOTTOM, pad_bottom, lv_style_int_t, _int, scalar)
 1545              		.loc 2 110 0
 1546 001e 1022     		movs	r2, #16
 1547 0020 0021     		movs	r1, #0
 1548 0022 4846     		mov	r0, r9
 1549 0024 FFF7FEFF 		bl	_lv_obj_get_style_int
 1550              	.LVL201:
ARM GAS  C:\Users\strap\AppData\Local\Temp\cc7wbcEe.s 			page 50


 1551 0028 0546     		mov	r5, r0
 1552              	.LVL202:
 1553              	.LBE176:
 1554              	.LBE175:
 1555              	.LBB177:
 1556              	.LBB178:
 114:lvgl\src\lv_widgets\../lv_core/lv_obj_style_dec.h **** _LV_OBJ_STYLE_SET_GET_DECLARE(MARGIN_TOP, margin_top, lv_style_int_t, _int, scalar)
 1557              		.loc 2 114 0
 1558 002a 1422     		movs	r2, #20
 1559 002c 0021     		movs	r1, #0
 1560 002e 4846     		mov	r0, r9
 1561 0030 FFF7FEFF 		bl	_lv_obj_get_style_int
 1562              	.LVL203:
 1563 0034 8346     		mov	fp, r0
 1564              	.LVL204:
 1565              	.LBE178:
 1566              	.LBE177:
 348:lvgl\src\lv_widgets/lv_cont.c ****     lv_obj_t * child;
 1567              		.loc 1 348 0
 1568 0036 4846     		mov	r0, r9
 1569 0038 FFF7FEFF 		bl	lv_cont_get_layout
 1570              	.LVL205:
 355:lvgl\src\lv_widgets/lv_cont.c ****         case LV_LAYOUT_COLUMN_LEFT:
 1571              		.loc 1 355 0
 1572 003c 0328     		cmp	r0, #3
 1573 003e 04D0     		beq	.L114
 1574 0040 0428     		cmp	r0, #4
 1575 0042 07D0     		beq	.L115
 1576 0044 0228     		cmp	r0, #2
 1577 0046 0CD1     		bne	.L123
 1578 0048 10E0     		b	.L122
 1579              	.L114:
 361:lvgl\src\lv_widgets/lv_cont.c ****             align     = LV_ALIGN_IN_TOP_MID;
 1580              		.loc 1 361 0
 1581 004a 4FF0000A 		mov	r10, #0
 362:lvgl\src\lv_widgets/lv_cont.c ****             break;
 1582              		.loc 1 362 0
 1583 004e 0223     		movs	r3, #2
 1584 0050 0393     		str	r3, [sp, #12]
 1585 0052 0DE0     		b	.L116
 1586              	.L115:
 365:lvgl\src\lv_widgets/lv_cont.c ****             align     = LV_ALIGN_IN_TOP_RIGHT;
 1587              		.loc 1 365 0
 1588 0054 C4F1000A 		rsb	r10, r4, #0
 1589 0058 0FFA8AFA 		sxth	r10, r10
 1590              	.LVL206:
 366:lvgl\src\lv_widgets/lv_cont.c ****             break;
 1591              		.loc 1 366 0
 1592 005c 0323     		movs	r3, #3
 1593 005e 0393     		str	r3, [sp, #12]
 367:lvgl\src\lv_widgets/lv_cont.c ****         default:
 1594              		.loc 1 367 0
 1595 0060 06E0     		b	.L116
 1596              	.LVL207:
 1597              	.L123:
 369:lvgl\src\lv_widgets/lv_cont.c ****             align     = LV_ALIGN_IN_TOP_LEFT;
 1598              		.loc 1 369 0
ARM GAS  C:\Users\strap\AppData\Local\Temp\cc7wbcEe.s 			page 51


 1599 0062 4FF0000A 		mov	r10, #0
 370:lvgl\src\lv_widgets/lv_cont.c ****             break;
 1600              		.loc 1 370 0
 1601 0066 0123     		movs	r3, #1
 1602 0068 0393     		str	r3, [sp, #12]
 371:lvgl\src\lv_widgets/lv_cont.c ****     }
 1603              		.loc 1 371 0
 1604 006a 01E0     		b	.L116
 1605              	.LVL208:
 1606              	.L122:
 358:lvgl\src\lv_widgets/lv_cont.c ****             break;
 1607              		.loc 1 358 0
 1608 006c 0123     		movs	r3, #1
 1609 006e 0393     		str	r3, [sp, #12]
 1610              	.L116:
 1611              	.LVL209:
 376:lvgl\src\lv_widgets/lv_cont.c ****     /* Align the children */
 1612              		.loc 1 376 0
 1613 0070 0121     		movs	r1, #1
 1614 0072 4846     		mov	r0, r9
 1615              	.LVL210:
 1616 0074 FFF7FEFF 		bl	lv_obj_add_protect
 1617              	.LVL211:
 379:lvgl\src\lv_widgets/lv_cont.c ****         if(lv_obj_get_hidden(child) != false || lv_obj_is_protected(child, LV_PROTECT_POS) != false
 1618              		.loc 1 379 0
 1619 0078 09F10408 		add	r8, r9, #4
 1620 007c 4046     		mov	r0, r8
 1621 007e FFF7FEFF 		bl	_lv_ll_get_tail
 1622              	.LVL212:
 1623 0082 0446     		mov	r4, r0
 1624              	.LVL213:
 1625 0084 2E46     		mov	r6, r5
 1626 0086 32E0     		b	.L117
 1627              	.LVL214:
 1628              	.L121:
 1629              	.LBB179:
 380:lvgl\src\lv_widgets/lv_cont.c ****         lv_style_int_t mtop = lv_obj_get_style_margin_top(child, LV_OBJ_PART_MAIN);
 1630              		.loc 1 380 0
 1631 0088 2046     		mov	r0, r4
 1632              	.LVL215:
 1633 008a FFF7FEFF 		bl	lv_obj_get_hidden
 1634              	.LVL216:
 1635 008e 48BB     		cbnz	r0, .L120
 380:lvgl\src\lv_widgets/lv_cont.c ****         lv_style_int_t mtop = lv_obj_get_style_margin_top(child, LV_OBJ_PART_MAIN);
 1636              		.loc 1 380 0 is_stmt 0 discriminator 2
 1637 0090 0421     		movs	r1, #4
 1638 0092 2046     		mov	r0, r4
 1639 0094 FFF7FEFF 		bl	lv_obj_is_protected
 1640              	.LVL217:
 1641 0098 20BB     		cbnz	r0, .L120
 1642              	.LVL218:
 1643              	.LBB180:
 1644              	.LBB181:
 115:lvgl\src\lv_widgets\../lv_core/lv_obj_style_dec.h **** _LV_OBJ_STYLE_SET_GET_DECLARE(MARGIN_BOTTOM, margin_bottom, lv_style_int_t, _int, scalar)
 1645              		.loc 2 115 0 is_stmt 1
 1646 009a 1522     		movs	r2, #21
 1647 009c 0021     		movs	r1, #0
ARM GAS  C:\Users\strap\AppData\Local\Temp\cc7wbcEe.s 			page 52


 1648 009e 2046     		mov	r0, r4
 1649 00a0 FFF7FEFF 		bl	_lv_obj_get_style_int
 1650              	.LVL219:
 1651 00a4 0546     		mov	r5, r0
 1652              	.LVL220:
 1653              	.LBE181:
 1654              	.LBE180:
 1655              	.LBB182:
 1656              	.LBB183:
 116:lvgl\src\lv_widgets\../lv_core/lv_obj_style_dec.h **** _LV_OBJ_STYLE_SET_GET_DECLARE(MARGIN_LEFT, margin_left, lv_style_int_t, _int, scalar)
 1657              		.loc 2 116 0
 1658 00a6 1622     		movs	r2, #22
 1659 00a8 0021     		movs	r1, #0
 1660 00aa 2046     		mov	r0, r4
 1661 00ac FFF7FEFF 		bl	_lv_obj_get_style_int
 1662              	.LVL221:
 1663 00b0 0746     		mov	r7, r0
 1664              	.LVL222:
 1665              	.LBE183:
 1666              	.LBE182:
 1667              	.LBB184:
 1668              	.LBB185:
 117:lvgl\src\lv_widgets\../lv_core/lv_obj_style_dec.h **** _LV_OBJ_STYLE_SET_GET_DECLARE(MARGIN_RIGHT, margin_right, lv_style_int_t, _int, scalar)
 1669              		.loc 2 117 0
 1670 00b2 1722     		movs	r2, #23
 1671 00b4 0021     		movs	r1, #0
 1672 00b6 2046     		mov	r0, r4
 1673 00b8 FFF7FEFF 		bl	_lv_obj_get_style_int
 1674              	.LVL223:
 1675              	.LBE185:
 1676              	.LBE184:
 384:lvgl\src\lv_widgets/lv_cont.c ****         last_cord += lv_obj_get_height(child) + inner + mtop + mbottom;
 1677              		.loc 1 384 0
 1678 00bc B6B2     		uxth	r6, r6
 1679 00be 0AEB0003 		add	r3, r10, r0
 1680 00c2 7219     		adds	r2, r6, r5
 1681 00c4 12B2     		sxth	r2, r2
 1682 00c6 0092     		str	r2, [sp]
 1683 00c8 1BB2     		sxth	r3, r3
 1684 00ca 039A     		ldr	r2, [sp, #12]
 1685 00cc 4946     		mov	r1, r9
 1686 00ce 2046     		mov	r0, r4
 1687 00d0 FFF7FEFF 		bl	lv_obj_align
 1688              	.LVL224:
 385:lvgl\src\lv_widgets/lv_cont.c ****     }
 1689              		.loc 1 385 0
 1690 00d4 2046     		mov	r0, r4
 1691 00d6 FFF7FEFF 		bl	lv_obj_get_height
 1692              	.LVL225:
 1693 00da 5844     		add	r0, r0, fp
 1694 00dc 2844     		add	r0, r0, r5
 1695 00de 3844     		add	r0, r0, r7
 1696 00e0 3518     		adds	r5, r6, r0
 1697 00e2 2EB2     		sxth	r6, r5
 1698              	.LVL226:
 1699              	.L120:
 1700              	.LBE179:
ARM GAS  C:\Users\strap\AppData\Local\Temp\cc7wbcEe.s 			page 53


 379:lvgl\src\lv_widgets/lv_cont.c ****         if(lv_obj_get_hidden(child) != false || lv_obj_is_protected(child, LV_PROTECT_POS) != false
 1701              		.loc 1 379 0 discriminator 2
 1702 00e4 2146     		mov	r1, r4
 1703 00e6 4046     		mov	r0, r8
 1704 00e8 FFF7FEFF 		bl	_lv_ll_get_prev
 1705              	.LVL227:
 1706 00ec 0446     		mov	r4, r0
 1707              	.LVL228:
 1708              	.L117:
 379:lvgl\src\lv_widgets/lv_cont.c ****         if(lv_obj_get_hidden(child) != false || lv_obj_is_protected(child, LV_PROTECT_POS) != false
 1709              		.loc 1 379 0 is_stmt 0 discriminator 1
 1710 00ee 002C     		cmp	r4, #0
 1711 00f0 CAD1     		bne	.L121
 388:lvgl\src\lv_widgets/lv_cont.c **** }
 1712              		.loc 1 388 0 is_stmt 1
 1713 00f2 0121     		movs	r1, #1
 1714 00f4 4846     		mov	r0, r9
 1715              	.LVL229:
 1716 00f6 FFF7FEFF 		bl	lv_obj_clear_protect
 1717              	.LVL230:
 389:lvgl\src\lv_widgets/lv_cont.c **** 
 1718              		.loc 1 389 0
 1719 00fa 05B0     		add	sp, sp, #20
 1720              		.cfi_def_cfa_offset 36
 1721              		@ sp needed
 1722 00fc BDE8F08F 		pop	{r4, r5, r6, r7, r8, r9, r10, fp, pc}
 1723              		.cfi_endproc
 1724              	.LFE341:
 1725              		.size	lv_cont_layout_col, .-lv_cont_layout_col
 1726              		.section	.text.lv_cont_layout_row,"ax",%progbits
 1727              		.align	2
 1728              		.thumb
 1729              		.thumb_func
 1730              		.type	lv_cont_layout_row, %function
 1731              	lv_cont_layout_row:
 1732              	.LFB342:
 396:lvgl\src\lv_widgets/lv_cont.c **** 
 1733              		.loc 1 396 0
 1734              		.cfi_startproc
 1735              		@ args = 0, pretend = 0, frame = 0
 1736              		@ frame_needed = 0, uses_anonymous_args = 0
 1737              	.LVL231:
 1738 0000 2DE9F04F 		push	{r4, r5, r6, r7, r8, r9, r10, fp, lr}
 1739              		.cfi_def_cfa_offset 36
 1740              		.cfi_offset 4, -36
 1741              		.cfi_offset 5, -32
 1742              		.cfi_offset 6, -28
 1743              		.cfi_offset 7, -24
 1744              		.cfi_offset 8, -20
 1745              		.cfi_offset 9, -16
 1746              		.cfi_offset 10, -12
 1747              		.cfi_offset 11, -8
 1748              		.cfi_offset 14, -4
 1749 0004 83B0     		sub	sp, sp, #12
 1750              		.cfi_def_cfa_offset 48
 1751 0006 0646     		mov	r6, r0
 398:lvgl\src\lv_widgets/lv_cont.c ****     lv_obj_t * child;
ARM GAS  C:\Users\strap\AppData\Local\Temp\cc7wbcEe.s 			page 54


 1752              		.loc 1 398 0
 1753 0008 FFF7FEFF 		bl	lv_cont_get_layout
 1754              	.LVL232:
 1755 000c 0446     		mov	r4, r0
 1756              	.LVL233:
 404:lvgl\src\lv_widgets/lv_cont.c ****     switch(type) {
 1757              		.loc 1 404 0
 1758 000e 3046     		mov	r0, r6
 1759 0010 FFF7FEFF 		bl	lv_obj_get_base_dir
 1760              	.LVL234:
 1761 0014 0746     		mov	r7, r0
 1762              	.LVL235:
 405:lvgl\src\lv_widgets/lv_cont.c ****         case LV_LAYOUT_ROW_TOP:
 1763              		.loc 1 405 0
 1764 0016 062C     		cmp	r4, #6
 1765 0018 0ED0     		beq	.L127
 1766 001a 072C     		cmp	r4, #7
 1767 001c 13D0     		beq	.L128
 1768 001e 052C     		cmp	r4, #5
 1769 0020 1ED1     		bne	.L144
 1770              	.LVL236:
 1771              	.LBB186:
 1772              	.LBB187:
 110:lvgl\src\lv_widgets\../lv_core/lv_obj_style_dec.h **** _LV_OBJ_STYLE_SET_GET_DECLARE(PAD_BOTTOM, pad_bottom, lv_style_int_t, _int, scalar)
 1773              		.loc 2 110 0
 1774 0022 1022     		movs	r2, #16
 1775 0024 0021     		movs	r1, #0
 1776 0026 3046     		mov	r0, r6
 1777              	.LVL237:
 1778 0028 FFF7FEFF 		bl	_lv_obj_get_style_int
 1779              	.LVL238:
 1780 002c 8046     		mov	r8, r0
 1781              	.LVL239:
 1782              	.LBE187:
 1783              	.LBE186:
 408:lvgl\src\lv_widgets/lv_cont.c ****             break;
 1784              		.loc 1 408 0
 1785 002e 012F     		cmp	r7, #1
 1786 0030 1DD1     		bne	.L140
 1787 0032 4FF0030A 		mov	r10, #3
 1788 0036 29E0     		b	.L130
 1789              	.LVL240:
 1790              	.L127:
 412:lvgl\src\lv_widgets/lv_cont.c ****             break;
 1791              		.loc 1 412 0
 1792 0038 0128     		cmp	r0, #1
 1793 003a 1BD1     		bne	.L141
 411:lvgl\src\lv_widgets/lv_cont.c ****             align     = base_dir == LV_BIDI_DIR_RTL ? LV_ALIGN_IN_RIGHT_MID : LV_ALIGN_IN_LEFT_MID;
 1794              		.loc 1 411 0
 1795 003c 4FF00008 		mov	r8, #0
 412:lvgl\src\lv_widgets/lv_cont.c ****             break;
 1796              		.loc 1 412 0
 1797 0040 4FF0080A 		mov	r10, #8
 1798 0044 22E0     		b	.L130
 1799              	.LVL241:
 1800              	.L128:
 1801              	.LBB188:
ARM GAS  C:\Users\strap\AppData\Local\Temp\cc7wbcEe.s 			page 55


 1802              	.LBB189:
 111:lvgl\src\lv_widgets\../lv_core/lv_obj_style_dec.h **** _LV_OBJ_STYLE_SET_GET_DECLARE(PAD_LEFT, pad_left, lv_style_int_t, _int, scalar)
 1803              		.loc 2 111 0
 1804 0046 1122     		movs	r2, #17
 1805 0048 0021     		movs	r1, #0
 1806 004a 3046     		mov	r0, r6
 1807              	.LVL242:
 1808 004c FFF7FEFF 		bl	_lv_obj_get_style_int
 1809              	.LVL243:
 1810              	.LBE189:
 1811              	.LBE188:
 415:lvgl\src\lv_widgets/lv_cont.c ****             align     = base_dir == LV_BIDI_DIR_RTL ? LV_ALIGN_IN_BOTTOM_RIGHT : LV_ALIGN_IN_BOTTOM
 1812              		.loc 1 415 0
 1813 0050 4042     		negs	r0, r0
 1814 0052 0FFA80F8 		sxth	r8, r0
 1815              	.LVL244:
 416:lvgl\src\lv_widgets/lv_cont.c ****             break;
 1816              		.loc 1 416 0
 1817 0056 012F     		cmp	r7, #1
 1818 0058 11D1     		bne	.L142
 1819 005a 4FF0060A 		mov	r10, #6
 1820 005e 15E0     		b	.L130
 1821              	.LVL245:
 1822              	.L144:
 420:lvgl\src\lv_widgets/lv_cont.c ****             break;
 1823              		.loc 1 420 0
 1824 0060 0128     		cmp	r0, #1
 1825 0062 0FD1     		bne	.L143
 419:lvgl\src\lv_widgets/lv_cont.c ****             align     = base_dir == LV_BIDI_DIR_RTL ? LV_ALIGN_IN_TOP_RIGHT : LV_ALIGN_IN_TOP_LEFT;
 1826              		.loc 1 419 0
 1827 0064 4FF00008 		mov	r8, #0
 420:lvgl\src\lv_widgets/lv_cont.c ****             break;
 1828              		.loc 1 420 0
 1829 0068 4FF0030A 		mov	r10, #3
 1830 006c 0EE0     		b	.L130
 1831              	.LVL246:
 1832              	.L140:
 408:lvgl\src\lv_widgets/lv_cont.c ****             break;
 1833              		.loc 1 408 0
 1834 006e 4FF0010A 		mov	r10, #1
 1835 0072 0BE0     		b	.L130
 1836              	.LVL247:
 1837              	.L141:
 411:lvgl\src\lv_widgets/lv_cont.c ****             align     = base_dir == LV_BIDI_DIR_RTL ? LV_ALIGN_IN_RIGHT_MID : LV_ALIGN_IN_LEFT_MID;
 1838              		.loc 1 411 0
 1839 0074 4FF00008 		mov	r8, #0
 412:lvgl\src\lv_widgets/lv_cont.c ****             break;
 1840              		.loc 1 412 0
 1841 0078 4FF0070A 		mov	r10, #7
 1842 007c 06E0     		b	.L130
 1843              	.LVL248:
 1844              	.L142:
 416:lvgl\src\lv_widgets/lv_cont.c ****             break;
 1845              		.loc 1 416 0
 1846 007e 4FF0040A 		mov	r10, #4
 1847 0082 03E0     		b	.L130
 1848              	.LVL249:
ARM GAS  C:\Users\strap\AppData\Local\Temp\cc7wbcEe.s 			page 56


 1849              	.L143:
 419:lvgl\src\lv_widgets/lv_cont.c ****             align     = base_dir == LV_BIDI_DIR_RTL ? LV_ALIGN_IN_TOP_RIGHT : LV_ALIGN_IN_TOP_LEFT;
 1850              		.loc 1 419 0
 1851 0084 4FF00008 		mov	r8, #0
 420:lvgl\src\lv_widgets/lv_cont.c ****             break;
 1852              		.loc 1 420 0
 1853 0088 4FF0010A 		mov	r10, #1
 1854              	.LVL250:
 1855              	.L130:
 426:lvgl\src\lv_widgets/lv_cont.c **** 
 1856              		.loc 1 426 0
 1857 008c 0121     		movs	r1, #1
 1858 008e 3046     		mov	r0, r6
 1859 0090 FFF7FEFF 		bl	lv_obj_add_protect
 1860              	.LVL251:
 430:lvgl\src\lv_widgets/lv_cont.c ****     else last_cord = lv_obj_get_style_pad_left(cont, LV_CONT_PART_MAIN);
 1861              		.loc 1 430 0
 1862 0094 012F     		cmp	r7, #1
 1863 0096 06D1     		bne	.L131
 1864              	.LVL252:
 1865              	.LBB190:
 1866              	.LBB191:
 113:lvgl\src\lv_widgets\../lv_core/lv_obj_style_dec.h **** _LV_OBJ_STYLE_SET_GET_DECLARE(PAD_INNER, pad_inner, lv_style_int_t, _int, scalar)
 1867              		.loc 2 113 0
 1868 0098 1322     		movs	r2, #19
 1869 009a 0021     		movs	r1, #0
 1870 009c 3046     		mov	r0, r6
 1871 009e FFF7FEFF 		bl	_lv_obj_get_style_int
 1872              	.LVL253:
 1873 00a2 8346     		mov	fp, r0
 1874              	.LVL254:
 1875              	.LBE191:
 1876              	.LBE190:
 1877 00a4 05E0     		b	.L132
 1878              	.L131:
 1879              	.LVL255:
 1880              	.LBB192:
 1881              	.LBB193:
 112:lvgl\src\lv_widgets\../lv_core/lv_obj_style_dec.h **** _LV_OBJ_STYLE_SET_GET_DECLARE(PAD_RIGHT, pad_right, lv_style_int_t, _int, scalar)
 1882              		.loc 2 112 0
 1883 00a6 1222     		movs	r2, #18
 1884 00a8 0021     		movs	r1, #0
 1885 00aa 3046     		mov	r0, r6
 1886 00ac FFF7FEFF 		bl	_lv_obj_get_style_int
 1887              	.LVL256:
 1888 00b0 8346     		mov	fp, r0
 1889              	.LVL257:
 1890              	.L132:
 1891              	.LBE193:
 1892              	.LBE192:
 1893              	.LBB194:
 1894              	.LBB195:
 114:lvgl\src\lv_widgets\../lv_core/lv_obj_style_dec.h **** _LV_OBJ_STYLE_SET_GET_DECLARE(MARGIN_TOP, margin_top, lv_style_int_t, _int, scalar)
 1895              		.loc 2 114 0
 1896 00b2 1422     		movs	r2, #20
 1897 00b4 0021     		movs	r1, #0
 1898 00b6 3046     		mov	r0, r6
ARM GAS  C:\Users\strap\AppData\Local\Temp\cc7wbcEe.s 			page 57


 1899 00b8 FFF7FEFF 		bl	_lv_obj_get_style_int
 1900              	.LVL258:
 1901 00bc 8146     		mov	r9, r0
 1902              	.LVL259:
 1903              	.LBE195:
 1904              	.LBE194:
 435:lvgl\src\lv_widgets/lv_cont.c ****         if(lv_obj_get_hidden(child) != false || lv_obj_is_protected(child, LV_PROTECT_POS) != false
 1905              		.loc 1 435 0
 1906 00be 351D     		adds	r5, r6, #4
 1907 00c0 2846     		mov	r0, r5
 1908 00c2 FFF7FEFF 		bl	_lv_ll_get_tail
 1909              	.LVL260:
 1910 00c6 0446     		mov	r4, r0
 1911              	.LVL261:
 1912 00c8 29E0     		b	.L133
 1913              	.L139:
 436:lvgl\src\lv_widgets/lv_cont.c **** 
 1914              		.loc 1 436 0
 1915 00ca 2046     		mov	r0, r4
 1916              	.LVL262:
 1917 00cc FFF7FEFF 		bl	lv_obj_get_hidden
 1918              	.LVL263:
 1919 00d0 00BB     		cbnz	r0, .L136
 436:lvgl\src\lv_widgets/lv_cont.c **** 
 1920              		.loc 1 436 0 is_stmt 0 discriminator 2
 1921 00d2 0421     		movs	r1, #4
 1922 00d4 2046     		mov	r0, r4
 1923 00d6 FFF7FEFF 		bl	lv_obj_is_protected
 1924              	.LVL264:
 1925 00da D8B9     		cbnz	r0, .L136
 438:lvgl\src\lv_widgets/lv_cont.c ****         else lv_obj_align(child, cont, align, last_cord, vpad_corr);
 1926              		.loc 1 438 0 is_stmt 1
 1927 00dc 012F     		cmp	r7, #1
 1928 00de 0AD1     		bne	.L137
 438:lvgl\src\lv_widgets/lv_cont.c ****         else lv_obj_align(child, cont, align, last_cord, vpad_corr);
 1929              		.loc 1 438 0 is_stmt 0 discriminator 1
 1930 00e0 CBF10003 		rsb	r3, fp, #0
 1931 00e4 CDF80080 		str	r8, [sp]
 1932 00e8 1BB2     		sxth	r3, r3
 1933 00ea 5246     		mov	r2, r10
 1934 00ec 3146     		mov	r1, r6
 1935 00ee 2046     		mov	r0, r4
 1936 00f0 FFF7FEFF 		bl	lv_obj_align
 1937              	.LVL265:
 1938 00f4 07E0     		b	.L138
 1939              	.L137:
 439:lvgl\src\lv_widgets/lv_cont.c **** 
 1940              		.loc 1 439 0 is_stmt 1
 1941 00f6 CDF80080 		str	r8, [sp]
 1942 00fa 5B46     		mov	r3, fp
 1943 00fc 5246     		mov	r2, r10
 1944 00fe 3146     		mov	r1, r6
 1945 0100 2046     		mov	r0, r4
 1946 0102 FFF7FEFF 		bl	lv_obj_align
 1947              	.LVL266:
 1948              	.L138:
 441:lvgl\src\lv_widgets/lv_cont.c ****     }
ARM GAS  C:\Users\strap\AppData\Local\Temp\cc7wbcEe.s 			page 58


 1949              		.loc 1 441 0
 1950 0106 2046     		mov	r0, r4
 1951 0108 FFF7FEFF 		bl	lv_obj_get_width
 1952              	.LVL267:
 1953 010c 4844     		add	r0, r0, r9
 1954 010e 5844     		add	r0, r0, fp
 1955 0110 0FFA80FB 		sxth	fp, r0
 1956              	.LVL268:
 1957              	.L136:
 435:lvgl\src\lv_widgets/lv_cont.c ****         if(lv_obj_get_hidden(child) != false || lv_obj_is_protected(child, LV_PROTECT_POS) != false
 1958              		.loc 1 435 0 discriminator 2
 1959 0114 2146     		mov	r1, r4
 1960 0116 2846     		mov	r0, r5
 1961 0118 FFF7FEFF 		bl	_lv_ll_get_prev
 1962              	.LVL269:
 1963 011c 0446     		mov	r4, r0
 1964              	.LVL270:
 1965              	.L133:
 435:lvgl\src\lv_widgets/lv_cont.c ****         if(lv_obj_get_hidden(child) != false || lv_obj_is_protected(child, LV_PROTECT_POS) != false
 1966              		.loc 1 435 0 is_stmt 0 discriminator 1
 1967 011e 002C     		cmp	r4, #0
 1968 0120 D3D1     		bne	.L139
 444:lvgl\src\lv_widgets/lv_cont.c **** }
 1969              		.loc 1 444 0 is_stmt 1
 1970 0122 0121     		movs	r1, #1
 1971 0124 3046     		mov	r0, r6
 1972              	.LVL271:
 1973 0126 FFF7FEFF 		bl	lv_obj_clear_protect
 1974              	.LVL272:
 445:lvgl\src\lv_widgets/lv_cont.c **** 
 1975              		.loc 1 445 0
 1976 012a 03B0     		add	sp, sp, #12
 1977              		.cfi_def_cfa_offset 36
 1978              		@ sp needed
 1979 012c BDE8F08F 		pop	{r4, r5, r6, r7, r8, r9, r10, fp, pc}
 1980              		.cfi_endproc
 1981              	.LFE342:
 1982              		.size	lv_cont_layout_row, .-lv_cont_layout_row
 1983              		.section	.text.lv_cont_layout_pretty,"ax",%progbits
 1984              		.align	2
 1985              		.thumb
 1986              		.thumb_func
 1987              		.type	lv_cont_layout_pretty, %function
 1988              	lv_cont_layout_pretty:
 1989              	.LFB344:
 490:lvgl\src\lv_widgets/lv_cont.c ****     lv_layout_t type = lv_cont_get_layout(cont);
 1990              		.loc 1 490 0
 1991              		.cfi_startproc
 1992              		@ args = 0, pretend = 0, frame = 40
 1993              		@ frame_needed = 0, uses_anonymous_args = 0
 1994              	.LVL273:
 1995 0000 2DE9F04F 		push	{r4, r5, r6, r7, r8, r9, r10, fp, lr}
 1996              		.cfi_def_cfa_offset 36
 1997              		.cfi_offset 4, -36
 1998              		.cfi_offset 5, -32
 1999              		.cfi_offset 6, -28
 2000              		.cfi_offset 7, -24
ARM GAS  C:\Users\strap\AppData\Local\Temp\cc7wbcEe.s 			page 59


 2001              		.cfi_offset 8, -20
 2002              		.cfi_offset 9, -16
 2003              		.cfi_offset 10, -12
 2004              		.cfi_offset 11, -8
 2005              		.cfi_offset 14, -4
 2006 0004 8DB0     		sub	sp, sp, #52
 2007              		.cfi_def_cfa_offset 88
 2008 0006 0446     		mov	r4, r0
 2009 0008 0590     		str	r0, [sp, #20]
 491:lvgl\src\lv_widgets/lv_cont.c **** 
 2010              		.loc 1 491 0
 2011 000a FFF7FEFF 		bl	lv_cont_get_layout
 2012              	.LVL274:
 2013 000e 0B90     		str	r0, [sp, #44]
 2014              	.LVL275:
 496:lvgl\src\lv_widgets/lv_cont.c ****     lv_coord_t act_y         =  lv_obj_get_style_pad_top(cont, LV_CONT_PART_MAIN);
 2015              		.loc 1 496 0
 2016 0010 2046     		mov	r0, r4
 2017 0012 FFF7FEFF 		bl	lv_obj_get_width
 2018              	.LVL276:
 2019 0016 8146     		mov	r9, r0
 2020              	.LVL277:
 2021              	.LBB196:
 2022              	.LBB197:
 110:lvgl\src\lv_widgets\../lv_core/lv_obj_style_dec.h **** _LV_OBJ_STYLE_SET_GET_DECLARE(PAD_BOTTOM, pad_bottom, lv_style_int_t, _int, scalar)
 2023              		.loc 2 110 0
 2024 0018 1022     		movs	r2, #16
 2025 001a 0021     		movs	r1, #0
 2026 001c 2046     		mov	r0, r4
 2027 001e FFF7FEFF 		bl	_lv_obj_get_style_int
 2028              	.LVL278:
 2029 0022 0390     		str	r0, [sp, #12]
 2030              	.LVL279:
 2031              	.LBE197:
 2032              	.LBE196:
 501:lvgl\src\lv_widgets/lv_cont.c ****     if(child_rs == NULL) return;                /*Return if no child*/
 2033              		.loc 1 501 0
 2034 0024 2346     		mov	r3, r4
 2035 0026 0433     		adds	r3, r3, #4
 2036 0028 0293     		str	r3, [sp, #8]
 2037 002a 1846     		mov	r0, r3
 2038 002c FFF7FEFF 		bl	_lv_ll_get_tail
 2039              	.LVL280:
 502:lvgl\src\lv_widgets/lv_cont.c **** 
 2040              		.loc 1 502 0
 2041 0030 0028     		cmp	r0, #0
 2042 0032 00F06581 		beq	.L146
 2043 0036 8246     		mov	r10, r0
 504:lvgl\src\lv_widgets/lv_cont.c ****     lv_coord_t pleft          =  lv_obj_get_style_pad_left(cont, LV_CONT_PART_MAIN);
 2044              		.loc 1 504 0
 2045 0038 0121     		movs	r1, #1
 2046 003a 2046     		mov	r0, r4
 2047              	.LVL281:
 2048 003c FFF7FEFF 		bl	lv_obj_add_protect
 2049              	.LVL282:
 2050              	.LBB198:
 2051              	.LBB199:
ARM GAS  C:\Users\strap\AppData\Local\Temp\cc7wbcEe.s 			page 60


 112:lvgl\src\lv_widgets\../lv_core/lv_obj_style_dec.h **** _LV_OBJ_STYLE_SET_GET_DECLARE(PAD_RIGHT, pad_right, lv_style_int_t, _int, scalar)
 2052              		.loc 2 112 0
 2053 0040 1222     		movs	r2, #18
 2054 0042 0021     		movs	r1, #0
 2055 0044 2046     		mov	r0, r4
 2056 0046 FFF7FEFF 		bl	_lv_obj_get_style_int
 2057              	.LVL283:
 2058 004a 0490     		str	r0, [sp, #16]
 2059              	.LVL284:
 2060              	.LBE199:
 2061              	.LBE198:
 2062              	.LBB200:
 2063              	.LBB201:
 113:lvgl\src\lv_widgets\../lv_core/lv_obj_style_dec.h **** _LV_OBJ_STYLE_SET_GET_DECLARE(PAD_INNER, pad_inner, lv_style_int_t, _int, scalar)
 2064              		.loc 2 113 0
 2065 004c 1322     		movs	r2, #19
 2066 004e 0021     		movs	r1, #0
 2067 0050 2046     		mov	r0, r4
 2068 0052 FFF7FEFF 		bl	_lv_obj_get_style_int
 2069              	.LVL285:
 2070 0056 0690     		str	r0, [sp, #24]
 2071              	.LVL286:
 2072              	.LBE201:
 2073              	.LBE200:
 2074              	.LBB202:
 2075              	.LBB203:
 114:lvgl\src\lv_widgets\../lv_core/lv_obj_style_dec.h **** _LV_OBJ_STYLE_SET_GET_DECLARE(MARGIN_TOP, margin_top, lv_style_int_t, _int, scalar)
 2076              		.loc 2 114 0
 2077 0058 1422     		movs	r2, #20
 2078 005a 0021     		movs	r1, #0
 2079 005c 2046     		mov	r0, r4
 2080 005e FFF7FEFF 		bl	_lv_obj_get_style_int
 2081              	.LVL287:
 2082 0062 8346     		mov	fp, r0
 2083              	.LVL288:
 2084 0064 5546     		mov	r5, r10
 2085 0066 CA46     		mov	r10, r9
 2086              	.LVL289:
 2087              	.LBE203:
 2088              	.LBE202:
 510:lvgl\src\lv_widgets/lv_cont.c ****         lv_coord_t h_row = 0;
 2089              		.loc 1 510 0
 2090 0068 43E1     		b	.L148
 2091              	.LVL290:
 2092              	.L166:
 2093              	.LBB204:
 512:lvgl\src\lv_widgets/lv_cont.c ****         uint32_t obj_num = 0;
 2094              		.loc 1 512 0
 2095 006a 049B     		ldr	r3, [sp, #16]
 2096 006c 069A     		ldr	r2, [sp, #24]
 2097 006e 9F18     		adds	r7, r3, r2
 2098 0070 3FB2     		sxth	r7, r7
 2099              	.LVL291:
 2100 0072 2C46     		mov	r4, r5
 513:lvgl\src\lv_widgets/lv_cont.c **** 
 2101              		.loc 1 513 0
 2102 0074 4FF00009 		mov	r9, #0
ARM GAS  C:\Users\strap\AppData\Local\Temp\cc7wbcEe.s 			page 61


 511:lvgl\src\lv_widgets/lv_cont.c ****         lv_coord_t w_row = pleft + pright; /*The width is at least the left+right pad*/
 2103              		.loc 1 511 0
 2104 0078 4E46     		mov	r6, r9
 2105 007a A946     		mov	r9, r5
 2106 007c 3546     		mov	r5, r6
 2107              	.LVL292:
 2108              	.L153:
 517:lvgl\src\lv_widgets/lv_cont.c ****                 /*If this object is already not fit then break*/
 2109              		.loc 1 517 0
 2110 007e 2046     		mov	r0, r4
 2111 0080 FFF7FEFF 		bl	lv_obj_get_hidden
 2112              	.LVL293:
 2113 0084 0028     		cmp	r0, #0
 2114 0086 46D1     		bne	.L149
 517:lvgl\src\lv_widgets/lv_cont.c ****                 /*If this object is already not fit then break*/
 2115              		.loc 1 517 0 is_stmt 0 discriminator 1
 2116 0088 0421     		movs	r1, #4
 2117 008a 2046     		mov	r0, r4
 2118 008c FFF7FEFF 		bl	lv_obj_is_protected
 2119              	.LVL294:
 2120 0090 0028     		cmp	r0, #0
 2121 0092 40D1     		bne	.L149
 2122              	.LBB205:
 519:lvgl\src\lv_widgets/lv_cont.c ****                 w += lv_obj_get_style_margin_left(child_rc, LV_OBJ_PART_MAIN);
 2123              		.loc 1 519 0 is_stmt 1
 2124 0094 2046     		mov	r0, r4
 2125 0096 FFF7FEFF 		bl	lv_obj_get_width
 2126              	.LVL295:
 2127 009a 8046     		mov	r8, r0
 2128              	.LVL296:
 2129              	.LBB206:
 2130              	.LBB207:
 117:lvgl\src\lv_widgets\../lv_core/lv_obj_style_dec.h **** _LV_OBJ_STYLE_SET_GET_DECLARE(MARGIN_RIGHT, margin_right, lv_style_int_t, _int, scalar)
 2131              		.loc 2 117 0
 2132 009c 1722     		movs	r2, #23
 2133 009e 0021     		movs	r1, #0
 2134 00a0 2046     		mov	r0, r4
 2135 00a2 FFF7FEFF 		bl	_lv_obj_get_style_int
 2136              	.LVL297:
 2137              	.LBE207:
 2138              	.LBE206:
 520:lvgl\src\lv_widgets/lv_cont.c ****                 w += lv_obj_get_style_margin_right(child_rc, LV_OBJ_PART_MAIN);
 2139              		.loc 1 520 0
 2140 00a6 4044     		add	r0, r0, r8
 2141 00a8 1FFA80F8 		uxth	r8, r0
 2142              	.LVL298:
 2143              	.LBB208:
 2144              	.LBB209:
 2145              		.loc 2 118 0
 2146 00ac 1822     		movs	r2, #24
 2147 00ae 0021     		movs	r1, #0
 2148 00b0 2046     		mov	r0, r4
 2149 00b2 FFF7FEFF 		bl	_lv_obj_get_style_int
 2150              	.LVL299:
 2151              	.LBE209:
 2152              	.LBE208:
 521:lvgl\src\lv_widgets/lv_cont.c ****                 if(w_row + w > w_obj) {
ARM GAS  C:\Users\strap\AppData\Local\Temp\cc7wbcEe.s 			page 62


 2153              		.loc 1 521 0
 2154 00b6 4044     		add	r0, r0, r8
 2155 00b8 80B2     		uxth	r0, r0
 2156 00ba 03B2     		sxth	r3, r0
 2157              	.LVL300:
 522:lvgl\src\lv_widgets/lv_cont.c ****                     /*Step back one child because the last already not fit, so the previous is the
 2158              		.loc 1 522 0
 2159 00bc 3B44     		add	r3, r3, r7
 2160              	.LVL301:
 2161 00be 5345     		cmp	r3, r10
 2162 00c0 0ADD     		ble	.L150
 2163 00c2 2B46     		mov	r3, r5
 2164 00c4 4D46     		mov	r5, r9
 2165              	.LVL302:
 2166 00c6 9946     		mov	r9, r3
 2167              	.LVL303:
 525:lvgl\src\lv_widgets/lv_cont.c ****                         child_rc = _lv_ll_get_next(&cont->child_ll, child_rc);
 2168              		.loc 1 525 0
 2169 00c8 ACB3     		cbz	r4, .L151
 525:lvgl\src\lv_widgets/lv_cont.c ****                         child_rc = _lv_ll_get_next(&cont->child_ll, child_rc);
 2170              		.loc 1 525 0 is_stmt 0 discriminator 1
 2171 00ca A3B3     		cbz	r3, .L151
 526:lvgl\src\lv_widgets/lv_cont.c ****                     }
 2172              		.loc 1 526 0 is_stmt 1
 2173 00cc 2146     		mov	r1, r4
 2174 00ce 0298     		ldr	r0, [sp, #8]
 2175              	.LVL304:
 2176 00d0 FFF7FEFF 		bl	_lv_ll_get_next
 2177              	.LVL305:
 2178 00d4 0446     		mov	r4, r0
 2179              	.LVL306:
 2180 00d6 2EE0     		b	.L151
 2181              	.LVL307:
 2182              	.L150:
 530:lvgl\src\lv_widgets/lv_cont.c **** 
 2183              		.loc 1 530 0
 2184 00d8 5844     		add	r0, r0, fp
 2185              	.LVL308:
 2186 00da 0744     		add	r7, r7, r0
 2187              	.LVL309:
 2188 00dc 3FB2     		sxth	r7, r7
 2189              	.LVL310:
 532:lvgl\src\lv_widgets/lv_cont.c ****                 h += lv_obj_get_style_margin_top(child_rc, LV_OBJ_PART_MAIN);
 2190              		.loc 1 532 0
 2191 00de 2046     		mov	r0, r4
 2192 00e0 FFF7FEFF 		bl	lv_obj_get_height
 2193              	.LVL311:
 2194 00e4 8046     		mov	r8, r0
 2195              	.LVL312:
 2196              	.LBB210:
 2197              	.LBB211:
 115:lvgl\src\lv_widgets\../lv_core/lv_obj_style_dec.h **** _LV_OBJ_STYLE_SET_GET_DECLARE(MARGIN_BOTTOM, margin_bottom, lv_style_int_t, _int, scalar)
 2198              		.loc 2 115 0
 2199 00e6 1522     		movs	r2, #21
 2200 00e8 0021     		movs	r1, #0
 2201 00ea 2046     		mov	r0, r4
 2202 00ec FFF7FEFF 		bl	_lv_obj_get_style_int
ARM GAS  C:\Users\strap\AppData\Local\Temp\cc7wbcEe.s 			page 63


 2203              	.LVL313:
 2204              	.LBE211:
 2205              	.LBE210:
 533:lvgl\src\lv_widgets/lv_cont.c ****                 h += lv_obj_get_style_margin_bottom(child_rc, LV_OBJ_PART_MAIN);
 2206              		.loc 1 533 0
 2207 00f0 4044     		add	r0, r0, r8
 2208 00f2 1FFA80F8 		uxth	r8, r0
 2209              	.LVL314:
 2210              	.LBB212:
 2211              	.LBB213:
 116:lvgl\src\lv_widgets\../lv_core/lv_obj_style_dec.h **** _LV_OBJ_STYLE_SET_GET_DECLARE(MARGIN_LEFT, margin_left, lv_style_int_t, _int, scalar)
 2212              		.loc 2 116 0
 2213 00f6 1622     		movs	r2, #22
 2214 00f8 0021     		movs	r1, #0
 2215 00fa 2046     		mov	r0, r4
 2216 00fc FFF7FEFF 		bl	_lv_obj_get_style_int
 2217              	.LVL315:
 2218              	.LBE213:
 2219              	.LBE212:
 534:lvgl\src\lv_widgets/lv_cont.c ****                 h_row = LV_MATH_MAX(h_row, h);         /*Search the highest object*/
 2220              		.loc 1 534 0
 2221 0100 4044     		add	r0, r0, r8
 2222 0102 00B2     		sxth	r0, r0
 2223              	.LVL316:
 535:lvgl\src\lv_widgets/lv_cont.c ****                 obj_num++;
 2224              		.loc 1 535 0
 2225 0104 8642     		cmp	r6, r0
 2226 0106 B8BF     		it	lt
 2227 0108 0646     		movlt	r6, r0
 2228              	.LVL317:
 536:lvgl\src\lv_widgets/lv_cont.c ****                 if(lv_obj_is_protected(child_rc, LV_PROTECT_FOLLOW))
 2229              		.loc 1 536 0
 2230 010a 0135     		adds	r5, r5, #1
 2231              	.LVL318:
 537:lvgl\src\lv_widgets/lv_cont.c ****                     break; /*If can not be followed by an other object then break here*/
 2232              		.loc 1 537 0
 2233 010c 0821     		movs	r1, #8
 2234 010e 2046     		mov	r0, r4
 2235              	.LVL319:
 2236 0110 FFF7FEFF 		bl	lv_obj_is_protected
 2237              	.LVL320:
 2238 0114 60B9     		cbnz	r0, .L169
 2239              	.L149:
 2240              	.LBE205:
 540:lvgl\src\lv_widgets/lv_cont.c ****             if(obj_num == 0)
 2241              		.loc 1 540 0
 2242 0116 2146     		mov	r1, r4
 2243 0118 0298     		ldr	r0, [sp, #8]
 2244 011a FFF7FEFF 		bl	_lv_ll_get_prev
 2245              	.LVL321:
 2246 011e 0446     		mov	r4, r0
 2247              	.LVL322:
 541:lvgl\src\lv_widgets/lv_cont.c ****                 child_rs = child_rc; /*If the first object was hidden (or too long) then set the
 2248              		.loc 1 541 0
 2249 0120 05B9     		cbnz	r5, .L152
 542:lvgl\src\lv_widgets/lv_cont.c ****                                         next as first */
 2250              		.loc 1 542 0
ARM GAS  C:\Users\strap\AppData\Local\Temp\cc7wbcEe.s 			page 64


 2251 0122 8146     		mov	r9, r0
 2252              	.LVL323:
 2253              	.L152:
 544:lvgl\src\lv_widgets/lv_cont.c **** 
 2254              		.loc 1 544 0
 2255 0124 002C     		cmp	r4, #0
 2256 0126 AAD1     		bne	.L153
 2257 0128 2B46     		mov	r3, r5
 2258 012a 4D46     		mov	r5, r9
 2259              	.LVL324:
 2260 012c 9946     		mov	r9, r3
 2261              	.LVL325:
 2262 012e 02E0     		b	.L151
 2263              	.LVL326:
 2264              	.L169:
 2265 0130 2B46     		mov	r3, r5
 2266 0132 4D46     		mov	r5, r9
 2267              	.LVL327:
 2268 0134 9946     		mov	r9, r3
 2269              	.LVL328:
 2270              	.L151:
 547:lvgl\src\lv_widgets/lv_cont.c ****             if(child_rc != NULL) {
 2271              		.loc 1 547 0
 2272 0136 B9F1000F 		cmp	r9, #0
 2273 013a 1FD1     		bne	.L154
 548:lvgl\src\lv_widgets/lv_cont.c ****                 lv_style_int_t mtop = lv_obj_get_style_margin_top(child_rc, LV_OBJ_PART_MAIN);
 2274              		.loc 1 548 0
 2275 013c 002C     		cmp	r4, #0
 2276 013e 00F0CD80 		beq	.L155
 2277              	.LVL329:
 2278              	.LBB214:
 2279              	.LBB215:
 2280              	.LBB216:
 115:lvgl\src\lv_widgets\../lv_core/lv_obj_style_dec.h **** _LV_OBJ_STYLE_SET_GET_DECLARE(MARGIN_BOTTOM, margin_bottom, lv_style_int_t, _int, scalar)
 2281              		.loc 2 115 0
 2282 0142 1522     		movs	r2, #21
 2283 0144 0021     		movs	r1, #0
 2284 0146 2046     		mov	r0, r4
 2285 0148 FFF7FEFF 		bl	_lv_obj_get_style_int
 2286              	.LVL330:
 2287              	.LBE216:
 2288              	.LBE215:
 551:lvgl\src\lv_widgets/lv_cont.c ****                 h_row = lv_obj_get_height(child_rc); /*Not set previously because of the early brea
 2289              		.loc 1 551 0
 2290 014c 85B2     		uxth	r5, r0
 2291              	.LVL331:
 2292 014e 039B     		ldr	r3, [sp, #12]
 2293 0150 EB18     		adds	r3, r5, r3
 2294 0152 1BB2     		sxth	r3, r3
 2295 0154 0093     		str	r3, [sp]
 2296 0156 0023     		movs	r3, #0
 2297 0158 0222     		movs	r2, #2
 2298 015a 0599     		ldr	r1, [sp, #20]
 2299 015c 2046     		mov	r0, r4
 2300 015e FFF7FEFF 		bl	lv_obj_align
 2301              	.LVL332:
 552:lvgl\src\lv_widgets/lv_cont.c ****                 h_row += mtop;
ARM GAS  C:\Users\strap\AppData\Local\Temp\cc7wbcEe.s 			page 65


 2302              		.loc 1 552 0
 2303 0162 2046     		mov	r0, r4
 2304 0164 FFF7FEFF 		bl	lv_obj_get_height
 2305              	.LVL333:
 553:lvgl\src\lv_widgets/lv_cont.c ****                 h_row += lv_obj_get_style_margin_bottom(child_rc, LV_OBJ_PART_MAIN);
 2306              		.loc 1 553 0
 2307 0168 2844     		add	r0, r0, r5
 2308              	.LVL334:
 2309 016a 85B2     		uxth	r5, r0
 2310              	.LVL335:
 2311              	.LBB217:
 2312              	.LBB218:
 116:lvgl\src\lv_widgets\../lv_core/lv_obj_style_dec.h **** _LV_OBJ_STYLE_SET_GET_DECLARE(MARGIN_LEFT, margin_left, lv_style_int_t, _int, scalar)
 2313              		.loc 2 116 0
 2314 016c 1622     		movs	r2, #22
 2315 016e 0021     		movs	r1, #0
 2316 0170 2046     		mov	r0, r4
 2317 0172 FFF7FEFF 		bl	_lv_obj_get_style_int
 2318              	.LVL336:
 2319              	.LBE218:
 2320              	.LBE217:
 554:lvgl\src\lv_widgets/lv_cont.c ****             }
 2321              		.loc 1 554 0
 2322 0176 2844     		add	r0, r0, r5
 2323 0178 06B2     		sxth	r6, r0
 2324              	.LVL337:
 2325 017a AFE0     		b	.L155
 2326              	.LVL338:
 2327              	.L154:
 2328              	.LBE214:
 558:lvgl\src\lv_widgets/lv_cont.c ****             lv_obj_align(child_rs, cont, LV_ALIGN_IN_TOP_MID,
 2329              		.loc 1 558 0
 2330 017c B9F1010F 		cmp	r9, #1
 2331 0180 0FD1     		bne	.L156
 2332              	.LVL339:
 2333              	.LBB219:
 2334              	.LBB220:
 115:lvgl\src\lv_widgets\../lv_core/lv_obj_style_dec.h **** _LV_OBJ_STYLE_SET_GET_DECLARE(MARGIN_BOTTOM, margin_bottom, lv_style_int_t, _int, scalar)
 2335              		.loc 2 115 0
 2336 0182 1522     		movs	r2, #21
 2337 0184 0021     		movs	r1, #0
 2338 0186 2846     		mov	r0, r5
 2339 0188 FFF7FEFF 		bl	_lv_obj_get_style_int
 2340              	.LVL340:
 2341              	.LBE220:
 2342              	.LBE219:
 559:lvgl\src\lv_widgets/lv_cont.c ****                          0,
 2343              		.loc 1 559 0
 2344 018c 039B     		ldr	r3, [sp, #12]
 2345 018e 1844     		add	r0, r0, r3
 2346 0190 03B2     		sxth	r3, r0
 2347 0192 0093     		str	r3, [sp]
 2348 0194 0023     		movs	r3, #0
 2349 0196 0222     		movs	r2, #2
 2350 0198 0599     		ldr	r1, [sp, #20]
 2351 019a 2846     		mov	r0, r5
 2352 019c FFF7FEFF 		bl	lv_obj_align
ARM GAS  C:\Users\strap\AppData\Local\Temp\cc7wbcEe.s 			page 66


 2353              	.LVL341:
 2354 01a0 9CE0     		b	.L155
 2355              	.L156:
 2356              	.LBB221:
 565:lvgl\src\lv_widgets/lv_cont.c ****             lv_coord_t new_pinner = (w_obj - w_row) / (obj_num - 1);
 2357              		.loc 1 565 0
 2358 01a2 0BFB1973 		mls	r3, fp, r9, r7
 2359 01a6 1BB2     		sxth	r3, r3
 2360              	.LVL342:
 566:lvgl\src\lv_widgets/lv_cont.c ****             lv_coord_t act_x    = pleft; /*x init*/
 2361              		.loc 1 566 0
 2362 01a8 C3EB0A03 		rsb	r3, r3, r10
 2363              	.LVL343:
 2364 01ac 09F1FF39 		add	r9, r9, #-1
 2365              	.LVL344:
 2366 01b0 B3FBF9F9 		udiv	r9, r3, r9
 2367              	.LVL345:
 2368 01b4 0FFA89F7 		sxth	r7, r9
 2369              	.LVL346:
 571:lvgl\src\lv_widgets/lv_cont.c ****                 align = LV_ALIGN_IN_TOP_RIGHT;
 2370              		.loc 1 571 0
 2371 01b8 0598     		ldr	r0, [sp, #20]
 2372 01ba FFF7FEFF 		bl	lv_obj_get_base_dir
 2373              	.LVL347:
 2374 01be 0128     		cmp	r0, #1
 2375 01c0 05D1     		bne	.L168
 573:lvgl\src\lv_widgets/lv_cont.c ****             } else {
 2376              		.loc 1 573 0
 2377 01c2 4FF0FF33 		mov	r3, #-1
 2378 01c6 0A93     		str	r3, [sp, #40]
 572:lvgl\src\lv_widgets/lv_cont.c ****                 inv = -1;
 2379              		.loc 1 572 0
 2380 01c8 0323     		movs	r3, #3
 2381 01ca 0993     		str	r3, [sp, #36]
 2382 01cc 02E0     		b	.L157
 2383              	.L168:
 576:lvgl\src\lv_widgets/lv_cont.c ****             }
 2384              		.loc 1 576 0
 2385 01ce 0123     		movs	r3, #1
 2386 01d0 0A93     		str	r3, [sp, #40]
 575:lvgl\src\lv_widgets/lv_cont.c ****                 inv = 1;
 2387              		.loc 1 575 0
 2388 01d2 0993     		str	r3, [sp, #36]
 2389              	.L157:
 572:lvgl\src\lv_widgets/lv_cont.c ****                 inv = -1;
 2390              		.loc 1 572 0
 2391 01d4 DDF81080 		ldr	r8, [sp, #16]
 2392 01d8 7DE0     		b	.L158
 2393              	.LVL348:
 2394              	.L164:
 579:lvgl\src\lv_widgets/lv_cont.c ****                     lv_coord_t mleft = lv_obj_get_style_margin_left(child_tmp, LV_OBJ_PART_MAIN);
 2395              		.loc 1 579 0
 2396 01da 2846     		mov	r0, r5
 2397 01dc FFF7FEFF 		bl	lv_obj_get_hidden
 2398              	.LVL349:
 2399 01e0 0028     		cmp	r0, #0
 2400 01e2 71D1     		bne	.L159
ARM GAS  C:\Users\strap\AppData\Local\Temp\cc7wbcEe.s 			page 67


 579:lvgl\src\lv_widgets/lv_cont.c ****                     lv_coord_t mleft = lv_obj_get_style_margin_left(child_tmp, LV_OBJ_PART_MAIN);
 2401              		.loc 1 579 0 is_stmt 0 discriminator 1
 2402 01e4 0421     		movs	r1, #4
 2403 01e6 2846     		mov	r0, r5
 2404 01e8 FFF7FEFF 		bl	lv_obj_is_protected
 2405              	.LVL350:
 2406 01ec 0028     		cmp	r0, #0
 2407 01ee 6BD1     		bne	.L159
 2408              	.LVL351:
 2409              	.LBB222:
 2410              	.LBB223:
 2411              	.LBB224:
 117:lvgl\src\lv_widgets\../lv_core/lv_obj_style_dec.h **** _LV_OBJ_STYLE_SET_GET_DECLARE(MARGIN_RIGHT, margin_right, lv_style_int_t, _int, scalar)
 2412              		.loc 2 117 0 is_stmt 1
 2413 01f0 1722     		movs	r2, #23
 2414 01f2 0021     		movs	r1, #0
 2415 01f4 2846     		mov	r0, r5
 2416 01f6 FFF7FEFF 		bl	_lv_obj_get_style_int
 2417              	.LVL352:
 2418 01fa 0790     		str	r0, [sp, #28]
 2419              	.LVL353:
 2420              	.LBE224:
 2421              	.LBE223:
 2422              	.LBB225:
 2423              	.LBB226:
 2424              		.loc 2 118 0
 2425 01fc 1822     		movs	r2, #24
 2426 01fe 0021     		movs	r1, #0
 2427 0200 2846     		mov	r0, r5
 2428 0202 FFF7FEFF 		bl	_lv_obj_get_style_int
 2429              	.LVL354:
 2430 0206 0890     		str	r0, [sp, #32]
 2431              	.LVL355:
 2432              	.LBE226:
 2433              	.LBE225:
 582:lvgl\src\lv_widgets/lv_cont.c ****                         case LV_LAYOUT_PRETTY_TOP:
 2434              		.loc 1 582 0
 2435 0208 0B9B     		ldr	r3, [sp, #44]
 2436 020a 092B     		cmp	r3, #9
 2437 020c 19D0     		beq	.L161
 2438 020e 0A2B     		cmp	r3, #10
 2439 0210 2FD0     		beq	.L162
 2440 0212 082B     		cmp	r3, #8
 2441 0214 4DD1     		bne	.L160
 585:lvgl\src\lv_widgets/lv_cont.c ****                                          act_y + lv_obj_get_style_margin_top(child_tmp, LV_OBJ_PART
 2442              		.loc 1 585 0
 2443 0216 079B     		ldr	r3, [sp, #28]
 2444 0218 08EB0309 		add	r9, r8, r3
 2445              	.LVL356:
 2446              	.LBB227:
 2447              	.LBB228:
 115:lvgl\src\lv_widgets\../lv_core/lv_obj_style_dec.h **** _LV_OBJ_STYLE_SET_GET_DECLARE(MARGIN_BOTTOM, margin_bottom, lv_style_int_t, _int, scalar)
 2448              		.loc 2 115 0
 2449 021c 1522     		movs	r2, #21
 2450 021e 0021     		movs	r1, #0
 2451 0220 2846     		mov	r0, r5
 2452 0222 FFF7FEFF 		bl	_lv_obj_get_style_int
ARM GAS  C:\Users\strap\AppData\Local\Temp\cc7wbcEe.s 			page 68


 2453              	.LVL357:
 2454              	.LBE228:
 2455              	.LBE227:
 584:lvgl\src\lv_widgets/lv_cont.c ****                                         inv * (act_x + mleft),
 2456              		.loc 1 584 0
 2457 0226 0A9B     		ldr	r3, [sp, #40]
 2458 0228 09FB03F3 		mul	r3, r9, r3
 2459 022c 039A     		ldr	r2, [sp, #12]
 2460 022e 1044     		add	r0, r0, r2
 2461 0230 02B2     		sxth	r2, r0
 2462 0232 0092     		str	r2, [sp]
 2463 0234 1BB2     		sxth	r3, r3
 2464 0236 099A     		ldr	r2, [sp, #36]
 2465 0238 0599     		ldr	r1, [sp, #20]
 2466 023a 2846     		mov	r0, r5
 2467 023c FFF7FEFF 		bl	lv_obj_align
 2468              	.LVL358:
 587:lvgl\src\lv_widgets/lv_cont.c ****                         case LV_LAYOUT_PRETTY_MID:
 2469              		.loc 1 587 0
 2470 0240 37E0     		b	.L160
 2471              	.L161:
 590:lvgl\src\lv_widgets/lv_cont.c ****                                          act_y + (h_row - lv_obj_get_height(child_tmp)) / 2);
 2472              		.loc 1 590 0
 2473 0242 079B     		ldr	r3, [sp, #28]
 2474 0244 08EB0309 		add	r9, r8, r3
 591:lvgl\src\lv_widgets/lv_cont.c **** 
 2475              		.loc 1 591 0
 2476 0248 2846     		mov	r0, r5
 2477 024a FFF7FEFF 		bl	lv_obj_get_height
 2478              	.LVL359:
 2479 024e 301A     		subs	r0, r6, r0
 2480 0250 00EBD070 		add	r0, r0, r0, lsr #31
 589:lvgl\src\lv_widgets/lv_cont.c ****                                          inv * (act_x + mleft),
 2481              		.loc 1 589 0
 2482 0254 0A9B     		ldr	r3, [sp, #40]
 2483 0256 09FB03F3 		mul	r3, r9, r3
 2484 025a 039A     		ldr	r2, [sp, #12]
 2485 025c 02EB6002 		add	r2, r2, r0, asr #1
 2486 0260 12B2     		sxth	r2, r2
 2487 0262 0092     		str	r2, [sp]
 2488 0264 1BB2     		sxth	r3, r3
 2489 0266 099A     		ldr	r2, [sp, #36]
 2490 0268 0599     		ldr	r1, [sp, #20]
 2491 026a 2846     		mov	r0, r5
 2492 026c FFF7FEFF 		bl	lv_obj_align
 2493              	.LVL360:
 593:lvgl\src\lv_widgets/lv_cont.c ****                         case LV_LAYOUT_PRETTY_BOTTOM:
 2494              		.loc 1 593 0
 2495 0270 1FE0     		b	.L160
 2496              	.L162:
 595:lvgl\src\lv_widgets/lv_cont.c ****                                          inv * (act_x + mleft),
 2497              		.loc 1 595 0
 2498 0272 039B     		ldr	r3, [sp, #12]
 2499 0274 03EB0609 		add	r9, r3, r6
 2500 0278 1FFA89F9 		uxth	r9, r9
 597:lvgl\src\lv_widgets/lv_cont.c ****                             break;
 2501              		.loc 1 597 0
ARM GAS  C:\Users\strap\AppData\Local\Temp\cc7wbcEe.s 			page 69


 2502 027c 2846     		mov	r0, r5
 2503 027e FFF7FEFF 		bl	lv_obj_get_height
 2504              	.LVL361:
 595:lvgl\src\lv_widgets/lv_cont.c ****                                          inv * (act_x + mleft),
 2505              		.loc 1 595 0
 2506 0282 C0EB0900 		rsb	r0, r0, r9
 2507 0286 1FFA80F9 		uxth	r9, r0
 2508              	.LVL362:
 2509              	.LBB229:
 2510              	.LBB230:
 116:lvgl\src\lv_widgets\../lv_core/lv_obj_style_dec.h **** _LV_OBJ_STYLE_SET_GET_DECLARE(MARGIN_LEFT, margin_left, lv_style_int_t, _int, scalar)
 2511              		.loc 2 116 0
 2512 028a 1622     		movs	r2, #22
 2513 028c 0021     		movs	r1, #0
 2514 028e 2846     		mov	r0, r5
 2515 0290 FFF7FEFF 		bl	_lv_obj_get_style_int
 2516              	.LVL363:
 2517              	.LBE230:
 2518              	.LBE229:
 595:lvgl\src\lv_widgets/lv_cont.c ****                                          inv * (act_x + mleft),
 2519              		.loc 1 595 0
 2520 0294 079B     		ldr	r3, [sp, #28]
 2521 0296 4344     		add	r3, r8, r3
 2522 0298 0A9A     		ldr	r2, [sp, #40]
 2523 029a 03FB02F3 		mul	r3, r3, r2
 2524 029e C0EB0900 		rsb	r0, r0, r9
 2525 02a2 02B2     		sxth	r2, r0
 2526 02a4 0092     		str	r2, [sp]
 2527 02a6 1BB2     		sxth	r3, r3
 2528 02a8 099A     		ldr	r2, [sp, #36]
 2529 02aa 0599     		ldr	r1, [sp, #20]
 2530 02ac 2846     		mov	r0, r5
 2531 02ae FFF7FEFF 		bl	lv_obj_align
 2532              	.LVL364:
 2533              	.L160:
 603:lvgl\src\lv_widgets/lv_cont.c ****                 }
 2534              		.loc 1 603 0
 2535 02b2 2846     		mov	r0, r5
 2536 02b4 FFF7FEFF 		bl	lv_obj_get_width
 2537              	.LVL365:
 2538 02b8 3844     		add	r0, r0, r7
 2539 02ba 079B     		ldr	r3, [sp, #28]
 2540 02bc 0344     		add	r3, r3, r0
 2541 02be 089A     		ldr	r2, [sp, #32]
 2542 02c0 1A44     		add	r2, r2, r3
 2543 02c2 9044     		add	r8, r8, r2
 2544              	.LVL366:
 2545 02c4 0FFA88F8 		sxth	r8, r8
 2546              	.LVL367:
 2547              	.L159:
 2548              	.LBE222:
 605:lvgl\src\lv_widgets/lv_cont.c ****                 child_tmp = _lv_ll_get_prev(&cont->child_ll, child_tmp);
 2549              		.loc 1 605 0
 2550 02c8 AC42     		cmp	r4, r5
 2551 02ca 07D0     		beq	.L155
 606:lvgl\src\lv_widgets/lv_cont.c ****             }
 2552              		.loc 1 606 0
ARM GAS  C:\Users\strap\AppData\Local\Temp\cc7wbcEe.s 			page 70


 2553 02cc 2946     		mov	r1, r5
 2554 02ce 0298     		ldr	r0, [sp, #8]
 2555 02d0 FFF7FEFF 		bl	_lv_ll_get_prev
 2556              	.LVL368:
 2557 02d4 0546     		mov	r5, r0
 2558              	.LVL369:
 2559              	.L158:
 578:lvgl\src\lv_widgets/lv_cont.c ****                 if(lv_obj_get_hidden(child_tmp) == false && lv_obj_is_protected(child_tmp, LV_PROTE
 2560              		.loc 1 578 0
 2561 02d6 002D     		cmp	r5, #0
 2562 02d8 7FF47FAF 		bne	.L164
 2563              	.LVL370:
 2564              	.L155:
 2565              	.LBE221:
 610:lvgl\src\lv_widgets/lv_cont.c ****         act_y += pinner + h_row;           /*y increment*/
 2566              		.loc 1 610 0
 2567 02dc 64B1     		cbz	r4, .L165
 611:lvgl\src\lv_widgets/lv_cont.c ****         child_rs = _lv_ll_get_prev(&cont->child_ll, child_rc); /*Go to the next object*/
 2568              		.loc 1 611 0
 2569 02de 5E44     		add	r6, r6, fp
 2570              	.LVL371:
 2571 02e0 039B     		ldr	r3, [sp, #12]
 2572 02e2 1E44     		add	r6, r6, r3
 2573 02e4 33B2     		sxth	r3, r6
 2574 02e6 0393     		str	r3, [sp, #12]
 2575              	.LVL372:
 612:lvgl\src\lv_widgets/lv_cont.c ****         child_rc = child_rs;
 2576              		.loc 1 612 0
 2577 02e8 2146     		mov	r1, r4
 2578 02ea 0298     		ldr	r0, [sp, #8]
 2579 02ec FFF7FEFF 		bl	_lv_ll_get_prev
 2580              	.LVL373:
 2581 02f0 0546     		mov	r5, r0
 2582              	.LVL374:
 2583              	.L148:
 2584              	.LBE204:
 510:lvgl\src\lv_widgets/lv_cont.c ****         lv_coord_t h_row = 0;
 2585              		.loc 1 510 0
 2586 02f2 002D     		cmp	r5, #0
 2587 02f4 7FF4B9AE 		bne	.L166
 2588              	.LVL375:
 2589              	.L165:
 615:lvgl\src\lv_widgets/lv_cont.c **** }
 2590              		.loc 1 615 0
 2591 02f8 0121     		movs	r1, #1
 2592 02fa 0598     		ldr	r0, [sp, #20]
 2593 02fc FFF7FEFF 		bl	lv_obj_clear_protect
 2594              	.LVL376:
 2595              	.L146:
 616:lvgl\src\lv_widgets/lv_cont.c **** 
 2596              		.loc 1 616 0
 2597 0300 0DB0     		add	sp, sp, #52
 2598              		.cfi_def_cfa_offset 36
 2599              		@ sp needed
 2600 0302 BDE8F08F 		pop	{r4, r5, r6, r7, r8, r9, r10, fp, pc}
 2601              		.cfi_endproc
 2602              	.LFE344:
ARM GAS  C:\Users\strap\AppData\Local\Temp\cc7wbcEe.s 			page 71


 2603              		.size	lv_cont_layout_pretty, .-lv_cont_layout_pretty
 2604 0306 00BF     		.section	.text.lv_cont_refr_layout,"ax",%progbits
 2605              		.align	2
 2606              		.thumb
 2607              		.thumb_func
 2608              		.type	lv_cont_refr_layout, %function
 2609              	lv_cont_refr_layout:
 2610              	.LFB340:
 311:lvgl\src\lv_widgets/lv_cont.c ****     if(lv_obj_is_protected(cont, LV_PROTECT_CHILD_CHG)) return;
 2611              		.loc 1 311 0
 2612              		.cfi_startproc
 2613              		@ args = 0, pretend = 0, frame = 0
 2614              		@ frame_needed = 0, uses_anonymous_args = 0
 2615              	.LVL377:
 2616 0000 38B5     		push	{r3, r4, r5, lr}
 2617              		.cfi_def_cfa_offset 16
 2618              		.cfi_offset 3, -16
 2619              		.cfi_offset 4, -12
 2620              		.cfi_offset 5, -8
 2621              		.cfi_offset 14, -4
 2622 0002 0446     		mov	r4, r0
 312:lvgl\src\lv_widgets/lv_cont.c ****     lv_layout_t type = lv_cont_get_layout(cont);
 2623              		.loc 1 312 0
 2624 0004 0121     		movs	r1, #1
 2625 0006 FFF7FEFF 		bl	lv_obj_is_protected
 2626              	.LVL378:
 2627 000a 68BB     		cbnz	r0, .L172
 313:lvgl\src\lv_widgets/lv_cont.c **** 
 2628              		.loc 1 313 0
 2629 000c 2046     		mov	r0, r4
 2630 000e FFF7FEFF 		bl	lv_cont_get_layout
 2631              	.LVL379:
 2632 0012 0546     		mov	r5, r0
 2633              	.LVL380:
 316:lvgl\src\lv_widgets/lv_cont.c **** 
 2634              		.loc 1 316 0
 2635 0014 0021     		movs	r1, #0
 2636 0016 2046     		mov	r0, r4
 2637 0018 FFF7FEFF 		bl	lv_obj_get_child
 2638              	.LVL381:
 2639 001c 20B3     		cbz	r0, .L172
 318:lvgl\src\lv_widgets/lv_cont.c **** 
 2640              		.loc 1 318 0
 2641 001e 1DB3     		cbz	r5, .L172
 320:lvgl\src\lv_widgets/lv_cont.c ****         lv_cont_layout_center(cont);
 2642              		.loc 1 320 0
 2643 0020 012D     		cmp	r5, #1
 2644 0022 03D1     		bne	.L174
 321:lvgl\src\lv_widgets/lv_cont.c ****     }
 2645              		.loc 1 321 0
 2646 0024 2046     		mov	r0, r4
 2647 0026 FFF7FEFF 		bl	lv_cont_layout_center
 2648              	.LVL382:
 2649 002a 38BD     		pop	{r3, r4, r5, pc}
 2650              	.LVL383:
 2651              	.L174:
 323:lvgl\src\lv_widgets/lv_cont.c ****         lv_cont_layout_col(cont);
ARM GAS  C:\Users\strap\AppData\Local\Temp\cc7wbcEe.s 			page 72


 2652              		.loc 1 323 0
 2653 002c AB1E     		subs	r3, r5, #2
 2654 002e DBB2     		uxtb	r3, r3
 2655 0030 022B     		cmp	r3, #2
 2656 0032 03D8     		bhi	.L175
 324:lvgl\src\lv_widgets/lv_cont.c ****     }
 2657              		.loc 1 324 0
 2658 0034 2046     		mov	r0, r4
 2659 0036 FFF7FEFF 		bl	lv_cont_layout_col
 2660              	.LVL384:
 2661 003a 38BD     		pop	{r3, r4, r5, pc}
 2662              	.LVL385:
 2663              	.L175:
 326:lvgl\src\lv_widgets/lv_cont.c ****         lv_cont_layout_row(cont);
 2664              		.loc 1 326 0
 2665 003c 6B1F     		subs	r3, r5, #5
 2666 003e DBB2     		uxtb	r3, r3
 2667 0040 022B     		cmp	r3, #2
 2668 0042 03D8     		bhi	.L176
 327:lvgl\src\lv_widgets/lv_cont.c ****     }
 2669              		.loc 1 327 0
 2670 0044 2046     		mov	r0, r4
 2671 0046 FFF7FEFF 		bl	lv_cont_layout_row
 2672              	.LVL386:
 2673 004a 38BD     		pop	{r3, r4, r5, pc}
 2674              	.LVL387:
 2675              	.L176:
 329:lvgl\src\lv_widgets/lv_cont.c ****         lv_cont_layout_pretty(cont);
 2676              		.loc 1 329 0
 2677 004c A5F10803 		sub	r3, r5, #8
 2678 0050 DBB2     		uxtb	r3, r3
 2679 0052 022B     		cmp	r3, #2
 2680 0054 03D8     		bhi	.L177
 330:lvgl\src\lv_widgets/lv_cont.c ****     }
 2681              		.loc 1 330 0
 2682 0056 2046     		mov	r0, r4
 2683 0058 FFF7FEFF 		bl	lv_cont_layout_pretty
 2684              	.LVL388:
 2685 005c 38BD     		pop	{r3, r4, r5, pc}
 2686              	.LVL389:
 2687              	.L177:
 332:lvgl\src\lv_widgets/lv_cont.c ****         lv_cont_layout_grid(cont);
 2688              		.loc 1 332 0
 2689 005e 0B2D     		cmp	r5, #11
 2690 0060 02D1     		bne	.L172
 333:lvgl\src\lv_widgets/lv_cont.c ****     }
 2691              		.loc 1 333 0
 2692 0062 2046     		mov	r0, r4
 2693 0064 FFF7FEFF 		bl	lv_cont_layout_grid
 2694              	.LVL390:
 2695              	.L172:
 2696 0068 38BD     		pop	{r3, r4, r5, pc}
 2697              		.cfi_endproc
 2698              	.LFE340:
 2699              		.size	lv_cont_refr_layout, .-lv_cont_refr_layout
 2700 006a 00BF     		.section	.text.lv_cont_signal,"ax",%progbits
 2701              		.align	2
ARM GAS  C:\Users\strap\AppData\Local\Temp\cc7wbcEe.s 			page 73


 2702              		.thumb
 2703              		.thumb_func
 2704              		.type	lv_cont_signal, %function
 2705              	lv_cont_signal:
 2706              	.LFB338:
 254:lvgl\src\lv_widgets/lv_cont.c ****     if(sign == LV_SIGNAL_GET_STYLE) {
 2707              		.loc 1 254 0
 2708              		.cfi_startproc
 2709              		@ args = 0, pretend = 0, frame = 0
 2710              		@ frame_needed = 0, uses_anonymous_args = 0
 2711              	.LVL391:
 2712 0000 F8B5     		push	{r3, r4, r5, r6, r7, lr}
 2713              		.cfi_def_cfa_offset 24
 2714              		.cfi_offset 3, -24
 2715              		.cfi_offset 4, -20
 2716              		.cfi_offset 5, -16
 2717              		.cfi_offset 6, -12
 2718              		.cfi_offset 7, -8
 2719              		.cfi_offset 14, -4
 2720 0002 0746     		mov	r7, r0
 2721 0004 0D46     		mov	r5, r1
 2722 0006 1646     		mov	r6, r2
 255:lvgl\src\lv_widgets/lv_cont.c ****         lv_get_style_info_t * info = param;
 2723              		.loc 1 255 0
 2724 0008 0829     		cmp	r1, #8
 2725 000a 0CD1     		bne	.L180
 2726              	.LVL392:
 2727              	.LBB231:
 257:lvgl\src\lv_widgets/lv_cont.c ****         if(info->result != NULL) return LV_RES_OK;
 2728              		.loc 1 257 0
 2729 000c 1178     		ldrb	r1, [r2]	@ zero_extendqisi2
 2730              	.LVL393:
 2731 000e FFF7FEFF 		bl	lv_cont_get_style
 2732              	.LVL394:
 2733 0012 7060     		str	r0, [r6, #4]
 258:lvgl\src\lv_widgets/lv_cont.c ****         else return ancestor_signal(cont, sign, param);
 2734              		.loc 1 258 0
 2735 0014 0028     		cmp	r0, #0
 2736 0016 50D1     		bne	.L187
 259:lvgl\src\lv_widgets/lv_cont.c ****     }
 2737              		.loc 1 259 0
 2738 0018 2B4B     		ldr	r3, .L192
 2739 001a 1B68     		ldr	r3, [r3]
 2740 001c 3246     		mov	r2, r6
 2741 001e 2946     		mov	r1, r5
 2742 0020 3846     		mov	r0, r7
 2743 0022 9847     		blx	r3
 2744              	.LVL395:
 2745 0024 F8BD     		pop	{r3, r4, r5, r6, r7, pc}
 2746              	.LVL396:
 2747              	.L180:
 2748              	.LBE231:
 265:lvgl\src\lv_widgets/lv_cont.c ****     if(res != LV_RES_OK) return res;
 2749              		.loc 1 265 0
 2750 0026 284B     		ldr	r3, .L192
 2751 0028 1B68     		ldr	r3, [r3]
 2752 002a 9847     		blx	r3
ARM GAS  C:\Users\strap\AppData\Local\Temp\cc7wbcEe.s 			page 74


 2753              	.LVL397:
 2754 002c 0446     		mov	r4, r0
 2755              	.LVL398:
 266:lvgl\src\lv_widgets/lv_cont.c ****     if(sign == LV_SIGNAL_GET_TYPE) return lv_obj_handle_get_type_signal(param, LV_OBJX_NAME);
 2756              		.loc 1 266 0
 2757 002e 0128     		cmp	r0, #1
 2758 0030 45D1     		bne	.L188
 267:lvgl\src\lv_widgets/lv_cont.c **** 
 2759              		.loc 1 267 0
 2760 0032 072D     		cmp	r5, #7
 2761 0034 04D1     		bne	.L182
 267:lvgl\src\lv_widgets/lv_cont.c **** 
 2762              		.loc 1 267 0 is_stmt 0 discriminator 1
 2763 0036 2549     		ldr	r1, .L192+4
 2764 0038 3046     		mov	r0, r6
 2765              	.LVL399:
 2766 003a FFF7FEFF 		bl	lv_obj_handle_get_type_signal
 2767              	.LVL400:
 2768 003e F8BD     		pop	{r3, r4, r5, r6, r7, pc}
 2769              	.LVL401:
 2770              	.L182:
 269:lvgl\src\lv_widgets/lv_cont.c ****         lv_cont_refr_layout(cont);
 2771              		.loc 1 269 0 is_stmt 1
 2772 0040 042D     		cmp	r5, #4
 2773 0042 07D1     		bne	.L183
 270:lvgl\src\lv_widgets/lv_cont.c ****         lv_cont_refr_autofit(cont);
 2774              		.loc 1 270 0
 2775 0044 3846     		mov	r0, r7
 2776              	.LVL402:
 2777 0046 FFF7FEFF 		bl	lv_cont_refr_layout
 2778              	.LVL403:
 271:lvgl\src\lv_widgets/lv_cont.c ****     }
 2779              		.loc 1 271 0
 2780 004a 3846     		mov	r0, r7
 2781 004c FFF7FEFF 		bl	lv_cont_refr_autofit
 2782              	.LVL404:
 288:lvgl\src\lv_widgets/lv_cont.c **** }
 2783              		.loc 1 288 0
 2784 0050 2046     		mov	r0, r4
 2785 0052 F8BD     		pop	{r3, r4, r5, r6, r7, pc}
 2786              	.LVL405:
 2787              	.L183:
 273:lvgl\src\lv_widgets/lv_cont.c ****         lv_cont_refr_layout(cont);
 2788              		.loc 1 273 0
 2789 0054 012D     		cmp	r5, #1
 2790 0056 07D1     		bne	.L184
 274:lvgl\src\lv_widgets/lv_cont.c ****         lv_cont_refr_autofit(cont);
 2791              		.loc 1 274 0
 2792 0058 3846     		mov	r0, r7
 2793              	.LVL406:
 2794 005a FFF7FEFF 		bl	lv_cont_refr_layout
 2795              	.LVL407:
 275:lvgl\src\lv_widgets/lv_cont.c ****     }
 2796              		.loc 1 275 0
 2797 005e 3846     		mov	r0, r7
 2798 0060 FFF7FEFF 		bl	lv_cont_refr_autofit
 2799              	.LVL408:
ARM GAS  C:\Users\strap\AppData\Local\Temp\cc7wbcEe.s 			page 75


 288:lvgl\src\lv_widgets/lv_cont.c **** }
 2800              		.loc 1 288 0
 2801 0064 2046     		mov	r0, r4
 2802 0066 F8BD     		pop	{r3, r4, r5, r6, r7, pc}
 2803              	.LVL409:
 2804              	.L184:
 277:lvgl\src\lv_widgets/lv_cont.c ****         if(lv_obj_get_width(cont) != lv_area_get_width(param) || lv_obj_get_height(cont) != lv_area
 2805              		.loc 1 277 0
 2806 0068 022D     		cmp	r5, #2
 2807 006a 1FD1     		bne	.L185
 278:lvgl\src\lv_widgets/lv_cont.c ****             lv_cont_refr_layout(cont);
 2808              		.loc 1 278 0
 2809 006c 3846     		mov	r0, r7
 2810              	.LVL410:
 2811 006e FFF7FEFF 		bl	lv_obj_get_width
 2812              	.LVL411:
 2813              	.LBB232:
 2814              	.LBB233:
 2815              		.file 4 "lvgl\\src\\lv_widgets\\../lv_core/../lv_font/../lv_misc/lv_area.h"
   1:lvgl\src\lv_widgets\../lv_core/../lv_font/../lv_misc/lv_area.h **** /**
   2:lvgl\src\lv_widgets\../lv_core/../lv_font/../lv_misc/lv_area.h ****  * @file lv_area.h
   3:lvgl\src\lv_widgets\../lv_core/../lv_font/../lv_misc/lv_area.h ****  *
   4:lvgl\src\lv_widgets\../lv_core/../lv_font/../lv_misc/lv_area.h ****  */
   5:lvgl\src\lv_widgets\../lv_core/../lv_font/../lv_misc/lv_area.h **** 
   6:lvgl\src\lv_widgets\../lv_core/../lv_font/../lv_misc/lv_area.h **** #ifndef LV_AREA_H
   7:lvgl\src\lv_widgets\../lv_core/../lv_font/../lv_misc/lv_area.h **** #define LV_AREA_H
   8:lvgl\src\lv_widgets\../lv_core/../lv_font/../lv_misc/lv_area.h **** 
   9:lvgl\src\lv_widgets\../lv_core/../lv_font/../lv_misc/lv_area.h **** #ifdef __cplusplus
  10:lvgl\src\lv_widgets\../lv_core/../lv_font/../lv_misc/lv_area.h **** extern "C" {
  11:lvgl\src\lv_widgets\../lv_core/../lv_font/../lv_misc/lv_area.h **** #endif
  12:lvgl\src\lv_widgets\../lv_core/../lv_font/../lv_misc/lv_area.h **** 
  13:lvgl\src\lv_widgets\../lv_core/../lv_font/../lv_misc/lv_area.h **** /*********************
  14:lvgl\src\lv_widgets\../lv_core/../lv_font/../lv_misc/lv_area.h ****  *      INCLUDES
  15:lvgl\src\lv_widgets\../lv_core/../lv_font/../lv_misc/lv_area.h ****  *********************/
  16:lvgl\src\lv_widgets\../lv_core/../lv_font/../lv_misc/lv_area.h **** #include "../lv_conf_internal.h"
  17:lvgl\src\lv_widgets\../lv_core/../lv_font/../lv_misc/lv_area.h **** #include <string.h>
  18:lvgl\src\lv_widgets\../lv_core/../lv_font/../lv_misc/lv_area.h **** #include <stdbool.h>
  19:lvgl\src\lv_widgets\../lv_core/../lv_font/../lv_misc/lv_area.h **** #include <stdint.h>
  20:lvgl\src\lv_widgets\../lv_core/../lv_font/../lv_misc/lv_area.h **** #include "lv_mem.h"
  21:lvgl\src\lv_widgets\../lv_core/../lv_font/../lv_misc/lv_area.h **** 
  22:lvgl\src\lv_widgets\../lv_core/../lv_font/../lv_misc/lv_area.h **** /*********************
  23:lvgl\src\lv_widgets\../lv_core/../lv_font/../lv_misc/lv_area.h ****  *      DEFINES
  24:lvgl\src\lv_widgets\../lv_core/../lv_font/../lv_misc/lv_area.h ****  *********************/
  25:lvgl\src\lv_widgets\../lv_core/../lv_font/../lv_misc/lv_area.h **** /*To avoid overflow don't let the max ranges (reduce with 1000) */
  26:lvgl\src\lv_widgets\../lv_core/../lv_font/../lv_misc/lv_area.h **** #define LV_COORD_MAX ((lv_coord_t)((uint32_t)((uint32_t)1 << (8 * sizeof(lv_coord_t) - 1)) - 1000))
  27:lvgl\src\lv_widgets\../lv_core/../lv_font/../lv_misc/lv_area.h **** #define LV_COORD_MIN (-LV_COORD_MAX)
  28:lvgl\src\lv_widgets\../lv_core/../lv_font/../lv_misc/lv_area.h **** 
  29:lvgl\src\lv_widgets\../lv_core/../lv_font/../lv_misc/lv_area.h **** LV_EXPORT_CONST_INT(LV_COORD_MAX);
  30:lvgl\src\lv_widgets\../lv_core/../lv_font/../lv_misc/lv_area.h **** LV_EXPORT_CONST_INT(LV_COORD_MIN);
  31:lvgl\src\lv_widgets\../lv_core/../lv_font/../lv_misc/lv_area.h **** 
  32:lvgl\src\lv_widgets\../lv_core/../lv_font/../lv_misc/lv_area.h **** /**********************
  33:lvgl\src\lv_widgets\../lv_core/../lv_font/../lv_misc/lv_area.h ****  *      TYPEDEFS
  34:lvgl\src\lv_widgets\../lv_core/../lv_font/../lv_misc/lv_area.h ****  **********************/
  35:lvgl\src\lv_widgets\../lv_core/../lv_font/../lv_misc/lv_area.h **** 
  36:lvgl\src\lv_widgets\../lv_core/../lv_font/../lv_misc/lv_area.h **** /**
  37:lvgl\src\lv_widgets\../lv_core/../lv_font/../lv_misc/lv_area.h ****  * Represents a point on the screen.
  38:lvgl\src\lv_widgets\../lv_core/../lv_font/../lv_misc/lv_area.h ****  */
ARM GAS  C:\Users\strap\AppData\Local\Temp\cc7wbcEe.s 			page 76


  39:lvgl\src\lv_widgets\../lv_core/../lv_font/../lv_misc/lv_area.h **** typedef struct {
  40:lvgl\src\lv_widgets\../lv_core/../lv_font/../lv_misc/lv_area.h ****     lv_coord_t x;
  41:lvgl\src\lv_widgets\../lv_core/../lv_font/../lv_misc/lv_area.h ****     lv_coord_t y;
  42:lvgl\src\lv_widgets\../lv_core/../lv_font/../lv_misc/lv_area.h **** } lv_point_t;
  43:lvgl\src\lv_widgets\../lv_core/../lv_font/../lv_misc/lv_area.h **** 
  44:lvgl\src\lv_widgets\../lv_core/../lv_font/../lv_misc/lv_area.h **** /** Represents an area of the screen. */
  45:lvgl\src\lv_widgets\../lv_core/../lv_font/../lv_misc/lv_area.h **** typedef struct {
  46:lvgl\src\lv_widgets\../lv_core/../lv_font/../lv_misc/lv_area.h ****     lv_coord_t x1;
  47:lvgl\src\lv_widgets\../lv_core/../lv_font/../lv_misc/lv_area.h ****     lv_coord_t y1;
  48:lvgl\src\lv_widgets\../lv_core/../lv_font/../lv_misc/lv_area.h ****     lv_coord_t x2;
  49:lvgl\src\lv_widgets\../lv_core/../lv_font/../lv_misc/lv_area.h ****     lv_coord_t y2;
  50:lvgl\src\lv_widgets\../lv_core/../lv_font/../lv_misc/lv_area.h **** } lv_area_t;
  51:lvgl\src\lv_widgets\../lv_core/../lv_font/../lv_misc/lv_area.h **** 
  52:lvgl\src\lv_widgets\../lv_core/../lv_font/../lv_misc/lv_area.h **** 
  53:lvgl\src\lv_widgets\../lv_core/../lv_font/../lv_misc/lv_area.h **** 
  54:lvgl\src\lv_widgets\../lv_core/../lv_font/../lv_misc/lv_area.h **** /** Alignments */
  55:lvgl\src\lv_widgets\../lv_core/../lv_font/../lv_misc/lv_area.h **** enum {
  56:lvgl\src\lv_widgets\../lv_core/../lv_font/../lv_misc/lv_area.h ****     LV_ALIGN_CENTER = 0,
  57:lvgl\src\lv_widgets\../lv_core/../lv_font/../lv_misc/lv_area.h ****     LV_ALIGN_IN_TOP_LEFT,
  58:lvgl\src\lv_widgets\../lv_core/../lv_font/../lv_misc/lv_area.h ****     LV_ALIGN_IN_TOP_MID,
  59:lvgl\src\lv_widgets\../lv_core/../lv_font/../lv_misc/lv_area.h ****     LV_ALIGN_IN_TOP_RIGHT,
  60:lvgl\src\lv_widgets\../lv_core/../lv_font/../lv_misc/lv_area.h ****     LV_ALIGN_IN_BOTTOM_LEFT,
  61:lvgl\src\lv_widgets\../lv_core/../lv_font/../lv_misc/lv_area.h ****     LV_ALIGN_IN_BOTTOM_MID,
  62:lvgl\src\lv_widgets\../lv_core/../lv_font/../lv_misc/lv_area.h ****     LV_ALIGN_IN_BOTTOM_RIGHT,
  63:lvgl\src\lv_widgets\../lv_core/../lv_font/../lv_misc/lv_area.h ****     LV_ALIGN_IN_LEFT_MID,
  64:lvgl\src\lv_widgets\../lv_core/../lv_font/../lv_misc/lv_area.h ****     LV_ALIGN_IN_RIGHT_MID,
  65:lvgl\src\lv_widgets\../lv_core/../lv_font/../lv_misc/lv_area.h ****     LV_ALIGN_OUT_TOP_LEFT,
  66:lvgl\src\lv_widgets\../lv_core/../lv_font/../lv_misc/lv_area.h ****     LV_ALIGN_OUT_TOP_MID,
  67:lvgl\src\lv_widgets\../lv_core/../lv_font/../lv_misc/lv_area.h ****     LV_ALIGN_OUT_TOP_RIGHT,
  68:lvgl\src\lv_widgets\../lv_core/../lv_font/../lv_misc/lv_area.h ****     LV_ALIGN_OUT_BOTTOM_LEFT,
  69:lvgl\src\lv_widgets\../lv_core/../lv_font/../lv_misc/lv_area.h ****     LV_ALIGN_OUT_BOTTOM_MID,
  70:lvgl\src\lv_widgets\../lv_core/../lv_font/../lv_misc/lv_area.h ****     LV_ALIGN_OUT_BOTTOM_RIGHT,
  71:lvgl\src\lv_widgets\../lv_core/../lv_font/../lv_misc/lv_area.h ****     LV_ALIGN_OUT_LEFT_TOP,
  72:lvgl\src\lv_widgets\../lv_core/../lv_font/../lv_misc/lv_area.h ****     LV_ALIGN_OUT_LEFT_MID,
  73:lvgl\src\lv_widgets\../lv_core/../lv_font/../lv_misc/lv_area.h ****     LV_ALIGN_OUT_LEFT_BOTTOM,
  74:lvgl\src\lv_widgets\../lv_core/../lv_font/../lv_misc/lv_area.h ****     LV_ALIGN_OUT_RIGHT_TOP,
  75:lvgl\src\lv_widgets\../lv_core/../lv_font/../lv_misc/lv_area.h ****     LV_ALIGN_OUT_RIGHT_MID,
  76:lvgl\src\lv_widgets\../lv_core/../lv_font/../lv_misc/lv_area.h ****     LV_ALIGN_OUT_RIGHT_BOTTOM,
  77:lvgl\src\lv_widgets\../lv_core/../lv_font/../lv_misc/lv_area.h **** };
  78:lvgl\src\lv_widgets\../lv_core/../lv_font/../lv_misc/lv_area.h **** typedef uint8_t lv_align_t;
  79:lvgl\src\lv_widgets\../lv_core/../lv_font/../lv_misc/lv_area.h **** 
  80:lvgl\src\lv_widgets\../lv_core/../lv_font/../lv_misc/lv_area.h **** 
  81:lvgl\src\lv_widgets\../lv_core/../lv_font/../lv_misc/lv_area.h **** /**********************
  82:lvgl\src\lv_widgets\../lv_core/../lv_font/../lv_misc/lv_area.h ****  * GLOBAL PROTOTYPES
  83:lvgl\src\lv_widgets\../lv_core/../lv_font/../lv_misc/lv_area.h ****  **********************/
  84:lvgl\src\lv_widgets\../lv_core/../lv_font/../lv_misc/lv_area.h **** 
  85:lvgl\src\lv_widgets\../lv_core/../lv_font/../lv_misc/lv_area.h **** /**
  86:lvgl\src\lv_widgets\../lv_core/../lv_font/../lv_misc/lv_area.h ****  * Initialize an area
  87:lvgl\src\lv_widgets\../lv_core/../lv_font/../lv_misc/lv_area.h ****  * @param area_p pointer to an area
  88:lvgl\src\lv_widgets\../lv_core/../lv_font/../lv_misc/lv_area.h ****  * @param x1 left coordinate of the area
  89:lvgl\src\lv_widgets\../lv_core/../lv_font/../lv_misc/lv_area.h ****  * @param y1 top coordinate of the area
  90:lvgl\src\lv_widgets\../lv_core/../lv_font/../lv_misc/lv_area.h ****  * @param x2 right coordinate of the area
  91:lvgl\src\lv_widgets\../lv_core/../lv_font/../lv_misc/lv_area.h ****  * @param y2 bottom coordinate of the area
  92:lvgl\src\lv_widgets\../lv_core/../lv_font/../lv_misc/lv_area.h ****  */
  93:lvgl\src\lv_widgets\../lv_core/../lv_font/../lv_misc/lv_area.h **** void lv_area_set(lv_area_t * area_p, lv_coord_t x1, lv_coord_t y1, lv_coord_t x2, lv_coord_t y2);
  94:lvgl\src\lv_widgets\../lv_core/../lv_font/../lv_misc/lv_area.h **** 
  95:lvgl\src\lv_widgets\../lv_core/../lv_font/../lv_misc/lv_area.h **** /**
ARM GAS  C:\Users\strap\AppData\Local\Temp\cc7wbcEe.s 			page 77


  96:lvgl\src\lv_widgets\../lv_core/../lv_font/../lv_misc/lv_area.h ****  * Copy an area
  97:lvgl\src\lv_widgets\../lv_core/../lv_font/../lv_misc/lv_area.h ****  * @param dest pointer to the destination area
  98:lvgl\src\lv_widgets\../lv_core/../lv_font/../lv_misc/lv_area.h ****  * @param src pointer to the source area
  99:lvgl\src\lv_widgets\../lv_core/../lv_font/../lv_misc/lv_area.h ****  */
 100:lvgl\src\lv_widgets\../lv_core/../lv_font/../lv_misc/lv_area.h **** inline static void lv_area_copy(lv_area_t * dest, const lv_area_t * src)
 101:lvgl\src\lv_widgets\../lv_core/../lv_font/../lv_misc/lv_area.h **** {
 102:lvgl\src\lv_widgets\../lv_core/../lv_font/../lv_misc/lv_area.h ****     _lv_memcpy_small(dest, src, sizeof(lv_area_t));
 103:lvgl\src\lv_widgets\../lv_core/../lv_font/../lv_misc/lv_area.h **** }
 104:lvgl\src\lv_widgets\../lv_core/../lv_font/../lv_misc/lv_area.h **** 
 105:lvgl\src\lv_widgets\../lv_core/../lv_font/../lv_misc/lv_area.h **** /**
 106:lvgl\src\lv_widgets\../lv_core/../lv_font/../lv_misc/lv_area.h ****  * Get the width of an area
 107:lvgl\src\lv_widgets\../lv_core/../lv_font/../lv_misc/lv_area.h ****  * @param area_p pointer to an area
 108:lvgl\src\lv_widgets\../lv_core/../lv_font/../lv_misc/lv_area.h ****  * @return the width of the area (if x1 == x2 -> width = 1)
 109:lvgl\src\lv_widgets\../lv_core/../lv_font/../lv_misc/lv_area.h ****  */
 110:lvgl\src\lv_widgets\../lv_core/../lv_font/../lv_misc/lv_area.h **** static inline lv_coord_t lv_area_get_width(const lv_area_t * area_p)
 111:lvgl\src\lv_widgets\../lv_core/../lv_font/../lv_misc/lv_area.h **** {
 112:lvgl\src\lv_widgets\../lv_core/../lv_font/../lv_misc/lv_area.h ****     return (lv_coord_t)(area_p->x2 - area_p->x1 + 1);
 2816              		.loc 4 112 0
 2817 0072 B6F90430 		ldrsh	r3, [r6, #4]
 2818 0076 B6F90020 		ldrsh	r2, [r6]
 2819 007a 9B1A     		subs	r3, r3, r2
 2820 007c 0133     		adds	r3, r3, #1
 2821 007e 1BB2     		sxth	r3, r3
 2822              	.LVL412:
 2823              	.LBE233:
 2824              	.LBE232:
 278:lvgl\src\lv_widgets/lv_cont.c ****             lv_cont_refr_layout(cont);
 2825              		.loc 1 278 0
 2826 0080 9842     		cmp	r0, r3
 2827 0082 0BD1     		bne	.L186
 278:lvgl\src\lv_widgets/lv_cont.c ****             lv_cont_refr_layout(cont);
 2828              		.loc 1 278 0 is_stmt 0 discriminator 1
 2829 0084 3846     		mov	r0, r7
 2830 0086 FFF7FEFF 		bl	lv_obj_get_height
 2831              	.LVL413:
 2832              	.LBB234:
 2833              	.LBB235:
 113:lvgl\src\lv_widgets\../lv_core/../lv_font/../lv_misc/lv_area.h **** }
 114:lvgl\src\lv_widgets\../lv_core/../lv_font/../lv_misc/lv_area.h **** 
 115:lvgl\src\lv_widgets\../lv_core/../lv_font/../lv_misc/lv_area.h **** /**
 116:lvgl\src\lv_widgets\../lv_core/../lv_font/../lv_misc/lv_area.h ****  * Get the height of an area
 117:lvgl\src\lv_widgets\../lv_core/../lv_font/../lv_misc/lv_area.h ****  * @param area_p pointer to an area
 118:lvgl\src\lv_widgets\../lv_core/../lv_font/../lv_misc/lv_area.h ****  * @return the height of the area (if y1 == y2 -> height = 1)
 119:lvgl\src\lv_widgets\../lv_core/../lv_font/../lv_misc/lv_area.h ****  */
 120:lvgl\src\lv_widgets\../lv_core/../lv_font/../lv_misc/lv_area.h **** static inline lv_coord_t lv_area_get_height(const lv_area_t * area_p)
 121:lvgl\src\lv_widgets\../lv_core/../lv_font/../lv_misc/lv_area.h **** {
 122:lvgl\src\lv_widgets\../lv_core/../lv_font/../lv_misc/lv_area.h ****     return (lv_coord_t)(area_p->y2 - area_p->y1 + 1);
 2834              		.loc 4 122 0 is_stmt 1 discriminator 1
 2835 008a B6F90630 		ldrsh	r3, [r6, #6]
 2836 008e B6F90220 		ldrsh	r2, [r6, #2]
 2837 0092 9B1A     		subs	r3, r3, r2
 2838 0094 0133     		adds	r3, r3, #1
 2839 0096 1BB2     		sxth	r3, r3
 2840              	.LVL414:
 2841              	.LBE235:
 2842              	.LBE234:
 278:lvgl\src\lv_widgets/lv_cont.c ****             lv_cont_refr_layout(cont);
ARM GAS  C:\Users\strap\AppData\Local\Temp\cc7wbcEe.s 			page 78


 2843              		.loc 1 278 0 discriminator 1
 2844 0098 9842     		cmp	r0, r3
 2845 009a 11D0     		beq	.L189
 2846              	.L186:
 279:lvgl\src\lv_widgets/lv_cont.c ****             lv_cont_refr_autofit(cont);
 2847              		.loc 1 279 0
 2848 009c 3846     		mov	r0, r7
 2849 009e FFF7FEFF 		bl	lv_cont_refr_layout
 2850              	.LVL415:
 280:lvgl\src\lv_widgets/lv_cont.c ****         }
 2851              		.loc 1 280 0
 2852 00a2 3846     		mov	r0, r7
 2853 00a4 FFF7FEFF 		bl	lv_cont_refr_autofit
 2854              	.LVL416:
 288:lvgl\src\lv_widgets/lv_cont.c **** }
 2855              		.loc 1 288 0
 2856 00a8 2046     		mov	r0, r4
 2857 00aa F8BD     		pop	{r3, r4, r5, r6, r7, pc}
 2858              	.LVL417:
 2859              	.L185:
 283:lvgl\src\lv_widgets/lv_cont.c ****         /*MAX and EDGE fit needs to be refreshed if the parent's size has changed*/
 2860              		.loc 1 283 0
 2861 00ac 032D     		cmp	r5, #3
 2862 00ae 09D1     		bne	.L190
 285:lvgl\src\lv_widgets/lv_cont.c ****     }
 2863              		.loc 1 285 0
 2864 00b0 3846     		mov	r0, r7
 2865              	.LVL418:
 2866 00b2 FFF7FEFF 		bl	lv_cont_refr_autofit
 2867              	.LVL419:
 288:lvgl\src\lv_widgets/lv_cont.c **** }
 2868              		.loc 1 288 0
 2869 00b6 2046     		mov	r0, r4
 2870 00b8 F8BD     		pop	{r3, r4, r5, r6, r7, pc}
 2871              	.LVL420:
 2872              	.L187:
 2873              	.LBB236:
 258:lvgl\src\lv_widgets/lv_cont.c ****         else return ancestor_signal(cont, sign, param);
 2874              		.loc 1 258 0
 2875 00ba 0120     		movs	r0, #1
 2876 00bc F8BD     		pop	{r3, r4, r5, r6, r7, pc}
 2877              	.LVL421:
 2878              	.L188:
 2879 00be F8BD     		pop	{r3, r4, r5, r6, r7, pc}
 2880              	.LVL422:
 2881              	.L189:
 2882              	.LBE236:
 288:lvgl\src\lv_widgets/lv_cont.c **** }
 2883              		.loc 1 288 0
 2884 00c0 2046     		mov	r0, r4
 2885 00c2 F8BD     		pop	{r3, r4, r5, r6, r7, pc}
 2886              	.LVL423:
 2887              	.L190:
 289:lvgl\src\lv_widgets/lv_cont.c **** 
 2888              		.loc 1 289 0
 2889 00c4 F8BD     		pop	{r3, r4, r5, r6, r7, pc}
 2890              	.LVL424:
ARM GAS  C:\Users\strap\AppData\Local\Temp\cc7wbcEe.s 			page 79


 2891              	.L193:
 2892 00c6 00BF     		.align	2
 2893              	.L192:
 2894 00c8 00000000 		.word	.LANCHOR0
 2895 00cc 20000000 		.word	.LC2
 2896              		.cfi_endproc
 2897              	.LFE338:
 2898              		.size	lv_cont_signal, .-lv_cont_signal
 2899              		.section	.text.lv_cont_get_fit_left,"ax",%progbits
 2900              		.align	2
 2901              		.global	lv_cont_get_fit_left
 2902              		.thumb
 2903              		.thumb_func
 2904              		.type	lv_cont_get_fit_left, %function
 2905              	lv_cont_get_fit_left:
 2906              	.LFB334:
 196:lvgl\src\lv_widgets/lv_cont.c ****     LV_ASSERT_OBJ(cont, LV_OBJX_NAME);
 2907              		.loc 1 196 0
 2908              		.cfi_startproc
 2909              		@ args = 0, pretend = 0, frame = 0
 2910              		@ frame_needed = 0, uses_anonymous_args = 0
 2911              	.LVL425:
 2912 0000 10B5     		push	{r4, lr}
 2913              		.cfi_def_cfa_offset 8
 2914              		.cfi_offset 4, -8
 2915              		.cfi_offset 14, -4
 2916 0002 0446     		mov	r4, r0
 197:lvgl\src\lv_widgets/lv_cont.c **** 
 2917              		.loc 1 197 0
 2918 0004 FFF7FEFF 		bl	lv_debug_check_null
 2919              	.LVL426:
 2920 0008 28B9     		cbnz	r0, .L195
 197:lvgl\src\lv_widgets/lv_cont.c **** 
 2921              		.loc 1 197 0 is_stmt 0 discriminator 1
 2922 000a 2246     		mov	r2, r4
 2923 000c 0023     		movs	r3, #0
 2924 000e 0548     		ldr	r0, .L198
 2925 0010 FFF7FEFF 		bl	lv_debug_log_error
 2926              	.LVL427:
 2927              	.L196:
 2928 0014 FEE7     		b	.L196
 2929              	.L195:
 199:lvgl\src\lv_widgets/lv_cont.c ****     return ext->fit_left;
 2930              		.loc 1 199 0 is_stmt 1
 2931 0016 2046     		mov	r0, r4
 2932 0018 FFF7FEFF 		bl	lv_obj_get_ext_attr
 2933              	.LVL428:
 200:lvgl\src\lv_widgets/lv_cont.c **** }
 2934              		.loc 1 200 0
 2935 001c 0078     		ldrb	r0, [r0]	@ zero_extendqisi2
 2936              	.LVL429:
 201:lvgl\src\lv_widgets/lv_cont.c **** 
 2937              		.loc 1 201 0
 2938 001e C0F30110 		ubfx	r0, r0, #4, #2
 2939 0022 10BD     		pop	{r4, pc}
 2940              	.LVL430:
 2941              	.L199:
ARM GAS  C:\Users\strap\AppData\Local\Temp\cc7wbcEe.s 			page 80


 2942              		.align	2
 2943              	.L198:
 2944 0024 10000000 		.word	.LC1
 2945              		.cfi_endproc
 2946              	.LFE334:
 2947              		.size	lv_cont_get_fit_left, .-lv_cont_get_fit_left
 2948              		.section	.text.lv_cont_get_fit_right,"ax",%progbits
 2949              		.align	2
 2950              		.global	lv_cont_get_fit_right
 2951              		.thumb
 2952              		.thumb_func
 2953              		.type	lv_cont_get_fit_right, %function
 2954              	lv_cont_get_fit_right:
 2955              	.LFB335:
 209:lvgl\src\lv_widgets/lv_cont.c ****     LV_ASSERT_OBJ(cont, LV_OBJX_NAME);
 2956              		.loc 1 209 0
 2957              		.cfi_startproc
 2958              		@ args = 0, pretend = 0, frame = 0
 2959              		@ frame_needed = 0, uses_anonymous_args = 0
 2960              	.LVL431:
 2961 0000 10B5     		push	{r4, lr}
 2962              		.cfi_def_cfa_offset 8
 2963              		.cfi_offset 4, -8
 2964              		.cfi_offset 14, -4
 2965 0002 0446     		mov	r4, r0
 210:lvgl\src\lv_widgets/lv_cont.c **** 
 2966              		.loc 1 210 0
 2967 0004 FFF7FEFF 		bl	lv_debug_check_null
 2968              	.LVL432:
 2969 0008 28B9     		cbnz	r0, .L201
 210:lvgl\src\lv_widgets/lv_cont.c **** 
 2970              		.loc 1 210 0 is_stmt 0 discriminator 1
 2971 000a 2246     		mov	r2, r4
 2972 000c 0023     		movs	r3, #0
 2973 000e 0548     		ldr	r0, .L204
 2974 0010 FFF7FEFF 		bl	lv_debug_log_error
 2975              	.LVL433:
 2976              	.L202:
 2977 0014 FEE7     		b	.L202
 2978              	.L201:
 212:lvgl\src\lv_widgets/lv_cont.c ****     return ext->fit_right;
 2979              		.loc 1 212 0 is_stmt 1
 2980 0016 2046     		mov	r0, r4
 2981 0018 FFF7FEFF 		bl	lv_obj_get_ext_attr
 2982              	.LVL434:
 213:lvgl\src\lv_widgets/lv_cont.c **** }
 2983              		.loc 1 213 0
 2984 001c 0078     		ldrb	r0, [r0]	@ zero_extendqisi2
 2985              	.LVL435:
 214:lvgl\src\lv_widgets/lv_cont.c **** 
 2986              		.loc 1 214 0
 2987 001e 8009     		lsrs	r0, r0, #6
 2988 0020 10BD     		pop	{r4, pc}
 2989              	.LVL436:
 2990              	.L205:
 2991 0022 00BF     		.align	2
 2992              	.L204:
ARM GAS  C:\Users\strap\AppData\Local\Temp\cc7wbcEe.s 			page 81


 2993 0024 10000000 		.word	.LC1
 2994              		.cfi_endproc
 2995              	.LFE335:
 2996              		.size	lv_cont_get_fit_right, .-lv_cont_get_fit_right
 2997              		.section	.text.lv_cont_get_fit_top,"ax",%progbits
 2998              		.align	2
 2999              		.global	lv_cont_get_fit_top
 3000              		.thumb
 3001              		.thumb_func
 3002              		.type	lv_cont_get_fit_top, %function
 3003              	lv_cont_get_fit_top:
 3004              	.LFB336:
 222:lvgl\src\lv_widgets/lv_cont.c ****     LV_ASSERT_OBJ(cont, LV_OBJX_NAME);
 3005              		.loc 1 222 0
 3006              		.cfi_startproc
 3007              		@ args = 0, pretend = 0, frame = 0
 3008              		@ frame_needed = 0, uses_anonymous_args = 0
 3009              	.LVL437:
 3010 0000 10B5     		push	{r4, lr}
 3011              		.cfi_def_cfa_offset 8
 3012              		.cfi_offset 4, -8
 3013              		.cfi_offset 14, -4
 3014 0002 0446     		mov	r4, r0
 223:lvgl\src\lv_widgets/lv_cont.c **** 
 3015              		.loc 1 223 0
 3016 0004 FFF7FEFF 		bl	lv_debug_check_null
 3017              	.LVL438:
 3018 0008 28B9     		cbnz	r0, .L207
 223:lvgl\src\lv_widgets/lv_cont.c **** 
 3019              		.loc 1 223 0 is_stmt 0 discriminator 1
 3020 000a 2246     		mov	r2, r4
 3021 000c 0023     		movs	r3, #0
 3022 000e 0548     		ldr	r0, .L210
 3023 0010 FFF7FEFF 		bl	lv_debug_log_error
 3024              	.LVL439:
 3025              	.L208:
 3026 0014 FEE7     		b	.L208
 3027              	.L207:
 225:lvgl\src\lv_widgets/lv_cont.c ****     return ext->fit_top;
 3028              		.loc 1 225 0 is_stmt 1
 3029 0016 2046     		mov	r0, r4
 3030 0018 FFF7FEFF 		bl	lv_obj_get_ext_attr
 3031              	.LVL440:
 226:lvgl\src\lv_widgets/lv_cont.c **** }
 3032              		.loc 1 226 0
 3033 001c 4078     		ldrb	r0, [r0, #1]	@ zero_extendqisi2
 3034              	.LVL441:
 227:lvgl\src\lv_widgets/lv_cont.c **** 
 3035              		.loc 1 227 0
 3036 001e 00F00300 		and	r0, r0, #3
 3037 0022 10BD     		pop	{r4, pc}
 3038              	.LVL442:
 3039              	.L211:
 3040              		.align	2
 3041              	.L210:
 3042 0024 10000000 		.word	.LC1
 3043              		.cfi_endproc
ARM GAS  C:\Users\strap\AppData\Local\Temp\cc7wbcEe.s 			page 82


 3044              	.LFE336:
 3045              		.size	lv_cont_get_fit_top, .-lv_cont_get_fit_top
 3046              		.section	.text.lv_cont_get_fit_bottom,"ax",%progbits
 3047              		.align	2
 3048              		.global	lv_cont_get_fit_bottom
 3049              		.thumb
 3050              		.thumb_func
 3051              		.type	lv_cont_get_fit_bottom, %function
 3052              	lv_cont_get_fit_bottom:
 3053              	.LFB337:
 235:lvgl\src\lv_widgets/lv_cont.c ****     LV_ASSERT_OBJ(cont, LV_OBJX_NAME);
 3054              		.loc 1 235 0
 3055              		.cfi_startproc
 3056              		@ args = 0, pretend = 0, frame = 0
 3057              		@ frame_needed = 0, uses_anonymous_args = 0
 3058              	.LVL443:
 3059 0000 10B5     		push	{r4, lr}
 3060              		.cfi_def_cfa_offset 8
 3061              		.cfi_offset 4, -8
 3062              		.cfi_offset 14, -4
 3063 0002 0446     		mov	r4, r0
 236:lvgl\src\lv_widgets/lv_cont.c **** 
 3064              		.loc 1 236 0
 3065 0004 FFF7FEFF 		bl	lv_debug_check_null
 3066              	.LVL444:
 3067 0008 28B9     		cbnz	r0, .L213
 236:lvgl\src\lv_widgets/lv_cont.c **** 
 3068              		.loc 1 236 0 is_stmt 0 discriminator 1
 3069 000a 2246     		mov	r2, r4
 3070 000c 0023     		movs	r3, #0
 3071 000e 0548     		ldr	r0, .L216
 3072 0010 FFF7FEFF 		bl	lv_debug_log_error
 3073              	.LVL445:
 3074              	.L214:
 3075 0014 FEE7     		b	.L214
 3076              	.L213:
 238:lvgl\src\lv_widgets/lv_cont.c ****     return ext->fit_bottom;
 3077              		.loc 1 238 0 is_stmt 1
 3078 0016 2046     		mov	r0, r4
 3079 0018 FFF7FEFF 		bl	lv_obj_get_ext_attr
 3080              	.LVL446:
 239:lvgl\src\lv_widgets/lv_cont.c **** }
 3081              		.loc 1 239 0
 3082 001c 4078     		ldrb	r0, [r0, #1]	@ zero_extendqisi2
 3083              	.LVL447:
 240:lvgl\src\lv_widgets/lv_cont.c **** 
 3084              		.loc 1 240 0
 3085 001e C0F38100 		ubfx	r0, r0, #2, #2
 3086 0022 10BD     		pop	{r4, pc}
 3087              	.LVL448:
 3088              	.L217:
 3089              		.align	2
 3090              	.L216:
 3091 0024 10000000 		.word	.LC1
 3092              		.cfi_endproc
 3093              	.LFE337:
 3094              		.size	lv_cont_get_fit_bottom, .-lv_cont_get_fit_bottom
ARM GAS  C:\Users\strap\AppData\Local\Temp\cc7wbcEe.s 			page 83


 3095              		.section	.rodata.str1.4,"aMS",%progbits,1
 3096              		.align	2
 3097              	.LC0:
 3098 0000 4F757420 		.ascii	"Out of memory\000"
 3098      6F66206D 
 3098      656D6F72 
 3098      7900
 3099 000e 0000     		.space	2
 3100              	.LC1:
 3101 0010 4E554C4C 		.ascii	"NULL pointer\000"
 3101      20706F69 
 3101      6E746572 
 3101      00
 3102 001d 000000   		.space	3
 3103              	.LC2:
 3104 0020 6C765F63 		.ascii	"lv_cont\000"
 3104      6F6E7400 
 3105              		.bss
 3106              		.align	2
 3107              		.set	.LANCHOR0,. + 0
 3108              		.type	ancestor_signal, %object
 3109              		.size	ancestor_signal, 4
 3110              	ancestor_signal:
 3111 0000 00000000 		.space	4
 3112              		.type	ancestor_design, %object
 3113              		.size	ancestor_design, 4
 3114              	ancestor_design:
 3115 0004 00000000 		.space	4
 3116              		.text
 3117              	.Letext0:
 3118              		.file 5 "c:\\program files (x86)\\cypress\\psoc creator\\4.4\\psoc creator\\import\\gnu\\arm\\5.4.
 3119              		.file 6 "c:\\program files (x86)\\cypress\\psoc creator\\4.4\\psoc creator\\import\\gnu\\arm\\5.4.
 3120              		.file 7 "lvgl\\src\\lv_widgets\\../../../lv_conf.h"
 3121              		.file 8 "c:\\program files (x86)\\cypress\\psoc creator\\4.4\\psoc creator\\import\\gnu\\arm\\5.4.
 3122              		.file 9 "lvgl\\src\\lv_widgets\\../lv_core/../lv_font/../lv_misc/lv_types.h"
 3123              		.file 10 "lvgl\\src\\lv_widgets\\../lv_core/lv_style.h"
 3124              		.file 11 "lvgl\\src\\lv_widgets\\../lv_core/../lv_hal/../lv_misc/lv_ll.h"
 3125              		.file 12 "lvgl\\src\\lv_widgets\\../lv_core/lv_obj.h"
 3126              		.file 13 "lvgl\\src\\lv_widgets\\../lv_core/../lv_hal/lv_hal_indev.h"
 3127              		.file 14 "lvgl\\src\\lv_widgets\\../lv_core/../lv_draw/../lv_misc/lv_bidi.h"
 3128              		.file 15 "lvgl\\src\\lv_widgets\\lv_cont.h"
 3129              		.file 16 "lvgl\\src\\lv_widgets\\../lv_themes/lv_theme.h"
 3130              		.file 17 "lvgl\\src\\lv_widgets\\../lv_core/../lv_misc/lv_debug.h"
 3131              		.section	.debug_info,"",%progbits
 3132              	.Ldebug_info0:
 3133 0000 44320000 		.4byte	0x3244
 3134 0004 0400     		.2byte	0x4
 3135 0006 00000000 		.4byte	.Ldebug_abbrev0
 3136 000a 04       		.byte	0x4
 3137 000b 01       		.uleb128 0x1
 3138 000c 23050000 		.4byte	.LASF432
 3139 0010 0C       		.byte	0xc
 3140 0011 300B0000 		.4byte	.LASF433
 3141 0015 E8010000 		.4byte	.LASF434
 3142 0019 48000000 		.4byte	.Ldebug_ranges0+0x48
 3143 001d 00000000 		.4byte	0
 3144 0021 00000000 		.4byte	.Ldebug_line0
ARM GAS  C:\Users\strap\AppData\Local\Temp\cc7wbcEe.s 			page 84


 3145 0025 02       		.uleb128 0x2
 3146 0026 01       		.byte	0x1
 3147 0027 06       		.byte	0x6
 3148 0028 2B070000 		.4byte	.LASF0
 3149 002c 03       		.uleb128 0x3
 3150 002d AB030000 		.4byte	.LASF2
 3151 0031 05       		.byte	0x5
 3152 0032 1D       		.byte	0x1d
 3153 0033 37000000 		.4byte	0x37
 3154 0037 02       		.uleb128 0x2
 3155 0038 01       		.byte	0x1
 3156 0039 08       		.byte	0x8
 3157 003a B2070000 		.4byte	.LASF1
 3158 003e 03       		.uleb128 0x3
 3159 003f 75160000 		.4byte	.LASF3
 3160 0043 05       		.byte	0x5
 3161 0044 29       		.byte	0x29
 3162 0045 49000000 		.4byte	0x49
 3163 0049 02       		.uleb128 0x2
 3164 004a 02       		.byte	0x2
 3165 004b 05       		.byte	0x5
 3166 004c A4180000 		.4byte	.LASF4
 3167 0050 02       		.uleb128 0x2
 3168 0051 02       		.byte	0x2
 3169 0052 07       		.byte	0x7
 3170 0053 B91B0000 		.4byte	.LASF5
 3171 0057 03       		.uleb128 0x3
 3172 0058 5E1C0000 		.4byte	.LASF6
 3173 005c 05       		.byte	0x5
 3174 005d 3F       		.byte	0x3f
 3175 005e 62000000 		.4byte	0x62
 3176 0062 02       		.uleb128 0x2
 3177 0063 04       		.byte	0x4
 3178 0064 05       		.byte	0x5
 3179 0065 4E040000 		.4byte	.LASF7
 3180 0069 03       		.uleb128 0x3
 3181 006a 240F0000 		.4byte	.LASF8
 3182 006e 05       		.byte	0x5
 3183 006f 41       		.byte	0x41
 3184 0070 74000000 		.4byte	0x74
 3185 0074 02       		.uleb128 0x2
 3186 0075 04       		.byte	0x4
 3187 0076 07       		.byte	0x7
 3188 0077 240D0000 		.4byte	.LASF9
 3189 007b 02       		.uleb128 0x2
 3190 007c 08       		.byte	0x8
 3191 007d 05       		.byte	0x5
 3192 007e 540F0000 		.4byte	.LASF10
 3193 0082 03       		.uleb128 0x3
 3194 0083 E10C0000 		.4byte	.LASF11
 3195 0087 05       		.byte	0x5
 3196 0088 5B       		.byte	0x5b
 3197 0089 8D000000 		.4byte	0x8d
 3198 008d 02       		.uleb128 0x2
 3199 008e 08       		.byte	0x8
 3200 008f 07       		.byte	0x7
 3201 0090 DD140000 		.4byte	.LASF12
ARM GAS  C:\Users\strap\AppData\Local\Temp\cc7wbcEe.s 			page 85


 3202 0094 04       		.uleb128 0x4
 3203 0095 04       		.byte	0x4
 3204 0096 05       		.byte	0x5
 3205 0097 696E7400 		.ascii	"int\000"
 3206 009b 03       		.uleb128 0x3
 3207 009c 2E170000 		.4byte	.LASF13
 3208 00a0 05       		.byte	0x5
 3209 00a1 CA       		.byte	0xca
 3210 00a2 A6000000 		.4byte	0xa6
 3211 00a6 02       		.uleb128 0x2
 3212 00a7 04       		.byte	0x4
 3213 00a8 07       		.byte	0x7
 3214 00a9 0F110000 		.4byte	.LASF14
 3215 00ad 03       		.uleb128 0x3
 3216 00ae 37070000 		.4byte	.LASF15
 3217 00b2 06       		.byte	0x6
 3218 00b3 18       		.byte	0x18
 3219 00b4 2C000000 		.4byte	0x2c
 3220 00b8 03       		.uleb128 0x3
 3221 00b9 3E190000 		.4byte	.LASF16
 3222 00bd 06       		.byte	0x6
 3223 00be 20       		.byte	0x20
 3224 00bf 3E000000 		.4byte	0x3e
 3225 00c3 03       		.uleb128 0x3
 3226 00c4 EA000000 		.4byte	.LASF17
 3227 00c8 06       		.byte	0x6
 3228 00c9 2C       		.byte	0x2c
 3229 00ca 57000000 		.4byte	0x57
 3230 00ce 03       		.uleb128 0x3
 3231 00cf FA1A0000 		.4byte	.LASF18
 3232 00d3 06       		.byte	0x6
 3233 00d4 30       		.byte	0x30
 3234 00d5 69000000 		.4byte	0x69
 3235 00d9 03       		.uleb128 0x3
 3236 00da B6180000 		.4byte	.LASF19
 3237 00de 06       		.byte	0x6
 3238 00df 3C       		.byte	0x3c
 3239 00e0 82000000 		.4byte	0x82
 3240 00e4 03       		.uleb128 0x3
 3241 00e5 290E0000 		.4byte	.LASF20
 3242 00e9 06       		.byte	0x6
 3243 00ea 48       		.byte	0x48
 3244 00eb 9B000000 		.4byte	0x9b
 3245 00ef 03       		.uleb128 0x3
 3246 00f0 E71B0000 		.4byte	.LASF21
 3247 00f4 07       		.byte	0x7
 3248 00f5 46       		.byte	0x46
 3249 00f6 B8000000 		.4byte	0xb8
 3250 00fa 05       		.uleb128 0x5
 3251 00fb 04       		.byte	0x4
 3252 00fc 06       		.uleb128 0x6
 3253 00fd 480D0000 		.4byte	.LASF22
 3254 0101 07       		.byte	0x7
 3255 0102 1202     		.2byte	0x212
 3256 0104 FA000000 		.4byte	0xfa
 3257 0108 03       		.uleb128 0x3
 3258 0109 48000000 		.4byte	.LASF23
ARM GAS  C:\Users\strap\AppData\Local\Temp\cc7wbcEe.s 			page 86


 3259 010d 08       		.byte	0x8
 3260 010e D8       		.byte	0xd8
 3261 010f A6000000 		.4byte	0xa6
 3262 0113 02       		.uleb128 0x2
 3263 0114 08       		.byte	0x8
 3264 0115 04       		.byte	0x4
 3265 0116 F0120000 		.4byte	.LASF24
 3266 011a 02       		.uleb128 0x2
 3267 011b 04       		.byte	0x4
 3268 011c 07       		.byte	0x7
 3269 011d 6A000000 		.4byte	.LASF25
 3270 0121 02       		.uleb128 0x2
 3271 0122 01       		.byte	0x1
 3272 0123 08       		.byte	0x8
 3273 0124 9F080000 		.4byte	.LASF26
 3274 0128 07       		.uleb128 0x7
 3275 0129 01       		.byte	0x1
 3276 012a 37000000 		.4byte	0x37
 3277 012e 09       		.byte	0x9
 3278 012f 2F       		.byte	0x2f
 3279 0130 41010000 		.4byte	0x141
 3280 0134 08       		.uleb128 0x8
 3281 0135 64020000 		.4byte	.LASF27
 3282 0139 00       		.byte	0
 3283 013a 08       		.uleb128 0x8
 3284 013b 67150000 		.4byte	.LASF28
 3285 013f 01       		.byte	0x1
 3286 0140 00       		.byte	0
 3287 0141 03       		.uleb128 0x3
 3288 0142 CD120000 		.4byte	.LASF29
 3289 0146 09       		.byte	0x9
 3290 0147 34       		.byte	0x34
 3291 0148 AD000000 		.4byte	0xad
 3292 014c 09       		.uleb128 0x9
 3293 014d 08       		.byte	0x8
 3294 014e 04       		.byte	0x4
 3295 014f 2D       		.byte	0x2d
 3296 0150 81010000 		.4byte	0x181
 3297 0154 0A       		.uleb128 0xa
 3298 0155 783100   		.ascii	"x1\000"
 3299 0158 04       		.byte	0x4
 3300 0159 2E       		.byte	0x2e
 3301 015a EF000000 		.4byte	0xef
 3302 015e 00       		.byte	0
 3303 015f 0A       		.uleb128 0xa
 3304 0160 793100   		.ascii	"y1\000"
 3305 0163 04       		.byte	0x4
 3306 0164 2F       		.byte	0x2f
 3307 0165 EF000000 		.4byte	0xef
 3308 0169 02       		.byte	0x2
 3309 016a 0A       		.uleb128 0xa
 3310 016b 783200   		.ascii	"x2\000"
 3311 016e 04       		.byte	0x4
 3312 016f 30       		.byte	0x30
 3313 0170 EF000000 		.4byte	0xef
 3314 0174 04       		.byte	0x4
 3315 0175 0A       		.uleb128 0xa
ARM GAS  C:\Users\strap\AppData\Local\Temp\cc7wbcEe.s 			page 87


 3316 0176 793200   		.ascii	"y2\000"
 3317 0179 04       		.byte	0x4
 3318 017a 31       		.byte	0x31
 3319 017b EF000000 		.4byte	0xef
 3320 017f 06       		.byte	0x6
 3321 0180 00       		.byte	0
 3322 0181 03       		.uleb128 0x3
 3323 0182 DD0A0000 		.4byte	.LASF30
 3324 0186 04       		.byte	0x4
 3325 0187 32       		.byte	0x32
 3326 0188 4C010000 		.4byte	0x14c
 3327 018c 07       		.uleb128 0x7
 3328 018d 01       		.byte	0x1
 3329 018e 37000000 		.4byte	0x37
 3330 0192 04       		.byte	0x4
 3331 0193 37       		.byte	0x37
 3332 0194 17020000 		.4byte	0x217
 3333 0198 08       		.uleb128 0x8
 3334 0199 66110000 		.4byte	.LASF31
 3335 019d 00       		.byte	0
 3336 019e 08       		.uleb128 0x8
 3337 019f D1170000 		.4byte	.LASF32
 3338 01a3 01       		.byte	0x1
 3339 01a4 08       		.uleb128 0x8
 3340 01a5 93140000 		.4byte	.LASF33
 3341 01a9 02       		.byte	0x2
 3342 01aa 08       		.uleb128 0x8
 3343 01ab AD0F0000 		.4byte	.LASF34
 3344 01af 03       		.byte	0x3
 3345 01b0 08       		.uleb128 0x8
 3346 01b1 8C100000 		.4byte	.LASF35
 3347 01b5 04       		.byte	0x4
 3348 01b6 08       		.uleb128 0x8
 3349 01b7 BB040000 		.4byte	.LASF36
 3350 01bb 05       		.byte	0x5
 3351 01bc 08       		.uleb128 0x8
 3352 01bd F70B0000 		.4byte	.LASF37
 3353 01c1 06       		.byte	0x6
 3354 01c2 08       		.uleb128 0x8
 3355 01c3 B30D0000 		.4byte	.LASF38
 3356 01c7 07       		.byte	0x7
 3357 01c8 08       		.uleb128 0x8
 3358 01c9 F6160000 		.4byte	.LASF39
 3359 01cd 08       		.byte	0x8
 3360 01ce 08       		.uleb128 0x8
 3361 01cf 2A130000 		.4byte	.LASF40
 3362 01d3 09       		.byte	0x9
 3363 01d4 08       		.uleb128 0x8
 3364 01d5 781A0000 		.4byte	.LASF41
 3365 01d9 0A       		.byte	0xa
 3366 01da 08       		.uleb128 0x8
 3367 01db 27190000 		.4byte	.LASF42
 3368 01df 0B       		.byte	0xb
 3369 01e0 08       		.uleb128 0x8
 3370 01e1 E40E0000 		.4byte	.LASF43
 3371 01e5 0C       		.byte	0xc
 3372 01e6 08       		.uleb128 0x8
ARM GAS  C:\Users\strap\AppData\Local\Temp\cc7wbcEe.s 			page 88


 3373 01e7 000D0000 		.4byte	.LASF44
 3374 01eb 0D       		.byte	0xd
 3375 01ec 08       		.uleb128 0x8
 3376 01ed 100C0000 		.4byte	.LASF45
 3377 01f1 0E       		.byte	0xe
 3378 01f2 08       		.uleb128 0x8
 3379 01f3 311B0000 		.4byte	.LASF46
 3380 01f7 0F       		.byte	0xf
 3381 01f8 08       		.uleb128 0x8
 3382 01f9 59090000 		.4byte	.LASF47
 3383 01fd 10       		.byte	0x10
 3384 01fe 08       		.uleb128 0x8
 3385 01ff 620F0000 		.4byte	.LASF48
 3386 0203 11       		.byte	0x11
 3387 0204 08       		.uleb128 0x8
 3388 0205 50150000 		.4byte	.LASF49
 3389 0209 12       		.byte	0x12
 3390 020a 08       		.uleb128 0x8
 3391 020b 6F020000 		.4byte	.LASF50
 3392 020f 13       		.byte	0x13
 3393 0210 08       		.uleb128 0x8
 3394 0211 D6120000 		.4byte	.LASF51
 3395 0215 14       		.byte	0x14
 3396 0216 00       		.byte	0
 3397 0217 03       		.uleb128 0x3
 3398 0218 24010000 		.4byte	.LASF52
 3399 021c 04       		.byte	0x4
 3400 021d 4E       		.byte	0x4e
 3401 021e AD000000 		.4byte	0xad
 3402 0222 02       		.uleb128 0x2
 3403 0223 01       		.byte	0x1
 3404 0224 02       		.byte	0x2
 3405 0225 78080000 		.4byte	.LASF53
 3406 0229 0B       		.uleb128 0xb
 3407 022a 04       		.byte	0x4
 3408 022b 2F020000 		.4byte	0x22f
 3409 022f 0C       		.uleb128 0xc
 3410 0230 AD000000 		.4byte	0xad
 3411 0234 07       		.uleb128 0x7
 3412 0235 02       		.byte	0x2
 3413 0236 50000000 		.4byte	0x50
 3414 023a 0A       		.byte	0xa
 3415 023b 5E       		.byte	0x5e
 3416 023c 7D040000 		.4byte	0x47d
 3417 0240 08       		.uleb128 0x8
 3418 0241 B5030000 		.4byte	.LASF54
 3419 0245 01       		.byte	0x1
 3420 0246 08       		.uleb128 0x8
 3421 0247 5F120000 		.4byte	.LASF55
 3422 024b 02       		.byte	0x2
 3423 024c 08       		.uleb128 0x8
 3424 024d 2B030000 		.4byte	.LASF56
 3425 0251 03       		.byte	0x3
 3426 0252 08       		.uleb128 0x8
 3427 0253 F7070000 		.4byte	.LASF57
 3428 0257 04       		.byte	0x4
 3429 0258 08       		.uleb128 0x8
ARM GAS  C:\Users\strap\AppData\Local\Temp\cc7wbcEe.s 			page 89


 3430 0259 E9030000 		.4byte	.LASF58
 3431 025d 05       		.byte	0x5
 3432 025e 08       		.uleb128 0x8
 3433 025f 1A100000 		.4byte	.LASF59
 3434 0263 06       		.byte	0x6
 3435 0264 08       		.uleb128 0x8
 3436 0265 AB0A0000 		.4byte	.LASF60
 3437 0269 07       		.byte	0x7
 3438 026a 0D       		.uleb128 0xd
 3439 026b CA140000 		.4byte	.LASF61
 3440 026f 0C80     		.2byte	0x800c
 3441 0271 08       		.uleb128 0x8
 3442 0272 8E190000 		.4byte	.LASF62
 3443 0276 10       		.byte	0x10
 3444 0277 08       		.uleb128 0x8
 3445 0278 5D0C0000 		.4byte	.LASF63
 3446 027c 11       		.byte	0x11
 3447 027d 08       		.uleb128 0x8
 3448 027e 330E0000 		.4byte	.LASF64
 3449 0282 12       		.byte	0x12
 3450 0283 08       		.uleb128 0x8
 3451 0284 34040000 		.4byte	.LASF65
 3452 0288 13       		.byte	0x13
 3453 0289 08       		.uleb128 0x8
 3454 028a 890B0000 		.4byte	.LASF66
 3455 028e 14       		.byte	0x14
 3456 028f 08       		.uleb128 0x8
 3457 0290 B9120000 		.4byte	.LASF67
 3458 0294 15       		.byte	0x15
 3459 0295 08       		.uleb128 0x8
 3460 0296 10190000 		.4byte	.LASF68
 3461 029a 16       		.byte	0x16
 3462 029b 08       		.uleb128 0x8
 3463 029c D9130000 		.4byte	.LASF69
 3464 02a0 17       		.byte	0x17
 3465 02a1 08       		.uleb128 0x8
 3466 02a2 87060000 		.4byte	.LASF70
 3467 02a6 18       		.byte	0x18
 3468 02a7 08       		.uleb128 0x8
 3469 02a8 3C160000 		.4byte	.LASF71
 3470 02ac 20       		.byte	0x20
 3471 02ad 08       		.uleb128 0x8
 3472 02ae BC0C0000 		.4byte	.LASF72
 3473 02b2 21       		.byte	0x21
 3474 02b3 08       		.uleb128 0x8
 3475 02b4 F4140000 		.4byte	.LASF73
 3476 02b8 22       		.byte	0x22
 3477 02b9 08       		.uleb128 0x8
 3478 02ba 47070000 		.4byte	.LASF74
 3479 02be 23       		.byte	0x23
 3480 02bf 08       		.uleb128 0x8
 3481 02c0 6F090000 		.4byte	.LASF75
 3482 02c4 29       		.byte	0x29
 3483 02c5 08       		.uleb128 0x8
 3484 02c6 23180000 		.4byte	.LASF76
 3485 02ca 2A       		.byte	0x2a
 3486 02cb 08       		.uleb128 0x8
ARM GAS  C:\Users\strap\AppData\Local\Temp\cc7wbcEe.s 			page 90


 3487 02cc 7F0C0000 		.4byte	.LASF77
 3488 02d0 2C       		.byte	0x2c
 3489 02d1 08       		.uleb128 0x8
 3490 02d2 BE020000 		.4byte	.LASF78
 3491 02d6 30       		.byte	0x30
 3492 02d7 08       		.uleb128 0x8
 3493 02d8 0A150000 		.4byte	.LASF79
 3494 02dc 31       		.byte	0x31
 3495 02dd 08       		.uleb128 0x8
 3496 02de AF110000 		.4byte	.LASF80
 3497 02e2 32       		.byte	0x32
 3498 02e3 08       		.uleb128 0x8
 3499 02e4 9D1A0000 		.4byte	.LASF81
 3500 02e8 33       		.byte	0x33
 3501 02e9 08       		.uleb128 0x8
 3502 02ea 5A140000 		.4byte	.LASF82
 3503 02ee 39       		.byte	0x39
 3504 02ef 08       		.uleb128 0x8
 3505 02f0 C1050000 		.4byte	.LASF83
 3506 02f4 3C       		.byte	0x3c
 3507 02f5 08       		.uleb128 0x8
 3508 02f6 070B0000 		.4byte	.LASF84
 3509 02fa 40       		.byte	0x40
 3510 02fb 08       		.uleb128 0x8
 3511 02fc 0E1D0000 		.4byte	.LASF85
 3512 0300 41       		.byte	0x41
 3513 0301 08       		.uleb128 0x8
 3514 0302 DF090000 		.4byte	.LASF86
 3515 0306 42       		.byte	0x42
 3516 0307 08       		.uleb128 0x8
 3517 0308 051C0000 		.4byte	.LASF87
 3518 030c 49       		.byte	0x49
 3519 030d 08       		.uleb128 0x8
 3520 030e 30090000 		.4byte	.LASF88
 3521 0312 4C       		.byte	0x4c
 3522 0313 08       		.uleb128 0x8
 3523 0314 37120000 		.4byte	.LASF89
 3524 0318 50       		.byte	0x50
 3525 0319 08       		.uleb128 0x8
 3526 031a F0150000 		.4byte	.LASF90
 3527 031e 51       		.byte	0x51
 3528 031f 08       		.uleb128 0x8
 3529 0320 06160000 		.4byte	.LASF91
 3530 0324 52       		.byte	0x52
 3531 0325 08       		.uleb128 0x8
 3532 0326 DF160000 		.4byte	.LASF92
 3533 032a 53       		.byte	0x53
 3534 032b 08       		.uleb128 0x8
 3535 032c 54010000 		.4byte	.LASF93
 3536 0330 54       		.byte	0x54
 3537 0331 08       		.uleb128 0x8
 3538 0332 C5060000 		.4byte	.LASF94
 3539 0336 59       		.byte	0x59
 3540 0337 08       		.uleb128 0x8
 3541 0338 D5030000 		.4byte	.LASF95
 3542 033c 5C       		.byte	0x5c
 3543 033d 08       		.uleb128 0x8
ARM GAS  C:\Users\strap\AppData\Local\Temp\cc7wbcEe.s 			page 91


 3544 033e 8F030000 		.4byte	.LASF96
 3545 0342 60       		.byte	0x60
 3546 0343 08       		.uleb128 0x8
 3547 0344 A8170000 		.4byte	.LASF97
 3548 0348 61       		.byte	0x61
 3549 0349 08       		.uleb128 0x8
 3550 034a 05090000 		.4byte	.LASF98
 3551 034e 69       		.byte	0x69
 3552 034f 08       		.uleb128 0x8
 3553 0350 7A030000 		.4byte	.LASF99
 3554 0354 6C       		.byte	0x6c
 3555 0355 08       		.uleb128 0x8
 3556 0356 5A0E0000 		.4byte	.LASF100
 3557 035a 6D       		.byte	0x6d
 3558 035b 08       		.uleb128 0x8
 3559 035c 4F110000 		.4byte	.LASF101
 3560 0360 6E       		.byte	0x6e
 3561 0361 08       		.uleb128 0x8
 3562 0362 65190000 		.4byte	.LASF102
 3563 0366 70       		.byte	0x70
 3564 0367 08       		.uleb128 0x8
 3565 0368 5C070000 		.4byte	.LASF103
 3566 036c 71       		.byte	0x71
 3567 036d 08       		.uleb128 0x8
 3568 036e 1C140000 		.4byte	.LASF104
 3569 0372 72       		.byte	0x72
 3570 0373 08       		.uleb128 0x8
 3571 0374 3C0A0000 		.4byte	.LASF105
 3572 0378 73       		.byte	0x73
 3573 0379 08       		.uleb128 0x8
 3574 037a 510A0000 		.4byte	.LASF106
 3575 037e 74       		.byte	0x74
 3576 037f 08       		.uleb128 0x8
 3577 0380 1C160000 		.4byte	.LASF107
 3578 0384 75       		.byte	0x75
 3579 0385 08       		.uleb128 0x8
 3580 0386 0E180000 		.4byte	.LASF108
 3581 038a 79       		.byte	0x79
 3582 038b 08       		.uleb128 0x8
 3583 038c 2F010000 		.4byte	.LASF109
 3584 0390 7C       		.byte	0x7c
 3585 0391 08       		.uleb128 0x8
 3586 0392 D00E0000 		.4byte	.LASF110
 3587 0396 7E       		.byte	0x7e
 3588 0397 08       		.uleb128 0x8
 3589 0398 00000000 		.4byte	.LASF111
 3590 039c 7F       		.byte	0x7f
 3591 039d 0D       		.uleb128 0xd
 3592 039e 511D0000 		.4byte	.LASF112
 3593 03a2 8080     		.2byte	0x8080
 3594 03a4 0D       		.uleb128 0xd
 3595 03a5 700B0000 		.4byte	.LASF113
 3596 03a9 8180     		.2byte	0x8081
 3597 03ab 0D       		.uleb128 0xd
 3598 03ac 72100000 		.4byte	.LASF114
 3599 03b0 8280     		.2byte	0x8082
 3600 03b2 0D       		.uleb128 0xd
ARM GAS  C:\Users\strap\AppData\Local\Temp\cc7wbcEe.s 			page 92


 3601 03b3 CF180000 		.4byte	.LASF115
 3602 03b7 8380     		.2byte	0x8083
 3603 03b9 0D       		.uleb128 0xd
 3604 03ba E6100000 		.4byte	.LASF116
 3605 03be 8980     		.2byte	0x8089
 3606 03c0 0D       		.uleb128 0xd
 3607 03c1 0C0F0000 		.4byte	.LASF117
 3608 03c5 8A80     		.2byte	0x808a
 3609 03c7 0D       		.uleb128 0xd
 3610 03c8 DC0B0000 		.4byte	.LASF118
 3611 03cc 8B80     		.2byte	0x808b
 3612 03ce 0D       		.uleb128 0xd
 3613 03cf 360D0000 		.4byte	.LASF119
 3614 03d3 8C80     		.2byte	0x808c
 3615 03d5 0D       		.uleb128 0xd
 3616 03d6 7F160000 		.4byte	.LASF120
 3617 03da 8E80     		.2byte	0x808e
 3618 03dc 08       		.uleb128 0x8
 3619 03dd B0190000 		.4byte	.LASF121
 3620 03e1 90       		.byte	0x90
 3621 03e2 08       		.uleb128 0x8
 3622 03e3 C80D0000 		.4byte	.LASF122
 3623 03e7 91       		.byte	0x91
 3624 03e8 08       		.uleb128 0x8
 3625 03e9 C6090000 		.4byte	.LASF123
 3626 03ed 92       		.byte	0x92
 3627 03ee 08       		.uleb128 0x8
 3628 03ef 89000000 		.4byte	.LASF124
 3629 03f3 93       		.byte	0x93
 3630 03f4 08       		.uleb128 0x8
 3631 03f5 CD1A0000 		.4byte	.LASF125
 3632 03f9 94       		.byte	0x94
 3633 03fa 08       		.uleb128 0x8
 3634 03fb F30D0000 		.4byte	.LASF126
 3635 03ff 99       		.byte	0x99
 3636 0400 08       		.uleb128 0x8
 3637 0401 8F0C0000 		.4byte	.LASF127
 3638 0405 9C       		.byte	0x9c
 3639 0406 0D       		.uleb128 0xd
 3640 0407 F6180000 		.4byte	.LASF128
 3641 040b A080     		.2byte	0x80a0
 3642 040d 0D       		.uleb128 0xd
 3643 040e EE080000 		.4byte	.LASF129
 3644 0412 A980     		.2byte	0x80a9
 3645 0414 0D       		.uleb128 0xd
 3646 0415 9F070000 		.4byte	.LASF130
 3647 0419 AC80     		.2byte	0x80ac
 3648 041b 0D       		.uleb128 0xd
 3649 041c EE0F0000 		.4byte	.LASF131
 3650 0420 AD80     		.2byte	0x80ad
 3651 0422 08       		.uleb128 0x8
 3652 0423 AF100000 		.4byte	.LASF132
 3653 0427 B0       		.byte	0xb0
 3654 0428 08       		.uleb128 0x8
 3655 0429 441C0000 		.4byte	.LASF133
 3656 042d B1       		.byte	0xb1
 3657 042e 08       		.uleb128 0x8
ARM GAS  C:\Users\strap\AppData\Local\Temp\cc7wbcEe.s 			page 93


 3658 042f E5050000 		.4byte	.LASF134
 3659 0433 B2       		.byte	0xb2
 3660 0434 08       		.uleb128 0x8
 3661 0435 00060000 		.4byte	.LASF135
 3662 0439 B3       		.byte	0xb3
 3663 043a 08       		.uleb128 0x8
 3664 043b 1B060000 		.4byte	.LASF136
 3665 043f B4       		.byte	0xb4
 3666 0440 08       		.uleb128 0x8
 3667 0441 36060000 		.4byte	.LASF137
 3668 0445 B5       		.byte	0xb5
 3669 0446 08       		.uleb128 0x8
 3670 0447 51060000 		.4byte	.LASF138
 3671 044b B6       		.byte	0xb6
 3672 044c 08       		.uleb128 0x8
 3673 044d 6C060000 		.4byte	.LASF139
 3674 0451 B7       		.byte	0xb7
 3675 0452 08       		.uleb128 0x8
 3676 0453 1B040000 		.4byte	.LASF140
 3677 0457 BE       		.byte	0xbe
 3678 0458 08       		.uleb128 0x8
 3679 0459 46030000 		.4byte	.LASF141
 3680 045d C0       		.byte	0xc0
 3681 045e 08       		.uleb128 0x8
 3682 045f 10080000 		.4byte	.LASF142
 3683 0463 C1       		.byte	0xc1
 3684 0464 08       		.uleb128 0x8
 3685 0465 2A0C0000 		.4byte	.LASF143
 3686 0469 C2       		.byte	0xc2
 3687 046a 08       		.uleb128 0x8
 3688 046b BE0B0000 		.4byte	.LASF144
 3689 046f C3       		.byte	0xc3
 3690 0470 08       		.uleb128 0x8
 3691 0471 C0080000 		.4byte	.LASF145
 3692 0475 C9       		.byte	0xc9
 3693 0476 08       		.uleb128 0x8
 3694 0477 57040000 		.4byte	.LASF146
 3695 047b CA       		.byte	0xca
 3696 047c 00       		.byte	0
 3697 047d 09       		.uleb128 0x9
 3698 047e 04       		.byte	0x4
 3699 047f 0A       		.byte	0xa
 3700 0480 D3       		.byte	0xd3
 3701 0481 92040000 		.4byte	0x492
 3702 0485 0A       		.uleb128 0xa
 3703 0486 6D617000 		.ascii	"map\000"
 3704 048a 0A       		.byte	0xa
 3705 048b D4       		.byte	0xd4
 3706 048c 92040000 		.4byte	0x492
 3707 0490 00       		.byte	0
 3708 0491 00       		.byte	0
 3709 0492 0B       		.uleb128 0xb
 3710 0493 04       		.byte	0x4
 3711 0494 AD000000 		.4byte	0xad
 3712 0498 03       		.uleb128 0x3
 3713 0499 A10C0000 		.4byte	.LASF147
 3714 049d 0A       		.byte	0xa
ARM GAS  C:\Users\strap\AppData\Local\Temp\cc7wbcEe.s 			page 94


 3715 049e D8       		.byte	0xd8
 3716 049f 7D040000 		.4byte	0x47d
 3717 04a3 03       		.uleb128 0x3
 3718 04a4 F1060000 		.4byte	.LASF148
 3719 04a8 0A       		.byte	0xa
 3720 04a9 DA       		.byte	0xda
 3721 04aa B8000000 		.4byte	0xb8
 3722 04ae 09       		.uleb128 0x9
 3723 04af 08       		.byte	0x8
 3724 04b0 0A       		.byte	0xa
 3725 04b1 DC       		.byte	0xdc
 3726 04b2 58060000 		.4byte	0x658
 3727 04b6 0E       		.uleb128 0xe
 3728 04b7 B6050000 		.4byte	.LASF149
 3729 04bb 0A       		.byte	0xa
 3730 04bc DD       		.byte	0xdd
 3731 04bd 58060000 		.4byte	0x658
 3732 04c1 00       		.byte	0
 3733 04c2 0F       		.uleb128 0xf
 3734 04c3 00070000 		.4byte	.LASF150
 3735 04c7 0A       		.byte	0xa
 3736 04c8 E1       		.byte	0xe1
 3737 04c9 CE000000 		.4byte	0xce
 3738 04cd 04       		.byte	0x4
 3739 04ce 06       		.byte	0x6
 3740 04cf 1A       		.byte	0x1a
 3741 04d0 04       		.byte	0x4
 3742 04d1 0F       		.uleb128 0xf
 3743 04d2 12140000 		.4byte	.LASF151
 3744 04d6 0A       		.byte	0xa
 3745 04d7 E2       		.byte	0xe2
 3746 04d8 CE000000 		.4byte	0xce
 3747 04dc 04       		.byte	0x4
 3748 04dd 01       		.byte	0x1
 3749 04de 19       		.byte	0x19
 3750 04df 04       		.byte	0x4
 3751 04e0 0F       		.uleb128 0xf
 3752 04e1 B81C0000 		.4byte	.LASF152
 3753 04e5 0A       		.byte	0xa
 3754 04e6 E3       		.byte	0xe3
 3755 04e7 CE000000 		.4byte	0xce
 3756 04eb 04       		.byte	0x4
 3757 04ec 01       		.byte	0x1
 3758 04ed 18       		.byte	0x18
 3759 04ee 04       		.byte	0x4
 3760 04ef 0F       		.uleb128 0xf
 3761 04f0 A4100000 		.4byte	.LASF153
 3762 04f4 0A       		.byte	0xa
 3763 04f5 E4       		.byte	0xe4
 3764 04f6 CE000000 		.4byte	0xce
 3765 04fa 04       		.byte	0x4
 3766 04fb 01       		.byte	0x1
 3767 04fc 17       		.byte	0x17
 3768 04fd 04       		.byte	0x4
 3769 04fe 0F       		.uleb128 0xf
 3770 04ff AC1B0000 		.4byte	.LASF154
 3771 0503 0A       		.byte	0xa
ARM GAS  C:\Users\strap\AppData\Local\Temp\cc7wbcEe.s 			page 95


 3772 0504 E5       		.byte	0xe5
 3773 0505 CE000000 		.4byte	0xce
 3774 0509 04       		.byte	0x4
 3775 050a 01       		.byte	0x1
 3776 050b 16       		.byte	0x16
 3777 050c 04       		.byte	0x4
 3778 050d 0F       		.uleb128 0xf
 3779 050e 0A070000 		.4byte	.LASF155
 3780 0512 0A       		.byte	0xa
 3781 0513 E6       		.byte	0xe6
 3782 0514 CE000000 		.4byte	0xce
 3783 0518 04       		.byte	0x4
 3784 0519 01       		.byte	0x1
 3785 051a 15       		.byte	0x15
 3786 051b 04       		.byte	0x4
 3787 051c 0F       		.uleb128 0xf
 3788 051d 03050000 		.4byte	.LASF156
 3789 0521 0A       		.byte	0xa
 3790 0522 E7       		.byte	0xe7
 3791 0523 CE000000 		.4byte	0xce
 3792 0527 04       		.byte	0x4
 3793 0528 01       		.byte	0x1
 3794 0529 14       		.byte	0x14
 3795 052a 04       		.byte	0x4
 3796 052b 0F       		.uleb128 0xf
 3797 052c EF110000 		.4byte	.LASF157
 3798 0530 0A       		.byte	0xa
 3799 0531 E9       		.byte	0xe9
 3800 0532 CE000000 		.4byte	0xce
 3801 0536 04       		.byte	0x4
 3802 0537 01       		.byte	0x1
 3803 0538 13       		.byte	0x13
 3804 0539 04       		.byte	0x4
 3805 053a 0F       		.uleb128 0xf
 3806 053b 0A130000 		.4byte	.LASF158
 3807 053f 0A       		.byte	0xa
 3808 0540 EA       		.byte	0xea
 3809 0541 CE000000 		.4byte	0xce
 3810 0545 04       		.byte	0x4
 3811 0546 01       		.byte	0x1
 3812 0547 12       		.byte	0x12
 3813 0548 04       		.byte	0x4
 3814 0549 0F       		.uleb128 0xf
 3815 054a A9010000 		.4byte	.LASF159
 3816 054e 0A       		.byte	0xa
 3817 054f EB       		.byte	0xeb
 3818 0550 CE000000 		.4byte	0xce
 3819 0554 04       		.byte	0x4
 3820 0555 01       		.byte	0x1
 3821 0556 11       		.byte	0x11
 3822 0557 04       		.byte	0x4
 3823 0558 0F       		.uleb128 0xf
 3824 0559 10050000 		.4byte	.LASF160
 3825 055d 0A       		.byte	0xa
 3826 055e EC       		.byte	0xec
 3827 055f CE000000 		.4byte	0xce
 3828 0563 04       		.byte	0x4
ARM GAS  C:\Users\strap\AppData\Local\Temp\cc7wbcEe.s 			page 96


 3829 0564 01       		.byte	0x1
 3830 0565 10       		.byte	0x10
 3831 0566 04       		.byte	0x4
 3832 0567 0F       		.uleb128 0xf
 3833 0568 39030000 		.4byte	.LASF161
 3834 056c 0A       		.byte	0xa
 3835 056d ED       		.byte	0xed
 3836 056e CE000000 		.4byte	0xce
 3837 0572 04       		.byte	0x4
 3838 0573 01       		.byte	0x1
 3839 0574 0F       		.byte	0xf
 3840 0575 04       		.byte	0x4
 3841 0576 0F       		.uleb128 0xf
 3842 0577 D5050000 		.4byte	.LASF162
 3843 057b 0A       		.byte	0xa
 3844 057c EE       		.byte	0xee
 3845 057d CE000000 		.4byte	0xce
 3846 0581 04       		.byte	0x4
 3847 0582 01       		.byte	0x1
 3848 0583 0E       		.byte	0xe
 3849 0584 04       		.byte	0x4
 3850 0585 0F       		.uleb128 0xf
 3851 0586 B4140000 		.4byte	.LASF163
 3852 058a 0A       		.byte	0xa
 3853 058b EF       		.byte	0xef
 3854 058c CE000000 		.4byte	0xce
 3855 0590 04       		.byte	0x4
 3856 0591 01       		.byte	0x1
 3857 0592 0D       		.byte	0xd
 3858 0593 04       		.byte	0x4
 3859 0594 0F       		.uleb128 0xf
 3860 0595 710A0000 		.4byte	.LASF164
 3861 0599 0A       		.byte	0xa
 3862 059a F0       		.byte	0xf0
 3863 059b CE000000 		.4byte	0xce
 3864 059f 04       		.byte	0x4
 3865 05a0 01       		.byte	0x1
 3866 05a1 0C       		.byte	0xc
 3867 05a2 04       		.byte	0x4
 3868 05a3 0F       		.uleb128 0xf
 3869 05a4 81190000 		.4byte	.LASF165
 3870 05a8 0A       		.byte	0xa
 3871 05a9 F1       		.byte	0xf1
 3872 05aa CE000000 		.4byte	0xce
 3873 05ae 04       		.byte	0x4
 3874 05af 01       		.byte	0x1
 3875 05b0 0B       		.byte	0xb
 3876 05b1 04       		.byte	0x4
 3877 05b2 0F       		.uleb128 0xf
 3878 05b3 13000000 		.4byte	.LASF166
 3879 05b7 0A       		.byte	0xa
 3880 05b8 F3       		.byte	0xf3
 3881 05b9 CE000000 		.4byte	0xce
 3882 05bd 04       		.byte	0x4
 3883 05be 01       		.byte	0x1
 3884 05bf 0A       		.byte	0xa
 3885 05c0 04       		.byte	0x4
ARM GAS  C:\Users\strap\AppData\Local\Temp\cc7wbcEe.s 			page 97


 3886 05c1 0F       		.uleb128 0xf
 3887 05c2 230A0000 		.4byte	.LASF167
 3888 05c6 0A       		.byte	0xa
 3889 05c7 F4       		.byte	0xf4
 3890 05c8 CE000000 		.4byte	0xce
 3891 05cc 04       		.byte	0x4
 3892 05cd 01       		.byte	0x1
 3893 05ce 09       		.byte	0x9
 3894 05cf 04       		.byte	0x4
 3895 05d0 0F       		.uleb128 0xf
 3896 05d1 AC0C0000 		.4byte	.LASF168
 3897 05d5 0A       		.byte	0xa
 3898 05d6 F5       		.byte	0xf5
 3899 05d7 CE000000 		.4byte	0xce
 3900 05db 04       		.byte	0x4
 3901 05dc 01       		.byte	0x1
 3902 05dd 08       		.byte	0x8
 3903 05de 04       		.byte	0x4
 3904 05df 0F       		.uleb128 0xf
 3905 05e0 EE190000 		.4byte	.LASF169
 3906 05e4 0A       		.byte	0xa
 3907 05e5 F7       		.byte	0xf7
 3908 05e6 CE000000 		.4byte	0xce
 3909 05ea 04       		.byte	0x4
 3910 05eb 01       		.byte	0x1
 3911 05ec 07       		.byte	0x7
 3912 05ed 04       		.byte	0x4
 3913 05ee 0F       		.uleb128 0xf
 3914 05ef 8D0A0000 		.4byte	.LASF170
 3915 05f3 0A       		.byte	0xa
 3916 05f4 F8       		.byte	0xf8
 3917 05f5 CE000000 		.4byte	0xce
 3918 05f9 04       		.byte	0x4
 3919 05fa 01       		.byte	0x1
 3920 05fb 06       		.byte	0x6
 3921 05fc 04       		.byte	0x4
 3922 05fd 0F       		.uleb128 0xf
 3923 05fe 8D080000 		.4byte	.LASF171
 3924 0602 0A       		.byte	0xa
 3925 0603 F9       		.byte	0xf9
 3926 0604 CE000000 		.4byte	0xce
 3927 0608 04       		.byte	0x4
 3928 0609 01       		.byte	0x1
 3929 060a 05       		.byte	0x5
 3930 060b 04       		.byte	0x4
 3931 060c 0F       		.uleb128 0xf
 3932 060d E8180000 		.4byte	.LASF172
 3933 0611 0A       		.byte	0xa
 3934 0612 FA       		.byte	0xfa
 3935 0613 CE000000 		.4byte	0xce
 3936 0617 04       		.byte	0x4
 3937 0618 01       		.byte	0x1
 3938 0619 04       		.byte	0x4
 3939 061a 04       		.byte	0x4
 3940 061b 0F       		.uleb128 0xf
 3941 061c 611A0000 		.4byte	.LASF173
 3942 0620 0A       		.byte	0xa
ARM GAS  C:\Users\strap\AppData\Local\Temp\cc7wbcEe.s 			page 98


 3943 0621 FB       		.byte	0xfb
 3944 0622 CE000000 		.4byte	0xce
 3945 0626 04       		.byte	0x4
 3946 0627 01       		.byte	0x1
 3947 0628 03       		.byte	0x3
 3948 0629 04       		.byte	0x4
 3949 062a 0F       		.uleb128 0xf
 3950 062b AF0E0000 		.4byte	.LASF174
 3951 062f 0A       		.byte	0xa
 3952 0630 FD       		.byte	0xfd
 3953 0631 CE000000 		.4byte	0xce
 3954 0635 04       		.byte	0x4
 3955 0636 01       		.byte	0x1
 3956 0637 02       		.byte	0x2
 3957 0638 04       		.byte	0x4
 3958 0639 0F       		.uleb128 0xf
 3959 063a 94120000 		.4byte	.LASF175
 3960 063e 0A       		.byte	0xa
 3961 063f FE       		.byte	0xfe
 3962 0640 CE000000 		.4byte	0xce
 3963 0644 04       		.byte	0x4
 3964 0645 01       		.byte	0x1
 3965 0646 01       		.byte	0x1
 3966 0647 04       		.byte	0x4
 3967 0648 0F       		.uleb128 0xf
 3968 0649 7B0F0000 		.4byte	.LASF176
 3969 064d 0A       		.byte	0xa
 3970 064e FF       		.byte	0xff
 3971 064f CE000000 		.4byte	0xce
 3972 0653 04       		.byte	0x4
 3973 0654 01       		.byte	0x1
 3974 0655 00       		.byte	0
 3975 0656 04       		.byte	0x4
 3976 0657 00       		.byte	0
 3977 0658 0B       		.uleb128 0xb
 3978 0659 04       		.byte	0x4
 3979 065a 5E060000 		.4byte	0x65e
 3980 065e 0B       		.uleb128 0xb
 3981 065f 04       		.byte	0x4
 3982 0660 98040000 		.4byte	0x498
 3983 0664 06       		.uleb128 0x6
 3984 0665 1E170000 		.4byte	.LASF177
 3985 0669 0A       		.byte	0xa
 3986 066a 0001     		.2byte	0x100
 3987 066c AE040000 		.4byte	0x4ae
 3988 0670 03       		.uleb128 0x3
 3989 0671 3B000000 		.4byte	.LASF178
 3990 0675 0B       		.byte	0xb
 3991 0676 1E       		.byte	0x1e
 3992 0677 AD000000 		.4byte	0xad
 3993 067b 09       		.uleb128 0x9
 3994 067c 0C       		.byte	0xc
 3995 067d 0B       		.byte	0xb
 3996 067e 21       		.byte	0x21
 3997 067f A8060000 		.4byte	0x6a8
 3998 0683 0E       		.uleb128 0xe
 3999 0684 071D0000 		.4byte	.LASF179
ARM GAS  C:\Users\strap\AppData\Local\Temp\cc7wbcEe.s 			page 99


 4000 0688 0B       		.byte	0xb
 4001 0689 22       		.byte	0x22
 4002 068a CE000000 		.4byte	0xce
 4003 068e 00       		.byte	0
 4004 068f 0E       		.uleb128 0xe
 4005 0690 B1050000 		.4byte	.LASF180
 4006 0694 0B       		.byte	0xb
 4007 0695 23       		.byte	0x23
 4008 0696 A8060000 		.4byte	0x6a8
 4009 069a 04       		.byte	0x4
 4010 069b 0E       		.uleb128 0xe
 4011 069c B1000000 		.4byte	.LASF181
 4012 06a0 0B       		.byte	0xb
 4013 06a1 24       		.byte	0x24
 4014 06a2 A8060000 		.4byte	0x6a8
 4015 06a6 08       		.byte	0x8
 4016 06a7 00       		.byte	0
 4017 06a8 0B       		.uleb128 0xb
 4018 06a9 04       		.byte	0x4
 4019 06aa 70060000 		.4byte	0x670
 4020 06ae 03       		.uleb128 0x3
 4021 06af AE180000 		.4byte	.LASF182
 4022 06b3 0B       		.byte	0xb
 4023 06b4 25       		.byte	0x25
 4024 06b5 7B060000 		.4byte	0x67b
 4025 06b9 0B       		.uleb128 0xb
 4026 06ba 04       		.byte	0x4
 4027 06bb BF060000 		.4byte	0x6bf
 4028 06bf 0C       		.uleb128 0xc
 4029 06c0 81010000 		.4byte	0x181
 4030 06c4 0B       		.uleb128 0xb
 4031 06c5 04       		.byte	0x4
 4032 06c6 81010000 		.4byte	0x181
 4033 06ca 10       		.uleb128 0x10
 4034 06cb C7170000 		.4byte	.LASF435
 4035 06cf 50       		.byte	0x50
 4036 06d0 0C       		.byte	0xc
 4037 06d1 C5       		.byte	0xc5
 4038 06d2 4B080000 		.4byte	0x84b
 4039 06d6 0E       		.uleb128 0xe
 4040 06d7 6B100000 		.4byte	.LASF183
 4041 06db 0C       		.byte	0xc
 4042 06dc C6       		.byte	0xc6
 4043 06dd 4B080000 		.4byte	0x84b
 4044 06e1 00       		.byte	0
 4045 06e2 0E       		.uleb128 0xe
 4046 06e3 09100000 		.4byte	.LASF184
 4047 06e7 0C       		.byte	0xc
 4048 06e8 C7       		.byte	0xc7
 4049 06e9 AE060000 		.4byte	0x6ae
 4050 06ed 04       		.byte	0x4
 4051 06ee 0E       		.uleb128 0xe
 4052 06ef 5E190000 		.4byte	.LASF185
 4053 06f3 0C       		.byte	0xc
 4054 06f4 C9       		.byte	0xc9
 4055 06f5 81010000 		.4byte	0x181
 4056 06f9 10       		.byte	0x10
ARM GAS  C:\Users\strap\AppData\Local\Temp\cc7wbcEe.s 			page 100


 4057 06fa 0E       		.uleb128 0xe
 4058 06fb 2F0F0000 		.4byte	.LASF186
 4059 06ff 0C       		.byte	0xc
 4060 0700 CB       		.byte	0xcb
 4061 0701 EA080000 		.4byte	0x8ea
 4062 0705 18       		.byte	0x18
 4063 0706 0E       		.uleb128 0xe
 4064 0707 F01A0000 		.4byte	.LASF187
 4065 070b 0C       		.byte	0xc
 4066 070c CC       		.byte	0xcc
 4067 070d BF090000 		.4byte	0x9bf
 4068 0711 1C       		.byte	0x1c
 4069 0712 0E       		.uleb128 0xe
 4070 0713 A2090000 		.4byte	.LASF188
 4071 0717 0C       		.byte	0xc
 4072 0718 CD       		.byte	0xcd
 4073 0719 B5080000 		.4byte	0x8b5
 4074 071d 20       		.byte	0x20
 4075 071e 0E       		.uleb128 0xe
 4076 071f DB020000 		.4byte	.LASF189
 4077 0723 0C       		.byte	0xc
 4078 0724 CF       		.byte	0xcf
 4079 0725 FA000000 		.4byte	0xfa
 4080 0729 24       		.byte	0x24
 4081 072a 0E       		.uleb128 0xe
 4082 072b B6050000 		.4byte	.LASF149
 4083 072f 0C       		.byte	0xc
 4084 0730 D0       		.byte	0xd0
 4085 0731 64060000 		.4byte	0x664
 4086 0735 28       		.byte	0x28
 4087 0736 0E       		.uleb128 0xe
 4088 0737 66080000 		.4byte	.LASF190
 4089 073b 0C       		.byte	0xc
 4090 073c D3       		.byte	0xd3
 4091 073d AD000000 		.4byte	0xad
 4092 0741 30       		.byte	0x30
 4093 0742 0E       		.uleb128 0xe
 4094 0743 53160000 		.4byte	.LASF191
 4095 0747 0C       		.byte	0xc
 4096 0748 D4       		.byte	0xd4
 4097 0749 AD000000 		.4byte	0xad
 4098 074d 31       		.byte	0x31
 4099 074e 0E       		.uleb128 0xe
 4100 074f 9E0A0000 		.4byte	.LASF192
 4101 0753 0C       		.byte	0xc
 4102 0754 D9       		.byte	0xd9
 4103 0755 EF000000 		.4byte	0xef
 4104 0759 32       		.byte	0x32
 4105 075a 0F       		.uleb128 0xf
 4106 075b 2C080000 		.4byte	.LASF193
 4107 075f 0C       		.byte	0xc
 4108 0760 DC       		.byte	0xdc
 4109 0761 AD000000 		.4byte	0xad
 4110 0765 01       		.byte	0x1
 4111 0766 01       		.byte	0x1
 4112 0767 07       		.byte	0x7
 4113 0768 34       		.byte	0x34
ARM GAS  C:\Users\strap\AppData\Local\Temp\cc7wbcEe.s 			page 101


 4114 0769 0F       		.uleb128 0xf
 4115 076a A3170000 		.4byte	.LASF194
 4116 076e 0C       		.byte	0xc
 4117 076f DD       		.byte	0xdd
 4118 0770 AD000000 		.4byte	0xad
 4119 0774 01       		.byte	0x1
 4120 0775 01       		.byte	0x1
 4121 0776 06       		.byte	0x6
 4122 0777 34       		.byte	0x34
 4123 0778 0F       		.uleb128 0xf
 4124 0779 660A0000 		.4byte	.LASF195
 4125 077d 0C       		.byte	0xc
 4126 077e DE       		.byte	0xde
 4127 077f AD000000 		.4byte	0xad
 4128 0783 01       		.byte	0x1
 4129 0784 01       		.byte	0x1
 4130 0785 05       		.byte	0x5
 4131 0786 34       		.byte	0x34
 4132 0787 0F       		.uleb128 0xf
 4133 0788 1C1A0000 		.4byte	.LASF196
 4134 078c 0C       		.byte	0xc
 4135 078d DF       		.byte	0xdf
 4136 078e AD000000 		.4byte	0xad
 4137 0792 01       		.byte	0x1
 4138 0793 01       		.byte	0x1
 4139 0794 04       		.byte	0x4
 4140 0795 34       		.byte	0x34
 4141 0796 0F       		.uleb128 0xf
 4142 0797 47040000 		.4byte	.LASF197
 4143 079b 0C       		.byte	0xc
 4144 079c E0       		.byte	0xe0
 4145 079d AD000000 		.4byte	0xad
 4146 07a1 01       		.byte	0x1
 4147 07a2 01       		.byte	0x1
 4148 07a3 03       		.byte	0x3
 4149 07a4 34       		.byte	0x34
 4150 07a5 11       		.uleb128 0x11
 4151 07a6 746F7000 		.ascii	"top\000"
 4152 07aa 0C       		.byte	0xc
 4153 07ab E1       		.byte	0xe1
 4154 07ac AD000000 		.4byte	0xad
 4155 07b0 01       		.byte	0x1
 4156 07b1 01       		.byte	0x1
 4157 07b2 02       		.byte	0x2
 4158 07b3 34       		.byte	0x34
 4159 07b4 0F       		.uleb128 0xf
 4160 07b5 46100000 		.4byte	.LASF198
 4161 07b9 0C       		.byte	0xc
 4162 07ba E2       		.byte	0xe2
 4163 07bb AD000000 		.4byte	0xad
 4164 07bf 01       		.byte	0x1
 4165 07c0 01       		.byte	0x1
 4166 07c1 01       		.byte	0x1
 4167 07c2 34       		.byte	0x34
 4168 07c3 0F       		.uleb128 0xf
 4169 07c4 180D0000 		.4byte	.LASF199
 4170 07c8 0C       		.byte	0xc
ARM GAS  C:\Users\strap\AppData\Local\Temp\cc7wbcEe.s 			page 102


 4171 07c9 E3       		.byte	0xe3
 4172 07ca AD000000 		.4byte	0xad
 4173 07ce 01       		.byte	0x1
 4174 07cf 01       		.byte	0x1
 4175 07d0 00       		.byte	0
 4176 07d1 34       		.byte	0x34
 4177 07d2 0F       		.uleb128 0xf
 4178 07d3 B1080000 		.4byte	.LASF200
 4179 07d7 0C       		.byte	0xc
 4180 07d8 E4       		.byte	0xe4
 4181 07d9 AD000000 		.4byte	0xad
 4182 07dd 01       		.byte	0x1
 4183 07de 01       		.byte	0x1
 4184 07df 07       		.byte	0x7
 4185 07e0 35       		.byte	0x35
 4186 07e1 0F       		.uleb128 0xf
 4187 07e2 32080000 		.4byte	.LASF201
 4188 07e6 0C       		.byte	0xc
 4189 07e7 E5       		.byte	0xe5
 4190 07e8 AD000000 		.4byte	0xad
 4191 07ec 01       		.byte	0x1
 4192 07ed 01       		.byte	0x1
 4193 07ee 06       		.byte	0x6
 4194 07ef 35       		.byte	0x35
 4195 07f0 0F       		.uleb128 0xf
 4196 07f1 DC070000 		.4byte	.LASF202
 4197 07f5 0C       		.byte	0xc
 4198 07f6 E7       		.byte	0xe7
 4199 07f7 58080000 		.4byte	0x858
 4200 07fb 01       		.byte	0x1
 4201 07fc 03       		.byte	0x3
 4202 07fd 03       		.byte	0x3
 4203 07fe 35       		.byte	0x35
 4204 07ff 0F       		.uleb128 0xf
 4205 0800 05180000 		.4byte	.LASF203
 4206 0804 0C       		.byte	0xc
 4207 0805 E8       		.byte	0xe8
 4208 0806 94080000 		.4byte	0x894
 4209 080a 01       		.byte	0x1
 4210 080b 02       		.byte	0x2
 4211 080c 01       		.byte	0x1
 4212 080d 35       		.byte	0x35
 4213 080e 0E       		.uleb128 0xe
 4214 080f 340A0000 		.4byte	.LASF204
 4215 0813 0C       		.byte	0xc
 4216 0814 EB       		.byte	0xeb
 4217 0815 FA000000 		.4byte	0xfa
 4218 0819 38       		.byte	0x38
 4219 081a 0E       		.uleb128 0xe
 4220 081b 12100000 		.4byte	.LASF205
 4221 081f 0C       		.byte	0xc
 4222 0820 EE       		.byte	0xee
 4223 0821 AD000000 		.4byte	0xad
 4224 0825 3C       		.byte	0x3c
 4225 0826 0E       		.uleb128 0xe
 4226 0827 D8010000 		.4byte	.LASF206
 4227 082b 0C       		.byte	0xc
ARM GAS  C:\Users\strap\AppData\Local\Temp\cc7wbcEe.s 			page 103


 4228 082c F0       		.byte	0xf0
 4229 082d 8D0A0000 		.4byte	0xa8d
 4230 0831 3D       		.byte	0x3d
 4231 0832 0E       		.uleb128 0xe
 4232 0833 A70B0000 		.4byte	.LASF207
 4233 0837 0C       		.byte	0xc
 4234 0838 F3       		.byte	0xf3
 4235 0839 4B0A0000 		.4byte	0xa4b
 4236 083d 40       		.byte	0x40
 4237 083e 0E       		.uleb128 0xe
 4238 083f 1C1C0000 		.4byte	.LASF208
 4239 0843 0C       		.byte	0xc
 4240 0844 F7       		.byte	0xf7
 4241 0845 FC000000 		.4byte	0xfc
 4242 0849 4C       		.byte	0x4c
 4243 084a 00       		.byte	0
 4244 084b 0B       		.uleb128 0xb
 4245 084c 04       		.byte	0x4
 4246 084d CA060000 		.4byte	0x6ca
 4247 0851 0B       		.uleb128 0xb
 4248 0852 04       		.byte	0x4
 4249 0853 57080000 		.4byte	0x857
 4250 0857 12       		.uleb128 0x12
 4251 0858 03       		.uleb128 0x3
 4252 0859 FC120000 		.4byte	.LASF209
 4253 085d 0D       		.byte	0xd
 4254 085e 3D       		.byte	0x3d
 4255 085f AD000000 		.4byte	0xad
 4256 0863 07       		.uleb128 0x7
 4257 0864 01       		.byte	0x1
 4258 0865 37000000 		.4byte	0x37
 4259 0869 0E       		.byte	0xe
 4260 086a 20       		.byte	0x20
 4261 086b 94080000 		.4byte	0x894
 4262 086f 08       		.uleb128 0x8
 4263 0870 83140000 		.4byte	.LASF210
 4264 0874 00       		.byte	0
 4265 0875 08       		.uleb128 0x8
 4266 0876 8D1A0000 		.4byte	.LASF211
 4267 087a 01       		.byte	0x1
 4268 087b 08       		.uleb128 0x8
 4269 087c BC160000 		.4byte	.LASF212
 4270 0880 02       		.byte	0x2
 4271 0881 08       		.uleb128 0x8
 4272 0882 4E0B0000 		.4byte	.LASF213
 4273 0886 03       		.byte	0x3
 4274 0887 08       		.uleb128 0x8
 4275 0888 B0150000 		.4byte	.LASF214
 4276 088c 20       		.byte	0x20
 4277 088d 08       		.uleb128 0x8
 4278 088e A0000000 		.4byte	.LASF215
 4279 0892 21       		.byte	0x21
 4280 0893 00       		.byte	0
 4281 0894 03       		.uleb128 0x3
 4282 0895 7F0A0000 		.4byte	.LASF216
 4283 0899 0E       		.byte	0xe
 4284 089a 2B       		.byte	0x2b
ARM GAS  C:\Users\strap\AppData\Local\Temp\cc7wbcEe.s 			page 104


 4285 089b AD000000 		.4byte	0xad
 4286 089f 03       		.uleb128 0x3
 4287 08a0 5B130000 		.4byte	.LASF217
 4288 08a4 0C       		.byte	0xc
 4289 08a5 42       		.byte	0x42
 4290 08a6 AD000000 		.4byte	0xad
 4291 08aa 03       		.uleb128 0x3
 4292 08ab 84010000 		.4byte	.LASF218
 4293 08af 0C       		.byte	0xc
 4294 08b0 4C       		.byte	0x4c
 4295 08b1 AD000000 		.4byte	0xad
 4296 08b5 03       		.uleb128 0x3
 4297 08b6 231D0000 		.4byte	.LASF219
 4298 08ba 0C       		.byte	0xc
 4299 08bb 52       		.byte	0x52
 4300 08bc C0080000 		.4byte	0x8c0
 4301 08c0 0B       		.uleb128 0xb
 4302 08c1 04       		.byte	0x4
 4303 08c2 C6080000 		.4byte	0x8c6
 4304 08c6 13       		.uleb128 0x13
 4305 08c7 AA080000 		.4byte	0x8aa
 4306 08cb DF080000 		.4byte	0x8df
 4307 08cf 14       		.uleb128 0x14
 4308 08d0 4B080000 		.4byte	0x84b
 4309 08d4 14       		.uleb128 0x14
 4310 08d5 B9060000 		.4byte	0x6b9
 4311 08d9 14       		.uleb128 0x14
 4312 08da 9F080000 		.4byte	0x89f
 4313 08de 00       		.byte	0
 4314 08df 03       		.uleb128 0x3
 4315 08e0 BE010000 		.4byte	.LASF220
 4316 08e4 0C       		.byte	0xc
 4317 08e5 6E       		.byte	0x6e
 4318 08e6 AD000000 		.4byte	0xad
 4319 08ea 03       		.uleb128 0x3
 4320 08eb 781C0000 		.4byte	.LASF221
 4321 08ef 0C       		.byte	0xc
 4322 08f0 75       		.byte	0x75
 4323 08f1 F5080000 		.4byte	0x8f5
 4324 08f5 0B       		.uleb128 0xb
 4325 08f6 04       		.byte	0x4
 4326 08f7 FB080000 		.4byte	0x8fb
 4327 08fb 15       		.uleb128 0x15
 4328 08fc 0B090000 		.4byte	0x90b
 4329 0900 14       		.uleb128 0x14
 4330 0901 4B080000 		.4byte	0x84b
 4331 0905 14       		.uleb128 0x14
 4332 0906 DF080000 		.4byte	0x8df
 4333 090a 00       		.byte	0
 4334 090b 07       		.uleb128 0x7
 4335 090c 01       		.byte	0x1
 4336 090d 37000000 		.4byte	0x37
 4337 0911 0C       		.byte	0xc
 4338 0912 7A       		.byte	0x7a
 4339 0913 B4090000 		.4byte	0x9b4
 4340 0917 08       		.uleb128 0x8
 4341 0918 53100000 		.4byte	.LASF222
ARM GAS  C:\Users\strap\AppData\Local\Temp\cc7wbcEe.s 			page 105


 4342 091c 00       		.byte	0
 4343 091d 08       		.uleb128 0x8
 4344 091e 1C110000 		.4byte	.LASF223
 4345 0922 01       		.byte	0x1
 4346 0923 08       		.uleb128 0x8
 4347 0924 D21C0000 		.4byte	.LASF224
 4348 0928 02       		.byte	0x2
 4349 0929 08       		.uleb128 0x8
 4350 092a 36140000 		.4byte	.LASF225
 4351 092e 03       		.byte	0x3
 4352 092f 08       		.uleb128 0x8
 4353 0930 C5000000 		.4byte	.LASF226
 4354 0934 04       		.byte	0x4
 4355 0935 08       		.uleb128 0x8
 4356 0936 4A1A0000 		.4byte	.LASF227
 4357 093a 05       		.byte	0x5
 4358 093b 08       		.uleb128 0x8
 4359 093c C0070000 		.4byte	.LASF228
 4360 0940 06       		.byte	0x6
 4361 0941 08       		.uleb128 0x8
 4362 0942 4A0C0000 		.4byte	.LASF229
 4363 0946 07       		.byte	0x7
 4364 0947 08       		.uleb128 0x8
 4365 0948 EC0C0000 		.4byte	.LASF230
 4366 094c 08       		.byte	0x8
 4367 094d 08       		.uleb128 0x8
 4368 094e 03040000 		.4byte	.LASF231
 4369 0952 09       		.byte	0x9
 4370 0953 08       		.uleb128 0x8
 4371 0954 81090000 		.4byte	.LASF232
 4372 0958 0A       		.byte	0xa
 4373 0959 08       		.uleb128 0x8
 4374 095a 96020000 		.4byte	.LASF233
 4375 095e 0B       		.byte	0xb
 4376 095f 08       		.uleb128 0x8
 4377 0960 74120000 		.4byte	.LASF234
 4378 0964 0C       		.byte	0xc
 4379 0965 08       		.uleb128 0x8
 4380 0966 C4130000 		.4byte	.LASF235
 4381 096a 0D       		.byte	0xd
 4382 096b 08       		.uleb128 0x8
 4383 096c 70140000 		.4byte	.LASF236
 4384 0970 0E       		.byte	0xe
 4385 0971 08       		.uleb128 0x8
 4386 0972 0F010000 		.4byte	.LASF237
 4387 0976 0F       		.byte	0xf
 4388 0977 08       		.uleb128 0x8
 4389 0978 86070000 		.4byte	.LASF238
 4390 097c 10       		.byte	0x10
 4391 097d 08       		.uleb128 0x8
 4392 097e 6F010000 		.4byte	.LASF239
 4393 0982 11       		.byte	0x11
 4394 0983 08       		.uleb128 0x8
 4395 0984 4F000000 		.4byte	.LASF240
 4396 0988 12       		.byte	0x12
 4397 0989 08       		.uleb128 0x8
 4398 098a EE130000 		.4byte	.LASF241
ARM GAS  C:\Users\strap\AppData\Local\Temp\cc7wbcEe.s 			page 106


 4399 098e 13       		.byte	0x13
 4400 098f 08       		.uleb128 0x8
 4401 0990 8C0F0000 		.4byte	.LASF242
 4402 0994 14       		.byte	0x14
 4403 0995 08       		.uleb128 0x8
 4404 0996 86020000 		.4byte	.LASF243
 4405 099a 15       		.byte	0x15
 4406 099b 08       		.uleb128 0x8
 4407 099c 070E0000 		.4byte	.LASF244
 4408 09a0 16       		.byte	0x16
 4409 09a1 08       		.uleb128 0x8
 4410 09a2 B4090000 		.4byte	.LASF245
 4411 09a6 17       		.byte	0x17
 4412 09a7 08       		.uleb128 0x8
 4413 09a8 C30F0000 		.4byte	.LASF246
 4414 09ac 18       		.byte	0x18
 4415 09ad 08       		.uleb128 0x8
 4416 09ae 880E0000 		.4byte	.LASF247
 4417 09b2 19       		.byte	0x19
 4418 09b3 00       		.byte	0
 4419 09b4 03       		.uleb128 0x3
 4420 09b5 97170000 		.4byte	.LASF248
 4421 09b9 0C       		.byte	0xc
 4422 09ba 9B       		.byte	0x9b
 4423 09bb AD000000 		.4byte	0xad
 4424 09bf 03       		.uleb128 0x3
 4425 09c0 7E080000 		.4byte	.LASF249
 4426 09c4 0C       		.byte	0xc
 4427 09c5 9D       		.byte	0x9d
 4428 09c6 CA090000 		.4byte	0x9ca
 4429 09ca 0B       		.uleb128 0xb
 4430 09cb 04       		.byte	0x4
 4431 09cc D0090000 		.4byte	0x9d0
 4432 09d0 13       		.uleb128 0x13
 4433 09d1 41010000 		.4byte	0x141
 4434 09d5 E9090000 		.4byte	0x9e9
 4435 09d9 14       		.uleb128 0x14
 4436 09da 4B080000 		.4byte	0x84b
 4437 09de 14       		.uleb128 0x14
 4438 09df B4090000 		.4byte	0x9b4
 4439 09e3 14       		.uleb128 0x14
 4440 09e4 FA000000 		.4byte	0xfa
 4441 09e8 00       		.byte	0
 4442 09e9 09       		.uleb128 0x9
 4443 09ea 0C       		.byte	0xc
 4444 09eb 0C       		.byte	0xc
 4445 09ec A0       		.byte	0xa0
 4446 09ed 400A0000 		.4byte	0xa40
 4447 09f1 0E       		.uleb128 0xe
 4448 09f2 8C180000 		.4byte	.LASF250
 4449 09f6 0C       		.byte	0xc
 4450 09f7 A1       		.byte	0xa1
 4451 09f8 400A0000 		.4byte	0xa40
 4452 09fc 00       		.byte	0
 4453 09fd 0E       		.uleb128 0xe
 4454 09fe 52170000 		.4byte	.LASF251
 4455 0a02 0C       		.byte	0xc
ARM GAS  C:\Users\strap\AppData\Local\Temp\cc7wbcEe.s 			page 107


 4456 0a03 A2       		.byte	0xa2
 4457 0a04 EF000000 		.4byte	0xef
 4458 0a08 04       		.byte	0x4
 4459 0a09 0E       		.uleb128 0xe
 4460 0a0a 1E090000 		.4byte	.LASF252
 4461 0a0e 0C       		.byte	0xc
 4462 0a0f A3       		.byte	0xa3
 4463 0a10 EF000000 		.4byte	0xef
 4464 0a14 06       		.byte	0x6
 4465 0a15 0E       		.uleb128 0xe
 4466 0a16 86100000 		.4byte	.LASF253
 4467 0a1a 0C       		.byte	0xc
 4468 0a1b A4       		.byte	0xa4
 4469 0a1c 17020000 		.4byte	0x217
 4470 0a20 08       		.byte	0x8
 4471 0a21 0F       		.uleb128 0xf
 4472 0a22 D5110000 		.4byte	.LASF254
 4473 0a26 0C       		.byte	0xc
 4474 0a27 A5       		.byte	0xa5
 4475 0a28 AD000000 		.4byte	0xad
 4476 0a2c 01       		.byte	0x1
 4477 0a2d 01       		.byte	0x1
 4478 0a2e 07       		.byte	0x7
 4479 0a2f 09       		.byte	0x9
 4480 0a30 0F       		.uleb128 0xf
 4481 0a31 93150000 		.4byte	.LASF255
 4482 0a35 0C       		.byte	0xc
 4483 0a36 A6       		.byte	0xa6
 4484 0a37 AD000000 		.4byte	0xad
 4485 0a3b 01       		.byte	0x1
 4486 0a3c 01       		.byte	0x1
 4487 0a3d 06       		.byte	0x6
 4488 0a3e 09       		.byte	0x9
 4489 0a3f 00       		.byte	0
 4490 0a40 0B       		.uleb128 0xb
 4491 0a41 04       		.byte	0x4
 4492 0a42 460A0000 		.4byte	0xa46
 4493 0a46 0C       		.uleb128 0xc
 4494 0a47 CA060000 		.4byte	0x6ca
 4495 0a4b 03       		.uleb128 0x3
 4496 0a4c A7140000 		.4byte	.LASF256
 4497 0a50 0C       		.byte	0xc
 4498 0a51 A8       		.byte	0xa8
 4499 0a52 E9090000 		.4byte	0x9e9
 4500 0a56 07       		.uleb128 0x7
 4501 0a57 01       		.byte	0x1
 4502 0a58 37000000 		.4byte	0x37
 4503 0a5c 0C       		.byte	0xc
 4504 0a5d AC       		.byte	0xac
 4505 0a5e 8D0A0000 		.4byte	0xa8d
 4506 0a62 08       		.uleb128 0x8
 4507 0a63 1A130000 		.4byte	.LASF257
 4508 0a67 00       		.byte	0
 4509 0a68 08       		.uleb128 0x8
 4510 0a69 3A180000 		.4byte	.LASF258
 4511 0a6d 01       		.byte	0x1
 4512 0a6e 08       		.uleb128 0x8
ARM GAS  C:\Users\strap\AppData\Local\Temp\cc7wbcEe.s 			page 108


 4513 0a6f E5070000 		.4byte	.LASF259
 4514 0a73 02       		.byte	0x2
 4515 0a74 08       		.uleb128 0x8
 4516 0a75 B6000000 		.4byte	.LASF260
 4517 0a79 04       		.byte	0x4
 4518 0a7a 08       		.uleb128 0x8
 4519 0a7b DC0F0000 		.4byte	.LASF261
 4520 0a7f 08       		.byte	0x8
 4521 0a80 08       		.uleb128 0x8
 4522 0a81 4F180000 		.4byte	.LASF262
 4523 0a85 10       		.byte	0x10
 4524 0a86 08       		.uleb128 0x8
 4525 0a87 2B150000 		.4byte	.LASF263
 4526 0a8b 20       		.byte	0x20
 4527 0a8c 00       		.byte	0
 4528 0a8d 03       		.uleb128 0x3
 4529 0a8e 86040000 		.4byte	.LASF264
 4530 0a92 0C       		.byte	0xc
 4531 0a93 C3       		.byte	0xc3
 4532 0a94 AD000000 		.4byte	0xad
 4533 0a98 03       		.uleb128 0x3
 4534 0a99 7F170000 		.4byte	.LASF265
 4535 0a9d 0C       		.byte	0xc
 4536 0a9e FA       		.byte	0xfa
 4537 0a9f CA060000 		.4byte	0x6ca
 4538 0aa3 07       		.uleb128 0x7
 4539 0aa4 01       		.byte	0x1
 4540 0aa5 37000000 		.4byte	0x37
 4541 0aa9 0C       		.byte	0xc
 4542 0aaa FC       		.byte	0xfc
 4543 0aab C80A0000 		.4byte	0xac8
 4544 0aaf 08       		.uleb128 0x8
 4545 0ab0 770E0000 		.4byte	.LASF266
 4546 0ab4 00       		.byte	0
 4547 0ab5 08       		.uleb128 0x8
 4548 0ab6 D2040000 		.4byte	.LASF267
 4549 0aba 01       		.byte	0x1
 4550 0abb 08       		.uleb128 0x8
 4551 0abc 38110000 		.4byte	.LASF268
 4552 0ac0 40       		.byte	0x40
 4553 0ac1 08       		.uleb128 0x8
 4554 0ac2 B4130000 		.4byte	.LASF269
 4555 0ac6 FF       		.byte	0xff
 4556 0ac7 00       		.byte	0
 4557 0ac8 16       		.uleb128 0x16
 4558 0ac9 08       		.byte	0x8
 4559 0aca 0C       		.byte	0xc
 4560 0acb 1001     		.2byte	0x110
 4561 0acd EC0A0000 		.4byte	0xaec
 4562 0ad1 17       		.uleb128 0x17
 4563 0ad2 E61C0000 		.4byte	.LASF270
 4564 0ad6 0C       		.byte	0xc
 4565 0ad7 1101     		.2byte	0x111
 4566 0ad9 AD000000 		.4byte	0xad
 4567 0add 00       		.byte	0
 4568 0ade 17       		.uleb128 0x17
 4569 0adf C5030000 		.4byte	.LASF271
ARM GAS  C:\Users\strap\AppData\Local\Temp\cc7wbcEe.s 			page 109


 4570 0ae3 0C       		.byte	0xc
 4571 0ae4 1201     		.2byte	0x112
 4572 0ae6 EC0A0000 		.4byte	0xaec
 4573 0aea 04       		.byte	0x4
 4574 0aeb 00       		.byte	0
 4575 0aec 0B       		.uleb128 0xb
 4576 0aed 04       		.byte	0x4
 4577 0aee 64060000 		.4byte	0x664
 4578 0af2 06       		.uleb128 0x6
 4579 0af3 DA080000 		.4byte	.LASF272
 4580 0af7 0C       		.byte	0xc
 4581 0af8 1301     		.2byte	0x113
 4582 0afa C80A0000 		.4byte	0xac8
 4583 0afe 07       		.uleb128 0x7
 4584 0aff 01       		.byte	0x1
 4585 0b00 37000000 		.4byte	0x37
 4586 0b04 0F       		.byte	0xf
 4587 0b05 1F       		.byte	0x1f
 4588 0b06 590B0000 		.4byte	0xb59
 4589 0b0a 08       		.uleb128 0x8
 4590 0b0b 6C0D0000 		.4byte	.LASF273
 4591 0b0f 00       		.byte	0
 4592 0b10 08       		.uleb128 0x8
 4593 0b11 261C0000 		.4byte	.LASF274
 4594 0b15 01       		.byte	0x1
 4595 0b16 08       		.uleb128 0x8
 4596 0b17 380F0000 		.4byte	.LASF275
 4597 0b1b 02       		.byte	0x2
 4598 0b1c 08       		.uleb128 0x8
 4599 0b1d B81A0000 		.4byte	.LASF276
 4600 0b21 03       		.byte	0x3
 4601 0b22 08       		.uleb128 0x8
 4602 0b23 FB090000 		.4byte	.LASF277
 4603 0b27 04       		.byte	0x4
 4604 0b28 08       		.uleb128 0x8
 4605 0b29 42010000 		.4byte	.LASF278
 4606 0b2d 05       		.byte	0x5
 4607 0b2e 08       		.uleb128 0x8
 4608 0b2f E10D0000 		.4byte	.LASF279
 4609 0b33 06       		.byte	0x6
 4610 0b34 08       		.uleb128 0x8
 4611 0b35 91040000 		.4byte	.LASF280
 4612 0b39 07       		.byte	0x7
 4613 0b3a 08       		.uleb128 0x8
 4614 0b3b 3F080000 		.4byte	.LASF281
 4615 0b3f 08       		.byte	0x8
 4616 0b40 08       		.uleb128 0x8
 4617 0b41 A4120000 		.4byte	.LASF282
 4618 0b45 09       		.byte	0x9
 4619 0b46 08       		.uleb128 0x8
 4620 0b47 471B0000 		.4byte	.LASF283
 4621 0b4b 0A       		.byte	0xa
 4622 0b4c 08       		.uleb128 0x8
 4623 0b4d 88170000 		.4byte	.LASF284
 4624 0b51 0B       		.byte	0xb
 4625 0b52 08       		.uleb128 0x8
 4626 0b53 76070000 		.4byte	.LASF285
ARM GAS  C:\Users\strap\AppData\Local\Temp\cc7wbcEe.s 			page 110


 4627 0b57 0C       		.byte	0xc
 4628 0b58 00       		.byte	0
 4629 0b59 03       		.uleb128 0x3
 4630 0b5a C4190000 		.4byte	.LASF286
 4631 0b5e 0F       		.byte	0xf
 4632 0b5f 55       		.byte	0x55
 4633 0b60 AD000000 		.4byte	0xad
 4634 0b64 07       		.uleb128 0x7
 4635 0b65 01       		.byte	0x1
 4636 0b66 37000000 		.4byte	0x37
 4637 0b6a 0F       		.byte	0xf
 4638 0b6b 5A       		.byte	0x5a
 4639 0b6c 8F0B0000 		.4byte	0xb8f
 4640 0b70 08       		.uleb128 0x8
 4641 0b71 D0190000 		.4byte	.LASF287
 4642 0b75 00       		.byte	0
 4643 0b76 08       		.uleb128 0x8
 4644 0b77 E31A0000 		.4byte	.LASF288
 4645 0b7b 01       		.byte	0x1
 4646 0b7c 08       		.uleb128 0x8
 4647 0b7d 710C0000 		.4byte	.LASF289
 4648 0b81 02       		.byte	0x2
 4649 0b82 08       		.uleb128 0x8
 4650 0b83 EC040000 		.4byte	.LASF290
 4651 0b87 03       		.byte	0x3
 4652 0b88 08       		.uleb128 0x8
 4653 0b89 87120000 		.4byte	.LASF291
 4654 0b8d 04       		.byte	0x4
 4655 0b8e 00       		.byte	0
 4656 0b8f 03       		.uleb128 0x3
 4657 0b90 C4150000 		.4byte	.LASF292
 4658 0b94 0F       		.byte	0xf
 4659 0b95 62       		.byte	0x62
 4660 0b96 AD000000 		.4byte	0xad
 4661 0b9a 09       		.uleb128 0x9
 4662 0b9b 02       		.byte	0x2
 4663 0b9c 0F       		.byte	0xf
 4664 0b9d 64       		.byte	0x64
 4665 0b9e EE0B0000 		.4byte	0xbee
 4666 0ba2 0F       		.uleb128 0xf
 4667 0ba3 3F100000 		.4byte	.LASF293
 4668 0ba7 0F       		.byte	0xf
 4669 0ba8 67       		.byte	0x67
 4670 0ba9 590B0000 		.4byte	0xb59
 4671 0bad 01       		.byte	0x1
 4672 0bae 04       		.byte	0x4
 4673 0baf 04       		.byte	0x4
 4674 0bb0 00       		.byte	0
 4675 0bb1 0F       		.uleb128 0xf
 4676 0bb2 CC030000 		.4byte	.LASF294
 4677 0bb6 0F       		.byte	0xf
 4678 0bb7 68       		.byte	0x68
 4679 0bb8 8F0B0000 		.4byte	0xb8f
 4680 0bbc 01       		.byte	0x1
 4681 0bbd 02       		.byte	0x2
 4682 0bbe 02       		.byte	0x2
 4683 0bbf 00       		.byte	0
ARM GAS  C:\Users\strap\AppData\Local\Temp\cc7wbcEe.s 			page 111


 4684 0bc0 0F       		.uleb128 0xf
 4685 0bc1 57170000 		.4byte	.LASF295
 4686 0bc5 0F       		.byte	0xf
 4687 0bc6 69       		.byte	0x69
 4688 0bc7 8F0B0000 		.4byte	0xb8f
 4689 0bcb 01       		.byte	0x1
 4690 0bcc 02       		.byte	0x2
 4691 0bcd 00       		.byte	0
 4692 0bce 00       		.byte	0
 4693 0bcf 0F       		.uleb128 0xf
 4694 0bd0 3F070000 		.4byte	.LASF296
 4695 0bd4 0F       		.byte	0xf
 4696 0bd5 6A       		.byte	0x6a
 4697 0bd6 8F0B0000 		.4byte	0xb8f
 4698 0bda 01       		.byte	0x1
 4699 0bdb 02       		.byte	0x2
 4700 0bdc 06       		.byte	0x6
 4701 0bdd 01       		.byte	0x1
 4702 0bde 0F       		.uleb128 0xf
 4703 0bdf 31160000 		.4byte	.LASF297
 4704 0be3 0F       		.byte	0xf
 4705 0be4 6B       		.byte	0x6b
 4706 0be5 8F0B0000 		.4byte	0xb8f
 4707 0be9 01       		.byte	0x1
 4708 0bea 02       		.byte	0x2
 4709 0beb 04       		.byte	0x4
 4710 0bec 01       		.byte	0x1
 4711 0bed 00       		.byte	0
 4712 0bee 03       		.uleb128 0x3
 4713 0bef 01110000 		.4byte	.LASF298
 4714 0bf3 0F       		.byte	0xf
 4715 0bf4 6C       		.byte	0x6c
 4716 0bf5 9A0B0000 		.4byte	0xb9a
 4717 0bf9 07       		.uleb128 0x7
 4718 0bfa 01       		.byte	0x1
 4719 0bfb 37000000 		.4byte	0x37
 4720 0bff 0F       		.byte	0xf
 4721 0c00 6F       		.byte	0x6f
 4722 0c01 180C0000 		.4byte	0xc18
 4723 0c05 08       		.uleb128 0x8
 4724 0c06 54080000 		.4byte	.LASF299
 4725 0c0a 00       		.byte	0
 4726 0c0b 08       		.uleb128 0x8
 4727 0c0c 011A0000 		.4byte	.LASF300
 4728 0c10 01       		.byte	0x1
 4729 0c11 08       		.uleb128 0x8
 4730 0c12 46190000 		.4byte	.LASF301
 4731 0c16 40       		.byte	0x40
 4732 0c17 00       		.byte	0
 4733 0c18 07       		.uleb128 0x7
 4734 0c19 02       		.byte	0x2
 4735 0c1a 50000000 		.4byte	0x50
 4736 0c1e 10       		.byte	0x10
 4737 0c1f 22       		.byte	0x22
 4738 0c20 A40C0000 		.4byte	0xca4
 4739 0c24 08       		.uleb128 0x8
 4740 0c25 6C1B0000 		.4byte	.LASF302
ARM GAS  C:\Users\strap\AppData\Local\Temp\cc7wbcEe.s 			page 112


 4741 0c29 00       		.byte	0
 4742 0c2a 08       		.uleb128 0x8
 4743 0c2b 371C0000 		.4byte	.LASF303
 4744 0c2f 01       		.byte	0x1
 4745 0c30 08       		.uleb128 0x8
 4746 0c31 1E030000 		.4byte	.LASF304
 4747 0c35 02       		.byte	0x2
 4748 0c36 08       		.uleb128 0x8
 4749 0c37 43020000 		.4byte	.LASF305
 4750 0c3b 03       		.byte	0x3
 4751 0c3c 08       		.uleb128 0x8
 4752 0c3d CD150000 		.4byte	.LASF306
 4753 0c41 04       		.byte	0x4
 4754 0c42 08       		.uleb128 0x8
 4755 0c43 170E0000 		.4byte	.LASF307
 4756 0c47 05       		.byte	0x5
 4757 0c48 08       		.uleb128 0x8
 4758 0c49 620B0000 		.4byte	.LASF308
 4759 0c4d 06       		.byte	0x6
 4760 0c4e 08       		.uleb128 0x8
 4761 0c4f 1E0B0000 		.4byte	.LASF309
 4762 0c53 07       		.byte	0x7
 4763 0c54 08       		.uleb128 0x8
 4764 0c55 FD0E0000 		.4byte	.LASF310
 4765 0c59 08       		.byte	0x8
 4766 0c5a 08       		.uleb128 0x8
 4767 0c5b E2110000 		.4byte	.LASF311
 4768 0c5f 09       		.byte	0x9
 4769 0c60 08       		.uleb128 0x8
 4770 0c61 42150000 		.4byte	.LASF312
 4771 0c65 0A       		.byte	0xa
 4772 0c66 08       		.uleb128 0x8
 4773 0c67 9F190000 		.4byte	.LASF313
 4774 0c6b 0B       		.byte	0xb
 4775 0c6c 08       		.uleb128 0x8
 4776 0c6d 3C1A0000 		.4byte	.LASF314
 4777 0c71 0C       		.byte	0xc
 4778 0c72 08       		.uleb128 0x8
 4779 0c73 D9000000 		.4byte	.LASF315
 4780 0c77 0D       		.byte	0xd
 4781 0c78 08       		.uleb128 0x8
 4782 0c79 04030000 		.4byte	.LASF316
 4783 0c7d 0E       		.byte	0xe
 4784 0c7e 08       		.uleb128 0x8
 4785 0c7f A20D0000 		.4byte	.LASF317
 4786 0c83 0F       		.byte	0xf
 4787 0c84 08       		.uleb128 0x8
 4788 0c85 25000000 		.4byte	.LASF318
 4789 0c89 10       		.byte	0x10
 4790 0c8a 08       		.uleb128 0x8
 4791 0c8b FB110000 		.4byte	.LASF319
 4792 0c8f 11       		.byte	0x11
 4793 0c90 08       		.uleb128 0x8
 4794 0c91 0D120000 		.4byte	.LASF320
 4795 0c95 12       		.byte	0x12
 4796 0c96 08       		.uleb128 0x8
 4797 0c97 73000000 		.4byte	.LASF321
ARM GAS  C:\Users\strap\AppData\Local\Temp\cc7wbcEe.s 			page 113


 4798 0c9b 12       		.byte	0x12
 4799 0c9c 0D       		.uleb128 0xd
 4800 0c9d 6C130000 		.4byte	.LASF322
 4801 0ca1 FFFF     		.2byte	0xffff
 4802 0ca3 00       		.byte	0
 4803 0ca4 0B       		.uleb128 0xb
 4804 0ca5 04       		.byte	0x4
 4805 0ca6 980A0000 		.4byte	0xa98
 4806 0caa 18       		.uleb128 0x18
 4807 0cab BF0E0000 		.4byte	.LASF323
 4808 0caf 03       		.byte	0x3
 4809 0cb0 D6       		.byte	0xd6
 4810 0cb1 FA000000 		.4byte	0xfa
 4811 0cb5 03       		.byte	0x3
 4812 0cb6 F00C0000 		.4byte	0xcf0
 4813 0cba 19       		.uleb128 0x19
 4814 0cbb 64737400 		.ascii	"dst\000"
 4815 0cbf 03       		.byte	0x3
 4816 0cc0 D6       		.byte	0xd6
 4817 0cc1 FA000000 		.4byte	0xfa
 4818 0cc5 19       		.uleb128 0x19
 4819 0cc6 73726300 		.ascii	"src\000"
 4820 0cca 03       		.byte	0x3
 4821 0ccb D6       		.byte	0xd6
 4822 0ccc 51080000 		.4byte	0x851
 4823 0cd0 19       		.uleb128 0x19
 4824 0cd1 6C656E00 		.ascii	"len\000"
 4825 0cd5 03       		.byte	0x3
 4826 0cd6 D6       		.byte	0xd6
 4827 0cd7 08010000 		.4byte	0x108
 4828 0cdb 1A       		.uleb128 0x1a
 4829 0cdc 643800   		.ascii	"d8\000"
 4830 0cdf 03       		.byte	0x3
 4831 0ce0 D8       		.byte	0xd8
 4832 0ce1 92040000 		.4byte	0x492
 4833 0ce5 1A       		.uleb128 0x1a
 4834 0ce6 733800   		.ascii	"s8\000"
 4835 0ce9 03       		.byte	0x3
 4836 0cea D9       		.byte	0xd9
 4837 0ceb 29020000 		.4byte	0x229
 4838 0cef 00       		.byte	0
 4839 0cf0 18       		.uleb128 0x18
 4840 0cf1 CC1B0000 		.4byte	.LASF324
 4841 0cf5 02       		.byte	0x2
 4842 0cf6 72       		.byte	0x72
 4843 0cf7 A3040000 		.4byte	0x4a3
 4844 0cfb 03       		.byte	0x3
 4845 0cfc 170D0000 		.4byte	0xd17
 4846 0d00 19       		.uleb128 0x19
 4847 0d01 6F626A00 		.ascii	"obj\000"
 4848 0d05 02       		.byte	0x2
 4849 0d06 72       		.byte	0x72
 4850 0d07 170D0000 		.4byte	0xd17
 4851 0d0b 1B       		.uleb128 0x1b
 4852 0d0c E61C0000 		.4byte	.LASF270
 4853 0d10 02       		.byte	0x2
 4854 0d11 72       		.byte	0x72
ARM GAS  C:\Users\strap\AppData\Local\Temp\cc7wbcEe.s 			page 114


 4855 0d12 AD000000 		.4byte	0xad
 4856 0d16 00       		.byte	0
 4857 0d17 0B       		.uleb128 0xb
 4858 0d18 04       		.byte	0x4
 4859 0d19 1D0D0000 		.4byte	0xd1d
 4860 0d1d 0C       		.uleb128 0xc
 4861 0d1e 980A0000 		.4byte	0xa98
 4862 0d22 18       		.uleb128 0x18
 4863 0d23 9D060000 		.4byte	.LASF325
 4864 0d27 02       		.byte	0x2
 4865 0d28 6E       		.byte	0x6e
 4866 0d29 A3040000 		.4byte	0x4a3
 4867 0d2d 03       		.byte	0x3
 4868 0d2e 490D0000 		.4byte	0xd49
 4869 0d32 19       		.uleb128 0x19
 4870 0d33 6F626A00 		.ascii	"obj\000"
 4871 0d37 02       		.byte	0x2
 4872 0d38 6E       		.byte	0x6e
 4873 0d39 170D0000 		.4byte	0xd17
 4874 0d3d 1B       		.uleb128 0x1b
 4875 0d3e E61C0000 		.4byte	.LASF270
 4876 0d42 02       		.byte	0x2
 4877 0d43 6E       		.byte	0x6e
 4878 0d44 AD000000 		.4byte	0xad
 4879 0d48 00       		.byte	0
 4880 0d49 18       		.uleb128 0x18
 4881 0d4a C30A0000 		.4byte	.LASF326
 4882 0d4e 02       		.byte	0x2
 4883 0d4f 70       		.byte	0x70
 4884 0d50 A3040000 		.4byte	0x4a3
 4885 0d54 03       		.byte	0x3
 4886 0d55 700D0000 		.4byte	0xd70
 4887 0d59 19       		.uleb128 0x19
 4888 0d5a 6F626A00 		.ascii	"obj\000"
 4889 0d5e 02       		.byte	0x2
 4890 0d5f 70       		.byte	0x70
 4891 0d60 170D0000 		.4byte	0xd17
 4892 0d64 1B       		.uleb128 0x1b
 4893 0d65 E61C0000 		.4byte	.LASF270
 4894 0d69 02       		.byte	0x2
 4895 0d6a 70       		.byte	0x70
 4896 0d6b AD000000 		.4byte	0xad
 4897 0d6f 00       		.byte	0
 4898 0d70 18       		.uleb128 0x18
 4899 0d71 98130000 		.4byte	.LASF327
 4900 0d75 02       		.byte	0x2
 4901 0d76 6F       		.byte	0x6f
 4902 0d77 A3040000 		.4byte	0x4a3
 4903 0d7b 03       		.byte	0x3
 4904 0d7c 970D0000 		.4byte	0xd97
 4905 0d80 19       		.uleb128 0x19
 4906 0d81 6F626A00 		.ascii	"obj\000"
 4907 0d85 02       		.byte	0x2
 4908 0d86 6F       		.byte	0x6f
 4909 0d87 170D0000 		.4byte	0xd17
 4910 0d8b 1B       		.uleb128 0x1b
 4911 0d8c E61C0000 		.4byte	.LASF270
ARM GAS  C:\Users\strap\AppData\Local\Temp\cc7wbcEe.s 			page 115


 4912 0d90 02       		.byte	0x2
 4913 0d91 6F       		.byte	0x6f
 4914 0d92 AD000000 		.4byte	0xad
 4915 0d96 00       		.byte	0
 4916 0d97 18       		.uleb128 0x18
 4917 0d98 40130000 		.4byte	.LASF328
 4918 0d9c 02       		.byte	0x2
 4919 0d9d 71       		.byte	0x71
 4920 0d9e A3040000 		.4byte	0x4a3
 4921 0da2 03       		.byte	0x3
 4922 0da3 BE0D0000 		.4byte	0xdbe
 4923 0da7 19       		.uleb128 0x19
 4924 0da8 6F626A00 		.ascii	"obj\000"
 4925 0dac 02       		.byte	0x2
 4926 0dad 71       		.byte	0x71
 4927 0dae 170D0000 		.4byte	0xd17
 4928 0db2 1B       		.uleb128 0x1b
 4929 0db3 E61C0000 		.4byte	.LASF270
 4930 0db7 02       		.byte	0x2
 4931 0db8 71       		.byte	0x71
 4932 0db9 AD000000 		.4byte	0xad
 4933 0dbd 00       		.byte	0
 4934 0dbe 1C       		.uleb128 0x1c
 4935 0dbf A4080000 		.4byte	.LASF436
 4936 0dc3 04       		.byte	0x4
 4937 0dc4 64       		.byte	0x64
 4938 0dc5 03       		.byte	0x3
 4939 0dc6 E10D0000 		.4byte	0xde1
 4940 0dca 1B       		.uleb128 0x1b
 4941 0dcb B7160000 		.4byte	.LASF329
 4942 0dcf 04       		.byte	0x4
 4943 0dd0 64       		.byte	0x64
 4944 0dd1 C4060000 		.4byte	0x6c4
 4945 0dd5 19       		.uleb128 0x19
 4946 0dd6 73726300 		.ascii	"src\000"
 4947 0dda 04       		.byte	0x4
 4948 0ddb 64       		.byte	0x64
 4949 0ddc B9060000 		.4byte	0x6b9
 4950 0de0 00       		.byte	0
 4951 0de1 18       		.uleb128 0x18
 4952 0de2 F2000000 		.4byte	.LASF330
 4953 0de6 02       		.byte	0x2
 4954 0de7 75       		.byte	0x75
 4955 0de8 A3040000 		.4byte	0x4a3
 4956 0dec 03       		.byte	0x3
 4957 0ded 080E0000 		.4byte	0xe08
 4958 0df1 19       		.uleb128 0x19
 4959 0df2 6F626A00 		.ascii	"obj\000"
 4960 0df6 02       		.byte	0x2
 4961 0df7 75       		.byte	0x75
 4962 0df8 170D0000 		.4byte	0xd17
 4963 0dfc 1B       		.uleb128 0x1b
 4964 0dfd E61C0000 		.4byte	.LASF270
 4965 0e01 02       		.byte	0x2
 4966 0e02 75       		.byte	0x75
 4967 0e03 AD000000 		.4byte	0xad
 4968 0e07 00       		.byte	0
ARM GAS  C:\Users\strap\AppData\Local\Temp\cc7wbcEe.s 			page 116


 4969 0e08 18       		.uleb128 0x18
 4970 0e09 C8100000 		.4byte	.LASF331
 4971 0e0d 02       		.byte	0x2
 4972 0e0e 76       		.byte	0x76
 4973 0e0f A3040000 		.4byte	0x4a3
 4974 0e13 03       		.byte	0x3
 4975 0e14 2F0E0000 		.4byte	0xe2f
 4976 0e18 19       		.uleb128 0x19
 4977 0e19 6F626A00 		.ascii	"obj\000"
 4978 0e1d 02       		.byte	0x2
 4979 0e1e 76       		.byte	0x76
 4980 0e1f 170D0000 		.4byte	0xd17
 4981 0e23 1B       		.uleb128 0x1b
 4982 0e24 E61C0000 		.4byte	.LASF270
 4983 0e28 02       		.byte	0x2
 4984 0e29 76       		.byte	0x76
 4985 0e2a AD000000 		.4byte	0xad
 4986 0e2e 00       		.byte	0
 4987 0e2f 18       		.uleb128 0x18
 4988 0e30 EB1C0000 		.4byte	.LASF332
 4989 0e34 02       		.byte	0x2
 4990 0e35 73       		.byte	0x73
 4991 0e36 A3040000 		.4byte	0x4a3
 4992 0e3a 03       		.byte	0x3
 4993 0e3b 560E0000 		.4byte	0xe56
 4994 0e3f 19       		.uleb128 0x19
 4995 0e40 6F626A00 		.ascii	"obj\000"
 4996 0e44 02       		.byte	0x2
 4997 0e45 73       		.byte	0x73
 4998 0e46 170D0000 		.4byte	0xd17
 4999 0e4a 1B       		.uleb128 0x1b
 5000 0e4b E61C0000 		.4byte	.LASF270
 5001 0e4f 02       		.byte	0x2
 5002 0e50 73       		.byte	0x73
 5003 0e51 AD000000 		.4byte	0xad
 5004 0e55 00       		.byte	0
 5005 0e56 18       		.uleb128 0x18
 5006 0e57 830D0000 		.4byte	.LASF333
 5007 0e5b 02       		.byte	0x2
 5008 0e5c 74       		.byte	0x74
 5009 0e5d A3040000 		.4byte	0x4a3
 5010 0e61 03       		.byte	0x3
 5011 0e62 7D0E0000 		.4byte	0xe7d
 5012 0e66 19       		.uleb128 0x19
 5013 0e67 6F626A00 		.ascii	"obj\000"
 5014 0e6b 02       		.byte	0x2
 5015 0e6c 74       		.byte	0x74
 5016 0e6d 170D0000 		.4byte	0xd17
 5017 0e71 1B       		.uleb128 0x1b
 5018 0e72 E61C0000 		.4byte	.LASF270
 5019 0e76 02       		.byte	0x2
 5020 0e77 74       		.byte	0x74
 5021 0e78 AD000000 		.4byte	0xad
 5022 0e7c 00       		.byte	0
 5023 0e7d 18       		.uleb128 0x18
 5024 0e7e DC190000 		.4byte	.LASF334
 5025 0e82 04       		.byte	0x4
ARM GAS  C:\Users\strap\AppData\Local\Temp\cc7wbcEe.s 			page 117


 5026 0e83 6E       		.byte	0x6e
 5027 0e84 EF000000 		.4byte	0xef
 5028 0e88 03       		.byte	0x3
 5029 0e89 990E0000 		.4byte	0xe99
 5030 0e8d 1B       		.uleb128 0x1b
 5031 0e8e FC040000 		.4byte	.LASF335
 5032 0e92 04       		.byte	0x4
 5033 0e93 6E       		.byte	0x6e
 5034 0e94 B9060000 		.4byte	0x6b9
 5035 0e98 00       		.byte	0
 5036 0e99 18       		.uleb128 0x18
 5037 0e9a 9D150000 		.4byte	.LASF336
 5038 0e9e 04       		.byte	0x4
 5039 0e9f 78       		.byte	0x78
 5040 0ea0 EF000000 		.4byte	0xef
 5041 0ea4 03       		.byte	0x3
 5042 0ea5 B50E0000 		.4byte	0xeb5
 5043 0ea9 1B       		.uleb128 0x1b
 5044 0eaa FC040000 		.4byte	.LASF335
 5045 0eae 04       		.byte	0x4
 5046 0eaf 78       		.byte	0x78
 5047 0eb0 B9060000 		.4byte	0x6b9
 5048 0eb4 00       		.byte	0
 5049 0eb5 1D       		.uleb128 0x1d
 5050 0eb6 0C170000 		.4byte	.LASF387
 5051 0eba 01       		.byte	0x1
 5052 0ebb 2401     		.2byte	0x124
 5053 0ebd EC0A0000 		.4byte	0xaec
 5054 0ec1 00000000 		.4byte	.LFB339
 5055 0ec5 0A000000 		.4byte	.LFE339-.LFB339
 5056 0ec9 01       		.uleb128 0x1
 5057 0eca 9C       		.byte	0x9c
 5058 0ecb FE0E0000 		.4byte	0xefe
 5059 0ecf 1E       		.uleb128 0x1e
 5060 0ed0 19030000 		.4byte	.LASF337
 5061 0ed4 01       		.byte	0x1
 5062 0ed5 2401     		.2byte	0x124
 5063 0ed7 A40C0000 		.4byte	0xca4
 5064 0edb 00000000 		.4byte	.LLST0
 5065 0edf 1F       		.uleb128 0x1f
 5066 0ee0 B9020000 		.4byte	.LASF338
 5067 0ee4 01       		.byte	0x1
 5068 0ee5 2401     		.2byte	0x124
 5069 0ee7 AD000000 		.4byte	0xad
 5070 0eeb 01       		.uleb128 0x1
 5071 0eec 51       		.byte	0x51
 5072 0eed 20       		.uleb128 0x20
 5073 0eee 06140000 		.4byte	.LASF339
 5074 0ef2 01       		.byte	0x1
 5075 0ef3 2601     		.2byte	0x126
 5076 0ef5 EC0A0000 		.4byte	0xaec
 5077 0ef9 39000000 		.4byte	.LLST1
 5078 0efd 00       		.byte	0
 5079 0efe 21       		.uleb128 0x21
 5080 0eff 82130000 		.4byte	.LASF345
 5081 0f03 01       		.byte	0x1
 5082 0f04 C301     		.2byte	0x1c3
ARM GAS  C:\Users\strap\AppData\Local\Temp\cc7wbcEe.s 			page 118


 5083 0f06 00000000 		.4byte	.LFB343
 5084 0f0a D4000000 		.4byte	.LFE343-.LFB343
 5085 0f0e 01       		.uleb128 0x1
 5086 0f0f 9C       		.byte	0x9c
 5087 0f10 F6100000 		.4byte	0x10f6
 5088 0f14 1E       		.uleb128 0x1e
 5089 0f15 19030000 		.4byte	.LASF337
 5090 0f19 01       		.byte	0x1
 5091 0f1a C301     		.2byte	0x1c3
 5092 0f1c A40C0000 		.4byte	0xca4
 5093 0f20 57000000 		.4byte	.LLST2
 5094 0f24 20       		.uleb128 0x20
 5095 0f25 33100000 		.4byte	.LASF340
 5096 0f29 01       		.byte	0x1
 5097 0f2a C501     		.2byte	0x1c5
 5098 0f2c A40C0000 		.4byte	0xca4
 5099 0f30 75000000 		.4byte	.LLST3
 5100 0f34 20       		.uleb128 0x20
 5101 0f35 30110000 		.4byte	.LASF341
 5102 0f39 01       		.byte	0x1
 5103 0f3a C601     		.2byte	0x1c6
 5104 0f3c CE000000 		.4byte	0xce
 5105 0f40 D5000000 		.4byte	.LLST4
 5106 0f44 20       		.uleb128 0x20
 5107 0f45 39100000 		.4byte	.LASF342
 5108 0f49 01       		.byte	0x1
 5109 0f4a C701     		.2byte	0x1c7
 5110 0f4c EF000000 		.4byte	0xef
 5111 0f50 F4000000 		.4byte	.LLST5
 5112 0f54 22       		.uleb128 0x22
 5113 0f55 B21A0000 		.4byte	.LASF343
 5114 0f59 01       		.byte	0x1
 5115 0f5a C901     		.2byte	0x1c9
 5116 0f5c EF000000 		.4byte	0xef
 5117 0f60 20       		.uleb128 0x20
 5118 0f61 50140000 		.4byte	.LASF344
 5119 0f65 01       		.byte	0x1
 5120 0f66 D901     		.2byte	0x1d9
 5121 0f68 EF000000 		.4byte	0xef
 5122 0f6c 29010000 		.4byte	.LLST6
 5123 0f70 23       		.uleb128 0x23
 5124 0f71 F00C0000 		.4byte	0xcf0
 5125 0f75 08000000 		.4byte	.LBB118
 5126 0f79 0A000000 		.4byte	.LBE118-.LBB118
 5127 0f7d 01       		.byte	0x1
 5128 0f7e C901     		.2byte	0x1c9
 5129 0f80 B10F0000 		.4byte	0xfb1
 5130 0f84 24       		.uleb128 0x24
 5131 0f85 0B0D0000 		.4byte	0xd0b
 5132 0f89 47010000 		.4byte	.LLST7
 5133 0f8d 24       		.uleb128 0x24
 5134 0f8e 000D0000 		.4byte	0xd00
 5135 0f92 5B010000 		.4byte	.LLST8
 5136 0f96 25       		.uleb128 0x25
 5137 0f97 10000000 		.4byte	.LVL6
 5138 0f9b B7300000 		.4byte	0x30b7
 5139 0f9f 26       		.uleb128 0x26
ARM GAS  C:\Users\strap\AppData\Local\Temp\cc7wbcEe.s 			page 119


 5140 0fa0 01       		.uleb128 0x1
 5141 0fa1 50       		.byte	0x50
 5142 0fa2 02       		.uleb128 0x2
 5143 0fa3 77       		.byte	0x77
 5144 0fa4 00       		.sleb128 0
 5145 0fa5 26       		.uleb128 0x26
 5146 0fa6 01       		.uleb128 0x1
 5147 0fa7 51       		.byte	0x51
 5148 0fa8 01       		.uleb128 0x1
 5149 0fa9 30       		.byte	0x30
 5150 0faa 26       		.uleb128 0x26
 5151 0fab 01       		.uleb128 0x1
 5152 0fac 52       		.byte	0x52
 5153 0fad 01       		.uleb128 0x1
 5154 0fae 44       		.byte	0x44
 5155 0faf 00       		.byte	0
 5156 0fb0 00       		.byte	0
 5157 0fb1 27       		.uleb128 0x27
 5158 0fb2 1A000000 		.4byte	.LVL8
 5159 0fb6 C3300000 		.4byte	0x30c3
 5160 0fba C50F0000 		.4byte	0xfc5
 5161 0fbe 26       		.uleb128 0x26
 5162 0fbf 01       		.uleb128 0x1
 5163 0fc0 50       		.byte	0x50
 5164 0fc1 02       		.uleb128 0x2
 5165 0fc2 75       		.byte	0x75
 5166 0fc3 00       		.sleb128 0
 5167 0fc4 00       		.byte	0
 5168 0fc5 27       		.uleb128 0x27
 5169 0fc6 28000000 		.4byte	.LVL12
 5170 0fca CE300000 		.4byte	0x30ce
 5171 0fce D90F0000 		.4byte	0xfd9
 5172 0fd2 26       		.uleb128 0x26
 5173 0fd3 01       		.uleb128 0x1
 5174 0fd4 50       		.byte	0x50
 5175 0fd5 02       		.uleb128 0x2
 5176 0fd6 74       		.byte	0x74
 5177 0fd7 00       		.sleb128 0
 5178 0fd8 00       		.byte	0
 5179 0fd9 27       		.uleb128 0x27
 5180 0fda 32000000 		.4byte	.LVL13
 5181 0fde DA300000 		.4byte	0x30da
 5182 0fe2 F20F0000 		.4byte	0xff2
 5183 0fe6 26       		.uleb128 0x26
 5184 0fe7 01       		.uleb128 0x1
 5185 0fe8 50       		.byte	0x50
 5186 0fe9 02       		.uleb128 0x2
 5187 0fea 74       		.byte	0x74
 5188 0feb 00       		.sleb128 0
 5189 0fec 26       		.uleb128 0x26
 5190 0fed 01       		.uleb128 0x1
 5191 0fee 51       		.byte	0x51
 5192 0fef 01       		.uleb128 0x1
 5193 0ff0 34       		.byte	0x34
 5194 0ff1 00       		.byte	0
 5195 0ff2 27       		.uleb128 0x27
 5196 0ff3 3A000000 		.4byte	.LVL14
ARM GAS  C:\Users\strap\AppData\Local\Temp\cc7wbcEe.s 			page 120


 5197 0ff7 E6300000 		.4byte	0x30e6
 5198 0ffb 06100000 		.4byte	0x1006
 5199 0fff 26       		.uleb128 0x26
 5200 1000 01       		.uleb128 0x1
 5201 1001 50       		.byte	0x50
 5202 1002 02       		.uleb128 0x2
 5203 1003 74       		.byte	0x74
 5204 1004 00       		.sleb128 0
 5205 1005 00       		.byte	0
 5206 1006 27       		.uleb128 0x27
 5207 1007 4C000000 		.4byte	.LVL18
 5208 100b F2300000 		.4byte	0x30f2
 5209 100f 20100000 		.4byte	0x1020
 5210 1013 26       		.uleb128 0x26
 5211 1014 01       		.uleb128 0x1
 5212 1015 50       		.byte	0x50
 5213 1016 02       		.uleb128 0x2
 5214 1017 75       		.byte	0x75
 5215 1018 00       		.sleb128 0
 5216 1019 26       		.uleb128 0x26
 5217 101a 01       		.uleb128 0x1
 5218 101b 51       		.byte	0x51
 5219 101c 02       		.uleb128 0x2
 5220 101d 74       		.byte	0x74
 5221 101e 00       		.sleb128 0
 5222 101f 00       		.byte	0
 5223 1020 27       		.uleb128 0x27
 5224 1021 66000000 		.4byte	.LVL23
 5225 1025 FD300000 		.4byte	0x30fd
 5226 1029 39100000 		.4byte	0x1039
 5227 102d 26       		.uleb128 0x26
 5228 102e 01       		.uleb128 0x1
 5229 102f 50       		.byte	0x50
 5230 1030 02       		.uleb128 0x2
 5231 1031 77       		.byte	0x77
 5232 1032 00       		.sleb128 0
 5233 1033 26       		.uleb128 0x26
 5234 1034 01       		.uleb128 0x1
 5235 1035 51       		.byte	0x51
 5236 1036 01       		.uleb128 0x1
 5237 1037 31       		.byte	0x31
 5238 1038 00       		.byte	0
 5239 1039 27       		.uleb128 0x27
 5240 103a 76000000 		.4byte	.LVL26
 5241 103e 09310000 		.4byte	0x3109
 5242 1042 4D100000 		.4byte	0x104d
 5243 1046 26       		.uleb128 0x26
 5244 1047 01       		.uleb128 0x1
 5245 1048 50       		.byte	0x50
 5246 1049 02       		.uleb128 0x2
 5247 104a 75       		.byte	0x75
 5248 104b 00       		.sleb128 0
 5249 104c 00       		.byte	0
 5250 104d 27       		.uleb128 0x27
 5251 104e 80000000 		.4byte	.LVL29
 5252 1052 CE300000 		.4byte	0x30ce
 5253 1056 61100000 		.4byte	0x1061
ARM GAS  C:\Users\strap\AppData\Local\Temp\cc7wbcEe.s 			page 121


 5254 105a 26       		.uleb128 0x26
 5255 105b 01       		.uleb128 0x1
 5256 105c 50       		.byte	0x50
 5257 105d 02       		.uleb128 0x2
 5258 105e 74       		.byte	0x74
 5259 105f 00       		.sleb128 0
 5260 1060 00       		.byte	0
 5261 1061 27       		.uleb128 0x27
 5262 1062 8A000000 		.4byte	.LVL30
 5263 1066 DA300000 		.4byte	0x30da
 5264 106a 7A100000 		.4byte	0x107a
 5265 106e 26       		.uleb128 0x26
 5266 106f 01       		.uleb128 0x1
 5267 1070 50       		.byte	0x50
 5268 1071 02       		.uleb128 0x2
 5269 1072 74       		.byte	0x74
 5270 1073 00       		.sleb128 0
 5271 1074 26       		.uleb128 0x26
 5272 1075 01       		.uleb128 0x1
 5273 1076 51       		.byte	0x51
 5274 1077 01       		.uleb128 0x1
 5275 1078 34       		.byte	0x34
 5276 1079 00       		.byte	0
 5277 107a 27       		.uleb128 0x27
 5278 107b 92000000 		.4byte	.LVL31
 5279 107f E6300000 		.4byte	0x30e6
 5280 1083 8E100000 		.4byte	0x108e
 5281 1087 26       		.uleb128 0x26
 5282 1088 01       		.uleb128 0x1
 5283 1089 50       		.byte	0x50
 5284 108a 02       		.uleb128 0x2
 5285 108b 74       		.byte	0x74
 5286 108c 00       		.sleb128 0
 5287 108d 00       		.byte	0
 5288 108e 27       		.uleb128 0x27
 5289 108f AC000000 		.4byte	.LVL32
 5290 1093 14310000 		.4byte	0x3114
 5291 1097 B2100000 		.4byte	0x10b2
 5292 109b 26       		.uleb128 0x26
 5293 109c 01       		.uleb128 0x1
 5294 109d 50       		.byte	0x50
 5295 109e 02       		.uleb128 0x2
 5296 109f 74       		.byte	0x74
 5297 10a0 00       		.sleb128 0
 5298 10a1 26       		.uleb128 0x26
 5299 10a2 01       		.uleb128 0x1
 5300 10a3 51       		.byte	0x51
 5301 10a4 02       		.uleb128 0x2
 5302 10a5 77       		.byte	0x77
 5303 10a6 00       		.sleb128 0
 5304 10a7 26       		.uleb128 0x26
 5305 10a8 01       		.uleb128 0x1
 5306 10a9 52       		.byte	0x52
 5307 10aa 01       		.uleb128 0x1
 5308 10ab 30       		.byte	0x30
 5309 10ac 26       		.uleb128 0x26
 5310 10ad 01       		.uleb128 0x1
ARM GAS  C:\Users\strap\AppData\Local\Temp\cc7wbcEe.s 			page 122


 5311 10ae 53       		.byte	0x53
 5312 10af 01       		.uleb128 0x1
 5313 10b0 30       		.byte	0x30
 5314 10b1 00       		.byte	0
 5315 10b2 27       		.uleb128 0x27
 5316 10b3 B2000000 		.4byte	.LVL33
 5317 10b7 E6300000 		.4byte	0x30e6
 5318 10bb C6100000 		.4byte	0x10c6
 5319 10bf 26       		.uleb128 0x26
 5320 10c0 01       		.uleb128 0x1
 5321 10c1 50       		.byte	0x50
 5322 10c2 02       		.uleb128 0x2
 5323 10c3 74       		.byte	0x74
 5324 10c4 00       		.sleb128 0
 5325 10c5 00       		.byte	0
 5326 10c6 27       		.uleb128 0x27
 5327 10c7 C0000000 		.4byte	.LVL36
 5328 10cb 20310000 		.4byte	0x3120
 5329 10cf E0100000 		.4byte	0x10e0
 5330 10d3 26       		.uleb128 0x26
 5331 10d4 01       		.uleb128 0x1
 5332 10d5 50       		.byte	0x50
 5333 10d6 02       		.uleb128 0x2
 5334 10d7 75       		.byte	0x75
 5335 10d8 00       		.sleb128 0
 5336 10d9 26       		.uleb128 0x26
 5337 10da 01       		.uleb128 0x1
 5338 10db 51       		.byte	0x51
 5339 10dc 02       		.uleb128 0x2
 5340 10dd 74       		.byte	0x74
 5341 10de 00       		.sleb128 0
 5342 10df 00       		.byte	0
 5343 10e0 25       		.uleb128 0x25
 5344 10e1 CE000000 		.4byte	.LVL39
 5345 10e5 2B310000 		.4byte	0x312b
 5346 10e9 26       		.uleb128 0x26
 5347 10ea 01       		.uleb128 0x1
 5348 10eb 50       		.byte	0x50
 5349 10ec 02       		.uleb128 0x2
 5350 10ed 77       		.byte	0x77
 5351 10ee 00       		.sleb128 0
 5352 10ef 26       		.uleb128 0x26
 5353 10f0 01       		.uleb128 0x1
 5354 10f1 51       		.byte	0x51
 5355 10f2 01       		.uleb128 0x1
 5356 10f3 31       		.byte	0x31
 5357 10f4 00       		.byte	0
 5358 10f5 00       		.byte	0
 5359 10f6 21       		.uleb128 0x21
 5360 10f7 65180000 		.4byte	.LASF346
 5361 10fb 01       		.byte	0x1
 5362 10fc 6E02     		.2byte	0x26e
 5363 10fe 00000000 		.4byte	.LFB345
 5364 1102 BA000000 		.4byte	.LFE345-.LFB345
 5365 1106 01       		.uleb128 0x1
 5366 1107 9C       		.byte	0x9c
 5367 1108 53130000 		.4byte	0x1353
ARM GAS  C:\Users\strap\AppData\Local\Temp\cc7wbcEe.s 			page 123


 5368 110c 1E       		.uleb128 0x1e
 5369 110d 19030000 		.4byte	.LASF337
 5370 1111 01       		.byte	0x1
 5371 1112 6E02     		.2byte	0x26e
 5372 1114 A40C0000 		.4byte	0xca4
 5373 1118 79010000 		.4byte	.LLST9
 5374 111c 20       		.uleb128 0x20
 5375 111d 95110000 		.4byte	.LASF347
 5376 1121 01       		.byte	0x1
 5377 1122 7002     		.2byte	0x270
 5378 1124 EF000000 		.4byte	0xef
 5379 1128 97010000 		.4byte	.LLST10
 5380 112c 22       		.uleb128 0x22
 5381 112d B21A0000 		.4byte	.LASF343
 5382 1131 01       		.byte	0x1
 5383 1132 7102     		.2byte	0x271
 5384 1134 EF000000 		.4byte	0xef
 5385 1138 28       		.uleb128 0x28
 5386 1139 031B0000 		.4byte	.LASF348
 5387 113d 01       		.byte	0x1
 5388 113e 7202     		.2byte	0x272
 5389 1140 EF000000 		.4byte	0xef
 5390 1144 01       		.uleb128 0x1
 5391 1145 5B       		.byte	0x5b
 5392 1146 22       		.uleb128 0x22
 5393 1147 9C0B0000 		.4byte	.LASF349
 5394 114b 01       		.byte	0x1
 5395 114c 7902     		.2byte	0x279
 5396 114e EF000000 		.4byte	0xef
 5397 1152 20       		.uleb128 0x20
 5398 1153 E4020000 		.4byte	.LASF350
 5399 1157 01       		.byte	0x1
 5400 1158 7A02     		.2byte	0x27a
 5401 115a EF000000 		.4byte	0xef
 5402 115e B7010000 		.4byte	.LLST11
 5403 1162 20       		.uleb128 0x20
 5404 1163 EA020000 		.4byte	.LASF351
 5405 1167 01       		.byte	0x1
 5406 1168 7B02     		.2byte	0x27b
 5407 116a EF000000 		.4byte	0xef
 5408 116e E0010000 		.4byte	.LLST12
 5409 1172 20       		.uleb128 0x20
 5410 1173 33100000 		.4byte	.LASF340
 5411 1177 01       		.byte	0x1
 5412 1178 7C02     		.2byte	0x27c
 5413 117a A40C0000 		.4byte	0xca4
 5414 117e FE010000 		.4byte	.LLST13
 5415 1182 23       		.uleb128 0x23
 5416 1183 F00C0000 		.4byte	0xcf0
 5417 1187 0E000000 		.4byte	.LBB120
 5418 118b 0C000000 		.4byte	.LBE120-.LBB120
 5419 118f 01       		.byte	0x1
 5420 1190 7102     		.2byte	0x271
 5421 1192 C3110000 		.4byte	0x11c3
 5422 1196 24       		.uleb128 0x24
 5423 1197 0B0D0000 		.4byte	0xd0b
 5424 119b 32020000 		.4byte	.LLST14
ARM GAS  C:\Users\strap\AppData\Local\Temp\cc7wbcEe.s 			page 124


 5425 119f 24       		.uleb128 0x24
 5426 11a0 000D0000 		.4byte	0xd00
 5427 11a4 46020000 		.4byte	.LLST15
 5428 11a8 25       		.uleb128 0x25
 5429 11a9 18000000 		.4byte	.LVL43
 5430 11ad B7300000 		.4byte	0x30b7
 5431 11b1 26       		.uleb128 0x26
 5432 11b2 01       		.uleb128 0x1
 5433 11b3 50       		.byte	0x50
 5434 11b4 02       		.uleb128 0x2
 5435 11b5 78       		.byte	0x78
 5436 11b6 00       		.sleb128 0
 5437 11b7 26       		.uleb128 0x26
 5438 11b8 01       		.uleb128 0x1
 5439 11b9 51       		.byte	0x51
 5440 11ba 01       		.uleb128 0x1
 5441 11bb 30       		.byte	0x30
 5442 11bc 26       		.uleb128 0x26
 5443 11bd 01       		.uleb128 0x1
 5444 11be 52       		.byte	0x52
 5445 11bf 01       		.uleb128 0x1
 5446 11c0 44       		.byte	0x44
 5447 11c1 00       		.byte	0
 5448 11c2 00       		.byte	0
 5449 11c3 23       		.uleb128 0x23
 5450 11c4 490D0000 		.4byte	0xd49
 5451 11c8 38000000 		.4byte	.LBB122
 5452 11cc 0E000000 		.4byte	.LBE122-.LBB122
 5453 11d0 01       		.byte	0x1
 5454 11d1 7902     		.2byte	0x279
 5455 11d3 04120000 		.4byte	0x1204
 5456 11d7 24       		.uleb128 0x24
 5457 11d8 640D0000 		.4byte	0xd64
 5458 11dc 59020000 		.4byte	.LLST16
 5459 11e0 24       		.uleb128 0x24
 5460 11e1 590D0000 		.4byte	0xd59
 5461 11e5 6D020000 		.4byte	.LLST17
 5462 11e9 25       		.uleb128 0x25
 5463 11ea 42000000 		.4byte	.LVL49
 5464 11ee B7300000 		.4byte	0x30b7
 5465 11f2 26       		.uleb128 0x26
 5466 11f3 01       		.uleb128 0x1
 5467 11f4 50       		.byte	0x50
 5468 11f5 02       		.uleb128 0x2
 5469 11f6 78       		.byte	0x78
 5470 11f7 00       		.sleb128 0
 5471 11f8 26       		.uleb128 0x26
 5472 11f9 01       		.uleb128 0x1
 5473 11fa 51       		.byte	0x51
 5474 11fb 01       		.uleb128 0x1
 5475 11fc 30       		.byte	0x30
 5476 11fd 26       		.uleb128 0x26
 5477 11fe 01       		.uleb128 0x1
 5478 11ff 52       		.byte	0x52
 5479 1200 01       		.uleb128 0x1
 5480 1201 42       		.byte	0x42
 5481 1202 00       		.byte	0
ARM GAS  C:\Users\strap\AppData\Local\Temp\cc7wbcEe.s 			page 125


 5482 1203 00       		.byte	0
 5483 1204 23       		.uleb128 0x23
 5484 1205 220D0000 		.4byte	0xd22
 5485 1209 46000000 		.4byte	.LBB124
 5486 120d 0C000000 		.4byte	.LBE124-.LBB124
 5487 1211 01       		.byte	0x1
 5488 1212 7B02     		.2byte	0x27b
 5489 1214 45120000 		.4byte	0x1245
 5490 1218 24       		.uleb128 0x24
 5491 1219 3D0D0000 		.4byte	0xd3d
 5492 121d 80020000 		.4byte	.LLST18
 5493 1221 24       		.uleb128 0x24
 5494 1222 320D0000 		.4byte	0xd32
 5495 1226 94020000 		.4byte	.LLST19
 5496 122a 25       		.uleb128 0x25
 5497 122b 50000000 		.4byte	.LVL51
 5498 122f B7300000 		.4byte	0x30b7
 5499 1233 26       		.uleb128 0x26
 5500 1234 01       		.uleb128 0x1
 5501 1235 50       		.byte	0x50
 5502 1236 02       		.uleb128 0x2
 5503 1237 78       		.byte	0x78
 5504 1238 00       		.sleb128 0
 5505 1239 26       		.uleb128 0x26
 5506 123a 01       		.uleb128 0x1
 5507 123b 51       		.byte	0x51
 5508 123c 01       		.uleb128 0x1
 5509 123d 30       		.byte	0x30
 5510 123e 26       		.uleb128 0x26
 5511 123f 01       		.uleb128 0x1
 5512 1240 52       		.byte	0x52
 5513 1241 01       		.uleb128 0x1
 5514 1242 40       		.byte	0x40
 5515 1243 00       		.byte	0
 5516 1244 00       		.byte	0
 5517 1245 29       		.uleb128 0x29
 5518 1246 60000000 		.4byte	.LBB126
 5519 124a 3E000000 		.4byte	.LBE126-.LBB126
 5520 124e C0120000 		.4byte	0x12c0
 5521 1252 20       		.uleb128 0x20
 5522 1253 A10B0000 		.4byte	.LASF352
 5523 1257 01       		.byte	0x1
 5524 1258 7F02     		.2byte	0x27f
 5525 125a EF000000 		.4byte	0xef
 5526 125e A7020000 		.4byte	.LLST20
 5527 1262 27       		.uleb128 0x27
 5528 1263 66000000 		.4byte	.LVL57
 5529 1267 CE300000 		.4byte	0x30ce
 5530 126b 76120000 		.4byte	0x1276
 5531 126f 26       		.uleb128 0x26
 5532 1270 01       		.uleb128 0x1
 5533 1271 50       		.byte	0x50
 5534 1272 02       		.uleb128 0x2
 5535 1273 74       		.byte	0x74
 5536 1274 00       		.sleb128 0
 5537 1275 00       		.byte	0
 5538 1276 27       		.uleb128 0x27
ARM GAS  C:\Users\strap\AppData\Local\Temp\cc7wbcEe.s 			page 126


 5539 1277 70000000 		.4byte	.LVL58
 5540 127b DA300000 		.4byte	0x30da
 5541 127f 8F120000 		.4byte	0x128f
 5542 1283 26       		.uleb128 0x26
 5543 1284 01       		.uleb128 0x1
 5544 1285 50       		.byte	0x50
 5545 1286 02       		.uleb128 0x2
 5546 1287 74       		.byte	0x74
 5547 1288 00       		.sleb128 0
 5548 1289 26       		.uleb128 0x26
 5549 128a 01       		.uleb128 0x1
 5550 128b 51       		.byte	0x51
 5551 128c 01       		.uleb128 0x1
 5552 128d 34       		.byte	0x34
 5553 128e 00       		.byte	0
 5554 128f 27       		.uleb128 0x27
 5555 1290 78000000 		.4byte	.LVL59
 5556 1294 37310000 		.4byte	0x3137
 5557 1298 A3120000 		.4byte	0x12a3
 5558 129c 26       		.uleb128 0x26
 5559 129d 01       		.uleb128 0x1
 5560 129e 50       		.byte	0x50
 5561 129f 02       		.uleb128 0x2
 5562 12a0 74       		.byte	0x74
 5563 12a1 00       		.sleb128 0
 5564 12a2 00       		.byte	0
 5565 12a3 25       		.uleb128 0x25
 5566 12a4 98000000 		.4byte	.LVL66
 5567 12a8 43310000 		.4byte	0x3143
 5568 12ac 26       		.uleb128 0x26
 5569 12ad 01       		.uleb128 0x1
 5570 12ae 50       		.byte	0x50
 5571 12af 02       		.uleb128 0x2
 5572 12b0 74       		.byte	0x74
 5573 12b1 00       		.sleb128 0
 5574 12b2 26       		.uleb128 0x26
 5575 12b3 01       		.uleb128 0x1
 5576 12b4 51       		.byte	0x51
 5577 12b5 02       		.uleb128 0x2
 5578 12b6 76       		.byte	0x76
 5579 12b7 00       		.sleb128 0
 5580 12b8 26       		.uleb128 0x26
 5581 12b9 01       		.uleb128 0x1
 5582 12ba 52       		.byte	0x52
 5583 12bb 02       		.uleb128 0x2
 5584 12bc 7A       		.byte	0x7a
 5585 12bd 00       		.sleb128 0
 5586 12be 00       		.byte	0
 5587 12bf 00       		.byte	0
 5588 12c0 27       		.uleb128 0x27
 5589 12c1 0C000000 		.4byte	.LVL41
 5590 12c5 4F310000 		.4byte	0x314f
 5591 12c9 D4120000 		.4byte	0x12d4
 5592 12cd 26       		.uleb128 0x26
 5593 12ce 01       		.uleb128 0x1
 5594 12cf 50       		.byte	0x50
 5595 12d0 02       		.uleb128 0x2
ARM GAS  C:\Users\strap\AppData\Local\Temp\cc7wbcEe.s 			page 127


 5596 12d1 78       		.byte	0x78
 5597 12d2 00       		.sleb128 0
 5598 12d3 00       		.byte	0
 5599 12d4 27       		.uleb128 0x27
 5600 12d5 22000000 		.4byte	.LVL45
 5601 12d9 5B310000 		.4byte	0x315b
 5602 12dd ED120000 		.4byte	0x12ed
 5603 12e1 26       		.uleb128 0x26
 5604 12e2 01       		.uleb128 0x1
 5605 12e3 50       		.byte	0x50
 5606 12e4 02       		.uleb128 0x2
 5607 12e5 78       		.byte	0x78
 5608 12e6 00       		.sleb128 0
 5609 12e7 26       		.uleb128 0x26
 5610 12e8 01       		.uleb128 0x1
 5611 12e9 51       		.byte	0x51
 5612 12ea 01       		.uleb128 0x1
 5613 12eb 30       		.byte	0x30
 5614 12ec 00       		.byte	0
 5615 12ed 2A       		.uleb128 0x2a
 5616 12ee 26000000 		.4byte	.LVL46
 5617 12f2 E6300000 		.4byte	0x30e6
 5618 12f6 27       		.uleb128 0x27
 5619 12f7 38000000 		.4byte	.LVL48
 5620 12fb FD300000 		.4byte	0x30fd
 5621 12ff 0F130000 		.4byte	0x130f
 5622 1303 26       		.uleb128 0x26
 5623 1304 01       		.uleb128 0x1
 5624 1305 50       		.byte	0x50
 5625 1306 02       		.uleb128 0x2
 5626 1307 78       		.byte	0x78
 5627 1308 00       		.sleb128 0
 5628 1309 26       		.uleb128 0x26
 5629 130a 01       		.uleb128 0x1
 5630 130b 51       		.byte	0x51
 5631 130c 01       		.uleb128 0x1
 5632 130d 31       		.byte	0x31
 5633 130e 00       		.byte	0
 5634 130f 27       		.uleb128 0x27
 5635 1310 5C000000 		.4byte	.LVL53
 5636 1314 09310000 		.4byte	0x3109
 5637 1318 23130000 		.4byte	0x1323
 5638 131c 26       		.uleb128 0x26
 5639 131d 01       		.uleb128 0x1
 5640 131e 50       		.byte	0x50
 5641 131f 02       		.uleb128 0x2
 5642 1320 75       		.byte	0x75
 5643 1321 00       		.sleb128 0
 5644 1322 00       		.byte	0
 5645 1323 27       		.uleb128 0x27
 5646 1324 A6000000 		.4byte	.LVL68
 5647 1328 20310000 		.4byte	0x3120
 5648 132c 3D130000 		.4byte	0x133d
 5649 1330 26       		.uleb128 0x26
 5650 1331 01       		.uleb128 0x1
 5651 1332 50       		.byte	0x50
 5652 1333 02       		.uleb128 0x2
ARM GAS  C:\Users\strap\AppData\Local\Temp\cc7wbcEe.s 			page 128


 5653 1334 75       		.byte	0x75
 5654 1335 00       		.sleb128 0
 5655 1336 26       		.uleb128 0x26
 5656 1337 01       		.uleb128 0x1
 5657 1338 51       		.byte	0x51
 5658 1339 02       		.uleb128 0x2
 5659 133a 74       		.byte	0x74
 5660 133b 00       		.sleb128 0
 5661 133c 00       		.byte	0
 5662 133d 25       		.uleb128 0x25
 5663 133e B4000000 		.4byte	.LVL71
 5664 1342 2B310000 		.4byte	0x312b
 5665 1346 26       		.uleb128 0x26
 5666 1347 01       		.uleb128 0x1
 5667 1348 50       		.byte	0x50
 5668 1349 02       		.uleb128 0x2
 5669 134a 78       		.byte	0x78
 5670 134b 00       		.sleb128 0
 5671 134c 26       		.uleb128 0x26
 5672 134d 01       		.uleb128 0x1
 5673 134e 51       		.byte	0x51
 5674 134f 01       		.uleb128 0x1
 5675 1350 31       		.byte	0x31
 5676 1351 00       		.byte	0
 5677 1352 00       		.byte	0
 5678 1353 21       		.uleb128 0x21
 5679 1354 2E020000 		.4byte	.LASF353
 5680 1358 01       		.byte	0x1
 5681 1359 9002     		.2byte	0x290
 5682 135b 00000000 		.4byte	.LFB346
 5683 135f BE030000 		.4byte	.LFE346-.LFB346
 5684 1363 01       		.uleb128 0x1
 5685 1364 9C       		.byte	0x9c
 5686 1365 261A0000 		.4byte	0x1a26
 5687 1369 1E       		.uleb128 0x1e
 5688 136a 19030000 		.4byte	.LASF337
 5689 136e 01       		.byte	0x1
 5690 136f 9002     		.2byte	0x290
 5691 1371 A40C0000 		.4byte	0xca4
 5692 1375 BA020000 		.4byte	.LLST21
 5693 1379 2B       		.uleb128 0x2b
 5694 137a 65787400 		.ascii	"ext\000"
 5695 137e 01       		.byte	0x1
 5696 137f 9302     		.2byte	0x293
 5697 1381 261A0000 		.4byte	0x1a26
 5698 1385 F3020000 		.4byte	.LLST22
 5699 1389 28       		.uleb128 0x28
 5700 138a 8A110000 		.4byte	.LASF354
 5701 138e 01       		.byte	0x1
 5702 138f 9A02     		.2byte	0x29a
 5703 1391 81010000 		.4byte	0x181
 5704 1395 02       		.uleb128 0x2
 5705 1396 91       		.byte	0x91
 5706 1397 58       		.sleb128 -40
 5707 1398 2C       		.uleb128 0x2c
 5708 1399 6F726900 		.ascii	"ori\000"
 5709 139d 01       		.byte	0x1
ARM GAS  C:\Users\strap\AppData\Local\Temp\cc7wbcEe.s 			page 129


 5710 139e 9B02     		.2byte	0x29b
 5711 13a0 81010000 		.4byte	0x181
 5712 13a4 02       		.uleb128 0x2
 5713 13a5 91       		.byte	0x91
 5714 13a6 50       		.sleb128 -48
 5715 13a7 20       		.uleb128 0x20
 5716 13a8 861C0000 		.4byte	.LASF355
 5717 13ac 01       		.byte	0x1
 5718 13ad 9C02     		.2byte	0x29c
 5719 13af A40C0000 		.4byte	0xca4
 5720 13b3 11030000 		.4byte	.LLST23
 5721 13b7 2B       		.uleb128 0x2b
 5722 13b8 70617200 		.ascii	"par\000"
 5723 13bc 01       		.byte	0x1
 5724 13bd 9E02     		.2byte	0x29e
 5725 13bf A40C0000 		.4byte	0xca4
 5726 13c3 66030000 		.4byte	.LLST24
 5727 13c7 28       		.uleb128 0x28
 5728 13c8 1F150000 		.4byte	.LASF356
 5729 13cc 01       		.byte	0x1
 5730 13cd 9F02     		.2byte	0x29f
 5731 13cf 81010000 		.4byte	0x181
 5732 13d3 02       		.uleb128 0x2
 5733 13d4 91       		.byte	0x91
 5734 13d5 48       		.sleb128 -56
 5735 13d6 20       		.uleb128 0x20
 5736 13d7 5F1B0000 		.4byte	.LASF357
 5737 13db 01       		.byte	0x1
 5738 13dc AA02     		.2byte	0x2aa
 5739 13de 22020000 		.4byte	0x222
 5740 13e2 84030000 		.4byte	.LLST25
 5741 13e6 28       		.uleb128 0x28
 5742 13e7 7A0D0000 		.4byte	.LASF358
 5743 13eb 01       		.byte	0x1
 5744 13ec D002     		.2byte	0x2d0
 5745 13ee 81010000 		.4byte	0x181
 5746 13f2 02       		.uleb128 0x2
 5747 13f3 91       		.byte	0x91
 5748 13f4 40       		.sleb128 -64
 5749 13f5 2D       		.uleb128 0x2d
 5750 13f6 BE0D0000 		.4byte	0xdbe
 5751 13fa 3A000000 		.4byte	.LBB127
 5752 13fe 00000000 		.4byte	.Ldebug_ranges0+0
 5753 1402 01       		.byte	0x1
 5754 1403 A002     		.2byte	0x2a0
 5755 1405 5F140000 		.4byte	0x145f
 5756 1409 24       		.uleb128 0x24
 5757 140a D50D0000 		.4byte	0xdd5
 5758 140e 97030000 		.4byte	.LLST26
 5759 1412 24       		.uleb128 0x24
 5760 1413 CA0D0000 		.4byte	0xdca
 5761 1417 B7030000 		.4byte	.LLST27
 5762 141b 2E       		.uleb128 0x2e
 5763 141c AA0C0000 		.4byte	0xcaa
 5764 1420 3A000000 		.4byte	.LBB128
 5765 1424 00000000 		.4byte	.Ldebug_ranges0+0
 5766 1428 04       		.byte	0x4
ARM GAS  C:\Users\strap\AppData\Local\Temp\cc7wbcEe.s 			page 130


 5767 1429 66       		.byte	0x66
 5768 142a 24       		.uleb128 0x24
 5769 142b D00C0000 		.4byte	0xcd0
 5770 142f E4030000 		.4byte	.LLST28
 5771 1433 24       		.uleb128 0x24
 5772 1434 C50C0000 		.4byte	0xcc5
 5773 1438 97030000 		.4byte	.LLST26
 5774 143c 24       		.uleb128 0x24
 5775 143d BA0C0000 		.4byte	0xcba
 5776 1441 B7030000 		.4byte	.LLST27
 5777 1445 2F       		.uleb128 0x2f
 5778 1446 00000000 		.4byte	.Ldebug_ranges0+0
 5779 144a 30       		.uleb128 0x30
 5780 144b DB0C0000 		.4byte	0xcdb
 5781 144f 03040000 		.4byte	.LLST31
 5782 1453 30       		.uleb128 0x30
 5783 1454 E50C0000 		.4byte	0xce5
 5784 1458 23040000 		.4byte	.LLST32
 5785 145c 00       		.byte	0
 5786 145d 00       		.byte	0
 5787 145e 00       		.byte	0
 5788 145f 23       		.uleb128 0x23
 5789 1460 490D0000 		.4byte	0xd49
 5790 1464 4E000000 		.4byte	.LBB133
 5791 1468 0A000000 		.4byte	.LBE133-.LBB133
 5792 146c 01       		.byte	0x1
 5793 146d A102     		.2byte	0x2a1
 5794 146f A0140000 		.4byte	0x14a0
 5795 1473 24       		.uleb128 0x24
 5796 1474 640D0000 		.4byte	0xd64
 5797 1478 4E040000 		.4byte	.LLST33
 5798 147c 24       		.uleb128 0x24
 5799 147d 590D0000 		.4byte	0xd59
 5800 1481 62040000 		.4byte	.LLST34
 5801 1485 25       		.uleb128 0x25
 5802 1486 58000000 		.4byte	.LVL89
 5803 148a B7300000 		.4byte	0x30b7
 5804 148e 26       		.uleb128 0x26
 5805 148f 01       		.uleb128 0x1
 5806 1490 50       		.byte	0x50
 5807 1491 02       		.uleb128 0x2
 5808 1492 77       		.byte	0x77
 5809 1493 00       		.sleb128 0
 5810 1494 26       		.uleb128 0x26
 5811 1495 01       		.uleb128 0x1
 5812 1496 51       		.byte	0x51
 5813 1497 01       		.uleb128 0x1
 5814 1498 30       		.byte	0x30
 5815 1499 26       		.uleb128 0x26
 5816 149a 01       		.uleb128 0x1
 5817 149b 52       		.byte	0x52
 5818 149c 01       		.uleb128 0x1
 5819 149d 42       		.byte	0x42
 5820 149e 00       		.byte	0
 5821 149f 00       		.byte	0
 5822 14a0 23       		.uleb128 0x23
 5823 14a1 970D0000 		.4byte	0xd97
ARM GAS  C:\Users\strap\AppData\Local\Temp\cc7wbcEe.s 			page 131


 5824 14a5 62000000 		.4byte	.LBB135
 5825 14a9 0A000000 		.4byte	.LBE135-.LBB135
 5826 14ad 01       		.byte	0x1
 5827 14ae A202     		.2byte	0x2a2
 5828 14b0 E1140000 		.4byte	0x14e1
 5829 14b4 24       		.uleb128 0x24
 5830 14b5 B20D0000 		.4byte	0xdb2
 5831 14b9 75040000 		.4byte	.LLST35
 5832 14bd 24       		.uleb128 0x24
 5833 14be A70D0000 		.4byte	0xda7
 5834 14c2 89040000 		.4byte	.LLST36
 5835 14c6 25       		.uleb128 0x25
 5836 14c7 6C000000 		.4byte	.LVL91
 5837 14cb B7300000 		.4byte	0x30b7
 5838 14cf 26       		.uleb128 0x26
 5839 14d0 01       		.uleb128 0x1
 5840 14d1 50       		.byte	0x50
 5841 14d2 02       		.uleb128 0x2
 5842 14d3 77       		.byte	0x77
 5843 14d4 00       		.sleb128 0
 5844 14d5 26       		.uleb128 0x26
 5845 14d6 01       		.uleb128 0x1
 5846 14d7 51       		.byte	0x51
 5847 14d8 01       		.uleb128 0x1
 5848 14d9 30       		.byte	0x30
 5849 14da 26       		.uleb128 0x26
 5850 14db 01       		.uleb128 0x1
 5851 14dc 52       		.byte	0x52
 5852 14dd 01       		.uleb128 0x1
 5853 14de 43       		.byte	0x43
 5854 14df 00       		.byte	0
 5855 14e0 00       		.byte	0
 5856 14e1 23       		.uleb128 0x23
 5857 14e2 220D0000 		.4byte	0xd22
 5858 14e6 76000000 		.4byte	.LBB137
 5859 14ea 0A000000 		.4byte	.LBE137-.LBB137
 5860 14ee 01       		.byte	0x1
 5861 14ef A302     		.2byte	0x2a3
 5862 14f1 22150000 		.4byte	0x1522
 5863 14f5 24       		.uleb128 0x24
 5864 14f6 3D0D0000 		.4byte	0xd3d
 5865 14fa 9C040000 		.4byte	.LLST37
 5866 14fe 24       		.uleb128 0x24
 5867 14ff 320D0000 		.4byte	0xd32
 5868 1503 B0040000 		.4byte	.LLST38
 5869 1507 25       		.uleb128 0x25
 5870 1508 80000000 		.4byte	.LVL93
 5871 150c B7300000 		.4byte	0x30b7
 5872 1510 26       		.uleb128 0x26
 5873 1511 01       		.uleb128 0x1
 5874 1512 50       		.byte	0x50
 5875 1513 02       		.uleb128 0x2
 5876 1514 77       		.byte	0x77
 5877 1515 00       		.sleb128 0
 5878 1516 26       		.uleb128 0x26
 5879 1517 01       		.uleb128 0x1
 5880 1518 51       		.byte	0x51
ARM GAS  C:\Users\strap\AppData\Local\Temp\cc7wbcEe.s 			page 132


 5881 1519 01       		.uleb128 0x1
 5882 151a 30       		.byte	0x30
 5883 151b 26       		.uleb128 0x26
 5884 151c 01       		.uleb128 0x1
 5885 151d 52       		.byte	0x52
 5886 151e 01       		.uleb128 0x1
 5887 151f 40       		.byte	0x40
 5888 1520 00       		.byte	0
 5889 1521 00       		.byte	0
 5890 1522 23       		.uleb128 0x23
 5891 1523 700D0000 		.4byte	0xd70
 5892 1527 8A000000 		.4byte	.LBB139
 5893 152b 0A000000 		.4byte	.LBE139-.LBB139
 5894 152f 01       		.byte	0x1
 5895 1530 A402     		.2byte	0x2a4
 5896 1532 63150000 		.4byte	0x1563
 5897 1536 24       		.uleb128 0x24
 5898 1537 8B0D0000 		.4byte	0xd8b
 5899 153b C3040000 		.4byte	.LLST39
 5900 153f 24       		.uleb128 0x24
 5901 1540 800D0000 		.4byte	0xd80
 5902 1544 D7040000 		.4byte	.LLST40
 5903 1548 25       		.uleb128 0x25
 5904 1549 94000000 		.4byte	.LVL95
 5905 154d B7300000 		.4byte	0x30b7
 5906 1551 26       		.uleb128 0x26
 5907 1552 01       		.uleb128 0x1
 5908 1553 50       		.byte	0x50
 5909 1554 02       		.uleb128 0x2
 5910 1555 77       		.byte	0x77
 5911 1556 00       		.sleb128 0
 5912 1557 26       		.uleb128 0x26
 5913 1558 01       		.uleb128 0x1
 5914 1559 51       		.byte	0x51
 5915 155a 01       		.uleb128 0x1
 5916 155b 30       		.byte	0x30
 5917 155c 26       		.uleb128 0x26
 5918 155d 01       		.uleb128 0x1
 5919 155e 52       		.byte	0x52
 5920 155f 01       		.uleb128 0x1
 5921 1560 41       		.byte	0x41
 5922 1561 00       		.byte	0
 5923 1562 00       		.byte	0
 5924 1563 29       		.uleb128 0x29
 5925 1564 02010000 		.4byte	.LBB141
 5926 1568 1E000000 		.4byte	.LBE141-.LBB141
 5927 156c BA150000 		.4byte	0x15ba
 5928 1570 22       		.uleb128 0x22
 5929 1571 321D0000 		.4byte	.LASF359
 5930 1575 01       		.byte	0x1
 5931 1576 B602     		.2byte	0x2b6
 5932 1578 A3040000 		.4byte	0x4a3
 5933 157c 31       		.uleb128 0x31
 5934 157d E10D0000 		.4byte	0xde1
 5935 1581 02010000 		.4byte	.LBB142
 5936 1585 0A000000 		.4byte	.LBE142-.LBB142
 5937 1589 01       		.byte	0x1
ARM GAS  C:\Users\strap\AppData\Local\Temp\cc7wbcEe.s 			page 133


 5938 158a B602     		.2byte	0x2b6
 5939 158c 24       		.uleb128 0x24
 5940 158d FC0D0000 		.4byte	0xdfc
 5941 1591 EA040000 		.4byte	.LLST41
 5942 1595 24       		.uleb128 0x24
 5943 1596 F10D0000 		.4byte	0xdf1
 5944 159a FE040000 		.4byte	.LLST42
 5945 159e 25       		.uleb128 0x25
 5946 159f 0C010000 		.4byte	.LVL105
 5947 15a3 B7300000 		.4byte	0x30b7
 5948 15a7 26       		.uleb128 0x26
 5949 15a8 01       		.uleb128 0x1
 5950 15a9 50       		.byte	0x50
 5951 15aa 02       		.uleb128 0x2
 5952 15ab 75       		.byte	0x75
 5953 15ac 00       		.sleb128 0
 5954 15ad 26       		.uleb128 0x26
 5955 15ae 01       		.uleb128 0x1
 5956 15af 51       		.byte	0x51
 5957 15b0 01       		.uleb128 0x1
 5958 15b1 30       		.byte	0x30
 5959 15b2 26       		.uleb128 0x26
 5960 15b3 01       		.uleb128 0x1
 5961 15b4 52       		.byte	0x52
 5962 15b5 01       		.uleb128 0x1
 5963 15b6 47       		.byte	0x47
 5964 15b7 00       		.byte	0
 5965 15b8 00       		.byte	0
 5966 15b9 00       		.byte	0
 5967 15ba 29       		.uleb128 0x29
 5968 15bb 2C010000 		.4byte	.LBB144
 5969 15bf 1E000000 		.4byte	.LBE144-.LBB144
 5970 15c3 11160000 		.4byte	0x1611
 5971 15c7 22       		.uleb128 0x22
 5972 15c8 D4020000 		.4byte	.LASF360
 5973 15cc 01       		.byte	0x1
 5974 15cd BB02     		.2byte	0x2bb
 5975 15cf A3040000 		.4byte	0x4a3
 5976 15d3 31       		.uleb128 0x31
 5977 15d4 080E0000 		.4byte	0xe08
 5978 15d8 2C010000 		.4byte	.LBB145
 5979 15dc 0A000000 		.4byte	.LBE145-.LBB145
 5980 15e0 01       		.byte	0x1
 5981 15e1 BB02     		.2byte	0x2bb
 5982 15e3 24       		.uleb128 0x24
 5983 15e4 230E0000 		.4byte	0xe23
 5984 15e8 11050000 		.4byte	.LLST43
 5985 15ec 24       		.uleb128 0x24
 5986 15ed 180E0000 		.4byte	0xe18
 5987 15f1 25050000 		.4byte	.LLST44
 5988 15f5 25       		.uleb128 0x25
 5989 15f6 36010000 		.4byte	.LVL107
 5990 15fa B7300000 		.4byte	0x30b7
 5991 15fe 26       		.uleb128 0x26
 5992 15ff 01       		.uleb128 0x1
 5993 1600 50       		.byte	0x50
 5994 1601 02       		.uleb128 0x2
ARM GAS  C:\Users\strap\AppData\Local\Temp\cc7wbcEe.s 			page 134


 5995 1602 75       		.byte	0x75
 5996 1603 00       		.sleb128 0
 5997 1604 26       		.uleb128 0x26
 5998 1605 01       		.uleb128 0x1
 5999 1606 51       		.byte	0x51
 6000 1607 01       		.uleb128 0x1
 6001 1608 30       		.byte	0x30
 6002 1609 26       		.uleb128 0x26
 6003 160a 01       		.uleb128 0x1
 6004 160b 52       		.byte	0x52
 6005 160c 01       		.uleb128 0x1
 6006 160d 48       		.byte	0x48
 6007 160e 00       		.byte	0
 6008 160f 00       		.byte	0
 6009 1610 00       		.byte	0
 6010 1611 29       		.uleb128 0x29
 6011 1612 56010000 		.4byte	.LBB147
 6012 1616 1E000000 		.4byte	.LBE147-.LBB147
 6013 161a 68160000 		.4byte	0x1668
 6014 161e 22       		.uleb128 0x22
 6015 161f A11C0000 		.4byte	.LASF361
 6016 1623 01       		.byte	0x1
 6017 1624 C002     		.2byte	0x2c0
 6018 1626 A3040000 		.4byte	0x4a3
 6019 162a 31       		.uleb128 0x31
 6020 162b 2F0E0000 		.4byte	0xe2f
 6021 162f 56010000 		.4byte	.LBB148
 6022 1633 0A000000 		.4byte	.LBE148-.LBB148
 6023 1637 01       		.byte	0x1
 6024 1638 C002     		.2byte	0x2c0
 6025 163a 24       		.uleb128 0x24
 6026 163b 4A0E0000 		.4byte	0xe4a
 6027 163f 38050000 		.4byte	.LLST45
 6028 1643 24       		.uleb128 0x24
 6029 1644 3F0E0000 		.4byte	0xe3f
 6030 1648 4C050000 		.4byte	.LLST46
 6031 164c 25       		.uleb128 0x25
 6032 164d 60010000 		.4byte	.LVL109
 6033 1651 B7300000 		.4byte	0x30b7
 6034 1655 26       		.uleb128 0x26
 6035 1656 01       		.uleb128 0x1
 6036 1657 50       		.byte	0x50
 6037 1658 02       		.uleb128 0x2
 6038 1659 75       		.byte	0x75
 6039 165a 00       		.sleb128 0
 6040 165b 26       		.uleb128 0x26
 6041 165c 01       		.uleb128 0x1
 6042 165d 51       		.byte	0x51
 6043 165e 01       		.uleb128 0x1
 6044 165f 30       		.byte	0x30
 6045 1660 26       		.uleb128 0x26
 6046 1661 01       		.uleb128 0x1
 6047 1662 52       		.byte	0x52
 6048 1663 01       		.uleb128 0x1
 6049 1664 45       		.byte	0x45
 6050 1665 00       		.byte	0
 6051 1666 00       		.byte	0
ARM GAS  C:\Users\strap\AppData\Local\Temp\cc7wbcEe.s 			page 135


 6052 1667 00       		.byte	0
 6053 1668 29       		.uleb128 0x29
 6054 1669 80010000 		.4byte	.LBB150
 6055 166d 1E000000 		.4byte	.LBE150-.LBB150
 6056 1671 BF160000 		.4byte	0x16bf
 6057 1675 22       		.uleb128 0x22
 6058 1676 AC090000 		.4byte	.LASF362
 6059 167a 01       		.byte	0x1
 6060 167b C502     		.2byte	0x2c5
 6061 167d A3040000 		.4byte	0x4a3
 6062 1681 31       		.uleb128 0x31
 6063 1682 560E0000 		.4byte	0xe56
 6064 1686 80010000 		.4byte	.LBB151
 6065 168a 0A000000 		.4byte	.LBE151-.LBB151
 6066 168e 01       		.byte	0x1
 6067 168f C502     		.2byte	0x2c5
 6068 1691 24       		.uleb128 0x24
 6069 1692 710E0000 		.4byte	0xe71
 6070 1696 5F050000 		.4byte	.LLST47
 6071 169a 24       		.uleb128 0x24
 6072 169b 660E0000 		.4byte	0xe66
 6073 169f 73050000 		.4byte	.LLST48
 6074 16a3 25       		.uleb128 0x25
 6075 16a4 8A010000 		.4byte	.LVL111
 6076 16a8 B7300000 		.4byte	0x30b7
 6077 16ac 26       		.uleb128 0x26
 6078 16ad 01       		.uleb128 0x1
 6079 16ae 50       		.byte	0x50
 6080 16af 02       		.uleb128 0x2
 6081 16b0 75       		.byte	0x75
 6082 16b1 00       		.sleb128 0
 6083 16b2 26       		.uleb128 0x26
 6084 16b3 01       		.uleb128 0x1
 6085 16b4 51       		.byte	0x51
 6086 16b5 01       		.uleb128 0x1
 6087 16b6 30       		.byte	0x30
 6088 16b7 26       		.uleb128 0x26
 6089 16b8 01       		.uleb128 0x1
 6090 16b9 52       		.byte	0x52
 6091 16ba 01       		.uleb128 0x1
 6092 16bb 46       		.byte	0x46
 6093 16bc 00       		.byte	0
 6094 16bd 00       		.byte	0
 6095 16be 00       		.byte	0
 6096 16bf 23       		.uleb128 0x23
 6097 16c0 490D0000 		.4byte	0xd49
 6098 16c4 AC010000 		.4byte	.LBB153
 6099 16c8 0A000000 		.4byte	.LBE153-.LBB153
 6100 16cc 01       		.byte	0x1
 6101 16cd CA02     		.2byte	0x2ca
 6102 16cf 00170000 		.4byte	0x1700
 6103 16d3 24       		.uleb128 0x24
 6104 16d4 640D0000 		.4byte	0xd64
 6105 16d8 86050000 		.4byte	.LLST49
 6106 16dc 24       		.uleb128 0x24
 6107 16dd 590D0000 		.4byte	0xd59
 6108 16e1 9A050000 		.4byte	.LLST50
ARM GAS  C:\Users\strap\AppData\Local\Temp\cc7wbcEe.s 			page 136


 6109 16e5 25       		.uleb128 0x25
 6110 16e6 B6010000 		.4byte	.LVL116
 6111 16ea B7300000 		.4byte	0x30b7
 6112 16ee 26       		.uleb128 0x26
 6113 16ef 01       		.uleb128 0x1
 6114 16f0 50       		.byte	0x50
 6115 16f1 02       		.uleb128 0x2
 6116 16f2 74       		.byte	0x74
 6117 16f3 00       		.sleb128 0
 6118 16f4 26       		.uleb128 0x26
 6119 16f5 01       		.uleb128 0x1
 6120 16f6 51       		.byte	0x51
 6121 16f7 01       		.uleb128 0x1
 6122 16f8 30       		.byte	0x30
 6123 16f9 26       		.uleb128 0x26
 6124 16fa 01       		.uleb128 0x1
 6125 16fb 52       		.byte	0x52
 6126 16fc 01       		.uleb128 0x1
 6127 16fd 42       		.byte	0x42
 6128 16fe 00       		.byte	0
 6129 16ff 00       		.byte	0
 6130 1700 23       		.uleb128 0x23
 6131 1701 970D0000 		.4byte	0xd97
 6132 1705 C0010000 		.4byte	.LBB155
 6133 1709 0A000000 		.4byte	.LBE155-.LBB155
 6134 170d 01       		.byte	0x1
 6135 170e CB02     		.2byte	0x2cb
 6136 1710 41170000 		.4byte	0x1741
 6137 1714 24       		.uleb128 0x24
 6138 1715 B20D0000 		.4byte	0xdb2
 6139 1719 AD050000 		.4byte	.LLST51
 6140 171d 24       		.uleb128 0x24
 6141 171e A70D0000 		.4byte	0xda7
 6142 1722 C1050000 		.4byte	.LLST52
 6143 1726 25       		.uleb128 0x25
 6144 1727 CA010000 		.4byte	.LVL118
 6145 172b B7300000 		.4byte	0x30b7
 6146 172f 26       		.uleb128 0x26
 6147 1730 01       		.uleb128 0x1
 6148 1731 50       		.byte	0x50
 6149 1732 02       		.uleb128 0x2
 6150 1733 74       		.byte	0x74
 6151 1734 00       		.sleb128 0
 6152 1735 26       		.uleb128 0x26
 6153 1736 01       		.uleb128 0x1
 6154 1737 51       		.byte	0x51
 6155 1738 01       		.uleb128 0x1
 6156 1739 30       		.byte	0x30
 6157 173a 26       		.uleb128 0x26
 6158 173b 01       		.uleb128 0x1
 6159 173c 52       		.byte	0x52
 6160 173d 01       		.uleb128 0x1
 6161 173e 43       		.byte	0x43
 6162 173f 00       		.byte	0
 6163 1740 00       		.byte	0
 6164 1741 23       		.uleb128 0x23
 6165 1742 220D0000 		.4byte	0xd22
ARM GAS  C:\Users\strap\AppData\Local\Temp\cc7wbcEe.s 			page 137


 6166 1746 D4010000 		.4byte	.LBB157
 6167 174a 0A000000 		.4byte	.LBE157-.LBB157
 6168 174e 01       		.byte	0x1
 6169 174f CC02     		.2byte	0x2cc
 6170 1751 82170000 		.4byte	0x1782
 6171 1755 24       		.uleb128 0x24
 6172 1756 3D0D0000 		.4byte	0xd3d
 6173 175a D4050000 		.4byte	.LLST53
 6174 175e 24       		.uleb128 0x24
 6175 175f 320D0000 		.4byte	0xd32
 6176 1763 E8050000 		.4byte	.LLST54
 6177 1767 25       		.uleb128 0x25
 6178 1768 DE010000 		.4byte	.LVL120
 6179 176c B7300000 		.4byte	0x30b7
 6180 1770 26       		.uleb128 0x26
 6181 1771 01       		.uleb128 0x1
 6182 1772 50       		.byte	0x50
 6183 1773 02       		.uleb128 0x2
 6184 1774 74       		.byte	0x74
 6185 1775 00       		.sleb128 0
 6186 1776 26       		.uleb128 0x26
 6187 1777 01       		.uleb128 0x1
 6188 1778 51       		.byte	0x51
 6189 1779 01       		.uleb128 0x1
 6190 177a 30       		.byte	0x30
 6191 177b 26       		.uleb128 0x26
 6192 177c 01       		.uleb128 0x1
 6193 177d 52       		.byte	0x52
 6194 177e 01       		.uleb128 0x1
 6195 177f 40       		.byte	0x40
 6196 1780 00       		.byte	0
 6197 1781 00       		.byte	0
 6198 1782 23       		.uleb128 0x23
 6199 1783 700D0000 		.4byte	0xd70
 6200 1787 E8010000 		.4byte	.LBB159
 6201 178b 0A000000 		.4byte	.LBE159-.LBB159
 6202 178f 01       		.byte	0x1
 6203 1790 CD02     		.2byte	0x2cd
 6204 1792 C3170000 		.4byte	0x17c3
 6205 1796 24       		.uleb128 0x24
 6206 1797 8B0D0000 		.4byte	0xd8b
 6207 179b FB050000 		.4byte	.LLST55
 6208 179f 24       		.uleb128 0x24
 6209 17a0 800D0000 		.4byte	0xd80
 6210 17a4 0F060000 		.4byte	.LLST56
 6211 17a8 25       		.uleb128 0x25
 6212 17a9 F2010000 		.4byte	.LVL122
 6213 17ad B7300000 		.4byte	0x30b7
 6214 17b1 26       		.uleb128 0x26
 6215 17b2 01       		.uleb128 0x1
 6216 17b3 50       		.byte	0x50
 6217 17b4 02       		.uleb128 0x2
 6218 17b5 74       		.byte	0x74
 6219 17b6 00       		.sleb128 0
 6220 17b7 26       		.uleb128 0x26
 6221 17b8 01       		.uleb128 0x1
 6222 17b9 51       		.byte	0x51
ARM GAS  C:\Users\strap\AppData\Local\Temp\cc7wbcEe.s 			page 138


 6223 17ba 01       		.uleb128 0x1
 6224 17bb 30       		.byte	0x30
 6225 17bc 26       		.uleb128 0x26
 6226 17bd 01       		.uleb128 0x1
 6227 17be 52       		.byte	0x52
 6228 17bf 01       		.uleb128 0x1
 6229 17c0 41       		.byte	0x41
 6230 17c1 00       		.byte	0
 6231 17c2 00       		.byte	0
 6232 17c3 23       		.uleb128 0x23
 6233 17c4 BE0D0000 		.4byte	0xdbe
 6234 17c8 04020000 		.4byte	.LBB161
 6235 17cc 0E000000 		.4byte	.LBE161-.LBB161
 6236 17d0 01       		.byte	0x1
 6237 17d1 D102     		.2byte	0x2d1
 6238 17d3 25180000 		.4byte	0x1825
 6239 17d7 32       		.uleb128 0x32
 6240 17d8 D50D0000 		.4byte	0xdd5
 6241 17dc 01       		.uleb128 0x1
 6242 17dd 51       		.byte	0x51
 6243 17de 32       		.uleb128 0x32
 6244 17df CA0D0000 		.4byte	0xdca
 6245 17e3 01       		.uleb128 0x1
 6246 17e4 52       		.byte	0x52
 6247 17e5 33       		.uleb128 0x33
 6248 17e6 AA0C0000 		.4byte	0xcaa
 6249 17ea 04020000 		.4byte	.LBB162
 6250 17ee 0E000000 		.4byte	.LBE162-.LBB162
 6251 17f2 04       		.byte	0x4
 6252 17f3 66       		.byte	0x66
 6253 17f4 24       		.uleb128 0x24
 6254 17f5 D00C0000 		.4byte	0xcd0
 6255 17f9 22060000 		.4byte	.LLST57
 6256 17fd 34       		.uleb128 0x34
 6257 17fe C50C0000 		.4byte	0xcc5
 6258 1802 34       		.uleb128 0x34
 6259 1803 BA0C0000 		.4byte	0xcba
 6260 1807 35       		.uleb128 0x35
 6261 1808 04020000 		.4byte	.LBB163
 6262 180c 0E000000 		.4byte	.LBE163-.LBB163
 6263 1810 30       		.uleb128 0x30
 6264 1811 DB0C0000 		.4byte	0xcdb
 6265 1815 35060000 		.4byte	.LLST58
 6266 1819 30       		.uleb128 0x30
 6267 181a E50C0000 		.4byte	0xce5
 6268 181e 53060000 		.4byte	.LLST59
 6269 1822 00       		.byte	0
 6270 1823 00       		.byte	0
 6271 1824 00       		.byte	0
 6272 1825 2D       		.uleb128 0x2d
 6273 1826 BE0D0000 		.4byte	0xdbe
 6274 182a 5A030000 		.4byte	.LBB164
 6275 182e 18000000 		.4byte	.Ldebug_ranges0+0x18
 6276 1832 01       		.byte	0x1
 6277 1833 1003     		.2byte	0x310
 6278 1835 8F180000 		.4byte	0x188f
 6279 1839 24       		.uleb128 0x24
ARM GAS  C:\Users\strap\AppData\Local\Temp\cc7wbcEe.s 			page 139


 6280 183a D50D0000 		.4byte	0xdd5
 6281 183e 7E060000 		.4byte	.LLST60
 6282 1842 24       		.uleb128 0x24
 6283 1843 CA0D0000 		.4byte	0xdca
 6284 1847 91060000 		.4byte	.LLST61
 6285 184b 2E       		.uleb128 0x2e
 6286 184c AA0C0000 		.4byte	0xcaa
 6287 1850 5A030000 		.4byte	.LBB165
 6288 1854 18000000 		.4byte	.Ldebug_ranges0+0x18
 6289 1858 04       		.byte	0x4
 6290 1859 66       		.byte	0x66
 6291 185a 24       		.uleb128 0x24
 6292 185b D00C0000 		.4byte	0xcd0
 6293 185f B1060000 		.4byte	.LLST62
 6294 1863 24       		.uleb128 0x24
 6295 1864 C50C0000 		.4byte	0xcc5
 6296 1868 7E060000 		.4byte	.LLST60
 6297 186c 24       		.uleb128 0x24
 6298 186d BA0C0000 		.4byte	0xcba
 6299 1871 91060000 		.4byte	.LLST61
 6300 1875 2F       		.uleb128 0x2f
 6301 1876 18000000 		.4byte	.Ldebug_ranges0+0x18
 6302 187a 30       		.uleb128 0x30
 6303 187b DB0C0000 		.4byte	0xcdb
 6304 187f D0060000 		.4byte	.LLST65
 6305 1883 30       		.uleb128 0x30
 6306 1884 E50C0000 		.4byte	0xce5
 6307 1888 E3060000 		.4byte	.LLST66
 6308 188c 00       		.byte	0
 6309 188d 00       		.byte	0
 6310 188e 00       		.byte	0
 6311 188f 27       		.uleb128 0x27
 6312 1890 0E000000 		.4byte	.LVL74
 6313 1894 DA300000 		.4byte	0x30da
 6314 1898 A8180000 		.4byte	0x18a8
 6315 189c 26       		.uleb128 0x26
 6316 189d 01       		.uleb128 0x1
 6317 189e 50       		.byte	0x50
 6318 189f 02       		.uleb128 0x2
 6319 18a0 74       		.byte	0x74
 6320 18a1 00       		.sleb128 0
 6321 18a2 26       		.uleb128 0x26
 6322 18a3 01       		.uleb128 0x1
 6323 18a4 51       		.byte	0x51
 6324 18a5 01       		.uleb128 0x1
 6325 18a6 31       		.byte	0x31
 6326 18a7 00       		.byte	0
 6327 18a8 27       		.uleb128 0x27
 6328 18a9 1A000000 		.4byte	.LVL75
 6329 18ad 67310000 		.4byte	0x3167
 6330 18b1 BC180000 		.4byte	0x18bc
 6331 18b5 26       		.uleb128 0x26
 6332 18b6 01       		.uleb128 0x1
 6333 18b7 50       		.byte	0x50
 6334 18b8 02       		.uleb128 0x2
 6335 18b9 74       		.byte	0x74
 6336 18ba 00       		.sleb128 0
ARM GAS  C:\Users\strap\AppData\Local\Temp\cc7wbcEe.s 			page 140


 6337 18bb 00       		.byte	0
 6338 18bc 27       		.uleb128 0x27
 6339 18bd 34000000 		.4byte	.LVL78
 6340 18c1 73310000 		.4byte	0x3173
 6341 18c5 D0180000 		.4byte	0x18d0
 6342 18c9 26       		.uleb128 0x26
 6343 18ca 01       		.uleb128 0x1
 6344 18cb 50       		.byte	0x50
 6345 18cc 02       		.uleb128 0x2
 6346 18cd 74       		.byte	0x74
 6347 18ce 00       		.sleb128 0
 6348 18cf 00       		.byte	0
 6349 18d0 27       		.uleb128 0x27
 6350 18d1 A6000000 		.4byte	.LVL96
 6351 18d5 7F310000 		.4byte	0x317f
 6352 18d9 EA180000 		.4byte	0x18ea
 6353 18dd 26       		.uleb128 0x26
 6354 18de 01       		.uleb128 0x1
 6355 18df 50       		.byte	0x50
 6356 18e0 02       		.uleb128 0x2
 6357 18e1 74       		.byte	0x74
 6358 18e2 00       		.sleb128 0
 6359 18e3 26       		.uleb128 0x26
 6360 18e4 01       		.uleb128 0x1
 6361 18e5 51       		.byte	0x51
 6362 18e6 02       		.uleb128 0x2
 6363 18e7 91       		.byte	0x91
 6364 18e8 50       		.sleb128 -48
 6365 18e9 00       		.byte	0
 6366 18ea 27       		.uleb128 0x27
 6367 18eb AE000000 		.4byte	.LVL97
 6368 18ef 7F310000 		.4byte	0x317f
 6369 18f3 04190000 		.4byte	0x1904
 6370 18f7 26       		.uleb128 0x26
 6371 18f8 01       		.uleb128 0x1
 6372 18f9 50       		.byte	0x50
 6373 18fa 02       		.uleb128 0x2
 6374 18fb 74       		.byte	0x74
 6375 18fc 00       		.sleb128 0
 6376 18fd 26       		.uleb128 0x26
 6377 18fe 01       		.uleb128 0x1
 6378 18ff 51       		.byte	0x51
 6379 1900 02       		.uleb128 0x2
 6380 1901 91       		.byte	0x91
 6381 1902 58       		.sleb128 -40
 6382 1903 00       		.byte	0
 6383 1904 27       		.uleb128 0x27
 6384 1905 B6000000 		.4byte	.LVL98
 6385 1909 8B310000 		.4byte	0x318b
 6386 190d 18190000 		.4byte	0x1918
 6387 1911 26       		.uleb128 0x26
 6388 1912 01       		.uleb128 0x1
 6389 1913 50       		.byte	0x50
 6390 1914 02       		.uleb128 0x2
 6391 1915 76       		.byte	0x76
 6392 1916 00       		.sleb128 0
 6393 1917 00       		.byte	0
ARM GAS  C:\Users\strap\AppData\Local\Temp\cc7wbcEe.s 			page 141


 6394 1918 27       		.uleb128 0x27
 6395 1919 E8000000 		.4byte	.LVL100
 6396 191d C3300000 		.4byte	0x30c3
 6397 1921 2C190000 		.4byte	0x192c
 6398 1925 26       		.uleb128 0x26
 6399 1926 01       		.uleb128 0x1
 6400 1927 50       		.byte	0x50
 6401 1928 02       		.uleb128 0x2
 6402 1929 76       		.byte	0x76
 6403 192a 00       		.sleb128 0
 6404 192b 00       		.byte	0
 6405 192c 27       		.uleb128 0x27
 6406 192d F2000000 		.4byte	.LVL103
 6407 1931 CE300000 		.4byte	0x30ce
 6408 1935 40190000 		.4byte	0x1940
 6409 1939 26       		.uleb128 0x26
 6410 193a 01       		.uleb128 0x1
 6411 193b 50       		.byte	0x50
 6412 193c 02       		.uleb128 0x2
 6413 193d 75       		.byte	0x75
 6414 193e 00       		.sleb128 0
 6415 193f 00       		.byte	0
 6416 1940 27       		.uleb128 0x27
 6417 1941 A6010000 		.4byte	.LVL112
 6418 1945 F2300000 		.4byte	0x30f2
 6419 1949 5A190000 		.4byte	0x195a
 6420 194d 26       		.uleb128 0x26
 6421 194e 01       		.uleb128 0x1
 6422 194f 50       		.byte	0x50
 6423 1950 02       		.uleb128 0x2
 6424 1951 76       		.byte	0x76
 6425 1952 00       		.sleb128 0
 6426 1953 26       		.uleb128 0x26
 6427 1954 01       		.uleb128 0x1
 6428 1955 51       		.byte	0x51
 6429 1956 02       		.uleb128 0x2
 6430 1957 75       		.byte	0x75
 6431 1958 00       		.sleb128 0
 6432 1959 00       		.byte	0
 6433 195a 27       		.uleb128 0x27
 6434 195b 56030000 		.4byte	.LVL132
 6435 195f 96310000 		.4byte	0x3196
 6436 1963 6E190000 		.4byte	0x196e
 6437 1967 26       		.uleb128 0x26
 6438 1968 01       		.uleb128 0x1
 6439 1969 50       		.byte	0x50
 6440 196a 02       		.uleb128 0x2
 6441 196b 74       		.byte	0x74
 6442 196c 00       		.sleb128 0
 6443 196d 00       		.byte	0
 6444 196e 27       		.uleb128 0x27
 6445 196f 74030000 		.4byte	.LVL139
 6446 1973 96310000 		.4byte	0x3196
 6447 1977 82190000 		.4byte	0x1982
 6448 197b 26       		.uleb128 0x26
 6449 197c 01       		.uleb128 0x1
 6450 197d 50       		.byte	0x50
ARM GAS  C:\Users\strap\AppData\Local\Temp\cc7wbcEe.s 			page 142


 6451 197e 02       		.uleb128 0x2
 6452 197f 74       		.byte	0x74
 6453 1980 00       		.sleb128 0
 6454 1981 00       		.byte	0
 6455 1982 36       		.uleb128 0x36
 6456 1983 7E030000 		.4byte	.LVL140
 6457 1987 9D190000 		.4byte	0x199d
 6458 198b 26       		.uleb128 0x26
 6459 198c 01       		.uleb128 0x1
 6460 198d 50       		.byte	0x50
 6461 198e 02       		.uleb128 0x2
 6462 198f 74       		.byte	0x74
 6463 1990 00       		.sleb128 0
 6464 1991 26       		.uleb128 0x26
 6465 1992 01       		.uleb128 0x1
 6466 1993 51       		.byte	0x51
 6467 1994 01       		.uleb128 0x1
 6468 1995 32       		.byte	0x32
 6469 1996 26       		.uleb128 0x26
 6470 1997 01       		.uleb128 0x1
 6471 1998 52       		.byte	0x52
 6472 1999 02       		.uleb128 0x2
 6473 199a 91       		.byte	0x91
 6474 199b 50       		.sleb128 -48
 6475 199c 00       		.byte	0
 6476 199d 36       		.uleb128 0x36
 6477 199e 88030000 		.4byte	.LVL141
 6478 19a2 B8190000 		.4byte	0x19b8
 6479 19a6 26       		.uleb128 0x26
 6480 19a7 01       		.uleb128 0x1
 6481 19a8 50       		.byte	0x50
 6482 19a9 02       		.uleb128 0x2
 6483 19aa 77       		.byte	0x77
 6484 19ab 00       		.sleb128 0
 6485 19ac 26       		.uleb128 0x26
 6486 19ad 01       		.uleb128 0x1
 6487 19ae 51       		.byte	0x51
 6488 19af 01       		.uleb128 0x1
 6489 19b0 31       		.byte	0x31
 6490 19b1 26       		.uleb128 0x26
 6491 19b2 01       		.uleb128 0x1
 6492 19b3 52       		.byte	0x52
 6493 19b4 02       		.uleb128 0x2
 6494 19b5 74       		.byte	0x74
 6495 19b6 00       		.sleb128 0
 6496 19b7 00       		.byte	0
 6497 19b8 27       		.uleb128 0x27
 6498 19b9 8E030000 		.4byte	.LVL142
 6499 19bd A2310000 		.4byte	0x31a2
 6500 19c1 CC190000 		.4byte	0x19cc
 6501 19c5 26       		.uleb128 0x26
 6502 19c6 01       		.uleb128 0x1
 6503 19c7 50       		.byte	0x50
 6504 19c8 02       		.uleb128 0x2
 6505 19c9 74       		.byte	0x74
 6506 19ca 00       		.sleb128 0
 6507 19cb 00       		.byte	0
ARM GAS  C:\Users\strap\AppData\Local\Temp\cc7wbcEe.s 			page 143


 6508 19cc 27       		.uleb128 0x27
 6509 19cd 96030000 		.4byte	.LVL143
 6510 19d1 AE310000 		.4byte	0x31ae
 6511 19d5 E0190000 		.4byte	0x19e0
 6512 19d9 26       		.uleb128 0x26
 6513 19da 01       		.uleb128 0x1
 6514 19db 50       		.byte	0x50
 6515 19dc 02       		.uleb128 0x2
 6516 19dd 74       		.byte	0x74
 6517 19de 00       		.sleb128 0
 6518 19df 00       		.byte	0
 6519 19e0 27       		.uleb128 0x27
 6520 19e1 9C030000 		.4byte	.LVL144
 6521 19e5 C3300000 		.4byte	0x30c3
 6522 19e9 F4190000 		.4byte	0x19f4
 6523 19ed 26       		.uleb128 0x26
 6524 19ee 01       		.uleb128 0x1
 6525 19ef 50       		.byte	0x50
 6526 19f0 02       		.uleb128 0x2
 6527 19f1 76       		.byte	0x76
 6528 19f2 00       		.sleb128 0
 6529 19f3 00       		.byte	0
 6530 19f4 36       		.uleb128 0x36
 6531 19f5 AA030000 		.4byte	.LVL147
 6532 19f9 0F1A0000 		.4byte	0x1a0f
 6533 19fd 26       		.uleb128 0x26
 6534 19fe 01       		.uleb128 0x1
 6535 19ff 50       		.byte	0x50
 6536 1a00 02       		.uleb128 0x2
 6537 1a01 74       		.byte	0x74
 6538 1a02 00       		.sleb128 0
 6539 1a03 26       		.uleb128 0x26
 6540 1a04 01       		.uleb128 0x1
 6541 1a05 51       		.byte	0x51
 6542 1a06 01       		.uleb128 0x1
 6543 1a07 33       		.byte	0x33
 6544 1a08 26       		.uleb128 0x26
 6545 1a09 01       		.uleb128 0x1
 6546 1a0a 52       		.byte	0x52
 6547 1a0b 02       		.uleb128 0x2
 6548 1a0c 91       		.byte	0x91
 6549 1a0d 50       		.sleb128 -48
 6550 1a0e 00       		.byte	0
 6551 1a0f 25       		.uleb128 0x25
 6552 1a10 B2030000 		.4byte	.LVL148
 6553 1a14 F2300000 		.4byte	0x30f2
 6554 1a18 26       		.uleb128 0x26
 6555 1a19 01       		.uleb128 0x1
 6556 1a1a 50       		.byte	0x50
 6557 1a1b 02       		.uleb128 0x2
 6558 1a1c 76       		.byte	0x76
 6559 1a1d 00       		.sleb128 0
 6560 1a1e 26       		.uleb128 0x26
 6561 1a1f 01       		.uleb128 0x1
 6562 1a20 51       		.byte	0x51
 6563 1a21 02       		.uleb128 0x2
 6564 1a22 74       		.byte	0x74
ARM GAS  C:\Users\strap\AppData\Local\Temp\cc7wbcEe.s 			page 144


 6565 1a23 00       		.sleb128 0
 6566 1a24 00       		.byte	0
 6567 1a25 00       		.byte	0
 6568 1a26 0B       		.uleb128 0xb
 6569 1a27 04       		.byte	0x4
 6570 1a28 EE0B0000 		.4byte	0xbee
 6571 1a2c 37       		.uleb128 0x37
 6572 1a2d 9E0F0000 		.4byte	.LASF369
 6573 1a31 01       		.byte	0x1
 6574 1a32 43       		.byte	0x43
 6575 1a33 A40C0000 		.4byte	0xca4
 6576 1a37 00000000 		.4byte	.LFB330
 6577 1a3b 04010000 		.4byte	.LFE330-.LFB330
 6578 1a3f 01       		.uleb128 0x1
 6579 1a40 9C       		.byte	0x9c
 6580 1a41 CF1B0000 		.4byte	0x1bcf
 6581 1a45 38       		.uleb128 0x38
 6582 1a46 70617200 		.ascii	"par\000"
 6583 1a4a 01       		.byte	0x1
 6584 1a4b 43       		.byte	0x43
 6585 1a4c A40C0000 		.4byte	0xca4
 6586 1a50 19070000 		.4byte	.LLST67
 6587 1a54 39       		.uleb128 0x39
 6588 1a55 F7040000 		.4byte	.LASF363
 6589 1a59 01       		.byte	0x1
 6590 1a5a 43       		.byte	0x43
 6591 1a5b 170D0000 		.4byte	0xd17
 6592 1a5f 45070000 		.4byte	.LLST68
 6593 1a63 3A       		.uleb128 0x3a
 6594 1a64 19030000 		.4byte	.LASF337
 6595 1a68 01       		.byte	0x1
 6596 1a69 49       		.byte	0x49
 6597 1a6a A40C0000 		.4byte	0xca4
 6598 1a6e 71070000 		.4byte	.LLST69
 6599 1a72 3B       		.uleb128 0x3b
 6600 1a73 65787400 		.ascii	"ext\000"
 6601 1a77 01       		.byte	0x1
 6602 1a78 51       		.byte	0x51
 6603 1a79 261A0000 		.4byte	0x1a26
 6604 1a7d 9A070000 		.4byte	.LLST70
 6605 1a81 29       		.uleb128 0x29
 6606 1a82 A0000000 		.4byte	.LBB170
 6607 1a86 4C000000 		.4byte	.LBE170-.LBB170
 6608 1a8a CE1A0000 		.4byte	0x1ace
 6609 1a8e 3A       		.uleb128 0x3a
 6610 1a8f FE0A0000 		.4byte	.LASF364
 6611 1a93 01       		.byte	0x1
 6612 1a94 6B       		.byte	0x6b
 6613 1a95 261A0000 		.4byte	0x1a26
 6614 1a99 D9070000 		.4byte	.LLST71
 6615 1a9d 27       		.uleb128 0x27
 6616 1a9e A6000000 		.4byte	.LVL168
 6617 1aa2 67310000 		.4byte	0x3167
 6618 1aa6 B11A0000 		.4byte	0x1ab1
 6619 1aaa 26       		.uleb128 0x26
 6620 1aab 01       		.uleb128 0x1
 6621 1aac 50       		.byte	0x50
ARM GAS  C:\Users\strap\AppData\Local\Temp\cc7wbcEe.s 			page 145


 6622 1aad 02       		.uleb128 0x2
 6623 1aae 76       		.byte	0x76
 6624 1aaf 00       		.sleb128 0
 6625 1ab0 00       		.byte	0
 6626 1ab1 25       		.uleb128 0x25
 6627 1ab2 EC000000 		.4byte	.LVL170
 6628 1ab6 BA310000 		.4byte	0x31ba
 6629 1aba 26       		.uleb128 0x26
 6630 1abb 01       		.uleb128 0x1
 6631 1abc 50       		.byte	0x50
 6632 1abd 02       		.uleb128 0x2
 6633 1abe 74       		.byte	0x74
 6634 1abf 00       		.sleb128 0
 6635 1ac0 26       		.uleb128 0x26
 6636 1ac1 01       		.uleb128 0x1
 6637 1ac2 51       		.byte	0x51
 6638 1ac3 02       		.uleb128 0x2
 6639 1ac4 09       		.byte	0x9
 6640 1ac5 FF       		.byte	0xff
 6641 1ac6 26       		.uleb128 0x26
 6642 1ac7 01       		.uleb128 0x1
 6643 1ac8 52       		.byte	0x52
 6644 1ac9 02       		.uleb128 0x2
 6645 1aca 08       		.byte	0x8
 6646 1acb FF       		.byte	0xff
 6647 1acc 00       		.byte	0
 6648 1acd 00       		.byte	0
 6649 1ace 27       		.uleb128 0x27
 6650 1acf 0A000000 		.4byte	.LVL152
 6651 1ad3 C6310000 		.4byte	0x31c6
 6652 1ad7 E81A0000 		.4byte	0x1ae8
 6653 1adb 26       		.uleb128 0x26
 6654 1adc 01       		.uleb128 0x1
 6655 1add 50       		.byte	0x50
 6656 1ade 02       		.uleb128 0x2
 6657 1adf 77       		.byte	0x77
 6658 1ae0 00       		.sleb128 0
 6659 1ae1 26       		.uleb128 0x26
 6660 1ae2 01       		.uleb128 0x1
 6661 1ae3 51       		.byte	0x51
 6662 1ae4 02       		.uleb128 0x2
 6663 1ae5 76       		.byte	0x76
 6664 1ae6 00       		.sleb128 0
 6665 1ae7 00       		.byte	0
 6666 1ae8 27       		.uleb128 0x27
 6667 1ae9 10000000 		.4byte	.LVL154
 6668 1aed D2310000 		.4byte	0x31d2
 6669 1af1 FC1A0000 		.4byte	0x1afc
 6670 1af5 26       		.uleb128 0x26
 6671 1af6 01       		.uleb128 0x1
 6672 1af7 50       		.byte	0x50
 6673 1af8 02       		.uleb128 0x2
 6674 1af9 74       		.byte	0x74
 6675 1afa 00       		.sleb128 0
 6676 1afb 00       		.byte	0
 6677 1afc 27       		.uleb128 0x27
 6678 1afd 1C000000 		.4byte	.LVL155
ARM GAS  C:\Users\strap\AppData\Local\Temp\cc7wbcEe.s 			page 146


 6679 1b01 DD310000 		.4byte	0x31dd
 6680 1b05 131B0000 		.4byte	0x1b13
 6681 1b09 26       		.uleb128 0x26
 6682 1b0a 01       		.uleb128 0x1
 6683 1b0b 50       		.byte	0x50
 6684 1b0c 05       		.uleb128 0x5
 6685 1b0d 03       		.byte	0x3
 6686 1b0e 00000000 		.4byte	.LC0
 6687 1b12 00       		.byte	0
 6688 1b13 27       		.uleb128 0x27
 6689 1b14 2E000000 		.4byte	.LVL156
 6690 1b18 E8310000 		.4byte	0x31e8
 6691 1b1c 271B0000 		.4byte	0x1b27
 6692 1b20 26       		.uleb128 0x26
 6693 1b21 01       		.uleb128 0x1
 6694 1b22 50       		.byte	0x50
 6695 1b23 02       		.uleb128 0x2
 6696 1b24 74       		.byte	0x74
 6697 1b25 00       		.sleb128 0
 6698 1b26 00       		.byte	0
 6699 1b27 27       		.uleb128 0x27
 6700 1b28 3E000000 		.4byte	.LVL157
 6701 1b2c F4310000 		.4byte	0x31f4
 6702 1b30 3B1B0000 		.4byte	0x1b3b
 6703 1b34 26       		.uleb128 0x26
 6704 1b35 01       		.uleb128 0x1
 6705 1b36 50       		.byte	0x50
 6706 1b37 02       		.uleb128 0x2
 6707 1b38 74       		.byte	0x74
 6708 1b39 00       		.sleb128 0
 6709 1b3a 00       		.byte	0
 6710 1b3b 27       		.uleb128 0x27
 6711 1b3c 4A000000 		.4byte	.LVL158
 6712 1b40 00320000 		.4byte	0x3200
 6713 1b44 541B0000 		.4byte	0x1b54
 6714 1b48 26       		.uleb128 0x26
 6715 1b49 01       		.uleb128 0x1
 6716 1b4a 50       		.byte	0x50
 6717 1b4b 02       		.uleb128 0x2
 6718 1b4c 74       		.byte	0x74
 6719 1b4d 00       		.sleb128 0
 6720 1b4e 26       		.uleb128 0x26
 6721 1b4f 01       		.uleb128 0x1
 6722 1b50 51       		.byte	0x51
 6723 1b51 01       		.uleb128 0x1
 6724 1b52 32       		.byte	0x32
 6725 1b53 00       		.byte	0
 6726 1b54 27       		.uleb128 0x27
 6727 1b55 50000000 		.4byte	.LVL159
 6728 1b59 67310000 		.4byte	0x3167
 6729 1b5d 681B0000 		.4byte	0x1b68
 6730 1b61 26       		.uleb128 0x26
 6731 1b62 01       		.uleb128 0x1
 6732 1b63 50       		.byte	0x50
 6733 1b64 02       		.uleb128 0x2
 6734 1b65 74       		.byte	0x74
 6735 1b66 00       		.sleb128 0
ARM GAS  C:\Users\strap\AppData\Local\Temp\cc7wbcEe.s 			page 147


 6736 1b67 00       		.byte	0
 6737 1b68 27       		.uleb128 0x27
 6738 1b69 5A000000 		.4byte	.LVL161
 6739 1b6d 0C320000 		.4byte	0x320c
 6740 1b71 7C1B0000 		.4byte	0x1b7c
 6741 1b75 26       		.uleb128 0x26
 6742 1b76 01       		.uleb128 0x1
 6743 1b77 50       		.byte	0x50
 6744 1b78 02       		.uleb128 0x2
 6745 1b79 74       		.byte	0x74
 6746 1b7a 00       		.sleb128 0
 6747 1b7b 00       		.byte	0
 6748 1b7c 2A       		.uleb128 0x2a
 6749 1b7d 62000000 		.4byte	.LVL163
 6750 1b81 D2310000 		.4byte	0x31d2
 6751 1b85 27       		.uleb128 0x27
 6752 1b86 6E000000 		.4byte	.LVL164
 6753 1b8a DD310000 		.4byte	0x31dd
 6754 1b8e 9C1B0000 		.4byte	0x1b9c
 6755 1b92 26       		.uleb128 0x26
 6756 1b93 01       		.uleb128 0x1
 6757 1b94 50       		.byte	0x50
 6758 1b95 05       		.uleb128 0x5
 6759 1b96 03       		.byte	0x3
 6760 1b97 00000000 		.4byte	.LC0
 6761 1b9b 00       		.byte	0
 6762 1b9c 27       		.uleb128 0x27
 6763 1b9d 90000000 		.4byte	.LVL165
 6764 1ba1 18320000 		.4byte	0x3218
 6765 1ba5 B91B0000 		.4byte	0x1bb9
 6766 1ba9 26       		.uleb128 0x26
 6767 1baa 01       		.uleb128 0x1
 6768 1bab 50       		.byte	0x50
 6769 1bac 02       		.uleb128 0x2
 6770 1bad 74       		.byte	0x74
 6771 1bae 00       		.sleb128 0
 6772 1baf 26       		.uleb128 0x26
 6773 1bb0 01       		.uleb128 0x1
 6774 1bb1 51       		.byte	0x51
 6775 1bb2 05       		.uleb128 0x5
 6776 1bb3 03       		.byte	0x3
 6777 1bb4 00000000 		.4byte	lv_cont_signal
 6778 1bb8 00       		.byte	0
 6779 1bb9 25       		.uleb128 0x25
 6780 1bba 9C000000 		.4byte	.LVL166
 6781 1bbe 24320000 		.4byte	0x3224
 6782 1bc2 26       		.uleb128 0x26
 6783 1bc3 01       		.uleb128 0x1
 6784 1bc4 50       		.byte	0x50
 6785 1bc5 02       		.uleb128 0x2
 6786 1bc6 74       		.byte	0x74
 6787 1bc7 00       		.sleb128 0
 6788 1bc8 26       		.uleb128 0x26
 6789 1bc9 01       		.uleb128 0x1
 6790 1bca 51       		.byte	0x51
 6791 1bcb 01       		.uleb128 0x1
 6792 1bcc 36       		.byte	0x36
ARM GAS  C:\Users\strap\AppData\Local\Temp\cc7wbcEe.s 			page 148


 6793 1bcd 00       		.byte	0
 6794 1bce 00       		.byte	0
 6795 1bcf 3C       		.uleb128 0x3c
 6796 1bd0 61030000 		.4byte	.LASF365
 6797 1bd4 01       		.byte	0x1
 6798 1bd5 84       		.byte	0x84
 6799 1bd6 00000000 		.4byte	.LFB331
 6800 1bda 40000000 		.4byte	.LFE331-.LFB331
 6801 1bde 01       		.uleb128 0x1
 6802 1bdf 9C       		.byte	0x9c
 6803 1be0 671C0000 		.4byte	0x1c67
 6804 1be4 39       		.uleb128 0x39
 6805 1be5 19030000 		.4byte	.LASF337
 6806 1be9 01       		.byte	0x1
 6807 1bea 84       		.byte	0x84
 6808 1beb A40C0000 		.4byte	0xca4
 6809 1bef EC070000 		.4byte	.LLST72
 6810 1bf3 39       		.uleb128 0x39
 6811 1bf4 3F100000 		.4byte	.LASF293
 6812 1bf8 01       		.byte	0x1
 6813 1bf9 84       		.byte	0x84
 6814 1bfa 590B0000 		.4byte	0xb59
 6815 1bfe 18080000 		.4byte	.LLST73
 6816 1c02 3B       		.uleb128 0x3b
 6817 1c03 65787400 		.ascii	"ext\000"
 6818 1c07 01       		.byte	0x1
 6819 1c08 88       		.byte	0x88
 6820 1c09 261A0000 		.4byte	0x1a26
 6821 1c0d 39080000 		.4byte	.LLST74
 6822 1c11 27       		.uleb128 0x27
 6823 1c12 0A000000 		.4byte	.LVL175
 6824 1c16 D2310000 		.4byte	0x31d2
 6825 1c1a 251C0000 		.4byte	0x1c25
 6826 1c1e 26       		.uleb128 0x26
 6827 1c1f 01       		.uleb128 0x1
 6828 1c20 50       		.byte	0x50
 6829 1c21 02       		.uleb128 0x2
 6830 1c22 74       		.byte	0x74
 6831 1c23 00       		.sleb128 0
 6832 1c24 00       		.byte	0
 6833 1c25 27       		.uleb128 0x27
 6834 1c26 16000000 		.4byte	.LVL176
 6835 1c2a DD310000 		.4byte	0x31dd
 6836 1c2e 3C1C0000 		.4byte	0x1c3c
 6837 1c32 26       		.uleb128 0x26
 6838 1c33 01       		.uleb128 0x1
 6839 1c34 50       		.byte	0x50
 6840 1c35 05       		.uleb128 0x5
 6841 1c36 03       		.byte	0x3
 6842 1c37 10000000 		.4byte	.LC1
 6843 1c3b 00       		.byte	0
 6844 1c3c 27       		.uleb128 0x27
 6845 1c3d 1E000000 		.4byte	.LVL177
 6846 1c41 67310000 		.4byte	0x3167
 6847 1c45 501C0000 		.4byte	0x1c50
 6848 1c49 26       		.uleb128 0x26
 6849 1c4a 01       		.uleb128 0x1
ARM GAS  C:\Users\strap\AppData\Local\Temp\cc7wbcEe.s 			page 149


 6850 1c4b 50       		.byte	0x50
 6851 1c4c 02       		.uleb128 0x2
 6852 1c4d 74       		.byte	0x74
 6853 1c4e 00       		.sleb128 0
 6854 1c4f 00       		.byte	0
 6855 1c50 3D       		.uleb128 0x3d
 6856 1c51 3A000000 		.4byte	.LVL179
 6857 1c55 26       		.uleb128 0x26
 6858 1c56 01       		.uleb128 0x1
 6859 1c57 50       		.byte	0x50
 6860 1c58 02       		.uleb128 0x2
 6861 1c59 74       		.byte	0x74
 6862 1c5a 00       		.sleb128 0
 6863 1c5b 26       		.uleb128 0x26
 6864 1c5c 01       		.uleb128 0x1
 6865 1c5d 51       		.byte	0x51
 6866 1c5e 01       		.uleb128 0x1
 6867 1c5f 31       		.byte	0x31
 6868 1c60 26       		.uleb128 0x26
 6869 1c61 01       		.uleb128 0x1
 6870 1c62 52       		.byte	0x52
 6871 1c63 01       		.uleb128 0x1
 6872 1c64 30       		.byte	0x30
 6873 1c65 00       		.byte	0
 6874 1c66 00       		.byte	0
 6875 1c67 3C       		.uleb128 0x3c
 6876 1c68 120A0000 		.4byte	.LASF366
 6877 1c6c 01       		.byte	0x1
 6878 1c6d 9A       		.byte	0x9a
 6879 1c6e 00000000 		.4byte	.LFB332
 6880 1c72 80000000 		.4byte	.LFE332-.LFB332
 6881 1c76 01       		.uleb128 0x1
 6882 1c77 9C       		.byte	0x9c
 6883 1c78 401D0000 		.4byte	0x1d40
 6884 1c7c 39       		.uleb128 0x39
 6885 1c7d 19030000 		.4byte	.LASF337
 6886 1c81 01       		.byte	0x1
 6887 1c82 9A       		.byte	0x9a
 6888 1c83 A40C0000 		.4byte	0xca4
 6889 1c87 4C080000 		.4byte	.LLST75
 6890 1c8b 39       		.uleb128 0x39
 6891 1c8c 9C0B0000 		.4byte	.LASF349
 6892 1c90 01       		.byte	0x1
 6893 1c91 9A       		.byte	0x9a
 6894 1c92 8F0B0000 		.4byte	0xb8f
 6895 1c96 78080000 		.4byte	.LLST76
 6896 1c9a 39       		.uleb128 0x39
 6897 1c9b 4E0F0000 		.4byte	.LASF367
 6898 1c9f 01       		.byte	0x1
 6899 1ca0 9A       		.byte	0x9a
 6900 1ca1 8F0B0000 		.4byte	0xb8f
 6901 1ca5 99080000 		.4byte	.LLST77
 6902 1ca9 38       		.uleb128 0x38
 6903 1caa 746F7000 		.ascii	"top\000"
 6904 1cae 01       		.byte	0x1
 6905 1caf 9A       		.byte	0x9a
 6906 1cb0 8F0B0000 		.4byte	0xb8f
ARM GAS  C:\Users\strap\AppData\Local\Temp\cc7wbcEe.s 			page 150


 6907 1cb4 BA080000 		.4byte	.LLST78
 6908 1cb8 39       		.uleb128 0x39
 6909 1cb9 D50F0000 		.4byte	.LASF368
 6910 1cbd 01       		.byte	0x1
 6911 1cbe 9A       		.byte	0x9a
 6912 1cbf 8F0B0000 		.4byte	0xb8f
 6913 1cc3 DB080000 		.4byte	.LLST79
 6914 1cc7 3B       		.uleb128 0x3b
 6915 1cc8 65787400 		.ascii	"ext\000"
 6916 1ccc 01       		.byte	0x1
 6917 1ccd 9F       		.byte	0x9f
 6918 1cce 261A0000 		.4byte	0x1a26
 6919 1cd2 FB080000 		.4byte	.LLST80
 6920 1cd6 27       		.uleb128 0x27
 6921 1cd7 14000000 		.4byte	.LVL182
 6922 1cdb D2310000 		.4byte	0x31d2
 6923 1cdf EA1C0000 		.4byte	0x1cea
 6924 1ce3 26       		.uleb128 0x26
 6925 1ce4 01       		.uleb128 0x1
 6926 1ce5 50       		.byte	0x50
 6927 1ce6 02       		.uleb128 0x2
 6928 1ce7 74       		.byte	0x74
 6929 1ce8 00       		.sleb128 0
 6930 1ce9 00       		.byte	0
 6931 1cea 27       		.uleb128 0x27
 6932 1ceb 20000000 		.4byte	.LVL183
 6933 1cef DD310000 		.4byte	0x31dd
 6934 1cf3 011D0000 		.4byte	0x1d01
 6935 1cf7 26       		.uleb128 0x26
 6936 1cf8 01       		.uleb128 0x1
 6937 1cf9 50       		.byte	0x50
 6938 1cfa 05       		.uleb128 0x5
 6939 1cfb 03       		.byte	0x3
 6940 1cfc 10000000 		.4byte	.LC1
 6941 1d00 00       		.byte	0
 6942 1d01 27       		.uleb128 0x27
 6943 1d02 28000000 		.4byte	.LVL184
 6944 1d06 96310000 		.4byte	0x3196
 6945 1d0a 151D0000 		.4byte	0x1d15
 6946 1d0e 26       		.uleb128 0x26
 6947 1d0f 01       		.uleb128 0x1
 6948 1d10 50       		.byte	0x50
 6949 1d11 02       		.uleb128 0x2
 6950 1d12 74       		.byte	0x74
 6951 1d13 00       		.sleb128 0
 6952 1d14 00       		.byte	0
 6953 1d15 27       		.uleb128 0x27
 6954 1d16 2E000000 		.4byte	.LVL185
 6955 1d1a 67310000 		.4byte	0x3167
 6956 1d1e 291D0000 		.4byte	0x1d29
 6957 1d22 26       		.uleb128 0x26
 6958 1d23 01       		.uleb128 0x1
 6959 1d24 50       		.byte	0x50
 6960 1d25 02       		.uleb128 0x2
 6961 1d26 74       		.byte	0x74
 6962 1d27 00       		.sleb128 0
 6963 1d28 00       		.byte	0
ARM GAS  C:\Users\strap\AppData\Local\Temp\cc7wbcEe.s 			page 151


 6964 1d29 3D       		.uleb128 0x3d
 6965 1d2a 76000000 		.4byte	.LVL187
 6966 1d2e 26       		.uleb128 0x26
 6967 1d2f 01       		.uleb128 0x1
 6968 1d30 50       		.byte	0x50
 6969 1d31 02       		.uleb128 0x2
 6970 1d32 74       		.byte	0x74
 6971 1d33 00       		.sleb128 0
 6972 1d34 26       		.uleb128 0x26
 6973 1d35 01       		.uleb128 0x1
 6974 1d36 51       		.byte	0x51
 6975 1d37 01       		.uleb128 0x1
 6976 1d38 31       		.byte	0x31
 6977 1d39 26       		.uleb128 0x26
 6978 1d3a 01       		.uleb128 0x1
 6979 1d3b 52       		.byte	0x52
 6980 1d3c 01       		.uleb128 0x1
 6981 1d3d 30       		.byte	0x30
 6982 1d3e 00       		.byte	0
 6983 1d3f 00       		.byte	0
 6984 1d40 37       		.uleb128 0x37
 6985 1d41 24120000 		.4byte	.LASF370
 6986 1d45 01       		.byte	0x1
 6987 1d46 B6       		.byte	0xb6
 6988 1d47 590B0000 		.4byte	0xb59
 6989 1d4b 00000000 		.4byte	.LFB333
 6990 1d4f 28000000 		.4byte	.LFE333-.LFB333
 6991 1d53 01       		.uleb128 0x1
 6992 1d54 9C       		.byte	0x9c
 6993 1d55 B31D0000 		.4byte	0x1db3
 6994 1d59 39       		.uleb128 0x39
 6995 1d5a 19030000 		.4byte	.LASF337
 6996 1d5e 01       		.byte	0x1
 6997 1d5f B6       		.byte	0xb6
 6998 1d60 170D0000 		.4byte	0xd17
 6999 1d64 0E090000 		.4byte	.LLST81
 7000 1d68 3B       		.uleb128 0x3b
 7001 1d69 65787400 		.ascii	"ext\000"
 7002 1d6d 01       		.byte	0x1
 7003 1d6e BA       		.byte	0xba
 7004 1d6f 261A0000 		.4byte	0x1a26
 7005 1d73 3A090000 		.4byte	.LLST82
 7006 1d77 27       		.uleb128 0x27
 7007 1d78 08000000 		.4byte	.LVL190
 7008 1d7c D2310000 		.4byte	0x31d2
 7009 1d80 8B1D0000 		.4byte	0x1d8b
 7010 1d84 26       		.uleb128 0x26
 7011 1d85 01       		.uleb128 0x1
 7012 1d86 50       		.byte	0x50
 7013 1d87 02       		.uleb128 0x2
 7014 1d88 74       		.byte	0x74
 7015 1d89 00       		.sleb128 0
 7016 1d8a 00       		.byte	0
 7017 1d8b 27       		.uleb128 0x27
 7018 1d8c 14000000 		.4byte	.LVL191
 7019 1d90 DD310000 		.4byte	0x31dd
 7020 1d94 A21D0000 		.4byte	0x1da2
ARM GAS  C:\Users\strap\AppData\Local\Temp\cc7wbcEe.s 			page 152


 7021 1d98 26       		.uleb128 0x26
 7022 1d99 01       		.uleb128 0x1
 7023 1d9a 50       		.byte	0x50
 7024 1d9b 05       		.uleb128 0x5
 7025 1d9c 03       		.byte	0x3
 7026 1d9d 10000000 		.4byte	.LC1
 7027 1da1 00       		.byte	0
 7028 1da2 25       		.uleb128 0x25
 7029 1da3 1C000000 		.4byte	.LVL192
 7030 1da7 67310000 		.4byte	0x3167
 7031 1dab 26       		.uleb128 0x26
 7032 1dac 01       		.uleb128 0x1
 7033 1dad 50       		.byte	0x50
 7034 1dae 02       		.uleb128 0x2
 7035 1daf 74       		.byte	0x74
 7036 1db0 00       		.sleb128 0
 7037 1db1 00       		.byte	0
 7038 1db2 00       		.byte	0
 7039 1db3 21       		.uleb128 0x21
 7040 1db4 F21B0000 		.4byte	.LASF371
 7041 1db8 01       		.byte	0x1
 7042 1db9 5501     		.2byte	0x155
 7043 1dbb 00000000 		.4byte	.LFB341
 7044 1dbf 00010000 		.4byte	.LFE341-.LFB341
 7045 1dc3 01       		.uleb128 0x1
 7046 1dc4 9C       		.byte	0x9c
 7047 1dc5 2C210000 		.4byte	0x212c
 7048 1dc9 1E       		.uleb128 0x1e
 7049 1dca 19030000 		.4byte	.LASF337
 7050 1dce 01       		.byte	0x1
 7051 1dcf 5501     		.2byte	0x155
 7052 1dd1 A40C0000 		.4byte	0xca4
 7053 1dd5 4D090000 		.4byte	.LLST83
 7054 1dd9 22       		.uleb128 0x22
 7055 1dda 9C0B0000 		.4byte	.LASF349
 7056 1dde 01       		.byte	0x1
 7057 1ddf 5701     		.2byte	0x157
 7058 1de1 EF000000 		.4byte	0xef
 7059 1de5 22       		.uleb128 0x22
 7060 1de6 4E0F0000 		.4byte	.LASF367
 7061 1dea 01       		.byte	0x1
 7062 1deb 5801     		.2byte	0x158
 7063 1ded EF000000 		.4byte	0xef
 7064 1df1 3E       		.uleb128 0x3e
 7065 1df2 746F7000 		.ascii	"top\000"
 7066 1df6 01       		.byte	0x1
 7067 1df7 5901     		.2byte	0x159
 7068 1df9 EF000000 		.4byte	0xef
 7069 1dfd 22       		.uleb128 0x22
 7070 1dfe B21A0000 		.4byte	.LASF343
 7071 1e02 01       		.byte	0x1
 7072 1e03 5A01     		.2byte	0x15a
 7073 1e05 EF000000 		.4byte	0xef
 7074 1e09 20       		.uleb128 0x20
 7075 1e0a B9020000 		.4byte	.LASF338
 7076 1e0e 01       		.byte	0x1
 7077 1e0f 5C01     		.2byte	0x15c
ARM GAS  C:\Users\strap\AppData\Local\Temp\cc7wbcEe.s 			page 153


 7078 1e11 590B0000 		.4byte	0xb59
 7079 1e15 6B090000 		.4byte	.LLST84
 7080 1e19 20       		.uleb128 0x20
 7081 1e1a 33100000 		.4byte	.LASF340
 7082 1e1e 01       		.byte	0x1
 7083 1e1f 5D01     		.2byte	0x15d
 7084 1e21 A40C0000 		.4byte	0xca4
 7085 1e25 7E090000 		.4byte	.LLST85
 7086 1e29 20       		.uleb128 0x20
 7087 1e2a 86100000 		.4byte	.LASF253
 7088 1e2e 01       		.byte	0x1
 7089 1e2f 6001     		.2byte	0x160
 7090 1e31 17020000 		.4byte	0x217
 7091 1e35 B2090000 		.4byte	.LLST86
 7092 1e39 20       		.uleb128 0x20
 7093 1e3a C21C0000 		.4byte	.LASF372
 7094 1e3e 01       		.byte	0x1
 7095 1e3f 6101     		.2byte	0x161
 7096 1e41 EF000000 		.4byte	0xef
 7097 1e45 DE090000 		.4byte	.LLST87
 7098 1e49 20       		.uleb128 0x20
 7099 1e4a 50140000 		.4byte	.LASF344
 7100 1e4e 01       		.byte	0x1
 7101 1e4f 7A01     		.2byte	0x17a
 7102 1e51 EF000000 		.4byte	0xef
 7103 1e55 080A0000 		.4byte	.LLST88
 7104 1e59 23       		.uleb128 0x23
 7105 1e5a 490D0000 		.4byte	0xd49
 7106 1e5e 08000000 		.4byte	.LBB171
 7107 1e62 0A000000 		.4byte	.LBE171-.LBB171
 7108 1e66 01       		.byte	0x1
 7109 1e67 5701     		.2byte	0x157
 7110 1e69 9A1E0000 		.4byte	0x1e9a
 7111 1e6d 24       		.uleb128 0x24
 7112 1e6e 640D0000 		.4byte	0xd64
 7113 1e72 260A0000 		.4byte	.LLST89
 7114 1e76 24       		.uleb128 0x24
 7115 1e77 590D0000 		.4byte	0xd59
 7116 1e7b 3A0A0000 		.4byte	.LLST90
 7117 1e7f 25       		.uleb128 0x25
 7118 1e80 10000000 		.4byte	.LVL197
 7119 1e84 B7300000 		.4byte	0x30b7
 7120 1e88 26       		.uleb128 0x26
 7121 1e89 01       		.uleb128 0x1
 7122 1e8a 50       		.byte	0x50
 7123 1e8b 02       		.uleb128 0x2
 7124 1e8c 79       		.byte	0x79
 7125 1e8d 00       		.sleb128 0
 7126 1e8e 26       		.uleb128 0x26
 7127 1e8f 01       		.uleb128 0x1
 7128 1e90 51       		.byte	0x51
 7129 1e91 01       		.uleb128 0x1
 7130 1e92 30       		.byte	0x30
 7131 1e93 26       		.uleb128 0x26
 7132 1e94 01       		.uleb128 0x1
 7133 1e95 52       		.byte	0x52
 7134 1e96 01       		.uleb128 0x1
ARM GAS  C:\Users\strap\AppData\Local\Temp\cc7wbcEe.s 			page 154


 7135 1e97 42       		.byte	0x42
 7136 1e98 00       		.byte	0
 7137 1e99 00       		.byte	0
 7138 1e9a 23       		.uleb128 0x23
 7139 1e9b 970D0000 		.4byte	0xd97
 7140 1e9f 12000000 		.4byte	.LBB173
 7141 1ea3 0C000000 		.4byte	.LBE173-.LBB173
 7142 1ea7 01       		.byte	0x1
 7143 1ea8 5801     		.2byte	0x158
 7144 1eaa DB1E0000 		.4byte	0x1edb
 7145 1eae 24       		.uleb128 0x24
 7146 1eaf B20D0000 		.4byte	0xdb2
 7147 1eb3 580A0000 		.4byte	.LLST91
 7148 1eb7 24       		.uleb128 0x24
 7149 1eb8 A70D0000 		.4byte	0xda7
 7150 1ebc 6C0A0000 		.4byte	.LLST92
 7151 1ec0 25       		.uleb128 0x25
 7152 1ec1 1C000000 		.4byte	.LVL199
 7153 1ec5 B7300000 		.4byte	0x30b7
 7154 1ec9 26       		.uleb128 0x26
 7155 1eca 01       		.uleb128 0x1
 7156 1ecb 50       		.byte	0x50
 7157 1ecc 02       		.uleb128 0x2
 7158 1ecd 79       		.byte	0x79
 7159 1ece 00       		.sleb128 0
 7160 1ecf 26       		.uleb128 0x26
 7161 1ed0 01       		.uleb128 0x1
 7162 1ed1 51       		.byte	0x51
 7163 1ed2 01       		.uleb128 0x1
 7164 1ed3 30       		.byte	0x30
 7165 1ed4 26       		.uleb128 0x26
 7166 1ed5 01       		.uleb128 0x1
 7167 1ed6 52       		.byte	0x52
 7168 1ed7 01       		.uleb128 0x1
 7169 1ed8 43       		.byte	0x43
 7170 1ed9 00       		.byte	0
 7171 1eda 00       		.byte	0
 7172 1edb 23       		.uleb128 0x23
 7173 1edc 220D0000 		.4byte	0xd22
 7174 1ee0 1E000000 		.4byte	.LBB175
 7175 1ee4 0C000000 		.4byte	.LBE175-.LBB175
 7176 1ee8 01       		.byte	0x1
 7177 1ee9 5901     		.2byte	0x159
 7178 1eeb 1C1F0000 		.4byte	0x1f1c
 7179 1eef 24       		.uleb128 0x24
 7180 1ef0 3D0D0000 		.4byte	0xd3d
 7181 1ef4 7F0A0000 		.4byte	.LLST93
 7182 1ef8 24       		.uleb128 0x24
 7183 1ef9 320D0000 		.4byte	0xd32
 7184 1efd 930A0000 		.4byte	.LLST94
 7185 1f01 25       		.uleb128 0x25
 7186 1f02 28000000 		.4byte	.LVL201
 7187 1f06 B7300000 		.4byte	0x30b7
 7188 1f0a 26       		.uleb128 0x26
 7189 1f0b 01       		.uleb128 0x1
 7190 1f0c 50       		.byte	0x50
 7191 1f0d 02       		.uleb128 0x2
ARM GAS  C:\Users\strap\AppData\Local\Temp\cc7wbcEe.s 			page 155


 7192 1f0e 79       		.byte	0x79
 7193 1f0f 00       		.sleb128 0
 7194 1f10 26       		.uleb128 0x26
 7195 1f11 01       		.uleb128 0x1
 7196 1f12 51       		.byte	0x51
 7197 1f13 01       		.uleb128 0x1
 7198 1f14 30       		.byte	0x30
 7199 1f15 26       		.uleb128 0x26
 7200 1f16 01       		.uleb128 0x1
 7201 1f17 52       		.byte	0x52
 7202 1f18 01       		.uleb128 0x1
 7203 1f19 40       		.byte	0x40
 7204 1f1a 00       		.byte	0
 7205 1f1b 00       		.byte	0
 7206 1f1c 23       		.uleb128 0x23
 7207 1f1d F00C0000 		.4byte	0xcf0
 7208 1f21 2A000000 		.4byte	.LBB177
 7209 1f25 0C000000 		.4byte	.LBE177-.LBB177
 7210 1f29 01       		.byte	0x1
 7211 1f2a 5A01     		.2byte	0x15a
 7212 1f2c 5D1F0000 		.4byte	0x1f5d
 7213 1f30 24       		.uleb128 0x24
 7214 1f31 0B0D0000 		.4byte	0xd0b
 7215 1f35 A60A0000 		.4byte	.LLST95
 7216 1f39 24       		.uleb128 0x24
 7217 1f3a 000D0000 		.4byte	0xd00
 7218 1f3e BA0A0000 		.4byte	.LLST96
 7219 1f42 25       		.uleb128 0x25
 7220 1f43 34000000 		.4byte	.LVL203
 7221 1f47 B7300000 		.4byte	0x30b7
 7222 1f4b 26       		.uleb128 0x26
 7223 1f4c 01       		.uleb128 0x1
 7224 1f4d 50       		.byte	0x50
 7225 1f4e 02       		.uleb128 0x2
 7226 1f4f 79       		.byte	0x79
 7227 1f50 00       		.sleb128 0
 7228 1f51 26       		.uleb128 0x26
 7229 1f52 01       		.uleb128 0x1
 7230 1f53 51       		.byte	0x51
 7231 1f54 01       		.uleb128 0x1
 7232 1f55 30       		.byte	0x30
 7233 1f56 26       		.uleb128 0x26
 7234 1f57 01       		.uleb128 0x1
 7235 1f58 52       		.byte	0x52
 7236 1f59 01       		.uleb128 0x1
 7237 1f5a 44       		.byte	0x44
 7238 1f5b 00       		.byte	0
 7239 1f5c 00       		.byte	0
 7240 1f5d 29       		.uleb128 0x29
 7241 1f5e 88000000 		.4byte	.LBB179
 7242 1f62 5C000000 		.4byte	.LBE179-.LBB179
 7243 1f66 BB200000 		.4byte	0x20bb
 7244 1f6a 22       		.uleb128 0x22
 7245 1f6b A11C0000 		.4byte	.LASF361
 7246 1f6f 01       		.byte	0x1
 7247 1f70 7D01     		.2byte	0x17d
 7248 1f72 A3040000 		.4byte	0x4a3
ARM GAS  C:\Users\strap\AppData\Local\Temp\cc7wbcEe.s 			page 156


 7249 1f76 22       		.uleb128 0x22
 7250 1f77 AC090000 		.4byte	.LASF362
 7251 1f7b 01       		.byte	0x1
 7252 1f7c 7E01     		.2byte	0x17e
 7253 1f7e A3040000 		.4byte	0x4a3
 7254 1f82 22       		.uleb128 0x22
 7255 1f83 321D0000 		.4byte	.LASF359
 7256 1f87 01       		.byte	0x1
 7257 1f88 7F01     		.2byte	0x17f
 7258 1f8a A3040000 		.4byte	0x4a3
 7259 1f8e 23       		.uleb128 0x23
 7260 1f8f 2F0E0000 		.4byte	0xe2f
 7261 1f93 9A000000 		.4byte	.LBB180
 7262 1f97 0C000000 		.4byte	.LBE180-.LBB180
 7263 1f9b 01       		.byte	0x1
 7264 1f9c 7D01     		.2byte	0x17d
 7265 1f9e CF1F0000 		.4byte	0x1fcf
 7266 1fa2 24       		.uleb128 0x24
 7267 1fa3 4A0E0000 		.4byte	0xe4a
 7268 1fa7 CD0A0000 		.4byte	.LLST97
 7269 1fab 24       		.uleb128 0x24
 7270 1fac 3F0E0000 		.4byte	0xe3f
 7271 1fb0 E10A0000 		.4byte	.LLST98
 7272 1fb4 25       		.uleb128 0x25
 7273 1fb5 A4000000 		.4byte	.LVL219
 7274 1fb9 B7300000 		.4byte	0x30b7
 7275 1fbd 26       		.uleb128 0x26
 7276 1fbe 01       		.uleb128 0x1
 7277 1fbf 50       		.byte	0x50
 7278 1fc0 02       		.uleb128 0x2
 7279 1fc1 74       		.byte	0x74
 7280 1fc2 00       		.sleb128 0
 7281 1fc3 26       		.uleb128 0x26
 7282 1fc4 01       		.uleb128 0x1
 7283 1fc5 51       		.byte	0x51
 7284 1fc6 01       		.uleb128 0x1
 7285 1fc7 30       		.byte	0x30
 7286 1fc8 26       		.uleb128 0x26
 7287 1fc9 01       		.uleb128 0x1
 7288 1fca 52       		.byte	0x52
 7289 1fcb 01       		.uleb128 0x1
 7290 1fcc 45       		.byte	0x45
 7291 1fcd 00       		.byte	0
 7292 1fce 00       		.byte	0
 7293 1fcf 23       		.uleb128 0x23
 7294 1fd0 560E0000 		.4byte	0xe56
 7295 1fd4 A6000000 		.4byte	.LBB182
 7296 1fd8 0C000000 		.4byte	.LBE182-.LBB182
 7297 1fdc 01       		.byte	0x1
 7298 1fdd 7E01     		.2byte	0x17e
 7299 1fdf 10200000 		.4byte	0x2010
 7300 1fe3 24       		.uleb128 0x24
 7301 1fe4 710E0000 		.4byte	0xe71
 7302 1fe8 F40A0000 		.4byte	.LLST99
 7303 1fec 24       		.uleb128 0x24
 7304 1fed 660E0000 		.4byte	0xe66
 7305 1ff1 080B0000 		.4byte	.LLST100
ARM GAS  C:\Users\strap\AppData\Local\Temp\cc7wbcEe.s 			page 157


 7306 1ff5 25       		.uleb128 0x25
 7307 1ff6 B0000000 		.4byte	.LVL221
 7308 1ffa B7300000 		.4byte	0x30b7
 7309 1ffe 26       		.uleb128 0x26
 7310 1fff 01       		.uleb128 0x1
 7311 2000 50       		.byte	0x50
 7312 2001 02       		.uleb128 0x2
 7313 2002 74       		.byte	0x74
 7314 2003 00       		.sleb128 0
 7315 2004 26       		.uleb128 0x26
 7316 2005 01       		.uleb128 0x1
 7317 2006 51       		.byte	0x51
 7318 2007 01       		.uleb128 0x1
 7319 2008 30       		.byte	0x30
 7320 2009 26       		.uleb128 0x26
 7321 200a 01       		.uleb128 0x1
 7322 200b 52       		.byte	0x52
 7323 200c 01       		.uleb128 0x1
 7324 200d 46       		.byte	0x46
 7325 200e 00       		.byte	0
 7326 200f 00       		.byte	0
 7327 2010 23       		.uleb128 0x23
 7328 2011 E10D0000 		.4byte	0xde1
 7329 2015 B2000000 		.4byte	.LBB184
 7330 2019 0A000000 		.4byte	.LBE184-.LBB184
 7331 201d 01       		.byte	0x1
 7332 201e 7F01     		.2byte	0x17f
 7333 2020 51200000 		.4byte	0x2051
 7334 2024 24       		.uleb128 0x24
 7335 2025 FC0D0000 		.4byte	0xdfc
 7336 2029 1B0B0000 		.4byte	.LLST101
 7337 202d 24       		.uleb128 0x24
 7338 202e F10D0000 		.4byte	0xdf1
 7339 2032 2F0B0000 		.4byte	.LLST102
 7340 2036 25       		.uleb128 0x25
 7341 2037 BC000000 		.4byte	.LVL223
 7342 203b B7300000 		.4byte	0x30b7
 7343 203f 26       		.uleb128 0x26
 7344 2040 01       		.uleb128 0x1
 7345 2041 50       		.byte	0x50
 7346 2042 02       		.uleb128 0x2
 7347 2043 74       		.byte	0x74
 7348 2044 00       		.sleb128 0
 7349 2045 26       		.uleb128 0x26
 7350 2046 01       		.uleb128 0x1
 7351 2047 51       		.byte	0x51
 7352 2048 01       		.uleb128 0x1
 7353 2049 30       		.byte	0x30
 7354 204a 26       		.uleb128 0x26
 7355 204b 01       		.uleb128 0x1
 7356 204c 52       		.byte	0x52
 7357 204d 01       		.uleb128 0x1
 7358 204e 47       		.byte	0x47
 7359 204f 00       		.byte	0
 7360 2050 00       		.byte	0
 7361 2051 27       		.uleb128 0x27
 7362 2052 8E000000 		.4byte	.LVL216
ARM GAS  C:\Users\strap\AppData\Local\Temp\cc7wbcEe.s 			page 158


 7363 2056 CE300000 		.4byte	0x30ce
 7364 205a 65200000 		.4byte	0x2065
 7365 205e 26       		.uleb128 0x26
 7366 205f 01       		.uleb128 0x1
 7367 2060 50       		.byte	0x50
 7368 2061 02       		.uleb128 0x2
 7369 2062 74       		.byte	0x74
 7370 2063 00       		.sleb128 0
 7371 2064 00       		.byte	0
 7372 2065 27       		.uleb128 0x27
 7373 2066 98000000 		.4byte	.LVL217
 7374 206a DA300000 		.4byte	0x30da
 7375 206e 7E200000 		.4byte	0x207e
 7376 2072 26       		.uleb128 0x26
 7377 2073 01       		.uleb128 0x1
 7378 2074 50       		.byte	0x50
 7379 2075 02       		.uleb128 0x2
 7380 2076 74       		.byte	0x74
 7381 2077 00       		.sleb128 0
 7382 2078 26       		.uleb128 0x26
 7383 2079 01       		.uleb128 0x1
 7384 207a 51       		.byte	0x51
 7385 207b 01       		.uleb128 0x1
 7386 207c 34       		.byte	0x34
 7387 207d 00       		.byte	0
 7388 207e 27       		.uleb128 0x27
 7389 207f D4000000 		.4byte	.LVL224
 7390 2083 14310000 		.4byte	0x3114
 7391 2087 AA200000 		.4byte	0x20aa
 7392 208b 26       		.uleb128 0x26
 7393 208c 01       		.uleb128 0x1
 7394 208d 50       		.byte	0x50
 7395 208e 02       		.uleb128 0x2
 7396 208f 74       		.byte	0x74
 7397 2090 00       		.sleb128 0
 7398 2091 26       		.uleb128 0x26
 7399 2092 01       		.uleb128 0x1
 7400 2093 51       		.byte	0x51
 7401 2094 02       		.uleb128 0x2
 7402 2095 79       		.byte	0x79
 7403 2096 00       		.sleb128 0
 7404 2097 26       		.uleb128 0x26
 7405 2098 01       		.uleb128 0x1
 7406 2099 52       		.byte	0x52
 7407 209a 04       		.uleb128 0x4
 7408 209b 91       		.byte	0x91
 7409 209c 54       		.sleb128 -44
 7410 209d 94       		.byte	0x94
 7411 209e 01       		.byte	0x1
 7412 209f 26       		.uleb128 0x26
 7413 20a0 02       		.uleb128 0x2
 7414 20a1 7D       		.byte	0x7d
 7415 20a2 00       		.sleb128 0
 7416 20a3 05       		.uleb128 0x5
 7417 20a4 76       		.byte	0x76
 7418 20a5 00       		.sleb128 0
 7419 20a6 75       		.byte	0x75
ARM GAS  C:\Users\strap\AppData\Local\Temp\cc7wbcEe.s 			page 159


 7420 20a7 00       		.sleb128 0
 7421 20a8 22       		.byte	0x22
 7422 20a9 00       		.byte	0
 7423 20aa 25       		.uleb128 0x25
 7424 20ab DA000000 		.4byte	.LVL225
 7425 20af E6300000 		.4byte	0x30e6
 7426 20b3 26       		.uleb128 0x26
 7427 20b4 01       		.uleb128 0x1
 7428 20b5 50       		.byte	0x50
 7429 20b6 02       		.uleb128 0x2
 7430 20b7 74       		.byte	0x74
 7431 20b8 00       		.sleb128 0
 7432 20b9 00       		.byte	0
 7433 20ba 00       		.byte	0
 7434 20bb 27       		.uleb128 0x27
 7435 20bc 3C000000 		.4byte	.LVL205
 7436 20c0 401D0000 		.4byte	0x1d40
 7437 20c4 CF200000 		.4byte	0x20cf
 7438 20c8 26       		.uleb128 0x26
 7439 20c9 01       		.uleb128 0x1
 7440 20ca 50       		.byte	0x50
 7441 20cb 02       		.uleb128 0x2
 7442 20cc 79       		.byte	0x79
 7443 20cd 00       		.sleb128 0
 7444 20ce 00       		.byte	0
 7445 20cf 27       		.uleb128 0x27
 7446 20d0 78000000 		.4byte	.LVL211
 7447 20d4 FD300000 		.4byte	0x30fd
 7448 20d8 E8200000 		.4byte	0x20e8
 7449 20dc 26       		.uleb128 0x26
 7450 20dd 01       		.uleb128 0x1
 7451 20de 50       		.byte	0x50
 7452 20df 02       		.uleb128 0x2
 7453 20e0 79       		.byte	0x79
 7454 20e1 00       		.sleb128 0
 7455 20e2 26       		.uleb128 0x26
 7456 20e3 01       		.uleb128 0x1
 7457 20e4 51       		.byte	0x51
 7458 20e5 01       		.uleb128 0x1
 7459 20e6 31       		.byte	0x31
 7460 20e7 00       		.byte	0
 7461 20e8 27       		.uleb128 0x27
 7462 20e9 82000000 		.4byte	.LVL212
 7463 20ed 09310000 		.4byte	0x3109
 7464 20f1 FC200000 		.4byte	0x20fc
 7465 20f5 26       		.uleb128 0x26
 7466 20f6 01       		.uleb128 0x1
 7467 20f7 50       		.byte	0x50
 7468 20f8 02       		.uleb128 0x2
 7469 20f9 78       		.byte	0x78
 7470 20fa 00       		.sleb128 0
 7471 20fb 00       		.byte	0
 7472 20fc 27       		.uleb128 0x27
 7473 20fd EC000000 		.4byte	.LVL227
 7474 2101 20310000 		.4byte	0x3120
 7475 2105 16210000 		.4byte	0x2116
 7476 2109 26       		.uleb128 0x26
ARM GAS  C:\Users\strap\AppData\Local\Temp\cc7wbcEe.s 			page 160


 7477 210a 01       		.uleb128 0x1
 7478 210b 50       		.byte	0x50
 7479 210c 02       		.uleb128 0x2
 7480 210d 78       		.byte	0x78
 7481 210e 00       		.sleb128 0
 7482 210f 26       		.uleb128 0x26
 7483 2110 01       		.uleb128 0x1
 7484 2111 51       		.byte	0x51
 7485 2112 02       		.uleb128 0x2
 7486 2113 74       		.byte	0x74
 7487 2114 00       		.sleb128 0
 7488 2115 00       		.byte	0
 7489 2116 25       		.uleb128 0x25
 7490 2117 FA000000 		.4byte	.LVL230
 7491 211b 2B310000 		.4byte	0x312b
 7492 211f 26       		.uleb128 0x26
 7493 2120 01       		.uleb128 0x1
 7494 2121 50       		.byte	0x50
 7495 2122 02       		.uleb128 0x2
 7496 2123 79       		.byte	0x79
 7497 2124 00       		.sleb128 0
 7498 2125 26       		.uleb128 0x26
 7499 2126 01       		.uleb128 0x1
 7500 2127 51       		.byte	0x51
 7501 2128 01       		.uleb128 0x1
 7502 2129 31       		.byte	0x31
 7503 212a 00       		.byte	0
 7504 212b 00       		.byte	0
 7505 212c 21       		.uleb128 0x21
 7506 212d 8E1C0000 		.4byte	.LASF373
 7507 2131 01       		.byte	0x1
 7508 2132 8B01     		.2byte	0x18b
 7509 2134 00000000 		.4byte	.LFB342
 7510 2138 30010000 		.4byte	.LFE342-.LFB342
 7511 213c 01       		.uleb128 0x1
 7512 213d 9C       		.byte	0x9c
 7513 213e 20240000 		.4byte	0x2420
 7514 2142 1E       		.uleb128 0x1e
 7515 2143 19030000 		.4byte	.LASF337
 7516 2147 01       		.byte	0x1
 7517 2148 8B01     		.2byte	0x18b
 7518 214a A40C0000 		.4byte	0xca4
 7519 214e 420B0000 		.4byte	.LLST103
 7520 2152 20       		.uleb128 0x20
 7521 2153 B9020000 		.4byte	.LASF338
 7522 2157 01       		.byte	0x1
 7523 2158 8E01     		.2byte	0x18e
 7524 215a 590B0000 		.4byte	0xb59
 7525 215e 600B0000 		.4byte	.LLST104
 7526 2162 20       		.uleb128 0x20
 7527 2163 33100000 		.4byte	.LASF340
 7528 2167 01       		.byte	0x1
 7529 2168 8F01     		.2byte	0x18f
 7530 216a A40C0000 		.4byte	0xca4
 7531 216e 730B0000 		.4byte	.LLST105
 7532 2172 28       		.uleb128 0x28
 7533 2173 86100000 		.4byte	.LASF253
ARM GAS  C:\Users\strap\AppData\Local\Temp\cc7wbcEe.s 			page 161


 7534 2177 01       		.byte	0x1
 7535 2178 9201     		.2byte	0x192
 7536 217a 17020000 		.4byte	0x217
 7537 217e 01       		.uleb128 0x1
 7538 217f 5A       		.byte	0x5a
 7539 2180 20       		.uleb128 0x20
 7540 2181 DE010000 		.4byte	.LASF374
 7541 2185 01       		.byte	0x1
 7542 2186 9301     		.2byte	0x193
 7543 2188 EF000000 		.4byte	0xef
 7544 218c A70B0000 		.4byte	.LLST106
 7545 2190 20       		.uleb128 0x20
 7546 2191 05180000 		.4byte	.LASF203
 7547 2195 01       		.byte	0x1
 7548 2196 9401     		.2byte	0x194
 7549 2198 94080000 		.4byte	0x894
 7550 219c 000C0000 		.4byte	.LLST107
 7551 21a0 28       		.uleb128 0x28
 7552 21a1 50140000 		.4byte	.LASF344
 7553 21a5 01       		.byte	0x1
 7554 21a6 AD01     		.2byte	0x1ad
 7555 21a8 EF000000 		.4byte	0xef
 7556 21ac 01       		.uleb128 0x1
 7557 21ad 5B       		.byte	0x5b
 7558 21ae 22       		.uleb128 0x22
 7559 21af B21A0000 		.4byte	.LASF343
 7560 21b3 01       		.byte	0x1
 7561 21b4 B101     		.2byte	0x1b1
 7562 21b6 EF000000 		.4byte	0xef
 7563 21ba 23       		.uleb128 0x23
 7564 21bb 220D0000 		.4byte	0xd22
 7565 21bf 22000000 		.4byte	.LBB186
 7566 21c3 0C000000 		.4byte	.LBE186-.LBB186
 7567 21c7 01       		.byte	0x1
 7568 21c8 9701     		.2byte	0x197
 7569 21ca FB210000 		.4byte	0x21fb
 7570 21ce 24       		.uleb128 0x24
 7571 21cf 3D0D0000 		.4byte	0xd3d
 7572 21d3 3F0C0000 		.4byte	.LLST108
 7573 21d7 24       		.uleb128 0x24
 7574 21d8 320D0000 		.4byte	0xd32
 7575 21dc 530C0000 		.4byte	.LLST109
 7576 21e0 25       		.uleb128 0x25
 7577 21e1 2C000000 		.4byte	.LVL238
 7578 21e5 B7300000 		.4byte	0x30b7
 7579 21e9 26       		.uleb128 0x26
 7580 21ea 01       		.uleb128 0x1
 7581 21eb 50       		.byte	0x50
 7582 21ec 02       		.uleb128 0x2
 7583 21ed 76       		.byte	0x76
 7584 21ee 00       		.sleb128 0
 7585 21ef 26       		.uleb128 0x26
 7586 21f0 01       		.uleb128 0x1
 7587 21f1 51       		.byte	0x51
 7588 21f2 01       		.uleb128 0x1
 7589 21f3 30       		.byte	0x30
 7590 21f4 26       		.uleb128 0x26
ARM GAS  C:\Users\strap\AppData\Local\Temp\cc7wbcEe.s 			page 162


 7591 21f5 01       		.uleb128 0x1
 7592 21f6 52       		.byte	0x52
 7593 21f7 01       		.uleb128 0x1
 7594 21f8 40       		.byte	0x40
 7595 21f9 00       		.byte	0
 7596 21fa 00       		.byte	0
 7597 21fb 23       		.uleb128 0x23
 7598 21fc 700D0000 		.4byte	0xd70
 7599 2200 46000000 		.4byte	.LBB188
 7600 2204 0A000000 		.4byte	.LBE188-.LBB188
 7601 2208 01       		.byte	0x1
 7602 2209 9F01     		.2byte	0x19f
 7603 220b 3C220000 		.4byte	0x223c
 7604 220f 24       		.uleb128 0x24
 7605 2210 8B0D0000 		.4byte	0xd8b
 7606 2214 660C0000 		.4byte	.LLST110
 7607 2218 24       		.uleb128 0x24
 7608 2219 800D0000 		.4byte	0xd80
 7609 221d 7A0C0000 		.4byte	.LLST111
 7610 2221 25       		.uleb128 0x25
 7611 2222 50000000 		.4byte	.LVL243
 7612 2226 B7300000 		.4byte	0x30b7
 7613 222a 26       		.uleb128 0x26
 7614 222b 01       		.uleb128 0x1
 7615 222c 50       		.byte	0x50
 7616 222d 02       		.uleb128 0x2
 7617 222e 76       		.byte	0x76
 7618 222f 00       		.sleb128 0
 7619 2230 26       		.uleb128 0x26
 7620 2231 01       		.uleb128 0x1
 7621 2232 51       		.byte	0x51
 7622 2233 01       		.uleb128 0x1
 7623 2234 30       		.byte	0x30
 7624 2235 26       		.uleb128 0x26
 7625 2236 01       		.uleb128 0x1
 7626 2237 52       		.byte	0x52
 7627 2238 01       		.uleb128 0x1
 7628 2239 41       		.byte	0x41
 7629 223a 00       		.byte	0
 7630 223b 00       		.byte	0
 7631 223c 23       		.uleb128 0x23
 7632 223d 970D0000 		.4byte	0xd97
 7633 2241 98000000 		.4byte	.LBB190
 7634 2245 0C000000 		.4byte	.LBE190-.LBB190
 7635 2249 01       		.byte	0x1
 7636 224a AE01     		.2byte	0x1ae
 7637 224c 7D220000 		.4byte	0x227d
 7638 2250 24       		.uleb128 0x24
 7639 2251 B20D0000 		.4byte	0xdb2
 7640 2255 8D0C0000 		.4byte	.LLST112
 7641 2259 24       		.uleb128 0x24
 7642 225a A70D0000 		.4byte	0xda7
 7643 225e A10C0000 		.4byte	.LLST113
 7644 2262 25       		.uleb128 0x25
 7645 2263 A2000000 		.4byte	.LVL253
 7646 2267 B7300000 		.4byte	0x30b7
 7647 226b 26       		.uleb128 0x26
ARM GAS  C:\Users\strap\AppData\Local\Temp\cc7wbcEe.s 			page 163


 7648 226c 01       		.uleb128 0x1
 7649 226d 50       		.byte	0x50
 7650 226e 02       		.uleb128 0x2
 7651 226f 76       		.byte	0x76
 7652 2270 00       		.sleb128 0
 7653 2271 26       		.uleb128 0x26
 7654 2272 01       		.uleb128 0x1
 7655 2273 51       		.byte	0x51
 7656 2274 01       		.uleb128 0x1
 7657 2275 30       		.byte	0x30
 7658 2276 26       		.uleb128 0x26
 7659 2277 01       		.uleb128 0x1
 7660 2278 52       		.byte	0x52
 7661 2279 01       		.uleb128 0x1
 7662 227a 43       		.byte	0x43
 7663 227b 00       		.byte	0
 7664 227c 00       		.byte	0
 7665 227d 23       		.uleb128 0x23
 7666 227e 490D0000 		.4byte	0xd49
 7667 2282 A6000000 		.4byte	.LBB192
 7668 2286 0C000000 		.4byte	.LBE192-.LBB192
 7669 228a 01       		.byte	0x1
 7670 228b AF01     		.2byte	0x1af
 7671 228d BE220000 		.4byte	0x22be
 7672 2291 24       		.uleb128 0x24
 7673 2292 640D0000 		.4byte	0xd64
 7674 2296 B40C0000 		.4byte	.LLST114
 7675 229a 24       		.uleb128 0x24
 7676 229b 590D0000 		.4byte	0xd59
 7677 229f C80C0000 		.4byte	.LLST115
 7678 22a3 25       		.uleb128 0x25
 7679 22a4 B0000000 		.4byte	.LVL256
 7680 22a8 B7300000 		.4byte	0x30b7
 7681 22ac 26       		.uleb128 0x26
 7682 22ad 01       		.uleb128 0x1
 7683 22ae 50       		.byte	0x50
 7684 22af 02       		.uleb128 0x2
 7685 22b0 76       		.byte	0x76
 7686 22b1 00       		.sleb128 0
 7687 22b2 26       		.uleb128 0x26
 7688 22b3 01       		.uleb128 0x1
 7689 22b4 51       		.byte	0x51
 7690 22b5 01       		.uleb128 0x1
 7691 22b6 30       		.byte	0x30
 7692 22b7 26       		.uleb128 0x26
 7693 22b8 01       		.uleb128 0x1
 7694 22b9 52       		.byte	0x52
 7695 22ba 01       		.uleb128 0x1
 7696 22bb 42       		.byte	0x42
 7697 22bc 00       		.byte	0
 7698 22bd 00       		.byte	0
 7699 22be 23       		.uleb128 0x23
 7700 22bf F00C0000 		.4byte	0xcf0
 7701 22c3 B2000000 		.4byte	.LBB194
 7702 22c7 0C000000 		.4byte	.LBE194-.LBB194
 7703 22cb 01       		.byte	0x1
 7704 22cc B101     		.2byte	0x1b1
ARM GAS  C:\Users\strap\AppData\Local\Temp\cc7wbcEe.s 			page 164


 7705 22ce FF220000 		.4byte	0x22ff
 7706 22d2 24       		.uleb128 0x24
 7707 22d3 0B0D0000 		.4byte	0xd0b
 7708 22d7 DB0C0000 		.4byte	.LLST116
 7709 22db 24       		.uleb128 0x24
 7710 22dc 000D0000 		.4byte	0xd00
 7711 22e0 EF0C0000 		.4byte	.LLST117
 7712 22e4 25       		.uleb128 0x25
 7713 22e5 BC000000 		.4byte	.LVL258
 7714 22e9 B7300000 		.4byte	0x30b7
 7715 22ed 26       		.uleb128 0x26
 7716 22ee 01       		.uleb128 0x1
 7717 22ef 50       		.byte	0x50
 7718 22f0 02       		.uleb128 0x2
 7719 22f1 76       		.byte	0x76
 7720 22f2 00       		.sleb128 0
 7721 22f3 26       		.uleb128 0x26
 7722 22f4 01       		.uleb128 0x1
 7723 22f5 51       		.byte	0x51
 7724 22f6 01       		.uleb128 0x1
 7725 22f7 30       		.byte	0x30
 7726 22f8 26       		.uleb128 0x26
 7727 22f9 01       		.uleb128 0x1
 7728 22fa 52       		.byte	0x52
 7729 22fb 01       		.uleb128 0x1
 7730 22fc 44       		.byte	0x44
 7731 22fd 00       		.byte	0
 7732 22fe 00       		.byte	0
 7733 22ff 27       		.uleb128 0x27
 7734 2300 0C000000 		.4byte	.LVL232
 7735 2304 401D0000 		.4byte	0x1d40
 7736 2308 13230000 		.4byte	0x2313
 7737 230c 26       		.uleb128 0x26
 7738 230d 01       		.uleb128 0x1
 7739 230e 50       		.byte	0x50
 7740 230f 02       		.uleb128 0x2
 7741 2310 76       		.byte	0x76
 7742 2311 00       		.sleb128 0
 7743 2312 00       		.byte	0
 7744 2313 27       		.uleb128 0x27
 7745 2314 14000000 		.4byte	.LVL234
 7746 2318 2F320000 		.4byte	0x322f
 7747 231c 27230000 		.4byte	0x2327
 7748 2320 26       		.uleb128 0x26
 7749 2321 01       		.uleb128 0x1
 7750 2322 50       		.byte	0x50
 7751 2323 02       		.uleb128 0x2
 7752 2324 76       		.byte	0x76
 7753 2325 00       		.sleb128 0
 7754 2326 00       		.byte	0
 7755 2327 27       		.uleb128 0x27
 7756 2328 94000000 		.4byte	.LVL251
 7757 232c FD300000 		.4byte	0x30fd
 7758 2330 40230000 		.4byte	0x2340
 7759 2334 26       		.uleb128 0x26
 7760 2335 01       		.uleb128 0x1
 7761 2336 50       		.byte	0x50
ARM GAS  C:\Users\strap\AppData\Local\Temp\cc7wbcEe.s 			page 165


 7762 2337 02       		.uleb128 0x2
 7763 2338 76       		.byte	0x76
 7764 2339 00       		.sleb128 0
 7765 233a 26       		.uleb128 0x26
 7766 233b 01       		.uleb128 0x1
 7767 233c 51       		.byte	0x51
 7768 233d 01       		.uleb128 0x1
 7769 233e 31       		.byte	0x31
 7770 233f 00       		.byte	0
 7771 2340 27       		.uleb128 0x27
 7772 2341 C6000000 		.4byte	.LVL260
 7773 2345 09310000 		.4byte	0x3109
 7774 2349 54230000 		.4byte	0x2354
 7775 234d 26       		.uleb128 0x26
 7776 234e 01       		.uleb128 0x1
 7777 234f 50       		.byte	0x50
 7778 2350 02       		.uleb128 0x2
 7779 2351 75       		.byte	0x75
 7780 2352 00       		.sleb128 0
 7781 2353 00       		.byte	0
 7782 2354 27       		.uleb128 0x27
 7783 2355 D0000000 		.4byte	.LVL263
 7784 2359 CE300000 		.4byte	0x30ce
 7785 235d 68230000 		.4byte	0x2368
 7786 2361 26       		.uleb128 0x26
 7787 2362 01       		.uleb128 0x1
 7788 2363 50       		.byte	0x50
 7789 2364 02       		.uleb128 0x2
 7790 2365 74       		.byte	0x74
 7791 2366 00       		.sleb128 0
 7792 2367 00       		.byte	0
 7793 2368 27       		.uleb128 0x27
 7794 2369 DA000000 		.4byte	.LVL264
 7795 236d DA300000 		.4byte	0x30da
 7796 2371 81230000 		.4byte	0x2381
 7797 2375 26       		.uleb128 0x26
 7798 2376 01       		.uleb128 0x1
 7799 2377 50       		.byte	0x50
 7800 2378 02       		.uleb128 0x2
 7801 2379 74       		.byte	0x74
 7802 237a 00       		.sleb128 0
 7803 237b 26       		.uleb128 0x26
 7804 237c 01       		.uleb128 0x1
 7805 237d 51       		.byte	0x51
 7806 237e 01       		.uleb128 0x1
 7807 237f 34       		.byte	0x34
 7808 2380 00       		.byte	0
 7809 2381 27       		.uleb128 0x27
 7810 2382 F4000000 		.4byte	.LVL265
 7811 2386 14310000 		.4byte	0x3114
 7812 238a AF230000 		.4byte	0x23af
 7813 238e 26       		.uleb128 0x26
 7814 238f 01       		.uleb128 0x1
 7815 2390 50       		.byte	0x50
 7816 2391 02       		.uleb128 0x2
 7817 2392 74       		.byte	0x74
 7818 2393 00       		.sleb128 0
ARM GAS  C:\Users\strap\AppData\Local\Temp\cc7wbcEe.s 			page 166


 7819 2394 26       		.uleb128 0x26
 7820 2395 01       		.uleb128 0x1
 7821 2396 51       		.byte	0x51
 7822 2397 02       		.uleb128 0x2
 7823 2398 76       		.byte	0x76
 7824 2399 00       		.sleb128 0
 7825 239a 26       		.uleb128 0x26
 7826 239b 01       		.uleb128 0x1
 7827 239c 52       		.byte	0x52
 7828 239d 02       		.uleb128 0x2
 7829 239e 7A       		.byte	0x7a
 7830 239f 00       		.sleb128 0
 7831 23a0 26       		.uleb128 0x26
 7832 23a1 01       		.uleb128 0x1
 7833 23a2 53       		.byte	0x53
 7834 23a3 03       		.uleb128 0x3
 7835 23a4 7B       		.byte	0x7b
 7836 23a5 00       		.sleb128 0
 7837 23a6 1F       		.byte	0x1f
 7838 23a7 26       		.uleb128 0x26
 7839 23a8 02       		.uleb128 0x2
 7840 23a9 7D       		.byte	0x7d
 7841 23aa 00       		.sleb128 0
 7842 23ab 02       		.uleb128 0x2
 7843 23ac 78       		.byte	0x78
 7844 23ad 00       		.sleb128 0
 7845 23ae 00       		.byte	0
 7846 23af 27       		.uleb128 0x27
 7847 23b0 06010000 		.4byte	.LVL266
 7848 23b4 14310000 		.4byte	0x3114
 7849 23b8 DC230000 		.4byte	0x23dc
 7850 23bc 26       		.uleb128 0x26
 7851 23bd 01       		.uleb128 0x1
 7852 23be 50       		.byte	0x50
 7853 23bf 02       		.uleb128 0x2
 7854 23c0 74       		.byte	0x74
 7855 23c1 00       		.sleb128 0
 7856 23c2 26       		.uleb128 0x26
 7857 23c3 01       		.uleb128 0x1
 7858 23c4 51       		.byte	0x51
 7859 23c5 02       		.uleb128 0x2
 7860 23c6 76       		.byte	0x76
 7861 23c7 00       		.sleb128 0
 7862 23c8 26       		.uleb128 0x26
 7863 23c9 01       		.uleb128 0x1
 7864 23ca 52       		.byte	0x52
 7865 23cb 02       		.uleb128 0x2
 7866 23cc 7A       		.byte	0x7a
 7867 23cd 00       		.sleb128 0
 7868 23ce 26       		.uleb128 0x26
 7869 23cf 01       		.uleb128 0x1
 7870 23d0 53       		.byte	0x53
 7871 23d1 02       		.uleb128 0x2
 7872 23d2 7B       		.byte	0x7b
 7873 23d3 00       		.sleb128 0
 7874 23d4 26       		.uleb128 0x26
 7875 23d5 02       		.uleb128 0x2
ARM GAS  C:\Users\strap\AppData\Local\Temp\cc7wbcEe.s 			page 167


 7876 23d6 7D       		.byte	0x7d
 7877 23d7 00       		.sleb128 0
 7878 23d8 02       		.uleb128 0x2
 7879 23d9 78       		.byte	0x78
 7880 23da 00       		.sleb128 0
 7881 23db 00       		.byte	0
 7882 23dc 27       		.uleb128 0x27
 7883 23dd 0C010000 		.4byte	.LVL267
 7884 23e1 37310000 		.4byte	0x3137
 7885 23e5 F0230000 		.4byte	0x23f0
 7886 23e9 26       		.uleb128 0x26
 7887 23ea 01       		.uleb128 0x1
 7888 23eb 50       		.byte	0x50
 7889 23ec 02       		.uleb128 0x2
 7890 23ed 74       		.byte	0x74
 7891 23ee 00       		.sleb128 0
 7892 23ef 00       		.byte	0
 7893 23f0 27       		.uleb128 0x27
 7894 23f1 1C010000 		.4byte	.LVL269
 7895 23f5 20310000 		.4byte	0x3120
 7896 23f9 0A240000 		.4byte	0x240a
 7897 23fd 26       		.uleb128 0x26
 7898 23fe 01       		.uleb128 0x1
 7899 23ff 50       		.byte	0x50
 7900 2400 02       		.uleb128 0x2
 7901 2401 75       		.byte	0x75
 7902 2402 00       		.sleb128 0
 7903 2403 26       		.uleb128 0x26
 7904 2404 01       		.uleb128 0x1
 7905 2405 51       		.byte	0x51
 7906 2406 02       		.uleb128 0x2
 7907 2407 74       		.byte	0x74
 7908 2408 00       		.sleb128 0
 7909 2409 00       		.byte	0
 7910 240a 25       		.uleb128 0x25
 7911 240b 2A010000 		.4byte	.LVL272
 7912 240f 2B310000 		.4byte	0x312b
 7913 2413 26       		.uleb128 0x26
 7914 2414 01       		.uleb128 0x1
 7915 2415 50       		.byte	0x50
 7916 2416 02       		.uleb128 0x2
 7917 2417 76       		.byte	0x76
 7918 2418 00       		.sleb128 0
 7919 2419 26       		.uleb128 0x26
 7920 241a 01       		.uleb128 0x1
 7921 241b 51       		.byte	0x51
 7922 241c 01       		.uleb128 0x1
 7923 241d 31       		.byte	0x31
 7924 241e 00       		.byte	0
 7925 241f 00       		.byte	0
 7926 2420 21       		.uleb128 0x21
 7927 2421 091B0000 		.4byte	.LASF375
 7928 2425 01       		.byte	0x1
 7929 2426 E901     		.2byte	0x1e9
 7930 2428 00000000 		.4byte	.LFB344
 7931 242c 06030000 		.4byte	.LFE344-.LFB344
 7932 2430 01       		.uleb128 0x1
ARM GAS  C:\Users\strap\AppData\Local\Temp\cc7wbcEe.s 			page 168


 7933 2431 9C       		.byte	0x9c
 7934 2432 402C0000 		.4byte	0x2c40
 7935 2436 1E       		.uleb128 0x1e
 7936 2437 19030000 		.4byte	.LASF337
 7937 243b 01       		.byte	0x1
 7938 243c E901     		.2byte	0x1e9
 7939 243e A40C0000 		.4byte	0xca4
 7940 2442 020D0000 		.4byte	.LLST118
 7941 2446 28       		.uleb128 0x28
 7942 2447 B9020000 		.4byte	.LASF338
 7943 244b 01       		.byte	0x1
 7944 244c EB01     		.2byte	0x1eb
 7945 244e 590B0000 		.4byte	0xb59
 7946 2452 02       		.uleb128 0x2
 7947 2453 91       		.byte	0x91
 7948 2454 54       		.sleb128 -44
 7949 2455 20       		.uleb128 0x20
 7950 2456 8A150000 		.4byte	.LASF376
 7951 245a 01       		.byte	0x1
 7952 245b ED01     		.2byte	0x1ed
 7953 245d A40C0000 		.4byte	0xca4
 7954 2461 2D0D0000 		.4byte	.LLST119
 7955 2465 20       		.uleb128 0x20
 7956 2466 71150000 		.4byte	.LASF377
 7957 246a 01       		.byte	0x1
 7958 246b EE01     		.2byte	0x1ee
 7959 246d A40C0000 		.4byte	0xca4
 7960 2471 AE0D0000 		.4byte	.LLST120
 7961 2475 20       		.uleb128 0x20
 7962 2476 FB170000 		.4byte	.LASF378
 7963 247a 01       		.byte	0x1
 7964 247b EF01     		.2byte	0x1ef
 7965 247d A40C0000 		.4byte	0xca4
 7966 2481 0E0E0000 		.4byte	.LLST121
 7967 2485 20       		.uleb128 0x20
 7968 2486 28020000 		.4byte	.LASF379
 7969 248a 01       		.byte	0x1
 7970 248b F001     		.2byte	0x1f0
 7971 248d EF000000 		.4byte	0xef
 7972 2491 210E0000 		.4byte	.LLST122
 7973 2495 20       		.uleb128 0x20
 7974 2496 EA020000 		.4byte	.LASF351
 7975 249a 01       		.byte	0x1
 7976 249b F101     		.2byte	0x1f1
 7977 249d EF000000 		.4byte	0xef
 7978 24a1 340E0000 		.4byte	.LLST123
 7979 24a5 22       		.uleb128 0x22
 7980 24a6 65100000 		.4byte	.LASF380
 7981 24aa 01       		.byte	0x1
 7982 24ab F901     		.2byte	0x1f9
 7983 24ad EF000000 		.4byte	0xef
 7984 24b1 22       		.uleb128 0x22
 7985 24b2 FA100000 		.4byte	.LASF381
 7986 24b6 01       		.byte	0x1
 7987 24b7 FA01     		.2byte	0x1fa
 7988 24b9 EF000000 		.4byte	0xef
 7989 24bd 22       		.uleb128 0x22
ARM GAS  C:\Users\strap\AppData\Local\Temp\cc7wbcEe.s 			page 169


 7990 24be C0170000 		.4byte	.LASF382
 7991 24c2 01       		.byte	0x1
 7992 24c3 FB01     		.2byte	0x1fb
 7993 24c5 EF000000 		.4byte	0xef
 7994 24c9 23       		.uleb128 0x23
 7995 24ca 220D0000 		.4byte	0xd22
 7996 24ce 18000000 		.4byte	.LBB196
 7997 24d2 0C000000 		.4byte	.LBE196-.LBB196
 7998 24d6 01       		.byte	0x1
 7999 24d7 F101     		.2byte	0x1f1
 8000 24d9 0A250000 		.4byte	0x250a
 8001 24dd 24       		.uleb128 0x24
 8002 24de 3D0D0000 		.4byte	0xd3d
 8003 24e2 490E0000 		.4byte	.LLST124
 8004 24e6 24       		.uleb128 0x24
 8005 24e7 320D0000 		.4byte	0xd32
 8006 24eb 5D0E0000 		.4byte	.LLST125
 8007 24ef 25       		.uleb128 0x25
 8008 24f0 22000000 		.4byte	.LVL278
 8009 24f4 B7300000 		.4byte	0x30b7
 8010 24f8 26       		.uleb128 0x26
 8011 24f9 01       		.uleb128 0x1
 8012 24fa 50       		.byte	0x50
 8013 24fb 02       		.uleb128 0x2
 8014 24fc 74       		.byte	0x74
 8015 24fd 00       		.sleb128 0
 8016 24fe 26       		.uleb128 0x26
 8017 24ff 01       		.uleb128 0x1
 8018 2500 51       		.byte	0x51
 8019 2501 01       		.uleb128 0x1
 8020 2502 30       		.byte	0x30
 8021 2503 26       		.uleb128 0x26
 8022 2504 01       		.uleb128 0x1
 8023 2505 52       		.byte	0x52
 8024 2506 01       		.uleb128 0x1
 8025 2507 40       		.byte	0x40
 8026 2508 00       		.byte	0
 8027 2509 00       		.byte	0
 8028 250a 23       		.uleb128 0x23
 8029 250b 490D0000 		.4byte	0xd49
 8030 250f 40000000 		.4byte	.LBB198
 8031 2513 0C000000 		.4byte	.LBE198-.LBB198
 8032 2517 01       		.byte	0x1
 8033 2518 F901     		.2byte	0x1f9
 8034 251a 4B250000 		.4byte	0x254b
 8035 251e 24       		.uleb128 0x24
 8036 251f 640D0000 		.4byte	0xd64
 8037 2523 700E0000 		.4byte	.LLST126
 8038 2527 24       		.uleb128 0x24
 8039 2528 590D0000 		.4byte	0xd59
 8040 252c 840E0000 		.4byte	.LLST127
 8041 2530 25       		.uleb128 0x25
 8042 2531 4A000000 		.4byte	.LVL283
 8043 2535 B7300000 		.4byte	0x30b7
 8044 2539 26       		.uleb128 0x26
 8045 253a 01       		.uleb128 0x1
 8046 253b 50       		.byte	0x50
ARM GAS  C:\Users\strap\AppData\Local\Temp\cc7wbcEe.s 			page 170


 8047 253c 02       		.uleb128 0x2
 8048 253d 74       		.byte	0x74
 8049 253e 00       		.sleb128 0
 8050 253f 26       		.uleb128 0x26
 8051 2540 01       		.uleb128 0x1
 8052 2541 51       		.byte	0x51
 8053 2542 01       		.uleb128 0x1
 8054 2543 30       		.byte	0x30
 8055 2544 26       		.uleb128 0x26
 8056 2545 01       		.uleb128 0x1
 8057 2546 52       		.byte	0x52
 8058 2547 01       		.uleb128 0x1
 8059 2548 42       		.byte	0x42
 8060 2549 00       		.byte	0
 8061 254a 00       		.byte	0
 8062 254b 23       		.uleb128 0x23
 8063 254c 970D0000 		.4byte	0xd97
 8064 2550 4C000000 		.4byte	.LBB200
 8065 2554 0C000000 		.4byte	.LBE200-.LBB200
 8066 2558 01       		.byte	0x1
 8067 2559 FA01     		.2byte	0x1fa
 8068 255b 8C250000 		.4byte	0x258c
 8069 255f 24       		.uleb128 0x24
 8070 2560 B20D0000 		.4byte	0xdb2
 8071 2564 970E0000 		.4byte	.LLST128
 8072 2568 24       		.uleb128 0x24
 8073 2569 A70D0000 		.4byte	0xda7
 8074 256d AB0E0000 		.4byte	.LLST129
 8075 2571 25       		.uleb128 0x25
 8076 2572 56000000 		.4byte	.LVL285
 8077 2576 B7300000 		.4byte	0x30b7
 8078 257a 26       		.uleb128 0x26
 8079 257b 01       		.uleb128 0x1
 8080 257c 50       		.byte	0x50
 8081 257d 02       		.uleb128 0x2
 8082 257e 74       		.byte	0x74
 8083 257f 00       		.sleb128 0
 8084 2580 26       		.uleb128 0x26
 8085 2581 01       		.uleb128 0x1
 8086 2582 51       		.byte	0x51
 8087 2583 01       		.uleb128 0x1
 8088 2584 30       		.byte	0x30
 8089 2585 26       		.uleb128 0x26
 8090 2586 01       		.uleb128 0x1
 8091 2587 52       		.byte	0x52
 8092 2588 01       		.uleb128 0x1
 8093 2589 43       		.byte	0x43
 8094 258a 00       		.byte	0
 8095 258b 00       		.byte	0
 8096 258c 23       		.uleb128 0x23
 8097 258d F00C0000 		.4byte	0xcf0
 8098 2591 58000000 		.4byte	.LBB202
 8099 2595 10000000 		.4byte	.LBE202-.LBB202
 8100 2599 01       		.byte	0x1
 8101 259a FB01     		.2byte	0x1fb
 8102 259c CD250000 		.4byte	0x25cd
 8103 25a0 24       		.uleb128 0x24
ARM GAS  C:\Users\strap\AppData\Local\Temp\cc7wbcEe.s 			page 171


 8104 25a1 0B0D0000 		.4byte	0xd0b
 8105 25a5 BE0E0000 		.4byte	.LLST130
 8106 25a9 24       		.uleb128 0x24
 8107 25aa 000D0000 		.4byte	0xd00
 8108 25ae D20E0000 		.4byte	.LLST131
 8109 25b2 25       		.uleb128 0x25
 8110 25b3 62000000 		.4byte	.LVL287
 8111 25b7 B7300000 		.4byte	0x30b7
 8112 25bb 26       		.uleb128 0x26
 8113 25bc 01       		.uleb128 0x1
 8114 25bd 50       		.byte	0x50
 8115 25be 02       		.uleb128 0x2
 8116 25bf 74       		.byte	0x74
 8117 25c0 00       		.sleb128 0
 8118 25c1 26       		.uleb128 0x26
 8119 25c2 01       		.uleb128 0x1
 8120 25c3 51       		.byte	0x51
 8121 25c4 01       		.uleb128 0x1
 8122 25c5 30       		.byte	0x30
 8123 25c6 26       		.uleb128 0x26
 8124 25c7 01       		.uleb128 0x1
 8125 25c8 52       		.byte	0x52
 8126 25c9 01       		.uleb128 0x1
 8127 25ca 44       		.byte	0x44
 8128 25cb 00       		.byte	0
 8129 25cc 00       		.byte	0
 8130 25cd 29       		.uleb128 0x29
 8131 25ce 6A000000 		.4byte	.LBB204
 8132 25d2 88020000 		.4byte	.LBE204-.LBB204
 8133 25d6 D12B0000 		.4byte	0x2bd1
 8134 25da 20       		.uleb128 0x20
 8135 25db 74030000 		.4byte	.LASF383
 8136 25df 01       		.byte	0x1
 8137 25e0 FF01     		.2byte	0x1ff
 8138 25e2 EF000000 		.4byte	0xef
 8139 25e6 E50E0000 		.4byte	.LLST132
 8140 25ea 20       		.uleb128 0x20
 8141 25eb 5B030000 		.4byte	.LASF384
 8142 25ef 01       		.byte	0x1
 8143 25f0 0002     		.2byte	0x200
 8144 25f2 EF000000 		.4byte	0xef
 8145 25f6 250F0000 		.4byte	.LLST133
 8146 25fa 20       		.uleb128 0x20
 8147 25fb 30110000 		.4byte	.LASF341
 8148 25ff 01       		.byte	0x1
 8149 2600 0102     		.2byte	0x201
 8150 2602 CE000000 		.4byte	0xce
 8151 2606 740F0000 		.4byte	.LLST134
 8152 260a 29       		.uleb128 0x29
 8153 260b 94000000 		.4byte	.LBB205
 8154 260f 82000000 		.4byte	.LBE205-.LBB205
 8155 2613 91270000 		.4byte	0x2791
 8156 2617 2B       		.uleb128 0x2b
 8157 2618 7700     		.ascii	"w\000"
 8158 261a 01       		.byte	0x1
 8159 261b 0702     		.2byte	0x207
 8160 261d EF000000 		.4byte	0xef
ARM GAS  C:\Users\strap\AppData\Local\Temp\cc7wbcEe.s 			page 172


 8161 2621 ED0F0000 		.4byte	.LLST135
 8162 2625 2B       		.uleb128 0x2b
 8163 2626 6800     		.ascii	"h\000"
 8164 2628 01       		.byte	0x1
 8165 2629 1402     		.2byte	0x214
 8166 262b EF000000 		.4byte	0xef
 8167 262f 21100000 		.4byte	.LLST136
 8168 2633 23       		.uleb128 0x23
 8169 2634 E10D0000 		.4byte	0xde1
 8170 2638 9C000000 		.4byte	.LBB206
 8171 263c 0A000000 		.4byte	.LBE206-.LBB206
 8172 2640 01       		.byte	0x1
 8173 2641 0802     		.2byte	0x208
 8174 2643 74260000 		.4byte	0x2674
 8175 2647 24       		.uleb128 0x24
 8176 2648 FC0D0000 		.4byte	0xdfc
 8177 264c 3F100000 		.4byte	.LLST137
 8178 2650 24       		.uleb128 0x24
 8179 2651 F10D0000 		.4byte	0xdf1
 8180 2655 53100000 		.4byte	.LLST138
 8181 2659 25       		.uleb128 0x25
 8182 265a A6000000 		.4byte	.LVL297
 8183 265e B7300000 		.4byte	0x30b7
 8184 2662 26       		.uleb128 0x26
 8185 2663 01       		.uleb128 0x1
 8186 2664 50       		.byte	0x50
 8187 2665 02       		.uleb128 0x2
 8188 2666 74       		.byte	0x74
 8189 2667 00       		.sleb128 0
 8190 2668 26       		.uleb128 0x26
 8191 2669 01       		.uleb128 0x1
 8192 266a 51       		.byte	0x51
 8193 266b 01       		.uleb128 0x1
 8194 266c 30       		.byte	0x30
 8195 266d 26       		.uleb128 0x26
 8196 266e 01       		.uleb128 0x1
 8197 266f 52       		.byte	0x52
 8198 2670 01       		.uleb128 0x1
 8199 2671 47       		.byte	0x47
 8200 2672 00       		.byte	0
 8201 2673 00       		.byte	0
 8202 2674 23       		.uleb128 0x23
 8203 2675 080E0000 		.4byte	0xe08
 8204 2679 AC000000 		.4byte	.LBB208
 8205 267d 0A000000 		.4byte	.LBE208-.LBB208
 8206 2681 01       		.byte	0x1
 8207 2682 0902     		.2byte	0x209
 8208 2684 B5260000 		.4byte	0x26b5
 8209 2688 24       		.uleb128 0x24
 8210 2689 230E0000 		.4byte	0xe23
 8211 268d 66100000 		.4byte	.LLST139
 8212 2691 24       		.uleb128 0x24
 8213 2692 180E0000 		.4byte	0xe18
 8214 2696 7A100000 		.4byte	.LLST140
 8215 269a 25       		.uleb128 0x25
 8216 269b B6000000 		.4byte	.LVL299
 8217 269f B7300000 		.4byte	0x30b7
ARM GAS  C:\Users\strap\AppData\Local\Temp\cc7wbcEe.s 			page 173


 8218 26a3 26       		.uleb128 0x26
 8219 26a4 01       		.uleb128 0x1
 8220 26a5 50       		.byte	0x50
 8221 26a6 02       		.uleb128 0x2
 8222 26a7 74       		.byte	0x74
 8223 26a8 00       		.sleb128 0
 8224 26a9 26       		.uleb128 0x26
 8225 26aa 01       		.uleb128 0x1
 8226 26ab 51       		.byte	0x51
 8227 26ac 01       		.uleb128 0x1
 8228 26ad 30       		.byte	0x30
 8229 26ae 26       		.uleb128 0x26
 8230 26af 01       		.uleb128 0x1
 8231 26b0 52       		.byte	0x52
 8232 26b1 01       		.uleb128 0x1
 8233 26b2 48       		.byte	0x48
 8234 26b3 00       		.byte	0
 8235 26b4 00       		.byte	0
 8236 26b5 23       		.uleb128 0x23
 8237 26b6 2F0E0000 		.4byte	0xe2f
 8238 26ba E6000000 		.4byte	.LBB210
 8239 26be 0A000000 		.4byte	.LBE210-.LBB210
 8240 26c2 01       		.byte	0x1
 8241 26c3 1502     		.2byte	0x215
 8242 26c5 F6260000 		.4byte	0x26f6
 8243 26c9 24       		.uleb128 0x24
 8244 26ca 4A0E0000 		.4byte	0xe4a
 8245 26ce 8D100000 		.4byte	.LLST141
 8246 26d2 24       		.uleb128 0x24
 8247 26d3 3F0E0000 		.4byte	0xe3f
 8248 26d7 A1100000 		.4byte	.LLST142
 8249 26db 25       		.uleb128 0x25
 8250 26dc F0000000 		.4byte	.LVL313
 8251 26e0 B7300000 		.4byte	0x30b7
 8252 26e4 26       		.uleb128 0x26
 8253 26e5 01       		.uleb128 0x1
 8254 26e6 50       		.byte	0x50
 8255 26e7 02       		.uleb128 0x2
 8256 26e8 74       		.byte	0x74
 8257 26e9 00       		.sleb128 0
 8258 26ea 26       		.uleb128 0x26
 8259 26eb 01       		.uleb128 0x1
 8260 26ec 51       		.byte	0x51
 8261 26ed 01       		.uleb128 0x1
 8262 26ee 30       		.byte	0x30
 8263 26ef 26       		.uleb128 0x26
 8264 26f0 01       		.uleb128 0x1
 8265 26f1 52       		.byte	0x52
 8266 26f2 01       		.uleb128 0x1
 8267 26f3 45       		.byte	0x45
 8268 26f4 00       		.byte	0
 8269 26f5 00       		.byte	0
 8270 26f6 23       		.uleb128 0x23
 8271 26f7 560E0000 		.4byte	0xe56
 8272 26fb F6000000 		.4byte	.LBB212
 8273 26ff 0A000000 		.4byte	.LBE212-.LBB212
 8274 2703 01       		.byte	0x1
ARM GAS  C:\Users\strap\AppData\Local\Temp\cc7wbcEe.s 			page 174


 8275 2704 1602     		.2byte	0x216
 8276 2706 37270000 		.4byte	0x2737
 8277 270a 24       		.uleb128 0x24
 8278 270b 710E0000 		.4byte	0xe71
 8279 270f B4100000 		.4byte	.LLST143
 8280 2713 24       		.uleb128 0x24
 8281 2714 660E0000 		.4byte	0xe66
 8282 2718 C8100000 		.4byte	.LLST144
 8283 271c 25       		.uleb128 0x25
 8284 271d 00010000 		.4byte	.LVL315
 8285 2721 B7300000 		.4byte	0x30b7
 8286 2725 26       		.uleb128 0x26
 8287 2726 01       		.uleb128 0x1
 8288 2727 50       		.byte	0x50
 8289 2728 02       		.uleb128 0x2
 8290 2729 74       		.byte	0x74
 8291 272a 00       		.sleb128 0
 8292 272b 26       		.uleb128 0x26
 8293 272c 01       		.uleb128 0x1
 8294 272d 51       		.byte	0x51
 8295 272e 01       		.uleb128 0x1
 8296 272f 30       		.byte	0x30
 8297 2730 26       		.uleb128 0x26
 8298 2731 01       		.uleb128 0x1
 8299 2732 52       		.byte	0x52
 8300 2733 01       		.uleb128 0x1
 8301 2734 46       		.byte	0x46
 8302 2735 00       		.byte	0
 8303 2736 00       		.byte	0
 8304 2737 27       		.uleb128 0x27
 8305 2738 9A000000 		.4byte	.LVL295
 8306 273c 37310000 		.4byte	0x3137
 8307 2740 4B270000 		.4byte	0x274b
 8308 2744 26       		.uleb128 0x26
 8309 2745 01       		.uleb128 0x1
 8310 2746 50       		.byte	0x50
 8311 2747 02       		.uleb128 0x2
 8312 2748 74       		.byte	0x74
 8313 2749 00       		.sleb128 0
 8314 274a 00       		.byte	0
 8315 274b 27       		.uleb128 0x27
 8316 274c D4000000 		.4byte	.LVL305
 8317 2750 F2300000 		.4byte	0x30f2
 8318 2754 67270000 		.4byte	0x2767
 8319 2758 26       		.uleb128 0x26
 8320 2759 01       		.uleb128 0x1
 8321 275a 50       		.byte	0x50
 8322 275b 04       		.uleb128 0x4
 8323 275c 91       		.byte	0x91
 8324 275d B07F     		.sleb128 -80
 8325 275f 06       		.byte	0x6
 8326 2760 26       		.uleb128 0x26
 8327 2761 01       		.uleb128 0x1
 8328 2762 51       		.byte	0x51
 8329 2763 02       		.uleb128 0x2
 8330 2764 74       		.byte	0x74
 8331 2765 00       		.sleb128 0
ARM GAS  C:\Users\strap\AppData\Local\Temp\cc7wbcEe.s 			page 175


 8332 2766 00       		.byte	0
 8333 2767 27       		.uleb128 0x27
 8334 2768 E4000000 		.4byte	.LVL311
 8335 276c E6300000 		.4byte	0x30e6
 8336 2770 7B270000 		.4byte	0x277b
 8337 2774 26       		.uleb128 0x26
 8338 2775 01       		.uleb128 0x1
 8339 2776 50       		.byte	0x50
 8340 2777 02       		.uleb128 0x2
 8341 2778 74       		.byte	0x74
 8342 2779 00       		.sleb128 0
 8343 277a 00       		.byte	0
 8344 277b 25       		.uleb128 0x25
 8345 277c 14010000 		.4byte	.LVL320
 8346 2780 DA300000 		.4byte	0x30da
 8347 2784 26       		.uleb128 0x26
 8348 2785 01       		.uleb128 0x1
 8349 2786 50       		.byte	0x50
 8350 2787 02       		.uleb128 0x2
 8351 2788 74       		.byte	0x74
 8352 2789 00       		.sleb128 0
 8353 278a 26       		.uleb128 0x26
 8354 278b 01       		.uleb128 0x1
 8355 278c 51       		.byte	0x51
 8356 278d 01       		.uleb128 0x1
 8357 278e 38       		.byte	0x38
 8358 278f 00       		.byte	0
 8359 2790 00       		.byte	0
 8360 2791 29       		.uleb128 0x29
 8361 2792 42010000 		.4byte	.LBB214
 8362 2796 3A000000 		.4byte	.LBE214-.LBB214
 8363 279a 6F280000 		.4byte	0x286f
 8364 279e 22       		.uleb128 0x22
 8365 279f A11C0000 		.4byte	.LASF361
 8366 27a3 01       		.byte	0x1
 8367 27a4 2502     		.2byte	0x225
 8368 27a6 A3040000 		.4byte	0x4a3
 8369 27aa 23       		.uleb128 0x23
 8370 27ab 2F0E0000 		.4byte	0xe2f
 8371 27af 42010000 		.4byte	.LBB215
 8372 27b3 0A000000 		.4byte	.LBE215-.LBB215
 8373 27b7 01       		.byte	0x1
 8374 27b8 2502     		.2byte	0x225
 8375 27ba EB270000 		.4byte	0x27eb
 8376 27be 24       		.uleb128 0x24
 8377 27bf 4A0E0000 		.4byte	0xe4a
 8378 27c3 DB100000 		.4byte	.LLST145
 8379 27c7 24       		.uleb128 0x24
 8380 27c8 3F0E0000 		.4byte	0xe3f
 8381 27cc EF100000 		.4byte	.LLST146
 8382 27d0 25       		.uleb128 0x25
 8383 27d1 4C010000 		.4byte	.LVL330
 8384 27d5 B7300000 		.4byte	0x30b7
 8385 27d9 26       		.uleb128 0x26
 8386 27da 01       		.uleb128 0x1
 8387 27db 50       		.byte	0x50
 8388 27dc 02       		.uleb128 0x2
ARM GAS  C:\Users\strap\AppData\Local\Temp\cc7wbcEe.s 			page 176


 8389 27dd 74       		.byte	0x74
 8390 27de 00       		.sleb128 0
 8391 27df 26       		.uleb128 0x26
 8392 27e0 01       		.uleb128 0x1
 8393 27e1 51       		.byte	0x51
 8394 27e2 01       		.uleb128 0x1
 8395 27e3 30       		.byte	0x30
 8396 27e4 26       		.uleb128 0x26
 8397 27e5 01       		.uleb128 0x1
 8398 27e6 52       		.byte	0x52
 8399 27e7 01       		.uleb128 0x1
 8400 27e8 45       		.byte	0x45
 8401 27e9 00       		.byte	0
 8402 27ea 00       		.byte	0
 8403 27eb 23       		.uleb128 0x23
 8404 27ec 560E0000 		.4byte	0xe56
 8405 27f0 6C010000 		.4byte	.LBB217
 8406 27f4 0A000000 		.4byte	.LBE217-.LBB217
 8407 27f8 01       		.byte	0x1
 8408 27f9 2A02     		.2byte	0x22a
 8409 27fb 2C280000 		.4byte	0x282c
 8410 27ff 24       		.uleb128 0x24
 8411 2800 710E0000 		.4byte	0xe71
 8412 2804 02110000 		.4byte	.LLST147
 8413 2808 24       		.uleb128 0x24
 8414 2809 660E0000 		.4byte	0xe66
 8415 280d 16110000 		.4byte	.LLST148
 8416 2811 25       		.uleb128 0x25
 8417 2812 76010000 		.4byte	.LVL336
 8418 2816 B7300000 		.4byte	0x30b7
 8419 281a 26       		.uleb128 0x26
 8420 281b 01       		.uleb128 0x1
 8421 281c 50       		.byte	0x50
 8422 281d 02       		.uleb128 0x2
 8423 281e 74       		.byte	0x74
 8424 281f 00       		.sleb128 0
 8425 2820 26       		.uleb128 0x26
 8426 2821 01       		.uleb128 0x1
 8427 2822 51       		.byte	0x51
 8428 2823 01       		.uleb128 0x1
 8429 2824 30       		.byte	0x30
 8430 2825 26       		.uleb128 0x26
 8431 2826 01       		.uleb128 0x1
 8432 2827 52       		.byte	0x52
 8433 2828 01       		.uleb128 0x1
 8434 2829 46       		.byte	0x46
 8435 282a 00       		.byte	0
 8436 282b 00       		.byte	0
 8437 282c 27       		.uleb128 0x27
 8438 282d 62010000 		.4byte	.LVL332
 8439 2831 14310000 		.4byte	0x3114
 8440 2835 5E280000 		.4byte	0x285e
 8441 2839 26       		.uleb128 0x26
 8442 283a 01       		.uleb128 0x1
 8443 283b 50       		.byte	0x50
 8444 283c 02       		.uleb128 0x2
 8445 283d 74       		.byte	0x74
ARM GAS  C:\Users\strap\AppData\Local\Temp\cc7wbcEe.s 			page 177


 8446 283e 00       		.sleb128 0
 8447 283f 26       		.uleb128 0x26
 8448 2840 01       		.uleb128 0x1
 8449 2841 51       		.byte	0x51
 8450 2842 04       		.uleb128 0x4
 8451 2843 91       		.byte	0x91
 8452 2844 BC7F     		.sleb128 -68
 8453 2846 06       		.byte	0x6
 8454 2847 26       		.uleb128 0x26
 8455 2848 01       		.uleb128 0x1
 8456 2849 52       		.byte	0x52
 8457 284a 01       		.uleb128 0x1
 8458 284b 32       		.byte	0x32
 8459 284c 26       		.uleb128 0x26
 8460 284d 01       		.uleb128 0x1
 8461 284e 53       		.byte	0x53
 8462 284f 01       		.uleb128 0x1
 8463 2850 30       		.byte	0x30
 8464 2851 26       		.uleb128 0x26
 8465 2852 02       		.uleb128 0x2
 8466 2853 7D       		.byte	0x7d
 8467 2854 00       		.sleb128 0
 8468 2855 07       		.uleb128 0x7
 8469 2856 75       		.byte	0x75
 8470 2857 00       		.sleb128 0
 8471 2858 91       		.byte	0x91
 8472 2859 B47F     		.sleb128 -76
 8473 285b 06       		.byte	0x6
 8474 285c 22       		.byte	0x22
 8475 285d 00       		.byte	0
 8476 285e 25       		.uleb128 0x25
 8477 285f 68010000 		.4byte	.LVL333
 8478 2863 E6300000 		.4byte	0x30e6
 8479 2867 26       		.uleb128 0x26
 8480 2868 01       		.uleb128 0x1
 8481 2869 50       		.byte	0x50
 8482 286a 02       		.uleb128 0x2
 8483 286b 74       		.byte	0x74
 8484 286c 00       		.sleb128 0
 8485 286d 00       		.byte	0
 8486 286e 00       		.byte	0
 8487 286f 23       		.uleb128 0x23
 8488 2870 2F0E0000 		.4byte	0xe2f
 8489 2874 82010000 		.4byte	.LBB219
 8490 2878 0A000000 		.4byte	.LBE219-.LBB219
 8491 287c 01       		.byte	0x1
 8492 287d 3102     		.2byte	0x231
 8493 287f B0280000 		.4byte	0x28b0
 8494 2883 24       		.uleb128 0x24
 8495 2884 4A0E0000 		.4byte	0xe4a
 8496 2888 29110000 		.4byte	.LLST149
 8497 288c 24       		.uleb128 0x24
 8498 288d 3F0E0000 		.4byte	0xe3f
 8499 2891 3D110000 		.4byte	.LLST150
 8500 2895 25       		.uleb128 0x25
 8501 2896 8C010000 		.4byte	.LVL340
 8502 289a B7300000 		.4byte	0x30b7
ARM GAS  C:\Users\strap\AppData\Local\Temp\cc7wbcEe.s 			page 178


 8503 289e 26       		.uleb128 0x26
 8504 289f 01       		.uleb128 0x1
 8505 28a0 50       		.byte	0x50
 8506 28a1 02       		.uleb128 0x2
 8507 28a2 75       		.byte	0x75
 8508 28a3 00       		.sleb128 0
 8509 28a4 26       		.uleb128 0x26
 8510 28a5 01       		.uleb128 0x1
 8511 28a6 51       		.byte	0x51
 8512 28a7 01       		.uleb128 0x1
 8513 28a8 30       		.byte	0x30
 8514 28a9 26       		.uleb128 0x26
 8515 28aa 01       		.uleb128 0x1
 8516 28ab 52       		.byte	0x52
 8517 28ac 01       		.uleb128 0x1
 8518 28ad 45       		.byte	0x45
 8519 28ae 00       		.byte	0
 8520 28af 00       		.byte	0
 8521 28b0 29       		.uleb128 0x29
 8522 28b1 A2010000 		.4byte	.LBB221
 8523 28b5 3A010000 		.4byte	.LBE221-.LBB221
 8524 28b9 492B0000 		.4byte	0x2b49
 8525 28bd 20       		.uleb128 0x20
 8526 28be CA110000 		.4byte	.LASF385
 8527 28c2 01       		.byte	0x1
 8528 28c3 3602     		.2byte	0x236
 8529 28c5 EF000000 		.4byte	0xef
 8530 28c9 50110000 		.4byte	.LLST151
 8531 28cd 20       		.uleb128 0x20
 8532 28ce E4020000 		.4byte	.LASF350
 8533 28d2 01       		.byte	0x1
 8534 28d3 3702     		.2byte	0x237
 8535 28d5 EF000000 		.4byte	0xef
 8536 28d9 63110000 		.4byte	.LLST152
 8537 28dd 20       		.uleb128 0x20
 8538 28de 86100000 		.4byte	.LASF253
 8539 28e2 01       		.byte	0x1
 8540 28e3 3902     		.2byte	0x239
 8541 28e5 17020000 		.4byte	0x217
 8542 28e9 8E110000 		.4byte	.LLST153
 8543 28ed 2B       		.uleb128 0x2b
 8544 28ee 696E7600 		.ascii	"inv\000"
 8545 28f2 01       		.byte	0x1
 8546 28f3 3A02     		.2byte	0x23a
 8547 28f5 C3000000 		.4byte	0xc3
 8548 28f9 A2110000 		.4byte	.LLST154
 8549 28fd 29       		.uleb128 0x29
 8550 28fe F0010000 		.4byte	.LBB222
 8551 2902 D8000000 		.4byte	.LBE222-.LBB222
 8552 2906 ED2A0000 		.4byte	0x2aed
 8553 290a 22       		.uleb128 0x22
 8554 290b 321D0000 		.4byte	.LASF359
 8555 290f 01       		.byte	0x1
 8556 2910 4402     		.2byte	0x244
 8557 2912 EF000000 		.4byte	0xef
 8558 2916 22       		.uleb128 0x22
 8559 2917 D4020000 		.4byte	.LASF360
ARM GAS  C:\Users\strap\AppData\Local\Temp\cc7wbcEe.s 			page 179


 8560 291b 01       		.byte	0x1
 8561 291c 4502     		.2byte	0x245
 8562 291e EF000000 		.4byte	0xef
 8563 2922 23       		.uleb128 0x23
 8564 2923 E10D0000 		.4byte	0xde1
 8565 2927 F0010000 		.4byte	.LBB223
 8566 292b 0C000000 		.4byte	.LBE223-.LBB223
 8567 292f 01       		.byte	0x1
 8568 2930 4402     		.2byte	0x244
 8569 2932 63290000 		.4byte	0x2963
 8570 2936 24       		.uleb128 0x24
 8571 2937 FC0D0000 		.4byte	0xdfc
 8572 293b B6110000 		.4byte	.LLST155
 8573 293f 24       		.uleb128 0x24
 8574 2940 F10D0000 		.4byte	0xdf1
 8575 2944 CA110000 		.4byte	.LLST156
 8576 2948 25       		.uleb128 0x25
 8577 2949 FA010000 		.4byte	.LVL352
 8578 294d B7300000 		.4byte	0x30b7
 8579 2951 26       		.uleb128 0x26
 8580 2952 01       		.uleb128 0x1
 8581 2953 50       		.byte	0x50
 8582 2954 02       		.uleb128 0x2
 8583 2955 75       		.byte	0x75
 8584 2956 00       		.sleb128 0
 8585 2957 26       		.uleb128 0x26
 8586 2958 01       		.uleb128 0x1
 8587 2959 51       		.byte	0x51
 8588 295a 01       		.uleb128 0x1
 8589 295b 30       		.byte	0x30
 8590 295c 26       		.uleb128 0x26
 8591 295d 01       		.uleb128 0x1
 8592 295e 52       		.byte	0x52
 8593 295f 01       		.uleb128 0x1
 8594 2960 47       		.byte	0x47
 8595 2961 00       		.byte	0
 8596 2962 00       		.byte	0
 8597 2963 23       		.uleb128 0x23
 8598 2964 080E0000 		.4byte	0xe08
 8599 2968 FC010000 		.4byte	.LBB225
 8600 296c 0C000000 		.4byte	.LBE225-.LBB225
 8601 2970 01       		.byte	0x1
 8602 2971 4502     		.2byte	0x245
 8603 2973 A4290000 		.4byte	0x29a4
 8604 2977 24       		.uleb128 0x24
 8605 2978 230E0000 		.4byte	0xe23
 8606 297c DD110000 		.4byte	.LLST157
 8607 2980 24       		.uleb128 0x24
 8608 2981 180E0000 		.4byte	0xe18
 8609 2985 F1110000 		.4byte	.LLST158
 8610 2989 25       		.uleb128 0x25
 8611 298a 06020000 		.4byte	.LVL354
 8612 298e B7300000 		.4byte	0x30b7
 8613 2992 26       		.uleb128 0x26
 8614 2993 01       		.uleb128 0x1
 8615 2994 50       		.byte	0x50
 8616 2995 02       		.uleb128 0x2
ARM GAS  C:\Users\strap\AppData\Local\Temp\cc7wbcEe.s 			page 180


 8617 2996 75       		.byte	0x75
 8618 2997 00       		.sleb128 0
 8619 2998 26       		.uleb128 0x26
 8620 2999 01       		.uleb128 0x1
 8621 299a 51       		.byte	0x51
 8622 299b 01       		.uleb128 0x1
 8623 299c 30       		.byte	0x30
 8624 299d 26       		.uleb128 0x26
 8625 299e 01       		.uleb128 0x1
 8626 299f 52       		.byte	0x52
 8627 29a0 01       		.uleb128 0x1
 8628 29a1 48       		.byte	0x48
 8629 29a2 00       		.byte	0
 8630 29a3 00       		.byte	0
 8631 29a4 23       		.uleb128 0x23
 8632 29a5 2F0E0000 		.4byte	0xe2f
 8633 29a9 1C020000 		.4byte	.LBB227
 8634 29ad 0A000000 		.4byte	.LBE227-.LBB227
 8635 29b1 01       		.byte	0x1
 8636 29b2 4A02     		.2byte	0x24a
 8637 29b4 E5290000 		.4byte	0x29e5
 8638 29b8 24       		.uleb128 0x24
 8639 29b9 4A0E0000 		.4byte	0xe4a
 8640 29bd 04120000 		.4byte	.LLST159
 8641 29c1 24       		.uleb128 0x24
 8642 29c2 3F0E0000 		.4byte	0xe3f
 8643 29c6 18120000 		.4byte	.LLST160
 8644 29ca 25       		.uleb128 0x25
 8645 29cb 26020000 		.4byte	.LVL357
 8646 29cf B7300000 		.4byte	0x30b7
 8647 29d3 26       		.uleb128 0x26
 8648 29d4 01       		.uleb128 0x1
 8649 29d5 50       		.byte	0x50
 8650 29d6 02       		.uleb128 0x2
 8651 29d7 75       		.byte	0x75
 8652 29d8 00       		.sleb128 0
 8653 29d9 26       		.uleb128 0x26
 8654 29da 01       		.uleb128 0x1
 8655 29db 51       		.byte	0x51
 8656 29dc 01       		.uleb128 0x1
 8657 29dd 30       		.byte	0x30
 8658 29de 26       		.uleb128 0x26
 8659 29df 01       		.uleb128 0x1
 8660 29e0 52       		.byte	0x52
 8661 29e1 01       		.uleb128 0x1
 8662 29e2 45       		.byte	0x45
 8663 29e3 00       		.byte	0
 8664 29e4 00       		.byte	0
 8665 29e5 23       		.uleb128 0x23
 8666 29e6 560E0000 		.4byte	0xe56
 8667 29ea 8A020000 		.4byte	.LBB229
 8668 29ee 0A000000 		.4byte	.LBE229-.LBB229
 8669 29f2 01       		.byte	0x1
 8670 29f3 5502     		.2byte	0x255
 8671 29f5 262A0000 		.4byte	0x2a26
 8672 29f9 24       		.uleb128 0x24
 8673 29fa 710E0000 		.4byte	0xe71
ARM GAS  C:\Users\strap\AppData\Local\Temp\cc7wbcEe.s 			page 181


 8674 29fe 2B120000 		.4byte	.LLST161
 8675 2a02 24       		.uleb128 0x24
 8676 2a03 660E0000 		.4byte	0xe66
 8677 2a07 3F120000 		.4byte	.LLST162
 8678 2a0b 25       		.uleb128 0x25
 8679 2a0c 94020000 		.4byte	.LVL363
 8680 2a10 B7300000 		.4byte	0x30b7
 8681 2a14 26       		.uleb128 0x26
 8682 2a15 01       		.uleb128 0x1
 8683 2a16 50       		.byte	0x50
 8684 2a17 02       		.uleb128 0x2
 8685 2a18 75       		.byte	0x75
 8686 2a19 00       		.sleb128 0
 8687 2a1a 26       		.uleb128 0x26
 8688 2a1b 01       		.uleb128 0x1
 8689 2a1c 51       		.byte	0x51
 8690 2a1d 01       		.uleb128 0x1
 8691 2a1e 30       		.byte	0x30
 8692 2a1f 26       		.uleb128 0x26
 8693 2a20 01       		.uleb128 0x1
 8694 2a21 52       		.byte	0x52
 8695 2a22 01       		.uleb128 0x1
 8696 2a23 46       		.byte	0x46
 8697 2a24 00       		.byte	0
 8698 2a25 00       		.byte	0
 8699 2a26 27       		.uleb128 0x27
 8700 2a27 40020000 		.4byte	.LVL358
 8701 2a2b 14310000 		.4byte	0x3114
 8702 2a2f 542A0000 		.4byte	0x2a54
 8703 2a33 26       		.uleb128 0x26
 8704 2a34 01       		.uleb128 0x1
 8705 2a35 50       		.byte	0x50
 8706 2a36 02       		.uleb128 0x2
 8707 2a37 75       		.byte	0x75
 8708 2a38 00       		.sleb128 0
 8709 2a39 26       		.uleb128 0x26
 8710 2a3a 01       		.uleb128 0x1
 8711 2a3b 51       		.byte	0x51
 8712 2a3c 04       		.uleb128 0x4
 8713 2a3d 91       		.byte	0x91
 8714 2a3e BC7F     		.sleb128 -68
 8715 2a40 06       		.byte	0x6
 8716 2a41 26       		.uleb128 0x26
 8717 2a42 01       		.uleb128 0x1
 8718 2a43 52       		.byte	0x52
 8719 2a44 04       		.uleb128 0x4
 8720 2a45 91       		.byte	0x91
 8721 2a46 4C       		.sleb128 -52
 8722 2a47 94       		.byte	0x94
 8723 2a48 01       		.byte	0x1
 8724 2a49 26       		.uleb128 0x26
 8725 2a4a 01       		.uleb128 0x1
 8726 2a4b 53       		.byte	0x53
 8727 2a4c 06       		.uleb128 0x6
 8728 2a4d 79       		.byte	0x79
 8729 2a4e 00       		.sleb128 0
 8730 2a4f 91       		.byte	0x91
ARM GAS  C:\Users\strap\AppData\Local\Temp\cc7wbcEe.s 			page 182


 8731 2a50 50       		.sleb128 -48
 8732 2a51 06       		.byte	0x6
 8733 2a52 1E       		.byte	0x1e
 8734 2a53 00       		.byte	0
 8735 2a54 27       		.uleb128 0x27
 8736 2a55 4E020000 		.4byte	.LVL359
 8737 2a59 E6300000 		.4byte	0x30e6
 8738 2a5d 682A0000 		.4byte	0x2a68
 8739 2a61 26       		.uleb128 0x26
 8740 2a62 01       		.uleb128 0x1
 8741 2a63 50       		.byte	0x50
 8742 2a64 02       		.uleb128 0x2
 8743 2a65 75       		.byte	0x75
 8744 2a66 00       		.sleb128 0
 8745 2a67 00       		.byte	0
 8746 2a68 27       		.uleb128 0x27
 8747 2a69 70020000 		.4byte	.LVL360
 8748 2a6d 14310000 		.4byte	0x3114
 8749 2a71 962A0000 		.4byte	0x2a96
 8750 2a75 26       		.uleb128 0x26
 8751 2a76 01       		.uleb128 0x1
 8752 2a77 50       		.byte	0x50
 8753 2a78 02       		.uleb128 0x2
 8754 2a79 75       		.byte	0x75
 8755 2a7a 00       		.sleb128 0
 8756 2a7b 26       		.uleb128 0x26
 8757 2a7c 01       		.uleb128 0x1
 8758 2a7d 51       		.byte	0x51
 8759 2a7e 04       		.uleb128 0x4
 8760 2a7f 91       		.byte	0x91
 8761 2a80 BC7F     		.sleb128 -68
 8762 2a82 06       		.byte	0x6
 8763 2a83 26       		.uleb128 0x26
 8764 2a84 01       		.uleb128 0x1
 8765 2a85 52       		.byte	0x52
 8766 2a86 04       		.uleb128 0x4
 8767 2a87 91       		.byte	0x91
 8768 2a88 4C       		.sleb128 -52
 8769 2a89 94       		.byte	0x94
 8770 2a8a 01       		.byte	0x1
 8771 2a8b 26       		.uleb128 0x26
 8772 2a8c 01       		.uleb128 0x1
 8773 2a8d 53       		.byte	0x53
 8774 2a8e 06       		.uleb128 0x6
 8775 2a8f 79       		.byte	0x79
 8776 2a90 00       		.sleb128 0
 8777 2a91 91       		.byte	0x91
 8778 2a92 50       		.sleb128 -48
 8779 2a93 06       		.byte	0x6
 8780 2a94 1E       		.byte	0x1e
 8781 2a95 00       		.byte	0
 8782 2a96 27       		.uleb128 0x27
 8783 2a97 82020000 		.4byte	.LVL361
 8784 2a9b E6300000 		.4byte	0x30e6
 8785 2a9f AA2A0000 		.4byte	0x2aaa
 8786 2aa3 26       		.uleb128 0x26
 8787 2aa4 01       		.uleb128 0x1
ARM GAS  C:\Users\strap\AppData\Local\Temp\cc7wbcEe.s 			page 183


 8788 2aa5 50       		.byte	0x50
 8789 2aa6 02       		.uleb128 0x2
 8790 2aa7 75       		.byte	0x75
 8791 2aa8 00       		.sleb128 0
 8792 2aa9 00       		.byte	0
 8793 2aaa 27       		.uleb128 0x27
 8794 2aab B2020000 		.4byte	.LVL364
 8795 2aaf 14310000 		.4byte	0x3114
 8796 2ab3 DC2A0000 		.4byte	0x2adc
 8797 2ab7 26       		.uleb128 0x26
 8798 2ab8 01       		.uleb128 0x1
 8799 2ab9 50       		.byte	0x50
 8800 2aba 02       		.uleb128 0x2
 8801 2abb 75       		.byte	0x75
 8802 2abc 00       		.sleb128 0
 8803 2abd 26       		.uleb128 0x26
 8804 2abe 01       		.uleb128 0x1
 8805 2abf 51       		.byte	0x51
 8806 2ac0 04       		.uleb128 0x4
 8807 2ac1 91       		.byte	0x91
 8808 2ac2 BC7F     		.sleb128 -68
 8809 2ac4 06       		.byte	0x6
 8810 2ac5 26       		.uleb128 0x26
 8811 2ac6 01       		.uleb128 0x1
 8812 2ac7 52       		.byte	0x52
 8813 2ac8 04       		.uleb128 0x4
 8814 2ac9 91       		.byte	0x91
 8815 2aca 4C       		.sleb128 -52
 8816 2acb 94       		.byte	0x94
 8817 2acc 01       		.byte	0x1
 8818 2acd 26       		.uleb128 0x26
 8819 2ace 01       		.uleb128 0x1
 8820 2acf 53       		.byte	0x53
 8821 2ad0 0A       		.uleb128 0xa
 8822 2ad1 78       		.byte	0x78
 8823 2ad2 00       		.sleb128 0
 8824 2ad3 91       		.byte	0x91
 8825 2ad4 44       		.sleb128 -60
 8826 2ad5 06       		.byte	0x6
 8827 2ad6 22       		.byte	0x22
 8828 2ad7 91       		.byte	0x91
 8829 2ad8 50       		.sleb128 -48
 8830 2ad9 06       		.byte	0x6
 8831 2ada 1E       		.byte	0x1e
 8832 2adb 00       		.byte	0
 8833 2adc 25       		.uleb128 0x25
 8834 2add B8020000 		.4byte	.LVL365
 8835 2ae1 37310000 		.4byte	0x3137
 8836 2ae5 26       		.uleb128 0x26
 8837 2ae6 01       		.uleb128 0x1
 8838 2ae7 50       		.byte	0x50
 8839 2ae8 02       		.uleb128 0x2
 8840 2ae9 75       		.byte	0x75
 8841 2aea 00       		.sleb128 0
 8842 2aeb 00       		.byte	0
 8843 2aec 00       		.byte	0
 8844 2aed 27       		.uleb128 0x27
ARM GAS  C:\Users\strap\AppData\Local\Temp\cc7wbcEe.s 			page 184


 8845 2aee BE010000 		.4byte	.LVL347
 8846 2af2 2F320000 		.4byte	0x322f
 8847 2af6 032B0000 		.4byte	0x2b03
 8848 2afa 26       		.uleb128 0x26
 8849 2afb 01       		.uleb128 0x1
 8850 2afc 50       		.byte	0x50
 8851 2afd 04       		.uleb128 0x4
 8852 2afe 91       		.byte	0x91
 8853 2aff BC7F     		.sleb128 -68
 8854 2b01 06       		.byte	0x6
 8855 2b02 00       		.byte	0
 8856 2b03 27       		.uleb128 0x27
 8857 2b04 E0010000 		.4byte	.LVL349
 8858 2b08 CE300000 		.4byte	0x30ce
 8859 2b0c 172B0000 		.4byte	0x2b17
 8860 2b10 26       		.uleb128 0x26
 8861 2b11 01       		.uleb128 0x1
 8862 2b12 50       		.byte	0x50
 8863 2b13 02       		.uleb128 0x2
 8864 2b14 75       		.byte	0x75
 8865 2b15 00       		.sleb128 0
 8866 2b16 00       		.byte	0
 8867 2b17 27       		.uleb128 0x27
 8868 2b18 EC010000 		.4byte	.LVL350
 8869 2b1c DA300000 		.4byte	0x30da
 8870 2b20 302B0000 		.4byte	0x2b30
 8871 2b24 26       		.uleb128 0x26
 8872 2b25 01       		.uleb128 0x1
 8873 2b26 50       		.byte	0x50
 8874 2b27 02       		.uleb128 0x2
 8875 2b28 75       		.byte	0x75
 8876 2b29 00       		.sleb128 0
 8877 2b2a 26       		.uleb128 0x26
 8878 2b2b 01       		.uleb128 0x1
 8879 2b2c 51       		.byte	0x51
 8880 2b2d 01       		.uleb128 0x1
 8881 2b2e 34       		.byte	0x34
 8882 2b2f 00       		.byte	0
 8883 2b30 25       		.uleb128 0x25
 8884 2b31 D4020000 		.4byte	.LVL368
 8885 2b35 20310000 		.4byte	0x3120
 8886 2b39 26       		.uleb128 0x26
 8887 2b3a 01       		.uleb128 0x1
 8888 2b3b 50       		.byte	0x50
 8889 2b3c 04       		.uleb128 0x4
 8890 2b3d 91       		.byte	0x91
 8891 2b3e B07F     		.sleb128 -80
 8892 2b40 06       		.byte	0x6
 8893 2b41 26       		.uleb128 0x26
 8894 2b42 01       		.uleb128 0x1
 8895 2b43 51       		.byte	0x51
 8896 2b44 02       		.uleb128 0x2
 8897 2b45 75       		.byte	0x75
 8898 2b46 00       		.sleb128 0
 8899 2b47 00       		.byte	0
 8900 2b48 00       		.byte	0
 8901 2b49 27       		.uleb128 0x27
ARM GAS  C:\Users\strap\AppData\Local\Temp\cc7wbcEe.s 			page 185


 8902 2b4a 84000000 		.4byte	.LVL293
 8903 2b4e CE300000 		.4byte	0x30ce
 8904 2b52 5D2B0000 		.4byte	0x2b5d
 8905 2b56 26       		.uleb128 0x26
 8906 2b57 01       		.uleb128 0x1
 8907 2b58 50       		.byte	0x50
 8908 2b59 02       		.uleb128 0x2
 8909 2b5a 74       		.byte	0x74
 8910 2b5b 00       		.sleb128 0
 8911 2b5c 00       		.byte	0
 8912 2b5d 27       		.uleb128 0x27
 8913 2b5e 90000000 		.4byte	.LVL294
 8914 2b62 DA300000 		.4byte	0x30da
 8915 2b66 762B0000 		.4byte	0x2b76
 8916 2b6a 26       		.uleb128 0x26
 8917 2b6b 01       		.uleb128 0x1
 8918 2b6c 50       		.byte	0x50
 8919 2b6d 02       		.uleb128 0x2
 8920 2b6e 74       		.byte	0x74
 8921 2b6f 00       		.sleb128 0
 8922 2b70 26       		.uleb128 0x26
 8923 2b71 01       		.uleb128 0x1
 8924 2b72 51       		.byte	0x51
 8925 2b73 01       		.uleb128 0x1
 8926 2b74 34       		.byte	0x34
 8927 2b75 00       		.byte	0
 8928 2b76 27       		.uleb128 0x27
 8929 2b77 1E010000 		.4byte	.LVL321
 8930 2b7b 20310000 		.4byte	0x3120
 8931 2b7f 922B0000 		.4byte	0x2b92
 8932 2b83 26       		.uleb128 0x26
 8933 2b84 01       		.uleb128 0x1
 8934 2b85 50       		.byte	0x50
 8935 2b86 04       		.uleb128 0x4
 8936 2b87 91       		.byte	0x91
 8937 2b88 B07F     		.sleb128 -80
 8938 2b8a 06       		.byte	0x6
 8939 2b8b 26       		.uleb128 0x26
 8940 2b8c 01       		.uleb128 0x1
 8941 2b8d 51       		.byte	0x51
 8942 2b8e 02       		.uleb128 0x2
 8943 2b8f 74       		.byte	0x74
 8944 2b90 00       		.sleb128 0
 8945 2b91 00       		.byte	0
 8946 2b92 27       		.uleb128 0x27
 8947 2b93 A0010000 		.4byte	.LVL341
 8948 2b97 14310000 		.4byte	0x3114
 8949 2b9b B82B0000 		.4byte	0x2bb8
 8950 2b9f 26       		.uleb128 0x26
 8951 2ba0 01       		.uleb128 0x1
 8952 2ba1 50       		.byte	0x50
 8953 2ba2 02       		.uleb128 0x2
 8954 2ba3 75       		.byte	0x75
 8955 2ba4 00       		.sleb128 0
 8956 2ba5 26       		.uleb128 0x26
 8957 2ba6 01       		.uleb128 0x1
 8958 2ba7 51       		.byte	0x51
ARM GAS  C:\Users\strap\AppData\Local\Temp\cc7wbcEe.s 			page 186


 8959 2ba8 04       		.uleb128 0x4
 8960 2ba9 91       		.byte	0x91
 8961 2baa BC7F     		.sleb128 -68
 8962 2bac 06       		.byte	0x6
 8963 2bad 26       		.uleb128 0x26
 8964 2bae 01       		.uleb128 0x1
 8965 2baf 52       		.byte	0x52
 8966 2bb0 01       		.uleb128 0x1
 8967 2bb1 32       		.byte	0x32
 8968 2bb2 26       		.uleb128 0x26
 8969 2bb3 01       		.uleb128 0x1
 8970 2bb4 53       		.byte	0x53
 8971 2bb5 01       		.uleb128 0x1
 8972 2bb6 30       		.byte	0x30
 8973 2bb7 00       		.byte	0
 8974 2bb8 25       		.uleb128 0x25
 8975 2bb9 F0020000 		.4byte	.LVL373
 8976 2bbd 20310000 		.4byte	0x3120
 8977 2bc1 26       		.uleb128 0x26
 8978 2bc2 01       		.uleb128 0x1
 8979 2bc3 50       		.byte	0x50
 8980 2bc4 04       		.uleb128 0x4
 8981 2bc5 91       		.byte	0x91
 8982 2bc6 B07F     		.sleb128 -80
 8983 2bc8 06       		.byte	0x6
 8984 2bc9 26       		.uleb128 0x26
 8985 2bca 01       		.uleb128 0x1
 8986 2bcb 51       		.byte	0x51
 8987 2bcc 02       		.uleb128 0x2
 8988 2bcd 74       		.byte	0x74
 8989 2bce 00       		.sleb128 0
 8990 2bcf 00       		.byte	0
 8991 2bd0 00       		.byte	0
 8992 2bd1 27       		.uleb128 0x27
 8993 2bd2 0E000000 		.4byte	.LVL274
 8994 2bd6 401D0000 		.4byte	0x1d40
 8995 2bda E52B0000 		.4byte	0x2be5
 8996 2bde 26       		.uleb128 0x26
 8997 2bdf 01       		.uleb128 0x1
 8998 2be0 50       		.byte	0x50
 8999 2be1 02       		.uleb128 0x2
 9000 2be2 74       		.byte	0x74
 9001 2be3 00       		.sleb128 0
 9002 2be4 00       		.byte	0
 9003 2be5 27       		.uleb128 0x27
 9004 2be6 16000000 		.4byte	.LVL276
 9005 2bea 37310000 		.4byte	0x3137
 9006 2bee F92B0000 		.4byte	0x2bf9
 9007 2bf2 26       		.uleb128 0x26
 9008 2bf3 01       		.uleb128 0x1
 9009 2bf4 50       		.byte	0x50
 9010 2bf5 02       		.uleb128 0x2
 9011 2bf6 74       		.byte	0x74
 9012 2bf7 00       		.sleb128 0
 9013 2bf8 00       		.byte	0
 9014 2bf9 27       		.uleb128 0x27
 9015 2bfa 30000000 		.4byte	.LVL280
ARM GAS  C:\Users\strap\AppData\Local\Temp\cc7wbcEe.s 			page 187


 9016 2bfe 09310000 		.4byte	0x3109
 9017 2c02 0F2C0000 		.4byte	0x2c0f
 9018 2c06 26       		.uleb128 0x26
 9019 2c07 01       		.uleb128 0x1
 9020 2c08 50       		.byte	0x50
 9021 2c09 04       		.uleb128 0x4
 9022 2c0a 91       		.byte	0x91
 9023 2c0b B07F     		.sleb128 -80
 9024 2c0d 06       		.byte	0x6
 9025 2c0e 00       		.byte	0
 9026 2c0f 27       		.uleb128 0x27
 9027 2c10 40000000 		.4byte	.LVL282
 9028 2c14 FD300000 		.4byte	0x30fd
 9029 2c18 282C0000 		.4byte	0x2c28
 9030 2c1c 26       		.uleb128 0x26
 9031 2c1d 01       		.uleb128 0x1
 9032 2c1e 50       		.byte	0x50
 9033 2c1f 02       		.uleb128 0x2
 9034 2c20 74       		.byte	0x74
 9035 2c21 00       		.sleb128 0
 9036 2c22 26       		.uleb128 0x26
 9037 2c23 01       		.uleb128 0x1
 9038 2c24 51       		.byte	0x51
 9039 2c25 01       		.uleb128 0x1
 9040 2c26 31       		.byte	0x31
 9041 2c27 00       		.byte	0
 9042 2c28 25       		.uleb128 0x25
 9043 2c29 00030000 		.4byte	.LVL376
 9044 2c2d 2B310000 		.4byte	0x312b
 9045 2c31 26       		.uleb128 0x26
 9046 2c32 01       		.uleb128 0x1
 9047 2c33 50       		.byte	0x50
 9048 2c34 04       		.uleb128 0x4
 9049 2c35 91       		.byte	0x91
 9050 2c36 BC7F     		.sleb128 -68
 9051 2c38 06       		.byte	0x6
 9052 2c39 26       		.uleb128 0x26
 9053 2c3a 01       		.uleb128 0x1
 9054 2c3b 51       		.byte	0x51
 9055 2c3c 01       		.uleb128 0x1
 9056 2c3d 31       		.byte	0x31
 9057 2c3e 00       		.byte	0
 9058 2c3f 00       		.byte	0
 9059 2c40 21       		.uleb128 0x21
 9060 2c41 76110000 		.4byte	.LASF386
 9061 2c45 01       		.byte	0x1
 9062 2c46 3601     		.2byte	0x136
 9063 2c48 00000000 		.4byte	.LFB340
 9064 2c4c 6A000000 		.4byte	.LFE340-.LFB340
 9065 2c50 01       		.uleb128 0x1
 9066 2c51 9C       		.byte	0x9c
 9067 2c52 1D2D0000 		.4byte	0x2d1d
 9068 2c56 1E       		.uleb128 0x1e
 9069 2c57 19030000 		.4byte	.LASF337
 9070 2c5b 01       		.byte	0x1
 9071 2c5c 3601     		.2byte	0x136
 9072 2c5e A40C0000 		.4byte	0xca4
ARM GAS  C:\Users\strap\AppData\Local\Temp\cc7wbcEe.s 			page 188


 9073 2c62 52120000 		.4byte	.LLST163
 9074 2c66 20       		.uleb128 0x20
 9075 2c67 B9020000 		.4byte	.LASF338
 9076 2c6b 01       		.byte	0x1
 9077 2c6c 3901     		.2byte	0x139
 9078 2c6e 590B0000 		.4byte	0xb59
 9079 2c72 70120000 		.4byte	.LLST164
 9080 2c76 27       		.uleb128 0x27
 9081 2c77 0A000000 		.4byte	.LVL378
 9082 2c7b DA300000 		.4byte	0x30da
 9083 2c7f 8F2C0000 		.4byte	0x2c8f
 9084 2c83 26       		.uleb128 0x26
 9085 2c84 01       		.uleb128 0x1
 9086 2c85 50       		.byte	0x50
 9087 2c86 02       		.uleb128 0x2
 9088 2c87 74       		.byte	0x74
 9089 2c88 00       		.sleb128 0
 9090 2c89 26       		.uleb128 0x26
 9091 2c8a 01       		.uleb128 0x1
 9092 2c8b 51       		.byte	0x51
 9093 2c8c 01       		.uleb128 0x1
 9094 2c8d 31       		.byte	0x31
 9095 2c8e 00       		.byte	0
 9096 2c8f 27       		.uleb128 0x27
 9097 2c90 12000000 		.4byte	.LVL379
 9098 2c94 401D0000 		.4byte	0x1d40
 9099 2c98 A32C0000 		.4byte	0x2ca3
 9100 2c9c 26       		.uleb128 0x26
 9101 2c9d 01       		.uleb128 0x1
 9102 2c9e 50       		.byte	0x50
 9103 2c9f 02       		.uleb128 0x2
 9104 2ca0 74       		.byte	0x74
 9105 2ca1 00       		.sleb128 0
 9106 2ca2 00       		.byte	0
 9107 2ca3 27       		.uleb128 0x27
 9108 2ca4 1C000000 		.4byte	.LVL381
 9109 2ca8 5B310000 		.4byte	0x315b
 9110 2cac BC2C0000 		.4byte	0x2cbc
 9111 2cb0 26       		.uleb128 0x26
 9112 2cb1 01       		.uleb128 0x1
 9113 2cb2 50       		.byte	0x50
 9114 2cb3 02       		.uleb128 0x2
 9115 2cb4 74       		.byte	0x74
 9116 2cb5 00       		.sleb128 0
 9117 2cb6 26       		.uleb128 0x26
 9118 2cb7 01       		.uleb128 0x1
 9119 2cb8 51       		.byte	0x51
 9120 2cb9 01       		.uleb128 0x1
 9121 2cba 30       		.byte	0x30
 9122 2cbb 00       		.byte	0
 9123 2cbc 27       		.uleb128 0x27
 9124 2cbd 2A000000 		.4byte	.LVL382
 9125 2cc1 FE0E0000 		.4byte	0xefe
 9126 2cc5 D02C0000 		.4byte	0x2cd0
 9127 2cc9 26       		.uleb128 0x26
 9128 2cca 01       		.uleb128 0x1
 9129 2ccb 50       		.byte	0x50
ARM GAS  C:\Users\strap\AppData\Local\Temp\cc7wbcEe.s 			page 189


 9130 2ccc 02       		.uleb128 0x2
 9131 2ccd 74       		.byte	0x74
 9132 2cce 00       		.sleb128 0
 9133 2ccf 00       		.byte	0
 9134 2cd0 27       		.uleb128 0x27
 9135 2cd1 3A000000 		.4byte	.LVL384
 9136 2cd5 B31D0000 		.4byte	0x1db3
 9137 2cd9 E42C0000 		.4byte	0x2ce4
 9138 2cdd 26       		.uleb128 0x26
 9139 2cde 01       		.uleb128 0x1
 9140 2cdf 50       		.byte	0x50
 9141 2ce0 02       		.uleb128 0x2
 9142 2ce1 74       		.byte	0x74
 9143 2ce2 00       		.sleb128 0
 9144 2ce3 00       		.byte	0
 9145 2ce4 27       		.uleb128 0x27
 9146 2ce5 4A000000 		.4byte	.LVL386
 9147 2ce9 2C210000 		.4byte	0x212c
 9148 2ced F82C0000 		.4byte	0x2cf8
 9149 2cf1 26       		.uleb128 0x26
 9150 2cf2 01       		.uleb128 0x1
 9151 2cf3 50       		.byte	0x50
 9152 2cf4 02       		.uleb128 0x2
 9153 2cf5 74       		.byte	0x74
 9154 2cf6 00       		.sleb128 0
 9155 2cf7 00       		.byte	0
 9156 2cf8 27       		.uleb128 0x27
 9157 2cf9 5C000000 		.4byte	.LVL388
 9158 2cfd 20240000 		.4byte	0x2420
 9159 2d01 0C2D0000 		.4byte	0x2d0c
 9160 2d05 26       		.uleb128 0x26
 9161 2d06 01       		.uleb128 0x1
 9162 2d07 50       		.byte	0x50
 9163 2d08 02       		.uleb128 0x2
 9164 2d09 74       		.byte	0x74
 9165 2d0a 00       		.sleb128 0
 9166 2d0b 00       		.byte	0
 9167 2d0c 25       		.uleb128 0x25
 9168 2d0d 68000000 		.4byte	.LVL390
 9169 2d11 F6100000 		.4byte	0x10f6
 9170 2d15 26       		.uleb128 0x26
 9171 2d16 01       		.uleb128 0x1
 9172 2d17 50       		.byte	0x50
 9173 2d18 02       		.uleb128 0x2
 9174 2d19 74       		.byte	0x74
 9175 2d1a 00       		.sleb128 0
 9176 2d1b 00       		.byte	0
 9177 2d1c 00       		.byte	0
 9178 2d1d 3F       		.uleb128 0x3f
 9179 2d1e AF0B0000 		.4byte	.LASF388
 9180 2d22 01       		.byte	0x1
 9181 2d23 FD       		.byte	0xfd
 9182 2d24 41010000 		.4byte	0x141
 9183 2d28 00000000 		.4byte	.LFB338
 9184 2d2c D0000000 		.4byte	.LFE338-.LFB338
 9185 2d30 01       		.uleb128 0x1
 9186 2d31 9C       		.byte	0x9c
ARM GAS  C:\Users\strap\AppData\Local\Temp\cc7wbcEe.s 			page 190


 9187 2d32 C32E0000 		.4byte	0x2ec3
 9188 2d36 39       		.uleb128 0x39
 9189 2d37 19030000 		.4byte	.LASF337
 9190 2d3b 01       		.byte	0x1
 9191 2d3c FD       		.byte	0xfd
 9192 2d3d A40C0000 		.4byte	0xca4
 9193 2d41 83120000 		.4byte	.LLST165
 9194 2d45 39       		.uleb128 0x39
 9195 2d46 B9010000 		.4byte	.LASF389
 9196 2d4a 01       		.byte	0x1
 9197 2d4b FD       		.byte	0xfd
 9198 2d4c B4090000 		.4byte	0x9b4
 9199 2d50 C5120000 		.4byte	.LLST166
 9200 2d54 39       		.uleb128 0x39
 9201 2d55 CC1C0000 		.4byte	.LASF390
 9202 2d59 01       		.byte	0x1
 9203 2d5a FD       		.byte	0xfd
 9204 2d5b FA000000 		.4byte	0xfa
 9205 2d5f FF120000 		.4byte	.LLST167
 9206 2d63 2B       		.uleb128 0x2b
 9207 2d64 72657300 		.ascii	"res\000"
 9208 2d68 01       		.byte	0x1
 9209 2d69 0601     		.2byte	0x106
 9210 2d6b 41010000 		.4byte	0x141
 9211 2d6f 41130000 		.4byte	.LLST168
 9212 2d73 40       		.uleb128 0x40
 9213 2d74 30000000 		.4byte	.Ldebug_ranges0+0x30
 9214 2d78 B92D0000 		.4byte	0x2db9
 9215 2d7c 20       		.uleb128 0x20
 9216 2d7d 01140000 		.4byte	.LASF391
 9217 2d81 01       		.byte	0x1
 9218 2d82 0001     		.2byte	0x100
 9219 2d84 C32E0000 		.4byte	0x2ec3
 9220 2d88 96130000 		.4byte	.LLST169
 9221 2d8c 27       		.uleb128 0x27
 9222 2d8d 12000000 		.4byte	.LVL394
 9223 2d91 B50E0000 		.4byte	0xeb5
 9224 2d95 A02D0000 		.4byte	0x2da0
 9225 2d99 26       		.uleb128 0x26
 9226 2d9a 01       		.uleb128 0x1
 9227 2d9b 50       		.byte	0x50
 9228 2d9c 02       		.uleb128 0x2
 9229 2d9d 77       		.byte	0x77
 9230 2d9e 00       		.sleb128 0
 9231 2d9f 00       		.byte	0
 9232 2da0 3D       		.uleb128 0x3d
 9233 2da1 24000000 		.4byte	.LVL395
 9234 2da5 26       		.uleb128 0x26
 9235 2da6 01       		.uleb128 0x1
 9236 2da7 50       		.byte	0x50
 9237 2da8 02       		.uleb128 0x2
 9238 2da9 77       		.byte	0x77
 9239 2daa 00       		.sleb128 0
 9240 2dab 26       		.uleb128 0x26
 9241 2dac 01       		.uleb128 0x1
 9242 2dad 51       		.byte	0x51
 9243 2dae 02       		.uleb128 0x2
ARM GAS  C:\Users\strap\AppData\Local\Temp\cc7wbcEe.s 			page 191


 9244 2daf 75       		.byte	0x75
 9245 2db0 00       		.sleb128 0
 9246 2db1 26       		.uleb128 0x26
 9247 2db2 01       		.uleb128 0x1
 9248 2db3 52       		.byte	0x52
 9249 2db4 02       		.uleb128 0x2
 9250 2db5 76       		.byte	0x76
 9251 2db6 00       		.sleb128 0
 9252 2db7 00       		.byte	0
 9253 2db8 00       		.byte	0
 9254 2db9 23       		.uleb128 0x23
 9255 2dba 7D0E0000 		.4byte	0xe7d
 9256 2dbe 72000000 		.4byte	.LBB232
 9257 2dc2 0E000000 		.4byte	.LBE232-.LBB232
 9258 2dc6 01       		.byte	0x1
 9259 2dc7 1601     		.2byte	0x116
 9260 2dc9 D72D0000 		.4byte	0x2dd7
 9261 2dcd 24       		.uleb128 0x24
 9262 2dce 8D0E0000 		.4byte	0xe8d
 9263 2dd2 BF130000 		.4byte	.LLST170
 9264 2dd6 00       		.byte	0
 9265 2dd7 23       		.uleb128 0x23
 9266 2dd8 990E0000 		.4byte	0xe99
 9267 2ddc 8A000000 		.4byte	.LBB234
 9268 2de0 0E000000 		.4byte	.LBE234-.LBB234
 9269 2de4 01       		.byte	0x1
 9270 2de5 1601     		.2byte	0x116
 9271 2de7 F52D0000 		.4byte	0x2df5
 9272 2deb 24       		.uleb128 0x24
 9273 2dec A90E0000 		.4byte	0xea9
 9274 2df0 D2130000 		.4byte	.LLST171
 9275 2df4 00       		.byte	0
 9276 2df5 27       		.uleb128 0x27
 9277 2df6 3E000000 		.4byte	.LVL400
 9278 2dfa 3B320000 		.4byte	0x323b
 9279 2dfe 122E0000 		.4byte	0x2e12
 9280 2e02 26       		.uleb128 0x26
 9281 2e03 01       		.uleb128 0x1
 9282 2e04 50       		.byte	0x50
 9283 2e05 02       		.uleb128 0x2
 9284 2e06 76       		.byte	0x76
 9285 2e07 00       		.sleb128 0
 9286 2e08 26       		.uleb128 0x26
 9287 2e09 01       		.uleb128 0x1
 9288 2e0a 51       		.byte	0x51
 9289 2e0b 05       		.uleb128 0x5
 9290 2e0c 03       		.byte	0x3
 9291 2e0d 20000000 		.4byte	.LC2
 9292 2e11 00       		.byte	0
 9293 2e12 27       		.uleb128 0x27
 9294 2e13 4A000000 		.4byte	.LVL403
 9295 2e17 402C0000 		.4byte	0x2c40
 9296 2e1b 262E0000 		.4byte	0x2e26
 9297 2e1f 26       		.uleb128 0x26
 9298 2e20 01       		.uleb128 0x1
 9299 2e21 50       		.byte	0x50
 9300 2e22 02       		.uleb128 0x2
ARM GAS  C:\Users\strap\AppData\Local\Temp\cc7wbcEe.s 			page 192


 9301 2e23 77       		.byte	0x77
 9302 2e24 00       		.sleb128 0
 9303 2e25 00       		.byte	0
 9304 2e26 27       		.uleb128 0x27
 9305 2e27 50000000 		.4byte	.LVL404
 9306 2e2b 53130000 		.4byte	0x1353
 9307 2e2f 3A2E0000 		.4byte	0x2e3a
 9308 2e33 26       		.uleb128 0x26
 9309 2e34 01       		.uleb128 0x1
 9310 2e35 50       		.byte	0x50
 9311 2e36 02       		.uleb128 0x2
 9312 2e37 77       		.byte	0x77
 9313 2e38 00       		.sleb128 0
 9314 2e39 00       		.byte	0
 9315 2e3a 27       		.uleb128 0x27
 9316 2e3b 5E000000 		.4byte	.LVL407
 9317 2e3f 402C0000 		.4byte	0x2c40
 9318 2e43 4E2E0000 		.4byte	0x2e4e
 9319 2e47 26       		.uleb128 0x26
 9320 2e48 01       		.uleb128 0x1
 9321 2e49 50       		.byte	0x50
 9322 2e4a 02       		.uleb128 0x2
 9323 2e4b 77       		.byte	0x77
 9324 2e4c 00       		.sleb128 0
 9325 2e4d 00       		.byte	0
 9326 2e4e 27       		.uleb128 0x27
 9327 2e4f 64000000 		.4byte	.LVL408
 9328 2e53 53130000 		.4byte	0x1353
 9329 2e57 622E0000 		.4byte	0x2e62
 9330 2e5b 26       		.uleb128 0x26
 9331 2e5c 01       		.uleb128 0x1
 9332 2e5d 50       		.byte	0x50
 9333 2e5e 02       		.uleb128 0x2
 9334 2e5f 77       		.byte	0x77
 9335 2e60 00       		.sleb128 0
 9336 2e61 00       		.byte	0
 9337 2e62 27       		.uleb128 0x27
 9338 2e63 72000000 		.4byte	.LVL411
 9339 2e67 37310000 		.4byte	0x3137
 9340 2e6b 762E0000 		.4byte	0x2e76
 9341 2e6f 26       		.uleb128 0x26
 9342 2e70 01       		.uleb128 0x1
 9343 2e71 50       		.byte	0x50
 9344 2e72 02       		.uleb128 0x2
 9345 2e73 77       		.byte	0x77
 9346 2e74 00       		.sleb128 0
 9347 2e75 00       		.byte	0
 9348 2e76 27       		.uleb128 0x27
 9349 2e77 8A000000 		.4byte	.LVL413
 9350 2e7b E6300000 		.4byte	0x30e6
 9351 2e7f 8A2E0000 		.4byte	0x2e8a
 9352 2e83 26       		.uleb128 0x26
 9353 2e84 01       		.uleb128 0x1
 9354 2e85 50       		.byte	0x50
 9355 2e86 02       		.uleb128 0x2
 9356 2e87 77       		.byte	0x77
 9357 2e88 00       		.sleb128 0
ARM GAS  C:\Users\strap\AppData\Local\Temp\cc7wbcEe.s 			page 193


 9358 2e89 00       		.byte	0
 9359 2e8a 27       		.uleb128 0x27
 9360 2e8b A2000000 		.4byte	.LVL415
 9361 2e8f 402C0000 		.4byte	0x2c40
 9362 2e93 9E2E0000 		.4byte	0x2e9e
 9363 2e97 26       		.uleb128 0x26
 9364 2e98 01       		.uleb128 0x1
 9365 2e99 50       		.byte	0x50
 9366 2e9a 02       		.uleb128 0x2
 9367 2e9b 77       		.byte	0x77
 9368 2e9c 00       		.sleb128 0
 9369 2e9d 00       		.byte	0
 9370 2e9e 27       		.uleb128 0x27
 9371 2e9f A8000000 		.4byte	.LVL416
 9372 2ea3 53130000 		.4byte	0x1353
 9373 2ea7 B22E0000 		.4byte	0x2eb2
 9374 2eab 26       		.uleb128 0x26
 9375 2eac 01       		.uleb128 0x1
 9376 2ead 50       		.byte	0x50
 9377 2eae 02       		.uleb128 0x2
 9378 2eaf 77       		.byte	0x77
 9379 2eb0 00       		.sleb128 0
 9380 2eb1 00       		.byte	0
 9381 2eb2 25       		.uleb128 0x25
 9382 2eb3 B6000000 		.4byte	.LVL419
 9383 2eb7 53130000 		.4byte	0x1353
 9384 2ebb 26       		.uleb128 0x26
 9385 2ebc 01       		.uleb128 0x1
 9386 2ebd 50       		.byte	0x50
 9387 2ebe 02       		.uleb128 0x2
 9388 2ebf 77       		.byte	0x77
 9389 2ec0 00       		.sleb128 0
 9390 2ec1 00       		.byte	0
 9391 2ec2 00       		.byte	0
 9392 2ec3 0B       		.uleb128 0xb
 9393 2ec4 04       		.byte	0x4
 9394 2ec5 F20A0000 		.4byte	0xaf2
 9395 2ec9 37       		.uleb128 0x37
 9396 2eca 8C1B0000 		.4byte	.LASF392
 9397 2ece 01       		.byte	0x1
 9398 2ecf C3       		.byte	0xc3
 9399 2ed0 8F0B0000 		.4byte	0xb8f
 9400 2ed4 00000000 		.4byte	.LFB334
 9401 2ed8 28000000 		.4byte	.LFE334-.LFB334
 9402 2edc 01       		.uleb128 0x1
 9403 2edd 9C       		.byte	0x9c
 9404 2ede 3C2F0000 		.4byte	0x2f3c
 9405 2ee2 39       		.uleb128 0x39
 9406 2ee3 19030000 		.4byte	.LASF337
 9407 2ee7 01       		.byte	0x1
 9408 2ee8 C3       		.byte	0xc3
 9409 2ee9 170D0000 		.4byte	0xd17
 9410 2eed E5130000 		.4byte	.LLST172
 9411 2ef1 3B       		.uleb128 0x3b
 9412 2ef2 65787400 		.ascii	"ext\000"
 9413 2ef6 01       		.byte	0x1
 9414 2ef7 C7       		.byte	0xc7
ARM GAS  C:\Users\strap\AppData\Local\Temp\cc7wbcEe.s 			page 194


 9415 2ef8 261A0000 		.4byte	0x1a26
 9416 2efc 11140000 		.4byte	.LLST173
 9417 2f00 27       		.uleb128 0x27
 9418 2f01 08000000 		.4byte	.LVL426
 9419 2f05 D2310000 		.4byte	0x31d2
 9420 2f09 142F0000 		.4byte	0x2f14
 9421 2f0d 26       		.uleb128 0x26
 9422 2f0e 01       		.uleb128 0x1
 9423 2f0f 50       		.byte	0x50
 9424 2f10 02       		.uleb128 0x2
 9425 2f11 74       		.byte	0x74
 9426 2f12 00       		.sleb128 0
 9427 2f13 00       		.byte	0
 9428 2f14 27       		.uleb128 0x27
 9429 2f15 14000000 		.4byte	.LVL427
 9430 2f19 DD310000 		.4byte	0x31dd
 9431 2f1d 2B2F0000 		.4byte	0x2f2b
 9432 2f21 26       		.uleb128 0x26
 9433 2f22 01       		.uleb128 0x1
 9434 2f23 50       		.byte	0x50
 9435 2f24 05       		.uleb128 0x5
 9436 2f25 03       		.byte	0x3
 9437 2f26 10000000 		.4byte	.LC1
 9438 2f2a 00       		.byte	0
 9439 2f2b 25       		.uleb128 0x25
 9440 2f2c 1C000000 		.4byte	.LVL428
 9441 2f30 67310000 		.4byte	0x3167
 9442 2f34 26       		.uleb128 0x26
 9443 2f35 01       		.uleb128 0x1
 9444 2f36 50       		.byte	0x50
 9445 2f37 02       		.uleb128 0x2
 9446 2f38 74       		.byte	0x74
 9447 2f39 00       		.sleb128 0
 9448 2f3a 00       		.byte	0
 9449 2f3b 00       		.byte	0
 9450 2f3c 37       		.uleb128 0x37
 9451 2f3d DB060000 		.4byte	.LASF393
 9452 2f41 01       		.byte	0x1
 9453 2f42 D0       		.byte	0xd0
 9454 2f43 8F0B0000 		.4byte	0xb8f
 9455 2f47 00000000 		.4byte	.LFB335
 9456 2f4b 28000000 		.4byte	.LFE335-.LFB335
 9457 2f4f 01       		.uleb128 0x1
 9458 2f50 9C       		.byte	0x9c
 9459 2f51 AF2F0000 		.4byte	0x2faf
 9460 2f55 39       		.uleb128 0x39
 9461 2f56 19030000 		.4byte	.LASF337
 9462 2f5a 01       		.byte	0x1
 9463 2f5b D0       		.byte	0xd0
 9464 2f5c 170D0000 		.4byte	0xd17
 9465 2f60 24140000 		.4byte	.LLST174
 9466 2f64 3B       		.uleb128 0x3b
 9467 2f65 65787400 		.ascii	"ext\000"
 9468 2f69 01       		.byte	0x1
 9469 2f6a D4       		.byte	0xd4
 9470 2f6b 261A0000 		.4byte	0x1a26
 9471 2f6f 50140000 		.4byte	.LLST175
ARM GAS  C:\Users\strap\AppData\Local\Temp\cc7wbcEe.s 			page 195


 9472 2f73 27       		.uleb128 0x27
 9473 2f74 08000000 		.4byte	.LVL432
 9474 2f78 D2310000 		.4byte	0x31d2
 9475 2f7c 872F0000 		.4byte	0x2f87
 9476 2f80 26       		.uleb128 0x26
 9477 2f81 01       		.uleb128 0x1
 9478 2f82 50       		.byte	0x50
 9479 2f83 02       		.uleb128 0x2
 9480 2f84 74       		.byte	0x74
 9481 2f85 00       		.sleb128 0
 9482 2f86 00       		.byte	0
 9483 2f87 27       		.uleb128 0x27
 9484 2f88 14000000 		.4byte	.LVL433
 9485 2f8c DD310000 		.4byte	0x31dd
 9486 2f90 9E2F0000 		.4byte	0x2f9e
 9487 2f94 26       		.uleb128 0x26
 9488 2f95 01       		.uleb128 0x1
 9489 2f96 50       		.byte	0x50
 9490 2f97 05       		.uleb128 0x5
 9491 2f98 03       		.byte	0x3
 9492 2f99 10000000 		.4byte	.LC1
 9493 2f9d 00       		.byte	0
 9494 2f9e 25       		.uleb128 0x25
 9495 2f9f 1C000000 		.4byte	.LVL434
 9496 2fa3 67310000 		.4byte	0x3167
 9497 2fa7 26       		.uleb128 0x26
 9498 2fa8 01       		.uleb128 0x1
 9499 2fa9 50       		.byte	0x50
 9500 2faa 02       		.uleb128 0x2
 9501 2fab 74       		.byte	0x74
 9502 2fac 00       		.sleb128 0
 9503 2fad 00       		.byte	0
 9504 2fae 00       		.byte	0
 9505 2faf 37       		.uleb128 0x37
 9506 2fb0 F0020000 		.4byte	.LASF394
 9507 2fb4 01       		.byte	0x1
 9508 2fb5 DD       		.byte	0xdd
 9509 2fb6 8F0B0000 		.4byte	0xb8f
 9510 2fba 00000000 		.4byte	.LFB336
 9511 2fbe 28000000 		.4byte	.LFE336-.LFB336
 9512 2fc2 01       		.uleb128 0x1
 9513 2fc3 9C       		.byte	0x9c
 9514 2fc4 22300000 		.4byte	0x3022
 9515 2fc8 39       		.uleb128 0x39
 9516 2fc9 19030000 		.4byte	.LASF337
 9517 2fcd 01       		.byte	0x1
 9518 2fce DD       		.byte	0xdd
 9519 2fcf 170D0000 		.4byte	0xd17
 9520 2fd3 63140000 		.4byte	.LLST176
 9521 2fd7 3B       		.uleb128 0x3b
 9522 2fd8 65787400 		.ascii	"ext\000"
 9523 2fdc 01       		.byte	0x1
 9524 2fdd E1       		.byte	0xe1
 9525 2fde 261A0000 		.4byte	0x1a26
 9526 2fe2 8F140000 		.4byte	.LLST177
 9527 2fe6 27       		.uleb128 0x27
 9528 2fe7 08000000 		.4byte	.LVL438
ARM GAS  C:\Users\strap\AppData\Local\Temp\cc7wbcEe.s 			page 196


 9529 2feb D2310000 		.4byte	0x31d2
 9530 2fef FA2F0000 		.4byte	0x2ffa
 9531 2ff3 26       		.uleb128 0x26
 9532 2ff4 01       		.uleb128 0x1
 9533 2ff5 50       		.byte	0x50
 9534 2ff6 02       		.uleb128 0x2
 9535 2ff7 74       		.byte	0x74
 9536 2ff8 00       		.sleb128 0
 9537 2ff9 00       		.byte	0
 9538 2ffa 27       		.uleb128 0x27
 9539 2ffb 14000000 		.4byte	.LVL439
 9540 2fff DD310000 		.4byte	0x31dd
 9541 3003 11300000 		.4byte	0x3011
 9542 3007 26       		.uleb128 0x26
 9543 3008 01       		.uleb128 0x1
 9544 3009 50       		.byte	0x50
 9545 300a 05       		.uleb128 0x5
 9546 300b 03       		.byte	0x3
 9547 300c 10000000 		.4byte	.LC1
 9548 3010 00       		.byte	0
 9549 3011 25       		.uleb128 0x25
 9550 3012 1C000000 		.4byte	.LVL440
 9551 3016 67310000 		.4byte	0x3167
 9552 301a 26       		.uleb128 0x26
 9553 301b 01       		.uleb128 0x1
 9554 301c 50       		.byte	0x50
 9555 301d 02       		.uleb128 0x2
 9556 301e 74       		.byte	0x74
 9557 301f 00       		.sleb128 0
 9558 3020 00       		.byte	0
 9559 3021 00       		.byte	0
 9560 3022 37       		.uleb128 0x37
 9561 3023 E70A0000 		.4byte	.LASF395
 9562 3027 01       		.byte	0x1
 9563 3028 EA       		.byte	0xea
 9564 3029 8F0B0000 		.4byte	0xb8f
 9565 302d 00000000 		.4byte	.LFB337
 9566 3031 28000000 		.4byte	.LFE337-.LFB337
 9567 3035 01       		.uleb128 0x1
 9568 3036 9C       		.byte	0x9c
 9569 3037 95300000 		.4byte	0x3095
 9570 303b 39       		.uleb128 0x39
 9571 303c 19030000 		.4byte	.LASF337
 9572 3040 01       		.byte	0x1
 9573 3041 EA       		.byte	0xea
 9574 3042 170D0000 		.4byte	0xd17
 9575 3046 A2140000 		.4byte	.LLST178
 9576 304a 3B       		.uleb128 0x3b
 9577 304b 65787400 		.ascii	"ext\000"
 9578 304f 01       		.byte	0x1
 9579 3050 EE       		.byte	0xee
 9580 3051 261A0000 		.4byte	0x1a26
 9581 3055 CE140000 		.4byte	.LLST179
 9582 3059 27       		.uleb128 0x27
 9583 305a 08000000 		.4byte	.LVL444
 9584 305e D2310000 		.4byte	0x31d2
 9585 3062 6D300000 		.4byte	0x306d
ARM GAS  C:\Users\strap\AppData\Local\Temp\cc7wbcEe.s 			page 197


 9586 3066 26       		.uleb128 0x26
 9587 3067 01       		.uleb128 0x1
 9588 3068 50       		.byte	0x50
 9589 3069 02       		.uleb128 0x2
 9590 306a 74       		.byte	0x74
 9591 306b 00       		.sleb128 0
 9592 306c 00       		.byte	0
 9593 306d 27       		.uleb128 0x27
 9594 306e 14000000 		.4byte	.LVL445
 9595 3072 DD310000 		.4byte	0x31dd
 9596 3076 84300000 		.4byte	0x3084
 9597 307a 26       		.uleb128 0x26
 9598 307b 01       		.uleb128 0x1
 9599 307c 50       		.byte	0x50
 9600 307d 05       		.uleb128 0x5
 9601 307e 03       		.byte	0x3
 9602 307f 10000000 		.4byte	.LC1
 9603 3083 00       		.byte	0
 9604 3084 25       		.uleb128 0x25
 9605 3085 1C000000 		.4byte	.LVL446
 9606 3089 67310000 		.4byte	0x3167
 9607 308d 26       		.uleb128 0x26
 9608 308e 01       		.uleb128 0x1
 9609 308f 50       		.byte	0x50
 9610 3090 02       		.uleb128 0x2
 9611 3091 74       		.byte	0x74
 9612 3092 00       		.sleb128 0
 9613 3093 00       		.byte	0
 9614 3094 00       		.byte	0
 9615 3095 41       		.uleb128 0x41
 9616 3096 E0150000 		.4byte	.LASF396
 9617 309a 01       		.byte	0x1
 9618 309b 32       		.byte	0x32
 9619 309c B5080000 		.4byte	0x8b5
 9620 30a0 05       		.uleb128 0x5
 9621 30a1 03       		.byte	0x3
 9622 30a2 04000000 		.4byte	ancestor_design
 9623 30a6 41       		.uleb128 0x41
 9624 30a7 7A150000 		.4byte	.LASF397
 9625 30ab 01       		.byte	0x1
 9626 30ac 33       		.byte	0x33
 9627 30ad BF090000 		.4byte	0x9bf
 9628 30b1 05       		.uleb128 0x5
 9629 30b2 03       		.byte	0x3
 9630 30b3 00000000 		.4byte	ancestor_signal
 9631 30b7 42       		.uleb128 0x42
 9632 30b8 70040000 		.4byte	.LASF398
 9633 30bc 70040000 		.4byte	.LASF398
 9634 30c0 0C       		.byte	0xc
 9635 30c1 8304     		.2byte	0x483
 9636 30c3 43       		.uleb128 0x43
 9637 30c4 681C0000 		.4byte	.LASF399
 9638 30c8 681C0000 		.4byte	.LASF399
 9639 30cc 0B       		.byte	0xb
 9640 30cd 65       		.byte	0x65
 9641 30ce 42       		.uleb128 0x42
 9642 30cf 1F1B0000 		.4byte	.LASF400
ARM GAS  C:\Users\strap\AppData\Local\Temp\cc7wbcEe.s 			page 198


 9643 30d3 1F1B0000 		.4byte	.LASF400
 9644 30d7 0C       		.byte	0xc
 9645 30d8 CA04     		.2byte	0x4ca
 9646 30da 42       		.uleb128 0x42
 9647 30db 50020000 		.4byte	.LASF401
 9648 30df 50020000 		.4byte	.LASF401
 9649 30e3 0C       		.byte	0xc
 9650 30e4 2305     		.2byte	0x523
 9651 30e6 42       		.uleb128 0x42
 9652 30e7 CD160000 		.4byte	.LASF402
 9653 30eb CD160000 		.4byte	.LASF402
 9654 30ef 0C       		.byte	0xc
 9655 30f0 0404     		.2byte	0x404
 9656 30f2 43       		.uleb128 0x43
 9657 30f3 65160000 		.4byte	.LASF403
 9658 30f7 65160000 		.4byte	.LASF403
 9659 30fb 0B       		.byte	0xb
 9660 30fc 74       		.byte	0x74
 9661 30fd 42       		.uleb128 0x42
 9662 30fe 91180000 		.4byte	.LASF404
 9663 3102 91180000 		.4byte	.LASF404
 9664 3106 0C       		.byte	0xc
 9665 3107 1403     		.2byte	0x314
 9666 3109 43       		.uleb128 0x43
 9667 310a 9F0E0000 		.4byte	.LASF405
 9668 310e 9F0E0000 		.4byte	.LASF405
 9669 3112 0B       		.byte	0xb
 9670 3113 6C       		.byte	0x6c
 9671 3114 42       		.uleb128 0x42
 9672 3115 23090000 		.4byte	.LASF406
 9673 3119 23090000 		.4byte	.LASF406
 9674 311d 0C       		.byte	0xc
 9675 311e E601     		.2byte	0x1e6
 9676 3120 43       		.uleb128 0x43
 9677 3121 A7160000 		.4byte	.LASF407
 9678 3125 A7160000 		.4byte	.LASF407
 9679 3129 0B       		.byte	0xb
 9680 312a 7C       		.byte	0x7c
 9681 312b 42       		.uleb128 0x42
 9682 312c 16070000 		.4byte	.LASF408
 9683 3130 16070000 		.4byte	.LASF408
 9684 3134 0C       		.byte	0xc
 9685 3135 1B03     		.2byte	0x31b
 9686 3137 42       		.uleb128 0x42
 9687 3138 A8020000 		.4byte	.LASF409
 9688 313c A8020000 		.4byte	.LASF409
 9689 3140 0C       		.byte	0xc
 9690 3141 FD03     		.2byte	0x3fd
 9691 3143 42       		.uleb128 0x42
 9692 3144 D20C0000 		.4byte	.LASF410
 9693 3148 D20C0000 		.4byte	.LASF410
 9694 314c 0C       		.byte	0xc
 9695 314d 9A01     		.2byte	0x19a
 9696 314f 42       		.uleb128 0x42
 9697 3150 E6170000 		.4byte	.LASF411
 9698 3154 E6170000 		.4byte	.LASF411
 9699 3158 0C       		.byte	0xc
ARM GAS  C:\Users\strap\AppData\Local\Temp\cc7wbcEe.s 			page 199


 9700 3159 0B04     		.2byte	0x40b
 9701 315b 42       		.uleb128 0x42
 9702 315c 5B0D0000 		.4byte	.LASF412
 9703 3160 5B0D0000 		.4byte	.LASF412
 9704 3164 0C       		.byte	0xc
 9705 3165 C003     		.2byte	0x3c0
 9706 3167 42       		.uleb128 0x42
 9707 3168 45090000 		.4byte	.LASF413
 9708 316c 45090000 		.4byte	.LASF413
 9709 3170 0C       		.byte	0xc
 9710 3171 5905     		.2byte	0x559
 9711 3173 42       		.uleb128 0x42
 9712 3174 4D120000 		.4byte	.LASF414
 9713 3178 4D120000 		.4byte	.LASF414
 9714 317c 0C       		.byte	0xc
 9715 317d B703     		.2byte	0x3b7
 9716 317f 42       		.uleb128 0x42
 9717 3180 7A1B0000 		.4byte	.LASF415
 9718 3184 7A1B0000 		.4byte	.LASF415
 9719 3188 0C       		.byte	0xc
 9720 3189 E103     		.2byte	0x3e1
 9721 318b 43       		.uleb128 0x43
 9722 318c BF180000 		.4byte	.LASF416
 9723 3190 BF180000 		.4byte	.LASF416
 9724 3194 0B       		.byte	0xb
 9725 3195 9A       		.byte	0x9a
 9726 3196 42       		.uleb128 0x42
 9727 3197 A61C0000 		.4byte	.LASF417
 9728 319b A61C0000 		.4byte	.LASF417
 9729 319f 0C       		.byte	0xc
 9730 31a0 6301     		.2byte	0x163
 9731 31a2 42       		.uleb128 0x42
 9732 31a3 3A170000 		.4byte	.LASF418
 9733 31a7 3A170000 		.4byte	.LASF418
 9734 31ab 0C       		.byte	0xc
 9735 31ac 4304     		.2byte	0x443
 9736 31ae 42       		.uleb128 0x42
 9737 31af B6060000 		.4byte	.LASF419
 9738 31b3 B6060000 		.4byte	.LASF419
 9739 31b7 0C       		.byte	0xc
 9740 31b8 1B02     		.2byte	0x21b
 9741 31ba 42       		.uleb128 0x42
 9742 31bb 450E0000 		.4byte	.LASF420
 9743 31bf 450E0000 		.4byte	.LASF420
 9744 31c3 0C       		.byte	0xc
 9745 31c4 5E02     		.2byte	0x25e
 9746 31c6 42       		.uleb128 0x42
 9747 31c7 94090000 		.4byte	.LASF421
 9748 31cb 94090000 		.4byte	.LASF421
 9749 31cf 0C       		.byte	0xc
 9750 31d0 3701     		.2byte	0x137
 9751 31d2 43       		.uleb128 0x43
 9752 31d3 9B110000 		.4byte	.LASF422
 9753 31d7 9B110000 		.4byte	.LASF422
 9754 31db 11       		.byte	0x11
 9755 31dc 20       		.byte	0x20
 9756 31dd 43       		.uleb128 0x43
ARM GAS  C:\Users\strap\AppData\Local\Temp\cc7wbcEe.s 			page 200


 9757 31de 79180000 		.4byte	.LASF423
 9758 31e2 79180000 		.4byte	.LASF423
 9759 31e6 11       		.byte	0x11
 9760 31e7 26       		.byte	0x26
 9761 31e8 42       		.uleb128 0x42
 9762 31e9 92160000 		.4byte	.LASF424
 9763 31ed 92160000 		.4byte	.LASF424
 9764 31f1 0C       		.byte	0xc
 9765 31f2 2D05     		.2byte	0x52d
 9766 31f4 42       		.uleb128 0x42
 9767 31f5 A6040000 		.4byte	.LASF425
 9768 31f9 A6040000 		.4byte	.LASF425
 9769 31fd 0C       		.byte	0xc
 9770 31fe 3405     		.2byte	0x534
 9771 3200 42       		.uleb128 0x42
 9772 3201 381D0000 		.4byte	.LASF426
 9773 3205 381D0000 		.4byte	.LASF426
 9774 3209 0C       		.byte	0xc
 9775 320a 9403     		.2byte	0x394
 9776 320c 42       		.uleb128 0x42
 9777 320d A11B0000 		.4byte	.LASF427
 9778 3211 A11B0000 		.4byte	.LASF427
 9779 3215 0C       		.byte	0xc
 9780 3216 3E01     		.2byte	0x13e
 9781 3218 42       		.uleb128 0x42
 9782 3219 94010000 		.4byte	.LASF428
 9783 321d 94010000 		.4byte	.LASF428
 9784 3221 0C       		.byte	0xc
 9785 3222 7803     		.2byte	0x378
 9786 3224 43       		.uleb128 0x43
 9787 3225 C9010000 		.4byte	.LASF429
 9788 3229 C9010000 		.4byte	.LASF429
 9789 322d 10       		.byte	0x10
 9790 322e BE       		.byte	0xbe
 9791 322f 42       		.uleb128 0x42
 9792 3230 281A0000 		.4byte	.LASF430
 9793 3234 281A0000 		.4byte	.LASF430
 9794 3238 0C       		.byte	0xc
 9795 3239 1405     		.2byte	0x514
 9796 323b 42       		.uleb128 0x42
 9797 323c 61170000 		.4byte	.LASF431
 9798 3240 61170000 		.4byte	.LASF431
 9799 3244 0C       		.byte	0xc
 9800 3245 9A05     		.2byte	0x59a
 9801 3247 00       		.byte	0
 9802              		.section	.debug_abbrev,"",%progbits
 9803              	.Ldebug_abbrev0:
 9804 0000 01       		.uleb128 0x1
 9805 0001 11       		.uleb128 0x11
 9806 0002 01       		.byte	0x1
 9807 0003 25       		.uleb128 0x25
 9808 0004 0E       		.uleb128 0xe
 9809 0005 13       		.uleb128 0x13
 9810 0006 0B       		.uleb128 0xb
 9811 0007 03       		.uleb128 0x3
 9812 0008 0E       		.uleb128 0xe
 9813 0009 1B       		.uleb128 0x1b
ARM GAS  C:\Users\strap\AppData\Local\Temp\cc7wbcEe.s 			page 201


 9814 000a 0E       		.uleb128 0xe
 9815 000b 55       		.uleb128 0x55
 9816 000c 17       		.uleb128 0x17
 9817 000d 11       		.uleb128 0x11
 9818 000e 01       		.uleb128 0x1
 9819 000f 10       		.uleb128 0x10
 9820 0010 17       		.uleb128 0x17
 9821 0011 00       		.byte	0
 9822 0012 00       		.byte	0
 9823 0013 02       		.uleb128 0x2
 9824 0014 24       		.uleb128 0x24
 9825 0015 00       		.byte	0
 9826 0016 0B       		.uleb128 0xb
 9827 0017 0B       		.uleb128 0xb
 9828 0018 3E       		.uleb128 0x3e
 9829 0019 0B       		.uleb128 0xb
 9830 001a 03       		.uleb128 0x3
 9831 001b 0E       		.uleb128 0xe
 9832 001c 00       		.byte	0
 9833 001d 00       		.byte	0
 9834 001e 03       		.uleb128 0x3
 9835 001f 16       		.uleb128 0x16
 9836 0020 00       		.byte	0
 9837 0021 03       		.uleb128 0x3
 9838 0022 0E       		.uleb128 0xe
 9839 0023 3A       		.uleb128 0x3a
 9840 0024 0B       		.uleb128 0xb
 9841 0025 3B       		.uleb128 0x3b
 9842 0026 0B       		.uleb128 0xb
 9843 0027 49       		.uleb128 0x49
 9844 0028 13       		.uleb128 0x13
 9845 0029 00       		.byte	0
 9846 002a 00       		.byte	0
 9847 002b 04       		.uleb128 0x4
 9848 002c 24       		.uleb128 0x24
 9849 002d 00       		.byte	0
 9850 002e 0B       		.uleb128 0xb
 9851 002f 0B       		.uleb128 0xb
 9852 0030 3E       		.uleb128 0x3e
 9853 0031 0B       		.uleb128 0xb
 9854 0032 03       		.uleb128 0x3
 9855 0033 08       		.uleb128 0x8
 9856 0034 00       		.byte	0
 9857 0035 00       		.byte	0
 9858 0036 05       		.uleb128 0x5
 9859 0037 0F       		.uleb128 0xf
 9860 0038 00       		.byte	0
 9861 0039 0B       		.uleb128 0xb
 9862 003a 0B       		.uleb128 0xb
 9863 003b 00       		.byte	0
 9864 003c 00       		.byte	0
 9865 003d 06       		.uleb128 0x6
 9866 003e 16       		.uleb128 0x16
 9867 003f 00       		.byte	0
 9868 0040 03       		.uleb128 0x3
 9869 0041 0E       		.uleb128 0xe
 9870 0042 3A       		.uleb128 0x3a
ARM GAS  C:\Users\strap\AppData\Local\Temp\cc7wbcEe.s 			page 202


 9871 0043 0B       		.uleb128 0xb
 9872 0044 3B       		.uleb128 0x3b
 9873 0045 05       		.uleb128 0x5
 9874 0046 49       		.uleb128 0x49
 9875 0047 13       		.uleb128 0x13
 9876 0048 00       		.byte	0
 9877 0049 00       		.byte	0
 9878 004a 07       		.uleb128 0x7
 9879 004b 04       		.uleb128 0x4
 9880 004c 01       		.byte	0x1
 9881 004d 0B       		.uleb128 0xb
 9882 004e 0B       		.uleb128 0xb
 9883 004f 49       		.uleb128 0x49
 9884 0050 13       		.uleb128 0x13
 9885 0051 3A       		.uleb128 0x3a
 9886 0052 0B       		.uleb128 0xb
 9887 0053 3B       		.uleb128 0x3b
 9888 0054 0B       		.uleb128 0xb
 9889 0055 01       		.uleb128 0x1
 9890 0056 13       		.uleb128 0x13
 9891 0057 00       		.byte	0
 9892 0058 00       		.byte	0
 9893 0059 08       		.uleb128 0x8
 9894 005a 28       		.uleb128 0x28
 9895 005b 00       		.byte	0
 9896 005c 03       		.uleb128 0x3
 9897 005d 0E       		.uleb128 0xe
 9898 005e 1C       		.uleb128 0x1c
 9899 005f 0B       		.uleb128 0xb
 9900 0060 00       		.byte	0
 9901 0061 00       		.byte	0
 9902 0062 09       		.uleb128 0x9
 9903 0063 13       		.uleb128 0x13
 9904 0064 01       		.byte	0x1
 9905 0065 0B       		.uleb128 0xb
 9906 0066 0B       		.uleb128 0xb
 9907 0067 3A       		.uleb128 0x3a
 9908 0068 0B       		.uleb128 0xb
 9909 0069 3B       		.uleb128 0x3b
 9910 006a 0B       		.uleb128 0xb
 9911 006b 01       		.uleb128 0x1
 9912 006c 13       		.uleb128 0x13
 9913 006d 00       		.byte	0
 9914 006e 00       		.byte	0
 9915 006f 0A       		.uleb128 0xa
 9916 0070 0D       		.uleb128 0xd
 9917 0071 00       		.byte	0
 9918 0072 03       		.uleb128 0x3
 9919 0073 08       		.uleb128 0x8
 9920 0074 3A       		.uleb128 0x3a
 9921 0075 0B       		.uleb128 0xb
 9922 0076 3B       		.uleb128 0x3b
 9923 0077 0B       		.uleb128 0xb
 9924 0078 49       		.uleb128 0x49
 9925 0079 13       		.uleb128 0x13
 9926 007a 38       		.uleb128 0x38
 9927 007b 0B       		.uleb128 0xb
ARM GAS  C:\Users\strap\AppData\Local\Temp\cc7wbcEe.s 			page 203


 9928 007c 00       		.byte	0
 9929 007d 00       		.byte	0
 9930 007e 0B       		.uleb128 0xb
 9931 007f 0F       		.uleb128 0xf
 9932 0080 00       		.byte	0
 9933 0081 0B       		.uleb128 0xb
 9934 0082 0B       		.uleb128 0xb
 9935 0083 49       		.uleb128 0x49
 9936 0084 13       		.uleb128 0x13
 9937 0085 00       		.byte	0
 9938 0086 00       		.byte	0
 9939 0087 0C       		.uleb128 0xc
 9940 0088 26       		.uleb128 0x26
 9941 0089 00       		.byte	0
 9942 008a 49       		.uleb128 0x49
 9943 008b 13       		.uleb128 0x13
 9944 008c 00       		.byte	0
 9945 008d 00       		.byte	0
 9946 008e 0D       		.uleb128 0xd
 9947 008f 28       		.uleb128 0x28
 9948 0090 00       		.byte	0
 9949 0091 03       		.uleb128 0x3
 9950 0092 0E       		.uleb128 0xe
 9951 0093 1C       		.uleb128 0x1c
 9952 0094 05       		.uleb128 0x5
 9953 0095 00       		.byte	0
 9954 0096 00       		.byte	0
 9955 0097 0E       		.uleb128 0xe
 9956 0098 0D       		.uleb128 0xd
 9957 0099 00       		.byte	0
 9958 009a 03       		.uleb128 0x3
 9959 009b 0E       		.uleb128 0xe
 9960 009c 3A       		.uleb128 0x3a
 9961 009d 0B       		.uleb128 0xb
 9962 009e 3B       		.uleb128 0x3b
 9963 009f 0B       		.uleb128 0xb
 9964 00a0 49       		.uleb128 0x49
 9965 00a1 13       		.uleb128 0x13
 9966 00a2 38       		.uleb128 0x38
 9967 00a3 0B       		.uleb128 0xb
 9968 00a4 00       		.byte	0
 9969 00a5 00       		.byte	0
 9970 00a6 0F       		.uleb128 0xf
 9971 00a7 0D       		.uleb128 0xd
 9972 00a8 00       		.byte	0
 9973 00a9 03       		.uleb128 0x3
 9974 00aa 0E       		.uleb128 0xe
 9975 00ab 3A       		.uleb128 0x3a
 9976 00ac 0B       		.uleb128 0xb
 9977 00ad 3B       		.uleb128 0x3b
 9978 00ae 0B       		.uleb128 0xb
 9979 00af 49       		.uleb128 0x49
 9980 00b0 13       		.uleb128 0x13
 9981 00b1 0B       		.uleb128 0xb
 9982 00b2 0B       		.uleb128 0xb
 9983 00b3 0D       		.uleb128 0xd
 9984 00b4 0B       		.uleb128 0xb
ARM GAS  C:\Users\strap\AppData\Local\Temp\cc7wbcEe.s 			page 204


 9985 00b5 0C       		.uleb128 0xc
 9986 00b6 0B       		.uleb128 0xb
 9987 00b7 38       		.uleb128 0x38
 9988 00b8 0B       		.uleb128 0xb
 9989 00b9 00       		.byte	0
 9990 00ba 00       		.byte	0
 9991 00bb 10       		.uleb128 0x10
 9992 00bc 13       		.uleb128 0x13
 9993 00bd 01       		.byte	0x1
 9994 00be 03       		.uleb128 0x3
 9995 00bf 0E       		.uleb128 0xe
 9996 00c0 0B       		.uleb128 0xb
 9997 00c1 0B       		.uleb128 0xb
 9998 00c2 3A       		.uleb128 0x3a
 9999 00c3 0B       		.uleb128 0xb
 10000 00c4 3B       		.uleb128 0x3b
 10001 00c5 0B       		.uleb128 0xb
 10002 00c6 01       		.uleb128 0x1
 10003 00c7 13       		.uleb128 0x13
 10004 00c8 00       		.byte	0
 10005 00c9 00       		.byte	0
 10006 00ca 11       		.uleb128 0x11
 10007 00cb 0D       		.uleb128 0xd
 10008 00cc 00       		.byte	0
 10009 00cd 03       		.uleb128 0x3
 10010 00ce 08       		.uleb128 0x8
 10011 00cf 3A       		.uleb128 0x3a
 10012 00d0 0B       		.uleb128 0xb
 10013 00d1 3B       		.uleb128 0x3b
 10014 00d2 0B       		.uleb128 0xb
 10015 00d3 49       		.uleb128 0x49
 10016 00d4 13       		.uleb128 0x13
 10017 00d5 0B       		.uleb128 0xb
 10018 00d6 0B       		.uleb128 0xb
 10019 00d7 0D       		.uleb128 0xd
 10020 00d8 0B       		.uleb128 0xb
 10021 00d9 0C       		.uleb128 0xc
 10022 00da 0B       		.uleb128 0xb
 10023 00db 38       		.uleb128 0x38
 10024 00dc 0B       		.uleb128 0xb
 10025 00dd 00       		.byte	0
 10026 00de 00       		.byte	0
 10027 00df 12       		.uleb128 0x12
 10028 00e0 26       		.uleb128 0x26
 10029 00e1 00       		.byte	0
 10030 00e2 00       		.byte	0
 10031 00e3 00       		.byte	0
 10032 00e4 13       		.uleb128 0x13
 10033 00e5 15       		.uleb128 0x15
 10034 00e6 01       		.byte	0x1
 10035 00e7 27       		.uleb128 0x27
 10036 00e8 19       		.uleb128 0x19
 10037 00e9 49       		.uleb128 0x49
 10038 00ea 13       		.uleb128 0x13
 10039 00eb 01       		.uleb128 0x1
 10040 00ec 13       		.uleb128 0x13
 10041 00ed 00       		.byte	0
ARM GAS  C:\Users\strap\AppData\Local\Temp\cc7wbcEe.s 			page 205


 10042 00ee 00       		.byte	0
 10043 00ef 14       		.uleb128 0x14
 10044 00f0 05       		.uleb128 0x5
 10045 00f1 00       		.byte	0
 10046 00f2 49       		.uleb128 0x49
 10047 00f3 13       		.uleb128 0x13
 10048 00f4 00       		.byte	0
 10049 00f5 00       		.byte	0
 10050 00f6 15       		.uleb128 0x15
 10051 00f7 15       		.uleb128 0x15
 10052 00f8 01       		.byte	0x1
 10053 00f9 27       		.uleb128 0x27
 10054 00fa 19       		.uleb128 0x19
 10055 00fb 01       		.uleb128 0x1
 10056 00fc 13       		.uleb128 0x13
 10057 00fd 00       		.byte	0
 10058 00fe 00       		.byte	0
 10059 00ff 16       		.uleb128 0x16
 10060 0100 13       		.uleb128 0x13
 10061 0101 01       		.byte	0x1
 10062 0102 0B       		.uleb128 0xb
 10063 0103 0B       		.uleb128 0xb
 10064 0104 3A       		.uleb128 0x3a
 10065 0105 0B       		.uleb128 0xb
 10066 0106 3B       		.uleb128 0x3b
 10067 0107 05       		.uleb128 0x5
 10068 0108 01       		.uleb128 0x1
 10069 0109 13       		.uleb128 0x13
 10070 010a 00       		.byte	0
 10071 010b 00       		.byte	0
 10072 010c 17       		.uleb128 0x17
 10073 010d 0D       		.uleb128 0xd
 10074 010e 00       		.byte	0
 10075 010f 03       		.uleb128 0x3
 10076 0110 0E       		.uleb128 0xe
 10077 0111 3A       		.uleb128 0x3a
 10078 0112 0B       		.uleb128 0xb
 10079 0113 3B       		.uleb128 0x3b
 10080 0114 05       		.uleb128 0x5
 10081 0115 49       		.uleb128 0x49
 10082 0116 13       		.uleb128 0x13
 10083 0117 38       		.uleb128 0x38
 10084 0118 0B       		.uleb128 0xb
 10085 0119 00       		.byte	0
 10086 011a 00       		.byte	0
 10087 011b 18       		.uleb128 0x18
 10088 011c 2E       		.uleb128 0x2e
 10089 011d 01       		.byte	0x1
 10090 011e 03       		.uleb128 0x3
 10091 011f 0E       		.uleb128 0xe
 10092 0120 3A       		.uleb128 0x3a
 10093 0121 0B       		.uleb128 0xb
 10094 0122 3B       		.uleb128 0x3b
 10095 0123 0B       		.uleb128 0xb
 10096 0124 27       		.uleb128 0x27
 10097 0125 19       		.uleb128 0x19
 10098 0126 49       		.uleb128 0x49
ARM GAS  C:\Users\strap\AppData\Local\Temp\cc7wbcEe.s 			page 206


 10099 0127 13       		.uleb128 0x13
 10100 0128 20       		.uleb128 0x20
 10101 0129 0B       		.uleb128 0xb
 10102 012a 01       		.uleb128 0x1
 10103 012b 13       		.uleb128 0x13
 10104 012c 00       		.byte	0
 10105 012d 00       		.byte	0
 10106 012e 19       		.uleb128 0x19
 10107 012f 05       		.uleb128 0x5
 10108 0130 00       		.byte	0
 10109 0131 03       		.uleb128 0x3
 10110 0132 08       		.uleb128 0x8
 10111 0133 3A       		.uleb128 0x3a
 10112 0134 0B       		.uleb128 0xb
 10113 0135 3B       		.uleb128 0x3b
 10114 0136 0B       		.uleb128 0xb
 10115 0137 49       		.uleb128 0x49
 10116 0138 13       		.uleb128 0x13
 10117 0139 00       		.byte	0
 10118 013a 00       		.byte	0
 10119 013b 1A       		.uleb128 0x1a
 10120 013c 34       		.uleb128 0x34
 10121 013d 00       		.byte	0
 10122 013e 03       		.uleb128 0x3
 10123 013f 08       		.uleb128 0x8
 10124 0140 3A       		.uleb128 0x3a
 10125 0141 0B       		.uleb128 0xb
 10126 0142 3B       		.uleb128 0x3b
 10127 0143 0B       		.uleb128 0xb
 10128 0144 49       		.uleb128 0x49
 10129 0145 13       		.uleb128 0x13
 10130 0146 00       		.byte	0
 10131 0147 00       		.byte	0
 10132 0148 1B       		.uleb128 0x1b
 10133 0149 05       		.uleb128 0x5
 10134 014a 00       		.byte	0
 10135 014b 03       		.uleb128 0x3
 10136 014c 0E       		.uleb128 0xe
 10137 014d 3A       		.uleb128 0x3a
 10138 014e 0B       		.uleb128 0xb
 10139 014f 3B       		.uleb128 0x3b
 10140 0150 0B       		.uleb128 0xb
 10141 0151 49       		.uleb128 0x49
 10142 0152 13       		.uleb128 0x13
 10143 0153 00       		.byte	0
 10144 0154 00       		.byte	0
 10145 0155 1C       		.uleb128 0x1c
 10146 0156 2E       		.uleb128 0x2e
 10147 0157 01       		.byte	0x1
 10148 0158 03       		.uleb128 0x3
 10149 0159 0E       		.uleb128 0xe
 10150 015a 3A       		.uleb128 0x3a
 10151 015b 0B       		.uleb128 0xb
 10152 015c 3B       		.uleb128 0x3b
 10153 015d 0B       		.uleb128 0xb
 10154 015e 27       		.uleb128 0x27
 10155 015f 19       		.uleb128 0x19
ARM GAS  C:\Users\strap\AppData\Local\Temp\cc7wbcEe.s 			page 207


 10156 0160 20       		.uleb128 0x20
 10157 0161 0B       		.uleb128 0xb
 10158 0162 01       		.uleb128 0x1
 10159 0163 13       		.uleb128 0x13
 10160 0164 00       		.byte	0
 10161 0165 00       		.byte	0
 10162 0166 1D       		.uleb128 0x1d
 10163 0167 2E       		.uleb128 0x2e
 10164 0168 01       		.byte	0x1
 10165 0169 03       		.uleb128 0x3
 10166 016a 0E       		.uleb128 0xe
 10167 016b 3A       		.uleb128 0x3a
 10168 016c 0B       		.uleb128 0xb
 10169 016d 3B       		.uleb128 0x3b
 10170 016e 05       		.uleb128 0x5
 10171 016f 27       		.uleb128 0x27
 10172 0170 19       		.uleb128 0x19
 10173 0171 49       		.uleb128 0x49
 10174 0172 13       		.uleb128 0x13
 10175 0173 11       		.uleb128 0x11
 10176 0174 01       		.uleb128 0x1
 10177 0175 12       		.uleb128 0x12
 10178 0176 06       		.uleb128 0x6
 10179 0177 40       		.uleb128 0x40
 10180 0178 18       		.uleb128 0x18
 10181 0179 9742     		.uleb128 0x2117
 10182 017b 19       		.uleb128 0x19
 10183 017c 01       		.uleb128 0x1
 10184 017d 13       		.uleb128 0x13
 10185 017e 00       		.byte	0
 10186 017f 00       		.byte	0
 10187 0180 1E       		.uleb128 0x1e
 10188 0181 05       		.uleb128 0x5
 10189 0182 00       		.byte	0
 10190 0183 03       		.uleb128 0x3
 10191 0184 0E       		.uleb128 0xe
 10192 0185 3A       		.uleb128 0x3a
 10193 0186 0B       		.uleb128 0xb
 10194 0187 3B       		.uleb128 0x3b
 10195 0188 05       		.uleb128 0x5
 10196 0189 49       		.uleb128 0x49
 10197 018a 13       		.uleb128 0x13
 10198 018b 02       		.uleb128 0x2
 10199 018c 17       		.uleb128 0x17
 10200 018d 00       		.byte	0
 10201 018e 00       		.byte	0
 10202 018f 1F       		.uleb128 0x1f
 10203 0190 05       		.uleb128 0x5
 10204 0191 00       		.byte	0
 10205 0192 03       		.uleb128 0x3
 10206 0193 0E       		.uleb128 0xe
 10207 0194 3A       		.uleb128 0x3a
 10208 0195 0B       		.uleb128 0xb
 10209 0196 3B       		.uleb128 0x3b
 10210 0197 05       		.uleb128 0x5
 10211 0198 49       		.uleb128 0x49
 10212 0199 13       		.uleb128 0x13
ARM GAS  C:\Users\strap\AppData\Local\Temp\cc7wbcEe.s 			page 208


 10213 019a 02       		.uleb128 0x2
 10214 019b 18       		.uleb128 0x18
 10215 019c 00       		.byte	0
 10216 019d 00       		.byte	0
 10217 019e 20       		.uleb128 0x20
 10218 019f 34       		.uleb128 0x34
 10219 01a0 00       		.byte	0
 10220 01a1 03       		.uleb128 0x3
 10221 01a2 0E       		.uleb128 0xe
 10222 01a3 3A       		.uleb128 0x3a
 10223 01a4 0B       		.uleb128 0xb
 10224 01a5 3B       		.uleb128 0x3b
 10225 01a6 05       		.uleb128 0x5
 10226 01a7 49       		.uleb128 0x49
 10227 01a8 13       		.uleb128 0x13
 10228 01a9 02       		.uleb128 0x2
 10229 01aa 17       		.uleb128 0x17
 10230 01ab 00       		.byte	0
 10231 01ac 00       		.byte	0
 10232 01ad 21       		.uleb128 0x21
 10233 01ae 2E       		.uleb128 0x2e
 10234 01af 01       		.byte	0x1
 10235 01b0 03       		.uleb128 0x3
 10236 01b1 0E       		.uleb128 0xe
 10237 01b2 3A       		.uleb128 0x3a
 10238 01b3 0B       		.uleb128 0xb
 10239 01b4 3B       		.uleb128 0x3b
 10240 01b5 05       		.uleb128 0x5
 10241 01b6 27       		.uleb128 0x27
 10242 01b7 19       		.uleb128 0x19
 10243 01b8 11       		.uleb128 0x11
 10244 01b9 01       		.uleb128 0x1
 10245 01ba 12       		.uleb128 0x12
 10246 01bb 06       		.uleb128 0x6
 10247 01bc 40       		.uleb128 0x40
 10248 01bd 18       		.uleb128 0x18
 10249 01be 9742     		.uleb128 0x2117
 10250 01c0 19       		.uleb128 0x19
 10251 01c1 01       		.uleb128 0x1
 10252 01c2 13       		.uleb128 0x13
 10253 01c3 00       		.byte	0
 10254 01c4 00       		.byte	0
 10255 01c5 22       		.uleb128 0x22
 10256 01c6 34       		.uleb128 0x34
 10257 01c7 00       		.byte	0
 10258 01c8 03       		.uleb128 0x3
 10259 01c9 0E       		.uleb128 0xe
 10260 01ca 3A       		.uleb128 0x3a
 10261 01cb 0B       		.uleb128 0xb
 10262 01cc 3B       		.uleb128 0x3b
 10263 01cd 05       		.uleb128 0x5
 10264 01ce 49       		.uleb128 0x49
 10265 01cf 13       		.uleb128 0x13
 10266 01d0 00       		.byte	0
 10267 01d1 00       		.byte	0
 10268 01d2 23       		.uleb128 0x23
 10269 01d3 1D       		.uleb128 0x1d
ARM GAS  C:\Users\strap\AppData\Local\Temp\cc7wbcEe.s 			page 209


 10270 01d4 01       		.byte	0x1
 10271 01d5 31       		.uleb128 0x31
 10272 01d6 13       		.uleb128 0x13
 10273 01d7 11       		.uleb128 0x11
 10274 01d8 01       		.uleb128 0x1
 10275 01d9 12       		.uleb128 0x12
 10276 01da 06       		.uleb128 0x6
 10277 01db 58       		.uleb128 0x58
 10278 01dc 0B       		.uleb128 0xb
 10279 01dd 59       		.uleb128 0x59
 10280 01de 05       		.uleb128 0x5
 10281 01df 01       		.uleb128 0x1
 10282 01e0 13       		.uleb128 0x13
 10283 01e1 00       		.byte	0
 10284 01e2 00       		.byte	0
 10285 01e3 24       		.uleb128 0x24
 10286 01e4 05       		.uleb128 0x5
 10287 01e5 00       		.byte	0
 10288 01e6 31       		.uleb128 0x31
 10289 01e7 13       		.uleb128 0x13
 10290 01e8 02       		.uleb128 0x2
 10291 01e9 17       		.uleb128 0x17
 10292 01ea 00       		.byte	0
 10293 01eb 00       		.byte	0
 10294 01ec 25       		.uleb128 0x25
 10295 01ed 898201   		.uleb128 0x4109
 10296 01f0 01       		.byte	0x1
 10297 01f1 11       		.uleb128 0x11
 10298 01f2 01       		.uleb128 0x1
 10299 01f3 31       		.uleb128 0x31
 10300 01f4 13       		.uleb128 0x13
 10301 01f5 00       		.byte	0
 10302 01f6 00       		.byte	0
 10303 01f7 26       		.uleb128 0x26
 10304 01f8 8A8201   		.uleb128 0x410a
 10305 01fb 00       		.byte	0
 10306 01fc 02       		.uleb128 0x2
 10307 01fd 18       		.uleb128 0x18
 10308 01fe 9142     		.uleb128 0x2111
 10309 0200 18       		.uleb128 0x18
 10310 0201 00       		.byte	0
 10311 0202 00       		.byte	0
 10312 0203 27       		.uleb128 0x27
 10313 0204 898201   		.uleb128 0x4109
 10314 0207 01       		.byte	0x1
 10315 0208 11       		.uleb128 0x11
 10316 0209 01       		.uleb128 0x1
 10317 020a 31       		.uleb128 0x31
 10318 020b 13       		.uleb128 0x13
 10319 020c 01       		.uleb128 0x1
 10320 020d 13       		.uleb128 0x13
 10321 020e 00       		.byte	0
 10322 020f 00       		.byte	0
 10323 0210 28       		.uleb128 0x28
 10324 0211 34       		.uleb128 0x34
 10325 0212 00       		.byte	0
 10326 0213 03       		.uleb128 0x3
ARM GAS  C:\Users\strap\AppData\Local\Temp\cc7wbcEe.s 			page 210


 10327 0214 0E       		.uleb128 0xe
 10328 0215 3A       		.uleb128 0x3a
 10329 0216 0B       		.uleb128 0xb
 10330 0217 3B       		.uleb128 0x3b
 10331 0218 05       		.uleb128 0x5
 10332 0219 49       		.uleb128 0x49
 10333 021a 13       		.uleb128 0x13
 10334 021b 02       		.uleb128 0x2
 10335 021c 18       		.uleb128 0x18
 10336 021d 00       		.byte	0
 10337 021e 00       		.byte	0
 10338 021f 29       		.uleb128 0x29
 10339 0220 0B       		.uleb128 0xb
 10340 0221 01       		.byte	0x1
 10341 0222 11       		.uleb128 0x11
 10342 0223 01       		.uleb128 0x1
 10343 0224 12       		.uleb128 0x12
 10344 0225 06       		.uleb128 0x6
 10345 0226 01       		.uleb128 0x1
 10346 0227 13       		.uleb128 0x13
 10347 0228 00       		.byte	0
 10348 0229 00       		.byte	0
 10349 022a 2A       		.uleb128 0x2a
 10350 022b 898201   		.uleb128 0x4109
 10351 022e 00       		.byte	0
 10352 022f 11       		.uleb128 0x11
 10353 0230 01       		.uleb128 0x1
 10354 0231 31       		.uleb128 0x31
 10355 0232 13       		.uleb128 0x13
 10356 0233 00       		.byte	0
 10357 0234 00       		.byte	0
 10358 0235 2B       		.uleb128 0x2b
 10359 0236 34       		.uleb128 0x34
 10360 0237 00       		.byte	0
 10361 0238 03       		.uleb128 0x3
 10362 0239 08       		.uleb128 0x8
 10363 023a 3A       		.uleb128 0x3a
 10364 023b 0B       		.uleb128 0xb
 10365 023c 3B       		.uleb128 0x3b
 10366 023d 05       		.uleb128 0x5
 10367 023e 49       		.uleb128 0x49
 10368 023f 13       		.uleb128 0x13
 10369 0240 02       		.uleb128 0x2
 10370 0241 17       		.uleb128 0x17
 10371 0242 00       		.byte	0
 10372 0243 00       		.byte	0
 10373 0244 2C       		.uleb128 0x2c
 10374 0245 34       		.uleb128 0x34
 10375 0246 00       		.byte	0
 10376 0247 03       		.uleb128 0x3
 10377 0248 08       		.uleb128 0x8
 10378 0249 3A       		.uleb128 0x3a
 10379 024a 0B       		.uleb128 0xb
 10380 024b 3B       		.uleb128 0x3b
 10381 024c 05       		.uleb128 0x5
 10382 024d 49       		.uleb128 0x49
 10383 024e 13       		.uleb128 0x13
ARM GAS  C:\Users\strap\AppData\Local\Temp\cc7wbcEe.s 			page 211


 10384 024f 02       		.uleb128 0x2
 10385 0250 18       		.uleb128 0x18
 10386 0251 00       		.byte	0
 10387 0252 00       		.byte	0
 10388 0253 2D       		.uleb128 0x2d
 10389 0254 1D       		.uleb128 0x1d
 10390 0255 01       		.byte	0x1
 10391 0256 31       		.uleb128 0x31
 10392 0257 13       		.uleb128 0x13
 10393 0258 52       		.uleb128 0x52
 10394 0259 01       		.uleb128 0x1
 10395 025a 55       		.uleb128 0x55
 10396 025b 17       		.uleb128 0x17
 10397 025c 58       		.uleb128 0x58
 10398 025d 0B       		.uleb128 0xb
 10399 025e 59       		.uleb128 0x59
 10400 025f 05       		.uleb128 0x5
 10401 0260 01       		.uleb128 0x1
 10402 0261 13       		.uleb128 0x13
 10403 0262 00       		.byte	0
 10404 0263 00       		.byte	0
 10405 0264 2E       		.uleb128 0x2e
 10406 0265 1D       		.uleb128 0x1d
 10407 0266 01       		.byte	0x1
 10408 0267 31       		.uleb128 0x31
 10409 0268 13       		.uleb128 0x13
 10410 0269 52       		.uleb128 0x52
 10411 026a 01       		.uleb128 0x1
 10412 026b 55       		.uleb128 0x55
 10413 026c 17       		.uleb128 0x17
 10414 026d 58       		.uleb128 0x58
 10415 026e 0B       		.uleb128 0xb
 10416 026f 59       		.uleb128 0x59
 10417 0270 0B       		.uleb128 0xb
 10418 0271 00       		.byte	0
 10419 0272 00       		.byte	0
 10420 0273 2F       		.uleb128 0x2f
 10421 0274 0B       		.uleb128 0xb
 10422 0275 01       		.byte	0x1
 10423 0276 55       		.uleb128 0x55
 10424 0277 17       		.uleb128 0x17
 10425 0278 00       		.byte	0
 10426 0279 00       		.byte	0
 10427 027a 30       		.uleb128 0x30
 10428 027b 34       		.uleb128 0x34
 10429 027c 00       		.byte	0
 10430 027d 31       		.uleb128 0x31
 10431 027e 13       		.uleb128 0x13
 10432 027f 02       		.uleb128 0x2
 10433 0280 17       		.uleb128 0x17
 10434 0281 00       		.byte	0
 10435 0282 00       		.byte	0
 10436 0283 31       		.uleb128 0x31
 10437 0284 1D       		.uleb128 0x1d
 10438 0285 01       		.byte	0x1
 10439 0286 31       		.uleb128 0x31
 10440 0287 13       		.uleb128 0x13
ARM GAS  C:\Users\strap\AppData\Local\Temp\cc7wbcEe.s 			page 212


 10441 0288 11       		.uleb128 0x11
 10442 0289 01       		.uleb128 0x1
 10443 028a 12       		.uleb128 0x12
 10444 028b 06       		.uleb128 0x6
 10445 028c 58       		.uleb128 0x58
 10446 028d 0B       		.uleb128 0xb
 10447 028e 59       		.uleb128 0x59
 10448 028f 05       		.uleb128 0x5
 10449 0290 00       		.byte	0
 10450 0291 00       		.byte	0
 10451 0292 32       		.uleb128 0x32
 10452 0293 05       		.uleb128 0x5
 10453 0294 00       		.byte	0
 10454 0295 31       		.uleb128 0x31
 10455 0296 13       		.uleb128 0x13
 10456 0297 02       		.uleb128 0x2
 10457 0298 18       		.uleb128 0x18
 10458 0299 00       		.byte	0
 10459 029a 00       		.byte	0
 10460 029b 33       		.uleb128 0x33
 10461 029c 1D       		.uleb128 0x1d
 10462 029d 01       		.byte	0x1
 10463 029e 31       		.uleb128 0x31
 10464 029f 13       		.uleb128 0x13
 10465 02a0 11       		.uleb128 0x11
 10466 02a1 01       		.uleb128 0x1
 10467 02a2 12       		.uleb128 0x12
 10468 02a3 06       		.uleb128 0x6
 10469 02a4 58       		.uleb128 0x58
 10470 02a5 0B       		.uleb128 0xb
 10471 02a6 59       		.uleb128 0x59
 10472 02a7 0B       		.uleb128 0xb
 10473 02a8 00       		.byte	0
 10474 02a9 00       		.byte	0
 10475 02aa 34       		.uleb128 0x34
 10476 02ab 05       		.uleb128 0x5
 10477 02ac 00       		.byte	0
 10478 02ad 31       		.uleb128 0x31
 10479 02ae 13       		.uleb128 0x13
 10480 02af 00       		.byte	0
 10481 02b0 00       		.byte	0
 10482 02b1 35       		.uleb128 0x35
 10483 02b2 0B       		.uleb128 0xb
 10484 02b3 01       		.byte	0x1
 10485 02b4 11       		.uleb128 0x11
 10486 02b5 01       		.uleb128 0x1
 10487 02b6 12       		.uleb128 0x12
 10488 02b7 06       		.uleb128 0x6
 10489 02b8 00       		.byte	0
 10490 02b9 00       		.byte	0
 10491 02ba 36       		.uleb128 0x36
 10492 02bb 898201   		.uleb128 0x4109
 10493 02be 01       		.byte	0x1
 10494 02bf 11       		.uleb128 0x11
 10495 02c0 01       		.uleb128 0x1
 10496 02c1 01       		.uleb128 0x1
 10497 02c2 13       		.uleb128 0x13
ARM GAS  C:\Users\strap\AppData\Local\Temp\cc7wbcEe.s 			page 213


 10498 02c3 00       		.byte	0
 10499 02c4 00       		.byte	0
 10500 02c5 37       		.uleb128 0x37
 10501 02c6 2E       		.uleb128 0x2e
 10502 02c7 01       		.byte	0x1
 10503 02c8 3F       		.uleb128 0x3f
 10504 02c9 19       		.uleb128 0x19
 10505 02ca 03       		.uleb128 0x3
 10506 02cb 0E       		.uleb128 0xe
 10507 02cc 3A       		.uleb128 0x3a
 10508 02cd 0B       		.uleb128 0xb
 10509 02ce 3B       		.uleb128 0x3b
 10510 02cf 0B       		.uleb128 0xb
 10511 02d0 27       		.uleb128 0x27
 10512 02d1 19       		.uleb128 0x19
 10513 02d2 49       		.uleb128 0x49
 10514 02d3 13       		.uleb128 0x13
 10515 02d4 11       		.uleb128 0x11
 10516 02d5 01       		.uleb128 0x1
 10517 02d6 12       		.uleb128 0x12
 10518 02d7 06       		.uleb128 0x6
 10519 02d8 40       		.uleb128 0x40
 10520 02d9 18       		.uleb128 0x18
 10521 02da 9742     		.uleb128 0x2117
 10522 02dc 19       		.uleb128 0x19
 10523 02dd 01       		.uleb128 0x1
 10524 02de 13       		.uleb128 0x13
 10525 02df 00       		.byte	0
 10526 02e0 00       		.byte	0
 10527 02e1 38       		.uleb128 0x38
 10528 02e2 05       		.uleb128 0x5
 10529 02e3 00       		.byte	0
 10530 02e4 03       		.uleb128 0x3
 10531 02e5 08       		.uleb128 0x8
 10532 02e6 3A       		.uleb128 0x3a
 10533 02e7 0B       		.uleb128 0xb
 10534 02e8 3B       		.uleb128 0x3b
 10535 02e9 0B       		.uleb128 0xb
 10536 02ea 49       		.uleb128 0x49
 10537 02eb 13       		.uleb128 0x13
 10538 02ec 02       		.uleb128 0x2
 10539 02ed 17       		.uleb128 0x17
 10540 02ee 00       		.byte	0
 10541 02ef 00       		.byte	0
 10542 02f0 39       		.uleb128 0x39
 10543 02f1 05       		.uleb128 0x5
 10544 02f2 00       		.byte	0
 10545 02f3 03       		.uleb128 0x3
 10546 02f4 0E       		.uleb128 0xe
 10547 02f5 3A       		.uleb128 0x3a
 10548 02f6 0B       		.uleb128 0xb
 10549 02f7 3B       		.uleb128 0x3b
 10550 02f8 0B       		.uleb128 0xb
 10551 02f9 49       		.uleb128 0x49
 10552 02fa 13       		.uleb128 0x13
 10553 02fb 02       		.uleb128 0x2
 10554 02fc 17       		.uleb128 0x17
ARM GAS  C:\Users\strap\AppData\Local\Temp\cc7wbcEe.s 			page 214


 10555 02fd 00       		.byte	0
 10556 02fe 00       		.byte	0
 10557 02ff 3A       		.uleb128 0x3a
 10558 0300 34       		.uleb128 0x34
 10559 0301 00       		.byte	0
 10560 0302 03       		.uleb128 0x3
 10561 0303 0E       		.uleb128 0xe
 10562 0304 3A       		.uleb128 0x3a
 10563 0305 0B       		.uleb128 0xb
 10564 0306 3B       		.uleb128 0x3b
 10565 0307 0B       		.uleb128 0xb
 10566 0308 49       		.uleb128 0x49
 10567 0309 13       		.uleb128 0x13
 10568 030a 02       		.uleb128 0x2
 10569 030b 17       		.uleb128 0x17
 10570 030c 00       		.byte	0
 10571 030d 00       		.byte	0
 10572 030e 3B       		.uleb128 0x3b
 10573 030f 34       		.uleb128 0x34
 10574 0310 00       		.byte	0
 10575 0311 03       		.uleb128 0x3
 10576 0312 08       		.uleb128 0x8
 10577 0313 3A       		.uleb128 0x3a
 10578 0314 0B       		.uleb128 0xb
 10579 0315 3B       		.uleb128 0x3b
 10580 0316 0B       		.uleb128 0xb
 10581 0317 49       		.uleb128 0x49
 10582 0318 13       		.uleb128 0x13
 10583 0319 02       		.uleb128 0x2
 10584 031a 17       		.uleb128 0x17
 10585 031b 00       		.byte	0
 10586 031c 00       		.byte	0
 10587 031d 3C       		.uleb128 0x3c
 10588 031e 2E       		.uleb128 0x2e
 10589 031f 01       		.byte	0x1
 10590 0320 3F       		.uleb128 0x3f
 10591 0321 19       		.uleb128 0x19
 10592 0322 03       		.uleb128 0x3
 10593 0323 0E       		.uleb128 0xe
 10594 0324 3A       		.uleb128 0x3a
 10595 0325 0B       		.uleb128 0xb
 10596 0326 3B       		.uleb128 0x3b
 10597 0327 0B       		.uleb128 0xb
 10598 0328 27       		.uleb128 0x27
 10599 0329 19       		.uleb128 0x19
 10600 032a 11       		.uleb128 0x11
 10601 032b 01       		.uleb128 0x1
 10602 032c 12       		.uleb128 0x12
 10603 032d 06       		.uleb128 0x6
 10604 032e 40       		.uleb128 0x40
 10605 032f 18       		.uleb128 0x18
 10606 0330 9742     		.uleb128 0x2117
 10607 0332 19       		.uleb128 0x19
 10608 0333 01       		.uleb128 0x1
 10609 0334 13       		.uleb128 0x13
 10610 0335 00       		.byte	0
 10611 0336 00       		.byte	0
ARM GAS  C:\Users\strap\AppData\Local\Temp\cc7wbcEe.s 			page 215


 10612 0337 3D       		.uleb128 0x3d
 10613 0338 898201   		.uleb128 0x4109
 10614 033b 01       		.byte	0x1
 10615 033c 11       		.uleb128 0x11
 10616 033d 01       		.uleb128 0x1
 10617 033e 00       		.byte	0
 10618 033f 00       		.byte	0
 10619 0340 3E       		.uleb128 0x3e
 10620 0341 34       		.uleb128 0x34
 10621 0342 00       		.byte	0
 10622 0343 03       		.uleb128 0x3
 10623 0344 08       		.uleb128 0x8
 10624 0345 3A       		.uleb128 0x3a
 10625 0346 0B       		.uleb128 0xb
 10626 0347 3B       		.uleb128 0x3b
 10627 0348 05       		.uleb128 0x5
 10628 0349 49       		.uleb128 0x49
 10629 034a 13       		.uleb128 0x13
 10630 034b 00       		.byte	0
 10631 034c 00       		.byte	0
 10632 034d 3F       		.uleb128 0x3f
 10633 034e 2E       		.uleb128 0x2e
 10634 034f 01       		.byte	0x1
 10635 0350 03       		.uleb128 0x3
 10636 0351 0E       		.uleb128 0xe
 10637 0352 3A       		.uleb128 0x3a
 10638 0353 0B       		.uleb128 0xb
 10639 0354 3B       		.uleb128 0x3b
 10640 0355 0B       		.uleb128 0xb
 10641 0356 27       		.uleb128 0x27
 10642 0357 19       		.uleb128 0x19
 10643 0358 49       		.uleb128 0x49
 10644 0359 13       		.uleb128 0x13
 10645 035a 11       		.uleb128 0x11
 10646 035b 01       		.uleb128 0x1
 10647 035c 12       		.uleb128 0x12
 10648 035d 06       		.uleb128 0x6
 10649 035e 40       		.uleb128 0x40
 10650 035f 18       		.uleb128 0x18
 10651 0360 9642     		.uleb128 0x2116
 10652 0362 19       		.uleb128 0x19
 10653 0363 01       		.uleb128 0x1
 10654 0364 13       		.uleb128 0x13
 10655 0365 00       		.byte	0
 10656 0366 00       		.byte	0
 10657 0367 40       		.uleb128 0x40
 10658 0368 0B       		.uleb128 0xb
 10659 0369 01       		.byte	0x1
 10660 036a 55       		.uleb128 0x55
 10661 036b 17       		.uleb128 0x17
 10662 036c 01       		.uleb128 0x1
 10663 036d 13       		.uleb128 0x13
 10664 036e 00       		.byte	0
 10665 036f 00       		.byte	0
 10666 0370 41       		.uleb128 0x41
 10667 0371 34       		.uleb128 0x34
 10668 0372 00       		.byte	0
ARM GAS  C:\Users\strap\AppData\Local\Temp\cc7wbcEe.s 			page 216


 10669 0373 03       		.uleb128 0x3
 10670 0374 0E       		.uleb128 0xe
 10671 0375 3A       		.uleb128 0x3a
 10672 0376 0B       		.uleb128 0xb
 10673 0377 3B       		.uleb128 0x3b
 10674 0378 0B       		.uleb128 0xb
 10675 0379 49       		.uleb128 0x49
 10676 037a 13       		.uleb128 0x13
 10677 037b 02       		.uleb128 0x2
 10678 037c 18       		.uleb128 0x18
 10679 037d 00       		.byte	0
 10680 037e 00       		.byte	0
 10681 037f 42       		.uleb128 0x42
 10682 0380 2E       		.uleb128 0x2e
 10683 0381 00       		.byte	0
 10684 0382 3F       		.uleb128 0x3f
 10685 0383 19       		.uleb128 0x19
 10686 0384 3C       		.uleb128 0x3c
 10687 0385 19       		.uleb128 0x19
 10688 0386 6E       		.uleb128 0x6e
 10689 0387 0E       		.uleb128 0xe
 10690 0388 03       		.uleb128 0x3
 10691 0389 0E       		.uleb128 0xe
 10692 038a 3A       		.uleb128 0x3a
 10693 038b 0B       		.uleb128 0xb
 10694 038c 3B       		.uleb128 0x3b
 10695 038d 05       		.uleb128 0x5
 10696 038e 00       		.byte	0
 10697 038f 00       		.byte	0
 10698 0390 43       		.uleb128 0x43
 10699 0391 2E       		.uleb128 0x2e
 10700 0392 00       		.byte	0
 10701 0393 3F       		.uleb128 0x3f
 10702 0394 19       		.uleb128 0x19
 10703 0395 3C       		.uleb128 0x3c
 10704 0396 19       		.uleb128 0x19
 10705 0397 6E       		.uleb128 0x6e
 10706 0398 0E       		.uleb128 0xe
 10707 0399 03       		.uleb128 0x3
 10708 039a 0E       		.uleb128 0xe
 10709 039b 3A       		.uleb128 0x3a
 10710 039c 0B       		.uleb128 0xb
 10711 039d 3B       		.uleb128 0x3b
 10712 039e 0B       		.uleb128 0xb
 10713 039f 00       		.byte	0
 10714 03a0 00       		.byte	0
 10715 03a1 00       		.byte	0
 10716              		.section	.debug_loc,"",%progbits
 10717              	.Ldebug_loc0:
 10718              	.LLST0:
 10719 0000 00000000 		.4byte	.LVL0
 10720 0004 04000000 		.4byte	.LVL1
 10721 0008 0100     		.2byte	0x1
 10722 000a 50       		.byte	0x50
 10723 000b 04000000 		.4byte	.LVL1
 10724 000f 06000000 		.4byte	.LVL2
 10725 0013 0300     		.2byte	0x3
ARM GAS  C:\Users\strap\AppData\Local\Temp\cc7wbcEe.s 			page 217


 10726 0015 70       		.byte	0x70
 10727 0016 58       		.sleb128 -40
 10728 0017 9F       		.byte	0x9f
 10729 0018 06000000 		.4byte	.LVL2
 10730 001c 08000000 		.4byte	.LVL3
 10731 0020 0100     		.2byte	0x1
 10732 0022 50       		.byte	0x50
 10733 0023 08000000 		.4byte	.LVL3
 10734 0027 0A000000 		.4byte	.LFE339
 10735 002b 0400     		.2byte	0x4
 10736 002d F3       		.byte	0xf3
 10737 002e 01       		.uleb128 0x1
 10738 002f 50       		.byte	0x50
 10739 0030 9F       		.byte	0x9f
 10740 0031 00000000 		.4byte	0
 10741 0035 00000000 		.4byte	0
 10742              	.LLST1:
 10743 0039 04000000 		.4byte	.LVL1
 10744 003d 06000000 		.4byte	.LVL2
 10745 0041 0100     		.2byte	0x1
 10746 0043 50       		.byte	0x50
 10747 0044 08000000 		.4byte	.LVL3
 10748 0048 0A000000 		.4byte	.LFE339
 10749 004c 0100     		.2byte	0x1
 10750 004e 50       		.byte	0x50
 10751 004f 00000000 		.4byte	0
 10752 0053 00000000 		.4byte	0
 10753              	.LLST2:
 10754 0057 00000000 		.4byte	.LVL4
 10755 005b 0F000000 		.4byte	.LVL6-1
 10756 005f 0100     		.2byte	0x1
 10757 0061 50       		.byte	0x50
 10758 0062 0F000000 		.4byte	.LVL6-1
 10759 0066 D4000000 		.4byte	.LFE343
 10760 006a 0100     		.2byte	0x1
 10761 006c 57       		.byte	0x57
 10762 006d 00000000 		.4byte	0
 10763 0071 00000000 		.4byte	0
 10764              	.LLST3:
 10765 0075 1C000000 		.4byte	.LVL9
 10766 0079 24000000 		.4byte	.LVL11
 10767 007d 0100     		.2byte	0x1
 10768 007f 50       		.byte	0x50
 10769 0080 24000000 		.4byte	.LVL11
 10770 0084 4E000000 		.4byte	.LVL19
 10771 0088 0100     		.2byte	0x1
 10772 008a 54       		.byte	0x54
 10773 008b 4E000000 		.4byte	.LVL19
 10774 008f 62000000 		.4byte	.LVL22
 10775 0093 0100     		.2byte	0x1
 10776 0095 50       		.byte	0x50
 10777 0096 62000000 		.4byte	.LVL22
 10778 009a 78000000 		.4byte	.LVL27
 10779 009e 0100     		.2byte	0x1
 10780 00a0 54       		.byte	0x54
 10781 00a1 78000000 		.4byte	.LVL27
 10782 00a5 7C000000 		.4byte	.LVL28
ARM GAS  C:\Users\strap\AppData\Local\Temp\cc7wbcEe.s 			page 218


 10783 00a9 0100     		.2byte	0x1
 10784 00ab 50       		.byte	0x50
 10785 00ac 7C000000 		.4byte	.LVL28
 10786 00b0 C2000000 		.4byte	.LVL37
 10787 00b4 0100     		.2byte	0x1
 10788 00b6 54       		.byte	0x54
 10789 00b7 C2000000 		.4byte	.LVL37
 10790 00bb CA000000 		.4byte	.LVL38
 10791 00bf 0100     		.2byte	0x1
 10792 00c1 50       		.byte	0x50
 10793 00c2 CA000000 		.4byte	.LVL38
 10794 00c6 D4000000 		.4byte	.LFE343
 10795 00ca 0100     		.2byte	0x1
 10796 00cc 54       		.byte	0x54
 10797 00cd 00000000 		.4byte	0
 10798 00d1 00000000 		.4byte	0
 10799              	.LLST4:
 10800 00d5 08000000 		.4byte	.LVL5
 10801 00d9 22000000 		.4byte	.LVL10
 10802 00dd 0200     		.2byte	0x2
 10803 00df 30       		.byte	0x30
 10804 00e0 9F       		.byte	0x9f
 10805 00e1 22000000 		.4byte	.LVL10
 10806 00e5 D4000000 		.4byte	.LFE343
 10807 00e9 0100     		.2byte	0x1
 10808 00eb 59       		.byte	0x59
 10809 00ec 00000000 		.4byte	0
 10810 00f0 00000000 		.4byte	0
 10811              	.LLST5:
 10812 00f4 08000000 		.4byte	.LVL5
 10813 00f8 22000000 		.4byte	.LVL10
 10814 00fc 0200     		.2byte	0x2
 10815 00fe 30       		.byte	0x30
 10816 00ff 9F       		.byte	0x9f
 10817 0100 22000000 		.4byte	.LVL10
 10818 0104 3E000000 		.4byte	.LVL15
 10819 0108 0100     		.2byte	0x1
 10820 010a 56       		.byte	0x56
 10821 010b 40000000 		.4byte	.LVL16
 10822 010f 5C000000 		.4byte	.LVL20
 10823 0113 0100     		.2byte	0x1
 10824 0115 56       		.byte	0x56
 10825 0116 5E000000 		.4byte	.LVL21
 10826 011a 6A000000 		.4byte	.LVL24
 10827 011e 0100     		.2byte	0x1
 10828 0120 56       		.byte	0x56
 10829 0121 00000000 		.4byte	0
 10830 0125 00000000 		.4byte	0
 10831              	.LLST6:
 10832 0129 70000000 		.4byte	.LVL25
 10833 012d B6000000 		.4byte	.LVL34
 10834 0131 0100     		.2byte	0x1
 10835 0133 56       		.byte	0x56
 10836 0134 B8000000 		.4byte	.LVL35
 10837 0138 CE000000 		.4byte	.LVL39
 10838 013c 0100     		.2byte	0x1
 10839 013e 56       		.byte	0x56
ARM GAS  C:\Users\strap\AppData\Local\Temp\cc7wbcEe.s 			page 219


 10840 013f 00000000 		.4byte	0
 10841 0143 00000000 		.4byte	0
 10842              	.LLST7:
 10843 0147 08000000 		.4byte	.LVL5
 10844 014b 12000000 		.4byte	.LVL7
 10845 014f 0200     		.2byte	0x2
 10846 0151 30       		.byte	0x30
 10847 0152 9F       		.byte	0x9f
 10848 0153 00000000 		.4byte	0
 10849 0157 00000000 		.4byte	0
 10850              	.LLST8:
 10851 015b 08000000 		.4byte	.LVL5
 10852 015f 0F000000 		.4byte	.LVL6-1
 10853 0163 0100     		.2byte	0x1
 10854 0165 50       		.byte	0x50
 10855 0166 0F000000 		.4byte	.LVL6-1
 10856 016a 12000000 		.4byte	.LVL7
 10857 016e 0100     		.2byte	0x1
 10858 0170 57       		.byte	0x57
 10859 0171 00000000 		.4byte	0
 10860 0175 00000000 		.4byte	0
 10861              	.LLST9:
 10862 0179 00000000 		.4byte	.LVL40
 10863 017d 0B000000 		.4byte	.LVL41-1
 10864 0181 0100     		.2byte	0x1
 10865 0183 50       		.byte	0x50
 10866 0184 0B000000 		.4byte	.LVL41-1
 10867 0188 BA000000 		.4byte	.LFE345
 10868 018c 0100     		.2byte	0x1
 10869 018e 58       		.byte	0x58
 10870 018f 00000000 		.4byte	0
 10871 0193 00000000 		.4byte	0
 10872              	.LLST10:
 10873 0197 0E000000 		.4byte	.LVL42
 10874 019b B6000000 		.4byte	.LVL72
 10875 019f 0200     		.2byte	0x2
 10876 01a1 7D       		.byte	0x7d
 10877 01a2 00       		.sleb128 0
 10878 01a3 B6000000 		.4byte	.LVL72
 10879 01a7 BA000000 		.4byte	.LFE345
 10880 01ab 0200     		.2byte	0x2
 10881 01ad 91       		.byte	0x91
 10882 01ae 50       		.sleb128 -48
 10883 01af 00000000 		.4byte	0
 10884 01b3 00000000 		.4byte	0
 10885              	.LLST11:
 10886 01b7 46000000 		.4byte	.LVL50
 10887 01bb 86000000 		.4byte	.LVL62
 10888 01bf 0100     		.2byte	0x1
 10889 01c1 56       		.byte	0x56
 10890 01c2 86000000 		.4byte	.LVL62
 10891 01c6 8E000000 		.4byte	.LVL65
 10892 01ca 0100     		.2byte	0x1
 10893 01cc 51       		.byte	0x51
 10894 01cd 8E000000 		.4byte	.LVL65
 10895 01d1 BA000000 		.4byte	.LFE345
 10896 01d5 0100     		.2byte	0x1
ARM GAS  C:\Users\strap\AppData\Local\Temp\cc7wbcEe.s 			page 220


 10897 01d7 56       		.byte	0x56
 10898 01d8 00000000 		.4byte	0
 10899 01dc 00000000 		.4byte	0
 10900              	.LLST12:
 10901 01e0 60000000 		.4byte	.LVL55
 10902 01e4 88000000 		.4byte	.LVL63
 10903 01e8 0100     		.2byte	0x1
 10904 01ea 5A       		.byte	0x5a
 10905 01eb 8C000000 		.4byte	.LVL64
 10906 01ef BA000000 		.4byte	.LFE345
 10907 01f3 0100     		.2byte	0x1
 10908 01f5 5A       		.byte	0x5a
 10909 01f6 00000000 		.4byte	0
 10910 01fa 00000000 		.4byte	0
 10911              	.LLST13:
 10912 01fe 5E000000 		.4byte	.LVL54
 10913 0202 62000000 		.4byte	.LVL56
 10914 0206 0100     		.2byte	0x1
 10915 0208 50       		.byte	0x50
 10916 0209 62000000 		.4byte	.LVL56
 10917 020d A8000000 		.4byte	.LVL69
 10918 0211 0100     		.2byte	0x1
 10919 0213 54       		.byte	0x54
 10920 0214 A8000000 		.4byte	.LVL69
 10921 0218 B0000000 		.4byte	.LVL70
 10922 021c 0100     		.2byte	0x1
 10923 021e 50       		.byte	0x50
 10924 021f B0000000 		.4byte	.LVL70
 10925 0223 BA000000 		.4byte	.LFE345
 10926 0227 0100     		.2byte	0x1
 10927 0229 54       		.byte	0x54
 10928 022a 00000000 		.4byte	0
 10929 022e 00000000 		.4byte	0
 10930              	.LLST14:
 10931 0232 0E000000 		.4byte	.LVL42
 10932 0236 1A000000 		.4byte	.LVL44
 10933 023a 0200     		.2byte	0x2
 10934 023c 30       		.byte	0x30
 10935 023d 9F       		.byte	0x9f
 10936 023e 00000000 		.4byte	0
 10937 0242 00000000 		.4byte	0
 10938              	.LLST15:
 10939 0246 0E000000 		.4byte	.LVL42
 10940 024a 1A000000 		.4byte	.LVL44
 10941 024e 0100     		.2byte	0x1
 10942 0250 58       		.byte	0x58
 10943 0251 00000000 		.4byte	0
 10944 0255 00000000 		.4byte	0
 10945              	.LLST16:
 10946 0259 38000000 		.4byte	.LVL48
 10947 025d 46000000 		.4byte	.LVL50
 10948 0261 0200     		.2byte	0x2
 10949 0263 30       		.byte	0x30
 10950 0264 9F       		.byte	0x9f
 10951 0265 00000000 		.4byte	0
 10952 0269 00000000 		.4byte	0
 10953              	.LLST17:
ARM GAS  C:\Users\strap\AppData\Local\Temp\cc7wbcEe.s 			page 221


 10954 026d 38000000 		.4byte	.LVL48
 10955 0271 46000000 		.4byte	.LVL50
 10956 0275 0100     		.2byte	0x1
 10957 0277 58       		.byte	0x58
 10958 0278 00000000 		.4byte	0
 10959 027c 00000000 		.4byte	0
 10960              	.LLST18:
 10961 0280 46000000 		.4byte	.LVL50
 10962 0284 52000000 		.4byte	.LVL52
 10963 0288 0200     		.2byte	0x2
 10964 028a 30       		.byte	0x30
 10965 028b 9F       		.byte	0x9f
 10966 028c 00000000 		.4byte	0
 10967 0290 00000000 		.4byte	0
 10968              	.LLST19:
 10969 0294 46000000 		.4byte	.LVL50
 10970 0298 52000000 		.4byte	.LVL52
 10971 029c 0100     		.2byte	0x1
 10972 029e 58       		.byte	0x58
 10973 029f 00000000 		.4byte	0
 10974 02a3 00000000 		.4byte	0
 10975              	.LLST20:
 10976 02a7 7A000000 		.4byte	.LVL60
 10977 02ab 7E000000 		.4byte	.LVL61
 10978 02af 0100     		.2byte	0x1
 10979 02b1 50       		.byte	0x50
 10980 02b2 00000000 		.4byte	0
 10981 02b6 00000000 		.4byte	0
 10982              	.LLST21:
 10983 02ba 00000000 		.4byte	.LVL73
 10984 02be 0D000000 		.4byte	.LVL74-1
 10985 02c2 0100     		.2byte	0x1
 10986 02c4 50       		.byte	0x50
 10987 02c5 0D000000 		.4byte	.LVL74-1
 10988 02c9 9E030000 		.4byte	.LVL145
 10989 02cd 0100     		.2byte	0x1
 10990 02cf 54       		.byte	0x54
 10991 02d0 9E030000 		.4byte	.LVL145
 10992 02d4 B8030000 		.4byte	.LVL150
 10993 02d8 0300     		.2byte	0x3
 10994 02da 76       		.byte	0x76
 10995 02db 7C       		.sleb128 -4
 10996 02dc 9F       		.byte	0x9f
 10997 02dd B8030000 		.4byte	.LVL150
 10998 02e1 BE030000 		.4byte	.LFE346
 10999 02e5 0400     		.2byte	0x4
 11000 02e7 F3       		.byte	0xf3
 11001 02e8 01       		.uleb128 0x1
 11002 02e9 50       		.byte	0x50
 11003 02ea 9F       		.byte	0x9f
 11004 02eb 00000000 		.4byte	0
 11005 02ef 00000000 		.4byte	0
 11006              	.LLST22:
 11007 02f3 1C000000 		.4byte	.LVL76
 11008 02f7 30000000 		.4byte	.LVL77
 11009 02fb 0100     		.2byte	0x1
 11010 02fd 50       		.byte	0x50
ARM GAS  C:\Users\strap\AppData\Local\Temp\cc7wbcEe.s 			page 222


 11011 02fe 30000000 		.4byte	.LVL77
 11012 0302 B8030000 		.4byte	.LVL150
 11013 0306 0100     		.2byte	0x1
 11014 0308 58       		.byte	0x58
 11015 0309 00000000 		.4byte	0
 11016 030d 00000000 		.4byte	0
 11017              	.LLST23:
 11018 0311 EA000000 		.4byte	.LVL101
 11019 0315 EE000000 		.4byte	.LVL102
 11020 0319 0100     		.2byte	0x1
 11021 031b 50       		.byte	0x50
 11022 031c EE000000 		.4byte	.LVL102
 11023 0320 A8010000 		.4byte	.LVL113
 11024 0324 0100     		.2byte	0x1
 11025 0326 55       		.byte	0x55
 11026 0327 A8010000 		.4byte	.LVL113
 11027 032b B2010000 		.4byte	.LVL115
 11028 032f 0100     		.2byte	0x1
 11029 0331 50       		.byte	0x50
 11030 0332 B2010000 		.4byte	.LVL115
 11031 0336 FC010000 		.4byte	.LVL123
 11032 033a 0100     		.2byte	0x1
 11033 033c 55       		.byte	0x55
 11034 033d 9E030000 		.4byte	.LVL145
 11035 0341 A8030000 		.4byte	.LVL146
 11036 0345 0100     		.2byte	0x1
 11037 0347 50       		.byte	0x50
 11038 0348 A8030000 		.4byte	.LVL146
 11039 034c B4030000 		.4byte	.LVL149
 11040 0350 0100     		.2byte	0x1
 11041 0352 54       		.byte	0x54
 11042 0353 B4030000 		.4byte	.LVL149
 11043 0357 B8030000 		.4byte	.LVL150
 11044 035b 0100     		.2byte	0x1
 11045 035d 50       		.byte	0x50
 11046 035e 00000000 		.4byte	0
 11047 0362 00000000 		.4byte	0
 11048              	.LLST24:
 11049 0366 36000000 		.4byte	.LVL79
 11050 036a 40000000 		.4byte	.LVL82
 11051 036e 0100     		.2byte	0x1
 11052 0370 50       		.byte	0x50
 11053 0371 40000000 		.4byte	.LVL82
 11054 0375 B8030000 		.4byte	.LVL150
 11055 0379 0100     		.2byte	0x1
 11056 037b 57       		.byte	0x57
 11057 037c 00000000 		.4byte	0
 11058 0380 00000000 		.4byte	0
 11059              	.LLST25:
 11060 0384 C2000000 		.4byte	.LVL99
 11061 0388 B8030000 		.4byte	.LVL150
 11062 038c 0100     		.2byte	0x1
 11063 038e 59       		.byte	0x59
 11064 038f 00000000 		.4byte	0
 11065 0393 00000000 		.4byte	0
 11066              	.LLST26:
 11067 0397 3A000000 		.4byte	.LVL80
ARM GAS  C:\Users\strap\AppData\Local\Temp\cc7wbcEe.s 			page 223


 11068 039b 40000000 		.4byte	.LVL82
 11069 039f 0100     		.2byte	0x1
 11070 03a1 51       		.byte	0x51
 11071 03a2 40000000 		.4byte	.LVL82
 11072 03a6 4E000000 		.4byte	.LVL86
 11073 03aa 0300     		.2byte	0x3
 11074 03ac 77       		.byte	0x77
 11075 03ad 10       		.sleb128 16
 11076 03ae 9F       		.byte	0x9f
 11077 03af 00000000 		.4byte	0
 11078 03b3 00000000 		.4byte	0
 11079              	.LLST27:
 11080 03b7 3A000000 		.4byte	.LVL80
 11081 03bb 3C000000 		.4byte	.LVL81
 11082 03bf 0300     		.2byte	0x3
 11083 03c1 91       		.byte	0x91
 11084 03c2 48       		.sleb128 -56
 11085 03c3 9F       		.byte	0x9f
 11086 03c4 3C000000 		.4byte	.LVL81
 11087 03c8 40000000 		.4byte	.LVL82
 11088 03cc 0100     		.2byte	0x1
 11089 03ce 52       		.byte	0x52
 11090 03cf 40000000 		.4byte	.LVL82
 11091 03d3 4E000000 		.4byte	.LVL86
 11092 03d7 0300     		.2byte	0x3
 11093 03d9 91       		.byte	0x91
 11094 03da 48       		.sleb128 -56
 11095 03db 9F       		.byte	0x9f
 11096 03dc 00000000 		.4byte	0
 11097 03e0 00000000 		.4byte	0
 11098              	.LLST28:
 11099 03e4 3A000000 		.4byte	.LVL80
 11100 03e8 40000000 		.4byte	.LVL82
 11101 03ec 0200     		.2byte	0x2
 11102 03ee 38       		.byte	0x38
 11103 03ef 9F       		.byte	0x9f
 11104 03f0 40000000 		.4byte	.LVL82
 11105 03f4 4E000000 		.4byte	.LVL86
 11106 03f8 0100     		.2byte	0x1
 11107 03fa 53       		.byte	0x53
 11108 03fb 00000000 		.4byte	0
 11109 03ff 00000000 		.4byte	0
 11110              	.LLST31:
 11111 0403 3A000000 		.4byte	.LVL80
 11112 0407 3C000000 		.4byte	.LVL81
 11113 040b 0300     		.2byte	0x3
 11114 040d 91       		.byte	0x91
 11115 040e 48       		.sleb128 -56
 11116 040f 9F       		.byte	0x9f
 11117 0410 3C000000 		.4byte	.LVL81
 11118 0414 50000000 		.4byte	.LVL87
 11119 0418 0100     		.2byte	0x1
 11120 041a 52       		.byte	0x52
 11121 041b 00000000 		.4byte	0
 11122 041f 00000000 		.4byte	0
 11123              	.LLST32:
 11124 0423 3A000000 		.4byte	.LVL80
ARM GAS  C:\Users\strap\AppData\Local\Temp\cc7wbcEe.s 			page 224


 11125 0427 44000000 		.4byte	.LVL83
 11126 042b 0100     		.2byte	0x1
 11127 042d 51       		.byte	0x51
 11128 042e 44000000 		.4byte	.LVL83
 11129 0432 48000000 		.4byte	.LVL84
 11130 0436 0300     		.2byte	0x3
 11131 0438 71       		.byte	0x71
 11132 0439 7F       		.sleb128 -1
 11133 043a 9F       		.byte	0x9f
 11134 043b 48000000 		.4byte	.LVL84
 11135 043f 52000000 		.4byte	.LVL88
 11136 0443 0100     		.2byte	0x1
 11137 0445 51       		.byte	0x51
 11138 0446 00000000 		.4byte	0
 11139 044a 00000000 		.4byte	0
 11140              	.LLST33:
 11141 044e 4E000000 		.4byte	.LVL86
 11142 0452 58000000 		.4byte	.LVL89
 11143 0456 0200     		.2byte	0x2
 11144 0458 30       		.byte	0x30
 11145 0459 9F       		.byte	0x9f
 11146 045a 00000000 		.4byte	0
 11147 045e 00000000 		.4byte	0
 11148              	.LLST34:
 11149 0462 4E000000 		.4byte	.LVL86
 11150 0466 58000000 		.4byte	.LVL89
 11151 046a 0100     		.2byte	0x1
 11152 046c 57       		.byte	0x57
 11153 046d 00000000 		.4byte	0
 11154 0471 00000000 		.4byte	0
 11155              	.LLST35:
 11156 0475 62000000 		.4byte	.LVL90
 11157 0479 6C000000 		.4byte	.LVL91
 11158 047d 0200     		.2byte	0x2
 11159 047f 30       		.byte	0x30
 11160 0480 9F       		.byte	0x9f
 11161 0481 00000000 		.4byte	0
 11162 0485 00000000 		.4byte	0
 11163              	.LLST36:
 11164 0489 62000000 		.4byte	.LVL90
 11165 048d 6C000000 		.4byte	.LVL91
 11166 0491 0100     		.2byte	0x1
 11167 0493 57       		.byte	0x57
 11168 0494 00000000 		.4byte	0
 11169 0498 00000000 		.4byte	0
 11170              	.LLST37:
 11171 049c 76000000 		.4byte	.LVL92
 11172 04a0 80000000 		.4byte	.LVL93
 11173 04a4 0200     		.2byte	0x2
 11174 04a6 30       		.byte	0x30
 11175 04a7 9F       		.byte	0x9f
 11176 04a8 00000000 		.4byte	0
 11177 04ac 00000000 		.4byte	0
 11178              	.LLST38:
 11179 04b0 76000000 		.4byte	.LVL92
 11180 04b4 80000000 		.4byte	.LVL93
 11181 04b8 0100     		.2byte	0x1
ARM GAS  C:\Users\strap\AppData\Local\Temp\cc7wbcEe.s 			page 225


 11182 04ba 57       		.byte	0x57
 11183 04bb 00000000 		.4byte	0
 11184 04bf 00000000 		.4byte	0
 11185              	.LLST39:
 11186 04c3 8A000000 		.4byte	.LVL94
 11187 04c7 94000000 		.4byte	.LVL95
 11188 04cb 0200     		.2byte	0x2
 11189 04cd 30       		.byte	0x30
 11190 04ce 9F       		.byte	0x9f
 11191 04cf 00000000 		.4byte	0
 11192 04d3 00000000 		.4byte	0
 11193              	.LLST40:
 11194 04d7 8A000000 		.4byte	.LVL94
 11195 04db 94000000 		.4byte	.LVL95
 11196 04df 0100     		.2byte	0x1
 11197 04e1 57       		.byte	0x57
 11198 04e2 00000000 		.4byte	0
 11199 04e6 00000000 		.4byte	0
 11200              	.LLST41:
 11201 04ea 02010000 		.4byte	.LVL104
 11202 04ee 0C010000 		.4byte	.LVL105
 11203 04f2 0200     		.2byte	0x2
 11204 04f4 30       		.byte	0x30
 11205 04f5 9F       		.byte	0x9f
 11206 04f6 00000000 		.4byte	0
 11207 04fa 00000000 		.4byte	0
 11208              	.LLST42:
 11209 04fe 02010000 		.4byte	.LVL104
 11210 0502 0C010000 		.4byte	.LVL105
 11211 0506 0100     		.2byte	0x1
 11212 0508 55       		.byte	0x55
 11213 0509 00000000 		.4byte	0
 11214 050d 00000000 		.4byte	0
 11215              	.LLST43:
 11216 0511 2C010000 		.4byte	.LVL106
 11217 0515 36010000 		.4byte	.LVL107
 11218 0519 0200     		.2byte	0x2
 11219 051b 30       		.byte	0x30
 11220 051c 9F       		.byte	0x9f
 11221 051d 00000000 		.4byte	0
 11222 0521 00000000 		.4byte	0
 11223              	.LLST44:
 11224 0525 2C010000 		.4byte	.LVL106
 11225 0529 36010000 		.4byte	.LVL107
 11226 052d 0100     		.2byte	0x1
 11227 052f 55       		.byte	0x55
 11228 0530 00000000 		.4byte	0
 11229 0534 00000000 		.4byte	0
 11230              	.LLST45:
 11231 0538 56010000 		.4byte	.LVL108
 11232 053c 60010000 		.4byte	.LVL109
 11233 0540 0200     		.2byte	0x2
 11234 0542 30       		.byte	0x30
 11235 0543 9F       		.byte	0x9f
 11236 0544 00000000 		.4byte	0
 11237 0548 00000000 		.4byte	0
 11238              	.LLST46:
ARM GAS  C:\Users\strap\AppData\Local\Temp\cc7wbcEe.s 			page 226


 11239 054c 56010000 		.4byte	.LVL108
 11240 0550 60010000 		.4byte	.LVL109
 11241 0554 0100     		.2byte	0x1
 11242 0556 55       		.byte	0x55
 11243 0557 00000000 		.4byte	0
 11244 055b 00000000 		.4byte	0
 11245              	.LLST47:
 11246 055f 80010000 		.4byte	.LVL110
 11247 0563 8A010000 		.4byte	.LVL111
 11248 0567 0200     		.2byte	0x2
 11249 0569 30       		.byte	0x30
 11250 056a 9F       		.byte	0x9f
 11251 056b 00000000 		.4byte	0
 11252 056f 00000000 		.4byte	0
 11253              	.LLST48:
 11254 0573 80010000 		.4byte	.LVL110
 11255 0577 8A010000 		.4byte	.LVL111
 11256 057b 0100     		.2byte	0x1
 11257 057d 55       		.byte	0x55
 11258 057e 00000000 		.4byte	0
 11259 0582 00000000 		.4byte	0
 11260              	.LLST49:
 11261 0586 AC010000 		.4byte	.LVL114
 11262 058a B6010000 		.4byte	.LVL116
 11263 058e 0200     		.2byte	0x2
 11264 0590 30       		.byte	0x30
 11265 0591 9F       		.byte	0x9f
 11266 0592 00000000 		.4byte	0
 11267 0596 00000000 		.4byte	0
 11268              	.LLST50:
 11269 059a AC010000 		.4byte	.LVL114
 11270 059e B6010000 		.4byte	.LVL116
 11271 05a2 0100     		.2byte	0x1
 11272 05a4 54       		.byte	0x54
 11273 05a5 00000000 		.4byte	0
 11274 05a9 00000000 		.4byte	0
 11275              	.LLST51:
 11276 05ad C0010000 		.4byte	.LVL117
 11277 05b1 CA010000 		.4byte	.LVL118
 11278 05b5 0200     		.2byte	0x2
 11279 05b7 30       		.byte	0x30
 11280 05b8 9F       		.byte	0x9f
 11281 05b9 00000000 		.4byte	0
 11282 05bd 00000000 		.4byte	0
 11283              	.LLST52:
 11284 05c1 C0010000 		.4byte	.LVL117
 11285 05c5 CA010000 		.4byte	.LVL118
 11286 05c9 0100     		.2byte	0x1
 11287 05cb 54       		.byte	0x54
 11288 05cc 00000000 		.4byte	0
 11289 05d0 00000000 		.4byte	0
 11290              	.LLST53:
 11291 05d4 D4010000 		.4byte	.LVL119
 11292 05d8 DE010000 		.4byte	.LVL120
 11293 05dc 0200     		.2byte	0x2
 11294 05de 30       		.byte	0x30
 11295 05df 9F       		.byte	0x9f
ARM GAS  C:\Users\strap\AppData\Local\Temp\cc7wbcEe.s 			page 227


 11296 05e0 00000000 		.4byte	0
 11297 05e4 00000000 		.4byte	0
 11298              	.LLST54:
 11299 05e8 D4010000 		.4byte	.LVL119
 11300 05ec DE010000 		.4byte	.LVL120
 11301 05f0 0100     		.2byte	0x1
 11302 05f2 54       		.byte	0x54
 11303 05f3 00000000 		.4byte	0
 11304 05f7 00000000 		.4byte	0
 11305              	.LLST55:
 11306 05fb E8010000 		.4byte	.LVL121
 11307 05ff F2010000 		.4byte	.LVL122
 11308 0603 0200     		.2byte	0x2
 11309 0605 30       		.byte	0x30
 11310 0606 9F       		.byte	0x9f
 11311 0607 00000000 		.4byte	0
 11312 060b 00000000 		.4byte	0
 11313              	.LLST56:
 11314 060f E8010000 		.4byte	.LVL121
 11315 0613 F2010000 		.4byte	.LVL122
 11316 0617 0100     		.2byte	0x1
 11317 0619 54       		.byte	0x54
 11318 061a 00000000 		.4byte	0
 11319 061e 00000000 		.4byte	0
 11320              	.LLST57:
 11321 0622 04020000 		.4byte	.LVL124
 11322 0626 12020000 		.4byte	.LVL128
 11323 062a 0100     		.2byte	0x1
 11324 062c 53       		.byte	0x53
 11325 062d 00000000 		.4byte	0
 11326 0631 00000000 		.4byte	0
 11327              	.LLST58:
 11328 0635 04020000 		.4byte	.LVL124
 11329 0639 42020000 		.4byte	.LVL129
 11330 063d 0100     		.2byte	0x1
 11331 063f 52       		.byte	0x52
 11332 0640 4E020000 		.4byte	.LVL130
 11333 0644 52020000 		.4byte	.LVL131
 11334 0648 0100     		.2byte	0x1
 11335 064a 52       		.byte	0x52
 11336 064b 00000000 		.4byte	0
 11337 064f 00000000 		.4byte	0
 11338              	.LLST59:
 11339 0653 04020000 		.4byte	.LVL124
 11340 0657 08020000 		.4byte	.LVL125
 11341 065b 0100     		.2byte	0x1
 11342 065d 51       		.byte	0x51
 11343 065e 08020000 		.4byte	.LVL125
 11344 0662 0C020000 		.4byte	.LVL126
 11345 0666 0300     		.2byte	0x3
 11346 0668 71       		.byte	0x71
 11347 0669 7F       		.sleb128 -1
 11348 066a 9F       		.byte	0x9f
 11349 066b 0C020000 		.4byte	.LVL126
 11350 066f 55030000 		.4byte	.LVL132-1
 11351 0673 0100     		.2byte	0x1
 11352 0675 51       		.byte	0x51
ARM GAS  C:\Users\strap\AppData\Local\Temp\cc7wbcEe.s 			page 228


 11353 0676 00000000 		.4byte	0
 11354 067a 00000000 		.4byte	0
 11355              	.LLST60:
 11356 067e 5A030000 		.4byte	.LVL133
 11357 0682 6E030000 		.4byte	.LVL138
 11358 0686 0100     		.2byte	0x1
 11359 0688 5D       		.byte	0x5d
 11360 0689 00000000 		.4byte	0
 11361 068d 00000000 		.4byte	0
 11362              	.LLST61:
 11363 0691 5A030000 		.4byte	.LVL133
 11364 0695 60030000 		.4byte	.LVL134
 11365 0699 0100     		.2byte	0x1
 11366 069b 51       		.byte	0x51
 11367 069c 60030000 		.4byte	.LVL134
 11368 06a0 6E030000 		.4byte	.LVL138
 11369 06a4 0300     		.2byte	0x3
 11370 06a6 74       		.byte	0x74
 11371 06a7 10       		.sleb128 16
 11372 06a8 9F       		.byte	0x9f
 11373 06a9 00000000 		.4byte	0
 11374 06ad 00000000 		.4byte	0
 11375              	.LLST62:
 11376 06b1 5A030000 		.4byte	.LVL133
 11377 06b5 60030000 		.4byte	.LVL134
 11378 06b9 0200     		.2byte	0x2
 11379 06bb 38       		.byte	0x38
 11380 06bc 9F       		.byte	0x9f
 11381 06bd 60030000 		.4byte	.LVL134
 11382 06c1 6E030000 		.4byte	.LVL138
 11383 06c5 0100     		.2byte	0x1
 11384 06c7 53       		.byte	0x53
 11385 06c8 00000000 		.4byte	0
 11386 06cc 00000000 		.4byte	0
 11387              	.LLST65:
 11388 06d0 5A030000 		.4byte	.LVL133
 11389 06d4 73030000 		.4byte	.LVL139-1
 11390 06d8 0100     		.2byte	0x1
 11391 06da 51       		.byte	0x51
 11392 06db 00000000 		.4byte	0
 11393 06df 00000000 		.4byte	0
 11394              	.LLST66:
 11395 06e3 5A030000 		.4byte	.LVL133
 11396 06e7 60030000 		.4byte	.LVL134
 11397 06eb 0100     		.2byte	0x1
 11398 06ed 5D       		.byte	0x5d
 11399 06ee 60030000 		.4byte	.LVL134
 11400 06f2 64030000 		.4byte	.LVL135
 11401 06f6 0100     		.2byte	0x1
 11402 06f8 52       		.byte	0x52
 11403 06f9 64030000 		.4byte	.LVL135
 11404 06fd 68030000 		.4byte	.LVL136
 11405 0701 0300     		.2byte	0x3
 11406 0703 72       		.byte	0x72
 11407 0704 7F       		.sleb128 -1
 11408 0705 9F       		.byte	0x9f
 11409 0706 68030000 		.4byte	.LVL136
ARM GAS  C:\Users\strap\AppData\Local\Temp\cc7wbcEe.s 			page 229


 11410 070a 73030000 		.4byte	.LVL139-1
 11411 070e 0100     		.2byte	0x1
 11412 0710 52       		.byte	0x52
 11413 0711 00000000 		.4byte	0
 11414 0715 00000000 		.4byte	0
 11415              	.LLST67:
 11416 0719 00000000 		.4byte	.LVL151
 11417 071d 09000000 		.4byte	.LVL152-1
 11418 0721 0100     		.2byte	0x1
 11419 0723 50       		.byte	0x50
 11420 0724 09000000 		.4byte	.LVL152-1
 11421 0728 F8000000 		.4byte	.LVL173
 11422 072c 0100     		.2byte	0x1
 11423 072e 57       		.byte	0x57
 11424 072f F8000000 		.4byte	.LVL173
 11425 0733 04010000 		.4byte	.LFE330
 11426 0737 0400     		.2byte	0x4
 11427 0739 F3       		.byte	0xf3
 11428 073a 01       		.uleb128 0x1
 11429 073b 50       		.byte	0x50
 11430 073c 9F       		.byte	0x9f
 11431 073d 00000000 		.4byte	0
 11432 0741 00000000 		.4byte	0
 11433              	.LLST68:
 11434 0745 00000000 		.4byte	.LVL151
 11435 0749 09000000 		.4byte	.LVL152-1
 11436 074d 0100     		.2byte	0x1
 11437 074f 51       		.byte	0x51
 11438 0750 09000000 		.4byte	.LVL152-1
 11439 0754 F8000000 		.4byte	.LVL173
 11440 0758 0100     		.2byte	0x1
 11441 075a 56       		.byte	0x56
 11442 075b F8000000 		.4byte	.LVL173
 11443 075f 04010000 		.4byte	.LFE330
 11444 0763 0400     		.2byte	0x4
 11445 0765 F3       		.byte	0xf3
 11446 0766 01       		.uleb128 0x1
 11447 0767 51       		.byte	0x51
 11448 0768 9F       		.byte	0x9f
 11449 0769 00000000 		.4byte	0
 11450 076d 00000000 		.4byte	0
 11451              	.LLST69:
 11452 0771 0C000000 		.4byte	.LVL153
 11453 0775 0F000000 		.4byte	.LVL154-1
 11454 0779 0100     		.2byte	0x1
 11455 077b 50       		.byte	0x50
 11456 077c 0F000000 		.4byte	.LVL154-1
 11457 0780 F8000000 		.4byte	.LVL173
 11458 0784 0100     		.2byte	0x1
 11459 0786 54       		.byte	0x54
 11460 0787 F8000000 		.4byte	.LVL173
 11461 078b 04010000 		.4byte	.LFE330
 11462 078f 0100     		.2byte	0x1
 11463 0791 50       		.byte	0x50
 11464 0792 00000000 		.4byte	0
 11465 0796 00000000 		.4byte	0
 11466              	.LLST70:
ARM GAS  C:\Users\strap\AppData\Local\Temp\cc7wbcEe.s 			page 230


 11467 079a 50000000 		.4byte	.LVL159
 11468 079e 56000000 		.4byte	.LVL160
 11469 07a2 0100     		.2byte	0x1
 11470 07a4 50       		.byte	0x50
 11471 07a5 56000000 		.4byte	.LVL160
 11472 07a9 5E000000 		.4byte	.LVL162
 11473 07ad 0100     		.2byte	0x1
 11474 07af 55       		.byte	0x55
 11475 07b0 5E000000 		.4byte	.LVL162
 11476 07b4 61000000 		.4byte	.LVL163-1
 11477 07b8 0100     		.2byte	0x1
 11478 07ba 50       		.byte	0x50
 11479 07bb 61000000 		.4byte	.LVL163-1
 11480 07bf F0000000 		.4byte	.LVL171
 11481 07c3 0100     		.2byte	0x1
 11482 07c5 55       		.byte	0x55
 11483 07c6 F4000000 		.4byte	.LVL172
 11484 07ca F8000000 		.4byte	.LVL173
 11485 07ce 0100     		.2byte	0x1
 11486 07d0 55       		.byte	0x55
 11487 07d1 00000000 		.4byte	0
 11488 07d5 00000000 		.4byte	0
 11489              	.LLST71:
 11490 07d9 A6000000 		.4byte	.LVL168
 11491 07dd E8000000 		.4byte	.LVL169
 11492 07e1 0100     		.2byte	0x1
 11493 07e3 50       		.byte	0x50
 11494 07e4 00000000 		.4byte	0
 11495 07e8 00000000 		.4byte	0
 11496              	.LLST72:
 11497 07ec 00000000 		.4byte	.LVL174
 11498 07f0 09000000 		.4byte	.LVL175-1
 11499 07f4 0100     		.2byte	0x1
 11500 07f6 50       		.byte	0x50
 11501 07f7 09000000 		.4byte	.LVL175-1
 11502 07fb 3C000000 		.4byte	.LVL180
 11503 07ff 0100     		.2byte	0x1
 11504 0801 54       		.byte	0x54
 11505 0802 3C000000 		.4byte	.LVL180
 11506 0806 40000000 		.4byte	.LFE331
 11507 080a 0400     		.2byte	0x4
 11508 080c F3       		.byte	0xf3
 11509 080d 01       		.uleb128 0x1
 11510 080e 50       		.byte	0x50
 11511 080f 9F       		.byte	0x9f
 11512 0810 00000000 		.4byte	0
 11513 0814 00000000 		.4byte	0
 11514              	.LLST73:
 11515 0818 00000000 		.4byte	.LVL174
 11516 081c 09000000 		.4byte	.LVL175-1
 11517 0820 0100     		.2byte	0x1
 11518 0822 51       		.byte	0x51
 11519 0823 09000000 		.4byte	.LVL175-1
 11520 0827 40000000 		.4byte	.LFE331
 11521 082b 0400     		.2byte	0x4
 11522 082d F3       		.byte	0xf3
 11523 082e 01       		.uleb128 0x1
ARM GAS  C:\Users\strap\AppData\Local\Temp\cc7wbcEe.s 			page 231


 11524 082f 51       		.byte	0x51
 11525 0830 9F       		.byte	0x9f
 11526 0831 00000000 		.4byte	0
 11527 0835 00000000 		.4byte	0
 11528              	.LLST74:
 11529 0839 1E000000 		.4byte	.LVL177
 11530 083d 38000000 		.4byte	.LVL178
 11531 0841 0100     		.2byte	0x1
 11532 0843 50       		.byte	0x50
 11533 0844 00000000 		.4byte	0
 11534 0848 00000000 		.4byte	0
 11535              	.LLST75:
 11536 084c 00000000 		.4byte	.LVL181
 11537 0850 13000000 		.4byte	.LVL182-1
 11538 0854 0100     		.2byte	0x1
 11539 0856 50       		.byte	0x50
 11540 0857 13000000 		.4byte	.LVL182-1
 11541 085b 7A000000 		.4byte	.LVL188
 11542 085f 0100     		.2byte	0x1
 11543 0861 54       		.byte	0x54
 11544 0862 7A000000 		.4byte	.LVL188
 11545 0866 80000000 		.4byte	.LFE332
 11546 086a 0400     		.2byte	0x4
 11547 086c F3       		.byte	0xf3
 11548 086d 01       		.uleb128 0x1
 11549 086e 50       		.byte	0x50
 11550 086f 9F       		.byte	0x9f
 11551 0870 00000000 		.4byte	0
 11552 0874 00000000 		.4byte	0
 11553              	.LLST76:
 11554 0878 00000000 		.4byte	.LVL181
 11555 087c 13000000 		.4byte	.LVL182-1
 11556 0880 0100     		.2byte	0x1
 11557 0882 51       		.byte	0x51
 11558 0883 13000000 		.4byte	.LVL182-1
 11559 0887 80000000 		.4byte	.LFE332
 11560 088b 0400     		.2byte	0x4
 11561 088d F3       		.byte	0xf3
 11562 088e 01       		.uleb128 0x1
 11563 088f 51       		.byte	0x51
 11564 0890 9F       		.byte	0x9f
 11565 0891 00000000 		.4byte	0
 11566 0895 00000000 		.4byte	0
 11567              	.LLST77:
 11568 0899 00000000 		.4byte	.LVL181
 11569 089d 13000000 		.4byte	.LVL182-1
 11570 08a1 0100     		.2byte	0x1
 11571 08a3 52       		.byte	0x52
 11572 08a4 13000000 		.4byte	.LVL182-1
 11573 08a8 80000000 		.4byte	.LFE332
 11574 08ac 0400     		.2byte	0x4
 11575 08ae F3       		.byte	0xf3
 11576 08af 01       		.uleb128 0x1
 11577 08b0 52       		.byte	0x52
 11578 08b1 9F       		.byte	0x9f
 11579 08b2 00000000 		.4byte	0
 11580 08b6 00000000 		.4byte	0
ARM GAS  C:\Users\strap\AppData\Local\Temp\cc7wbcEe.s 			page 232


 11581              	.LLST78:
 11582 08ba 00000000 		.4byte	.LVL181
 11583 08be 13000000 		.4byte	.LVL182-1
 11584 08c2 0100     		.2byte	0x1
 11585 08c4 53       		.byte	0x53
 11586 08c5 13000000 		.4byte	.LVL182-1
 11587 08c9 80000000 		.4byte	.LFE332
 11588 08cd 0400     		.2byte	0x4
 11589 08cf F3       		.byte	0xf3
 11590 08d0 01       		.uleb128 0x1
 11591 08d1 53       		.byte	0x53
 11592 08d2 9F       		.byte	0x9f
 11593 08d3 00000000 		.4byte	0
 11594 08d7 00000000 		.4byte	0
 11595              	.LLST79:
 11596 08db 00000000 		.4byte	.LVL181
 11597 08df 7A000000 		.4byte	.LVL188
 11598 08e3 0200     		.2byte	0x2
 11599 08e5 91       		.byte	0x91
 11600 08e6 00       		.sleb128 0
 11601 08e7 7A000000 		.4byte	.LVL188
 11602 08eb 80000000 		.4byte	.LFE332
 11603 08ef 0200     		.2byte	0x2
 11604 08f1 7D       		.byte	0x7d
 11605 08f2 00       		.sleb128 0
 11606 08f3 00000000 		.4byte	0
 11607 08f7 00000000 		.4byte	0
 11608              	.LLST80:
 11609 08fb 2E000000 		.4byte	.LVL185
 11610 08ff 74000000 		.4byte	.LVL186
 11611 0903 0100     		.2byte	0x1
 11612 0905 50       		.byte	0x50
 11613 0906 00000000 		.4byte	0
 11614 090a 00000000 		.4byte	0
 11615              	.LLST81:
 11616 090e 00000000 		.4byte	.LVL189
 11617 0912 07000000 		.4byte	.LVL190-1
 11618 0916 0100     		.2byte	0x1
 11619 0918 50       		.byte	0x50
 11620 0919 07000000 		.4byte	.LVL190-1
 11621 091d 24000000 		.4byte	.LVL194
 11622 0921 0100     		.2byte	0x1
 11623 0923 54       		.byte	0x54
 11624 0924 24000000 		.4byte	.LVL194
 11625 0928 28000000 		.4byte	.LFE333
 11626 092c 0400     		.2byte	0x4
 11627 092e F3       		.byte	0xf3
 11628 092f 01       		.uleb128 0x1
 11629 0930 50       		.byte	0x50
 11630 0931 9F       		.byte	0x9f
 11631 0932 00000000 		.4byte	0
 11632 0936 00000000 		.4byte	0
 11633              	.LLST82:
 11634 093a 1C000000 		.4byte	.LVL192
 11635 093e 1E000000 		.4byte	.LVL193
 11636 0942 0100     		.2byte	0x1
 11637 0944 50       		.byte	0x50
ARM GAS  C:\Users\strap\AppData\Local\Temp\cc7wbcEe.s 			page 233


 11638 0945 00000000 		.4byte	0
 11639 0949 00000000 		.4byte	0
 11640              	.LLST83:
 11641 094d 00000000 		.4byte	.LVL195
 11642 0951 0F000000 		.4byte	.LVL197-1
 11643 0955 0100     		.2byte	0x1
 11644 0957 50       		.byte	0x50
 11645 0958 0F000000 		.4byte	.LVL197-1
 11646 095c 00010000 		.4byte	.LFE341
 11647 0960 0100     		.2byte	0x1
 11648 0962 59       		.byte	0x59
 11649 0963 00000000 		.4byte	0
 11650 0967 00000000 		.4byte	0
 11651              	.LLST84:
 11652 096b 3C000000 		.4byte	.LVL205
 11653 096f 74000000 		.4byte	.LVL210
 11654 0973 0100     		.2byte	0x1
 11655 0975 50       		.byte	0x50
 11656 0976 00000000 		.4byte	0
 11657 097a 00000000 		.4byte	0
 11658              	.LLST85:
 11659 097e 84000000 		.4byte	.LVL213
 11660 0982 8A000000 		.4byte	.LVL215
 11661 0986 0100     		.2byte	0x1
 11662 0988 50       		.byte	0x50
 11663 0989 8A000000 		.4byte	.LVL215
 11664 098d EE000000 		.4byte	.LVL228
 11665 0991 0100     		.2byte	0x1
 11666 0993 54       		.byte	0x54
 11667 0994 EE000000 		.4byte	.LVL228
 11668 0998 F6000000 		.4byte	.LVL229
 11669 099c 0100     		.2byte	0x1
 11670 099e 50       		.byte	0x50
 11671 099f F6000000 		.4byte	.LVL229
 11672 09a3 00010000 		.4byte	.LFE341
 11673 09a7 0100     		.2byte	0x1
 11674 09a9 54       		.byte	0x54
 11675 09aa 00000000 		.4byte	0
 11676 09ae 00000000 		.4byte	0
 11677              	.LLST86:
 11678 09b2 5C000000 		.4byte	.LVL206
 11679 09b6 62000000 		.4byte	.LVL207
 11680 09ba 0200     		.2byte	0x2
 11681 09bc 33       		.byte	0x33
 11682 09bd 9F       		.byte	0x9f
 11683 09be 62000000 		.4byte	.LVL207
 11684 09c2 6C000000 		.4byte	.LVL208
 11685 09c6 0200     		.2byte	0x2
 11686 09c8 31       		.byte	0x31
 11687 09c9 9F       		.byte	0x9f
 11688 09ca 70000000 		.4byte	.LVL209
 11689 09ce 00010000 		.4byte	.LFE341
 11690 09d2 0200     		.2byte	0x2
 11691 09d4 91       		.byte	0x91
 11692 09d5 54       		.sleb128 -44
 11693 09d6 00000000 		.4byte	0
 11694 09da 00000000 		.4byte	0
ARM GAS  C:\Users\strap\AppData\Local\Temp\cc7wbcEe.s 			page 234


 11695              	.LLST87:
 11696 09de 5C000000 		.4byte	.LVL206
 11697 09e2 62000000 		.4byte	.LVL207
 11698 09e6 0100     		.2byte	0x1
 11699 09e8 5A       		.byte	0x5a
 11700 09e9 62000000 		.4byte	.LVL207
 11701 09ed 6C000000 		.4byte	.LVL208
 11702 09f1 0200     		.2byte	0x2
 11703 09f3 30       		.byte	0x30
 11704 09f4 9F       		.byte	0x9f
 11705 09f5 70000000 		.4byte	.LVL209
 11706 09f9 00010000 		.4byte	.LFE341
 11707 09fd 0100     		.2byte	0x1
 11708 09ff 5A       		.byte	0x5a
 11709 0a00 00000000 		.4byte	0
 11710 0a04 00000000 		.4byte	0
 11711              	.LLST88:
 11712 0a08 78000000 		.4byte	.LVL211
 11713 0a0c 88000000 		.4byte	.LVL214
 11714 0a10 0100     		.2byte	0x1
 11715 0a12 55       		.byte	0x55
 11716 0a13 88000000 		.4byte	.LVL214
 11717 0a17 00010000 		.4byte	.LFE341
 11718 0a1b 0100     		.2byte	0x1
 11719 0a1d 56       		.byte	0x56
 11720 0a1e 00000000 		.4byte	0
 11721 0a22 00000000 		.4byte	0
 11722              	.LLST89:
 11723 0a26 08000000 		.4byte	.LVL196
 11724 0a2a 12000000 		.4byte	.LVL198
 11725 0a2e 0200     		.2byte	0x2
 11726 0a30 30       		.byte	0x30
 11727 0a31 9F       		.byte	0x9f
 11728 0a32 00000000 		.4byte	0
 11729 0a36 00000000 		.4byte	0
 11730              	.LLST90:
 11731 0a3a 08000000 		.4byte	.LVL196
 11732 0a3e 0F000000 		.4byte	.LVL197-1
 11733 0a42 0100     		.2byte	0x1
 11734 0a44 50       		.byte	0x50
 11735 0a45 0F000000 		.4byte	.LVL197-1
 11736 0a49 12000000 		.4byte	.LVL198
 11737 0a4d 0100     		.2byte	0x1
 11738 0a4f 59       		.byte	0x59
 11739 0a50 00000000 		.4byte	0
 11740 0a54 00000000 		.4byte	0
 11741              	.LLST91:
 11742 0a58 12000000 		.4byte	.LVL198
 11743 0a5c 1E000000 		.4byte	.LVL200
 11744 0a60 0200     		.2byte	0x2
 11745 0a62 30       		.byte	0x30
 11746 0a63 9F       		.byte	0x9f
 11747 0a64 00000000 		.4byte	0
 11748 0a68 00000000 		.4byte	0
 11749              	.LLST92:
 11750 0a6c 12000000 		.4byte	.LVL198
 11751 0a70 1E000000 		.4byte	.LVL200
ARM GAS  C:\Users\strap\AppData\Local\Temp\cc7wbcEe.s 			page 235


 11752 0a74 0100     		.2byte	0x1
 11753 0a76 59       		.byte	0x59
 11754 0a77 00000000 		.4byte	0
 11755 0a7b 00000000 		.4byte	0
 11756              	.LLST93:
 11757 0a7f 1E000000 		.4byte	.LVL200
 11758 0a83 2A000000 		.4byte	.LVL202
 11759 0a87 0200     		.2byte	0x2
 11760 0a89 30       		.byte	0x30
 11761 0a8a 9F       		.byte	0x9f
 11762 0a8b 00000000 		.4byte	0
 11763 0a8f 00000000 		.4byte	0
 11764              	.LLST94:
 11765 0a93 1E000000 		.4byte	.LVL200
 11766 0a97 2A000000 		.4byte	.LVL202
 11767 0a9b 0100     		.2byte	0x1
 11768 0a9d 59       		.byte	0x59
 11769 0a9e 00000000 		.4byte	0
 11770 0aa2 00000000 		.4byte	0
 11771              	.LLST95:
 11772 0aa6 2A000000 		.4byte	.LVL202
 11773 0aaa 36000000 		.4byte	.LVL204
 11774 0aae 0200     		.2byte	0x2
 11775 0ab0 30       		.byte	0x30
 11776 0ab1 9F       		.byte	0x9f
 11777 0ab2 00000000 		.4byte	0
 11778 0ab6 00000000 		.4byte	0
 11779              	.LLST96:
 11780 0aba 2A000000 		.4byte	.LVL202
 11781 0abe 36000000 		.4byte	.LVL204
 11782 0ac2 0100     		.2byte	0x1
 11783 0ac4 59       		.byte	0x59
 11784 0ac5 00000000 		.4byte	0
 11785 0ac9 00000000 		.4byte	0
 11786              	.LLST97:
 11787 0acd 9A000000 		.4byte	.LVL218
 11788 0ad1 A6000000 		.4byte	.LVL220
 11789 0ad5 0200     		.2byte	0x2
 11790 0ad7 30       		.byte	0x30
 11791 0ad8 9F       		.byte	0x9f
 11792 0ad9 00000000 		.4byte	0
 11793 0add 00000000 		.4byte	0
 11794              	.LLST98:
 11795 0ae1 9A000000 		.4byte	.LVL218
 11796 0ae5 A6000000 		.4byte	.LVL220
 11797 0ae9 0100     		.2byte	0x1
 11798 0aeb 54       		.byte	0x54
 11799 0aec 00000000 		.4byte	0
 11800 0af0 00000000 		.4byte	0
 11801              	.LLST99:
 11802 0af4 A6000000 		.4byte	.LVL220
 11803 0af8 B2000000 		.4byte	.LVL222
 11804 0afc 0200     		.2byte	0x2
 11805 0afe 30       		.byte	0x30
 11806 0aff 9F       		.byte	0x9f
 11807 0b00 00000000 		.4byte	0
 11808 0b04 00000000 		.4byte	0
ARM GAS  C:\Users\strap\AppData\Local\Temp\cc7wbcEe.s 			page 236


 11809              	.LLST100:
 11810 0b08 A6000000 		.4byte	.LVL220
 11811 0b0c B2000000 		.4byte	.LVL222
 11812 0b10 0100     		.2byte	0x1
 11813 0b12 54       		.byte	0x54
 11814 0b13 00000000 		.4byte	0
 11815 0b17 00000000 		.4byte	0
 11816              	.LLST101:
 11817 0b1b B2000000 		.4byte	.LVL222
 11818 0b1f BC000000 		.4byte	.LVL223
 11819 0b23 0200     		.2byte	0x2
 11820 0b25 30       		.byte	0x30
 11821 0b26 9F       		.byte	0x9f
 11822 0b27 00000000 		.4byte	0
 11823 0b2b 00000000 		.4byte	0
 11824              	.LLST102:
 11825 0b2f B2000000 		.4byte	.LVL222
 11826 0b33 BC000000 		.4byte	.LVL223
 11827 0b37 0100     		.2byte	0x1
 11828 0b39 54       		.byte	0x54
 11829 0b3a 00000000 		.4byte	0
 11830 0b3e 00000000 		.4byte	0
 11831              	.LLST103:
 11832 0b42 00000000 		.4byte	.LVL231
 11833 0b46 0B000000 		.4byte	.LVL232-1
 11834 0b4a 0100     		.2byte	0x1
 11835 0b4c 50       		.byte	0x50
 11836 0b4d 0B000000 		.4byte	.LVL232-1
 11837 0b51 30010000 		.4byte	.LFE342
 11838 0b55 0100     		.2byte	0x1
 11839 0b57 56       		.byte	0x56
 11840 0b58 00000000 		.4byte	0
 11841 0b5c 00000000 		.4byte	0
 11842              	.LLST104:
 11843 0b60 0E000000 		.4byte	.LVL233
 11844 0b64 C8000000 		.4byte	.LVL261
 11845 0b68 0100     		.2byte	0x1
 11846 0b6a 54       		.byte	0x54
 11847 0b6b 00000000 		.4byte	0
 11848 0b6f 00000000 		.4byte	0
 11849              	.LLST105:
 11850 0b73 C8000000 		.4byte	.LVL261
 11851 0b77 CC000000 		.4byte	.LVL262
 11852 0b7b 0100     		.2byte	0x1
 11853 0b7d 50       		.byte	0x50
 11854 0b7e CC000000 		.4byte	.LVL262
 11855 0b82 1E010000 		.4byte	.LVL270
 11856 0b86 0100     		.2byte	0x1
 11857 0b88 54       		.byte	0x54
 11858 0b89 1E010000 		.4byte	.LVL270
 11859 0b8d 26010000 		.4byte	.LVL271
 11860 0b91 0100     		.2byte	0x1
 11861 0b93 50       		.byte	0x50
 11862 0b94 26010000 		.4byte	.LVL271
 11863 0b98 30010000 		.4byte	.LFE342
 11864 0b9c 0100     		.2byte	0x1
 11865 0b9e 54       		.byte	0x54
ARM GAS  C:\Users\strap\AppData\Local\Temp\cc7wbcEe.s 			page 237


 11866 0b9f 00000000 		.4byte	0
 11867 0ba3 00000000 		.4byte	0
 11868              	.LLST106:
 11869 0ba7 38000000 		.4byte	.LVL240
 11870 0bab 46000000 		.4byte	.LVL241
 11871 0baf 0200     		.2byte	0x2
 11872 0bb1 30       		.byte	0x30
 11873 0bb2 9F       		.byte	0x9f
 11874 0bb3 56000000 		.4byte	.LVL244
 11875 0bb7 60000000 		.4byte	.LVL245
 11876 0bbb 0100     		.2byte	0x1
 11877 0bbd 58       		.byte	0x58
 11878 0bbe 60000000 		.4byte	.LVL245
 11879 0bc2 6E000000 		.4byte	.LVL246
 11880 0bc6 0200     		.2byte	0x2
 11881 0bc8 30       		.byte	0x30
 11882 0bc9 9F       		.byte	0x9f
 11883 0bca 74000000 		.4byte	.LVL247
 11884 0bce 7E000000 		.4byte	.LVL248
 11885 0bd2 0200     		.2byte	0x2
 11886 0bd4 30       		.byte	0x30
 11887 0bd5 9F       		.byte	0x9f
 11888 0bd6 7E000000 		.4byte	.LVL248
 11889 0bda 84000000 		.4byte	.LVL249
 11890 0bde 0100     		.2byte	0x1
 11891 0be0 58       		.byte	0x58
 11892 0be1 84000000 		.4byte	.LVL249
 11893 0be5 8C000000 		.4byte	.LVL250
 11894 0be9 0200     		.2byte	0x2
 11895 0beb 30       		.byte	0x30
 11896 0bec 9F       		.byte	0x9f
 11897 0bed 8C000000 		.4byte	.LVL250
 11898 0bf1 30010000 		.4byte	.LFE342
 11899 0bf5 0100     		.2byte	0x1
 11900 0bf7 58       		.byte	0x58
 11901 0bf8 00000000 		.4byte	0
 11902 0bfc 00000000 		.4byte	0
 11903              	.LLST107:
 11904 0c00 16000000 		.4byte	.LVL235
 11905 0c04 28000000 		.4byte	.LVL237
 11906 0c08 0100     		.2byte	0x1
 11907 0c0a 50       		.byte	0x50
 11908 0c0b 38000000 		.4byte	.LVL240
 11909 0c0f 4C000000 		.4byte	.LVL242
 11910 0c13 0100     		.2byte	0x1
 11911 0c15 50       		.byte	0x50
 11912 0c16 60000000 		.4byte	.LVL245
 11913 0c1a 6E000000 		.4byte	.LVL246
 11914 0c1e 0100     		.2byte	0x1
 11915 0c20 50       		.byte	0x50
 11916 0c21 74000000 		.4byte	.LVL247
 11917 0c25 7E000000 		.4byte	.LVL248
 11918 0c29 0100     		.2byte	0x1
 11919 0c2b 50       		.byte	0x50
 11920 0c2c 84000000 		.4byte	.LVL249
 11921 0c30 8C000000 		.4byte	.LVL250
 11922 0c34 0100     		.2byte	0x1
ARM GAS  C:\Users\strap\AppData\Local\Temp\cc7wbcEe.s 			page 238


 11923 0c36 50       		.byte	0x50
 11924 0c37 00000000 		.4byte	0
 11925 0c3b 00000000 		.4byte	0
 11926              	.LLST108:
 11927 0c3f 22000000 		.4byte	.LVL236
 11928 0c43 2E000000 		.4byte	.LVL239
 11929 0c47 0200     		.2byte	0x2
 11930 0c49 30       		.byte	0x30
 11931 0c4a 9F       		.byte	0x9f
 11932 0c4b 00000000 		.4byte	0
 11933 0c4f 00000000 		.4byte	0
 11934              	.LLST109:
 11935 0c53 22000000 		.4byte	.LVL236
 11936 0c57 2E000000 		.4byte	.LVL239
 11937 0c5b 0100     		.2byte	0x1
 11938 0c5d 56       		.byte	0x56
 11939 0c5e 00000000 		.4byte	0
 11940 0c62 00000000 		.4byte	0
 11941              	.LLST110:
 11942 0c66 46000000 		.4byte	.LVL241
 11943 0c6a 50000000 		.4byte	.LVL243
 11944 0c6e 0200     		.2byte	0x2
 11945 0c70 30       		.byte	0x30
 11946 0c71 9F       		.byte	0x9f
 11947 0c72 00000000 		.4byte	0
 11948 0c76 00000000 		.4byte	0
 11949              	.LLST111:
 11950 0c7a 46000000 		.4byte	.LVL241
 11951 0c7e 50000000 		.4byte	.LVL243
 11952 0c82 0100     		.2byte	0x1
 11953 0c84 56       		.byte	0x56
 11954 0c85 00000000 		.4byte	0
 11955 0c89 00000000 		.4byte	0
 11956              	.LLST112:
 11957 0c8d 98000000 		.4byte	.LVL252
 11958 0c91 A4000000 		.4byte	.LVL254
 11959 0c95 0200     		.2byte	0x2
 11960 0c97 30       		.byte	0x30
 11961 0c98 9F       		.byte	0x9f
 11962 0c99 00000000 		.4byte	0
 11963 0c9d 00000000 		.4byte	0
 11964              	.LLST113:
 11965 0ca1 98000000 		.4byte	.LVL252
 11966 0ca5 A4000000 		.4byte	.LVL254
 11967 0ca9 0100     		.2byte	0x1
 11968 0cab 56       		.byte	0x56
 11969 0cac 00000000 		.4byte	0
 11970 0cb0 00000000 		.4byte	0
 11971              	.LLST114:
 11972 0cb4 A6000000 		.4byte	.LVL255
 11973 0cb8 B2000000 		.4byte	.LVL257
 11974 0cbc 0200     		.2byte	0x2
 11975 0cbe 30       		.byte	0x30
 11976 0cbf 9F       		.byte	0x9f
 11977 0cc0 00000000 		.4byte	0
 11978 0cc4 00000000 		.4byte	0
 11979              	.LLST115:
ARM GAS  C:\Users\strap\AppData\Local\Temp\cc7wbcEe.s 			page 239


 11980 0cc8 A6000000 		.4byte	.LVL255
 11981 0ccc B2000000 		.4byte	.LVL257
 11982 0cd0 0100     		.2byte	0x1
 11983 0cd2 56       		.byte	0x56
 11984 0cd3 00000000 		.4byte	0
 11985 0cd7 00000000 		.4byte	0
 11986              	.LLST116:
 11987 0cdb B2000000 		.4byte	.LVL257
 11988 0cdf BE000000 		.4byte	.LVL259
 11989 0ce3 0200     		.2byte	0x2
 11990 0ce5 30       		.byte	0x30
 11991 0ce6 9F       		.byte	0x9f
 11992 0ce7 00000000 		.4byte	0
 11993 0ceb 00000000 		.4byte	0
 11994              	.LLST117:
 11995 0cef B2000000 		.4byte	.LVL257
 11996 0cf3 BE000000 		.4byte	.LVL259
 11997 0cf7 0100     		.2byte	0x1
 11998 0cf9 56       		.byte	0x56
 11999 0cfa 00000000 		.4byte	0
 12000 0cfe 00000000 		.4byte	0
 12001              	.LLST118:
 12002 0d02 00000000 		.4byte	.LVL273
 12003 0d06 0D000000 		.4byte	.LVL274-1
 12004 0d0a 0100     		.2byte	0x1
 12005 0d0c 50       		.byte	0x50
 12006 0d0d 0D000000 		.4byte	.LVL274-1
 12007 0d11 6A000000 		.4byte	.LVL290
 12008 0d15 0100     		.2byte	0x1
 12009 0d17 54       		.byte	0x54
 12010 0d18 6A000000 		.4byte	.LVL290
 12011 0d1c 06030000 		.4byte	.LFE344
 12012 0d20 0300     		.2byte	0x3
 12013 0d22 91       		.byte	0x91
 12014 0d23 BC7F     		.sleb128 -68
 12015 0d25 00000000 		.4byte	0
 12016 0d29 00000000 		.4byte	0
 12017              	.LLST119:
 12018 0d2d 30000000 		.4byte	.LVL280
 12019 0d31 3C000000 		.4byte	.LVL281
 12020 0d35 0100     		.2byte	0x1
 12021 0d37 50       		.byte	0x50
 12022 0d38 3C000000 		.4byte	.LVL281
 12023 0d3c 68000000 		.4byte	.LVL289
 12024 0d40 0100     		.2byte	0x1
 12025 0d42 5A       		.byte	0x5a
 12026 0d43 68000000 		.4byte	.LVL289
 12027 0d47 7E000000 		.4byte	.LVL292
 12028 0d4b 0100     		.2byte	0x1
 12029 0d4d 55       		.byte	0x55
 12030 0d4e 7E000000 		.4byte	.LVL292
 12031 0d52 C8000000 		.4byte	.LVL303
 12032 0d56 0100     		.2byte	0x1
 12033 0d58 59       		.byte	0x59
 12034 0d59 C8000000 		.4byte	.LVL303
 12035 0d5d D8000000 		.4byte	.LVL307
 12036 0d61 0100     		.2byte	0x1
ARM GAS  C:\Users\strap\AppData\Local\Temp\cc7wbcEe.s 			page 240


 12037 0d63 55       		.byte	0x55
 12038 0d64 D8000000 		.4byte	.LVL307
 12039 0d68 2E010000 		.4byte	.LVL325
 12040 0d6c 0100     		.2byte	0x1
 12041 0d6e 59       		.byte	0x59
 12042 0d6f 2E010000 		.4byte	.LVL325
 12043 0d73 30010000 		.4byte	.LVL326
 12044 0d77 0100     		.2byte	0x1
 12045 0d79 55       		.byte	0x55
 12046 0d7a 30010000 		.4byte	.LVL326
 12047 0d7e 36010000 		.4byte	.LVL328
 12048 0d82 0100     		.2byte	0x1
 12049 0d84 59       		.byte	0x59
 12050 0d85 36010000 		.4byte	.LVL328
 12051 0d89 4E010000 		.4byte	.LVL331
 12052 0d8d 0100     		.2byte	0x1
 12053 0d8f 55       		.byte	0x55
 12054 0d90 7C010000 		.4byte	.LVL338
 12055 0d94 DA010000 		.4byte	.LVL348
 12056 0d98 0100     		.2byte	0x1
 12057 0d9a 55       		.byte	0x55
 12058 0d9b F2020000 		.4byte	.LVL374
 12059 0d9f F8020000 		.4byte	.LVL375
 12060 0da3 0100     		.2byte	0x1
 12061 0da5 55       		.byte	0x55
 12062 0da6 00000000 		.4byte	0
 12063 0daa 00000000 		.4byte	0
 12064              	.LLST120:
 12065 0dae 64000000 		.4byte	.LVL288
 12066 0db2 68000000 		.4byte	.LVL289
 12067 0db6 0100     		.2byte	0x1
 12068 0db8 5A       		.byte	0x5a
 12069 0db9 68000000 		.4byte	.LVL289
 12070 0dbd 7E000000 		.4byte	.LVL292
 12071 0dc1 0100     		.2byte	0x1
 12072 0dc3 55       		.byte	0x55
 12073 0dc4 7E000000 		.4byte	.LVL292
 12074 0dc8 D6000000 		.4byte	.LVL306
 12075 0dcc 0100     		.2byte	0x1
 12076 0dce 54       		.byte	0x54
 12077 0dcf D6000000 		.4byte	.LVL306
 12078 0dd3 D8000000 		.4byte	.LVL307
 12079 0dd7 0100     		.2byte	0x1
 12080 0dd9 50       		.byte	0x50
 12081 0dda D8000000 		.4byte	.LVL307
 12082 0dde 20010000 		.4byte	.LVL322
 12083 0de2 0100     		.2byte	0x1
 12084 0de4 54       		.byte	0x54
 12085 0de5 20010000 		.4byte	.LVL322
 12086 0de9 30010000 		.4byte	.LVL326
 12087 0ded 0100     		.2byte	0x1
 12088 0def 50       		.byte	0x50
 12089 0df0 30010000 		.4byte	.LVL326
 12090 0df4 F2020000 		.4byte	.LVL374
 12091 0df8 0100     		.2byte	0x1
 12092 0dfa 54       		.byte	0x54
 12093 0dfb F2020000 		.4byte	.LVL374
ARM GAS  C:\Users\strap\AppData\Local\Temp\cc7wbcEe.s 			page 241


 12094 0dff F8020000 		.4byte	.LVL375
 12095 0e03 0100     		.2byte	0x1
 12096 0e05 55       		.byte	0x55
 12097 0e06 00000000 		.4byte	0
 12098 0e0a 00000000 		.4byte	0
 12099              	.LLST121:
 12100 0e0e B8010000 		.4byte	.LVL346
 12101 0e12 DC020000 		.4byte	.LVL370
 12102 0e16 0100     		.2byte	0x1
 12103 0e18 55       		.byte	0x55
 12104 0e19 00000000 		.4byte	0
 12105 0e1d 00000000 		.4byte	0
 12106              	.LLST122:
 12107 0e21 18000000 		.4byte	.LVL277
 12108 0e25 6A000000 		.4byte	.LVL290
 12109 0e29 0100     		.2byte	0x1
 12110 0e2b 59       		.byte	0x59
 12111 0e2c 00000000 		.4byte	0
 12112 0e30 00000000 		.4byte	0
 12113              	.LLST123:
 12114 0e34 6A000000 		.4byte	.LVL290
 12115 0e38 00030000 		.4byte	.LVL376
 12116 0e3c 0300     		.2byte	0x3
 12117 0e3e 91       		.byte	0x91
 12118 0e3f B47F     		.sleb128 -76
 12119 0e41 00000000 		.4byte	0
 12120 0e45 00000000 		.4byte	0
 12121              	.LLST124:
 12122 0e49 18000000 		.4byte	.LVL277
 12123 0e4d 24000000 		.4byte	.LVL279
 12124 0e51 0200     		.2byte	0x2
 12125 0e53 30       		.byte	0x30
 12126 0e54 9F       		.byte	0x9f
 12127 0e55 00000000 		.4byte	0
 12128 0e59 00000000 		.4byte	0
 12129              	.LLST125:
 12130 0e5d 18000000 		.4byte	.LVL277
 12131 0e61 24000000 		.4byte	.LVL279
 12132 0e65 0100     		.2byte	0x1
 12133 0e67 54       		.byte	0x54
 12134 0e68 00000000 		.4byte	0
 12135 0e6c 00000000 		.4byte	0
 12136              	.LLST126:
 12137 0e70 40000000 		.4byte	.LVL282
 12138 0e74 4C000000 		.4byte	.LVL284
 12139 0e78 0200     		.2byte	0x2
 12140 0e7a 30       		.byte	0x30
 12141 0e7b 9F       		.byte	0x9f
 12142 0e7c 00000000 		.4byte	0
 12143 0e80 00000000 		.4byte	0
 12144              	.LLST127:
 12145 0e84 40000000 		.4byte	.LVL282
 12146 0e88 4C000000 		.4byte	.LVL284
 12147 0e8c 0100     		.2byte	0x1
 12148 0e8e 54       		.byte	0x54
 12149 0e8f 00000000 		.4byte	0
 12150 0e93 00000000 		.4byte	0
ARM GAS  C:\Users\strap\AppData\Local\Temp\cc7wbcEe.s 			page 242


 12151              	.LLST128:
 12152 0e97 4C000000 		.4byte	.LVL284
 12153 0e9b 58000000 		.4byte	.LVL286
 12154 0e9f 0200     		.2byte	0x2
 12155 0ea1 30       		.byte	0x30
 12156 0ea2 9F       		.byte	0x9f
 12157 0ea3 00000000 		.4byte	0
 12158 0ea7 00000000 		.4byte	0
 12159              	.LLST129:
 12160 0eab 4C000000 		.4byte	.LVL284
 12161 0eaf 58000000 		.4byte	.LVL286
 12162 0eb3 0100     		.2byte	0x1
 12163 0eb5 54       		.byte	0x54
 12164 0eb6 00000000 		.4byte	0
 12165 0eba 00000000 		.4byte	0
 12166              	.LLST130:
 12167 0ebe 58000000 		.4byte	.LVL286
 12168 0ec2 64000000 		.4byte	.LVL288
 12169 0ec6 0200     		.2byte	0x2
 12170 0ec8 30       		.byte	0x30
 12171 0ec9 9F       		.byte	0x9f
 12172 0eca 00000000 		.4byte	0
 12173 0ece 00000000 		.4byte	0
 12174              	.LLST131:
 12175 0ed2 58000000 		.4byte	.LVL286
 12176 0ed6 64000000 		.4byte	.LVL288
 12177 0eda 0100     		.2byte	0x1
 12178 0edc 54       		.byte	0x54
 12179 0edd 00000000 		.4byte	0
 12180 0ee1 00000000 		.4byte	0
 12181              	.LLST132:
 12182 0ee5 6A000000 		.4byte	.LVL290
 12183 0ee9 7E000000 		.4byte	.LVL292
 12184 0eed 0200     		.2byte	0x2
 12185 0eef 30       		.byte	0x30
 12186 0ef0 9F       		.byte	0x9f
 12187 0ef1 7E000000 		.4byte	.LVL292
 12188 0ef5 68010000 		.4byte	.LVL333
 12189 0ef9 0100     		.2byte	0x1
 12190 0efb 56       		.byte	0x56
 12191 0efc 68010000 		.4byte	.LVL333
 12192 0f00 6A010000 		.4byte	.LVL334
 12193 0f04 0100     		.2byte	0x1
 12194 0f06 50       		.byte	0x50
 12195 0f07 6C010000 		.4byte	.LVL335
 12196 0f0b 7A010000 		.4byte	.LVL337
 12197 0f0f 0100     		.2byte	0x1
 12198 0f11 55       		.byte	0x55
 12199 0f12 7A010000 		.4byte	.LVL337
 12200 0f16 E0020000 		.4byte	.LVL371
 12201 0f1a 0100     		.2byte	0x1
 12202 0f1c 56       		.byte	0x56
 12203 0f1d 00000000 		.4byte	0
 12204 0f21 00000000 		.4byte	0
 12205              	.LLST133:
 12206 0f25 72000000 		.4byte	.LVL291
 12207 0f29 DC000000 		.4byte	.LVL309
ARM GAS  C:\Users\strap\AppData\Local\Temp\cc7wbcEe.s 			page 243


 12208 0f2d 0100     		.2byte	0x1
 12209 0f2f 57       		.byte	0x57
 12210 0f30 DE000000 		.4byte	.LVL310
 12211 0f34 A8010000 		.4byte	.LVL342
 12212 0f38 0100     		.2byte	0x1
 12213 0f3a 57       		.byte	0x57
 12214 0f3b A8010000 		.4byte	.LVL342
 12215 0f3f AC010000 		.4byte	.LVL343
 12216 0f43 0100     		.2byte	0x1
 12217 0f45 53       		.byte	0x53
 12218 0f46 AC010000 		.4byte	.LVL343
 12219 0f4a B0010000 		.4byte	.LVL344
 12220 0f4e 0900     		.2byte	0x9
 12221 0f50 77       		.byte	0x77
 12222 0f51 00       		.sleb128 0
 12223 0f52 7B       		.byte	0x7b
 12224 0f53 00       		.sleb128 0
 12225 0f54 79       		.byte	0x79
 12226 0f55 00       		.sleb128 0
 12227 0f56 1E       		.byte	0x1e
 12228 0f57 1C       		.byte	0x1c
 12229 0f58 9F       		.byte	0x9f
 12230 0f59 B0010000 		.4byte	.LVL344
 12231 0f5d B4010000 		.4byte	.LVL345
 12232 0f61 0900     		.2byte	0x9
 12233 0f63 77       		.byte	0x77
 12234 0f64 00       		.sleb128 0
 12235 0f65 79       		.byte	0x79
 12236 0f66 01       		.sleb128 1
 12237 0f67 7B       		.byte	0x7b
 12238 0f68 00       		.sleb128 0
 12239 0f69 1E       		.byte	0x1e
 12240 0f6a 1C       		.byte	0x1c
 12241 0f6b 9F       		.byte	0x9f
 12242 0f6c 00000000 		.4byte	0
 12243 0f70 00000000 		.4byte	0
 12244              	.LLST134:
 12245 0f74 72000000 		.4byte	.LVL291
 12246 0f78 7E000000 		.4byte	.LVL292
 12247 0f7c 0200     		.2byte	0x2
 12248 0f7e 30       		.byte	0x30
 12249 0f7f 9F       		.byte	0x9f
 12250 0f80 7E000000 		.4byte	.LVL292
 12251 0f84 C6000000 		.4byte	.LVL302
 12252 0f88 0100     		.2byte	0x1
 12253 0f8a 55       		.byte	0x55
 12254 0f8b C6000000 		.4byte	.LVL302
 12255 0f8f D3000000 		.4byte	.LVL305-1
 12256 0f93 0100     		.2byte	0x1
 12257 0f95 53       		.byte	0x53
 12258 0f96 D3000000 		.4byte	.LVL305-1
 12259 0f9a D8000000 		.4byte	.LVL307
 12260 0f9e 0100     		.2byte	0x1
 12261 0fa0 59       		.byte	0x59
 12262 0fa1 D8000000 		.4byte	.LVL307
 12263 0fa5 2C010000 		.4byte	.LVL324
 12264 0fa9 0100     		.2byte	0x1
ARM GAS  C:\Users\strap\AppData\Local\Temp\cc7wbcEe.s 			page 244


 12265 0fab 55       		.byte	0x55
 12266 0fac 2C010000 		.4byte	.LVL324
 12267 0fb0 30010000 		.4byte	.LVL326
 12268 0fb4 0100     		.2byte	0x1
 12269 0fb6 53       		.byte	0x53
 12270 0fb7 30010000 		.4byte	.LVL326
 12271 0fbb 34010000 		.4byte	.LVL327
 12272 0fbf 0100     		.2byte	0x1
 12273 0fc1 55       		.byte	0x55
 12274 0fc2 34010000 		.4byte	.LVL327
 12275 0fc6 36010000 		.4byte	.LVL328
 12276 0fca 0100     		.2byte	0x1
 12277 0fcc 53       		.byte	0x53
 12278 0fcd 36010000 		.4byte	.LVL328
 12279 0fd1 B0010000 		.4byte	.LVL344
 12280 0fd5 0100     		.2byte	0x1
 12281 0fd7 59       		.byte	0x59
 12282 0fd8 B0010000 		.4byte	.LVL344
 12283 0fdc B4010000 		.4byte	.LVL345
 12284 0fe0 0300     		.2byte	0x3
 12285 0fe2 79       		.byte	0x79
 12286 0fe3 01       		.sleb128 1
 12287 0fe4 9F       		.byte	0x9f
 12288 0fe5 00000000 		.4byte	0
 12289 0fe9 00000000 		.4byte	0
 12290              	.LLST135:
 12291 0fed 9C000000 		.4byte	.LVL296
 12292 0ff1 BC000000 		.4byte	.LVL300
 12293 0ff5 0100     		.2byte	0x1
 12294 0ff7 58       		.byte	0x58
 12295 0ff8 BC000000 		.4byte	.LVL300
 12296 0ffc BE000000 		.4byte	.LVL301
 12297 1000 0100     		.2byte	0x1
 12298 1002 53       		.byte	0x53
 12299 1003 BE000000 		.4byte	.LVL301
 12300 1007 D0000000 		.4byte	.LVL304
 12301 100b 0100     		.2byte	0x1
 12302 100d 50       		.byte	0x50
 12303 100e D8000000 		.4byte	.LVL307
 12304 1012 DA000000 		.4byte	.LVL308
 12305 1016 0100     		.2byte	0x1
 12306 1018 50       		.byte	0x50
 12307 1019 00000000 		.4byte	0
 12308 101d 00000000 		.4byte	0
 12309              	.LLST136:
 12310 1021 E6000000 		.4byte	.LVL312
 12311 1025 04010000 		.4byte	.LVL316
 12312 1029 0100     		.2byte	0x1
 12313 102b 58       		.byte	0x58
 12314 102c 04010000 		.4byte	.LVL316
 12315 1030 10010000 		.4byte	.LVL319
 12316 1034 0100     		.2byte	0x1
 12317 1036 50       		.byte	0x50
 12318 1037 00000000 		.4byte	0
 12319 103b 00000000 		.4byte	0
 12320              	.LLST137:
 12321 103f 9C000000 		.4byte	.LVL296
ARM GAS  C:\Users\strap\AppData\Local\Temp\cc7wbcEe.s 			page 245


 12322 1043 A6000000 		.4byte	.LVL297
 12323 1047 0200     		.2byte	0x2
 12324 1049 30       		.byte	0x30
 12325 104a 9F       		.byte	0x9f
 12326 104b 00000000 		.4byte	0
 12327 104f 00000000 		.4byte	0
 12328              	.LLST138:
 12329 1053 9C000000 		.4byte	.LVL296
 12330 1057 A6000000 		.4byte	.LVL297
 12331 105b 0100     		.2byte	0x1
 12332 105d 54       		.byte	0x54
 12333 105e 00000000 		.4byte	0
 12334 1062 00000000 		.4byte	0
 12335              	.LLST139:
 12336 1066 AC000000 		.4byte	.LVL298
 12337 106a B6000000 		.4byte	.LVL299
 12338 106e 0200     		.2byte	0x2
 12339 1070 30       		.byte	0x30
 12340 1071 9F       		.byte	0x9f
 12341 1072 00000000 		.4byte	0
 12342 1076 00000000 		.4byte	0
 12343              	.LLST140:
 12344 107a AC000000 		.4byte	.LVL298
 12345 107e B6000000 		.4byte	.LVL299
 12346 1082 0100     		.2byte	0x1
 12347 1084 54       		.byte	0x54
 12348 1085 00000000 		.4byte	0
 12349 1089 00000000 		.4byte	0
 12350              	.LLST141:
 12351 108d E6000000 		.4byte	.LVL312
 12352 1091 F0000000 		.4byte	.LVL313
 12353 1095 0200     		.2byte	0x2
 12354 1097 30       		.byte	0x30
 12355 1098 9F       		.byte	0x9f
 12356 1099 00000000 		.4byte	0
 12357 109d 00000000 		.4byte	0
 12358              	.LLST142:
 12359 10a1 E6000000 		.4byte	.LVL312
 12360 10a5 F0000000 		.4byte	.LVL313
 12361 10a9 0100     		.2byte	0x1
 12362 10ab 54       		.byte	0x54
 12363 10ac 00000000 		.4byte	0
 12364 10b0 00000000 		.4byte	0
 12365              	.LLST143:
 12366 10b4 F6000000 		.4byte	.LVL314
 12367 10b8 00010000 		.4byte	.LVL315
 12368 10bc 0200     		.2byte	0x2
 12369 10be 30       		.byte	0x30
 12370 10bf 9F       		.byte	0x9f
 12371 10c0 00000000 		.4byte	0
 12372 10c4 00000000 		.4byte	0
 12373              	.LLST144:
 12374 10c8 F6000000 		.4byte	.LVL314
 12375 10cc 00010000 		.4byte	.LVL315
 12376 10d0 0100     		.2byte	0x1
 12377 10d2 54       		.byte	0x54
 12378 10d3 00000000 		.4byte	0
ARM GAS  C:\Users\strap\AppData\Local\Temp\cc7wbcEe.s 			page 246


 12379 10d7 00000000 		.4byte	0
 12380              	.LLST145:
 12381 10db 42010000 		.4byte	.LVL329
 12382 10df 4C010000 		.4byte	.LVL330
 12383 10e3 0200     		.2byte	0x2
 12384 10e5 30       		.byte	0x30
 12385 10e6 9F       		.byte	0x9f
 12386 10e7 00000000 		.4byte	0
 12387 10eb 00000000 		.4byte	0
 12388              	.LLST146:
 12389 10ef 42010000 		.4byte	.LVL329
 12390 10f3 4C010000 		.4byte	.LVL330
 12391 10f7 0100     		.2byte	0x1
 12392 10f9 54       		.byte	0x54
 12393 10fa 00000000 		.4byte	0
 12394 10fe 00000000 		.4byte	0
 12395              	.LLST147:
 12396 1102 6C010000 		.4byte	.LVL335
 12397 1106 76010000 		.4byte	.LVL336
 12398 110a 0200     		.2byte	0x2
 12399 110c 30       		.byte	0x30
 12400 110d 9F       		.byte	0x9f
 12401 110e 00000000 		.4byte	0
 12402 1112 00000000 		.4byte	0
 12403              	.LLST148:
 12404 1116 6C010000 		.4byte	.LVL335
 12405 111a 76010000 		.4byte	.LVL336
 12406 111e 0100     		.2byte	0x1
 12407 1120 54       		.byte	0x54
 12408 1121 00000000 		.4byte	0
 12409 1125 00000000 		.4byte	0
 12410              	.LLST149:
 12411 1129 82010000 		.4byte	.LVL339
 12412 112d 8C010000 		.4byte	.LVL340
 12413 1131 0200     		.2byte	0x2
 12414 1133 30       		.byte	0x30
 12415 1134 9F       		.byte	0x9f
 12416 1135 00000000 		.4byte	0
 12417 1139 00000000 		.4byte	0
 12418              	.LLST150:
 12419 113d 82010000 		.4byte	.LVL339
 12420 1141 8C010000 		.4byte	.LVL340
 12421 1145 0100     		.2byte	0x1
 12422 1147 55       		.byte	0x55
 12423 1148 00000000 		.4byte	0
 12424 114c 00000000 		.4byte	0
 12425              	.LLST151:
 12426 1150 B8010000 		.4byte	.LVL346
 12427 1154 DC020000 		.4byte	.LVL370
 12428 1158 0100     		.2byte	0x1
 12429 115a 57       		.byte	0x57
 12430 115b 00000000 		.4byte	0
 12431 115f 00000000 		.4byte	0
 12432              	.LLST152:
 12433 1163 B8010000 		.4byte	.LVL346
 12434 1167 DA010000 		.4byte	.LVL348
 12435 116b 0300     		.2byte	0x3
ARM GAS  C:\Users\strap\AppData\Local\Temp\cc7wbcEe.s 			page 247


 12436 116d 91       		.byte	0x91
 12437 116e B87F     		.sleb128 -72
 12438 1170 DA010000 		.4byte	.LVL348
 12439 1174 C4020000 		.4byte	.LVL366
 12440 1178 0100     		.2byte	0x1
 12441 117a 58       		.byte	0x58
 12442 117b C8020000 		.4byte	.LVL367
 12443 117f DC020000 		.4byte	.LVL370
 12444 1183 0100     		.2byte	0x1
 12445 1185 58       		.byte	0x58
 12446 1186 00000000 		.4byte	0
 12447 118a 00000000 		.4byte	0
 12448              	.LLST153:
 12449 118e DA010000 		.4byte	.LVL348
 12450 1192 DC020000 		.4byte	.LVL370
 12451 1196 0200     		.2byte	0x2
 12452 1198 91       		.byte	0x91
 12453 1199 4C       		.sleb128 -52
 12454 119a 00000000 		.4byte	0
 12455 119e 00000000 		.4byte	0
 12456              	.LLST154:
 12457 11a2 DA010000 		.4byte	.LVL348
 12458 11a6 DC020000 		.4byte	.LVL370
 12459 11aa 0200     		.2byte	0x2
 12460 11ac 91       		.byte	0x91
 12461 11ad 50       		.sleb128 -48
 12462 11ae 00000000 		.4byte	0
 12463 11b2 00000000 		.4byte	0
 12464              	.LLST155:
 12465 11b6 F0010000 		.4byte	.LVL351
 12466 11ba FC010000 		.4byte	.LVL353
 12467 11be 0200     		.2byte	0x2
 12468 11c0 30       		.byte	0x30
 12469 11c1 9F       		.byte	0x9f
 12470 11c2 00000000 		.4byte	0
 12471 11c6 00000000 		.4byte	0
 12472              	.LLST156:
 12473 11ca F0010000 		.4byte	.LVL351
 12474 11ce FC010000 		.4byte	.LVL353
 12475 11d2 0100     		.2byte	0x1
 12476 11d4 55       		.byte	0x55
 12477 11d5 00000000 		.4byte	0
 12478 11d9 00000000 		.4byte	0
 12479              	.LLST157:
 12480 11dd FC010000 		.4byte	.LVL353
 12481 11e1 08020000 		.4byte	.LVL355
 12482 11e5 0200     		.2byte	0x2
 12483 11e7 30       		.byte	0x30
 12484 11e8 9F       		.byte	0x9f
 12485 11e9 00000000 		.4byte	0
 12486 11ed 00000000 		.4byte	0
 12487              	.LLST158:
 12488 11f1 FC010000 		.4byte	.LVL353
 12489 11f5 08020000 		.4byte	.LVL355
 12490 11f9 0100     		.2byte	0x1
 12491 11fb 55       		.byte	0x55
 12492 11fc 00000000 		.4byte	0
ARM GAS  C:\Users\strap\AppData\Local\Temp\cc7wbcEe.s 			page 248


 12493 1200 00000000 		.4byte	0
 12494              	.LLST159:
 12495 1204 1C020000 		.4byte	.LVL356
 12496 1208 26020000 		.4byte	.LVL357
 12497 120c 0200     		.2byte	0x2
 12498 120e 30       		.byte	0x30
 12499 120f 9F       		.byte	0x9f
 12500 1210 00000000 		.4byte	0
 12501 1214 00000000 		.4byte	0
 12502              	.LLST160:
 12503 1218 1C020000 		.4byte	.LVL356
 12504 121c 26020000 		.4byte	.LVL357
 12505 1220 0100     		.2byte	0x1
 12506 1222 55       		.byte	0x55
 12507 1223 00000000 		.4byte	0
 12508 1227 00000000 		.4byte	0
 12509              	.LLST161:
 12510 122b 8A020000 		.4byte	.LVL362
 12511 122f 94020000 		.4byte	.LVL363
 12512 1233 0200     		.2byte	0x2
 12513 1235 30       		.byte	0x30
 12514 1236 9F       		.byte	0x9f
 12515 1237 00000000 		.4byte	0
 12516 123b 00000000 		.4byte	0
 12517              	.LLST162:
 12518 123f 8A020000 		.4byte	.LVL362
 12519 1243 94020000 		.4byte	.LVL363
 12520 1247 0100     		.2byte	0x1
 12521 1249 55       		.byte	0x55
 12522 124a 00000000 		.4byte	0
 12523 124e 00000000 		.4byte	0
 12524              	.LLST163:
 12525 1252 00000000 		.4byte	.LVL377
 12526 1256 09000000 		.4byte	.LVL378-1
 12527 125a 0100     		.2byte	0x1
 12528 125c 50       		.byte	0x50
 12529 125d 09000000 		.4byte	.LVL378-1
 12530 1261 6A000000 		.4byte	.LFE340
 12531 1265 0100     		.2byte	0x1
 12532 1267 54       		.byte	0x54
 12533 1268 00000000 		.4byte	0
 12534 126c 00000000 		.4byte	0
 12535              	.LLST164:
 12536 1270 14000000 		.4byte	.LVL380
 12537 1274 68000000 		.4byte	.LVL390
 12538 1278 0100     		.2byte	0x1
 12539 127a 55       		.byte	0x55
 12540 127b 00000000 		.4byte	0
 12541 127f 00000000 		.4byte	0
 12542              	.LLST165:
 12543 1283 00000000 		.4byte	.LVL391
 12544 1287 11000000 		.4byte	.LVL394-1
 12545 128b 0100     		.2byte	0x1
 12546 128d 50       		.byte	0x50
 12547 128e 11000000 		.4byte	.LVL394-1
 12548 1292 26000000 		.4byte	.LVL396
 12549 1296 0100     		.2byte	0x1
ARM GAS  C:\Users\strap\AppData\Local\Temp\cc7wbcEe.s 			page 249


 12550 1298 57       		.byte	0x57
 12551 1299 26000000 		.4byte	.LVL396
 12552 129d 2B000000 		.4byte	.LVL397-1
 12553 12a1 0100     		.2byte	0x1
 12554 12a3 50       		.byte	0x50
 12555 12a4 2B000000 		.4byte	.LVL397-1
 12556 12a8 C6000000 		.4byte	.LVL424
 12557 12ac 0100     		.2byte	0x1
 12558 12ae 57       		.byte	0x57
 12559 12af C6000000 		.4byte	.LVL424
 12560 12b3 D0000000 		.4byte	.LFE338
 12561 12b7 0400     		.2byte	0x4
 12562 12b9 F3       		.byte	0xf3
 12563 12ba 01       		.uleb128 0x1
 12564 12bb 50       		.byte	0x50
 12565 12bc 9F       		.byte	0x9f
 12566 12bd 00000000 		.4byte	0
 12567 12c1 00000000 		.4byte	0
 12568              	.LLST166:
 12569 12c5 00000000 		.4byte	.LVL391
 12570 12c9 0E000000 		.4byte	.LVL393
 12571 12cd 0100     		.2byte	0x1
 12572 12cf 51       		.byte	0x51
 12573 12d0 0E000000 		.4byte	.LVL393
 12574 12d4 26000000 		.4byte	.LVL396
 12575 12d8 0400     		.2byte	0x4
 12576 12da F3       		.byte	0xf3
 12577 12db 01       		.uleb128 0x1
 12578 12dc 51       		.byte	0x51
 12579 12dd 9F       		.byte	0x9f
 12580 12de 26000000 		.4byte	.LVL396
 12581 12e2 2B000000 		.4byte	.LVL397-1
 12582 12e6 0100     		.2byte	0x1
 12583 12e8 51       		.byte	0x51
 12584 12e9 2B000000 		.4byte	.LVL397-1
 12585 12ed D0000000 		.4byte	.LFE338
 12586 12f1 0400     		.2byte	0x4
 12587 12f3 F3       		.byte	0xf3
 12588 12f4 01       		.uleb128 0x1
 12589 12f5 51       		.byte	0x51
 12590 12f6 9F       		.byte	0x9f
 12591 12f7 00000000 		.4byte	0
 12592 12fb 00000000 		.4byte	0
 12593              	.LLST167:
 12594 12ff 00000000 		.4byte	.LVL391
 12595 1303 11000000 		.4byte	.LVL394-1
 12596 1307 0100     		.2byte	0x1
 12597 1309 52       		.byte	0x52
 12598 130a 11000000 		.4byte	.LVL394-1
 12599 130e 26000000 		.4byte	.LVL396
 12600 1312 0100     		.2byte	0x1
 12601 1314 56       		.byte	0x56
 12602 1315 26000000 		.4byte	.LVL396
 12603 1319 2B000000 		.4byte	.LVL397-1
 12604 131d 0100     		.2byte	0x1
 12605 131f 52       		.byte	0x52
 12606 1320 2B000000 		.4byte	.LVL397-1
ARM GAS  C:\Users\strap\AppData\Local\Temp\cc7wbcEe.s 			page 250


 12607 1324 C6000000 		.4byte	.LVL424
 12608 1328 0100     		.2byte	0x1
 12609 132a 56       		.byte	0x56
 12610 132b C6000000 		.4byte	.LVL424
 12611 132f D0000000 		.4byte	.LFE338
 12612 1333 0400     		.2byte	0x4
 12613 1335 F3       		.byte	0xf3
 12614 1336 01       		.uleb128 0x1
 12615 1337 52       		.byte	0x52
 12616 1338 9F       		.byte	0x9f
 12617 1339 00000000 		.4byte	0
 12618 133d 00000000 		.4byte	0
 12619              	.LLST168:
 12620 1341 2E000000 		.4byte	.LVL398
 12621 1345 3A000000 		.4byte	.LVL399
 12622 1349 0100     		.2byte	0x1
 12623 134b 50       		.byte	0x50
 12624 134c 40000000 		.4byte	.LVL401
 12625 1350 46000000 		.4byte	.LVL402
 12626 1354 0100     		.2byte	0x1
 12627 1356 50       		.byte	0x50
 12628 1357 54000000 		.4byte	.LVL405
 12629 135b 5A000000 		.4byte	.LVL406
 12630 135f 0100     		.2byte	0x1
 12631 1361 50       		.byte	0x50
 12632 1362 68000000 		.4byte	.LVL409
 12633 1366 6E000000 		.4byte	.LVL410
 12634 136a 0100     		.2byte	0x1
 12635 136c 50       		.byte	0x50
 12636 136d AC000000 		.4byte	.LVL417
 12637 1371 B2000000 		.4byte	.LVL418
 12638 1375 0100     		.2byte	0x1
 12639 1377 50       		.byte	0x50
 12640 1378 BE000000 		.4byte	.LVL421
 12641 137c C0000000 		.4byte	.LVL422
 12642 1380 0100     		.2byte	0x1
 12643 1382 50       		.byte	0x50
 12644 1383 C4000000 		.4byte	.LVL423
 12645 1387 D0000000 		.4byte	.LFE338
 12646 138b 0100     		.2byte	0x1
 12647 138d 50       		.byte	0x50
 12648 138e 00000000 		.4byte	0
 12649 1392 00000000 		.4byte	0
 12650              	.LLST169:
 12651 1396 0C000000 		.4byte	.LVL392
 12652 139a 11000000 		.4byte	.LVL394-1
 12653 139e 0100     		.2byte	0x1
 12654 13a0 52       		.byte	0x52
 12655 13a1 11000000 		.4byte	.LVL394-1
 12656 13a5 26000000 		.4byte	.LVL396
 12657 13a9 0100     		.2byte	0x1
 12658 13ab 56       		.byte	0x56
 12659 13ac BA000000 		.4byte	.LVL420
 12660 13b0 BE000000 		.4byte	.LVL421
 12661 13b4 0100     		.2byte	0x1
 12662 13b6 56       		.byte	0x56
 12663 13b7 00000000 		.4byte	0
ARM GAS  C:\Users\strap\AppData\Local\Temp\cc7wbcEe.s 			page 251


 12664 13bb 00000000 		.4byte	0
 12665              	.LLST170:
 12666 13bf 72000000 		.4byte	.LVL411
 12667 13c3 80000000 		.4byte	.LVL412
 12668 13c7 0100     		.2byte	0x1
 12669 13c9 56       		.byte	0x56
 12670 13ca 00000000 		.4byte	0
 12671 13ce 00000000 		.4byte	0
 12672              	.LLST171:
 12673 13d2 8A000000 		.4byte	.LVL413
 12674 13d6 98000000 		.4byte	.LVL414
 12675 13da 0100     		.2byte	0x1
 12676 13dc 56       		.byte	0x56
 12677 13dd 00000000 		.4byte	0
 12678 13e1 00000000 		.4byte	0
 12679              	.LLST172:
 12680 13e5 00000000 		.4byte	.LVL425
 12681 13e9 07000000 		.4byte	.LVL426-1
 12682 13ed 0100     		.2byte	0x1
 12683 13ef 50       		.byte	0x50
 12684 13f0 07000000 		.4byte	.LVL426-1
 12685 13f4 24000000 		.4byte	.LVL430
 12686 13f8 0100     		.2byte	0x1
 12687 13fa 54       		.byte	0x54
 12688 13fb 24000000 		.4byte	.LVL430
 12689 13ff 28000000 		.4byte	.LFE334
 12690 1403 0400     		.2byte	0x4
 12691 1405 F3       		.byte	0xf3
 12692 1406 01       		.uleb128 0x1
 12693 1407 50       		.byte	0x50
 12694 1408 9F       		.byte	0x9f
 12695 1409 00000000 		.4byte	0
 12696 140d 00000000 		.4byte	0
 12697              	.LLST173:
 12698 1411 1C000000 		.4byte	.LVL428
 12699 1415 1E000000 		.4byte	.LVL429
 12700 1419 0100     		.2byte	0x1
 12701 141b 50       		.byte	0x50
 12702 141c 00000000 		.4byte	0
 12703 1420 00000000 		.4byte	0
 12704              	.LLST174:
 12705 1424 00000000 		.4byte	.LVL431
 12706 1428 07000000 		.4byte	.LVL432-1
 12707 142c 0100     		.2byte	0x1
 12708 142e 50       		.byte	0x50
 12709 142f 07000000 		.4byte	.LVL432-1
 12710 1433 22000000 		.4byte	.LVL436
 12711 1437 0100     		.2byte	0x1
 12712 1439 54       		.byte	0x54
 12713 143a 22000000 		.4byte	.LVL436
 12714 143e 28000000 		.4byte	.LFE335
 12715 1442 0400     		.2byte	0x4
 12716 1444 F3       		.byte	0xf3
 12717 1445 01       		.uleb128 0x1
 12718 1446 50       		.byte	0x50
 12719 1447 9F       		.byte	0x9f
 12720 1448 00000000 		.4byte	0
ARM GAS  C:\Users\strap\AppData\Local\Temp\cc7wbcEe.s 			page 252


 12721 144c 00000000 		.4byte	0
 12722              	.LLST175:
 12723 1450 1C000000 		.4byte	.LVL434
 12724 1454 1E000000 		.4byte	.LVL435
 12725 1458 0100     		.2byte	0x1
 12726 145a 50       		.byte	0x50
 12727 145b 00000000 		.4byte	0
 12728 145f 00000000 		.4byte	0
 12729              	.LLST176:
 12730 1463 00000000 		.4byte	.LVL437
 12731 1467 07000000 		.4byte	.LVL438-1
 12732 146b 0100     		.2byte	0x1
 12733 146d 50       		.byte	0x50
 12734 146e 07000000 		.4byte	.LVL438-1
 12735 1472 24000000 		.4byte	.LVL442
 12736 1476 0100     		.2byte	0x1
 12737 1478 54       		.byte	0x54
 12738 1479 24000000 		.4byte	.LVL442
 12739 147d 28000000 		.4byte	.LFE336
 12740 1481 0400     		.2byte	0x4
 12741 1483 F3       		.byte	0xf3
 12742 1484 01       		.uleb128 0x1
 12743 1485 50       		.byte	0x50
 12744 1486 9F       		.byte	0x9f
 12745 1487 00000000 		.4byte	0
 12746 148b 00000000 		.4byte	0
 12747              	.LLST177:
 12748 148f 1C000000 		.4byte	.LVL440
 12749 1493 1E000000 		.4byte	.LVL441
 12750 1497 0100     		.2byte	0x1
 12751 1499 50       		.byte	0x50
 12752 149a 00000000 		.4byte	0
 12753 149e 00000000 		.4byte	0
 12754              	.LLST178:
 12755 14a2 00000000 		.4byte	.LVL443
 12756 14a6 07000000 		.4byte	.LVL444-1
 12757 14aa 0100     		.2byte	0x1
 12758 14ac 50       		.byte	0x50
 12759 14ad 07000000 		.4byte	.LVL444-1
 12760 14b1 24000000 		.4byte	.LVL448
 12761 14b5 0100     		.2byte	0x1
 12762 14b7 54       		.byte	0x54
 12763 14b8 24000000 		.4byte	.LVL448
 12764 14bc 28000000 		.4byte	.LFE337
 12765 14c0 0400     		.2byte	0x4
 12766 14c2 F3       		.byte	0xf3
 12767 14c3 01       		.uleb128 0x1
 12768 14c4 50       		.byte	0x50
 12769 14c5 9F       		.byte	0x9f
 12770 14c6 00000000 		.4byte	0
 12771 14ca 00000000 		.4byte	0
 12772              	.LLST179:
 12773 14ce 1C000000 		.4byte	.LVL446
 12774 14d2 1E000000 		.4byte	.LVL447
 12775 14d6 0100     		.2byte	0x1
 12776 14d8 50       		.byte	0x50
 12777 14d9 00000000 		.4byte	0
ARM GAS  C:\Users\strap\AppData\Local\Temp\cc7wbcEe.s 			page 253


 12778 14dd 00000000 		.4byte	0
 12779              		.section	.debug_aranges,"",%progbits
 12780 0000 9C000000 		.4byte	0x9c
 12781 0004 0200     		.2byte	0x2
 12782 0006 00000000 		.4byte	.Ldebug_info0
 12783 000a 04       		.byte	0x4
 12784 000b 00       		.byte	0
 12785 000c 0000     		.2byte	0
 12786 000e 0000     		.2byte	0
 12787 0010 00000000 		.4byte	.LFB339
 12788 0014 0A000000 		.4byte	.LFE339-.LFB339
 12789 0018 00000000 		.4byte	.LFB343
 12790 001c D4000000 		.4byte	.LFE343-.LFB343
 12791 0020 00000000 		.4byte	.LFB345
 12792 0024 BA000000 		.4byte	.LFE345-.LFB345
 12793 0028 00000000 		.4byte	.LFB346
 12794 002c BE030000 		.4byte	.LFE346-.LFB346
 12795 0030 00000000 		.4byte	.LFB330
 12796 0034 04010000 		.4byte	.LFE330-.LFB330
 12797 0038 00000000 		.4byte	.LFB331
 12798 003c 40000000 		.4byte	.LFE331-.LFB331
 12799 0040 00000000 		.4byte	.LFB332
 12800 0044 80000000 		.4byte	.LFE332-.LFB332
 12801 0048 00000000 		.4byte	.LFB333
 12802 004c 28000000 		.4byte	.LFE333-.LFB333
 12803 0050 00000000 		.4byte	.LFB341
 12804 0054 00010000 		.4byte	.LFE341-.LFB341
 12805 0058 00000000 		.4byte	.LFB342
 12806 005c 30010000 		.4byte	.LFE342-.LFB342
 12807 0060 00000000 		.4byte	.LFB344
 12808 0064 06030000 		.4byte	.LFE344-.LFB344
 12809 0068 00000000 		.4byte	.LFB340
 12810 006c 6A000000 		.4byte	.LFE340-.LFB340
 12811 0070 00000000 		.4byte	.LFB338
 12812 0074 D0000000 		.4byte	.LFE338-.LFB338
 12813 0078 00000000 		.4byte	.LFB334
 12814 007c 28000000 		.4byte	.LFE334-.LFB334
 12815 0080 00000000 		.4byte	.LFB335
 12816 0084 28000000 		.4byte	.LFE335-.LFB335
 12817 0088 00000000 		.4byte	.LFB336
 12818 008c 28000000 		.4byte	.LFE336-.LFB336
 12819 0090 00000000 		.4byte	.LFB337
 12820 0094 28000000 		.4byte	.LFE337-.LFB337
 12821 0098 00000000 		.4byte	0
 12822 009c 00000000 		.4byte	0
 12823              		.section	.debug_ranges,"",%progbits
 12824              	.Ldebug_ranges0:
 12825 0000 3A000000 		.4byte	.LBB127
 12826 0004 3C000000 		.4byte	.LBE127
 12827 0008 40000000 		.4byte	.LBB132
 12828 000c 4E000000 		.4byte	.LBE132
 12829 0010 00000000 		.4byte	0
 12830 0014 00000000 		.4byte	0
 12831 0018 5A030000 		.4byte	.LBB164
 12832 001c 5C030000 		.4byte	.LBE164
 12833 0020 60030000 		.4byte	.LBB169
 12834 0024 6E030000 		.4byte	.LBE169
ARM GAS  C:\Users\strap\AppData\Local\Temp\cc7wbcEe.s 			page 254


 12835 0028 00000000 		.4byte	0
 12836 002c 00000000 		.4byte	0
 12837 0030 0C000000 		.4byte	.LBB231
 12838 0034 26000000 		.4byte	.LBE231
 12839 0038 BA000000 		.4byte	.LBB236
 12840 003c C0000000 		.4byte	.LBE236
 12841 0040 00000000 		.4byte	0
 12842 0044 00000000 		.4byte	0
 12843 0048 00000000 		.4byte	.LFB339
 12844 004c 0A000000 		.4byte	.LFE339
 12845 0050 00000000 		.4byte	.LFB343
 12846 0054 D4000000 		.4byte	.LFE343
 12847 0058 00000000 		.4byte	.LFB345
 12848 005c BA000000 		.4byte	.LFE345
 12849 0060 00000000 		.4byte	.LFB346
 12850 0064 BE030000 		.4byte	.LFE346
 12851 0068 00000000 		.4byte	.LFB330
 12852 006c 04010000 		.4byte	.LFE330
 12853 0070 00000000 		.4byte	.LFB331
 12854 0074 40000000 		.4byte	.LFE331
 12855 0078 00000000 		.4byte	.LFB332
 12856 007c 80000000 		.4byte	.LFE332
 12857 0080 00000000 		.4byte	.LFB333
 12858 0084 28000000 		.4byte	.LFE333
 12859 0088 00000000 		.4byte	.LFB341
 12860 008c 00010000 		.4byte	.LFE341
 12861 0090 00000000 		.4byte	.LFB342
 12862 0094 30010000 		.4byte	.LFE342
 12863 0098 00000000 		.4byte	.LFB344
 12864 009c 06030000 		.4byte	.LFE344
 12865 00a0 00000000 		.4byte	.LFB340
 12866 00a4 6A000000 		.4byte	.LFE340
 12867 00a8 00000000 		.4byte	.LFB338
 12868 00ac D0000000 		.4byte	.LFE338
 12869 00b0 00000000 		.4byte	.LFB334
 12870 00b4 28000000 		.4byte	.LFE334
 12871 00b8 00000000 		.4byte	.LFB335
 12872 00bc 28000000 		.4byte	.LFE335
 12873 00c0 00000000 		.4byte	.LFB336
 12874 00c4 28000000 		.4byte	.LFE336
 12875 00c8 00000000 		.4byte	.LFB337
 12876 00cc 28000000 		.4byte	.LFE337
 12877 00d0 00000000 		.4byte	0
 12878 00d4 00000000 		.4byte	0
 12879              		.section	.debug_line,"",%progbits
 12880              	.Ldebug_line0:
 12881 0000 6F090000 		.section	.debug_str,"MS",%progbits,1
 12881      0200B803 
 12881      00000201 
 12881      FB0E0D00 
 12881      01010101 
 12882              	.LASF111:
 12883 0000 4C565F53 		.ascii	"LV_STYLE_VALUE_STR\000"
 12883      54594C45 
 12883      5F56414C 
 12883      55455F53 
 12883      545200
ARM GAS  C:\Users\strap\AppData\Local\Temp\cc7wbcEe.s 			page 255


 12884              	.LASF166:
 12885 0013 626F7264 		.ascii	"border_width_zero\000"
 12885      65725F77 
 12885      69647468 
 12885      5F7A6572 
 12885      6F00
 12886              	.LASF318:
 12887 0025 4C565F54 		.ascii	"LV_THEME_TABVIEW_PAGE\000"
 12887      48454D45 
 12887      5F544142 
 12887      56494557 
 12887      5F504147 
 12888              	.LASF178:
 12889 003b 6C765F6C 		.ascii	"lv_ll_node_t\000"
 12889      6C5F6E6F 
 12889      64655F74 
 12889      00
 12890              	.LASF23:
 12891 0048 73697A65 		.ascii	"size_t\000"
 12891      5F7400
 12892              	.LASF240:
 12893 004f 4C565F53 		.ascii	"LV_SIGNAL_DRAG_THROW_BEGIN\000"
 12893      49474E41 
 12893      4C5F4452 
 12893      41475F54 
 12893      48524F57 
 12894              	.LASF25:
 12895 006a 73697A65 		.ascii	"sizetype\000"
 12895      74797065 
 12895      00
 12896              	.LASF321:
 12897 0073 4C565F54 		.ascii	"LV_THEME_CUSTOM_START\000"
 12897      48454D45 
 12897      5F435553 
 12897      544F4D5F 
 12897      53544152 
 12898              	.LASF124:
 12899 0089 4C565F53 		.ascii	"LV_STYLE_LINE_DASH_GAP\000"
 12899      54594C45 
 12899      5F4C494E 
 12899      455F4441 
 12899      53485F47 
 12900              	.LASF215:
 12901 00a0 4C565F42 		.ascii	"LV_BIDI_DIR_WEAK\000"
 12901      4944495F 
 12901      4449525F 
 12901      5745414B 
 12901      00
 12902              	.LASF181:
 12903 00b1 7461696C 		.ascii	"tail\000"
 12903      00
 12904              	.LASF260:
 12905 00b6 4C565F50 		.ascii	"LV_PROTECT_POS\000"
 12905      524F5445 
 12905      43545F50 
 12905      4F5300
 12906              	.LASF226:
ARM GAS  C:\Users\strap\AppData\Local\Temp\cc7wbcEe.s 			page 256


 12907 00c5 4C565F53 		.ascii	"LV_SIGNAL_STYLE_CHG\000"
 12907      49474E41 
 12907      4C5F5354 
 12907      594C455F 
 12907      43484700 
 12908              	.LASF315:
 12909 00d9 4C565F54 		.ascii	"LV_THEME_SPINBOX\000"
 12909      48454D45 
 12909      5F535049 
 12909      4E424F58 
 12909      00
 12910              	.LASF17:
 12911 00ea 696E7433 		.ascii	"int32_t\000"
 12911      325F7400 
 12912              	.LASF330:
 12913 00f2 6C765F6F 		.ascii	"lv_obj_get_style_margin_left\000"
 12913      626A5F67 
 12913      65745F73 
 12913      74796C65 
 12913      5F6D6172 
 12914              	.LASF237:
 12915 010f 4C565F53 		.ascii	"LV_SIGNAL_LONG_PRESS\000"
 12915      49474E41 
 12915      4C5F4C4F 
 12915      4E475F50 
 12915      52455353 
 12916              	.LASF52:
 12917 0124 6C765F61 		.ascii	"lv_align_t\000"
 12917      6C69676E 
 12917      5F7400
 12918              	.LASF109:
 12919 012f 4C565F53 		.ascii	"LV_STYLE_VALUE_OPA\000"
 12919      54594C45 
 12919      5F56414C 
 12919      55455F4F 
 12919      504100
 12920              	.LASF278:
 12921 0142 4C565F4C 		.ascii	"LV_LAYOUT_ROW_TOP\000"
 12921      41594F55 
 12921      545F524F 
 12921      575F544F 
 12921      5000
 12922              	.LASF93:
 12923 0154 4C565F53 		.ascii	"LV_STYLE_SHADOW_BLEND_MODE\000"
 12923      54594C45 
 12923      5F534841 
 12923      444F575F 
 12923      424C454E 
 12924              	.LASF239:
 12925 016f 4C565F53 		.ascii	"LV_SIGNAL_DRAG_BEGIN\000"
 12925      49474E41 
 12925      4C5F4452 
 12925      41475F42 
 12925      4547494E 
 12926              	.LASF218:
 12927 0184 6C765F64 		.ascii	"lv_design_res_t\000"
 12927      65736967 
ARM GAS  C:\Users\strap\AppData\Local\Temp\cc7wbcEe.s 			page 257


 12927      6E5F7265 
 12927      735F7400 
 12928              	.LASF428:
 12929 0194 6C765F6F 		.ascii	"lv_obj_set_signal_cb\000"
 12929      626A5F73 
 12929      65745F73 
 12929      69676E61 
 12929      6C5F6362 
 12930              	.LASF159:
 12931 01a9 636C6970 		.ascii	"clip_corner_off\000"
 12931      5F636F72 
 12931      6E65725F 
 12931      6F666600 
 12932              	.LASF389:
 12933 01b9 7369676E 		.ascii	"sign\000"
 12933      00
 12934              	.LASF220:
 12935 01be 6C765F65 		.ascii	"lv_event_t\000"
 12935      76656E74 
 12935      5F7400
 12936              	.LASF429:
 12937 01c9 6C765F74 		.ascii	"lv_theme_apply\000"
 12937      68656D65 
 12937      5F617070 
 12937      6C7900
 12938              	.LASF206:
 12939 01d8 73746174 		.ascii	"state\000"
 12939      6500
 12940              	.LASF374:
 12941 01de 76706164 		.ascii	"vpad_corr\000"
 12941      5F636F72 
 12941      7200
 12942              	.LASF434:
 12943 01e8 433A5C55 		.ascii	"C:\\Users\\strap\\Documents\\Creator\\test_lvgl\\il"
 12943      73657273 
 12943      5C737472 
 12943      61705C44 
 12943      6F63756D 
 12944 0215 69393334 		.ascii	"i9341_master.cydsn\000"
 12944      315F6D61 
 12944      73746572 
 12944      2E637964 
 12944      736E00
 12945              	.LASF379:
 12946 0228 775F6F62 		.ascii	"w_obj\000"
 12946      6A00
 12947              	.LASF353:
 12948 022e 6C765F63 		.ascii	"lv_cont_refr_autofit\000"
 12948      6F6E745F 
 12948      72656672 
 12948      5F617574 
 12948      6F666974 
 12949              	.LASF305:
 12950 0243 4C565F54 		.ascii	"LV_THEME_BTN\000"
 12950      48454D45 
 12950      5F42544E 
 12950      00
ARM GAS  C:\Users\strap\AppData\Local\Temp\cc7wbcEe.s 			page 258


 12951              	.LASF401:
 12952 0250 6C765F6F 		.ascii	"lv_obj_is_protected\000"
 12952      626A5F69 
 12952      735F7072 
 12952      6F746563 
 12952      74656400 
 12953              	.LASF27:
 12954 0264 4C565F52 		.ascii	"LV_RES_INV\000"
 12954      45535F49 
 12954      4E5600
 12955              	.LASF50:
 12956 026f 4C565F41 		.ascii	"LV_ALIGN_OUT_RIGHT_MID\000"
 12956      4C49474E 
 12956      5F4F5554 
 12956      5F524947 
 12956      48545F4D 
 12957              	.LASF243:
 12958 0286 4C565F53 		.ascii	"LV_SIGNAL_LEAVE\000"
 12958      49474E41 
 12958      4C5F4C45 
 12958      41564500 
 12959              	.LASF233:
 12960 0296 4C565F53 		.ascii	"LV_SIGNAL_PRESSED\000"
 12960      49474E41 
 12960      4C5F5052 
 12960      45535345 
 12960      4400
 12961              	.LASF409:
 12962 02a8 6C765F6F 		.ascii	"lv_obj_get_width\000"
 12962      626A5F67 
 12962      65745F77 
 12962      69647468 
 12962      00
 12963              	.LASF338:
 12964 02b9 74797065 		.ascii	"type\000"
 12964      00
 12965              	.LASF78:
 12966 02be 4C565F53 		.ascii	"LV_STYLE_BORDER_WIDTH\000"
 12966      54594C45 
 12966      5F424F52 
 12966      4445525F 
 12966      57494454 
 12967              	.LASF360:
 12968 02d4 6D726967 		.ascii	"mright\000"
 12968      687400
 12969              	.LASF189:
 12970 02db 6578745F 		.ascii	"ext_attr\000"
 12970      61747472 
 12970      00
 12971              	.LASF350:
 12972 02e4 6163745F 		.ascii	"act_x\000"
 12972      7800
 12973              	.LASF351:
 12974 02ea 6163745F 		.ascii	"act_y\000"
 12974      7900
 12975              	.LASF394:
 12976 02f0 6C765F63 		.ascii	"lv_cont_get_fit_top\000"
ARM GAS  C:\Users\strap\AppData\Local\Temp\cc7wbcEe.s 			page 259


 12976      6F6E745F 
 12976      6765745F 
 12976      6669745F 
 12976      746F7000 
 12977              	.LASF316:
 12978 0304 4C565F54 		.ascii	"LV_THEME_SPINBOX_BTN\000"
 12978      48454D45 
 12978      5F535049 
 12978      4E424F58 
 12978      5F42544E 
 12979              	.LASF337:
 12980 0319 636F6E74 		.ascii	"cont\000"
 12980      00
 12981              	.LASF304:
 12982 031e 4C565F54 		.ascii	"LV_THEME_OBJ\000"
 12982      48454D45 
 12982      5F4F424A 
 12982      00
 12983              	.LASF56:
 12984 032b 4C565F53 		.ascii	"LV_STYLE_SIZE\000"
 12984      54594C45 
 12984      5F53495A 
 12984      4500
 12985              	.LASF161:
 12986 0339 7061645F 		.ascii	"pad_all_zero\000"
 12986      616C6C5F 
 12986      7A65726F 
 12986      00
 12987              	.LASF141:
 12988 0346 4C565F53 		.ascii	"LV_STYLE_SCALE_WIDTH\000"
 12988      54594C45 
 12988      5F534341 
 12988      4C455F57 
 12988      49445448 
 12989              	.LASF384:
 12990 035b 775F726F 		.ascii	"w_row\000"
 12990      7700
 12991              	.LASF365:
 12992 0361 6C765F63 		.ascii	"lv_cont_set_layout\000"
 12992      6F6E745F 
 12992      7365745F 
 12992      6C61796F 
 12992      757400
 12993              	.LASF383:
 12994 0374 685F726F 		.ascii	"h_row\000"
 12994      7700
 12995              	.LASF99:
 12996 037a 4C565F53 		.ascii	"LV_STYLE_PATTERN_OPA\000"
 12996      54594C45 
 12996      5F504154 
 12996      5445524E 
 12996      5F4F5041 
 12997              	.LASF96:
 12998 038f 4C565F53 		.ascii	"LV_STYLE_PATTERN_BLEND_MODE\000"
 12998      54594C45 
 12998      5F504154 
 12998      5445524E 
ARM GAS  C:\Users\strap\AppData\Local\Temp\cc7wbcEe.s 			page 260


 12998      5F424C45 
 12999              	.LASF2:
 13000 03ab 5F5F7569 		.ascii	"__uint8_t\000"
 13000      6E74385F 
 13000      7400
 13001              	.LASF54:
 13002 03b5 4C565F53 		.ascii	"LV_STYLE_RADIUS\000"
 13002      54594C45 
 13002      5F524144 
 13002      49555300 
 13003              	.LASF271:
 13004 03c5 72657375 		.ascii	"result\000"
 13004      6C7400
 13005              	.LASF294:
 13006 03cc 6669745F 		.ascii	"fit_left\000"
 13006      6C656674 
 13006      00
 13007              	.LASF95:
 13008 03d5 4C565F53 		.ascii	"LV_STYLE_SHADOW_OPA\000"
 13008      54594C45 
 13008      5F534841 
 13008      444F575F 
 13008      4F504100 
 13009              	.LASF58:
 13010 03e9 4C565F53 		.ascii	"LV_STYLE_TRANSFORM_HEIGHT\000"
 13010      54594C45 
 13010      5F545241 
 13010      4E53464F 
 13010      524D5F48 
 13011              	.LASF231:
 13012 0403 4C565F53 		.ascii	"LV_SIGNAL_GET_STATE_DSC\000"
 13012      49474E41 
 13012      4C5F4745 
 13012      545F5354 
 13012      4154455F 
 13013              	.LASF140:
 13014 041b 4C565F53 		.ascii	"LV_STYLE_TRANSITION_PATH\000"
 13014      54594C45 
 13014      5F545241 
 13014      4E534954 
 13014      494F4E5F 
 13015              	.LASF65:
 13016 0434 4C565F53 		.ascii	"LV_STYLE_PAD_RIGHT\000"
 13016      54594C45 
 13016      5F504144 
 13016      5F524947 
 13016      485400
 13017              	.LASF197:
 13018 0447 68696464 		.ascii	"hidden\000"
 13018      656E00
 13019              	.LASF7:
 13020 044e 6C6F6E67 		.ascii	"long int\000"
 13020      20696E74 
 13020      00
 13021              	.LASF146:
 13022 0457 4C565F53 		.ascii	"LV_STYLE_SCALE_END_COLOR\000"
 13022      54594C45 
ARM GAS  C:\Users\strap\AppData\Local\Temp\cc7wbcEe.s 			page 261


 13022      5F534341 
 13022      4C455F45 
 13022      4E445F43 
 13023              	.LASF398:
 13024 0470 5F6C765F 		.ascii	"_lv_obj_get_style_int\000"
 13024      6F626A5F 
 13024      6765745F 
 13024      7374796C 
 13024      655F696E 
 13025              	.LASF264:
 13026 0486 6C765F73 		.ascii	"lv_state_t\000"
 13026      74617465 
 13026      5F7400
 13027              	.LASF280:
 13028 0491 4C565F4C 		.ascii	"LV_LAYOUT_ROW_BOTTOM\000"
 13028      41594F55 
 13028      545F524F 
 13028      575F424F 
 13028      54544F4D 
 13029              	.LASF425:
 13030 04a6 6C765F6F 		.ascii	"lv_obj_get_design_cb\000"
 13030      626A5F67 
 13030      65745F64 
 13030      65736967 
 13030      6E5F6362 
 13031              	.LASF36:
 13032 04bb 4C565F41 		.ascii	"LV_ALIGN_IN_BOTTOM_MID\000"
 13032      4C49474E 
 13032      5F494E5F 
 13032      424F5454 
 13032      4F4D5F4D 
 13033              	.LASF267:
 13034 04d2 5F4C565F 		.ascii	"_LV_OBJ_PART_VIRTUAL_LAST\000"
 13034      4F424A5F 
 13034      50415254 
 13034      5F564952 
 13034      5455414C 
 13035              	.LASF290:
 13036 04ec 4C565F46 		.ascii	"LV_FIT_MAX\000"
 13036      49545F4D 
 13036      415800
 13037              	.LASF363:
 13038 04f7 636F7079 		.ascii	"copy\000"
 13038      00
 13039              	.LASF335:
 13040 04fc 61726561 		.ascii	"area_p\000"
 13040      5F7000
 13041              	.LASF156:
 13042 0503 69676E6F 		.ascii	"ignore_cache\000"
 13042      72655F63 
 13042      61636865 
 13042      00
 13043              	.LASF160:
 13044 0510 7472616E 		.ascii	"transform_all_zero\000"
 13044      73666F72 
 13044      6D5F616C 
 13044      6C5F7A65 
ARM GAS  C:\Users\strap\AppData\Local\Temp\cc7wbcEe.s 			page 262


 13044      726F00
 13045              	.LASF432:
 13046 0523 474E5520 		.ascii	"GNU C11 5.4.1 20160609 (release) [ARM/embedded-5-br"
 13046      43313120 
 13046      352E342E 
 13046      31203230 
 13046      31363036 
 13047 0556 616E6368 		.ascii	"anch revision 237715] -mcpu=cortex-m3 -mthumb -g -O"
 13047      20726576 
 13047      6973696F 
 13047      6E203233 
 13047      37373135 
 13048 0589 67202D66 		.ascii	"g -ffunction-sections -ffat-lto-objects\000"
 13048      66756E63 
 13048      74696F6E 
 13048      2D736563 
 13048      74696F6E 
 13049              	.LASF180:
 13050 05b1 68656164 		.ascii	"head\000"
 13050      00
 13051              	.LASF149:
 13052 05b6 7374796C 		.ascii	"style_list\000"
 13052      655F6C69 
 13052      737400
 13053              	.LASF83:
 13054 05c1 4C565F53 		.ascii	"LV_STYLE_BORDER_OPA\000"
 13054      54594C45 
 13054      5F424F52 
 13054      4445525F 
 13054      4F504100 
 13055              	.LASF162:
 13056 05d5 6D617267 		.ascii	"margin_all_zero\000"
 13056      696E5F61 
 13056      6C6C5F7A 
 13056      65726F00 
 13057              	.LASF134:
 13058 05e5 4C565F53 		.ascii	"LV_STYLE_TRANSITION_PROP_1\000"
 13058      54594C45 
 13058      5F545241 
 13058      4E534954 
 13058      494F4E5F 
 13059              	.LASF135:
 13060 0600 4C565F53 		.ascii	"LV_STYLE_TRANSITION_PROP_2\000"
 13060      54594C45 
 13060      5F545241 
 13060      4E534954 
 13060      494F4E5F 
 13061              	.LASF136:
 13062 061b 4C565F53 		.ascii	"LV_STYLE_TRANSITION_PROP_3\000"
 13062      54594C45 
 13062      5F545241 
 13062      4E534954 
 13062      494F4E5F 
 13063              	.LASF137:
 13064 0636 4C565F53 		.ascii	"LV_STYLE_TRANSITION_PROP_4\000"
 13064      54594C45 
 13064      5F545241 
ARM GAS  C:\Users\strap\AppData\Local\Temp\cc7wbcEe.s 			page 263


 13064      4E534954 
 13064      494F4E5F 
 13065              	.LASF138:
 13066 0651 4C565F53 		.ascii	"LV_STYLE_TRANSITION_PROP_5\000"
 13066      54594C45 
 13066      5F545241 
 13066      4E534954 
 13066      494F4E5F 
 13067              	.LASF139:
 13068 066c 4C565F53 		.ascii	"LV_STYLE_TRANSITION_PROP_6\000"
 13068      54594C45 
 13068      5F545241 
 13068      4E534954 
 13068      494F4E5F 
 13069              	.LASF70:
 13070 0687 4C565F53 		.ascii	"LV_STYLE_MARGIN_RIGHT\000"
 13070      54594C45 
 13070      5F4D4152 
 13070      47494E5F 
 13070      52494748 
 13071              	.LASF325:
 13072 069d 6C765F6F 		.ascii	"lv_obj_get_style_pad_top\000"
 13072      626A5F67 
 13072      65745F73 
 13072      74796C65 
 13072      5F706164 
 13073              	.LASF419:
 13074 06b6 6C765F6F 		.ascii	"lv_obj_realign\000"
 13074      626A5F72 
 13074      65616C69 
 13074      676E00
 13075              	.LASF94:
 13076 06c5 4C565F53 		.ascii	"LV_STYLE_SHADOW_COLOR\000"
 13076      54594C45 
 13076      5F534841 
 13076      444F575F 
 13076      434F4C4F 
 13077              	.LASF393:
 13078 06db 6C765F63 		.ascii	"lv_cont_get_fit_right\000"
 13078      6F6E745F 
 13078      6765745F 
 13078      6669745F 
 13078      72696768 
 13079              	.LASF148:
 13080 06f1 6C765F73 		.ascii	"lv_style_int_t\000"
 13080      74796C65 
 13080      5F696E74 
 13080      5F7400
 13081              	.LASF150:
 13082 0700 7374796C 		.ascii	"style_cnt\000"
 13082      655F636E 
 13082      7400
 13083              	.LASF155:
 13084 070a 76616C69 		.ascii	"valid_cache\000"
 13084      645F6361 
 13084      63686500 
 13085              	.LASF408:
ARM GAS  C:\Users\strap\AppData\Local\Temp\cc7wbcEe.s 			page 264


 13086 0716 6C765F6F 		.ascii	"lv_obj_clear_protect\000"
 13086      626A5F63 
 13086      6C656172 
 13086      5F70726F 
 13086      74656374 
 13087              	.LASF0:
 13088 072b 7369676E 		.ascii	"signed char\000"
 13088      65642063 
 13088      68617200 
 13089              	.LASF15:
 13090 0737 75696E74 		.ascii	"uint8_t\000"
 13090      385F7400 
 13091              	.LASF296:
 13092 073f 6669745F 		.ascii	"fit_top\000"
 13092      746F7000 
 13093              	.LASF74:
 13094 0747 4C565F53 		.ascii	"LV_STYLE_BG_GRAD_DIR\000"
 13094      54594C45 
 13094      5F42475F 
 13094      47524144 
 13094      5F444952 
 13095              	.LASF103:
 13096 075c 4C565F53 		.ascii	"LV_STYLE_VALUE_LINE_SPACE\000"
 13096      54594C45 
 13096      5F56414C 
 13096      55455F4C 
 13096      494E455F 
 13097              	.LASF285:
 13098 0776 5F4C565F 		.ascii	"_LV_LAYOUT_LAST\000"
 13098      4C41594F 
 13098      55545F4C 
 13098      41535400 
 13099              	.LASF238:
 13100 0786 4C565F53 		.ascii	"LV_SIGNAL_LONG_PRESS_REP\000"
 13100      49474E41 
 13100      4C5F4C4F 
 13100      4E475F50 
 13100      52455353 
 13101              	.LASF130:
 13102 079f 4C565F53 		.ascii	"LV_STYLE_IMAGE_OPA\000"
 13102      54594C45 
 13102      5F494D41 
 13102      47455F4F 
 13102      504100
 13103              	.LASF1:
 13104 07b2 756E7369 		.ascii	"unsigned char\000"
 13104      676E6564 
 13104      20636861 
 13104      7200
 13105              	.LASF228:
 13106 07c0 4C565F53 		.ascii	"LV_SIGNAL_REFR_EXT_DRAW_PAD\000"
 13106      49474E41 
 13106      4C5F5245 
 13106      46525F45 
 13106      58545F44 
 13107              	.LASF202:
 13108 07dc 64726167 		.ascii	"drag_dir\000"
ARM GAS  C:\Users\strap\AppData\Local\Temp\cc7wbcEe.s 			page 265


 13108      5F646972 
 13108      00
 13109              	.LASF259:
 13110 07e5 4C565F50 		.ascii	"LV_PROTECT_PARENT\000"
 13110      524F5445 
 13110      43545F50 
 13110      4152454E 
 13110      5400
 13111              	.LASF57:
 13112 07f7 4C565F53 		.ascii	"LV_STYLE_TRANSFORM_WIDTH\000"
 13112      54594C45 
 13112      5F545241 
 13112      4E53464F 
 13112      524D5F57 
 13113              	.LASF142:
 13114 0810 4C565F53 		.ascii	"LV_STYLE_SCALE_BORDER_WIDTH\000"
 13114      54594C45 
 13114      5F534341 
 13114      4C455F42 
 13114      4F524445 
 13115              	.LASF193:
 13116 082c 636C6963 		.ascii	"click\000"
 13116      6B00
 13117              	.LASF201:
 13118 0832 666F6375 		.ascii	"focus_parent\000"
 13118      735F7061 
 13118      72656E74 
 13118      00
 13119              	.LASF281:
 13120 083f 4C565F4C 		.ascii	"LV_LAYOUT_PRETTY_TOP\000"
 13120      41594F55 
 13120      545F5052 
 13120      45545459 
 13120      5F544F50 
 13121              	.LASF299:
 13122 0854 4C565F43 		.ascii	"LV_CONT_PART_MAIN\000"
 13122      4F4E545F 
 13122      50415254 
 13122      5F4D4149 
 13122      4E00
 13123              	.LASF190:
 13124 0866 6578745F 		.ascii	"ext_click_pad_hor\000"
 13124      636C6963 
 13124      6B5F7061 
 13124      645F686F 
 13124      7200
 13125              	.LASF53:
 13126 0878 5F426F6F 		.ascii	"_Bool\000"
 13126      6C00
 13127              	.LASF249:
 13128 087e 6C765F73 		.ascii	"lv_signal_cb_t\000"
 13128      69676E61 
 13128      6C5F6362 
 13128      5F7400
 13129              	.LASF171:
 13130 088d 73686164 		.ascii	"shadow_width_zero\000"
 13130      6F775F77 
ARM GAS  C:\Users\strap\AppData\Local\Temp\cc7wbcEe.s 			page 266


 13130      69647468 
 13130      5F7A6572 
 13130      6F00
 13131              	.LASF26:
 13132 089f 63686172 		.ascii	"char\000"
 13132      00
 13133              	.LASF436:
 13134 08a4 6C765F61 		.ascii	"lv_area_copy\000"
 13134      7265615F 
 13134      636F7079 
 13134      00
 13135              	.LASF200:
 13136 08b1 67657374 		.ascii	"gesture_parent\000"
 13136      7572655F 
 13136      70617265 
 13136      6E7400
 13137              	.LASF145:
 13138 08c0 4C565F53 		.ascii	"LV_STYLE_SCALE_GRAD_COLOR\000"
 13138      54594C45 
 13138      5F534341 
 13138      4C455F47 
 13138      5241445F 
 13139              	.LASF272:
 13140 08da 6C765F67 		.ascii	"lv_get_style_info_t\000"
 13140      65745F73 
 13140      74796C65 
 13140      5F696E66 
 13140      6F5F7400 
 13141              	.LASF129:
 13142 08ee 4C565F53 		.ascii	"LV_STYLE_IMAGE_RECOLOR\000"
 13142      54594C45 
 13142      5F494D41 
 13142      47455F52 
 13142      45434F4C 
 13143              	.LASF98:
 13144 0905 4C565F53 		.ascii	"LV_STYLE_PATTERN_RECOLOR\000"
 13144      54594C45 
 13144      5F504154 
 13144      5445524E 
 13144      5F524543 
 13145              	.LASF252:
 13146 091e 796F6673 		.ascii	"yofs\000"
 13146      00
 13147              	.LASF406:
 13148 0923 6C765F6F 		.ascii	"lv_obj_align\000"
 13148      626A5F61 
 13148      6C69676E 
 13148      00
 13149              	.LASF88:
 13150 0930 4C565F53 		.ascii	"LV_STYLE_OUTLINE_OPA\000"
 13150      54594C45 
 13150      5F4F5554 
 13150      4C494E45 
 13150      5F4F5041 
 13151              	.LASF413:
 13152 0945 6C765F6F 		.ascii	"lv_obj_get_ext_attr\000"
 13152      626A5F67 
ARM GAS  C:\Users\strap\AppData\Local\Temp\cc7wbcEe.s 			page 267


 13152      65745F65 
 13152      78745F61 
 13152      74747200 
 13153              	.LASF47:
 13154 0959 4C565F41 		.ascii	"LV_ALIGN_OUT_LEFT_MID\000"
 13154      4C49474E 
 13154      5F4F5554 
 13154      5F4C4546 
 13154      545F4D49 
 13155              	.LASF75:
 13156 096f 4C565F53 		.ascii	"LV_STYLE_BG_COLOR\000"
 13156      54594C45 
 13156      5F42475F 
 13156      434F4C4F 
 13156      5200
 13157              	.LASF232:
 13158 0981 4C565F53 		.ascii	"LV_SIGNAL_HIT_TEST\000"
 13158      49474E41 
 13158      4C5F4849 
 13158      545F5445 
 13158      535400
 13159              	.LASF421:
 13160 0994 6C765F6F 		.ascii	"lv_obj_create\000"
 13160      626A5F63 
 13160      72656174 
 13160      6500
 13161              	.LASF188:
 13162 09a2 64657369 		.ascii	"design_cb\000"
 13162      676E5F63 
 13162      6200
 13163              	.LASF362:
 13164 09ac 6D626F74 		.ascii	"mbottom\000"
 13164      746F6D00 
 13165              	.LASF245:
 13166 09b4 4C565F53 		.ascii	"LV_SIGNAL_DEFOCUS\000"
 13166      49474E41 
 13166      4C5F4445 
 13166      464F4355 
 13166      5300
 13167              	.LASF123:
 13168 09c6 4C565F53 		.ascii	"LV_STYLE_LINE_DASH_WIDTH\000"
 13168      54594C45 
 13168      5F4C494E 
 13168      455F4441 
 13168      53485F57 
 13169              	.LASF86:
 13170 09df 4C565F53 		.ascii	"LV_STYLE_OUTLINE_BLEND_MODE\000"
 13170      54594C45 
 13170      5F4F5554 
 13170      4C494E45 
 13170      5F424C45 
 13171              	.LASF277:
 13172 09fb 4C565F4C 		.ascii	"LV_LAYOUT_COLUMN_RIGHT\000"
 13172      41594F55 
 13172      545F434F 
 13172      4C554D4E 
 13172      5F524947 
ARM GAS  C:\Users\strap\AppData\Local\Temp\cc7wbcEe.s 			page 268


 13173              	.LASF366:
 13174 0a12 6C765F63 		.ascii	"lv_cont_set_fit4\000"
 13174      6F6E745F 
 13174      7365745F 
 13174      66697434 
 13174      00
 13175              	.LASF167:
 13176 0a23 626F7264 		.ascii	"border_side_full\000"
 13176      65725F73 
 13176      6964655F 
 13176      66756C6C 
 13176      00
 13177              	.LASF204:
 13178 0a34 67726F75 		.ascii	"group_p\000"
 13178      705F7000 
 13179              	.LASF105:
 13180 0a3c 4C565F53 		.ascii	"LV_STYLE_VALUE_OFS_X\000"
 13180      54594C45 
 13180      5F56414C 
 13180      55455F4F 
 13180      46535F58 
 13181              	.LASF106:
 13182 0a51 4C565F53 		.ascii	"LV_STYLE_VALUE_OFS_Y\000"
 13182      54594C45 
 13182      5F56414C 
 13182      55455F4F 
 13182      46535F59 
 13183              	.LASF195:
 13184 0a66 64726167 		.ascii	"drag_throw\000"
 13184      5F746872 
 13184      6F7700
 13185              	.LASF164:
 13186 0a71 62675F6F 		.ascii	"bg_opa_transp\000"
 13186      70615F74 
 13186      72616E73 
 13186      7000
 13187              	.LASF216:
 13188 0a7f 6C765F62 		.ascii	"lv_bidi_dir_t\000"
 13188      6964695F 
 13188      6469725F 
 13188      7400
 13189              	.LASF170:
 13190 0a8d 70617474 		.ascii	"pattern_img_null\000"
 13190      65726E5F 
 13190      696D675F 
 13190      6E756C6C 
 13190      00
 13191              	.LASF192:
 13192 0a9e 6578745F 		.ascii	"ext_draw_pad\000"
 13192      64726177 
 13192      5F706164 
 13192      00
 13193              	.LASF60:
 13194 0aab 4C565F53 		.ascii	"LV_STYLE_TRANSFORM_ZOOM\000"
 13194      54594C45 
 13194      5F545241 
 13194      4E53464F 
ARM GAS  C:\Users\strap\AppData\Local\Temp\cc7wbcEe.s 			page 269


 13194      524D5F5A 
 13195              	.LASF326:
 13196 0ac3 6C765F6F 		.ascii	"lv_obj_get_style_pad_left\000"
 13196      626A5F67 
 13196      65745F73 
 13196      74796C65 
 13196      5F706164 
 13197              	.LASF30:
 13198 0add 6C765F61 		.ascii	"lv_area_t\000"
 13198      7265615F 
 13198      7400
 13199              	.LASF395:
 13200 0ae7 6C765F63 		.ascii	"lv_cont_get_fit_bottom\000"
 13200      6F6E745F 
 13200      6765745F 
 13200      6669745F 
 13200      626F7474 
 13201              	.LASF364:
 13202 0afe 636F7079 		.ascii	"copy_ext\000"
 13202      5F657874 
 13202      00
 13203              	.LASF84:
 13204 0b07 4C565F53 		.ascii	"LV_STYLE_OUTLINE_WIDTH\000"
 13204      54594C45 
 13204      5F4F5554 
 13204      4C494E45 
 13204      5F574944 
 13205              	.LASF309:
 13206 0b1e 4C565F54 		.ascii	"LV_THEME_DROPDOWN\000"
 13206      48454D45 
 13206      5F44524F 
 13206      50444F57 
 13206      4E00
 13207              	.LASF433:
 13208 0b30 6C76676C 		.ascii	"lvgl\\src\\lv_widgets\\lv_cont.c\000"
 13208      5C737263 
 13208      5C6C765F 
 13208      77696467 
 13208      6574735C 
 13209              	.LASF213:
 13210 0b4e 4C565F42 		.ascii	"LV_BIDI_DIR_INHERIT\000"
 13210      4944495F 
 13210      4449525F 
 13210      494E4845 
 13210      52495400 
 13211              	.LASF308:
 13212 0b62 4C565F54 		.ascii	"LV_THEME_CONT\000"
 13212      48454D45 
 13212      5F434F4E 
 13212      5400
 13213              	.LASF113:
 13214 0b70 4C565F53 		.ascii	"LV_STYLE_TEXT_LINE_SPACE\000"
 13214      54594C45 
 13214      5F544558 
 13214      545F4C49 
 13214      4E455F53 
 13215              	.LASF66:
ARM GAS  C:\Users\strap\AppData\Local\Temp\cc7wbcEe.s 			page 270


 13216 0b89 4C565F53 		.ascii	"LV_STYLE_PAD_INNER\000"
 13216      54594C45 
 13216      5F504144 
 13216      5F494E4E 
 13216      455200
 13217              	.LASF349:
 13218 0b9c 6C656674 		.ascii	"left\000"
 13218      00
 13219              	.LASF352:
 13220 0ba1 6F626A5F 		.ascii	"obj_w\000"
 13220      7700
 13221              	.LASF207:
 13222 0ba7 7265616C 		.ascii	"realign\000"
 13222      69676E00 
 13223              	.LASF388:
 13224 0baf 6C765F63 		.ascii	"lv_cont_signal\000"
 13224      6F6E745F 
 13224      7369676E 
 13224      616C00
 13225              	.LASF144:
 13226 0bbe 4C565F53 		.ascii	"LV_STYLE_SCALE_END_LINE_WIDTH\000"
 13226      54594C45 
 13226      5F534341 
 13226      4C455F45 
 13226      4E445F4C 
 13227              	.LASF118:
 13228 0bdc 4C565F53 		.ascii	"LV_STYLE_TEXT_SEL_BG_COLOR\000"
 13228      54594C45 
 13228      5F544558 
 13228      545F5345 
 13228      4C5F4247 
 13229              	.LASF37:
 13230 0bf7 4C565F41 		.ascii	"LV_ALIGN_IN_BOTTOM_RIGHT\000"
 13230      4C49474E 
 13230      5F494E5F 
 13230      424F5454 
 13230      4F4D5F52 
 13231              	.LASF45:
 13232 0c10 4C565F41 		.ascii	"LV_ALIGN_OUT_BOTTOM_RIGHT\000"
 13232      4C49474E 
 13232      5F4F5554 
 13232      5F424F54 
 13232      544F4D5F 
 13233              	.LASF143:
 13234 0c2a 4C565F53 		.ascii	"LV_STYLE_SCALE_END_BORDER_WIDTH\000"
 13234      54594C45 
 13234      5F534341 
 13234      4C455F45 
 13234      4E445F42 
 13235              	.LASF229:
 13236 0c4a 4C565F53 		.ascii	"LV_SIGNAL_GET_TYPE\000"
 13236      49474E41 
 13236      4C5F4745 
 13236      545F5459 
 13236      504500
 13237              	.LASF63:
 13238 0c5d 4C565F53 		.ascii	"LV_STYLE_PAD_BOTTOM\000"
ARM GAS  C:\Users\strap\AppData\Local\Temp\cc7wbcEe.s 			page 271


 13238      54594C45 
 13238      5F504144 
 13238      5F424F54 
 13238      544F4D00 
 13239              	.LASF289:
 13240 0c71 4C565F46 		.ascii	"LV_FIT_PARENT\000"
 13240      49545F50 
 13240      4152454E 
 13240      5400
 13241              	.LASF77:
 13242 0c7f 4C565F53 		.ascii	"LV_STYLE_BG_OPA\000"
 13242      54594C45 
 13242      5F42475F 
 13242      4F504100 
 13243              	.LASF127:
 13244 0c8f 4C565F53 		.ascii	"LV_STYLE_LINE_OPA\000"
 13244      54594C45 
 13244      5F4C494E 
 13244      455F4F50 
 13244      4100
 13245              	.LASF147:
 13246 0ca1 6C765F73 		.ascii	"lv_style_t\000"
 13246      74796C65 
 13246      5F7400
 13247              	.LASF168:
 13248 0cac 626F7264 		.ascii	"border_post_off\000"
 13248      65725F70 
 13248      6F73745F 
 13248      6F666600 
 13249              	.LASF72:
 13250 0cbc 4C565F53 		.ascii	"LV_STYLE_BG_MAIN_STOP\000"
 13250      54594C45 
 13250      5F42475F 
 13250      4D41494E 
 13250      5F53544F 
 13251              	.LASF410:
 13252 0cd2 6C765F6F 		.ascii	"lv_obj_set_pos\000"
 13252      626A5F73 
 13252      65745F70 
 13252      6F7300
 13253              	.LASF11:
 13254 0ce1 5F5F7569 		.ascii	"__uint64_t\000"
 13254      6E743634 
 13254      5F7400
 13255              	.LASF230:
 13256 0cec 4C565F53 		.ascii	"LV_SIGNAL_GET_STYLE\000"
 13256      49474E41 
 13256      4C5F4745 
 13256      545F5354 
 13256      594C4500 
 13257              	.LASF44:
 13258 0d00 4C565F41 		.ascii	"LV_ALIGN_OUT_BOTTOM_MID\000"
 13258      4C49474E 
 13258      5F4F5554 
 13258      5F424F54 
 13258      544F4D5F 
 13259              	.LASF199:
ARM GAS  C:\Users\strap\AppData\Local\Temp\cc7wbcEe.s 			page 272


 13260 0d18 6164765F 		.ascii	"adv_hittest\000"
 13260      68697474 
 13260      65737400 
 13261              	.LASF9:
 13262 0d24 6C6F6E67 		.ascii	"long unsigned int\000"
 13262      20756E73 
 13262      69676E65 
 13262      6420696E 
 13262      7400
 13263              	.LASF119:
 13264 0d36 4C565F53 		.ascii	"LV_STYLE_TEXT_OPA\000"
 13264      54594C45 
 13264      5F544558 
 13264      545F4F50 
 13264      4100
 13265              	.LASF22:
 13266 0d48 6C765F6F 		.ascii	"lv_obj_user_data_t\000"
 13266      626A5F75 
 13266      7365725F 
 13266      64617461 
 13266      5F7400
 13267              	.LASF412:
 13268 0d5b 6C765F6F 		.ascii	"lv_obj_get_child\000"
 13268      626A5F67 
 13268      65745F63 
 13268      68696C64 
 13268      00
 13269              	.LASF273:
 13270 0d6c 4C565F4C 		.ascii	"LV_LAYOUT_OFF\000"
 13270      41594F55 
 13270      545F4F46 
 13270      4600
 13271              	.LASF358:
 13272 0d7a 6E65775F 		.ascii	"new_area\000"
 13272      61726561 
 13272      00
 13273              	.LASF333:
 13274 0d83 6C765F6F 		.ascii	"lv_obj_get_style_margin_bottom\000"
 13274      626A5F67 
 13274      65745F73 
 13274      74796C65 
 13274      5F6D6172 
 13275              	.LASF317:
 13276 0da2 4C565F54 		.ascii	"LV_THEME_TABVIEW\000"
 13276      48454D45 
 13276      5F544142 
 13276      56494557 
 13276      00
 13277              	.LASF38:
 13278 0db3 4C565F41 		.ascii	"LV_ALIGN_IN_LEFT_MID\000"
 13278      4C49474E 
 13278      5F494E5F 
 13278      4C454654 
 13278      5F4D4944 
 13279              	.LASF122:
 13280 0dc8 4C565F53 		.ascii	"LV_STYLE_LINE_BLEND_MODE\000"
 13280      54594C45 
ARM GAS  C:\Users\strap\AppData\Local\Temp\cc7wbcEe.s 			page 273


 13280      5F4C494E 
 13280      455F424C 
 13280      454E445F 
 13281              	.LASF279:
 13282 0de1 4C565F4C 		.ascii	"LV_LAYOUT_ROW_MID\000"
 13282      41594F55 
 13282      545F524F 
 13282      575F4D49 
 13282      4400
 13283              	.LASF126:
 13284 0df3 4C565F53 		.ascii	"LV_STYLE_LINE_COLOR\000"
 13284      54594C45 
 13284      5F4C494E 
 13284      455F434F 
 13284      4C4F5200 
 13285              	.LASF244:
 13286 0e07 4C565F53 		.ascii	"LV_SIGNAL_FOCUS\000"
 13286      49474E41 
 13286      4C5F464F 
 13286      43555300 
 13287              	.LASF307:
 13288 0e17 4C565F54 		.ascii	"LV_THEME_CHECKBOX\000"
 13288      48454D45 
 13288      5F434845 
 13288      434B424F 
 13288      5800
 13289              	.LASF20:
 13290 0e29 75696E74 		.ascii	"uintptr_t\000"
 13290      7074725F 
 13290      7400
 13291              	.LASF64:
 13292 0e33 4C565F53 		.ascii	"LV_STYLE_PAD_LEFT\000"
 13292      54594C45 
 13292      5F504144 
 13292      5F4C4546 
 13292      5400
 13293              	.LASF420:
 13294 0e45 6C765F6F 		.ascii	"lv_obj_refresh_style\000"
 13294      626A5F72 
 13294      65667265 
 13294      73685F73 
 13294      74796C65 
 13295              	.LASF100:
 13296 0e5a 4C565F53 		.ascii	"LV_STYLE_PATTERN_RECOLOR_OPA\000"
 13296      54594C45 
 13296      5F504154 
 13296      5445524E 
 13296      5F524543 
 13297              	.LASF266:
 13298 0e77 4C565F4F 		.ascii	"LV_OBJ_PART_MAIN\000"
 13298      424A5F50 
 13298      4152545F 
 13298      4D41494E 
 13298      00
 13299              	.LASF247:
 13300 0e88 4C565F53 		.ascii	"LV_SIGNAL_GET_EDITABLE\000"
 13300      49474E41 
ARM GAS  C:\Users\strap\AppData\Local\Temp\cc7wbcEe.s 			page 274


 13300      4C5F4745 
 13300      545F4544 
 13300      49544142 
 13301              	.LASF405:
 13302 0e9f 5F6C765F 		.ascii	"_lv_ll_get_tail\000"
 13302      6C6C5F67 
 13302      65745F74 
 13302      61696C00 
 13303              	.LASF174:
 13304 0eaf 74657874 		.ascii	"text_space_zero\000"
 13304      5F737061 
 13304      63655F7A 
 13304      65726F00 
 13305              	.LASF323:
 13306 0ebf 5F6C765F 		.ascii	"_lv_memcpy_small\000"
 13306      6D656D63 
 13306      70795F73 
 13306      6D616C6C 
 13306      00
 13307              	.LASF110:
 13308 0ed0 4C565F53 		.ascii	"LV_STYLE_VALUE_FONT\000"
 13308      54594C45 
 13308      5F56414C 
 13308      55455F46 
 13308      4F4E5400 
 13309              	.LASF43:
 13310 0ee4 4C565F41 		.ascii	"LV_ALIGN_OUT_BOTTOM_LEFT\000"
 13310      4C49474E 
 13310      5F4F5554 
 13310      5F424F54 
 13310      544F4D5F 
 13311              	.LASF310:
 13312 0efd 4C565F54 		.ascii	"LV_THEME_LABEL\000"
 13312      48454D45 
 13312      5F4C4142 
 13312      454C00
 13313              	.LASF117:
 13314 0f0c 4C565F53 		.ascii	"LV_STYLE_TEXT_SEL_COLOR\000"
 13314      54594C45 
 13314      5F544558 
 13314      545F5345 
 13314      4C5F434F 
 13315              	.LASF8:
 13316 0f24 5F5F7569 		.ascii	"__uint32_t\000"
 13316      6E743332 
 13316      5F7400
 13317              	.LASF186:
 13318 0f2f 6576656E 		.ascii	"event_cb\000"
 13318      745F6362 
 13318      00
 13319              	.LASF275:
 13320 0f38 4C565F4C 		.ascii	"LV_LAYOUT_COLUMN_LEFT\000"
 13320      41594F55 
 13320      545F434F 
 13320      4C554D4E 
 13320      5F4C4546 
 13321              	.LASF367:
ARM GAS  C:\Users\strap\AppData\Local\Temp\cc7wbcEe.s 			page 275


 13322 0f4e 72696768 		.ascii	"right\000"
 13322      7400
 13323              	.LASF10:
 13324 0f54 6C6F6E67 		.ascii	"long long int\000"
 13324      206C6F6E 
 13324      6720696E 
 13324      7400
 13325              	.LASF48:
 13326 0f62 4C565F41 		.ascii	"LV_ALIGN_OUT_LEFT_BOTTOM\000"
 13326      4C49474E 
 13326      5F4F5554 
 13326      5F4C4546 
 13326      545F424F 
 13327              	.LASF176:
 13328 0f7b 74657874 		.ascii	"text_font_normal\000"
 13328      5F666F6E 
 13328      745F6E6F 
 13328      726D616C 
 13328      00
 13329              	.LASF242:
 13330 0f8c 4C565F53 		.ascii	"LV_SIGNAL_GESTURE\000"
 13330      49474E41 
 13330      4C5F4745 
 13330      53545552 
 13330      4500
 13331              	.LASF369:
 13332 0f9e 6C765F63 		.ascii	"lv_cont_create\000"
 13332      6F6E745F 
 13332      63726561 
 13332      746500
 13333              	.LASF34:
 13334 0fad 4C565F41 		.ascii	"LV_ALIGN_IN_TOP_RIGHT\000"
 13334      4C49474E 
 13334      5F494E5F 
 13334      544F505F 
 13334      52494748 
 13335              	.LASF246:
 13336 0fc3 4C565F53 		.ascii	"LV_SIGNAL_CONTROL\000"
 13336      49474E41 
 13336      4C5F434F 
 13336      4E54524F 
 13336      4C00
 13337              	.LASF368:
 13338 0fd5 626F7474 		.ascii	"bottom\000"
 13338      6F6D00
 13339              	.LASF261:
 13340 0fdc 4C565F50 		.ascii	"LV_PROTECT_FOLLOW\000"
 13340      524F5445 
 13340      43545F46 
 13340      4F4C4C4F 
 13340      5700
 13341              	.LASF131:
 13342 0fee 4C565F53 		.ascii	"LV_STYLE_IMAGE_RECOLOR_OPA\000"
 13342      54594C45 
 13342      5F494D41 
 13342      47455F52 
 13342      45434F4C 
ARM GAS  C:\Users\strap\AppData\Local\Temp\cc7wbcEe.s 			page 276


 13343              	.LASF184:
 13344 1009 6368696C 		.ascii	"child_ll\000"
 13344      645F6C6C 
 13344      00
 13345              	.LASF205:
 13346 1012 70726F74 		.ascii	"protect\000"
 13346      65637400 
 13347              	.LASF59:
 13348 101a 4C565F53 		.ascii	"LV_STYLE_TRANSFORM_ANGLE\000"
 13348      54594C45 
 13348      5F545241 
 13348      4E53464F 
 13348      524D5F41 
 13349              	.LASF340:
 13350 1033 6368696C 		.ascii	"child\000"
 13350      6400
 13351              	.LASF342:
 13352 1039 685F746F 		.ascii	"h_tot\000"
 13352      7400
 13353              	.LASF293:
 13354 103f 6C61796F 		.ascii	"layout\000"
 13354      757400
 13355              	.LASF198:
 13356 1046 70617265 		.ascii	"parent_event\000"
 13356      6E745F65 
 13356      76656E74 
 13356      00
 13357              	.LASF222:
 13358 1053 4C565F53 		.ascii	"LV_SIGNAL_CLEANUP\000"
 13358      49474E41 
 13358      4C5F434C 
 13358      45414E55 
 13358      5000
 13359              	.LASF380:
 13360 1065 706C6566 		.ascii	"pleft\000"
 13360      7400
 13361              	.LASF183:
 13362 106b 70617265 		.ascii	"parent\000"
 13362      6E7400
 13363              	.LASF114:
 13364 1072 4C565F53 		.ascii	"LV_STYLE_TEXT_DECOR\000"
 13364      54594C45 
 13364      5F544558 
 13364      545F4445 
 13364      434F5200 
 13365              	.LASF253:
 13366 1086 616C6967 		.ascii	"align\000"
 13366      6E00
 13367              	.LASF35:
 13368 108c 4C565F41 		.ascii	"LV_ALIGN_IN_BOTTOM_LEFT\000"
 13368      4C49474E 
 13368      5F494E5F 
 13368      424F5454 
 13368      4F4D5F4C 
 13369              	.LASF153:
 13370 10a4 736B6970 		.ascii	"skip_trans\000"
 13370      5F747261 
ARM GAS  C:\Users\strap\AppData\Local\Temp\cc7wbcEe.s 			page 277


 13370      6E7300
 13371              	.LASF132:
 13372 10af 4C565F53 		.ascii	"LV_STYLE_TRANSITION_TIME\000"
 13372      54594C45 
 13372      5F545241 
 13372      4E534954 
 13372      494F4E5F 
 13373              	.LASF331:
 13374 10c8 6C765F6F 		.ascii	"lv_obj_get_style_margin_right\000"
 13374      626A5F67 
 13374      65745F73 
 13374      74796C65 
 13374      5F6D6172 
 13375              	.LASF116:
 13376 10e6 4C565F53 		.ascii	"LV_STYLE_TEXT_COLOR\000"
 13376      54594C45 
 13376      5F544558 
 13376      545F434F 
 13376      4C4F5200 
 13377              	.LASF381:
 13378 10fa 70726967 		.ascii	"pright\000"
 13378      687400
 13379              	.LASF298:
 13380 1101 6C765F63 		.ascii	"lv_cont_ext_t\000"
 13380      6F6E745F 
 13380      6578745F 
 13380      7400
 13381              	.LASF14:
 13382 110f 756E7369 		.ascii	"unsigned int\000"
 13382      676E6564 
 13382      20696E74 
 13382      00
 13383              	.LASF223:
 13384 111c 4C565F53 		.ascii	"LV_SIGNAL_CHILD_CHG\000"
 13384      49474E41 
 13384      4C5F4348 
 13384      494C445F 
 13384      43484700 
 13385              	.LASF341:
 13386 1130 6F626A5F 		.ascii	"obj_num\000"
 13386      6E756D00 
 13387              	.LASF268:
 13388 1138 5F4C565F 		.ascii	"_LV_OBJ_PART_REAL_LAST\000"
 13388      4F424A5F 
 13388      50415254 
 13388      5F524541 
 13388      4C5F4C41 
 13389              	.LASF101:
 13390 114f 4C565F53 		.ascii	"LV_STYLE_PATTERN_IMAGE\000"
 13390      54594C45 
 13390      5F504154 
 13390      5445524E 
 13390      5F494D41 
 13391              	.LASF31:
 13392 1166 4C565F41 		.ascii	"LV_ALIGN_CENTER\000"
 13392      4C49474E 
 13392      5F43454E 
ARM GAS  C:\Users\strap\AppData\Local\Temp\cc7wbcEe.s 			page 278


 13392      54455200 
 13393              	.LASF386:
 13394 1176 6C765F63 		.ascii	"lv_cont_refr_layout\000"
 13394      6F6E745F 
 13394      72656672 
 13394      5F6C6179 
 13394      6F757400 
 13395              	.LASF354:
 13396 118a 74696768 		.ascii	"tight_area\000"
 13396      745F6172 
 13396      656100
 13397              	.LASF347:
 13398 1195 775F6669 		.ascii	"w_fit\000"
 13398      7400
 13399              	.LASF422:
 13400 119b 6C765F64 		.ascii	"lv_debug_check_null\000"
 13400      65627567 
 13400      5F636865 
 13400      636B5F6E 
 13400      756C6C00 
 13401              	.LASF80:
 13402 11af 4C565F53 		.ascii	"LV_STYLE_BORDER_BLEND_MODE\000"
 13402      54594C45 
 13402      5F424F52 
 13402      4445525F 
 13402      424C454E 
 13403              	.LASF385:
 13404 11ca 6E65775F 		.ascii	"new_pinner\000"
 13404      70696E6E 
 13404      657200
 13405              	.LASF254:
 13406 11d5 6175746F 		.ascii	"auto_realign\000"
 13406      5F726561 
 13406      6C69676E 
 13406      00
 13407              	.LASF311:
 13408 11e2 4C565F54 		.ascii	"LV_THEME_LED\000"
 13408      48454D45 
 13408      5F4C4544 
 13408      00
 13409              	.LASF157:
 13410 11ef 72616469 		.ascii	"radius_zero\000"
 13410      75735F7A 
 13410      65726F00 
 13411              	.LASF319:
 13412 11fb 4C565F54 		.ascii	"LV_THEME_TEXTAREA\000"
 13412      48454D45 
 13412      5F544558 
 13412      54415245 
 13412      4100
 13413              	.LASF320:
 13414 120d 5F4C565F 		.ascii	"_LV_THEME_BUILTIN_LAST\000"
 13414      5448454D 
 13414      455F4255 
 13414      494C5449 
 13414      4E5F4C41 
 13415              	.LASF370:
ARM GAS  C:\Users\strap\AppData\Local\Temp\cc7wbcEe.s 			page 279


 13416 1224 6C765F63 		.ascii	"lv_cont_get_layout\000"
 13416      6F6E745F 
 13416      6765745F 
 13416      6C61796F 
 13416      757400
 13417              	.LASF89:
 13418 1237 4C565F53 		.ascii	"LV_STYLE_SHADOW_WIDTH\000"
 13418      54594C45 
 13418      5F534841 
 13418      444F575F 
 13418      57494454 
 13419              	.LASF414:
 13420 124d 6C765F6F 		.ascii	"lv_obj_get_parent\000"
 13420      626A5F67 
 13420      65745F70 
 13420      6172656E 
 13420      7400
 13421              	.LASF55:
 13422 125f 4C565F53 		.ascii	"LV_STYLE_CLIP_CORNER\000"
 13422      54594C45 
 13422      5F434C49 
 13422      505F434F 
 13422      524E4552 
 13423              	.LASF234:
 13424 1274 4C565F53 		.ascii	"LV_SIGNAL_PRESSING\000"
 13424      49474E41 
 13424      4C5F5052 
 13424      45535349 
 13424      4E4700
 13425              	.LASF291:
 13426 1287 5F4C565F 		.ascii	"_LV_FIT_LAST\000"
 13426      4649545F 
 13426      4C415354 
 13426      00
 13427              	.LASF175:
 13428 1294 74657874 		.ascii	"text_decor_none\000"
 13428      5F646563 
 13428      6F725F6E 
 13428      6F6E6500 
 13429              	.LASF282:
 13430 12a4 4C565F4C 		.ascii	"LV_LAYOUT_PRETTY_MID\000"
 13430      41594F55 
 13430      545F5052 
 13430      45545459 
 13430      5F4D4944 
 13431              	.LASF67:
 13432 12b9 4C565F53 		.ascii	"LV_STYLE_MARGIN_TOP\000"
 13432      54594C45 
 13432      5F4D4152 
 13432      47494E5F 
 13432      544F5000 
 13433              	.LASF29:
 13434 12cd 6C765F72 		.ascii	"lv_res_t\000"
 13434      65735F74 
 13434      00
 13435              	.LASF51:
 13436 12d6 4C565F41 		.ascii	"LV_ALIGN_OUT_RIGHT_BOTTOM\000"
ARM GAS  C:\Users\strap\AppData\Local\Temp\cc7wbcEe.s 			page 280


 13436      4C49474E 
 13436      5F4F5554 
 13436      5F524947 
 13436      48545F42 
 13437              	.LASF24:
 13438 12f0 6C6F6E67 		.ascii	"long double\000"
 13438      20646F75 
 13438      626C6500 
 13439              	.LASF209:
 13440 12fc 6C765F64 		.ascii	"lv_drag_dir_t\000"
 13440      7261675F 
 13440      6469725F 
 13440      7400
 13441              	.LASF158:
 13442 130a 6F70615F 		.ascii	"opa_scale_cover\000"
 13442      7363616C 
 13442      655F636F 
 13442      76657200 
 13443              	.LASF257:
 13444 131a 4C565F50 		.ascii	"LV_PROTECT_NONE\000"
 13444      524F5445 
 13444      43545F4E 
 13444      4F4E4500 
 13445              	.LASF40:
 13446 132a 4C565F41 		.ascii	"LV_ALIGN_OUT_TOP_LEFT\000"
 13446      4C49474E 
 13446      5F4F5554 
 13446      5F544F50 
 13446      5F4C4546 
 13447              	.LASF328:
 13448 1340 6C765F6F 		.ascii	"lv_obj_get_style_pad_right\000"
 13448      626A5F67 
 13448      65745F73 
 13448      74796C65 
 13448      5F706164 
 13449              	.LASF217:
 13450 135b 6C765F64 		.ascii	"lv_design_mode_t\000"
 13450      65736967 
 13450      6E5F6D6F 
 13450      64655F74 
 13450      00
 13451              	.LASF322:
 13452 136c 5F4C565F 		.ascii	"_LV_THEME_CUSTOM_LAST\000"
 13452      5448454D 
 13452      455F4355 
 13452      53544F4D 
 13452      5F4C4153 
 13453              	.LASF345:
 13454 1382 6C765F63 		.ascii	"lv_cont_layout_center\000"
 13454      6F6E745F 
 13454      6C61796F 
 13454      75745F63 
 13454      656E7465 
 13455              	.LASF327:
 13456 1398 6C765F6F 		.ascii	"lv_obj_get_style_pad_bottom\000"
 13456      626A5F67 
 13456      65745F73 
ARM GAS  C:\Users\strap\AppData\Local\Temp\cc7wbcEe.s 			page 281


 13456      74796C65 
 13456      5F706164 
 13457              	.LASF269:
 13458 13b4 4C565F4F 		.ascii	"LV_OBJ_PART_ALL\000"
 13458      424A5F50 
 13458      4152545F 
 13458      414C4C00 
 13459              	.LASF235:
 13460 13c4 4C565F53 		.ascii	"LV_SIGNAL_PRESS_LOST\000"
 13460      49474E41 
 13460      4C5F5052 
 13460      4553535F 
 13460      4C4F5354 
 13461              	.LASF69:
 13462 13d9 4C565F53 		.ascii	"LV_STYLE_MARGIN_LEFT\000"
 13462      54594C45 
 13462      5F4D4152 
 13462      47494E5F 
 13462      4C454654 
 13463              	.LASF241:
 13464 13ee 4C565F53 		.ascii	"LV_SIGNAL_DRAG_END\000"
 13464      49474E41 
 13464      4C5F4452 
 13464      41475F45 
 13464      4E4400
 13465              	.LASF391:
 13466 1401 696E666F 		.ascii	"info\000"
 13466      00
 13467              	.LASF339:
 13468 1406 7374796C 		.ascii	"style_dsc_p\000"
 13468      655F6473 
 13468      635F7000 
 13469              	.LASF151:
 13470 1412 6861735F 		.ascii	"has_local\000"
 13470      6C6F6361 
 13470      6C00
 13471              	.LASF104:
 13472 141c 4C565F53 		.ascii	"LV_STYLE_VALUE_BLEND_MODE\000"
 13472      54594C45 
 13472      5F56414C 
 13472      55455F42 
 13472      4C454E44 
 13473              	.LASF225:
 13474 1436 4C565F53 		.ascii	"LV_SIGNAL_PARENT_SIZE_CHG\000"
 13474      49474E41 
 13474      4C5F5041 
 13474      52454E54 
 13474      5F53495A 
 13475              	.LASF344:
 13476 1450 6C617374 		.ascii	"last_cord\000"
 13476      5F636F72 
 13476      6400
 13477              	.LASF82:
 13478 145a 4C565F53 		.ascii	"LV_STYLE_BORDER_COLOR\000"
 13478      54594C45 
 13478      5F424F52 
 13478      4445525F 
ARM GAS  C:\Users\strap\AppData\Local\Temp\cc7wbcEe.s 			page 282


 13478      434F4C4F 
 13479              	.LASF236:
 13480 1470 4C565F53 		.ascii	"LV_SIGNAL_RELEASED\000"
 13480      49474E41 
 13480      4C5F5245 
 13480      4C454153 
 13480      454400
 13481              	.LASF210:
 13482 1483 4C565F42 		.ascii	"LV_BIDI_DIR_LTR\000"
 13482      4944495F 
 13482      4449525F 
 13482      4C545200 
 13483              	.LASF33:
 13484 1493 4C565F41 		.ascii	"LV_ALIGN_IN_TOP_MID\000"
 13484      4C49474E 
 13484      5F494E5F 
 13484      544F505F 
 13484      4D494400 
 13485              	.LASF256:
 13486 14a7 6C765F72 		.ascii	"lv_realign_t\000"
 13486      65616C69 
 13486      676E5F74 
 13486      00
 13487              	.LASF163:
 13488 14b4 626C656E 		.ascii	"blend_mode_all_normal\000"
 13488      645F6D6F 
 13488      64655F61 
 13488      6C6C5F6E 
 13488      6F726D61 
 13489              	.LASF61:
 13490 14ca 4C565F53 		.ascii	"LV_STYLE_OPA_SCALE\000"
 13490      54594C45 
 13490      5F4F5041 
 13490      5F534341 
 13490      4C4500
 13491              	.LASF12:
 13492 14dd 6C6F6E67 		.ascii	"long long unsigned int\000"
 13492      206C6F6E 
 13492      6720756E 
 13492      7369676E 
 13492      65642069 
 13493              	.LASF73:
 13494 14f4 4C565F53 		.ascii	"LV_STYLE_BG_GRAD_STOP\000"
 13494      54594C45 
 13494      5F42475F 
 13494      47524144 
 13494      5F53544F 
 13495              	.LASF79:
 13496 150a 4C565F53 		.ascii	"LV_STYLE_BORDER_SIDE\000"
 13496      54594C45 
 13496      5F424F52 
 13496      4445525F 
 13496      53494445 
 13497              	.LASF356:
 13498 151f 70617265 		.ascii	"parent_area\000"
 13498      6E745F61 
 13498      72656100 
ARM GAS  C:\Users\strap\AppData\Local\Temp\cc7wbcEe.s 			page 283


 13499              	.LASF263:
 13500 152b 4C565F50 		.ascii	"LV_PROTECT_CLICK_FOCUS\000"
 13500      524F5445 
 13500      43545F43 
 13500      4C49434B 
 13500      5F464F43 
 13501              	.LASF312:
 13502 1542 4C565F54 		.ascii	"LV_THEME_LINE\000"
 13502      48454D45 
 13502      5F4C494E 
 13502      4500
 13503              	.LASF49:
 13504 1550 4C565F41 		.ascii	"LV_ALIGN_OUT_RIGHT_TOP\000"
 13504      4C49474E 
 13504      5F4F5554 
 13504      5F524947 
 13504      48545F54 
 13505              	.LASF28:
 13506 1567 4C565F52 		.ascii	"LV_RES_OK\000"
 13506      45535F4F 
 13506      4B00
 13507              	.LASF377:
 13508 1571 6368696C 		.ascii	"child_rc\000"
 13508      645F7263 
 13508      00
 13509              	.LASF397:
 13510 157a 616E6365 		.ascii	"ancestor_signal\000"
 13510      73746F72 
 13510      5F736967 
 13510      6E616C00 
 13511              	.LASF376:
 13512 158a 6368696C 		.ascii	"child_rs\000"
 13512      645F7273 
 13512      00
 13513              	.LASF255:
 13514 1593 6D69645F 		.ascii	"mid_align\000"
 13514      616C6967 
 13514      6E00
 13515              	.LASF336:
 13516 159d 6C765F61 		.ascii	"lv_area_get_height\000"
 13516      7265615F 
 13516      6765745F 
 13516      68656967 
 13516      687400
 13517              	.LASF214:
 13518 15b0 4C565F42 		.ascii	"LV_BIDI_DIR_NEUTRAL\000"
 13518      4944495F 
 13518      4449525F 
 13518      4E455554 
 13518      52414C00 
 13519              	.LASF292:
 13520 15c4 6C765F66 		.ascii	"lv_fit_t\000"
 13520      69745F74 
 13520      00
 13521              	.LASF306:
 13522 15cd 4C565F54 		.ascii	"LV_THEME_BTNMATRIX\000"
 13522      48454D45 
ARM GAS  C:\Users\strap\AppData\Local\Temp\cc7wbcEe.s 			page 284


 13522      5F42544E 
 13522      4D415452 
 13522      495800
 13523              	.LASF396:
 13524 15e0 616E6365 		.ascii	"ancestor_design\000"
 13524      73746F72 
 13524      5F646573 
 13524      69676E00 
 13525              	.LASF90:
 13526 15f0 4C565F53 		.ascii	"LV_STYLE_SHADOW_OFS_X\000"
 13526      54594C45 
 13526      5F534841 
 13526      444F575F 
 13526      4F46535F 
 13527              	.LASF91:
 13528 1606 4C565F53 		.ascii	"LV_STYLE_SHADOW_OFS_Y\000"
 13528      54594C45 
 13528      5F534841 
 13528      444F575F 
 13528      4F46535F 
 13529              	.LASF107:
 13530 161c 4C565F53 		.ascii	"LV_STYLE_VALUE_ALIGN\000"
 13530      54594C45 
 13530      5F56414C 
 13530      55455F41 
 13530      4C49474E 
 13531              	.LASF297:
 13532 1631 6669745F 		.ascii	"fit_bottom\000"
 13532      626F7474 
 13532      6F6D00
 13533              	.LASF71:
 13534 163c 4C565F53 		.ascii	"LV_STYLE_BG_BLEND_MODE\000"
 13534      54594C45 
 13534      5F42475F 
 13534      424C454E 
 13534      445F4D4F 
 13535              	.LASF191:
 13536 1653 6578745F 		.ascii	"ext_click_pad_ver\000"
 13536      636C6963 
 13536      6B5F7061 
 13536      645F7665 
 13536      7200
 13537              	.LASF403:
 13538 1665 5F6C765F 		.ascii	"_lv_ll_get_next\000"
 13538      6C6C5F67 
 13538      65745F6E 
 13538      65787400 
 13539              	.LASF3:
 13540 1675 5F5F696E 		.ascii	"__int16_t\000"
 13540      7431365F 
 13540      7400
 13541              	.LASF120:
 13542 167f 4C565F53 		.ascii	"LV_STYLE_TEXT_FONT\000"
 13542      54594C45 
 13542      5F544558 
 13542      545F464F 
 13542      4E5400
ARM GAS  C:\Users\strap\AppData\Local\Temp\cc7wbcEe.s 			page 285


 13543              	.LASF424:
 13544 1692 6C765F6F 		.ascii	"lv_obj_get_signal_cb\000"
 13544      626A5F67 
 13544      65745F73 
 13544      69676E61 
 13544      6C5F6362 
 13545              	.LASF407:
 13546 16a7 5F6C765F 		.ascii	"_lv_ll_get_prev\000"
 13546      6C6C5F67 
 13546      65745F70 
 13546      72657600 
 13547              	.LASF329:
 13548 16b7 64657374 		.ascii	"dest\000"
 13548      00
 13549              	.LASF212:
 13550 16bc 4C565F42 		.ascii	"LV_BIDI_DIR_AUTO\000"
 13550      4944495F 
 13550      4449525F 
 13550      4155544F 
 13550      00
 13551              	.LASF402:
 13552 16cd 6C765F6F 		.ascii	"lv_obj_get_height\000"
 13552      626A5F67 
 13552      65745F68 
 13552      65696768 
 13552      7400
 13553              	.LASF92:
 13554 16df 4C565F53 		.ascii	"LV_STYLE_SHADOW_SPREAD\000"
 13554      54594C45 
 13554      5F534841 
 13554      444F575F 
 13554      53505245 
 13555              	.LASF39:
 13556 16f6 4C565F41 		.ascii	"LV_ALIGN_IN_RIGHT_MID\000"
 13556      4C49474E 
 13556      5F494E5F 
 13556      52494748 
 13556      545F4D49 
 13557              	.LASF387:
 13558 170c 6C765F63 		.ascii	"lv_cont_get_style\000"
 13558      6F6E745F 
 13558      6765745F 
 13558      7374796C 
 13558      6500
 13559              	.LASF177:
 13560 171e 6C765F73 		.ascii	"lv_style_list_t\000"
 13560      74796C65 
 13560      5F6C6973 
 13560      745F7400 
 13561              	.LASF13:
 13562 172e 5F5F7569 		.ascii	"__uintptr_t\000"
 13562      6E747074 
 13562      725F7400 
 13563              	.LASF418:
 13564 173a 6C765F6F 		.ascii	"lv_obj_get_auto_realign\000"
 13564      626A5F67 
 13564      65745F61 
ARM GAS  C:\Users\strap\AppData\Local\Temp\cc7wbcEe.s 			page 286


 13564      75746F5F 
 13564      7265616C 
 13565              	.LASF251:
 13566 1752 786F6673 		.ascii	"xofs\000"
 13566      00
 13567              	.LASF295:
 13568 1757 6669745F 		.ascii	"fit_right\000"
 13568      72696768 
 13568      7400
 13569              	.LASF431:
 13570 1761 6C765F6F 		.ascii	"lv_obj_handle_get_type_signal\000"
 13570      626A5F68 
 13570      616E646C 
 13570      655F6765 
 13570      745F7479 
 13571              	.LASF265:
 13572 177f 6C765F6F 		.ascii	"lv_obj_t\000"
 13572      626A5F74 
 13572      00
 13573              	.LASF284:
 13574 1788 4C565F4C 		.ascii	"LV_LAYOUT_GRID\000"
 13574      41594F55 
 13574      545F4752 
 13574      494400
 13575              	.LASF248:
 13576 1797 6C765F73 		.ascii	"lv_signal_t\000"
 13576      69676E61 
 13576      6C5F7400 
 13577              	.LASF194:
 13578 17a3 64726167 		.ascii	"drag\000"
 13578      00
 13579              	.LASF97:
 13580 17a8 4C565F53 		.ascii	"LV_STYLE_PATTERN_REPEAT\000"
 13580      54594C45 
 13580      5F504154 
 13580      5445524E 
 13580      5F524550 
 13581              	.LASF382:
 13582 17c0 70696E6E 		.ascii	"pinner\000"
 13582      657200
 13583              	.LASF435:
 13584 17c7 5F6C765F 		.ascii	"_lv_obj_t\000"
 13584      6F626A5F 
 13584      7400
 13585              	.LASF32:
 13586 17d1 4C565F41 		.ascii	"LV_ALIGN_IN_TOP_LEFT\000"
 13586      4C49474E 
 13586      5F494E5F 
 13586      544F505F 
 13586      4C454654 
 13587              	.LASF411:
 13588 17e6 6C765F6F 		.ascii	"lv_obj_get_width_fit\000"
 13588      626A5F67 
 13588      65745F77 
 13588      69647468 
 13588      5F666974 
 13589              	.LASF378:
ARM GAS  C:\Users\strap\AppData\Local\Temp\cc7wbcEe.s 			page 287


 13590 17fb 6368696C 		.ascii	"child_tmp\000"
 13590      645F746D 
 13590      7000
 13591              	.LASF203:
 13592 1805 62617365 		.ascii	"base_dir\000"
 13592      5F646972 
 13592      00
 13593              	.LASF108:
 13594 180e 4C565F53 		.ascii	"LV_STYLE_VALUE_COLOR\000"
 13594      54594C45 
 13594      5F56414C 
 13594      55455F43 
 13594      4F4C4F52 
 13595              	.LASF76:
 13596 1823 4C565F53 		.ascii	"LV_STYLE_BG_GRAD_COLOR\000"
 13596      54594C45 
 13596      5F42475F 
 13596      47524144 
 13596      5F434F4C 
 13597              	.LASF258:
 13598 183a 4C565F50 		.ascii	"LV_PROTECT_CHILD_CHG\000"
 13598      524F5445 
 13598      43545F43 
 13598      48494C44 
 13598      5F434847 
 13599              	.LASF262:
 13600 184f 4C565F50 		.ascii	"LV_PROTECT_PRESS_LOST\000"
 13600      524F5445 
 13600      43545F50 
 13600      52455353 
 13600      5F4C4F53 
 13601              	.LASF346:
 13602 1865 6C765F63 		.ascii	"lv_cont_layout_grid\000"
 13602      6F6E745F 
 13602      6C61796F 
 13602      75745F67 
 13602      72696400 
 13603              	.LASF423:
 13604 1879 6C765F64 		.ascii	"lv_debug_log_error\000"
 13604      65627567 
 13604      5F6C6F67 
 13604      5F657272 
 13604      6F7200
 13605              	.LASF250:
 13606 188c 62617365 		.ascii	"base\000"
 13606      00
 13607              	.LASF404:
 13608 1891 6C765F6F 		.ascii	"lv_obj_add_protect\000"
 13608      626A5F61 
 13608      64645F70 
 13608      726F7465 
 13608      637400
 13609              	.LASF4:
 13610 18a4 73686F72 		.ascii	"short int\000"
 13610      7420696E 
 13610      7400
 13611              	.LASF182:
ARM GAS  C:\Users\strap\AppData\Local\Temp\cc7wbcEe.s 			page 288


 13612 18ae 6C765F6C 		.ascii	"lv_ll_t\000"
 13612      6C5F7400 
 13613              	.LASF19:
 13614 18b6 75696E74 		.ascii	"uint64_t\000"
 13614      36345F74 
 13614      00
 13615              	.LASF416:
 13616 18bf 5F6C765F 		.ascii	"_lv_ll_is_empty\000"
 13616      6C6C5F69 
 13616      735F656D 
 13616      70747900 
 13617              	.LASF115:
 13618 18cf 4C565F53 		.ascii	"LV_STYLE_TEXT_BLEND_MODE\000"
 13618      54594C45 
 13618      5F544558 
 13618      545F424C 
 13618      454E445F 
 13619              	.LASF172:
 13620 18e8 76616C75 		.ascii	"value_txt_str\000"
 13620      655F7478 
 13620      745F7374 
 13620      7200
 13621              	.LASF128:
 13622 18f6 4C565F53 		.ascii	"LV_STYLE_IMAGE_BLEND_MODE\000"
 13622      54594C45 
 13622      5F494D41 
 13622      47455F42 
 13622      4C454E44 
 13623              	.LASF68:
 13624 1910 4C565F53 		.ascii	"LV_STYLE_MARGIN_BOTTOM\000"
 13624      54594C45 
 13624      5F4D4152 
 13624      47494E5F 
 13624      424F5454 
 13625              	.LASF42:
 13626 1927 4C565F41 		.ascii	"LV_ALIGN_OUT_TOP_RIGHT\000"
 13626      4C49474E 
 13626      5F4F5554 
 13626      5F544F50 
 13626      5F524947 
 13627              	.LASF16:
 13628 193e 696E7431 		.ascii	"int16_t\000"
 13628      365F7400 
 13629              	.LASF301:
 13630 1946 5F4C565F 		.ascii	"_LV_CONT_PART_REAL_LAST\000"
 13630      434F4E54 
 13630      5F504152 
 13630      545F5245 
 13630      414C5F4C 
 13631              	.LASF185:
 13632 195e 636F6F72 		.ascii	"coords\000"
 13632      647300
 13633              	.LASF102:
 13634 1965 4C565F53 		.ascii	"LV_STYLE_VALUE_LETTER_SPACE\000"
 13634      54594C45 
 13634      5F56414C 
 13634      55455F4C 
ARM GAS  C:\Users\strap\AppData\Local\Temp\cc7wbcEe.s 			page 289


 13634      45545445 
 13635              	.LASF165:
 13636 1981 62675F6F 		.ascii	"bg_opa_cover\000"
 13636      70615F63 
 13636      6F766572 
 13636      00
 13637              	.LASF62:
 13638 198e 4C565F53 		.ascii	"LV_STYLE_PAD_TOP\000"
 13638      54594C45 
 13638      5F504144 
 13638      5F544F50 
 13638      00
 13639              	.LASF313:
 13640 199f 4C565F54 		.ascii	"LV_THEME_OBJMASK\000"
 13640      48454D45 
 13640      5F4F424A 
 13640      4D41534B 
 13640      00
 13641              	.LASF121:
 13642 19b0 4C565F53 		.ascii	"LV_STYLE_LINE_WIDTH\000"
 13642      54594C45 
 13642      5F4C494E 
 13642      455F5749 
 13642      44544800 
 13643              	.LASF286:
 13644 19c4 6C765F6C 		.ascii	"lv_layout_t\000"
 13644      61796F75 
 13644      745F7400 
 13645              	.LASF287:
 13646 19d0 4C565F46 		.ascii	"LV_FIT_NONE\000"
 13646      49545F4E 
 13646      4F4E4500 
 13647              	.LASF334:
 13648 19dc 6C765F61 		.ascii	"lv_area_get_width\000"
 13648      7265615F 
 13648      6765745F 
 13648      77696474 
 13648      6800
 13649              	.LASF169:
 13650 19ee 6F75746C 		.ascii	"outline_width_zero\000"
 13650      696E655F 
 13650      77696474 
 13650      685F7A65 
 13650      726F00
 13651              	.LASF300:
 13652 1a01 5F4C565F 		.ascii	"_LV_CONT_PART_VIRTUAL_LAST\000"
 13652      434F4E54 
 13652      5F504152 
 13652      545F5649 
 13652      52545541 
 13653              	.LASF196:
 13654 1a1c 64726167 		.ascii	"drag_parent\000"
 13654      5F706172 
 13654      656E7400 
 13655              	.LASF430:
 13656 1a28 6C765F6F 		.ascii	"lv_obj_get_base_dir\000"
 13656      626A5F67 
ARM GAS  C:\Users\strap\AppData\Local\Temp\cc7wbcEe.s 			page 290


 13656      65745F62 
 13656      6173655F 
 13656      64697200 
 13657              	.LASF314:
 13658 1a3c 4C565F54 		.ascii	"LV_THEME_PAGE\000"
 13658      48454D45 
 13658      5F504147 
 13658      4500
 13659              	.LASF227:
 13660 1a4a 4C565F53 		.ascii	"LV_SIGNAL_BASE_DIR_CHG\000"
 13660      49474E41 
 13660      4C5F4241 
 13660      53455F44 
 13660      49525F43 
 13661              	.LASF173:
 13662 1a61 696D675F 		.ascii	"img_recolor_opa_transp\000"
 13662      7265636F 
 13662      6C6F725F 
 13662      6F70615F 
 13662      7472616E 
 13663              	.LASF41:
 13664 1a78 4C565F41 		.ascii	"LV_ALIGN_OUT_TOP_MID\000"
 13664      4C49474E 
 13664      5F4F5554 
 13664      5F544F50 
 13664      5F4D4944 
 13665              	.LASF211:
 13666 1a8d 4C565F42 		.ascii	"LV_BIDI_DIR_RTL\000"
 13666      4944495F 
 13666      4449525F 
 13666      52544C00 
 13667              	.LASF81:
 13668 1a9d 4C565F53 		.ascii	"LV_STYLE_BORDER_POST\000"
 13668      54594C45 
 13668      5F424F52 
 13668      4445525F 
 13668      504F5354 
 13669              	.LASF343:
 13670 1ab2 696E6E65 		.ascii	"inner\000"
 13670      7200
 13671              	.LASF276:
 13672 1ab8 4C565F4C 		.ascii	"LV_LAYOUT_COLUMN_MID\000"
 13672      41594F55 
 13672      545F434F 
 13672      4C554D4E 
 13672      5F4D4944 
 13673              	.LASF125:
 13674 1acd 4C565F53 		.ascii	"LV_STYLE_LINE_ROUNDED\000"
 13674      54594C45 
 13674      5F4C494E 
 13674      455F524F 
 13674      554E4445 
 13675              	.LASF288:
 13676 1ae3 4C565F46 		.ascii	"LV_FIT_TIGHT\000"
 13676      49545F54 
 13676      49474854 
 13676      00
ARM GAS  C:\Users\strap\AppData\Local\Temp\cc7wbcEe.s 			page 291


 13677              	.LASF187:
 13678 1af0 7369676E 		.ascii	"signal_cb\000"
 13678      616C5F63 
 13678      6200
 13679              	.LASF18:
 13680 1afa 75696E74 		.ascii	"uint32_t\000"
 13680      33325F74 
 13680      00
 13681              	.LASF348:
 13682 1b03 795F6F66 		.ascii	"y_ofs\000"
 13682      7300
 13683              	.LASF375:
 13684 1b09 6C765F63 		.ascii	"lv_cont_layout_pretty\000"
 13684      6F6E745F 
 13684      6C61796F 
 13684      75745F70 
 13684      72657474 
 13685              	.LASF400:
 13686 1b1f 6C765F6F 		.ascii	"lv_obj_get_hidden\000"
 13686      626A5F67 
 13686      65745F68 
 13686      69646465 
 13686      6E00
 13687              	.LASF46:
 13688 1b31 4C565F41 		.ascii	"LV_ALIGN_OUT_LEFT_TOP\000"
 13688      4C49474E 
 13688      5F4F5554 
 13688      5F4C4546 
 13688      545F544F 
 13689              	.LASF283:
 13690 1b47 4C565F4C 		.ascii	"LV_LAYOUT_PRETTY_BOTTOM\000"
 13690      41594F55 
 13690      545F5052 
 13690      45545459 
 13690      5F424F54 
 13691              	.LASF357:
 13692 1b5f 6861735F 		.ascii	"has_children\000"
 13692      6368696C 
 13692      6472656E 
 13692      00
 13693              	.LASF302:
 13694 1b6c 4C565F54 		.ascii	"LV_THEME_NONE\000"
 13694      48454D45 
 13694      5F4E4F4E 
 13694      4500
 13695              	.LASF415:
 13696 1b7a 6C765F6F 		.ascii	"lv_obj_get_coords\000"
 13696      626A5F67 
 13696      65745F63 
 13696      6F6F7264 
 13696      7300
 13697              	.LASF392:
 13698 1b8c 6C765F63 		.ascii	"lv_cont_get_fit_left\000"
 13698      6F6E745F 
 13698      6765745F 
 13698      6669745F 
 13698      6C656674 
ARM GAS  C:\Users\strap\AppData\Local\Temp\cc7wbcEe.s 			page 292


 13699              	.LASF427:
 13700 1ba1 6C765F6F 		.ascii	"lv_obj_del\000"
 13700      626A5F64 
 13700      656C00
 13701              	.LASF154:
 13702 1bac 69676E6F 		.ascii	"ignore_trans\000"
 13702      72655F74 
 13702      72616E73 
 13702      00
 13703              	.LASF5:
 13704 1bb9 73686F72 		.ascii	"short unsigned int\000"
 13704      7420756E 
 13704      7369676E 
 13704      65642069 
 13704      6E7400
 13705              	.LASF324:
 13706 1bcc 6C765F6F 		.ascii	"lv_obj_get_style_pad_inner\000"
 13706      626A5F67 
 13706      65745F73 
 13706      74796C65 
 13706      5F706164 
 13707              	.LASF21:
 13708 1be7 6C765F63 		.ascii	"lv_coord_t\000"
 13708      6F6F7264 
 13708      5F7400
 13709              	.LASF371:
 13710 1bf2 6C765F63 		.ascii	"lv_cont_layout_col\000"
 13710      6F6E745F 
 13710      6C61796F 
 13710      75745F63 
 13710      6F6C00
 13711              	.LASF87:
 13712 1c05 4C565F53 		.ascii	"LV_STYLE_OUTLINE_COLOR\000"
 13712      54594C45 
 13712      5F4F5554 
 13712      4C494E45 
 13712      5F434F4C 
 13713              	.LASF208:
 13714 1c1c 75736572 		.ascii	"user_data\000"
 13714      5F646174 
 13714      6100
 13715              	.LASF274:
 13716 1c26 4C565F4C 		.ascii	"LV_LAYOUT_CENTER\000"
 13716      41594F55 
 13716      545F4345 
 13716      4E544552 
 13716      00
 13717              	.LASF303:
 13718 1c37 4C565F54 		.ascii	"LV_THEME_SCR\000"
 13718      48454D45 
 13718      5F534352 
 13718      00
 13719              	.LASF133:
 13720 1c44 4C565F53 		.ascii	"LV_STYLE_TRANSITION_DELAY\000"
 13720      54594C45 
 13720      5F545241 
 13720      4E534954 
ARM GAS  C:\Users\strap\AppData\Local\Temp\cc7wbcEe.s 			page 293


 13720      494F4E5F 
 13721              	.LASF6:
 13722 1c5e 5F5F696E 		.ascii	"__int32_t\000"
 13722      7433325F 
 13722      7400
 13723              	.LASF399:
 13724 1c68 5F6C765F 		.ascii	"_lv_ll_get_head\000"
 13724      6C6C5F67 
 13724      65745F68 
 13724      65616400 
 13725              	.LASF221:
 13726 1c78 6C765F65 		.ascii	"lv_event_cb_t\000"
 13726      76656E74 
 13726      5F63625F 
 13726      7400
 13727              	.LASF355:
 13728 1c86 6368696C 		.ascii	"child_i\000"
 13728      645F6900 
 13729              	.LASF373:
 13730 1c8e 6C765F63 		.ascii	"lv_cont_layout_row\000"
 13730      6F6E745F 
 13730      6C61796F 
 13730      75745F72 
 13730      6F7700
 13731              	.LASF361:
 13732 1ca1 6D746F70 		.ascii	"mtop\000"
 13732      00
 13733              	.LASF417:
 13734 1ca6 6C765F6F 		.ascii	"lv_obj_invalidate\000"
 13734      626A5F69 
 13734      6E76616C 
 13734      69646174 
 13734      6500
 13735              	.LASF152:
 13736 1cb8 6861735F 		.ascii	"has_trans\000"
 13736      7472616E 
 13736      7300
 13737              	.LASF372:
 13738 1cc2 68706164 		.ascii	"hpad_corr\000"
 13738      5F636F72 
 13738      7200
 13739              	.LASF390:
 13740 1ccc 70617261 		.ascii	"param\000"
 13740      6D00
 13741              	.LASF224:
 13742 1cd2 4C565F53 		.ascii	"LV_SIGNAL_COORD_CHG\000"
 13742      49474E41 
 13742      4C5F434F 
 13742      4F52445F 
 13742      43484700 
 13743              	.LASF270:
 13744 1ce6 70617274 		.ascii	"part\000"
 13744      00
 13745              	.LASF332:
 13746 1ceb 6C765F6F 		.ascii	"lv_obj_get_style_margin_top\000"
 13746      626A5F67 
 13746      65745F73 
ARM GAS  C:\Users\strap\AppData\Local\Temp\cc7wbcEe.s 			page 294


 13746      74796C65 
 13746      5F6D6172 
 13747              	.LASF179:
 13748 1d07 6E5F7369 		.ascii	"n_size\000"
 13748      7A6500
 13749              	.LASF85:
 13750 1d0e 4C565F53 		.ascii	"LV_STYLE_OUTLINE_PAD\000"
 13750      54594C45 
 13750      5F4F5554 
 13750      4C494E45 
 13750      5F504144 
 13751              	.LASF219:
 13752 1d23 6C765F64 		.ascii	"lv_design_cb_t\000"
 13752      65736967 
 13752      6E5F6362 
 13752      5F7400
 13753              	.LASF359:
 13754 1d32 6D6C6566 		.ascii	"mleft\000"
 13754      7400
 13755              	.LASF426:
 13756 1d38 6C765F6F 		.ascii	"lv_obj_allocate_ext_attr\000"
 13756      626A5F61 
 13756      6C6C6F63 
 13756      6174655F 
 13756      6578745F 
 13757              	.LASF112:
 13758 1d51 4C565F53 		.ascii	"LV_STYLE_TEXT_LETTER_SPACE\000"
 13758      54594C45 
 13758      5F544558 
 13758      545F4C45 
 13758      54544552 
 13759              		.ident	"GCC: (GNU Tools for ARM Embedded Processors) 5.4.1 20160609 (release) [ARM/embedded-5-bran
