ARM GAS  C:\Users\strap\AppData\Local\Temp\ccEauLm2.s 			page 1


   1              		.syntax unified
   2              		.cpu cortex-m3
   3              		.fpu softvfp
   4              		.eabi_attribute 20, 1
   5              		.eabi_attribute 21, 1
   6              		.eabi_attribute 23, 3
   7              		.eabi_attribute 24, 1
   8              		.eabi_attribute 25, 1
   9              		.eabi_attribute 26, 1
  10              		.eabi_attribute 30, 1
  11              		.eabi_attribute 34, 1
  12              		.eabi_attribute 18, 4
  13              		.thumb
  14              		.syntax unified
  15              		.file	"lv_checkbox.c"
  16              		.text
  17              	.Ltext0:
  18              		.cfi_sections	.debug_frame
  19              		.section	.text.lv_checkbox_get_style,"ax",%progbits
  20              		.align	2
  21              		.thumb
  22              		.thumb_func
  23              		.type	lv_checkbox_get_style, %function
  24              	lv_checkbox_get_style:
  25              	.LFB350:
  26              		.file 1 "lvgl\\src\\lv_widgets\\lv_checkbox.c"
   1:lvgl\src\lv_widgets/lv_checkbox.c **** /**
   2:lvgl\src\lv_widgets/lv_checkbox.c ****  * @file lv_cb.c
   3:lvgl\src\lv_widgets/lv_checkbox.c ****  *
   4:lvgl\src\lv_widgets/lv_checkbox.c ****  */
   5:lvgl\src\lv_widgets/lv_checkbox.c **** 
   6:lvgl\src\lv_widgets/lv_checkbox.c **** /*********************
   7:lvgl\src\lv_widgets/lv_checkbox.c ****  *      INCLUDES
   8:lvgl\src\lv_widgets/lv_checkbox.c ****  *********************/
   9:lvgl\src\lv_widgets/lv_checkbox.c **** #include "lv_checkbox.h"
  10:lvgl\src\lv_widgets/lv_checkbox.c **** #if LV_USE_CHECKBOX != 0
  11:lvgl\src\lv_widgets/lv_checkbox.c **** 
  12:lvgl\src\lv_widgets/lv_checkbox.c **** #include "../lv_misc/lv_debug.h"
  13:lvgl\src\lv_widgets/lv_checkbox.c **** #include "../lv_core/lv_group.h"
  14:lvgl\src\lv_widgets/lv_checkbox.c **** #include "../lv_themes/lv_theme.h"
  15:lvgl\src\lv_widgets/lv_checkbox.c **** 
  16:lvgl\src\lv_widgets/lv_checkbox.c **** /*********************
  17:lvgl\src\lv_widgets/lv_checkbox.c ****  *      DEFINES
  18:lvgl\src\lv_widgets/lv_checkbox.c ****  *********************/
  19:lvgl\src\lv_widgets/lv_checkbox.c **** #define LV_OBJX_NAME "lv_checkbox"
  20:lvgl\src\lv_widgets/lv_checkbox.c **** 
  21:lvgl\src\lv_widgets/lv_checkbox.c **** /**********************
  22:lvgl\src\lv_widgets/lv_checkbox.c ****  *      TYPEDEFS
  23:lvgl\src\lv_widgets/lv_checkbox.c ****  **********************/
  24:lvgl\src\lv_widgets/lv_checkbox.c **** 
  25:lvgl\src\lv_widgets/lv_checkbox.c **** /**********************
  26:lvgl\src\lv_widgets/lv_checkbox.c ****  *  STATIC PROTOTYPES
  27:lvgl\src\lv_widgets/lv_checkbox.c ****  **********************/
  28:lvgl\src\lv_widgets/lv_checkbox.c **** static lv_res_t lv_checkbox_signal(lv_obj_t * cb, lv_signal_t sign, void * param);
  29:lvgl\src\lv_widgets/lv_checkbox.c **** static lv_style_list_t * lv_checkbox_get_style(lv_obj_t * cb, uint8_t type);
  30:lvgl\src\lv_widgets/lv_checkbox.c **** 
  31:lvgl\src\lv_widgets/lv_checkbox.c **** /**********************
ARM GAS  C:\Users\strap\AppData\Local\Temp\ccEauLm2.s 			page 2


  32:lvgl\src\lv_widgets/lv_checkbox.c ****  *  STATIC VARIABLES
  33:lvgl\src\lv_widgets/lv_checkbox.c ****  **********************/
  34:lvgl\src\lv_widgets/lv_checkbox.c **** static lv_signal_cb_t ancestor_signal;
  35:lvgl\src\lv_widgets/lv_checkbox.c **** 
  36:lvgl\src\lv_widgets/lv_checkbox.c **** /**********************
  37:lvgl\src\lv_widgets/lv_checkbox.c ****  *      MACROS
  38:lvgl\src\lv_widgets/lv_checkbox.c ****  **********************/
  39:lvgl\src\lv_widgets/lv_checkbox.c **** 
  40:lvgl\src\lv_widgets/lv_checkbox.c **** /**********************
  41:lvgl\src\lv_widgets/lv_checkbox.c ****  *   GLOBAL FUNCTIONS
  42:lvgl\src\lv_widgets/lv_checkbox.c ****  **********************/
  43:lvgl\src\lv_widgets/lv_checkbox.c **** 
  44:lvgl\src\lv_widgets/lv_checkbox.c **** /**
  45:lvgl\src\lv_widgets/lv_checkbox.c ****  * Create a check box objects
  46:lvgl\src\lv_widgets/lv_checkbox.c ****  * @param par pointer to an object, it will be the parent of the new check box
  47:lvgl\src\lv_widgets/lv_checkbox.c ****  * @param copy pointer to a check box object, if not NULL then the new object will be copied from i
  48:lvgl\src\lv_widgets/lv_checkbox.c ****  * @return pointer to the created check box
  49:lvgl\src\lv_widgets/lv_checkbox.c ****  */
  50:lvgl\src\lv_widgets/lv_checkbox.c **** lv_obj_t * lv_checkbox_create(lv_obj_t * par, const lv_obj_t * copy)
  51:lvgl\src\lv_widgets/lv_checkbox.c **** {
  52:lvgl\src\lv_widgets/lv_checkbox.c ****     LV_LOG_TRACE("check box create started");
  53:lvgl\src\lv_widgets/lv_checkbox.c **** 
  54:lvgl\src\lv_widgets/lv_checkbox.c ****     /*Create the ancestor basic object*/
  55:lvgl\src\lv_widgets/lv_checkbox.c ****     lv_obj_t * cb = lv_btn_create(par, copy);
  56:lvgl\src\lv_widgets/lv_checkbox.c ****     LV_ASSERT_MEM(cb);
  57:lvgl\src\lv_widgets/lv_checkbox.c ****     if(cb == NULL) return NULL;
  58:lvgl\src\lv_widgets/lv_checkbox.c **** 
  59:lvgl\src\lv_widgets/lv_checkbox.c ****     if(ancestor_signal == NULL) ancestor_signal = lv_obj_get_signal_cb(cb);
  60:lvgl\src\lv_widgets/lv_checkbox.c **** 
  61:lvgl\src\lv_widgets/lv_checkbox.c ****     lv_checkbox_ext_t * ext = lv_obj_allocate_ext_attr(cb, sizeof(lv_checkbox_ext_t));
  62:lvgl\src\lv_widgets/lv_checkbox.c ****     LV_ASSERT_MEM(ext);
  63:lvgl\src\lv_widgets/lv_checkbox.c ****     if(ext == NULL) {
  64:lvgl\src\lv_widgets/lv_checkbox.c ****         lv_obj_del(cb);
  65:lvgl\src\lv_widgets/lv_checkbox.c ****         return NULL;
  66:lvgl\src\lv_widgets/lv_checkbox.c ****     }
  67:lvgl\src\lv_widgets/lv_checkbox.c **** 
  68:lvgl\src\lv_widgets/lv_checkbox.c ****     ext->bullet = NULL;
  69:lvgl\src\lv_widgets/lv_checkbox.c ****     ext->label  = NULL;
  70:lvgl\src\lv_widgets/lv_checkbox.c **** 
  71:lvgl\src\lv_widgets/lv_checkbox.c ****     lv_obj_set_signal_cb(cb, lv_checkbox_signal);
  72:lvgl\src\lv_widgets/lv_checkbox.c **** 
  73:lvgl\src\lv_widgets/lv_checkbox.c ****     /*Init the new checkbox object*/
  74:lvgl\src\lv_widgets/lv_checkbox.c ****     if(copy == NULL) {
  75:lvgl\src\lv_widgets/lv_checkbox.c ****         ext->bullet = lv_obj_create(cb, NULL);
  76:lvgl\src\lv_widgets/lv_checkbox.c ****         lv_obj_set_click(ext->bullet, false);
  77:lvgl\src\lv_widgets/lv_checkbox.c **** 
  78:lvgl\src\lv_widgets/lv_checkbox.c ****         ext->label = lv_label_create(cb, NULL);
  79:lvgl\src\lv_widgets/lv_checkbox.c **** 
  80:lvgl\src\lv_widgets/lv_checkbox.c ****         lv_checkbox_set_text(cb, "Check box");
  81:lvgl\src\lv_widgets/lv_checkbox.c ****         lv_btn_set_layout(cb, LV_LAYOUT_ROW_MID);
  82:lvgl\src\lv_widgets/lv_checkbox.c ****         lv_btn_set_fit(cb, LV_FIT_TIGHT);
  83:lvgl\src\lv_widgets/lv_checkbox.c ****         lv_btn_set_checkable(cb, true);
  84:lvgl\src\lv_widgets/lv_checkbox.c ****         lv_obj_add_protect(cb, LV_PROTECT_PRESS_LOST);
  85:lvgl\src\lv_widgets/lv_checkbox.c **** 
  86:lvgl\src\lv_widgets/lv_checkbox.c ****         lv_theme_apply(cb, LV_THEME_CHECKBOX);
  87:lvgl\src\lv_widgets/lv_checkbox.c **** 
  88:lvgl\src\lv_widgets/lv_checkbox.c ****     }
ARM GAS  C:\Users\strap\AppData\Local\Temp\ccEauLm2.s 			page 3


  89:lvgl\src\lv_widgets/lv_checkbox.c ****     else {
  90:lvgl\src\lv_widgets/lv_checkbox.c ****         lv_checkbox_ext_t * copy_ext = lv_obj_get_ext_attr(copy);
  91:lvgl\src\lv_widgets/lv_checkbox.c ****         ext->bullet            = lv_obj_create(cb, copy_ext->bullet);
  92:lvgl\src\lv_widgets/lv_checkbox.c ****         ext->label             = lv_label_create(cb, copy_ext->label);
  93:lvgl\src\lv_widgets/lv_checkbox.c **** 
  94:lvgl\src\lv_widgets/lv_checkbox.c ****         /*Refresh the style with new signal function*/
  95:lvgl\src\lv_widgets/lv_checkbox.c ****         //        lv_obj_refresh_style(cb);
  96:lvgl\src\lv_widgets/lv_checkbox.c ****     }
  97:lvgl\src\lv_widgets/lv_checkbox.c **** 
  98:lvgl\src\lv_widgets/lv_checkbox.c ****     LV_LOG_INFO("check box created");
  99:lvgl\src\lv_widgets/lv_checkbox.c **** 
 100:lvgl\src\lv_widgets/lv_checkbox.c ****     return cb;
 101:lvgl\src\lv_widgets/lv_checkbox.c **** }
 102:lvgl\src\lv_widgets/lv_checkbox.c **** 
 103:lvgl\src\lv_widgets/lv_checkbox.c **** /*=====================
 104:lvgl\src\lv_widgets/lv_checkbox.c ****  * Setter functions
 105:lvgl\src\lv_widgets/lv_checkbox.c ****  *====================*/
 106:lvgl\src\lv_widgets/lv_checkbox.c **** 
 107:lvgl\src\lv_widgets/lv_checkbox.c **** /**
 108:lvgl\src\lv_widgets/lv_checkbox.c ****  * Set the text of a check box. `txt` will be copied and may be deallocated
 109:lvgl\src\lv_widgets/lv_checkbox.c ****  * after this function returns.
 110:lvgl\src\lv_widgets/lv_checkbox.c ****  * @param cb pointer to a check box
 111:lvgl\src\lv_widgets/lv_checkbox.c ****  * @param txt the text of the check box. NULL to refresh with the current text.
 112:lvgl\src\lv_widgets/lv_checkbox.c ****  */
 113:lvgl\src\lv_widgets/lv_checkbox.c **** void lv_checkbox_set_text(lv_obj_t * cb, const char * txt)
 114:lvgl\src\lv_widgets/lv_checkbox.c **** {
 115:lvgl\src\lv_widgets/lv_checkbox.c ****     LV_ASSERT_OBJ(cb, LV_OBJX_NAME);
 116:lvgl\src\lv_widgets/lv_checkbox.c **** 
 117:lvgl\src\lv_widgets/lv_checkbox.c ****     lv_checkbox_ext_t * ext = lv_obj_get_ext_attr(cb);
 118:lvgl\src\lv_widgets/lv_checkbox.c ****     lv_label_set_text(ext->label, txt);
 119:lvgl\src\lv_widgets/lv_checkbox.c **** }
 120:lvgl\src\lv_widgets/lv_checkbox.c **** 
 121:lvgl\src\lv_widgets/lv_checkbox.c **** /**
 122:lvgl\src\lv_widgets/lv_checkbox.c ****  * Set the text of a check box. `txt` must not be deallocated during the life
 123:lvgl\src\lv_widgets/lv_checkbox.c ****  * of this checkbox.
 124:lvgl\src\lv_widgets/lv_checkbox.c ****  * @param cb pointer to a check box
 125:lvgl\src\lv_widgets/lv_checkbox.c ****  * @param txt the text of the check box. NULL to refresh with the current text.
 126:lvgl\src\lv_widgets/lv_checkbox.c ****  */
 127:lvgl\src\lv_widgets/lv_checkbox.c **** void lv_checkbox_set_text_static(lv_obj_t * cb, const char * txt)
 128:lvgl\src\lv_widgets/lv_checkbox.c **** {
 129:lvgl\src\lv_widgets/lv_checkbox.c ****     LV_ASSERT_OBJ(cb, LV_OBJX_NAME);
 130:lvgl\src\lv_widgets/lv_checkbox.c **** 
 131:lvgl\src\lv_widgets/lv_checkbox.c ****     lv_checkbox_ext_t * ext = lv_obj_get_ext_attr(cb);
 132:lvgl\src\lv_widgets/lv_checkbox.c ****     lv_label_set_text_static(ext->label, txt);
 133:lvgl\src\lv_widgets/lv_checkbox.c **** }
 134:lvgl\src\lv_widgets/lv_checkbox.c **** 
 135:lvgl\src\lv_widgets/lv_checkbox.c **** /**
 136:lvgl\src\lv_widgets/lv_checkbox.c ****  * Set the state of the check box
 137:lvgl\src\lv_widgets/lv_checkbox.c ****  * @param cb pointer to a check box object
 138:lvgl\src\lv_widgets/lv_checkbox.c ****  * @param checked true: make the check box checked; false: make it unchecked
 139:lvgl\src\lv_widgets/lv_checkbox.c ****  */
 140:lvgl\src\lv_widgets/lv_checkbox.c **** void lv_checkbox_set_checked(lv_obj_t * cb, bool checked)
 141:lvgl\src\lv_widgets/lv_checkbox.c **** {
 142:lvgl\src\lv_widgets/lv_checkbox.c ****     lv_checkbox_ext_t * ext = lv_obj_get_ext_attr(cb);
 143:lvgl\src\lv_widgets/lv_checkbox.c ****     lv_btn_set_state(cb, checked ? LV_BTN_STATE_CHECKED_RELEASED : LV_BTN_STATE_RELEASED);
 144:lvgl\src\lv_widgets/lv_checkbox.c **** 
 145:lvgl\src\lv_widgets/lv_checkbox.c ****     if(checked) {
ARM GAS  C:\Users\strap\AppData\Local\Temp\ccEauLm2.s 			page 4


 146:lvgl\src\lv_widgets/lv_checkbox.c ****         lv_obj_add_state(ext->bullet, LV_STATE_CHECKED);
 147:lvgl\src\lv_widgets/lv_checkbox.c ****         lv_obj_add_state(ext->label, LV_STATE_CHECKED);
 148:lvgl\src\lv_widgets/lv_checkbox.c ****     }
 149:lvgl\src\lv_widgets/lv_checkbox.c ****     else {
 150:lvgl\src\lv_widgets/lv_checkbox.c ****         lv_obj_clear_state(ext->bullet, LV_STATE_CHECKED);
 151:lvgl\src\lv_widgets/lv_checkbox.c ****         lv_obj_clear_state(ext->label, LV_STATE_CHECKED);
 152:lvgl\src\lv_widgets/lv_checkbox.c ****     }
 153:lvgl\src\lv_widgets/lv_checkbox.c **** 
 154:lvgl\src\lv_widgets/lv_checkbox.c ****     lv_obj_clear_state(ext->bullet, LV_STATE_DISABLED);
 155:lvgl\src\lv_widgets/lv_checkbox.c ****     lv_obj_clear_state(ext->label, LV_STATE_DISABLED);
 156:lvgl\src\lv_widgets/lv_checkbox.c **** 
 157:lvgl\src\lv_widgets/lv_checkbox.c **** #if LV_USE_ANIMATION
 158:lvgl\src\lv_widgets/lv_checkbox.c ****     lv_obj_finish_transitions(cb, LV_CHECKBOX_PART_BG);
 159:lvgl\src\lv_widgets/lv_checkbox.c ****     lv_obj_finish_transitions(ext->bullet, LV_OBJ_PART_MAIN);
 160:lvgl\src\lv_widgets/lv_checkbox.c **** #endif
 161:lvgl\src\lv_widgets/lv_checkbox.c **** }
 162:lvgl\src\lv_widgets/lv_checkbox.c **** 
 163:lvgl\src\lv_widgets/lv_checkbox.c **** 
 164:lvgl\src\lv_widgets/lv_checkbox.c **** /**
 165:lvgl\src\lv_widgets/lv_checkbox.c ****  * Make the check box inactive (disabled)
 166:lvgl\src\lv_widgets/lv_checkbox.c ****  * @param cb pointer to a check box object
 167:lvgl\src\lv_widgets/lv_checkbox.c ****  */
 168:lvgl\src\lv_widgets/lv_checkbox.c **** void lv_checkbox_set_disabled(lv_obj_t * cb)
 169:lvgl\src\lv_widgets/lv_checkbox.c **** {
 170:lvgl\src\lv_widgets/lv_checkbox.c ****     lv_checkbox_ext_t * ext = lv_obj_get_ext_attr(cb);
 171:lvgl\src\lv_widgets/lv_checkbox.c ****     lv_btn_set_state(cb, LV_BTN_STATE_DISABLED);
 172:lvgl\src\lv_widgets/lv_checkbox.c **** 
 173:lvgl\src\lv_widgets/lv_checkbox.c ****     lv_obj_add_state(ext->bullet, LV_STATE_DISABLED);
 174:lvgl\src\lv_widgets/lv_checkbox.c ****     lv_obj_add_state(ext->label, LV_STATE_DISABLED);
 175:lvgl\src\lv_widgets/lv_checkbox.c **** 
 176:lvgl\src\lv_widgets/lv_checkbox.c **** #if LV_USE_ANIMATION
 177:lvgl\src\lv_widgets/lv_checkbox.c ****     lv_obj_finish_transitions(cb, LV_CHECKBOX_PART_BG);
 178:lvgl\src\lv_widgets/lv_checkbox.c ****     lv_obj_finish_transitions(ext->bullet, LV_OBJ_PART_MAIN);
 179:lvgl\src\lv_widgets/lv_checkbox.c **** #endif
 180:lvgl\src\lv_widgets/lv_checkbox.c **** }
 181:lvgl\src\lv_widgets/lv_checkbox.c **** 
 182:lvgl\src\lv_widgets/lv_checkbox.c **** /**
 183:lvgl\src\lv_widgets/lv_checkbox.c ****  * Set the state of a check box
 184:lvgl\src\lv_widgets/lv_checkbox.c ****  * @param cb pointer to a check box object
 185:lvgl\src\lv_widgets/lv_checkbox.c ****  * @param state the new state of the check box (from lv_btn_state_t enum)
 186:lvgl\src\lv_widgets/lv_checkbox.c ****  */
 187:lvgl\src\lv_widgets/lv_checkbox.c **** void lv_checkbox_set_state(lv_obj_t * cb, lv_btn_state_t state)
 188:lvgl\src\lv_widgets/lv_checkbox.c **** {
 189:lvgl\src\lv_widgets/lv_checkbox.c ****     lv_checkbox_ext_t * ext = lv_obj_get_ext_attr(cb);
 190:lvgl\src\lv_widgets/lv_checkbox.c ****     lv_btn_set_state(cb, state);
 191:lvgl\src\lv_widgets/lv_checkbox.c ****     lv_obj_set_state(ext->bullet, lv_obj_get_state(cb, LV_CHECKBOX_PART_BG));
 192:lvgl\src\lv_widgets/lv_checkbox.c ****     lv_obj_set_state(ext->bullet, lv_obj_get_state(cb, LV_CHECKBOX_PART_BG));
 193:lvgl\src\lv_widgets/lv_checkbox.c **** 
 194:lvgl\src\lv_widgets/lv_checkbox.c **** #if LV_USE_ANIMATION
 195:lvgl\src\lv_widgets/lv_checkbox.c ****     lv_obj_finish_transitions(cb, LV_CHECKBOX_PART_BG);
 196:lvgl\src\lv_widgets/lv_checkbox.c ****     lv_obj_finish_transitions(ext->bullet, LV_OBJ_PART_MAIN);
 197:lvgl\src\lv_widgets/lv_checkbox.c **** #endif
 198:lvgl\src\lv_widgets/lv_checkbox.c **** }
 199:lvgl\src\lv_widgets/lv_checkbox.c **** 
 200:lvgl\src\lv_widgets/lv_checkbox.c **** /*=====================
 201:lvgl\src\lv_widgets/lv_checkbox.c ****  * Getter functions
 202:lvgl\src\lv_widgets/lv_checkbox.c ****  *====================*/
ARM GAS  C:\Users\strap\AppData\Local\Temp\ccEauLm2.s 			page 5


 203:lvgl\src\lv_widgets/lv_checkbox.c **** 
 204:lvgl\src\lv_widgets/lv_checkbox.c **** /**
 205:lvgl\src\lv_widgets/lv_checkbox.c ****  * Get the text of a check box
 206:lvgl\src\lv_widgets/lv_checkbox.c ****  * @param cb pointer to check box object
 207:lvgl\src\lv_widgets/lv_checkbox.c ****  * @return pointer to the text of the check box
 208:lvgl\src\lv_widgets/lv_checkbox.c ****  */
 209:lvgl\src\lv_widgets/lv_checkbox.c **** const char * lv_checkbox_get_text(const lv_obj_t * cb)
 210:lvgl\src\lv_widgets/lv_checkbox.c **** {
 211:lvgl\src\lv_widgets/lv_checkbox.c ****     LV_ASSERT_OBJ(cb, LV_OBJX_NAME);
 212:lvgl\src\lv_widgets/lv_checkbox.c **** 
 213:lvgl\src\lv_widgets/lv_checkbox.c ****     lv_checkbox_ext_t * ext = lv_obj_get_ext_attr(cb);
 214:lvgl\src\lv_widgets/lv_checkbox.c ****     return lv_label_get_text(ext->label);
 215:lvgl\src\lv_widgets/lv_checkbox.c **** }
 216:lvgl\src\lv_widgets/lv_checkbox.c **** 
 217:lvgl\src\lv_widgets/lv_checkbox.c **** /**********************
 218:lvgl\src\lv_widgets/lv_checkbox.c ****  *   STATIC FUNCTIONS
 219:lvgl\src\lv_widgets/lv_checkbox.c ****  **********************/
 220:lvgl\src\lv_widgets/lv_checkbox.c **** 
 221:lvgl\src\lv_widgets/lv_checkbox.c **** /**
 222:lvgl\src\lv_widgets/lv_checkbox.c ****  * Signal function of the check box
 223:lvgl\src\lv_widgets/lv_checkbox.c ****  * @param cb pointer to a check box object
 224:lvgl\src\lv_widgets/lv_checkbox.c ****  * @param sign a signal type from lv_signal_t enum
 225:lvgl\src\lv_widgets/lv_checkbox.c ****  * @param param pointer to a signal specific variable
 226:lvgl\src\lv_widgets/lv_checkbox.c ****  * @return LV_RES_OK: the object is not deleted in the function; LV_RES_INV: the object is deleted
 227:lvgl\src\lv_widgets/lv_checkbox.c ****  */
 228:lvgl\src\lv_widgets/lv_checkbox.c **** static lv_res_t lv_checkbox_signal(lv_obj_t * cb, lv_signal_t sign, void * param)
 229:lvgl\src\lv_widgets/lv_checkbox.c **** {
 230:lvgl\src\lv_widgets/lv_checkbox.c ****     lv_res_t res;
 231:lvgl\src\lv_widgets/lv_checkbox.c ****     if(sign == LV_SIGNAL_GET_STYLE) {
 232:lvgl\src\lv_widgets/lv_checkbox.c ****         lv_get_style_info_t * info = param;
 233:lvgl\src\lv_widgets/lv_checkbox.c ****         info->result = lv_checkbox_get_style(cb, info->part);
 234:lvgl\src\lv_widgets/lv_checkbox.c ****         if(info->result != NULL) return LV_RES_OK;
 235:lvgl\src\lv_widgets/lv_checkbox.c ****         else return ancestor_signal(cb, sign, param);
 236:lvgl\src\lv_widgets/lv_checkbox.c ****     }
 237:lvgl\src\lv_widgets/lv_checkbox.c **** 
 238:lvgl\src\lv_widgets/lv_checkbox.c ****     /* Include the ancient signal function */
 239:lvgl\src\lv_widgets/lv_checkbox.c ****     res = ancestor_signal(cb, sign, param);
 240:lvgl\src\lv_widgets/lv_checkbox.c ****     if(res != LV_RES_OK) return res;
 241:lvgl\src\lv_widgets/lv_checkbox.c ****     if(sign == LV_SIGNAL_GET_TYPE) return lv_obj_handle_get_type_signal(param, LV_OBJX_NAME);
 242:lvgl\src\lv_widgets/lv_checkbox.c **** 
 243:lvgl\src\lv_widgets/lv_checkbox.c ****     lv_checkbox_ext_t * ext = lv_obj_get_ext_attr(cb);
 244:lvgl\src\lv_widgets/lv_checkbox.c **** 
 245:lvgl\src\lv_widgets/lv_checkbox.c ****     if(sign == LV_SIGNAL_STYLE_CHG) {
 246:lvgl\src\lv_widgets/lv_checkbox.c ****         const lv_font_t * font = lv_obj_get_style_text_font(ext->label, LV_LABEL_PART_MAIN);
 247:lvgl\src\lv_widgets/lv_checkbox.c ****         lv_coord_t line_height = lv_font_get_line_height(font);
 248:lvgl\src\lv_widgets/lv_checkbox.c ****         lv_coord_t leftp = lv_obj_get_style_pad_left(cb, LV_CHECKBOX_PART_BULLET);
 249:lvgl\src\lv_widgets/lv_checkbox.c ****         lv_coord_t rightp = lv_obj_get_style_pad_right(cb, LV_CHECKBOX_PART_BULLET);
 250:lvgl\src\lv_widgets/lv_checkbox.c ****         lv_coord_t topp = lv_obj_get_style_pad_top(cb, LV_CHECKBOX_PART_BULLET);
 251:lvgl\src\lv_widgets/lv_checkbox.c ****         lv_coord_t bottomp = lv_obj_get_style_pad_bottom(cb, LV_CHECKBOX_PART_BULLET);
 252:lvgl\src\lv_widgets/lv_checkbox.c **** 
 253:lvgl\src\lv_widgets/lv_checkbox.c ****         lv_obj_set_size(ext->bullet, line_height + leftp + rightp, line_height + topp + bottomp);
 254:lvgl\src\lv_widgets/lv_checkbox.c ****         lv_obj_set_state(ext->bullet, lv_obj_get_state(cb, LV_CHECKBOX_PART_BG));
 255:lvgl\src\lv_widgets/lv_checkbox.c ****     }
 256:lvgl\src\lv_widgets/lv_checkbox.c ****     else if(sign == LV_SIGNAL_PRESSED || sign == LV_SIGNAL_RELEASED || sign == LV_SIGNAL_PRESS_LOST
 257:lvgl\src\lv_widgets/lv_checkbox.c ****             sign == LV_SIGNAL_FOCUS || sign == LV_SIGNAL_DEFOCUS) {
 258:lvgl\src\lv_widgets/lv_checkbox.c ****         lv_obj_set_state(ext->bullet, lv_obj_get_state(cb, LV_CHECKBOX_PART_BG));
 259:lvgl\src\lv_widgets/lv_checkbox.c ****     }
ARM GAS  C:\Users\strap\AppData\Local\Temp\ccEauLm2.s 			page 6


 260:lvgl\src\lv_widgets/lv_checkbox.c ****     else if(sign == LV_SIGNAL_CONTROL) {
 261:lvgl\src\lv_widgets/lv_checkbox.c **** #if LV_USE_GROUP
 262:lvgl\src\lv_widgets/lv_checkbox.c ****         char c = *((char *)param);
 263:lvgl\src\lv_widgets/lv_checkbox.c ****         if(c == LV_KEY_RIGHT || c == LV_KEY_DOWN || c == LV_KEY_LEFT || c == LV_KEY_UP) {
 264:lvgl\src\lv_widgets/lv_checkbox.c ****             /*Follow the backgrounds state with the bullet*/
 265:lvgl\src\lv_widgets/lv_checkbox.c ****             lv_obj_set_state(ext->bullet, lv_obj_get_state(cb, LV_CHECKBOX_PART_BG));
 266:lvgl\src\lv_widgets/lv_checkbox.c ****         }
 267:lvgl\src\lv_widgets/lv_checkbox.c **** #endif
 268:lvgl\src\lv_widgets/lv_checkbox.c ****     }
 269:lvgl\src\lv_widgets/lv_checkbox.c **** 
 270:lvgl\src\lv_widgets/lv_checkbox.c ****     return res;
 271:lvgl\src\lv_widgets/lv_checkbox.c **** }
 272:lvgl\src\lv_widgets/lv_checkbox.c **** 
 273:lvgl\src\lv_widgets/lv_checkbox.c **** 
 274:lvgl\src\lv_widgets/lv_checkbox.c **** static lv_style_list_t * lv_checkbox_get_style(lv_obj_t * cb, uint8_t type)
 275:lvgl\src\lv_widgets/lv_checkbox.c **** {
  27              		.loc 1 275 0
  28              		.cfi_startproc
  29              		@ args = 0, pretend = 0, frame = 0
  30              		@ frame_needed = 0, uses_anonymous_args = 0
  31              	.LVL0:
  32 0000 38B5     		push	{r3, r4, r5, lr}
  33              		.cfi_def_cfa_offset 16
  34              		.cfi_offset 3, -16
  35              		.cfi_offset 4, -12
  36              		.cfi_offset 5, -8
  37              		.cfi_offset 14, -4
  38 0002 0446     		mov	r4, r0
  39 0004 0D46     		mov	r5, r1
 276:lvgl\src\lv_widgets/lv_checkbox.c ****     lv_style_list_t * style_dsc_p;
 277:lvgl\src\lv_widgets/lv_checkbox.c **** 
 278:lvgl\src\lv_widgets/lv_checkbox.c ****     lv_checkbox_ext_t * ext = lv_obj_get_ext_attr(cb);
  40              		.loc 1 278 0
  41 0006 FFF7FEFF 		bl	lv_obj_get_ext_attr
  42              	.LVL1:
 279:lvgl\src\lv_widgets/lv_checkbox.c ****     switch(type) {
  43              		.loc 1 279 0
  44 000a 15B1     		cbz	r5, .L3
  45 000c 402D     		cmp	r5, #64
  46 000e 03D0     		beq	.L4
  47 0010 07E0     		b	.L6
  48              	.L3:
 280:lvgl\src\lv_widgets/lv_checkbox.c ****         case LV_CHECKBOX_PART_BG:
 281:lvgl\src\lv_widgets/lv_checkbox.c ****             style_dsc_p = &cb->style_list;
  49              		.loc 1 281 0
  50 0012 04F12800 		add	r0, r4, #40
  51              	.LVL2:
 282:lvgl\src\lv_widgets/lv_checkbox.c ****             break;
  52              		.loc 1 282 0
  53 0016 38BD     		pop	{r3, r4, r5, pc}
  54              	.LVL3:
  55              	.L4:
 283:lvgl\src\lv_widgets/lv_checkbox.c ****         case LV_CHECKBOX_PART_BULLET:
 284:lvgl\src\lv_widgets/lv_checkbox.c ****             style_dsc_p = lv_obj_get_style_list(ext->bullet, LV_BTN_PART_MAIN);
  56              		.loc 1 284 0
  57 0018 0021     		movs	r1, #0
  58 001a 4068     		ldr	r0, [r0, #4]
ARM GAS  C:\Users\strap\AppData\Local\Temp\ccEauLm2.s 			page 7


  59              	.LVL4:
  60 001c FFF7FEFF 		bl	lv_obj_get_style_list
  61              	.LVL5:
 285:lvgl\src\lv_widgets/lv_checkbox.c ****             break;
  62              		.loc 1 285 0
  63 0020 38BD     		pop	{r3, r4, r5, pc}
  64              	.LVL6:
  65              	.L6:
 286:lvgl\src\lv_widgets/lv_checkbox.c ****         default:
 287:lvgl\src\lv_widgets/lv_checkbox.c ****             style_dsc_p = NULL;
  66              		.loc 1 287 0
  67 0022 0020     		movs	r0, #0
  68              	.LVL7:
 288:lvgl\src\lv_widgets/lv_checkbox.c ****     }
 289:lvgl\src\lv_widgets/lv_checkbox.c **** 
 290:lvgl\src\lv_widgets/lv_checkbox.c ****     return style_dsc_p;
 291:lvgl\src\lv_widgets/lv_checkbox.c **** }
  69              		.loc 1 291 0
  70 0024 38BD     		pop	{r3, r4, r5, pc}
  71              		.cfi_endproc
  72              	.LFE350:
  73              		.size	lv_checkbox_get_style, .-lv_checkbox_get_style
  74 0026 00BF     		.section	.text.lv_checkbox_signal,"ax",%progbits
  75              		.align	2
  76              		.thumb
  77              		.thumb_func
  78              		.type	lv_checkbox_signal, %function
  79              	lv_checkbox_signal:
  80              	.LFB349:
 229:lvgl\src\lv_widgets/lv_checkbox.c ****     lv_res_t res;
  81              		.loc 1 229 0
  82              		.cfi_startproc
  83              		@ args = 0, pretend = 0, frame = 0
  84              		@ frame_needed = 0, uses_anonymous_args = 0
  85              	.LVL8:
  86 0000 2DE9F047 		push	{r4, r5, r6, r7, r8, r9, r10, lr}
  87              		.cfi_def_cfa_offset 32
  88              		.cfi_offset 4, -32
  89              		.cfi_offset 5, -28
  90              		.cfi_offset 6, -24
  91              		.cfi_offset 7, -20
  92              		.cfi_offset 8, -16
  93              		.cfi_offset 9, -12
  94              		.cfi_offset 10, -8
  95              		.cfi_offset 14, -4
  96 0004 0646     		mov	r6, r0
  97 0006 0D46     		mov	r5, r1
  98 0008 1746     		mov	r7, r2
 231:lvgl\src\lv_widgets/lv_checkbox.c ****         lv_get_style_info_t * info = param;
  99              		.loc 1 231 0
 100 000a 0829     		cmp	r1, #8
 101 000c 0DD1     		bne	.L9
 102              	.LVL9:
 103              	.LBB26:
 233:lvgl\src\lv_widgets/lv_checkbox.c ****         if(info->result != NULL) return LV_RES_OK;
 104              		.loc 1 233 0
 105 000e 1178     		ldrb	r1, [r2]	@ zero_extendqisi2
ARM GAS  C:\Users\strap\AppData\Local\Temp\ccEauLm2.s 			page 8


 106              	.LVL10:
 107 0010 FFF7FEFF 		bl	lv_checkbox_get_style
 108              	.LVL11:
 109 0014 7860     		str	r0, [r7, #4]
 234:lvgl\src\lv_widgets/lv_checkbox.c ****         else return ancestor_signal(cb, sign, param);
 110              		.loc 1 234 0
 111 0016 0028     		cmp	r0, #0
 112 0018 7ED1     		bne	.L15
 235:lvgl\src\lv_widgets/lv_checkbox.c ****     }
 113              		.loc 1 235 0
 114 001a 454B     		ldr	r3, .L20
 115 001c 1B68     		ldr	r3, [r3]
 116 001e 3A46     		mov	r2, r7
 117 0020 2946     		mov	r1, r5
 118 0022 3046     		mov	r0, r6
 119 0024 9847     		blx	r3
 120              	.LVL12:
 121 0026 BDE8F087 		pop	{r4, r5, r6, r7, r8, r9, r10, pc}
 122              	.LVL13:
 123              	.L9:
 124              	.LBE26:
 239:lvgl\src\lv_widgets/lv_checkbox.c ****     if(res != LV_RES_OK) return res;
 125              		.loc 1 239 0
 126 002a 414B     		ldr	r3, .L20
 127 002c 1B68     		ldr	r3, [r3]
 128 002e 9847     		blx	r3
 129              	.LVL14:
 130 0030 0446     		mov	r4, r0
 131              	.LVL15:
 240:lvgl\src\lv_widgets/lv_checkbox.c ****     if(sign == LV_SIGNAL_GET_TYPE) return lv_obj_handle_get_type_signal(param, LV_OBJX_NAME);
 132              		.loc 1 240 0
 133 0032 0128     		cmp	r0, #1
 134 0034 73D1     		bne	.L16
 241:lvgl\src\lv_widgets/lv_checkbox.c **** 
 135              		.loc 1 241 0
 136 0036 072D     		cmp	r5, #7
 137 0038 05D1     		bne	.L11
 241:lvgl\src\lv_widgets/lv_checkbox.c **** 
 138              		.loc 1 241 0 is_stmt 0 discriminator 1
 139 003a 3E49     		ldr	r1, .L20+4
 140 003c 3846     		mov	r0, r7
 141              	.LVL16:
 142 003e FFF7FEFF 		bl	lv_obj_handle_get_type_signal
 143              	.LVL17:
 144 0042 BDE8F087 		pop	{r4, r5, r6, r7, r8, r9, r10, pc}
 145              	.LVL18:
 146              	.L11:
 243:lvgl\src\lv_widgets/lv_checkbox.c **** 
 147              		.loc 1 243 0 is_stmt 1
 148 0046 3046     		mov	r0, r6
 149              	.LVL19:
 150 0048 FFF7FEFF 		bl	lv_obj_get_ext_attr
 151              	.LVL20:
 152 004c 8046     		mov	r8, r0
 153              	.LVL21:
 245:lvgl\src\lv_widgets/lv_checkbox.c ****         const lv_font_t * font = lv_obj_get_style_text_font(ext->label, LV_LABEL_PART_MAIN);
 154              		.loc 1 245 0
ARM GAS  C:\Users\strap\AppData\Local\Temp\ccEauLm2.s 			page 9


 155 004e 042D     		cmp	r5, #4
 156 0050 38D1     		bne	.L12
 157              	.LVL22:
 158              	.LBB27:
 159              	.LBB28:
 160              	.LBB29:
 161              		.file 2 "lvgl\\src\\lv_widgets\\../lv_core/lv_obj_style_dec.h"
   1:lvgl\src\lv_widgets\../lv_core/lv_obj_style_dec.h **** 
   2:lvgl\src\lv_widgets\../lv_core/lv_obj_style_dec.h **** /**
   3:lvgl\src\lv_widgets\../lv_core/lv_obj_style_dec.h ****  * @file lv_obj_style_dec.h
   4:lvgl\src\lv_widgets\../lv_core/lv_obj_style_dec.h ****  *
   5:lvgl\src\lv_widgets\../lv_core/lv_obj_style_dec.h ****  */
   6:lvgl\src\lv_widgets\../lv_core/lv_obj_style_dec.h **** 
   7:lvgl\src\lv_widgets\../lv_core/lv_obj_style_dec.h **** #ifndef LV_OBJ_STYLE_DEC_H
   8:lvgl\src\lv_widgets\../lv_core/lv_obj_style_dec.h **** #define LV_OBJ_STYLE_DEC_H
   9:lvgl\src\lv_widgets\../lv_core/lv_obj_style_dec.h **** 
  10:lvgl\src\lv_widgets\../lv_core/lv_obj_style_dec.h **** #ifdef __cplusplus
  11:lvgl\src\lv_widgets\../lv_core/lv_obj_style_dec.h **** extern "C" {
  12:lvgl\src\lv_widgets\../lv_core/lv_obj_style_dec.h **** #endif
  13:lvgl\src\lv_widgets\../lv_core/lv_obj_style_dec.h **** 
  14:lvgl\src\lv_widgets\../lv_core/lv_obj_style_dec.h **** /*********************
  15:lvgl\src\lv_widgets\../lv_core/lv_obj_style_dec.h ****  *      DEFINES
  16:lvgl\src\lv_widgets\../lv_core/lv_obj_style_dec.h ****  *********************/
  17:lvgl\src\lv_widgets\../lv_core/lv_obj_style_dec.h **** 
  18:lvgl\src\lv_widgets\../lv_core/lv_obj_style_dec.h **** /**
  19:lvgl\src\lv_widgets\../lv_core/lv_obj_style_dec.h ****  * Macro to declare the most important style set/get API functions.
  20:lvgl\src\lv_widgets\../lv_core/lv_obj_style_dec.h ****  *
  21:lvgl\src\lv_widgets\../lv_core/lv_obj_style_dec.h ****  * Get the value of a style property from an object in the object's current state
  22:lvgl\src\lv_widgets\../lv_core/lv_obj_style_dec.h ****  * -----------------------------------------------------------------------------
  23:lvgl\src\lv_widgets\../lv_core/lv_obj_style_dec.h ****  *  - Get the value of a style property from an object in the object's current state.
  24:lvgl\src\lv_widgets\../lv_core/lv_obj_style_dec.h ****  *  - Transition animation is taken into account.
  25:lvgl\src\lv_widgets\../lv_core/lv_obj_style_dec.h ****  *  - If the property is not set in the object's styles check the parent(s) if the property can be 
  26:lvgl\src\lv_widgets\../lv_core/lv_obj_style_dec.h ****  *  - If still not found return a default value.
  27:lvgl\src\lv_widgets\../lv_core/lv_obj_style_dec.h ****  *  - For example:
  28:lvgl\src\lv_widgets\../lv_core/lv_obj_style_dec.h ****  *      `lv_style_int_t w = lv_obj_get_style_border_width(btn1, LV_BTN_PART_MAIN);`
  29:lvgl\src\lv_widgets\../lv_core/lv_obj_style_dec.h ****  *
  30:lvgl\src\lv_widgets\../lv_core/lv_obj_style_dec.h ****  * Set a local style property for an object in a given state
  31:lvgl\src\lv_widgets\../lv_core/lv_obj_style_dec.h ****  * ---------------------------------------------------------
  32:lvgl\src\lv_widgets\../lv_core/lv_obj_style_dec.h ****  *  - For example:
  33:lvgl\src\lv_widgets\../lv_core/lv_obj_style_dec.h ****  *      `lv_obj_set_style_local_border_width(btn1, LV_BTN_PART_MAIN, LV_STATE_PRESSED, 2);`
  34:lvgl\src\lv_widgets\../lv_core/lv_obj_style_dec.h ****  *
  35:lvgl\src\lv_widgets\../lv_core/lv_obj_style_dec.h ****  * Get a local style property's value of an object in a given state
  36:lvgl\src\lv_widgets\../lv_core/lv_obj_style_dec.h ****  * ----------------------------------------------------------------
  37:lvgl\src\lv_widgets\../lv_core/lv_obj_style_dec.h ****  *  - Return the best matching property in the given state.
  38:lvgl\src\lv_widgets\../lv_core/lv_obj_style_dec.h ****  *  - E.g. if `state` parameter is LV_STATE_PRESSED | LV_STATE_CHECKED` but the property defined on
  39:lvgl\src\lv_widgets\../lv_core/lv_obj_style_dec.h ****  *    `LV_STATE_PRESSED` and `LV_STATE_DEFAULT` the best matching state is `LV_STATE_PRESSED`
  40:lvgl\src\lv_widgets\../lv_core/lv_obj_style_dec.h ****  *    (because it has higher precedence) and it will be returned.
  41:lvgl\src\lv_widgets\../lv_core/lv_obj_style_dec.h ****  *  - If the property is not found even in `LV_STATE_DEFAULT` `-1` is returned.
  42:lvgl\src\lv_widgets\../lv_core/lv_obj_style_dec.h ****  *  - For example:
  43:lvgl\src\lv_widgets\../lv_core/lv_obj_style_dec.h ****  *      `//Type of result should be lv_style_int_t/lv_opa_t/lv_color_t/const void * according to th
  44:lvgl\src\lv_widgets\../lv_core/lv_obj_style_dec.h ****  *      `lv_style_int_t result;`
  45:lvgl\src\lv_widgets\../lv_core/lv_obj_style_dec.h ****  *      `lv_obj_get_style_local_border_width(btn1, LV_BTN_PART_MAIN, LV_STATE_PRESSED, &result);`
  46:lvgl\src\lv_widgets\../lv_core/lv_obj_style_dec.h ****  *      `if(weight > 0) ...the property is found and loaded into result...`
  47:lvgl\src\lv_widgets\../lv_core/lv_obj_style_dec.h ****  *
  48:lvgl\src\lv_widgets\../lv_core/lv_obj_style_dec.h ****  * Get the value from a style in a given state
  49:lvgl\src\lv_widgets\../lv_core/lv_obj_style_dec.h ****  * -------------------------------------------
  50:lvgl\src\lv_widgets\../lv_core/lv_obj_style_dec.h ****  * - The same rules applies to the return value then for "lv_obj_get_style_local_...()" above
ARM GAS  C:\Users\strap\AppData\Local\Temp\ccEauLm2.s 			page 10


  51:lvgl\src\lv_widgets\../lv_core/lv_obj_style_dec.h ****  * - For example
  52:lvgl\src\lv_widgets\../lv_core/lv_obj_style_dec.h ****  *      `int16_t weight = lv_style_get_border_width(&style1, LV_STATE_PRESSED, &result);`
  53:lvgl\src\lv_widgets\../lv_core/lv_obj_style_dec.h ****  *      `if(weight > 0) ...the property is found and loaded into result...`
  54:lvgl\src\lv_widgets\../lv_core/lv_obj_style_dec.h **** 
  55:lvgl\src\lv_widgets\../lv_core/lv_obj_style_dec.h ****  * Set a value in a style in a given state
  56:lvgl\src\lv_widgets\../lv_core/lv_obj_style_dec.h ****  * ---------------------------------------
  57:lvgl\src\lv_widgets\../lv_core/lv_obj_style_dec.h ****  * - For example
  58:lvgl\src\lv_widgets\../lv_core/lv_obj_style_dec.h ****  *      `lv_style_set_border_width(&style1, LV_STATE_PRESSED, 2);`
  59:lvgl\src\lv_widgets\../lv_core/lv_obj_style_dec.h ****  */
  60:lvgl\src\lv_widgets\../lv_core/lv_obj_style_dec.h **** 
  61:lvgl\src\lv_widgets\../lv_core/lv_obj_style_dec.h **** #define _OBJ_GET_STYLE_scalar(prop_name, func_name, value_type, style_type)                        
  62:lvgl\src\lv_widgets\../lv_core/lv_obj_style_dec.h ****     static inline value_type lv_obj_get_style_##func_name (const lv_obj_t * obj, uint8_t part)     
  63:lvgl\src\lv_widgets\../lv_core/lv_obj_style_dec.h ****     {                                                                                              
  64:lvgl\src\lv_widgets\../lv_core/lv_obj_style_dec.h ****         return (value_type) _lv_obj_get_style##style_type (obj, part, LV_STYLE_##prop_name);       
  65:lvgl\src\lv_widgets\../lv_core/lv_obj_style_dec.h ****     }
  66:lvgl\src\lv_widgets\../lv_core/lv_obj_style_dec.h **** 
  67:lvgl\src\lv_widgets\../lv_core/lv_obj_style_dec.h **** #define _OBJ_GET_STYLE_nonscalar(prop_name, func_name, value_type, style_type)                     
  68:lvgl\src\lv_widgets\../lv_core/lv_obj_style_dec.h ****     static inline value_type lv_obj_get_style_##func_name (const lv_obj_t * obj, uint8_t part)     
  69:lvgl\src\lv_widgets\../lv_core/lv_obj_style_dec.h ****     {                                                                                              
  70:lvgl\src\lv_widgets\../lv_core/lv_obj_style_dec.h ****         return _lv_obj_get_style##style_type (obj, part, LV_STYLE_##prop_name);                    
  71:lvgl\src\lv_widgets\../lv_core/lv_obj_style_dec.h ****     }
  72:lvgl\src\lv_widgets\../lv_core/lv_obj_style_dec.h **** 
  73:lvgl\src\lv_widgets\../lv_core/lv_obj_style_dec.h **** #define _OBJ_SET_STYLE_LOCAL_scalar(prop_name, func_name, value_type, style_type)                  
  74:lvgl\src\lv_widgets\../lv_core/lv_obj_style_dec.h ****     static inline void lv_obj_set_style_local_##func_name (lv_obj_t * obj, uint8_t part, lv_state_t
  75:lvgl\src\lv_widgets\../lv_core/lv_obj_style_dec.h ****     {                                                                                              
  76:lvgl\src\lv_widgets\../lv_core/lv_obj_style_dec.h ****         _lv_obj_set_style_local##style_type (obj, part, LV_STYLE_##prop_name | (state << LV_STYLE_S
  77:lvgl\src\lv_widgets\../lv_core/lv_obj_style_dec.h ****     }
  78:lvgl\src\lv_widgets\../lv_core/lv_obj_style_dec.h **** 
  79:lvgl\src\lv_widgets\../lv_core/lv_obj_style_dec.h **** #define _OBJ_SET_STYLE_LOCAL_nonscalar(prop_name, func_name, value_type, style_type)               
  80:lvgl\src\lv_widgets\../lv_core/lv_obj_style_dec.h ****     static inline void lv_obj_set_style_local_##func_name (lv_obj_t * obj, uint8_t part, lv_state_t
  81:lvgl\src\lv_widgets\../lv_core/lv_obj_style_dec.h ****     {                                                                                              
  82:lvgl\src\lv_widgets\../lv_core/lv_obj_style_dec.h ****         _lv_obj_set_style_local##style_type (obj, part, LV_STYLE_##prop_name | (state << LV_STYLE_S
  83:lvgl\src\lv_widgets\../lv_core/lv_obj_style_dec.h ****     }
  84:lvgl\src\lv_widgets\../lv_core/lv_obj_style_dec.h **** 
  85:lvgl\src\lv_widgets\../lv_core/lv_obj_style_dec.h **** #define _OBJ_SET_STYLE_scalar(prop_name, func_name, value_type, style_type)                        
  86:lvgl\src\lv_widgets\../lv_core/lv_obj_style_dec.h ****     static inline void lv_style_set_##func_name (lv_style_t * style, lv_state_t state, value_type v
  87:lvgl\src\lv_widgets\../lv_core/lv_obj_style_dec.h ****     {                                                                                              
  88:lvgl\src\lv_widgets\../lv_core/lv_obj_style_dec.h ****         _lv_style_set##style_type (style, LV_STYLE_##prop_name | (state << LV_STYLE_STATE_POS), val
  89:lvgl\src\lv_widgets\../lv_core/lv_obj_style_dec.h ****     }
  90:lvgl\src\lv_widgets\../lv_core/lv_obj_style_dec.h **** 
  91:lvgl\src\lv_widgets\../lv_core/lv_obj_style_dec.h **** #define _OBJ_SET_STYLE_nonscalar(prop_name, func_name, value_type, style_type)                     
  92:lvgl\src\lv_widgets\../lv_core/lv_obj_style_dec.h ****     static inline void lv_style_set_##func_name (lv_style_t * style, lv_state_t state, value_type v
  93:lvgl\src\lv_widgets\../lv_core/lv_obj_style_dec.h ****     {                                                                                              
  94:lvgl\src\lv_widgets\../lv_core/lv_obj_style_dec.h ****         _lv_style_set##style_type (style, LV_STYLE_##prop_name | (state << LV_STYLE_STATE_POS), val
  95:lvgl\src\lv_widgets\../lv_core/lv_obj_style_dec.h ****     }
  96:lvgl\src\lv_widgets\../lv_core/lv_obj_style_dec.h **** 
  97:lvgl\src\lv_widgets\../lv_core/lv_obj_style_dec.h **** #define _LV_OBJ_STYLE_SET_GET_DECLARE(prop_name, func_name, value_type, style_type, scalar)        
  98:lvgl\src\lv_widgets\../lv_core/lv_obj_style_dec.h ****     _OBJ_GET_STYLE_##scalar(prop_name, func_name, value_type, style_type)                          
  99:lvgl\src\lv_widgets\../lv_core/lv_obj_style_dec.h ****     _OBJ_SET_STYLE_LOCAL_##scalar(prop_name, func_name, value_type, style_type)                    
 100:lvgl\src\lv_widgets\../lv_core/lv_obj_style_dec.h ****     _OBJ_SET_STYLE_##scalar(prop_name, func_name, value_type, style_type)
 101:lvgl\src\lv_widgets\../lv_core/lv_obj_style_dec.h **** 
 102:lvgl\src\lv_widgets\../lv_core/lv_obj_style_dec.h **** _LV_OBJ_STYLE_SET_GET_DECLARE(RADIUS, radius, lv_style_int_t, _int, scalar)
 103:lvgl\src\lv_widgets\../lv_core/lv_obj_style_dec.h **** _LV_OBJ_STYLE_SET_GET_DECLARE(CLIP_CORNER, clip_corner, bool, _int, scalar)
 104:lvgl\src\lv_widgets\../lv_core/lv_obj_style_dec.h **** _LV_OBJ_STYLE_SET_GET_DECLARE(SIZE, size, lv_style_int_t, _int, scalar)
 105:lvgl\src\lv_widgets\../lv_core/lv_obj_style_dec.h **** _LV_OBJ_STYLE_SET_GET_DECLARE(TRANSFORM_WIDTH, transform_width, lv_style_int_t, _int, scalar)
 106:lvgl\src\lv_widgets\../lv_core/lv_obj_style_dec.h **** _LV_OBJ_STYLE_SET_GET_DECLARE(TRANSFORM_HEIGHT, transform_height, lv_style_int_t, _int, scalar)
 107:lvgl\src\lv_widgets\../lv_core/lv_obj_style_dec.h **** _LV_OBJ_STYLE_SET_GET_DECLARE(TRANSFORM_ANGLE, transform_angle, lv_style_int_t, _int, scalar)
ARM GAS  C:\Users\strap\AppData\Local\Temp\ccEauLm2.s 			page 11


 108:lvgl\src\lv_widgets\../lv_core/lv_obj_style_dec.h **** _LV_OBJ_STYLE_SET_GET_DECLARE(TRANSFORM_ZOOM, transform_zoom, lv_style_int_t, _int, scalar)
 109:lvgl\src\lv_widgets\../lv_core/lv_obj_style_dec.h **** _LV_OBJ_STYLE_SET_GET_DECLARE(OPA_SCALE, opa_scale, lv_opa_t, _opa, scalar)
 110:lvgl\src\lv_widgets\../lv_core/lv_obj_style_dec.h **** _LV_OBJ_STYLE_SET_GET_DECLARE(PAD_TOP, pad_top, lv_style_int_t, _int, scalar)
 111:lvgl\src\lv_widgets\../lv_core/lv_obj_style_dec.h **** _LV_OBJ_STYLE_SET_GET_DECLARE(PAD_BOTTOM, pad_bottom, lv_style_int_t, _int, scalar)
 112:lvgl\src\lv_widgets\../lv_core/lv_obj_style_dec.h **** _LV_OBJ_STYLE_SET_GET_DECLARE(PAD_LEFT, pad_left, lv_style_int_t, _int, scalar)
 113:lvgl\src\lv_widgets\../lv_core/lv_obj_style_dec.h **** _LV_OBJ_STYLE_SET_GET_DECLARE(PAD_RIGHT, pad_right, lv_style_int_t, _int, scalar)
 114:lvgl\src\lv_widgets\../lv_core/lv_obj_style_dec.h **** _LV_OBJ_STYLE_SET_GET_DECLARE(PAD_INNER, pad_inner, lv_style_int_t, _int, scalar)
 115:lvgl\src\lv_widgets\../lv_core/lv_obj_style_dec.h **** _LV_OBJ_STYLE_SET_GET_DECLARE(MARGIN_TOP, margin_top, lv_style_int_t, _int, scalar)
 116:lvgl\src\lv_widgets\../lv_core/lv_obj_style_dec.h **** _LV_OBJ_STYLE_SET_GET_DECLARE(MARGIN_BOTTOM, margin_bottom, lv_style_int_t, _int, scalar)
 117:lvgl\src\lv_widgets\../lv_core/lv_obj_style_dec.h **** _LV_OBJ_STYLE_SET_GET_DECLARE(MARGIN_LEFT, margin_left, lv_style_int_t, _int, scalar)
 118:lvgl\src\lv_widgets\../lv_core/lv_obj_style_dec.h **** _LV_OBJ_STYLE_SET_GET_DECLARE(MARGIN_RIGHT, margin_right, lv_style_int_t, _int, scalar)
 119:lvgl\src\lv_widgets\../lv_core/lv_obj_style_dec.h **** _LV_OBJ_STYLE_SET_GET_DECLARE(BG_BLEND_MODE, bg_blend_mode, lv_blend_mode_t, _int, scalar)
 120:lvgl\src\lv_widgets\../lv_core/lv_obj_style_dec.h **** _LV_OBJ_STYLE_SET_GET_DECLARE(BG_MAIN_STOP, bg_main_stop, lv_style_int_t, _int, scalar)
 121:lvgl\src\lv_widgets\../lv_core/lv_obj_style_dec.h **** _LV_OBJ_STYLE_SET_GET_DECLARE(BG_GRAD_STOP, bg_grad_stop, lv_style_int_t, _int, scalar)
 122:lvgl\src\lv_widgets\../lv_core/lv_obj_style_dec.h **** _LV_OBJ_STYLE_SET_GET_DECLARE(BG_GRAD_DIR, bg_grad_dir, lv_grad_dir_t, _int, scalar)
 123:lvgl\src\lv_widgets\../lv_core/lv_obj_style_dec.h **** _LV_OBJ_STYLE_SET_GET_DECLARE(BG_COLOR, bg_color, lv_color_t, _color, nonscalar)
 124:lvgl\src\lv_widgets\../lv_core/lv_obj_style_dec.h **** _LV_OBJ_STYLE_SET_GET_DECLARE(BG_GRAD_COLOR, bg_grad_color, lv_color_t, _color, nonscalar)
 125:lvgl\src\lv_widgets\../lv_core/lv_obj_style_dec.h **** _LV_OBJ_STYLE_SET_GET_DECLARE(BG_OPA, bg_opa, lv_opa_t, _opa, scalar)
 126:lvgl\src\lv_widgets\../lv_core/lv_obj_style_dec.h **** _LV_OBJ_STYLE_SET_GET_DECLARE(BORDER_WIDTH, border_width, lv_style_int_t, _int, scalar)
 127:lvgl\src\lv_widgets\../lv_core/lv_obj_style_dec.h **** _LV_OBJ_STYLE_SET_GET_DECLARE(BORDER_SIDE, border_side, lv_border_side_t, _int, scalar)
 128:lvgl\src\lv_widgets\../lv_core/lv_obj_style_dec.h **** _LV_OBJ_STYLE_SET_GET_DECLARE(BORDER_BLEND_MODE, border_blend_mode, lv_blend_mode_t, _int, scalar)
 129:lvgl\src\lv_widgets\../lv_core/lv_obj_style_dec.h **** _LV_OBJ_STYLE_SET_GET_DECLARE(BORDER_POST, border_post, bool, _int, scalar)
 130:lvgl\src\lv_widgets\../lv_core/lv_obj_style_dec.h **** _LV_OBJ_STYLE_SET_GET_DECLARE(BORDER_COLOR, border_color, lv_color_t, _color, nonscalar)
 131:lvgl\src\lv_widgets\../lv_core/lv_obj_style_dec.h **** _LV_OBJ_STYLE_SET_GET_DECLARE(BORDER_OPA, border_opa, lv_opa_t, _opa, scalar)
 132:lvgl\src\lv_widgets\../lv_core/lv_obj_style_dec.h **** _LV_OBJ_STYLE_SET_GET_DECLARE(OUTLINE_WIDTH, outline_width, lv_style_int_t, _int, scalar)
 133:lvgl\src\lv_widgets\../lv_core/lv_obj_style_dec.h **** _LV_OBJ_STYLE_SET_GET_DECLARE(OUTLINE_PAD, outline_pad, lv_style_int_t, _int, scalar)
 134:lvgl\src\lv_widgets\../lv_core/lv_obj_style_dec.h **** _LV_OBJ_STYLE_SET_GET_DECLARE(OUTLINE_BLEND_MODE, outline_blend_mode, lv_blend_mode_t, _int, scalar
 135:lvgl\src\lv_widgets\../lv_core/lv_obj_style_dec.h **** _LV_OBJ_STYLE_SET_GET_DECLARE(OUTLINE_COLOR, outline_color, lv_color_t, _color, nonscalar)
 136:lvgl\src\lv_widgets\../lv_core/lv_obj_style_dec.h **** _LV_OBJ_STYLE_SET_GET_DECLARE(OUTLINE_OPA, outline_opa, lv_opa_t, _opa, scalar)
 137:lvgl\src\lv_widgets\../lv_core/lv_obj_style_dec.h **** _LV_OBJ_STYLE_SET_GET_DECLARE(SHADOW_WIDTH, shadow_width, lv_style_int_t, _int, scalar)
 138:lvgl\src\lv_widgets\../lv_core/lv_obj_style_dec.h **** _LV_OBJ_STYLE_SET_GET_DECLARE(SHADOW_OFS_X, shadow_ofs_x, lv_style_int_t, _int, scalar)
 139:lvgl\src\lv_widgets\../lv_core/lv_obj_style_dec.h **** _LV_OBJ_STYLE_SET_GET_DECLARE(SHADOW_OFS_Y, shadow_ofs_y, lv_style_int_t, _int, scalar)
 140:lvgl\src\lv_widgets\../lv_core/lv_obj_style_dec.h **** _LV_OBJ_STYLE_SET_GET_DECLARE(SHADOW_SPREAD, shadow_spread, lv_style_int_t, _int, scalar)
 141:lvgl\src\lv_widgets\../lv_core/lv_obj_style_dec.h **** _LV_OBJ_STYLE_SET_GET_DECLARE(SHADOW_BLEND_MODE, shadow_blend_mode, lv_blend_mode_t, _int, scalar)
 142:lvgl\src\lv_widgets\../lv_core/lv_obj_style_dec.h **** _LV_OBJ_STYLE_SET_GET_DECLARE(SHADOW_COLOR, shadow_color, lv_color_t, _color, nonscalar)
 143:lvgl\src\lv_widgets\../lv_core/lv_obj_style_dec.h **** _LV_OBJ_STYLE_SET_GET_DECLARE(SHADOW_OPA, shadow_opa, lv_opa_t, _opa, scalar)
 144:lvgl\src\lv_widgets\../lv_core/lv_obj_style_dec.h **** _LV_OBJ_STYLE_SET_GET_DECLARE(PATTERN_REPEAT, pattern_repeat, bool, _int, scalar)
 145:lvgl\src\lv_widgets\../lv_core/lv_obj_style_dec.h **** _LV_OBJ_STYLE_SET_GET_DECLARE(PATTERN_BLEND_MODE, pattern_blend_mode, lv_blend_mode_t, _int, scalar
 146:lvgl\src\lv_widgets\../lv_core/lv_obj_style_dec.h **** _LV_OBJ_STYLE_SET_GET_DECLARE(PATTERN_RECOLOR, pattern_recolor, lv_color_t, _color, nonscalar)
 147:lvgl\src\lv_widgets\../lv_core/lv_obj_style_dec.h **** _LV_OBJ_STYLE_SET_GET_DECLARE(PATTERN_OPA, pattern_opa, lv_opa_t, _opa, scalar)
 148:lvgl\src\lv_widgets\../lv_core/lv_obj_style_dec.h **** _LV_OBJ_STYLE_SET_GET_DECLARE(PATTERN_RECOLOR_OPA, pattern_recolor_opa, lv_opa_t, _opa, scalar)
 149:lvgl\src\lv_widgets\../lv_core/lv_obj_style_dec.h **** _LV_OBJ_STYLE_SET_GET_DECLARE(PATTERN_IMAGE, pattern_image, const void *, _ptr, scalar)
 150:lvgl\src\lv_widgets\../lv_core/lv_obj_style_dec.h **** _LV_OBJ_STYLE_SET_GET_DECLARE(VALUE_LETTER_SPACE, value_letter_space, lv_style_int_t, _int, scalar)
 151:lvgl\src\lv_widgets\../lv_core/lv_obj_style_dec.h **** _LV_OBJ_STYLE_SET_GET_DECLARE(VALUE_LINE_SPACE, value_line_space, lv_style_int_t, _int, scalar)
 152:lvgl\src\lv_widgets\../lv_core/lv_obj_style_dec.h **** _LV_OBJ_STYLE_SET_GET_DECLARE(VALUE_BLEND_MODE, value_blend_mode, lv_blend_mode_t, _int, scalar)
 153:lvgl\src\lv_widgets\../lv_core/lv_obj_style_dec.h **** _LV_OBJ_STYLE_SET_GET_DECLARE(VALUE_OFS_X, value_ofs_x, lv_style_int_t, _int, scalar)
 154:lvgl\src\lv_widgets\../lv_core/lv_obj_style_dec.h **** _LV_OBJ_STYLE_SET_GET_DECLARE(VALUE_OFS_Y, value_ofs_y, lv_style_int_t, _int, scalar)
 155:lvgl\src\lv_widgets\../lv_core/lv_obj_style_dec.h **** _LV_OBJ_STYLE_SET_GET_DECLARE(VALUE_ALIGN, value_align, lv_align_t, _int, scalar)
 156:lvgl\src\lv_widgets\../lv_core/lv_obj_style_dec.h **** _LV_OBJ_STYLE_SET_GET_DECLARE(VALUE_COLOR, value_color, lv_color_t, _color, nonscalar)
 157:lvgl\src\lv_widgets\../lv_core/lv_obj_style_dec.h **** _LV_OBJ_STYLE_SET_GET_DECLARE(VALUE_OPA, value_opa, lv_opa_t, _opa, scalar)
 158:lvgl\src\lv_widgets\../lv_core/lv_obj_style_dec.h **** _LV_OBJ_STYLE_SET_GET_DECLARE(VALUE_FONT, value_font, const lv_font_t *, _ptr, scalar)
 159:lvgl\src\lv_widgets\../lv_core/lv_obj_style_dec.h **** _LV_OBJ_STYLE_SET_GET_DECLARE(VALUE_STR, value_str, const char *, _ptr, scalar)
 160:lvgl\src\lv_widgets\../lv_core/lv_obj_style_dec.h **** _LV_OBJ_STYLE_SET_GET_DECLARE(TEXT_LETTER_SPACE, text_letter_space, lv_style_int_t, _int, scalar)
 161:lvgl\src\lv_widgets\../lv_core/lv_obj_style_dec.h **** _LV_OBJ_STYLE_SET_GET_DECLARE(TEXT_LINE_SPACE, text_line_space, lv_style_int_t, _int, scalar)
 162:lvgl\src\lv_widgets\../lv_core/lv_obj_style_dec.h **** _LV_OBJ_STYLE_SET_GET_DECLARE(TEXT_DECOR, text_decor, lv_text_decor_t, _int, scalar)
 163:lvgl\src\lv_widgets\../lv_core/lv_obj_style_dec.h **** _LV_OBJ_STYLE_SET_GET_DECLARE(TEXT_BLEND_MODE, text_blend_mode, lv_blend_mode_t, _int, scalar)
 164:lvgl\src\lv_widgets\../lv_core/lv_obj_style_dec.h **** _LV_OBJ_STYLE_SET_GET_DECLARE(TEXT_COLOR, text_color, lv_color_t, _color, nonscalar)
ARM GAS  C:\Users\strap\AppData\Local\Temp\ccEauLm2.s 			page 12


 165:lvgl\src\lv_widgets\../lv_core/lv_obj_style_dec.h **** _LV_OBJ_STYLE_SET_GET_DECLARE(TEXT_SEL_COLOR, text_sel_color, lv_color_t, _color, nonscalar)
 166:lvgl\src\lv_widgets\../lv_core/lv_obj_style_dec.h **** _LV_OBJ_STYLE_SET_GET_DECLARE(TEXT_SEL_BG_COLOR, text_sel_bg_color, lv_color_t, _color, nonscalar)
 167:lvgl\src\lv_widgets\../lv_core/lv_obj_style_dec.h **** _LV_OBJ_STYLE_SET_GET_DECLARE(TEXT_OPA, text_opa, lv_opa_t, _opa, scalar)
 168:lvgl\src\lv_widgets\../lv_core/lv_obj_style_dec.h **** _LV_OBJ_STYLE_SET_GET_DECLARE(TEXT_FONT, text_font, const lv_font_t *, _ptr, scalar)
 162              		.loc 2 168 0
 163 0052 48F28E02 		movw	r2, #32910
 164 0056 0021     		movs	r1, #0
 165 0058 8068     		ldr	r0, [r0, #8]
 166              	.LVL23:
 167 005a FFF7FEFF 		bl	_lv_obj_get_style_ptr
 168              	.LVL24:
 169              	.LBE29:
 170              	.LBE28:
 171              	.LBB30:
 172              	.LBB31:
 173              		.file 3 "lvgl\\src\\lv_widgets\\../lv_core/../lv_font/lv_font.h"
   1:lvgl\src\lv_widgets\../lv_core/../lv_font/lv_font.h **** /**
   2:lvgl\src\lv_widgets\../lv_core/../lv_font/lv_font.h ****  * @file lv_font.h
   3:lvgl\src\lv_widgets\../lv_core/../lv_font/lv_font.h ****  *
   4:lvgl\src\lv_widgets\../lv_core/../lv_font/lv_font.h ****  */
   5:lvgl\src\lv_widgets\../lv_core/../lv_font/lv_font.h **** 
   6:lvgl\src\lv_widgets\../lv_core/../lv_font/lv_font.h **** #ifndef LV_FONT_H
   7:lvgl\src\lv_widgets\../lv_core/../lv_font/lv_font.h **** #define LV_FONT_H
   8:lvgl\src\lv_widgets\../lv_core/../lv_font/lv_font.h **** 
   9:lvgl\src\lv_widgets\../lv_core/../lv_font/lv_font.h **** #ifdef __cplusplus
  10:lvgl\src\lv_widgets\../lv_core/../lv_font/lv_font.h **** extern "C" {
  11:lvgl\src\lv_widgets\../lv_core/../lv_font/lv_font.h **** #endif
  12:lvgl\src\lv_widgets\../lv_core/../lv_font/lv_font.h **** 
  13:lvgl\src\lv_widgets\../lv_core/../lv_font/lv_font.h **** /*********************
  14:lvgl\src\lv_widgets\../lv_core/../lv_font/lv_font.h ****  *      INCLUDES
  15:lvgl\src\lv_widgets\../lv_core/../lv_font/lv_font.h ****  *********************/
  16:lvgl\src\lv_widgets\../lv_core/../lv_font/lv_font.h **** #include "../lv_conf_internal.h"
  17:lvgl\src\lv_widgets\../lv_core/../lv_font/lv_font.h **** #include <stdint.h>
  18:lvgl\src\lv_widgets\../lv_core/../lv_font/lv_font.h **** #include <stddef.h>
  19:lvgl\src\lv_widgets\../lv_core/../lv_font/lv_font.h **** #include <stdbool.h>
  20:lvgl\src\lv_widgets\../lv_core/../lv_font/lv_font.h **** 
  21:lvgl\src\lv_widgets\../lv_core/../lv_font/lv_font.h **** #include "lv_symbol_def.h"
  22:lvgl\src\lv_widgets\../lv_core/../lv_font/lv_font.h **** #include "../lv_misc/lv_area.h"
  23:lvgl\src\lv_widgets\../lv_core/../lv_font/lv_font.h **** 
  24:lvgl\src\lv_widgets\../lv_core/../lv_font/lv_font.h **** /*********************
  25:lvgl\src\lv_widgets\../lv_core/../lv_font/lv_font.h ****  *      DEFINES
  26:lvgl\src\lv_widgets\../lv_core/../lv_font/lv_font.h ****  *********************/
  27:lvgl\src\lv_widgets\../lv_core/../lv_font/lv_font.h **** /*Number of fractional digits in the advanced width (`adv_w`) field of `lv_font_glyph_dsc_t`*/
  28:lvgl\src\lv_widgets\../lv_core/../lv_font/lv_font.h **** #define LV_FONT_WIDTH_FRACT_DIGIT       4
  29:lvgl\src\lv_widgets\../lv_core/../lv_font/lv_font.h **** 
  30:lvgl\src\lv_widgets\../lv_core/../lv_font/lv_font.h **** #define LV_FONT_KERN_POSITIVE        0
  31:lvgl\src\lv_widgets\../lv_core/../lv_font/lv_font.h **** #define LV_FONT_KERN_NEGATIVE        1
  32:lvgl\src\lv_widgets\../lv_core/../lv_font/lv_font.h **** 
  33:lvgl\src\lv_widgets\../lv_core/../lv_font/lv_font.h **** /**********************
  34:lvgl\src\lv_widgets\../lv_core/../lv_font/lv_font.h ****  *      TYPEDEFS
  35:lvgl\src\lv_widgets\../lv_core/../lv_font/lv_font.h ****  **********************/
  36:lvgl\src\lv_widgets\../lv_core/../lv_font/lv_font.h **** 
  37:lvgl\src\lv_widgets\../lv_core/../lv_font/lv_font.h **** /*------------------
  38:lvgl\src\lv_widgets\../lv_core/../lv_font/lv_font.h ****  * General types
  39:lvgl\src\lv_widgets\../lv_core/../lv_font/lv_font.h ****  *-----------------*/
  40:lvgl\src\lv_widgets\../lv_core/../lv_font/lv_font.h **** 
  41:lvgl\src\lv_widgets\../lv_core/../lv_font/lv_font.h **** /** Describes the properties of a glyph. */
ARM GAS  C:\Users\strap\AppData\Local\Temp\ccEauLm2.s 			page 13


  42:lvgl\src\lv_widgets\../lv_core/../lv_font/lv_font.h **** typedef struct {
  43:lvgl\src\lv_widgets\../lv_core/../lv_font/lv_font.h ****     uint16_t adv_w; /**< The glyph needs this space. Draw the next glyph after this width. 8 bit in
  44:lvgl\src\lv_widgets\../lv_core/../lv_font/lv_font.h ****     uint16_t box_w;  /**< Width of the glyph's bounding box*/
  45:lvgl\src\lv_widgets\../lv_core/../lv_font/lv_font.h ****     uint16_t box_h;  /**< Height of the glyph's bounding box*/
  46:lvgl\src\lv_widgets\../lv_core/../lv_font/lv_font.h ****     int16_t ofs_x;   /**< x offset of the bounding box*/
  47:lvgl\src\lv_widgets\../lv_core/../lv_font/lv_font.h ****     int16_t ofs_y;  /**< y offset of the bounding box*/
  48:lvgl\src\lv_widgets\../lv_core/../lv_font/lv_font.h ****     uint8_t bpp;   /**< Bit-per-pixel: 1, 2, 4, 8*/
  49:lvgl\src\lv_widgets\../lv_core/../lv_font/lv_font.h **** } lv_font_glyph_dsc_t;
  50:lvgl\src\lv_widgets\../lv_core/../lv_font/lv_font.h **** 
  51:lvgl\src\lv_widgets\../lv_core/../lv_font/lv_font.h **** 
  52:lvgl\src\lv_widgets\../lv_core/../lv_font/lv_font.h **** /** The bitmaps might be upscaled by 3 to achieve subpixel rendering. */
  53:lvgl\src\lv_widgets\../lv_core/../lv_font/lv_font.h **** enum {
  54:lvgl\src\lv_widgets\../lv_core/../lv_font/lv_font.h ****     LV_FONT_SUBPX_NONE,
  55:lvgl\src\lv_widgets\../lv_core/../lv_font/lv_font.h ****     LV_FONT_SUBPX_HOR,
  56:lvgl\src\lv_widgets\../lv_core/../lv_font/lv_font.h ****     LV_FONT_SUBPX_VER,
  57:lvgl\src\lv_widgets\../lv_core/../lv_font/lv_font.h ****     LV_FONT_SUBPX_BOTH,
  58:lvgl\src\lv_widgets\../lv_core/../lv_font/lv_font.h **** };
  59:lvgl\src\lv_widgets\../lv_core/../lv_font/lv_font.h **** 
  60:lvgl\src\lv_widgets\../lv_core/../lv_font/lv_font.h **** typedef uint8_t lv_font_subpx_t;
  61:lvgl\src\lv_widgets\../lv_core/../lv_font/lv_font.h **** 
  62:lvgl\src\lv_widgets\../lv_core/../lv_font/lv_font.h **** /** Describe the properties of a font*/
  63:lvgl\src\lv_widgets\../lv_core/../lv_font/lv_font.h **** typedef struct _lv_font_struct {
  64:lvgl\src\lv_widgets\../lv_core/../lv_font/lv_font.h ****     /** Get a glyph's  descriptor from a font*/
  65:lvgl\src\lv_widgets\../lv_core/../lv_font/lv_font.h ****     bool (*get_glyph_dsc)(const struct _lv_font_struct *, lv_font_glyph_dsc_t *, uint32_t letter, u
  66:lvgl\src\lv_widgets\../lv_core/../lv_font/lv_font.h **** 
  67:lvgl\src\lv_widgets\../lv_core/../lv_font/lv_font.h ****     /** Get a glyph's bitmap from a font*/
  68:lvgl\src\lv_widgets\../lv_core/../lv_font/lv_font.h ****     const uint8_t * (*get_glyph_bitmap)(const struct _lv_font_struct *, uint32_t);
  69:lvgl\src\lv_widgets\../lv_core/../lv_font/lv_font.h **** 
  70:lvgl\src\lv_widgets\../lv_core/../lv_font/lv_font.h ****     /*Pointer to the font in a font pack (must have the same line height)*/
  71:lvgl\src\lv_widgets\../lv_core/../lv_font/lv_font.h ****     lv_coord_t line_height;         /**< The real line height where any text fits*/
  72:lvgl\src\lv_widgets\../lv_core/../lv_font/lv_font.h ****     lv_coord_t base_line;           /**< Base line measured from the top of the line_height*/
  73:lvgl\src\lv_widgets\../lv_core/../lv_font/lv_font.h ****     uint8_t subpx  : 2;             /**< An element of `lv_font_subpx_t`*/
  74:lvgl\src\lv_widgets\../lv_core/../lv_font/lv_font.h **** 
  75:lvgl\src\lv_widgets\../lv_core/../lv_font/lv_font.h ****     int8_t underline_position;      /**< Distance between the top of the underline and base line (<
  76:lvgl\src\lv_widgets\../lv_core/../lv_font/lv_font.h ****     int8_t  underline_thickness;     /**< Thickness of the underline*/
  77:lvgl\src\lv_widgets\../lv_core/../lv_font/lv_font.h **** 
  78:lvgl\src\lv_widgets\../lv_core/../lv_font/lv_font.h ****     void * dsc;                     /**< Store implementation specific or run_time data or caching 
  79:lvgl\src\lv_widgets\../lv_core/../lv_font/lv_font.h **** #if LV_USE_USER_DATA
  80:lvgl\src\lv_widgets\../lv_core/../lv_font/lv_font.h ****     lv_font_user_data_t user_data;  /**< Custom user data for font. */
  81:lvgl\src\lv_widgets\../lv_core/../lv_font/lv_font.h **** #endif
  82:lvgl\src\lv_widgets\../lv_core/../lv_font/lv_font.h **** 
  83:lvgl\src\lv_widgets\../lv_core/../lv_font/lv_font.h **** 
  84:lvgl\src\lv_widgets\../lv_core/../lv_font/lv_font.h **** } lv_font_t;
  85:lvgl\src\lv_widgets\../lv_core/../lv_font/lv_font.h **** 
  86:lvgl\src\lv_widgets\../lv_core/../lv_font/lv_font.h **** /**********************
  87:lvgl\src\lv_widgets\../lv_core/../lv_font/lv_font.h ****  * GLOBAL PROTOTYPES
  88:lvgl\src\lv_widgets\../lv_core/../lv_font/lv_font.h ****  **********************/
  89:lvgl\src\lv_widgets\../lv_core/../lv_font/lv_font.h **** 
  90:lvgl\src\lv_widgets\../lv_core/../lv_font/lv_font.h **** /**
  91:lvgl\src\lv_widgets\../lv_core/../lv_font/lv_font.h ****  * Return with the bitmap of a font.
  92:lvgl\src\lv_widgets\../lv_core/../lv_font/lv_font.h ****  * @param font_p pointer to a font
  93:lvgl\src\lv_widgets\../lv_core/../lv_font/lv_font.h ****  * @param letter an UNICODE character code
  94:lvgl\src\lv_widgets\../lv_core/../lv_font/lv_font.h ****  * @return  pointer to the bitmap of the letter
  95:lvgl\src\lv_widgets\../lv_core/../lv_font/lv_font.h ****  */
  96:lvgl\src\lv_widgets\../lv_core/../lv_font/lv_font.h **** const uint8_t * lv_font_get_glyph_bitmap(const lv_font_t * font_p, uint32_t letter);
  97:lvgl\src\lv_widgets\../lv_core/../lv_font/lv_font.h **** 
  98:lvgl\src\lv_widgets\../lv_core/../lv_font/lv_font.h **** /**
ARM GAS  C:\Users\strap\AppData\Local\Temp\ccEauLm2.s 			page 14


  99:lvgl\src\lv_widgets\../lv_core/../lv_font/lv_font.h ****  * Get the descriptor of a glyph
 100:lvgl\src\lv_widgets\../lv_core/../lv_font/lv_font.h ****  * @param font_p pointer to font
 101:lvgl\src\lv_widgets\../lv_core/../lv_font/lv_font.h ****  * @param dsc_out store the result descriptor here
 102:lvgl\src\lv_widgets\../lv_core/../lv_font/lv_font.h ****  * @param letter an UNICODE letter code
 103:lvgl\src\lv_widgets\../lv_core/../lv_font/lv_font.h ****  * @return true: descriptor is successfully loaded into `dsc_out`.
 104:lvgl\src\lv_widgets\../lv_core/../lv_font/lv_font.h ****  *         false: the letter was not found, no data is loaded to `dsc_out`
 105:lvgl\src\lv_widgets\../lv_core/../lv_font/lv_font.h ****  */
 106:lvgl\src\lv_widgets\../lv_core/../lv_font/lv_font.h **** bool lv_font_get_glyph_dsc(const lv_font_t * font_p, lv_font_glyph_dsc_t * dsc_out, uint32_t letter
 107:lvgl\src\lv_widgets\../lv_core/../lv_font/lv_font.h ****                            uint32_t letter_next);
 108:lvgl\src\lv_widgets\../lv_core/../lv_font/lv_font.h **** 
 109:lvgl\src\lv_widgets\../lv_core/../lv_font/lv_font.h **** /**
 110:lvgl\src\lv_widgets\../lv_core/../lv_font/lv_font.h ****  * Get the width of a glyph with kerning
 111:lvgl\src\lv_widgets\../lv_core/../lv_font/lv_font.h ****  * @param font pointer to a font
 112:lvgl\src\lv_widgets\../lv_core/../lv_font/lv_font.h ****  * @param letter an UNICODE letter
 113:lvgl\src\lv_widgets\../lv_core/../lv_font/lv_font.h ****  * @param letter_next the next letter after `letter`. Used for kerning
 114:lvgl\src\lv_widgets\../lv_core/../lv_font/lv_font.h ****  * @return the width of the glyph
 115:lvgl\src\lv_widgets\../lv_core/../lv_font/lv_font.h ****  */
 116:lvgl\src\lv_widgets\../lv_core/../lv_font/lv_font.h **** uint16_t lv_font_get_glyph_width(const lv_font_t * font, uint32_t letter, uint32_t letter_next);
 117:lvgl\src\lv_widgets\../lv_core/../lv_font/lv_font.h **** 
 118:lvgl\src\lv_widgets\../lv_core/../lv_font/lv_font.h **** /**
 119:lvgl\src\lv_widgets\../lv_core/../lv_font/lv_font.h ****  * Get the line height of a font. All characters fit into this height
 120:lvgl\src\lv_widgets\../lv_core/../lv_font/lv_font.h ****  * @param font_p pointer to a font
 121:lvgl\src\lv_widgets\../lv_core/../lv_font/lv_font.h ****  * @return the height of a font
 122:lvgl\src\lv_widgets\../lv_core/../lv_font/lv_font.h ****  */
 123:lvgl\src\lv_widgets\../lv_core/../lv_font/lv_font.h **** static inline lv_coord_t lv_font_get_line_height(const lv_font_t * font_p)
 124:lvgl\src\lv_widgets\../lv_core/../lv_font/lv_font.h **** {
 125:lvgl\src\lv_widgets\../lv_core/../lv_font/lv_font.h ****     return font_p->line_height;
 174              		.loc 3 125 0
 175 005e B0F908A0 		ldrsh	r10, [r0, #8]
 176              	.LVL25:
 177              	.LBE31:
 178              	.LBE30:
 179              	.LBB32:
 180              	.LBB33:
 112:lvgl\src\lv_widgets\../lv_core/lv_obj_style_dec.h **** _LV_OBJ_STYLE_SET_GET_DECLARE(PAD_RIGHT, pad_right, lv_style_int_t, _int, scalar)
 181              		.loc 2 112 0
 182 0062 1222     		movs	r2, #18
 183 0064 4021     		movs	r1, #64
 184 0066 3046     		mov	r0, r6
 185 0068 FFF7FEFF 		bl	_lv_obj_get_style_int
 186              	.LVL26:
 187 006c 8146     		mov	r9, r0
 188              	.LVL27:
 189              	.LBE33:
 190              	.LBE32:
 191              	.LBB34:
 192              	.LBB35:
 113:lvgl\src\lv_widgets\../lv_core/lv_obj_style_dec.h **** _LV_OBJ_STYLE_SET_GET_DECLARE(PAD_INNER, pad_inner, lv_style_int_t, _int, scalar)
 193              		.loc 2 113 0
 194 006e 1322     		movs	r2, #19
 195 0070 4021     		movs	r1, #64
 196 0072 3046     		mov	r0, r6
 197 0074 FFF7FEFF 		bl	_lv_obj_get_style_int
 198              	.LVL28:
 199 0078 0746     		mov	r7, r0
 200              	.LVL29:
 201              	.LBE35:
ARM GAS  C:\Users\strap\AppData\Local\Temp\ccEauLm2.s 			page 15


 202              	.LBE34:
 203              	.LBB36:
 204              	.LBB37:
 110:lvgl\src\lv_widgets\../lv_core/lv_obj_style_dec.h **** _LV_OBJ_STYLE_SET_GET_DECLARE(PAD_BOTTOM, pad_bottom, lv_style_int_t, _int, scalar)
 205              		.loc 2 110 0
 206 007a 1022     		movs	r2, #16
 207 007c 4021     		movs	r1, #64
 208 007e 3046     		mov	r0, r6
 209 0080 FFF7FEFF 		bl	_lv_obj_get_style_int
 210              	.LVL30:
 211 0084 0546     		mov	r5, r0
 212              	.LVL31:
 213              	.LBE37:
 214              	.LBE36:
 215              	.LBB38:
 216              	.LBB39:
 111:lvgl\src\lv_widgets\../lv_core/lv_obj_style_dec.h **** _LV_OBJ_STYLE_SET_GET_DECLARE(PAD_LEFT, pad_left, lv_style_int_t, _int, scalar)
 217              		.loc 2 111 0
 218 0086 1122     		movs	r2, #17
 219 0088 4021     		movs	r1, #64
 220 008a 3046     		mov	r0, r6
 221 008c FFF7FEFF 		bl	_lv_obj_get_style_int
 222              	.LVL32:
 223              	.LBE39:
 224              	.LBE38:
 253:lvgl\src\lv_widgets/lv_checkbox.c ****         lv_obj_set_state(ext->bullet, lv_obj_get_state(cb, LV_CHECKBOX_PART_BG));
 225              		.loc 1 253 0
 226 0090 1FFA8AF3 		uxth	r3, r10
 227 0094 1D44     		add	r5, r5, r3
 228 0096 2A18     		adds	r2, r5, r0
 229 0098 9944     		add	r9, r9, r3
 230 009a 09EB0701 		add	r1, r9, r7
 231 009e 12B2     		sxth	r2, r2
 232 00a0 09B2     		sxth	r1, r1
 233 00a2 D8F80400 		ldr	r0, [r8, #4]
 234 00a6 FFF7FEFF 		bl	lv_obj_set_size
 235              	.LVL33:
 254:lvgl\src\lv_widgets/lv_checkbox.c ****     }
 236              		.loc 1 254 0
 237 00aa D8F80450 		ldr	r5, [r8, #4]
 238 00ae 0021     		movs	r1, #0
 239 00b0 3046     		mov	r0, r6
 240 00b2 FFF7FEFF 		bl	lv_obj_get_state
 241              	.LVL34:
 242 00b6 0146     		mov	r1, r0
 243 00b8 2846     		mov	r0, r5
 244 00ba FFF7FEFF 		bl	lv_obj_set_state
 245              	.LVL35:
 246              	.LBE27:
 270:lvgl\src\lv_widgets/lv_checkbox.c **** }
 247              		.loc 1 270 0
 248 00be 2046     		mov	r0, r4
 249 00c0 BDE8F087 		pop	{r4, r5, r6, r7, r8, r9, r10, pc}
 250              	.LVL36:
 251              	.L12:
 256:lvgl\src\lv_widgets/lv_checkbox.c ****             sign == LV_SIGNAL_FOCUS || sign == LV_SIGNAL_DEFOCUS) {
 252              		.loc 1 256 0
ARM GAS  C:\Users\strap\AppData\Local\Temp\ccEauLm2.s 			page 16


 253 00c4 0B2D     		cmp	r5, #11
 254 00c6 07D0     		beq	.L13
 256:lvgl\src\lv_widgets/lv_checkbox.c ****             sign == LV_SIGNAL_FOCUS || sign == LV_SIGNAL_DEFOCUS) {
 255              		.loc 1 256 0 is_stmt 0 discriminator 1
 256 00c8 0E2D     		cmp	r5, #14
 257 00ca 05D0     		beq	.L13
 256:lvgl\src\lv_widgets/lv_checkbox.c ****             sign == LV_SIGNAL_FOCUS || sign == LV_SIGNAL_DEFOCUS) {
 258              		.loc 1 256 0 discriminator 2
 259 00cc 0D2D     		cmp	r5, #13
 260 00ce 03D0     		beq	.L13
 256:lvgl\src\lv_widgets/lv_checkbox.c ****             sign == LV_SIGNAL_FOCUS || sign == LV_SIGNAL_DEFOCUS) {
 261              		.loc 1 256 0 discriminator 3
 262 00d0 162D     		cmp	r5, #22
 263 00d2 01D0     		beq	.L13
 257:lvgl\src\lv_widgets/lv_checkbox.c ****         lv_obj_set_state(ext->bullet, lv_obj_get_state(cb, LV_CHECKBOX_PART_BG));
 264              		.loc 1 257 0 is_stmt 1
 265 00d4 172D     		cmp	r5, #23
 266 00d6 0CD1     		bne	.L14
 267              	.L13:
 258:lvgl\src\lv_widgets/lv_checkbox.c ****     }
 268              		.loc 1 258 0
 269 00d8 D8F80450 		ldr	r5, [r8, #4]
 270 00dc 0021     		movs	r1, #0
 271 00de 3046     		mov	r0, r6
 272              	.LVL37:
 273 00e0 FFF7FEFF 		bl	lv_obj_get_state
 274              	.LVL38:
 275 00e4 0146     		mov	r1, r0
 276 00e6 2846     		mov	r0, r5
 277 00e8 FFF7FEFF 		bl	lv_obj_set_state
 278              	.LVL39:
 270:lvgl\src\lv_widgets/lv_checkbox.c **** }
 279              		.loc 1 270 0
 280 00ec 2046     		mov	r0, r4
 258:lvgl\src\lv_widgets/lv_checkbox.c ****     }
 281              		.loc 1 258 0
 282 00ee BDE8F087 		pop	{r4, r5, r6, r7, r8, r9, r10, pc}
 283              	.LVL40:
 284              	.L14:
 260:lvgl\src\lv_widgets/lv_checkbox.c **** #if LV_USE_GROUP
 285              		.loc 1 260 0
 286 00f2 182D     		cmp	r5, #24
 287 00f4 15D1     		bne	.L17
 288              	.LBB40:
 262:lvgl\src\lv_widgets/lv_checkbox.c ****         if(c == LV_KEY_RIGHT || c == LV_KEY_DOWN || c == LV_KEY_LEFT || c == LV_KEY_UP) {
 289              		.loc 1 262 0
 290 00f6 3B78     		ldrb	r3, [r7]	@ zero_extendqisi2
 291              	.LVL41:
 263:lvgl\src\lv_widgets/lv_checkbox.c ****             /*Follow the backgrounds state with the bullet*/
 292              		.loc 1 263 0
 293 00f8 113B     		subs	r3, r3, #17
 294              	.LVL42:
 295 00fa DBB2     		uxtb	r3, r3
 296              	.LVL43:
 297 00fc 032B     		cmp	r3, #3
 298 00fe 13D8     		bhi	.L18
 265:lvgl\src\lv_widgets/lv_checkbox.c ****         }
ARM GAS  C:\Users\strap\AppData\Local\Temp\ccEauLm2.s 			page 17


 299              		.loc 1 265 0
 300 0100 4568     		ldr	r5, [r0, #4]
 301 0102 0021     		movs	r1, #0
 302 0104 3046     		mov	r0, r6
 303              	.LVL44:
 304 0106 FFF7FEFF 		bl	lv_obj_get_state
 305              	.LVL45:
 306 010a 0146     		mov	r1, r0
 307 010c 2846     		mov	r0, r5
 308 010e FFF7FEFF 		bl	lv_obj_set_state
 309              	.LVL46:
 310              	.LBE40:
 270:lvgl\src\lv_widgets/lv_checkbox.c **** }
 311              		.loc 1 270 0
 312 0112 2046     		mov	r0, r4
 313 0114 BDE8F087 		pop	{r4, r5, r6, r7, r8, r9, r10, pc}
 314              	.LVL47:
 315              	.L15:
 316              	.LBB41:
 234:lvgl\src\lv_widgets/lv_checkbox.c ****         else return ancestor_signal(cb, sign, param);
 317              		.loc 1 234 0
 318 0118 0120     		movs	r0, #1
 319 011a BDE8F087 		pop	{r4, r5, r6, r7, r8, r9, r10, pc}
 320              	.LVL48:
 321              	.L16:
 322 011e BDE8F087 		pop	{r4, r5, r6, r7, r8, r9, r10, pc}
 323              	.LVL49:
 324              	.L17:
 325              	.LBE41:
 270:lvgl\src\lv_widgets/lv_checkbox.c **** }
 326              		.loc 1 270 0
 327 0122 2046     		mov	r0, r4
 328              	.LVL50:
 329 0124 BDE8F087 		pop	{r4, r5, r6, r7, r8, r9, r10, pc}
 330              	.LVL51:
 331              	.L18:
 332 0128 2046     		mov	r0, r4
 333              	.LVL52:
 271:lvgl\src\lv_widgets/lv_checkbox.c **** 
 334              		.loc 1 271 0
 335 012a BDE8F087 		pop	{r4, r5, r6, r7, r8, r9, r10, pc}
 336              	.LVL53:
 337              	.L21:
 338 012e 00BF     		.align	2
 339              	.L20:
 340 0130 00000000 		.word	.LANCHOR0
 341 0134 00000000 		.word	.LC0
 342              		.cfi_endproc
 343              	.LFE349:
 344              		.size	lv_checkbox_signal, .-lv_checkbox_signal
 345              		.section	.text.lv_checkbox_set_text,"ax",%progbits
 346              		.align	2
 347              		.global	lv_checkbox_set_text
 348              		.thumb
 349              		.thumb_func
 350              		.type	lv_checkbox_set_text, %function
 351              	lv_checkbox_set_text:
ARM GAS  C:\Users\strap\AppData\Local\Temp\ccEauLm2.s 			page 18


 352              	.LFB343:
 114:lvgl\src\lv_widgets/lv_checkbox.c ****     LV_ASSERT_OBJ(cb, LV_OBJX_NAME);
 353              		.loc 1 114 0
 354              		.cfi_startproc
 355              		@ args = 0, pretend = 0, frame = 0
 356              		@ frame_needed = 0, uses_anonymous_args = 0
 357              	.LVL54:
 358 0000 38B5     		push	{r3, r4, r5, lr}
 359              		.cfi_def_cfa_offset 16
 360              		.cfi_offset 3, -16
 361              		.cfi_offset 4, -12
 362              		.cfi_offset 5, -8
 363              		.cfi_offset 14, -4
 364 0002 0446     		mov	r4, r0
 365 0004 0D46     		mov	r5, r1
 115:lvgl\src\lv_widgets/lv_checkbox.c **** 
 366              		.loc 1 115 0
 367 0006 FFF7FEFF 		bl	lv_debug_check_null
 368              	.LVL55:
 369 000a 28B9     		cbnz	r0, .L23
 115:lvgl\src\lv_widgets/lv_checkbox.c **** 
 370              		.loc 1 115 0 is_stmt 0 discriminator 1
 371 000c 2246     		mov	r2, r4
 372 000e 0023     		movs	r3, #0
 373 0010 0548     		ldr	r0, .L26
 374 0012 FFF7FEFF 		bl	lv_debug_log_error
 375              	.LVL56:
 376              	.L24:
 377 0016 FEE7     		b	.L24
 378              	.L23:
 117:lvgl\src\lv_widgets/lv_checkbox.c ****     lv_label_set_text(ext->label, txt);
 379              		.loc 1 117 0 is_stmt 1
 380 0018 2046     		mov	r0, r4
 381 001a FFF7FEFF 		bl	lv_obj_get_ext_attr
 382              	.LVL57:
 118:lvgl\src\lv_widgets/lv_checkbox.c **** }
 383              		.loc 1 118 0
 384 001e 2946     		mov	r1, r5
 385 0020 8068     		ldr	r0, [r0, #8]
 386              	.LVL58:
 387 0022 FFF7FEFF 		bl	lv_label_set_text
 388              	.LVL59:
 389 0026 38BD     		pop	{r3, r4, r5, pc}
 390              	.LVL60:
 391              	.L27:
 392              		.align	2
 393              	.L26:
 394 0028 0C000000 		.word	.LC1
 395              		.cfi_endproc
 396              	.LFE343:
 397              		.size	lv_checkbox_set_text, .-lv_checkbox_set_text
 398              		.section	.text.lv_checkbox_create,"ax",%progbits
 399              		.align	2
 400              		.global	lv_checkbox_create
 401              		.thumb
 402              		.thumb_func
 403              		.type	lv_checkbox_create, %function
ARM GAS  C:\Users\strap\AppData\Local\Temp\ccEauLm2.s 			page 19


 404              	lv_checkbox_create:
 405              	.LFB342:
  51:lvgl\src\lv_widgets/lv_checkbox.c ****     LV_LOG_TRACE("check box create started");
 406              		.loc 1 51 0
 407              		.cfi_startproc
 408              		@ args = 0, pretend = 0, frame = 0
 409              		@ frame_needed = 0, uses_anonymous_args = 0
 410              	.LVL61:
 411 0000 70B5     		push	{r4, r5, r6, lr}
 412              		.cfi_def_cfa_offset 16
 413              		.cfi_offset 4, -16
 414              		.cfi_offset 5, -12
 415              		.cfi_offset 6, -8
 416              		.cfi_offset 14, -4
 417 0002 82B0     		sub	sp, sp, #8
 418              		.cfi_def_cfa_offset 24
 419 0004 0E46     		mov	r6, r1
  55:lvgl\src\lv_widgets/lv_checkbox.c ****     LV_ASSERT_MEM(cb);
 420              		.loc 1 55 0
 421 0006 FFF7FEFF 		bl	lv_btn_create
 422              	.LVL62:
 423 000a 0446     		mov	r4, r0
 424              	.LVL63:
  56:lvgl\src\lv_widgets/lv_checkbox.c ****     if(cb == NULL) return NULL;
 425              		.loc 1 56 0
 426 000c FFF7FEFF 		bl	lv_debug_check_null
 427              	.LVL64:
 428 0010 28B9     		cbnz	r0, .L29
  56:lvgl\src\lv_widgets/lv_checkbox.c ****     if(cb == NULL) return NULL;
 429              		.loc 1 56 0 is_stmt 0 discriminator 1
 430 0012 2246     		mov	r2, r4
 431 0014 0023     		movs	r3, #0
 432 0016 3448     		ldr	r0, .L39
 433 0018 FFF7FEFF 		bl	lv_debug_log_error
 434              	.LVL65:
 435              	.L30:
 436 001c FEE7     		b	.L30
 437              	.L29:
  57:lvgl\src\lv_widgets/lv_checkbox.c **** 
 438              		.loc 1 57 0 is_stmt 1
 439 001e 002C     		cmp	r4, #0
 440 0020 5ED0     		beq	.L37
  59:lvgl\src\lv_widgets/lv_checkbox.c **** 
 441              		.loc 1 59 0
 442 0022 324B     		ldr	r3, .L39+4
 443 0024 1B68     		ldr	r3, [r3]
 444 0026 23B9     		cbnz	r3, .L32
  59:lvgl\src\lv_widgets/lv_checkbox.c **** 
 445              		.loc 1 59 0 is_stmt 0 discriminator 1
 446 0028 2046     		mov	r0, r4
 447 002a FFF7FEFF 		bl	lv_obj_get_signal_cb
 448              	.LVL66:
 449 002e 2F4B     		ldr	r3, .L39+4
 450 0030 1860     		str	r0, [r3]
 451              	.L32:
  61:lvgl\src\lv_widgets/lv_checkbox.c ****     LV_ASSERT_MEM(ext);
 452              		.loc 1 61 0 is_stmt 1
ARM GAS  C:\Users\strap\AppData\Local\Temp\ccEauLm2.s 			page 20


 453 0032 0C21     		movs	r1, #12
 454 0034 2046     		mov	r0, r4
 455 0036 FFF7FEFF 		bl	lv_obj_allocate_ext_attr
 456              	.LVL67:
 457 003a 0546     		mov	r5, r0
 458              	.LVL68:
  62:lvgl\src\lv_widgets/lv_checkbox.c ****     if(ext == NULL) {
 459              		.loc 1 62 0
 460 003c FFF7FEFF 		bl	lv_debug_check_null
 461              	.LVL69:
 462 0040 28B9     		cbnz	r0, .L33
  62:lvgl\src\lv_widgets/lv_checkbox.c ****     if(ext == NULL) {
 463              		.loc 1 62 0 is_stmt 0 discriminator 1
 464 0042 2A46     		mov	r2, r5
 465 0044 0023     		movs	r3, #0
 466 0046 2848     		ldr	r0, .L39
 467 0048 FFF7FEFF 		bl	lv_debug_log_error
 468              	.LVL70:
 469              	.L34:
 470 004c FEE7     		b	.L34
 471              	.L33:
  63:lvgl\src\lv_widgets/lv_checkbox.c ****         lv_obj_del(cb);
 472              		.loc 1 63 0 is_stmt 1
 473 004e 25B9     		cbnz	r5, .L35
  64:lvgl\src\lv_widgets/lv_checkbox.c ****         return NULL;
 474              		.loc 1 64 0
 475 0050 2046     		mov	r0, r4
 476 0052 FFF7FEFF 		bl	lv_obj_del
 477              	.LVL71:
  65:lvgl\src\lv_widgets/lv_checkbox.c ****     }
 478              		.loc 1 65 0
 479 0056 0020     		movs	r0, #0
 480 0058 43E0     		b	.L31
 481              	.L35:
  68:lvgl\src\lv_widgets/lv_checkbox.c ****     ext->label  = NULL;
 482              		.loc 1 68 0
 483 005a 0023     		movs	r3, #0
 484 005c 6B60     		str	r3, [r5, #4]
  69:lvgl\src\lv_widgets/lv_checkbox.c **** 
 485              		.loc 1 69 0
 486 005e AB60     		str	r3, [r5, #8]
  71:lvgl\src\lv_widgets/lv_checkbox.c **** 
 487              		.loc 1 71 0
 488 0060 2349     		ldr	r1, .L39+8
 489 0062 2046     		mov	r0, r4
 490 0064 FFF7FEFF 		bl	lv_obj_set_signal_cb
 491              	.LVL72:
  74:lvgl\src\lv_widgets/lv_checkbox.c ****         ext->bullet = lv_obj_create(cb, NULL);
 492              		.loc 1 74 0
 493 0068 56BB     		cbnz	r6, .L36
  75:lvgl\src\lv_widgets/lv_checkbox.c ****         lv_obj_set_click(ext->bullet, false);
 494              		.loc 1 75 0
 495 006a 0021     		movs	r1, #0
 496 006c 2046     		mov	r0, r4
 497 006e FFF7FEFF 		bl	lv_obj_create
 498              	.LVL73:
 499 0072 6860     		str	r0, [r5, #4]
ARM GAS  C:\Users\strap\AppData\Local\Temp\ccEauLm2.s 			page 21


  76:lvgl\src\lv_widgets/lv_checkbox.c **** 
 500              		.loc 1 76 0
 501 0074 0021     		movs	r1, #0
 502 0076 FFF7FEFF 		bl	lv_obj_set_click
 503              	.LVL74:
  78:lvgl\src\lv_widgets/lv_checkbox.c **** 
 504              		.loc 1 78 0
 505 007a 0021     		movs	r1, #0
 506 007c 2046     		mov	r0, r4
 507 007e FFF7FEFF 		bl	lv_label_create
 508              	.LVL75:
 509 0082 A860     		str	r0, [r5, #8]
  80:lvgl\src\lv_widgets/lv_checkbox.c ****         lv_btn_set_layout(cb, LV_LAYOUT_ROW_MID);
 510              		.loc 1 80 0
 511 0084 1B49     		ldr	r1, .L39+12
 512 0086 2046     		mov	r0, r4
 513 0088 FFF7FEFF 		bl	lv_checkbox_set_text
 514              	.LVL76:
 515              	.LBB42:
 516              	.LBB43:
 517              		.file 4 "lvgl\\src\\lv_widgets\\lv_btn.h"
   1:lvgl\src\lv_widgets/lv_btn.h **** /**
   2:lvgl\src\lv_widgets/lv_btn.h ****  * @file lv_btn.h
   3:lvgl\src\lv_widgets/lv_btn.h ****  *
   4:lvgl\src\lv_widgets/lv_btn.h ****  */
   5:lvgl\src\lv_widgets/lv_btn.h **** 
   6:lvgl\src\lv_widgets/lv_btn.h **** #ifndef LV_BTN_H
   7:lvgl\src\lv_widgets/lv_btn.h **** #define LV_BTN_H
   8:lvgl\src\lv_widgets/lv_btn.h **** 
   9:lvgl\src\lv_widgets/lv_btn.h **** #ifdef __cplusplus
  10:lvgl\src\lv_widgets/lv_btn.h **** extern "C" {
  11:lvgl\src\lv_widgets/lv_btn.h **** #endif
  12:lvgl\src\lv_widgets/lv_btn.h **** 
  13:lvgl\src\lv_widgets/lv_btn.h **** /*********************
  14:lvgl\src\lv_widgets/lv_btn.h ****  *      INCLUDES
  15:lvgl\src\lv_widgets/lv_btn.h ****  *********************/
  16:lvgl\src\lv_widgets/lv_btn.h **** #include "../lv_conf_internal.h"
  17:lvgl\src\lv_widgets/lv_btn.h **** 
  18:lvgl\src\lv_widgets/lv_btn.h **** #if LV_USE_BTN != 0
  19:lvgl\src\lv_widgets/lv_btn.h **** 
  20:lvgl\src\lv_widgets/lv_btn.h **** /*Testing of dependencies*/
  21:lvgl\src\lv_widgets/lv_btn.h **** #if LV_USE_CONT == 0
  22:lvgl\src\lv_widgets/lv_btn.h **** #error "lv_btn: lv_cont is required. Enable it in lv_conf.h (LV_USE_CONT  1) "
  23:lvgl\src\lv_widgets/lv_btn.h **** #endif
  24:lvgl\src\lv_widgets/lv_btn.h **** 
  25:lvgl\src\lv_widgets/lv_btn.h **** #include "lv_cont.h"
  26:lvgl\src\lv_widgets/lv_btn.h **** #include "../lv_core/lv_indev.h"
  27:lvgl\src\lv_widgets/lv_btn.h **** 
  28:lvgl\src\lv_widgets/lv_btn.h **** /*********************
  29:lvgl\src\lv_widgets/lv_btn.h ****  *      DEFINES
  30:lvgl\src\lv_widgets/lv_btn.h ****  *********************/
  31:lvgl\src\lv_widgets/lv_btn.h **** 
  32:lvgl\src\lv_widgets/lv_btn.h **** /**********************
  33:lvgl\src\lv_widgets/lv_btn.h ****  *      TYPEDEFS
  34:lvgl\src\lv_widgets/lv_btn.h ****  **********************/
  35:lvgl\src\lv_widgets/lv_btn.h **** 
  36:lvgl\src\lv_widgets/lv_btn.h **** /** Possible states of a button.
ARM GAS  C:\Users\strap\AppData\Local\Temp\ccEauLm2.s 			page 22


  37:lvgl\src\lv_widgets/lv_btn.h ****  * It can be used not only by buttons but other button-like objects too*/
  38:lvgl\src\lv_widgets/lv_btn.h **** enum {
  39:lvgl\src\lv_widgets/lv_btn.h ****     LV_BTN_STATE_RELEASED,
  40:lvgl\src\lv_widgets/lv_btn.h ****     LV_BTN_STATE_PRESSED,
  41:lvgl\src\lv_widgets/lv_btn.h ****     LV_BTN_STATE_DISABLED,
  42:lvgl\src\lv_widgets/lv_btn.h ****     LV_BTN_STATE_CHECKED_RELEASED,
  43:lvgl\src\lv_widgets/lv_btn.h ****     LV_BTN_STATE_CHECKED_PRESSED,
  44:lvgl\src\lv_widgets/lv_btn.h ****     LV_BTN_STATE_CHECKED_DISABLED,
  45:lvgl\src\lv_widgets/lv_btn.h ****     _LV_BTN_STATE_LAST, /* Number of states*/
  46:lvgl\src\lv_widgets/lv_btn.h **** };
  47:lvgl\src\lv_widgets/lv_btn.h **** typedef uint8_t lv_btn_state_t;
  48:lvgl\src\lv_widgets/lv_btn.h **** 
  49:lvgl\src\lv_widgets/lv_btn.h **** /** Extended data of button*/
  50:lvgl\src\lv_widgets/lv_btn.h **** typedef struct {
  51:lvgl\src\lv_widgets/lv_btn.h ****     /** Ext. of ancestor*/
  52:lvgl\src\lv_widgets/lv_btn.h ****     lv_cont_ext_t cont;
  53:lvgl\src\lv_widgets/lv_btn.h **** 
  54:lvgl\src\lv_widgets/lv_btn.h ****     /** 1: Toggle enabled*/
  55:lvgl\src\lv_widgets/lv_btn.h ****     uint8_t checkable : 1;
  56:lvgl\src\lv_widgets/lv_btn.h **** } lv_btn_ext_t;
  57:lvgl\src\lv_widgets/lv_btn.h **** 
  58:lvgl\src\lv_widgets/lv_btn.h **** /**Styles*/
  59:lvgl\src\lv_widgets/lv_btn.h **** enum {
  60:lvgl\src\lv_widgets/lv_btn.h ****     LV_BTN_PART_MAIN = LV_OBJ_PART_MAIN,
  61:lvgl\src\lv_widgets/lv_btn.h ****     _LV_BTN_PART_VIRTUAL_LAST,
  62:lvgl\src\lv_widgets/lv_btn.h ****     _LV_BTN_PART_REAL_LAST = _LV_OBJ_PART_REAL_LAST,
  63:lvgl\src\lv_widgets/lv_btn.h **** };
  64:lvgl\src\lv_widgets/lv_btn.h **** typedef uint8_t lv_btn_part_t;
  65:lvgl\src\lv_widgets/lv_btn.h **** 
  66:lvgl\src\lv_widgets/lv_btn.h **** /**********************
  67:lvgl\src\lv_widgets/lv_btn.h ****  * GLOBAL PROTOTYPES
  68:lvgl\src\lv_widgets/lv_btn.h ****  **********************/
  69:lvgl\src\lv_widgets/lv_btn.h **** 
  70:lvgl\src\lv_widgets/lv_btn.h **** /**
  71:lvgl\src\lv_widgets/lv_btn.h ****  * Create a button object
  72:lvgl\src\lv_widgets/lv_btn.h ****  * @param par pointer to an object, it will be the parent of the new button
  73:lvgl\src\lv_widgets/lv_btn.h ****  * @param copy pointer to a button object, if not NULL then the new object will be copied from it
  74:lvgl\src\lv_widgets/lv_btn.h ****  * @return pointer to the created button
  75:lvgl\src\lv_widgets/lv_btn.h ****  */
  76:lvgl\src\lv_widgets/lv_btn.h **** lv_obj_t * lv_btn_create(lv_obj_t * par, const lv_obj_t * copy);
  77:lvgl\src\lv_widgets/lv_btn.h **** 
  78:lvgl\src\lv_widgets/lv_btn.h **** /*=====================
  79:lvgl\src\lv_widgets/lv_btn.h ****  * Setter functions
  80:lvgl\src\lv_widgets/lv_btn.h ****  *====================*/
  81:lvgl\src\lv_widgets/lv_btn.h **** 
  82:lvgl\src\lv_widgets/lv_btn.h **** /**
  83:lvgl\src\lv_widgets/lv_btn.h ****  * Enable the toggled states. On release the button will change from/to toggled state.
  84:lvgl\src\lv_widgets/lv_btn.h ****  * @param btn pointer to a button object
  85:lvgl\src\lv_widgets/lv_btn.h ****  * @param tgl true: enable toggled states, false: disable
  86:lvgl\src\lv_widgets/lv_btn.h ****  */
  87:lvgl\src\lv_widgets/lv_btn.h **** void lv_btn_set_checkable(lv_obj_t * btn, bool tgl);
  88:lvgl\src\lv_widgets/lv_btn.h **** 
  89:lvgl\src\lv_widgets/lv_btn.h **** /**
  90:lvgl\src\lv_widgets/lv_btn.h ****  * Set the state of the button
  91:lvgl\src\lv_widgets/lv_btn.h ****  * @param btn pointer to a button object
  92:lvgl\src\lv_widgets/lv_btn.h ****  * @param state the new state of the button (from lv_btn_state_t enum)
  93:lvgl\src\lv_widgets/lv_btn.h ****  */
ARM GAS  C:\Users\strap\AppData\Local\Temp\ccEauLm2.s 			page 23


  94:lvgl\src\lv_widgets/lv_btn.h **** void lv_btn_set_state(lv_obj_t * btn, lv_btn_state_t state);
  95:lvgl\src\lv_widgets/lv_btn.h **** 
  96:lvgl\src\lv_widgets/lv_btn.h **** /**
  97:lvgl\src\lv_widgets/lv_btn.h ****  * Toggle the state of the button (ON->OFF, OFF->ON)
  98:lvgl\src\lv_widgets/lv_btn.h ****  * @param btn pointer to a button object
  99:lvgl\src\lv_widgets/lv_btn.h ****  */
 100:lvgl\src\lv_widgets/lv_btn.h **** void lv_btn_toggle(lv_obj_t * btn);
 101:lvgl\src\lv_widgets/lv_btn.h **** 
 102:lvgl\src\lv_widgets/lv_btn.h **** /**
 103:lvgl\src\lv_widgets/lv_btn.h ****  * Set the layout on a button
 104:lvgl\src\lv_widgets/lv_btn.h ****  * @param btn pointer to a button object
 105:lvgl\src\lv_widgets/lv_btn.h ****  * @param layout a layout from 'lv_cont_layout_t'
 106:lvgl\src\lv_widgets/lv_btn.h ****  */
 107:lvgl\src\lv_widgets/lv_btn.h **** static inline void lv_btn_set_layout(lv_obj_t * btn, lv_layout_t layout)
 108:lvgl\src\lv_widgets/lv_btn.h **** {
 109:lvgl\src\lv_widgets/lv_btn.h ****     lv_cont_set_layout(btn, layout);
 518              		.loc 4 109 0
 519 008c 0621     		movs	r1, #6
 520 008e 2046     		mov	r0, r4
 521 0090 FFF7FEFF 		bl	lv_cont_set_layout
 522              	.LVL77:
 523              	.LBE43:
 524              	.LBE42:
 525              	.LBB44:
 526              	.LBB45:
 527              	.LBB46:
 528              		.file 5 "lvgl\\src\\lv_widgets\\lv_cont.h"
   1:lvgl\src\lv_widgets/lv_cont.h **** /**
   2:lvgl\src\lv_widgets/lv_cont.h ****  * @file lv_cont.h
   3:lvgl\src\lv_widgets/lv_cont.h ****  *
   4:lvgl\src\lv_widgets/lv_cont.h ****  */
   5:lvgl\src\lv_widgets/lv_cont.h **** 
   6:lvgl\src\lv_widgets/lv_cont.h **** #ifndef LV_CONT_H
   7:lvgl\src\lv_widgets/lv_cont.h **** #define LV_CONT_H
   8:lvgl\src\lv_widgets/lv_cont.h **** 
   9:lvgl\src\lv_widgets/lv_cont.h **** #ifdef __cplusplus
  10:lvgl\src\lv_widgets/lv_cont.h **** extern "C" {
  11:lvgl\src\lv_widgets/lv_cont.h **** #endif
  12:lvgl\src\lv_widgets/lv_cont.h **** 
  13:lvgl\src\lv_widgets/lv_cont.h **** /*********************
  14:lvgl\src\lv_widgets/lv_cont.h ****  *      INCLUDES
  15:lvgl\src\lv_widgets/lv_cont.h ****  *********************/
  16:lvgl\src\lv_widgets/lv_cont.h **** #include "../lv_conf_internal.h"
  17:lvgl\src\lv_widgets/lv_cont.h **** 
  18:lvgl\src\lv_widgets/lv_cont.h **** #if LV_USE_CONT != 0
  19:lvgl\src\lv_widgets/lv_cont.h **** 
  20:lvgl\src\lv_widgets/lv_cont.h **** #include "../lv_core/lv_obj.h"
  21:lvgl\src\lv_widgets/lv_cont.h **** 
  22:lvgl\src\lv_widgets/lv_cont.h **** /*********************
  23:lvgl\src\lv_widgets/lv_cont.h ****  *      DEFINES
  24:lvgl\src\lv_widgets/lv_cont.h ****  *********************/
  25:lvgl\src\lv_widgets/lv_cont.h **** 
  26:lvgl\src\lv_widgets/lv_cont.h **** /**********************
  27:lvgl\src\lv_widgets/lv_cont.h ****  *      TYPEDEFS
  28:lvgl\src\lv_widgets/lv_cont.h ****  **********************/
  29:lvgl\src\lv_widgets/lv_cont.h **** 
  30:lvgl\src\lv_widgets/lv_cont.h **** /** Container layout options*/
ARM GAS  C:\Users\strap\AppData\Local\Temp\ccEauLm2.s 			page 24


  31:lvgl\src\lv_widgets/lv_cont.h **** enum {
  32:lvgl\src\lv_widgets/lv_cont.h ****     LV_LAYOUT_OFF = 0, /**< No layout */
  33:lvgl\src\lv_widgets/lv_cont.h ****     LV_LAYOUT_CENTER, /**< Center objects */
  34:lvgl\src\lv_widgets/lv_cont.h **** 
  35:lvgl\src\lv_widgets/lv_cont.h ****     /**
  36:lvgl\src\lv_widgets/lv_cont.h ****      * COULMN:
  37:lvgl\src\lv_widgets/lv_cont.h ****      * - Place the object below each other
  38:lvgl\src\lv_widgets/lv_cont.h ****      * - Keep `pad_top` space on the top
  39:lvgl\src\lv_widgets/lv_cont.h ****      * - Keep `pad_inner` space between the objects
  40:lvgl\src\lv_widgets/lv_cont.h ****      */
  41:lvgl\src\lv_widgets/lv_cont.h ****     LV_LAYOUT_COLUMN_LEFT,      /**< Column left align*/
  42:lvgl\src\lv_widgets/lv_cont.h ****     LV_LAYOUT_COLUMN_MID,       /**< Column middle align*/
  43:lvgl\src\lv_widgets/lv_cont.h ****     LV_LAYOUT_COLUMN_RIGHT,     /**< Column right align*/
  44:lvgl\src\lv_widgets/lv_cont.h **** 
  45:lvgl\src\lv_widgets/lv_cont.h ****     /**
  46:lvgl\src\lv_widgets/lv_cont.h ****      * ROW:
  47:lvgl\src\lv_widgets/lv_cont.h ****      * - Place the object next to each other
  48:lvgl\src\lv_widgets/lv_cont.h ****      * - Keep `pad_left` space on the left
  49:lvgl\src\lv_widgets/lv_cont.h ****      * - Keep `pad_inner` space between the objects
  50:lvgl\src\lv_widgets/lv_cont.h ****      * - If the object which applies the layout has `base_dir == LV_BIDI_DIR_RTL`
  51:lvgl\src\lv_widgets/lv_cont.h ****      *   the row will start from the right applying `pad.right` space
  52:lvgl\src\lv_widgets/lv_cont.h ****      */
  53:lvgl\src\lv_widgets/lv_cont.h ****     LV_LAYOUT_ROW_TOP,          /**< Row top align*/
  54:lvgl\src\lv_widgets/lv_cont.h ****     LV_LAYOUT_ROW_MID,          /**< Row middle align*/
  55:lvgl\src\lv_widgets/lv_cont.h ****     LV_LAYOUT_ROW_BOTTOM,       /**< Row bottom align*/
  56:lvgl\src\lv_widgets/lv_cont.h **** 
  57:lvgl\src\lv_widgets/lv_cont.h **** 
  58:lvgl\src\lv_widgets/lv_cont.h ****     /**
  59:lvgl\src\lv_widgets/lv_cont.h ****      * PRETTY:
  60:lvgl\src\lv_widgets/lv_cont.h ****      * - Place the object next to each other
  61:lvgl\src\lv_widgets/lv_cont.h ****      * - If there is no more space start a new row
  62:lvgl\src\lv_widgets/lv_cont.h ****      * - Respect `pad_left` and `pad_right` when determining the available space in a row
  63:lvgl\src\lv_widgets/lv_cont.h ****      * - Keep `pad_inner` space between the objects in the same row
  64:lvgl\src\lv_widgets/lv_cont.h ****      * - Keep `pad_inner` space between the objects in rows
  65:lvgl\src\lv_widgets/lv_cont.h ****      * - Divide the remaining horizontal space equally
  66:lvgl\src\lv_widgets/lv_cont.h ****      */
  67:lvgl\src\lv_widgets/lv_cont.h ****     LV_LAYOUT_PRETTY_TOP,       /**< Row top align*/
  68:lvgl\src\lv_widgets/lv_cont.h ****     LV_LAYOUT_PRETTY_MID,       /**< Row middle align*/
  69:lvgl\src\lv_widgets/lv_cont.h ****     LV_LAYOUT_PRETTY_BOTTOM,    /**< Row bottom align*/
  70:lvgl\src\lv_widgets/lv_cont.h **** 
  71:lvgl\src\lv_widgets/lv_cont.h ****     /**
  72:lvgl\src\lv_widgets/lv_cont.h ****      * GRID
  73:lvgl\src\lv_widgets/lv_cont.h ****      * - Place the object next to each other
  74:lvgl\src\lv_widgets/lv_cont.h ****      * - If there is no more space start a new row
  75:lvgl\src\lv_widgets/lv_cont.h ****      * - Respect `pad_left` and `pad_right` when determining the available space in a row
  76:lvgl\src\lv_widgets/lv_cont.h ****      * - Keep `pad_inner` space between the objects in the same row
  77:lvgl\src\lv_widgets/lv_cont.h ****      * - Keep `pad_inner` space between the objects in rows
  78:lvgl\src\lv_widgets/lv_cont.h ****      * - Unlike `PRETTY`, `GRID` always keep `pad_inner` space horizontally between objects
  79:lvgl\src\lv_widgets/lv_cont.h ****      *   so it doesn't divide the remaining horizontal space equally
  80:lvgl\src\lv_widgets/lv_cont.h ****      */
  81:lvgl\src\lv_widgets/lv_cont.h ****     LV_LAYOUT_GRID,   /**< Align same-sized object into a grid*/
  82:lvgl\src\lv_widgets/lv_cont.h **** 
  83:lvgl\src\lv_widgets/lv_cont.h ****     _LV_LAYOUT_LAST
  84:lvgl\src\lv_widgets/lv_cont.h **** };
  85:lvgl\src\lv_widgets/lv_cont.h **** typedef uint8_t lv_layout_t;
  86:lvgl\src\lv_widgets/lv_cont.h **** 
  87:lvgl\src\lv_widgets/lv_cont.h **** /**
ARM GAS  C:\Users\strap\AppData\Local\Temp\ccEauLm2.s 			page 25


  88:lvgl\src\lv_widgets/lv_cont.h ****  * How to resize the container around the children.
  89:lvgl\src\lv_widgets/lv_cont.h ****  */
  90:lvgl\src\lv_widgets/lv_cont.h **** enum {
  91:lvgl\src\lv_widgets/lv_cont.h ****     LV_FIT_NONE,  /**< Do not change the size automatically*/
  92:lvgl\src\lv_widgets/lv_cont.h ****     LV_FIT_TIGHT, /**< Shrink wrap around the children */
  93:lvgl\src\lv_widgets/lv_cont.h ****     LV_FIT_PARENT, /**< Align the size to the parent's edge*/
  94:lvgl\src\lv_widgets/lv_cont.h ****     LV_FIT_MAX,  /**< Align the size to the parent's edge first but if there is an object out of it
  95:lvgl\src\lv_widgets/lv_cont.h ****                      then get larger */
  96:lvgl\src\lv_widgets/lv_cont.h ****     _LV_FIT_LAST
  97:lvgl\src\lv_widgets/lv_cont.h **** };
  98:lvgl\src\lv_widgets/lv_cont.h **** typedef uint8_t lv_fit_t;
  99:lvgl\src\lv_widgets/lv_cont.h **** 
 100:lvgl\src\lv_widgets/lv_cont.h **** typedef struct {
 101:lvgl\src\lv_widgets/lv_cont.h ****     /*Inherited from 'base_obj' so no inherited ext. */ /*Ext. of ancestor*/
 102:lvgl\src\lv_widgets/lv_cont.h ****     /*New data for this type */
 103:lvgl\src\lv_widgets/lv_cont.h ****     lv_layout_t layout : 4;     /*A layout from 'lv_layout_t' enum*/
 104:lvgl\src\lv_widgets/lv_cont.h ****     lv_fit_t fit_left : 2;   /*A fit type from `lv_fit_t` enum */
 105:lvgl\src\lv_widgets/lv_cont.h ****     lv_fit_t fit_right : 2;  /*A fit type from `lv_fit_t` enum */
 106:lvgl\src\lv_widgets/lv_cont.h ****     lv_fit_t fit_top : 2;    /*A fit type from `lv_fit_t` enum */
 107:lvgl\src\lv_widgets/lv_cont.h ****     lv_fit_t fit_bottom : 2; /*A fit type from `lv_fit_t` enum */
 108:lvgl\src\lv_widgets/lv_cont.h **** } lv_cont_ext_t;
 109:lvgl\src\lv_widgets/lv_cont.h **** 
 110:lvgl\src\lv_widgets/lv_cont.h **** /*Part of the container*/
 111:lvgl\src\lv_widgets/lv_cont.h **** enum {
 112:lvgl\src\lv_widgets/lv_cont.h ****     LV_CONT_PART_MAIN = LV_OBJ_PART_MAIN,
 113:lvgl\src\lv_widgets/lv_cont.h ****     _LV_CONT_PART_VIRTUAL_LAST = _LV_OBJ_PART_VIRTUAL_LAST,
 114:lvgl\src\lv_widgets/lv_cont.h ****     _LV_CONT_PART_REAL_LAST = _LV_OBJ_PART_REAL_LAST,
 115:lvgl\src\lv_widgets/lv_cont.h **** };
 116:lvgl\src\lv_widgets/lv_cont.h **** 
 117:lvgl\src\lv_widgets/lv_cont.h **** /**********************
 118:lvgl\src\lv_widgets/lv_cont.h ****  * GLOBAL PROTOTYPES
 119:lvgl\src\lv_widgets/lv_cont.h ****  **********************/
 120:lvgl\src\lv_widgets/lv_cont.h **** 
 121:lvgl\src\lv_widgets/lv_cont.h **** /**
 122:lvgl\src\lv_widgets/lv_cont.h ****  * Create a container objects
 123:lvgl\src\lv_widgets/lv_cont.h ****  * @param par pointer to an object, it will be the parent of the new container
 124:lvgl\src\lv_widgets/lv_cont.h ****  * @param copy pointer to a container object, if not NULL then the new object will be copied from i
 125:lvgl\src\lv_widgets/lv_cont.h ****  * @return pointer to the created container
 126:lvgl\src\lv_widgets/lv_cont.h ****  */
 127:lvgl\src\lv_widgets/lv_cont.h **** lv_obj_t * lv_cont_create(lv_obj_t * par, const lv_obj_t * copy);
 128:lvgl\src\lv_widgets/lv_cont.h **** 
 129:lvgl\src\lv_widgets/lv_cont.h **** /*=====================
 130:lvgl\src\lv_widgets/lv_cont.h ****  * Setter functions
 131:lvgl\src\lv_widgets/lv_cont.h ****  *====================*/
 132:lvgl\src\lv_widgets/lv_cont.h **** 
 133:lvgl\src\lv_widgets/lv_cont.h **** /**
 134:lvgl\src\lv_widgets/lv_cont.h ****  * Set a layout on a container
 135:lvgl\src\lv_widgets/lv_cont.h ****  * @param cont pointer to a container object
 136:lvgl\src\lv_widgets/lv_cont.h ****  * @param layout a layout from 'lv_cont_layout_t'
 137:lvgl\src\lv_widgets/lv_cont.h ****  */
 138:lvgl\src\lv_widgets/lv_cont.h **** void lv_cont_set_layout(lv_obj_t * cont, lv_layout_t layout);
 139:lvgl\src\lv_widgets/lv_cont.h **** 
 140:lvgl\src\lv_widgets/lv_cont.h **** /**
 141:lvgl\src\lv_widgets/lv_cont.h ****  * Set the fit policy in all 4 directions separately.
 142:lvgl\src\lv_widgets/lv_cont.h ****  * It tell how to change the container's size automatically.
 143:lvgl\src\lv_widgets/lv_cont.h ****  * @param cont pointer to a container object
 144:lvgl\src\lv_widgets/lv_cont.h ****  * @param left left fit policy from `lv_fit_t`
ARM GAS  C:\Users\strap\AppData\Local\Temp\ccEauLm2.s 			page 26


 145:lvgl\src\lv_widgets/lv_cont.h ****  * @param right right fit policy from `lv_fit_t`
 146:lvgl\src\lv_widgets/lv_cont.h ****  * @param top top fit policy from `lv_fit_t`
 147:lvgl\src\lv_widgets/lv_cont.h ****  * @param bottom bottom fit policy from `lv_fit_t`
 148:lvgl\src\lv_widgets/lv_cont.h ****  */
 149:lvgl\src\lv_widgets/lv_cont.h **** void lv_cont_set_fit4(lv_obj_t * cont, lv_fit_t left, lv_fit_t right, lv_fit_t top, lv_fit_t bottom
 150:lvgl\src\lv_widgets/lv_cont.h **** 
 151:lvgl\src\lv_widgets/lv_cont.h **** /**
 152:lvgl\src\lv_widgets/lv_cont.h ****  * Set the fit policy horizontally and vertically separately.
 153:lvgl\src\lv_widgets/lv_cont.h ****  * It tells how to change the container's size automatically.
 154:lvgl\src\lv_widgets/lv_cont.h ****  * @param cont pointer to a container object
 155:lvgl\src\lv_widgets/lv_cont.h ****  * @param hor horizontal fit policy from `lv_fit_t`
 156:lvgl\src\lv_widgets/lv_cont.h ****  * @param ver vertical fit policy from `lv_fit_t`
 157:lvgl\src\lv_widgets/lv_cont.h ****  */
 158:lvgl\src\lv_widgets/lv_cont.h **** static inline void lv_cont_set_fit2(lv_obj_t * cont, lv_fit_t hor, lv_fit_t ver)
 159:lvgl\src\lv_widgets/lv_cont.h **** {
 160:lvgl\src\lv_widgets/lv_cont.h ****     lv_cont_set_fit4(cont, hor, hor, ver, ver);
 161:lvgl\src\lv_widgets/lv_cont.h **** }
 162:lvgl\src\lv_widgets/lv_cont.h **** 
 163:lvgl\src\lv_widgets/lv_cont.h **** /**
 164:lvgl\src\lv_widgets/lv_cont.h ****  * Set the fit policy in all 4 direction at once.
 165:lvgl\src\lv_widgets/lv_cont.h ****  * It tells how to change the container's size automatically.
 166:lvgl\src\lv_widgets/lv_cont.h ****  * @param cont pointer to a container object
 167:lvgl\src\lv_widgets/lv_cont.h ****  * @param fit fit policy from `lv_fit_t`
 168:lvgl\src\lv_widgets/lv_cont.h ****  */
 169:lvgl\src\lv_widgets/lv_cont.h **** static inline void lv_cont_set_fit(lv_obj_t * cont, lv_fit_t fit)
 170:lvgl\src\lv_widgets/lv_cont.h **** {
 171:lvgl\src\lv_widgets/lv_cont.h ****     lv_cont_set_fit4(cont, fit, fit, fit, fit);
 529              		.loc 5 171 0
 530 0094 0125     		movs	r5, #1
 531              	.LVL78:
 532 0096 0095     		str	r5, [sp]
 533 0098 2B46     		mov	r3, r5
 534 009a 2A46     		mov	r2, r5
 535 009c 2946     		mov	r1, r5
 536 009e 2046     		mov	r0, r4
 537 00a0 FFF7FEFF 		bl	lv_cont_set_fit4
 538              	.LVL79:
 539              	.LBE46:
 540              	.LBE45:
 541              	.LBE44:
  83:lvgl\src\lv_widgets/lv_checkbox.c ****         lv_obj_add_protect(cb, LV_PROTECT_PRESS_LOST);
 542              		.loc 1 83 0
 543 00a4 2946     		mov	r1, r5
 544 00a6 2046     		mov	r0, r4
 545 00a8 FFF7FEFF 		bl	lv_btn_set_checkable
 546              	.LVL80:
  84:lvgl\src\lv_widgets/lv_checkbox.c **** 
 547              		.loc 1 84 0
 548 00ac 1021     		movs	r1, #16
 549 00ae 2046     		mov	r0, r4
 550 00b0 FFF7FEFF 		bl	lv_obj_add_protect
 551              	.LVL81:
  86:lvgl\src\lv_widgets/lv_checkbox.c **** 
 552              		.loc 1 86 0
 553 00b4 0521     		movs	r1, #5
 554 00b6 2046     		mov	r0, r4
 555 00b8 FFF7FEFF 		bl	lv_theme_apply
ARM GAS  C:\Users\strap\AppData\Local\Temp\ccEauLm2.s 			page 27


 556              	.LVL82:
 100:lvgl\src\lv_widgets/lv_checkbox.c **** }
 557              		.loc 1 100 0
 558 00bc 2046     		mov	r0, r4
 559 00be 10E0     		b	.L31
 560              	.LVL83:
 561              	.L36:
 562              	.LBB47:
  90:lvgl\src\lv_widgets/lv_checkbox.c ****         ext->bullet            = lv_obj_create(cb, copy_ext->bullet);
 563              		.loc 1 90 0
 564 00c0 3046     		mov	r0, r6
 565 00c2 FFF7FEFF 		bl	lv_obj_get_ext_attr
 566              	.LVL84:
 567 00c6 0646     		mov	r6, r0
 568              	.LVL85:
  91:lvgl\src\lv_widgets/lv_checkbox.c ****         ext->label             = lv_label_create(cb, copy_ext->label);
 569              		.loc 1 91 0
 570 00c8 4168     		ldr	r1, [r0, #4]
 571 00ca 2046     		mov	r0, r4
 572              	.LVL86:
 573 00cc FFF7FEFF 		bl	lv_obj_create
 574              	.LVL87:
 575 00d0 6860     		str	r0, [r5, #4]
  92:lvgl\src\lv_widgets/lv_checkbox.c **** 
 576              		.loc 1 92 0
 577 00d2 B168     		ldr	r1, [r6, #8]
 578 00d4 2046     		mov	r0, r4
 579 00d6 FFF7FEFF 		bl	lv_label_create
 580              	.LVL88:
 581 00da A860     		str	r0, [r5, #8]
 582              	.LBE47:
 100:lvgl\src\lv_widgets/lv_checkbox.c **** }
 583              		.loc 1 100 0
 584 00dc 2046     		mov	r0, r4
 585 00de 00E0     		b	.L31
 586              	.LVL89:
 587              	.L37:
  57:lvgl\src\lv_widgets/lv_checkbox.c **** 
 588              		.loc 1 57 0
 589 00e0 0020     		movs	r0, #0
 590              	.LVL90:
 591              	.L31:
 101:lvgl\src\lv_widgets/lv_checkbox.c **** 
 592              		.loc 1 101 0
 593 00e2 02B0     		add	sp, sp, #8
 594              		.cfi_def_cfa_offset 16
 595              		@ sp needed
 596 00e4 70BD     		pop	{r4, r5, r6, pc}
 597              	.LVL91:
 598              	.L40:
 599 00e6 00BF     		.align	2
 600              	.L39:
 601 00e8 1C000000 		.word	.LC2
 602 00ec 00000000 		.word	.LANCHOR0
 603 00f0 00000000 		.word	lv_checkbox_signal
 604 00f4 2C000000 		.word	.LC3
 605              		.cfi_endproc
ARM GAS  C:\Users\strap\AppData\Local\Temp\ccEauLm2.s 			page 28


 606              	.LFE342:
 607              		.size	lv_checkbox_create, .-lv_checkbox_create
 608              		.section	.text.lv_checkbox_set_text_static,"ax",%progbits
 609              		.align	2
 610              		.global	lv_checkbox_set_text_static
 611              		.thumb
 612              		.thumb_func
 613              		.type	lv_checkbox_set_text_static, %function
 614              	lv_checkbox_set_text_static:
 615              	.LFB344:
 128:lvgl\src\lv_widgets/lv_checkbox.c ****     LV_ASSERT_OBJ(cb, LV_OBJX_NAME);
 616              		.loc 1 128 0
 617              		.cfi_startproc
 618              		@ args = 0, pretend = 0, frame = 0
 619              		@ frame_needed = 0, uses_anonymous_args = 0
 620              	.LVL92:
 621 0000 38B5     		push	{r3, r4, r5, lr}
 622              		.cfi_def_cfa_offset 16
 623              		.cfi_offset 3, -16
 624              		.cfi_offset 4, -12
 625              		.cfi_offset 5, -8
 626              		.cfi_offset 14, -4
 627 0002 0446     		mov	r4, r0
 628 0004 0D46     		mov	r5, r1
 129:lvgl\src\lv_widgets/lv_checkbox.c **** 
 629              		.loc 1 129 0
 630 0006 FFF7FEFF 		bl	lv_debug_check_null
 631              	.LVL93:
 632 000a 28B9     		cbnz	r0, .L42
 129:lvgl\src\lv_widgets/lv_checkbox.c **** 
 633              		.loc 1 129 0 is_stmt 0 discriminator 1
 634 000c 2246     		mov	r2, r4
 635 000e 0023     		movs	r3, #0
 636 0010 0548     		ldr	r0, .L45
 637 0012 FFF7FEFF 		bl	lv_debug_log_error
 638              	.LVL94:
 639              	.L43:
 640 0016 FEE7     		b	.L43
 641              	.L42:
 131:lvgl\src\lv_widgets/lv_checkbox.c ****     lv_label_set_text_static(ext->label, txt);
 642              		.loc 1 131 0 is_stmt 1
 643 0018 2046     		mov	r0, r4
 644 001a FFF7FEFF 		bl	lv_obj_get_ext_attr
 645              	.LVL95:
 132:lvgl\src\lv_widgets/lv_checkbox.c **** }
 646              		.loc 1 132 0
 647 001e 2946     		mov	r1, r5
 648 0020 8068     		ldr	r0, [r0, #8]
 649              	.LVL96:
 650 0022 FFF7FEFF 		bl	lv_label_set_text_static
 651              	.LVL97:
 652 0026 38BD     		pop	{r3, r4, r5, pc}
 653              	.LVL98:
 654              	.L46:
 655              		.align	2
 656              	.L45:
 657 0028 0C000000 		.word	.LC1
ARM GAS  C:\Users\strap\AppData\Local\Temp\ccEauLm2.s 			page 29


 658              		.cfi_endproc
 659              	.LFE344:
 660              		.size	lv_checkbox_set_text_static, .-lv_checkbox_set_text_static
 661              		.section	.text.lv_checkbox_set_checked,"ax",%progbits
 662              		.align	2
 663              		.global	lv_checkbox_set_checked
 664              		.thumb
 665              		.thumb_func
 666              		.type	lv_checkbox_set_checked, %function
 667              	lv_checkbox_set_checked:
 668              	.LFB345:
 141:lvgl\src\lv_widgets/lv_checkbox.c ****     lv_checkbox_ext_t * ext = lv_obj_get_ext_attr(cb);
 669              		.loc 1 141 0
 670              		.cfi_startproc
 671              		@ args = 0, pretend = 0, frame = 0
 672              		@ frame_needed = 0, uses_anonymous_args = 0
 673              	.LVL99:
 674 0000 70B5     		push	{r4, r5, r6, lr}
 675              		.cfi_def_cfa_offset 16
 676              		.cfi_offset 4, -16
 677              		.cfi_offset 5, -12
 678              		.cfi_offset 6, -8
 679              		.cfi_offset 14, -4
 680 0002 0546     		mov	r5, r0
 681 0004 0E46     		mov	r6, r1
 142:lvgl\src\lv_widgets/lv_checkbox.c ****     lv_btn_set_state(cb, checked ? LV_BTN_STATE_CHECKED_RELEASED : LV_BTN_STATE_RELEASED);
 682              		.loc 1 142 0
 683 0006 FFF7FEFF 		bl	lv_obj_get_ext_attr
 684              	.LVL100:
 685 000a 0446     		mov	r4, r0
 686              	.LVL101:
 143:lvgl\src\lv_widgets/lv_checkbox.c **** 
 687              		.loc 1 143 0
 688 000c 0EB1     		cbz	r6, .L51
 689 000e 0321     		movs	r1, #3
 690 0010 00E0     		b	.L48
 691              	.L51:
 692 0012 0021     		movs	r1, #0
 693              	.L48:
 143:lvgl\src\lv_widgets/lv_checkbox.c **** 
 694              		.loc 1 143 0 is_stmt 0 discriminator 4
 695 0014 2846     		mov	r0, r5
 696              	.LVL102:
 697 0016 FFF7FEFF 		bl	lv_btn_set_state
 698              	.LVL103:
 145:lvgl\src\lv_widgets/lv_checkbox.c ****         lv_obj_add_state(ext->bullet, LV_STATE_CHECKED);
 699              		.loc 1 145 0 is_stmt 1 discriminator 4
 700 001a 46B1     		cbz	r6, .L49
 146:lvgl\src\lv_widgets/lv_checkbox.c ****         lv_obj_add_state(ext->label, LV_STATE_CHECKED);
 701              		.loc 1 146 0
 702 001c 0121     		movs	r1, #1
 703 001e 6068     		ldr	r0, [r4, #4]
 704 0020 FFF7FEFF 		bl	lv_obj_add_state
 705              	.LVL104:
 147:lvgl\src\lv_widgets/lv_checkbox.c ****     }
 706              		.loc 1 147 0
 707 0024 0121     		movs	r1, #1
ARM GAS  C:\Users\strap\AppData\Local\Temp\ccEauLm2.s 			page 30


 708 0026 A068     		ldr	r0, [r4, #8]
 709 0028 FFF7FEFF 		bl	lv_obj_add_state
 710              	.LVL105:
 711 002c 07E0     		b	.L50
 712              	.L49:
 150:lvgl\src\lv_widgets/lv_checkbox.c ****         lv_obj_clear_state(ext->label, LV_STATE_CHECKED);
 713              		.loc 1 150 0
 714 002e 0121     		movs	r1, #1
 715 0030 6068     		ldr	r0, [r4, #4]
 716 0032 FFF7FEFF 		bl	lv_obj_clear_state
 717              	.LVL106:
 151:lvgl\src\lv_widgets/lv_checkbox.c ****     }
 718              		.loc 1 151 0
 719 0036 0121     		movs	r1, #1
 720 0038 A068     		ldr	r0, [r4, #8]
 721 003a FFF7FEFF 		bl	lv_obj_clear_state
 722              	.LVL107:
 723              	.L50:
 154:lvgl\src\lv_widgets/lv_checkbox.c ****     lv_obj_clear_state(ext->label, LV_STATE_DISABLED);
 724              		.loc 1 154 0
 725 003e 2021     		movs	r1, #32
 726 0040 6068     		ldr	r0, [r4, #4]
 727 0042 FFF7FEFF 		bl	lv_obj_clear_state
 728              	.LVL108:
 155:lvgl\src\lv_widgets/lv_checkbox.c **** 
 729              		.loc 1 155 0
 730 0046 2021     		movs	r1, #32
 731 0048 A068     		ldr	r0, [r4, #8]
 732 004a FFF7FEFF 		bl	lv_obj_clear_state
 733              	.LVL109:
 158:lvgl\src\lv_widgets/lv_checkbox.c ****     lv_obj_finish_transitions(ext->bullet, LV_OBJ_PART_MAIN);
 734              		.loc 1 158 0
 735 004e 0021     		movs	r1, #0
 736 0050 2846     		mov	r0, r5
 737 0052 FFF7FEFF 		bl	lv_obj_finish_transitions
 738              	.LVL110:
 159:lvgl\src\lv_widgets/lv_checkbox.c **** #endif
 739              		.loc 1 159 0
 740 0056 0021     		movs	r1, #0
 741 0058 6068     		ldr	r0, [r4, #4]
 742 005a FFF7FEFF 		bl	lv_obj_finish_transitions
 743              	.LVL111:
 744 005e 70BD     		pop	{r4, r5, r6, pc}
 745              		.cfi_endproc
 746              	.LFE345:
 747              		.size	lv_checkbox_set_checked, .-lv_checkbox_set_checked
 748              		.section	.text.lv_checkbox_set_disabled,"ax",%progbits
 749              		.align	2
 750              		.global	lv_checkbox_set_disabled
 751              		.thumb
 752              		.thumb_func
 753              		.type	lv_checkbox_set_disabled, %function
 754              	lv_checkbox_set_disabled:
 755              	.LFB346:
 169:lvgl\src\lv_widgets/lv_checkbox.c ****     lv_checkbox_ext_t * ext = lv_obj_get_ext_attr(cb);
 756              		.loc 1 169 0
 757              		.cfi_startproc
ARM GAS  C:\Users\strap\AppData\Local\Temp\ccEauLm2.s 			page 31


 758              		@ args = 0, pretend = 0, frame = 0
 759              		@ frame_needed = 0, uses_anonymous_args = 0
 760              	.LVL112:
 761 0000 38B5     		push	{r3, r4, r5, lr}
 762              		.cfi_def_cfa_offset 16
 763              		.cfi_offset 3, -16
 764              		.cfi_offset 4, -12
 765              		.cfi_offset 5, -8
 766              		.cfi_offset 14, -4
 767 0002 0546     		mov	r5, r0
 170:lvgl\src\lv_widgets/lv_checkbox.c ****     lv_btn_set_state(cb, LV_BTN_STATE_DISABLED);
 768              		.loc 1 170 0
 769 0004 FFF7FEFF 		bl	lv_obj_get_ext_attr
 770              	.LVL113:
 771 0008 0446     		mov	r4, r0
 772              	.LVL114:
 171:lvgl\src\lv_widgets/lv_checkbox.c **** 
 773              		.loc 1 171 0
 774 000a 0221     		movs	r1, #2
 775 000c 2846     		mov	r0, r5
 776              	.LVL115:
 777 000e FFF7FEFF 		bl	lv_btn_set_state
 778              	.LVL116:
 173:lvgl\src\lv_widgets/lv_checkbox.c ****     lv_obj_add_state(ext->label, LV_STATE_DISABLED);
 779              		.loc 1 173 0
 780 0012 2021     		movs	r1, #32
 781 0014 6068     		ldr	r0, [r4, #4]
 782 0016 FFF7FEFF 		bl	lv_obj_add_state
 783              	.LVL117:
 174:lvgl\src\lv_widgets/lv_checkbox.c **** 
 784              		.loc 1 174 0
 785 001a 2021     		movs	r1, #32
 786 001c A068     		ldr	r0, [r4, #8]
 787 001e FFF7FEFF 		bl	lv_obj_add_state
 788              	.LVL118:
 177:lvgl\src\lv_widgets/lv_checkbox.c ****     lv_obj_finish_transitions(ext->bullet, LV_OBJ_PART_MAIN);
 789              		.loc 1 177 0
 790 0022 0021     		movs	r1, #0
 791 0024 2846     		mov	r0, r5
 792 0026 FFF7FEFF 		bl	lv_obj_finish_transitions
 793              	.LVL119:
 178:lvgl\src\lv_widgets/lv_checkbox.c **** #endif
 794              		.loc 1 178 0
 795 002a 0021     		movs	r1, #0
 796 002c 6068     		ldr	r0, [r4, #4]
 797 002e FFF7FEFF 		bl	lv_obj_finish_transitions
 798              	.LVL120:
 799 0032 38BD     		pop	{r3, r4, r5, pc}
 800              		.cfi_endproc
 801              	.LFE346:
 802              		.size	lv_checkbox_set_disabled, .-lv_checkbox_set_disabled
 803              		.section	.text.lv_checkbox_set_state,"ax",%progbits
 804              		.align	2
 805              		.global	lv_checkbox_set_state
 806              		.thumb
 807              		.thumb_func
 808              		.type	lv_checkbox_set_state, %function
ARM GAS  C:\Users\strap\AppData\Local\Temp\ccEauLm2.s 			page 32


 809              	lv_checkbox_set_state:
 810              	.LFB347:
 188:lvgl\src\lv_widgets/lv_checkbox.c ****     lv_checkbox_ext_t * ext = lv_obj_get_ext_attr(cb);
 811              		.loc 1 188 0
 812              		.cfi_startproc
 813              		@ args = 0, pretend = 0, frame = 0
 814              		@ frame_needed = 0, uses_anonymous_args = 0
 815              	.LVL121:
 816 0000 70B5     		push	{r4, r5, r6, lr}
 817              		.cfi_def_cfa_offset 16
 818              		.cfi_offset 4, -16
 819              		.cfi_offset 5, -12
 820              		.cfi_offset 6, -8
 821              		.cfi_offset 14, -4
 822 0002 0446     		mov	r4, r0
 823 0004 0E46     		mov	r6, r1
 189:lvgl\src\lv_widgets/lv_checkbox.c ****     lv_btn_set_state(cb, state);
 824              		.loc 1 189 0
 825 0006 FFF7FEFF 		bl	lv_obj_get_ext_attr
 826              	.LVL122:
 827 000a 0546     		mov	r5, r0
 828              	.LVL123:
 190:lvgl\src\lv_widgets/lv_checkbox.c ****     lv_obj_set_state(ext->bullet, lv_obj_get_state(cb, LV_CHECKBOX_PART_BG));
 829              		.loc 1 190 0
 830 000c 3146     		mov	r1, r6
 831 000e 2046     		mov	r0, r4
 832              	.LVL124:
 833 0010 FFF7FEFF 		bl	lv_btn_set_state
 834              	.LVL125:
 191:lvgl\src\lv_widgets/lv_checkbox.c ****     lv_obj_set_state(ext->bullet, lv_obj_get_state(cb, LV_CHECKBOX_PART_BG));
 835              		.loc 1 191 0
 836 0014 6E68     		ldr	r6, [r5, #4]
 837 0016 0021     		movs	r1, #0
 838 0018 2046     		mov	r0, r4
 839 001a FFF7FEFF 		bl	lv_obj_get_state
 840              	.LVL126:
 841 001e 0146     		mov	r1, r0
 842 0020 3046     		mov	r0, r6
 843 0022 FFF7FEFF 		bl	lv_obj_set_state
 844              	.LVL127:
 192:lvgl\src\lv_widgets/lv_checkbox.c **** 
 845              		.loc 1 192 0
 846 0026 6E68     		ldr	r6, [r5, #4]
 847 0028 0021     		movs	r1, #0
 848 002a 2046     		mov	r0, r4
 849 002c FFF7FEFF 		bl	lv_obj_get_state
 850              	.LVL128:
 851 0030 0146     		mov	r1, r0
 852 0032 3046     		mov	r0, r6
 853 0034 FFF7FEFF 		bl	lv_obj_set_state
 854              	.LVL129:
 195:lvgl\src\lv_widgets/lv_checkbox.c ****     lv_obj_finish_transitions(ext->bullet, LV_OBJ_PART_MAIN);
 855              		.loc 1 195 0
 856 0038 0021     		movs	r1, #0
 857 003a 2046     		mov	r0, r4
 858 003c FFF7FEFF 		bl	lv_obj_finish_transitions
 859              	.LVL130:
ARM GAS  C:\Users\strap\AppData\Local\Temp\ccEauLm2.s 			page 33


 196:lvgl\src\lv_widgets/lv_checkbox.c **** #endif
 860              		.loc 1 196 0
 861 0040 0021     		movs	r1, #0
 862 0042 6868     		ldr	r0, [r5, #4]
 863 0044 FFF7FEFF 		bl	lv_obj_finish_transitions
 864              	.LVL131:
 865 0048 70BD     		pop	{r4, r5, r6, pc}
 866              		.cfi_endproc
 867              	.LFE347:
 868              		.size	lv_checkbox_set_state, .-lv_checkbox_set_state
 869 004a 00BF     		.section	.text.lv_checkbox_get_text,"ax",%progbits
 870              		.align	2
 871              		.global	lv_checkbox_get_text
 872              		.thumb
 873              		.thumb_func
 874              		.type	lv_checkbox_get_text, %function
 875              	lv_checkbox_get_text:
 876              	.LFB348:
 210:lvgl\src\lv_widgets/lv_checkbox.c ****     LV_ASSERT_OBJ(cb, LV_OBJX_NAME);
 877              		.loc 1 210 0
 878              		.cfi_startproc
 879              		@ args = 0, pretend = 0, frame = 0
 880              		@ frame_needed = 0, uses_anonymous_args = 0
 881              	.LVL132:
 882 0000 10B5     		push	{r4, lr}
 883              		.cfi_def_cfa_offset 8
 884              		.cfi_offset 4, -8
 885              		.cfi_offset 14, -4
 886 0002 0446     		mov	r4, r0
 211:lvgl\src\lv_widgets/lv_checkbox.c **** 
 887              		.loc 1 211 0
 888 0004 FFF7FEFF 		bl	lv_debug_check_null
 889              	.LVL133:
 890 0008 28B9     		cbnz	r0, .L58
 211:lvgl\src\lv_widgets/lv_checkbox.c **** 
 891              		.loc 1 211 0 is_stmt 0 discriminator 1
 892 000a 2246     		mov	r2, r4
 893 000c 0023     		movs	r3, #0
 894 000e 0548     		ldr	r0, .L61
 895 0010 FFF7FEFF 		bl	lv_debug_log_error
 896              	.LVL134:
 897              	.L59:
 898 0014 FEE7     		b	.L59
 899              	.L58:
 213:lvgl\src\lv_widgets/lv_checkbox.c ****     return lv_label_get_text(ext->label);
 900              		.loc 1 213 0 is_stmt 1
 901 0016 2046     		mov	r0, r4
 902 0018 FFF7FEFF 		bl	lv_obj_get_ext_attr
 903              	.LVL135:
 214:lvgl\src\lv_widgets/lv_checkbox.c **** }
 904              		.loc 1 214 0
 905 001c 8068     		ldr	r0, [r0, #8]
 906              	.LVL136:
 907 001e FFF7FEFF 		bl	lv_label_get_text
 908              	.LVL137:
 215:lvgl\src\lv_widgets/lv_checkbox.c **** 
 909              		.loc 1 215 0
ARM GAS  C:\Users\strap\AppData\Local\Temp\ccEauLm2.s 			page 34


 910 0022 10BD     		pop	{r4, pc}
 911              	.LVL138:
 912              	.L62:
 913              		.align	2
 914              	.L61:
 915 0024 0C000000 		.word	.LC1
 916              		.cfi_endproc
 917              	.LFE348:
 918              		.size	lv_checkbox_get_text, .-lv_checkbox_get_text
 919              		.section	.rodata.str1.4,"aMS",%progbits,1
 920              		.align	2
 921              	.LC0:
 922 0000 6C765F63 		.ascii	"lv_checkbox\000"
 922      6865636B 
 922      626F7800 
 923              	.LC1:
 924 000c 4E554C4C 		.ascii	"NULL pointer\000"
 924      20706F69 
 924      6E746572 
 924      00
 925 0019 000000   		.space	3
 926              	.LC2:
 927 001c 4F757420 		.ascii	"Out of memory\000"
 927      6F66206D 
 927      656D6F72 
 927      7900
 928 002a 0000     		.space	2
 929              	.LC3:
 930 002c 43686563 		.ascii	"Check box\000"
 930      6B20626F 
 930      7800
 931              		.bss
 932              		.align	2
 933              		.set	.LANCHOR0,. + 0
 934              		.type	ancestor_signal, %object
 935              		.size	ancestor_signal, 4
 936              	ancestor_signal:
 937 0000 00000000 		.space	4
 938              		.text
 939              	.Letext0:
 940              		.file 6 "c:\\program files (x86)\\cypress\\psoc creator\\4.4\\psoc creator\\import\\gnu\\arm\\5.4.
 941              		.file 7 "c:\\program files (x86)\\cypress\\psoc creator\\4.4\\psoc creator\\import\\gnu\\arm\\5.4.
 942              		.file 8 "lvgl\\src\\lv_widgets\\../../../lv_conf.h"
 943              		.file 9 "lvgl\\src\\lv_widgets\\../lv_core/../lv_font/../lv_misc/lv_types.h"
 944              		.file 10 "lvgl\\src\\lv_widgets\\../lv_core/../lv_font/../lv_misc/lv_area.h"
 945              		.file 11 "lvgl\\src\\lv_widgets\\../lv_core/lv_style.h"
 946              		.file 12 "lvgl\\src\\lv_widgets\\../lv_core/../lv_hal/../lv_misc/lv_ll.h"
 947              		.file 13 "lvgl\\src\\lv_widgets\\../lv_core/lv_obj.h"
 948              		.file 14 "lvgl\\src\\lv_widgets\\../lv_core/../lv_hal/lv_hal_indev.h"
 949              		.file 15 "lvgl\\src\\lv_widgets\\../lv_core/../lv_draw/../lv_misc/lv_bidi.h"
 950              		.file 16 "lvgl\\src\\lv_widgets\\../lv_core/../lv_core/lv_group.h"
 951              		.file 17 "lvgl\\src\\lv_widgets\\lv_label.h"
 952              		.file 18 "lvgl\\src\\lv_widgets\\lv_checkbox.h"
 953              		.file 19 "lvgl\\src\\lv_widgets\\../lv_themes/lv_theme.h"
 954              		.file 20 "lvgl\\src\\lv_widgets\\../lv_core/../lv_misc/lv_debug.h"