ARM GAS  C:\Users\strap\AppData\Local\Temp\cc7wbcEe.s 			page 1


   1              		.syntax unified
   2              		.cpu cortex-m3
   3              		.fpu softvfp
   4              		.eabi_attribute 20, 1
   5              		.eabi_attribute 21, 1
   6              		.eabi_attribute 23, 3
   7              		.eabi_attribute 24, 1
   8              		.eabi_attribute 25, 1
   9              		.eabi_attribute 26, 1
  10              		.eabi_attribute 30, 1
  11              		.eabi_attribute 34, 1
  12              		.eabi_attribute 18, 4
  13              		.thumb
  14              		.syntax unified
  15              		.file	"lv_cont.c"
  16              		.text
  17              	.Ltext0:
  18              		.cfi_sections	.debug_frame
  19              		.section	.text.lv_cont_get_style,"ax",%progbits
  20              		.align	2
  21              		.thumb
  22              		.thumb_func
  23              		.type	lv_cont_get_style, %function
  24              	lv_cont_get_style:
  25              	.LFB339:
  26              		.file 1 "lvgl\\src\\lv_widgets\\lv_cont.c"
   1:lvgl\src\lv_widgets/lv_cont.c **** /**
   2:lvgl\src\lv_widgets/lv_cont.c ****  * @file lv_cont.c
   3:lvgl\src\lv_widgets/lv_cont.c ****  *
   4:lvgl\src\lv_widgets/lv_cont.c ****  */
   5:lvgl\src\lv_widgets/lv_cont.c **** 
   6:lvgl\src\lv_widgets/lv_cont.c **** /*********************
   7:lvgl\src\lv_widgets/lv_cont.c ****  *      INCLUDES
   8:lvgl\src\lv_widgets/lv_cont.c ****  *********************/
   9:lvgl\src\lv_widgets/lv_cont.c **** 
  10:lvgl\src\lv_widgets/lv_cont.c **** #include "lv_cont.h"
  11:lvgl\src\lv_widgets/lv_cont.c **** #if LV_USE_CONT != 0
  12:lvgl\src\lv_widgets/lv_cont.c **** 
  13:lvgl\src\lv_widgets/lv_cont.c **** #include <stdbool.h>
  14:lvgl\src\lv_widgets/lv_cont.c **** #include <stdint.h>
  15:lvgl\src\lv_widgets/lv_cont.c **** #include <string.h>
  16:lvgl\src\lv_widgets/lv_cont.c **** 
  17:lvgl\src\lv_widgets/lv_cont.c **** #include "../lv_misc/lv_debug.h"
  18:lvgl\src\lv_widgets/lv_cont.c **** #include "../lv_draw/lv_draw.h"
  19:lvgl\src\lv_widgets/lv_cont.c **** #include "../lv_draw/lv_draw_mask.h"
  20:lvgl\src\lv_widgets/lv_cont.c **** #include "../lv_themes/lv_theme.h"
  21:lvgl\src\lv_widgets/lv_cont.c **** #include "../lv_misc/lv_area.h"
  22:lvgl\src\lv_widgets/lv_cont.c **** #include "../lv_misc/lv_color.h"
  23:lvgl\src\lv_widgets/lv_cont.c **** #include "../lv_misc/lv_math.h"
  24:lvgl\src\lv_widgets/lv_cont.c **** 
  25:lvgl\src\lv_widgets/lv_cont.c **** /*********************
  26:lvgl\src\lv_widgets/lv_cont.c ****  *      DEFINES
  27:lvgl\src\lv_widgets/lv_cont.c ****  *********************/
  28:lvgl\src\lv_widgets/lv_cont.c **** #define LV_OBJX_NAME "lv_cont"
  29:lvgl\src\lv_widgets/lv_cont.c **** 
  30:lvgl\src\lv_widgets/lv_cont.c **** /**********************
  31:lvgl\src\lv_widgets/lv_cont.c ****  *      TYPEDEFS
ARM GAS  C:\Users\strap\AppData\Local\Temp\cc7wbcEe.s 			page 2


  32:lvgl\src\lv_widgets/lv_cont.c ****  **********************/
  33:lvgl\src\lv_widgets/lv_cont.c **** 
  34:lvgl\src\lv_widgets/lv_cont.c **** /**********************
  35:lvgl\src\lv_widgets/lv_cont.c ****  *  STATIC PROTOTYPES
  36:lvgl\src\lv_widgets/lv_cont.c ****  **********************/
  37:lvgl\src\lv_widgets/lv_cont.c **** static lv_res_t lv_cont_signal(lv_obj_t * cont, lv_signal_t sign, void * param);
  38:lvgl\src\lv_widgets/lv_cont.c **** static lv_style_list_t * lv_cont_get_style(lv_obj_t * cont, uint8_t type);
  39:lvgl\src\lv_widgets/lv_cont.c **** static void lv_cont_refr_layout(lv_obj_t * cont);
  40:lvgl\src\lv_widgets/lv_cont.c **** static void lv_cont_layout_col(lv_obj_t * cont);
  41:lvgl\src\lv_widgets/lv_cont.c **** static void lv_cont_layout_row(lv_obj_t * cont);
  42:lvgl\src\lv_widgets/lv_cont.c **** static void lv_cont_layout_center(lv_obj_t * cont);
  43:lvgl\src\lv_widgets/lv_cont.c **** static void lv_cont_layout_pretty(lv_obj_t * cont);
  44:lvgl\src\lv_widgets/lv_cont.c **** static void lv_cont_layout_grid(lv_obj_t * cont);
  45:lvgl\src\lv_widgets/lv_cont.c **** static void lv_cont_refr_autofit(lv_obj_t * cont);
  46:lvgl\src\lv_widgets/lv_cont.c **** 
  47:lvgl\src\lv_widgets/lv_cont.c **** /**********************
  48:lvgl\src\lv_widgets/lv_cont.c ****  *  STATIC VARIABLES
  49:lvgl\src\lv_widgets/lv_cont.c ****  **********************/
  50:lvgl\src\lv_widgets/lv_cont.c **** static lv_design_cb_t ancestor_design;
  51:lvgl\src\lv_widgets/lv_cont.c **** static lv_signal_cb_t ancestor_signal;
  52:lvgl\src\lv_widgets/lv_cont.c **** 
  53:lvgl\src\lv_widgets/lv_cont.c **** /**********************
  54:lvgl\src\lv_widgets/lv_cont.c ****  *      MACROS
  55:lvgl\src\lv_widgets/lv_cont.c ****  **********************/
  56:lvgl\src\lv_widgets/lv_cont.c **** 
  57:lvgl\src\lv_widgets/lv_cont.c **** /**********************
  58:lvgl\src\lv_widgets/lv_cont.c ****  *   GLOBAL FUNCTIONS
  59:lvgl\src\lv_widgets/lv_cont.c ****  **********************/
  60:lvgl\src\lv_widgets/lv_cont.c **** 
  61:lvgl\src\lv_widgets/lv_cont.c **** /**
  62:lvgl\src\lv_widgets/lv_cont.c ****  * Create a container objects
  63:lvgl\src\lv_widgets/lv_cont.c ****  * @param par pointer to an object, it will be the parent of the new container
  64:lvgl\src\lv_widgets/lv_cont.c ****  * @param copy pointer to a container object, if not NULL then the new object will be copied from i
  65:lvgl\src\lv_widgets/lv_cont.c ****  * @return pointer to the created container
  66:lvgl\src\lv_widgets/lv_cont.c ****  */
  67:lvgl\src\lv_widgets/lv_cont.c **** lv_obj_t * lv_cont_create(lv_obj_t * par, const lv_obj_t * copy)
  68:lvgl\src\lv_widgets/lv_cont.c **** {
  69:lvgl\src\lv_widgets/lv_cont.c **** 
  70:lvgl\src\lv_widgets/lv_cont.c ****     LV_LOG_TRACE("container create started");
  71:lvgl\src\lv_widgets/lv_cont.c **** 
  72:lvgl\src\lv_widgets/lv_cont.c ****     /*Create a basic object*/
  73:lvgl\src\lv_widgets/lv_cont.c ****     lv_obj_t * cont = lv_obj_create(par, copy);
  74:lvgl\src\lv_widgets/lv_cont.c ****     LV_ASSERT_MEM(cont);
  75:lvgl\src\lv_widgets/lv_cont.c ****     if(cont == NULL) return NULL;
  76:lvgl\src\lv_widgets/lv_cont.c **** 
  77:lvgl\src\lv_widgets/lv_cont.c ****     if(ancestor_signal == NULL) ancestor_signal = lv_obj_get_signal_cb(cont);
  78:lvgl\src\lv_widgets/lv_cont.c ****     if(ancestor_design == NULL) ancestor_design = lv_obj_get_design_cb(cont);
  79:lvgl\src\lv_widgets/lv_cont.c **** 
  80:lvgl\src\lv_widgets/lv_cont.c ****     lv_obj_allocate_ext_attr(cont, sizeof(lv_cont_ext_t));
  81:lvgl\src\lv_widgets/lv_cont.c ****     lv_cont_ext_t * ext = lv_obj_get_ext_attr(cont);
  82:lvgl\src\lv_widgets/lv_cont.c ****     if(ext == NULL) {
  83:lvgl\src\lv_widgets/lv_cont.c ****         lv_obj_del(cont);
  84:lvgl\src\lv_widgets/lv_cont.c ****         return NULL;
  85:lvgl\src\lv_widgets/lv_cont.c ****     }
  86:lvgl\src\lv_widgets/lv_cont.c **** 
  87:lvgl\src\lv_widgets/lv_cont.c ****     LV_ASSERT_MEM(ext);
  88:lvgl\src\lv_widgets/lv_cont.c ****     ext->fit_left   = LV_FIT_NONE;
ARM GAS  C:\Users\strap\AppData\Local\Temp\cc7wbcEe.s 			page 3


  89:lvgl\src\lv_widgets/lv_cont.c ****     ext->fit_right  = LV_FIT_NONE;
  90:lvgl\src\lv_widgets/lv_cont.c ****     ext->fit_top    = LV_FIT_NONE;
  91:lvgl\src\lv_widgets/lv_cont.c ****     ext->fit_bottom = LV_FIT_NONE;
  92:lvgl\src\lv_widgets/lv_cont.c ****     ext->layout     = LV_LAYOUT_OFF;
  93:lvgl\src\lv_widgets/lv_cont.c **** 
  94:lvgl\src\lv_widgets/lv_cont.c ****     lv_obj_set_signal_cb(cont, lv_cont_signal);
  95:lvgl\src\lv_widgets/lv_cont.c **** 
  96:lvgl\src\lv_widgets/lv_cont.c ****     /*Init the new container*/
  97:lvgl\src\lv_widgets/lv_cont.c ****     if(copy == NULL) {
  98:lvgl\src\lv_widgets/lv_cont.c ****         /*Set the default styles if it's not screen*/
  99:lvgl\src\lv_widgets/lv_cont.c ****         if(par != NULL) {
 100:lvgl\src\lv_widgets/lv_cont.c ****             lv_theme_apply(cont, LV_THEME_CONT);
 101:lvgl\src\lv_widgets/lv_cont.c ****         }
 102:lvgl\src\lv_widgets/lv_cont.c **** 
 103:lvgl\src\lv_widgets/lv_cont.c **** 
 104:lvgl\src\lv_widgets/lv_cont.c ****     }
 105:lvgl\src\lv_widgets/lv_cont.c ****     /*Copy an existing object*/
 106:lvgl\src\lv_widgets/lv_cont.c ****     else {
 107:lvgl\src\lv_widgets/lv_cont.c ****         lv_cont_ext_t * copy_ext = lv_obj_get_ext_attr(copy);
 108:lvgl\src\lv_widgets/lv_cont.c ****         ext->fit_left            = copy_ext->fit_left;
 109:lvgl\src\lv_widgets/lv_cont.c ****         ext->fit_right           = copy_ext->fit_right;
 110:lvgl\src\lv_widgets/lv_cont.c ****         ext->fit_top             = copy_ext->fit_top;
 111:lvgl\src\lv_widgets/lv_cont.c ****         ext->fit_bottom          = copy_ext->fit_bottom;
 112:lvgl\src\lv_widgets/lv_cont.c ****         ext->layout              = copy_ext->layout;
 113:lvgl\src\lv_widgets/lv_cont.c **** 
 114:lvgl\src\lv_widgets/lv_cont.c ****         /*Refresh the style with new signal function*/
 115:lvgl\src\lv_widgets/lv_cont.c ****         lv_obj_refresh_style(cont, LV_OBJ_PART_ALL, LV_STYLE_PROP_ALL);
 116:lvgl\src\lv_widgets/lv_cont.c ****     }
 117:lvgl\src\lv_widgets/lv_cont.c **** 
 118:lvgl\src\lv_widgets/lv_cont.c ****     LV_LOG_INFO("container created");
 119:lvgl\src\lv_widgets/lv_cont.c **** 
 120:lvgl\src\lv_widgets/lv_cont.c ****     return cont;
 121:lvgl\src\lv_widgets/lv_cont.c **** }
 122:lvgl\src\lv_widgets/lv_cont.c **** 
 123:lvgl\src\lv_widgets/lv_cont.c **** /*=====================
 124:lvgl\src\lv_widgets/lv_cont.c ****  * Setter functions
 125:lvgl\src\lv_widgets/lv_cont.c ****  *====================*/
 126:lvgl\src\lv_widgets/lv_cont.c **** 
 127:lvgl\src\lv_widgets/lv_cont.c **** /**
 128:lvgl\src\lv_widgets/lv_cont.c ****  * Set a layout on a container
 129:lvgl\src\lv_widgets/lv_cont.c ****  * @param cont pointer to a container object
 130:lvgl\src\lv_widgets/lv_cont.c ****  * @param layout a layout from 'lv_cont_layout_t'
 131:lvgl\src\lv_widgets/lv_cont.c ****  */
 132:lvgl\src\lv_widgets/lv_cont.c **** void lv_cont_set_layout(lv_obj_t * cont, lv_layout_t layout)
 133:lvgl\src\lv_widgets/lv_cont.c **** {
 134:lvgl\src\lv_widgets/lv_cont.c ****     LV_ASSERT_OBJ(cont, LV_OBJX_NAME);
 135:lvgl\src\lv_widgets/lv_cont.c **** 
 136:lvgl\src\lv_widgets/lv_cont.c ****     lv_cont_ext_t * ext = lv_obj_get_ext_attr(cont);
 137:lvgl\src\lv_widgets/lv_cont.c ****     if(ext->layout == layout) return;
 138:lvgl\src\lv_widgets/lv_cont.c **** 
 139:lvgl\src\lv_widgets/lv_cont.c ****     ext->layout = layout;
 140:lvgl\src\lv_widgets/lv_cont.c **** 
 141:lvgl\src\lv_widgets/lv_cont.c ****     /*Send a signal to refresh the layout*/
 142:lvgl\src\lv_widgets/lv_cont.c ****     cont->signal_cb(cont, LV_SIGNAL_CHILD_CHG, NULL);
 143:lvgl\src\lv_widgets/lv_cont.c **** }
 144:lvgl\src\lv_widgets/lv_cont.c **** 
 145:lvgl\src\lv_widgets/lv_cont.c **** /**
ARM GAS  C:\Users\strap\AppData\Local\Temp\cc7wbcEe.s 			page 4


 146:lvgl\src\lv_widgets/lv_cont.c ****  * Set the fit policy in all 4 directions separately.
 147:lvgl\src\lv_widgets/lv_cont.c ****  * It tell how to change the container's size automatically.
 148:lvgl\src\lv_widgets/lv_cont.c ****  * @param cont pointer to a container object
 149:lvgl\src\lv_widgets/lv_cont.c ****  * @param left left fit policy from `lv_fit_t`
 150:lvgl\src\lv_widgets/lv_cont.c ****  * @param right right fit policy from `lv_fit_t`
 151:lvgl\src\lv_widgets/lv_cont.c ****  * @param top bottom fit policy from `lv_fit_t`
 152:lvgl\src\lv_widgets/lv_cont.c ****  * @param bottom bottom fit policy from `lv_fit_t`
 153:lvgl\src\lv_widgets/lv_cont.c ****  */
 154:lvgl\src\lv_widgets/lv_cont.c **** void lv_cont_set_fit4(lv_obj_t * cont, lv_fit_t left, lv_fit_t right, lv_fit_t top, lv_fit_t bottom
 155:lvgl\src\lv_widgets/lv_cont.c **** {
 156:lvgl\src\lv_widgets/lv_cont.c ****     LV_ASSERT_OBJ(cont, LV_OBJX_NAME);
 157:lvgl\src\lv_widgets/lv_cont.c **** 
 158:lvgl\src\lv_widgets/lv_cont.c ****     lv_obj_invalidate(cont);
 159:lvgl\src\lv_widgets/lv_cont.c ****     lv_cont_ext_t * ext = lv_obj_get_ext_attr(cont);
 160:lvgl\src\lv_widgets/lv_cont.c ****     if(ext->fit_left == left && ext->fit_right == right && ext->fit_top == top && ext->fit_bottom =
 161:lvgl\src\lv_widgets/lv_cont.c ****         return;
 162:lvgl\src\lv_widgets/lv_cont.c ****     }
 163:lvgl\src\lv_widgets/lv_cont.c **** 
 164:lvgl\src\lv_widgets/lv_cont.c ****     ext->fit_left   = left;
 165:lvgl\src\lv_widgets/lv_cont.c ****     ext->fit_right  = right;
 166:lvgl\src\lv_widgets/lv_cont.c ****     ext->fit_top    = top;
 167:lvgl\src\lv_widgets/lv_cont.c ****     ext->fit_bottom = bottom;
 168:lvgl\src\lv_widgets/lv_cont.c **** 
 169:lvgl\src\lv_widgets/lv_cont.c ****     /*Send a signal to refresh the layout*/
 170:lvgl\src\lv_widgets/lv_cont.c ****     cont->signal_cb(cont, LV_SIGNAL_CHILD_CHG, NULL);
 171:lvgl\src\lv_widgets/lv_cont.c **** }
 172:lvgl\src\lv_widgets/lv_cont.c **** 
 173:lvgl\src\lv_widgets/lv_cont.c **** /*=====================
 174:lvgl\src\lv_widgets/lv_cont.c ****  * Getter functions
 175:lvgl\src\lv_widgets/lv_cont.c ****  *====================*/
 176:lvgl\src\lv_widgets/lv_cont.c **** 
 177:lvgl\src\lv_widgets/lv_cont.c **** /**
 178:lvgl\src\lv_widgets/lv_cont.c ****  * Get the layout of a container
 179:lvgl\src\lv_widgets/lv_cont.c ****  * @param cont pointer to container object
 180:lvgl\src\lv_widgets/lv_cont.c ****  * @return the layout from 'lv_cont_layout_t'
 181:lvgl\src\lv_widgets/lv_cont.c ****  */
 182:lvgl\src\lv_widgets/lv_cont.c **** lv_layout_t lv_cont_get_layout(const lv_obj_t * cont)
 183:lvgl\src\lv_widgets/lv_cont.c **** {
 184:lvgl\src\lv_widgets/lv_cont.c ****     LV_ASSERT_OBJ(cont, LV_OBJX_NAME);
 185:lvgl\src\lv_widgets/lv_cont.c **** 
 186:lvgl\src\lv_widgets/lv_cont.c ****     lv_cont_ext_t * ext = lv_obj_get_ext_attr(cont);
 187:lvgl\src\lv_widgets/lv_cont.c ****     return ext->layout;
 188:lvgl\src\lv_widgets/lv_cont.c **** }
 189:lvgl\src\lv_widgets/lv_cont.c **** 
 190:lvgl\src\lv_widgets/lv_cont.c **** /**
 191:lvgl\src\lv_widgets/lv_cont.c ****  * Get left fit mode of a container
 192:lvgl\src\lv_widgets/lv_cont.c ****  * @param cont pointer to a container object
 193:lvgl\src\lv_widgets/lv_cont.c ****  * @return an element of `lv_fit_t`
 194:lvgl\src\lv_widgets/lv_cont.c ****  */
 195:lvgl\src\lv_widgets/lv_cont.c **** lv_fit_t lv_cont_get_fit_left(const lv_obj_t * cont)
 196:lvgl\src\lv_widgets/lv_cont.c **** {
 197:lvgl\src\lv_widgets/lv_cont.c ****     LV_ASSERT_OBJ(cont, LV_OBJX_NAME);
 198:lvgl\src\lv_widgets/lv_cont.c **** 
 199:lvgl\src\lv_widgets/lv_cont.c ****     lv_cont_ext_t * ext = lv_obj_get_ext_attr(cont);
 200:lvgl\src\lv_widgets/lv_cont.c ****     return ext->fit_left;
 201:lvgl\src\lv_widgets/lv_cont.c **** }
 202:lvgl\src\lv_widgets/lv_cont.c **** 
ARM GAS  C:\Users\strap\AppData\Local\Temp\cc7wbcEe.s 			page 5


 203:lvgl\src\lv_widgets/lv_cont.c **** /**
 204:lvgl\src\lv_widgets/lv_cont.c ****  * Get right fit mode of a container
 205:lvgl\src\lv_widgets/lv_cont.c ****  * @param cont pointer to a container object
 206:lvgl\src\lv_widgets/lv_cont.c ****  * @return an element of `lv_fit_t`
 207:lvgl\src\lv_widgets/lv_cont.c ****  */
 208:lvgl\src\lv_widgets/lv_cont.c **** lv_fit_t lv_cont_get_fit_right(const lv_obj_t * cont)
 209:lvgl\src\lv_widgets/lv_cont.c **** {
 210:lvgl\src\lv_widgets/lv_cont.c ****     LV_ASSERT_OBJ(cont, LV_OBJX_NAME);
 211:lvgl\src\lv_widgets/lv_cont.c **** 
 212:lvgl\src\lv_widgets/lv_cont.c ****     lv_cont_ext_t * ext = lv_obj_get_ext_attr(cont);
 213:lvgl\src\lv_widgets/lv_cont.c ****     return ext->fit_right;
 214:lvgl\src\lv_widgets/lv_cont.c **** }
 215:lvgl\src\lv_widgets/lv_cont.c **** 
 216:lvgl\src\lv_widgets/lv_cont.c **** /**
 217:lvgl\src\lv_widgets/lv_cont.c ****  * Get top fit mode of a container
 218:lvgl\src\lv_widgets/lv_cont.c ****  * @param cont pointer to a container object
 219:lvgl\src\lv_widgets/lv_cont.c ****  * @return an element of `lv_fit_t`
 220:lvgl\src\lv_widgets/lv_cont.c ****  */
 221:lvgl\src\lv_widgets/lv_cont.c **** lv_fit_t lv_cont_get_fit_top(const lv_obj_t * cont)
 222:lvgl\src\lv_widgets/lv_cont.c **** {
 223:lvgl\src\lv_widgets/lv_cont.c ****     LV_ASSERT_OBJ(cont, LV_OBJX_NAME);
 224:lvgl\src\lv_widgets/lv_cont.c **** 
 225:lvgl\src\lv_widgets/lv_cont.c ****     lv_cont_ext_t * ext = lv_obj_get_ext_attr(cont);
 226:lvgl\src\lv_widgets/lv_cont.c ****     return ext->fit_top;
 227:lvgl\src\lv_widgets/lv_cont.c **** }
 228:lvgl\src\lv_widgets/lv_cont.c **** 
 229:lvgl\src\lv_widgets/lv_cont.c **** /**
 230:lvgl\src\lv_widgets/lv_cont.c ****  * Get bottom fit mode of a container
 231:lvgl\src\lv_widgets/lv_cont.c ****  * @param cont pointer to a container object
 232:lvgl\src\lv_widgets/lv_cont.c ****  * @return an element of `lv_fit_t`
 233:lvgl\src\lv_widgets/lv_cont.c ****  */
 234:lvgl\src\lv_widgets/lv_cont.c **** lv_fit_t lv_cont_get_fit_bottom(const lv_obj_t * cont)
 235:lvgl\src\lv_widgets/lv_cont.c **** {
 236:lvgl\src\lv_widgets/lv_cont.c ****     LV_ASSERT_OBJ(cont, LV_OBJX_NAME);
 237:lvgl\src\lv_widgets/lv_cont.c **** 
 238:lvgl\src\lv_widgets/lv_cont.c ****     lv_cont_ext_t * ext = lv_obj_get_ext_attr(cont);
 239:lvgl\src\lv_widgets/lv_cont.c ****     return ext->fit_bottom;
 240:lvgl\src\lv_widgets/lv_cont.c **** }
 241:lvgl\src\lv_widgets/lv_cont.c **** 
 242:lvgl\src\lv_widgets/lv_cont.c **** /**********************
 243:lvgl\src\lv_widgets/lv_cont.c ****  *   STATIC FUNCTIONS
 244:lvgl\src\lv_widgets/lv_cont.c ****  **********************/
 245:lvgl\src\lv_widgets/lv_cont.c **** 
 246:lvgl\src\lv_widgets/lv_cont.c **** /**
 247:lvgl\src\lv_widgets/lv_cont.c ****  * Signal function of the container
 248:lvgl\src\lv_widgets/lv_cont.c ****  * @param cont pointer to a container object
 249:lvgl\src\lv_widgets/lv_cont.c ****  * @param sign a signal type from lv_signal_t enum
 250:lvgl\src\lv_widgets/lv_cont.c ****  * @param param pointer to a signal specific variable
 251:lvgl\src\lv_widgets/lv_cont.c ****  * @return LV_RES_OK: the object is not deleted in the function; LV_RES_INV: the object is deleted
 252:lvgl\src\lv_widgets/lv_cont.c ****  */
 253:lvgl\src\lv_widgets/lv_cont.c **** static lv_res_t lv_cont_signal(lv_obj_t * cont, lv_signal_t sign, void * param)
 254:lvgl\src\lv_widgets/lv_cont.c **** {
 255:lvgl\src\lv_widgets/lv_cont.c ****     if(sign == LV_SIGNAL_GET_STYLE) {
 256:lvgl\src\lv_widgets/lv_cont.c ****         lv_get_style_info_t * info = param;
 257:lvgl\src\lv_widgets/lv_cont.c ****         info->result = lv_cont_get_style(cont, info->part);
 258:lvgl\src\lv_widgets/lv_cont.c ****         if(info->result != NULL) return LV_RES_OK;
 259:lvgl\src\lv_widgets/lv_cont.c ****         else return ancestor_signal(cont, sign, param);
ARM GAS  C:\Users\strap\AppData\Local\Temp\cc7wbcEe.s 			page 6


 260:lvgl\src\lv_widgets/lv_cont.c ****     }
 261:lvgl\src\lv_widgets/lv_cont.c **** 
 262:lvgl\src\lv_widgets/lv_cont.c ****     lv_res_t res;
 263:lvgl\src\lv_widgets/lv_cont.c **** 
 264:lvgl\src\lv_widgets/lv_cont.c ****     /* Include the ancient signal function */
 265:lvgl\src\lv_widgets/lv_cont.c ****     res = ancestor_signal(cont, sign, param);
 266:lvgl\src\lv_widgets/lv_cont.c ****     if(res != LV_RES_OK) return res;
 267:lvgl\src\lv_widgets/lv_cont.c ****     if(sign == LV_SIGNAL_GET_TYPE) return lv_obj_handle_get_type_signal(param, LV_OBJX_NAME);
 268:lvgl\src\lv_widgets/lv_cont.c **** 
 269:lvgl\src\lv_widgets/lv_cont.c ****     if(sign == LV_SIGNAL_STYLE_CHG) { /*Recalculate the padding if the style changed*/
 270:lvgl\src\lv_widgets/lv_cont.c ****         lv_cont_refr_layout(cont);
 271:lvgl\src\lv_widgets/lv_cont.c ****         lv_cont_refr_autofit(cont);
 272:lvgl\src\lv_widgets/lv_cont.c ****     }
 273:lvgl\src\lv_widgets/lv_cont.c ****     else if(sign == LV_SIGNAL_CHILD_CHG) {
 274:lvgl\src\lv_widgets/lv_cont.c ****         lv_cont_refr_layout(cont);
 275:lvgl\src\lv_widgets/lv_cont.c ****         lv_cont_refr_autofit(cont);
 276:lvgl\src\lv_widgets/lv_cont.c ****     }
 277:lvgl\src\lv_widgets/lv_cont.c ****     else if(sign == LV_SIGNAL_COORD_CHG) {
 278:lvgl\src\lv_widgets/lv_cont.c ****         if(lv_obj_get_width(cont) != lv_area_get_width(param) || lv_obj_get_height(cont) != lv_area
 279:lvgl\src\lv_widgets/lv_cont.c ****             lv_cont_refr_layout(cont);
 280:lvgl\src\lv_widgets/lv_cont.c ****             lv_cont_refr_autofit(cont);
 281:lvgl\src\lv_widgets/lv_cont.c ****         }
 282:lvgl\src\lv_widgets/lv_cont.c ****     }
 283:lvgl\src\lv_widgets/lv_cont.c ****     else if(sign == LV_SIGNAL_PARENT_SIZE_CHG) {
 284:lvgl\src\lv_widgets/lv_cont.c ****         /*MAX and EDGE fit needs to be refreshed if the parent's size has changed*/
 285:lvgl\src\lv_widgets/lv_cont.c ****         lv_cont_refr_autofit(cont);
 286:lvgl\src\lv_widgets/lv_cont.c ****     }
 287:lvgl\src\lv_widgets/lv_cont.c **** 
 288:lvgl\src\lv_widgets/lv_cont.c ****     return res;
 289:lvgl\src\lv_widgets/lv_cont.c **** }
 290:lvgl\src\lv_widgets/lv_cont.c **** 
 291:lvgl\src\lv_widgets/lv_cont.c **** 
 292:lvgl\src\lv_widgets/lv_cont.c **** static lv_style_list_t * lv_cont_get_style(lv_obj_t * cont, uint8_t type)
 293:lvgl\src\lv_widgets/lv_cont.c **** {
  27              		.loc 1 293 0
  28              		.cfi_startproc
  29              		@ args = 0, pretend = 0, frame = 0
  30              		@ frame_needed = 0, uses_anonymous_args = 0
  31              		@ link register save eliminated.
  32              	.LVL0:
 294:lvgl\src\lv_widgets/lv_cont.c ****     lv_style_list_t * style_dsc_p;
 295:lvgl\src\lv_widgets/lv_cont.c ****     switch(type) {
  33              		.loc 1 295 0
  34 0000 09B9     		cbnz	r1, .L5
 296:lvgl\src\lv_widgets/lv_cont.c ****         case LV_CONT_PART_MAIN:
 297:lvgl\src\lv_widgets/lv_cont.c ****             style_dsc_p = &cont->style_list;
  35              		.loc 1 297 0
  36 0002 2830     		adds	r0, r0, #40
  37              	.LVL1:
 298:lvgl\src\lv_widgets/lv_cont.c ****             break;
  38              		.loc 1 298 0
  39 0004 7047     		bx	lr
  40              	.LVL2:
  41              	.L5:
 299:lvgl\src\lv_widgets/lv_cont.c ****         default:
 300:lvgl\src\lv_widgets/lv_cont.c ****             style_dsc_p = NULL;
  42              		.loc 1 300 0
ARM GAS  C:\Users\strap\AppData\Local\Temp\cc7wbcEe.s 			page 7


  43 0006 0020     		movs	r0, #0
  44              	.LVL3:
 301:lvgl\src\lv_widgets/lv_cont.c ****     }
 302:lvgl\src\lv_widgets/lv_cont.c **** 
 303:lvgl\src\lv_widgets/lv_cont.c ****     return style_dsc_p;
 304:lvgl\src\lv_widgets/lv_cont.c **** }
  45              		.loc 1 304 0
  46 0008 7047     		bx	lr
  47              		.cfi_endproc
  48              	.LFE339:
  49              		.size	lv_cont_get_style, .-lv_cont_get_style
  50 000a 00BF     		.section	.text.lv_cont_layout_center,"ax",%progbits
  51              		.align	2
  52              		.thumb
  53              		.thumb_func
  54              		.type	lv_cont_layout_center, %function
  55              	lv_cont_layout_center:
  56              	.LFB343:
 305:lvgl\src\lv_widgets/lv_cont.c **** 
 306:lvgl\src\lv_widgets/lv_cont.c **** /**
 307:lvgl\src\lv_widgets/lv_cont.c ****  * Refresh the layout of a container
 308:lvgl\src\lv_widgets/lv_cont.c ****  * @param cont pointer to an object which layout should be refreshed
 309:lvgl\src\lv_widgets/lv_cont.c ****  */
 310:lvgl\src\lv_widgets/lv_cont.c **** static void lv_cont_refr_layout(lv_obj_t * cont)
 311:lvgl\src\lv_widgets/lv_cont.c **** {
 312:lvgl\src\lv_widgets/lv_cont.c ****     if(lv_obj_is_protected(cont, LV_PROTECT_CHILD_CHG)) return;
 313:lvgl\src\lv_widgets/lv_cont.c ****     lv_layout_t type = lv_cont_get_layout(cont);
 314:lvgl\src\lv_widgets/lv_cont.c **** 
 315:lvgl\src\lv_widgets/lv_cont.c ****     /*'cont' has to be at least 1 child*/
 316:lvgl\src\lv_widgets/lv_cont.c ****     if(lv_obj_get_child(cont, NULL) == NULL) return;
 317:lvgl\src\lv_widgets/lv_cont.c **** 
 318:lvgl\src\lv_widgets/lv_cont.c ****     if(type == LV_LAYOUT_OFF) return;
 319:lvgl\src\lv_widgets/lv_cont.c **** 
 320:lvgl\src\lv_widgets/lv_cont.c ****     if(type == LV_LAYOUT_CENTER) {
 321:lvgl\src\lv_widgets/lv_cont.c ****         lv_cont_layout_center(cont);
 322:lvgl\src\lv_widgets/lv_cont.c ****     }
 323:lvgl\src\lv_widgets/lv_cont.c ****     else if(type == LV_LAYOUT_COLUMN_LEFT || type == LV_LAYOUT_COLUMN_MID || type == LV_LAYOUT_COLU
 324:lvgl\src\lv_widgets/lv_cont.c ****         lv_cont_layout_col(cont);
 325:lvgl\src\lv_widgets/lv_cont.c ****     }
 326:lvgl\src\lv_widgets/lv_cont.c ****     else if(type == LV_LAYOUT_ROW_TOP || type == LV_LAYOUT_ROW_MID || type == LV_LAYOUT_ROW_BOTTOM)
 327:lvgl\src\lv_widgets/lv_cont.c ****         lv_cont_layout_row(cont);
 328:lvgl\src\lv_widgets/lv_cont.c ****     }
 329:lvgl\src\lv_widgets/lv_cont.c ****     else if(type == LV_LAYOUT_PRETTY_MID || type == LV_LAYOUT_PRETTY_TOP || type == LV_LAYOUT_PRETT
 330:lvgl\src\lv_widgets/lv_cont.c ****         lv_cont_layout_pretty(cont);
 331:lvgl\src\lv_widgets/lv_cont.c ****     }
 332:lvgl\src\lv_widgets/lv_cont.c ****     else if(type == LV_LAYOUT_GRID) {
 333:lvgl\src\lv_widgets/lv_cont.c ****         lv_cont_layout_grid(cont);
 334:lvgl\src\lv_widgets/lv_cont.c ****     }
 335:lvgl\src\lv_widgets/lv_cont.c **** }
 336:lvgl\src\lv_widgets/lv_cont.c **** 
 337:lvgl\src\lv_widgets/lv_cont.c **** /**
 338:lvgl\src\lv_widgets/lv_cont.c ****  * Handle column type layouts
 339:lvgl\src\lv_widgets/lv_cont.c ****  * @param cont pointer to an object which layout should be handled
 340:lvgl\src\lv_widgets/lv_cont.c ****  */
 341:lvgl\src\lv_widgets/lv_cont.c **** static void lv_cont_layout_col(lv_obj_t * cont)
 342:lvgl\src\lv_widgets/lv_cont.c **** {
 343:lvgl\src\lv_widgets/lv_cont.c ****     lv_coord_t left = lv_obj_get_style_pad_left(cont, LV_CONT_PART_MAIN);
ARM GAS  C:\Users\strap\AppData\Local\Temp\cc7wbcEe.s 			page 8


 344:lvgl\src\lv_widgets/lv_cont.c ****     lv_coord_t right = lv_obj_get_style_pad_right(cont, LV_CONT_PART_MAIN);
 345:lvgl\src\lv_widgets/lv_cont.c ****     lv_coord_t top = lv_obj_get_style_pad_top(cont, LV_CONT_PART_MAIN);
 346:lvgl\src\lv_widgets/lv_cont.c ****     lv_coord_t inner = lv_obj_get_style_pad_inner(cont, LV_CONT_PART_MAIN);
 347:lvgl\src\lv_widgets/lv_cont.c **** 
 348:lvgl\src\lv_widgets/lv_cont.c ****     lv_layout_t type = lv_cont_get_layout(cont);
 349:lvgl\src\lv_widgets/lv_cont.c ****     lv_obj_t * child;
 350:lvgl\src\lv_widgets/lv_cont.c **** 
 351:lvgl\src\lv_widgets/lv_cont.c ****     /*Adjust margin and get the alignment type*/
 352:lvgl\src\lv_widgets/lv_cont.c ****     lv_align_t align;
 353:lvgl\src\lv_widgets/lv_cont.c ****     lv_coord_t hpad_corr;
 354:lvgl\src\lv_widgets/lv_cont.c **** 
 355:lvgl\src\lv_widgets/lv_cont.c ****     switch(type) {
 356:lvgl\src\lv_widgets/lv_cont.c ****         case LV_LAYOUT_COLUMN_LEFT:
 357:lvgl\src\lv_widgets/lv_cont.c ****             hpad_corr = left;
 358:lvgl\src\lv_widgets/lv_cont.c ****             align     = LV_ALIGN_IN_TOP_LEFT;
 359:lvgl\src\lv_widgets/lv_cont.c ****             break;
 360:lvgl\src\lv_widgets/lv_cont.c ****         case LV_LAYOUT_COLUMN_MID:
 361:lvgl\src\lv_widgets/lv_cont.c ****             hpad_corr = 0;
 362:lvgl\src\lv_widgets/lv_cont.c ****             align     = LV_ALIGN_IN_TOP_MID;
 363:lvgl\src\lv_widgets/lv_cont.c ****             break;
 364:lvgl\src\lv_widgets/lv_cont.c ****         case LV_LAYOUT_COLUMN_RIGHT:
 365:lvgl\src\lv_widgets/lv_cont.c ****             hpad_corr = -right;
 366:lvgl\src\lv_widgets/lv_cont.c ****             align     = LV_ALIGN_IN_TOP_RIGHT;
 367:lvgl\src\lv_widgets/lv_cont.c ****             break;
 368:lvgl\src\lv_widgets/lv_cont.c ****         default:
 369:lvgl\src\lv_widgets/lv_cont.c ****             hpad_corr = 0;
 370:lvgl\src\lv_widgets/lv_cont.c ****             align     = LV_ALIGN_IN_TOP_LEFT;
 371:lvgl\src\lv_widgets/lv_cont.c ****             break;
 372:lvgl\src\lv_widgets/lv_cont.c ****     }
 373:lvgl\src\lv_widgets/lv_cont.c **** 
 374:lvgl\src\lv_widgets/lv_cont.c ****     /* Disable child change action because the children will be moved a lot
 375:lvgl\src\lv_widgets/lv_cont.c ****      * an unnecessary child change signals could be sent*/
 376:lvgl\src\lv_widgets/lv_cont.c ****     lv_obj_add_protect(cont, LV_PROTECT_CHILD_CHG);
 377:lvgl\src\lv_widgets/lv_cont.c ****     /* Align the children */
 378:lvgl\src\lv_widgets/lv_cont.c ****     lv_coord_t last_cord = top;
 379:lvgl\src\lv_widgets/lv_cont.c ****     _LV_LL_READ_BACK(cont->child_ll, child) {
 380:lvgl\src\lv_widgets/lv_cont.c ****         if(lv_obj_get_hidden(child) != false || lv_obj_is_protected(child, LV_PROTECT_POS) != false
 381:lvgl\src\lv_widgets/lv_cont.c ****         lv_style_int_t mtop = lv_obj_get_style_margin_top(child, LV_OBJ_PART_MAIN);
 382:lvgl\src\lv_widgets/lv_cont.c ****         lv_style_int_t mbottom = lv_obj_get_style_margin_bottom(child, LV_OBJ_PART_MAIN);
 383:lvgl\src\lv_widgets/lv_cont.c ****         lv_style_int_t mleft = lv_obj_get_style_margin_left(child, LV_OBJ_PART_MAIN);
 384:lvgl\src\lv_widgets/lv_cont.c ****         lv_obj_align(child, cont, align, hpad_corr + mleft, last_cord + mtop);
 385:lvgl\src\lv_widgets/lv_cont.c ****         last_cord += lv_obj_get_height(child) + inner + mtop + mbottom;
 386:lvgl\src\lv_widgets/lv_cont.c ****     }
 387:lvgl\src\lv_widgets/lv_cont.c **** 
 388:lvgl\src\lv_widgets/lv_cont.c ****     lv_obj_clear_protect(cont, LV_PROTECT_CHILD_CHG);
 389:lvgl\src\lv_widgets/lv_cont.c **** }
 390:lvgl\src\lv_widgets/lv_cont.c **** 
 391:lvgl\src\lv_widgets/lv_cont.c **** /**
 392:lvgl\src\lv_widgets/lv_cont.c ****  * Handle row type layouts
 393:lvgl\src\lv_widgets/lv_cont.c ****  * @param cont pointer to an object which layout should be handled
 394:lvgl\src\lv_widgets/lv_cont.c ****  */
 395:lvgl\src\lv_widgets/lv_cont.c **** static void lv_cont_layout_row(lv_obj_t * cont)
 396:lvgl\src\lv_widgets/lv_cont.c **** {
 397:lvgl\src\lv_widgets/lv_cont.c **** 
 398:lvgl\src\lv_widgets/lv_cont.c ****     lv_layout_t type = lv_cont_get_layout(cont);
 399:lvgl\src\lv_widgets/lv_cont.c ****     lv_obj_t * child;
 400:lvgl\src\lv_widgets/lv_cont.c **** 
ARM GAS  C:\Users\strap\AppData\Local\Temp\cc7wbcEe.s 			page 9


 401:lvgl\src\lv_widgets/lv_cont.c ****     /*Adjust margin and get the alignment type*/
 402:lvgl\src\lv_widgets/lv_cont.c ****     lv_align_t align;
 403:lvgl\src\lv_widgets/lv_cont.c ****     lv_coord_t vpad_corr;
 404:lvgl\src\lv_widgets/lv_cont.c ****     lv_bidi_dir_t base_dir = lv_obj_get_base_dir(cont);
 405:lvgl\src\lv_widgets/lv_cont.c ****     switch(type) {
 406:lvgl\src\lv_widgets/lv_cont.c ****         case LV_LAYOUT_ROW_TOP:
 407:lvgl\src\lv_widgets/lv_cont.c ****             vpad_corr = lv_obj_get_style_pad_top(cont, LV_CONT_PART_MAIN);
 408:lvgl\src\lv_widgets/lv_cont.c ****             align     = base_dir == LV_BIDI_DIR_RTL ? LV_ALIGN_IN_TOP_RIGHT : LV_ALIGN_IN_TOP_LEFT;
 409:lvgl\src\lv_widgets/lv_cont.c ****             break;
 410:lvgl\src\lv_widgets/lv_cont.c ****         case LV_LAYOUT_ROW_MID:
 411:lvgl\src\lv_widgets/lv_cont.c ****             vpad_corr = 0;
 412:lvgl\src\lv_widgets/lv_cont.c ****             align     = base_dir == LV_BIDI_DIR_RTL ? LV_ALIGN_IN_RIGHT_MID : LV_ALIGN_IN_LEFT_MID;
 413:lvgl\src\lv_widgets/lv_cont.c ****             break;
 414:lvgl\src\lv_widgets/lv_cont.c ****         case LV_LAYOUT_ROW_BOTTOM:
 415:lvgl\src\lv_widgets/lv_cont.c ****             vpad_corr = -lv_obj_get_style_pad_bottom(cont, LV_CONT_PART_MAIN);
 416:lvgl\src\lv_widgets/lv_cont.c ****             align     = base_dir == LV_BIDI_DIR_RTL ? LV_ALIGN_IN_BOTTOM_RIGHT : LV_ALIGN_IN_BOTTOM
 417:lvgl\src\lv_widgets/lv_cont.c ****             break;
 418:lvgl\src\lv_widgets/lv_cont.c ****         default:
 419:lvgl\src\lv_widgets/lv_cont.c ****             vpad_corr = 0;
 420:lvgl\src\lv_widgets/lv_cont.c ****             align     = base_dir == LV_BIDI_DIR_RTL ? LV_ALIGN_IN_TOP_RIGHT : LV_ALIGN_IN_TOP_LEFT;
 421:lvgl\src\lv_widgets/lv_cont.c ****             break;
 422:lvgl\src\lv_widgets/lv_cont.c ****     }
 423:lvgl\src\lv_widgets/lv_cont.c **** 
 424:lvgl\src\lv_widgets/lv_cont.c ****     /* Disable child change action because the children will be moved a lot
 425:lvgl\src\lv_widgets/lv_cont.c ****      * an unnecessary child change signals could be sent*/
 426:lvgl\src\lv_widgets/lv_cont.c ****     lv_obj_add_protect(cont, LV_PROTECT_CHILD_CHG);
 427:lvgl\src\lv_widgets/lv_cont.c **** 
 428:lvgl\src\lv_widgets/lv_cont.c ****     /* Align the children */
 429:lvgl\src\lv_widgets/lv_cont.c ****     lv_coord_t last_cord;
 430:lvgl\src\lv_widgets/lv_cont.c ****     if(base_dir == LV_BIDI_DIR_RTL) last_cord = lv_obj_get_style_pad_right(cont, LV_CONT_PART_MAIN)
 431:lvgl\src\lv_widgets/lv_cont.c ****     else last_cord = lv_obj_get_style_pad_left(cont, LV_CONT_PART_MAIN);
 432:lvgl\src\lv_widgets/lv_cont.c **** 
 433:lvgl\src\lv_widgets/lv_cont.c ****     lv_coord_t inner = lv_obj_get_style_pad_inner(cont, LV_CONT_PART_MAIN);
 434:lvgl\src\lv_widgets/lv_cont.c **** 
 435:lvgl\src\lv_widgets/lv_cont.c ****     _LV_LL_READ_BACK(cont->child_ll, child) {
 436:lvgl\src\lv_widgets/lv_cont.c ****         if(lv_obj_get_hidden(child) != false || lv_obj_is_protected(child, LV_PROTECT_POS) != false
 437:lvgl\src\lv_widgets/lv_cont.c **** 
 438:lvgl\src\lv_widgets/lv_cont.c ****         if(base_dir == LV_BIDI_DIR_RTL) lv_obj_align(child, cont, align, -last_cord, vpad_corr);
 439:lvgl\src\lv_widgets/lv_cont.c ****         else lv_obj_align(child, cont, align, last_cord, vpad_corr);
 440:lvgl\src\lv_widgets/lv_cont.c **** 
 441:lvgl\src\lv_widgets/lv_cont.c ****         last_cord += lv_obj_get_width(child) + inner;
 442:lvgl\src\lv_widgets/lv_cont.c ****     }
 443:lvgl\src\lv_widgets/lv_cont.c **** 
 444:lvgl\src\lv_widgets/lv_cont.c ****     lv_obj_clear_protect(cont, LV_PROTECT_CHILD_CHG);
 445:lvgl\src\lv_widgets/lv_cont.c **** }
 446:lvgl\src\lv_widgets/lv_cont.c **** 
 447:lvgl\src\lv_widgets/lv_cont.c **** /**
 448:lvgl\src\lv_widgets/lv_cont.c ****  * Handle the center layout
 449:lvgl\src\lv_widgets/lv_cont.c ****  * @param cont pointer to an object which layout should be handled
 450:lvgl\src\lv_widgets/lv_cont.c ****  */
 451:lvgl\src\lv_widgets/lv_cont.c **** static void lv_cont_layout_center(lv_obj_t * cont)
 452:lvgl\src\lv_widgets/lv_cont.c **** {
  57              		.loc 1 452 0
  58              		.cfi_startproc
  59              		@ args = 0, pretend = 0, frame = 0
  60              		@ frame_needed = 0, uses_anonymous_args = 0
  61              	.LVL4:
ARM GAS  C:\Users\strap\AppData\Local\Temp\cc7wbcEe.s 			page 10


  62 0000 2DE9F043 		push	{r4, r5, r6, r7, r8, r9, lr}
  63              		.cfi_def_cfa_offset 28
  64              		.cfi_offset 4, -28
  65              		.cfi_offset 5, -24
  66              		.cfi_offset 6, -20
  67              		.cfi_offset 7, -16
  68              		.cfi_offset 8, -12
  69              		.cfi_offset 9, -8
  70              		.cfi_offset 14, -4
  71 0004 83B0     		sub	sp, sp, #12
  72              		.cfi_def_cfa_offset 40
  73 0006 0746     		mov	r7, r0
  74              	.LVL5:
  75              	.LBB118:
  76              	.LBB119:
  77              		.file 2 "lvgl\\src\\lv_widgets\\../lv_core/lv_obj_style_dec.h"
   1:lvgl\src\lv_widgets\../lv_core/lv_obj_style_dec.h **** 
   2:lvgl\src\lv_widgets\../lv_core/lv_obj_style_dec.h **** /**
   3:lvgl\src\lv_widgets\../lv_core/lv_obj_style_dec.h ****  * @file lv_obj_style_dec.h
   4:lvgl\src\lv_widgets\../lv_core/lv_obj_style_dec.h ****  *
   5:lvgl\src\lv_widgets\../lv_core/lv_obj_style_dec.h ****  */
   6:lvgl\src\lv_widgets\../lv_core/lv_obj_style_dec.h **** 
   7:lvgl\src\lv_widgets\../lv_core/lv_obj_style_dec.h **** #ifndef LV_OBJ_STYLE_DEC_H
   8:lvgl\src\lv_widgets\../lv_core/lv_obj_style_dec.h **** #define LV_OBJ_STYLE_DEC_H
   9:lvgl\src\lv_widgets\../lv_core/lv_obj_style_dec.h **** 
  10:lvgl\src\lv_widgets\../lv_core/lv_obj_style_dec.h **** #ifdef __cplusplus
  11:lvgl\src\lv_widgets\../lv_core/lv_obj_style_dec.h **** extern "C" {
  12:lvgl\src\lv_widgets\../lv_core/lv_obj_style_dec.h **** #endif
  13:lvgl\src\lv_widgets\../lv_core/lv_obj_style_dec.h **** 
  14:lvgl\src\lv_widgets\../lv_core/lv_obj_style_dec.h **** /*********************
  15:lvgl\src\lv_widgets\../lv_core/lv_obj_style_dec.h ****  *      DEFINES
  16:lvgl\src\lv_widgets\../lv_core/lv_obj_style_dec.h ****  *********************/
  17:lvgl\src\lv_widgets\../lv_core/lv_obj_style_dec.h **** 
  18:lvgl\src\lv_widgets\../lv_core/lv_obj_style_dec.h **** /**
  19:lvgl\src\lv_widgets\../lv_core/lv_obj_style_dec.h ****  * Macro to declare the most important style set/get API functions.
  20:lvgl\src\lv_widgets\../lv_core/lv_obj_style_dec.h ****  *
  21:lvgl\src\lv_widgets\../lv_core/lv_obj_style_dec.h ****  * Get the value of a style property from an object in the object's current state
  22:lvgl\src\lv_widgets\../lv_core/lv_obj_style_dec.h ****  * -----------------------------------------------------------------------------
  23:lvgl\src\lv_widgets\../lv_core/lv_obj_style_dec.h ****  *  - Get the value of a style property from an object in the object's current state.
  24:lvgl\src\lv_widgets\../lv_core/lv_obj_style_dec.h ****  *  - Transition animation is taken into account.
  25:lvgl\src\lv_widgets\../lv_core/lv_obj_style_dec.h ****  *  - If the property is not set in the object's styles check the parent(s) if the property can be 
  26:lvgl\src\lv_widgets\../lv_core/lv_obj_style_dec.h ****  *  - If still not found return a default value.
  27:lvgl\src\lv_widgets\../lv_core/lv_obj_style_dec.h ****  *  - For example:
  28:lvgl\src\lv_widgets\../lv_core/lv_obj_style_dec.h ****  *      `lv_style_int_t w = lv_obj_get_style_border_width(btn1, LV_BTN_PART_MAIN);`
  29:lvgl\src\lv_widgets\../lv_core/lv_obj_style_dec.h ****  *
  30:lvgl\src\lv_widgets\../lv_core/lv_obj_style_dec.h ****  * Set a local style property for an object in a given state
  31:lvgl\src\lv_widgets\../lv_core/lv_obj_style_dec.h ****  * ---------------------------------------------------------
  32:lvgl\src\lv_widgets\../lv_core/lv_obj_style_dec.h ****  *  - For example:
  33:lvgl\src\lv_widgets\../lv_core/lv_obj_style_dec.h ****  *      `lv_obj_set_style_local_border_width(btn1, LV_BTN_PART_MAIN, LV_STATE_PRESSED, 2);`
  34:lvgl\src\lv_widgets\../lv_core/lv_obj_style_dec.h ****  *
  35:lvgl\src\lv_widgets\../lv_core/lv_obj_style_dec.h ****  * Get a local style property's value of an object in a given state
  36:lvgl\src\lv_widgets\../lv_core/lv_obj_style_dec.h ****  * ----------------------------------------------------------------
  37:lvgl\src\lv_widgets\../lv_core/lv_obj_style_dec.h ****  *  - Return the best matching property in the given state.
  38:lvgl\src\lv_widgets\../lv_core/lv_obj_style_dec.h ****  *  - E.g. if `state` parameter is LV_STATE_PRESSED | LV_STATE_CHECKED` but the property defined on
  39:lvgl\src\lv_widgets\../lv_core/lv_obj_style_dec.h ****  *    `LV_STATE_PRESSED` and `LV_STATE_DEFAULT` the best matching state is `LV_STATE_PRESSED`
  40:lvgl\src\lv_widgets\../lv_core/lv_obj_style_dec.h ****  *    (because it has higher precedence) and it will be returned.
  41:lvgl\src\lv_widgets\../lv_core/lv_obj_style_dec.h ****  *  - If the property is not found even in `LV_STATE_DEFAULT` `-1` is returned.
ARM GAS  C:\Users\strap\AppData\Local\Temp\cc7wbcEe.s 			page 11


  42:lvgl\src\lv_widgets\../lv_core/lv_obj_style_dec.h ****  *  - For example:
  43:lvgl\src\lv_widgets\../lv_core/lv_obj_style_dec.h ****  *      `//Type of result should be lv_style_int_t/lv_opa_t/lv_color_t/const void * according to th
  44:lvgl\src\lv_widgets\../lv_core/lv_obj_style_dec.h ****  *      `lv_style_int_t result;`
  45:lvgl\src\lv_widgets\../lv_core/lv_obj_style_dec.h ****  *      `lv_obj_get_style_local_border_width(btn1, LV_BTN_PART_MAIN, LV_STATE_PRESSED, &result);`
  46:lvgl\src\lv_widgets\../lv_core/lv_obj_style_dec.h ****  *      `if(weight > 0) ...the property is found and loaded into result...`
  47:lvgl\src\lv_widgets\../lv_core/lv_obj_style_dec.h ****  *
  48:lvgl\src\lv_widgets\../lv_core/lv_obj_style_dec.h ****  * Get the value from a style in a given state
  49:lvgl\src\lv_widgets\../lv_core/lv_obj_style_dec.h ****  * -------------------------------------------
  50:lvgl\src\lv_widgets\../lv_core/lv_obj_style_dec.h ****  * - The same rules applies to the return value then for "lv_obj_get_style_local_...()" above
  51:lvgl\src\lv_widgets\../lv_core/lv_obj_style_dec.h ****  * - For example
  52:lvgl\src\lv_widgets\../lv_core/lv_obj_style_dec.h ****  *      `int16_t weight = lv_style_get_border_width(&style1, LV_STATE_PRESSED, &result);`
  53:lvgl\src\lv_widgets\../lv_core/lv_obj_style_dec.h ****  *      `if(weight > 0) ...the property is found and loaded into result...`
  54:lvgl\src\lv_widgets\../lv_core/lv_obj_style_dec.h **** 
  55:lvgl\src\lv_widgets\../lv_core/lv_obj_style_dec.h ****  * Set a value in a style in a given state
  56:lvgl\src\lv_widgets\../lv_core/lv_obj_style_dec.h ****  * ---------------------------------------
  57:lvgl\src\lv_widgets\../lv_core/lv_obj_style_dec.h ****  * - For example
  58:lvgl\src\lv_widgets\../lv_core/lv_obj_style_dec.h ****  *      `lv_style_set_border_width(&style1, LV_STATE_PRESSED, 2);`
  59:lvgl\src\lv_widgets\../lv_core/lv_obj_style_dec.h ****  */
  60:lvgl\src\lv_widgets\../lv_core/lv_obj_style_dec.h **** 
  61:lvgl\src\lv_widgets\../lv_core/lv_obj_style_dec.h **** #define _OBJ_GET_STYLE_scalar(prop_name, func_name, value_type, style_type)                        
  62:lvgl\src\lv_widgets\../lv_core/lv_obj_style_dec.h ****     static inline value_type lv_obj_get_style_##func_name (const lv_obj_t * obj, uint8_t part)     
  63:lvgl\src\lv_widgets\../lv_core/lv_obj_style_dec.h ****     {                                                                                              
  64:lvgl\src\lv_widgets\../lv_core/lv_obj_style_dec.h ****         return (value_type) _lv_obj_get_style##style_type (obj, part, LV_STYLE_##prop_name);       
  65:lvgl\src\lv_widgets\../lv_core/lv_obj_style_dec.h ****     }
  66:lvgl\src\lv_widgets\../lv_core/lv_obj_style_dec.h **** 
  67:lvgl\src\lv_widgets\../lv_core/lv_obj_style_dec.h **** #define _OBJ_GET_STYLE_nonscalar(prop_name, func_name, value_type, style_type)                     
  68:lvgl\src\lv_widgets\../lv_core/lv_obj_style_dec.h ****     static inline value_type lv_obj_get_style_##func_name (const lv_obj_t * obj, uint8_t part)     
  69:lvgl\src\lv_widgets\../lv_core/lv_obj_style_dec.h ****     {                                                                                              
  70:lvgl\src\lv_widgets\../lv_core/lv_obj_style_dec.h ****         return _lv_obj_get_style##style_type (obj, part, LV_STYLE_##prop_name);                    
  71:lvgl\src\lv_widgets\../lv_core/lv_obj_style_dec.h ****     }
  72:lvgl\src\lv_widgets\../lv_core/lv_obj_style_dec.h **** 
  73:lvgl\src\lv_widgets\../lv_core/lv_obj_style_dec.h **** #define _OBJ_SET_STYLE_LOCAL_scalar(prop_name, func_name, value_type, style_type)                  
  74:lvgl\src\lv_widgets\../lv_core/lv_obj_style_dec.h ****     static inline void lv_obj_set_style_local_##func_name (lv_obj_t * obj, uint8_t part, lv_state_t
  75:lvgl\src\lv_widgets\../lv_core/lv_obj_style_dec.h ****     {                                                                                              
  76:lvgl\src\lv_widgets\../lv_core/lv_obj_style_dec.h ****         _lv_obj_set_style_local##style_type (obj, part, LV_STYLE_##prop_name | (state << LV_STYLE_S
  77:lvgl\src\lv_widgets\../lv_core/lv_obj_style_dec.h ****     }
  78:lvgl\src\lv_widgets\../lv_core/lv_obj_style_dec.h **** 
  79:lvgl\src\lv_widgets\../lv_core/lv_obj_style_dec.h **** #define _OBJ_SET_STYLE_LOCAL_nonscalar(prop_name, func_name, value_type, style_type)               
  80:lvgl\src\lv_widgets\../lv_core/lv_obj_style_dec.h ****     static inline void lv_obj_set_style_local_##func_name (lv_obj_t * obj, uint8_t part, lv_state_t
  81:lvgl\src\lv_widgets\../lv_core/lv_obj_style_dec.h ****     {                                                                                              
  82:lvgl\src\lv_widgets\../lv_core/lv_obj_style_dec.h ****         _lv_obj_set_style_local##style_type (obj, part, LV_STYLE_##prop_name | (state << LV_STYLE_S
  83:lvgl\src\lv_widgets\../lv_core/lv_obj_style_dec.h ****     }
  84:lvgl\src\lv_widgets\../lv_core/lv_obj_style_dec.h **** 
  85:lvgl\src\lv_widgets\../lv_core/lv_obj_style_dec.h **** #define _OBJ_SET_STYLE_scalar(prop_name, func_name, value_type, style_type)                        
  86:lvgl\src\lv_widgets\../lv_core/lv_obj_style_dec.h ****     static inline void lv_style_set_##func_name (lv_style_t * style, lv_state_t state, value_type v
  87:lvgl\src\lv_widgets\../lv_core/lv_obj_style_dec.h ****     {                                                                                              
  88:lvgl\src\lv_widgets\../lv_core/lv_obj_style_dec.h ****         _lv_style_set##style_type (style, LV_STYLE_##prop_name | (state << LV_STYLE_STATE_POS), val
  89:lvgl\src\lv_widgets\../lv_core/lv_obj_style_dec.h ****     }
  90:lvgl\src\lv_widgets\../lv_core/lv_obj_style_dec.h **** 
  91:lvgl\src\lv_widgets\../lv_core/lv_obj_style_dec.h **** #define _OBJ_SET_STYLE_nonscalar(prop_name, func_name, value_type, style_type)                     
  92:lvgl\src\lv_widgets\../lv_core/lv_obj_style_dec.h ****     static inline void lv_style_set_##func_name (lv_style_t * style, lv_state_t state, value_type v
  93:lvgl\src\lv_widgets\../lv_core/lv_obj_style_dec.h ****     {                                                                                              
  94:lvgl\src\lv_widgets\../lv_core/lv_obj_style_dec.h ****         _lv_style_set##style_type (style, LV_STYLE_##prop_name | (state << LV_STYLE_STATE_POS), val
  95:lvgl\src\lv_widgets\../lv_core/lv_obj_style_dec.h ****     }
  96:lvgl\src\lv_widgets\../lv_core/lv_obj_style_dec.h **** 
  97:lvgl\src\lv_widgets\../lv_core/lv_obj_style_dec.h **** #define _LV_OBJ_STYLE_SET_GET_DECLARE(prop_name, func_name, value_type, style_type, scalar)        
  98:lvgl\src\lv_widgets\../lv_core/lv_obj_style_dec.h ****     _OBJ_GET_STYLE_##scalar(prop_name, func_name, value_type, style_type)                          
ARM GAS  C:\Users\strap\AppData\Local\Temp\cc7wbcEe.s 			page 12


  99:lvgl\src\lv_widgets\../lv_core/lv_obj_style_dec.h ****     _OBJ_SET_STYLE_LOCAL_##scalar(prop_name, func_name, value_type, style_type)                    
 100:lvgl\src\lv_widgets\../lv_core/lv_obj_style_dec.h ****     _OBJ_SET_STYLE_##scalar(prop_name, func_name, value_type, style_type)
 101:lvgl\src\lv_widgets\../lv_core/lv_obj_style_dec.h **** 
 102:lvgl\src\lv_widgets\../lv_core/lv_obj_style_dec.h **** _LV_OBJ_STYLE_SET_GET_DECLARE(RADIUS, radius, lv_style_int_t, _int, scalar)
 103:lvgl\src\lv_widgets\../lv_core/lv_obj_style_dec.h **** _LV_OBJ_STYLE_SET_GET_DECLARE(CLIP_CORNER, clip_corner, bool, _int, scalar)
 104:lvgl\src\lv_widgets\../lv_core/lv_obj_style_dec.h **** _LV_OBJ_STYLE_SET_GET_DECLARE(SIZE, size, lv_style_int_t, _int, scalar)
 105:lvgl\src\lv_widgets\../lv_core/lv_obj_style_dec.h **** _LV_OBJ_STYLE_SET_GET_DECLARE(TRANSFORM_WIDTH, transform_width, lv_style_int_t, _int, scalar)
 106:lvgl\src\lv_widgets\../lv_core/lv_obj_style_dec.h **** _LV_OBJ_STYLE_SET_GET_DECLARE(TRANSFORM_HEIGHT, transform_height, lv_style_int_t, _int, scalar)
 107:lvgl\src\lv_widgets\../lv_core/lv_obj_style_dec.h **** _LV_OBJ_STYLE_SET_GET_DECLARE(TRANSFORM_ANGLE, transform_angle, lv_style_int_t, _int, scalar)
 108:lvgl\src\lv_widgets\../lv_core/lv_obj_style_dec.h **** _LV_OBJ_STYLE_SET_GET_DECLARE(TRANSFORM_ZOOM, transform_zoom, lv_style_int_t, _int, scalar)
 109:lvgl\src\lv_widgets\../lv_core/lv_obj_style_dec.h **** _LV_OBJ_STYLE_SET_GET_DECLARE(OPA_SCALE, opa_scale, lv_opa_t, _opa, scalar)
 110:lvgl\src\lv_widgets\../lv_core/lv_obj_style_dec.h **** _LV_OBJ_STYLE_SET_GET_DECLARE(PAD_TOP, pad_top, lv_style_int_t, _int, scalar)
 111:lvgl\src\lv_widgets\../lv_core/lv_obj_style_dec.h **** _LV_OBJ_STYLE_SET_GET_DECLARE(PAD_BOTTOM, pad_bottom, lv_style_int_t, _int, scalar)
 112:lvgl\src\lv_widgets\../lv_core/lv_obj_style_dec.h **** _LV_OBJ_STYLE_SET_GET_DECLARE(PAD_LEFT, pad_left, lv_style_int_t, _int, scalar)
 113:lvgl\src\lv_widgets\../lv_core/lv_obj_style_dec.h **** _LV_OBJ_STYLE_SET_GET_DECLARE(PAD_RIGHT, pad_right, lv_style_int_t, _int, scalar)
 114:lvgl\src\lv_widgets\../lv_core/lv_obj_style_dec.h **** _LV_OBJ_STYLE_SET_GET_DECLARE(PAD_INNER, pad_inner, lv_style_int_t, _int, scalar)
  78              		.loc 2 114 0
  79 0008 1422     		movs	r2, #20
  80 000a 0021     		movs	r1, #0
  81 000c FFF7FEFF 		bl	_lv_obj_get_style_int
  82              	.LVL6:
  83 0010 8046     		mov	r8, r0
  84              	.LVL7:
  85              	.LBE119:
  86              	.LBE118:
 453:lvgl\src\lv_widgets/lv_cont.c ****     lv_obj_t * child;
 454:lvgl\src\lv_widgets/lv_cont.c ****     uint32_t obj_num         = 0;
 455:lvgl\src\lv_widgets/lv_cont.c ****     lv_coord_t h_tot         = 0;
 456:lvgl\src\lv_widgets/lv_cont.c **** 
 457:lvgl\src\lv_widgets/lv_cont.c ****     lv_coord_t inner = lv_obj_get_style_pad_inner(cont, LV_CONT_PART_MAIN);
 458:lvgl\src\lv_widgets/lv_cont.c ****     _LV_LL_READ(cont->child_ll, child) {
  87              		.loc 1 458 0
  88 0012 3D1D     		adds	r5, r7, #4
  89 0014 2846     		mov	r0, r5
  90 0016 FFF7FEFF 		bl	_lv_ll_get_head
  91              	.LVL8:
  92 001a 0446     		mov	r4, r0
  93              	.LVL9:
 455:lvgl\src\lv_widgets/lv_cont.c **** 
  94              		.loc 1 455 0
  95 001c 0026     		movs	r6, #0
 454:lvgl\src\lv_widgets/lv_cont.c ****     lv_coord_t h_tot         = 0;
  96              		.loc 1 454 0
  97 001e B146     		mov	r9, r6
  98              		.loc 1 458 0
  99 0020 15E0     		b	.L7
 100              	.LVL10:
 101              	.L11:
 459:lvgl\src\lv_widgets/lv_cont.c ****         if(lv_obj_get_hidden(child) != false || lv_obj_is_protected(child, LV_PROTECT_POS) != false
 102              		.loc 1 459 0
 103 0022 2046     		mov	r0, r4
 104              	.LVL11:
 105 0024 FFF7FEFF 		bl	lv_obj_get_hidden
 106              	.LVL12:
 107 0028 60B9     		cbnz	r0, .L10
 108              		.loc 1 459 0 is_stmt 0 discriminator 2
 109 002a 0421     		movs	r1, #4
ARM GAS  C:\Users\strap\AppData\Local\Temp\cc7wbcEe.s 			page 13


 110 002c 2046     		mov	r0, r4
 111 002e FFF7FEFF 		bl	lv_obj_is_protected
 112              	.LVL13:
 113 0032 38B9     		cbnz	r0, .L10
 460:lvgl\src\lv_widgets/lv_cont.c ****         h_tot += lv_obj_get_height(child) + inner;
 114              		.loc 1 460 0 is_stmt 1
 115 0034 2046     		mov	r0, r4
 116 0036 FFF7FEFF 		bl	lv_obj_get_height
 117              	.LVL14:
 118 003a 4044     		add	r0, r0, r8
 119 003c 0644     		add	r6, r6, r0
 120              	.LVL15:
 121 003e 36B2     		sxth	r6, r6
 122              	.LVL16:
 461:lvgl\src\lv_widgets/lv_cont.c ****         obj_num++;
 123              		.loc 1 461 0
 124 0040 09F10109 		add	r9, r9, #1
 125              	.LVL17:
 126              	.L10:
 458:lvgl\src\lv_widgets/lv_cont.c ****         if(lv_obj_get_hidden(child) != false || lv_obj_is_protected(child, LV_PROTECT_POS) != false
 127              		.loc 1 458 0 discriminator 2
 128 0044 2146     		mov	r1, r4
 129 0046 2846     		mov	r0, r5
 130 0048 FFF7FEFF 		bl	_lv_ll_get_next
 131              	.LVL18:
 132 004c 0446     		mov	r4, r0
 133              	.LVL19:
 134              	.L7:
 458:lvgl\src\lv_widgets/lv_cont.c ****         if(lv_obj_get_hidden(child) != false || lv_obj_is_protected(child, LV_PROTECT_POS) != false
 135              		.loc 1 458 0 is_stmt 0 discriminator 1
 136 004e 002C     		cmp	r4, #0
 137 0050 E7D1     		bne	.L11
 462:lvgl\src\lv_widgets/lv_cont.c ****     }
 463:lvgl\src\lv_widgets/lv_cont.c **** 
 464:lvgl\src\lv_widgets/lv_cont.c ****     if(obj_num == 0) return;
 138              		.loc 1 464 0 is_stmt 1
 139 0052 B9F1000F 		cmp	r9, #0
 140 0056 3AD0     		beq	.L6
 465:lvgl\src\lv_widgets/lv_cont.c **** 
 466:lvgl\src\lv_widgets/lv_cont.c ****     h_tot -= inner;
 141              		.loc 1 466 0
 142 0058 C8EB0606 		rsb	r6, r8, r6
 143              	.LVL20:
 144 005c 36B2     		sxth	r6, r6
 145              	.LVL21:
 467:lvgl\src\lv_widgets/lv_cont.c **** 
 468:lvgl\src\lv_widgets/lv_cont.c ****     /* Disable child change action because the children will be moved a lot
 469:lvgl\src\lv_widgets/lv_cont.c ****      * an unnecessary child change signals could be sent*/
 470:lvgl\src\lv_widgets/lv_cont.c ****     lv_obj_add_protect(cont, LV_PROTECT_CHILD_CHG);
 146              		.loc 1 470 0
 147 005e 0121     		movs	r1, #1
 148 0060 3846     		mov	r0, r7
 149              	.LVL22:
 150 0062 FFF7FEFF 		bl	lv_obj_add_protect
 151              	.LVL23:
 471:lvgl\src\lv_widgets/lv_cont.c **** 
 472:lvgl\src\lv_widgets/lv_cont.c ****     /* Align the children */
ARM GAS  C:\Users\strap\AppData\Local\Temp\cc7wbcEe.s 			page 14


 473:lvgl\src\lv_widgets/lv_cont.c ****     lv_coord_t last_cord = -(h_tot / 2);
 152              		.loc 1 473 0
 153 0066 06EBD676 		add	r6, r6, r6, lsr #31
 154              	.LVL24:
 155 006a 7610     		asrs	r6, r6, #1
 156 006c 7642     		negs	r6, r6
 157 006e 36B2     		sxth	r6, r6
 158              	.LVL25:
 474:lvgl\src\lv_widgets/lv_cont.c ****     _LV_LL_READ_BACK(cont->child_ll, child) {
 159              		.loc 1 474 0
 160 0070 2846     		mov	r0, r5
 161 0072 FFF7FEFF 		bl	_lv_ll_get_tail
 162              	.LVL26:
 163 0076 0446     		mov	r4, r0
 164              	.LVL27:
 165 0078 23E0     		b	.L13
 166              	.L17:
 475:lvgl\src\lv_widgets/lv_cont.c ****         if(lv_obj_get_hidden(child) != false || lv_obj_is_protected(child, LV_PROTECT_POS) != false
 167              		.loc 1 475 0
 168 007a 2046     		mov	r0, r4
 169              	.LVL28:
 170 007c FFF7FEFF 		bl	lv_obj_get_hidden
 171              	.LVL29:
 172 0080 D0B9     		cbnz	r0, .L16
 173              		.loc 1 475 0 is_stmt 0 discriminator 2
 174 0082 0421     		movs	r1, #4
 175 0084 2046     		mov	r0, r4
 176 0086 FFF7FEFF 		bl	lv_obj_is_protected
 177              	.LVL30:
 178 008a A8B9     		cbnz	r0, .L16
 476:lvgl\src\lv_widgets/lv_cont.c **** 
 477:lvgl\src\lv_widgets/lv_cont.c ****         lv_obj_align(child, cont, LV_ALIGN_CENTER, 0, last_cord + lv_obj_get_height(child) / 2);
 179              		.loc 1 477 0 is_stmt 1
 180 008c 2046     		mov	r0, r4
 181 008e FFF7FEFF 		bl	lv_obj_get_height
 182              	.LVL31:
 183 0092 B6B2     		uxth	r6, r6
 184 0094 00EBD070 		add	r0, r0, r0, lsr #31
 185 0098 06EB6003 		add	r3, r6, r0, asr #1
 186 009c 1BB2     		sxth	r3, r3
 187 009e 0093     		str	r3, [sp]
 188 00a0 0023     		movs	r3, #0
 189 00a2 1A46     		mov	r2, r3
 190 00a4 3946     		mov	r1, r7
 191 00a6 2046     		mov	r0, r4
 192 00a8 FFF7FEFF 		bl	lv_obj_align
 193              	.LVL32:
 478:lvgl\src\lv_widgets/lv_cont.c ****         last_cord += lv_obj_get_height(child) + inner;
 194              		.loc 1 478 0
 195 00ac 2046     		mov	r0, r4
 196 00ae FFF7FEFF 		bl	lv_obj_get_height
 197              	.LVL33:
 198 00b2 4044     		add	r0, r0, r8
 199 00b4 0644     		add	r6, r6, r0
 200              	.LVL34:
 201 00b6 36B2     		sxth	r6, r6
 202              	.LVL35:
ARM GAS  C:\Users\strap\AppData\Local\Temp\cc7wbcEe.s 			page 15


 203              	.L16:
 474:lvgl\src\lv_widgets/lv_cont.c ****         if(lv_obj_get_hidden(child) != false || lv_obj_is_protected(child, LV_PROTECT_POS) != false
 204              		.loc 1 474 0 discriminator 2
 205 00b8 2146     		mov	r1, r4
 206 00ba 2846     		mov	r0, r5
 207 00bc FFF7FEFF 		bl	_lv_ll_get_prev
 208              	.LVL36:
 209 00c0 0446     		mov	r4, r0
 210              	.LVL37:
 211              	.L13:
 474:lvgl\src\lv_widgets/lv_cont.c ****         if(lv_obj_get_hidden(child) != false || lv_obj_is_protected(child, LV_PROTECT_POS) != false
 212              		.loc 1 474 0 is_stmt 0 discriminator 1
 213 00c2 002C     		cmp	r4, #0
 214 00c4 D9D1     		bne	.L17
 479:lvgl\src\lv_widgets/lv_cont.c ****     }
 480:lvgl\src\lv_widgets/lv_cont.c **** 
 481:lvgl\src\lv_widgets/lv_cont.c ****     lv_obj_clear_protect(cont, LV_PROTECT_CHILD_CHG);
 215              		.loc 1 481 0 is_stmt 1
 216 00c6 0121     		movs	r1, #1
 217 00c8 3846     		mov	r0, r7
 218              	.LVL38:
 219 00ca FFF7FEFF 		bl	lv_obj_clear_protect
 220              	.LVL39:
 221              	.L6:
 482:lvgl\src\lv_widgets/lv_cont.c **** }
 222              		.loc 1 482 0
 223 00ce 03B0     		add	sp, sp, #12
 224              		.cfi_def_cfa_offset 28
 225              		@ sp needed
 226 00d0 BDE8F083 		pop	{r4, r5, r6, r7, r8, r9, pc}
 227              		.cfi_endproc
 228              	.LFE343:
 229              		.size	lv_cont_layout_center, .-lv_cont_layout_center
 230              		.section	.text.lv_cont_layout_grid,"ax",%progbits
 231              		.align	2
 232              		.thumb
 233              		.thumb_func
 234              		.type	lv_cont_layout_grid, %function
 235              	lv_cont_layout_grid:
 236              	.LFB345:
 483:lvgl\src\lv_widgets/lv_cont.c **** 
 484:lvgl\src\lv_widgets/lv_cont.c **** /**
 485:lvgl\src\lv_widgets/lv_cont.c ****  * Handle the pretty layout. Put as many object as possible in row
 486:lvgl\src\lv_widgets/lv_cont.c ****  * then begin a new row
 487:lvgl\src\lv_widgets/lv_cont.c ****  * @param cont pointer to an object which layout should be handled
 488:lvgl\src\lv_widgets/lv_cont.c ****  */
 489:lvgl\src\lv_widgets/lv_cont.c **** static void lv_cont_layout_pretty(lv_obj_t * cont)
 490:lvgl\src\lv_widgets/lv_cont.c **** {
 491:lvgl\src\lv_widgets/lv_cont.c ****     lv_layout_t type = lv_cont_get_layout(cont);
 492:lvgl\src\lv_widgets/lv_cont.c **** 
 493:lvgl\src\lv_widgets/lv_cont.c ****     lv_obj_t * child_rs;  /* Row starter child */
 494:lvgl\src\lv_widgets/lv_cont.c ****     lv_obj_t * child_rc;  /* Row closer child */
 495:lvgl\src\lv_widgets/lv_cont.c ****     lv_obj_t * child_tmp; /* Temporary child */
 496:lvgl\src\lv_widgets/lv_cont.c ****     lv_coord_t w_obj         = lv_obj_get_width(cont);
 497:lvgl\src\lv_widgets/lv_cont.c ****     lv_coord_t act_y         =  lv_obj_get_style_pad_top(cont, LV_CONT_PART_MAIN);
 498:lvgl\src\lv_widgets/lv_cont.c ****     /* Disable child change action because the children will be moved a lot
 499:lvgl\src\lv_widgets/lv_cont.c ****      * an unnecessary child change signals could be sent*/
ARM GAS  C:\Users\strap\AppData\Local\Temp\cc7wbcEe.s 			page 16


 500:lvgl\src\lv_widgets/lv_cont.c **** 
 501:lvgl\src\lv_widgets/lv_cont.c ****     child_rs = _lv_ll_get_tail(&cont->child_ll); /*Set the row starter child*/
 502:lvgl\src\lv_widgets/lv_cont.c ****     if(child_rs == NULL) return;                /*Return if no child*/
 503:lvgl\src\lv_widgets/lv_cont.c **** 
 504:lvgl\src\lv_widgets/lv_cont.c ****     lv_obj_add_protect(cont, LV_PROTECT_CHILD_CHG);
 505:lvgl\src\lv_widgets/lv_cont.c ****     lv_coord_t pleft          =  lv_obj_get_style_pad_left(cont, LV_CONT_PART_MAIN);
 506:lvgl\src\lv_widgets/lv_cont.c ****     lv_coord_t pright         =  lv_obj_get_style_pad_right(cont, LV_CONT_PART_MAIN);
 507:lvgl\src\lv_widgets/lv_cont.c ****     lv_coord_t pinner = lv_obj_get_style_pad_inner(cont, LV_CONT_PART_MAIN);
 508:lvgl\src\lv_widgets/lv_cont.c **** 
 509:lvgl\src\lv_widgets/lv_cont.c ****     child_rc = child_rs; /*Initially the the row starter and closer is the same*/
 510:lvgl\src\lv_widgets/lv_cont.c ****     while(child_rs != NULL) {
 511:lvgl\src\lv_widgets/lv_cont.c ****         lv_coord_t h_row = 0;
 512:lvgl\src\lv_widgets/lv_cont.c ****         lv_coord_t w_row = pleft + pright; /*The width is at least the left+right pad*/
 513:lvgl\src\lv_widgets/lv_cont.c ****         uint32_t obj_num = 0;
 514:lvgl\src\lv_widgets/lv_cont.c **** 
 515:lvgl\src\lv_widgets/lv_cont.c ****         /*Find the row closer object and collect some data*/
 516:lvgl\src\lv_widgets/lv_cont.c ****         do {
 517:lvgl\src\lv_widgets/lv_cont.c ****             if(lv_obj_get_hidden(child_rc) == false && lv_obj_is_protected(child_rc, LV_PROTECT_POS
 518:lvgl\src\lv_widgets/lv_cont.c ****                 /*If this object is already not fit then break*/
 519:lvgl\src\lv_widgets/lv_cont.c ****                 lv_coord_t w = lv_obj_get_width(child_rc);
 520:lvgl\src\lv_widgets/lv_cont.c ****                 w += lv_obj_get_style_margin_left(child_rc, LV_OBJ_PART_MAIN);
 521:lvgl\src\lv_widgets/lv_cont.c ****                 w += lv_obj_get_style_margin_right(child_rc, LV_OBJ_PART_MAIN);
 522:lvgl\src\lv_widgets/lv_cont.c ****                 if(w_row + w > w_obj) {
 523:lvgl\src\lv_widgets/lv_cont.c ****                     /*Step back one child because the last already not fit, so the previous is the
 524:lvgl\src\lv_widgets/lv_cont.c ****                      * closer*/
 525:lvgl\src\lv_widgets/lv_cont.c ****                     if(child_rc != NULL && obj_num != 0) {
 526:lvgl\src\lv_widgets/lv_cont.c ****                         child_rc = _lv_ll_get_next(&cont->child_ll, child_rc);
 527:lvgl\src\lv_widgets/lv_cont.c ****                     }
 528:lvgl\src\lv_widgets/lv_cont.c ****                     break;
 529:lvgl\src\lv_widgets/lv_cont.c ****                 }
 530:lvgl\src\lv_widgets/lv_cont.c ****                 w_row += w + pinner; /*Add the object width + inner padding*/
 531:lvgl\src\lv_widgets/lv_cont.c **** 
 532:lvgl\src\lv_widgets/lv_cont.c ****                 lv_coord_t h = lv_obj_get_height(child_rc);
 533:lvgl\src\lv_widgets/lv_cont.c ****                 h += lv_obj_get_style_margin_top(child_rc, LV_OBJ_PART_MAIN);
 534:lvgl\src\lv_widgets/lv_cont.c ****                 h += lv_obj_get_style_margin_bottom(child_rc, LV_OBJ_PART_MAIN);
 535:lvgl\src\lv_widgets/lv_cont.c ****                 h_row = LV_MATH_MAX(h_row, h);         /*Search the highest object*/
 536:lvgl\src\lv_widgets/lv_cont.c ****                 obj_num++;
 537:lvgl\src\lv_widgets/lv_cont.c ****                 if(lv_obj_is_protected(child_rc, LV_PROTECT_FOLLOW))
 538:lvgl\src\lv_widgets/lv_cont.c ****                     break; /*If can not be followed by an other object then break here*/
 539:lvgl\src\lv_widgets/lv_cont.c ****             }
 540:lvgl\src\lv_widgets/lv_cont.c ****             child_rc = _lv_ll_get_prev(&cont->child_ll, child_rc); /*Load the next object*/
 541:lvgl\src\lv_widgets/lv_cont.c ****             if(obj_num == 0)
 542:lvgl\src\lv_widgets/lv_cont.c ****                 child_rs = child_rc; /*If the first object was hidden (or too long) then set the
 543:lvgl\src\lv_widgets/lv_cont.c ****                                         next as first */
 544:lvgl\src\lv_widgets/lv_cont.c ****         } while(child_rc != NULL);
 545:lvgl\src\lv_widgets/lv_cont.c **** 
 546:lvgl\src\lv_widgets/lv_cont.c ****         /*If the object is too long then align it to the middle*/
 547:lvgl\src\lv_widgets/lv_cont.c ****         if(obj_num == 0) {
 548:lvgl\src\lv_widgets/lv_cont.c ****             if(child_rc != NULL) {
 549:lvgl\src\lv_widgets/lv_cont.c ****                 lv_style_int_t mtop = lv_obj_get_style_margin_top(child_rc, LV_OBJ_PART_MAIN);
 550:lvgl\src\lv_widgets/lv_cont.c **** 
 551:lvgl\src\lv_widgets/lv_cont.c ****                 lv_obj_align(child_rc, cont, LV_ALIGN_IN_TOP_MID, 0, act_y + mtop);
 552:lvgl\src\lv_widgets/lv_cont.c ****                 h_row = lv_obj_get_height(child_rc); /*Not set previously because of the early brea
 553:lvgl\src\lv_widgets/lv_cont.c ****                 h_row += mtop;
 554:lvgl\src\lv_widgets/lv_cont.c ****                 h_row += lv_obj_get_style_margin_bottom(child_rc, LV_OBJ_PART_MAIN);
 555:lvgl\src\lv_widgets/lv_cont.c ****             }
 556:lvgl\src\lv_widgets/lv_cont.c ****         }
ARM GAS  C:\Users\strap\AppData\Local\Temp\cc7wbcEe.s 			page 17


 557:lvgl\src\lv_widgets/lv_cont.c ****         /*If there is only one object in the row then align it to the middle*/
 558:lvgl\src\lv_widgets/lv_cont.c ****         else if(obj_num == 1) {
 559:lvgl\src\lv_widgets/lv_cont.c ****             lv_obj_align(child_rs, cont, LV_ALIGN_IN_TOP_MID,
 560:lvgl\src\lv_widgets/lv_cont.c ****                          0,
 561:lvgl\src\lv_widgets/lv_cont.c ****                          act_y + lv_obj_get_style_margin_top(child_rs, LV_OBJ_PART_MAIN));
 562:lvgl\src\lv_widgets/lv_cont.c ****         }
 563:lvgl\src\lv_widgets/lv_cont.c ****         /* Align the children (from child_rs to child_rc)*/
 564:lvgl\src\lv_widgets/lv_cont.c ****         else {
 565:lvgl\src\lv_widgets/lv_cont.c ****             w_row -= pinner * obj_num;
 566:lvgl\src\lv_widgets/lv_cont.c ****             lv_coord_t new_pinner = (w_obj - w_row) / (obj_num - 1);
 567:lvgl\src\lv_widgets/lv_cont.c ****             lv_coord_t act_x    = pleft; /*x init*/
 568:lvgl\src\lv_widgets/lv_cont.c ****             child_tmp           = child_rs;
 569:lvgl\src\lv_widgets/lv_cont.c ****             lv_align_t align;
 570:lvgl\src\lv_widgets/lv_cont.c ****             int32_t inv;
 571:lvgl\src\lv_widgets/lv_cont.c ****             if(lv_obj_get_base_dir(cont) == LV_BIDI_DIR_RTL) {
 572:lvgl\src\lv_widgets/lv_cont.c ****                 align = LV_ALIGN_IN_TOP_RIGHT;
 573:lvgl\src\lv_widgets/lv_cont.c ****                 inv = -1;
 574:lvgl\src\lv_widgets/lv_cont.c ****             } else {
 575:lvgl\src\lv_widgets/lv_cont.c ****                 align = LV_ALIGN_IN_TOP_LEFT;
 576:lvgl\src\lv_widgets/lv_cont.c ****                 inv = 1;
 577:lvgl\src\lv_widgets/lv_cont.c ****             }
 578:lvgl\src\lv_widgets/lv_cont.c ****             while(child_tmp != NULL) {
 579:lvgl\src\lv_widgets/lv_cont.c ****                 if(lv_obj_get_hidden(child_tmp) == false && lv_obj_is_protected(child_tmp, LV_PROTE
 580:lvgl\src\lv_widgets/lv_cont.c ****                     lv_coord_t mleft = lv_obj_get_style_margin_left(child_tmp, LV_OBJ_PART_MAIN);
 581:lvgl\src\lv_widgets/lv_cont.c ****                     lv_coord_t mright = lv_obj_get_style_margin_right(child_tmp, LV_OBJ_PART_MAIN);
 582:lvgl\src\lv_widgets/lv_cont.c ****                     switch(type) {
 583:lvgl\src\lv_widgets/lv_cont.c ****                         case LV_LAYOUT_PRETTY_TOP:
 584:lvgl\src\lv_widgets/lv_cont.c ****                             lv_obj_align(child_tmp, cont, align,
 585:lvgl\src\lv_widgets/lv_cont.c ****                                         inv * (act_x + mleft),
 586:lvgl\src\lv_widgets/lv_cont.c ****                                          act_y + lv_obj_get_style_margin_top(child_tmp, LV_OBJ_PART
 587:lvgl\src\lv_widgets/lv_cont.c ****                             break;
 588:lvgl\src\lv_widgets/lv_cont.c ****                         case LV_LAYOUT_PRETTY_MID:
 589:lvgl\src\lv_widgets/lv_cont.c ****                             lv_obj_align(child_tmp, cont, align,
 590:lvgl\src\lv_widgets/lv_cont.c ****                                          inv * (act_x + mleft),
 591:lvgl\src\lv_widgets/lv_cont.c ****                                          act_y + (h_row - lv_obj_get_height(child_tmp)) / 2);
 592:lvgl\src\lv_widgets/lv_cont.c **** 
 593:lvgl\src\lv_widgets/lv_cont.c ****                             break;
 594:lvgl\src\lv_widgets/lv_cont.c ****                         case LV_LAYOUT_PRETTY_BOTTOM:
 595:lvgl\src\lv_widgets/lv_cont.c ****                             lv_obj_align(child_tmp, cont, align,
 596:lvgl\src\lv_widgets/lv_cont.c ****                                          inv * (act_x + mleft),
 597:lvgl\src\lv_widgets/lv_cont.c ****                                          act_y + h_row - lv_obj_get_height(child_tmp) - lv_obj_get_
 598:lvgl\src\lv_widgets/lv_cont.c ****                             break;
 599:lvgl\src\lv_widgets/lv_cont.c ****                         default:
 600:lvgl\src\lv_widgets/lv_cont.c ****                             break;
 601:lvgl\src\lv_widgets/lv_cont.c ****                     }
 602:lvgl\src\lv_widgets/lv_cont.c **** 
 603:lvgl\src\lv_widgets/lv_cont.c ****                     act_x += lv_obj_get_width(child_tmp) + new_pinner + mleft + mright;
 604:lvgl\src\lv_widgets/lv_cont.c ****                 }
 605:lvgl\src\lv_widgets/lv_cont.c ****                 if(child_tmp == child_rc) break;
 606:lvgl\src\lv_widgets/lv_cont.c ****                 child_tmp = _lv_ll_get_prev(&cont->child_ll, child_tmp);
 607:lvgl\src\lv_widgets/lv_cont.c ****             }
 608:lvgl\src\lv_widgets/lv_cont.c ****         }
 609:lvgl\src\lv_widgets/lv_cont.c **** 
 610:lvgl\src\lv_widgets/lv_cont.c ****         if(child_rc == NULL) break;
 611:lvgl\src\lv_widgets/lv_cont.c ****         act_y += pinner + h_row;           /*y increment*/
 612:lvgl\src\lv_widgets/lv_cont.c ****         child_rs = _lv_ll_get_prev(&cont->child_ll, child_rc); /*Go to the next object*/
 613:lvgl\src\lv_widgets/lv_cont.c ****         child_rc = child_rs;
ARM GAS  C:\Users\strap\AppData\Local\Temp\cc7wbcEe.s 			page 18


 614:lvgl\src\lv_widgets/lv_cont.c ****     }
 615:lvgl\src\lv_widgets/lv_cont.c ****     lv_obj_clear_protect(cont, LV_PROTECT_CHILD_CHG);
 616:lvgl\src\lv_widgets/lv_cont.c **** }
 617:lvgl\src\lv_widgets/lv_cont.c **** 
 618:lvgl\src\lv_widgets/lv_cont.c **** /**
 619:lvgl\src\lv_widgets/lv_cont.c ****  * Handle the grid layout. Align same-sized objects in a grid
 620:lvgl\src\lv_widgets/lv_cont.c ****  * @param cont pointer to an object which layout should be handled
 621:lvgl\src\lv_widgets/lv_cont.c ****  */
 622:lvgl\src\lv_widgets/lv_cont.c **** static void lv_cont_layout_grid(lv_obj_t * cont)
 623:lvgl\src\lv_widgets/lv_cont.c **** {
 237              		.loc 1 623 0
 238              		.cfi_startproc
 239              		@ args = 0, pretend = 0, frame = 8
 240              		@ frame_needed = 0, uses_anonymous_args = 0
 241              	.LVL40:
 242 0000 2DE9F04F 		push	{r4, r5, r6, r7, r8, r9, r10, fp, lr}
 243              		.cfi_def_cfa_offset 36
 244              		.cfi_offset 4, -36
 245              		.cfi_offset 5, -32
 246              		.cfi_offset 6, -28
 247              		.cfi_offset 7, -24
 248              		.cfi_offset 8, -20
 249              		.cfi_offset 9, -16
 250              		.cfi_offset 10, -12
 251              		.cfi_offset 11, -8
 252              		.cfi_offset 14, -4
 253 0004 83B0     		sub	sp, sp, #12
 254              		.cfi_def_cfa_offset 48
 255 0006 8046     		mov	r8, r0
 624:lvgl\src\lv_widgets/lv_cont.c ****     lv_coord_t w_fit         =  lv_obj_get_width_fit(cont);
 256              		.loc 1 624 0
 257 0008 FFF7FEFF 		bl	lv_obj_get_width_fit
 258              	.LVL41:
 259 000c 0090     		str	r0, [sp]
 260              	.LVL42:
 261              	.LBB120:
 262              	.LBB121:
 263              		.loc 2 114 0
 264 000e 1422     		movs	r2, #20
 265 0010 0021     		movs	r1, #0
 266 0012 4046     		mov	r0, r8
 267 0014 FFF7FEFF 		bl	_lv_obj_get_style_int
 268              	.LVL43:
 269 0018 8146     		mov	r9, r0
 270              	.LVL44:
 271              	.LBE121:
 272              	.LBE120:
 625:lvgl\src\lv_widgets/lv_cont.c ****     lv_coord_t inner = lv_obj_get_style_pad_inner(cont, LV_CONT_PART_MAIN);
 626:lvgl\src\lv_widgets/lv_cont.c ****     lv_coord_t y_ofs = inner + lv_obj_get_height(lv_obj_get_child(cont, NULL));
 273              		.loc 1 626 0
 274 001a 0021     		movs	r1, #0
 275 001c 4046     		mov	r0, r8
 276 001e FFF7FEFF 		bl	lv_obj_get_child
 277              	.LVL45:
 278 0022 FFF7FEFF 		bl	lv_obj_get_height
 279              	.LVL46:
 280 0026 1FFA89F9 		uxth	r9, r9
ARM GAS  C:\Users\strap\AppData\Local\Temp\cc7wbcEe.s 			page 19


 281 002a 4844     		add	r0, r0, r9
 282 002c 1FFA80FB 		uxth	fp, r0
 283              	.LVL47:
 627:lvgl\src\lv_widgets/lv_cont.c **** 
 628:lvgl\src\lv_widgets/lv_cont.c ****     /* Disable child change action because the children will be moved a lot
 629:lvgl\src\lv_widgets/lv_cont.c ****      * an unnecessary child change signals could be sent*/
 630:lvgl\src\lv_widgets/lv_cont.c ****     lv_obj_add_protect(cont, LV_PROTECT_CHILD_CHG);
 284              		.loc 1 630 0
 285 0030 0121     		movs	r1, #1
 286 0032 4046     		mov	r0, r8
 287 0034 FFF7FEFF 		bl	lv_obj_add_protect
 288              	.LVL48:
 289              	.LBB122:
 290              	.LBB123:
 112:lvgl\src\lv_widgets\../lv_core/lv_obj_style_dec.h **** _LV_OBJ_STYLE_SET_GET_DECLARE(PAD_RIGHT, pad_right, lv_style_int_t, _int, scalar)
 291              		.loc 2 112 0
 292 0038 1222     		movs	r2, #18
 293 003a 0021     		movs	r1, #0
 294 003c 4046     		mov	r0, r8
 295 003e FFF7FEFF 		bl	_lv_obj_get_style_int
 296              	.LVL49:
 297 0042 0646     		mov	r6, r0
 298 0044 0190     		str	r0, [sp, #4]
 299              	.LVL50:
 300              	.LBE123:
 301              	.LBE122:
 302              	.LBB124:
 303              	.LBB125:
 110:lvgl\src\lv_widgets\../lv_core/lv_obj_style_dec.h **** _LV_OBJ_STYLE_SET_GET_DECLARE(PAD_BOTTOM, pad_bottom, lv_style_int_t, _int, scalar)
 304              		.loc 2 110 0
 305 0046 1022     		movs	r2, #16
 306 0048 0021     		movs	r1, #0
 307 004a 4046     		mov	r0, r8
 308 004c FFF7FEFF 		bl	_lv_obj_get_style_int
 309              	.LVL51:
 310 0050 8246     		mov	r10, r0
 311              	.LVL52:
 312              	.LBE125:
 313              	.LBE124:
 631:lvgl\src\lv_widgets/lv_cont.c **** 
 632:lvgl\src\lv_widgets/lv_cont.c ****     /* Align the children */
 633:lvgl\src\lv_widgets/lv_cont.c ****     lv_coord_t left = lv_obj_get_style_pad_left(cont, LV_CONT_PART_MAIN);
 634:lvgl\src\lv_widgets/lv_cont.c ****     lv_coord_t act_x = left;
 635:lvgl\src\lv_widgets/lv_cont.c ****     lv_coord_t act_y = lv_obj_get_style_pad_top(cont, LV_CONT_PART_MAIN);
 636:lvgl\src\lv_widgets/lv_cont.c ****     lv_obj_t * child;
 637:lvgl\src\lv_widgets/lv_cont.c ****     _LV_LL_READ_BACK(cont->child_ll, child) {
 314              		.loc 1 637 0
 315 0052 08F10405 		add	r5, r8, #4
 316 0056 2846     		mov	r0, r5
 317 0058 FFF7FEFF 		bl	_lv_ll_get_tail
 318              	.LVL53:
 319 005c 0446     		mov	r4, r0
 320              	.LVL54:
 321 005e 23E0     		b	.L20
 322              	.LVL55:
 323              	.L25:
 324              	.LBB126:
ARM GAS  C:\Users\strap\AppData\Local\Temp\cc7wbcEe.s 			page 20


 638:lvgl\src\lv_widgets/lv_cont.c ****         if(lv_obj_get_hidden(child) != false || lv_obj_is_protected(child, LV_PROTECT_POS) != false
 325              		.loc 1 638 0
 326 0060 2046     		mov	r0, r4
 327              	.LVL56:
 328 0062 FFF7FEFF 		bl	lv_obj_get_hidden
 329              	.LVL57:
 330 0066 D0B9     		cbnz	r0, .L23
 331              		.loc 1 638 0 is_stmt 0 discriminator 2
 332 0068 0421     		movs	r1, #4
 333 006a 2046     		mov	r0, r4
 334 006c FFF7FEFF 		bl	lv_obj_is_protected
 335              	.LVL58:
 336 0070 A8B9     		cbnz	r0, .L23
 639:lvgl\src\lv_widgets/lv_cont.c ****         lv_coord_t obj_w = lv_obj_get_width(child);
 337              		.loc 1 639 0 is_stmt 1
 338 0072 2046     		mov	r0, r4
 339 0074 FFF7FEFF 		bl	lv_obj_get_width
 340              	.LVL59:
 341 0078 0746     		mov	r7, r0
 342              	.LVL60:
 640:lvgl\src\lv_widgets/lv_cont.c ****         if(act_x + obj_w > w_fit + left) {
 343              		.loc 1 640 0
 344 007a 3218     		adds	r2, r6, r0
 345 007c 0098     		ldr	r0, [sp]
 346              	.LVL61:
 347 007e 0199     		ldr	r1, [sp, #4]
 348 0080 4318     		adds	r3, r0, r1
 349 0082 9A42     		cmp	r2, r3
 350 0084 03DD     		ble	.L24
 351              	.LVL62:
 641:lvgl\src\lv_widgets/lv_cont.c ****             act_x = left;
 642:lvgl\src\lv_widgets/lv_cont.c ****             act_y += y_ofs;
 352              		.loc 1 642 0
 353 0086 DA44     		add	r10, r10, fp
 354              	.LVL63:
 355 0088 0FFA8AFA 		sxth	r10, r10
 356              	.LVL64:
 641:lvgl\src\lv_widgets/lv_cont.c ****             act_x = left;
 357              		.loc 1 641 0
 358 008c 0E46     		mov	r6, r1
 359              	.LVL65:
 360              	.L24:
 643:lvgl\src\lv_widgets/lv_cont.c ****         }
 644:lvgl\src\lv_widgets/lv_cont.c **** 
 645:lvgl\src\lv_widgets/lv_cont.c ****         lv_obj_set_pos(child, act_x, act_y);
 361              		.loc 1 645 0
 362 008e 5246     		mov	r2, r10
 363 0090 3146     		mov	r1, r6
 364 0092 2046     		mov	r0, r4
 365 0094 FFF7FEFF 		bl	lv_obj_set_pos
 366              	.LVL66:
 646:lvgl\src\lv_widgets/lv_cont.c ****         act_x += inner + obj_w;
 367              		.loc 1 646 0
 368 0098 4F44     		add	r7, r7, r9
 369 009a 3744     		add	r7, r7, r6
 370 009c 3EB2     		sxth	r6, r7
 371              	.LVL67:
ARM GAS  C:\Users\strap\AppData\Local\Temp\cc7wbcEe.s 			page 21


 372              	.L23:
 373              	.LBE126:
 637:lvgl\src\lv_widgets/lv_cont.c ****         if(lv_obj_get_hidden(child) != false || lv_obj_is_protected(child, LV_PROTECT_POS) != false
 374              		.loc 1 637 0 discriminator 2
 375 009e 2146     		mov	r1, r4
 376 00a0 2846     		mov	r0, r5
 377 00a2 FFF7FEFF 		bl	_lv_ll_get_prev
 378              	.LVL68:
 379 00a6 0446     		mov	r4, r0
 380              	.LVL69:
 381              	.L20:
 637:lvgl\src\lv_widgets/lv_cont.c ****         if(lv_obj_get_hidden(child) != false || lv_obj_is_protected(child, LV_PROTECT_POS) != false
 382              		.loc 1 637 0 is_stmt 0 discriminator 1
 383 00a8 002C     		cmp	r4, #0
 384 00aa D9D1     		bne	.L25
 647:lvgl\src\lv_widgets/lv_cont.c ****     }
 648:lvgl\src\lv_widgets/lv_cont.c **** 
 649:lvgl\src\lv_widgets/lv_cont.c ****     lv_obj_clear_protect(cont, LV_PROTECT_CHILD_CHG);
 385              		.loc 1 649 0 is_stmt 1
 386 00ac 0121     		movs	r1, #1
 387 00ae 4046     		mov	r0, r8
 388              	.LVL70:
 389 00b0 FFF7FEFF 		bl	lv_obj_clear_protect
 390              	.LVL71:
 650:lvgl\src\lv_widgets/lv_cont.c **** }
 391              		.loc 1 650 0
 392 00b4 03B0     		add	sp, sp, #12
 393              		.cfi_def_cfa_offset 36
 394              	.LVL72:
 395              		@ sp needed
 396 00b6 BDE8F08F 		pop	{r4, r5, r6, r7, r8, r9, r10, fp, pc}
 397              		.cfi_endproc
 398              	.LFE345:
 399              		.size	lv_cont_layout_grid, .-lv_cont_layout_grid
 400 00ba 00BF     		.section	.text.lv_cont_refr_autofit,"ax",%progbits
 401              		.align	2
 402              		.thumb
 403              		.thumb_func
 404              		.type	lv_cont_refr_autofit, %function
 405              	lv_cont_refr_autofit:
 406              	.LFB346:
 651:lvgl\src\lv_widgets/lv_cont.c **** 
 652:lvgl\src\lv_widgets/lv_cont.c **** /**
 653:lvgl\src\lv_widgets/lv_cont.c ****  * Handle auto fit. Set the size of the object to involve all children.
 654:lvgl\src\lv_widgets/lv_cont.c ****  * @param cont pointer to an object which size will be modified
 655:lvgl\src\lv_widgets/lv_cont.c ****  */
 656:lvgl\src\lv_widgets/lv_cont.c **** static void lv_cont_refr_autofit(lv_obj_t * cont)
 657:lvgl\src\lv_widgets/lv_cont.c **** {
 407              		.loc 1 657 0
 408              		.cfi_startproc
 409              		@ args = 0, pretend = 0, frame = 32
 410              		@ frame_needed = 0, uses_anonymous_args = 0
 411              	.LVL73:
 412 0000 2DE9F043 		push	{r4, r5, r6, r7, r8, r9, lr}
 413              		.cfi_def_cfa_offset 28
 414              		.cfi_offset 4, -28
 415              		.cfi_offset 5, -24
ARM GAS  C:\Users\strap\AppData\Local\Temp\cc7wbcEe.s 			page 22


 416              		.cfi_offset 6, -20
 417              		.cfi_offset 7, -16
 418              		.cfi_offset 8, -12
 419              		.cfi_offset 9, -8
 420              		.cfi_offset 14, -4
 421 0004 89B0     		sub	sp, sp, #36
 422              		.cfi_def_cfa_offset 64
 423 0006 0446     		mov	r4, r0
 658:lvgl\src\lv_widgets/lv_cont.c ****     if(lv_obj_is_protected(cont, LV_PROTECT_CHILD_CHG)) return;
 424              		.loc 1 658 0
 425 0008 0121     		movs	r1, #1
 426 000a FFF7FEFF 		bl	lv_obj_is_protected
 427              	.LVL74:
 428 000e 0028     		cmp	r0, #0
 429 0010 40F0D281 		bne	.L27
 659:lvgl\src\lv_widgets/lv_cont.c ****     lv_cont_ext_t * ext = lv_obj_get_ext_attr(cont);
 430              		.loc 1 659 0
 431 0014 2046     		mov	r0, r4
 432 0016 FFF7FEFF 		bl	lv_obj_get_ext_attr
 433              	.LVL75:
 434 001a 8046     		mov	r8, r0
 435              	.LVL76:
 660:lvgl\src\lv_widgets/lv_cont.c **** 
 661:lvgl\src\lv_widgets/lv_cont.c ****     if(ext->fit_left == LV_FIT_NONE && ext->fit_right == LV_FIT_NONE && ext->fit_top == LV_FIT_NONE
 436              		.loc 1 661 0
 437 001c 0378     		ldrb	r3, [r0]	@ zero_extendqisi2
 438 001e 13F0F00F 		tst	r3, #240
 439 0022 04D1     		bne	.L29
 440              		.loc 1 661 0 is_stmt 0 discriminator 1
 441 0024 4378     		ldrb	r3, [r0, #1]	@ zero_extendqisi2
 442 0026 13F00F0F 		tst	r3, #15
 443 002a 00F0C581 		beq	.L27
 444              	.L29:
 662:lvgl\src\lv_widgets/lv_cont.c ****        ext->fit_bottom == LV_FIT_NONE) {
 663:lvgl\src\lv_widgets/lv_cont.c ****         return;
 664:lvgl\src\lv_widgets/lv_cont.c ****     }
 665:lvgl\src\lv_widgets/lv_cont.c **** 
 666:lvgl\src\lv_widgets/lv_cont.c ****     lv_area_t tight_area;
 667:lvgl\src\lv_widgets/lv_cont.c ****     lv_area_t ori;
 668:lvgl\src\lv_widgets/lv_cont.c ****     lv_obj_t * child_i;
 669:lvgl\src\lv_widgets/lv_cont.c **** 
 670:lvgl\src\lv_widgets/lv_cont.c ****     lv_obj_t * par               = lv_obj_get_parent(cont);
 445              		.loc 1 670 0 is_stmt 1
 446 002e 2046     		mov	r0, r4
 447              	.LVL77:
 448 0030 FFF7FEFF 		bl	lv_obj_get_parent
 449              	.LVL78:
 450 0034 0746     		mov	r7, r0
 451              	.LVL79:
 671:lvgl\src\lv_widgets/lv_cont.c ****     lv_area_t parent_area;
 672:lvgl\src\lv_widgets/lv_cont.c ****     lv_area_copy(&parent_area, &par->coords);
 452              		.loc 1 672 0
 453 0036 00F11001 		add	r1, r0, #16
 454              	.LVL80:
 455              	.LBB127:
 456              	.LBB128:
 457              	.LBB129:
ARM GAS  C:\Users\strap\AppData\Local\Temp\cc7wbcEe.s 			page 23


 458              		.file 3 "lvgl\\src\\lv_widgets\\../lv_core/../lv_font/../lv_misc/lv_mem.h"
   1:lvgl\src\lv_widgets\../lv_core/../lv_font/../lv_misc/lv_mem.h **** /**
   2:lvgl\src\lv_widgets\../lv_core/../lv_font/../lv_misc/lv_mem.h ****  * @file lv_mem.h
   3:lvgl\src\lv_widgets\../lv_core/../lv_font/../lv_misc/lv_mem.h ****  *
   4:lvgl\src\lv_widgets\../lv_core/../lv_font/../lv_misc/lv_mem.h ****  */
   5:lvgl\src\lv_widgets\../lv_core/../lv_font/../lv_misc/lv_mem.h **** 
   6:lvgl\src\lv_widgets\../lv_core/../lv_font/../lv_misc/lv_mem.h **** #ifndef LV_MEM_H
   7:lvgl\src\lv_widgets\../lv_core/../lv_font/../lv_misc/lv_mem.h **** #define LV_MEM_H
   8:lvgl\src\lv_widgets\../lv_core/../lv_font/../lv_misc/lv_mem.h **** 
   9:lvgl\src\lv_widgets\../lv_core/../lv_font/../lv_misc/lv_mem.h **** #ifdef __cplusplus
  10:lvgl\src\lv_widgets\../lv_core/../lv_font/../lv_misc/lv_mem.h **** extern "C" {
  11:lvgl\src\lv_widgets\../lv_core/../lv_font/../lv_misc/lv_mem.h **** #endif
  12:lvgl\src\lv_widgets\../lv_core/../lv_font/../lv_misc/lv_mem.h **** 
  13:lvgl\src\lv_widgets\../lv_core/../lv_font/../lv_misc/lv_mem.h **** /*********************
  14:lvgl\src\lv_widgets\../lv_core/../lv_font/../lv_misc/lv_mem.h ****  *      INCLUDES
  15:lvgl\src\lv_widgets\../lv_core/../lv_font/../lv_misc/lv_mem.h ****  *********************/
  16:lvgl\src\lv_widgets\../lv_core/../lv_font/../lv_misc/lv_mem.h **** #include "../lv_conf_internal.h"
  17:lvgl\src\lv_widgets\../lv_core/../lv_font/../lv_misc/lv_mem.h **** 
  18:lvgl\src\lv_widgets\../lv_core/../lv_font/../lv_misc/lv_mem.h **** #include <stdint.h>
  19:lvgl\src\lv_widgets\../lv_core/../lv_font/../lv_misc/lv_mem.h **** #include <stddef.h>
  20:lvgl\src\lv_widgets\../lv_core/../lv_font/../lv_misc/lv_mem.h **** #include "lv_log.h"
  21:lvgl\src\lv_widgets\../lv_core/../lv_font/../lv_misc/lv_mem.h **** #include "lv_types.h"
  22:lvgl\src\lv_widgets\../lv_core/../lv_font/../lv_misc/lv_mem.h **** 
  23:lvgl\src\lv_widgets\../lv_core/../lv_font/../lv_misc/lv_mem.h **** #if LV_MEMCPY_MEMSET_STD
  24:lvgl\src\lv_widgets\../lv_core/../lv_font/../lv_misc/lv_mem.h **** #include <string.h>
  25:lvgl\src\lv_widgets\../lv_core/../lv_font/../lv_misc/lv_mem.h **** #endif
  26:lvgl\src\lv_widgets\../lv_core/../lv_font/../lv_misc/lv_mem.h **** 
  27:lvgl\src\lv_widgets\../lv_core/../lv_font/../lv_misc/lv_mem.h **** /*********************
  28:lvgl\src\lv_widgets\../lv_core/../lv_font/../lv_misc/lv_mem.h ****  *      DEFINES
  29:lvgl\src\lv_widgets\../lv_core/../lv_font/../lv_misc/lv_mem.h ****  *********************/
  30:lvgl\src\lv_widgets\../lv_core/../lv_font/../lv_misc/lv_mem.h **** 
  31:lvgl\src\lv_widgets\../lv_core/../lv_font/../lv_misc/lv_mem.h **** #ifndef LV_MEM_BUF_MAX_NUM
  32:lvgl\src\lv_widgets\../lv_core/../lv_font/../lv_misc/lv_mem.h **** #define LV_MEM_BUF_MAX_NUM    16
  33:lvgl\src\lv_widgets\../lv_core/../lv_font/../lv_misc/lv_mem.h **** #endif
  34:lvgl\src\lv_widgets\../lv_core/../lv_font/../lv_misc/lv_mem.h **** 
  35:lvgl\src\lv_widgets\../lv_core/../lv_font/../lv_misc/lv_mem.h **** /**********************
  36:lvgl\src\lv_widgets\../lv_core/../lv_font/../lv_misc/lv_mem.h ****  *      TYPEDEFS
  37:lvgl\src\lv_widgets\../lv_core/../lv_font/../lv_misc/lv_mem.h ****  **********************/
  38:lvgl\src\lv_widgets\../lv_core/../lv_font/../lv_misc/lv_mem.h **** 
  39:lvgl\src\lv_widgets\../lv_core/../lv_font/../lv_misc/lv_mem.h **** /**
  40:lvgl\src\lv_widgets\../lv_core/../lv_font/../lv_misc/lv_mem.h ****  * Heap information structure.
  41:lvgl\src\lv_widgets\../lv_core/../lv_font/../lv_misc/lv_mem.h ****  */
  42:lvgl\src\lv_widgets\../lv_core/../lv_font/../lv_misc/lv_mem.h **** typedef struct {
  43:lvgl\src\lv_widgets\../lv_core/../lv_font/../lv_misc/lv_mem.h ****     uint32_t total_size; /**< Total heap size */
  44:lvgl\src\lv_widgets\../lv_core/../lv_font/../lv_misc/lv_mem.h ****     uint32_t free_cnt;
  45:lvgl\src\lv_widgets\../lv_core/../lv_font/../lv_misc/lv_mem.h ****     uint32_t free_size; /**< Size of available memory */
  46:lvgl\src\lv_widgets\../lv_core/../lv_font/../lv_misc/lv_mem.h ****     uint32_t free_biggest_size;
  47:lvgl\src\lv_widgets\../lv_core/../lv_font/../lv_misc/lv_mem.h ****     uint32_t used_cnt;
  48:lvgl\src\lv_widgets\../lv_core/../lv_font/../lv_misc/lv_mem.h ****     uint32_t max_used; /**< Max size of Heap memory used */
  49:lvgl\src\lv_widgets\../lv_core/../lv_font/../lv_misc/lv_mem.h ****     uint8_t used_pct; /**< Percentage used */
  50:lvgl\src\lv_widgets\../lv_core/../lv_font/../lv_misc/lv_mem.h ****     uint8_t frag_pct; /**< Amount of fragmentation */
  51:lvgl\src\lv_widgets\../lv_core/../lv_font/../lv_misc/lv_mem.h **** } lv_mem_monitor_t;
  52:lvgl\src\lv_widgets\../lv_core/../lv_font/../lv_misc/lv_mem.h **** 
  53:lvgl\src\lv_widgets\../lv_core/../lv_font/../lv_misc/lv_mem.h **** typedef struct {
  54:lvgl\src\lv_widgets\../lv_core/../lv_font/../lv_misc/lv_mem.h ****     void * p;
  55:lvgl\src\lv_widgets\../lv_core/../lv_font/../lv_misc/lv_mem.h ****     uint16_t size;
  56:lvgl\src\lv_widgets\../lv_core/../lv_font/../lv_misc/lv_mem.h ****     uint8_t used    : 1;
ARM GAS  C:\Users\strap\AppData\Local\Temp\cc7wbcEe.s 			page 24


  57:lvgl\src\lv_widgets\../lv_core/../lv_font/../lv_misc/lv_mem.h **** } lv_mem_buf_t;
  58:lvgl\src\lv_widgets\../lv_core/../lv_font/../lv_misc/lv_mem.h **** 
  59:lvgl\src\lv_widgets\../lv_core/../lv_font/../lv_misc/lv_mem.h **** typedef lv_mem_buf_t lv_mem_buf_arr_t[LV_MEM_BUF_MAX_NUM];
  60:lvgl\src\lv_widgets\../lv_core/../lv_font/../lv_misc/lv_mem.h **** extern lv_mem_buf_arr_t _lv_mem_buf;
  61:lvgl\src\lv_widgets\../lv_core/../lv_font/../lv_misc/lv_mem.h **** 
  62:lvgl\src\lv_widgets\../lv_core/../lv_font/../lv_misc/lv_mem.h **** /**********************
  63:lvgl\src\lv_widgets\../lv_core/../lv_font/../lv_misc/lv_mem.h ****  * GLOBAL PROTOTYPES
  64:lvgl\src\lv_widgets\../lv_core/../lv_font/../lv_misc/lv_mem.h ****  **********************/
  65:lvgl\src\lv_widgets\../lv_core/../lv_font/../lv_misc/lv_mem.h **** 
  66:lvgl\src\lv_widgets\../lv_core/../lv_font/../lv_misc/lv_mem.h **** /**
  67:lvgl\src\lv_widgets\../lv_core/../lv_font/../lv_misc/lv_mem.h ****  * Initialize the dyn_mem module (work memory and other variables)
  68:lvgl\src\lv_widgets\../lv_core/../lv_font/../lv_misc/lv_mem.h ****  */
  69:lvgl\src\lv_widgets\../lv_core/../lv_font/../lv_misc/lv_mem.h **** void _lv_mem_init(void);
  70:lvgl\src\lv_widgets\../lv_core/../lv_font/../lv_misc/lv_mem.h **** 
  71:lvgl\src\lv_widgets\../lv_core/../lv_font/../lv_misc/lv_mem.h **** /**
  72:lvgl\src\lv_widgets\../lv_core/../lv_font/../lv_misc/lv_mem.h ****  * Clean up the memory buffer which frees all the allocated memories.
  73:lvgl\src\lv_widgets\../lv_core/../lv_font/../lv_misc/lv_mem.h ****  * @note It work only if `LV_MEM_CUSTOM == 0`
  74:lvgl\src\lv_widgets\../lv_core/../lv_font/../lv_misc/lv_mem.h ****  */
  75:lvgl\src\lv_widgets\../lv_core/../lv_font/../lv_misc/lv_mem.h **** void _lv_mem_deinit(void);
  76:lvgl\src\lv_widgets\../lv_core/../lv_font/../lv_misc/lv_mem.h **** 
  77:lvgl\src\lv_widgets\../lv_core/../lv_font/../lv_misc/lv_mem.h **** /**
  78:lvgl\src\lv_widgets\../lv_core/../lv_font/../lv_misc/lv_mem.h ****  * Allocate a memory dynamically
  79:lvgl\src\lv_widgets\../lv_core/../lv_font/../lv_misc/lv_mem.h ****  * @param size size of the memory to allocate in bytes
  80:lvgl\src\lv_widgets\../lv_core/../lv_font/../lv_misc/lv_mem.h ****  * @return pointer to the allocated memory
  81:lvgl\src\lv_widgets\../lv_core/../lv_font/../lv_misc/lv_mem.h ****  */
  82:lvgl\src\lv_widgets\../lv_core/../lv_font/../lv_misc/lv_mem.h **** void * lv_mem_alloc(size_t size);
  83:lvgl\src\lv_widgets\../lv_core/../lv_font/../lv_misc/lv_mem.h **** 
  84:lvgl\src\lv_widgets\../lv_core/../lv_font/../lv_misc/lv_mem.h **** /**
  85:lvgl\src\lv_widgets\../lv_core/../lv_font/../lv_misc/lv_mem.h ****  * Free an allocated data
  86:lvgl\src\lv_widgets\../lv_core/../lv_font/../lv_misc/lv_mem.h ****  * @param data pointer to an allocated memory
  87:lvgl\src\lv_widgets\../lv_core/../lv_font/../lv_misc/lv_mem.h ****  */
  88:lvgl\src\lv_widgets\../lv_core/../lv_font/../lv_misc/lv_mem.h **** void lv_mem_free(const void * data);
  89:lvgl\src\lv_widgets\../lv_core/../lv_font/../lv_misc/lv_mem.h **** 
  90:lvgl\src\lv_widgets\../lv_core/../lv_font/../lv_misc/lv_mem.h **** /**
  91:lvgl\src\lv_widgets\../lv_core/../lv_font/../lv_misc/lv_mem.h ****  * Reallocate a memory with a new size. The old content will be kept.
  92:lvgl\src\lv_widgets\../lv_core/../lv_font/../lv_misc/lv_mem.h ****  * @param data pointer to an allocated memory.
  93:lvgl\src\lv_widgets\../lv_core/../lv_font/../lv_misc/lv_mem.h ****  * Its content will be copied to the new memory block and freed
  94:lvgl\src\lv_widgets\../lv_core/../lv_font/../lv_misc/lv_mem.h ****  * @param new_size the desired new size in byte
  95:lvgl\src\lv_widgets\../lv_core/../lv_font/../lv_misc/lv_mem.h ****  * @return pointer to the new memory
  96:lvgl\src\lv_widgets\../lv_core/../lv_font/../lv_misc/lv_mem.h ****  */
  97:lvgl\src\lv_widgets\../lv_core/../lv_font/../lv_misc/lv_mem.h **** void * lv_mem_realloc(void * data_p, size_t new_size);
  98:lvgl\src\lv_widgets\../lv_core/../lv_font/../lv_misc/lv_mem.h **** 
  99:lvgl\src\lv_widgets\../lv_core/../lv_font/../lv_misc/lv_mem.h **** /**
 100:lvgl\src\lv_widgets\../lv_core/../lv_font/../lv_misc/lv_mem.h ****  * Join the adjacent free memory blocks
 101:lvgl\src\lv_widgets\../lv_core/../lv_font/../lv_misc/lv_mem.h ****  */
 102:lvgl\src\lv_widgets\../lv_core/../lv_font/../lv_misc/lv_mem.h **** void lv_mem_defrag(void);
 103:lvgl\src\lv_widgets\../lv_core/../lv_font/../lv_misc/lv_mem.h **** 
 104:lvgl\src\lv_widgets\../lv_core/../lv_font/../lv_misc/lv_mem.h **** /**
 105:lvgl\src\lv_widgets\../lv_core/../lv_font/../lv_misc/lv_mem.h ****  *
 106:lvgl\src\lv_widgets\../lv_core/../lv_font/../lv_misc/lv_mem.h ****  * @return
 107:lvgl\src\lv_widgets\../lv_core/../lv_font/../lv_misc/lv_mem.h ****  */
 108:lvgl\src\lv_widgets\../lv_core/../lv_font/../lv_misc/lv_mem.h **** lv_res_t lv_mem_test(void);
 109:lvgl\src\lv_widgets\../lv_core/../lv_font/../lv_misc/lv_mem.h **** 
 110:lvgl\src\lv_widgets\../lv_core/../lv_font/../lv_misc/lv_mem.h **** /**
 111:lvgl\src\lv_widgets\../lv_core/../lv_font/../lv_misc/lv_mem.h ****  * Give information about the work memory of dynamic allocation
 112:lvgl\src\lv_widgets\../lv_core/../lv_font/../lv_misc/lv_mem.h ****  * @param mon_p pointer to a dm_mon_p variable,
 113:lvgl\src\lv_widgets\../lv_core/../lv_font/../lv_misc/lv_mem.h ****  *              the result of the analysis will be stored here
ARM GAS  C:\Users\strap\AppData\Local\Temp\cc7wbcEe.s 			page 25


 114:lvgl\src\lv_widgets\../lv_core/../lv_font/../lv_misc/lv_mem.h ****  */
 115:lvgl\src\lv_widgets\../lv_core/../lv_font/../lv_misc/lv_mem.h **** void lv_mem_monitor(lv_mem_monitor_t * mon_p);
 116:lvgl\src\lv_widgets\../lv_core/../lv_font/../lv_misc/lv_mem.h **** 
 117:lvgl\src\lv_widgets\../lv_core/../lv_font/../lv_misc/lv_mem.h **** /**
 118:lvgl\src\lv_widgets\../lv_core/../lv_font/../lv_misc/lv_mem.h ****  * Give the size of an allocated memory
 119:lvgl\src\lv_widgets\../lv_core/../lv_font/../lv_misc/lv_mem.h ****  * @param data pointer to an allocated memory
 120:lvgl\src\lv_widgets\../lv_core/../lv_font/../lv_misc/lv_mem.h ****  * @return the size of data memory in bytes
 121:lvgl\src\lv_widgets\../lv_core/../lv_font/../lv_misc/lv_mem.h ****  */
 122:lvgl\src\lv_widgets\../lv_core/../lv_font/../lv_misc/lv_mem.h **** uint32_t _lv_mem_get_size(const void * data);
 123:lvgl\src\lv_widgets\../lv_core/../lv_font/../lv_misc/lv_mem.h **** 
 124:lvgl\src\lv_widgets\../lv_core/../lv_font/../lv_misc/lv_mem.h **** /**
 125:lvgl\src\lv_widgets\../lv_core/../lv_font/../lv_misc/lv_mem.h ****  * Get a temporal buffer with the given size.
 126:lvgl\src\lv_widgets\../lv_core/../lv_font/../lv_misc/lv_mem.h ****  * @param size the required size
 127:lvgl\src\lv_widgets\../lv_core/../lv_font/../lv_misc/lv_mem.h ****  */
 128:lvgl\src\lv_widgets\../lv_core/../lv_font/../lv_misc/lv_mem.h **** void * _lv_mem_buf_get(uint32_t size);
 129:lvgl\src\lv_widgets\../lv_core/../lv_font/../lv_misc/lv_mem.h **** 
 130:lvgl\src\lv_widgets\../lv_core/../lv_font/../lv_misc/lv_mem.h **** /**
 131:lvgl\src\lv_widgets\../lv_core/../lv_font/../lv_misc/lv_mem.h ****  * Release a memory buffer
 132:lvgl\src\lv_widgets\../lv_core/../lv_font/../lv_misc/lv_mem.h ****  * @param p buffer to release
 133:lvgl\src\lv_widgets\../lv_core/../lv_font/../lv_misc/lv_mem.h ****  */
 134:lvgl\src\lv_widgets\../lv_core/../lv_font/../lv_misc/lv_mem.h **** void _lv_mem_buf_release(void * p);
 135:lvgl\src\lv_widgets\../lv_core/../lv_font/../lv_misc/lv_mem.h **** 
 136:lvgl\src\lv_widgets\../lv_core/../lv_font/../lv_misc/lv_mem.h **** /**
 137:lvgl\src\lv_widgets\../lv_core/../lv_font/../lv_misc/lv_mem.h ****  * Free all memory buffers
 138:lvgl\src\lv_widgets\../lv_core/../lv_font/../lv_misc/lv_mem.h ****  */
 139:lvgl\src\lv_widgets\../lv_core/../lv_font/../lv_misc/lv_mem.h **** void _lv_mem_buf_free_all(void);
 140:lvgl\src\lv_widgets\../lv_core/../lv_font/../lv_misc/lv_mem.h **** 
 141:lvgl\src\lv_widgets\../lv_core/../lv_font/../lv_misc/lv_mem.h **** 
 142:lvgl\src\lv_widgets\../lv_core/../lv_font/../lv_misc/lv_mem.h **** //! @cond Doxygen_Suppress
 143:lvgl\src\lv_widgets\../lv_core/../lv_font/../lv_misc/lv_mem.h **** 
 144:lvgl\src\lv_widgets\../lv_core/../lv_font/../lv_misc/lv_mem.h **** #if LV_MEMCPY_MEMSET_STD
 145:lvgl\src\lv_widgets\../lv_core/../lv_font/../lv_misc/lv_mem.h **** 
 146:lvgl\src\lv_widgets\../lv_core/../lv_font/../lv_misc/lv_mem.h **** /**
 147:lvgl\src\lv_widgets\../lv_core/../lv_font/../lv_misc/lv_mem.h ****  * Wrapper for the standard memcpy
 148:lvgl\src\lv_widgets\../lv_core/../lv_font/../lv_misc/lv_mem.h ****  * @param dst pointer to the destination buffer
 149:lvgl\src\lv_widgets\../lv_core/../lv_font/../lv_misc/lv_mem.h ****  * @param src pointer to the source buffer
 150:lvgl\src\lv_widgets\../lv_core/../lv_font/../lv_misc/lv_mem.h ****  * @param len number of byte to copy
 151:lvgl\src\lv_widgets\../lv_core/../lv_font/../lv_misc/lv_mem.h ****  */
 152:lvgl\src\lv_widgets\../lv_core/../lv_font/../lv_misc/lv_mem.h **** static inline void * _lv_memcpy(void * dst, const void * src, size_t len)
 153:lvgl\src\lv_widgets\../lv_core/../lv_font/../lv_misc/lv_mem.h **** {
 154:lvgl\src\lv_widgets\../lv_core/../lv_font/../lv_misc/lv_mem.h ****     return memcpy(dst, src, len);
 155:lvgl\src\lv_widgets\../lv_core/../lv_font/../lv_misc/lv_mem.h **** }
 156:lvgl\src\lv_widgets\../lv_core/../lv_font/../lv_misc/lv_mem.h **** 
 157:lvgl\src\lv_widgets\../lv_core/../lv_font/../lv_misc/lv_mem.h **** /**
 158:lvgl\src\lv_widgets\../lv_core/../lv_font/../lv_misc/lv_mem.h ****  * Wrapper for the standard memcpy
 159:lvgl\src\lv_widgets\../lv_core/../lv_font/../lv_misc/lv_mem.h ****  * @param dst pointer to the destination buffer
 160:lvgl\src\lv_widgets\../lv_core/../lv_font/../lv_misc/lv_mem.h ****  * @param src pointer to the source buffer
 161:lvgl\src\lv_widgets\../lv_core/../lv_font/../lv_misc/lv_mem.h ****  * @param len number of byte to copy
 162:lvgl\src\lv_widgets\../lv_core/../lv_font/../lv_misc/lv_mem.h ****  */
 163:lvgl\src\lv_widgets\../lv_core/../lv_font/../lv_misc/lv_mem.h **** static inline void * _lv_memcpy_small(void * dst, const void * src, size_t len)
 164:lvgl\src\lv_widgets\../lv_core/../lv_font/../lv_misc/lv_mem.h **** {
 165:lvgl\src\lv_widgets\../lv_core/../lv_font/../lv_misc/lv_mem.h ****     return memcpy(dst, src, len);
 166:lvgl\src\lv_widgets\../lv_core/../lv_font/../lv_misc/lv_mem.h **** }
 167:lvgl\src\lv_widgets\../lv_core/../lv_font/../lv_misc/lv_mem.h **** 
 168:lvgl\src\lv_widgets\../lv_core/../lv_font/../lv_misc/lv_mem.h **** /**
 169:lvgl\src\lv_widgets\../lv_core/../lv_font/../lv_misc/lv_mem.h ****  * Wrapper for the standard memset
 170:lvgl\src\lv_widgets\../lv_core/../lv_font/../lv_misc/lv_mem.h ****  * @param dst pointer to the destination buffer
ARM GAS  C:\Users\strap\AppData\Local\Temp\cc7wbcEe.s 			page 26


 171:lvgl\src\lv_widgets\../lv_core/../lv_font/../lv_misc/lv_mem.h ****  * @param v value to set [0..255]
 172:lvgl\src\lv_widgets\../lv_core/../lv_font/../lv_misc/lv_mem.h ****  * @param len number of byte to set
 173:lvgl\src\lv_widgets\../lv_core/../lv_font/../lv_misc/lv_mem.h ****  */
 174:lvgl\src\lv_widgets\../lv_core/../lv_font/../lv_misc/lv_mem.h **** static inline void _lv_memset(void * dst, uint8_t v, size_t len)
 175:lvgl\src\lv_widgets\../lv_core/../lv_font/../lv_misc/lv_mem.h **** {
 176:lvgl\src\lv_widgets\../lv_core/../lv_font/../lv_misc/lv_mem.h ****     memset(dst, v, len);
 177:lvgl\src\lv_widgets\../lv_core/../lv_font/../lv_misc/lv_mem.h **** }
 178:lvgl\src\lv_widgets\../lv_core/../lv_font/../lv_misc/lv_mem.h **** 
 179:lvgl\src\lv_widgets\../lv_core/../lv_font/../lv_misc/lv_mem.h **** /**
 180:lvgl\src\lv_widgets\../lv_core/../lv_font/../lv_misc/lv_mem.h ****  * Wrapper for the standard memset with fixed 0x00 value
 181:lvgl\src\lv_widgets\../lv_core/../lv_font/../lv_misc/lv_mem.h ****  * @param dst pointer to the destination buffer
 182:lvgl\src\lv_widgets\../lv_core/../lv_font/../lv_misc/lv_mem.h ****  * @param len number of byte to set
 183:lvgl\src\lv_widgets\../lv_core/../lv_font/../lv_misc/lv_mem.h ****  */
 184:lvgl\src\lv_widgets\../lv_core/../lv_font/../lv_misc/lv_mem.h **** static inline void _lv_memset_00(void * dst, size_t len)
 185:lvgl\src\lv_widgets\../lv_core/../lv_font/../lv_misc/lv_mem.h **** {
 186:lvgl\src\lv_widgets\../lv_core/../lv_font/../lv_misc/lv_mem.h ****     memset(dst, 0x00, len);
 187:lvgl\src\lv_widgets\../lv_core/../lv_font/../lv_misc/lv_mem.h **** }
 188:lvgl\src\lv_widgets\../lv_core/../lv_font/../lv_misc/lv_mem.h **** 
 189:lvgl\src\lv_widgets\../lv_core/../lv_font/../lv_misc/lv_mem.h **** /**
 190:lvgl\src\lv_widgets\../lv_core/../lv_font/../lv_misc/lv_mem.h ****  * Wrapper for the standard memset with fixed 0xFF value
 191:lvgl\src\lv_widgets\../lv_core/../lv_font/../lv_misc/lv_mem.h ****  * @param dst pointer to the destination buffer
 192:lvgl\src\lv_widgets\../lv_core/../lv_font/../lv_misc/lv_mem.h ****  * @param len number of byte to set
 193:lvgl\src\lv_widgets\../lv_core/../lv_font/../lv_misc/lv_mem.h ****  */
 194:lvgl\src\lv_widgets\../lv_core/../lv_font/../lv_misc/lv_mem.h **** static inline void _lv_memset_ff(void * dst, size_t len)
 195:lvgl\src\lv_widgets\../lv_core/../lv_font/../lv_misc/lv_mem.h **** {
 196:lvgl\src\lv_widgets\../lv_core/../lv_font/../lv_misc/lv_mem.h ****     memset(dst, 0xFF, len);
 197:lvgl\src\lv_widgets\../lv_core/../lv_font/../lv_misc/lv_mem.h **** }
 198:lvgl\src\lv_widgets\../lv_core/../lv_font/../lv_misc/lv_mem.h **** 
 199:lvgl\src\lv_widgets\../lv_core/../lv_font/../lv_misc/lv_mem.h **** #else
 200:lvgl\src\lv_widgets\../lv_core/../lv_font/../lv_misc/lv_mem.h **** /**
 201:lvgl\src\lv_widgets\../lv_core/../lv_font/../lv_misc/lv_mem.h ****  * Same as `memcpy` but optimized for 4 byte operation.
 202:lvgl\src\lv_widgets\../lv_core/../lv_font/../lv_misc/lv_mem.h ****  * @param dst pointer to the destination buffer
 203:lvgl\src\lv_widgets\../lv_core/../lv_font/../lv_misc/lv_mem.h ****  * @param src pointer to the source buffer
 204:lvgl\src\lv_widgets\../lv_core/../lv_font/../lv_misc/lv_mem.h ****  * @param len number of byte to copy
 205:lvgl\src\lv_widgets\../lv_core/../lv_font/../lv_misc/lv_mem.h ****  */
 206:lvgl\src\lv_widgets\../lv_core/../lv_font/../lv_misc/lv_mem.h **** LV_ATTRIBUTE_FAST_MEM void * _lv_memcpy(void * dst, const void * src, size_t len);
 207:lvgl\src\lv_widgets\../lv_core/../lv_font/../lv_misc/lv_mem.h **** 
 208:lvgl\src\lv_widgets\../lv_core/../lv_font/../lv_misc/lv_mem.h **** /**
 209:lvgl\src\lv_widgets\../lv_core/../lv_font/../lv_misc/lv_mem.h ****  * Same as `memcpy` but optimized to copy only a few bytes.
 210:lvgl\src\lv_widgets\../lv_core/../lv_font/../lv_misc/lv_mem.h ****  * @param dst pointer to the destination buffer
 211:lvgl\src\lv_widgets\../lv_core/../lv_font/../lv_misc/lv_mem.h ****  * @param src pointer to the source buffer
 212:lvgl\src\lv_widgets\../lv_core/../lv_font/../lv_misc/lv_mem.h ****  * @param len number of byte to copy
 213:lvgl\src\lv_widgets\../lv_core/../lv_font/../lv_misc/lv_mem.h ****  */
 214:lvgl\src\lv_widgets\../lv_core/../lv_font/../lv_misc/lv_mem.h **** LV_ATTRIBUTE_FAST_MEM static inline void * _lv_memcpy_small(void * dst, const void * src, size_t le
 215:lvgl\src\lv_widgets\../lv_core/../lv_font/../lv_misc/lv_mem.h **** {
 216:lvgl\src\lv_widgets\../lv_core/../lv_font/../lv_misc/lv_mem.h ****     uint8_t * d8 = (uint8_t *)dst;
 459              		.loc 3 216 0
 460 003a 02AA     		add	r2, sp, #8
 461              	.LVL81:
 462              	.LBE129:
 463              	.LBE128:
 464              	.LBE127:
 465              		.loc 1 672 0
 466 003c 0823     		movs	r3, #8
 467 003e 04E0     		b	.L30
 468              	.LVL82:
 469              	.L31:
ARM GAS  C:\Users\strap\AppData\Local\Temp\cc7wbcEe.s 			page 27


 470              	.LBB132:
 471              	.LBB131:
 472              	.LBB130:
 217:lvgl\src\lv_widgets\../lv_core/../lv_font/../lv_misc/lv_mem.h ****     const uint8_t * s8 = (const uint8_t *)src;
 218:lvgl\src\lv_widgets\../lv_core/../lv_font/../lv_misc/lv_mem.h **** 
 219:lvgl\src\lv_widgets\../lv_core/../lv_font/../lv_misc/lv_mem.h ****     while(len) {
 220:lvgl\src\lv_widgets\../lv_core/../lv_font/../lv_misc/lv_mem.h ****         *d8 = *s8;
 473              		.loc 3 220 0
 474 0040 11F8010B 		ldrb	r0, [r1], #1	@ zero_extendqisi2
 475              	.LVL83:
 476 0044 02F8010B 		strb	r0, [r2], #1
 477              	.LVL84:
 221:lvgl\src\lv_widgets\../lv_core/../lv_font/../lv_misc/lv_mem.h ****         d8++;
 222:lvgl\src\lv_widgets\../lv_core/../lv_font/../lv_misc/lv_mem.h ****         s8++;
 223:lvgl\src\lv_widgets\../lv_core/../lv_font/../lv_misc/lv_mem.h ****         len--;
 478              		.loc 3 223 0
 479 0048 013B     		subs	r3, r3, #1
 480              	.LVL85:
 481              	.L30:
 219:lvgl\src\lv_widgets\../lv_core/../lv_font/../lv_misc/lv_mem.h ****         *d8 = *s8;
 482              		.loc 3 219 0
 483 004a 002B     		cmp	r3, #0
 484 004c F8D1     		bne	.L31
 485              	.LVL86:
 486              	.LBE130:
 487              	.LBE131:
 488              	.LBE132:
 489              	.LBB133:
 490              	.LBB134:
 112:lvgl\src\lv_widgets\../lv_core/lv_obj_style_dec.h **** _LV_OBJ_STYLE_SET_GET_DECLARE(PAD_RIGHT, pad_right, lv_style_int_t, _int, scalar)
 491              		.loc 2 112 0
 492 004e 1222     		movs	r2, #18
 493              	.LVL87:
 494 0050 0021     		movs	r1, #0
 495              	.LVL88:
 496 0052 3846     		mov	r0, r7
 497 0054 FFF7FEFF 		bl	_lv_obj_get_style_int
 498              	.LVL89:
 499              	.LBE134:
 500              	.LBE133:
 673:lvgl\src\lv_widgets/lv_cont.c ****     parent_area.x1 += lv_obj_get_style_pad_left(par, LV_OBJ_PART_MAIN);
 501              		.loc 1 673 0
 502 0058 BDF80830 		ldrh	r3, [sp, #8]
 503 005c 1844     		add	r0, r0, r3
 504 005e ADF80800 		strh	r0, [sp, #8]	@ movhi
 505              	.LVL90:
 506              	.LBB135:
 507              	.LBB136:
 113:lvgl\src\lv_widgets\../lv_core/lv_obj_style_dec.h **** _LV_OBJ_STYLE_SET_GET_DECLARE(PAD_INNER, pad_inner, lv_style_int_t, _int, scalar)
 508              		.loc 2 113 0
 509 0062 1322     		movs	r2, #19
 510 0064 0021     		movs	r1, #0
 511 0066 3846     		mov	r0, r7
 512 0068 FFF7FEFF 		bl	_lv_obj_get_style_int
 513              	.LVL91:
 514              	.LBE136:
 515              	.LBE135:
ARM GAS  C:\Users\strap\AppData\Local\Temp\cc7wbcEe.s 			page 28


 674:lvgl\src\lv_widgets/lv_cont.c ****     parent_area.x2 -= lv_obj_get_style_pad_right(par, LV_OBJ_PART_MAIN);
 516              		.loc 1 674 0
 517 006c BDF80C30 		ldrh	r3, [sp, #12]
 518 0070 181A     		subs	r0, r3, r0
 519 0072 ADF80C00 		strh	r0, [sp, #12]	@ movhi
 520              	.LVL92:
 521              	.LBB137:
 522              	.LBB138:
 110:lvgl\src\lv_widgets\../lv_core/lv_obj_style_dec.h **** _LV_OBJ_STYLE_SET_GET_DECLARE(PAD_BOTTOM, pad_bottom, lv_style_int_t, _int, scalar)
 523              		.loc 2 110 0
 524 0076 1022     		movs	r2, #16
 525 0078 0021     		movs	r1, #0
 526 007a 3846     		mov	r0, r7
 527 007c FFF7FEFF 		bl	_lv_obj_get_style_int
 528              	.LVL93:
 529              	.LBE138:
 530              	.LBE137:
 675:lvgl\src\lv_widgets/lv_cont.c ****     parent_area.y1 += lv_obj_get_style_pad_top(par, LV_OBJ_PART_MAIN);
 531              		.loc 1 675 0
 532 0080 BDF80A30 		ldrh	r3, [sp, #10]
 533 0084 1844     		add	r0, r0, r3
 534 0086 ADF80A00 		strh	r0, [sp, #10]	@ movhi
 535              	.LVL94:
 536              	.LBB139:
 537              	.LBB140:
 111:lvgl\src\lv_widgets\../lv_core/lv_obj_style_dec.h **** _LV_OBJ_STYLE_SET_GET_DECLARE(PAD_LEFT, pad_left, lv_style_int_t, _int, scalar)
 538              		.loc 2 111 0
 539 008a 1122     		movs	r2, #17
 540 008c 0021     		movs	r1, #0
 541 008e 3846     		mov	r0, r7
 542 0090 FFF7FEFF 		bl	_lv_obj_get_style_int
 543              	.LVL95:
 544              	.LBE140:
 545              	.LBE139:
 676:lvgl\src\lv_widgets/lv_cont.c ****     parent_area.y2 -= lv_obj_get_style_pad_bottom(par, LV_OBJ_PART_MAIN);
 546              		.loc 1 676 0
 547 0094 BDF80E30 		ldrh	r3, [sp, #14]
 548 0098 181A     		subs	r0, r3, r0
 549 009a ADF80E00 		strh	r0, [sp, #14]	@ movhi
 677:lvgl\src\lv_widgets/lv_cont.c **** 
 678:lvgl\src\lv_widgets/lv_cont.c ****     /*Search the side coordinates of the children*/
 679:lvgl\src\lv_widgets/lv_cont.c ****     lv_obj_get_coords(cont, &ori);
 550              		.loc 1 679 0
 551 009e 04A9     		add	r1, sp, #16
 552 00a0 2046     		mov	r0, r4
 553 00a2 FFF7FEFF 		bl	lv_obj_get_coords
 554              	.LVL96:
 680:lvgl\src\lv_widgets/lv_cont.c ****     lv_obj_get_coords(cont, &tight_area);
 555              		.loc 1 680 0
 556 00a6 06A9     		add	r1, sp, #24
 557 00a8 2046     		mov	r0, r4
 558 00aa FFF7FEFF 		bl	lv_obj_get_coords
 559              	.LVL97:
 681:lvgl\src\lv_widgets/lv_cont.c **** 
 682:lvgl\src\lv_widgets/lv_cont.c ****     bool has_children = _lv_ll_is_empty(&cont->child_ll) ? false : true;
 560              		.loc 1 682 0
 561 00ae 261D     		adds	r6, r4, #4
ARM GAS  C:\Users\strap\AppData\Local\Temp\cc7wbcEe.s 			page 29


 562 00b0 3046     		mov	r0, r6
 563 00b2 FFF7FEFF 		bl	_lv_ll_is_empty
 564              	.LVL98:
 565 00b6 10B1     		cbz	r0, .L74
 566 00b8 4FF00009 		mov	r9, #0
 567 00bc 01E0     		b	.L32
 568              	.L74:
 569 00be 4FF00109 		mov	r9, #1
 570              	.L32:
 571              	.LVL99:
 683:lvgl\src\lv_widgets/lv_cont.c **** 
 684:lvgl\src\lv_widgets/lv_cont.c ****     if(has_children) {
 572              		.loc 1 684 0 discriminator 4
 573 00c2 B9F1000F 		cmp	r9, #0
 574 00c6 00F09980 		beq	.L33
 685:lvgl\src\lv_widgets/lv_cont.c ****         tight_area.x1 = LV_COORD_MAX;
 575              		.loc 1 685 0
 576 00ca 47F61843 		movw	r3, #31768
 577 00ce ADF81830 		strh	r3, [sp, #24]	@ movhi
 686:lvgl\src\lv_widgets/lv_cont.c ****         tight_area.y1 = LV_COORD_MAX;
 578              		.loc 1 686 0
 579 00d2 ADF81A30 		strh	r3, [sp, #26]	@ movhi
 687:lvgl\src\lv_widgets/lv_cont.c ****         tight_area.x2 = LV_COORD_MIN;
 580              		.loc 1 687 0
 581 00d6 48F2E833 		movw	r3, #33768
 582 00da ADF81C30 		strh	r3, [sp, #28]	@ movhi
 688:lvgl\src\lv_widgets/lv_cont.c ****         tight_area.y2 = LV_COORD_MIN;
 583              		.loc 1 688 0
 584 00de ADF81E30 		strh	r3, [sp, #30]	@ movhi
 689:lvgl\src\lv_widgets/lv_cont.c **** 
 690:lvgl\src\lv_widgets/lv_cont.c ****         _LV_LL_READ(cont->child_ll, child_i) {
 585              		.loc 1 690 0
 586 00e2 3046     		mov	r0, r6
 587 00e4 FFF7FEFF 		bl	_lv_ll_get_head
 588              	.LVL100:
 589 00e8 0546     		mov	r5, r0
 590              	.LVL101:
 591 00ea 5DE0     		b	.L34
 592              	.L39:
 691:lvgl\src\lv_widgets/lv_cont.c ****             if(lv_obj_get_hidden(child_i) != false) continue;
 593              		.loc 1 691 0
 594 00ec 2846     		mov	r0, r5
 595              	.LVL102:
 596 00ee FFF7FEFF 		bl	lv_obj_get_hidden
 597              	.LVL103:
 598 00f2 0028     		cmp	r0, #0
 599 00f4 53D1     		bne	.L35
 692:lvgl\src\lv_widgets/lv_cont.c **** 
 693:lvgl\src\lv_widgets/lv_cont.c ****             if(ext->fit_left != LV_FIT_PARENT) {
 600              		.loc 1 693 0
 601 00f6 98F80030 		ldrb	r3, [r8]	@ zero_extendqisi2
 602 00fa 03F03003 		and	r3, r3, #48
 603 00fe 202B     		cmp	r3, #32
 604 0100 0ED0     		beq	.L36
 605              	.LVL104:
 606              	.LBB141:
 607              	.LBB142:
ARM GAS  C:\Users\strap\AppData\Local\Temp\cc7wbcEe.s 			page 30


 608              	.LBB143:
 115:lvgl\src\lv_widgets\../lv_core/lv_obj_style_dec.h **** _LV_OBJ_STYLE_SET_GET_DECLARE(MARGIN_TOP, margin_top, lv_style_int_t, _int, scalar)
 116:lvgl\src\lv_widgets\../lv_core/lv_obj_style_dec.h **** _LV_OBJ_STYLE_SET_GET_DECLARE(MARGIN_BOTTOM, margin_bottom, lv_style_int_t, _int, scalar)
 117:lvgl\src\lv_widgets\../lv_core/lv_obj_style_dec.h **** _LV_OBJ_STYLE_SET_GET_DECLARE(MARGIN_LEFT, margin_left, lv_style_int_t, _int, scalar)
 609              		.loc 2 117 0
 610 0102 1722     		movs	r2, #23
 611 0104 0021     		movs	r1, #0
 612 0106 2846     		mov	r0, r5
 613 0108 FFF7FEFF 		bl	_lv_obj_get_style_int
 614              	.LVL105:
 615              	.LBE143:
 616              	.LBE142:
 694:lvgl\src\lv_widgets/lv_cont.c ****                 lv_style_int_t mleft = lv_obj_get_style_margin_left(child_i, LV_OBJ_PART_MAIN);
 695:lvgl\src\lv_widgets/lv_cont.c ****                 tight_area.x1 = LV_MATH_MIN(tight_area.x1, child_i->coords.x1 - mleft);
 617              		.loc 1 695 0
 618 010c B5F91030 		ldrsh	r3, [r5, #16]
 619 0110 181A     		subs	r0, r3, r0
 620 0112 BDF91830 		ldrsh	r3, [sp, #24]
 621 0116 9842     		cmp	r0, r3
 622 0118 A8BF     		it	ge
 623 011a 1846     		movge	r0, r3
 624 011c ADF81800 		strh	r0, [sp, #24]	@ movhi
 625              	.L36:
 626              	.LBE141:
 696:lvgl\src\lv_widgets/lv_cont.c ****             }
 697:lvgl\src\lv_widgets/lv_cont.c **** 
 698:lvgl\src\lv_widgets/lv_cont.c ****             if(ext->fit_right != LV_FIT_PARENT) {
 627              		.loc 1 698 0
 628 0120 98F80030 		ldrb	r3, [r8]	@ zero_extendqisi2
 629 0124 03F0C003 		and	r3, r3, #192
 630 0128 802B     		cmp	r3, #128
 631 012a 0ED0     		beq	.L37
 632              	.LVL106:
 633              	.LBB144:
 634              	.LBB145:
 635              	.LBB146:
 118:lvgl\src\lv_widgets\../lv_core/lv_obj_style_dec.h **** _LV_OBJ_STYLE_SET_GET_DECLARE(MARGIN_RIGHT, margin_right, lv_style_int_t, _int, scalar)
 636              		.loc 2 118 0
 637 012c 1822     		movs	r2, #24
 638 012e 0021     		movs	r1, #0
 639 0130 2846     		mov	r0, r5
 640 0132 FFF7FEFF 		bl	_lv_obj_get_style_int
 641              	.LVL107:
 642              	.LBE146:
 643              	.LBE145:
 699:lvgl\src\lv_widgets/lv_cont.c ****                 lv_style_int_t mright = lv_obj_get_style_margin_right(child_i, LV_OBJ_PART_MAIN);
 700:lvgl\src\lv_widgets/lv_cont.c ****                 tight_area.x2 = LV_MATH_MAX(tight_area.x2, child_i->coords.x2 + mright);
 644              		.loc 1 700 0
 645 0136 B5F91430 		ldrsh	r3, [r5, #20]
 646 013a 1844     		add	r0, r0, r3
 647 013c BDF91C30 		ldrsh	r3, [sp, #28]
 648 0140 9842     		cmp	r0, r3
 649 0142 B8BF     		it	lt
 650 0144 1846     		movlt	r0, r3
 651 0146 ADF81C00 		strh	r0, [sp, #28]	@ movhi
 652              	.L37:
 653              	.LBE144:
ARM GAS  C:\Users\strap\AppData\Local\Temp\cc7wbcEe.s 			page 31


 701:lvgl\src\lv_widgets/lv_cont.c ****             }
 702:lvgl\src\lv_widgets/lv_cont.c **** 
 703:lvgl\src\lv_widgets/lv_cont.c ****             if(ext->fit_top != LV_FIT_PARENT) {
 654              		.loc 1 703 0
 655 014a 98F80130 		ldrb	r3, [r8, #1]	@ zero_extendqisi2
 656 014e 03F00303 		and	r3, r3, #3
 657 0152 022B     		cmp	r3, #2
 658 0154 0ED0     		beq	.L38
 659              	.LVL108:
 660              	.LBB147:
 661              	.LBB148:
 662              	.LBB149:
 115:lvgl\src\lv_widgets\../lv_core/lv_obj_style_dec.h **** _LV_OBJ_STYLE_SET_GET_DECLARE(MARGIN_BOTTOM, margin_bottom, lv_style_int_t, _int, scalar)
 663              		.loc 2 115 0
 664 0156 1522     		movs	r2, #21
 665 0158 0021     		movs	r1, #0
 666 015a 2846     		mov	r0, r5
 667 015c FFF7FEFF 		bl	_lv_obj_get_style_int
 668              	.LVL109:
 669              	.LBE149:
 670              	.LBE148:
 704:lvgl\src\lv_widgets/lv_cont.c ****                 lv_style_int_t mtop = lv_obj_get_style_margin_top(child_i, LV_OBJ_PART_MAIN);
 705:lvgl\src\lv_widgets/lv_cont.c ****                 tight_area.y1 = LV_MATH_MIN(tight_area.y1, child_i->coords.y1 - mtop);
 671              		.loc 1 705 0
 672 0160 B5F91230 		ldrsh	r3, [r5, #18]
 673 0164 181A     		subs	r0, r3, r0
 674 0166 BDF91A30 		ldrsh	r3, [sp, #26]
 675 016a 9842     		cmp	r0, r3
 676 016c A8BF     		it	ge
 677 016e 1846     		movge	r0, r3
 678 0170 ADF81A00 		strh	r0, [sp, #26]	@ movhi
 679              	.L38:
 680              	.LBE147:
 706:lvgl\src\lv_widgets/lv_cont.c ****             }
 707:lvgl\src\lv_widgets/lv_cont.c **** 
 708:lvgl\src\lv_widgets/lv_cont.c ****             if(ext->fit_bottom != LV_FIT_PARENT) {
 681              		.loc 1 708 0
 682 0174 98F80130 		ldrb	r3, [r8, #1]	@ zero_extendqisi2
 683 0178 03F00C03 		and	r3, r3, #12
 684 017c 082B     		cmp	r3, #8
 685 017e 0ED0     		beq	.L35
 686              	.LVL110:
 687              	.LBB150:
 688              	.LBB151:
 689              	.LBB152:
 116:lvgl\src\lv_widgets\../lv_core/lv_obj_style_dec.h **** _LV_OBJ_STYLE_SET_GET_DECLARE(MARGIN_LEFT, margin_left, lv_style_int_t, _int, scalar)
 690              		.loc 2 116 0
 691 0180 1622     		movs	r2, #22
 692 0182 0021     		movs	r1, #0
 693 0184 2846     		mov	r0, r5
 694 0186 FFF7FEFF 		bl	_lv_obj_get_style_int
 695              	.LVL111:
 696              	.LBE152:
 697              	.LBE151:
 709:lvgl\src\lv_widgets/lv_cont.c ****                 lv_style_int_t mbottom = lv_obj_get_style_margin_bottom(child_i, LV_OBJ_PART_MAIN);
 710:lvgl\src\lv_widgets/lv_cont.c ****                 tight_area.y2 = LV_MATH_MAX(tight_area.y2, child_i->coords.y2 + mbottom);
 698              		.loc 1 710 0
ARM GAS  C:\Users\strap\AppData\Local\Temp\cc7wbcEe.s 			page 32


 699 018a B5F91630 		ldrsh	r3, [r5, #22]
 700 018e 1844     		add	r0, r0, r3
 701 0190 BDF91E30 		ldrsh	r3, [sp, #30]
 702 0194 9842     		cmp	r0, r3
 703 0196 B8BF     		it	lt
 704 0198 1846     		movlt	r0, r3
 705 019a ADF81E00 		strh	r0, [sp, #30]	@ movhi
 706              	.L35:
 707              	.LBE150:
 690:lvgl\src\lv_widgets/lv_cont.c ****             if(lv_obj_get_hidden(child_i) != false) continue;
 708              		.loc 1 690 0 discriminator 2
 709 019e 2946     		mov	r1, r5
 710 01a0 3046     		mov	r0, r6
 711 01a2 FFF7FEFF 		bl	_lv_ll_get_next
 712              	.LVL112:
 713 01a6 0546     		mov	r5, r0
 714              	.LVL113:
 715              	.L34:
 690:lvgl\src\lv_widgets/lv_cont.c ****             if(lv_obj_get_hidden(child_i) != false) continue;
 716              		.loc 1 690 0 is_stmt 0 discriminator 1
 717 01a8 002D     		cmp	r5, #0
 718 01aa 9FD1     		bne	.L39
 719              	.LVL114:
 720              	.LBB153:
 721              	.LBB154:
 112:lvgl\src\lv_widgets\../lv_core/lv_obj_style_dec.h **** _LV_OBJ_STYLE_SET_GET_DECLARE(PAD_RIGHT, pad_right, lv_style_int_t, _int, scalar)
 722              		.loc 2 112 0 is_stmt 1
 723 01ac 1222     		movs	r2, #18
 724 01ae 0021     		movs	r1, #0
 725 01b0 2046     		mov	r0, r4
 726              	.LVL115:
 727 01b2 FFF7FEFF 		bl	_lv_obj_get_style_int
 728              	.LVL116:
 729              	.LBE154:
 730              	.LBE153:
 711:lvgl\src\lv_widgets/lv_cont.c ****             }
 712:lvgl\src\lv_widgets/lv_cont.c ****         }
 713:lvgl\src\lv_widgets/lv_cont.c **** 
 714:lvgl\src\lv_widgets/lv_cont.c ****         tight_area.x1 -= lv_obj_get_style_pad_left(cont, LV_CONT_PART_MAIN);
 731              		.loc 1 714 0
 732 01b6 BDF81830 		ldrh	r3, [sp, #24]
 733 01ba 181A     		subs	r0, r3, r0
 734 01bc ADF81800 		strh	r0, [sp, #24]	@ movhi
 735              	.LVL117:
 736              	.LBB155:
 737              	.LBB156:
 113:lvgl\src\lv_widgets\../lv_core/lv_obj_style_dec.h **** _LV_OBJ_STYLE_SET_GET_DECLARE(PAD_INNER, pad_inner, lv_style_int_t, _int, scalar)
 738              		.loc 2 113 0
 739 01c0 1322     		movs	r2, #19
 740 01c2 0021     		movs	r1, #0
 741 01c4 2046     		mov	r0, r4
 742 01c6 FFF7FEFF 		bl	_lv_obj_get_style_int
 743              	.LVL118:
 744              	.LBE156:
 745              	.LBE155:
 715:lvgl\src\lv_widgets/lv_cont.c ****         tight_area.x2 += lv_obj_get_style_pad_right(cont, LV_CONT_PART_MAIN);
 746              		.loc 1 715 0
ARM GAS  C:\Users\strap\AppData\Local\Temp\cc7wbcEe.s 			page 33


 747 01ca BDF81C30 		ldrh	r3, [sp, #28]
 748 01ce 1844     		add	r0, r0, r3
 749 01d0 ADF81C00 		strh	r0, [sp, #28]	@ movhi
 750              	.LVL119:
 751              	.LBB157:
 752              	.LBB158:
 110:lvgl\src\lv_widgets\../lv_core/lv_obj_style_dec.h **** _LV_OBJ_STYLE_SET_GET_DECLARE(PAD_BOTTOM, pad_bottom, lv_style_int_t, _int, scalar)
 753              		.loc 2 110 0
 754 01d4 1022     		movs	r2, #16
 755 01d6 0021     		movs	r1, #0
 756 01d8 2046     		mov	r0, r4
 757 01da FFF7FEFF 		bl	_lv_obj_get_style_int
 758              	.LVL120:
 759              	.LBE158:
 760              	.LBE157:
 716:lvgl\src\lv_widgets/lv_cont.c ****         tight_area.y1 -= lv_obj_get_style_pad_top(cont, LV_CONT_PART_MAIN);
 761              		.loc 1 716 0
 762 01de BDF81A30 		ldrh	r3, [sp, #26]
 763 01e2 181A     		subs	r0, r3, r0
 764 01e4 ADF81A00 		strh	r0, [sp, #26]	@ movhi
 765              	.LVL121:
 766              	.LBB159:
 767              	.LBB160:
 111:lvgl\src\lv_widgets\../lv_core/lv_obj_style_dec.h **** _LV_OBJ_STYLE_SET_GET_DECLARE(PAD_LEFT, pad_left, lv_style_int_t, _int, scalar)
 768              		.loc 2 111 0
 769 01e8 1122     		movs	r2, #17
 770 01ea 0021     		movs	r1, #0
 771 01ec 2046     		mov	r0, r4
 772 01ee FFF7FEFF 		bl	_lv_obj_get_style_int
 773              	.LVL122:
 774              	.LBE160:
 775              	.LBE159:
 717:lvgl\src\lv_widgets/lv_cont.c ****         tight_area.y2 += lv_obj_get_style_pad_bottom(cont, LV_CONT_PART_MAIN);
 776              		.loc 1 717 0
 777 01f2 BDF81E30 		ldrh	r3, [sp, #30]
 778 01f6 1844     		add	r0, r0, r3
 779 01f8 ADF81E00 		strh	r0, [sp, #30]	@ movhi
 780              	.LVL123:
 781              	.L33:
 682:lvgl\src\lv_widgets/lv_cont.c **** 
 782              		.loc 1 682 0
 783 01fc 04A9     		add	r1, sp, #16
 784 01fe 6A46     		mov	r2, sp
 785 0200 0823     		movs	r3, #8
 786 0202 04E0     		b	.L40
 787              	.LVL124:
 788              	.L41:
 789              	.LBB161:
 790              	.LBB162:
 791              	.LBB163:
 220:lvgl\src\lv_widgets\../lv_core/../lv_font/../lv_misc/lv_mem.h ****         d8++;
 792              		.loc 3 220 0
 793 0204 11F8010B 		ldrb	r0, [r1], #1	@ zero_extendqisi2
 794              	.LVL125:
 795 0208 02F8010B 		strb	r0, [r2], #1
 796              	.LVL126:
 797              		.loc 3 223 0
ARM GAS  C:\Users\strap\AppData\Local\Temp\cc7wbcEe.s 			page 34


 798 020c 013B     		subs	r3, r3, #1
 799              	.LVL127:
 800              	.L40:
 219:lvgl\src\lv_widgets\../lv_core/../lv_font/../lv_misc/lv_mem.h ****         *d8 = *s8;
 801              		.loc 3 219 0
 802 020e 002B     		cmp	r3, #0
 803 0210 F8D1     		bne	.L41
 804              	.LVL128:
 805              	.LBE163:
 806              	.LBE162:
 807              	.LBE161:
 718:lvgl\src\lv_widgets/lv_cont.c ****     }
 719:lvgl\src\lv_widgets/lv_cont.c **** 
 720:lvgl\src\lv_widgets/lv_cont.c ****     lv_area_t new_area;
 721:lvgl\src\lv_widgets/lv_cont.c ****     lv_area_copy(&new_area, &ori);
 722:lvgl\src\lv_widgets/lv_cont.c **** 
 723:lvgl\src\lv_widgets/lv_cont.c ****     switch(ext->fit_left) {
 808              		.loc 1 723 0
 809 0212 98F80030 		ldrb	r3, [r8]	@ zero_extendqisi2
 810 0216 C3F30113 		ubfx	r3, r3, #4, #2
 811 021a 022B     		cmp	r3, #2
 812 021c 07D0     		beq	.L43
 813 021e 0BD8     		bhi	.L44
 814 0220 012B     		cmp	r3, #1
 815 0222 18D1     		bne	.L42
 724:lvgl\src\lv_widgets/lv_cont.c ****         case LV_FIT_TIGHT:
 725:lvgl\src\lv_widgets/lv_cont.c ****             new_area.x1 = tight_area.x1;
 816              		.loc 1 725 0
 817 0224 BDF91830 		ldrsh	r3, [sp, #24]
 818 0228 ADF80030 		strh	r3, [sp]	@ movhi
 726:lvgl\src\lv_widgets/lv_cont.c ****             break;
 819              		.loc 1 726 0
 820 022c 13E0     		b	.L42
 821              	.L43:
 727:lvgl\src\lv_widgets/lv_cont.c ****         case LV_FIT_PARENT:
 728:lvgl\src\lv_widgets/lv_cont.c ****             new_area.x1 = parent_area.x1;
 822              		.loc 1 728 0
 823 022e BDF90830 		ldrsh	r3, [sp, #8]
 824 0232 ADF80030 		strh	r3, [sp]	@ movhi
 729:lvgl\src\lv_widgets/lv_cont.c ****             break;
 825              		.loc 1 729 0
 826 0236 0EE0     		b	.L42
 827              	.L44:
 730:lvgl\src\lv_widgets/lv_cont.c ****         case LV_FIT_MAX:
 731:lvgl\src\lv_widgets/lv_cont.c ****             new_area.x1 = has_children ? LV_MATH_MIN(tight_area.x1, parent_area.x1) : parent_area.x
 828              		.loc 1 731 0
 829 0238 B9F1000F 		cmp	r9, #0
 830 023c 07D0     		beq	.L46
 831              		.loc 1 731 0 is_stmt 0 discriminator 1
 832 023e BDF90820 		ldrsh	r2, [sp, #8]
 833              	.LVL129:
 834 0242 BDF91830 		ldrsh	r3, [sp, #24]
 835 0246 9342     		cmp	r3, r2
 836 0248 A8BF     		it	ge
 837 024a 1346     		movge	r3, r2
 838 024c 01E0     		b	.L47
 839              	.LVL130:
ARM GAS  C:\Users\strap\AppData\Local\Temp\cc7wbcEe.s 			page 35


 840              	.L46:
 841              		.loc 1 731 0 discriminator 2
 842 024e BDF90830 		ldrsh	r3, [sp, #8]
 843              	.LVL131:
 844              	.L47:
 845              		.loc 1 731 0 discriminator 4
 846 0252 ADF80030 		strh	r3, [sp]	@ movhi
 847              	.L42:
 732:lvgl\src\lv_widgets/lv_cont.c ****             break;
 733:lvgl\src\lv_widgets/lv_cont.c ****         default:
 734:lvgl\src\lv_widgets/lv_cont.c ****             break;
 735:lvgl\src\lv_widgets/lv_cont.c ****     }
 736:lvgl\src\lv_widgets/lv_cont.c **** 
 737:lvgl\src\lv_widgets/lv_cont.c ****     switch(ext->fit_right) {
 848              		.loc 1 737 0 is_stmt 1
 849 0256 98F80030 		ldrb	r3, [r8]	@ zero_extendqisi2
 850 025a 9B09     		lsrs	r3, r3, #6
 851 025c 022B     		cmp	r3, #2
 852 025e 07D0     		beq	.L49
 853 0260 0BD8     		bhi	.L50
 854 0262 012B     		cmp	r3, #1
 855 0264 18D1     		bne	.L48
 738:lvgl\src\lv_widgets/lv_cont.c ****         case LV_FIT_TIGHT:
 739:lvgl\src\lv_widgets/lv_cont.c ****             new_area.x2 = tight_area.x2;
 856              		.loc 1 739 0
 857 0266 BDF91C30 		ldrsh	r3, [sp, #28]
 858 026a ADF80430 		strh	r3, [sp, #4]	@ movhi
 740:lvgl\src\lv_widgets/lv_cont.c ****             break;
 859              		.loc 1 740 0
 860 026e 13E0     		b	.L48
 861              	.L49:
 741:lvgl\src\lv_widgets/lv_cont.c ****         case LV_FIT_PARENT:
 742:lvgl\src\lv_widgets/lv_cont.c ****             new_area.x2 = parent_area.x2;
 862              		.loc 1 742 0
 863 0270 BDF90C30 		ldrsh	r3, [sp, #12]
 864 0274 ADF80430 		strh	r3, [sp, #4]	@ movhi
 743:lvgl\src\lv_widgets/lv_cont.c ****             break;
 865              		.loc 1 743 0
 866 0278 0EE0     		b	.L48
 867              	.L50:
 744:lvgl\src\lv_widgets/lv_cont.c ****         case LV_FIT_MAX:
 745:lvgl\src\lv_widgets/lv_cont.c ****             new_area.x2 = has_children ? LV_MATH_MAX(tight_area.x2, parent_area.x2) : parent_area.x
 868              		.loc 1 745 0
 869 027a B9F1000F 		cmp	r9, #0
 870 027e 07D0     		beq	.L52
 871              		.loc 1 745 0 is_stmt 0 discriminator 1
 872 0280 BDF90C20 		ldrsh	r2, [sp, #12]
 873 0284 BDF91C30 		ldrsh	r3, [sp, #28]
 874 0288 9342     		cmp	r3, r2
 875 028a B8BF     		it	lt
 876 028c 1346     		movlt	r3, r2
 877 028e 01E0     		b	.L53
 878              	.L52:
 879              		.loc 1 745 0 discriminator 2
 880 0290 BDF90C30 		ldrsh	r3, [sp, #12]
 881              	.L53:
 882              		.loc 1 745 0 discriminator 4
ARM GAS  C:\Users\strap\AppData\Local\Temp\cc7wbcEe.s 			page 36


 883 0294 ADF80430 		strh	r3, [sp, #4]	@ movhi
 884              	.L48:
 746:lvgl\src\lv_widgets/lv_cont.c ****             break;
 747:lvgl\src\lv_widgets/lv_cont.c ****         default:
 748:lvgl\src\lv_widgets/lv_cont.c ****             break;
 749:lvgl\src\lv_widgets/lv_cont.c ****     }
 750:lvgl\src\lv_widgets/lv_cont.c **** 
 751:lvgl\src\lv_widgets/lv_cont.c ****     switch(ext->fit_top) {
 885              		.loc 1 751 0 is_stmt 1
 886 0298 98F80130 		ldrb	r3, [r8, #1]	@ zero_extendqisi2
 887 029c 03F00303 		and	r3, r3, #3
 888 02a0 022B     		cmp	r3, #2
 889 02a2 07D0     		beq	.L55
 890 02a4 0BD8     		bhi	.L56
 891 02a6 012B     		cmp	r3, #1
 892 02a8 18D1     		bne	.L54
 752:lvgl\src\lv_widgets/lv_cont.c ****         case LV_FIT_TIGHT:
 753:lvgl\src\lv_widgets/lv_cont.c ****             new_area.y1 = tight_area.y1;
 893              		.loc 1 753 0
 894 02aa BDF91A30 		ldrsh	r3, [sp, #26]
 895 02ae ADF80230 		strh	r3, [sp, #2]	@ movhi
 754:lvgl\src\lv_widgets/lv_cont.c ****             break;
 896              		.loc 1 754 0
 897 02b2 13E0     		b	.L54
 898              	.L55:
 755:lvgl\src\lv_widgets/lv_cont.c ****         case LV_FIT_PARENT:
 756:lvgl\src\lv_widgets/lv_cont.c ****             new_area.y1 = parent_area.y1;
 899              		.loc 1 756 0
 900 02b4 BDF90A30 		ldrsh	r3, [sp, #10]
 901 02b8 ADF80230 		strh	r3, [sp, #2]	@ movhi
 757:lvgl\src\lv_widgets/lv_cont.c ****             break;
 902              		.loc 1 757 0
 903 02bc 0EE0     		b	.L54
 904              	.L56:
 758:lvgl\src\lv_widgets/lv_cont.c ****         case LV_FIT_MAX:
 759:lvgl\src\lv_widgets/lv_cont.c ****             new_area.y1 = has_children ? LV_MATH_MIN(tight_area.y1, parent_area.y1) : parent_area.y
 905              		.loc 1 759 0
 906 02be B9F1000F 		cmp	r9, #0
 907 02c2 07D0     		beq	.L58
 908              		.loc 1 759 0 is_stmt 0 discriminator 1
 909 02c4 BDF90A20 		ldrsh	r2, [sp, #10]
 910 02c8 BDF91A30 		ldrsh	r3, [sp, #26]
 911 02cc 9342     		cmp	r3, r2
 912 02ce A8BF     		it	ge
 913 02d0 1346     		movge	r3, r2
 914 02d2 01E0     		b	.L59
 915              	.L58:
 916              		.loc 1 759 0 discriminator 2
 917 02d4 BDF90A30 		ldrsh	r3, [sp, #10]
 918              	.L59:
 919              		.loc 1 759 0 discriminator 4
 920 02d8 ADF80230 		strh	r3, [sp, #2]	@ movhi
 921              	.L54:
 760:lvgl\src\lv_widgets/lv_cont.c ****             break;
 761:lvgl\src\lv_widgets/lv_cont.c ****         default:
 762:lvgl\src\lv_widgets/lv_cont.c ****             break;
 763:lvgl\src\lv_widgets/lv_cont.c ****     }
ARM GAS  C:\Users\strap\AppData\Local\Temp\cc7wbcEe.s 			page 37


 764:lvgl\src\lv_widgets/lv_cont.c **** 
 765:lvgl\src\lv_widgets/lv_cont.c ****     switch(ext->fit_bottom) {
 922              		.loc 1 765 0 is_stmt 1
 923 02dc 98F80130 		ldrb	r3, [r8, #1]	@ zero_extendqisi2
 924 02e0 C3F38103 		ubfx	r3, r3, #2, #2
 925 02e4 022B     		cmp	r3, #2
 926 02e6 07D0     		beq	.L61
 927 02e8 0BD8     		bhi	.L62
 928 02ea 012B     		cmp	r3, #1
 929 02ec 18D1     		bne	.L60
 766:lvgl\src\lv_widgets/lv_cont.c ****         case LV_FIT_TIGHT:
 767:lvgl\src\lv_widgets/lv_cont.c ****             new_area.y2 = tight_area.y2;
 930              		.loc 1 767 0
 931 02ee BDF91E30 		ldrsh	r3, [sp, #30]
 932 02f2 ADF80630 		strh	r3, [sp, #6]	@ movhi
 768:lvgl\src\lv_widgets/lv_cont.c ****             break;
 933              		.loc 1 768 0
 934 02f6 13E0     		b	.L60
 935              	.L61:
 769:lvgl\src\lv_widgets/lv_cont.c ****         case LV_FIT_PARENT:
 770:lvgl\src\lv_widgets/lv_cont.c ****             new_area.y2 = parent_area.y2;
 936              		.loc 1 770 0
 937 02f8 BDF90E30 		ldrsh	r3, [sp, #14]
 938 02fc ADF80630 		strh	r3, [sp, #6]	@ movhi
 771:lvgl\src\lv_widgets/lv_cont.c ****             break;
 939              		.loc 1 771 0
 940 0300 0EE0     		b	.L60
 941              	.L62:
 772:lvgl\src\lv_widgets/lv_cont.c ****         case LV_FIT_MAX:
 773:lvgl\src\lv_widgets/lv_cont.c ****             new_area.y2 = has_children ? LV_MATH_MAX(tight_area.y2, parent_area.y2) : parent_area.y
 942              		.loc 1 773 0
 943 0302 B9F1000F 		cmp	r9, #0
 944 0306 07D0     		beq	.L64
 945              		.loc 1 773 0 is_stmt 0 discriminator 1
 946 0308 BDF90E20 		ldrsh	r2, [sp, #14]
 947 030c BDF91E30 		ldrsh	r3, [sp, #30]
 948 0310 9342     		cmp	r3, r2
 949 0312 B8BF     		it	lt
 950 0314 1346     		movlt	r3, r2
 951 0316 01E0     		b	.L65
 952              	.L64:
 953              		.loc 1 773 0 discriminator 2
 954 0318 BDF90E30 		ldrsh	r3, [sp, #14]
 955              	.L65:
 956              		.loc 1 773 0 discriminator 4
 957 031c ADF80630 		strh	r3, [sp, #6]	@ movhi
 958              	.L60:
 774:lvgl\src\lv_widgets/lv_cont.c ****             break;
 775:lvgl\src\lv_widgets/lv_cont.c ****         default:
 776:lvgl\src\lv_widgets/lv_cont.c ****             break;
 777:lvgl\src\lv_widgets/lv_cont.c ****     }
 778:lvgl\src\lv_widgets/lv_cont.c **** 
 779:lvgl\src\lv_widgets/lv_cont.c ****     /*Do nothing if the coordinates are not changed*/
 780:lvgl\src\lv_widgets/lv_cont.c ****     if(cont->coords.x1 != new_area.x1 || cont->coords.y1 != new_area.y1 || cont->coords.x2 != new_a
 959              		.loc 1 780 0 is_stmt 1
 960 0320 B4F91020 		ldrsh	r2, [r4, #16]
 961 0324 BDF90030 		ldrsh	r3, [sp]
ARM GAS  C:\Users\strap\AppData\Local\Temp\cc7wbcEe.s 			page 38


 962 0328 9A42     		cmp	r2, r3
 963 032a 11D1     		bne	.L66
 964              		.loc 1 780 0 is_stmt 0 discriminator 1
 965 032c B4F91220 		ldrsh	r2, [r4, #18]
 966 0330 BDF90230 		ldrsh	r3, [sp, #2]
 967 0334 9A42     		cmp	r2, r3
 968 0336 0BD1     		bne	.L66
 969              		.loc 1 780 0 discriminator 2
 970 0338 B4F91420 		ldrsh	r2, [r4, #20]
 971 033c BDF90430 		ldrsh	r3, [sp, #4]
 972 0340 9A42     		cmp	r2, r3
 973 0342 05D1     		bne	.L66
 781:lvgl\src\lv_widgets/lv_cont.c ****        cont->coords.y2 != new_area.y2) {
 974              		.loc 1 781 0 is_stmt 1 discriminator 3
 975 0344 B4F91620 		ldrsh	r2, [r4, #22]
 976 0348 BDF90630 		ldrsh	r3, [sp, #6]
 780:lvgl\src\lv_widgets/lv_cont.c ****        cont->coords.y2 != new_area.y2) {
 977              		.loc 1 780 0 discriminator 3
 978 034c 9A42     		cmp	r2, r3
 979 034e 33D0     		beq	.L27
 980              	.L66:
 782:lvgl\src\lv_widgets/lv_cont.c **** 
 783:lvgl\src\lv_widgets/lv_cont.c ****         lv_obj_invalidate(cont);
 981              		.loc 1 783 0
 982 0350 2046     		mov	r0, r4
 983 0352 FFF7FEFF 		bl	lv_obj_invalidate
 984              	.LVL132:
 784:lvgl\src\lv_widgets/lv_cont.c ****         lv_area_copy(&cont->coords, &new_area);
 985              		.loc 1 784 0
 986 0356 04F11001 		add	r1, r4, #16
 987              	.LVL133:
 988              	.LBB164:
 989              	.LBB165:
 990              	.LBB166:
 217:lvgl\src\lv_widgets\../lv_core/../lv_font/../lv_misc/lv_mem.h **** 
 991              		.loc 3 217 0
 992 035a 6A46     		mov	r2, sp
 993              	.LBE166:
 994              	.LBE165:
 995              	.LBE164:
 996              		.loc 1 784 0
 997 035c 0823     		movs	r3, #8
 998 035e 04E0     		b	.L68
 999              	.LVL134:
 1000              	.L69:
 1001              	.LBB169:
 1002              	.LBB168:
 1003              	.LBB167:
 220:lvgl\src\lv_widgets\../lv_core/../lv_font/../lv_misc/lv_mem.h ****         d8++;
 1004              		.loc 3 220 0
 1005 0360 12F8010B 		ldrb	r0, [r2], #1	@ zero_extendqisi2
 1006              	.LVL135:
 1007 0364 01F8010B 		strb	r0, [r1], #1
 1008              	.LVL136:
 1009              		.loc 3 223 0
 1010 0368 013B     		subs	r3, r3, #1
 1011              	.LVL137:
ARM GAS  C:\Users\strap\AppData\Local\Temp\cc7wbcEe.s 			page 39


 1012              	.L68:
 219:lvgl\src\lv_widgets\../lv_core/../lv_font/../lv_misc/lv_mem.h ****         *d8 = *s8;
 1013              		.loc 3 219 0
 1014 036a 002B     		cmp	r3, #0
 1015 036c F8D1     		bne	.L69
 1016              	.LVL138:
 1017              	.LBE167:
 1018              	.LBE168:
 1019              	.LBE169:
 785:lvgl\src\lv_widgets/lv_cont.c ****         lv_obj_invalidate(cont);
 1020              		.loc 1 785 0
 1021 036e 2046     		mov	r0, r4
 1022 0370 FFF7FEFF 		bl	lv_obj_invalidate
 1023              	.LVL139:
 786:lvgl\src\lv_widgets/lv_cont.c **** 
 787:lvgl\src\lv_widgets/lv_cont.c ****         /*Notify the object about its new coordinates*/
 788:lvgl\src\lv_widgets/lv_cont.c ****         cont->signal_cb(cont, LV_SIGNAL_COORD_CHG, &ori);
 1024              		.loc 1 788 0
 1025 0374 E369     		ldr	r3, [r4, #28]
 1026 0376 04AA     		add	r2, sp, #16
 1027 0378 0221     		movs	r1, #2
 1028 037a 2046     		mov	r0, r4
 1029 037c 9847     		blx	r3
 1030              	.LVL140:
 789:lvgl\src\lv_widgets/lv_cont.c **** 
 790:lvgl\src\lv_widgets/lv_cont.c ****         /*Inform the parent about the new coordinates*/
 791:lvgl\src\lv_widgets/lv_cont.c ****         par->signal_cb(par, LV_SIGNAL_CHILD_CHG, cont);
 1031              		.loc 1 791 0
 1032 037e FB69     		ldr	r3, [r7, #28]
 1033 0380 2246     		mov	r2, r4
 1034 0382 0121     		movs	r1, #1
 1035 0384 3846     		mov	r0, r7
 1036 0386 9847     		blx	r3
 1037              	.LVL141:
 792:lvgl\src\lv_widgets/lv_cont.c **** 
 793:lvgl\src\lv_widgets/lv_cont.c ****         if(lv_obj_get_auto_realign(cont)) {
 1038              		.loc 1 793 0
 1039 0388 2046     		mov	r0, r4
 1040 038a FFF7FEFF 		bl	lv_obj_get_auto_realign
 1041              	.LVL142:
 1042 038e 10B1     		cbz	r0, .L70
 794:lvgl\src\lv_widgets/lv_cont.c ****             lv_obj_realign(cont);
 1043              		.loc 1 794 0
 1044 0390 2046     		mov	r0, r4
 1045 0392 FFF7FEFF 		bl	lv_obj_realign
 1046              	.LVL143:
 1047              	.L70:
 795:lvgl\src\lv_widgets/lv_cont.c ****         }
 796:lvgl\src\lv_widgets/lv_cont.c **** 
 797:lvgl\src\lv_widgets/lv_cont.c ****         /*Tell the children the parent's size has changed*/
 798:lvgl\src\lv_widgets/lv_cont.c ****         _LV_LL_READ(cont->child_ll, child_i) {
 1048              		.loc 1 798 0
 1049 0396 3046     		mov	r0, r6
 1050 0398 FFF7FEFF 		bl	_lv_ll_get_head
 1051              	.LVL144:
 1052 039c 0446     		mov	r4, r0
 1053              	.LVL145:
ARM GAS  C:\Users\strap\AppData\Local\Temp\cc7wbcEe.s 			page 40


 1054 039e 09E0     		b	.L71
 1055              	.L72:
 799:lvgl\src\lv_widgets/lv_cont.c ****             child_i->signal_cb(child_i, LV_SIGNAL_PARENT_SIZE_CHG, &ori);
 1056              		.loc 1 799 0 discriminator 3
 1057 03a0 E369     		ldr	r3, [r4, #28]
 1058 03a2 04AA     		add	r2, sp, #16
 1059 03a4 0321     		movs	r1, #3
 1060 03a6 2046     		mov	r0, r4
 1061              	.LVL146:
 1062 03a8 9847     		blx	r3
 1063              	.LVL147:
 798:lvgl\src\lv_widgets/lv_cont.c ****             child_i->signal_cb(child_i, LV_SIGNAL_PARENT_SIZE_CHG, &ori);
 1064              		.loc 1 798 0 discriminator 3
 1065 03aa 2146     		mov	r1, r4
 1066 03ac 3046     		mov	r0, r6
 1067 03ae FFF7FEFF 		bl	_lv_ll_get_next
 1068              	.LVL148:
 1069 03b2 0446     		mov	r4, r0
 1070              	.LVL149:
 1071              	.L71:
 798:lvgl\src\lv_widgets/lv_cont.c ****             child_i->signal_cb(child_i, LV_SIGNAL_PARENT_SIZE_CHG, &ori);
 1072              		.loc 1 798 0 is_stmt 0 discriminator 1
 1073 03b4 002C     		cmp	r4, #0
 1074 03b6 F3D1     		bne	.L72
 1075              	.LVL150:
 1076              	.L27:
 800:lvgl\src\lv_widgets/lv_cont.c ****         }
 801:lvgl\src\lv_widgets/lv_cont.c ****     }
 802:lvgl\src\lv_widgets/lv_cont.c **** }
 1077              		.loc 1 802 0 is_stmt 1
 1078 03b8 09B0     		add	sp, sp, #36
 1079              		.cfi_def_cfa_offset 28
 1080              		@ sp needed
 1081 03ba BDE8F083 		pop	{r4, r5, r6, r7, r8, r9, pc}
 1082              		.cfi_endproc
 1083              	.LFE346:
 1084              		.size	lv_cont_refr_autofit, .-lv_cont_refr_autofit
 1085 03be 00BF     		.section	.text.lv_cont_create,"ax",%progbits
 1086              		.align	2
 1087              		.global	lv_cont_create
 1088              		.thumb
 1089              		.thumb_func
 1090              		.type	lv_cont_create, %function
 1091              	lv_cont_create:
 1092              	.LFB330:
  68:lvgl\src\lv_widgets/lv_cont.c **** 
 1093              		.loc 1 68 0
 1094              		.cfi_startproc
 1095              		@ args = 0, pretend = 0, frame = 0
 1096              		@ frame_needed = 0, uses_anonymous_args = 0
 1097              	.LVL151:
 1098 0000 F8B5     		push	{r3, r4, r5, r6, r7, lr}
 1099              		.cfi_def_cfa_offset 24
 1100              		.cfi_offset 3, -24
 1101              		.cfi_offset 4, -20
 1102              		.cfi_offset 5, -16
 1103              		.cfi_offset 6, -12
ARM GAS  C:\Users\strap\AppData\Local\Temp\cc7wbcEe.s 			page 41


 1104              		.cfi_offset 7, -8
 1105              		.cfi_offset 14, -4
 1106 0002 0746     		mov	r7, r0
 1107 0004 0E46     		mov	r6, r1
  73:lvgl\src\lv_widgets/lv_cont.c ****     LV_ASSERT_MEM(cont);
 1108              		.loc 1 73 0
 1109 0006 FFF7FEFF 		bl	lv_obj_create
 1110              	.LVL152:
 1111 000a 0446     		mov	r4, r0
 1112              	.LVL153:
  74:lvgl\src\lv_widgets/lv_cont.c ****     if(cont == NULL) return NULL;
 1113              		.loc 1 74 0
 1114 000c FFF7FEFF 		bl	lv_debug_check_null
 1115              	.LVL154:
 1116 0010 28B9     		cbnz	r0, .L77
  74:lvgl\src\lv_widgets/lv_cont.c ****     if(cont == NULL) return NULL;
 1117              		.loc 1 74 0 is_stmt 0 discriminator 1
 1118 0012 2246     		mov	r2, r4
 1119 0014 0023     		movs	r3, #0
 1120 0016 3848     		ldr	r0, .L89
 1121 0018 FFF7FEFF 		bl	lv_debug_log_error
 1122              	.LVL155:
 1123              	.L78:
 1124 001c FEE7     		b	.L78
 1125              	.L77:
  75:lvgl\src\lv_widgets/lv_cont.c **** 
 1126              		.loc 1 75 0 is_stmt 1
 1127 001e 002C     		cmp	r4, #0
 1128 0020 66D0     		beq	.L86
  77:lvgl\src\lv_widgets/lv_cont.c ****     if(ancestor_design == NULL) ancestor_design = lv_obj_get_design_cb(cont);
 1129              		.loc 1 77 0
 1130 0022 364B     		ldr	r3, .L89+4
 1131 0024 1B68     		ldr	r3, [r3]
 1132 0026 23B9     		cbnz	r3, .L80
  77:lvgl\src\lv_widgets/lv_cont.c ****     if(ancestor_design == NULL) ancestor_design = lv_obj_get_design_cb(cont);
 1133              		.loc 1 77 0 is_stmt 0 discriminator 1
 1134 0028 2046     		mov	r0, r4
 1135 002a FFF7FEFF 		bl	lv_obj_get_signal_cb
 1136              	.LVL156:
 1137 002e 334B     		ldr	r3, .L89+4
 1138 0030 1860     		str	r0, [r3]
 1139              	.L80:
  78:lvgl\src\lv_widgets/lv_cont.c **** 
 1140              		.loc 1 78 0 is_stmt 1
 1141 0032 324B     		ldr	r3, .L89+4
 1142 0034 5B68     		ldr	r3, [r3, #4]
 1143 0036 23B9     		cbnz	r3, .L81
  78:lvgl\src\lv_widgets/lv_cont.c **** 
 1144              		.loc 1 78 0 is_stmt 0 discriminator 1
 1145 0038 2046     		mov	r0, r4
 1146 003a FFF7FEFF 		bl	lv_obj_get_design_cb
 1147              	.LVL157:
 1148 003e 2F4B     		ldr	r3, .L89+4
 1149 0040 5860     		str	r0, [r3, #4]
 1150              	.L81:
  80:lvgl\src\lv_widgets/lv_cont.c ****     lv_cont_ext_t * ext = lv_obj_get_ext_attr(cont);
 1151              		.loc 1 80 0 is_stmt 1
ARM GAS  C:\Users\strap\AppData\Local\Temp\cc7wbcEe.s 			page 42


 1152 0042 0221     		movs	r1, #2
 1153 0044 2046     		mov	r0, r4
 1154 0046 FFF7FEFF 		bl	lv_obj_allocate_ext_attr
 1155              	.LVL158:
  81:lvgl\src\lv_widgets/lv_cont.c ****     if(ext == NULL) {
 1156              		.loc 1 81 0
 1157 004a 2046     		mov	r0, r4
 1158 004c FFF7FEFF 		bl	lv_obj_get_ext_attr
 1159              	.LVL159:
  82:lvgl\src\lv_widgets/lv_cont.c ****         lv_obj_del(cont);
 1160              		.loc 1 82 0
 1161 0050 0546     		mov	r5, r0
 1162 0052 20B9     		cbnz	r0, .L82
  83:lvgl\src\lv_widgets/lv_cont.c ****         return NULL;
 1163              		.loc 1 83 0
 1164 0054 2046     		mov	r0, r4
 1165              	.LVL160:
 1166 0056 FFF7FEFF 		bl	lv_obj_del
 1167              	.LVL161:
  84:lvgl\src\lv_widgets/lv_cont.c ****     }
 1168              		.loc 1 84 0
 1169 005a 0020     		movs	r0, #0
 1170 005c F8BD     		pop	{r3, r4, r5, r6, r7, pc}
 1171              	.LVL162:
 1172              	.L82:
  87:lvgl\src\lv_widgets/lv_cont.c ****     ext->fit_left   = LV_FIT_NONE;
 1173              		.loc 1 87 0
 1174 005e FFF7FEFF 		bl	lv_debug_check_null
 1175              	.LVL163:
 1176 0062 28B9     		cbnz	r0, .L83
  87:lvgl\src\lv_widgets/lv_cont.c ****     ext->fit_left   = LV_FIT_NONE;
 1177              		.loc 1 87 0 is_stmt 0 discriminator 1
 1178 0064 2A46     		mov	r2, r5
 1179 0066 0023     		movs	r3, #0
 1180 0068 2348     		ldr	r0, .L89
 1181 006a FFF7FEFF 		bl	lv_debug_log_error
 1182              	.LVL164:
 1183              	.L84:
 1184 006e FEE7     		b	.L84
 1185              	.L83:
  88:lvgl\src\lv_widgets/lv_cont.c ****     ext->fit_right  = LV_FIT_NONE;
 1186              		.loc 1 88 0 is_stmt 1
 1187 0070 2B78     		ldrb	r3, [r5]	@ zero_extendqisi2
  90:lvgl\src\lv_widgets/lv_cont.c ****     ext->fit_bottom = LV_FIT_NONE;
 1188              		.loc 1 90 0
 1189 0072 6A78     		ldrb	r2, [r5, #1]	@ zero_extendqisi2
  91:lvgl\src\lv_widgets/lv_cont.c ****     ext->layout     = LV_LAYOUT_OFF;
 1190              		.loc 1 91 0
 1191 0074 02F0FC02 		and	r2, r2, #252
 1192 0078 6FF38302 		bfc	r2, #2, #2
 1193 007c 6A70     		strb	r2, [r5, #1]
  92:lvgl\src\lv_widgets/lv_cont.c **** 
 1194              		.loc 1 92 0
 1195 007e 03F00F03 		and	r3, r3, #15
 1196 0082 6FF30303 		bfc	r3, #0, #4
 1197 0086 2B70     		strb	r3, [r5]
  94:lvgl\src\lv_widgets/lv_cont.c **** 
ARM GAS  C:\Users\strap\AppData\Local\Temp\cc7wbcEe.s 			page 43


 1198              		.loc 1 94 0
 1199 0088 1D49     		ldr	r1, .L89+8
 1200 008a 2046     		mov	r0, r4
 1201 008c FFF7FEFF 		bl	lv_obj_set_signal_cb
 1202              	.LVL165:
  97:lvgl\src\lv_widgets/lv_cont.c ****         /*Set the default styles if it's not screen*/
 1203              		.loc 1 97 0
 1204 0090 36B9     		cbnz	r6, .L85
  99:lvgl\src\lv_widgets/lv_cont.c ****             lv_theme_apply(cont, LV_THEME_CONT);
 1205              		.loc 1 99 0
 1206 0092 7FB3     		cbz	r7, .L87
 100:lvgl\src\lv_widgets/lv_cont.c ****         }
 1207              		.loc 1 100 0
 1208 0094 0621     		movs	r1, #6
 1209 0096 2046     		mov	r0, r4
 1210 0098 FFF7FEFF 		bl	lv_theme_apply
 1211              	.LVL166:
 120:lvgl\src\lv_widgets/lv_cont.c **** }
 1212              		.loc 1 120 0
 1213 009c 2046     		mov	r0, r4
 1214 009e F8BD     		pop	{r3, r4, r5, r6, r7, pc}
 1215              	.LVL167:
 1216              	.L85:
 1217              	.LBB170:
 107:lvgl\src\lv_widgets/lv_cont.c ****         ext->fit_left            = copy_ext->fit_left;
 1218              		.loc 1 107 0
 1219 00a0 3046     		mov	r0, r6
 1220 00a2 FFF7FEFF 		bl	lv_obj_get_ext_attr
 1221              	.LVL168:
 108:lvgl\src\lv_widgets/lv_cont.c ****         ext->fit_right           = copy_ext->fit_right;
 1222              		.loc 1 108 0
 1223 00a6 0378     		ldrb	r3, [r0]	@ zero_extendqisi2
 1224 00a8 C3F30113 		ubfx	r3, r3, #4, #2
 1225 00ac 2A78     		ldrb	r2, [r5]	@ zero_extendqisi2
 1226 00ae 63F30512 		bfi	r2, r3, #4, #2
 1227 00b2 2A70     		strb	r2, [r5]
 109:lvgl\src\lv_widgets/lv_cont.c ****         ext->fit_top             = copy_ext->fit_top;
 1228              		.loc 1 109 0
 1229 00b4 0378     		ldrb	r3, [r0]	@ zero_extendqisi2
 1230 00b6 9B09     		lsrs	r3, r3, #6
 1231 00b8 D2B2     		uxtb	r2, r2
 1232 00ba 63F38712 		bfi	r2, r3, #6, #2
 1233 00be 2A70     		strb	r2, [r5]
 110:lvgl\src\lv_widgets/lv_cont.c ****         ext->fit_bottom          = copy_ext->fit_bottom;
 1234              		.loc 1 110 0
 1235 00c0 4278     		ldrb	r2, [r0, #1]	@ zero_extendqisi2
 1236 00c2 6B78     		ldrb	r3, [r5, #1]	@ zero_extendqisi2
 1237 00c4 62F30103 		bfi	r3, r2, #0, #2
 1238 00c8 6B70     		strb	r3, [r5, #1]
 111:lvgl\src\lv_widgets/lv_cont.c ****         ext->layout              = copy_ext->layout;
 1239              		.loc 1 111 0
 1240 00ca 4378     		ldrb	r3, [r0, #1]	@ zero_extendqisi2
 1241 00cc C3F38103 		ubfx	r3, r3, #2, #2
 1242 00d0 6A78     		ldrb	r2, [r5, #1]	@ zero_extendqisi2
 1243 00d2 63F38302 		bfi	r2, r3, #2, #2
 1244 00d6 6A70     		strb	r2, [r5, #1]
 112:lvgl\src\lv_widgets/lv_cont.c **** 
ARM GAS  C:\Users\strap\AppData\Local\Temp\cc7wbcEe.s 			page 44


 1245              		.loc 1 112 0
 1246 00d8 0278     		ldrb	r2, [r0]	@ zero_extendqisi2
 1247 00da 2B78     		ldrb	r3, [r5]	@ zero_extendqisi2
 1248 00dc 62F30303 		bfi	r3, r2, #0, #4
 1249 00e0 2B70     		strb	r3, [r5]
 115:lvgl\src\lv_widgets/lv_cont.c ****     }
 1250              		.loc 1 115 0
 1251 00e2 FF22     		movs	r2, #255
 1252 00e4 1146     		mov	r1, r2
 1253 00e6 2046     		mov	r0, r4
 1254              	.LVL169:
 1255 00e8 FFF7FEFF 		bl	lv_obj_refresh_style
 1256              	.LVL170:
 1257              	.LBE170:
 120:lvgl\src\lv_widgets/lv_cont.c **** }
 1258              		.loc 1 120 0
 1259 00ec 2046     		mov	r0, r4
 1260 00ee F8BD     		pop	{r3, r4, r5, r6, r7, pc}
 1261              	.LVL171:
 1262              	.L86:
  75:lvgl\src\lv_widgets/lv_cont.c **** 
 1263              		.loc 1 75 0
 1264 00f0 0020     		movs	r0, #0
 1265 00f2 F8BD     		pop	{r3, r4, r5, r6, r7, pc}
 1266              	.LVL172:
 1267              	.L87:
 120:lvgl\src\lv_widgets/lv_cont.c **** }
 1268              		.loc 1 120 0
 1269 00f4 2046     		mov	r0, r4
 121:lvgl\src\lv_widgets/lv_cont.c **** 
 1270              		.loc 1 121 0
 1271 00f6 F8BD     		pop	{r3, r4, r5, r6, r7, pc}
 1272              	.LVL173:
 1273              	.L90:
 1274              		.align	2
 1275              	.L89:
 1276 00f8 00000000 		.word	.LC0
 1277 00fc 00000000 		.word	.LANCHOR0
 1278 0100 00000000 		.word	lv_cont_signal
 1279              		.cfi_endproc
 1280              	.LFE330:
 1281              		.size	lv_cont_create, .-lv_cont_create
 1282              		.section	.text.lv_cont_set_layout,"ax",%progbits
 1283              		.align	2
 1284              		.global	lv_cont_set_layout
 1285              		.thumb
 1286              		.thumb_func
 1287              		.type	lv_cont_set_layout, %function
 1288              	lv_cont_set_layout:
 1289              	.LFB331:
 133:lvgl\src\lv_widgets/lv_cont.c ****     LV_ASSERT_OBJ(cont, LV_OBJX_NAME);
 1290              		.loc 1 133 0
 1291              		.cfi_startproc
 1292              		@ args = 0, pretend = 0, frame = 0
 1293              		@ frame_needed = 0, uses_anonymous_args = 0
 1294              	.LVL174:
 1295 0000 38B5     		push	{r3, r4, r5, lr}
ARM GAS  C:\Users\strap\AppData\Local\Temp\cc7wbcEe.s 			page 45


 1296              		.cfi_def_cfa_offset 16
 1297              		.cfi_offset 3, -16
 1298              		.cfi_offset 4, -12
 1299              		.cfi_offset 5, -8
 1300              		.cfi_offset 14, -4
 1301 0002 0446     		mov	r4, r0
 1302 0004 0D46     		mov	r5, r1
 134:lvgl\src\lv_widgets/lv_cont.c **** 
 1303              		.loc 1 134 0
 1304 0006 FFF7FEFF 		bl	lv_debug_check_null
 1305              	.LVL175:
 1306 000a 28B9     		cbnz	r0, .L92
 134:lvgl\src\lv_widgets/lv_cont.c **** 
 1307              		.loc 1 134 0 is_stmt 0 discriminator 1
 1308 000c 2246     		mov	r2, r4
 1309 000e 0023     		movs	r3, #0
 1310 0010 0A48     		ldr	r0, .L96
 1311 0012 FFF7FEFF 		bl	lv_debug_log_error
 1312              	.LVL176:
 1313              	.L93:
 1314 0016 FEE7     		b	.L93
 1315              	.L92:
 136:lvgl\src\lv_widgets/lv_cont.c ****     if(ext->layout == layout) return;
 1316              		.loc 1 136 0 is_stmt 1
 1317 0018 2046     		mov	r0, r4
 1318 001a FFF7FEFF 		bl	lv_obj_get_ext_attr
 1319              	.LVL177:
 137:lvgl\src\lv_widgets/lv_cont.c **** 
 1320              		.loc 1 137 0
 1321 001e 0378     		ldrb	r3, [r0]	@ zero_extendqisi2
 1322 0020 03F00F03 		and	r3, r3, #15
 1323 0024 AB42     		cmp	r3, r5
 1324 0026 08D0     		beq	.L91
 139:lvgl\src\lv_widgets/lv_cont.c **** 
 1325              		.loc 1 139 0
 1326 0028 0378     		ldrb	r3, [r0]	@ zero_extendqisi2
 1327 002a 65F30303 		bfi	r3, r5, #0, #4
 1328 002e 0370     		strb	r3, [r0]
 142:lvgl\src\lv_widgets/lv_cont.c **** }
 1329              		.loc 1 142 0
 1330 0030 E369     		ldr	r3, [r4, #28]
 1331 0032 0022     		movs	r2, #0
 1332 0034 0121     		movs	r1, #1
 1333 0036 2046     		mov	r0, r4
 1334              	.LVL178:
 1335 0038 9847     		blx	r3
 1336              	.LVL179:
 1337              	.L91:
 1338 003a 38BD     		pop	{r3, r4, r5, pc}
 1339              	.LVL180:
 1340              	.L97:
 1341              		.align	2
 1342              	.L96:
 1343 003c 10000000 		.word	.LC1
 1344              		.cfi_endproc
 1345              	.LFE331:
 1346              		.size	lv_cont_set_layout, .-lv_cont_set_layout
ARM GAS  C:\Users\strap\AppData\Local\Temp\cc7wbcEe.s 			page 46


 1347              		.section	.text.lv_cont_set_fit4,"ax",%progbits
 1348              		.align	2
 1349              		.global	lv_cont_set_fit4
 1350              		.thumb
 1351              		.thumb_func
 1352              		.type	lv_cont_set_fit4, %function
 1353              	lv_cont_set_fit4:
 1354              	.LFB332:
 155:lvgl\src\lv_widgets/lv_cont.c ****     LV_ASSERT_OBJ(cont, LV_OBJX_NAME);
 1355              		.loc 1 155 0
 1356              		.cfi_startproc
 1357              		@ args = 4, pretend = 0, frame = 0
 1358              		@ frame_needed = 0, uses_anonymous_args = 0
 1359              	.LVL181:
 1360 0000 2DE9F041 		push	{r4, r5, r6, r7, r8, lr}
 1361              		.cfi_def_cfa_offset 24
 1362              		.cfi_offset 4, -24
 1363              		.cfi_offset 5, -20
 1364              		.cfi_offset 6, -16
 1365              		.cfi_offset 7, -12
 1366              		.cfi_offset 8, -8
 1367              		.cfi_offset 14, -4
 1368 0004 0446     		mov	r4, r0
 1369 0006 8846     		mov	r8, r1
 1370 0008 1746     		mov	r7, r2
 1371 000a 1E46     		mov	r6, r3
 1372 000c 9DF81850 		ldrb	r5, [sp, #24]	@ zero_extendqisi2
 156:lvgl\src\lv_widgets/lv_cont.c **** 
 1373              		.loc 1 156 0
 1374 0010 FFF7FEFF 		bl	lv_debug_check_null
 1375              	.LVL182:
 1376 0014 28B9     		cbnz	r0, .L99
 156:lvgl\src\lv_widgets/lv_cont.c **** 
 1377              		.loc 1 156 0 is_stmt 0 discriminator 1
 1378 0016 2246     		mov	r2, r4
 1379 0018 0023     		movs	r3, #0
 1380 001a 1848     		ldr	r0, .L104
 1381 001c FFF7FEFF 		bl	lv_debug_log_error
 1382              	.LVL183:
 1383              	.L100:
 1384 0020 FEE7     		b	.L100
 1385              	.L99:
 158:lvgl\src\lv_widgets/lv_cont.c ****     lv_cont_ext_t * ext = lv_obj_get_ext_attr(cont);
 1386              		.loc 1 158 0 is_stmt 1
 1387 0022 2046     		mov	r0, r4
 1388 0024 FFF7FEFF 		bl	lv_obj_invalidate
 1389              	.LVL184:
 159:lvgl\src\lv_widgets/lv_cont.c ****     if(ext->fit_left == left && ext->fit_right == right && ext->fit_top == top && ext->fit_bottom =
 1390              		.loc 1 159 0
 1391 0028 2046     		mov	r0, r4
 1392 002a FFF7FEFF 		bl	lv_obj_get_ext_attr
 1393              	.LVL185:
 160:lvgl\src\lv_widgets/lv_cont.c ****         return;
 1394              		.loc 1 160 0
 1395 002e 0378     		ldrb	r3, [r0]	@ zero_extendqisi2
 1396 0030 C3F30113 		ubfx	r3, r3, #4, #2
 1397 0034 4345     		cmp	r3, r8
ARM GAS  C:\Users\strap\AppData\Local\Temp\cc7wbcEe.s 			page 47


 1398 0036 0DD1     		bne	.L101
 160:lvgl\src\lv_widgets/lv_cont.c ****         return;
 1399              		.loc 1 160 0 is_stmt 0 discriminator 1
 1400 0038 0378     		ldrb	r3, [r0]	@ zero_extendqisi2
 1401 003a B7EB931F 		cmp	r7, r3, lsr #6
 1402 003e 09D1     		bne	.L101
 160:lvgl\src\lv_widgets/lv_cont.c ****         return;
 1403              		.loc 1 160 0 discriminator 2
 1404 0040 4378     		ldrb	r3, [r0, #1]	@ zero_extendqisi2
 1405 0042 03F00303 		and	r3, r3, #3
 1406 0046 B342     		cmp	r3, r6
 1407 0048 04D1     		bne	.L101
 160:lvgl\src\lv_widgets/lv_cont.c ****         return;
 1408              		.loc 1 160 0 discriminator 3
 1409 004a 4378     		ldrb	r3, [r0, #1]	@ zero_extendqisi2
 1410 004c C3F38103 		ubfx	r3, r3, #2, #2
 1411 0050 AB42     		cmp	r3, r5
 1412 0052 10D0     		beq	.L98
 1413              	.L101:
 164:lvgl\src\lv_widgets/lv_cont.c ****     ext->fit_right  = right;
 1414              		.loc 1 164 0 is_stmt 1
 1415 0054 0378     		ldrb	r3, [r0]	@ zero_extendqisi2
 1416 0056 68F30513 		bfi	r3, r8, #4, #2
 165:lvgl\src\lv_widgets/lv_cont.c ****     ext->fit_top    = top;
 1417              		.loc 1 165 0
 1418 005a 67F38713 		bfi	r3, r7, #6, #2
 1419 005e 0370     		strb	r3, [r0]
 166:lvgl\src\lv_widgets/lv_cont.c ****     ext->fit_bottom = bottom;
 1420              		.loc 1 166 0
 1421 0060 4378     		ldrb	r3, [r0, #1]	@ zero_extendqisi2
 1422 0062 66F30103 		bfi	r3, r6, #0, #2
 167:lvgl\src\lv_widgets/lv_cont.c **** 
 1423              		.loc 1 167 0
 1424 0066 65F38303 		bfi	r3, r5, #2, #2
 1425 006a 4370     		strb	r3, [r0, #1]
 170:lvgl\src\lv_widgets/lv_cont.c **** }
 1426              		.loc 1 170 0
 1427 006c E369     		ldr	r3, [r4, #28]
 1428 006e 0022     		movs	r2, #0
 1429 0070 0121     		movs	r1, #1
 1430 0072 2046     		mov	r0, r4
 1431              	.LVL186:
 1432 0074 9847     		blx	r3
 1433              	.LVL187:
 1434              	.L98:
 1435 0076 BDE8F081 		pop	{r4, r5, r6, r7, r8, pc}
 1436              	.LVL188:
 1437              	.L105:
 1438 007a 00BF     		.align	2
 1439              	.L104:
 1440 007c 10000000 		.word	.LC1
 1441              		.cfi_endproc
 1442              	.LFE332:
 1443              		.size	lv_cont_set_fit4, .-lv_cont_set_fit4
 1444              		.section	.text.lv_cont_get_layout,"ax",%progbits
 1445              		.align	2
 1446              		.global	lv_cont_get_layout
ARM GAS  C:\Users\strap\AppData\Local\Temp\cc7wbcEe.s 			page 48


 1447              		.thumb
 1448              		.thumb_func
 1449              		.type	lv_cont_get_layout, %function
 1450              	lv_cont_get_layout:
 1451              	.LFB333:
 183:lvgl\src\lv_widgets/lv_cont.c ****     LV_ASSERT_OBJ(cont, LV_OBJX_NAME);
 1452              		.loc 1 183 0
 1453              		.cfi_startproc
 1454              		@ args = 0, pretend = 0, frame = 0
 1455              		@ frame_needed = 0, uses_anonymous_args = 0
 1456              	.LVL189:
 1457 0000 10B5     		push	{r4, lr}
 1458              		.cfi_def_cfa_offset 8
 1459              		.cfi_offset 4, -8
 1460              		.cfi_offset 14, -4
 1461 0002 0446     		mov	r4, r0
 184:lvgl\src\lv_widgets/lv_cont.c **** 
 1462              		.loc 1 184 0
 1463 0004 FFF7FEFF 		bl	lv_debug_check_null
 1464              	.LVL190:
 1465 0008 28B9     		cbnz	r0, .L107
 184:lvgl\src\lv_widgets/lv_cont.c **** 
 1466              		.loc 1 184 0 is_stmt 0 discriminator 1
 1467 000a 2246     		mov	r2, r4
 1468 000c 0023     		movs	r3, #0
 1469 000e 0548     		ldr	r0, .L110
 1470 0010 FFF7FEFF 		bl	lv_debug_log_error
 1471              	.LVL191:
 1472              	.L108:
 1473 0014 FEE7     		b	.L108
 1474              	.L107:
 186:lvgl\src\lv_widgets/lv_cont.c ****     return ext->layout;
 1475              		.loc 1 186 0 is_stmt 1
 1476 0016 2046     		mov	r0, r4
 1477 0018 FFF7FEFF 		bl	lv_obj_get_ext_attr
 1478              	.LVL192:
 187:lvgl\src\lv_widgets/lv_cont.c **** }
 1479              		.loc 1 187 0
 1480 001c 0078     		ldrb	r0, [r0]	@ zero_extendqisi2
 1481              	.LVL193:
 188:lvgl\src\lv_widgets/lv_cont.c **** 
 1482              		.loc 1 188 0
 1483 001e 00F00F00 		and	r0, r0, #15
 1484 0022 10BD     		pop	{r4, pc}
 1485              	.LVL194:
 1486              	.L111:
 1487              		.align	2
 1488              	.L110:
 1489 0024 10000000 		.word	.LC1
 1490              		.cfi_endproc
 1491              	.LFE333:
 1492              		.size	lv_cont_get_layout, .-lv_cont_get_layout
 1493              		.section	.text.lv_cont_layout_col,"ax",%progbits
 1494              		.align	2
 1495              		.thumb
 1496              		.thumb_func
 1497              		.type	lv_cont_layout_col, %function
ARM GAS  C:\Users\strap\AppData\Local\Temp\cc7wbcEe.s 			page 49


 1498              	lv_cont_layout_col:
 1499              	.LFB341:
 342:lvgl\src\lv_widgets/lv_cont.c ****     lv_coord_t left = lv_obj_get_style_pad_left(cont, LV_CONT_PART_MAIN);
 1500              		.loc 1 342 0
 1501              		.cfi_startproc
 1502              		@ args = 0, pretend = 0, frame = 8
 1503              		@ frame_needed = 0, uses_anonymous_args = 0
 1504              	.LVL195:
 1505 0000 2DE9F04F 		push	{r4, r5, r6, r7, r8, r9, r10, fp, lr}
 1506              		.cfi_def_cfa_offset 36
 1507              		.cfi_offset 4, -36
 1508              		.cfi_offset 5, -32
 1509              		.cfi_offset 6, -28
 1510              		.cfi_offset 7, -24
 1511              		.cfi_offset 8, -20
 1512              		.cfi_offset 9, -16
 1513              		.cfi_offset 10, -12
 1514              		.cfi_offset 11, -8
 1515              		.cfi_offset 14, -4
 1516 0004 85B0     		sub	sp, sp, #20
 1517              		.cfi_def_cfa_offset 56
 1518 0006 8146     		mov	r9, r0
 1519              	.LVL196:
 1520              	.LBB171:
 1521              	.LBB172:
 112:lvgl\src\lv_widgets\../lv_core/lv_obj_style_dec.h **** _LV_OBJ_STYLE_SET_GET_DECLARE(PAD_RIGHT, pad_right, lv_style_int_t, _int, scalar)
 1522              		.loc 2 112 0
 1523 0008 1222     		movs	r2, #18
 1524 000a 0021     		movs	r1, #0
 1525 000c FFF7FEFF 		bl	_lv_obj_get_style_int
 1526              	.LVL197:
 1527 0010 8246     		mov	r10, r0
 1528              	.LVL198:
 1529              	.LBE172:
 1530              	.LBE171:
 1531              	.LBB173:
 1532              	.LBB174:
 113:lvgl\src\lv_widgets\../lv_core/lv_obj_style_dec.h **** _LV_OBJ_STYLE_SET_GET_DECLARE(PAD_INNER, pad_inner, lv_style_int_t, _int, scalar)
 1533              		.loc 2 113 0
 1534 0012 1322     		movs	r2, #19
 1535 0014 0021     		movs	r1, #0
 1536 0016 4846     		mov	r0, r9
 1537 0018 FFF7FEFF 		bl	_lv_obj_get_style_int
 1538              	.LVL199:
 1539 001c 0446     		mov	r4, r0
 1540              	.LVL200:
 1541              	.LBE174:
 1542              	.LBE173:
 1543              	.LBB175:
 1544              	.LBB176:
 110:lvgl\src\lv_widgets\../lv_core/lv_obj_style_dec.h **** _LV_OBJ_STYLE_SET_GET_DECLARE(PAD_BOTTOM, pad_bottom, lv_style_int_t, _int, scalar)
 1545              		.loc 2 110 0
 1546 001e 1022     		movs	r2, #16
 1547 0020 0021     		movs	r1, #0
 1548 0022 4846     		mov	r0, r9
 1549 0024 FFF7FEFF 		bl	_lv_obj_get_style_int
 1550              	.LVL201:
ARM GAS  C:\Users\strap\AppData\Local\Temp\cc7wbcEe.s 			page 50


 1551 0028 0546     		mov	r5, r0
 1552              	.LVL202:
 1553              	.LBE176:
 1554              	.LBE175:
 1555              	.LBB177:
 1556              	.LBB178:
 114:lvgl\src\lv_widgets\../lv_core/lv_obj_style_dec.h **** _LV_OBJ_STYLE_SET_GET_DECLARE(MARGIN_TOP, margin_top, lv_style_int_t, _int, scalar)
 1557              		.loc 2 114 0
 1558 002a 1422     		movs	r2, #20
 1559 002c 0021     		movs	r1, #0
 1560 002e 4846     		mov	r0, r9
 1561 0030 FFF7FEFF 		bl	_lv_obj_get_style_int
 1562              	.LVL203:
 1563 0034 8346     		mov	fp, r0
 1564              	.LVL204:
 1565              	.LBE178:
 1566              	.LBE177:
 348:lvgl\src\lv_widgets/lv_cont.c ****     lv_obj_t * child;
 1567              		.loc 1 348 0
 1568 0036 4846     		mov	r0, r9
 1569 0038 FFF7FEFF 		bl	lv_cont_get_layout
 1570              	.LVL205:
 355:lvgl\src\lv_widgets/lv_cont.c ****         case LV_LAYOUT_COLUMN_LEFT:
 1571              		.loc 1 355 0
 1572 003c 0328     		cmp	r0, #3
 1573 003e 04D0     		beq	.L114
 1574 0040 0428     		cmp	r0, #4
 1575 0042 07D0     		beq	.L115
 1576 0044 0228     		cmp	r0, #2
 1577 0046 0CD1     		bne	.L123
 1578 0048 10E0     		b	.L122
 1579              	.L114:
 361:lvgl\src\lv_widgets/lv_cont.c ****             align     = LV_ALIGN_IN_TOP_MID;
 1580              		.loc 1 361 0
 1581 004a 4FF0000A 		mov	r10, #0
 362:lvgl\src\lv_widgets/lv_cont.c ****             break;
 1582              		.loc 1 362 0
 1583 004e 0223     		movs	r3, #2
 1584 0050 0393     		str	r3, [sp, #12]
 1585 0052 0DE0     		b	.L116
 1586              	.L115:
 365:lvgl\src\lv_widgets/lv_cont.c ****             align     = LV_ALIGN_IN_TOP_RIGHT;
 1587              		.loc 1 365 0
 1588 0054 C4F1000A 		rsb	r10, r4, #0
 1589 0058 0FFA8AFA 		sxth	r10, r10
 1590              	.LVL206:
 366:lvgl\src\lv_widgets/lv_cont.c ****             break;
 1591              		.loc 1 366 0
 1592 005c 0323     		movs	r3, #3
 1593 005e 0393     		str	r3, [sp, #12]
 367:lvgl\src\lv_widgets/lv_cont.c ****         default:
 1594              		.loc 1 367 0
 1595 0060 06E0     		b	.L116
 1596              	.LVL207:
 1597              	.L123:
 369:lvgl\src\lv_widgets/lv_cont.c ****             align     = LV_ALIGN_IN_TOP_LEFT;
 1598              		.loc 1 369 0
ARM GAS  C:\Users\strap\AppData\Local\Temp\cc7wbcEe.s 			page 51


 1599 0062 4FF0000A 		mov	r10, #0
 370:lvgl\src\lv_widgets/lv_cont.c ****             break;
 1600              		.loc 1 370 0
 1601 0066 0123     		movs	r3, #1
 1602 0068 0393     		str	r3, [sp, #12]
 371:lvgl\src\lv_widgets/lv_cont.c ****     }
 1603              		.loc 1 371 0
 1604 006a 01E0     		b	.L116
 1605              	.LVL208:
 1606              	.L122:
 358:lvgl\src\lv_widgets/lv_cont.c ****             break;
 1607              		.loc 1 358 0
 1608 006c 0123     		movs	r3, #1
 1609 006e 0393     		str	r3, [sp, #12]
 1610              	.L116:
 1611              	.LVL209:
 376:lvgl\src\lv_widgets/lv_cont.c ****     /* Align the children */
 1612              		.loc 1 376 0
 1613 0070 0121     		movs	r1, #1
 1614 0072 4846     		mov	r0, r9
 1615              	.LVL210:
 1616 0074 FFF7FEFF 		bl	lv_obj_add_protect
 1617              	.LVL211:
 379:lvgl\src\lv_widgets/lv_cont.c ****         if(lv_obj_get_hidden(child) != false || lv_obj_is_protected(child, LV_PROTECT_POS) != false
 1618              		.loc 1 379 0
 1619 0078 09F10408 		add	r8, r9, #4
 1620 007c 4046     		mov	r0, r8
 1621 007e FFF7FEFF 		bl	_lv_ll_get_tail
 1622              	.LVL212:
 1623 0082 0446     		mov	r4, r0
 1624              	.LVL213:
 1625 0084 2E46     		mov	r6, r5
 1626 0086 32E0     		b	.L117
 1627              	.LVL214:
 1628              	.L121:
 1629              	.LBB179:
 380:lvgl\src\lv_widgets/lv_cont.c ****         lv_style_int_t mtop = lv_obj_get_style_margin_top(child, LV_OBJ_PART_MAIN);
 1630              		.loc 1 380 0
 1631 0088 2046     		mov	r0, r4
 1632              	.LVL215:
 1633 008a FFF7FEFF 		bl	lv_obj_get_hidden
 1634              	.LVL216:
 1635 008e 48BB     		cbnz	r0, .L120
 380:lvgl\src\lv_widgets/lv_cont.c ****         lv_style_int_t mtop = lv_obj_get_style_margin_top(child, LV_OBJ_PART_MAIN);
 1636              		.loc 1 380 0 is_stmt 0 discriminator 2
 1637 0090 0421     		movs	r1, #4
 1638 0092 2046     		mov	r0, r4
 1639 0094 FFF7FEFF 		bl	lv_obj_is_protected
 1640              	.LVL217:
 1641 0098 20BB     		cbnz	r0, .L120
 1642              	.LVL218:
 1643              	.LBB180:
 1644              	.LBB181:
 115:lvgl\src\lv_widgets\../lv_core/lv_obj_style_dec.h **** _LV_OBJ_STYLE_SET_GET_DECLARE(MARGIN_BOTTOM, margin_bottom, lv_style_int_t, _int, scalar)
 1645              		.loc 2 115 0 is_stmt 1
 1646 009a 1522     		movs	r2, #21
 1647 009c 0021     		movs	r1, #0
ARM GAS  C:\Users\strap\AppData\Local\Temp\cc7wbcEe.s 			page 52


 1648 009e 2046     		mov	r0, r4
 1649 00a0 FFF7FEFF 		bl	_lv_obj_get_style_int
 1650              	.LVL219:
 1651 00a4 0546     		mov	r5, r0
 1652              	.LVL220:
 1653              	.LBE181:
 1654              	.LBE180:
 1655              	.LBB182:
 1656              	.LBB183:
 116:lvgl\src\lv_widgets\../lv_core/lv_obj_style_dec.h **** _LV_OBJ_STYLE_SET_GET_DECLARE(MARGIN_LEFT, margin_left, lv_style_int_t, _int, scalar)
 1657              		.loc 2 116 0
 1658 00a6 1622     		movs	r2, #22
 1659 00a8 0021     		movs	r1, #0
 1660 00aa 2046     		mov	r0, r4
 1661 00ac FFF7FEFF 		bl	_lv_obj_get_style_int
 1662              	.LVL221:
 1663 00b0 0746     		mov	r7, r0
 1664              	.LVL222:
 1665              	.LBE183:
 1666              	.LBE182:
 1667              	.LBB184:
 1668              	.LBB185:
 117:lvgl\src\lv_widgets\../lv_core/lv_obj_style_dec.h **** _LV_OBJ_STYLE_SET_GET_DECLARE(MARGIN_RIGHT, margin_right, lv_style_int_t, _int, scalar)
 1669              		.loc 2 117 0
 1670 00b2 1722     		movs	r2, #23
 1671 00b4 0021     		movs	r1, #0
 1672 00b6 2046     		mov	r0, r4
 1673 00b8 FFF7FEFF 		bl	_lv_obj_get_style_int
 1674              	.LVL223:
 1675              	.LBE185:
 1676              	.LBE184:
 384:lvgl\src\lv_widgets/lv_cont.c ****         last_cord += lv_obj_get_height(child) + inner + mtop + mbottom;
 1677              		.loc 1 384 0
 1678 00bc B6B2     		uxth	r6, r6
 1679 00be 0AEB0003 		add	r3, r10, r0
 1680 00c2 7219     		adds	r2, r6, r5
 1681 00c4 12B2     		sxth	r2, r2
 1682 00c6 0092     		str	r2, [sp]
 1683 00c8 1BB2     		sxth	r3, r3
 1684 00ca 039A     		ldr	r2, [sp, #12]
 1685 00cc 4946     		mov	r1, r9
 1686 00ce 2046     		mov	r0, r4
 1687 00d0 FFF7FEFF 		bl	lv_obj_align
 1688              	.LVL224:
 385:lvgl\src\lv_widgets/lv_cont.c ****     }
 1689              		.loc 1 385 0
 1690 00d4 2046     		mov	r0, r4
 1691 00d6 FFF7FEFF 		bl	lv_obj_get_height
 1692              	.LVL225:
 1693 00da 5844     		add	r0, r0, fp
 1694 00dc 2844     		add	r0, r0, r5
 1695 00de 3844     		add	r0, r0, r7
 1696 00e0 3518     		adds	r5, r6, r0
 1697 00e2 2EB2     		sxth	r6, r5
 1698              	.LVL226:
 1699              	.L120:
 1700              	.LBE179:
ARM GAS  C:\Users\strap\AppData\Local\Temp\cc7wbcEe.s 			page 53


 379:lvgl\src\lv_widgets/lv_cont.c ****         if(lv_obj_get_hidden(child) != false || lv_obj_is_protected(child, LV_PROTECT_POS) != false
 1701              		.loc 1 379 0 discriminator 2
 1702 00e4 2146     		mov	r1, r4
 1703 00e6 4046     		mov	r0, r8
 1704 00e8 FFF7FEFF 		bl	_lv_ll_get_prev
 1705              	.LVL227:
 1706 00ec 0446     		mov	r4, r0
 1707              	.LVL228:
 1708              	.L117:
 379:lvgl\src\lv_widgets/lv_cont.c ****         if(lv_obj_get_hidden(child) != false || lv_obj_is_protected(child, LV_PROTECT_POS) != false
 1709              		.loc 1 379 0 is_stmt 0 discriminator 1
 1710 00ee 002C     		cmp	r4, #0
 1711 00f0 CAD1     		bne	.L121
 388:lvgl\src\lv_widgets/lv_cont.c **** }
 1712              		.loc 1 388 0 is_stmt 1
 1713 00f2 0121     		movs	r1, #1
 1714 00f4 4846     		mov	r0, r9
 1715              	.LVL229:
 1716 00f6 FFF7FEFF 		bl	lv_obj_clear_protect
 1717              	.LVL230:
 389:lvgl\src\lv_widgets/lv_cont.c **** 
 1718              		.loc 1 389 0
 1719 00fa 05B0     		add	sp, sp, #20
 1720              		.cfi_def_cfa_offset 36
 1721              		@ sp needed
 1722 00fc BDE8F08F 		pop	{r4, r5, r6, r7, r8, r9, r10, fp, pc}
 1723              		.cfi_endproc
 1724              	.LFE341:
 1725              		.size	lv_cont_layout_col, .-lv_cont_layout_col
 1726              		.section	.text.lv_cont_layout_row,"ax",%progbits
 1727              		.align	2
 1728              		.thumb
 1729              		.thumb_func
 1730              		.type	lv_cont_layout_row, %function
 1731              	lv_cont_layout_row:
 1732              	.LFB342:
 396:lvgl\src\lv_widgets/lv_cont.c **** 
 1733              		.loc 1 396 0
 1734              		.cfi_startproc
 1735              		@ args = 0, pretend = 0, frame = 0
 1736              		@ frame_needed = 0, uses_anonymous_args = 0
 1737              	.LVL231:
 1738 0000 2DE9F04F 		push	{r4, r5, r6, r7, r8, r9, r10, fp, lr}
 1739              		.cfi_def_cfa_offset 36
 1740              		.cfi_offset 4, -36
 1741              		.cfi_offset 5, -32
 1742              		.cfi_offset 6, -28
 1743              		.cfi_offset 7, -24
 1744              		.cfi_offset 8, -20
 1745              		.cfi_offset 9, -16
 1746              		.cfi_offset 10, -12
 1747              		.cfi_offset 11, -8
 1748              		.cfi_offset 14, -4
 1749 0004 83B0     		sub	sp, sp, #12
 1750              		.cfi_def_cfa_offset 48
 1751 0006 0646     		mov	r6, r0
 398:lvgl\src\lv_widgets/lv_cont.c ****     lv_obj_t * child;
ARM GAS  C:\Users\strap\AppData\Local\Temp\cc7wbcEe.s 			page 54


 1752              		.loc 1 398 0
 1753 0008 FFF7FEFF 		bl	lv_cont_get_layout
 1754              	.LVL232:
 1755 000c 0446     		mov	r4, r0
 1756              	.LVL233:
 404:lvgl\src\lv_widgets/lv_cont.c ****     switch(type) {
 1757              		.loc 1 404 0
 1758 000e 3046     		mov	r0, r6
 1759 0010 FFF7FEFF 		bl	lv_obj_get_base_dir
 1760              	.LVL234:
 1761 0014 0746     		mov	r7, r0
 1762              	.LVL235:
 405:lvgl\src\lv_widgets/lv_cont.c ****         case LV_LAYOUT_ROW_TOP:
 1763              		.loc 1 405 0
 1764 0016 062C     		cmp	r4, #6
 1765 0018 0ED0     		beq	.L127
 1766 001a 072C     		cmp	r4, #7
 1767 001c 13D0     		beq	.L128
 1768 001e 052C     		cmp	r4, #5
 1769 0020 1ED1     		bne	.L144
 1770              	.LVL236:
 1771              	.LBB186:
 1772              	.LBB187:
 110:lvgl\src\lv_widgets\../lv_core/lv_obj_style_dec.h **** _LV_OBJ_STYLE_SET_GET_DECLARE(PAD_BOTTOM, pad_bottom, lv_style_int_t, _int, scalar)
 1773              		.loc 2 110 0
 1774 0022 1022     		movs	r2, #16
 1775 0024 0021     		movs	r1, #0
 1776 0026 3046     		mov	r0, r6
 1777              	.LVL237:
 1778 0028 FFF7FEFF 		bl	_lv_obj_get_style_int
 1779              	.LVL238:
 1780 002c 8046     		mov	r8, r0
 1781              	.LVL239:
 1782              	.LBE187:
 1783              	.LBE186:
 408:lvgl\src\lv_widgets/lv_cont.c ****             break;
 1784              		.loc 1 408 0
 1785 002e 012F     		cmp	r7, #1
 1786 0030 1DD1     		bne	.L140
 1787 0032 4FF0030A 		mov	r10, #3
 1788 0036 29E0     		b	.L130
 1789              	.LVL240:
 1790              	.L127:
 412:lvgl\src\lv_widgets/lv_cont.c ****             break;
 1791              		.loc 1 412 0
 1792 0038 0128     		cmp	r0, #1
 1793 003a 1BD1     		bne	.L141
 411:lvgl\src\lv_widgets/lv_cont.c ****             align     = base_dir == LV_BIDI_DIR_RTL ? LV_ALIGN_IN_RIGHT_MID : LV_ALIGN_IN_LEFT_MID;
 1794              		.loc 1 411 0
 1795 003c 4FF00008 		mov	r8, #0
 412:lvgl\src\lv_widgets/lv_cont.c ****             break;
 1796              		.loc 1 412 0
 1797 0040 4FF0080A 		mov	r10, #8
 1798 0044 22E0     		b	.L130
 1799              	.LVL241:
 1800              	.L128:
 1801              	.LBB188:
ARM GAS  C:\Users\strap\AppData\Local\Temp\cc7wbcEe.s 			page 55


 1802              	.LBB189:
 111:lvgl\src\lv_widgets\../lv_core/lv_obj_style_dec.h **** _LV_OBJ_STYLE_SET_GET_DECLARE(PAD_LEFT, pad_left, lv_style_int_t, _int, scalar)
 1803              		.loc 2 111 0
 1804 0046 1122     		movs	r2, #17
 1805 0048 0021     		movs	r1, #0
 1806 004a 3046     		mov	r0, r6
 1807              	.LVL242:
 1808 004c FFF7FEFF 		bl	_lv_obj_get_style_int
 1809              	.LVL243:
 1810              	.LBE189:
 1811              	.LBE188:
 415:lvgl\src\lv_widgets/lv_cont.c ****             align     = base_dir == LV_BIDI_DIR_RTL ? LV_ALIGN_IN_BOTTOM_RIGHT : LV_ALIGN_IN_BOTTOM
 1812              		.loc 1 415 0
 1813 0050 4042     		negs	r0, r0
 1814 0052 0FFA80F8 		sxth	r8, r0
 1815              	.LVL244:
 416:lvgl\src\lv_widgets/lv_cont.c ****             break;
 1816              		.loc 1 416 0
 1817 0056 012F     		cmp	r7, #1
 1818 0058 11D1     		bne	.L142
 1819 005a 4FF0060A 		mov	r10, #6
 1820 005e 15E0     		b	.L130
 1821              	.LVL245:
 1822              	.L144:
 420:lvgl\src\lv_widgets/lv_cont.c ****             break;
 1823              		.loc 1 420 0
 1824 0060 0128     		cmp	r0, #1
 1825 0062 0FD1     		bne	.L143
 419:lvgl\src\lv_widgets/lv_cont.c ****             align     = base_dir == LV_BIDI_DIR_RTL ? LV_ALIGN_IN_TOP_RIGHT : LV_ALIGN_IN_TOP_LEFT;
 1826              		.loc 1 419 0
 1827 0064 4FF00008 		mov	r8, #0
 420:lvgl\src\lv_widgets/lv_cont.c ****             break;
 1828              		.loc 1 420 0
 1829 0068 4FF0030A 		mov	r10, #3
 1830 006c 0EE0     		b	.L130
 1831              	.LVL246:
 1832              	.L140:
 408:lvgl\src\lv_widgets/lv_cont.c ****             break;
 1833              		.loc 1 408 0
 1834 006e 4FF0010A 		mov	r10, #1
 1835 0072 0BE0     		b	.L130
 1836              	.LVL247:
 1837              	.L141:
 411:lvgl\src\lv_widgets/lv_cont.c ****             align     = base_dir == LV_BIDI_DIR_RTL ? LV_ALIGN_IN_RIGHT_MID : LV_ALIGN_IN_LEFT_MID;
 1838              		.loc 1 411 0
 1839 0074 4FF00008 		mov	r8, #0
 412:lvgl\src\lv_widgets/lv_cont.c ****             break;
 1840              		.loc 1 412 0
 1841 0078 4FF0070A 		mov	r10, #7
 1842 007c 06E0     		b	.L130
 1843              	.LVL248:
 1844              	.L142:
 416:lvgl\src\lv_widgets/lv_cont.c ****             break;
 1845              		.loc 1 416 0
 1846 007e 4FF0040A 		mov	r10, #4
 1847 0082 03E0     		b	.L130
 1848              	.LVL249:
ARM GAS  C:\Users\strap\AppData\Local\Temp\cc7wbcEe.s 			page 56


 1849              	.L143:
 419:lvgl\src\lv_widgets/lv_cont.c ****             align     = base_dir == LV_BIDI_DIR_RTL ? LV_ALIGN_IN_TOP_RIGHT : LV_ALIGN_IN_TOP_LEFT;
 1850              		.loc 1 419 0
 1851 0084 4FF00008 		mov	r8, #0
 420:lvgl\src\lv_widgets/lv_cont.c ****             break;
 1852              		.loc 1 420 0
 1853 0088 4FF0010A 		mov	r10, #1
 1854              	.LVL250:
 1855              	.L130:
 426:lvgl\src\lv_widgets/lv_cont.c **** 
 1856              		.loc 1 426 0
 1857 008c 0121     		movs	r1, #1
 1858 008e 3046     		mov	r0, r6
 1859 0090 FFF7FEFF 		bl	lv_obj_add_protect
 1860              	.LVL251:
 430:lvgl\src\lv_widgets/lv_cont.c ****     else last_cord = lv_obj_get_style_pad_left(cont, LV_CONT_PART_MAIN);
 1861              		.loc 1 430 0
 1862 0094 012F     		cmp	r7, #1
 1863 0096 06D1     		bne	.L131
 1864              	.LVL252:
 1865              	.LBB190:
 1866              	.LBB191:
 113:lvgl\src\lv_widgets\../lv_core/lv_obj_style_dec.h **** _LV_OBJ_STYLE_SET_GET_DECLARE(PAD_INNER, pad_inner, lv_style_int_t, _int, scalar)
 1867              		.loc 2 113 0
 1868 0098 1322     		movs	r2, #19
 1869 009a 0021     		movs	r1, #0
 1870 009c 3046     		mov	r0, r6
 1871 009e FFF7FEFF 		bl	_lv_obj_get_style_int
 1872              	.LVL253:
 1873 00a2 8346     		mov	fp, r0
 1874              	.LVL254:
 1875              	.LBE191:
 1876              	.LBE190:
 1877 00a4 05E0     		b	.L132
 1878              	.L131:
 1879              	.LVL255:
 1880              	.LBB192:
 1881              	.LBB193:
 112:lvgl\src\lv_widgets\../lv_core/lv_obj_style_dec.h **** _LV_OBJ_STYLE_SET_GET_DECLARE(PAD_RIGHT, pad_right, lv_style_int_t, _int, scalar)
 1882              		.loc 2 112 0
 1883 00a6 1222     		movs	r2, #18
 1884 00a8 0021     		movs	r1, #0
 1885 00aa 3046     		mov	r0, r6
 1886 00ac FFF7FEFF 		bl	_lv_obj_get_style_int
 1887              	.LVL256:
 1888 00b0 8346     		mov	fp, r0
 1889              	.LVL257:
 1890              	.L132:
 1891              	.LBE193:
 1892              	.LBE192:
 1893              	.LBB194:
 1894              	.LBB195:
 114:lvgl\src\lv_widgets\../lv_core/lv_obj_style_dec.h **** _LV_OBJ_STYLE_SET_GET_DECLARE(MARGIN_TOP, margin_top, lv_style_int_t, _int, scalar)
 1895              		.loc 2 114 0
 1896 00b2 1422     		movs	r2, #20
 1897 00b4 0021     		movs	r1, #0
 1898 00b6 3046     		mov	r0, r6
ARM GAS  C:\Users\strap\AppData\Local\Temp\cc7wbcEe.s 			page 57


 1899 00b8 FFF7FEFF 		bl	_lv_obj_get_style_int
 1900              	.LVL258:
 1901 00bc 8146     		mov	r9, r0
 1902              	.LVL259:
 1903              	.LBE195:
 1904              	.LBE194:
 435:lvgl\src\lv_widgets/lv_cont.c ****         if(lv_obj_get_hidden(child) != false || lv_obj_is_protected(child, LV_PROTECT_POS) != false
 1905              		.loc 1 435 0
 1906 00be 351D     		adds	r5, r6, #4
 1907 00c0 2846     		mov	r0, r5
 1908 00c2 FFF7FEFF 		bl	_lv_ll_get_tail
 1909              	.LVL260:
 1910 00c6 0446     		mov	r4, r0
 1911              	.LVL261:
 1912 00c8 29E0     		b	.L133
 1913              	.L139:
 436:lvgl\src\lv_widgets/lv_cont.c **** 
 1914              		.loc 1 436 0
 1915 00ca 2046     		mov	r0, r4
 1916              	.LVL262:
 1917 00cc FFF7FEFF 		bl	lv_obj_get_hidden
 1918              	.LVL263:
 1919 00d0 00BB     		cbnz	r0, .L136
 436:lvgl\src\lv_widgets/lv_cont.c **** 
 1920              		.loc 1 436 0 is_stmt 0 discriminator 2
 1921 00d2 0421     		movs	r1, #4
 1922 00d4 2046     		mov	r0, r4
 1923 00d6 FFF7FEFF 		bl	lv_obj_is_protected
 1924              	.LVL264:
 1925 00da D8B9     		cbnz	r0, .L136
 438:lvgl\src\lv_widgets/lv_cont.c ****         else lv_obj_align(child, cont, align, last_cord, vpad_corr);
 1926              		.loc 1 438 0 is_stmt 1
 1927 00dc 012F     		cmp	r7, #1
 1928 00de 0AD1     		bne	.L137
 438:lvgl\src\lv_widgets/lv_cont.c ****         else lv_obj_align(child, cont, align, last_cord, vpad_corr);
 1929              		.loc 1 438 0 is_stmt 0 discriminator 1
 1930 00e0 CBF10003 		rsb	r3, fp, #0
 1931 00e4 CDF80080 		str	r8, [sp]
 1932 00e8 1BB2     		sxth	r3, r3
 1933 00ea 5246     		mov	r2, r10
 1934 00ec 3146     		mov	r1, r6
 1935 00ee 2046     		mov	r0, r4
 1936 00f0 FFF7FEFF 		bl	lv_obj_align
 1937              	.LVL265:
 1938 00f4 07E0     		b	.L138
 1939              	.L137:
 439:lvgl\src\lv_widgets/lv_cont.c **** 
 1940              		.loc 1 439 0 is_stmt 1
 1941 00f6 CDF80080 		str	r8, [sp]
 1942 00fa 5B46     		mov	r3, fp
 1943 00fc 5246     		mov	r2, r10
 1944 00fe 3146     		mov	r1, r6
 1945 0100 2046     		mov	r0, r4
 1946 0102 FFF7FEFF 		bl	lv_obj_align
 1947              	.LVL266:
 1948              	.L138:
 441:lvgl\src\lv_widgets/lv_cont.c ****     }
ARM GAS  C:\Users\strap\AppData\Local\Temp\cc7wbcEe.s 			page 58


 1949              		.loc 1 441 0
 1950 0106 2046     		mov	r0, r4
 1951 0108 FFF7FEFF 		bl	lv_obj_get_width
 1952              	.LVL267:
 1953 010c 4844     		add	r0, r0, r9
 1954 010e 5844     		add	r0, r0, fp
 1955 0110 0FFA80FB 		sxth	fp, r0
 1956              	.LVL268:
 1957              	.L136:
 435:lvgl\src\lv_widgets/lv_cont.c ****         if(lv_obj_get_hidden(child) != false || lv_obj_is_protected(child, LV_PROTECT_POS) != false
 1958              		.loc 1 435 0 discriminator 2
 1959 0114 2146     		mov	r1, r4
 1960 0116 2846     		mov	r0, r5
 1961 0118 FFF7FEFF 		bl	_lv_ll_get_prev
 1962              	.LVL269:
 1963 011c 0446     		mov	r4, r0
 1964              	.LVL270:
 1965              	.L133:
 435:lvgl\src\lv_widgets/lv_cont.c ****         if(lv_obj_get_hidden(child) != false || lv_obj_is_protected(child, LV_PROTECT_POS) != false
 1966              		.loc 1 435 0 is_stmt 0 discriminator 1
 1967 011e 002C     		cmp	r4, #0
 1968 0120 D3D1     		bne	.L139
 444:lvgl\src\lv_widgets/lv_cont.c **** }
 1969              		.loc 1 444 0 is_stmt 1
 1970 0122 0121     		movs	r1, #1
 1971 0124 3046     		mov	r0, r6
 1972              	.LVL271:
 1973 0126 FFF7FEFF 		bl	lv_obj_clear_protect
 1974              	.LVL272:
 445:lvgl\src\lv_widgets/lv_cont.c **** 
 1975              		.loc 1 445 0
 1976 012a 03B0     		add	sp, sp, #12
 1977              		.cfi_def_cfa_offset 36
 1978              		@ sp needed
 1979 012c BDE8F08F 		pop	{r4, r5, r6, r7, r8, r9, r10, fp, pc}
 1980              		.cfi_endproc
 1981              	.LFE342:
 1982              		.size	lv_cont_layout_row, .-lv_cont_layout_row
 1983              		.section	.text.lv_cont_layout_pretty,"ax",%progbits
 1984              		.align	2
 1985              		.thumb
 1986              		.thumb_func
 1987              		.type	lv_cont_layout_pretty, %function
 1988              	lv_cont_layout_pretty:
 1989              	.LFB344:
 490:lvgl\src\lv_widgets/lv_cont.c ****     lv_layout_t type = lv_cont_get_layout(cont);
 1990              		.loc 1 490 0
 1991              		.cfi_startproc
 1992              		@ args = 0, pretend = 0, frame = 40
 1993              		@ frame_needed = 0, uses_anonymous_args = 0
 1994              	.LVL273:
 1995 0000 2DE9F04F 		push	{r4, r5, r6, r7, r8, r9, r10, fp, lr}
 1996              		.cfi_def_cfa_offset 36
 1997              		.cfi_offset 4, -36
 1998              		.cfi_offset 5, -32
 1999              		.cfi_offset 6, -28
 2000              		.cfi_offset 7, -24
ARM GAS  C:\Users\strap\AppData\Local\Temp\cc7wbcEe.s 			page 59


 2001              		.cfi_offset 8, -20
 2002              		.cfi_offset 9, -16
 2003              		.cfi_offset 10, -12
 2004              		.cfi_offset 11, -8
 2005              		.cfi_offset 14, -4
 2006 0004 8DB0     		sub	sp, sp, #52
 2007              		.cfi_def_cfa_offset 88
 2008 0006 0446     		mov	r4, r0
 2009 0008 0590     		str	r0, [sp, #20]
 491:lvgl\src\lv_widgets/lv_cont.c **** 
 2010              		.loc 1 491 0
 2011 000a FFF7FEFF 		bl	lv_cont_get_layout
 2012              	.LVL274:
 2013 000e 0B90     		str	r0, [sp, #44]
 2014              	.LVL275:
 496:lvgl\src\lv_widgets/lv_cont.c ****     lv_coord_t act_y         =  lv_obj_get_style_pad_top(cont, LV_CONT_PART_MAIN);
 2015              		.loc 1 496 0
 2016 0010 2046     		mov	r0, r4
 2017 0012 FFF7FEFF 		bl	lv_obj_get_width
 2018              	.LVL276:
 2019 0016 8146     		mov	r9, r0
 2020              	.LVL277:
 2021              	.LBB196:
 2022              	.LBB197:
 110:lvgl\src\lv_widgets\../lv_core/lv_obj_style_dec.h **** _LV_OBJ_STYLE_SET_GET_DECLARE(PAD_BOTTOM, pad_bottom, lv_style_int_t, _int, scalar)
 2023              		.loc 2 110 0
 2024 0018 1022     		movs	r2, #16
 2025 001a 0021     		movs	r1, #0
 2026 001c 2046     		mov	r0, r4
 2027 001e FFF7FEFF 		bl	_lv_obj_get_style_int
 2028              	.LVL278:
 2029 0022 0390     		str	r0, [sp, #12]
 2030              	.LVL279:
 2031              	.LBE197:
 2032              	.LBE196:
 501:lvgl\src\lv_widgets/lv_cont.c ****     if(child_rs == NULL) return;                /*Return if no child*/
 2033              		.loc 1 501 0
 2034 0024 2346     		mov	r3, r4
 2035 0026 0433     		adds	r3, r3, #4
 2036 0028 0293     		str	r3, [sp, #8]
 2037 002a 1846     		mov	r0, r3
 2038 002c FFF7FEFF 		bl	_lv_ll_get_tail
 2039              	.LVL280:
 502:lvgl\src\lv_widgets/lv_cont.c **** 
 2040              		.loc 1 502 0
 2041 0030 0028     		cmp	r0, #0
 2042 0032 00F06581 		beq	.L146
 2043 0036 8246     		mov	r10, r0
 504:lvgl\src\lv_widgets/lv_cont.c ****     lv_coord_t pleft          =  lv_obj_get_style_pad_left(cont, LV_CONT_PART_MAIN);
 2044              		.loc 1 504 0
 2045 0038 0121     		movs	r1, #1
 2046 003a 2046     		mov	r0, r4
 2047              	.LVL281:
 2048 003c FFF7FEFF 		bl	lv_obj_add_protect
 2049              	.LVL282:
 2050              	.LBB198:
 2051              	.LBB199:
ARM GAS  C:\Users\strap\AppData\Local\Temp\cc7wbcEe.s 			page 60


 112:lvgl\src\lv_widgets\../lv_core/lv_obj_style_dec.h **** _LV_OBJ_STYLE_SET_GET_DECLARE(PAD_RIGHT, pad_right, lv_style_int_t, _int, scalar)
 2052              		.loc 2 112 0
 2053 0040 1222     		movs	r2, #18
 2054 0042 0021     		movs	r1, #0
 2055 0044 2046     		mov	r0, r4
 2056 0046 FFF7FEFF 		bl	_lv_obj_get_style_int
 2057              	.LVL283:
 2058 004a 0490     		str	r0, [sp, #16]
 2059              	.LVL284:
 2060              	.LBE199:
 2061              	.LBE198:
 2062              	.LBB200:
 2063              	.LBB201:
 113:lvgl\src\lv_widgets\../lv_core/lv_obj_style_dec.h **** _LV_OBJ_STYLE_SET_GET_DECLARE(PAD_INNER, pad_inner, lv_style_int_t, _int, scalar)
 2064              		.loc 2 113 0
 2065 004c 1322     		movs	r2, #19
 2066 004e 0021     		movs	r1, #0
 2067 0050 2046     		mov	r0, r4
 2068 0052 FFF7FEFF 		bl	_lv_obj_get_style_int
 2069              	.LVL285:
 2070 0056 0690     		str	r0, [sp, #24]
 2071              	.LVL286:
 2072              	.LBE201:
 2073              	.LBE200:
 2074              	.LBB202:
 2075              	.LBB203:
 114:lvgl\src\lv_widgets\../lv_core/lv_obj_style_dec.h **** _LV_OBJ_STYLE_SET_GET_DECLARE(MARGIN_TOP, margin_top, lv_style_int_t, _int, scalar)
 2076              		.loc 2 114 0
 2077 0058 1422     		movs	r2, #20
 2078 005a 0021     		movs	r1, #0
 2079 005c 2046     		mov	r0, r4
 2080 005e FFF7FEFF 		bl	_lv_obj_get_style_int
 2081              	.LVL287:
 2082 0062 8346     		mov	fp, r0
 2083              	.LVL288:
 2084 0064 5546     		mov	r5, r10
 2085 0066 CA46     		mov	r10, r9
 2086              	.LVL289:
 2087              	.LBE203:
 2088              	.LBE202:
 510:lvgl\src\lv_widgets/lv_cont.c ****         lv_coord_t h_row = 0;
 2089              		.loc 1 510 0
 2090 0068 43E1     		b	.L148
 2091              	.LVL290:
 2092              	.L166:
 2093              	.LBB204:
 512:lvgl\src\lv_widgets/lv_cont.c ****         uint32_t obj_num = 0;
 2094              		.loc 1 512 0
 2095 006a 049B     		ldr	r3, [sp, #16]
 2096 006c 069A     		ldr	r2, [sp, #24]
 2097 006e 9F18     		adds	r7, r3, r2
 2098 0070 3FB2     		sxth	r7, r7
 2099              	.LVL291:
 2100 0072 2C46     		mov	r4, r5
 513:lvgl\src\lv_widgets/lv_cont.c **** 
 2101              		.loc 1 513 0
 2102 0074 4FF00009 		mov	r9, #0
ARM GAS  C:\Users\strap\AppData\Local\Temp\cc7wbcEe.s 			page 61


 511:lvgl\src\lv_widgets/lv_cont.c ****         lv_coord_t w_row = pleft + pright; /*The width is at least the left+right pad*/
 2103              		.loc 1 511 0
 2104 0078 4E46     		mov	r6, r9
 2105 007a A946     		mov	r9, r5
 2106 007c 3546     		mov	r5, r6
 2107              	.LVL292:
 2108              	.L153:
 517:lvgl\src\lv_widgets/lv_cont.c ****                 /*If this object is already not fit then break*/
 2109              		.loc 1 517 0
 2110 007e 2046     		mov	r0, r4
 2111 0080 FFF7FEFF 		bl	lv_obj_get_hidden
 2112              	.LVL293:
 2113 0084 0028     		cmp	r0, #0
 2114 0086 46D1     		bne	.L149
 517:lvgl\src\lv_widgets/lv_cont.c ****                 /*If this object is already not fit then break*/
 2115              		.loc 1 517 0 is_stmt 0 discriminator 1
 2116 0088 0421     		movs	r1, #4
 2117 008a 2046     		mov	r0, r4
 2118 008c FFF7FEFF 		bl	lv_obj_is_protected
 2119              	.LVL294:
 2120 0090 0028     		cmp	r0, #0
 2121 0092 40D1     		bne	.L149
 2122              	.LBB205:
 519:lvgl\src\lv_widgets/lv_cont.c ****                 w += lv_obj_get_style_margin_left(child_rc, LV_OBJ_PART_MAIN);
 2123              		.loc 1 519 0 is_stmt 1
 2124 0094 2046     		mov	r0, r4
 2125 0096 FFF7FEFF 		bl	lv_obj_get_width
 2126              	.LVL295:
 2127 009a 8046     		mov	r8, r0
 2128              	.LVL296:
 2129              	.LBB206:
 2130              	.LBB207:
 117:lvgl\src\lv_widgets\../lv_core/lv_obj_style_dec.h **** _LV_OBJ_STYLE_SET_GET_DECLARE(MARGIN_RIGHT, margin_right, lv_style_int_t, _int, scalar)
 2131              		.loc 2 117 0
 2132 009c 1722     		movs	r2, #23
 2133 009e 0021     		movs	r1, #0
 2134 00a0 2046     		mov	r0, r4
 2135 00a2 FFF7FEFF 		bl	_lv_obj_get_style_int
 2136              	.LVL297:
 2137              	.LBE207:
 2138              	.LBE206:
 520:lvgl\src\lv_widgets/lv_cont.c ****                 w += lv_obj_get_style_margin_right(child_rc, LV_OBJ_PART_MAIN);
 2139              		.loc 1 520 0
 2140 00a6 4044     		add	r0, r0, r8
 2141 00a8 1FFA80F8 		uxth	r8, r0
 2142              	.LVL298:
 2143              	.LBB208:
 2144              	.LBB209:
 2145              		.loc 2 118 0
 2146 00ac 1822     		movs	r2, #24
 2147 00ae 0021     		movs	r1, #0
 2148 00b0 2046     		mov	r0, r4
 2149 00b2 FFF7FEFF 		bl	_lv_obj_get_style_int
 2150              	.LVL299:
 2151              	.LBE209:
 2152              	.LBE208:
 521:lvgl\src\lv_widgets/lv_cont.c ****                 if(w_row + w > w_obj) {
ARM GAS  C:\Users\strap\AppData\Local\Temp\cc7wbcEe.s 			page 62


 2153              		.loc 1 521 0
 2154 00b6 4044     		add	r0, r0, r8
 2155 00b8 80B2     		uxth	r0, r0
 2156 00ba 03B2     		sxth	r3, r0
 2157              	.LVL300:
 522:lvgl\src\lv_widgets/lv_cont.c ****                     /*Step back one child because the last already not fit, so the previous is the
 2158              		.loc 1 522 0
 2159 00bc 3B44     		add	r3, r3, r7
 2160              	.LVL301:
 2161 00be 5345     		cmp	r3, r10
 2162 00c0 0ADD     		ble	.L150
 2163 00c2 2B46     		mov	r3, r5
 2164 00c4 4D46     		mov	r5, r9
 2165              	.LVL302:
 2166 00c6 9946     		mov	r9, r3
 2167              	.LVL303:
 525:lvgl\src\lv_widgets/lv_cont.c ****                         child_rc = _lv_ll_get_next(&cont->child_ll, child_rc);
 2168              		.loc 1 525 0
 2169 00c8 ACB3     		cbz	r4, .L151
 525:lvgl\src\lv_widgets/lv_cont.c ****                         child_rc = _lv_ll_get_next(&cont->child_ll, child_rc);
 2170              		.loc 1 525 0 is_stmt 0 discriminator 1
 2171 00ca A3B3     		cbz	r3, .L151
 526:lvgl\src\lv_widgets/lv_cont.c ****                     }
 2172              		.loc 1 526 0 is_stmt 1
 2173 00cc 2146     		mov	r1, r4
 2174 00ce 0298     		ldr	r0, [sp, #8]
 2175              	.LVL304:
 2176 00d0 FFF7FEFF 		bl	_lv_ll_get_next
 2177              	.LVL305:
 2178 00d4 0446     		mov	r4, r0
 2179              	.LVL306:
 2180 00d6 2EE0     		b	.L151
 2181              	.LVL307:
 2182              	.L150:
 530:lvgl\src\lv_widgets/lv_cont.c **** 
 2183              		.loc 1 530 0
 2184 00d8 5844     		add	r0, r0, fp
 2185              	.LVL308:
 2186 00da 0744     		add	r7, r7, r0
 2187              	.LVL309:
 2188 00dc 3FB2     		sxth	r7, r7
 2189              	.LVL310:
 532:lvgl\src\lv_widgets/lv_cont.c ****                 h += lv_obj_get_style_margin_top(child_rc, LV_OBJ_PART_MAIN);
 2190              		.loc 1 532 0
 2191 00de 2046     		mov	r0, r4
 2192 00e0 FFF7FEFF 		bl	lv_obj_get_height
 2193              	.LVL311:
 2194 00e4 8046     		mov	r8, r0
 2195              	.LVL312:
 2196              	.LBB210:
 2197              	.LBB211:
 115:lvgl\src\lv_widgets\../lv_core/lv_obj_style_dec.h **** _LV_OBJ_STYLE_SET_GET_DECLARE(MARGIN_BOTTOM, margin_bottom, lv_style_int_t, _int, scalar)
 2198              		.loc 2 115 0
 2199 00e6 1522     		movs	r2, #21
 2200 00e8 0021     		movs	r1, #0
 2201 00ea 2046     		mov	r0, r4
 2202 00ec FFF7FEFF 		bl	_lv_obj_get_style_int
ARM GAS  C:\Users\strap\AppData\Local\Temp\cc7wbcEe.s 			page 63


 2203              	.LVL313:
 2204              	.LBE211:
 2205              	.LBE210:
 533:lvgl\src\lv_widgets/lv_cont.c ****                 h += lv_obj_get_style_margin_bottom(child_rc, LV_OBJ_PART_MAIN);
 2206              		.loc 1 533 0
 2207 00f0 4044     		add	r0, r0, r8
 2208 00f2 1FFA80F8 		uxth	r8, r0
 2209              	.LVL314:
 2210              	.LBB212:
 2211              	.LBB213:
 116:lvgl\src\lv_widgets\../lv_core/lv_obj_style_dec.h **** _LV_OBJ_STYLE_SET_GET_DECLARE(MARGIN_LEFT, margin_left, lv_style_int_t, _int, scalar)
 2212              		.loc 2 116 0
 2213 00f6 1622     		movs	r2, #22
 2214 00f8 0021     		movs	r1, #0
 2215 00fa 2046     		mov	r0, r4
 2216 00fc FFF7FEFF 		bl	_lv_obj_get_style_int
 2217              	.LVL315:
 2218              	.LBE213:
 2219              	.LBE212:
 534:lvgl\src\lv_widgets/lv_cont.c ****                 h_row = LV_MATH_MAX(h_row, h);         /*Search the highest object*/
 2220              		.loc 1 534 0
 2221 0100 4044     		add	r0, r0, r8
 2222 0102 00B2     		sxth	r0, r0
 2223              	.LVL316:
 535:lvgl\src\lv_widgets/lv_cont.c ****                 obj_num++;
 2224              		.loc 1 535 0
 2225 0104 8642     		cmp	r6, r0
 2226 0106 B8BF     		it	lt
 2227 0108 0646     		movlt	r6, r0
 2228              	.LVL317:
 536:lvgl\src\lv_widgets/lv_cont.c ****                 if(lv_obj_is_protected(child_rc, LV_PROTECT_FOLLOW))
 2229              		.loc 1 536 0
 2230 010a 0135     		adds	r5, r5, #1
 2231              	.LVL318:
 537:lvgl\src\lv_widgets/lv_cont.c ****                     break; /*If can not be followed by an other object then break here*/
 2232              		.loc 1 537 0
 2233 010c 0821     		movs	r1, #8
 2234 010e 2046     		mov	r0, r4
 2235              	.LVL319:
 2236 0110 FFF7FEFF 		bl	lv_obj_is_protected
 2237              	.LVL320:
 2238 0114 60B9     		cbnz	r0, .L169
 2239              	.L149:
 2240              	.LBE205:
 540:lvgl\src\lv_widgets/lv_cont.c ****             if(obj_num == 0)
 2241              		.loc 1 540 0
 2242 0116 2146     		mov	r1, r4
 2243 0118 0298     		ldr	r0, [sp, #8]
 2244 011a FFF7FEFF 		bl	_lv_ll_get_prev
 2245              	.LVL321:
 2246 011e 0446     		mov	r4, r0
 2247              	.LVL322:
 541:lvgl\src\lv_widgets/lv_cont.c ****                 child_rs = child_rc; /*If the first object was hidden (or too long) then set the
 2248              		.loc 1 541 0
 2249 0120 05B9     		cbnz	r5, .L152
 542:lvgl\src\lv_widgets/lv_cont.c ****                                         next as first */
 2250              		.loc 1 542 0
ARM GAS  C:\Users\strap\AppData\Local\Temp\cc7wbcEe.s 			page 64


 2251 0122 8146     		mov	r9, r0
 2252              	.LVL323:
 2253              	.L152:
 544:lvgl\src\lv_widgets/lv_cont.c **** 
 2254              		.loc 1 544 0
 2255 0124 002C     		cmp	r4, #0
 2256 0126 AAD1     		bne	.L153
 2257 0128 2B46     		mov	r3, r5
 2258 012a 4D46     		mov	r5, r9
 2259              	.LVL324:
 2260 012c 9946     		mov	r9, r3
 2261              	.LVL325:
 2262 012e 02E0     		b	.L151
 2263              	.LVL326:
 2264              	.L169:
 2265 0130 2B46     		mov	r3, r5
 2266 0132 4D46     		mov	r5, r9
 2267              	.LVL327:
 2268 0134 9946     		mov	r9, r3
 2269              	.LVL328:
 2270              	.L151:
 547:lvgl\src\lv_widgets/lv_cont.c ****             if(child_rc != NULL) {
 2271              		.loc 1 547 0
 2272 0136 B9F1000F 		cmp	r9, #0
 2273 013a 1FD1     		bne	.L154
 548:lvgl\src\lv_widgets/lv_cont.c ****                 lv_style_int_t mtop = lv_obj_get_style_margin_top(child_rc, LV_OBJ_PART_MAIN);
 2274              		.loc 1 548 0
 2275 013c 002C     		cmp	r4, #0
 2276 013e 00F0CD80 		beq	.L155
 2277              	.LVL329:
 2278              	.LBB214:
 2279              	.LBB215:
 2280              	.LBB216:
 115:lvgl\src\lv_widgets\../lv_core/lv_obj_style_dec.h **** _LV_OBJ_STYLE_SET_GET_DECLARE(MARGIN_BOTTOM, margin_bottom, lv_style_int_t, _int, scalar)
 2281              		.loc 2 115 0
 2282 0142 1522     		movs	r2, #21
 2283 0144 0021     		movs	r1, #0
 2284 0146 2046     		mov	r0, r4
 2285 0148 FFF7FEFF 		bl	_lv_obj_get_style_int
 2286              	.LVL330:
 2287              	.LBE216:
 2288              	.LBE215:
 551:lvgl\src\lv_widgets/lv_cont.c ****                 h_row = lv_obj_get_height(child_rc); /*Not set previously because of the early brea
 2289              		.loc 1 551 0
 2290 014c 85B2     		uxth	r5, r0
 2291              	.LVL331:
 2292 014e 039B     		ldr	r3, [sp, #12]
 2293 0150 EB18     		adds	r3, r5, r3
 2294 0152 1BB2     		sxth	r3, r3
 2295 0154 0093     		str	r3, [sp]
 2296 0156 0023     		movs	r3, #0
 2297 0158 0222     		movs	r2, #2
 2298 015a 0599     		ldr	r1, [sp, #20]
 2299 015c 2046     		mov	r0, r4
 2300 015e FFF7FEFF 		bl	lv_obj_align
 2301              	.LVL332:
 552:lvgl\src\lv_widgets/lv_cont.c ****                 h_row += mtop;
ARM GAS  C:\Users\strap\AppData\Local\Temp\cc7wbcEe.s 			page 65


 2302              		.loc 1 552 0
 2303 0162 2046     		mov	r0, r4
 2304 0164 FFF7FEFF 		bl	lv_obj_get_height
 2305              	.LVL333:
 553:lvgl\src\lv_widgets/lv_cont.c ****                 h_row += lv_obj_get_style_margin_bottom(child_rc, LV_OBJ_PART_MAIN);
 2306              		.loc 1 553 0
 2307 0168 2844     		add	r0, r0, r5
 2308              	.LVL334:
 2309 016a 85B2     		uxth	r5, r0
 2310              	.LVL335:
 2311              	.LBB217:
 2312              	.LBB218:
 116:lvgl\src\lv_widgets\../lv_core/lv_obj_style_dec.h **** _LV_OBJ_STYLE_SET_GET_DECLARE(MARGIN_LEFT, margin_left, lv_style_int_t, _int, scalar)
 2313              		.loc 2 116 0
 2314 016c 1622     		movs	r2, #22
 2315 016e 0021     		movs	r1, #0
 2316 0170 2046     		mov	r0, r4
 2317 0172 FFF7FEFF 		bl	_lv_obj_get_style_int
 2318              	.LVL336:
 2319              	.LBE218:
 2320              	.LBE217:
 554:lvgl\src\lv_widgets/lv_cont.c ****             }
 2321              		.loc 1 554 0
 2322 0176 2844     		add	r0, r0, r5
 2323 0178 06B2     		sxth	r6, r0
 2324              	.LVL337:
 2325 017a AFE0     		b	.L155
 2326              	.LVL338:
 2327              	.L154:
 2328              	.LBE214:
 558:lvgl\src\lv_widgets/lv_cont.c ****             lv_obj_align(child_rs, cont, LV_ALIGN_IN_TOP_MID,
 2329              		.loc 1 558 0
 2330 017c B9F1010F 		cmp	r9, #1
 2331 0180 0FD1     		bne	.L156
 2332              	.LVL339:
 2333              	.LBB219:
 2334              	.LBB220:
 115:lvgl\src\lv_widgets\../lv_core/lv_obj_style_dec.h **** _LV_OBJ_STYLE_SET_GET_DECLARE(MARGIN_BOTTOM, margin_bottom, lv_style_int_t, _int, scalar)
 2335              		.loc 2 115 0
 2336 0182 1522     		movs	r2, #21
 2337 0184 0021     		movs	r1, #0
 2338 0186 2846     		mov	r0, r5
 2339 0188 FFF7FEFF 		bl	_lv_obj_get_style_int
 2340              	.LVL340:
 2341              	.LBE220:
 2342              	.LBE219:
 559:lvgl\src\lv_widgets/lv_cont.c ****                          0,
 2343              		.loc 1 559 0
 2344 018c 039B     		ldr	r3, [sp, #12]
 2345 018e 1844     		add	r0, r0, r3
 2346 0190 03B2     		sxth	r3, r0
 2347 0192 0093     		str	r3, [sp]
 2348 0194 0023     		movs	r3, #0
 2349 0196 0222     		movs	r2, #2
 2350 0198 0599     		ldr	r1, [sp, #20]
 2351 019a 2846     		mov	r0, r5
 2352 019c FFF7FEFF 		bl	lv_obj_align
ARM GAS  C:\Users\strap\AppData\Local\Temp\cc7wbcEe.s 			page 66


 2353              	.LVL341:
 2354 01a0 9CE0     		b	.L155
 2355              	.L156:
 2356              	.LBB221:
 565:lvgl\src\lv_widgets/lv_cont.c ****             lv_coord_t new_pinner = (w_obj - w_row) / (obj_num - 1);
 2357              		.loc 1 565 0
 2358 01a2 0BFB1973 		mls	r3, fp, r9, r7
 2359 01a6 1BB2     		sxth	r3, r3
 2360              	.LVL342:
 566:lvgl\src\lv_widgets/lv_cont.c ****             lv_coord_t act_x    = pleft; /*x init*/
 2361              		.loc 1 566 0
 2362 01a8 C3EB0A03 		rsb	r3, r3, r10
 2363              	.LVL343:
 2364 01ac 09F1FF39 		add	r9, r9, #-1
 2365              	.LVL344:
 2366 01b0 B3FBF9F9 		udiv	r9, r3, r9
 2367              	.LVL345:
 2368 01b4 0FFA89F7 		sxth	r7, r9
 2369              	.LVL346:
 571:lvgl\src\lv_widgets/lv_cont.c ****                 align = LV_ALIGN_IN_TOP_RIGHT;
 2370              		.loc 1 571 0
 2371 01b8 0598     		ldr	r0, [sp, #20]
 2372 01ba FFF7FEFF 		bl	lv_obj_get_base_dir
 2373              	.LVL347:
 2374 01be 0128     		cmp	r0, #1
 2375 01c0 05D1     		bne	.L168
 573:lvgl\src\lv_widgets/lv_cont.c ****             } else {
 2376              		.loc 1 573 0
 2377 01c2 4FF0FF33 		mov	r3, #-1
 2378 01c6 0A93     		str	r3, [sp, #40]
 572:lvgl\src\lv_widgets/lv_cont.c ****                 inv = -1;
 2379              		.loc 1 572 0
 2380 01c8 0323     		movs	r3, #3
 2381 01ca 0993     		str	r3, [sp, #36]
 2382 01cc 02E0     		b	.L157
 2383              	.L168:
 576:lvgl\src\lv_widgets/lv_cont.c ****             }
 2384              		.loc 1 576 0
 2385 01ce 0123     		movs	r3, #1
 2386 01d0 0A93     		str	r3, [sp, #40]
 575:lvgl\src\lv_widgets/lv_cont.c ****                 inv = 1;
 2387              		.loc 1 575 0
 2388 01d2 0993     		str	r3, [sp, #36]
 2389              	.L157:
 572:lvgl\src\lv_widgets/lv_cont.c ****                 inv = -1;
 2390              		.loc 1 572 0
 2391 01d4 DDF81080 		ldr	r8, [sp, #16]
 2392 01d8 7DE0     		b	.L158
 2393              	.LVL348:
 2394              	.L164:
 579:lvgl\src\lv_widgets/lv_cont.c ****                     lv_coord_t mleft = lv_obj_get_style_margin_left(child_tmp, LV_OBJ_PART_MAIN);
 2395              		.loc 1 579 0
 2396 01da 2846     		mov	r0, r5
 2397 01dc FFF7FEFF 		bl	lv_obj_get_hidden
 2398              	.LVL349:
 2399 01e0 0028     		cmp	r0, #0
 2400 01e2 71D1     		bne	.L159
ARM GAS  C:\Users\strap\AppData\Local\Temp\cc7wbcEe.s 			page 67


 579:lvgl\src\lv_widgets/lv_cont.c ****                     lv_coord_t mleft = lv_obj_get_style_margin_left(child_tmp, LV_OBJ_PART_MAIN);
 2401              		.loc 1 579 0 is_stmt 0 discriminator 1
 2402 01e4 0421     		movs	r1, #4
 2403 01e6 2846     		mov	r0, r5
 2404 01e8 FFF7FEFF 		bl	lv_obj_is_protected
 2405              	.LVL350:
 2406 01ec 0028     		cmp	r0, #0
 2407 01ee 6BD1     		bne	.L159
 2408              	.LVL351:
 2409              	.LBB222:
 2410              	.LBB223:
 2411              	.LBB224:
 117:lvgl\src\lv_widgets\../lv_core/lv_obj_style_dec.h **** _LV_OBJ_STYLE_SET_GET_DECLARE(MARGIN_RIGHT, margin_right, lv_style_int_t, _int, scalar)
 2412              		.loc 2 117 0 is_stmt 1
 2413 01f0 1722     		movs	r2, #23
 2414 01f2 0021     		movs	r1, #0
 2415 01f4 2846     		mov	r0, r5
 2416 01f6 FFF7FEFF 		bl	_lv_obj_get_style_int
 2417              	.LVL352:
 2418 01fa 0790     		str	r0, [sp, #28]
 2419              	.LVL353:
 2420              	.LBE224:
 2421              	.LBE223:
 2422              	.LBB225:
 2423              	.LBB226:
 2424              		.loc 2 118 0
 2425 01fc 1822     		movs	r2, #24
 2426 01fe 0021     		movs	r1, #0
 2427 0200 2846     		mov	r0, r5
 2428 0202 FFF7FEFF 		bl	_lv_obj_get_style_int
 2429              	.LVL354:
 2430 0206 0890     		str	r0, [sp, #32]
 2431              	.LVL355:
 2432              	.LBE226:
 2433              	.LBE225:
 582:lvgl\src\lv_widgets/lv_cont.c ****                         case LV_LAYOUT_PRETTY_TOP:
 2434              		.loc 1 582 0
 2435 0208 0B9B     		ldr	r3, [sp, #44]
 2436 020a 092B     		cmp	r3, #9
 2437 020c 19D0     		beq	.L161
 2438 020e 0A2B     		cmp	r3, #10
 2439 0210 2FD0     		beq	.L162
 2440 0212 082B     		cmp	r3, #8
 2441 0214 4DD1     		bne	.L160
 585:lvgl\src\lv_widgets/lv_cont.c ****                                          act_y + lv_obj_get_style_margin_top(child_tmp, LV_OBJ_PART
 2442              		.loc 1 585 0
 2443 0216 079B     		ldr	r3, [sp, #28]
 2444 0218 08EB0309 		add	r9, r8, r3
 2445              	.LVL356:
 2446              	.LBB227:
 2447              	.LBB228:
 115:lvgl\src\lv_widgets\../lv_core/lv_obj_style_dec.h **** _LV_OBJ_STYLE_SET_GET_DECLARE(MARGIN_BOTTOM, margin_bottom, lv_style_int_t, _int, scalar)
 2448              		.loc 2 115 0
 2449 021c 1522     		movs	r2, #21
 2450 021e 0021     		movs	r1, #0
 2451 0220 2846     		mov	r0, r5
 2452 0222 FFF7FEFF 		bl	_lv_obj_get_style_int
ARM GAS  C:\Users\strap\AppData\Local\Temp\cc7wbcEe.s 			page 68


 2453              	.LVL357:
 2454              	.LBE228:
 2455              	.LBE227:
 584:lvgl\src\lv_widgets/lv_cont.c ****                                         inv * (act_x + mleft),
 2456              		.loc 1 584 0
 2457 0226 0A9B     		ldr	r3, [sp, #40]
 2458 0228 09FB03F3 		mul	r3, r9, r3
 2459 022c 039A     		ldr	r2, [sp, #12]
 2460 022e 1044     		add	r0, r0, r2
 2461 0230 02B2     		sxth	r2, r0
 2462 0232 0092     		str	r2, [sp]
 2463 0234 1BB2     		sxth	r3, r3
 2464 0236 099A     		ldr	r2, [sp, #36]
 2465 0238 0599     		ldr	r1, [sp, #20]
 2466 023a 2846     		mov	r0, r5
 2467 023c FFF7FEFF 		bl	lv_obj_align
 2468              	.LVL358:
 587:lvgl\src\lv_widgets/lv_cont.c ****                         case LV_LAYOUT_PRETTY_MID:
 2469              		.loc 1 587 0
 2470 0240 37E0     		b	.L160
 2471              	.L161:
 590:lvgl\src\lv_widgets/lv_cont.c ****                                          act_y + (h_row - lv_obj_get_height(child_tmp)) / 2);
 2472              		.loc 1 590 0
 2473 0242 079B     		ldr	r3, [sp, #28]
 2474 0244 08EB0309 		add	r9, r8, r3
 591:lvgl\src\lv_widgets/lv_cont.c **** 
 2475              		.loc 1 591 0
 2476 0248 2846     		mov	r0, r5
 2477 024a FFF7FEFF 		bl	lv_obj_get_height
 2478              	.LVL359:
 2479 024e 301A     		subs	r0, r6, r0
 2480 0250 00EBD070 		add	r0, r0, r0, lsr #31
 589:lvgl\src\lv_widgets/lv_cont.c ****                                          inv * (act_x + mleft),
 2481              		.loc 1 589 0
 2482 0254 0A9B     		ldr	r3, [sp, #40]
 2483 0256 09FB03F3 		mul	r3, r9, r3
 2484 025a 039A     		ldr	r2, [sp, #12]
 2485 025c 02EB6002 		add	r2, r2, r0, asr #1
 2486 0260 12B2     		sxth	r2, r2
 2487 0262 0092     		str	r2, [sp]
 2488 0264 1BB2     		sxth	r3, r3
 2489 0266 099A     		ldr	r2, [sp, #36]
 2490 0268 0599     		ldr	r1, [sp, #20]
 2491 026a 2846     		mov	r0, r5
 2492 026c FFF7FEFF 		bl	lv_obj_align
 2493              	.LVL360:
 593:lvgl\src\lv_widgets/lv_cont.c ****                         case LV_LAYOUT_PRETTY_BOTTOM:
 2494              		.loc 1 593 0
 2495 0270 1FE0     		b	.L160
 2496              	.L162:
 595:lvgl\src\lv_widgets/lv_cont.c ****                                          inv * (act_x + mleft),
 2497              		.loc 1 595 0
 2498 0272 039B     		ldr	r3, [sp, #12]
 2499 0274 03EB0609 		add	r9, r3, r6
 2500 0278 1FFA89F9 		uxth	r9, r9
 597:lvgl\src\lv_widgets/lv_cont.c ****                             break;
 2501              		.loc 1 597 0
ARM GAS  C:\Users\strap\AppData\Local\Temp\cc7wbcEe.s 			page 69


 2502 027c 2846     		mov	r0, r5
 2503 027e FFF7FEFF 		bl	lv_obj_get_height
 2504              	.LVL361:
 595:lvgl\src\lv_widgets/lv_cont.c ****                                          inv * (act_x + mleft),
 2505              		.loc 1 595 0
 2506 0282 C0EB0900 		rsb	r0, r0, r9
 2507 0286 1FFA80F9 		uxth	r9, r0
 2508              	.LVL362:
 2509              	.LBB229:
 2510              	.LBB230:
 116:lvgl\src\lv_widgets\../lv_core/lv_obj_style_dec.h **** _LV_OBJ_STYLE_SET_GET_DECLARE(MARGIN_LEFT, margin_left, lv_style_int_t, _int, scalar)
 2511              		.loc 2 116 0
 2512 028a 1622     		movs	r2, #22
 2513 028c 0021     		movs	r1, #0
 2514 028e 2846     		mov	r0, r5
 2515 0290 FFF7FEFF 		bl	_lv_obj_get_style_int
 2516              	.LVL363:
 2517              	.LBE230:
 2518              	.LBE229:
 595:lvgl\src\lv_widgets/lv_cont.c ****                                          inv * (act_x + mleft),
 2519              		.loc 1 595 0
 2520 0294 079B     		ldr	r3, [sp, #28]
 2521 0296 4344     		add	r3, r8, r3
 2522 0298 0A9A     		ldr	r2, [sp, #40]
 2523 029a 03FB02F3 		mul	r3, r3, r2
 2524 029e C0EB0900 		rsb	r0, r0, r9
 2525 02a2 02B2     		sxth	r2, r0
 2526 02a4 0092     		str	r2, [sp]
 2527 02a6 1BB2     		sxth	r3, r3
 2528 02a8 099A     		ldr	r2, [sp, #36]
 2529 02aa 0599     		ldr	r1, [sp, #20]
 2530 02ac 2846     		mov	r0, r5
 2531 02ae FFF7FEFF 		bl	lv_obj_align
 2532              	.LVL364:
 2533              	.L160:
 603:lvgl\src\lv_widgets/lv_cont.c ****                 }
 2534              		.loc 1 603 0
 2535 02b2 2846     		mov	r0, r5
 2536 02b4 FFF7FEFF 		bl	lv_obj_get_width
 2537              	.LVL365:
 2538 02b8 3844     		add	r0, r0, r7
 2539 02ba 079B     		ldr	r3, [sp, #28]
 2540 02bc 0344     		add	r3, r3, r0
 2541 02be 089A     		ldr	r2, [sp, #32]
 2542 02c0 1A44     		add	r2, r2, r3
 2543 02c2 9044     		add	r8, r8, r2
 2544              	.LVL366:
 2545 02c4 0FFA88F8 		sxth	r8, r8
 2546              	.LVL367:
 2547              	.L159:
 2548              	.LBE222:
 605:lvgl\src\lv_widgets/lv_cont.c ****                 child_tmp = _lv_ll_get_prev(&cont->child_ll, child_tmp);
 2549              		.loc 1 605 0
 2550 02c8 AC42     		cmp	r4, r5
 2551 02ca 07D0     		beq	.L155
 606:lvgl\src\lv_widgets/lv_cont.c ****             }
 2552              		.loc 1 606 0
ARM GAS  C:\Users\strap\AppData\Local\Temp\cc7wbcEe.s 			page 70


 2553 02cc 2946     		mov	r1, r5
 2554 02ce 0298     		ldr	r0, [sp, #8]
 2555 02d0 FFF7FEFF 		bl	_lv_ll_get_prev
 2556              	.LVL368:
 2557 02d4 0546     		mov	r5, r0
 2558              	.LVL369:
 2559              	.L158:
 578:lvgl\src\lv_widgets/lv_cont.c ****                 if(lv_obj_get_hidden(child_tmp) == false && lv_obj_is_protected(child_tmp, LV_PROTE
 2560              		.loc 1 578 0
 2561 02d6 002D     		cmp	r5, #0
 2562 02d8 7FF47FAF 		bne	.L164
 2563              	.LVL370:
 2564              	.L155:
 2565              	.LBE221:
 610:lvgl\src\lv_widgets/lv_cont.c ****         act_y += pinner + h_row;           /*y increment*/
 2566              		.loc 1 610 0
 2567 02dc 64B1     		cbz	r4, .L165
 611:lvgl\src\lv_widgets/lv_cont.c ****         child_rs = _lv_ll_get_prev(&cont->child_ll, child_rc); /*Go to the next object*/
 2568              		.loc 1 611 0
 2569 02de 5E44     		add	r6, r6, fp
 2570              	.LVL371:
 2571 02e0 039B     		ldr	r3, [sp, #12]
 2572 02e2 1E44     		add	r6, r6, r3
 2573 02e4 33B2     		sxth	r3, r6
 2574 02e6 0393     		str	r3, [sp, #12]
 2575              	.LVL372:
 612:lvgl\src\lv_widgets/lv_cont.c ****         child_rc = child_rs;
 2576              		.loc 1 612 0
 2577 02e8 2146     		mov	r1, r4
 2578 02ea 0298     		ldr	r0, [sp, #8]
 2579 02ec FFF7FEFF 		bl	_lv_ll_get_prev
 2580              	.LVL373:
 2581 02f0 0546     		mov	r5, r0
 2582              	.LVL374:
 2583              	.L148:
 2584              	.LBE204:
 510:lvgl\src\lv_widgets/lv_cont.c ****         lv_coord_t h_row = 0;
 2585              		.loc 1 510 0
 2586 02f2 002D     		cmp	r5, #0
 2587 02f4 7FF4B9AE 		bne	.L166
 2588              	.LVL375:
 2589              	.L165:
 615:lvgl\src\lv_widgets/lv_cont.c **** }
 2590              		.loc 1 615 0
 2591 02f8 0121     		movs	r1, #1
 2592 02fa 0598     		ldr	r0, [sp, #20]
 2593 02fc FFF7FEFF 		bl	lv_obj_clear_protect
 2594              	.LVL376:
 2595              	.L146:
 616:lvgl\src\lv_widgets/lv_cont.c **** 
 2596              		.loc 1 616 0
 2597 0300 0DB0     		add	sp, sp, #52
 2598              		.cfi_def_cfa_offset 36
 2599              		@ sp needed
 2600 0302 BDE8F08F 		pop	{r4, r5, r6, r7, r8, r9, r10, fp, pc}
 2601              		.cfi_endproc
 2602              	.LFE344:
ARM GAS  C:\Users\strap\AppData\Local\Temp\cc7wbcEe.s 			page 71


 2603              		.size	lv_cont_layout_pretty, .-lv_cont_layout_pretty
 2604 0306 00BF     		.section	.text.lv_cont_refr_layout,"ax",%progbits
 2605              		.align	2
 2606              		.thumb
 2607              		.thumb_func
 2608              		.type	lv_cont_refr_layout, %function
 2609              	lv_cont_refr_layout:
 2610              	.LFB340:
 311:lvgl\src\lv_widgets/lv_cont.c ****     if(lv_obj_is_protected(cont, LV_PROTECT_CHILD_CHG)) return;
 2611              		.loc 1 311 0
 2612              		.cfi_startproc
 2613              		@ args = 0, pretend = 0, frame = 0
 2614              		@ frame_needed = 0, uses_anonymous_args = 0
 2615              	.LVL377:
 2616 0000 38B5     		push	{r3, r4, r5, lr}
 2617              		.cfi_def_cfa_offset 16
 2618              		.cfi_offset 3, -16
 2619              		.cfi_offset 4, -12
 2620              		.cfi_offset 5, -8
 2621              		.cfi_offset 14, -4
 2622 0002 0446     		mov	r4, r0
 312:lvgl\src\lv_widgets/lv_cont.c ****     lv_layout_t type = lv_cont_get_layout(cont);
 2623              		.loc 1 312 0
 2624 0004 0121     		movs	r1, #1
 2625 0006 FFF7FEFF 		bl	lv_obj_is_protected
 2626              	.LVL378:
 2627 000a 68BB     		cbnz	r0, .L172
 313:lvgl\src\lv_widgets/lv_cont.c **** 
 2628              		.loc 1 313 0
 2629 000c 2046     		mov	r0, r4
 2630 000e FFF7FEFF 		bl	lv_cont_get_layout
 2631              	.LVL379:
 2632 0012 0546     		mov	r5, r0
 2633              	.LVL380:
 316:lvgl\src\lv_widgets/lv_cont.c **** 
 2634              		.loc 1 316 0
 2635 0014 0021     		movs	r1, #0
 2636 0016 2046     		mov	r0, r4
 2637 0018 FFF7FEFF 		bl	lv_obj_get_child
 2638              	.LVL381:
 2639 001c 20B3     		cbz	r0, .L172
 318:lvgl\src\lv_widgets/lv_cont.c **** 
 2640              		.loc 1 318 0
 2641 001e 1DB3     		cbz	r5, .L172
 320:lvgl\src\lv_widgets/lv_cont.c ****         lv_cont_layout_center(cont);
 2642              		.loc 1 320 0
 2643 0020 012D     		cmp	r5, #1
 2644 0022 03D1     		bne	.L174
 321:lvgl\src\lv_widgets/lv_cont.c ****     }
 2645              		.loc 1 321 0
 2646 0024 2046     		mov	r0, r4
 2647 0026 FFF7FEFF 		bl	lv_cont_layout_center
 2648              	.LVL382:
 2649 002a 38BD     		pop	{r3, r4, r5, pc}
 2650              	.LVL383:
 2651              	.L174:
 323:lvgl\src\lv_widgets/lv_cont.c ****         lv_cont_layout_col(cont);
ARM GAS  C:\Users\strap\AppData\Local\Temp\cc7wbcEe.s 			page 72


 2652              		.loc 1 323 0
 2653 002c AB1E     		subs	r3, r5, #2
 2654 002e DBB2     		uxtb	r3, r3
 2655 0030 022B     		cmp	r3, #2
 2656 0032 03D8     		bhi	.L175
 324:lvgl\src\lv_widgets/lv_cont.c ****     }
 2657              		.loc 1 324 0
 2658 0034 2046     		mov	r0, r4
 2659 0036 FFF7FEFF 		bl	lv_cont_layout_col
 2660              	.LVL384:
 2661 003a 38BD     		pop	{r3, r4, r5, pc}
 2662              	.LVL385:
 2663              	.L175:
 326:lvgl\src\lv_widgets/lv_cont.c ****         lv_cont_layout_row(cont);
 2664              		.loc 1 326 0
 2665 003c 6B1F     		subs	r3, r5, #5
 2666 003e DBB2     		uxtb	r3, r3
 2667 0040 022B     		cmp	r3, #2
 2668 0042 03D8     		bhi	.L176
 327:lvgl\src\lv_widgets/lv_cont.c ****     }
 2669              		.loc 1 327 0
 2670 0044 2046     		mov	r0, r4
 2671 0046 FFF7FEFF 		bl	lv_cont_layout_row
 2672              	.LVL386:
 2673 004a 38BD     		pop	{r3, r4, r5, pc}
 2674              	.LVL387:
 2675              	.L176:
 329:lvgl\src\lv_widgets/lv_cont.c ****         lv_cont_layout_pretty(cont);
 2676              		.loc 1 329 0
 2677 004c A5F10803 		sub	r3, r5, #8
 2678 0050 DBB2     		uxtb	r3, r3
 2679 0052 022B     		cmp	r3, #2
 2680 0054 03D8     		bhi	.L177
 330:lvgl\src\lv_widgets/lv_cont.c ****     }
 2681              		.loc 1 330 0
 2682 0056 2046     		mov	r0, r4
 2683 0058 FFF7FEFF 		bl	lv_cont_layout_pretty
 2684              	.LVL388:
 2685 005c 38BD     		pop	{r3, r4, r5, pc}
 2686              	.LVL389:
 2687              	.L177:
 332:lvgl\src\lv_widgets/lv_cont.c ****         lv_cont_layout_grid(cont);
 2688              		.loc 1 332 0
 2689 005e 0B2D     		cmp	r5, #11
 2690 0060 02D1     		bne	.L172
 333:lvgl\src\lv_widgets/lv_cont.c ****     }
 2691              		.loc 1 333 0
 2692 0062 2046     		mov	r0, r4
 2693 0064 FFF7FEFF 		bl	lv_cont_layout_grid
 2694              	.LVL390:
 2695              	.L172:
 2696 0068 38BD     		pop	{r3, r4, r5, pc}
 2697              		.cfi_endproc
 2698              	.LFE340:
 2699              		.size	lv_cont_refr_layout, .-lv_cont_refr_layout
 2700 006a 00BF     		.section	.text.lv_cont_signal,"ax",%progbits
 2701              		.align	2
ARM GAS  C:\Users\strap\AppData\Local\Temp\cc7wbcEe.s 			page 73


 2702              		.thumb
 2703              		.thumb_func
 2704              		.type	lv_cont_signal, %function
 2705              	lv_cont_signal:
 2706              	.LFB338:
 254:lvgl\src\lv_widgets/lv_cont.c ****     if(sign == LV_SIGNAL_GET_STYLE) {
 2707              		.loc 1 254 0
 2708              		.cfi_startproc
 2709              		@ args = 0, pretend = 0, frame = 0
 2710              		@ frame_needed = 0, uses_anonymous_args = 0
 2711              	.LVL391:
 2712 0000 F8B5     		push	{r3, r4, r5, r6, r7, lr}
 2713              		.cfi_def_cfa_offset 24
 2714              		.cfi_offset 3, -24
 2715              		.cfi_offset 4, -20
 2716              		.cfi_offset 5, -16
 2717              		.cfi_offset 6, -12
 2718              		.cfi_offset 7, -8
 2719              		.cfi_offset 14, -4
 2720 0002 0746     		mov	r7, r0
 2721 0004 0D46     		mov	r5, r1
 2722 0006 1646     		mov	r6, r2
 255:lvgl\src\lv_widgets/lv_cont.c ****         lv_get_style_info_t * info = param;
 2723              		.loc 1 255 0
 2724 0008 0829     		cmp	r1, #8
 2725 000a 0CD1     		bne	.L180
 2726              	.LVL392:
 2727              	.LBB231:
 257:lvgl\src\lv_widgets/lv_cont.c ****         if(info->result != NULL) return LV_RES_OK;
 2728              		.loc 1 257 0
 2729 000c 1178     		ldrb	r1, [r2]	@ zero_extendqisi2
 2730              	.LVL393:
 2731 000e FFF7FEFF 		bl	lv_cont_get_style
 2732              	.LVL394:
 2733 0012 7060     		str	r0, [r6, #4]
 258:lvgl\src\lv_widgets/lv_cont.c ****         else return ancestor_signal(cont, sign, param);
 2734              		.loc 1 258 0
 2735 0014 0028     		cmp	r0, #0
 2736 0016 50D1     		bne	.L187
 259:lvgl\src\lv_widgets/lv_cont.c ****     }
 2737              		.loc 1 259 0
 2738 0018 2B4B     		ldr	r3, .L192
 2739 001a 1B68     		ldr	r3, [r3]
 2740 001c 3246     		mov	r2, r6
 2741 001e 2946     		mov	r1, r5
 2742 0020 3846     		mov	r0, r7
 2743 0022 9847     		blx	r3
 2744              	.LVL395:
 2745 0024 F8BD     		pop	{r3, r4, r5, r6, r7, pc}
 2746              	.LVL396:
 2747              	.L180:
 2748              	.LBE231:
 265:lvgl\src\lv_widgets/lv_cont.c ****     if(res != LV_RES_OK) return res;
 2749              		.loc 1 265 0
 2750 0026 284B     		ldr	r3, .L192
 2751 0028 1B68     		ldr	r3, [r3]
 2752 002a 9847     		blx	r3
ARM GAS  C:\Users\strap\AppData\Local\Temp\cc7wbcEe.s 			page 74


 2753              	.LVL397:
 2754 002c 0446     		mov	r4, r0
 2755              	.LVL398:
 266:lvgl\src\lv_widgets/lv_cont.c ****     if(sign == LV_SIGNAL_GET_TYPE) return lv_obj_handle_get_type_signal(param, LV_OBJX_NAME);
 2756              		.loc 1 266 0
 2757 002e 0128     		cmp	r0, #1
 2758 0030 45D1     		bne	.L188
 267:lvgl\src\lv_widgets/lv_cont.c **** 
 2759              		.loc 1 267 0
 2760 0032 072D     		cmp	r5, #7
 2761 0034 04D1     		bne	.L182
 267:lvgl\src\lv_widgets/lv_cont.c **** 
 2762              		.loc 1 267 0 is_stmt 0 discriminator 1
 2763 0036 2549     		ldr	r1, .L192+4
 2764 0038 3046     		mov	r0, r6
 2765              	.LVL399:
 2766 003a FFF7FEFF 		bl	lv_obj_handle_get_type_signal
 2767              	.LVL400:
 2768 003e F8BD     		pop	{r3, r4, r5, r6, r7, pc}
 2769              	.LVL401:
 2770              	.L182:
 269:lvgl\src\lv_widgets/lv_cont.c ****         lv_cont_refr_layout(cont);
 2771              		.loc 1 269 0 is_stmt 1
 2772 0040 042D     		cmp	r5, #4
 2773 0042 07D1     		bne	.L183
 270:lvgl\src\lv_widgets/lv_cont.c ****         lv_cont_refr_autofit(cont);
 2774              		.loc 1 270 0
 2775 0044 3846     		mov	r0, r7
 2776              	.LVL402:
 2777 0046 FFF7FEFF 		bl	lv_cont_refr_layout
 2778              	.LVL403:
 271:lvgl\src\lv_widgets/lv_cont.c ****     }
 2779              		.loc 1 271 0
 2780 004a 3846     		mov	r0, r7
 2781 004c FFF7FEFF 		bl	lv_cont_refr_autofit
 2782              	.LVL404:
 288:lvgl\src\lv_widgets/lv_cont.c **** }
 2783              		.loc 1 288 0
 2784 0050 2046     		mov	r0, r4
 2785 0052 F8BD     		pop	{r3, r4, r5, r6, r7, pc}
 2786              	.LVL405:
 2787              	.L183:
 273:lvgl\src\lv_widgets/lv_cont.c ****         lv_cont_refr_layout(cont);
 2788              		.loc 1 273 0
 2789 0054 012D     		cmp	r5, #1
 2790 0056 07D1     		bne	.L184
 274:lvgl\src\lv_widgets/lv_cont.c ****         lv_cont_refr_autofit(cont);
 2791              		.loc 1 274 0
 2792 0058 3846     		mov	r0, r7
 2793              	.LVL406:
 2794 005a FFF7FEFF 		bl	lv_cont_refr_layout
 2795              	.LVL407:
 275:lvgl\src\lv_widgets/lv_cont.c ****     }
 2796              		.loc 1 275 0
 2797 005e 3846     		mov	r0, r7
 2798 0060 FFF7FEFF 		bl	lv_cont_refr_autofit
 2799              	.LVL408:
ARM GAS  C:\Users\strap\AppData\Local\Temp\cc7wbcEe.s 			page 75


 288:lvgl\src\lv_widgets/lv_cont.c **** }
 2800              		.loc 1 288 0
 2801 0064 2046     		mov	r0, r4
 2802 0066 F8BD     		pop	{r3, r4, r5, r6, r7, pc}
 2803              	.LVL409:
 2804              	.L184:
 277:lvgl\src\lv_widgets/lv_cont.c ****         if(lv_obj_get_width(cont) != lv_area_get_width(param) || lv_obj_get_height(cont) != lv_area
 2805              		.loc 1 277 0
 2806 0068 022D     		cmp	r5, #2
 2807 006a 1FD1     		bne	.L185
 278:lvgl\src\lv_widgets/lv_cont.c ****             lv_cont_refr_layout(cont);
 2808              		.loc 1 278 0
 2809 006c 3846     		mov	r0, r7
 2810              	.LVL410:
 2811 006e FFF7FEFF 		bl	lv_obj_get_width
 2812              	.LVL411:
 2813              	.LBB232:
 2814              	.LBB233:
 2815              		.file 4 "lvgl\\src\\lv_widgets\\../lv_core/../lv_font/../lv_misc/lv_area.h"
   1:lvgl\src\lv_widgets\../lv_core/../lv_font/../lv_misc/lv_area.h **** /**
   2:lvgl\src\lv_widgets\../lv_core/../lv_font/../lv_misc/lv_area.h ****  * @file lv_area.h
   3:lvgl\src\lv_widgets\../lv_core/../lv_font/../lv_misc/lv_area.h ****  *
   4:lvgl\src\lv_widgets\../lv_core/../lv_font/../lv_misc/lv_area.h ****  */
   5:lvgl\src\lv_widgets\../lv_core/../lv_font/../lv_misc/lv_area.h **** 
   6:lvgl\src\lv_widgets\../lv_core/../lv_font/../lv_misc/lv_area.h **** #ifndef LV_AREA_H
   7:lvgl\src\lv_widgets\../lv_core/../lv_font/../lv_misc/lv_area.h **** #define LV_AREA_H
   8:lvgl\src\lv_widgets\../lv_core/../lv_font/../lv_misc/lv_area.h **** 
   9:lvgl\src\lv_widgets\../lv_core/../lv_font/../lv_misc/lv_area.h **** #ifdef __cplusplus
  10:lvgl\src\lv_widgets\../lv_core/../lv_font/../lv_misc/lv_area.h **** extern "C" {
  11:lvgl\src\lv_widgets\../lv_core/../lv_font/../lv_misc/lv_area.h **** #endif
  12:lvgl\src\lv_widgets\../lv_core/../lv_font/../lv_misc/lv_area.h **** 
  13:lvgl\src\lv_widgets\../lv_core/../lv_font/../lv_misc/lv_area.h **** /*********************
  14:lvgl\src\lv_widgets\../lv_core/../lv_font/../lv_misc/lv_area.h ****  *      INCLUDES
  15:lvgl\src\lv_widgets\../lv_core/../lv_font/../lv_misc/lv_area.h ****  *********************/
  16:lvgl\src\lv_widgets\../lv_core/../lv_font/../lv_misc/lv_area.h **** #include "../lv_conf_internal.h"
  17:lvgl\src\lv_widgets\../lv_core/../lv_font/../lv_misc/lv_area.h **** #include <string.h>
  18:lvgl\src\lv_widgets\../lv_core/../lv_font/../lv_misc/lv_area.h **** #include <stdbool.h>
  19:lvgl\src\lv_widgets\../lv_core/../lv_font/../lv_misc/lv_area.h **** #include <stdint.h>
  20:lvgl\src\lv_widgets\../lv_core/../lv_font/../lv_misc/lv_area.h **** #include "lv_mem.h"
  21:lvgl\src\lv_widgets\../lv_core/../lv_font/../lv_misc/lv_area.h **** 
  22:lvgl\src\lv_widgets\../lv_core/../lv_font/../lv_misc/lv_area.h **** /*********************
  23:lvgl\src\lv_widgets\../lv_core/../lv_font/../lv_misc/lv_area.h ****  *      DEFINES
  24:lvgl\src\lv_widgets\../lv_core/../lv_font/../lv_misc/lv_area.h ****  *********************/
  25:lvgl\src\lv_widgets\../lv_core/../lv_font/../lv_misc/lv_area.h **** /*To avoid overflow don't let the max ranges (reduce with 1000) */
  26:lvgl\src\lv_widgets\../lv_core/../lv_font/../lv_misc/lv_area.h **** #define LV_COORD_MAX ((lv_coord_t)((uint32_t)((uint32_t)1 << (8 * sizeof(lv_coord_t) - 1)) - 1000))
  27:lvgl\src\lv_widgets\../lv_core/../lv_font/../lv_misc/lv_area.h **** #define LV_COORD_MIN (-LV_COORD_MAX)
  28:lvgl\src\lv_widgets\../lv_core/../lv_font/../lv_misc/lv_area.h **** 
  29:lvgl\src\lv_widgets\../lv_core/../lv_font/../lv_misc/lv_area.h **** LV_EXPORT_CONST_INT(LV_COORD_MAX);
  30:lvgl\src\lv_widgets\../lv_core/../lv_font/../lv_misc/lv_area.h **** LV_EXPORT_CONST_INT(LV_COORD_MIN);
  31:lvgl\src\lv_widgets\../lv_core/../lv_font/../lv_misc/lv_area.h **** 
  32:lvgl\src\lv_widgets\../lv_core/../lv_font/../lv_misc/lv_area.h **** /**********************
  33:lvgl\src\lv_widgets\../lv_core/../lv_font/../lv_misc/lv_area.h ****  *      TYPEDEFS
  34:lvgl\src\lv_widgets\../lv_core/../lv_font/../lv_misc/lv_area.h ****  **********************/
  35:lvgl\src\lv_widgets\../lv_core/../lv_font/../lv_misc/lv_area.h **** 
  36:lvgl\src\lv_widgets\../lv_core/../lv_font/../lv_misc/lv_area.h **** /**
  37:lvgl\src\lv_widgets\../lv_core/../lv_font/../lv_misc/lv_area.h ****  * Represents a point on the screen.
  38:lvgl\src\lv_widgets\../lv_core/../lv_font/../lv_misc/lv_area.h ****  */
ARM GAS  C:\Users\strap\AppData\Local\Temp\cc7wbcEe.s 			page 76


  39:lvgl\src\lv_widgets\../lv_core/../lv_font/../lv_misc/lv_area.h **** typedef struct {
  40:lvgl\src\lv_widgets\../lv_core/../lv_font/../lv_misc/lv_area.h ****     lv_coord_t x;
  41:lvgl\src\lv_widgets\../lv_core/../lv_font/../lv_misc/lv_area.h ****     lv_coord_t y;
  42:lvgl\src\lv_widgets\../lv_core/../lv_font/../lv_misc/lv_area.h **** } lv_point_t;
  43:lvgl\src\lv_widgets\../lv_core/../lv_font/../lv_misc/lv_area.h **** 
  44:lvgl\src\lv_widgets\../lv_core/../lv_font/../lv_misc/lv_area.h **** /** Represents an area of the screen. */
  45:lvgl\src\lv_widgets\../lv_core/../lv_font/../lv_misc/lv_area.h **** typedef struct {
  46:lvgl\src\lv_widgets\../lv_core/../lv_font/../lv_misc/lv_area.h ****     lv_coord_t x1;
  47:lvgl\src\lv_widgets\../lv_core/../lv_font/../lv_misc/lv_area.h ****     lv_coord_t y1;
  48:lvgl\src\lv_widgets\../lv_core/../lv_font/../lv_misc/lv_area.h ****     lv_coord_t x2;
  49:lvgl\src\lv_widgets\../lv_core/../lv_font/../lv_misc/lv_area.h ****     lv_coord_t y2;
  50:lvgl\src\lv_widgets\../lv_core/../lv_font/../lv_misc/lv_area.h **** } lv_area_t;
  51:lvgl\src\lv_widgets\../lv_core/../lv_font/../lv_misc/lv_area.h **** 
  52:lvgl\src\lv_widgets\../lv_core/../lv_font/../lv_misc/lv_area.h **** 
  53:lvgl\src\lv_widgets\../lv_core/../lv_font/../lv_misc/lv_area.h **** 
  54:lvgl\src\lv_widgets\../lv_core/../lv_font/../lv_misc/lv_area.h **** /** Alignments */
  55:lvgl\src\lv_widgets\../lv_core/../lv_font/../lv_misc/lv_area.h **** enum {
  56:lvgl\src\lv_widgets\../lv_core/../lv_font/../lv_misc/lv_area.h ****     LV_ALIGN_CENTER = 0,
  57:lvgl\src\lv_widgets\../lv_core/../lv_font/../lv_misc/lv_area.h ****     LV_ALIGN_IN_TOP_LEFT,
  58:lvgl\src\lv_widgets\../lv_core/../lv_font/../lv_misc/lv_area.h ****     LV_ALIGN_IN_TOP_MID,
  59:lvgl\src\lv_widgets\../lv_core/../lv_font/../lv_misc/lv_area.h ****     LV_ALIGN_IN_TOP_RIGHT,
  60:lvgl\src\lv_widgets\../lv_core/../lv_font/../lv_misc/lv_area.h ****     LV_ALIGN_IN_BOTTOM_LEFT,
  61:lvgl\src\lv_widgets\../lv_core/../lv_font/../lv_misc/lv_area.h ****     LV_ALIGN_IN_BOTTOM_MID,
  62:lvgl\src\lv_widgets\../lv_core/../lv_font/../lv_misc/lv_area.h ****     LV_ALIGN_IN_BOTTOM_RIGHT,
  63:lvgl\src\lv_widgets\../lv_core/../lv_font/../lv_misc/lv_area.h ****     LV_ALIGN_IN_LEFT_MID,
  64:lvgl\src\lv_widgets\../lv_core/../lv_font/../lv_misc/lv_area.h ****     LV_ALIGN_IN_RIGHT_MID,
  65:lvgl\src\lv_widgets\../lv_core/../lv_font/../lv_misc/lv_area.h ****     LV_ALIGN_OUT_TOP_LEFT,
  66:lvgl\src\lv_widgets\../lv_core/../lv_font/../lv_misc/lv_area.h ****     LV_ALIGN_OUT_TOP_MID,
  67:lvgl\src\lv_widgets\../lv_core/../lv_font/../lv_misc/lv_area.h ****     LV_ALIGN_OUT_TOP_RIGHT,
  68:lvgl\src\lv_widgets\../lv_core/../lv_font/../lv_misc/lv_area.h ****     LV_ALIGN_OUT_BOTTOM_LEFT,
  69:lvgl\src\lv_widgets\../lv_core/../lv_font/../lv_misc/lv_area.h ****     LV_ALIGN_OUT_BOTTOM_MID,
  70:lvgl\src\lv_widgets\../lv_core/../lv_font/../lv_misc/lv_area.h ****     LV_ALIGN_OUT_BOTTOM_RIGHT,
  71:lvgl\src\lv_widgets\../lv_core/../lv_font/../lv_misc/lv_area.h ****     LV_ALIGN_OUT_LEFT_TOP,
  72:lvgl\src\lv_widgets\../lv_core/../lv_font/../lv_misc/lv_area.h ****     LV_ALIGN_OUT_LEFT_MID,
  73:lvgl\src\lv_widgets\../lv_core/../lv_font/../lv_misc/lv_area.h ****     LV_ALIGN_OUT_LEFT_BOTTOM,
  74:lvgl\src\lv_widgets\../lv_core/../lv_font/../lv_misc/lv_area.h ****     LV_ALIGN_OUT_RIGHT_TOP,
  75:lvgl\src\lv_widgets\../lv_core/../lv_font/../lv_misc/lv_area.h ****     LV_ALIGN_OUT_RIGHT_MID,
  76:lvgl\src\lv_widgets\../lv_core/../lv_font/../lv_misc/lv_area.h ****     LV_ALIGN_OUT_RIGHT_BOTTOM,
  77:lvgl\src\lv_widgets\../lv_core/../lv_font/../lv_misc/lv_area.h **** };
  78:lvgl\src\lv_widgets\../lv_core/../lv_font/../lv_misc/lv_area.h **** typedef uint8_t lv_align_t;
  79:lvgl\src\lv_widgets\../lv_core/../lv_font/../lv_misc/lv_area.h **** 
  80:lvgl\src\lv_widgets\../lv_core/../lv_font/../lv_misc/lv_area.h **** 
  81:lvgl\src\lv_widgets\../lv_core/../lv_font/../lv_misc/lv_area.h **** /**********************
  82:lvgl\src\lv_widgets\../lv_core/../lv_font/../lv_misc/lv_area.h ****  * GLOBAL PROTOTYPES
  83:lvgl\src\lv_widgets\../lv_core/../lv_font/../lv_misc/lv_area.h ****  **********************/
  84:lvgl\src\lv_widgets\../lv_core/../lv_font/../lv_misc/lv_area.h **** 
  85:lvgl\src\lv_widgets\../lv_core/../lv_font/../lv_misc/lv_area.h **** /**
  86:lvgl\src\lv_widgets\../lv_core/../lv_font/../lv_misc/lv_area.h ****  * Initialize an area
  87:lvgl\src\lv_widgets\../lv_core/../lv_font/../lv_misc/lv_area.h ****  * @param area_p pointer to an area
  88:lvgl\src\lv_widgets\../lv_core/../lv_font/../lv_misc/lv_area.h ****  * @param x1 left coordinate of the area
  89:lvgl\src\lv_widgets\../lv_core/../lv_font/../lv_misc/lv_area.h ****  * @param y1 top coordinate of the area
  90:lvgl\src\lv_widgets\../lv_core/../lv_font/../lv_misc/lv_area.h ****  * @param x2 right coordinate of the area
  91:lvgl\src\lv_widgets\../lv_core/../lv_font/../lv_misc/lv_area.h ****  * @param y2 bottom coordinate of the area
  92:lvgl\src\lv_widgets\../lv_core/../lv_font/../lv_misc/lv_area.h ****  */
  93:lvgl\src\lv_widgets\../lv_core/../lv_font/../lv_misc/lv_area.h **** void lv_area_set(lv_area_t * area_p, lv_coord_t x1, lv_coord_t y1, lv_coord_t x2, lv_coord_t y2);
  94:lvgl\src\lv_widgets\../lv_core/../lv_font/../lv_misc/lv_area.h **** 
  95:lvgl\src\lv_widgets\../lv_core/../lv_font/../lv_misc/lv_area.h **** /**
ARM GAS  C:\Users\strap\AppData\Local\Temp\cc7wbcEe.s 			page 77


  96:lvgl\src\lv_widgets\../lv_core/../lv_font/../lv_misc/lv_area.h ****  * Copy an area
  97:lvgl\src\lv_widgets\../lv_core/../lv_font/../lv_misc/lv_area.h ****  * @param dest pointer to the destination area
  98:lvgl\src\lv_widgets\../lv_core/../lv_font/../lv_misc/lv_area.h ****  * @param src pointer to the source area
  99:lvgl\src\lv_widgets\../lv_core/../lv_font/../lv_misc/lv_area.h ****  */
 100:lvgl\src\lv_widgets\../lv_core/../lv_font/../lv_misc/lv_area.h **** inline static void lv_area_copy(lv_area_t * dest, const lv_area_t * src)
 101:lvgl\src\lv_widgets\../lv_core/../lv_font/../lv_misc/lv_area.h **** {
 102:lvgl\src\lv_widgets\../lv_core/../lv_font/../lv_misc/lv_area.h ****     _lv_memcpy_small(dest, src, sizeof(lv_area_t));
 103:lvgl\src\lv_widgets\../lv_core/../lv_font/../lv_misc/lv_area.h **** }
 104:lvgl\src\lv_widgets\../lv_core/../lv_font/../lv_misc/lv_area.h **** 
 105:lvgl\src\lv_widgets\../lv_core/../lv_font/../lv_misc/lv_area.h **** /**
 106:lvgl\src\lv_widgets\../lv_core/../lv_font/../lv_misc/lv_area.h ****  * Get the width of an area
 107:lvgl\src\lv_widgets\../lv_core/../lv_font/../lv_misc/lv_area.h ****  * @param area_p pointer to an area
 108:lvgl\src\lv_widgets\../lv_core/../lv_font/../lv_misc/lv_area.h ****  * @return the width of the area (if x1 == x2 -> width = 1)
 109:lvgl\src\lv_widgets\../lv_core/../lv_font/../lv_misc/lv_area.h ****  */
 110:lvgl\src\lv_widgets\../lv_core/../lv_font/../lv_misc/lv_area.h **** static inline lv_coord_t lv_area_get_width(const lv_area_t * area_p)
 111:lvgl\src\lv_widgets\../lv_core/../lv_font/../lv_misc/lv_area.h **** {
 112:lvgl\src\lv_widgets\../lv_core/../lv_font/../lv_misc/lv_area.h ****     return (lv_coord_t)(area_p->x2 - area_p->x1 + 1);
 2816              		.loc 4 112 0
 2817 0072 B6F90430 		ldrsh	r3, [r6, #4]
 2818 0076 B6F90020 		ldrsh	r2, [r6]
 2819 007a 9B1A     		subs	r3, r3, r2
 2820 007c 0133     		adds	r3, r3, #1
 2821 007e 1BB2     		sxth	r3, r3
 2822              	.LVL412:
 2823              	.LBE233:
 2824              	.LBE232:
 278:lvgl\src\lv_widgets/lv_cont.c ****             lv_cont_refr_layout(cont);
 2825              		.loc 1 278 0
 2826 0080 9842     		cmp	r0, r3
 2827 0082 0BD1     		bne	.L186
 278:lvgl\src\lv_widgets/lv_cont.c ****             lv_cont_refr_layout(cont);
 2828              		.loc 1 278 0 is_stmt 0 discriminator 1
 2829 0084 3846     		mov	r0, r7
 2830 0086 FFF7FEFF 		bl	lv_obj_get_height
 2831              	.LVL413:
 2832              	.LBB234:
 2833              	.LBB235:
 113:lvgl\src\lv_widgets\../lv_core/../lv_font/../lv_misc/lv_area.h **** }
 114:lvgl\src\lv_widgets\../lv_core/../lv_font/../lv_misc/lv_area.h **** 
 115:lvgl\src\lv_widgets\../lv_core/../lv_font/../lv_misc/lv_area.h **** /**
 116:lvgl\src\lv_widgets\../lv_core/../lv_font/../lv_misc/lv_area.h ****  * Get the height of an area
 117:lvgl\src\lv_widgets\../lv_core/../lv_font/../lv_misc/lv_area.h ****  * @param area_p pointer to an area
 118:lvgl\src\lv_widgets\../lv_core/../lv_font/../lv_misc/lv_area.h ****  * @return the height of the area (if y1 == y2 -> height = 1)
 119:lvgl\src\lv_widgets\../lv_core/../lv_font/../lv_misc/lv_area.h ****  */
 120:lvgl\src\lv_widgets\../lv_core/../lv_font/../lv_misc/lv_area.h **** static inline lv_coord_t lv_area_get_height(const lv_area_t * area_p)
 121:lvgl\src\lv_widgets\../lv_core/../lv_font/../lv_misc/lv_area.h **** {
 122:lvgl\src\lv_widgets\../lv_core/../lv_font/../lv_misc/lv_area.h ****     return (lv_coord_t)(area_p->y2 - area_p->y1 + 1);
 2834              		.loc 4 122 0 is_stmt 1 discriminator 1
 2835 008a B6F90630 		ldrsh	r3, [r6, #6]
 2836 008e B6F90220 		ldrsh	r2, [r6, #2]
 2837 0092 9B1A     		subs	r3, r3, r2
 2838 0094 0133     		adds	r3, r3, #1
 2839 0096 1BB2     		sxth	r3, r3
 2840              	.LVL414:
 2841              	.LBE235:
 2842              	.LBE234:
 278:lvgl\src\lv_widgets/lv_cont.c ****             lv_cont_refr_layout(cont);
ARM GAS  C:\Users\strap\AppData\Local\Temp\cc7wbcEe.s 			page 78


 2843              		.loc 1 278 0 discriminator 1
 2844 0098 9842     		cmp	r0, r3
 2845 009a 11D0     		beq	.L189
 2846              	.L186:
 279:lvgl\src\lv_widgets/lv_cont.c ****             lv_cont_refr_autofit(cont);
 2847              		.loc 1 279 0
 2848 009c 3846     		mov	r0, r7
 2849 009e FFF7FEFF 		bl	lv_cont_refr_layout
 2850              	.LVL415:
 280:lvgl\src\lv_widgets/lv_cont.c ****         }
 2851              		.loc 1 280 0
 2852 00a2 3846     		mov	r0, r7
 2853 00a4 FFF7FEFF 		bl	lv_cont_refr_autofit
 2854              	.LVL416:
 288:lvgl\src\lv_widgets/lv_cont.c **** }
 2855              		.loc 1 288 0
 2856 00a8 2046     		mov	r0, r4
 2857 00aa F8BD     		pop	{r3, r4, r5, r6, r7, pc}
 2858              	.LVL417:
 2859              	.L185:
 283:lvgl\src\lv_widgets/lv_cont.c ****         /*MAX and EDGE fit needs to be refreshed if the parent's size has changed*/
 2860              		.loc 1 283 0
 2861 00ac 032D     		cmp	r5, #3
 2862 00ae 09D1     		bne	.L190
 285:lvgl\src\lv_widgets/lv_cont.c ****     }
 2863              		.loc 1 285 0
 2864 00b0 3846     		mov	r0, r7
 2865              	.LVL418:
 2866 00b2 FFF7FEFF 		bl	lv_cont_refr_autofit
 2867              	.LVL419:
 288:lvgl\src\lv_widgets/lv_cont.c **** }
 2868              		.loc 1 288 0
 2869 00b6 2046     		mov	r0, r4
 2870 00b8 F8BD     		pop	{r3, r4, r5, r6, r7, pc}
 2871              	.LVL420:
 2872              	.L187:
 2873              	.LBB236:
 258:lvgl\src\lv_widgets/lv_cont.c ****         else return ancestor_signal(cont, sign, param);
 2874              		.loc 1 258 0
 2875 00ba 0120     		movs	r0, #1
 2876 00bc F8BD     		pop	{r3, r4, r5, r6, r7, pc}
 2877              	.LVL421:
 2878              	.L188:
 2879 00be F8BD     		pop	{r3, r4, r5, r6, r7, pc}
 2880              	.LVL422:
 2881              	.L189:
 2882              	.LBE236:
 288:lvgl\src\lv_widgets/lv_cont.c **** }
 2883              		.loc 1 288 0
 2884 00c0 2046     		mov	r0, r4
 2885 00c2 F8BD     		pop	{r3, r4, r5, r6, r7, pc}
 2886              	.LVL423:
 2887              	.L190:
 289:lvgl\src\lv_widgets/lv_cont.c **** 
 2888              		.loc 1 289 0
 2889 00c4 F8BD     		pop	{r3, r4, r5, r6, r7, pc}
 2890              	.LVL424:
ARM GAS  C:\Users\strap\AppData\Local\Temp\cc7wbcEe.s 			page 79


 2891              	.L193:
 2892 00c6 00BF     		.align	2
 2893              	.L192:
 2894 00c8 00000000 		.word	.LANCHOR0
 2895 00cc 20000000 		.word	.LC2
 2896              		.cfi_endproc
 2897              	.LFE338:
 2898              		.size	lv_cont_signal, .-lv_cont_signal
 2899              		.section	.text.lv_cont_get_fit_left,"ax",%progbits
 2900              		.align	2
 2901              		.global	lv_cont_get_fit_left
 2902              		.thumb
 2903              		.thumb_func
 2904              		.type	lv_cont_get_fit_left, %function
 2905              	lv_cont_get_fit_left:
 2906              	.LFB334:
 196:lvgl\src\lv_widgets/lv_cont.c ****     LV_ASSERT_OBJ(cont, LV_OBJX_NAME);
 2907              		.loc 1 196 0
 2908              		.cfi_startproc
 2909              		@ args = 0, pretend = 0, frame = 0
 2910              		@ frame_needed = 0, uses_anonymous_args = 0
 2911              	.LVL425:
 2912 0000 10B5     		push	{r4, lr}
 2913              		.cfi_def_cfa_offset 8
 2914              		.cfi_offset 4, -8
 2915              		.cfi_offset 14, -4
 2916 0002 0446     		mov	r4, r0
 197:lvgl\src\lv_widgets/lv_cont.c **** 
 2917              		.loc 1 197 0
 2918 0004 FFF7FEFF 		bl	lv_debug_check_null
 2919              	.LVL426:
 2920 0008 28B9     		cbnz	r0, .L195
 197:lvgl\src\lv_widgets/lv_cont.c **** 
 2921              		.loc 1 197 0 is_stmt 0 discriminator 1
 2922 000a 2246     		mov	r2, r4
 2923 000c 0023     		movs	r3, #0
 2924 000e 0548     		ldr	r0, .L198
 2925 0010 FFF7FEFF 		bl	lv_debug_log_error
 2926              	.LVL427:
 2927              	.L196:
 2928 0014 FEE7     		b	.L196
 2929              	.L195:
 199:lvgl\src\lv_widgets/lv_cont.c ****     return ext->fit_left;
 2930              		.loc 1 199 0 is_stmt 1
 2931 0016 2046     		mov	r0, r4
 2932 0018 FFF7FEFF 		bl	lv_obj_get_ext_attr
 2933              	.LVL428:
 200:lvgl\src\lv_widgets/lv_cont.c **** }
 2934              		.loc 1 200 0
 2935 001c 0078     		ldrb	r0, [r0]	@ zero_extendqisi2
 2936              	.LVL429:
 201:lvgl\src\lv_widgets/lv_cont.c **** 
 2937              		.loc 1 201 0
 2938 001e C0F30110 		ubfx	r0, r0, #4, #2
 2939 0022 10BD     		pop	{r4, pc}
 2940              	.LVL430:
 2941              	.L199:
ARM GAS  C:\Users\strap\AppData\Local\Temp\cc7wbcEe.s 			page 80


 2942              		.align	2
 2943              	.L198:
 2944 0024 10000000 		.word	.LC1
 2945              		.cfi_endproc
 2946              	.LFE334:
 2947              		.size	lv_cont_get_fit_left, .-lv_cont_get_fit_left
 2948              		.section	.text.lv_cont_get_fit_right,"ax",%progbits
 2949              		.align	2
 2950              		.global	lv_cont_get_fit_right
 2951              		.thumb
 2952              		.thumb_func
 2953              		.type	lv_cont_get_fit_right, %function
 2954              	lv_cont_get_fit_right:
 2955              	.LFB335:
 209:lvgl\src\lv_widgets/lv_cont.c ****     LV_ASSERT_OBJ(cont, LV_OBJX_NAME);
 2956              		.loc 1 209 0
 2957              		.cfi_startproc
 2958              		@ args = 0, pretend = 0, frame = 0
 2959              		@ frame_needed = 0, uses_anonymous_args = 0
 2960              	.LVL431:
 2961 0000 10B5     		push	{r4, lr}
 2962              		.cfi_def_cfa_offset 8
 2963              		.cfi_offset 4, -8
 2964              		.cfi_offset 14, -4
 2965 0002 0446     		mov	r4, r0
 210:lvgl\src\lv_widgets/lv_cont.c **** 
 2966              		.loc 1 210 0
 2967 0004 FFF7FEFF 		bl	lv_debug_check_null
 2968              	.LVL432:
 2969 0008 28B9     		cbnz	r0, .L201
 210:lvgl\src\lv_widgets/lv_cont.c **** 
 2970              		.loc 1 210 0 is_stmt 0 discriminator 1
 2971 000a 2246     		mov	r2, r4
 2972 000c 0023     		movs	r3, #0
 2973 000e 0548     		ldr	r0, .L204
 2974 0010 FFF7FEFF 		bl	lv_debug_log_error
 2975              	.LVL433:
 2976              	.L202:
 2977 0014 FEE7     		b	.L202
 2978              	.L201:
 212:lvgl\src\lv_widgets/lv_cont.c ****     return ext->fit_right;
 2979              		.loc 1 212 0 is_stmt 1
 2980 0016 2046     		mov	r0, r4
 2981 0018 FFF7FEFF 		bl	lv_obj_get_ext_attr
 2982              	.LVL434:
 213:lvgl\src\lv_widgets/lv_cont.c **** }
 2983              		.loc 1 213 0
 2984 001c 0078     		ldrb	r0, [r0]	@ zero_extendqisi2
 2985              	.LVL435:
 214:lvgl\src\lv_widgets/lv_cont.c **** 
 2986              		.loc 1 214 0
 2987 001e 8009     		lsrs	r0, r0, #6
 2988 0020 10BD     		pop	{r4, pc}
 2989              	.LVL436:
 2990              	.L205:
 2991 0022 00BF     		.align	2
 2992              	.L204:
ARM GAS  C:\Users\strap\AppData\Local\Temp\cc7wbcEe.s 			page 81


 2993 0024 10000000 		.word	.LC1
 2994              		.cfi_endproc
 2995              	.LFE335:
 2996              		.size	lv_cont_get_fit_right, .-lv_cont_get_fit_right
 2997              		.section	.text.lv_cont_get_fit_top,"ax",%progbits
 2998              		.align	2
 2999              		.global	lv_cont_get_fit_top
 3000              		.thumb
 3001              		.thumb_func
 3002              		.type	lv_cont_get_fit_top, %function
 3003              	lv_cont_get_fit_top:
 3004              	.LFB336:
 222:lvgl\src\lv_widgets/lv_cont.c ****     LV_ASSERT_OBJ(cont, LV_OBJX_NAME);
 3005              		.loc 1 222 0
 3006              		.cfi_startproc
 3007              		@ args = 0, pretend = 0, frame = 0
 3008              		@ frame_needed = 0, uses_anonymous_args = 0
 3009              	.LVL437:
 3010 0000 10B5     		push	{r4, lr}
 3011              		.cfi_def_cfa_offset 8
 3012              		.cfi_offset 4, -8
 3013              		.cfi_offset 14, -4
 3014 0002 0446     		mov	r4, r0
 223:lvgl\src\lv_widgets/lv_cont.c **** 
 3015              		.loc 1 223 0
 3016 0004 FFF7FEFF 		bl	lv_debug_check_null
 3017              	.LVL438:
 3018 0008 28B9     		cbnz	r0, .L207
 223:lvgl\src\lv_widgets/lv_cont.c **** 
 3019              		.loc 1 223 0 is_stmt 0 discriminator 1
 3020 000a 2246     		mov	r2, r4
 3021 000c 0023     		movs	r3, #0
 3022 000e 0548     		ldr	r0, .L210
 3023 0010 FFF7FEFF 		bl	lv_debug_log_error
 3024              	.LVL439:
 3025              	.L208:
 3026 0014 FEE7     		b	.L208
 3027              	.L207:
 225:lvgl\src\lv_widgets/lv_cont.c ****     return ext->fit_top;
 3028              		.loc 1 225 0 is_stmt 1
 3029 0016 2046     		mov	r0, r4
 3030 0018 FFF7FEFF 		bl	lv_obj_get_ext_attr
 3031              	.LVL440:
 226:lvgl\src\lv_widgets/lv_cont.c **** }
 3032              		.loc 1 226 0
 3033 001c 4078     		ldrb	r0, [r0, #1]	@ zero_extendqisi2
 3034              	.LVL441:
 227:lvgl\src\lv_widgets/lv_cont.c **** 
 3035              		.loc 1 227 0
 3036 001e 00F00300 		and	r0, r0, #3
 3037 0022 10BD     		pop	{r4, pc}
 3038              	.LVL442:
 3039              	.L211:
 3040              		.align	2
 3041              	.L210:
 3042 0024 10000000 		.word	.LC1
 3043              		.cfi_endproc
ARM GAS  C:\Users\strap\AppData\Local\Temp\cc7wbcEe.s 			page 82


 3044              	.LFE336:
 3045              		.size	lv_cont_get_fit_top, .-lv_cont_get_fit_top
 3046              		.section	.text.lv_cont_get_fit_bottom,"ax",%progbits
 3047              		.align	2
 3048              		.global	lv_cont_get_fit_bottom
 3049              		.thumb
 3050              		.thumb_func
 3051              		.type	lv_cont_get_fit_bottom, %function
 3052              	lv_cont_get_fit_bottom:
 3053              	.LFB337:
 235:lvgl\src\lv_widgets/lv_cont.c ****     LV_ASSERT_OBJ(cont, LV_OBJX_NAME);
 3054              		.loc 1 235 0
 3055              		.cfi_startproc
 3056              		@ args = 0, pretend = 0, frame = 0
 3057              		@ frame_needed = 0, uses_anonymous_args = 0
 3058              	.LVL443:
 3059 0000 10B5     		push	{r4, lr}
 3060              		.cfi_def_cfa_offset 8
 3061              		.cfi_offset 4, -8
 3062              		.cfi_offset 14, -4
 3063 0002 0446     		mov	r4, r0
 236:lvgl\src\lv_widgets/lv_cont.c **** 
 3064              		.loc 1 236 0
 3065 0004 FFF7FEFF 		bl	lv_debug_check_null
 3066              	.LVL444:
 3067 0008 28B9     		cbnz	r0, .L213
 236:lvgl\src\lv_widgets/lv_cont.c **** 
 3068              		.loc 1 236 0 is_stmt 0 discriminator 1
 3069 000a 2246     		mov	r2, r4
 3070 000c 0023     		movs	r3, #0
 3071 000e 0548     		ldr	r0, .L216
 3072 0010 FFF7FEFF 		bl	lv_debug_log_error
 3073              	.LVL445:
 3074              	.L214:
 3075 0014 FEE7     		b	.L214
 3076              	.L213:
 238:lvgl\src\lv_widgets/lv_cont.c ****     return ext->fit_bottom;
 3077              		.loc 1 238 0 is_stmt 1
 3078 0016 2046     		mov	r0, r4
 3079 0018 FFF7FEFF 		bl	lv_obj_get_ext_attr
 3080              	.LVL446:
 239:lvgl\src\lv_widgets/lv_cont.c **** }
 3081              		.loc 1 239 0
 3082 001c 4078     		ldrb	r0, [r0, #1]	@ zero_extendqisi2
 3083              	.LVL447:
 240:lvgl\src\lv_widgets/lv_cont.c **** 
 3084              		.loc 1 240 0
 3085 001e C0F38100 		ubfx	r0, r0, #2, #2
 3086 0022 10BD     		pop	{r4, pc}
 3087              	.LVL448:
 3088              	.L217:
 3089              		.align	2
 3090              	.L216:
 3091 0024 10000000 		.word	.LC1
 3092              		.cfi_endproc
 3093              	.LFE337:
 3094              		.size	lv_cont_get_fit_bottom, .-lv_cont_get_fit_bottom
ARM GAS  C:\Users\strap\AppData\Local\Temp\cc7wbcEe.s 			page 83


 3095              		.section	.rodata.str1.4,"aMS",%progbits,1
 3096              		.align	2
 3097              	.LC0:
 3098 0000 4F757420 		.ascii	"Out of memory\000"
 3098      6F66206D 
 3098      656D6F72 
 3098      7900
 3099 000e 0000     		.space	2
 3100              	.LC1:
 3101 0010 4E554C4C 		.ascii	"NULL pointer\000"
 3101      20706F69 
 3101      6E746572 
 3101      00
 3102 001d 000000   		.space	3
 3103              	.LC2:
 3104 0020 6C765F63 		.ascii	"lv_cont\000"
 3104      6F6E7400 
 3105              		.bss
 3106              		.align	2
 3107              		.set	.LANCHOR0,. + 0
 3108              		.type	ancestor_signal, %object
 3109              		.size	ancestor_signal, 4
 3110              	ancestor_signal:
 3111 0000 00000000 		.space	4
 3112              		.type	ancestor_design, %object
 3113              		.size	ancestor_design, 4
 3114              	ancestor_design:
 3115 0004 00000000 		.space	4
 3116              		.text
 3117              	.Letext0:
 3118              		.file 5 "c:\\program files (x86)\\cypress\\psoc creator\\4.4\\psoc creator\\import\\gnu\\arm\\5.4.
 3119              		.file 6 "c:\\program files (x86)\\cypress\\psoc creator\\4.4\\psoc creator\\import\\gnu\\arm\\5.4.
 3120              		.file 7 "lvgl\\src\\lv_widgets\\../../../lv_conf.h"
 3121              		.file 8 "c:\\program files (x86)\\cypress\\psoc creator\\4.4\\psoc creator\\import\\gnu\\arm\\5.4.
 3122              		.file 9 "lvgl\\src\\lv_widgets\\../lv_core/../lv_font/../lv_misc/lv_types.h"
 3123              		.file 10 "lvgl\\src\\lv_widgets\\../lv_core/lv_style.h"
 3124              		.file 11 "lvgl\\src\\lv_widgets\\../lv_core/../lv_hal/../lv_misc/lv_ll.h"
 3125              		.file 12 "lvgl\\src\\lv_widgets\\../lv_core/lv_obj.h"
 3126              		.file 13 "lvgl\\src\\lv_widgets\\../lv_core/../lv_hal/lv_hal_indev.h"
 3127              		.file 14 "lvgl\\src\\lv_widgets\\../lv_core/../lv_draw/../lv_misc/lv_bidi.h"
 3128              		.file 15 "lvgl\\src\\lv_widgets\\lv_cont.h"
 3129              		.file 16 "lvgl\\src\\lv_widgets\\../lv_themes/lv_theme.h"
