ARM GAS  C:\Users\strap\AppData\Local\Temp\ccQGFe6s.s 			page 1


   1              		.syntax unified
   2              		.cpu cortex-m3
   3              		.fpu softvfp
   4              		.eabi_attribute 20, 1
   5              		.eabi_attribute 21, 1
   6              		.eabi_attribute 23, 3
   7              		.eabi_attribute 24, 1
   8              		.eabi_attribute 25, 1
   9              		.eabi_attribute 26, 1
  10              		.eabi_attribute 30, 1
  11              		.eabi_attribute 34, 1
  12              		.eabi_attribute 18, 4
  13              		.thumb
  14              		.syntax unified
  15              		.file	"lv_draw_arc.c"
  16              		.text
  17              	.Ltext0:
  18              		.cfi_sections	.debug_frame
  19              		.section	.text.get_rounded_area,"ax",%progbits
  20              		.align	2
  21              		.thumb
  22              		.thumb_func
  23              		.type	get_rounded_area, %function
  24              	get_rounded_area:
  25              	.LFB41:
  26              		.file 1 "lvgl\\src\\lv_draw\\lv_draw_arc.c"
   1:lvgl\src\lv_draw/lv_draw_arc.c **** /**
   2:lvgl\src\lv_draw/lv_draw_arc.c ****  * @file lv_draw_arc.c
   3:lvgl\src\lv_draw/lv_draw_arc.c ****  *
   4:lvgl\src\lv_draw/lv_draw_arc.c ****  */
   5:lvgl\src\lv_draw/lv_draw_arc.c **** 
   6:lvgl\src\lv_draw/lv_draw_arc.c **** /*********************
   7:lvgl\src\lv_draw/lv_draw_arc.c ****  *      INCLUDES
   8:lvgl\src\lv_draw/lv_draw_arc.c ****  *********************/
   9:lvgl\src\lv_draw/lv_draw_arc.c **** #include "lv_draw_arc.h"
  10:lvgl\src\lv_draw/lv_draw_arc.c **** #include "lv_draw_rect.h"
  11:lvgl\src\lv_draw/lv_draw_arc.c **** #include "lv_draw_mask.h"
  12:lvgl\src\lv_draw/lv_draw_arc.c **** #include "../lv_misc/lv_math.h"
  13:lvgl\src\lv_draw/lv_draw_arc.c **** 
  14:lvgl\src\lv_draw/lv_draw_arc.c **** /*********************
  15:lvgl\src\lv_draw/lv_draw_arc.c ****  *      DEFINES
  16:lvgl\src\lv_draw/lv_draw_arc.c ****  *********************/
  17:lvgl\src\lv_draw/lv_draw_arc.c **** #define SPLIT_RADIUS_LIMIT 10  /*With radius greater then this the arc will drawn in quarters. A qu
  18:lvgl\src\lv_draw/lv_draw_arc.c **** #define SPLIT_ANGLE_GAP_LIMIT 60  /*With small gaps in the arc don't bother with splitting because 
  19:lvgl\src\lv_draw/lv_draw_arc.c **** 
  20:lvgl\src\lv_draw/lv_draw_arc.c **** /**********************
  21:lvgl\src\lv_draw/lv_draw_arc.c ****  *      TYPEDEFS
  22:lvgl\src\lv_draw/lv_draw_arc.c ****  **********************/
  23:lvgl\src\lv_draw/lv_draw_arc.c **** typedef struct {
  24:lvgl\src\lv_draw/lv_draw_arc.c ****     lv_coord_t center_x;
  25:lvgl\src\lv_draw/lv_draw_arc.c ****     lv_coord_t center_y;
  26:lvgl\src\lv_draw/lv_draw_arc.c ****     lv_coord_t radius;
  27:lvgl\src\lv_draw/lv_draw_arc.c ****     uint16_t start_angle;
  28:lvgl\src\lv_draw/lv_draw_arc.c ****     uint16_t end_angle;
  29:lvgl\src\lv_draw/lv_draw_arc.c ****     uint16_t start_quarter;
  30:lvgl\src\lv_draw/lv_draw_arc.c ****     uint16_t end_quarter;
  31:lvgl\src\lv_draw/lv_draw_arc.c ****     lv_coord_t width;
ARM GAS  C:\Users\strap\AppData\Local\Temp\ccQGFe6s.s 			page 2


  32:lvgl\src\lv_draw/lv_draw_arc.c ****     lv_draw_rect_dsc_t * draw_dsc;
  33:lvgl\src\lv_draw/lv_draw_arc.c ****     const lv_area_t * draw_area;
  34:lvgl\src\lv_draw/lv_draw_arc.c ****     const lv_area_t * clip_area;
  35:lvgl\src\lv_draw/lv_draw_arc.c **** } quarter_draw_dsc_t;
  36:lvgl\src\lv_draw/lv_draw_arc.c **** 
  37:lvgl\src\lv_draw/lv_draw_arc.c **** 
  38:lvgl\src\lv_draw/lv_draw_arc.c **** /**********************
  39:lvgl\src\lv_draw/lv_draw_arc.c ****  *  STATIC PROTOTYPES
  40:lvgl\src\lv_draw/lv_draw_arc.c ****  **********************/
  41:lvgl\src\lv_draw/lv_draw_arc.c **** static void draw_quarter_0(quarter_draw_dsc_t * q);
  42:lvgl\src\lv_draw/lv_draw_arc.c **** static void draw_quarter_1(quarter_draw_dsc_t * q);
  43:lvgl\src\lv_draw/lv_draw_arc.c **** static void draw_quarter_2(quarter_draw_dsc_t * q);
  44:lvgl\src\lv_draw/lv_draw_arc.c **** static void draw_quarter_3(quarter_draw_dsc_t * q);
  45:lvgl\src\lv_draw/lv_draw_arc.c **** static void get_rounded_area(int16_t angle, lv_coord_t radius, uint8_t tickness, lv_area_t * res_ar
  46:lvgl\src\lv_draw/lv_draw_arc.c **** 
  47:lvgl\src\lv_draw/lv_draw_arc.c **** 
  48:lvgl\src\lv_draw/lv_draw_arc.c **** /**********************
  49:lvgl\src\lv_draw/lv_draw_arc.c ****  *  STATIC VARIABLES
  50:lvgl\src\lv_draw/lv_draw_arc.c ****  **********************/
  51:lvgl\src\lv_draw/lv_draw_arc.c **** 
  52:lvgl\src\lv_draw/lv_draw_arc.c **** /**********************
  53:lvgl\src\lv_draw/lv_draw_arc.c ****  *      MACROS
  54:lvgl\src\lv_draw/lv_draw_arc.c ****  **********************/
  55:lvgl\src\lv_draw/lv_draw_arc.c **** 
  56:lvgl\src\lv_draw/lv_draw_arc.c **** /**********************
  57:lvgl\src\lv_draw/lv_draw_arc.c ****  *   GLOBAL FUNCTIONS
  58:lvgl\src\lv_draw/lv_draw_arc.c ****  **********************/
  59:lvgl\src\lv_draw/lv_draw_arc.c **** 
  60:lvgl\src\lv_draw/lv_draw_arc.c **** /**
  61:lvgl\src\lv_draw/lv_draw_arc.c ****  * Draw an arc. (Can draw pie too with great thickness.)
  62:lvgl\src\lv_draw/lv_draw_arc.c ****  * @param center_x the x coordinate of the center of the arc
  63:lvgl\src\lv_draw/lv_draw_arc.c ****  * @param center_y the y coordinate of the center of the arc
  64:lvgl\src\lv_draw/lv_draw_arc.c ****  * @param radius the radius of the arc
  65:lvgl\src\lv_draw/lv_draw_arc.c ****  * @param mask the arc will be drawn only in this mask
  66:lvgl\src\lv_draw/lv_draw_arc.c ****  * @param start_angle the start angle of the arc (0 deg on the bottom, 90 deg on the right)
  67:lvgl\src\lv_draw/lv_draw_arc.c ****  * @param end_angle the end angle of the arc
  68:lvgl\src\lv_draw/lv_draw_arc.c ****  * @param clip_area the arc will be drawn only in this area
  69:lvgl\src\lv_draw/lv_draw_arc.c ****  * @param dsc pointer to an initialized `lv_draw_line_dsc_t` variable
  70:lvgl\src\lv_draw/lv_draw_arc.c ****  */
  71:lvgl\src\lv_draw/lv_draw_arc.c **** void lv_draw_arc(lv_coord_t center_x, lv_coord_t center_y, uint16_t radius,  uint16_t start_angle, 
  72:lvgl\src\lv_draw/lv_draw_arc.c ****                  const lv_area_t * clip_area, const lv_draw_line_dsc_t * dsc)
  73:lvgl\src\lv_draw/lv_draw_arc.c **** {
  74:lvgl\src\lv_draw/lv_draw_arc.c ****     if(dsc->opa <= LV_OPA_MIN) return;
  75:lvgl\src\lv_draw/lv_draw_arc.c ****     if(dsc->width == 0) return;
  76:lvgl\src\lv_draw/lv_draw_arc.c ****     if(start_angle == end_angle) return;
  77:lvgl\src\lv_draw/lv_draw_arc.c **** 
  78:lvgl\src\lv_draw/lv_draw_arc.c ****     lv_style_int_t width = dsc->width;
  79:lvgl\src\lv_draw/lv_draw_arc.c ****     if(width > radius) width = radius;
  80:lvgl\src\lv_draw/lv_draw_arc.c **** 
  81:lvgl\src\lv_draw/lv_draw_arc.c ****     lv_draw_rect_dsc_t cir_dsc;
  82:lvgl\src\lv_draw/lv_draw_arc.c ****     lv_draw_rect_dsc_init(&cir_dsc);
  83:lvgl\src\lv_draw/lv_draw_arc.c ****     cir_dsc.radius = LV_RADIUS_CIRCLE;
  84:lvgl\src\lv_draw/lv_draw_arc.c ****     cir_dsc.bg_opa = LV_OPA_TRANSP;
  85:lvgl\src\lv_draw/lv_draw_arc.c ****     cir_dsc.border_opa = dsc->opa;
  86:lvgl\src\lv_draw/lv_draw_arc.c ****     cir_dsc.border_color = dsc->color;
  87:lvgl\src\lv_draw/lv_draw_arc.c ****     cir_dsc.border_width = width;
  88:lvgl\src\lv_draw/lv_draw_arc.c ****     cir_dsc.border_blend_mode = dsc->blend_mode;
ARM GAS  C:\Users\strap\AppData\Local\Temp\ccQGFe6s.s 			page 3


  89:lvgl\src\lv_draw/lv_draw_arc.c **** 
  90:lvgl\src\lv_draw/lv_draw_arc.c ****     lv_area_t area;
  91:lvgl\src\lv_draw/lv_draw_arc.c ****     area.x1 = center_x - radius;
  92:lvgl\src\lv_draw/lv_draw_arc.c ****     area.y1 = center_y - radius;
  93:lvgl\src\lv_draw/lv_draw_arc.c ****     area.x2 = center_x + radius - 1;  /*-1 because the center already belongs to the left/bottom pa
  94:lvgl\src\lv_draw/lv_draw_arc.c ****     area.y2 = center_y + radius - 1;
  95:lvgl\src\lv_draw/lv_draw_arc.c **** 
  96:lvgl\src\lv_draw/lv_draw_arc.c ****     /*Draw a full ring*/
  97:lvgl\src\lv_draw/lv_draw_arc.c ****     if(start_angle + 360 == end_angle || start_angle == end_angle + 360) {
  98:lvgl\src\lv_draw/lv_draw_arc.c ****         lv_draw_rect(&area, clip_area, &cir_dsc);
  99:lvgl\src\lv_draw/lv_draw_arc.c ****         return;
 100:lvgl\src\lv_draw/lv_draw_arc.c ****     }
 101:lvgl\src\lv_draw/lv_draw_arc.c **** 
 102:lvgl\src\lv_draw/lv_draw_arc.c ****     if(start_angle >= 360) start_angle -= 360;
 103:lvgl\src\lv_draw/lv_draw_arc.c ****     if(end_angle >= 360) end_angle -= 360;
 104:lvgl\src\lv_draw/lv_draw_arc.c **** 
 105:lvgl\src\lv_draw/lv_draw_arc.c ****     lv_draw_mask_angle_param_t mask_angle_param;
 106:lvgl\src\lv_draw/lv_draw_arc.c ****     lv_draw_mask_angle_init(&mask_angle_param, center_x, center_y, start_angle, end_angle);
 107:lvgl\src\lv_draw/lv_draw_arc.c **** 
 108:lvgl\src\lv_draw/lv_draw_arc.c ****     int16_t mask_angle_id = lv_draw_mask_add(&mask_angle_param, NULL);
 109:lvgl\src\lv_draw/lv_draw_arc.c **** 
 110:lvgl\src\lv_draw/lv_draw_arc.c ****     int32_t angle_gap;
 111:lvgl\src\lv_draw/lv_draw_arc.c ****     if(end_angle > start_angle) {
 112:lvgl\src\lv_draw/lv_draw_arc.c ****         angle_gap = 360 - (end_angle - start_angle);
 113:lvgl\src\lv_draw/lv_draw_arc.c ****     }
 114:lvgl\src\lv_draw/lv_draw_arc.c ****     else {
 115:lvgl\src\lv_draw/lv_draw_arc.c ****         angle_gap = start_angle - end_angle;
 116:lvgl\src\lv_draw/lv_draw_arc.c ****     }
 117:lvgl\src\lv_draw/lv_draw_arc.c ****     if(angle_gap > SPLIT_ANGLE_GAP_LIMIT && radius > SPLIT_RADIUS_LIMIT) {
 118:lvgl\src\lv_draw/lv_draw_arc.c ****         /*Handle each quarter individually and skip which is empty*/
 119:lvgl\src\lv_draw/lv_draw_arc.c ****         quarter_draw_dsc_t q_dsc;
 120:lvgl\src\lv_draw/lv_draw_arc.c ****         q_dsc.center_x = center_x;
 121:lvgl\src\lv_draw/lv_draw_arc.c ****         q_dsc.center_y = center_y;
 122:lvgl\src\lv_draw/lv_draw_arc.c ****         q_dsc.radius = radius;
 123:lvgl\src\lv_draw/lv_draw_arc.c ****         q_dsc.start_angle = start_angle;
 124:lvgl\src\lv_draw/lv_draw_arc.c ****         q_dsc.end_angle = end_angle;
 125:lvgl\src\lv_draw/lv_draw_arc.c ****         q_dsc.start_quarter = (start_angle / 90) & 0x3;
 126:lvgl\src\lv_draw/lv_draw_arc.c ****         q_dsc.end_quarter = (end_angle / 90) & 0x3;
 127:lvgl\src\lv_draw/lv_draw_arc.c ****         q_dsc.width = width;
 128:lvgl\src\lv_draw/lv_draw_arc.c ****         q_dsc.draw_dsc =  &cir_dsc;
 129:lvgl\src\lv_draw/lv_draw_arc.c ****         q_dsc.draw_area = &area;
 130:lvgl\src\lv_draw/lv_draw_arc.c ****         q_dsc.clip_area = clip_area;
 131:lvgl\src\lv_draw/lv_draw_arc.c **** 
 132:lvgl\src\lv_draw/lv_draw_arc.c ****         draw_quarter_0(&q_dsc);
 133:lvgl\src\lv_draw/lv_draw_arc.c ****         draw_quarter_1(&q_dsc);
 134:lvgl\src\lv_draw/lv_draw_arc.c ****         draw_quarter_2(&q_dsc);
 135:lvgl\src\lv_draw/lv_draw_arc.c ****         draw_quarter_3(&q_dsc);
 136:lvgl\src\lv_draw/lv_draw_arc.c ****     }
 137:lvgl\src\lv_draw/lv_draw_arc.c ****     else {
 138:lvgl\src\lv_draw/lv_draw_arc.c ****         lv_draw_rect(&area, clip_area, &cir_dsc);
 139:lvgl\src\lv_draw/lv_draw_arc.c ****     }
 140:lvgl\src\lv_draw/lv_draw_arc.c ****     lv_draw_mask_remove_id(mask_angle_id);
 141:lvgl\src\lv_draw/lv_draw_arc.c **** 
 142:lvgl\src\lv_draw/lv_draw_arc.c ****     if(dsc->round_start || dsc->round_end) {
 143:lvgl\src\lv_draw/lv_draw_arc.c ****         cir_dsc.bg_color        = dsc->color;
 144:lvgl\src\lv_draw/lv_draw_arc.c ****         cir_dsc.bg_opa        = dsc->opa;
 145:lvgl\src\lv_draw/lv_draw_arc.c ****         cir_dsc.bg_blend_mode = dsc->blend_mode;
ARM GAS  C:\Users\strap\AppData\Local\Temp\ccQGFe6s.s 			page 4


 146:lvgl\src\lv_draw/lv_draw_arc.c ****         cir_dsc.border_width = 0;
 147:lvgl\src\lv_draw/lv_draw_arc.c **** 
 148:lvgl\src\lv_draw/lv_draw_arc.c ****         lv_area_t round_area;
 149:lvgl\src\lv_draw/lv_draw_arc.c ****         if(dsc->round_start) {
 150:lvgl\src\lv_draw/lv_draw_arc.c ****             get_rounded_area(start_angle, radius, width, &round_area);
 151:lvgl\src\lv_draw/lv_draw_arc.c ****             round_area.x1 += center_x;
 152:lvgl\src\lv_draw/lv_draw_arc.c ****             round_area.x2 += center_x;
 153:lvgl\src\lv_draw/lv_draw_arc.c ****             round_area.y1 += center_y;
 154:lvgl\src\lv_draw/lv_draw_arc.c ****             round_area.y2 += center_y;
 155:lvgl\src\lv_draw/lv_draw_arc.c **** 
 156:lvgl\src\lv_draw/lv_draw_arc.c ****             lv_draw_rect(&round_area, clip_area, &cir_dsc);
 157:lvgl\src\lv_draw/lv_draw_arc.c ****         }
 158:lvgl\src\lv_draw/lv_draw_arc.c **** 
 159:lvgl\src\lv_draw/lv_draw_arc.c ****         if(dsc->round_end) {
 160:lvgl\src\lv_draw/lv_draw_arc.c ****             get_rounded_area(end_angle, radius, width, &round_area);
 161:lvgl\src\lv_draw/lv_draw_arc.c ****             round_area.x1 += center_x;
 162:lvgl\src\lv_draw/lv_draw_arc.c ****             round_area.x2 += center_x;
 163:lvgl\src\lv_draw/lv_draw_arc.c ****             round_area.y1 += center_y;
 164:lvgl\src\lv_draw/lv_draw_arc.c ****             round_area.y2 += center_y;
 165:lvgl\src\lv_draw/lv_draw_arc.c **** 
 166:lvgl\src\lv_draw/lv_draw_arc.c ****             lv_draw_rect(&round_area, clip_area, &cir_dsc);
 167:lvgl\src\lv_draw/lv_draw_arc.c ****         }
 168:lvgl\src\lv_draw/lv_draw_arc.c ****     }
 169:lvgl\src\lv_draw/lv_draw_arc.c **** }
 170:lvgl\src\lv_draw/lv_draw_arc.c **** 
 171:lvgl\src\lv_draw/lv_draw_arc.c **** /**********************
 172:lvgl\src\lv_draw/lv_draw_arc.c ****  *   STATIC FUNCTIONS
 173:lvgl\src\lv_draw/lv_draw_arc.c ****  **********************/
 174:lvgl\src\lv_draw/lv_draw_arc.c **** 
 175:lvgl\src\lv_draw/lv_draw_arc.c **** static void draw_quarter_0(quarter_draw_dsc_t * q)
 176:lvgl\src\lv_draw/lv_draw_arc.c **** {
 177:lvgl\src\lv_draw/lv_draw_arc.c ****     lv_area_t quarter_area;
 178:lvgl\src\lv_draw/lv_draw_arc.c **** 
 179:lvgl\src\lv_draw/lv_draw_arc.c ****     if(q->start_quarter == 0 && q->end_quarter == 0 && q->start_angle < q->end_angle) {
 180:lvgl\src\lv_draw/lv_draw_arc.c ****         /*Small arc here*/
 181:lvgl\src\lv_draw/lv_draw_arc.c ****         quarter_area.y1 = q->center_y + ((_lv_trigo_sin(q->start_angle) * (q->radius - q->width)) >
 182:lvgl\src\lv_draw/lv_draw_arc.c ****         quarter_area.x2 = q->center_x + ((_lv_trigo_sin(q->start_angle + 90) * (q->radius)) >> LV_T
 183:lvgl\src\lv_draw/lv_draw_arc.c **** 
 184:lvgl\src\lv_draw/lv_draw_arc.c ****         quarter_area.y2 = q->center_y + ((_lv_trigo_sin(q->end_angle) * q->radius) >> LV_TRIGO_SHIF
 185:lvgl\src\lv_draw/lv_draw_arc.c ****         quarter_area.x1 = q->center_x + ((_lv_trigo_sin(q->end_angle + 90) * (q->radius - q->width)
 186:lvgl\src\lv_draw/lv_draw_arc.c **** 
 187:lvgl\src\lv_draw/lv_draw_arc.c ****         bool ok = _lv_area_intersect(&quarter_area, &quarter_area, q->clip_area);
 188:lvgl\src\lv_draw/lv_draw_arc.c ****         if(ok) lv_draw_rect(q->draw_area, &quarter_area, q->draw_dsc);
 189:lvgl\src\lv_draw/lv_draw_arc.c ****     }
 190:lvgl\src\lv_draw/lv_draw_arc.c ****     else if(q->start_quarter == 0 || q->end_quarter == 0) {
 191:lvgl\src\lv_draw/lv_draw_arc.c ****         /*Start and/or end arcs here*/
 192:lvgl\src\lv_draw/lv_draw_arc.c ****         if(q->start_quarter == 0) {
 193:lvgl\src\lv_draw/lv_draw_arc.c ****             quarter_area.x1 = q->center_x;
 194:lvgl\src\lv_draw/lv_draw_arc.c ****             quarter_area.y2 = q->center_y + q->radius;
 195:lvgl\src\lv_draw/lv_draw_arc.c **** 
 196:lvgl\src\lv_draw/lv_draw_arc.c ****             quarter_area.y1 = q->center_y + ((_lv_trigo_sin(q->start_angle) * (q->radius - q->width
 197:lvgl\src\lv_draw/lv_draw_arc.c ****             quarter_area.x2 = q->center_x + ((_lv_trigo_sin(q->start_angle + 90) * (q->radius)) >> 
 198:lvgl\src\lv_draw/lv_draw_arc.c **** 
 199:lvgl\src\lv_draw/lv_draw_arc.c ****             bool ok = _lv_area_intersect(&quarter_area, &quarter_area, q->clip_area);
 200:lvgl\src\lv_draw/lv_draw_arc.c ****             if(ok) lv_draw_rect(q->draw_area, &quarter_area, q->draw_dsc);
 201:lvgl\src\lv_draw/lv_draw_arc.c ****         }
 202:lvgl\src\lv_draw/lv_draw_arc.c ****         if(q->end_quarter == 0) {
ARM GAS  C:\Users\strap\AppData\Local\Temp\ccQGFe6s.s 			page 5


 203:lvgl\src\lv_draw/lv_draw_arc.c ****             quarter_area.x2 = q->center_x + q->radius;
 204:lvgl\src\lv_draw/lv_draw_arc.c ****             quarter_area.y1 = q->center_y;
 205:lvgl\src\lv_draw/lv_draw_arc.c **** 
 206:lvgl\src\lv_draw/lv_draw_arc.c ****             quarter_area.y2 = q->center_y + ((_lv_trigo_sin(q->end_angle) * q->radius) >> LV_TRIGO_
 207:lvgl\src\lv_draw/lv_draw_arc.c ****             quarter_area.x1 = q->center_x + ((_lv_trigo_sin(q->end_angle + 90) * (q->radius - q->wi
 208:lvgl\src\lv_draw/lv_draw_arc.c **** 
 209:lvgl\src\lv_draw/lv_draw_arc.c ****             bool ok = _lv_area_intersect(&quarter_area, &quarter_area, q->clip_area);
 210:lvgl\src\lv_draw/lv_draw_arc.c ****             if(ok) lv_draw_rect(q->draw_area, &quarter_area, q->draw_dsc);
 211:lvgl\src\lv_draw/lv_draw_arc.c ****         }
 212:lvgl\src\lv_draw/lv_draw_arc.c ****     }
 213:lvgl\src\lv_draw/lv_draw_arc.c ****     else if((q->start_quarter == q->end_quarter && q->start_quarter != 0 && q->end_angle < q->start
 214:lvgl\src\lv_draw/lv_draw_arc.c ****             (q->start_quarter == 2 && q->end_quarter == 1) ||
 215:lvgl\src\lv_draw/lv_draw_arc.c ****             (q->start_quarter == 3 && q->end_quarter == 2) ||
 216:lvgl\src\lv_draw/lv_draw_arc.c ****             (q->start_quarter == 3 && q->end_quarter == 1)) {
 217:lvgl\src\lv_draw/lv_draw_arc.c ****         /*Arc crosses here*/
 218:lvgl\src\lv_draw/lv_draw_arc.c ****         quarter_area.x1 = q->center_x;
 219:lvgl\src\lv_draw/lv_draw_arc.c ****         quarter_area.y1 = q->center_y;
 220:lvgl\src\lv_draw/lv_draw_arc.c ****         quarter_area.x2 = q->center_x + q->radius;
 221:lvgl\src\lv_draw/lv_draw_arc.c ****         quarter_area.y2 = q->center_y + q->radius;
 222:lvgl\src\lv_draw/lv_draw_arc.c **** 
 223:lvgl\src\lv_draw/lv_draw_arc.c ****         bool ok = _lv_area_intersect(&quarter_area, &quarter_area, q->clip_area);
 224:lvgl\src\lv_draw/lv_draw_arc.c ****         if(ok) lv_draw_rect(q->draw_area, &quarter_area, q->draw_dsc);
 225:lvgl\src\lv_draw/lv_draw_arc.c ****     }
 226:lvgl\src\lv_draw/lv_draw_arc.c **** }
 227:lvgl\src\lv_draw/lv_draw_arc.c **** 
 228:lvgl\src\lv_draw/lv_draw_arc.c **** static void draw_quarter_1(quarter_draw_dsc_t * q)
 229:lvgl\src\lv_draw/lv_draw_arc.c **** {
 230:lvgl\src\lv_draw/lv_draw_arc.c ****     lv_area_t quarter_area;
 231:lvgl\src\lv_draw/lv_draw_arc.c **** 
 232:lvgl\src\lv_draw/lv_draw_arc.c ****     if(q->start_quarter == 1 && q->end_quarter == 1 && q->start_angle < q->end_angle) {
 233:lvgl\src\lv_draw/lv_draw_arc.c ****         /*Small arc here*/
 234:lvgl\src\lv_draw/lv_draw_arc.c ****         quarter_area.y2 = q->center_y + ((_lv_trigo_sin(q->start_angle) * (q->radius)) >> LV_TRIGO_
 235:lvgl\src\lv_draw/lv_draw_arc.c ****         quarter_area.x2 = q->center_x + ((_lv_trigo_sin(q->start_angle + 90) * (q->radius - q->widt
 236:lvgl\src\lv_draw/lv_draw_arc.c **** 
 237:lvgl\src\lv_draw/lv_draw_arc.c ****         quarter_area.y1 = q->center_y + ((_lv_trigo_sin(q->end_angle) * (q->radius - q->width)) >> 
 238:lvgl\src\lv_draw/lv_draw_arc.c ****         quarter_area.x1 = q->center_x + ((_lv_trigo_sin(q->end_angle + 90) * (q->radius)) >> LV_TRI
 239:lvgl\src\lv_draw/lv_draw_arc.c **** 
 240:lvgl\src\lv_draw/lv_draw_arc.c ****         bool ok = _lv_area_intersect(&quarter_area, &quarter_area, q->clip_area);
 241:lvgl\src\lv_draw/lv_draw_arc.c ****         if(ok) lv_draw_rect(q->draw_area, &quarter_area, q->draw_dsc);
 242:lvgl\src\lv_draw/lv_draw_arc.c ****     }
 243:lvgl\src\lv_draw/lv_draw_arc.c ****     else if(q->start_quarter == 1 || q->end_quarter == 1) {
 244:lvgl\src\lv_draw/lv_draw_arc.c ****         /*Start and/or end arcs here*/
 245:lvgl\src\lv_draw/lv_draw_arc.c ****         if(q->start_quarter == 1) {
 246:lvgl\src\lv_draw/lv_draw_arc.c ****             quarter_area.x1 = q->center_x - q->radius;
 247:lvgl\src\lv_draw/lv_draw_arc.c ****             quarter_area.y1 = q->center_y;
 248:lvgl\src\lv_draw/lv_draw_arc.c **** 
 249:lvgl\src\lv_draw/lv_draw_arc.c ****             quarter_area.y2 = q->center_y + ((_lv_trigo_sin(q->start_angle) * (q->radius)) >> LV_TR
 250:lvgl\src\lv_draw/lv_draw_arc.c ****             quarter_area.x2 = q->center_x + ((_lv_trigo_sin(q->start_angle + 90) * (q->radius - q->
 251:lvgl\src\lv_draw/lv_draw_arc.c **** 
 252:lvgl\src\lv_draw/lv_draw_arc.c ****             bool ok = _lv_area_intersect(&quarter_area, &quarter_area, q->clip_area);
 253:lvgl\src\lv_draw/lv_draw_arc.c ****             if(ok) lv_draw_rect(q->draw_area, &quarter_area, q->draw_dsc);
 254:lvgl\src\lv_draw/lv_draw_arc.c ****         }
 255:lvgl\src\lv_draw/lv_draw_arc.c ****         if(q->end_quarter == 1) {
 256:lvgl\src\lv_draw/lv_draw_arc.c ****             quarter_area.x2 = q->center_x - 1;
 257:lvgl\src\lv_draw/lv_draw_arc.c ****             quarter_area.y2 = q->center_y + q->radius;
 258:lvgl\src\lv_draw/lv_draw_arc.c **** 
 259:lvgl\src\lv_draw/lv_draw_arc.c ****             quarter_area.y1 = q->center_y + ((_lv_trigo_sin(q->end_angle) * (q->radius - q->width))
ARM GAS  C:\Users\strap\AppData\Local\Temp\ccQGFe6s.s 			page 6


 260:lvgl\src\lv_draw/lv_draw_arc.c ****             quarter_area.x1 = q->center_x + ((_lv_trigo_sin(q->end_angle + 90) * (q->radius)) >> LV
 261:lvgl\src\lv_draw/lv_draw_arc.c **** 
 262:lvgl\src\lv_draw/lv_draw_arc.c ****             bool ok = _lv_area_intersect(&quarter_area, &quarter_area, q->clip_area);
 263:lvgl\src\lv_draw/lv_draw_arc.c ****             if(ok) lv_draw_rect(q->draw_area, &quarter_area, q->draw_dsc);
 264:lvgl\src\lv_draw/lv_draw_arc.c ****         }
 265:lvgl\src\lv_draw/lv_draw_arc.c ****     }
 266:lvgl\src\lv_draw/lv_draw_arc.c ****     else if((q->start_quarter == q->end_quarter && q->start_quarter != 1 && q->end_angle < q->start
 267:lvgl\src\lv_draw/lv_draw_arc.c ****             (q->start_quarter == 0 && q->end_quarter == 2) ||
 268:lvgl\src\lv_draw/lv_draw_arc.c ****             (q->start_quarter == 0 && q->end_quarter == 3) ||
 269:lvgl\src\lv_draw/lv_draw_arc.c ****             (q->start_quarter == 3 && q->end_quarter == 2)) {
 270:lvgl\src\lv_draw/lv_draw_arc.c ****         /*Arc crosses here*/
 271:lvgl\src\lv_draw/lv_draw_arc.c ****         quarter_area.x1 = q->center_x - q->radius;
 272:lvgl\src\lv_draw/lv_draw_arc.c ****         quarter_area.y1 = q->center_y;
 273:lvgl\src\lv_draw/lv_draw_arc.c ****         quarter_area.x2 = q->center_x - 1;
 274:lvgl\src\lv_draw/lv_draw_arc.c ****         quarter_area.y2 = q->center_y + q->radius;
 275:lvgl\src\lv_draw/lv_draw_arc.c **** 
 276:lvgl\src\lv_draw/lv_draw_arc.c ****         bool ok = _lv_area_intersect(&quarter_area, &quarter_area, q->clip_area);
 277:lvgl\src\lv_draw/lv_draw_arc.c ****         if(ok) lv_draw_rect(q->draw_area, &quarter_area, q->draw_dsc);
 278:lvgl\src\lv_draw/lv_draw_arc.c ****     }
 279:lvgl\src\lv_draw/lv_draw_arc.c **** }
 280:lvgl\src\lv_draw/lv_draw_arc.c **** 
 281:lvgl\src\lv_draw/lv_draw_arc.c **** static void draw_quarter_2(quarter_draw_dsc_t * q)
 282:lvgl\src\lv_draw/lv_draw_arc.c **** {
 283:lvgl\src\lv_draw/lv_draw_arc.c ****     lv_area_t quarter_area;
 284:lvgl\src\lv_draw/lv_draw_arc.c **** 
 285:lvgl\src\lv_draw/lv_draw_arc.c ****     if(q->start_quarter == 2 && q->end_quarter == 2 && q->start_angle < q->end_angle) {
 286:lvgl\src\lv_draw/lv_draw_arc.c ****         /*Small arc here*/
 287:lvgl\src\lv_draw/lv_draw_arc.c ****         quarter_area.x1 = q->center_x + ((_lv_trigo_sin(q->start_angle + 90) * (q->radius)) >> LV_T
 288:lvgl\src\lv_draw/lv_draw_arc.c ****         quarter_area.y2 = q->center_y + ((_lv_trigo_sin(q->start_angle) * (q->radius - q->width)) >
 289:lvgl\src\lv_draw/lv_draw_arc.c **** 
 290:lvgl\src\lv_draw/lv_draw_arc.c ****         quarter_area.y1 = q->center_y + ((_lv_trigo_sin(q->end_angle) * q->radius) >> LV_TRIGO_SHIF
 291:lvgl\src\lv_draw/lv_draw_arc.c ****         quarter_area.x2 = q->center_x + ((_lv_trigo_sin(q->end_angle + 90) * (q->radius - q->width)
 292:lvgl\src\lv_draw/lv_draw_arc.c **** 
 293:lvgl\src\lv_draw/lv_draw_arc.c ****         bool ok = _lv_area_intersect(&quarter_area, &quarter_area, q->clip_area);
 294:lvgl\src\lv_draw/lv_draw_arc.c ****         if(ok) lv_draw_rect(q->draw_area, &quarter_area, q->draw_dsc);
 295:lvgl\src\lv_draw/lv_draw_arc.c ****     }
 296:lvgl\src\lv_draw/lv_draw_arc.c ****     else if(q->start_quarter == 2 || q->end_quarter == 2) {
 297:lvgl\src\lv_draw/lv_draw_arc.c ****         /*Start and/or end arcs here*/
 298:lvgl\src\lv_draw/lv_draw_arc.c ****         if(q->start_quarter == 2) {
 299:lvgl\src\lv_draw/lv_draw_arc.c ****             quarter_area.x2 = q->center_x - 1;
 300:lvgl\src\lv_draw/lv_draw_arc.c ****             quarter_area.y1 = q->center_y - q->radius;
 301:lvgl\src\lv_draw/lv_draw_arc.c **** 
 302:lvgl\src\lv_draw/lv_draw_arc.c ****             quarter_area.x1 = q->center_x + ((_lv_trigo_sin(q->start_angle + 90) * (q->radius)) >> 
 303:lvgl\src\lv_draw/lv_draw_arc.c ****             quarter_area.y2 = q->center_y + ((_lv_trigo_sin(q->start_angle) * (q->radius - q->width
 304:lvgl\src\lv_draw/lv_draw_arc.c **** 
 305:lvgl\src\lv_draw/lv_draw_arc.c ****             bool ok = _lv_area_intersect(&quarter_area, &quarter_area, q->clip_area);
 306:lvgl\src\lv_draw/lv_draw_arc.c ****             if(ok) lv_draw_rect(q->draw_area, &quarter_area, q->draw_dsc);
 307:lvgl\src\lv_draw/lv_draw_arc.c ****         }
 308:lvgl\src\lv_draw/lv_draw_arc.c ****         if(q->end_quarter == 2) {
 309:lvgl\src\lv_draw/lv_draw_arc.c ****             quarter_area.x1 = q->center_x - q->radius;
 310:lvgl\src\lv_draw/lv_draw_arc.c ****             quarter_area.y2 = q->center_y - 1;
 311:lvgl\src\lv_draw/lv_draw_arc.c **** 
 312:lvgl\src\lv_draw/lv_draw_arc.c ****             quarter_area.x2 = q->center_x + ((_lv_trigo_sin(q->end_angle + 90) * (q->radius - q->wi
 313:lvgl\src\lv_draw/lv_draw_arc.c ****             quarter_area.y1 = q->center_y + ((_lv_trigo_sin(q->end_angle) * (q->radius)) >> LV_TRIG
 314:lvgl\src\lv_draw/lv_draw_arc.c **** 
 315:lvgl\src\lv_draw/lv_draw_arc.c ****             bool ok = _lv_area_intersect(&quarter_area, &quarter_area, q->clip_area);
 316:lvgl\src\lv_draw/lv_draw_arc.c ****             if(ok) lv_draw_rect(q->draw_area, &quarter_area, q->draw_dsc);
ARM GAS  C:\Users\strap\AppData\Local\Temp\ccQGFe6s.s 			page 7


 317:lvgl\src\lv_draw/lv_draw_arc.c ****         }
 318:lvgl\src\lv_draw/lv_draw_arc.c ****     }
 319:lvgl\src\lv_draw/lv_draw_arc.c ****     else if((q->start_quarter == q->end_quarter && q->start_quarter != 2 && q->end_angle < q->start
 320:lvgl\src\lv_draw/lv_draw_arc.c ****             (q->start_quarter == 0 && q->end_quarter == 3) ||
 321:lvgl\src\lv_draw/lv_draw_arc.c ****             (q->start_quarter == 1 && q->end_quarter == 3) ||
 322:lvgl\src\lv_draw/lv_draw_arc.c ****             (q->start_quarter == 1 && q->end_quarter == 0)) {
 323:lvgl\src\lv_draw/lv_draw_arc.c ****         /*Arc crosses here*/
 324:lvgl\src\lv_draw/lv_draw_arc.c ****         quarter_area.x1 = q->center_x - q->radius;
 325:lvgl\src\lv_draw/lv_draw_arc.c ****         quarter_area.y1 = q->center_y - q->radius;
 326:lvgl\src\lv_draw/lv_draw_arc.c ****         quarter_area.x2 = q->center_x - 1;
 327:lvgl\src\lv_draw/lv_draw_arc.c ****         quarter_area.y2 = q->center_y - 1;
 328:lvgl\src\lv_draw/lv_draw_arc.c **** 
 329:lvgl\src\lv_draw/lv_draw_arc.c ****         bool ok = _lv_area_intersect(&quarter_area, &quarter_area, q->clip_area);
 330:lvgl\src\lv_draw/lv_draw_arc.c ****         if(ok) lv_draw_rect(q->draw_area, &quarter_area, q->draw_dsc);
 331:lvgl\src\lv_draw/lv_draw_arc.c ****     }
 332:lvgl\src\lv_draw/lv_draw_arc.c **** }
 333:lvgl\src\lv_draw/lv_draw_arc.c **** 
 334:lvgl\src\lv_draw/lv_draw_arc.c **** 
 335:lvgl\src\lv_draw/lv_draw_arc.c **** static void draw_quarter_3(quarter_draw_dsc_t * q)
 336:lvgl\src\lv_draw/lv_draw_arc.c **** {
 337:lvgl\src\lv_draw/lv_draw_arc.c ****     lv_area_t quarter_area;
 338:lvgl\src\lv_draw/lv_draw_arc.c **** 
 339:lvgl\src\lv_draw/lv_draw_arc.c ****     if(q->start_quarter == 3 && q->end_quarter == 3 && q->start_angle < q->end_angle) {
 340:lvgl\src\lv_draw/lv_draw_arc.c ****         /*Small arc here*/
 341:lvgl\src\lv_draw/lv_draw_arc.c ****         quarter_area.x1 = q->center_x + ((_lv_trigo_sin(q->start_angle + 90) * (q->radius - q->widt
 342:lvgl\src\lv_draw/lv_draw_arc.c ****         quarter_area.y1 = q->center_y + ((_lv_trigo_sin(q->start_angle) * (q->radius)) >> LV_TRIGO_
 343:lvgl\src\lv_draw/lv_draw_arc.c **** 
 344:lvgl\src\lv_draw/lv_draw_arc.c ****         quarter_area.x2 = q->center_x + ((_lv_trigo_sin(q->end_angle + 90) * (q->radius)) >> LV_TRI
 345:lvgl\src\lv_draw/lv_draw_arc.c ****         quarter_area.y2 = q->center_y + ((_lv_trigo_sin(q->end_angle) * (q->radius - q->width)) >> 
 346:lvgl\src\lv_draw/lv_draw_arc.c **** 
 347:lvgl\src\lv_draw/lv_draw_arc.c ****         bool ok = _lv_area_intersect(&quarter_area, &quarter_area, q->clip_area);
 348:lvgl\src\lv_draw/lv_draw_arc.c ****         if(ok) lv_draw_rect(q->draw_area, &quarter_area, q->draw_dsc);
 349:lvgl\src\lv_draw/lv_draw_arc.c ****     }
 350:lvgl\src\lv_draw/lv_draw_arc.c ****     else if(q->start_quarter == 3 || q->end_quarter == 3) {
 351:lvgl\src\lv_draw/lv_draw_arc.c ****         /*Start and/or end arcs here*/
 352:lvgl\src\lv_draw/lv_draw_arc.c ****         if(q->start_quarter == 3) {
 353:lvgl\src\lv_draw/lv_draw_arc.c ****             quarter_area.x2 = q->center_x + q->radius;
 354:lvgl\src\lv_draw/lv_draw_arc.c ****             quarter_area.y2 = q->center_y - 1;
 355:lvgl\src\lv_draw/lv_draw_arc.c **** 
 356:lvgl\src\lv_draw/lv_draw_arc.c ****             quarter_area.x1 = q->center_x + ((_lv_trigo_sin(q->start_angle + 90) * (q->radius - q->
 357:lvgl\src\lv_draw/lv_draw_arc.c ****             quarter_area.y1 = q->center_y + ((_lv_trigo_sin(q->start_angle) * (q->radius)) >> LV_TR
 358:lvgl\src\lv_draw/lv_draw_arc.c **** 
 359:lvgl\src\lv_draw/lv_draw_arc.c ****             bool ok = _lv_area_intersect(&quarter_area, &quarter_area, q->clip_area);
 360:lvgl\src\lv_draw/lv_draw_arc.c ****             if(ok) lv_draw_rect(q->draw_area, &quarter_area, q->draw_dsc);
 361:lvgl\src\lv_draw/lv_draw_arc.c ****         }
 362:lvgl\src\lv_draw/lv_draw_arc.c ****         if(q->end_quarter == 3) {
 363:lvgl\src\lv_draw/lv_draw_arc.c ****             quarter_area.x1 = q->center_x;
 364:lvgl\src\lv_draw/lv_draw_arc.c ****             quarter_area.y1 = q->center_y - q->radius;
 365:lvgl\src\lv_draw/lv_draw_arc.c **** 
 366:lvgl\src\lv_draw/lv_draw_arc.c ****             quarter_area.x2 = q->center_x + ((_lv_trigo_sin(q->end_angle + 90) * (q->radius)) >> LV
 367:lvgl\src\lv_draw/lv_draw_arc.c ****             quarter_area.y2 = q->center_y + ((_lv_trigo_sin(q->end_angle) * (q->radius - q->width))
 368:lvgl\src\lv_draw/lv_draw_arc.c **** 
 369:lvgl\src\lv_draw/lv_draw_arc.c ****             bool ok = _lv_area_intersect(&quarter_area, &quarter_area, q->clip_area);
 370:lvgl\src\lv_draw/lv_draw_arc.c ****             if(ok) lv_draw_rect(q->draw_area, &quarter_area, q->draw_dsc);
 371:lvgl\src\lv_draw/lv_draw_arc.c ****         }
 372:lvgl\src\lv_draw/lv_draw_arc.c ****     }
 373:lvgl\src\lv_draw/lv_draw_arc.c ****     else if((q->start_quarter == q->end_quarter && q->start_quarter != 3 && q->end_angle < q->start
ARM GAS  C:\Users\strap\AppData\Local\Temp\ccQGFe6s.s 			page 8


 374:lvgl\src\lv_draw/lv_draw_arc.c ****             (q->start_quarter == 2 && q->end_quarter == 0) ||
 375:lvgl\src\lv_draw/lv_draw_arc.c ****             (q->start_quarter == 1 && q->end_quarter == 0) ||
 376:lvgl\src\lv_draw/lv_draw_arc.c ****             (q->start_quarter == 2 && q->end_quarter == 1)) {
 377:lvgl\src\lv_draw/lv_draw_arc.c ****         /*Arc crosses here*/
 378:lvgl\src\lv_draw/lv_draw_arc.c ****         quarter_area.x1 = q->center_x;
 379:lvgl\src\lv_draw/lv_draw_arc.c ****         quarter_area.y1 = q->center_y - q->radius;
 380:lvgl\src\lv_draw/lv_draw_arc.c ****         quarter_area.x2 = q->center_x + q->radius;
 381:lvgl\src\lv_draw/lv_draw_arc.c ****         quarter_area.y2 = q->center_y - 1;
 382:lvgl\src\lv_draw/lv_draw_arc.c **** 
 383:lvgl\src\lv_draw/lv_draw_arc.c ****         bool ok = _lv_area_intersect(&quarter_area, &quarter_area, q->clip_area);
 384:lvgl\src\lv_draw/lv_draw_arc.c ****         if(ok) lv_draw_rect(q->draw_area, &quarter_area, q->draw_dsc);
 385:lvgl\src\lv_draw/lv_draw_arc.c ****     }
 386:lvgl\src\lv_draw/lv_draw_arc.c **** }
 387:lvgl\src\lv_draw/lv_draw_arc.c **** 
 388:lvgl\src\lv_draw/lv_draw_arc.c **** 
 389:lvgl\src\lv_draw/lv_draw_arc.c **** static void get_rounded_area(int16_t angle, lv_coord_t radius, uint8_t tickness, lv_area_t * res_ar
 390:lvgl\src\lv_draw/lv_draw_arc.c **** {
  27              		.loc 1 390 0
  28              		.cfi_startproc
  29              		@ args = 0, pretend = 0, frame = 0
  30              		@ frame_needed = 0, uses_anonymous_args = 0
  31              	.LVL0:
  32 0000 2DE9F843 		push	{r3, r4, r5, r6, r7, r8, r9, lr}
  33              		.cfi_def_cfa_offset 32
  34              		.cfi_offset 3, -32
  35              		.cfi_offset 4, -28
  36              		.cfi_offset 5, -24
  37              		.cfi_offset 6, -20
  38              		.cfi_offset 7, -16
  39              		.cfi_offset 8, -12
  40              		.cfi_offset 9, -8
  41              		.cfi_offset 14, -4
  42 0004 8146     		mov	r9, r0
  43 0006 9846     		mov	r8, r3
  44              	.LVL1:
 391:lvgl\src\lv_draw/lv_draw_arc.c ****     const uint8_t ps = 8;
 392:lvgl\src\lv_draw/lv_draw_arc.c ****     const uint8_t pa = 127;
 393:lvgl\src\lv_draw/lv_draw_arc.c **** 
 394:lvgl\src\lv_draw/lv_draw_arc.c ****     int32_t thick_half = tickness / 2;
  45              		.loc 1 394 0
  46 0008 5608     		lsrs	r6, r2, #1
  47              	.LVL2:
 395:lvgl\src\lv_draw/lv_draw_arc.c ****     uint8_t thick_corr = (tickness & 0x01) ? 0 : 1;
  48              		.loc 1 395 0
  49 000a 82F00102 		eor	r2, r2, #1
  50              	.LVL3:
  51 000e 02F00107 		and	r7, r2, #1
  52              	.LVL4:
 396:lvgl\src\lv_draw/lv_draw_arc.c **** 
 397:lvgl\src\lv_draw/lv_draw_arc.c ****     int32_t rx_corr;
 398:lvgl\src\lv_draw/lv_draw_arc.c ****     int32_t ry_corr;
 399:lvgl\src\lv_draw/lv_draw_arc.c **** 
 400:lvgl\src\lv_draw/lv_draw_arc.c ****     if(angle > 90 && angle < 270) rx_corr = 0;
  53              		.loc 1 400 0
  54 0012 80B2     		uxth	r0, r0
  55              	.LVL5:
 401:lvgl\src\lv_draw/lv_draw_arc.c ****     else  rx_corr = 0;
ARM GAS  C:\Users\strap\AppData\Local\Temp\ccQGFe6s.s 			page 9


 402:lvgl\src\lv_draw/lv_draw_arc.c **** 
 403:lvgl\src\lv_draw/lv_draw_arc.c ****     if(angle > 0 && angle < 180) ry_corr = 0;
 404:lvgl\src\lv_draw/lv_draw_arc.c ****     else  ry_corr = 0;
 405:lvgl\src\lv_draw/lv_draw_arc.c **** 
 406:lvgl\src\lv_draw/lv_draw_arc.c ****     int32_t cir_x;
 407:lvgl\src\lv_draw/lv_draw_arc.c ****     int32_t cir_y;
 408:lvgl\src\lv_draw/lv_draw_arc.c **** 
 409:lvgl\src\lv_draw/lv_draw_arc.c ****     cir_x = ((radius - rx_corr - thick_half) * _lv_trigo_sin(90 - angle)) >> (LV_TRIGO_SHIFT - ps);
  56              		.loc 1 409 0
  57 0014 8C1B     		subs	r4, r1, r6
  58 0016 C0F15A00 		rsb	r0, r0, #90
  59              	.LVL6:
  60 001a 00B2     		sxth	r0, r0
  61 001c FFF7FEFF 		bl	_lv_trigo_sin
  62              	.LVL7:
  63 0020 04FB00F0 		mul	r0, r4, r0
  64 0024 C511     		asrs	r5, r0, #7
  65              	.LVL8:
 410:lvgl\src\lv_draw/lv_draw_arc.c ****     cir_y = ((radius - ry_corr - thick_half) * _lv_trigo_sin(angle)) >> (LV_TRIGO_SHIFT - ps);
  66              		.loc 1 410 0
  67 0026 4846     		mov	r0, r9
  68 0028 FFF7FEFF 		bl	_lv_trigo_sin
  69              	.LVL9:
  70 002c 04FB00F0 		mul	r0, r4, r0
  71 0030 C411     		asrs	r4, r0, #7
  72              	.LVL10:
 411:lvgl\src\lv_draw/lv_draw_arc.c **** 
 412:lvgl\src\lv_draw/lv_draw_arc.c ****     /* Actually the center of the pixel need to be calculated so apply 1/2 px offset*/
 413:lvgl\src\lv_draw/lv_draw_arc.c ****     if(cir_x > 0) {
  73              		.loc 1 413 0
  74 0032 002D     		cmp	r5, #0
  75 0034 0BDD     		ble	.L2
 414:lvgl\src\lv_draw/lv_draw_arc.c ****         cir_x = (cir_x - pa) >> ps;
  76              		.loc 1 414 0
  77 0036 7F3D     		subs	r5, r5, #127
  78              	.LVL11:
 415:lvgl\src\lv_draw/lv_draw_arc.c ****         res_area->x1 = cir_x - thick_half + thick_corr;
  79              		.loc 1 415 0
  80 0038 C5F30F25 		ubfx	r5, r5, #8, #16
  81              	.LVL12:
  82 003c B3B2     		uxth	r3, r6
  83 003e EA1A     		subs	r2, r5, r3
  84 0040 3A44     		add	r2, r2, r7
  85 0042 A8F80020 		strh	r2, [r8]	@ movhi
 416:lvgl\src\lv_draw/lv_draw_arc.c ****         res_area->x2 = cir_x + thick_half;
  86              		.loc 1 416 0
  87 0046 1D44     		add	r5, r5, r3
  88 0048 A8F80450 		strh	r5, [r8, #4]	@ movhi
  89 004c 0AE0     		b	.L3
  90              	.LVL13:
  91              	.L2:
 417:lvgl\src\lv_draw/lv_draw_arc.c ****     }
 418:lvgl\src\lv_draw/lv_draw_arc.c ****     else {
 419:lvgl\src\lv_draw/lv_draw_arc.c ****         cir_x = (cir_x + pa) >> ps;
  92              		.loc 1 419 0
  93 004e 7F35     		adds	r5, r5, #127
  94              	.LVL14:
ARM GAS  C:\Users\strap\AppData\Local\Temp\ccQGFe6s.s 			page 10


 420:lvgl\src\lv_draw/lv_draw_arc.c ****         res_area->x1 = cir_x - thick_half;
  95              		.loc 1 420 0
  96 0050 C5F30F25 		ubfx	r5, r5, #8, #16
  97              	.LVL15:
  98 0054 B3B2     		uxth	r3, r6
  99 0056 EA1A     		subs	r2, r5, r3
 100 0058 A8F80020 		strh	r2, [r8]	@ movhi
 421:lvgl\src\lv_draw/lv_draw_arc.c ****         res_area->x2 = cir_x + thick_half - thick_corr;
 101              		.loc 1 421 0
 102 005c 1D44     		add	r5, r5, r3
 103 005e ED1B     		subs	r5, r5, r7
 104 0060 A8F80450 		strh	r5, [r8, #4]	@ movhi
 105              	.L3:
 422:lvgl\src\lv_draw/lv_draw_arc.c ****     }
 423:lvgl\src\lv_draw/lv_draw_arc.c **** 
 424:lvgl\src\lv_draw/lv_draw_arc.c ****     if(cir_y > 0) {
 106              		.loc 1 424 0
 107 0064 002C     		cmp	r4, #0
 108 0066 0CDD     		ble	.L4
 425:lvgl\src\lv_draw/lv_draw_arc.c ****         cir_y = (cir_y - pa) >> ps;
 109              		.loc 1 425 0
 110 0068 7F3C     		subs	r4, r4, #127
 111              	.LVL16:
 426:lvgl\src\lv_draw/lv_draw_arc.c ****         res_area->y1 = cir_y - thick_half + thick_corr;
 112              		.loc 1 426 0
 113 006a C4F30F24 		ubfx	r4, r4, #8, #16
 114              	.LVL17:
 115 006e B6B2     		uxth	r6, r6
 116              	.LVL18:
 117 0070 A21B     		subs	r2, r4, r6
 118 0072 1744     		add	r7, r7, r2
 119              	.LVL19:
 120 0074 A8F80270 		strh	r7, [r8, #2]	@ movhi
 427:lvgl\src\lv_draw/lv_draw_arc.c ****         res_area->y2 = cir_y + thick_half;
 121              		.loc 1 427 0
 122 0078 2644     		add	r6, r6, r4
 123 007a A8F80660 		strh	r6, [r8, #6]	@ movhi
 124 007e BDE8F883 		pop	{r3, r4, r5, r6, r7, r8, r9, pc}
 125              	.LVL20:
 126              	.L4:
 428:lvgl\src\lv_draw/lv_draw_arc.c ****     }
 429:lvgl\src\lv_draw/lv_draw_arc.c ****     else {
 430:lvgl\src\lv_draw/lv_draw_arc.c ****         cir_y = (cir_y + pa) >> ps;
 127              		.loc 1 430 0
 128 0082 7F34     		adds	r4, r4, #127
 129              	.LVL21:
 431:lvgl\src\lv_draw/lv_draw_arc.c ****         res_area->y1 = cir_y - thick_half;
 130              		.loc 1 431 0
 131 0084 C4F30F24 		ubfx	r4, r4, #8, #16
 132              	.LVL22:
 133 0088 B6B2     		uxth	r6, r6
 134              	.LVL23:
 135 008a A31B     		subs	r3, r4, r6
 136 008c A8F80230 		strh	r3, [r8, #2]	@ movhi
 432:lvgl\src\lv_draw/lv_draw_arc.c ****         res_area->y2 = cir_y + thick_half - thick_corr;
 137              		.loc 1 432 0
 138 0090 2644     		add	r6, r6, r4
ARM GAS  C:\Users\strap\AppData\Local\Temp\ccQGFe6s.s 			page 11


 139 0092 F71B     		subs	r7, r6, r7
 140              	.LVL24:
 141 0094 A8F80670 		strh	r7, [r8, #6]	@ movhi
 142 0098 BDE8F883 		pop	{r3, r4, r5, r6, r7, r8, r9, pc}
 143              		.cfi_endproc
 144              	.LFE41:
 145              		.size	get_rounded_area, .-get_rounded_area
 146              		.section	.text.draw_quarter_0,"ax",%progbits
 147              		.align	2
 148              		.thumb
 149              		.thumb_func
 150              		.type	draw_quarter_0, %function
 151              	draw_quarter_0:
 152              	.LFB37:
 176:lvgl\src\lv_draw/lv_draw_arc.c ****     lv_area_t quarter_area;
 153              		.loc 1 176 0
 154              		.cfi_startproc
 155              		@ args = 0, pretend = 0, frame = 8
 156              		@ frame_needed = 0, uses_anonymous_args = 0
 157              	.LVL25:
 158 0000 30B5     		push	{r4, r5, lr}
 159              		.cfi_def_cfa_offset 12
 160              		.cfi_offset 4, -12
 161              		.cfi_offset 5, -8
 162              		.cfi_offset 14, -4
 163 0002 83B0     		sub	sp, sp, #12
 164              		.cfi_def_cfa_offset 24
 165 0004 0446     		mov	r4, r0
 179:lvgl\src\lv_draw/lv_draw_arc.c ****         /*Small arc here*/
 166              		.loc 1 179 0
 167 0006 4389     		ldrh	r3, [r0, #10]
 168 0008 002B     		cmp	r3, #0
 169 000a 53D1     		bne	.L8
 179:lvgl\src\lv_draw/lv_draw_arc.c ****         /*Small arc here*/
 170              		.loc 1 179 0 is_stmt 0 discriminator 1
 171 000c 8289     		ldrh	r2, [r0, #12]
 172 000e 002A     		cmp	r2, #0
 173 0010 50D1     		bne	.L8
 179:lvgl\src\lv_draw/lv_draw_arc.c ****         /*Small arc here*/
 174              		.loc 1 179 0 discriminator 2
 175 0012 C088     		ldrh	r0, [r0, #6]
 176              	.LVL26:
 177 0014 2289     		ldrh	r2, [r4, #8]
 178 0016 9042     		cmp	r0, r2
 179 0018 4CD2     		bcs	.L8
 180              	.LBB2:
 181:lvgl\src\lv_draw/lv_draw_arc.c ****         quarter_area.x2 = q->center_x + ((_lv_trigo_sin(q->start_angle + 90) * (q->radius)) >> LV_T
 181              		.loc 1 181 0 is_stmt 1
 182 001a B4F90250 		ldrsh	r5, [r4, #2]
 183 001e 00B2     		sxth	r0, r0
 184 0020 FFF7FEFF 		bl	_lv_trigo_sin
 185              	.LVL27:
 186 0024 B4F90430 		ldrsh	r3, [r4, #4]
 187 0028 B4F90E20 		ldrsh	r2, [r4, #14]
 188 002c 9B1A     		subs	r3, r3, r2
 189 002e 03FB00F0 		mul	r0, r3, r0
 190 0032 05EBE030 		add	r0, r5, r0, asr #15
ARM GAS  C:\Users\strap\AppData\Local\Temp\ccQGFe6s.s 			page 12


 191 0036 ADF80200 		strh	r0, [sp, #2]	@ movhi
 182:lvgl\src\lv_draw/lv_draw_arc.c **** 
 192              		.loc 1 182 0
 193 003a B4F90050 		ldrsh	r5, [r4]
 194 003e E088     		ldrh	r0, [r4, #6]
 195 0040 5A30     		adds	r0, r0, #90
 196 0042 00B2     		sxth	r0, r0
 197 0044 FFF7FEFF 		bl	_lv_trigo_sin
 198              	.LVL28:
 199 0048 B4F90430 		ldrsh	r3, [r4, #4]
 200 004c 03FB00F0 		mul	r0, r3, r0
 201 0050 05EBE035 		add	r5, r5, r0, asr #15
 202 0054 ADF80450 		strh	r5, [sp, #4]	@ movhi
 184:lvgl\src\lv_draw/lv_draw_arc.c ****         quarter_area.x1 = q->center_x + ((_lv_trigo_sin(q->end_angle + 90) * (q->radius - q->width)
 203              		.loc 1 184 0
 204 0058 B4F90250 		ldrsh	r5, [r4, #2]
 205 005c B4F90800 		ldrsh	r0, [r4, #8]
 206 0060 FFF7FEFF 		bl	_lv_trigo_sin
 207              	.LVL29:
 208 0064 B4F90430 		ldrsh	r3, [r4, #4]
 209 0068 03FB00F0 		mul	r0, r3, r0
 210 006c 05EBE035 		add	r5, r5, r0, asr #15
 211 0070 ADF80650 		strh	r5, [sp, #6]	@ movhi
 185:lvgl\src\lv_draw/lv_draw_arc.c **** 
 212              		.loc 1 185 0
 213 0074 B4F90050 		ldrsh	r5, [r4]
 214 0078 2089     		ldrh	r0, [r4, #8]
 215 007a 5A30     		adds	r0, r0, #90
 216 007c 00B2     		sxth	r0, r0
 217 007e FFF7FEFF 		bl	_lv_trigo_sin
 218              	.LVL30:
 219 0082 B4F90430 		ldrsh	r3, [r4, #4]
 220 0086 B4F90E20 		ldrsh	r2, [r4, #14]
 221 008a 9B1A     		subs	r3, r3, r2
 222 008c 03FB00F0 		mul	r0, r3, r0
 223 0090 05EBE033 		add	r3, r5, r0, asr #15
 224 0094 02A8     		add	r0, sp, #8
 225 0096 20F8083D 		strh	r3, [r0, #-8]!	@ movhi
 187:lvgl\src\lv_draw/lv_draw_arc.c ****         if(ok) lv_draw_rect(q->draw_area, &quarter_area, q->draw_dsc);
 226              		.loc 1 187 0
 227 009a A269     		ldr	r2, [r4, #24]
 228 009c 0146     		mov	r1, r0
 229 009e FFF7FEFF 		bl	_lv_area_intersect
 230              	.LVL31:
 188:lvgl\src\lv_draw/lv_draw_arc.c ****     }
 231              		.loc 1 188 0
 232 00a2 0028     		cmp	r0, #0
 233 00a4 00F0A580 		beq	.L7
 188:lvgl\src\lv_draw/lv_draw_arc.c ****     }
 234              		.loc 1 188 0 is_stmt 0 discriminator 1
 235 00a8 2269     		ldr	r2, [r4, #16]
 236 00aa 6946     		mov	r1, sp
 237 00ac 6069     		ldr	r0, [r4, #20]
 238              	.LVL32:
 239 00ae FFF7FEFF 		bl	lv_draw_rect
 240              	.LVL33:
 241 00b2 9EE0     		b	.L7
ARM GAS  C:\Users\strap\AppData\Local\Temp\ccQGFe6s.s 			page 13


 242              	.L8:
 243              	.LBE2:
 190:lvgl\src\lv_draw/lv_draw_arc.c ****         /*Start and/or end arcs here*/
 244              		.loc 1 190 0 is_stmt 1
 245 00b4 13B1     		cbz	r3, .L10
 190:lvgl\src\lv_draw/lv_draw_arc.c ****         /*Start and/or end arcs here*/
 246              		.loc 1 190 0 is_stmt 0 discriminator 1
 247 00b6 A289     		ldrh	r2, [r4, #12]
 248 00b8 002A     		cmp	r2, #0
 249 00ba 6CD1     		bne	.L11
 250              	.L10:
 192:lvgl\src\lv_draw/lv_draw_arc.c ****             quarter_area.x1 = q->center_x;
 251              		.loc 1 192 0 is_stmt 1
 252 00bc 9BBB     		cbnz	r3, .L12
 253              	.LBB3:
 193:lvgl\src\lv_draw/lv_draw_arc.c ****             quarter_area.y2 = q->center_y + q->radius;
 254              		.loc 1 193 0
 255 00be B4F90030 		ldrsh	r3, [r4]
 256 00c2 ADF80030 		strh	r3, [sp]	@ movhi
 194:lvgl\src\lv_draw/lv_draw_arc.c **** 
 257              		.loc 1 194 0
 258 00c6 B4F90250 		ldrsh	r5, [r4, #2]
 259 00ca B4F90430 		ldrsh	r3, [r4, #4]
 260 00ce 2B44     		add	r3, r3, r5
 261 00d0 ADF80630 		strh	r3, [sp, #6]	@ movhi
 196:lvgl\src\lv_draw/lv_draw_arc.c ****             quarter_area.x2 = q->center_x + ((_lv_trigo_sin(q->start_angle + 90) * (q->radius)) >> 
 262              		.loc 1 196 0
 263 00d4 B4F90600 		ldrsh	r0, [r4, #6]
 264 00d8 FFF7FEFF 		bl	_lv_trigo_sin
 265              	.LVL34:
 266 00dc B4F90430 		ldrsh	r3, [r4, #4]
 267 00e0 B4F90E20 		ldrsh	r2, [r4, #14]
 268 00e4 9B1A     		subs	r3, r3, r2
 269 00e6 03FB00F0 		mul	r0, r3, r0
 270 00ea 05EBE030 		add	r0, r5, r0, asr #15
 271 00ee ADF80200 		strh	r0, [sp, #2]	@ movhi
 197:lvgl\src\lv_draw/lv_draw_arc.c **** 
 272              		.loc 1 197 0
 273 00f2 B4F90050 		ldrsh	r5, [r4]
 274 00f6 E088     		ldrh	r0, [r4, #6]
 275 00f8 5A30     		adds	r0, r0, #90
 276 00fa 00B2     		sxth	r0, r0
 277 00fc FFF7FEFF 		bl	_lv_trigo_sin
 278              	.LVL35:
 279 0100 B4F90430 		ldrsh	r3, [r4, #4]
 280 0104 03FB00F0 		mul	r0, r3, r0
 281 0108 05EBE035 		add	r5, r5, r0, asr #15
 282 010c ADF80450 		strh	r5, [sp, #4]	@ movhi
 199:lvgl\src\lv_draw/lv_draw_arc.c ****             if(ok) lv_draw_rect(q->draw_area, &quarter_area, q->draw_dsc);
 283              		.loc 1 199 0
 284 0110 A269     		ldr	r2, [r4, #24]
 285 0112 6946     		mov	r1, sp
 286 0114 6846     		mov	r0, sp
 287 0116 FFF7FEFF 		bl	_lv_area_intersect
 288              	.LVL36:
 200:lvgl\src\lv_draw/lv_draw_arc.c ****         }
 289              		.loc 1 200 0
ARM GAS  C:\Users\strap\AppData\Local\Temp\ccQGFe6s.s 			page 14


 290 011a 20B1     		cbz	r0, .L12
 200:lvgl\src\lv_draw/lv_draw_arc.c ****         }
 291              		.loc 1 200 0 is_stmt 0 discriminator 1
 292 011c 2269     		ldr	r2, [r4, #16]
 293 011e 6946     		mov	r1, sp
 294 0120 6069     		ldr	r0, [r4, #20]
 295              	.LVL37:
 296 0122 FFF7FEFF 		bl	lv_draw_rect
 297              	.LVL38:
 298              	.L12:
 299              	.LBE3:
 202:lvgl\src\lv_draw/lv_draw_arc.c ****             quarter_area.x2 = q->center_x + q->radius;
 300              		.loc 1 202 0 is_stmt 1
 301 0126 A389     		ldrh	r3, [r4, #12]
 302 0128 002B     		cmp	r3, #0
 303 012a 62D1     		bne	.L7
 304              	.LBB4:
 203:lvgl\src\lv_draw/lv_draw_arc.c ****             quarter_area.y1 = q->center_y;
 305              		.loc 1 203 0
 306 012c B4F90020 		ldrsh	r2, [r4]
 307 0130 B4F90430 		ldrsh	r3, [r4, #4]
 308 0134 1344     		add	r3, r3, r2
 309 0136 ADF80430 		strh	r3, [sp, #4]	@ movhi
 204:lvgl\src\lv_draw/lv_draw_arc.c **** 
 310              		.loc 1 204 0
 311 013a B4F90250 		ldrsh	r5, [r4, #2]
 312 013e ADF80250 		strh	r5, [sp, #2]	@ movhi
 206:lvgl\src\lv_draw/lv_draw_arc.c ****             quarter_area.x1 = q->center_x + ((_lv_trigo_sin(q->end_angle + 90) * (q->radius - q->wi
 313              		.loc 1 206 0
 314 0142 B4F90800 		ldrsh	r0, [r4, #8]
 315 0146 FFF7FEFF 		bl	_lv_trigo_sin
 316              	.LVL39:
 317 014a B4F90430 		ldrsh	r3, [r4, #4]
 318 014e 03FB00F0 		mul	r0, r3, r0
 319 0152 05EBE035 		add	r5, r5, r0, asr #15
 320 0156 ADF80650 		strh	r5, [sp, #6]	@ movhi
 207:lvgl\src\lv_draw/lv_draw_arc.c **** 
 321              		.loc 1 207 0
 322 015a B4F90050 		ldrsh	r5, [r4]
 323 015e 2089     		ldrh	r0, [r4, #8]
 324 0160 5A30     		adds	r0, r0, #90
 325 0162 00B2     		sxth	r0, r0
 326 0164 FFF7FEFF 		bl	_lv_trigo_sin
 327              	.LVL40:
 328 0168 B4F90430 		ldrsh	r3, [r4, #4]
 329 016c B4F90E20 		ldrsh	r2, [r4, #14]
 330 0170 9B1A     		subs	r3, r3, r2
 331 0172 03FB00F0 		mul	r0, r3, r0
 332 0176 05EBE033 		add	r3, r5, r0, asr #15
 333 017a 02A8     		add	r0, sp, #8
 334 017c 20F8083D 		strh	r3, [r0, #-8]!	@ movhi
 209:lvgl\src\lv_draw/lv_draw_arc.c ****             if(ok) lv_draw_rect(q->draw_area, &quarter_area, q->draw_dsc);
 335              		.loc 1 209 0
 336 0180 A269     		ldr	r2, [r4, #24]
 337 0182 0146     		mov	r1, r0
 338 0184 FFF7FEFF 		bl	_lv_area_intersect
 339              	.LVL41:
ARM GAS  C:\Users\strap\AppData\Local\Temp\ccQGFe6s.s 			page 15


 210:lvgl\src\lv_draw/lv_draw_arc.c ****         }
 340              		.loc 1 210 0
 341 0188 98B3     		cbz	r0, .L7
 210:lvgl\src\lv_draw/lv_draw_arc.c ****         }
 342              		.loc 1 210 0 is_stmt 0 discriminator 1
 343 018a 2269     		ldr	r2, [r4, #16]
 344 018c 6946     		mov	r1, sp
 345 018e 6069     		ldr	r0, [r4, #20]
 346              	.LVL42:
 347 0190 FFF7FEFF 		bl	lv_draw_rect
 348              	.LVL43:
 349 0194 2DE0     		b	.L7
 350              	.L11:
 351              	.LBE4:
 213:lvgl\src\lv_draw/lv_draw_arc.c ****             (q->start_quarter == 2 && q->end_quarter == 1) ||
 352              		.loc 1 213 0 is_stmt 1
 353 0196 9342     		cmp	r3, r2
 354 0198 04D1     		bne	.L13
 213:lvgl\src\lv_draw/lv_draw_arc.c ****             (q->start_quarter == 2 && q->end_quarter == 1) ||
 355              		.loc 1 213 0 is_stmt 0 discriminator 1
 356 019a 1BB1     		cbz	r3, .L13
 213:lvgl\src\lv_draw/lv_draw_arc.c ****             (q->start_quarter == 2 && q->end_quarter == 1) ||
 357              		.loc 1 213 0 discriminator 3
 358 019c 2089     		ldrh	r0, [r4, #8]
 359 019e E188     		ldrh	r1, [r4, #6]
 360 01a0 8842     		cmp	r0, r1
 361 01a2 0BD3     		bcc	.L14
 362              	.L13:
 213:lvgl\src\lv_draw/lv_draw_arc.c ****             (q->start_quarter == 2 && q->end_quarter == 1) ||
 363              		.loc 1 213 0 discriminator 5
 364 01a4 022B     		cmp	r3, #2
 365 01a6 01D1     		bne	.L15
 214:lvgl\src\lv_draw/lv_draw_arc.c ****             (q->start_quarter == 3 && q->end_quarter == 2) ||
 366              		.loc 1 214 0 is_stmt 1
 367 01a8 012A     		cmp	r2, #1
 368 01aa 07D0     		beq	.L14
 369              	.L15:
 214:lvgl\src\lv_draw/lv_draw_arc.c ****             (q->start_quarter == 3 && q->end_quarter == 2) ||
 370              		.loc 1 214 0 is_stmt 0 discriminator 1
 371 01ac 032B     		cmp	r3, #3
 372 01ae 01D1     		bne	.L16
 215:lvgl\src\lv_draw/lv_draw_arc.c ****             (q->start_quarter == 3 && q->end_quarter == 1)) {
 373              		.loc 1 215 0 is_stmt 1
 374 01b0 022A     		cmp	r2, #2
 375 01b2 03D0     		beq	.L14
 376              	.L16:
 215:lvgl\src\lv_draw/lv_draw_arc.c ****             (q->start_quarter == 3 && q->end_quarter == 1)) {
 377              		.loc 1 215 0 is_stmt 0 discriminator 1
 378 01b4 032B     		cmp	r3, #3
 379 01b6 1CD1     		bne	.L7
 216:lvgl\src\lv_draw/lv_draw_arc.c ****         /*Arc crosses here*/
 380              		.loc 1 216 0 is_stmt 1
 381 01b8 012A     		cmp	r2, #1
 382 01ba 1AD1     		bne	.L7
 383              	.L14:
 384              	.LBB5:
 218:lvgl\src\lv_draw/lv_draw_arc.c ****         quarter_area.y1 = q->center_y;
ARM GAS  C:\Users\strap\AppData\Local\Temp\ccQGFe6s.s 			page 16


 385              		.loc 1 218 0
 386 01bc B4F90020 		ldrsh	r2, [r4]
 387 01c0 ADF80020 		strh	r2, [sp]	@ movhi
 219:lvgl\src\lv_draw/lv_draw_arc.c ****         quarter_area.x2 = q->center_x + q->radius;
 388              		.loc 1 219 0
 389 01c4 B4F90210 		ldrsh	r1, [r4, #2]
 390 01c8 ADF80210 		strh	r1, [sp, #2]	@ movhi
 220:lvgl\src\lv_draw/lv_draw_arc.c ****         quarter_area.y2 = q->center_y + q->radius;
 391              		.loc 1 220 0
 392 01cc B4F90430 		ldrsh	r3, [r4, #4]
 393 01d0 1A44     		add	r2, r2, r3
 394 01d2 ADF80420 		strh	r2, [sp, #4]	@ movhi
 221:lvgl\src\lv_draw/lv_draw_arc.c **** 
 395              		.loc 1 221 0
 396 01d6 0B44     		add	r3, r3, r1
 397 01d8 ADF80630 		strh	r3, [sp, #6]	@ movhi
 223:lvgl\src\lv_draw/lv_draw_arc.c ****         if(ok) lv_draw_rect(q->draw_area, &quarter_area, q->draw_dsc);
 398              		.loc 1 223 0
 399 01dc A269     		ldr	r2, [r4, #24]
 400 01de 6946     		mov	r1, sp
 401 01e0 6846     		mov	r0, sp
 402 01e2 FFF7FEFF 		bl	_lv_area_intersect
 403              	.LVL44:
 224:lvgl\src\lv_draw/lv_draw_arc.c ****     }
 404              		.loc 1 224 0
 405 01e6 20B1     		cbz	r0, .L7
 224:lvgl\src\lv_draw/lv_draw_arc.c ****     }
 406              		.loc 1 224 0 is_stmt 0 discriminator 1
 407 01e8 2269     		ldr	r2, [r4, #16]
 408 01ea 6946     		mov	r1, sp
 409 01ec 6069     		ldr	r0, [r4, #20]
 410              	.LVL45:
 411 01ee FFF7FEFF 		bl	lv_draw_rect
 412              	.LVL46:
 413              	.L7:
 414              	.LBE5:
 226:lvgl\src\lv_draw/lv_draw_arc.c **** 
 415              		.loc 1 226 0 is_stmt 1
 416 01f2 03B0     		add	sp, sp, #12
 417              		.cfi_def_cfa_offset 12
 418              		@ sp needed
 419 01f4 30BD     		pop	{r4, r5, pc}
 420              		.cfi_endproc
 421              	.LFE37:
 422              		.size	draw_quarter_0, .-draw_quarter_0
 423 01f6 00BF     		.section	.text.draw_quarter_1,"ax",%progbits
 424              		.align	2
 425              		.thumb
 426              		.thumb_func
 427              		.type	draw_quarter_1, %function
 428              	draw_quarter_1:
 429              	.LFB38:
 229:lvgl\src\lv_draw/lv_draw_arc.c ****     lv_area_t quarter_area;
 430              		.loc 1 229 0
 431              		.cfi_startproc
 432              		@ args = 0, pretend = 0, frame = 8
 433              		@ frame_needed = 0, uses_anonymous_args = 0
ARM GAS  C:\Users\strap\AppData\Local\Temp\ccQGFe6s.s 			page 17


 434              	.LVL47:
 435 0000 30B5     		push	{r4, r5, lr}
 436              		.cfi_def_cfa_offset 12
 437              		.cfi_offset 4, -12
 438              		.cfi_offset 5, -8
 439              		.cfi_offset 14, -4
 440 0002 83B0     		sub	sp, sp, #12
 441              		.cfi_def_cfa_offset 24
 442 0004 0446     		mov	r4, r0
 232:lvgl\src\lv_draw/lv_draw_arc.c ****         /*Small arc here*/
 443              		.loc 1 232 0
 444 0006 4389     		ldrh	r3, [r0, #10]
 445 0008 012B     		cmp	r3, #1
 446 000a 53D1     		bne	.L19
 232:lvgl\src\lv_draw/lv_draw_arc.c ****         /*Small arc here*/
 447              		.loc 1 232 0 is_stmt 0 discriminator 1
 448 000c 8289     		ldrh	r2, [r0, #12]
 449 000e 012A     		cmp	r2, #1
 450 0010 50D1     		bne	.L19
 232:lvgl\src\lv_draw/lv_draw_arc.c ****         /*Small arc here*/
 451              		.loc 1 232 0 discriminator 2
 452 0012 C088     		ldrh	r0, [r0, #6]
 453              	.LVL48:
 454 0014 2289     		ldrh	r2, [r4, #8]
 455 0016 9042     		cmp	r0, r2
 456 0018 4CD2     		bcs	.L19
 457              	.LBB6:
 234:lvgl\src\lv_draw/lv_draw_arc.c ****         quarter_area.x2 = q->center_x + ((_lv_trigo_sin(q->start_angle + 90) * (q->radius - q->widt
 458              		.loc 1 234 0 is_stmt 1
 459 001a B4F90250 		ldrsh	r5, [r4, #2]
 460 001e 00B2     		sxth	r0, r0
 461 0020 FFF7FEFF 		bl	_lv_trigo_sin
 462              	.LVL49:
 463 0024 B4F90430 		ldrsh	r3, [r4, #4]
 464 0028 03FB00F0 		mul	r0, r3, r0
 465 002c 05EBE035 		add	r5, r5, r0, asr #15
 466 0030 ADF80650 		strh	r5, [sp, #6]	@ movhi
 235:lvgl\src\lv_draw/lv_draw_arc.c **** 
 467              		.loc 1 235 0
 468 0034 B4F90050 		ldrsh	r5, [r4]
 469 0038 E088     		ldrh	r0, [r4, #6]
 470 003a 5A30     		adds	r0, r0, #90
 471 003c 00B2     		sxth	r0, r0
 472 003e FFF7FEFF 		bl	_lv_trigo_sin
 473              	.LVL50:
 474 0042 B4F90430 		ldrsh	r3, [r4, #4]
 475 0046 B4F90E20 		ldrsh	r2, [r4, #14]
 476 004a 9B1A     		subs	r3, r3, r2
 477 004c 03FB00F0 		mul	r0, r3, r0
 478 0050 05EBE030 		add	r0, r5, r0, asr #15
 479 0054 ADF80400 		strh	r0, [sp, #4]	@ movhi
 237:lvgl\src\lv_draw/lv_draw_arc.c ****         quarter_area.x1 = q->center_x + ((_lv_trigo_sin(q->end_angle + 90) * (q->radius)) >> LV_TRI
 480              		.loc 1 237 0
 481 0058 B4F90250 		ldrsh	r5, [r4, #2]
 482 005c B4F90800 		ldrsh	r0, [r4, #8]
 483 0060 FFF7FEFF 		bl	_lv_trigo_sin
 484              	.LVL51:
ARM GAS  C:\Users\strap\AppData\Local\Temp\ccQGFe6s.s 			page 18


 485 0064 B4F90430 		ldrsh	r3, [r4, #4]
 486 0068 B4F90E20 		ldrsh	r2, [r4, #14]
 487 006c 9B1A     		subs	r3, r3, r2
 488 006e 03FB00F0 		mul	r0, r3, r0
 489 0072 05EBE030 		add	r0, r5, r0, asr #15
 490 0076 ADF80200 		strh	r0, [sp, #2]	@ movhi
 238:lvgl\src\lv_draw/lv_draw_arc.c **** 
 491              		.loc 1 238 0
 492 007a B4F90050 		ldrsh	r5, [r4]
 493 007e 2089     		ldrh	r0, [r4, #8]
 494 0080 5A30     		adds	r0, r0, #90
 495 0082 00B2     		sxth	r0, r0
 496 0084 FFF7FEFF 		bl	_lv_trigo_sin
 497              	.LVL52:
 498 0088 B4F90430 		ldrsh	r3, [r4, #4]
 499 008c 03FB00F0 		mul	r0, r3, r0
 500 0090 05EBE035 		add	r5, r5, r0, asr #15
 501 0094 02A8     		add	r0, sp, #8
 502 0096 20F8085D 		strh	r5, [r0, #-8]!	@ movhi
 240:lvgl\src\lv_draw/lv_draw_arc.c ****         if(ok) lv_draw_rect(q->draw_area, &quarter_area, q->draw_dsc);
 503              		.loc 1 240 0
 504 009a A269     		ldr	r2, [r4, #24]
 505 009c 0146     		mov	r1, r0
 506 009e FFF7FEFF 		bl	_lv_area_intersect
 507              	.LVL53:
 241:lvgl\src\lv_draw/lv_draw_arc.c ****     }
 508              		.loc 1 241 0
 509 00a2 0028     		cmp	r0, #0
 510 00a4 00F0A880 		beq	.L18
 241:lvgl\src\lv_draw/lv_draw_arc.c ****     }
 511              		.loc 1 241 0 is_stmt 0 discriminator 1
 512 00a8 2269     		ldr	r2, [r4, #16]
 513 00aa 6946     		mov	r1, sp
 514 00ac 6069     		ldr	r0, [r4, #20]
 515              	.LVL54:
 516 00ae FFF7FEFF 		bl	lv_draw_rect
 517              	.LVL55:
 518 00b2 A1E0     		b	.L18
 519              	.L19:
 520              	.LBE6:
 243:lvgl\src\lv_draw/lv_draw_arc.c ****         /*Start and/or end arcs here*/
 521              		.loc 1 243 0 is_stmt 1
 522 00b4 012B     		cmp	r3, #1
 523 00b6 02D0     		beq	.L21
 243:lvgl\src\lv_draw/lv_draw_arc.c ****         /*Start and/or end arcs here*/
 524              		.loc 1 243 0 is_stmt 0 discriminator 1
 525 00b8 A289     		ldrh	r2, [r4, #12]
 526 00ba 012A     		cmp	r2, #1
 527 00bc 6ED1     		bne	.L22
 528              	.L21:
 245:lvgl\src\lv_draw/lv_draw_arc.c ****             quarter_area.x1 = q->center_x - q->radius;
 529              		.loc 1 245 0 is_stmt 1
 530 00be 012B     		cmp	r3, #1
 531 00c0 33D1     		bne	.L23
 532              	.LBB7:
 246:lvgl\src\lv_draw/lv_draw_arc.c ****             quarter_area.y1 = q->center_y;
 533              		.loc 1 246 0
ARM GAS  C:\Users\strap\AppData\Local\Temp\ccQGFe6s.s 			page 19


 534 00c2 B4F90030 		ldrsh	r3, [r4]
 535 00c6 B4F90420 		ldrsh	r2, [r4, #4]
 536 00ca 9B1A     		subs	r3, r3, r2
 537 00cc ADF80030 		strh	r3, [sp]	@ movhi
 247:lvgl\src\lv_draw/lv_draw_arc.c **** 
 538              		.loc 1 247 0
 539 00d0 B4F90250 		ldrsh	r5, [r4, #2]
 540 00d4 ADF80250 		strh	r5, [sp, #2]	@ movhi
 249:lvgl\src\lv_draw/lv_draw_arc.c ****             quarter_area.x2 = q->center_x + ((_lv_trigo_sin(q->start_angle + 90) * (q->radius - q->
 541              		.loc 1 249 0
 542 00d8 B4F90600 		ldrsh	r0, [r4, #6]
 543 00dc FFF7FEFF 		bl	_lv_trigo_sin
 544              	.LVL56:
 545 00e0 B4F90430 		ldrsh	r3, [r4, #4]
 546 00e4 03FB00F0 		mul	r0, r3, r0
 547 00e8 05EBE035 		add	r5, r5, r0, asr #15
 548 00ec ADF80650 		strh	r5, [sp, #6]	@ movhi
 250:lvgl\src\lv_draw/lv_draw_arc.c **** 
 549              		.loc 1 250 0
 550 00f0 B4F90050 		ldrsh	r5, [r4]
 551 00f4 E088     		ldrh	r0, [r4, #6]
 552 00f6 5A30     		adds	r0, r0, #90
 553 00f8 00B2     		sxth	r0, r0
 554 00fa FFF7FEFF 		bl	_lv_trigo_sin
 555              	.LVL57:
 556 00fe B4F90430 		ldrsh	r3, [r4, #4]
 557 0102 B4F90E20 		ldrsh	r2, [r4, #14]
 558 0106 9B1A     		subs	r3, r3, r2
 559 0108 03FB00F0 		mul	r0, r3, r0
 560 010c 05EBE030 		add	r0, r5, r0, asr #15
 561 0110 ADF80400 		strh	r0, [sp, #4]	@ movhi
 252:lvgl\src\lv_draw/lv_draw_arc.c ****             if(ok) lv_draw_rect(q->draw_area, &quarter_area, q->draw_dsc);
 562              		.loc 1 252 0
 563 0114 A269     		ldr	r2, [r4, #24]
 564 0116 6946     		mov	r1, sp
 565 0118 6846     		mov	r0, sp
 566 011a FFF7FEFF 		bl	_lv_area_intersect
 567              	.LVL58:
 253:lvgl\src\lv_draw/lv_draw_arc.c ****         }
 568              		.loc 1 253 0
 569 011e 20B1     		cbz	r0, .L23
 253:lvgl\src\lv_draw/lv_draw_arc.c ****         }
 570              		.loc 1 253 0 is_stmt 0 discriminator 1
 571 0120 2269     		ldr	r2, [r4, #16]
 572 0122 6946     		mov	r1, sp
 573 0124 6069     		ldr	r0, [r4, #20]
 574              	.LVL59:
 575 0126 FFF7FEFF 		bl	lv_draw_rect
 576              	.LVL60:
 577              	.L23:
 578              	.LBE7:
 255:lvgl\src\lv_draw/lv_draw_arc.c ****             quarter_area.x2 = q->center_x - 1;
 579              		.loc 1 255 0 is_stmt 1
 580 012a A389     		ldrh	r3, [r4, #12]
 581 012c 012B     		cmp	r3, #1
 582 012e 63D1     		bne	.L18
 583              	.LBB8:
ARM GAS  C:\Users\strap\AppData\Local\Temp\ccQGFe6s.s 			page 20


 256:lvgl\src\lv_draw/lv_draw_arc.c ****             quarter_area.y2 = q->center_y + q->radius;
 584              		.loc 1 256 0
 585 0130 B4F90030 		ldrsh	r3, [r4]
 586 0134 013B     		subs	r3, r3, #1
 587 0136 ADF80430 		strh	r3, [sp, #4]	@ movhi
 257:lvgl\src\lv_draw/lv_draw_arc.c **** 
 588              		.loc 1 257 0
 589 013a B4F90250 		ldrsh	r5, [r4, #2]
 590 013e B4F90430 		ldrsh	r3, [r4, #4]
 591 0142 2B44     		add	r3, r3, r5
 592 0144 ADF80630 		strh	r3, [sp, #6]	@ movhi
 259:lvgl\src\lv_draw/lv_draw_arc.c ****             quarter_area.x1 = q->center_x + ((_lv_trigo_sin(q->end_angle + 90) * (q->radius)) >> LV
 593              		.loc 1 259 0
 594 0148 B4F90800 		ldrsh	r0, [r4, #8]
 595 014c FFF7FEFF 		bl	_lv_trigo_sin
 596              	.LVL61:
 597 0150 B4F90430 		ldrsh	r3, [r4, #4]
 598 0154 B4F90E20 		ldrsh	r2, [r4, #14]
 599 0158 9B1A     		subs	r3, r3, r2
 600 015a 03FB00F0 		mul	r0, r3, r0
 601 015e 05EBE030 		add	r0, r5, r0, asr #15
 602 0162 ADF80200 		strh	r0, [sp, #2]	@ movhi
 260:lvgl\src\lv_draw/lv_draw_arc.c **** 
 603              		.loc 1 260 0
 604 0166 B4F90050 		ldrsh	r5, [r4]
 605 016a 2089     		ldrh	r0, [r4, #8]
 606 016c 5A30     		adds	r0, r0, #90
 607 016e 00B2     		sxth	r0, r0
 608 0170 FFF7FEFF 		bl	_lv_trigo_sin
 609              	.LVL62:
 610 0174 B4F90430 		ldrsh	r3, [r4, #4]
 611 0178 03FB00F0 		mul	r0, r3, r0
 612 017c 05EBE035 		add	r5, r5, r0, asr #15
 613 0180 02A8     		add	r0, sp, #8
 614 0182 20F8085D 		strh	r5, [r0, #-8]!	@ movhi
 262:lvgl\src\lv_draw/lv_draw_arc.c ****             if(ok) lv_draw_rect(q->draw_area, &quarter_area, q->draw_dsc);
 615              		.loc 1 262 0
 616 0186 A269     		ldr	r2, [r4, #24]
 617 0188 0146     		mov	r1, r0
 618 018a FFF7FEFF 		bl	_lv_area_intersect
 619              	.LVL63:
 263:lvgl\src\lv_draw/lv_draw_arc.c ****         }
 620              		.loc 1 263 0
 621 018e 98B3     		cbz	r0, .L18
 263:lvgl\src\lv_draw/lv_draw_arc.c ****         }
 622              		.loc 1 263 0 is_stmt 0 discriminator 1
 623 0190 2269     		ldr	r2, [r4, #16]
 624 0192 6946     		mov	r1, sp
 625 0194 6069     		ldr	r0, [r4, #20]
 626              	.LVL64:
 627 0196 FFF7FEFF 		bl	lv_draw_rect
 628              	.LVL65:
 629 019a 2DE0     		b	.L18
 630              	.L22:
 631              	.LBE8:
 266:lvgl\src\lv_draw/lv_draw_arc.c ****             (q->start_quarter == 0 && q->end_quarter == 2) ||
 632              		.loc 1 266 0 is_stmt 1
ARM GAS  C:\Users\strap\AppData\Local\Temp\ccQGFe6s.s 			page 21


 633 019c 9342     		cmp	r3, r2
 634 019e 05D1     		bne	.L24
 266:lvgl\src\lv_draw/lv_draw_arc.c ****             (q->start_quarter == 0 && q->end_quarter == 2) ||
 635              		.loc 1 266 0 is_stmt 0 discriminator 1
 636 01a0 012B     		cmp	r3, #1
 637 01a2 03D0     		beq	.L24
 266:lvgl\src\lv_draw/lv_draw_arc.c ****             (q->start_quarter == 0 && q->end_quarter == 2) ||
 638              		.loc 1 266 0 discriminator 3
 639 01a4 2089     		ldrh	r0, [r4, #8]
 640 01a6 E188     		ldrh	r1, [r4, #6]
 641 01a8 8842     		cmp	r0, r1
 642 01aa 09D3     		bcc	.L25
 643              	.L24:
 266:lvgl\src\lv_draw/lv_draw_arc.c ****             (q->start_quarter == 0 && q->end_quarter == 2) ||
 644              		.loc 1 266 0 discriminator 5
 645 01ac 0BB9     		cbnz	r3, .L26
 267:lvgl\src\lv_draw/lv_draw_arc.c ****             (q->start_quarter == 0 && q->end_quarter == 3) ||
 646              		.loc 1 267 0 is_stmt 1
 647 01ae 022A     		cmp	r2, #2
 648 01b0 06D0     		beq	.L25
 649              	.L26:
 267:lvgl\src\lv_draw/lv_draw_arc.c ****             (q->start_quarter == 0 && q->end_quarter == 3) ||
 650              		.loc 1 267 0 is_stmt 0 discriminator 1
 651 01b2 0BB9     		cbnz	r3, .L27
 268:lvgl\src\lv_draw/lv_draw_arc.c ****             (q->start_quarter == 3 && q->end_quarter == 2)) {
 652              		.loc 1 268 0 is_stmt 1
 653 01b4 032A     		cmp	r2, #3
 654 01b6 03D0     		beq	.L25
 655              	.L27:
 268:lvgl\src\lv_draw/lv_draw_arc.c ****             (q->start_quarter == 3 && q->end_quarter == 2)) {
 656              		.loc 1 268 0 is_stmt 0 discriminator 1
 657 01b8 032B     		cmp	r3, #3
 658 01ba 1DD1     		bne	.L18
 269:lvgl\src\lv_draw/lv_draw_arc.c ****         /*Arc crosses here*/
 659              		.loc 1 269 0 is_stmt 1
 660 01bc 022A     		cmp	r2, #2
 661 01be 1BD1     		bne	.L18
 662              	.L25:
 663              	.LBB9:
 271:lvgl\src\lv_draw/lv_draw_arc.c ****         quarter_area.y1 = q->center_y;
 664              		.loc 1 271 0
 665 01c0 B4F90020 		ldrsh	r2, [r4]
 666 01c4 B4F90410 		ldrsh	r1, [r4, #4]
 667 01c8 531A     		subs	r3, r2, r1
 668 01ca ADF80030 		strh	r3, [sp]	@ movhi
 272:lvgl\src\lv_draw/lv_draw_arc.c ****         quarter_area.x2 = q->center_x - 1;
 669              		.loc 1 272 0
 670 01ce B4F90230 		ldrsh	r3, [r4, #2]
 671 01d2 ADF80230 		strh	r3, [sp, #2]	@ movhi
 273:lvgl\src\lv_draw/lv_draw_arc.c ****         quarter_area.y2 = q->center_y + q->radius;
 672              		.loc 1 273 0
 673 01d6 013A     		subs	r2, r2, #1
 674 01d8 ADF80420 		strh	r2, [sp, #4]	@ movhi
 274:lvgl\src\lv_draw/lv_draw_arc.c **** 
 675              		.loc 1 274 0
 676 01dc 0B44     		add	r3, r3, r1
 677 01de ADF80630 		strh	r3, [sp, #6]	@ movhi
ARM GAS  C:\Users\strap\AppData\Local\Temp\ccQGFe6s.s 			page 22


 276:lvgl\src\lv_draw/lv_draw_arc.c ****         if(ok) lv_draw_rect(q->draw_area, &quarter_area, q->draw_dsc);
 678              		.loc 1 276 0
 679 01e2 A269     		ldr	r2, [r4, #24]
 680 01e4 6946     		mov	r1, sp
 681 01e6 6846     		mov	r0, sp
 682 01e8 FFF7FEFF 		bl	_lv_area_intersect
 683              	.LVL66:
 277:lvgl\src\lv_draw/lv_draw_arc.c ****     }
 684              		.loc 1 277 0
 685 01ec 20B1     		cbz	r0, .L18
 277:lvgl\src\lv_draw/lv_draw_arc.c ****     }
 686              		.loc 1 277 0 is_stmt 0 discriminator 1
 687 01ee 2269     		ldr	r2, [r4, #16]
 688 01f0 6946     		mov	r1, sp
 689 01f2 6069     		ldr	r0, [r4, #20]
 690              	.LVL67:
 691 01f4 FFF7FEFF 		bl	lv_draw_rect
 692              	.LVL68:
 693              	.L18:
 694              	.LBE9:
 279:lvgl\src\lv_draw/lv_draw_arc.c **** 
 695              		.loc 1 279 0 is_stmt 1
 696 01f8 03B0     		add	sp, sp, #12
 697              		.cfi_def_cfa_offset 12
 698              		@ sp needed
 699 01fa 30BD     		pop	{r4, r5, pc}
 700              		.cfi_endproc
 701              	.LFE38:
 702              		.size	draw_quarter_1, .-draw_quarter_1
 703              		.section	.text.draw_quarter_2,"ax",%progbits
 704              		.align	2
 705              		.thumb
 706              		.thumb_func
 707              		.type	draw_quarter_2, %function
 708              	draw_quarter_2:
 709              	.LFB39:
 282:lvgl\src\lv_draw/lv_draw_arc.c ****     lv_area_t quarter_area;
 710              		.loc 1 282 0
 711              		.cfi_startproc
 712              		@ args = 0, pretend = 0, frame = 8
 713              		@ frame_needed = 0, uses_anonymous_args = 0
 714              	.LVL69:
 715 0000 30B5     		push	{r4, r5, lr}
 716              		.cfi_def_cfa_offset 12
 717              		.cfi_offset 4, -12
 718              		.cfi_offset 5, -8
 719              		.cfi_offset 14, -4
 720 0002 83B0     		sub	sp, sp, #12
 721              		.cfi_def_cfa_offset 24
 722 0004 0446     		mov	r4, r0
 285:lvgl\src\lv_draw/lv_draw_arc.c ****         /*Small arc here*/
 723              		.loc 1 285 0
 724 0006 4389     		ldrh	r3, [r0, #10]
 725 0008 022B     		cmp	r3, #2
 726 000a 53D1     		bne	.L30
 285:lvgl\src\lv_draw/lv_draw_arc.c ****         /*Small arc here*/
 727              		.loc 1 285 0 is_stmt 0 discriminator 1
ARM GAS  C:\Users\strap\AppData\Local\Temp\ccQGFe6s.s 			page 23


 728 000c 8289     		ldrh	r2, [r0, #12]
 729 000e 022A     		cmp	r2, #2
 730 0010 50D1     		bne	.L30
 285:lvgl\src\lv_draw/lv_draw_arc.c ****         /*Small arc here*/
 731              		.loc 1 285 0 discriminator 2
 732 0012 C088     		ldrh	r0, [r0, #6]
 733              	.LVL70:
 734 0014 2289     		ldrh	r2, [r4, #8]
 735 0016 9042     		cmp	r0, r2
 736 0018 4CD2     		bcs	.L30
 737              	.LBB10:
 287:lvgl\src\lv_draw/lv_draw_arc.c ****         quarter_area.y2 = q->center_y + ((_lv_trigo_sin(q->start_angle) * (q->radius - q->width)) >
 738              		.loc 1 287 0 is_stmt 1
 739 001a B4F90050 		ldrsh	r5, [r4]
 740 001e 5A30     		adds	r0, r0, #90
 741 0020 00B2     		sxth	r0, r0
 742 0022 FFF7FEFF 		bl	_lv_trigo_sin
 743              	.LVL71:
 744 0026 B4F90430 		ldrsh	r3, [r4, #4]
 745 002a 03FB00F0 		mul	r0, r3, r0
 746 002e 05EBE035 		add	r5, r5, r0, asr #15
 747 0032 ADF80050 		strh	r5, [sp]	@ movhi
 288:lvgl\src\lv_draw/lv_draw_arc.c **** 
 748              		.loc 1 288 0
 749 0036 B4F90250 		ldrsh	r5, [r4, #2]
 750 003a B4F90600 		ldrsh	r0, [r4, #6]
 751 003e FFF7FEFF 		bl	_lv_trigo_sin
 752              	.LVL72:
 753 0042 B4F90430 		ldrsh	r3, [r4, #4]
 754 0046 B4F90E20 		ldrsh	r2, [r4, #14]
 755 004a 9B1A     		subs	r3, r3, r2
 756 004c 03FB00F0 		mul	r0, r3, r0
 757 0050 05EBE030 		add	r0, r5, r0, asr #15
 758 0054 ADF80600 		strh	r0, [sp, #6]	@ movhi
 290:lvgl\src\lv_draw/lv_draw_arc.c ****         quarter_area.x2 = q->center_x + ((_lv_trigo_sin(q->end_angle + 90) * (q->radius - q->width)
 759              		.loc 1 290 0
 760 0058 B4F90250 		ldrsh	r5, [r4, #2]
 761 005c B4F90800 		ldrsh	r0, [r4, #8]
 762 0060 FFF7FEFF 		bl	_lv_trigo_sin
 763              	.LVL73:
 764 0064 B4F90430 		ldrsh	r3, [r4, #4]
 765 0068 03FB00F0 		mul	r0, r3, r0
 766 006c 05EBE035 		add	r5, r5, r0, asr #15
 767 0070 ADF80250 		strh	r5, [sp, #2]	@ movhi
 291:lvgl\src\lv_draw/lv_draw_arc.c **** 
 768              		.loc 1 291 0
 769 0074 B4F90050 		ldrsh	r5, [r4]
 770 0078 2089     		ldrh	r0, [r4, #8]
 771 007a 5A30     		adds	r0, r0, #90
 772 007c 00B2     		sxth	r0, r0
 773 007e FFF7FEFF 		bl	_lv_trigo_sin
 774              	.LVL74:
 775 0082 B4F90430 		ldrsh	r3, [r4, #4]
 776 0086 B4F90E20 		ldrsh	r2, [r4, #14]
 777 008a 9B1A     		subs	r3, r3, r2
 778 008c 03FB00F0 		mul	r0, r3, r0
 779 0090 05EBE030 		add	r0, r5, r0, asr #15
ARM GAS  C:\Users\strap\AppData\Local\Temp\ccQGFe6s.s 			page 24


 780 0094 ADF80400 		strh	r0, [sp, #4]	@ movhi
 293:lvgl\src\lv_draw/lv_draw_arc.c ****         if(ok) lv_draw_rect(q->draw_area, &quarter_area, q->draw_dsc);
 781              		.loc 1 293 0
 782 0098 A269     		ldr	r2, [r4, #24]
 783 009a 6946     		mov	r1, sp
 784 009c 6846     		mov	r0, sp
 785 009e FFF7FEFF 		bl	_lv_area_intersect
 786              	.LVL75:
 294:lvgl\src\lv_draw/lv_draw_arc.c ****     }
 787              		.loc 1 294 0
 788 00a2 0028     		cmp	r0, #0
 789 00a4 00F0A980 		beq	.L29
 294:lvgl\src\lv_draw/lv_draw_arc.c ****     }
 790              		.loc 1 294 0 is_stmt 0 discriminator 1
 791 00a8 2269     		ldr	r2, [r4, #16]
 792 00aa 6946     		mov	r1, sp
 793 00ac 6069     		ldr	r0, [r4, #20]
 794              	.LVL76:
 795 00ae FFF7FEFF 		bl	lv_draw_rect
 796              	.LVL77:
 797 00b2 A2E0     		b	.L29
 798              	.L30:
 799              	.LBE10:
 296:lvgl\src\lv_draw/lv_draw_arc.c ****         /*Start and/or end arcs here*/
 800              		.loc 1 296 0 is_stmt 1
 801 00b4 022B     		cmp	r3, #2
 802 00b6 02D0     		beq	.L32
 296:lvgl\src\lv_draw/lv_draw_arc.c ****         /*Start and/or end arcs here*/
 803              		.loc 1 296 0 is_stmt 0 discriminator 1
 804 00b8 A289     		ldrh	r2, [r4, #12]
 805 00ba 022A     		cmp	r2, #2
 806 00bc 6FD1     		bne	.L33
 807              	.L32:
 298:lvgl\src\lv_draw/lv_draw_arc.c ****             quarter_area.x2 = q->center_x - 1;
 808              		.loc 1 298 0 is_stmt 1
 809 00be 022B     		cmp	r3, #2
 810 00c0 34D1     		bne	.L34
 811              	.LBB11:
 299:lvgl\src\lv_draw/lv_draw_arc.c ****             quarter_area.y1 = q->center_y - q->radius;
 812              		.loc 1 299 0
 813 00c2 B4F90050 		ldrsh	r5, [r4]
 814 00c6 6B1E     		subs	r3, r5, #1
 815 00c8 ADF80430 		strh	r3, [sp, #4]	@ movhi
 300:lvgl\src\lv_draw/lv_draw_arc.c **** 
 816              		.loc 1 300 0
 817 00cc B4F90230 		ldrsh	r3, [r4, #2]
 818 00d0 B4F90420 		ldrsh	r2, [r4, #4]
 819 00d4 9B1A     		subs	r3, r3, r2
 820 00d6 ADF80230 		strh	r3, [sp, #2]	@ movhi
 302:lvgl\src\lv_draw/lv_draw_arc.c ****             quarter_area.y2 = q->center_y + ((_lv_trigo_sin(q->start_angle) * (q->radius - q->width
 821              		.loc 1 302 0
 822 00da E088     		ldrh	r0, [r4, #6]
 823 00dc 5A30     		adds	r0, r0, #90
 824 00de 00B2     		sxth	r0, r0
 825 00e0 FFF7FEFF 		bl	_lv_trigo_sin
 826              	.LVL78:
 827 00e4 B4F90430 		ldrsh	r3, [r4, #4]
ARM GAS  C:\Users\strap\AppData\Local\Temp\ccQGFe6s.s 			page 25


 828 00e8 03FB00F0 		mul	r0, r3, r0
 829 00ec 05EBE035 		add	r5, r5, r0, asr #15
 830 00f0 ADF80050 		strh	r5, [sp]	@ movhi
 303:lvgl\src\lv_draw/lv_draw_arc.c **** 
 831              		.loc 1 303 0
 832 00f4 B4F90250 		ldrsh	r5, [r4, #2]
 833 00f8 B4F90600 		ldrsh	r0, [r4, #6]
 834 00fc FFF7FEFF 		bl	_lv_trigo_sin
 835              	.LVL79:
 836 0100 B4F90430 		ldrsh	r3, [r4, #4]
 837 0104 B4F90E20 		ldrsh	r2, [r4, #14]
 838 0108 9B1A     		subs	r3, r3, r2
 839 010a 03FB00F0 		mul	r0, r3, r0
 840 010e 05EBE030 		add	r0, r5, r0, asr #15
 841 0112 ADF80600 		strh	r0, [sp, #6]	@ movhi
 305:lvgl\src\lv_draw/lv_draw_arc.c ****             if(ok) lv_draw_rect(q->draw_area, &quarter_area, q->draw_dsc);
 842              		.loc 1 305 0
 843 0116 A269     		ldr	r2, [r4, #24]
 844 0118 6946     		mov	r1, sp
 845 011a 6846     		mov	r0, sp
 846 011c FFF7FEFF 		bl	_lv_area_intersect
 847              	.LVL80:
 306:lvgl\src\lv_draw/lv_draw_arc.c ****         }
 848              		.loc 1 306 0
 849 0120 20B1     		cbz	r0, .L34
 306:lvgl\src\lv_draw/lv_draw_arc.c ****         }
 850              		.loc 1 306 0 is_stmt 0 discriminator 1
 851 0122 2269     		ldr	r2, [r4, #16]
 852 0124 6946     		mov	r1, sp
 853 0126 6069     		ldr	r0, [r4, #20]
 854              	.LVL81:
 855 0128 FFF7FEFF 		bl	lv_draw_rect
 856              	.LVL82:
 857              	.L34:
 858              	.LBE11:
 308:lvgl\src\lv_draw/lv_draw_arc.c ****             quarter_area.x1 = q->center_x - q->radius;
 859              		.loc 1 308 0 is_stmt 1
 860 012c A389     		ldrh	r3, [r4, #12]
 861 012e 022B     		cmp	r3, #2
 862 0130 63D1     		bne	.L29
 863              	.LBB12:
 309:lvgl\src\lv_draw/lv_draw_arc.c ****             quarter_area.y2 = q->center_y - 1;
 864              		.loc 1 309 0
 865 0132 B4F90050 		ldrsh	r5, [r4]
 866 0136 B4F90430 		ldrsh	r3, [r4, #4]
 867 013a EB1A     		subs	r3, r5, r3
 868 013c ADF80030 		strh	r3, [sp]	@ movhi
 310:lvgl\src\lv_draw/lv_draw_arc.c **** 
 869              		.loc 1 310 0
 870 0140 B4F90230 		ldrsh	r3, [r4, #2]
 871 0144 013B     		subs	r3, r3, #1
 872 0146 ADF80630 		strh	r3, [sp, #6]	@ movhi
 312:lvgl\src\lv_draw/lv_draw_arc.c ****             quarter_area.y1 = q->center_y + ((_lv_trigo_sin(q->end_angle) * (q->radius)) >> LV_TRIG
 873              		.loc 1 312 0
 874 014a 2089     		ldrh	r0, [r4, #8]
 875 014c 5A30     		adds	r0, r0, #90
 876 014e 00B2     		sxth	r0, r0
ARM GAS  C:\Users\strap\AppData\Local\Temp\ccQGFe6s.s 			page 26


 877 0150 FFF7FEFF 		bl	_lv_trigo_sin
 878              	.LVL83:
 879 0154 B4F90430 		ldrsh	r3, [r4, #4]
 880 0158 B4F90E20 		ldrsh	r2, [r4, #14]
 881 015c 9B1A     		subs	r3, r3, r2
 882 015e 03FB00F0 		mul	r0, r3, r0
 883 0162 05EBE030 		add	r0, r5, r0, asr #15
 884 0166 ADF80400 		strh	r0, [sp, #4]	@ movhi
 313:lvgl\src\lv_draw/lv_draw_arc.c **** 
 885              		.loc 1 313 0
 886 016a B4F90250 		ldrsh	r5, [r4, #2]
 887 016e B4F90800 		ldrsh	r0, [r4, #8]
 888 0172 FFF7FEFF 		bl	_lv_trigo_sin
 889              	.LVL84:
 890 0176 B4F90430 		ldrsh	r3, [r4, #4]
 891 017a 03FB00F0 		mul	r0, r3, r0
 892 017e 05EBE035 		add	r5, r5, r0, asr #15
 893 0182 ADF80250 		strh	r5, [sp, #2]	@ movhi
 315:lvgl\src\lv_draw/lv_draw_arc.c ****             if(ok) lv_draw_rect(q->draw_area, &quarter_area, q->draw_dsc);
 894              		.loc 1 315 0
 895 0186 A269     		ldr	r2, [r4, #24]
 896 0188 6946     		mov	r1, sp
 897 018a 6846     		mov	r0, sp
 898 018c FFF7FEFF 		bl	_lv_area_intersect
 899              	.LVL85:
 316:lvgl\src\lv_draw/lv_draw_arc.c ****         }
 900              		.loc 1 316 0
 901 0190 98B3     		cbz	r0, .L29
 316:lvgl\src\lv_draw/lv_draw_arc.c ****         }
 902              		.loc 1 316 0 is_stmt 0 discriminator 1
 903 0192 2269     		ldr	r2, [r4, #16]
 904 0194 6946     		mov	r1, sp
 905 0196 6069     		ldr	r0, [r4, #20]
 906              	.LVL86:
 907 0198 FFF7FEFF 		bl	lv_draw_rect
 908              	.LVL87:
 909 019c 2DE0     		b	.L29
 910              	.L33:
 911              	.LBE12:
 319:lvgl\src\lv_draw/lv_draw_arc.c ****             (q->start_quarter == 0 && q->end_quarter == 3) ||
 912              		.loc 1 319 0 is_stmt 1
 913 019e 9342     		cmp	r3, r2
 914 01a0 05D1     		bne	.L35
 319:lvgl\src\lv_draw/lv_draw_arc.c ****             (q->start_quarter == 0 && q->end_quarter == 3) ||
 915              		.loc 1 319 0 is_stmt 0 discriminator 1
 916 01a2 022B     		cmp	r3, #2
 917 01a4 03D0     		beq	.L35
 319:lvgl\src\lv_draw/lv_draw_arc.c ****             (q->start_quarter == 0 && q->end_quarter == 3) ||
 918              		.loc 1 319 0 discriminator 3
 919 01a6 2089     		ldrh	r0, [r4, #8]
 920 01a8 E188     		ldrh	r1, [r4, #6]
 921 01aa 8842     		cmp	r0, r1
 922 01ac 09D3     		bcc	.L36
 923              	.L35:
 319:lvgl\src\lv_draw/lv_draw_arc.c ****             (q->start_quarter == 0 && q->end_quarter == 3) ||
 924              		.loc 1 319 0 discriminator 5
 925 01ae 0BB9     		cbnz	r3, .L37
ARM GAS  C:\Users\strap\AppData\Local\Temp\ccQGFe6s.s 			page 27


 320:lvgl\src\lv_draw/lv_draw_arc.c ****             (q->start_quarter == 1 && q->end_quarter == 3) ||
 926              		.loc 1 320 0 is_stmt 1
 927 01b0 032A     		cmp	r2, #3
 928 01b2 06D0     		beq	.L36
 929              	.L37:
 320:lvgl\src\lv_draw/lv_draw_arc.c ****             (q->start_quarter == 1 && q->end_quarter == 3) ||
 930              		.loc 1 320 0 is_stmt 0 discriminator 1
 931 01b4 012B     		cmp	r3, #1
 932 01b6 01D1     		bne	.L38
 321:lvgl\src\lv_draw/lv_draw_arc.c ****             (q->start_quarter == 1 && q->end_quarter == 0)) {
 933              		.loc 1 321 0 is_stmt 1
 934 01b8 032A     		cmp	r2, #3
 935 01ba 02D0     		beq	.L36
 936              	.L38:
 321:lvgl\src\lv_draw/lv_draw_arc.c ****             (q->start_quarter == 1 && q->end_quarter == 0)) {
 937              		.loc 1 321 0 is_stmt 0 discriminator 1
 938 01bc 012B     		cmp	r3, #1
 939 01be 1CD1     		bne	.L29
 322:lvgl\src\lv_draw/lv_draw_arc.c ****         /*Arc crosses here*/
 940              		.loc 1 322 0 is_stmt 1
 941 01c0 DAB9     		cbnz	r2, .L29
 942              	.L36:
 943              	.LBB13:
 324:lvgl\src\lv_draw/lv_draw_arc.c ****         quarter_area.y1 = q->center_y - q->radius;
 944              		.loc 1 324 0
 945 01c2 B4F90020 		ldrsh	r2, [r4]
 946 01c6 A188     		ldrh	r1, [r4, #4]
 947 01c8 531A     		subs	r3, r2, r1
 948 01ca ADF80030 		strh	r3, [sp]	@ movhi
 325:lvgl\src\lv_draw/lv_draw_arc.c ****         quarter_area.x2 = q->center_x - 1;
 949              		.loc 1 325 0
 950 01ce B4F90230 		ldrsh	r3, [r4, #2]
 951 01d2 591A     		subs	r1, r3, r1
 952 01d4 ADF80210 		strh	r1, [sp, #2]	@ movhi
 326:lvgl\src\lv_draw/lv_draw_arc.c ****         quarter_area.y2 = q->center_y - 1;
 953              		.loc 1 326 0
 954 01d8 013A     		subs	r2, r2, #1
 955 01da ADF80420 		strh	r2, [sp, #4]	@ movhi
 327:lvgl\src\lv_draw/lv_draw_arc.c **** 
 956              		.loc 1 327 0
 957 01de 013B     		subs	r3, r3, #1
 958 01e0 ADF80630 		strh	r3, [sp, #6]	@ movhi
 329:lvgl\src\lv_draw/lv_draw_arc.c ****         if(ok) lv_draw_rect(q->draw_area, &quarter_area, q->draw_dsc);
 959              		.loc 1 329 0
 960 01e4 A269     		ldr	r2, [r4, #24]
 961 01e6 6946     		mov	r1, sp
 962 01e8 6846     		mov	r0, sp
 963 01ea FFF7FEFF 		bl	_lv_area_intersect
 964              	.LVL88:
 330:lvgl\src\lv_draw/lv_draw_arc.c ****     }
 965              		.loc 1 330 0
 966 01ee 20B1     		cbz	r0, .L29
 330:lvgl\src\lv_draw/lv_draw_arc.c ****     }
 967              		.loc 1 330 0 is_stmt 0 discriminator 1
 968 01f0 2269     		ldr	r2, [r4, #16]
 969 01f2 6946     		mov	r1, sp
 970 01f4 6069     		ldr	r0, [r4, #20]
ARM GAS  C:\Users\strap\AppData\Local\Temp\ccQGFe6s.s 			page 28


 971              	.LVL89:
 972 01f6 FFF7FEFF 		bl	lv_draw_rect
 973              	.LVL90:
 974              	.L29:
 975              	.LBE13:
 332:lvgl\src\lv_draw/lv_draw_arc.c **** 
 976              		.loc 1 332 0 is_stmt 1
 977 01fa 03B0     		add	sp, sp, #12
 978              		.cfi_def_cfa_offset 12
 979              		@ sp needed
 980 01fc 30BD     		pop	{r4, r5, pc}
 981              		.cfi_endproc
 982              	.LFE39:
 983              		.size	draw_quarter_2, .-draw_quarter_2
 984 01fe 00BF     		.section	.text.draw_quarter_3,"ax",%progbits
 985              		.align	2
 986              		.thumb
 987              		.thumb_func
 988              		.type	draw_quarter_3, %function
 989              	draw_quarter_3:
 990              	.LFB40:
 336:lvgl\src\lv_draw/lv_draw_arc.c ****     lv_area_t quarter_area;
 991              		.loc 1 336 0
 992              		.cfi_startproc
 993              		@ args = 0, pretend = 0, frame = 8
 994              		@ frame_needed = 0, uses_anonymous_args = 0
 995              	.LVL91:
 996 0000 30B5     		push	{r4, r5, lr}
 997              		.cfi_def_cfa_offset 12
 998              		.cfi_offset 4, -12
 999              		.cfi_offset 5, -8
 1000              		.cfi_offset 14, -4
 1001 0002 83B0     		sub	sp, sp, #12
 1002              		.cfi_def_cfa_offset 24
 1003 0004 0446     		mov	r4, r0
 339:lvgl\src\lv_draw/lv_draw_arc.c ****         /*Small arc here*/
 1004              		.loc 1 339 0
 1005 0006 4389     		ldrh	r3, [r0, #10]
 1006 0008 032B     		cmp	r3, #3
 1007 000a 53D1     		bne	.L41
 339:lvgl\src\lv_draw/lv_draw_arc.c ****         /*Small arc here*/
 1008              		.loc 1 339 0 is_stmt 0 discriminator 1
 1009 000c 8289     		ldrh	r2, [r0, #12]
 1010 000e 032A     		cmp	r2, #3
 1011 0010 50D1     		bne	.L41
 339:lvgl\src\lv_draw/lv_draw_arc.c ****         /*Small arc here*/
 1012              		.loc 1 339 0 discriminator 2
 1013 0012 C088     		ldrh	r0, [r0, #6]
 1014              	.LVL92:
 1015 0014 2289     		ldrh	r2, [r4, #8]
 1016 0016 9042     		cmp	r0, r2
 1017 0018 4CD2     		bcs	.L41
 1018              	.LBB14:
 341:lvgl\src\lv_draw/lv_draw_arc.c ****         quarter_area.y1 = q->center_y + ((_lv_trigo_sin(q->start_angle) * (q->radius)) >> LV_TRIGO_
 1019              		.loc 1 341 0 is_stmt 1
 1020 001a B4F90050 		ldrsh	r5, [r4]
 1021 001e 5A30     		adds	r0, r0, #90
ARM GAS  C:\Users\strap\AppData\Local\Temp\ccQGFe6s.s 			page 29


 1022 0020 00B2     		sxth	r0, r0
 1023 0022 FFF7FEFF 		bl	_lv_trigo_sin
 1024              	.LVL93:
 1025 0026 B4F90430 		ldrsh	r3, [r4, #4]
 1026 002a B4F90E20 		ldrsh	r2, [r4, #14]
 1027 002e 9B1A     		subs	r3, r3, r2
 1028 0030 03FB00F0 		mul	r0, r3, r0
 1029 0034 05EBE030 		add	r0, r5, r0, asr #15
 1030 0038 ADF80000 		strh	r0, [sp]	@ movhi
 342:lvgl\src\lv_draw/lv_draw_arc.c **** 
 1031              		.loc 1 342 0
 1032 003c B4F90250 		ldrsh	r5, [r4, #2]
 1033 0040 B4F90600 		ldrsh	r0, [r4, #6]
 1034 0044 FFF7FEFF 		bl	_lv_trigo_sin
 1035              	.LVL94:
 1036 0048 B4F90430 		ldrsh	r3, [r4, #4]
 1037 004c 03FB00F0 		mul	r0, r3, r0
 1038 0050 05EBE035 		add	r5, r5, r0, asr #15
 1039 0054 ADF80250 		strh	r5, [sp, #2]	@ movhi
 344:lvgl\src\lv_draw/lv_draw_arc.c ****         quarter_area.y2 = q->center_y + ((_lv_trigo_sin(q->end_angle) * (q->radius - q->width)) >> 
 1040              		.loc 1 344 0
 1041 0058 B4F90050 		ldrsh	r5, [r4]
 1042 005c 2089     		ldrh	r0, [r4, #8]
 1043 005e 5A30     		adds	r0, r0, #90
 1044 0060 00B2     		sxth	r0, r0
 1045 0062 FFF7FEFF 		bl	_lv_trigo_sin
 1046              	.LVL95:
 1047 0066 B4F90430 		ldrsh	r3, [r4, #4]
 1048 006a 03FB00F0 		mul	r0, r3, r0
 1049 006e 05EBE035 		add	r5, r5, r0, asr #15
 1050 0072 ADF80450 		strh	r5, [sp, #4]	@ movhi
 345:lvgl\src\lv_draw/lv_draw_arc.c **** 
 1051              		.loc 1 345 0
 1052 0076 B4F90250 		ldrsh	r5, [r4, #2]
 1053 007a B4F90800 		ldrsh	r0, [r4, #8]
 1054 007e FFF7FEFF 		bl	_lv_trigo_sin
 1055              	.LVL96:
 1056 0082 B4F90430 		ldrsh	r3, [r4, #4]
 1057 0086 B4F90E20 		ldrsh	r2, [r4, #14]
 1058 008a 9B1A     		subs	r3, r3, r2
 1059 008c 03FB00F0 		mul	r0, r3, r0
 1060 0090 05EBE030 		add	r0, r5, r0, asr #15
 1061 0094 ADF80600 		strh	r0, [sp, #6]	@ movhi
 347:lvgl\src\lv_draw/lv_draw_arc.c ****         if(ok) lv_draw_rect(q->draw_area, &quarter_area, q->draw_dsc);
 1062              		.loc 1 347 0
 1063 0098 A269     		ldr	r2, [r4, #24]
 1064 009a 6946     		mov	r1, sp
 1065 009c 6846     		mov	r0, sp
 1066 009e FFF7FEFF 		bl	_lv_area_intersect
 1067              	.LVL97:
 348:lvgl\src\lv_draw/lv_draw_arc.c ****     }
 1068              		.loc 1 348 0
 1069 00a2 0028     		cmp	r0, #0
 1070 00a4 00F0A780 		beq	.L40
 348:lvgl\src\lv_draw/lv_draw_arc.c ****     }
 1071              		.loc 1 348 0 is_stmt 0 discriminator 1
 1072 00a8 2269     		ldr	r2, [r4, #16]
ARM GAS  C:\Users\strap\AppData\Local\Temp\ccQGFe6s.s 			page 30


 1073 00aa 6946     		mov	r1, sp
 1074 00ac 6069     		ldr	r0, [r4, #20]
 1075              	.LVL98:
 1076 00ae FFF7FEFF 		bl	lv_draw_rect
 1077              	.LVL99:
 1078 00b2 A0E0     		b	.L40
 1079              	.L41:
 1080              	.LBE14:
 350:lvgl\src\lv_draw/lv_draw_arc.c ****         /*Start and/or end arcs here*/
 1081              		.loc 1 350 0 is_stmt 1
 1082 00b4 032B     		cmp	r3, #3
 1083 00b6 02D0     		beq	.L43
 350:lvgl\src\lv_draw/lv_draw_arc.c ****         /*Start and/or end arcs here*/
 1084              		.loc 1 350 0 is_stmt 0 discriminator 1
 1085 00b8 A289     		ldrh	r2, [r4, #12]
 1086 00ba 032A     		cmp	r2, #3
 1087 00bc 6ED1     		bne	.L44
 1088              	.L43:
 352:lvgl\src\lv_draw/lv_draw_arc.c ****             quarter_area.x2 = q->center_x + q->radius;
 1089              		.loc 1 352 0 is_stmt 1
 1090 00be 032B     		cmp	r3, #3
 1091 00c0 34D1     		bne	.L45
 1092              	.LBB15:
 353:lvgl\src\lv_draw/lv_draw_arc.c ****             quarter_area.y2 = q->center_y - 1;
 1093              		.loc 1 353 0
 1094 00c2 B4F90050 		ldrsh	r5, [r4]
 1095 00c6 B4F90430 		ldrsh	r3, [r4, #4]
 1096 00ca 2B44     		add	r3, r3, r5
 1097 00cc ADF80430 		strh	r3, [sp, #4]	@ movhi
 354:lvgl\src\lv_draw/lv_draw_arc.c **** 
 1098              		.loc 1 354 0
 1099 00d0 B4F90230 		ldrsh	r3, [r4, #2]
 1100 00d4 013B     		subs	r3, r3, #1
 1101 00d6 ADF80630 		strh	r3, [sp, #6]	@ movhi
 356:lvgl\src\lv_draw/lv_draw_arc.c ****             quarter_area.y1 = q->center_y + ((_lv_trigo_sin(q->start_angle) * (q->radius)) >> LV_TR
 1102              		.loc 1 356 0
 1103 00da E088     		ldrh	r0, [r4, #6]
 1104 00dc 5A30     		adds	r0, r0, #90
 1105 00de 00B2     		sxth	r0, r0
 1106 00e0 FFF7FEFF 		bl	_lv_trigo_sin
 1107              	.LVL100:
 1108 00e4 B4F90430 		ldrsh	r3, [r4, #4]
 1109 00e8 B4F90E20 		ldrsh	r2, [r4, #14]
 1110 00ec 9B1A     		subs	r3, r3, r2
 1111 00ee 03FB00F0 		mul	r0, r3, r0
 1112 00f2 05EBE030 		add	r0, r5, r0, asr #15
 1113 00f6 ADF80000 		strh	r0, [sp]	@ movhi
 357:lvgl\src\lv_draw/lv_draw_arc.c **** 
 1114              		.loc 1 357 0
 1115 00fa B4F90250 		ldrsh	r5, [r4, #2]
 1116 00fe B4F90600 		ldrsh	r0, [r4, #6]
 1117 0102 FFF7FEFF 		bl	_lv_trigo_sin
 1118              	.LVL101:
 1119 0106 B4F90430 		ldrsh	r3, [r4, #4]
 1120 010a 03FB00F0 		mul	r0, r3, r0
 1121 010e 05EBE035 		add	r5, r5, r0, asr #15
 1122 0112 ADF80250 		strh	r5, [sp, #2]	@ movhi
ARM GAS  C:\Users\strap\AppData\Local\Temp\ccQGFe6s.s 			page 31


 359:lvgl\src\lv_draw/lv_draw_arc.c ****             if(ok) lv_draw_rect(q->draw_area, &quarter_area, q->draw_dsc);
 1123              		.loc 1 359 0
 1124 0116 A269     		ldr	r2, [r4, #24]
 1125 0118 6946     		mov	r1, sp
 1126 011a 6846     		mov	r0, sp
 1127 011c FFF7FEFF 		bl	_lv_area_intersect
 1128              	.LVL102:
 360:lvgl\src\lv_draw/lv_draw_arc.c ****         }
 1129              		.loc 1 360 0
 1130 0120 20B1     		cbz	r0, .L45
 360:lvgl\src\lv_draw/lv_draw_arc.c ****         }
 1131              		.loc 1 360 0 is_stmt 0 discriminator 1
 1132 0122 2269     		ldr	r2, [r4, #16]
 1133 0124 6946     		mov	r1, sp
 1134 0126 6069     		ldr	r0, [r4, #20]
 1135              	.LVL103:
 1136 0128 FFF7FEFF 		bl	lv_draw_rect
 1137              	.LVL104:
 1138              	.L45:
 1139              	.LBE15:
 362:lvgl\src\lv_draw/lv_draw_arc.c ****             quarter_area.x1 = q->center_x;
 1140              		.loc 1 362 0 is_stmt 1
 1141 012c A389     		ldrh	r3, [r4, #12]
 1142 012e 032B     		cmp	r3, #3
 1143 0130 61D1     		bne	.L40
 1144              	.LBB16:
 363:lvgl\src\lv_draw/lv_draw_arc.c ****             quarter_area.y1 = q->center_y - q->radius;
 1145              		.loc 1 363 0
 1146 0132 B4F90050 		ldrsh	r5, [r4]
 1147 0136 ADF80050 		strh	r5, [sp]	@ movhi
 364:lvgl\src\lv_draw/lv_draw_arc.c **** 
 1148              		.loc 1 364 0
 1149 013a B4F90230 		ldrsh	r3, [r4, #2]
 1150 013e B4F90420 		ldrsh	r2, [r4, #4]
 1151 0142 9B1A     		subs	r3, r3, r2
 1152 0144 ADF80230 		strh	r3, [sp, #2]	@ movhi
 366:lvgl\src\lv_draw/lv_draw_arc.c ****             quarter_area.y2 = q->center_y + ((_lv_trigo_sin(q->end_angle) * (q->radius - q->width))
 1153              		.loc 1 366 0
 1154 0148 2089     		ldrh	r0, [r4, #8]
 1155 014a 5A30     		adds	r0, r0, #90
 1156 014c 00B2     		sxth	r0, r0
 1157 014e FFF7FEFF 		bl	_lv_trigo_sin
 1158              	.LVL105:
 1159 0152 B4F90430 		ldrsh	r3, [r4, #4]
 1160 0156 03FB00F0 		mul	r0, r3, r0
 1161 015a 05EBE035 		add	r5, r5, r0, asr #15
 1162 015e ADF80450 		strh	r5, [sp, #4]	@ movhi
 367:lvgl\src\lv_draw/lv_draw_arc.c **** 
 1163              		.loc 1 367 0
 1164 0162 B4F90250 		ldrsh	r5, [r4, #2]
 1165 0166 B4F90800 		ldrsh	r0, [r4, #8]
 1166 016a FFF7FEFF 		bl	_lv_trigo_sin
 1167              	.LVL106:
 1168 016e B4F90430 		ldrsh	r3, [r4, #4]
 1169 0172 B4F90E20 		ldrsh	r2, [r4, #14]
 1170 0176 9B1A     		subs	r3, r3, r2
 1171 0178 03FB00F0 		mul	r0, r3, r0
ARM GAS  C:\Users\strap\AppData\Local\Temp\ccQGFe6s.s 			page 32


 1172 017c 05EBE030 		add	r0, r5, r0, asr #15
 1173 0180 ADF80600 		strh	r0, [sp, #6]	@ movhi
 369:lvgl\src\lv_draw/lv_draw_arc.c ****             if(ok) lv_draw_rect(q->draw_area, &quarter_area, q->draw_dsc);
 1174              		.loc 1 369 0
 1175 0184 A269     		ldr	r2, [r4, #24]
 1176 0186 6946     		mov	r1, sp
 1177 0188 6846     		mov	r0, sp
 1178 018a FFF7FEFF 		bl	_lv_area_intersect
 1179              	.LVL107:
 370:lvgl\src\lv_draw/lv_draw_arc.c ****         }
 1180              		.loc 1 370 0
 1181 018e 90B3     		cbz	r0, .L40
 370:lvgl\src\lv_draw/lv_draw_arc.c ****         }
 1182              		.loc 1 370 0 is_stmt 0 discriminator 1
 1183 0190 2269     		ldr	r2, [r4, #16]
 1184 0192 6946     		mov	r1, sp
 1185 0194 6069     		ldr	r0, [r4, #20]
 1186              	.LVL108:
 1187 0196 FFF7FEFF 		bl	lv_draw_rect
 1188              	.LVL109:
 1189 019a 2CE0     		b	.L40
 1190              	.L44:
 1191              	.LBE16:
 373:lvgl\src\lv_draw/lv_draw_arc.c ****             (q->start_quarter == 2 && q->end_quarter == 0) ||
 1192              		.loc 1 373 0 is_stmt 1
 1193 019c 9342     		cmp	r3, r2
 1194 019e 05D1     		bne	.L46
 373:lvgl\src\lv_draw/lv_draw_arc.c ****             (q->start_quarter == 2 && q->end_quarter == 0) ||
 1195              		.loc 1 373 0 is_stmt 0 discriminator 1
 1196 01a0 032B     		cmp	r3, #3
 1197 01a2 03D0     		beq	.L46
 373:lvgl\src\lv_draw/lv_draw_arc.c ****             (q->start_quarter == 2 && q->end_quarter == 0) ||
 1198              		.loc 1 373 0 discriminator 3
 1199 01a4 2089     		ldrh	r0, [r4, #8]
 1200 01a6 E188     		ldrh	r1, [r4, #6]
 1201 01a8 8842     		cmp	r0, r1
 1202 01aa 09D3     		bcc	.L47
 1203              	.L46:
 373:lvgl\src\lv_draw/lv_draw_arc.c ****             (q->start_quarter == 2 && q->end_quarter == 0) ||
 1204              		.loc 1 373 0 discriminator 5
 1205 01ac 022B     		cmp	r3, #2
 1206 01ae 00D1     		bne	.L48
 374:lvgl\src\lv_draw/lv_draw_arc.c ****             (q->start_quarter == 1 && q->end_quarter == 0) ||
 1207              		.loc 1 374 0 is_stmt 1
 1208 01b0 32B1     		cbz	r2, .L47
 1209              	.L48:
 374:lvgl\src\lv_draw/lv_draw_arc.c ****             (q->start_quarter == 1 && q->end_quarter == 0) ||
 1210              		.loc 1 374 0 is_stmt 0 discriminator 1
 1211 01b2 012B     		cmp	r3, #1
 1212 01b4 00D1     		bne	.L49
 375:lvgl\src\lv_draw/lv_draw_arc.c ****             (q->start_quarter == 2 && q->end_quarter == 1)) {
 1213              		.loc 1 375 0 is_stmt 1
 1214 01b6 1AB1     		cbz	r2, .L47
 1215              	.L49:
 375:lvgl\src\lv_draw/lv_draw_arc.c ****             (q->start_quarter == 2 && q->end_quarter == 1)) {
 1216              		.loc 1 375 0 is_stmt 0 discriminator 1
 1217 01b8 022B     		cmp	r3, #2
ARM GAS  C:\Users\strap\AppData\Local\Temp\ccQGFe6s.s 			page 33


 1218 01ba 1CD1     		bne	.L40
 376:lvgl\src\lv_draw/lv_draw_arc.c ****         /*Arc crosses here*/
 1219              		.loc 1 376 0 is_stmt 1
 1220 01bc 012A     		cmp	r2, #1
 1221 01be 1AD1     		bne	.L40
 1222              	.L47:
 1223              	.LBB17:
 378:lvgl\src\lv_draw/lv_draw_arc.c ****         quarter_area.y1 = q->center_y - q->radius;
 1224              		.loc 1 378 0
 1225 01c0 B4F90020 		ldrsh	r2, [r4]
 1226 01c4 ADF80020 		strh	r2, [sp]	@ movhi
 379:lvgl\src\lv_draw/lv_draw_arc.c ****         quarter_area.x2 = q->center_x + q->radius;
 1227              		.loc 1 379 0
 1228 01c8 B4F90230 		ldrsh	r3, [r4, #2]
 1229 01cc A188     		ldrh	r1, [r4, #4]
 1230 01ce 581A     		subs	r0, r3, r1
 1231 01d0 ADF80200 		strh	r0, [sp, #2]	@ movhi
 380:lvgl\src\lv_draw/lv_draw_arc.c ****         quarter_area.y2 = q->center_y - 1;
 1232              		.loc 1 380 0
 1233 01d4 0A44     		add	r2, r2, r1
 1234 01d6 ADF80420 		strh	r2, [sp, #4]	@ movhi
 381:lvgl\src\lv_draw/lv_draw_arc.c **** 
 1235              		.loc 1 381 0
 1236 01da 013B     		subs	r3, r3, #1
 1237 01dc ADF80630 		strh	r3, [sp, #6]	@ movhi
 383:lvgl\src\lv_draw/lv_draw_arc.c ****         if(ok) lv_draw_rect(q->draw_area, &quarter_area, q->draw_dsc);
 1238              		.loc 1 383 0
 1239 01e0 A269     		ldr	r2, [r4, #24]
 1240 01e2 6946     		mov	r1, sp
 1241 01e4 6846     		mov	r0, sp
 1242 01e6 FFF7FEFF 		bl	_lv_area_intersect
 1243              	.LVL110:
 384:lvgl\src\lv_draw/lv_draw_arc.c ****     }
 1244              		.loc 1 384 0
 1245 01ea 20B1     		cbz	r0, .L40
 384:lvgl\src\lv_draw/lv_draw_arc.c ****     }
 1246              		.loc 1 384 0 is_stmt 0 discriminator 1
 1247 01ec 2269     		ldr	r2, [r4, #16]
 1248 01ee 6946     		mov	r1, sp
 1249 01f0 6069     		ldr	r0, [r4, #20]
 1250              	.LVL111:
 1251 01f2 FFF7FEFF 		bl	lv_draw_rect
 1252              	.LVL112:
 1253              	.L40:
 1254              	.LBE17:
 386:lvgl\src\lv_draw/lv_draw_arc.c **** 
 1255              		.loc 1 386 0 is_stmt 1
 1256 01f6 03B0     		add	sp, sp, #12
 1257              		.cfi_def_cfa_offset 12
 1258              		@ sp needed
 1259 01f8 30BD     		pop	{r4, r5, pc}
 1260              		.cfi_endproc
 1261              	.LFE40:
 1262              		.size	draw_quarter_3, .-draw_quarter_3
 1263 01fa 00BF     		.section	.text.lv_draw_arc,"ax",%progbits
 1264              		.align	2
 1265              		.global	lv_draw_arc
ARM GAS  C:\Users\strap\AppData\Local\Temp\ccQGFe6s.s 			page 34


 1266              		.thumb
 1267              		.thumb_func
 1268              		.type	lv_draw_arc, %function
 1269              	lv_draw_arc:
 1270              	.LFB36:
  73:lvgl\src\lv_draw/lv_draw_arc.c ****     if(dsc->opa <= LV_OPA_MIN) return;
 1271              		.loc 1 73 0
 1272              		.cfi_startproc
 1273              		@ args = 12, pretend = 0, frame = 248
 1274              		@ frame_needed = 0, uses_anonymous_args = 0
 1275              	.LVL113:
 1276 0000 2DE9F04F 		push	{r4, r5, r6, r7, r8, r9, r10, fp, lr}
 1277              		.cfi_def_cfa_offset 36
 1278              		.cfi_offset 4, -36
 1279              		.cfi_offset 5, -32
 1280              		.cfi_offset 6, -28
 1281              		.cfi_offset 7, -24
 1282              		.cfi_offset 8, -20
 1283              		.cfi_offset 9, -16
 1284              		.cfi_offset 10, -12
 1285              		.cfi_offset 11, -8
 1286              		.cfi_offset 14, -4
 1287 0004 C1B0     		sub	sp, sp, #260
 1288              		.cfi_def_cfa_offset 296
 1289 0006 0290     		str	r0, [sp, #8]
 1290 0008 0391     		str	r1, [sp, #12]
 1291 000a 1E46     		mov	r6, r3
 1292 000c BDF82851 		ldrh	r5, [sp, #296]
 1293 0010 4C9C     		ldr	r4, [sp, #304]
  74:lvgl\src\lv_draw/lv_draw_arc.c ****     if(dsc->width == 0) return;
 1294              		.loc 1 74 0
 1295 0012 237A     		ldrb	r3, [r4, #8]	@ zero_extendqisi2
 1296              	.LVL114:
 1297 0014 022B     		cmp	r3, #2
 1298 0016 40F20381 		bls	.L51
 1299 001a 1746     		mov	r7, r2
  75:lvgl\src\lv_draw/lv_draw_arc.c ****     if(start_angle == end_angle) return;
 1300              		.loc 1 75 0
 1301 001c B4F90280 		ldrsh	r8, [r4, #2]
 1302 0020 B8F1000F 		cmp	r8, #0
 1303 0024 00F0FC80 		beq	.L51
  76:lvgl\src\lv_draw/lv_draw_arc.c **** 
 1304              		.loc 1 76 0
 1305 0028 AE42     		cmp	r6, r5
 1306 002a 00F0F980 		beq	.L51
 1307              	.LVL115:
  79:lvgl\src\lv_draw/lv_draw_arc.c **** 
 1308              		.loc 1 79 0
 1309 002e 9045     		cmp	r8, r2
 1310 0030 01DD     		ble	.L53
  79:lvgl\src\lv_draw/lv_draw_arc.c **** 
 1311              		.loc 1 79 0 is_stmt 0 discriminator 1
 1312 0032 0FFA82F8 		sxth	r8, r2
 1313              	.LVL116:
 1314              	.L53:
  82:lvgl\src\lv_draw/lv_draw_arc.c ****     cir_dsc.radius = LV_RADIUS_CIRCLE;
 1315              		.loc 1 82 0 is_stmt 1
ARM GAS  C:\Users\strap\AppData\Local\Temp\ccQGFe6s.s 			page 35


 1316 0036 2BA8     		add	r0, sp, #172
 1317              	.LVL117:
 1318 0038 FFF7FEFF 		bl	lv_draw_rect_dsc_init
 1319              	.LVL118:
  83:lvgl\src\lv_draw/lv_draw_arc.c ****     cir_dsc.bg_opa = LV_OPA_TRANSP;
 1320              		.loc 1 83 0
 1321 003c 47F6FF73 		movw	r3, #32767
 1322 0040 ADF8AC30 		strh	r3, [sp, #172]	@ movhi
  84:lvgl\src\lv_draw/lv_draw_arc.c ****     cir_dsc.border_opa = dsc->opa;
 1323              		.loc 1 84 0
 1324 0044 0023     		movs	r3, #0
 1325 0046 8DF8B830 		strb	r3, [sp, #184]
  85:lvgl\src\lv_draw/lv_draw_arc.c ****     cir_dsc.border_color = dsc->color;
 1326              		.loc 1 85 0
 1327 004a 237A     		ldrb	r3, [r4, #8]	@ zero_extendqisi2
 1328 004c 8DF8C030 		strb	r3, [sp, #192]
  86:lvgl\src\lv_draw/lv_draw_arc.c ****     cir_dsc.border_width = width;
 1329              		.loc 1 86 0
 1330 0050 2388     		ldrh	r3, [r4]
 1331 0052 ADF8BA30 		strh	r3, [sp, #186]	@ movhi
  87:lvgl\src\lv_draw/lv_draw_arc.c ****     cir_dsc.border_blend_mode = dsc->blend_mode;
 1332              		.loc 1 87 0
 1333 0056 ADF8BC80 		strh	r8, [sp, #188]	@ movhi
  88:lvgl\src\lv_draw/lv_draw_arc.c **** 
 1334              		.loc 1 88 0
 1335 005a 637A     		ldrb	r3, [r4, #9]	@ zero_extendqisi2
 1336 005c C3F30103 		ubfx	r3, r3, #0, #2
 1337 0060 8DF8C130 		strb	r3, [sp, #193]
  91:lvgl\src\lv_draw/lv_draw_arc.c ****     area.y1 = center_y - radius;
 1338              		.loc 1 91 0
 1339 0064 BDF808B0 		ldrh	fp, [sp, #8]
 1340 0068 C7EB0B03 		rsb	r3, r7, fp
 1341 006c ADF8A430 		strh	r3, [sp, #164]	@ movhi
  92:lvgl\src\lv_draw/lv_draw_arc.c ****     area.x2 = center_x + radius - 1;  /*-1 because the center already belongs to the left/bottom pa
 1342              		.loc 1 92 0
 1343 0070 BDF80CA0 		ldrh	r10, [sp, #12]
 1344 0074 C7EB0A03 		rsb	r3, r7, r10
 1345 0078 ADF8A630 		strh	r3, [sp, #166]	@ movhi
  93:lvgl\src\lv_draw/lv_draw_arc.c ****     area.y2 = center_y + radius - 1;
 1346              		.loc 1 93 0
 1347 007c 07EB0B03 		add	r3, r7, fp
 1348 0080 013B     		subs	r3, r3, #1
 1349 0082 ADF8A830 		strh	r3, [sp, #168]	@ movhi
  94:lvgl\src\lv_draw/lv_draw_arc.c **** 
 1350              		.loc 1 94 0
 1351 0086 07EB0A03 		add	r3, r7, r10
 1352 008a 013B     		subs	r3, r3, #1
 1353 008c ADF8AA30 		strh	r3, [sp, #170]	@ movhi
  97:lvgl\src\lv_draw/lv_draw_arc.c ****         lv_draw_rect(&area, clip_area, &cir_dsc);
 1354              		.loc 1 97 0
 1355 0090 06F5B473 		add	r3, r6, #360
 1356 0094 AB42     		cmp	r3, r5
 1357 0096 03D0     		beq	.L54
  97:lvgl\src\lv_draw/lv_draw_arc.c ****         lv_draw_rect(&area, clip_area, &cir_dsc);
 1358              		.loc 1 97 0 is_stmt 0 discriminator 1
 1359 0098 05F5B473 		add	r3, r5, #360
 1360 009c 9E42     		cmp	r6, r3
ARM GAS  C:\Users\strap\AppData\Local\Temp\ccQGFe6s.s 			page 36


 1361 009e 05D1     		bne	.L55
 1362              	.L54:
  98:lvgl\src\lv_draw/lv_draw_arc.c ****         return;
 1363              		.loc 1 98 0 is_stmt 1
 1364 00a0 2BAA     		add	r2, sp, #172
 1365 00a2 4B99     		ldr	r1, [sp, #300]
 1366 00a4 29A8     		add	r0, sp, #164
 1367 00a6 FFF7FEFF 		bl	lv_draw_rect
 1368              	.LVL119:
  99:lvgl\src\lv_draw/lv_draw_arc.c ****     }
 1369              		.loc 1 99 0
 1370 00aa B9E0     		b	.L51
 1371              	.L55:
 102:lvgl\src\lv_draw/lv_draw_arc.c ****     if(end_angle >= 360) end_angle -= 360;
 1372              		.loc 1 102 0
 1373 00ac B6F5B47F 		cmp	r6, #360
 1374 00b0 02D3     		bcc	.L56
 102:lvgl\src\lv_draw/lv_draw_arc.c ****     if(end_angle >= 360) end_angle -= 360;
 1375              		.loc 1 102 0 is_stmt 0 discriminator 1
 1376 00b2 A6F5B476 		sub	r6, r6, #360
 1377 00b6 B6B2     		uxth	r6, r6
 1378              	.LVL120:
 1379              	.L56:
 103:lvgl\src\lv_draw/lv_draw_arc.c **** 
 1380              		.loc 1 103 0 is_stmt 1
 1381 00b8 B5F5B47F 		cmp	r5, #360
 1382 00bc 02D3     		bcc	.L57
 103:lvgl\src\lv_draw/lv_draw_arc.c **** 
 1383              		.loc 1 103 0 is_stmt 0 discriminator 1
 1384 00be A5F5B475 		sub	r5, r5, #360
 1385 00c2 ADB2     		uxth	r5, r5
 1386              	.LVL121:
 1387              	.L57:
 106:lvgl\src\lv_draw/lv_draw_arc.c **** 
 1388              		.loc 1 106 0 is_stmt 1
 1389 00c4 33B2     		sxth	r3, r6
 1390 00c6 0593     		str	r3, [sp, #20]
 1391 00c8 0FFA85F9 		sxth	r9, r5
 1392 00cc CDF80090 		str	r9, [sp]
 1393 00d0 039A     		ldr	r2, [sp, #12]
 1394 00d2 0299     		ldr	r1, [sp, #8]
 1395 00d4 0EA8     		add	r0, sp, #56
 1396 00d6 FFF7FEFF 		bl	lv_draw_mask_angle_init
 1397              	.LVL122:
 108:lvgl\src\lv_draw/lv_draw_arc.c **** 
 1398              		.loc 1 108 0
 1399 00da 0021     		movs	r1, #0
 1400 00dc 0EA8     		add	r0, sp, #56
 1401 00de FFF7FEFF 		bl	lv_draw_mask_add
 1402              	.LVL123:
 1403 00e2 0490     		str	r0, [sp, #16]
 1404              	.LVL124:
 111:lvgl\src\lv_draw/lv_draw_arc.c ****         angle_gap = 360 - (end_angle - start_angle);
 1405              		.loc 1 111 0
 1406 00e4 AE42     		cmp	r6, r5
 1407 00e6 03D2     		bcs	.L58
 112:lvgl\src\lv_draw/lv_draw_arc.c ****     }
ARM GAS  C:\Users\strap\AppData\Local\Temp\ccQGFe6s.s 			page 37


 1408              		.loc 1 112 0
 1409 00e8 AB1B     		subs	r3, r5, r6
 1410 00ea C3F5B473 		rsb	r3, r3, #360
 1411              	.LVL125:
 1412 00ee 00E0     		b	.L59
 1413              	.LVL126:
 1414              	.L58:
 115:lvgl\src\lv_draw/lv_draw_arc.c ****     }
 1415              		.loc 1 115 0
 1416 00f0 731B     		subs	r3, r6, r5
 1417              	.LVL127:
 1418              	.L59:
 117:lvgl\src\lv_draw/lv_draw_arc.c ****         /*Handle each quarter individually and skip which is empty*/
 1419              		.loc 1 117 0
 1420 00f2 3C2B     		cmp	r3, #60
 1421 00f4 33DD     		ble	.L60
 117:lvgl\src\lv_draw/lv_draw_arc.c ****         /*Handle each quarter individually and skip which is empty*/
 1422              		.loc 1 117 0 is_stmt 0 discriminator 1
 1423 00f6 0A2F     		cmp	r7, #10
 1424 00f8 31D9     		bls	.L60
 1425              	.LBB18:
 120:lvgl\src\lv_draw/lv_draw_arc.c ****         q_dsc.center_y = center_y;
 1426              		.loc 1 120 0 is_stmt 1
 1427 00fa BDF80830 		ldrh	r3, [sp, #8]
 1428              	.LVL128:
 1429 00fe ADF81C30 		strh	r3, [sp, #28]	@ movhi
 121:lvgl\src\lv_draw/lv_draw_arc.c ****         q_dsc.radius = radius;
 1430              		.loc 1 121 0
 1431 0102 BDF80C30 		ldrh	r3, [sp, #12]
 1432 0106 ADF81E30 		strh	r3, [sp, #30]	@ movhi
 122:lvgl\src\lv_draw/lv_draw_arc.c ****         q_dsc.start_angle = start_angle;
 1433              		.loc 1 122 0
 1434 010a ADF82070 		strh	r7, [sp, #32]	@ movhi
 123:lvgl\src\lv_draw/lv_draw_arc.c ****         q_dsc.end_angle = end_angle;
 1435              		.loc 1 123 0
 1436 010e ADF82260 		strh	r6, [sp, #34]	@ movhi
 124:lvgl\src\lv_draw/lv_draw_arc.c ****         q_dsc.start_quarter = (start_angle / 90) & 0x3;
 1437              		.loc 1 124 0
 1438 0112 ADF82450 		strh	r5, [sp, #36]	@ movhi
 125:lvgl\src\lv_draw/lv_draw_arc.c ****         q_dsc.end_quarter = (end_angle / 90) & 0x3;
 1439              		.loc 1 125 0
 1440 0116 7208     		lsrs	r2, r6, #1
 1441 0118 434B     		ldr	r3, .L67
 1442 011a A3FB0212 		umull	r1, r2, r3, r2
 1443 011e C2F34112 		ubfx	r2, r2, #5, #2
 1444 0122 ADF82620 		strh	r2, [sp, #38]	@ movhi
 126:lvgl\src\lv_draw/lv_draw_arc.c ****         q_dsc.width = width;
 1445              		.loc 1 126 0
 1446 0126 6D08     		lsrs	r5, r5, #1
 1447              	.LVL129:
 1448 0128 A3FB0523 		umull	r2, r3, r3, r5
 1449 012c C3F34113 		ubfx	r3, r3, #5, #2
 1450 0130 ADF82830 		strh	r3, [sp, #40]	@ movhi
 127:lvgl\src\lv_draw/lv_draw_arc.c ****         q_dsc.draw_dsc =  &cir_dsc;
 1451              		.loc 1 127 0
 1452 0134 ADF82A80 		strh	r8, [sp, #42]	@ movhi
 128:lvgl\src\lv_draw/lv_draw_arc.c ****         q_dsc.draw_area = &area;
ARM GAS  C:\Users\strap\AppData\Local\Temp\ccQGFe6s.s 			page 38


 1453              		.loc 1 128 0
 1454 0138 2BAB     		add	r3, sp, #172
 1455 013a 0B93     		str	r3, [sp, #44]
 129:lvgl\src\lv_draw/lv_draw_arc.c ****         q_dsc.clip_area = clip_area;
 1456              		.loc 1 129 0
 1457 013c 29AB     		add	r3, sp, #164
 1458 013e 0C93     		str	r3, [sp, #48]
 130:lvgl\src\lv_draw/lv_draw_arc.c **** 
 1459              		.loc 1 130 0
 1460 0140 4B9B     		ldr	r3, [sp, #300]
 1461 0142 0D93     		str	r3, [sp, #52]
 132:lvgl\src\lv_draw/lv_draw_arc.c ****         draw_quarter_1(&q_dsc);
 1462              		.loc 1 132 0
 1463 0144 07A8     		add	r0, sp, #28
 1464 0146 FFF7FEFF 		bl	draw_quarter_0
 1465              	.LVL130:
 133:lvgl\src\lv_draw/lv_draw_arc.c ****         draw_quarter_2(&q_dsc);
 1466              		.loc 1 133 0
 1467 014a 07A8     		add	r0, sp, #28
 1468 014c FFF7FEFF 		bl	draw_quarter_1
 1469              	.LVL131:
 134:lvgl\src\lv_draw/lv_draw_arc.c ****         draw_quarter_3(&q_dsc);
 1470              		.loc 1 134 0
 1471 0150 07A8     		add	r0, sp, #28
 1472 0152 FFF7FEFF 		bl	draw_quarter_2
 1473              	.LVL132:
 135:lvgl\src\lv_draw/lv_draw_arc.c ****     }
 1474              		.loc 1 135 0
 1475 0156 07A8     		add	r0, sp, #28
 1476 0158 FFF7FEFF 		bl	draw_quarter_3
 1477              	.LVL133:
 1478              	.LBE18:
 117:lvgl\src\lv_draw/lv_draw_arc.c ****         /*Handle each quarter individually and skip which is empty*/
 1479              		.loc 1 117 0
 1480 015c 04E0     		b	.L61
 1481              	.LVL134:
 1482              	.L60:
 138:lvgl\src\lv_draw/lv_draw_arc.c ****     }
 1483              		.loc 1 138 0
 1484 015e 2BAA     		add	r2, sp, #172
 1485 0160 4B99     		ldr	r1, [sp, #300]
 1486 0162 29A8     		add	r0, sp, #164
 1487 0164 FFF7FEFF 		bl	lv_draw_rect
 1488              	.LVL135:
 1489              	.L61:
 140:lvgl\src\lv_draw/lv_draw_arc.c **** 
 1490              		.loc 1 140 0
 1491 0168 0498     		ldr	r0, [sp, #16]
 1492 016a FFF7FEFF 		bl	lv_draw_mask_remove_id
 1493              	.LVL136:
 142:lvgl\src\lv_draw/lv_draw_arc.c ****         cir_dsc.bg_color        = dsc->color;
 1494              		.loc 1 142 0
 1495 016e 637A     		ldrb	r3, [r4, #9]	@ zero_extendqisi2
 1496 0170 13F00C0F 		tst	r3, #12
 1497 0174 54D0     		beq	.L51
 1498              	.LBB19:
 143:lvgl\src\lv_draw/lv_draw_arc.c ****         cir_dsc.bg_opa        = dsc->opa;
ARM GAS  C:\Users\strap\AppData\Local\Temp\ccQGFe6s.s 			page 39


 1499              		.loc 1 143 0
 1500 0176 2388     		ldrh	r3, [r4]
 1501 0178 ADF8AE30 		strh	r3, [sp, #174]	@ movhi
 144:lvgl\src\lv_draw/lv_draw_arc.c ****         cir_dsc.bg_blend_mode = dsc->blend_mode;
 1502              		.loc 1 144 0
 1503 017c 237A     		ldrb	r3, [r4, #8]	@ zero_extendqisi2
 1504 017e 8DF8B830 		strb	r3, [sp, #184]
 145:lvgl\src\lv_draw/lv_draw_arc.c ****         cir_dsc.border_width = 0;
 1505              		.loc 1 145 0
 1506 0182 637A     		ldrb	r3, [r4, #9]	@ zero_extendqisi2
 1507 0184 C3F30102 		ubfx	r2, r3, #0, #2
 1508 0188 8DF8B920 		strb	r2, [sp, #185]
 146:lvgl\src\lv_draw/lv_draw_arc.c **** 
 1509              		.loc 1 146 0
 1510 018c 0022     		movs	r2, #0
 1511 018e ADF8BC20 		strh	r2, [sp, #188]	@ movhi
 149:lvgl\src\lv_draw/lv_draw_arc.c ****             get_rounded_area(start_angle, radius, width, &round_area);
 1512              		.loc 1 149 0
 1513 0192 13F0040F 		tst	r3, #4
 1514 0196 1FD0     		beq	.L63
 150:lvgl\src\lv_draw/lv_draw_arc.c ****             round_area.x1 += center_x;
 1515              		.loc 1 150 0
 1516 0198 07AB     		add	r3, sp, #28
 1517 019a 5FFA88F2 		uxtb	r2, r8
 1518 019e 39B2     		sxth	r1, r7
 1519 01a0 0598     		ldr	r0, [sp, #20]
 1520 01a2 FFF7FEFF 		bl	get_rounded_area
 1521              	.LVL137:
 151:lvgl\src\lv_draw/lv_draw_arc.c ****             round_area.x2 += center_x;
 1522              		.loc 1 151 0
 1523 01a6 BDF81C30 		ldrh	r3, [sp, #28]
 1524 01aa 5B44     		add	r3, r3, fp
 1525 01ac ADF81C30 		strh	r3, [sp, #28]	@ movhi
 152:lvgl\src\lv_draw/lv_draw_arc.c ****             round_area.y1 += center_y;
 1526              		.loc 1 152 0
 1527 01b0 BDF82030 		ldrh	r3, [sp, #32]
 1528 01b4 5B44     		add	r3, r3, fp
 1529 01b6 ADF82030 		strh	r3, [sp, #32]	@ movhi
 153:lvgl\src\lv_draw/lv_draw_arc.c ****             round_area.y2 += center_y;
 1530              		.loc 1 153 0
 1531 01ba BDF81E30 		ldrh	r3, [sp, #30]
 1532 01be 5344     		add	r3, r3, r10
 1533 01c0 ADF81E30 		strh	r3, [sp, #30]	@ movhi
 154:lvgl\src\lv_draw/lv_draw_arc.c **** 
 1534              		.loc 1 154 0
 1535 01c4 BDF82230 		ldrh	r3, [sp, #34]
 1536 01c8 5344     		add	r3, r3, r10
 1537 01ca ADF82230 		strh	r3, [sp, #34]	@ movhi
 156:lvgl\src\lv_draw/lv_draw_arc.c ****         }
 1538              		.loc 1 156 0
 1539 01ce 2BAA     		add	r2, sp, #172
 1540 01d0 4B99     		ldr	r1, [sp, #300]
 1541 01d2 07A8     		add	r0, sp, #28
 1542 01d4 FFF7FEFF 		bl	lv_draw_rect
 1543              	.LVL138:
 1544              	.L63:
 159:lvgl\src\lv_draw/lv_draw_arc.c ****             get_rounded_area(end_angle, radius, width, &round_area);
ARM GAS  C:\Users\strap\AppData\Local\Temp\ccQGFe6s.s 			page 40


 1545              		.loc 1 159 0
 1546 01d8 637A     		ldrb	r3, [r4, #9]	@ zero_extendqisi2
 1547 01da 13F0080F 		tst	r3, #8
 1548 01de 1FD0     		beq	.L51
 160:lvgl\src\lv_draw/lv_draw_arc.c ****             round_area.x1 += center_x;
 1549              		.loc 1 160 0
 1550 01e0 07AB     		add	r3, sp, #28
 1551 01e2 5FFA88F2 		uxtb	r2, r8
 1552 01e6 39B2     		sxth	r1, r7
 1553 01e8 4846     		mov	r0, r9
 1554 01ea FFF7FEFF 		bl	get_rounded_area
 1555              	.LVL139:
 161:lvgl\src\lv_draw/lv_draw_arc.c ****             round_area.x2 += center_x;
 1556              		.loc 1 161 0
 1557 01ee BDF81C30 		ldrh	r3, [sp, #28]
 1558 01f2 5B44     		add	r3, r3, fp
 1559 01f4 ADF81C30 		strh	r3, [sp, #28]	@ movhi
 162:lvgl\src\lv_draw/lv_draw_arc.c ****             round_area.y1 += center_y;
 1560              		.loc 1 162 0
 1561 01f8 BDF82030 		ldrh	r3, [sp, #32]
 1562 01fc 9B44     		add	fp, fp, r3
 1563 01fe ADF820B0 		strh	fp, [sp, #32]	@ movhi
 163:lvgl\src\lv_draw/lv_draw_arc.c ****             round_area.y2 += center_y;
 1564              		.loc 1 163 0
 1565 0202 BDF81E30 		ldrh	r3, [sp, #30]
 1566 0206 5344     		add	r3, r3, r10
 1567 0208 ADF81E30 		strh	r3, [sp, #30]	@ movhi
 164:lvgl\src\lv_draw/lv_draw_arc.c **** 
 1568              		.loc 1 164 0
 1569 020c BDF82230 		ldrh	r3, [sp, #34]
 1570 0210 9A44     		add	r10, r10, r3
 1571 0212 ADF822A0 		strh	r10, [sp, #34]	@ movhi
 166:lvgl\src\lv_draw/lv_draw_arc.c ****         }
 1572              		.loc 1 166 0
 1573 0216 2BAA     		add	r2, sp, #172
 1574 0218 4B99     		ldr	r1, [sp, #300]
 1575 021a 07A8     		add	r0, sp, #28
 1576 021c FFF7FEFF 		bl	lv_draw_rect
 1577              	.LVL140:
 1578              	.L51:
 1579              	.LBE19:
 169:lvgl\src\lv_draw/lv_draw_arc.c **** 
 1580              		.loc 1 169 0
 1581 0220 41B0     		add	sp, sp, #260
 1582              		.cfi_def_cfa_offset 36
 1583              		@ sp needed
 1584 0222 BDE8F08F 		pop	{r4, r5, r6, r7, r8, r9, r10, fp, pc}
 1585              	.LVL141:
 1586              	.L68:
 1587 0226 00BF     		.align	2
 1588              	.L67:
 1589 0228 B7600BB6 		.word	-1240768329
 1590              		.cfi_endproc
 1591              	.LFE36:
 1592              		.size	lv_draw_arc, .-lv_draw_arc
 1593              		.text
 1594              	.Letext0:
ARM GAS  C:\Users\strap\AppData\Local\Temp\ccQGFe6s.s 			page 41


 1595              		.file 2 "c:\\program files (x86)\\cypress\\psoc creator\\4.4\\psoc creator\\import\\gnu\\arm\\5.4.
 1596              		.file 3 "c:\\program files (x86)\\cypress\\psoc creator\\4.4\\psoc creator\\import\\gnu\\arm\\5.4.
 1597              		.file 4 "lvgl\\src\\lv_draw\\../lv_core/../lv_font/../../../lv_conf.h"
 1598              		.file 5 "lvgl\\src\\lv_draw\\../lv_core/../lv_font/../lv_misc/lv_area.h"
 1599              		.file 6 "lvgl\\src\\lv_draw\\../lv_core/../lv_font/lv_font.h"
 1600              		.file 7 "lvgl\\src\\lv_draw\\../lv_core/../lv_misc/lv_color.h"
 1601              		.file 8 "lvgl\\src\\lv_draw\\../lv_core/../lv_draw/lv_draw_mask.h"
 1602              		.file 9 "lvgl\\src\\lv_draw\\../lv_core/../lv_draw/lv_draw_blend.h"
 1603              		.file 10 "lvgl\\src\\lv_draw\\../lv_core/lv_style.h"
 1604              		.file 11 "lvgl\\src\\lv_draw\\lv_draw_line.h"
 1605              		.file 12 "lvgl\\src\\lv_draw\\lv_draw_rect.h"
 1606              		.file 13 "lvgl\\src\\lv_draw\\../lv_core/../lv_misc/lv_math.h"
 1607              		.section	.debug_info,"",%progbits
 1608              	.Ldebug_info0:
 1609 0000 4D130000 		.4byte	0x134d
 1610 0004 0400     		.2byte	0x4
 1611 0006 00000000 		.4byte	.Ldebug_abbrev0
 1612 000a 04       		.byte	0x4
 1613 000b 01       		.uleb128 0x1
 1614 000c 55020000 		.4byte	.LASF178
 1615 0010 0C       		.byte	0xc
 1616 0011 AD060000 		.4byte	.LASF179
 1617 0015 20090000 		.4byte	.LASF180
 1618 0019 00000000 		.4byte	.Ldebug_ranges0+0
 1619 001d 00000000 		.4byte	0
 1620 0021 00000000 		.4byte	.Ldebug_line0
 1621 0025 02       		.uleb128 0x2
 1622 0026 E7050000 		.4byte	.LASF0
 1623 002a 02       		.byte	0x2
 1624 002b 1B       		.byte	0x1b
 1625 002c 30000000 		.4byte	0x30
 1626 0030 03       		.uleb128 0x3
 1627 0031 01       		.byte	0x1
 1628 0032 06       		.byte	0x6
 1629 0033 C4080000 		.4byte	.LASF2
 1630 0037 02       		.uleb128 0x2
 1631 0038 33070000 		.4byte	.LASF1
 1632 003c 02       		.byte	0x2
 1633 003d 1D       		.byte	0x1d
 1634 003e 42000000 		.4byte	0x42
 1635 0042 03       		.uleb128 0x3
 1636 0043 01       		.byte	0x1
 1637 0044 08       		.byte	0x8
 1638 0045 E4070000 		.4byte	.LASF3
 1639 0049 02       		.uleb128 0x2
 1640 004a 38050000 		.4byte	.LASF4
 1641 004e 02       		.byte	0x2
 1642 004f 29       		.byte	0x29
 1643 0050 54000000 		.4byte	0x54
 1644 0054 03       		.uleb128 0x3
 1645 0055 02       		.byte	0x2
 1646 0056 05       		.byte	0x5
 1647 0057 62060000 		.4byte	.LASF5
 1648 005b 02       		.uleb128 0x2
 1649 005c 39020000 		.4byte	.LASF6
 1650 0060 02       		.byte	0x2
 1651 0061 2B       		.byte	0x2b
ARM GAS  C:\Users\strap\AppData\Local\Temp\ccQGFe6s.s 			page 42


 1652 0062 66000000 		.4byte	0x66
 1653 0066 03       		.uleb128 0x3
 1654 0067 02       		.byte	0x2
 1655 0068 07       		.byte	0x7
 1656 0069 D0080000 		.4byte	.LASF7
 1657 006d 02       		.uleb128 0x2
 1658 006e BD000000 		.4byte	.LASF8
 1659 0072 02       		.byte	0x2
 1660 0073 3F       		.byte	0x3f
 1661 0074 78000000 		.4byte	0x78
 1662 0078 03       		.uleb128 0x3
 1663 0079 04       		.byte	0x4
 1664 007a 05       		.byte	0x5
 1665 007b 7B060000 		.4byte	.LASF9
 1666 007f 02       		.uleb128 0x2
 1667 0080 F2070000 		.4byte	.LASF10
 1668 0084 02       		.byte	0x2
 1669 0085 41       		.byte	0x41
 1670 0086 8A000000 		.4byte	0x8a
 1671 008a 03       		.uleb128 0x3
 1672 008b 04       		.byte	0x4
 1673 008c 07       		.byte	0x7
 1674 008d 87070000 		.4byte	.LASF11
 1675 0091 03       		.uleb128 0x3
 1676 0092 08       		.byte	0x8
 1677 0093 05       		.byte	0x5
 1678 0094 9A040000 		.4byte	.LASF12
 1679 0098 03       		.uleb128 0x3
 1680 0099 08       		.byte	0x8
 1681 009a 07       		.byte	0x7
 1682 009b 07020000 		.4byte	.LASF13
 1683 009f 04       		.uleb128 0x4
 1684 00a0 04       		.byte	0x4
 1685 00a1 05       		.byte	0x5
 1686 00a2 696E7400 		.ascii	"int\000"
 1687 00a6 03       		.uleb128 0x3
 1688 00a7 04       		.byte	0x4
 1689 00a8 07       		.byte	0x7
 1690 00a9 7A000000 		.4byte	.LASF14
 1691 00ad 02       		.uleb128 0x2
 1692 00ae C5010000 		.4byte	.LASF15
 1693 00b2 03       		.byte	0x3
 1694 00b3 14       		.byte	0x14
 1695 00b4 25000000 		.4byte	0x25
 1696 00b8 02       		.uleb128 0x2
 1697 00b9 20040000 		.4byte	.LASF16
 1698 00bd 03       		.byte	0x3
 1699 00be 18       		.byte	0x18
 1700 00bf 37000000 		.4byte	0x37
 1701 00c3 02       		.uleb128 0x2
 1702 00c4 FF010000 		.4byte	.LASF17
 1703 00c8 03       		.byte	0x3
 1704 00c9 20       		.byte	0x20
 1705 00ca 49000000 		.4byte	0x49
 1706 00ce 02       		.uleb128 0x2
 1707 00cf 0F060000 		.4byte	.LASF18
 1708 00d3 03       		.byte	0x3
ARM GAS  C:\Users\strap\AppData\Local\Temp\ccQGFe6s.s 			page 43


 1709 00d4 24       		.byte	0x24
 1710 00d5 5B000000 		.4byte	0x5b
 1711 00d9 02       		.uleb128 0x2
 1712 00da 9F070000 		.4byte	.LASF19
 1713 00de 03       		.byte	0x3
 1714 00df 2C       		.byte	0x2c
 1715 00e0 6D000000 		.4byte	0x6d
 1716 00e4 02       		.uleb128 0x2
 1717 00e5 BC010000 		.4byte	.LASF20
 1718 00e9 03       		.byte	0x3
 1719 00ea 30       		.byte	0x30
 1720 00eb 7F000000 		.4byte	0x7f
 1721 00ef 02       		.uleb128 0x2
 1722 00f0 08070000 		.4byte	.LASF21
 1723 00f4 04       		.byte	0x4
 1724 00f5 46       		.byte	0x46
 1725 00f6 C3000000 		.4byte	0xc3
 1726 00fa 05       		.uleb128 0x5
 1727 00fb 04       		.byte	0x4
 1728 00fc 06       		.uleb128 0x6
 1729 00fd 7C040000 		.4byte	.LASF22
 1730 0101 04       		.byte	0x4
 1731 0102 A901     		.2byte	0x1a9
 1732 0104 FA000000 		.4byte	0xfa
 1733 0108 03       		.uleb128 0x3
 1734 0109 08       		.byte	0x8
 1735 010a 04       		.byte	0x4
 1736 010b FA050000 		.4byte	.LASF23
 1737 010f 03       		.uleb128 0x3
 1738 0110 04       		.byte	0x4
 1739 0111 07       		.byte	0x7
 1740 0112 7E070000 		.4byte	.LASF24
 1741 0116 03       		.uleb128 0x3
 1742 0117 01       		.byte	0x1
 1743 0118 08       		.byte	0x8
 1744 0119 B1030000 		.4byte	.LASF25
 1745 011d 07       		.uleb128 0x7
 1746 011e 04       		.byte	0x4
 1747 011f 23010000 		.4byte	0x123
 1748 0123 08       		.uleb128 0x8
 1749 0124 16010000 		.4byte	0x116
 1750 0128 09       		.uleb128 0x9
 1751 0129 04       		.byte	0x4
 1752 012a 05       		.byte	0x5
 1753 012b 27       		.byte	0x27
 1754 012c 45010000 		.4byte	0x145
 1755 0130 0A       		.uleb128 0xa
 1756 0131 7800     		.ascii	"x\000"
 1757 0133 05       		.byte	0x5
 1758 0134 28       		.byte	0x28
 1759 0135 EF000000 		.4byte	0xef
 1760 0139 00       		.byte	0
 1761 013a 0A       		.uleb128 0xa
 1762 013b 7900     		.ascii	"y\000"
 1763 013d 05       		.byte	0x5
 1764 013e 29       		.byte	0x29
 1765 013f EF000000 		.4byte	0xef
ARM GAS  C:\Users\strap\AppData\Local\Temp\ccQGFe6s.s 			page 44


 1766 0143 02       		.byte	0x2
 1767 0144 00       		.byte	0
 1768 0145 02       		.uleb128 0x2
 1769 0146 A6000000 		.4byte	.LASF26
 1770 014a 05       		.byte	0x5
 1771 014b 2A       		.byte	0x2a
 1772 014c 28010000 		.4byte	0x128
 1773 0150 09       		.uleb128 0x9
 1774 0151 08       		.byte	0x8
 1775 0152 05       		.byte	0x5
 1776 0153 2D       		.byte	0x2d
 1777 0154 85010000 		.4byte	0x185
 1778 0158 0A       		.uleb128 0xa
 1779 0159 783100   		.ascii	"x1\000"
 1780 015c 05       		.byte	0x5
 1781 015d 2E       		.byte	0x2e
 1782 015e EF000000 		.4byte	0xef
 1783 0162 00       		.byte	0
 1784 0163 0A       		.uleb128 0xa
 1785 0164 793100   		.ascii	"y1\000"
 1786 0167 05       		.byte	0x5
 1787 0168 2F       		.byte	0x2f
 1788 0169 EF000000 		.4byte	0xef
 1789 016d 02       		.byte	0x2
 1790 016e 0A       		.uleb128 0xa
 1791 016f 783200   		.ascii	"x2\000"
 1792 0172 05       		.byte	0x5
 1793 0173 30       		.byte	0x30
 1794 0174 EF000000 		.4byte	0xef
 1795 0178 04       		.byte	0x4
 1796 0179 0A       		.uleb128 0xa
 1797 017a 793200   		.ascii	"y2\000"
 1798 017d 05       		.byte	0x5
 1799 017e 31       		.byte	0x31
 1800 017f EF000000 		.4byte	0xef
 1801 0183 06       		.byte	0x6
 1802 0184 00       		.byte	0
 1803 0185 02       		.uleb128 0x2
 1804 0186 BA080000 		.4byte	.LASF27
 1805 018a 05       		.byte	0x5
 1806 018b 32       		.byte	0x32
 1807 018c 50010000 		.4byte	0x150
 1808 0190 02       		.uleb128 0x2
 1809 0191 EC040000 		.4byte	.LASF28
 1810 0195 05       		.byte	0x5
 1811 0196 4E       		.byte	0x4e
 1812 0197 B8000000 		.4byte	0xb8
 1813 019b 09       		.uleb128 0x9
 1814 019c 0C       		.byte	0xc
 1815 019d 06       		.byte	0x6
 1816 019e 2A       		.byte	0x2a
 1817 019f EC010000 		.4byte	0x1ec
 1818 01a3 0B       		.uleb128 0xb
 1819 01a4 7E090000 		.4byte	.LASF29
 1820 01a8 06       		.byte	0x6
 1821 01a9 2B       		.byte	0x2b
 1822 01aa CE000000 		.4byte	0xce
ARM GAS  C:\Users\strap\AppData\Local\Temp\ccQGFe6s.s 			page 45


 1823 01ae 00       		.byte	0
 1824 01af 0B       		.uleb128 0xb
 1825 01b0 99070000 		.4byte	.LASF30
 1826 01b4 06       		.byte	0x6
 1827 01b5 2C       		.byte	0x2c
 1828 01b6 CE000000 		.4byte	0xce
 1829 01ba 02       		.byte	0x2
 1830 01bb 0B       		.uleb128 0xb
 1831 01bc 78070000 		.4byte	.LASF31
 1832 01c0 06       		.byte	0x6
 1833 01c1 2D       		.byte	0x2d
 1834 01c2 CE000000 		.4byte	0xce
 1835 01c6 04       		.byte	0x4
 1836 01c7 0B       		.uleb128 0xb
 1837 01c8 87000000 		.4byte	.LASF32
 1838 01cc 06       		.byte	0x6
 1839 01cd 2E       		.byte	0x2e
 1840 01ce C3000000 		.4byte	0xc3
 1841 01d2 06       		.byte	0x6
 1842 01d3 0B       		.uleb128 0xb
 1843 01d4 8D000000 		.4byte	.LASF33
 1844 01d8 06       		.byte	0x6
 1845 01d9 2F       		.byte	0x2f
 1846 01da C3000000 		.4byte	0xc3
 1847 01de 08       		.byte	0x8
 1848 01df 0A       		.uleb128 0xa
 1849 01e0 62707000 		.ascii	"bpp\000"
 1850 01e4 06       		.byte	0x6
 1851 01e5 30       		.byte	0x30
 1852 01e6 B8000000 		.4byte	0xb8
 1853 01ea 0A       		.byte	0xa
 1854 01eb 00       		.byte	0
 1855 01ec 02       		.uleb128 0x2
 1856 01ed FB030000 		.4byte	.LASF34
 1857 01f1 06       		.byte	0x6
 1858 01f2 31       		.byte	0x31
 1859 01f3 9B010000 		.4byte	0x19b
 1860 01f7 0C       		.uleb128 0xc
 1861 01f8 53030000 		.4byte	.LASF181
 1862 01fc 18       		.byte	0x18
 1863 01fd 06       		.byte	0x6
 1864 01fe 3F       		.byte	0x3f
 1865 01ff 73020000 		.4byte	0x273
 1866 0203 0B       		.uleb128 0xb
 1867 0204 98000000 		.4byte	.LASF35
 1868 0208 06       		.byte	0x6
 1869 0209 41       		.byte	0x41
 1870 020a A9020000 		.4byte	0x2a9
 1871 020e 00       		.byte	0
 1872 020f 0B       		.uleb128 0xb
 1873 0210 10080000 		.4byte	.LASF36
 1874 0214 06       		.byte	0x6
 1875 0215 44       		.byte	0x44
 1876 0216 CE020000 		.4byte	0x2ce
 1877 021a 04       		.byte	0x4
 1878 021b 0B       		.uleb128 0xb
 1879 021c 8A030000 		.4byte	.LASF37
ARM GAS  C:\Users\strap\AppData\Local\Temp\ccQGFe6s.s 			page 46


 1880 0220 06       		.byte	0x6
 1881 0221 47       		.byte	0x47
 1882 0222 EF000000 		.4byte	0xef
 1883 0226 08       		.byte	0x8
 1884 0227 0B       		.uleb128 0xb
 1885 0228 A7070000 		.4byte	.LASF38
 1886 022c 06       		.byte	0x6
 1887 022d 48       		.byte	0x48
 1888 022e EF000000 		.4byte	0xef
 1889 0232 0A       		.byte	0xa
 1890 0233 0D       		.uleb128 0xd
 1891 0234 D6050000 		.4byte	.LASF57
 1892 0238 06       		.byte	0x6
 1893 0239 49       		.byte	0x49
 1894 023a B8000000 		.4byte	0xb8
 1895 023e 01       		.byte	0x1
 1896 023f 02       		.byte	0x2
 1897 0240 06       		.byte	0x6
 1898 0241 0C       		.byte	0xc
 1899 0242 0B       		.uleb128 0xb
 1900 0243 E1010000 		.4byte	.LASF39
 1901 0247 06       		.byte	0x6
 1902 0248 4B       		.byte	0x4b
 1903 0249 AD000000 		.4byte	0xad
 1904 024d 0D       		.byte	0xd
 1905 024e 0B       		.uleb128 0xb
 1906 024f 9A010000 		.4byte	.LASF40
 1907 0253 06       		.byte	0x6
 1908 0254 4C       		.byte	0x4c
 1909 0255 AD000000 		.4byte	0xad
 1910 0259 0E       		.byte	0xe
 1911 025a 0A       		.uleb128 0xa
 1912 025b 64736300 		.ascii	"dsc\000"
 1913 025f 06       		.byte	0x6
 1914 0260 4E       		.byte	0x4e
 1915 0261 FA000000 		.4byte	0xfa
 1916 0265 10       		.byte	0x10
 1917 0266 0B       		.uleb128 0xb
 1918 0267 61040000 		.4byte	.LASF41
 1919 026b 06       		.byte	0x6
 1920 026c 50       		.byte	0x50
 1921 026d FC000000 		.4byte	0xfc
 1922 0271 14       		.byte	0x14
 1923 0272 00       		.byte	0
 1924 0273 0E       		.uleb128 0xe
 1925 0274 91020000 		.4byte	0x291
 1926 0278 91020000 		.4byte	0x291
 1927 027c 0F       		.uleb128 0xf
 1928 027d 98020000 		.4byte	0x298
 1929 0281 0F       		.uleb128 0xf
 1930 0282 A3020000 		.4byte	0x2a3
 1931 0286 0F       		.uleb128 0xf
 1932 0287 E4000000 		.4byte	0xe4
 1933 028b 0F       		.uleb128 0xf
 1934 028c E4000000 		.4byte	0xe4
 1935 0290 00       		.byte	0
 1936 0291 03       		.uleb128 0x3
ARM GAS  C:\Users\strap\AppData\Local\Temp\ccQGFe6s.s 			page 47


 1937 0292 01       		.byte	0x1
 1938 0293 02       		.byte	0x2
 1939 0294 4D030000 		.4byte	.LASF42
 1940 0298 07       		.uleb128 0x7
 1941 0299 04       		.byte	0x4
 1942 029a 9E020000 		.4byte	0x29e
 1943 029e 08       		.uleb128 0x8
 1944 029f F7010000 		.4byte	0x1f7
 1945 02a3 07       		.uleb128 0x7
 1946 02a4 04       		.byte	0x4
 1947 02a5 EC010000 		.4byte	0x1ec
 1948 02a9 07       		.uleb128 0x7
 1949 02aa 04       		.byte	0x4
 1950 02ab 73020000 		.4byte	0x273
 1951 02af 0E       		.uleb128 0xe
 1952 02b0 C3020000 		.4byte	0x2c3
 1953 02b4 C3020000 		.4byte	0x2c3
 1954 02b8 0F       		.uleb128 0xf
 1955 02b9 98020000 		.4byte	0x298
 1956 02bd 0F       		.uleb128 0xf
 1957 02be E4000000 		.4byte	0xe4
 1958 02c2 00       		.byte	0
 1959 02c3 07       		.uleb128 0x7
 1960 02c4 04       		.byte	0x4
 1961 02c5 C9020000 		.4byte	0x2c9
 1962 02c9 08       		.uleb128 0x8
 1963 02ca B8000000 		.4byte	0xb8
 1964 02ce 07       		.uleb128 0x7
 1965 02cf 04       		.byte	0x4
 1966 02d0 AF020000 		.4byte	0x2af
 1967 02d4 02       		.uleb128 0x2
 1968 02d5 58060000 		.4byte	.LASF43
 1969 02d9 06       		.byte	0x6
 1970 02da 54       		.byte	0x54
 1971 02db F7010000 		.4byte	0x1f7
 1972 02df 10       		.uleb128 0x10
 1973 02e0 01       		.byte	0x1
 1974 02e1 42000000 		.4byte	0x42
 1975 02e5 07       		.byte	0x7
 1976 02e6 3B       		.byte	0x3b
 1977 02e7 3A030000 		.4byte	0x33a
 1978 02eb 11       		.uleb128 0x11
 1979 02ec 1E020000 		.4byte	.LASF44
 1980 02f0 00       		.byte	0
 1981 02f1 11       		.uleb128 0x11
 1982 02f2 65000000 		.4byte	.LASF45
 1983 02f6 00       		.byte	0
 1984 02f7 11       		.uleb128 0x11
 1985 02f8 90040000 		.4byte	.LASF46
 1986 02fc 19       		.byte	0x19
 1987 02fd 11       		.uleb128 0x11
 1988 02fe 7D050000 		.4byte	.LASF47
 1989 0302 33       		.byte	0x33
 1990 0303 11       		.uleb128 0x11
 1991 0304 F0050000 		.4byte	.LASF48
 1992 0308 4C       		.byte	0x4c
 1993 0309 11       		.uleb128 0x11
ARM GAS  C:\Users\strap\AppData\Local\Temp\ccQGFe6s.s 			page 48


 1994 030a 84060000 		.4byte	.LASF49
 1995 030e 66       		.byte	0x66
 1996 030f 11       		.uleb128 0x11
 1997 0310 4B070000 		.4byte	.LASF50
 1998 0314 7F       		.byte	0x7f
 1999 0315 11       		.uleb128 0x11
 2000 0316 C2070000 		.4byte	.LASF51
 2001 031a 99       		.byte	0x99
 2002 031b 11       		.uleb128 0x11
 2003 031c 85080000 		.4byte	.LASF52
 2004 0320 B2       		.byte	0xb2
 2005 0321 11       		.uleb128 0x11
 2006 0322 04090000 		.4byte	.LASF53
 2007 0326 CC       		.byte	0xcc
 2008 0327 11       		.uleb128 0x11
 2009 0328 43000000 		.4byte	.LASF54
 2010 032c E5       		.byte	0xe5
 2011 032d 11       		.uleb128 0x11
 2012 032e 1C070000 		.4byte	.LASF55
 2013 0332 FF       		.byte	0xff
 2014 0333 11       		.uleb128 0x11
 2015 0334 13000000 		.4byte	.LASF56
 2016 0338 FF       		.byte	0xff
 2017 0339 00       		.byte	0
 2018 033a 09       		.uleb128 0x9
 2019 033b 02       		.byte	0x2
 2020 033c 07       		.byte	0x7
 2021 033d EA       		.byte	0xea
 2022 033e 7F030000 		.4byte	0x37f
 2023 0342 0D       		.uleb128 0xd
 2024 0343 60090000 		.4byte	.LASF58
 2025 0347 07       		.byte	0x7
 2026 0348 F0       		.byte	0xf0
 2027 0349 CE000000 		.4byte	0xce
 2028 034d 02       		.byte	0x2
 2029 034e 03       		.byte	0x3
 2030 034f 0D       		.byte	0xd
 2031 0350 00       		.byte	0
 2032 0351 12       		.uleb128 0x12
 2033 0352 72656400 		.ascii	"red\000"
 2034 0356 07       		.byte	0x7
 2035 0357 F1       		.byte	0xf1
 2036 0358 CE000000 		.4byte	0xce
 2037 035c 02       		.byte	0x2
 2038 035d 05       		.byte	0x5
 2039 035e 08       		.byte	0x8
 2040 035f 00       		.byte	0
 2041 0360 0D       		.uleb128 0xd
 2042 0361 CC060000 		.4byte	.LASF59
 2043 0365 07       		.byte	0x7
 2044 0366 F2       		.byte	0xf2
 2045 0367 CE000000 		.4byte	0xce
 2046 036b 02       		.byte	0x2
 2047 036c 05       		.byte	0x5
 2048 036d 03       		.byte	0x3
 2049 036e 00       		.byte	0
 2050 036f 0D       		.uleb128 0xd
ARM GAS  C:\Users\strap\AppData\Local\Temp\ccQGFe6s.s 			page 49


 2051 0370 68090000 		.4byte	.LASF60
 2052 0374 07       		.byte	0x7
 2053 0375 F3       		.byte	0xf3
 2054 0376 CE000000 		.4byte	0xce
 2055 037a 02       		.byte	0x2
 2056 037b 03       		.byte	0x3
 2057 037c 00       		.byte	0
 2058 037d 00       		.byte	0
 2059 037e 00       		.byte	0
 2060 037f 13       		.uleb128 0x13
 2061 0380 02       		.byte	0x2
 2062 0381 07       		.byte	0x7
 2063 0382 E9       		.byte	0xe9
 2064 0383 9D030000 		.4byte	0x39d
 2065 0387 14       		.uleb128 0x14
 2066 0388 636800   		.ascii	"ch\000"
 2067 038b 07       		.byte	0x7
 2068 038c F5       		.byte	0xf5
 2069 038d 3A030000 		.4byte	0x33a
 2070 0391 15       		.uleb128 0x15
 2071 0392 33000000 		.4byte	.LASF61
 2072 0396 07       		.byte	0x7
 2073 0397 F6       		.byte	0xf6
 2074 0398 CE000000 		.4byte	0xce
 2075 039c 00       		.byte	0
 2076 039d 02       		.uleb128 0x2
 2077 039e 18060000 		.4byte	.LASF62
 2078 03a2 07       		.byte	0x7
 2079 03a3 F7       		.byte	0xf7
 2080 03a4 7F030000 		.4byte	0x37f
 2081 03a8 06       		.uleb128 0x6
 2082 03a9 DC050000 		.4byte	.LASF63
 2083 03ad 07       		.byte	0x7
 2084 03ae 0D01     		.2byte	0x10d
 2085 03b0 9D030000 		.4byte	0x39d
 2086 03b4 06       		.uleb128 0x6
 2087 03b5 6C060000 		.4byte	.LASF64
 2088 03b9 07       		.byte	0x7
 2089 03ba 2001     		.2byte	0x120
 2090 03bc B8000000 		.4byte	0xb8
 2091 03c0 02       		.uleb128 0x2
 2092 03c1 E3020000 		.4byte	.LASF65
 2093 03c5 08       		.byte	0x8
 2094 03c6 25       		.byte	0x25
 2095 03c7 B8000000 		.4byte	0xb8
 2096 03cb 02       		.uleb128 0x2
 2097 03cc 55070000 		.4byte	.LASF66
 2098 03d0 08       		.byte	0x8
 2099 03d1 30       		.byte	0x30
 2100 03d2 B8000000 		.4byte	0xb8
 2101 03d6 02       		.uleb128 0x2
 2102 03d7 FF020000 		.4byte	.LASF67
 2103 03db 08       		.byte	0x8
 2104 03dc 3D       		.byte	0x3d
 2105 03dd E1030000 		.4byte	0x3e1
 2106 03e1 07       		.uleb128 0x7
 2107 03e2 04       		.byte	0x4
ARM GAS  C:\Users\strap\AppData\Local\Temp\ccQGFe6s.s 			page 50


 2108 03e3 E7030000 		.4byte	0x3e7
 2109 03e7 0E       		.uleb128 0xe
 2110 03e8 C0030000 		.4byte	0x3c0
 2111 03ec 0A040000 		.4byte	0x40a
 2112 03f0 0F       		.uleb128 0xf
 2113 03f1 0A040000 		.4byte	0x40a
 2114 03f5 0F       		.uleb128 0xf
 2115 03f6 EF000000 		.4byte	0xef
 2116 03fa 0F       		.uleb128 0xf
 2117 03fb EF000000 		.4byte	0xef
 2118 03ff 0F       		.uleb128 0xf
 2119 0400 EF000000 		.4byte	0xef
 2120 0404 0F       		.uleb128 0xf
 2121 0405 FA000000 		.4byte	0xfa
 2122 0409 00       		.byte	0
 2123 040a 07       		.uleb128 0x7
 2124 040b 04       		.byte	0x4
 2125 040c B4030000 		.4byte	0x3b4
 2126 0410 02       		.uleb128 0x2
 2127 0411 4A080000 		.4byte	.LASF68
 2128 0415 08       		.byte	0x8
 2129 0416 41       		.byte	0x41
 2130 0417 B8000000 		.4byte	0xb8
 2131 041b 09       		.uleb128 0x9
 2132 041c 08       		.byte	0x8
 2133 041d 08       		.byte	0x8
 2134 041e 43       		.byte	0x43
 2135 041f 3B040000 		.4byte	0x43b
 2136 0423 0A       		.uleb128 0xa
 2137 0424 636200   		.ascii	"cb\000"
 2138 0427 08       		.byte	0x8
 2139 0428 44       		.byte	0x44
 2140 0429 D6030000 		.4byte	0x3d6
 2141 042d 00       		.byte	0
 2142 042e 0B       		.uleb128 0xb
 2143 042f DF070000 		.4byte	.LASF69
 2144 0433 08       		.byte	0x8
 2145 0434 45       		.byte	0x45
 2146 0435 CB030000 		.4byte	0x3cb
 2147 0439 04       		.byte	0x4
 2148 043a 00       		.byte	0
 2149 043b 02       		.uleb128 0x2
 2150 043c 26010000 		.4byte	.LASF70
 2151 0440 08       		.byte	0x8
 2152 0441 46       		.byte	0x46
 2153 0442 1B040000 		.4byte	0x41b
 2154 0446 09       		.uleb128 0x9
 2155 0447 0A       		.byte	0xa
 2156 0448 08       		.byte	0x8
 2157 0449 4C       		.byte	0x4c
 2158 044a 74040000 		.4byte	0x474
 2159 044e 0A       		.uleb128 0xa
 2160 044f 703100   		.ascii	"p1\000"
 2161 0452 08       		.byte	0x8
 2162 0453 4E       		.byte	0x4e
 2163 0454 45010000 		.4byte	0x145
 2164 0458 00       		.byte	0
ARM GAS  C:\Users\strap\AppData\Local\Temp\ccQGFe6s.s 			page 51


 2165 0459 0A       		.uleb128 0xa
 2166 045a 703200   		.ascii	"p2\000"
 2167 045d 08       		.byte	0x8
 2168 045e 51       		.byte	0x51
 2169 045f 45010000 		.4byte	0x145
 2170 0463 04       		.byte	0x4
 2171 0464 0D       		.uleb128 0xd
 2172 0465 D3000000 		.4byte	.LASF71
 2173 0469 08       		.byte	0x8
 2174 046a 54       		.byte	0x54
 2175 046b 10040000 		.4byte	0x410
 2176 046f 01       		.byte	0x1
 2177 0470 02       		.byte	0x2
 2178 0471 06       		.byte	0x6
 2179 0472 08       		.byte	0x8
 2180 0473 00       		.byte	0
 2181 0474 09       		.uleb128 0x9
 2182 0475 2C       		.byte	0x2c
 2183 0476 08       		.byte	0x8
 2184 0477 48       		.byte	0x48
 2185 0478 EF040000 		.4byte	0x4ef
 2186 047c 0A       		.uleb128 0xa
 2187 047d 64736300 		.ascii	"dsc\000"
 2188 0481 08       		.byte	0x8
 2189 0482 4A       		.byte	0x4a
 2190 0483 3B040000 		.4byte	0x43b
 2191 0487 00       		.byte	0
 2192 0488 0A       		.uleb128 0xa
 2193 0489 63666700 		.ascii	"cfg\000"
 2194 048d 08       		.byte	0x8
 2195 048e 55       		.byte	0x55
 2196 048f 46040000 		.4byte	0x446
 2197 0493 08       		.byte	0x8
 2198 0494 0B       		.uleb128 0xb
 2199 0495 6A050000 		.4byte	.LASF72
 2200 0499 08       		.byte	0x8
 2201 049a 58       		.byte	0x58
 2202 049b 45010000 		.4byte	0x145
 2203 049f 12       		.byte	0x12
 2204 04a0 0B       		.uleb128 0xb
 2205 04a1 4F060000 		.4byte	.LASF73
 2206 04a5 08       		.byte	0x8
 2207 04a6 5B       		.byte	0x5b
 2208 04a7 D9000000 		.4byte	0xd9
 2209 04ab 18       		.byte	0x18
 2210 04ac 0B       		.uleb128 0xb
 2211 04ad 28040000 		.4byte	.LASF74
 2212 04b1 08       		.byte	0x8
 2213 04b2 5E       		.byte	0x5e
 2214 04b3 D9000000 		.4byte	0xd9
 2215 04b7 1C       		.byte	0x1c
 2216 04b8 0B       		.uleb128 0xb
 2217 04b9 6B040000 		.4byte	.LASF75
 2218 04bd 08       		.byte	0x8
 2219 04be 61       		.byte	0x61
 2220 04bf D9000000 		.4byte	0xd9
 2221 04c3 20       		.byte	0x20
ARM GAS  C:\Users\strap\AppData\Local\Temp\ccQGFe6s.s 			page 52


 2222 04c4 0A       		.uleb128 0xa
 2223 04c5 73707800 		.ascii	"spx\000"
 2224 04c9 08       		.byte	0x8
 2225 04ca 64       		.byte	0x64
 2226 04cb D9000000 		.4byte	0xd9
 2227 04cf 24       		.byte	0x24
 2228 04d0 0D       		.uleb128 0xd
 2229 04d1 DD060000 		.4byte	.LASF76
 2230 04d5 08       		.byte	0x8
 2231 04d6 67       		.byte	0x67
 2232 04d7 B8000000 		.4byte	0xb8
 2233 04db 01       		.byte	0x1
 2234 04dc 01       		.byte	0x1
 2235 04dd 07       		.byte	0x7
 2236 04de 28       		.byte	0x28
 2237 04df 12       		.uleb128 0x12
 2238 04e0 696E7600 		.ascii	"inv\000"
 2239 04e4 08       		.byte	0x8
 2240 04e5 6C       		.byte	0x6c
 2241 04e6 B8000000 		.4byte	0xb8
 2242 04ea 01       		.byte	0x1
 2243 04eb 01       		.byte	0x1
 2244 04ec 06       		.byte	0x6
 2245 04ed 28       		.byte	0x28
 2246 04ee 00       		.byte	0
 2247 04ef 02       		.uleb128 0x2
 2248 04f0 42050000 		.4byte	.LASF77
 2249 04f4 08       		.byte	0x8
 2250 04f5 6D       		.byte	0x6d
 2251 04f6 74040000 		.4byte	0x474
 2252 04fa 09       		.uleb128 0x9
 2253 04fb 08       		.byte	0x8
 2254 04fc 08       		.byte	0x8
 2255 04fd 73       		.byte	0x73
 2256 04fe 27050000 		.4byte	0x527
 2257 0502 0B       		.uleb128 0xb
 2258 0503 81030000 		.4byte	.LASF78
 2259 0507 08       		.byte	0x8
 2260 0508 74       		.byte	0x74
 2261 0509 45010000 		.4byte	0x145
 2262 050d 00       		.byte	0
 2263 050e 0B       		.uleb128 0xb
 2264 050f A1060000 		.4byte	.LASF79
 2265 0513 08       		.byte	0x8
 2266 0514 75       		.byte	0x75
 2267 0515 EF000000 		.4byte	0xef
 2268 0519 04       		.byte	0x4
 2269 051a 0B       		.uleb128 0xb
 2270 051b 7B080000 		.4byte	.LASF80
 2271 051f 08       		.byte	0x8
 2272 0520 76       		.byte	0x76
 2273 0521 EF000000 		.4byte	0xef
 2274 0525 06       		.byte	0x6
 2275 0526 00       		.byte	0
 2276 0527 09       		.uleb128 0x9
 2277 0528 6C       		.byte	0x6c
 2278 0529 08       		.byte	0x8
ARM GAS  C:\Users\strap\AppData\Local\Temp\ccQGFe6s.s 			page 53


 2279 052a 6F       		.byte	0x6f
 2280 052b 6C050000 		.4byte	0x56c
 2281 052f 0A       		.uleb128 0xa
 2282 0530 64736300 		.ascii	"dsc\000"
 2283 0534 08       		.byte	0x8
 2284 0535 71       		.byte	0x71
 2285 0536 3B040000 		.4byte	0x43b
 2286 053a 00       		.byte	0
 2287 053b 0A       		.uleb128 0xa
 2288 053c 63666700 		.ascii	"cfg\000"
 2289 0540 08       		.byte	0x8
 2290 0541 77       		.byte	0x77
 2291 0542 FA040000 		.4byte	0x4fa
 2292 0546 08       		.byte	0x8
 2293 0547 0B       		.uleb128 0xb
 2294 0548 38000000 		.4byte	.LASF81
 2295 054c 08       		.byte	0x8
 2296 054d 79       		.byte	0x79
 2297 054e EF040000 		.4byte	0x4ef
 2298 0552 10       		.byte	0x10
 2299 0553 0B       		.uleb128 0xb
 2300 0554 1D010000 		.4byte	.LASF82
 2301 0558 08       		.byte	0x8
 2302 0559 7A       		.byte	0x7a
 2303 055a EF040000 		.4byte	0x4ef
 2304 055e 3C       		.byte	0x3c
 2305 055f 0B       		.uleb128 0xb
 2306 0560 CC010000 		.4byte	.LASF83
 2307 0564 08       		.byte	0x8
 2308 0565 7B       		.byte	0x7b
 2309 0566 CE000000 		.4byte	0xce
 2310 056a 68       		.byte	0x68
 2311 056b 00       		.byte	0
 2312 056c 02       		.uleb128 0x2
 2313 056d B6030000 		.4byte	.LASF84
 2314 0571 08       		.byte	0x8
 2315 0572 7C       		.byte	0x7c
 2316 0573 27050000 		.4byte	0x527
 2317 0577 02       		.uleb128 0x2
 2318 0578 63030000 		.4byte	.LASF85
 2319 057c 09       		.byte	0x9
 2320 057d 23       		.byte	0x23
 2321 057e B8000000 		.4byte	0xb8
 2322 0582 02       		.uleb128 0x2
 2323 0583 5C050000 		.4byte	.LASF86
 2324 0587 0A       		.byte	0xa
 2325 0588 48       		.byte	0x48
 2326 0589 B8000000 		.4byte	0xb8
 2327 058d 02       		.uleb128 0x2
 2328 058e 25060000 		.4byte	.LASF87
 2329 0592 0A       		.byte	0xa
 2330 0593 DA       		.byte	0xda
 2331 0594 C3000000 		.4byte	0xc3
 2332 0598 09       		.uleb128 0x9
 2333 0599 0A       		.byte	0xa
 2334 059a 0B       		.byte	0xb
 2335 059b 19       		.byte	0x19
ARM GAS  C:\Users\strap\AppData\Local\Temp\ccQGFe6s.s 			page 54


 2336 059c 19060000 		.4byte	0x619
 2337 05a0 0B       		.uleb128 0xb
 2338 05a1 4F020000 		.4byte	.LASF88
 2339 05a5 0B       		.byte	0xb
 2340 05a6 1A       		.byte	0x1a
 2341 05a7 A8030000 		.4byte	0x3a8
 2342 05ab 00       		.byte	0
 2343 05ac 0B       		.uleb128 0xb
 2344 05ad 33030000 		.4byte	.LASF89
 2345 05b1 0B       		.byte	0xb
 2346 05b2 1B       		.byte	0x1b
 2347 05b3 8D050000 		.4byte	0x58d
 2348 05b7 02       		.byte	0x2
 2349 05b8 0B       		.uleb128 0xb
 2350 05b9 71040000 		.4byte	.LASF90
 2351 05bd 0B       		.byte	0xb
 2352 05be 1C       		.byte	0x1c
 2353 05bf 8D050000 		.4byte	0x58d
 2354 05c3 04       		.byte	0x4
 2355 05c4 0B       		.uleb128 0xb
 2356 05c5 F6020000 		.4byte	.LASF91
 2357 05c9 0B       		.byte	0xb
 2358 05ca 1D       		.byte	0x1d
 2359 05cb 8D050000 		.4byte	0x58d
 2360 05cf 06       		.byte	0x6
 2361 05d0 0A       		.uleb128 0xa
 2362 05d1 6F706100 		.ascii	"opa\000"
 2363 05d5 0B       		.byte	0xb
 2364 05d6 1E       		.byte	0x1e
 2365 05d7 B4030000 		.4byte	0x3b4
 2366 05db 08       		.byte	0x8
 2367 05dc 0D       		.uleb128 0xd
 2368 05dd DA040000 		.4byte	.LASF92
 2369 05e1 0B       		.byte	0xb
 2370 05e2 1F       		.byte	0x1f
 2371 05e3 77050000 		.4byte	0x577
 2372 05e7 01       		.byte	0x1
 2373 05e8 02       		.byte	0x2
 2374 05e9 06       		.byte	0x6
 2375 05ea 09       		.byte	0x9
 2376 05eb 0D       		.uleb128 0xd
 2377 05ec B1000000 		.4byte	.LASF93
 2378 05f0 0B       		.byte	0xb
 2379 05f1 20       		.byte	0x20
 2380 05f2 B8000000 		.4byte	0xb8
 2381 05f6 01       		.byte	0x1
 2382 05f7 01       		.byte	0x1
 2383 05f8 05       		.byte	0x5
 2384 05f9 09       		.byte	0x9
 2385 05fa 0D       		.uleb128 0xd
 2386 05fb 7A010000 		.4byte	.LASF94
 2387 05ff 0B       		.byte	0xb
 2388 0600 21       		.byte	0x21
 2389 0601 B8000000 		.4byte	0xb8
 2390 0605 01       		.byte	0x1
 2391 0606 01       		.byte	0x1
 2392 0607 04       		.byte	0x4
ARM GAS  C:\Users\strap\AppData\Local\Temp\ccQGFe6s.s 			page 55


 2393 0608 09       		.byte	0x9
 2394 0609 0D       		.uleb128 0xd
 2395 060a F3030000 		.4byte	.LASF95
 2396 060e 0B       		.byte	0xb
 2397 060f 22       		.byte	0x22
 2398 0610 B8000000 		.4byte	0xb8
 2399 0614 01       		.byte	0x1
 2400 0615 01       		.byte	0x1
 2401 0616 03       		.byte	0x3
 2402 0617 09       		.byte	0x9
 2403 0618 00       		.byte	0
 2404 0619 02       		.uleb128 0x2
 2405 061a FD070000 		.4byte	.LASF96
 2406 061e 0B       		.byte	0xb
 2407 061f 23       		.byte	0x23
 2408 0620 98050000 		.4byte	0x598
 2409 0624 09       		.uleb128 0x9
 2410 0625 54       		.byte	0x54
 2411 0626 0C       		.byte	0xc
 2412 0627 1A       		.byte	0x1a
 2413 0628 37080000 		.4byte	0x837
 2414 062c 0B       		.uleb128 0xb
 2415 062d BB070000 		.4byte	.LASF97
 2416 0631 0C       		.byte	0xc
 2417 0632 1B       		.byte	0x1b
 2418 0633 8D050000 		.4byte	0x58d
 2419 0637 00       		.byte	0
 2420 0638 0B       		.uleb128 0xb
 2421 0639 39080000 		.4byte	.LASF98
 2422 063d 0C       		.byte	0xc
 2423 063e 1E       		.byte	0x1e
 2424 063f A8030000 		.4byte	0x3a8
 2425 0643 02       		.byte	0x2
 2426 0644 0B       		.uleb128 0xb
 2427 0645 8F080000 		.4byte	.LASF99
 2428 0649 0C       		.byte	0xc
 2429 064a 1F       		.byte	0x1f
 2430 064b A8030000 		.4byte	0x3a8
 2431 064f 04       		.byte	0x4
 2432 0650 0B       		.uleb128 0xb
 2433 0651 AE080000 		.4byte	.LASF100
 2434 0655 0C       		.byte	0xc
 2435 0656 20       		.byte	0x20
 2436 0657 82050000 		.4byte	0x582
 2437 065b 06       		.byte	0x6
 2438 065c 0B       		.uleb128 0xb
 2439 065d F5060000 		.4byte	.LASF101
 2440 0661 0C       		.byte	0xc
 2441 0662 21       		.byte	0x21
 2442 0663 8D050000 		.4byte	0x58d
 2443 0667 08       		.byte	0x8
 2444 0668 0B       		.uleb128 0xb
 2445 0669 CC070000 		.4byte	.LASF102
 2446 066d 0C       		.byte	0xc
 2447 066e 22       		.byte	0x22
 2448 066f 8D050000 		.4byte	0x58d
 2449 0673 0A       		.byte	0xa
ARM GAS  C:\Users\strap\AppData\Local\Temp\ccQGFe6s.s 			page 56


 2450 0674 0B       		.uleb128 0xb
 2451 0675 E5040000 		.4byte	.LASF103
 2452 0679 0C       		.byte	0xc
 2453 067a 23       		.byte	0x23
 2454 067b B4030000 		.4byte	0x3b4
 2455 067f 0C       		.byte	0xc
 2456 0680 0B       		.uleb128 0xb
 2457 0681 3D070000 		.4byte	.LASF104
 2458 0685 0C       		.byte	0xc
 2459 0686 24       		.byte	0x24
 2460 0687 77050000 		.4byte	0x577
 2461 068b 0D       		.byte	0xd
 2462 068c 0B       		.uleb128 0xb
 2463 068d 70050000 		.4byte	.LASF105
 2464 0691 0C       		.byte	0xc
 2465 0692 27       		.byte	0x27
 2466 0693 A8030000 		.4byte	0x3a8
 2467 0697 0E       		.byte	0xe
 2468 0698 0B       		.uleb128 0xb
 2469 0699 2C020000 		.4byte	.LASF106
 2470 069d 0C       		.byte	0xc
 2471 069e 28       		.byte	0x28
 2472 069f 8D050000 		.4byte	0x58d
 2473 06a3 10       		.byte	0x10
 2474 06a4 0B       		.uleb128 0xb
 2475 06a5 6E000000 		.4byte	.LASF107
 2476 06a9 0C       		.byte	0xc
 2477 06aa 29       		.byte	0x29
 2478 06ab 8D050000 		.4byte	0x58d
 2479 06af 12       		.byte	0x12
 2480 06b0 0B       		.uleb128 0xb
 2481 06b1 D6010000 		.4byte	.LASF108
 2482 06b5 0C       		.byte	0xc
 2483 06b6 2A       		.byte	0x2a
 2484 06b7 B4030000 		.4byte	0x3b4
 2485 06bb 14       		.byte	0x14
 2486 06bc 0B       		.uleb128 0xb
 2487 06bd 0E090000 		.4byte	.LASF109
 2488 06c1 0C       		.byte	0xc
 2489 06c2 2B       		.byte	0x2b
 2490 06c3 77050000 		.4byte	0x577
 2491 06c7 15       		.byte	0x15
 2492 06c8 0D       		.uleb128 0xd
 2493 06c9 D1060000 		.4byte	.LASF110
 2494 06cd 0C       		.byte	0xc
 2495 06ce 2C       		.byte	0x2c
 2496 06cf B8000000 		.4byte	0xb8
 2497 06d3 01       		.byte	0x1
 2498 06d4 01       		.byte	0x1
 2499 06d5 07       		.byte	0x7
 2500 06d6 16       		.byte	0x16
 2501 06d7 0B       		.uleb128 0xb
 2502 06d8 73030000 		.4byte	.LASF111
 2503 06dc 0C       		.byte	0xc
 2504 06dd 2F       		.byte	0x2f
 2505 06de A8030000 		.4byte	0x3a8
 2506 06e2 18       		.byte	0x18
ARM GAS  C:\Users\strap\AppData\Local\Temp\ccQGFe6s.s 			page 57


 2507 06e3 0B       		.uleb128 0xb
 2508 06e4 31040000 		.4byte	.LASF112
 2509 06e8 0C       		.byte	0xc
 2510 06e9 30       		.byte	0x30
 2511 06ea 8D050000 		.4byte	0x58d
 2512 06ee 1A       		.byte	0x1a
 2513 06ef 0B       		.uleb128 0xb
 2514 06f0 04050000 		.4byte	.LASF113
 2515 06f4 0C       		.byte	0xc
 2516 06f5 31       		.byte	0x31
 2517 06f6 8D050000 		.4byte	0x58d
 2518 06fa 1C       		.byte	0x1c
 2519 06fb 0B       		.uleb128 0xb
 2520 06fc C7000000 		.4byte	.LASF114
 2521 0700 0C       		.byte	0xc
 2522 0701 32       		.byte	0x32
 2523 0702 B4030000 		.4byte	0x3b4
 2524 0706 1E       		.byte	0x1e
 2525 0707 0B       		.uleb128 0xb
 2526 0708 4E040000 		.4byte	.LASF115
 2527 070c 0C       		.byte	0xc
 2528 070d 33       		.byte	0x33
 2529 070e 77050000 		.4byte	0x577
 2530 0712 1F       		.byte	0x1f
 2531 0713 0B       		.uleb128 0xb
 2532 0714 6D010000 		.4byte	.LASF116
 2533 0718 0C       		.byte	0xc
 2534 0719 36       		.byte	0x36
 2535 071a A8030000 		.4byte	0x3a8
 2536 071e 20       		.byte	0x20
 2537 071f 0B       		.uleb128 0xb
 2538 0720 6E080000 		.4byte	.LASF117
 2539 0724 0C       		.byte	0xc
 2540 0725 37       		.byte	0x37
 2541 0726 8D050000 		.4byte	0x58d
 2542 072a 22       		.byte	0x22
 2543 072b 0B       		.uleb128 0xb
 2544 072c 1E050000 		.4byte	.LASF118
 2545 0730 0C       		.byte	0xc
 2546 0731 38       		.byte	0x38
 2547 0732 8D050000 		.4byte	0x58d
 2548 0736 24       		.byte	0x24
 2549 0737 0B       		.uleb128 0xb
 2550 0738 2B050000 		.4byte	.LASF119
 2551 073c 0C       		.byte	0xc
 2552 073d 39       		.byte	0x39
 2553 073e 8D050000 		.4byte	0x58d
 2554 0742 26       		.byte	0x26
 2555 0743 0B       		.uleb128 0xb
 2556 0744 10050000 		.4byte	.LASF120
 2557 0748 0C       		.byte	0xc
 2558 0749 3A       		.byte	0x3a
 2559 074a 8D050000 		.4byte	0x58d
 2560 074e 28       		.byte	0x28
 2561 074f 0B       		.uleb128 0xb
 2562 0750 1E030000 		.4byte	.LASF121
 2563 0754 0C       		.byte	0xc
ARM GAS  C:\Users\strap\AppData\Local\Temp\ccQGFe6s.s 			page 58


 2564 0755 3B       		.byte	0x3b
 2565 0756 B4030000 		.4byte	0x3b4
 2566 075a 2A       		.byte	0x2a
 2567 075b 0B       		.uleb128 0xb
 2568 075c D8000000 		.4byte	.LASF122
 2569 0760 0C       		.byte	0xc
 2570 0761 3C       		.byte	0x3c
 2571 0762 77050000 		.4byte	0x577
 2572 0766 2B       		.byte	0x2b
 2573 0767 0B       		.uleb128 0xb
 2574 0768 70090000 		.4byte	.LASF123
 2575 076c 0C       		.byte	0xc
 2576 076d 3F       		.byte	0x3f
 2577 076e 37080000 		.4byte	0x837
 2578 0772 2C       		.byte	0x2c
 2579 0773 0B       		.uleb128 0xb
 2580 0774 A4030000 		.4byte	.LASF124
 2581 0778 0C       		.byte	0xc
 2582 0779 40       		.byte	0x40
 2583 077a 3E080000 		.4byte	0x83e
 2584 077e 30       		.byte	0x30
 2585 077f 0B       		.uleb128 0xb
 2586 0780 F4080000 		.4byte	.LASF125
 2587 0784 0C       		.byte	0xc
 2588 0785 41       		.byte	0x41
 2589 0786 A8030000 		.4byte	0x3a8
 2590 078a 34       		.byte	0x34
 2591 078b 0B       		.uleb128 0xb
 2592 078c 11010000 		.4byte	.LASF126
 2593 0790 0C       		.byte	0xc
 2594 0791 42       		.byte	0x42
 2595 0792 B4030000 		.4byte	0x3b4
 2596 0796 36       		.byte	0x36
 2597 0797 0B       		.uleb128 0xb
 2598 0798 39030000 		.4byte	.LASF127
 2599 079c 0C       		.byte	0xc
 2600 079d 43       		.byte	0x43
 2601 079e B4030000 		.4byte	0x3b4
 2602 07a2 37       		.byte	0x37
 2603 07a3 0D       		.uleb128 0xd
 2604 07a4 3F040000 		.4byte	.LASF128
 2605 07a8 0C       		.byte	0xc
 2606 07a9 44       		.byte	0x44
 2607 07aa B8000000 		.4byte	0xb8
 2608 07ae 01       		.byte	0x1
 2609 07af 01       		.byte	0x1
 2610 07b0 07       		.byte	0x7
 2611 07b1 38       		.byte	0x38
 2612 07b2 0B       		.uleb128 0xb
 2613 07b3 00000000 		.4byte	.LASF129
 2614 07b7 0C       		.byte	0xc
 2615 07b8 45       		.byte	0x45
 2616 07b9 77050000 		.4byte	0x577
 2617 07bd 39       		.byte	0x39
 2618 07be 0B       		.uleb128 0xb
 2619 07bf 84010000 		.4byte	.LASF130
 2620 07c3 0C       		.byte	0xc
ARM GAS  C:\Users\strap\AppData\Local\Temp\ccQGFe6s.s 			page 59


 2621 07c4 48       		.byte	0x48
 2622 07c5 1D010000 		.4byte	0x11d
 2623 07c9 3C       		.byte	0x3c
 2624 07ca 0B       		.uleb128 0xb
 2625 07cb 63080000 		.4byte	.LASF131
 2626 07cf 0C       		.byte	0xc
 2627 07d0 49       		.byte	0x49
 2628 07d1 3E080000 		.4byte	0x83e
 2629 07d5 40       		.byte	0x40
 2630 07d6 0B       		.uleb128 0xb
 2631 07d7 29030000 		.4byte	.LASF132
 2632 07db 0C       		.byte	0xc
 2633 07dc 4A       		.byte	0x4a
 2634 07dd B4030000 		.4byte	0x3b4
 2635 07e1 44       		.byte	0x44
 2636 07e2 0B       		.uleb128 0xb
 2637 07e3 BB040000 		.4byte	.LASF133
 2638 07e7 0C       		.byte	0xc
 2639 07e8 4B       		.byte	0x4b
 2640 07e9 A8030000 		.4byte	0x3a8
 2641 07ed 46       		.byte	0x46
 2642 07ee 0B       		.uleb128 0xb
 2643 07ef 21080000 		.4byte	.LASF134
 2644 07f3 0C       		.byte	0xc
 2645 07f4 4C       		.byte	0x4c
 2646 07f5 8D050000 		.4byte	0x58d
 2647 07f9 48       		.byte	0x48
 2648 07fa 0B       		.uleb128 0xb
 2649 07fb 2D080000 		.4byte	.LASF135
 2650 07ff 0C       		.byte	0xc
 2651 0800 4D       		.byte	0x4d
 2652 0801 8D050000 		.4byte	0x58d
 2653 0805 4A       		.byte	0x4a
 2654 0806 0B       		.uleb128 0xb
 2655 0807 87050000 		.4byte	.LASF136
 2656 080b 0C       		.byte	0xc
 2657 080c 4E       		.byte	0x4e
 2658 080d 8D050000 		.4byte	0x58d
 2659 0811 4C       		.byte	0x4c
 2660 0812 0B       		.uleb128 0xb
 2661 0813 0F040000 		.4byte	.LASF137
 2662 0817 0C       		.byte	0xc
 2663 0818 4F       		.byte	0x4f
 2664 0819 8D050000 		.4byte	0x58d
 2665 081d 4E       		.byte	0x4e
 2666 081e 0B       		.uleb128 0xb
 2667 081f 27070000 		.4byte	.LASF138
 2668 0823 0C       		.byte	0xc
 2669 0824 50       		.byte	0x50
 2670 0825 90010000 		.4byte	0x190
 2671 0829 50       		.byte	0x50
 2672 082a 0B       		.uleb128 0xb
 2673 082b A8050000 		.4byte	.LASF139
 2674 082f 0C       		.byte	0xc
 2675 0830 51       		.byte	0x51
 2676 0831 77050000 		.4byte	0x577
 2677 0835 51       		.byte	0x51
ARM GAS  C:\Users\strap\AppData\Local\Temp\ccQGFe6s.s 			page 60


 2678 0836 00       		.byte	0
 2679 0837 07       		.uleb128 0x7
 2680 0838 04       		.byte	0x4
 2681 0839 3D080000 		.4byte	0x83d
 2682 083d 16       		.uleb128 0x16
 2683 083e 07       		.uleb128 0x7
 2684 083f 04       		.byte	0x4
 2685 0840 44080000 		.4byte	0x844
 2686 0844 08       		.uleb128 0x8
 2687 0845 D4020000 		.4byte	0x2d4
 2688 0849 02       		.uleb128 0x2
 2689 084a A8040000 		.4byte	.LASF140
 2690 084e 0C       		.byte	0xc
 2691 084f 52       		.byte	0x52
 2692 0850 24060000 		.4byte	0x624
 2693 0854 09       		.uleb128 0x9
 2694 0855 1C       		.byte	0x1c
 2695 0856 01       		.byte	0x1
 2696 0857 17       		.byte	0x17
 2697 0858 E1080000 		.4byte	0x8e1
 2698 085c 0B       		.uleb128 0xb
 2699 085d 13070000 		.4byte	.LASF141
 2700 0861 01       		.byte	0x1
 2701 0862 18       		.byte	0x18
 2702 0863 EF000000 		.4byte	0xef
 2703 0867 00       		.byte	0
 2704 0868 0B       		.uleb128 0xb
 2705 0869 2A000000 		.4byte	.LASF142
 2706 086d 01       		.byte	0x1
 2707 086e 19       		.byte	0x19
 2708 086f EF000000 		.4byte	0xef
 2709 0873 02       		.byte	0x2
 2710 0874 0B       		.uleb128 0xb
 2711 0875 BB070000 		.4byte	.LASF97
 2712 0879 01       		.byte	0x1
 2713 087a 1A       		.byte	0x1a
 2714 087b EF000000 		.4byte	0xef
 2715 087f 04       		.byte	0x4
 2716 0880 0B       		.uleb128 0xb
 2717 0881 A1060000 		.4byte	.LASF79
 2718 0885 01       		.byte	0x1
 2719 0886 1B       		.byte	0x1b
 2720 0887 CE000000 		.4byte	0xce
 2721 088b 06       		.byte	0x6
 2722 088c 0B       		.uleb128 0xb
 2723 088d 7B080000 		.4byte	.LASF80
 2724 0891 01       		.byte	0x1
 2725 0892 1C       		.byte	0x1c
 2726 0893 CE000000 		.4byte	0xce
 2727 0897 08       		.byte	0x8
 2728 0898 0B       		.uleb128 0xb
 2729 0899 96030000 		.4byte	.LASF143
 2730 089d 01       		.byte	0x1
 2731 089e 1D       		.byte	0x1d
 2732 089f CE000000 		.4byte	0xce
 2733 08a3 0A       		.byte	0xa
 2734 08a4 0B       		.uleb128 0xb
ARM GAS  C:\Users\strap\AppData\Local\Temp\ccQGFe6s.s 			page 61


 2735 08a5 8E010000 		.4byte	.LASF144
 2736 08a9 01       		.byte	0x1
 2737 08aa 1E       		.byte	0x1e
 2738 08ab CE000000 		.4byte	0xce
 2739 08af 0C       		.byte	0xc
 2740 08b0 0B       		.uleb128 0xb
 2741 08b1 33030000 		.4byte	.LASF89
 2742 08b5 01       		.byte	0x1
 2743 08b6 1F       		.byte	0x1f
 2744 08b7 EF000000 		.4byte	0xef
 2745 08bb 0E       		.byte	0xe
 2746 08bc 0B       		.uleb128 0xb
 2747 08bd 98060000 		.4byte	.LASF145
 2748 08c1 01       		.byte	0x1
 2749 08c2 20       		.byte	0x20
 2750 08c3 E1080000 		.4byte	0x8e1
 2751 08c7 10       		.byte	0x10
 2752 08c8 0B       		.uleb128 0xb
 2753 08c9 8E060000 		.4byte	.LASF146
 2754 08cd 01       		.byte	0x1
 2755 08ce 21       		.byte	0x21
 2756 08cf E7080000 		.4byte	0x8e7
 2757 08d3 14       		.byte	0x14
 2758 08d4 0B       		.uleb128 0xb
 2759 08d5 B1070000 		.4byte	.LASF147
 2760 08d9 01       		.byte	0x1
 2761 08da 22       		.byte	0x22
 2762 08db E7080000 		.4byte	0x8e7
 2763 08df 18       		.byte	0x18
 2764 08e0 00       		.byte	0
 2765 08e1 07       		.uleb128 0x7
 2766 08e2 04       		.byte	0x4
 2767 08e3 49080000 		.4byte	0x849
 2768 08e7 07       		.uleb128 0x7
 2769 08e8 04       		.byte	0x4
 2770 08e9 ED080000 		.4byte	0x8ed
 2771 08ed 08       		.uleb128 0x8
 2772 08ee 85010000 		.4byte	0x185
 2773 08f2 02       		.uleb128 0x2
 2774 08f3 C7040000 		.4byte	.LASF148
 2775 08f7 01       		.byte	0x1
 2776 08f8 23       		.byte	0x23
 2777 08f9 54080000 		.4byte	0x854
 2778 08fd 17       		.uleb128 0x17
 2779 08fe B9050000 		.4byte	.LASF158
 2780 0902 01       		.byte	0x1
 2781 0903 8501     		.2byte	0x185
 2782 0905 00000000 		.4byte	.LFB41
 2783 0909 9C000000 		.4byte	.LFE41-.LFB41
 2784 090d 01       		.uleb128 0x1
 2785 090e 9C       		.byte	0x9c
 2786 090f F2090000 		.4byte	0x9f2
 2787 0913 18       		.uleb128 0x18
 2788 0914 3C060000 		.4byte	.LASF149
 2789 0918 01       		.byte	0x1
 2790 0919 8501     		.2byte	0x185
 2791 091b C3000000 		.4byte	0xc3
ARM GAS  C:\Users\strap\AppData\Local\Temp\ccQGFe6s.s 			page 62


 2792 091f 00000000 		.4byte	.LLST0
 2793 0923 18       		.uleb128 0x18
 2794 0924 BB070000 		.4byte	.LASF97
 2795 0928 01       		.byte	0x1
 2796 0929 8501     		.2byte	0x185
 2797 092b EF000000 		.4byte	0xef
 2798 092f 21000000 		.4byte	.LLST1
 2799 0933 18       		.uleb128 0x18
 2800 0934 EB080000 		.4byte	.LASF150
 2801 0938 01       		.byte	0x1
 2802 0939 8501     		.2byte	0x185
 2803 093b B8000000 		.4byte	0xb8
 2804 093f 42000000 		.4byte	.LLST2
 2805 0943 18       		.uleb128 0x18
 2806 0944 06060000 		.4byte	.LASF151
 2807 0948 01       		.byte	0x1
 2808 0949 8501     		.2byte	0x185
 2809 094b F2090000 		.4byte	0x9f2
 2810 094f 63000000 		.4byte	.LLST3
 2811 0953 19       		.uleb128 0x19
 2812 0954 707300   		.ascii	"ps\000"
 2813 0957 01       		.byte	0x1
 2814 0958 8701     		.2byte	0x187
 2815 095a C9020000 		.4byte	0x2c9
 2816 095e 08       		.byte	0x8
 2817 095f 19       		.uleb128 0x19
 2818 0960 706100   		.ascii	"pa\000"
 2819 0963 01       		.byte	0x1
 2820 0964 8801     		.2byte	0x188
 2821 0966 C9020000 		.4byte	0x2c9
 2822 096a 7F       		.byte	0x7f
 2823 096b 1A       		.uleb128 0x1a
 2824 096c 44020000 		.4byte	.LASF152
 2825 0970 01       		.byte	0x1
 2826 0971 8A01     		.2byte	0x18a
 2827 0973 D9000000 		.4byte	0xd9
 2828 0977 81000000 		.4byte	.LLST4
 2829 097b 1A       		.uleb128 0x1a
 2830 097c D1030000 		.4byte	.LASF153
 2831 0980 01       		.byte	0x1
 2832 0981 8B01     		.2byte	0x18b
 2833 0983 B8000000 		.4byte	0xb8
 2834 0987 9F000000 		.4byte	.LLST5
 2835 098b 1B       		.uleb128 0x1b
 2836 098c 42080000 		.4byte	.LASF154
 2837 0990 01       		.byte	0x1
 2838 0991 8D01     		.2byte	0x18d
 2839 0993 D9000000 		.4byte	0xd9
 2840 0997 00       		.byte	0
 2841 0998 1B       		.uleb128 0x1b
 2842 0999 E3080000 		.4byte	.LASF155
 2843 099d 01       		.byte	0x1
 2844 099e 8E01     		.2byte	0x18e
 2845 09a0 D9000000 		.4byte	0xd9
 2846 09a4 00       		.byte	0
 2847 09a5 1A       		.uleb128 0x1a
 2848 09a6 CA050000 		.4byte	.LASF156
ARM GAS  C:\Users\strap\AppData\Local\Temp\ccQGFe6s.s 			page 63


 2849 09aa 01       		.byte	0x1
 2850 09ab 9601     		.2byte	0x196
 2851 09ad D9000000 		.4byte	0xd9
 2852 09b1 BD000000 		.4byte	.LLST6
 2853 09b5 1A       		.uleb128 0x1a
 2854 09b6 D0050000 		.4byte	.LASF157
 2855 09ba 01       		.byte	0x1
 2856 09bb 9701     		.2byte	0x197
 2857 09bd D9000000 		.4byte	0xd9
 2858 09c1 F9000000 		.4byte	.LLST7
 2859 09c5 1C       		.uleb128 0x1c
 2860 09c6 20000000 		.4byte	.LVL7
 2861 09ca 02130000 		.4byte	0x1302
 2862 09ce E1090000 		.4byte	0x9e1
 2863 09d2 1D       		.uleb128 0x1d
 2864 09d3 01       		.uleb128 0x1
 2865 09d4 50       		.byte	0x50
 2866 09d5 0A       		.uleb128 0xa
 2867 09d6 08       		.byte	0x8
 2868 09d7 5A       		.byte	0x5a
 2869 09d8 F3       		.byte	0xf3
 2870 09d9 01       		.uleb128 0x1
 2871 09da 50       		.byte	0x50
 2872 09db 0A       		.byte	0xa
 2873 09dc FFFF     		.2byte	0xffff
 2874 09de 1A       		.byte	0x1a
 2875 09df 1C       		.byte	0x1c
 2876 09e0 00       		.byte	0
 2877 09e1 1E       		.uleb128 0x1e
 2878 09e2 2C000000 		.4byte	.LVL9
 2879 09e6 02130000 		.4byte	0x1302
 2880 09ea 1D       		.uleb128 0x1d
 2881 09eb 01       		.uleb128 0x1
 2882 09ec 50       		.byte	0x50
 2883 09ed 02       		.uleb128 0x2
 2884 09ee 79       		.byte	0x79
 2885 09ef 00       		.sleb128 0
 2886 09f0 00       		.byte	0
 2887 09f1 00       		.byte	0
 2888 09f2 07       		.uleb128 0x7
 2889 09f3 04       		.byte	0x4
 2890 09f4 85010000 		.4byte	0x185
 2891 09f8 1F       		.uleb128 0x1f
 2892 09f9 69070000 		.4byte	.LASF159
 2893 09fd 01       		.byte	0x1
 2894 09fe AF       		.byte	0xaf
 2895 09ff 00000000 		.4byte	.LFB37
 2896 0a03 F6010000 		.4byte	.LFE37-.LFB37
 2897 0a07 01       		.uleb128 0x1
 2898 0a08 9C       		.byte	0x9c
 2899 0a09 850B0000 		.4byte	0xb85
 2900 0a0d 20       		.uleb128 0x20
 2901 0a0e 7100     		.ascii	"q\000"
 2902 0a10 01       		.byte	0x1
 2903 0a11 AF       		.byte	0xaf
 2904 0a12 850B0000 		.4byte	0xb85
 2905 0a16 5C010000 		.4byte	.LLST8
ARM GAS  C:\Users\strap\AppData\Local\Temp\ccQGFe6s.s 			page 64


 2906 0a1a 21       		.uleb128 0x21
 2907 0a1b F7040000 		.4byte	.LASF160
 2908 0a1f 01       		.byte	0x1
 2909 0a20 B1       		.byte	0xb1
 2910 0a21 85010000 		.4byte	0x185
 2911 0a25 02       		.uleb128 0x2
 2912 0a26 91       		.byte	0x91
 2913 0a27 68       		.sleb128 -24
 2914 0a28 22       		.uleb128 0x22
 2915 0a29 1A000000 		.4byte	.LBB2
 2916 0a2d 9A000000 		.4byte	.LBE2-.LBB2
 2917 0a31 920A0000 		.4byte	0xa92
 2918 0a35 23       		.uleb128 0x23
 2919 0a36 6F6B00   		.ascii	"ok\000"
 2920 0a39 01       		.byte	0x1
 2921 0a3a BB       		.byte	0xbb
 2922 0a3b 91020000 		.4byte	0x291
 2923 0a3f 7A010000 		.4byte	.LLST9
 2924 0a43 24       		.uleb128 0x24
 2925 0a44 24000000 		.4byte	.LVL27
 2926 0a48 02130000 		.4byte	0x1302
 2927 0a4c 24       		.uleb128 0x24
 2928 0a4d 48000000 		.4byte	.LVL28
 2929 0a51 02130000 		.4byte	0x1302
 2930 0a55 24       		.uleb128 0x24
 2931 0a56 64000000 		.4byte	.LVL29
 2932 0a5a 02130000 		.4byte	0x1302
 2933 0a5e 24       		.uleb128 0x24
 2934 0a5f 82000000 		.4byte	.LVL30
 2935 0a63 02130000 		.4byte	0x1302
 2936 0a67 1C       		.uleb128 0x1c
 2937 0a68 A2000000 		.4byte	.LVL31
 2938 0a6c 0D130000 		.4byte	0x130d
 2939 0a70 810A0000 		.4byte	0xa81
 2940 0a74 1D       		.uleb128 0x1d
 2941 0a75 01       		.uleb128 0x1
 2942 0a76 50       		.byte	0x50
 2943 0a77 02       		.uleb128 0x2
 2944 0a78 91       		.byte	0x91
 2945 0a79 68       		.sleb128 -24
 2946 0a7a 1D       		.uleb128 0x1d
 2947 0a7b 01       		.uleb128 0x1
 2948 0a7c 51       		.byte	0x51
 2949 0a7d 02       		.uleb128 0x2
 2950 0a7e 91       		.byte	0x91
 2951 0a7f 68       		.sleb128 -24
 2952 0a80 00       		.byte	0
 2953 0a81 1E       		.uleb128 0x1e
 2954 0a82 B2000000 		.4byte	.LVL33
 2955 0a86 18130000 		.4byte	0x1318
 2956 0a8a 1D       		.uleb128 0x1d
 2957 0a8b 01       		.uleb128 0x1
 2958 0a8c 51       		.byte	0x51
 2959 0a8d 02       		.uleb128 0x2
 2960 0a8e 7D       		.byte	0x7d
 2961 0a8f 00       		.sleb128 0
 2962 0a90 00       		.byte	0
ARM GAS  C:\Users\strap\AppData\Local\Temp\ccQGFe6s.s 			page 65


 2963 0a91 00       		.byte	0
 2964 0a92 22       		.uleb128 0x22
 2965 0a93 BE000000 		.4byte	.LBB3
 2966 0a97 68000000 		.4byte	.LBE3-.LBB3
 2967 0a9b EA0A0000 		.4byte	0xaea
 2968 0a9f 23       		.uleb128 0x23
 2969 0aa0 6F6B00   		.ascii	"ok\000"
 2970 0aa3 01       		.byte	0x1
 2971 0aa4 C7       		.byte	0xc7
 2972 0aa5 91020000 		.4byte	0x291
 2973 0aa9 8D010000 		.4byte	.LLST10
 2974 0aad 24       		.uleb128 0x24
 2975 0aae DC000000 		.4byte	.LVL34
 2976 0ab2 02130000 		.4byte	0x1302
 2977 0ab6 24       		.uleb128 0x24
 2978 0ab7 00010000 		.4byte	.LVL35
 2979 0abb 02130000 		.4byte	0x1302
 2980 0abf 1C       		.uleb128 0x1c
 2981 0ac0 1A010000 		.4byte	.LVL36
 2982 0ac4 0D130000 		.4byte	0x130d
 2983 0ac8 D90A0000 		.4byte	0xad9
 2984 0acc 1D       		.uleb128 0x1d
 2985 0acd 01       		.uleb128 0x1
 2986 0ace 50       		.byte	0x50
 2987 0acf 02       		.uleb128 0x2
 2988 0ad0 7D       		.byte	0x7d
 2989 0ad1 00       		.sleb128 0
 2990 0ad2 1D       		.uleb128 0x1d
 2991 0ad3 01       		.uleb128 0x1
 2992 0ad4 51       		.byte	0x51
 2993 0ad5 02       		.uleb128 0x2
 2994 0ad6 7D       		.byte	0x7d
 2995 0ad7 00       		.sleb128 0
 2996 0ad8 00       		.byte	0
 2997 0ad9 1E       		.uleb128 0x1e
 2998 0ada 26010000 		.4byte	.LVL38
 2999 0ade 18130000 		.4byte	0x1318
 3000 0ae2 1D       		.uleb128 0x1d
 3001 0ae3 01       		.uleb128 0x1
 3002 0ae4 51       		.byte	0x51
 3003 0ae5 02       		.uleb128 0x2
 3004 0ae6 7D       		.byte	0x7d
 3005 0ae7 00       		.sleb128 0
 3006 0ae8 00       		.byte	0
 3007 0ae9 00       		.byte	0
 3008 0aea 22       		.uleb128 0x22
 3009 0aeb 2C010000 		.4byte	.LBB4
 3010 0aef 6A000000 		.4byte	.LBE4-.LBB4
 3011 0af3 420B0000 		.4byte	0xb42
 3012 0af7 23       		.uleb128 0x23
 3013 0af8 6F6B00   		.ascii	"ok\000"
 3014 0afb 01       		.byte	0x1
 3015 0afc D1       		.byte	0xd1
 3016 0afd 91020000 		.4byte	0x291
 3017 0b01 A0010000 		.4byte	.LLST11
 3018 0b05 24       		.uleb128 0x24
 3019 0b06 4A010000 		.4byte	.LVL39
ARM GAS  C:\Users\strap\AppData\Local\Temp\ccQGFe6s.s 			page 66


 3020 0b0a 02130000 		.4byte	0x1302
 3021 0b0e 24       		.uleb128 0x24
 3022 0b0f 68010000 		.4byte	.LVL40
 3023 0b13 02130000 		.4byte	0x1302
 3024 0b17 1C       		.uleb128 0x1c
 3025 0b18 88010000 		.4byte	.LVL41
 3026 0b1c 0D130000 		.4byte	0x130d
 3027 0b20 310B0000 		.4byte	0xb31
 3028 0b24 1D       		.uleb128 0x1d
 3029 0b25 01       		.uleb128 0x1
 3030 0b26 50       		.byte	0x50
 3031 0b27 02       		.uleb128 0x2
 3032 0b28 91       		.byte	0x91
 3033 0b29 68       		.sleb128 -24
 3034 0b2a 1D       		.uleb128 0x1d
 3035 0b2b 01       		.uleb128 0x1
 3036 0b2c 51       		.byte	0x51
 3037 0b2d 02       		.uleb128 0x2
 3038 0b2e 91       		.byte	0x91
 3039 0b2f 68       		.sleb128 -24
 3040 0b30 00       		.byte	0
 3041 0b31 1E       		.uleb128 0x1e
 3042 0b32 94010000 		.4byte	.LVL43
 3043 0b36 18130000 		.4byte	0x1318
 3044 0b3a 1D       		.uleb128 0x1d
 3045 0b3b 01       		.uleb128 0x1
 3046 0b3c 51       		.byte	0x51
 3047 0b3d 02       		.uleb128 0x2
 3048 0b3e 7D       		.byte	0x7d
 3049 0b3f 00       		.sleb128 0
 3050 0b40 00       		.byte	0
 3051 0b41 00       		.byte	0
 3052 0b42 25       		.uleb128 0x25
 3053 0b43 BC010000 		.4byte	.LBB5
 3054 0b47 36000000 		.4byte	.LBE5-.LBB5
 3055 0b4b 23       		.uleb128 0x23
 3056 0b4c 6F6B00   		.ascii	"ok\000"
 3057 0b4f 01       		.byte	0x1
 3058 0b50 DF       		.byte	0xdf
 3059 0b51 91020000 		.4byte	0x291
 3060 0b55 B3010000 		.4byte	.LLST12
 3061 0b59 1C       		.uleb128 0x1c
 3062 0b5a E6010000 		.4byte	.LVL44
 3063 0b5e 0D130000 		.4byte	0x130d
 3064 0b62 730B0000 		.4byte	0xb73
 3065 0b66 1D       		.uleb128 0x1d
 3066 0b67 01       		.uleb128 0x1
 3067 0b68 50       		.byte	0x50
 3068 0b69 02       		.uleb128 0x2
 3069 0b6a 7D       		.byte	0x7d
 3070 0b6b 00       		.sleb128 0
 3071 0b6c 1D       		.uleb128 0x1d
 3072 0b6d 01       		.uleb128 0x1
 3073 0b6e 51       		.byte	0x51
 3074 0b6f 02       		.uleb128 0x2
 3075 0b70 7D       		.byte	0x7d
 3076 0b71 00       		.sleb128 0
ARM GAS  C:\Users\strap\AppData\Local\Temp\ccQGFe6s.s 			page 67


 3077 0b72 00       		.byte	0
 3078 0b73 1E       		.uleb128 0x1e
 3079 0b74 F2010000 		.4byte	.LVL46
 3080 0b78 18130000 		.4byte	0x1318
 3081 0b7c 1D       		.uleb128 0x1d
 3082 0b7d 01       		.uleb128 0x1
 3083 0b7e 51       		.byte	0x51
 3084 0b7f 02       		.uleb128 0x2
 3085 0b80 7D       		.byte	0x7d
 3086 0b81 00       		.sleb128 0
 3087 0b82 00       		.byte	0
 3088 0b83 00       		.byte	0
 3089 0b84 00       		.byte	0
 3090 0b85 07       		.uleb128 0x7
 3091 0b86 04       		.byte	0x4
 3092 0b87 F2080000 		.4byte	0x8f2
 3093 0b8b 1F       		.uleb128 0x1f
 3094 0b8c 40010000 		.4byte	.LASF161
 3095 0b90 01       		.byte	0x1
 3096 0b91 E4       		.byte	0xe4
 3097 0b92 00000000 		.4byte	.LFB38
 3098 0b96 FC010000 		.4byte	.LFE38-.LFB38
 3099 0b9a 01       		.uleb128 0x1
 3100 0b9b 9C       		.byte	0x9c
 3101 0b9c 1A0D0000 		.4byte	0xd1a
 3102 0ba0 20       		.uleb128 0x20
 3103 0ba1 7100     		.ascii	"q\000"
 3104 0ba3 01       		.byte	0x1
 3105 0ba4 E4       		.byte	0xe4
 3106 0ba5 850B0000 		.4byte	0xb85
 3107 0ba9 C6010000 		.4byte	.LLST13
 3108 0bad 21       		.uleb128 0x21
 3109 0bae F7040000 		.4byte	.LASF160
 3110 0bb2 01       		.byte	0x1
 3111 0bb3 E6       		.byte	0xe6
 3112 0bb4 85010000 		.4byte	0x185
 3113 0bb8 02       		.uleb128 0x2
 3114 0bb9 91       		.byte	0x91
 3115 0bba 68       		.sleb128 -24
 3116 0bbb 22       		.uleb128 0x22
 3117 0bbc 1A000000 		.4byte	.LBB6
 3118 0bc0 9A000000 		.4byte	.LBE6-.LBB6
 3119 0bc4 250C0000 		.4byte	0xc25
 3120 0bc8 23       		.uleb128 0x23
 3121 0bc9 6F6B00   		.ascii	"ok\000"
 3122 0bcc 01       		.byte	0x1
 3123 0bcd F0       		.byte	0xf0
 3124 0bce 91020000 		.4byte	0x291
 3125 0bd2 E4010000 		.4byte	.LLST14
 3126 0bd6 24       		.uleb128 0x24
 3127 0bd7 24000000 		.4byte	.LVL49
 3128 0bdb 02130000 		.4byte	0x1302
 3129 0bdf 24       		.uleb128 0x24
 3130 0be0 42000000 		.4byte	.LVL50
 3131 0be4 02130000 		.4byte	0x1302
 3132 0be8 24       		.uleb128 0x24
 3133 0be9 64000000 		.4byte	.LVL51
ARM GAS  C:\Users\strap\AppData\Local\Temp\ccQGFe6s.s 			page 68


 3134 0bed 02130000 		.4byte	0x1302
 3135 0bf1 24       		.uleb128 0x24
 3136 0bf2 88000000 		.4byte	.LVL52
 3137 0bf6 02130000 		.4byte	0x1302
 3138 0bfa 1C       		.uleb128 0x1c
 3139 0bfb A2000000 		.4byte	.LVL53
 3140 0bff 0D130000 		.4byte	0x130d
 3141 0c03 140C0000 		.4byte	0xc14
 3142 0c07 1D       		.uleb128 0x1d
 3143 0c08 01       		.uleb128 0x1
 3144 0c09 50       		.byte	0x50
 3145 0c0a 02       		.uleb128 0x2
 3146 0c0b 91       		.byte	0x91
 3147 0c0c 68       		.sleb128 -24
 3148 0c0d 1D       		.uleb128 0x1d
 3149 0c0e 01       		.uleb128 0x1
 3150 0c0f 51       		.byte	0x51
 3151 0c10 02       		.uleb128 0x2
 3152 0c11 91       		.byte	0x91
 3153 0c12 68       		.sleb128 -24
 3154 0c13 00       		.byte	0
 3155 0c14 1E       		.uleb128 0x1e
 3156 0c15 B2000000 		.4byte	.LVL55
 3157 0c19 18130000 		.4byte	0x1318
 3158 0c1d 1D       		.uleb128 0x1d
 3159 0c1e 01       		.uleb128 0x1
 3160 0c1f 51       		.byte	0x51
 3161 0c20 02       		.uleb128 0x2
 3162 0c21 7D       		.byte	0x7d
 3163 0c22 00       		.sleb128 0
 3164 0c23 00       		.byte	0
 3165 0c24 00       		.byte	0
 3166 0c25 22       		.uleb128 0x22
 3167 0c26 C2000000 		.4byte	.LBB7
 3168 0c2a 68000000 		.4byte	.LBE7-.LBB7
 3169 0c2e 7D0C0000 		.4byte	0xc7d
 3170 0c32 23       		.uleb128 0x23
 3171 0c33 6F6B00   		.ascii	"ok\000"
 3172 0c36 01       		.byte	0x1
 3173 0c37 FC       		.byte	0xfc
 3174 0c38 91020000 		.4byte	0x291
 3175 0c3c F7010000 		.4byte	.LLST15
 3176 0c40 24       		.uleb128 0x24
 3177 0c41 E0000000 		.4byte	.LVL56
 3178 0c45 02130000 		.4byte	0x1302
 3179 0c49 24       		.uleb128 0x24
 3180 0c4a FE000000 		.4byte	.LVL57
 3181 0c4e 02130000 		.4byte	0x1302
 3182 0c52 1C       		.uleb128 0x1c
 3183 0c53 1E010000 		.4byte	.LVL58
 3184 0c57 0D130000 		.4byte	0x130d
 3185 0c5b 6C0C0000 		.4byte	0xc6c
 3186 0c5f 1D       		.uleb128 0x1d
 3187 0c60 01       		.uleb128 0x1
 3188 0c61 50       		.byte	0x50
 3189 0c62 02       		.uleb128 0x2
 3190 0c63 7D       		.byte	0x7d
ARM GAS  C:\Users\strap\AppData\Local\Temp\ccQGFe6s.s 			page 69


 3191 0c64 00       		.sleb128 0
 3192 0c65 1D       		.uleb128 0x1d
 3193 0c66 01       		.uleb128 0x1
 3194 0c67 51       		.byte	0x51
 3195 0c68 02       		.uleb128 0x2
 3196 0c69 7D       		.byte	0x7d
 3197 0c6a 00       		.sleb128 0
 3198 0c6b 00       		.byte	0
 3199 0c6c 1E       		.uleb128 0x1e
 3200 0c6d 2A010000 		.4byte	.LVL60
 3201 0c71 18130000 		.4byte	0x1318
 3202 0c75 1D       		.uleb128 0x1d
 3203 0c76 01       		.uleb128 0x1
 3204 0c77 51       		.byte	0x51
 3205 0c78 02       		.uleb128 0x2
 3206 0c79 7D       		.byte	0x7d
 3207 0c7a 00       		.sleb128 0
 3208 0c7b 00       		.byte	0
 3209 0c7c 00       		.byte	0
 3210 0c7d 22       		.uleb128 0x22
 3211 0c7e 30010000 		.4byte	.LBB8
 3212 0c82 6C000000 		.4byte	.LBE8-.LBB8
 3213 0c86 D60C0000 		.4byte	0xcd6
 3214 0c8a 26       		.uleb128 0x26
 3215 0c8b 6F6B00   		.ascii	"ok\000"
 3216 0c8e 01       		.byte	0x1
 3217 0c8f 0601     		.2byte	0x106
 3218 0c91 91020000 		.4byte	0x291
 3219 0c95 0A020000 		.4byte	.LLST16
 3220 0c99 24       		.uleb128 0x24
 3221 0c9a 50010000 		.4byte	.LVL61
 3222 0c9e 02130000 		.4byte	0x1302
 3223 0ca2 24       		.uleb128 0x24
 3224 0ca3 74010000 		.4byte	.LVL62
 3225 0ca7 02130000 		.4byte	0x1302
 3226 0cab 1C       		.uleb128 0x1c
 3227 0cac 8E010000 		.4byte	.LVL63
 3228 0cb0 0D130000 		.4byte	0x130d
 3229 0cb4 C50C0000 		.4byte	0xcc5
 3230 0cb8 1D       		.uleb128 0x1d
 3231 0cb9 01       		.uleb128 0x1
 3232 0cba 50       		.byte	0x50
 3233 0cbb 02       		.uleb128 0x2
 3234 0cbc 91       		.byte	0x91
 3235 0cbd 68       		.sleb128 -24
 3236 0cbe 1D       		.uleb128 0x1d
 3237 0cbf 01       		.uleb128 0x1
 3238 0cc0 51       		.byte	0x51
 3239 0cc1 02       		.uleb128 0x2
 3240 0cc2 91       		.byte	0x91
 3241 0cc3 68       		.sleb128 -24
 3242 0cc4 00       		.byte	0
 3243 0cc5 1E       		.uleb128 0x1e
 3244 0cc6 9A010000 		.4byte	.LVL65
 3245 0cca 18130000 		.4byte	0x1318
 3246 0cce 1D       		.uleb128 0x1d
 3247 0ccf 01       		.uleb128 0x1
ARM GAS  C:\Users\strap\AppData\Local\Temp\ccQGFe6s.s 			page 70


 3248 0cd0 51       		.byte	0x51
 3249 0cd1 02       		.uleb128 0x2
 3250 0cd2 7D       		.byte	0x7d
 3251 0cd3 00       		.sleb128 0
 3252 0cd4 00       		.byte	0
 3253 0cd5 00       		.byte	0
 3254 0cd6 25       		.uleb128 0x25
 3255 0cd7 C0010000 		.4byte	.LBB9
 3256 0cdb 38000000 		.4byte	.LBE9-.LBB9
 3257 0cdf 26       		.uleb128 0x26
 3258 0ce0 6F6B00   		.ascii	"ok\000"
 3259 0ce3 01       		.byte	0x1
 3260 0ce4 1401     		.2byte	0x114
 3261 0ce6 91020000 		.4byte	0x291
 3262 0cea 1D020000 		.4byte	.LLST17
 3263 0cee 1C       		.uleb128 0x1c
 3264 0cef EC010000 		.4byte	.LVL66
 3265 0cf3 0D130000 		.4byte	0x130d
 3266 0cf7 080D0000 		.4byte	0xd08
 3267 0cfb 1D       		.uleb128 0x1d
 3268 0cfc 01       		.uleb128 0x1
 3269 0cfd 50       		.byte	0x50
 3270 0cfe 02       		.uleb128 0x2
 3271 0cff 7D       		.byte	0x7d
 3272 0d00 00       		.sleb128 0
 3273 0d01 1D       		.uleb128 0x1d
 3274 0d02 01       		.uleb128 0x1
 3275 0d03 51       		.byte	0x51
 3276 0d04 02       		.uleb128 0x2
 3277 0d05 7D       		.byte	0x7d
 3278 0d06 00       		.sleb128 0
 3279 0d07 00       		.byte	0
 3280 0d08 1E       		.uleb128 0x1e
 3281 0d09 F8010000 		.4byte	.LVL68
 3282 0d0d 18130000 		.4byte	0x1318
 3283 0d11 1D       		.uleb128 0x1d
 3284 0d12 01       		.uleb128 0x1
 3285 0d13 51       		.byte	0x51
 3286 0d14 02       		.uleb128 0x2
 3287 0d15 7D       		.byte	0x7d
 3288 0d16 00       		.sleb128 0
 3289 0d17 00       		.byte	0
 3290 0d18 00       		.byte	0
 3291 0d19 00       		.byte	0
 3292 0d1a 17       		.uleb128 0x17
 3293 0d1b 4F010000 		.4byte	.LASF162
 3294 0d1f 01       		.byte	0x1
 3295 0d20 1901     		.2byte	0x119
 3296 0d22 00000000 		.4byte	.LFB39
 3297 0d26 FE010000 		.4byte	.LFE39-.LFB39
 3298 0d2a 01       		.uleb128 0x1
 3299 0d2b 9C       		.byte	0x9c
 3300 0d2c AE0E0000 		.4byte	0xeae
 3301 0d30 27       		.uleb128 0x27
 3302 0d31 7100     		.ascii	"q\000"
 3303 0d33 01       		.byte	0x1
 3304 0d34 1901     		.2byte	0x119
ARM GAS  C:\Users\strap\AppData\Local\Temp\ccQGFe6s.s 			page 71


 3305 0d36 850B0000 		.4byte	0xb85
 3306 0d3a 30020000 		.4byte	.LLST18
 3307 0d3e 28       		.uleb128 0x28
 3308 0d3f F7040000 		.4byte	.LASF160
 3309 0d43 01       		.byte	0x1
 3310 0d44 1B01     		.2byte	0x11b
 3311 0d46 85010000 		.4byte	0x185
 3312 0d4a 02       		.uleb128 0x2
 3313 0d4b 91       		.byte	0x91
 3314 0d4c 68       		.sleb128 -24
 3315 0d4d 22       		.uleb128 0x22
 3316 0d4e 1A000000 		.4byte	.LBB10
 3317 0d52 9A000000 		.4byte	.LBE10-.LBB10
 3318 0d56 B80D0000 		.4byte	0xdb8
 3319 0d5a 26       		.uleb128 0x26
 3320 0d5b 6F6B00   		.ascii	"ok\000"
 3321 0d5e 01       		.byte	0x1
 3322 0d5f 2501     		.2byte	0x125
 3323 0d61 91020000 		.4byte	0x291
 3324 0d65 4E020000 		.4byte	.LLST19
 3325 0d69 24       		.uleb128 0x24
 3326 0d6a 26000000 		.4byte	.LVL71
 3327 0d6e 02130000 		.4byte	0x1302
 3328 0d72 24       		.uleb128 0x24
 3329 0d73 42000000 		.4byte	.LVL72
 3330 0d77 02130000 		.4byte	0x1302
 3331 0d7b 24       		.uleb128 0x24
 3332 0d7c 64000000 		.4byte	.LVL73
 3333 0d80 02130000 		.4byte	0x1302
 3334 0d84 24       		.uleb128 0x24
 3335 0d85 82000000 		.4byte	.LVL74
 3336 0d89 02130000 		.4byte	0x1302
 3337 0d8d 1C       		.uleb128 0x1c
 3338 0d8e A2000000 		.4byte	.LVL75
 3339 0d92 0D130000 		.4byte	0x130d
 3340 0d96 A70D0000 		.4byte	0xda7
 3341 0d9a 1D       		.uleb128 0x1d
 3342 0d9b 01       		.uleb128 0x1
 3343 0d9c 50       		.byte	0x50
 3344 0d9d 02       		.uleb128 0x2
 3345 0d9e 7D       		.byte	0x7d
 3346 0d9f 00       		.sleb128 0
 3347 0da0 1D       		.uleb128 0x1d
 3348 0da1 01       		.uleb128 0x1
 3349 0da2 51       		.byte	0x51
 3350 0da3 02       		.uleb128 0x2
 3351 0da4 7D       		.byte	0x7d
 3352 0da5 00       		.sleb128 0
 3353 0da6 00       		.byte	0
 3354 0da7 1E       		.uleb128 0x1e
 3355 0da8 B2000000 		.4byte	.LVL77
 3356 0dac 18130000 		.4byte	0x1318
 3357 0db0 1D       		.uleb128 0x1d
 3358 0db1 01       		.uleb128 0x1
 3359 0db2 51       		.byte	0x51
 3360 0db3 02       		.uleb128 0x2
 3361 0db4 7D       		.byte	0x7d
ARM GAS  C:\Users\strap\AppData\Local\Temp\ccQGFe6s.s 			page 72


 3362 0db5 00       		.sleb128 0
 3363 0db6 00       		.byte	0
 3364 0db7 00       		.byte	0
 3365 0db8 22       		.uleb128 0x22
 3366 0db9 C2000000 		.4byte	.LBB11
 3367 0dbd 6A000000 		.4byte	.LBE11-.LBB11
 3368 0dc1 110E0000 		.4byte	0xe11
 3369 0dc5 26       		.uleb128 0x26
 3370 0dc6 6F6B00   		.ascii	"ok\000"
 3371 0dc9 01       		.byte	0x1
 3372 0dca 3101     		.2byte	0x131
 3373 0dcc 91020000 		.4byte	0x291
 3374 0dd0 61020000 		.4byte	.LLST20
 3375 0dd4 24       		.uleb128 0x24
 3376 0dd5 E4000000 		.4byte	.LVL78
 3377 0dd9 02130000 		.4byte	0x1302
 3378 0ddd 24       		.uleb128 0x24
 3379 0dde 00010000 		.4byte	.LVL79
 3380 0de2 02130000 		.4byte	0x1302
 3381 0de6 1C       		.uleb128 0x1c
 3382 0de7 20010000 		.4byte	.LVL80
 3383 0deb 0D130000 		.4byte	0x130d
 3384 0def 000E0000 		.4byte	0xe00
 3385 0df3 1D       		.uleb128 0x1d
 3386 0df4 01       		.uleb128 0x1
 3387 0df5 50       		.byte	0x50
 3388 0df6 02       		.uleb128 0x2
 3389 0df7 7D       		.byte	0x7d
 3390 0df8 00       		.sleb128 0
 3391 0df9 1D       		.uleb128 0x1d
 3392 0dfa 01       		.uleb128 0x1
 3393 0dfb 51       		.byte	0x51
 3394 0dfc 02       		.uleb128 0x2
 3395 0dfd 7D       		.byte	0x7d
 3396 0dfe 00       		.sleb128 0
 3397 0dff 00       		.byte	0
 3398 0e00 1E       		.uleb128 0x1e
 3399 0e01 2C010000 		.4byte	.LVL82
 3400 0e05 18130000 		.4byte	0x1318
 3401 0e09 1D       		.uleb128 0x1d
 3402 0e0a 01       		.uleb128 0x1
 3403 0e0b 51       		.byte	0x51
 3404 0e0c 02       		.uleb128 0x2
 3405 0e0d 7D       		.byte	0x7d
 3406 0e0e 00       		.sleb128 0
 3407 0e0f 00       		.byte	0
 3408 0e10 00       		.byte	0
 3409 0e11 22       		.uleb128 0x22
 3410 0e12 32010000 		.4byte	.LBB12
 3411 0e16 6C000000 		.4byte	.LBE12-.LBB12
 3412 0e1a 6A0E0000 		.4byte	0xe6a
 3413 0e1e 26       		.uleb128 0x26
 3414 0e1f 6F6B00   		.ascii	"ok\000"
 3415 0e22 01       		.byte	0x1
 3416 0e23 3B01     		.2byte	0x13b
 3417 0e25 91020000 		.4byte	0x291
 3418 0e29 74020000 		.4byte	.LLST21
ARM GAS  C:\Users\strap\AppData\Local\Temp\ccQGFe6s.s 			page 73


 3419 0e2d 24       		.uleb128 0x24
 3420 0e2e 54010000 		.4byte	.LVL83
 3421 0e32 02130000 		.4byte	0x1302
 3422 0e36 24       		.uleb128 0x24
 3423 0e37 76010000 		.4byte	.LVL84
 3424 0e3b 02130000 		.4byte	0x1302
 3425 0e3f 1C       		.uleb128 0x1c
 3426 0e40 90010000 		.4byte	.LVL85
 3427 0e44 0D130000 		.4byte	0x130d
 3428 0e48 590E0000 		.4byte	0xe59
 3429 0e4c 1D       		.uleb128 0x1d
 3430 0e4d 01       		.uleb128 0x1
 3431 0e4e 50       		.byte	0x50
 3432 0e4f 02       		.uleb128 0x2
 3433 0e50 7D       		.byte	0x7d
 3434 0e51 00       		.sleb128 0
 3435 0e52 1D       		.uleb128 0x1d
 3436 0e53 01       		.uleb128 0x1
 3437 0e54 51       		.byte	0x51
 3438 0e55 02       		.uleb128 0x2
 3439 0e56 7D       		.byte	0x7d
 3440 0e57 00       		.sleb128 0
 3441 0e58 00       		.byte	0
 3442 0e59 1E       		.uleb128 0x1e
 3443 0e5a 9C010000 		.4byte	.LVL87
 3444 0e5e 18130000 		.4byte	0x1318
 3445 0e62 1D       		.uleb128 0x1d
 3446 0e63 01       		.uleb128 0x1
 3447 0e64 51       		.byte	0x51
 3448 0e65 02       		.uleb128 0x2
 3449 0e66 7D       		.byte	0x7d
 3450 0e67 00       		.sleb128 0
 3451 0e68 00       		.byte	0
 3452 0e69 00       		.byte	0
 3453 0e6a 25       		.uleb128 0x25
 3454 0e6b C2010000 		.4byte	.LBB13
 3455 0e6f 38000000 		.4byte	.LBE13-.LBB13
 3456 0e73 26       		.uleb128 0x26
 3457 0e74 6F6B00   		.ascii	"ok\000"
 3458 0e77 01       		.byte	0x1
 3459 0e78 4901     		.2byte	0x149
 3460 0e7a 91020000 		.4byte	0x291
 3461 0e7e 87020000 		.4byte	.LLST22
 3462 0e82 1C       		.uleb128 0x1c
 3463 0e83 EE010000 		.4byte	.LVL88
 3464 0e87 0D130000 		.4byte	0x130d
 3465 0e8b 9C0E0000 		.4byte	0xe9c
 3466 0e8f 1D       		.uleb128 0x1d
 3467 0e90 01       		.uleb128 0x1
 3468 0e91 50       		.byte	0x50
 3469 0e92 02       		.uleb128 0x2
 3470 0e93 7D       		.byte	0x7d
 3471 0e94 00       		.sleb128 0
 3472 0e95 1D       		.uleb128 0x1d
 3473 0e96 01       		.uleb128 0x1
 3474 0e97 51       		.byte	0x51
 3475 0e98 02       		.uleb128 0x2
ARM GAS  C:\Users\strap\AppData\Local\Temp\ccQGFe6s.s 			page 74


 3476 0e99 7D       		.byte	0x7d
 3477 0e9a 00       		.sleb128 0
 3478 0e9b 00       		.byte	0
 3479 0e9c 1E       		.uleb128 0x1e
 3480 0e9d FA010000 		.4byte	.LVL90
 3481 0ea1 18130000 		.4byte	0x1318
 3482 0ea5 1D       		.uleb128 0x1d
 3483 0ea6 01       		.uleb128 0x1
 3484 0ea7 51       		.byte	0x51
 3485 0ea8 02       		.uleb128 0x2
 3486 0ea9 7D       		.byte	0x7d
 3487 0eaa 00       		.sleb128 0
 3488 0eab 00       		.byte	0
 3489 0eac 00       		.byte	0
 3490 0ead 00       		.byte	0
 3491 0eae 17       		.uleb128 0x17
 3492 0eaf 5E010000 		.4byte	.LASF163
 3493 0eb3 01       		.byte	0x1
 3494 0eb4 4F01     		.2byte	0x14f
 3495 0eb6 00000000 		.4byte	.LFB40
 3496 0eba FA010000 		.4byte	.LFE40-.LFB40
 3497 0ebe 01       		.uleb128 0x1
 3498 0ebf 9C       		.byte	0x9c
 3499 0ec0 42100000 		.4byte	0x1042
 3500 0ec4 27       		.uleb128 0x27
 3501 0ec5 7100     		.ascii	"q\000"
 3502 0ec7 01       		.byte	0x1
 3503 0ec8 4F01     		.2byte	0x14f
 3504 0eca 850B0000 		.4byte	0xb85
 3505 0ece 9A020000 		.4byte	.LLST23
 3506 0ed2 28       		.uleb128 0x28
 3507 0ed3 F7040000 		.4byte	.LASF160
 3508 0ed7 01       		.byte	0x1
 3509 0ed8 5101     		.2byte	0x151
 3510 0eda 85010000 		.4byte	0x185
 3511 0ede 02       		.uleb128 0x2
 3512 0edf 91       		.byte	0x91
 3513 0ee0 68       		.sleb128 -24
 3514 0ee1 22       		.uleb128 0x22
 3515 0ee2 1A000000 		.4byte	.LBB14
 3516 0ee6 9A000000 		.4byte	.LBE14-.LBB14
 3517 0eea 4C0F0000 		.4byte	0xf4c
 3518 0eee 26       		.uleb128 0x26
 3519 0eef 6F6B00   		.ascii	"ok\000"
 3520 0ef2 01       		.byte	0x1
 3521 0ef3 5B01     		.2byte	0x15b
 3522 0ef5 91020000 		.4byte	0x291
 3523 0ef9 B8020000 		.4byte	.LLST24
 3524 0efd 24       		.uleb128 0x24
 3525 0efe 26000000 		.4byte	.LVL93
 3526 0f02 02130000 		.4byte	0x1302
 3527 0f06 24       		.uleb128 0x24
 3528 0f07 48000000 		.4byte	.LVL94
 3529 0f0b 02130000 		.4byte	0x1302
 3530 0f0f 24       		.uleb128 0x24
 3531 0f10 66000000 		.4byte	.LVL95
 3532 0f14 02130000 		.4byte	0x1302
ARM GAS  C:\Users\strap\AppData\Local\Temp\ccQGFe6s.s 			page 75


 3533 0f18 24       		.uleb128 0x24
 3534 0f19 82000000 		.4byte	.LVL96
 3535 0f1d 02130000 		.4byte	0x1302
 3536 0f21 1C       		.uleb128 0x1c
 3537 0f22 A2000000 		.4byte	.LVL97
 3538 0f26 0D130000 		.4byte	0x130d
 3539 0f2a 3B0F0000 		.4byte	0xf3b
 3540 0f2e 1D       		.uleb128 0x1d
 3541 0f2f 01       		.uleb128 0x1
 3542 0f30 50       		.byte	0x50
 3543 0f31 02       		.uleb128 0x2
 3544 0f32 7D       		.byte	0x7d
 3545 0f33 00       		.sleb128 0
 3546 0f34 1D       		.uleb128 0x1d
 3547 0f35 01       		.uleb128 0x1
 3548 0f36 51       		.byte	0x51
 3549 0f37 02       		.uleb128 0x2
 3550 0f38 7D       		.byte	0x7d
 3551 0f39 00       		.sleb128 0
 3552 0f3a 00       		.byte	0
 3553 0f3b 1E       		.uleb128 0x1e
 3554 0f3c B2000000 		.4byte	.LVL99
 3555 0f40 18130000 		.4byte	0x1318
 3556 0f44 1D       		.uleb128 0x1d
 3557 0f45 01       		.uleb128 0x1
 3558 0f46 51       		.byte	0x51
 3559 0f47 02       		.uleb128 0x2
 3560 0f48 7D       		.byte	0x7d
 3561 0f49 00       		.sleb128 0
 3562 0f4a 00       		.byte	0
 3563 0f4b 00       		.byte	0
 3564 0f4c 22       		.uleb128 0x22
 3565 0f4d C2000000 		.4byte	.LBB15
 3566 0f51 6A000000 		.4byte	.LBE15-.LBB15
 3567 0f55 A50F0000 		.4byte	0xfa5
 3568 0f59 26       		.uleb128 0x26
 3569 0f5a 6F6B00   		.ascii	"ok\000"
 3570 0f5d 01       		.byte	0x1
 3571 0f5e 6701     		.2byte	0x167
 3572 0f60 91020000 		.4byte	0x291
 3573 0f64 CB020000 		.4byte	.LLST25
 3574 0f68 24       		.uleb128 0x24
 3575 0f69 E4000000 		.4byte	.LVL100
 3576 0f6d 02130000 		.4byte	0x1302
 3577 0f71 24       		.uleb128 0x24
 3578 0f72 06010000 		.4byte	.LVL101
 3579 0f76 02130000 		.4byte	0x1302
 3580 0f7a 1C       		.uleb128 0x1c
 3581 0f7b 20010000 		.4byte	.LVL102
 3582 0f7f 0D130000 		.4byte	0x130d
 3583 0f83 940F0000 		.4byte	0xf94
 3584 0f87 1D       		.uleb128 0x1d
 3585 0f88 01       		.uleb128 0x1
 3586 0f89 50       		.byte	0x50
 3587 0f8a 02       		.uleb128 0x2
 3588 0f8b 7D       		.byte	0x7d
 3589 0f8c 00       		.sleb128 0
ARM GAS  C:\Users\strap\AppData\Local\Temp\ccQGFe6s.s 			page 76


 3590 0f8d 1D       		.uleb128 0x1d
 3591 0f8e 01       		.uleb128 0x1
 3592 0f8f 51       		.byte	0x51
 3593 0f90 02       		.uleb128 0x2
 3594 0f91 7D       		.byte	0x7d
 3595 0f92 00       		.sleb128 0
 3596 0f93 00       		.byte	0
 3597 0f94 1E       		.uleb128 0x1e
 3598 0f95 2C010000 		.4byte	.LVL104
 3599 0f99 18130000 		.4byte	0x1318
 3600 0f9d 1D       		.uleb128 0x1d
 3601 0f9e 01       		.uleb128 0x1
 3602 0f9f 51       		.byte	0x51
 3603 0fa0 02       		.uleb128 0x2
 3604 0fa1 7D       		.byte	0x7d
 3605 0fa2 00       		.sleb128 0
 3606 0fa3 00       		.byte	0
 3607 0fa4 00       		.byte	0
 3608 0fa5 22       		.uleb128 0x22
 3609 0fa6 32010000 		.4byte	.LBB16
 3610 0faa 6A000000 		.4byte	.LBE16-.LBB16
 3611 0fae FE0F0000 		.4byte	0xffe
 3612 0fb2 26       		.uleb128 0x26
 3613 0fb3 6F6B00   		.ascii	"ok\000"
 3614 0fb6 01       		.byte	0x1
 3615 0fb7 7101     		.2byte	0x171
 3616 0fb9 91020000 		.4byte	0x291
 3617 0fbd DE020000 		.4byte	.LLST26
 3618 0fc1 24       		.uleb128 0x24
 3619 0fc2 52010000 		.4byte	.LVL105
 3620 0fc6 02130000 		.4byte	0x1302
 3621 0fca 24       		.uleb128 0x24
 3622 0fcb 6E010000 		.4byte	.LVL106
 3623 0fcf 02130000 		.4byte	0x1302
 3624 0fd3 1C       		.uleb128 0x1c
 3625 0fd4 8E010000 		.4byte	.LVL107
 3626 0fd8 0D130000 		.4byte	0x130d
 3627 0fdc ED0F0000 		.4byte	0xfed
 3628 0fe0 1D       		.uleb128 0x1d
 3629 0fe1 01       		.uleb128 0x1
 3630 0fe2 50       		.byte	0x50
 3631 0fe3 02       		.uleb128 0x2
 3632 0fe4 7D       		.byte	0x7d
 3633 0fe5 00       		.sleb128 0
 3634 0fe6 1D       		.uleb128 0x1d
 3635 0fe7 01       		.uleb128 0x1
 3636 0fe8 51       		.byte	0x51
 3637 0fe9 02       		.uleb128 0x2
 3638 0fea 7D       		.byte	0x7d
 3639 0feb 00       		.sleb128 0
 3640 0fec 00       		.byte	0
 3641 0fed 1E       		.uleb128 0x1e
 3642 0fee 9A010000 		.4byte	.LVL109
 3643 0ff2 18130000 		.4byte	0x1318
 3644 0ff6 1D       		.uleb128 0x1d
 3645 0ff7 01       		.uleb128 0x1
 3646 0ff8 51       		.byte	0x51
ARM GAS  C:\Users\strap\AppData\Local\Temp\ccQGFe6s.s 			page 77


 3647 0ff9 02       		.uleb128 0x2
 3648 0ffa 7D       		.byte	0x7d
 3649 0ffb 00       		.sleb128 0
 3650 0ffc 00       		.byte	0
 3651 0ffd 00       		.byte	0
 3652 0ffe 25       		.uleb128 0x25
 3653 0fff C0010000 		.4byte	.LBB17
 3654 1003 36000000 		.4byte	.LBE17-.LBB17
 3655 1007 26       		.uleb128 0x26
 3656 1008 6F6B00   		.ascii	"ok\000"
 3657 100b 01       		.byte	0x1
 3658 100c 7F01     		.2byte	0x17f
 3659 100e 91020000 		.4byte	0x291
 3660 1012 F1020000 		.4byte	.LLST27
 3661 1016 1C       		.uleb128 0x1c
 3662 1017 EA010000 		.4byte	.LVL110
 3663 101b 0D130000 		.4byte	0x130d
 3664 101f 30100000 		.4byte	0x1030
 3665 1023 1D       		.uleb128 0x1d
 3666 1024 01       		.uleb128 0x1
 3667 1025 50       		.byte	0x50
 3668 1026 02       		.uleb128 0x2
 3669 1027 7D       		.byte	0x7d
 3670 1028 00       		.sleb128 0
 3671 1029 1D       		.uleb128 0x1d
 3672 102a 01       		.uleb128 0x1
 3673 102b 51       		.byte	0x51
 3674 102c 02       		.uleb128 0x2
 3675 102d 7D       		.byte	0x7d
 3676 102e 00       		.sleb128 0
 3677 102f 00       		.byte	0
 3678 1030 1E       		.uleb128 0x1e
 3679 1031 F6010000 		.4byte	.LVL112
 3680 1035 18130000 		.4byte	0x1318
 3681 1039 1D       		.uleb128 0x1d
 3682 103a 01       		.uleb128 0x1
 3683 103b 51       		.byte	0x51
 3684 103c 02       		.uleb128 0x2
 3685 103d 7D       		.byte	0x7d
 3686 103e 00       		.sleb128 0
 3687 103f 00       		.byte	0
 3688 1040 00       		.byte	0
 3689 1041 00       		.byte	0
 3690 1042 29       		.uleb128 0x29
 3691 1043 12030000 		.4byte	.LASF182
 3692 1047 01       		.byte	0x1
 3693 1048 47       		.byte	0x47
 3694 1049 00000000 		.4byte	.LFB36
 3695 104d 2C020000 		.4byte	.LFE36-.LFB36
 3696 1051 01       		.uleb128 0x1
 3697 1052 9C       		.byte	0x9c
 3698 1053 F7120000 		.4byte	0x12f7
 3699 1057 2A       		.uleb128 0x2a
 3700 1058 13070000 		.4byte	.LASF141
 3701 105c 01       		.byte	0x1
 3702 105d 47       		.byte	0x47
 3703 105e EF000000 		.4byte	0xef
ARM GAS  C:\Users\strap\AppData\Local\Temp\ccQGFe6s.s 			page 78


 3704 1062 04030000 		.4byte	.LLST28
 3705 1066 2A       		.uleb128 0x2a
 3706 1067 2A000000 		.4byte	.LASF142
 3707 106b 01       		.byte	0x1
 3708 106c 47       		.byte	0x47
 3709 106d EF000000 		.4byte	0xef
 3710 1071 25030000 		.4byte	.LLST29
 3711 1075 2A       		.uleb128 0x2a
 3712 1076 BB070000 		.4byte	.LASF97
 3713 107a 01       		.byte	0x1
 3714 107b 47       		.byte	0x47
 3715 107c CE000000 		.4byte	0xce
 3716 1080 46030000 		.4byte	.LLST30
 3717 1084 2A       		.uleb128 0x2a
 3718 1085 A1060000 		.4byte	.LASF79
 3719 1089 01       		.byte	0x1
 3720 108a 47       		.byte	0x47
 3721 108b CE000000 		.4byte	0xce
 3722 108f 67030000 		.4byte	.LLST31
 3723 1093 2A       		.uleb128 0x2a
 3724 1094 7B080000 		.4byte	.LASF80
 3725 1098 01       		.byte	0x1
 3726 1099 47       		.byte	0x47
 3727 109a CE000000 		.4byte	0xce
 3728 109e 93030000 		.4byte	.LLST32
 3729 10a2 2A       		.uleb128 0x2a
 3730 10a3 B1070000 		.4byte	.LASF147
 3731 10a7 01       		.byte	0x1
 3732 10a8 48       		.byte	0x48
 3733 10a9 E7080000 		.4byte	0x8e7
 3734 10ad E0030000 		.4byte	.LLST33
 3735 10b1 20       		.uleb128 0x20
 3736 10b2 64736300 		.ascii	"dsc\000"
 3737 10b6 01       		.byte	0x1
 3738 10b7 48       		.byte	0x48
 3739 10b8 F7120000 		.4byte	0x12f7
 3740 10bc 00040000 		.4byte	.LLST34
 3741 10c0 2B       		.uleb128 0x2b
 3742 10c1 33030000 		.4byte	.LASF89
 3743 10c5 01       		.byte	0x1
 3744 10c6 4E       		.byte	0x4e
 3745 10c7 8D050000 		.4byte	0x58d
 3746 10cb 20040000 		.4byte	.LLST35
 3747 10cf 21       		.uleb128 0x21
 3748 10d0 34060000 		.4byte	.LASF164
 3749 10d4 01       		.byte	0x1
 3750 10d5 51       		.byte	0x51
 3751 10d6 49080000 		.4byte	0x849
 3752 10da 03       		.uleb128 0x3
 3753 10db 91       		.byte	0x91
 3754 10dc 847F     		.sleb128 -124
 3755 10de 21       		.uleb128 0x21
 3756 10df 93000000 		.4byte	.LASF165
 3757 10e3 01       		.byte	0x1
 3758 10e4 5A       		.byte	0x5a
 3759 10e5 85010000 		.4byte	0x185
 3760 10e9 03       		.uleb128 0x3
ARM GAS  C:\Users\strap\AppData\Local\Temp\ccQGFe6s.s 			page 79


 3761 10ea 91       		.byte	0x91
 3762 10eb FC7E     		.sleb128 -132
 3763 10ed 21       		.uleb128 0x21
 3764 10ee 9D080000 		.4byte	.LASF166
 3765 10f2 01       		.byte	0x1
 3766 10f3 69       		.byte	0x69
 3767 10f4 6C050000 		.4byte	0x56c
 3768 10f8 03       		.uleb128 0x3
 3769 10f9 91       		.byte	0x91
 3770 10fa 907E     		.sleb128 -240
 3771 10fc 2B       		.uleb128 0x2b
 3772 10fd AE010000 		.4byte	.LASF167
 3773 1101 01       		.byte	0x1
 3774 1102 6C       		.byte	0x6c
 3775 1103 C3000000 		.4byte	0xc3
 3776 1107 33040000 		.4byte	.LLST36
 3777 110b 2B       		.uleb128 0x2b
 3778 110c 20000000 		.4byte	.LASF168
 3779 1110 01       		.byte	0x1
 3780 1111 6E       		.byte	0x6e
 3781 1112 D9000000 		.4byte	0xd9
 3782 1116 48040000 		.4byte	.LLST37
 3783 111a 22       		.uleb128 0x22
 3784 111b FA000000 		.4byte	.LBB18
 3785 111f 62000000 		.4byte	.LBE18-.LBB18
 3786 1123 87110000 		.4byte	0x1187
 3787 1127 21       		.uleb128 0x21
 3788 1128 75060000 		.4byte	.LASF169
 3789 112c 01       		.byte	0x1
 3790 112d 77       		.byte	0x77
 3791 112e F2080000 		.4byte	0x8f2
 3792 1132 03       		.uleb128 0x3
 3793 1133 91       		.byte	0x91
 3794 1134 F47D     		.sleb128 -268
 3795 1136 1C       		.uleb128 0x1c
 3796 1137 4A010000 		.4byte	.LVL130
 3797 113b F8090000 		.4byte	0x9f8
 3798 113f 4B110000 		.4byte	0x114b
 3799 1143 1D       		.uleb128 0x1d
 3800 1144 01       		.uleb128 0x1
 3801 1145 50       		.byte	0x50
 3802 1146 03       		.uleb128 0x3
 3803 1147 91       		.byte	0x91
 3804 1148 F47D     		.sleb128 -268
 3805 114a 00       		.byte	0
 3806 114b 1C       		.uleb128 0x1c
 3807 114c 50010000 		.4byte	.LVL131
 3808 1150 8B0B0000 		.4byte	0xb8b
 3809 1154 60110000 		.4byte	0x1160
 3810 1158 1D       		.uleb128 0x1d
 3811 1159 01       		.uleb128 0x1
 3812 115a 50       		.byte	0x50
 3813 115b 03       		.uleb128 0x3
 3814 115c 91       		.byte	0x91
 3815 115d F47D     		.sleb128 -268
 3816 115f 00       		.byte	0
 3817 1160 1C       		.uleb128 0x1c
ARM GAS  C:\Users\strap\AppData\Local\Temp\ccQGFe6s.s 			page 80


 3818 1161 56010000 		.4byte	.LVL132
 3819 1165 1A0D0000 		.4byte	0xd1a
 3820 1169 75110000 		.4byte	0x1175
 3821 116d 1D       		.uleb128 0x1d
 3822 116e 01       		.uleb128 0x1
 3823 116f 50       		.byte	0x50
 3824 1170 03       		.uleb128 0x3
 3825 1171 91       		.byte	0x91
 3826 1172 F47D     		.sleb128 -268
 3827 1174 00       		.byte	0
 3828 1175 1E       		.uleb128 0x1e
 3829 1176 5C010000 		.4byte	.LVL133
 3830 117a AE0E0000 		.4byte	0xeae
 3831 117e 1D       		.uleb128 0x1d
 3832 117f 01       		.uleb128 0x1
 3833 1180 50       		.byte	0x50
 3834 1181 03       		.uleb128 0x3
 3835 1182 91       		.byte	0x91
 3836 1183 F47D     		.sleb128 -268
 3837 1185 00       		.byte	0
 3838 1186 00       		.byte	0
 3839 1187 22       		.uleb128 0x22
 3840 1188 76010000 		.4byte	.LBB19
 3841 118c AA000000 		.4byte	.LBE19-.LBB19
 3842 1190 37120000 		.4byte	0x1237
 3843 1194 21       		.uleb128 0x21
 3844 1195 F4010000 		.4byte	.LASF170
 3845 1199 01       		.byte	0x1
 3846 119a 94       		.byte	0x94
 3847 119b 85010000 		.4byte	0x185
 3848 119f 03       		.uleb128 0x3
 3849 11a0 91       		.byte	0x91
 3850 11a1 F47D     		.sleb128 -268
 3851 11a3 1C       		.uleb128 0x1c
 3852 11a4 A6010000 		.4byte	.LVL137
 3853 11a8 FD080000 		.4byte	0x8fd
 3854 11ac CD110000 		.4byte	0x11cd
 3855 11b0 1D       		.uleb128 0x1d
 3856 11b1 01       		.uleb128 0x1
 3857 11b2 50       		.byte	0x50
 3858 11b3 05       		.uleb128 0x5
 3859 11b4 91       		.byte	0x91
 3860 11b5 EC7D     		.sleb128 -276
 3861 11b7 94       		.byte	0x94
 3862 11b8 02       		.byte	0x2
 3863 11b9 1D       		.uleb128 0x1d
 3864 11ba 01       		.uleb128 0x1
 3865 11bb 51       		.byte	0x51
 3866 11bc 02       		.uleb128 0x2
 3867 11bd 77       		.byte	0x77
 3868 11be 00       		.sleb128 0
 3869 11bf 1D       		.uleb128 0x1d
 3870 11c0 01       		.uleb128 0x1
 3871 11c1 52       		.byte	0x52
 3872 11c2 02       		.uleb128 0x2
 3873 11c3 78       		.byte	0x78
 3874 11c4 00       		.sleb128 0
ARM GAS  C:\Users\strap\AppData\Local\Temp\ccQGFe6s.s 			page 81


 3875 11c5 1D       		.uleb128 0x1d
 3876 11c6 01       		.uleb128 0x1
 3877 11c7 53       		.byte	0x53
 3878 11c8 03       		.uleb128 0x3
 3879 11c9 91       		.byte	0x91
 3880 11ca F47D     		.sleb128 -268
 3881 11cc 00       		.byte	0
 3882 11cd 1C       		.uleb128 0x1c
 3883 11ce D8010000 		.4byte	.LVL138
 3884 11d2 18130000 		.4byte	0x1318
 3885 11d6 F0110000 		.4byte	0x11f0
 3886 11da 1D       		.uleb128 0x1d
 3887 11db 01       		.uleb128 0x1
 3888 11dc 50       		.byte	0x50
 3889 11dd 03       		.uleb128 0x3
 3890 11de 91       		.byte	0x91
 3891 11df F47D     		.sleb128 -268
 3892 11e1 1D       		.uleb128 0x1d
 3893 11e2 01       		.uleb128 0x1
 3894 11e3 51       		.byte	0x51
 3895 11e4 03       		.uleb128 0x3
 3896 11e5 91       		.byte	0x91
 3897 11e6 04       		.sleb128 4
 3898 11e7 06       		.byte	0x6
 3899 11e8 1D       		.uleb128 0x1d
 3900 11e9 01       		.uleb128 0x1
 3901 11ea 52       		.byte	0x52
 3902 11eb 03       		.uleb128 0x3
 3903 11ec 91       		.byte	0x91
 3904 11ed 847F     		.sleb128 -124
 3905 11ef 00       		.byte	0
 3906 11f0 1C       		.uleb128 0x1c
 3907 11f1 EE010000 		.4byte	.LVL139
 3908 11f5 FD080000 		.4byte	0x8fd
 3909 11f9 17120000 		.4byte	0x1217
 3910 11fd 1D       		.uleb128 0x1d
 3911 11fe 01       		.uleb128 0x1
 3912 11ff 50       		.byte	0x50
 3913 1200 02       		.uleb128 0x2
 3914 1201 79       		.byte	0x79
 3915 1202 00       		.sleb128 0
 3916 1203 1D       		.uleb128 0x1d
 3917 1204 01       		.uleb128 0x1
 3918 1205 51       		.byte	0x51
 3919 1206 02       		.uleb128 0x2
 3920 1207 77       		.byte	0x77
 3921 1208 00       		.sleb128 0
 3922 1209 1D       		.uleb128 0x1d
 3923 120a 01       		.uleb128 0x1
 3924 120b 52       		.byte	0x52
 3925 120c 02       		.uleb128 0x2
 3926 120d 78       		.byte	0x78
 3927 120e 00       		.sleb128 0
 3928 120f 1D       		.uleb128 0x1d
 3929 1210 01       		.uleb128 0x1
 3930 1211 53       		.byte	0x53
 3931 1212 03       		.uleb128 0x3
ARM GAS  C:\Users\strap\AppData\Local\Temp\ccQGFe6s.s 			page 82


 3932 1213 91       		.byte	0x91
 3933 1214 F47D     		.sleb128 -268
 3934 1216 00       		.byte	0
 3935 1217 1E       		.uleb128 0x1e
 3936 1218 20020000 		.4byte	.LVL140
 3937 121c 18130000 		.4byte	0x1318
 3938 1220 1D       		.uleb128 0x1d
 3939 1221 01       		.uleb128 0x1
 3940 1222 50       		.byte	0x50
 3941 1223 03       		.uleb128 0x3
 3942 1224 91       		.byte	0x91
 3943 1225 F47D     		.sleb128 -268
 3944 1227 1D       		.uleb128 0x1d
 3945 1228 01       		.uleb128 0x1
 3946 1229 51       		.byte	0x51
 3947 122a 03       		.uleb128 0x3
 3948 122b 91       		.byte	0x91
 3949 122c 04       		.sleb128 4
 3950 122d 06       		.byte	0x6
 3951 122e 1D       		.uleb128 0x1d
 3952 122f 01       		.uleb128 0x1
 3953 1230 52       		.byte	0x52
 3954 1231 03       		.uleb128 0x3
 3955 1232 91       		.byte	0x91
 3956 1233 847F     		.sleb128 -124
 3957 1235 00       		.byte	0
 3958 1236 00       		.byte	0
 3959 1237 1C       		.uleb128 0x1c
 3960 1238 3C000000 		.4byte	.LVL118
 3961 123c 23130000 		.4byte	0x1323
 3962 1240 4C120000 		.4byte	0x124c
 3963 1244 1D       		.uleb128 0x1d
 3964 1245 01       		.uleb128 0x1
 3965 1246 50       		.byte	0x50
 3966 1247 03       		.uleb128 0x3
 3967 1248 91       		.byte	0x91
 3968 1249 847F     		.sleb128 -124
 3969 124b 00       		.byte	0
 3970 124c 1C       		.uleb128 0x1c
 3971 124d AA000000 		.4byte	.LVL119
 3972 1251 18130000 		.4byte	0x1318
 3973 1255 6F120000 		.4byte	0x126f
 3974 1259 1D       		.uleb128 0x1d
 3975 125a 01       		.uleb128 0x1
 3976 125b 50       		.byte	0x50
 3977 125c 03       		.uleb128 0x3
 3978 125d 91       		.byte	0x91
 3979 125e FC7E     		.sleb128 -132
 3980 1260 1D       		.uleb128 0x1d
 3981 1261 01       		.uleb128 0x1
 3982 1262 51       		.byte	0x51
 3983 1263 03       		.uleb128 0x3
 3984 1264 91       		.byte	0x91
 3985 1265 04       		.sleb128 4
 3986 1266 06       		.byte	0x6
 3987 1267 1D       		.uleb128 0x1d
 3988 1268 01       		.uleb128 0x1
ARM GAS  C:\Users\strap\AppData\Local\Temp\ccQGFe6s.s 			page 83


 3989 1269 52       		.byte	0x52
 3990 126a 03       		.uleb128 0x3
 3991 126b 91       		.byte	0x91
 3992 126c 847F     		.sleb128 -124
 3993 126e 00       		.byte	0
 3994 126f 1C       		.uleb128 0x1c
 3995 1270 DA000000 		.4byte	.LVL122
 3996 1274 2E130000 		.4byte	0x132e
 3997 1278 A6120000 		.4byte	0x12a6
 3998 127c 1D       		.uleb128 0x1d
 3999 127d 01       		.uleb128 0x1
 4000 127e 50       		.byte	0x50
 4001 127f 03       		.uleb128 0x3
 4002 1280 91       		.byte	0x91
 4003 1281 907E     		.sleb128 -240
 4004 1283 1D       		.uleb128 0x1d
 4005 1284 01       		.uleb128 0x1
 4006 1285 51       		.byte	0x51
 4007 1286 05       		.uleb128 0x5
 4008 1287 91       		.byte	0x91
 4009 1288 E07D     		.sleb128 -288
 4010 128a 94       		.byte	0x94
 4011 128b 02       		.byte	0x2
 4012 128c 1D       		.uleb128 0x1d
 4013 128d 01       		.uleb128 0x1
 4014 128e 52       		.byte	0x52
 4015 128f 05       		.uleb128 0x5
 4016 1290 91       		.byte	0x91
 4017 1291 E47D     		.sleb128 -284
 4018 1293 94       		.byte	0x94
 4019 1294 02       		.byte	0x2
 4020 1295 1D       		.uleb128 0x1d
 4021 1296 01       		.uleb128 0x1
 4022 1297 53       		.byte	0x53
 4023 1298 05       		.uleb128 0x5
 4024 1299 91       		.byte	0x91
 4025 129a EC7D     		.sleb128 -276
 4026 129c 94       		.byte	0x94
 4027 129d 02       		.byte	0x2
 4028 129e 1D       		.uleb128 0x1d
 4029 129f 02       		.uleb128 0x2
 4030 12a0 7D       		.byte	0x7d
 4031 12a1 00       		.sleb128 0
 4032 12a2 02       		.uleb128 0x2
 4033 12a3 79       		.byte	0x79
 4034 12a4 00       		.sleb128 0
 4035 12a5 00       		.byte	0
 4036 12a6 1C       		.uleb128 0x1c
 4037 12a7 E2000000 		.4byte	.LVL123
 4038 12ab 3A130000 		.4byte	0x133a
 4039 12af C0120000 		.4byte	0x12c0
 4040 12b3 1D       		.uleb128 0x1d
 4041 12b4 01       		.uleb128 0x1
 4042 12b5 50       		.byte	0x50
 4043 12b6 03       		.uleb128 0x3
 4044 12b7 91       		.byte	0x91
 4045 12b8 907E     		.sleb128 -240
ARM GAS  C:\Users\strap\AppData\Local\Temp\ccQGFe6s.s 			page 84


 4046 12ba 1D       		.uleb128 0x1d
 4047 12bb 01       		.uleb128 0x1
 4048 12bc 51       		.byte	0x51
 4049 12bd 01       		.uleb128 0x1
 4050 12be 30       		.byte	0x30
 4051 12bf 00       		.byte	0
 4052 12c0 1C       		.uleb128 0x1c
 4053 12c1 68010000 		.4byte	.LVL135
 4054 12c5 18130000 		.4byte	0x1318
 4055 12c9 E3120000 		.4byte	0x12e3
 4056 12cd 1D       		.uleb128 0x1d
 4057 12ce 01       		.uleb128 0x1
 4058 12cf 50       		.byte	0x50
 4059 12d0 03       		.uleb128 0x3
 4060 12d1 91       		.byte	0x91
 4061 12d2 FC7E     		.sleb128 -132
 4062 12d4 1D       		.uleb128 0x1d
 4063 12d5 01       		.uleb128 0x1
 4064 12d6 51       		.byte	0x51
 4065 12d7 03       		.uleb128 0x3
 4066 12d8 91       		.byte	0x91
 4067 12d9 04       		.sleb128 4
 4068 12da 06       		.byte	0x6
 4069 12db 1D       		.uleb128 0x1d
 4070 12dc 01       		.uleb128 0x1
 4071 12dd 52       		.byte	0x52
 4072 12de 03       		.uleb128 0x3
 4073 12df 91       		.byte	0x91
 4074 12e0 847F     		.sleb128 -124
 4075 12e2 00       		.byte	0
 4076 12e3 1E       		.uleb128 0x1e
 4077 12e4 6E010000 		.4byte	.LVL136
 4078 12e8 45130000 		.4byte	0x1345
 4079 12ec 1D       		.uleb128 0x1d
 4080 12ed 01       		.uleb128 0x1
 4081 12ee 50       		.byte	0x50
 4082 12ef 05       		.uleb128 0x5
 4083 12f0 91       		.byte	0x91
 4084 12f1 E87D     		.sleb128 -280
 4085 12f3 94       		.byte	0x94
 4086 12f4 02       		.byte	0x2
 4087 12f5 00       		.byte	0
 4088 12f6 00       		.byte	0
 4089 12f7 07       		.uleb128 0x7
 4090 12f8 04       		.byte	0x4
 4091 12f9 FD120000 		.4byte	0x12fd
 4092 12fd 08       		.uleb128 0x8
 4093 12fe 19060000 		.4byte	0x619
 4094 1302 2C       		.uleb128 0x2c
 4095 1303 9A050000 		.4byte	.LASF171
 4096 1307 9A050000 		.4byte	.LASF171
 4097 130b 0D       		.byte	0xd
 4098 130c 41       		.byte	0x41
 4099 130d 2C       		.uleb128 0x2c
 4100 130e E2060000 		.4byte	.LASF172
 4101 1312 E2060000 		.4byte	.LASF172
 4102 1316 05       		.byte	0x5
ARM GAS  C:\Users\strap\AppData\Local\Temp\ccQGFe6s.s 			page 85


 4103 1317 A1       		.byte	0xa1
 4104 1318 2C       		.uleb128 0x2c
 4105 1319 42060000 		.4byte	.LASF173
 4106 131d 42060000 		.4byte	.LASF173
 4107 1321 0C       		.byte	0xc
 4108 1322 62       		.byte	0x62
 4109 1323 2C       		.uleb128 0x2c
 4110 1324 FB000000 		.4byte	.LASF174
 4111 1328 FB000000 		.4byte	.LASF174
 4112 132c 0C       		.byte	0xc
 4113 132d 58       		.byte	0x58
 4114 132e 2D       		.uleb128 0x2d
 4115 132f 4D000000 		.4byte	.LASF175
 4116 1333 4D000000 		.4byte	.LASF175
 4117 1337 08       		.byte	0x8
 4118 1338 0A01     		.2byte	0x10a
 4119 133a 2C       		.uleb128 0x2c
 4120 133b EA000000 		.4byte	.LASF176
 4121 133f EA000000 		.4byte	.LASF176
 4122 1343 08       		.byte	0x8
 4123 1344 B6       		.byte	0xb6
 4124 1345 2C       		.uleb128 0x2c
 4125 1346 DC030000 		.4byte	.LASF177
 4126 134a DC030000 		.4byte	.LASF177
 4127 134e 08       		.byte	0x8
 4128 134f D2       		.byte	0xd2
 4129 1350 00       		.byte	0
 4130              		.section	.debug_abbrev,"",%progbits
 4131              	.Ldebug_abbrev0:
 4132 0000 01       		.uleb128 0x1
 4133 0001 11       		.uleb128 0x11
 4134 0002 01       		.byte	0x1
 4135 0003 25       		.uleb128 0x25
 4136 0004 0E       		.uleb128 0xe
 4137 0005 13       		.uleb128 0x13
 4138 0006 0B       		.uleb128 0xb
 4139 0007 03       		.uleb128 0x3
 4140 0008 0E       		.uleb128 0xe
 4141 0009 1B       		.uleb128 0x1b
 4142 000a 0E       		.uleb128 0xe
 4143 000b 55       		.uleb128 0x55
 4144 000c 17       		.uleb128 0x17
 4145 000d 11       		.uleb128 0x11
 4146 000e 01       		.uleb128 0x1
 4147 000f 10       		.uleb128 0x10
 4148 0010 17       		.uleb128 0x17
 4149 0011 00       		.byte	0
 4150 0012 00       		.byte	0
 4151 0013 02       		.uleb128 0x2
 4152 0014 16       		.uleb128 0x16
 4153 0015 00       		.byte	0
 4154 0016 03       		.uleb128 0x3
 4155 0017 0E       		.uleb128 0xe
 4156 0018 3A       		.uleb128 0x3a
 4157 0019 0B       		.uleb128 0xb
 4158 001a 3B       		.uleb128 0x3b
 4159 001b 0B       		.uleb128 0xb
ARM GAS  C:\Users\strap\AppData\Local\Temp\ccQGFe6s.s 			page 86


 4160 001c 49       		.uleb128 0x49
 4161 001d 13       		.uleb128 0x13
 4162 001e 00       		.byte	0
 4163 001f 00       		.byte	0
 4164 0020 03       		.uleb128 0x3
 4165 0021 24       		.uleb128 0x24
 4166 0022 00       		.byte	0
 4167 0023 0B       		.uleb128 0xb
 4168 0024 0B       		.uleb128 0xb
 4169 0025 3E       		.uleb128 0x3e
 4170 0026 0B       		.uleb128 0xb
 4171 0027 03       		.uleb128 0x3
 4172 0028 0E       		.uleb128 0xe
 4173 0029 00       		.byte	0
 4174 002a 00       		.byte	0
 4175 002b 04       		.uleb128 0x4
 4176 002c 24       		.uleb128 0x24
 4177 002d 00       		.byte	0
 4178 002e 0B       		.uleb128 0xb
 4179 002f 0B       		.uleb128 0xb
 4180 0030 3E       		.uleb128 0x3e
 4181 0031 0B       		.uleb128 0xb
 4182 0032 03       		.uleb128 0x3
 4183 0033 08       		.uleb128 0x8
 4184 0034 00       		.byte	0
 4185 0035 00       		.byte	0
 4186 0036 05       		.uleb128 0x5
 4187 0037 0F       		.uleb128 0xf
 4188 0038 00       		.byte	0
 4189 0039 0B       		.uleb128 0xb
 4190 003a 0B       		.uleb128 0xb
 4191 003b 00       		.byte	0
 4192 003c 00       		.byte	0
 4193 003d 06       		.uleb128 0x6
 4194 003e 16       		.uleb128 0x16
 4195 003f 00       		.byte	0
 4196 0040 03       		.uleb128 0x3
 4197 0041 0E       		.uleb128 0xe
 4198 0042 3A       		.uleb128 0x3a
 4199 0043 0B       		.uleb128 0xb
 4200 0044 3B       		.uleb128 0x3b
 4201 0045 05       		.uleb128 0x5
 4202 0046 49       		.uleb128 0x49
 4203 0047 13       		.uleb128 0x13
 4204 0048 00       		.byte	0
 4205 0049 00       		.byte	0
 4206 004a 07       		.uleb128 0x7
 4207 004b 0F       		.uleb128 0xf
 4208 004c 00       		.byte	0
 4209 004d 0B       		.uleb128 0xb
 4210 004e 0B       		.uleb128 0xb
 4211 004f 49       		.uleb128 0x49
 4212 0050 13       		.uleb128 0x13
 4213 0051 00       		.byte	0
 4214 0052 00       		.byte	0
 4215 0053 08       		.uleb128 0x8
 4216 0054 26       		.uleb128 0x26
ARM GAS  C:\Users\strap\AppData\Local\Temp\ccQGFe6s.s 			page 87


 4217 0055 00       		.byte	0
 4218 0056 49       		.uleb128 0x49
 4219 0057 13       		.uleb128 0x13
 4220 0058 00       		.byte	0
 4221 0059 00       		.byte	0
 4222 005a 09       		.uleb128 0x9
 4223 005b 13       		.uleb128 0x13
 4224 005c 01       		.byte	0x1
 4225 005d 0B       		.uleb128 0xb
 4226 005e 0B       		.uleb128 0xb
 4227 005f 3A       		.uleb128 0x3a
 4228 0060 0B       		.uleb128 0xb
 4229 0061 3B       		.uleb128 0x3b
 4230 0062 0B       		.uleb128 0xb
 4231 0063 01       		.uleb128 0x1
 4232 0064 13       		.uleb128 0x13
 4233 0065 00       		.byte	0
 4234 0066 00       		.byte	0
 4235 0067 0A       		.uleb128 0xa
 4236 0068 0D       		.uleb128 0xd
 4237 0069 00       		.byte	0
 4238 006a 03       		.uleb128 0x3
 4239 006b 08       		.uleb128 0x8
 4240 006c 3A       		.uleb128 0x3a
 4241 006d 0B       		.uleb128 0xb
 4242 006e 3B       		.uleb128 0x3b
 4243 006f 0B       		.uleb128 0xb
 4244 0070 49       		.uleb128 0x49
 4245 0071 13       		.uleb128 0x13
 4246 0072 38       		.uleb128 0x38
 4247 0073 0B       		.uleb128 0xb
 4248 0074 00       		.byte	0
 4249 0075 00       		.byte	0
 4250 0076 0B       		.uleb128 0xb
 4251 0077 0D       		.uleb128 0xd
 4252 0078 00       		.byte	0
 4253 0079 03       		.uleb128 0x3
 4254 007a 0E       		.uleb128 0xe
 4255 007b 3A       		.uleb128 0x3a
 4256 007c 0B       		.uleb128 0xb
 4257 007d 3B       		.uleb128 0x3b
 4258 007e 0B       		.uleb128 0xb
 4259 007f 49       		.uleb128 0x49
 4260 0080 13       		.uleb128 0x13
 4261 0081 38       		.uleb128 0x38
 4262 0082 0B       		.uleb128 0xb
 4263 0083 00       		.byte	0
 4264 0084 00       		.byte	0
 4265 0085 0C       		.uleb128 0xc
 4266 0086 13       		.uleb128 0x13
 4267 0087 01       		.byte	0x1
 4268 0088 03       		.uleb128 0x3
 4269 0089 0E       		.uleb128 0xe
 4270 008a 0B       		.uleb128 0xb
 4271 008b 0B       		.uleb128 0xb
 4272 008c 3A       		.uleb128 0x3a
 4273 008d 0B       		.uleb128 0xb
ARM GAS  C:\Users\strap\AppData\Local\Temp\ccQGFe6s.s 			page 88


 4274 008e 3B       		.uleb128 0x3b
 4275 008f 0B       		.uleb128 0xb
 4276 0090 01       		.uleb128 0x1
 4277 0091 13       		.uleb128 0x13
 4278 0092 00       		.byte	0
 4279 0093 00       		.byte	0
 4280 0094 0D       		.uleb128 0xd
 4281 0095 0D       		.uleb128 0xd
 4282 0096 00       		.byte	0
 4283 0097 03       		.uleb128 0x3
 4284 0098 0E       		.uleb128 0xe
 4285 0099 3A       		.uleb128 0x3a
 4286 009a 0B       		.uleb128 0xb
 4287 009b 3B       		.uleb128 0x3b
 4288 009c 0B       		.uleb128 0xb
 4289 009d 49       		.uleb128 0x49
 4290 009e 13       		.uleb128 0x13
 4291 009f 0B       		.uleb128 0xb
 4292 00a0 0B       		.uleb128 0xb
 4293 00a1 0D       		.uleb128 0xd
 4294 00a2 0B       		.uleb128 0xb
 4295 00a3 0C       		.uleb128 0xc
 4296 00a4 0B       		.uleb128 0xb
 4297 00a5 38       		.uleb128 0x38
 4298 00a6 0B       		.uleb128 0xb
 4299 00a7 00       		.byte	0
 4300 00a8 00       		.byte	0
 4301 00a9 0E       		.uleb128 0xe
 4302 00aa 15       		.uleb128 0x15
 4303 00ab 01       		.byte	0x1
 4304 00ac 27       		.uleb128 0x27
 4305 00ad 19       		.uleb128 0x19
 4306 00ae 49       		.uleb128 0x49
 4307 00af 13       		.uleb128 0x13
 4308 00b0 01       		.uleb128 0x1
 4309 00b1 13       		.uleb128 0x13
 4310 00b2 00       		.byte	0
 4311 00b3 00       		.byte	0
 4312 00b4 0F       		.uleb128 0xf
 4313 00b5 05       		.uleb128 0x5
 4314 00b6 00       		.byte	0
 4315 00b7 49       		.uleb128 0x49
 4316 00b8 13       		.uleb128 0x13
 4317 00b9 00       		.byte	0
 4318 00ba 00       		.byte	0
 4319 00bb 10       		.uleb128 0x10
 4320 00bc 04       		.uleb128 0x4
 4321 00bd 01       		.byte	0x1
 4322 00be 0B       		.uleb128 0xb
 4323 00bf 0B       		.uleb128 0xb
 4324 00c0 49       		.uleb128 0x49
 4325 00c1 13       		.uleb128 0x13
 4326 00c2 3A       		.uleb128 0x3a
 4327 00c3 0B       		.uleb128 0xb
 4328 00c4 3B       		.uleb128 0x3b
 4329 00c5 0B       		.uleb128 0xb
 4330 00c6 01       		.uleb128 0x1
ARM GAS  C:\Users\strap\AppData\Local\Temp\ccQGFe6s.s 			page 89


 4331 00c7 13       		.uleb128 0x13
 4332 00c8 00       		.byte	0
 4333 00c9 00       		.byte	0
 4334 00ca 11       		.uleb128 0x11
 4335 00cb 28       		.uleb128 0x28
 4336 00cc 00       		.byte	0
 4337 00cd 03       		.uleb128 0x3
 4338 00ce 0E       		.uleb128 0xe
 4339 00cf 1C       		.uleb128 0x1c
 4340 00d0 0B       		.uleb128 0xb
 4341 00d1 00       		.byte	0
 4342 00d2 00       		.byte	0
 4343 00d3 12       		.uleb128 0x12
 4344 00d4 0D       		.uleb128 0xd
 4345 00d5 00       		.byte	0
 4346 00d6 03       		.uleb128 0x3
 4347 00d7 08       		.uleb128 0x8
 4348 00d8 3A       		.uleb128 0x3a
 4349 00d9 0B       		.uleb128 0xb
 4350 00da 3B       		.uleb128 0x3b
 4351 00db 0B       		.uleb128 0xb
 4352 00dc 49       		.uleb128 0x49
 4353 00dd 13       		.uleb128 0x13
 4354 00de 0B       		.uleb128 0xb
 4355 00df 0B       		.uleb128 0xb
 4356 00e0 0D       		.uleb128 0xd
 4357 00e1 0B       		.uleb128 0xb
 4358 00e2 0C       		.uleb128 0xc
 4359 00e3 0B       		.uleb128 0xb
 4360 00e4 38       		.uleb128 0x38
 4361 00e5 0B       		.uleb128 0xb
 4362 00e6 00       		.byte	0
 4363 00e7 00       		.byte	0
 4364 00e8 13       		.uleb128 0x13
 4365 00e9 17       		.uleb128 0x17
 4366 00ea 01       		.byte	0x1
 4367 00eb 0B       		.uleb128 0xb
 4368 00ec 0B       		.uleb128 0xb
 4369 00ed 3A       		.uleb128 0x3a
 4370 00ee 0B       		.uleb128 0xb
 4371 00ef 3B       		.uleb128 0x3b
 4372 00f0 0B       		.uleb128 0xb
 4373 00f1 01       		.uleb128 0x1
 4374 00f2 13       		.uleb128 0x13
 4375 00f3 00       		.byte	0
 4376 00f4 00       		.byte	0
 4377 00f5 14       		.uleb128 0x14
 4378 00f6 0D       		.uleb128 0xd
 4379 00f7 00       		.byte	0
 4380 00f8 03       		.uleb128 0x3
 4381 00f9 08       		.uleb128 0x8
 4382 00fa 3A       		.uleb128 0x3a
 4383 00fb 0B       		.uleb128 0xb
 4384 00fc 3B       		.uleb128 0x3b
 4385 00fd 0B       		.uleb128 0xb
 4386 00fe 49       		.uleb128 0x49
 4387 00ff 13       		.uleb128 0x13
ARM GAS  C:\Users\strap\AppData\Local\Temp\ccQGFe6s.s 			page 90


 4388 0100 00       		.byte	0
 4389 0101 00       		.byte	0
 4390 0102 15       		.uleb128 0x15
 4391 0103 0D       		.uleb128 0xd
 4392 0104 00       		.byte	0
 4393 0105 03       		.uleb128 0x3
 4394 0106 0E       		.uleb128 0xe
 4395 0107 3A       		.uleb128 0x3a
 4396 0108 0B       		.uleb128 0xb
 4397 0109 3B       		.uleb128 0x3b
 4398 010a 0B       		.uleb128 0xb
 4399 010b 49       		.uleb128 0x49
 4400 010c 13       		.uleb128 0x13
 4401 010d 00       		.byte	0
 4402 010e 00       		.byte	0
 4403 010f 16       		.uleb128 0x16
 4404 0110 26       		.uleb128 0x26
 4405 0111 00       		.byte	0
 4406 0112 00       		.byte	0
 4407 0113 00       		.byte	0
 4408 0114 17       		.uleb128 0x17
 4409 0115 2E       		.uleb128 0x2e
 4410 0116 01       		.byte	0x1
 4411 0117 03       		.uleb128 0x3
 4412 0118 0E       		.uleb128 0xe
 4413 0119 3A       		.uleb128 0x3a
 4414 011a 0B       		.uleb128 0xb
 4415 011b 3B       		.uleb128 0x3b
 4416 011c 05       		.uleb128 0x5
 4417 011d 27       		.uleb128 0x27
 4418 011e 19       		.uleb128 0x19
 4419 011f 11       		.uleb128 0x11
 4420 0120 01       		.uleb128 0x1
 4421 0121 12       		.uleb128 0x12
 4422 0122 06       		.uleb128 0x6
 4423 0123 40       		.uleb128 0x40
 4424 0124 18       		.uleb128 0x18
 4425 0125 9742     		.uleb128 0x2117
 4426 0127 19       		.uleb128 0x19
 4427 0128 01       		.uleb128 0x1
 4428 0129 13       		.uleb128 0x13
 4429 012a 00       		.byte	0
 4430 012b 00       		.byte	0
 4431 012c 18       		.uleb128 0x18
 4432 012d 05       		.uleb128 0x5
 4433 012e 00       		.byte	0
 4434 012f 03       		.uleb128 0x3
 4435 0130 0E       		.uleb128 0xe
 4436 0131 3A       		.uleb128 0x3a
 4437 0132 0B       		.uleb128 0xb
 4438 0133 3B       		.uleb128 0x3b
 4439 0134 05       		.uleb128 0x5
 4440 0135 49       		.uleb128 0x49
 4441 0136 13       		.uleb128 0x13
 4442 0137 02       		.uleb128 0x2
 4443 0138 17       		.uleb128 0x17
 4444 0139 00       		.byte	0
ARM GAS  C:\Users\strap\AppData\Local\Temp\ccQGFe6s.s 			page 91


 4445 013a 00       		.byte	0
 4446 013b 19       		.uleb128 0x19
 4447 013c 34       		.uleb128 0x34
 4448 013d 00       		.byte	0
 4449 013e 03       		.uleb128 0x3
 4450 013f 08       		.uleb128 0x8
 4451 0140 3A       		.uleb128 0x3a
 4452 0141 0B       		.uleb128 0xb
 4453 0142 3B       		.uleb128 0x3b
 4454 0143 05       		.uleb128 0x5
 4455 0144 49       		.uleb128 0x49
 4456 0145 13       		.uleb128 0x13
 4457 0146 1C       		.uleb128 0x1c
 4458 0147 0B       		.uleb128 0xb
 4459 0148 00       		.byte	0
 4460 0149 00       		.byte	0
 4461 014a 1A       		.uleb128 0x1a
 4462 014b 34       		.uleb128 0x34
 4463 014c 00       		.byte	0
 4464 014d 03       		.uleb128 0x3
 4465 014e 0E       		.uleb128 0xe
 4466 014f 3A       		.uleb128 0x3a
 4467 0150 0B       		.uleb128 0xb
 4468 0151 3B       		.uleb128 0x3b
 4469 0152 05       		.uleb128 0x5
 4470 0153 49       		.uleb128 0x49
 4471 0154 13       		.uleb128 0x13
 4472 0155 02       		.uleb128 0x2
 4473 0156 17       		.uleb128 0x17
 4474 0157 00       		.byte	0
 4475 0158 00       		.byte	0
 4476 0159 1B       		.uleb128 0x1b
 4477 015a 34       		.uleb128 0x34
 4478 015b 00       		.byte	0
 4479 015c 03       		.uleb128 0x3
 4480 015d 0E       		.uleb128 0xe
 4481 015e 3A       		.uleb128 0x3a
 4482 015f 0B       		.uleb128 0xb
 4483 0160 3B       		.uleb128 0x3b
 4484 0161 05       		.uleb128 0x5
 4485 0162 49       		.uleb128 0x49
 4486 0163 13       		.uleb128 0x13
 4487 0164 1C       		.uleb128 0x1c
 4488 0165 0B       		.uleb128 0xb
 4489 0166 00       		.byte	0
 4490 0167 00       		.byte	0
 4491 0168 1C       		.uleb128 0x1c
 4492 0169 898201   		.uleb128 0x4109
 4493 016c 01       		.byte	0x1
 4494 016d 11       		.uleb128 0x11
 4495 016e 01       		.uleb128 0x1
 4496 016f 31       		.uleb128 0x31
 4497 0170 13       		.uleb128 0x13
 4498 0171 01       		.uleb128 0x1
 4499 0172 13       		.uleb128 0x13
 4500 0173 00       		.byte	0
 4501 0174 00       		.byte	0
ARM GAS  C:\Users\strap\AppData\Local\Temp\ccQGFe6s.s 			page 92


 4502 0175 1D       		.uleb128 0x1d
 4503 0176 8A8201   		.uleb128 0x410a
 4504 0179 00       		.byte	0
 4505 017a 02       		.uleb128 0x2
 4506 017b 18       		.uleb128 0x18
 4507 017c 9142     		.uleb128 0x2111
 4508 017e 18       		.uleb128 0x18
 4509 017f 00       		.byte	0
 4510 0180 00       		.byte	0
 4511 0181 1E       		.uleb128 0x1e
 4512 0182 898201   		.uleb128 0x4109
 4513 0185 01       		.byte	0x1
 4514 0186 11       		.uleb128 0x11
 4515 0187 01       		.uleb128 0x1
 4516 0188 31       		.uleb128 0x31
 4517 0189 13       		.uleb128 0x13
 4518 018a 00       		.byte	0
 4519 018b 00       		.byte	0
 4520 018c 1F       		.uleb128 0x1f
 4521 018d 2E       		.uleb128 0x2e
 4522 018e 01       		.byte	0x1
 4523 018f 03       		.uleb128 0x3
 4524 0190 0E       		.uleb128 0xe
 4525 0191 3A       		.uleb128 0x3a
 4526 0192 0B       		.uleb128 0xb
 4527 0193 3B       		.uleb128 0x3b
 4528 0194 0B       		.uleb128 0xb
 4529 0195 27       		.uleb128 0x27
 4530 0196 19       		.uleb128 0x19
 4531 0197 11       		.uleb128 0x11
 4532 0198 01       		.uleb128 0x1
 4533 0199 12       		.uleb128 0x12
 4534 019a 06       		.uleb128 0x6
 4535 019b 40       		.uleb128 0x40
 4536 019c 18       		.uleb128 0x18
 4537 019d 9742     		.uleb128 0x2117
 4538 019f 19       		.uleb128 0x19
 4539 01a0 01       		.uleb128 0x1
 4540 01a1 13       		.uleb128 0x13
 4541 01a2 00       		.byte	0
 4542 01a3 00       		.byte	0
 4543 01a4 20       		.uleb128 0x20
 4544 01a5 05       		.uleb128 0x5
 4545 01a6 00       		.byte	0
 4546 01a7 03       		.uleb128 0x3
 4547 01a8 08       		.uleb128 0x8
 4548 01a9 3A       		.uleb128 0x3a
 4549 01aa 0B       		.uleb128 0xb
 4550 01ab 3B       		.uleb128 0x3b
 4551 01ac 0B       		.uleb128 0xb
 4552 01ad 49       		.uleb128 0x49
 4553 01ae 13       		.uleb128 0x13
 4554 01af 02       		.uleb128 0x2
 4555 01b0 17       		.uleb128 0x17
 4556 01b1 00       		.byte	0
 4557 01b2 00       		.byte	0
 4558 01b3 21       		.uleb128 0x21
ARM GAS  C:\Users\strap\AppData\Local\Temp\ccQGFe6s.s 			page 93


 4559 01b4 34       		.uleb128 0x34
 4560 01b5 00       		.byte	0
 4561 01b6 03       		.uleb128 0x3
 4562 01b7 0E       		.uleb128 0xe
 4563 01b8 3A       		.uleb128 0x3a
 4564 01b9 0B       		.uleb128 0xb
 4565 01ba 3B       		.uleb128 0x3b
 4566 01bb 0B       		.uleb128 0xb
 4567 01bc 49       		.uleb128 0x49
 4568 01bd 13       		.uleb128 0x13
 4569 01be 02       		.uleb128 0x2
 4570 01bf 18       		.uleb128 0x18
 4571 01c0 00       		.byte	0
 4572 01c1 00       		.byte	0
 4573 01c2 22       		.uleb128 0x22
 4574 01c3 0B       		.uleb128 0xb
 4575 01c4 01       		.byte	0x1
 4576 01c5 11       		.uleb128 0x11
 4577 01c6 01       		.uleb128 0x1
 4578 01c7 12       		.uleb128 0x12
 4579 01c8 06       		.uleb128 0x6
 4580 01c9 01       		.uleb128 0x1
 4581 01ca 13       		.uleb128 0x13
 4582 01cb 00       		.byte	0
 4583 01cc 00       		.byte	0
 4584 01cd 23       		.uleb128 0x23
 4585 01ce 34       		.uleb128 0x34
 4586 01cf 00       		.byte	0
 4587 01d0 03       		.uleb128 0x3
 4588 01d1 08       		.uleb128 0x8
 4589 01d2 3A       		.uleb128 0x3a
 4590 01d3 0B       		.uleb128 0xb
 4591 01d4 3B       		.uleb128 0x3b
 4592 01d5 0B       		.uleb128 0xb
 4593 01d6 49       		.uleb128 0x49
 4594 01d7 13       		.uleb128 0x13
 4595 01d8 02       		.uleb128 0x2
 4596 01d9 17       		.uleb128 0x17
 4597 01da 00       		.byte	0
 4598 01db 00       		.byte	0
 4599 01dc 24       		.uleb128 0x24
 4600 01dd 898201   		.uleb128 0x4109
 4601 01e0 00       		.byte	0
 4602 01e1 11       		.uleb128 0x11
 4603 01e2 01       		.uleb128 0x1
 4604 01e3 31       		.uleb128 0x31
 4605 01e4 13       		.uleb128 0x13
 4606 01e5 00       		.byte	0
 4607 01e6 00       		.byte	0
 4608 01e7 25       		.uleb128 0x25
 4609 01e8 0B       		.uleb128 0xb
 4610 01e9 01       		.byte	0x1
 4611 01ea 11       		.uleb128 0x11
 4612 01eb 01       		.uleb128 0x1
 4613 01ec 12       		.uleb128 0x12
 4614 01ed 06       		.uleb128 0x6
 4615 01ee 00       		.byte	0
ARM GAS  C:\Users\strap\AppData\Local\Temp\ccQGFe6s.s 			page 94


 4616 01ef 00       		.byte	0
 4617 01f0 26       		.uleb128 0x26
 4618 01f1 34       		.uleb128 0x34
 4619 01f2 00       		.byte	0
 4620 01f3 03       		.uleb128 0x3
 4621 01f4 08       		.uleb128 0x8
 4622 01f5 3A       		.uleb128 0x3a
 4623 01f6 0B       		.uleb128 0xb
 4624 01f7 3B       		.uleb128 0x3b
 4625 01f8 05       		.uleb128 0x5
 4626 01f9 49       		.uleb128 0x49
 4627 01fa 13       		.uleb128 0x13
 4628 01fb 02       		.uleb128 0x2
 4629 01fc 17       		.uleb128 0x17
 4630 01fd 00       		.byte	0
 4631 01fe 00       		.byte	0
 4632 01ff 27       		.uleb128 0x27
 4633 0200 05       		.uleb128 0x5
 4634 0201 00       		.byte	0
 4635 0202 03       		.uleb128 0x3
 4636 0203 08       		.uleb128 0x8
 4637 0204 3A       		.uleb128 0x3a
 4638 0205 0B       		.uleb128 0xb
 4639 0206 3B       		.uleb128 0x3b
 4640 0207 05       		.uleb128 0x5
 4641 0208 49       		.uleb128 0x49
 4642 0209 13       		.uleb128 0x13
 4643 020a 02       		.uleb128 0x2
 4644 020b 17       		.uleb128 0x17
 4645 020c 00       		.byte	0
 4646 020d 00       		.byte	0
 4647 020e 28       		.uleb128 0x28
 4648 020f 34       		.uleb128 0x34
 4649 0210 00       		.byte	0
 4650 0211 03       		.uleb128 0x3
 4651 0212 0E       		.uleb128 0xe
 4652 0213 3A       		.uleb128 0x3a
 4653 0214 0B       		.uleb128 0xb
 4654 0215 3B       		.uleb128 0x3b
 4655 0216 05       		.uleb128 0x5
 4656 0217 49       		.uleb128 0x49
 4657 0218 13       		.uleb128 0x13
 4658 0219 02       		.uleb128 0x2
 4659 021a 18       		.uleb128 0x18
 4660 021b 00       		.byte	0
 4661 021c 00       		.byte	0
 4662 021d 29       		.uleb128 0x29
 4663 021e 2E       		.uleb128 0x2e
 4664 021f 01       		.byte	0x1
 4665 0220 3F       		.uleb128 0x3f
 4666 0221 19       		.uleb128 0x19
 4667 0222 03       		.uleb128 0x3
 4668 0223 0E       		.uleb128 0xe
 4669 0224 3A       		.uleb128 0x3a
 4670 0225 0B       		.uleb128 0xb
 4671 0226 3B       		.uleb128 0x3b
 4672 0227 0B       		.uleb128 0xb
ARM GAS  C:\Users\strap\AppData\Local\Temp\ccQGFe6s.s 			page 95


 4673 0228 27       		.uleb128 0x27
 4674 0229 19       		.uleb128 0x19
 4675 022a 11       		.uleb128 0x11
 4676 022b 01       		.uleb128 0x1
 4677 022c 12       		.uleb128 0x12
 4678 022d 06       		.uleb128 0x6
 4679 022e 40       		.uleb128 0x40
 4680 022f 18       		.uleb128 0x18
 4681 0230 9742     		.uleb128 0x2117
 4682 0232 19       		.uleb128 0x19
 4683 0233 01       		.uleb128 0x1
 4684 0234 13       		.uleb128 0x13
 4685 0235 00       		.byte	0
 4686 0236 00       		.byte	0
 4687 0237 2A       		.uleb128 0x2a
 4688 0238 05       		.uleb128 0x5
 4689 0239 00       		.byte	0
 4690 023a 03       		.uleb128 0x3
 4691 023b 0E       		.uleb128 0xe
 4692 023c 3A       		.uleb128 0x3a
 4693 023d 0B       		.uleb128 0xb
 4694 023e 3B       		.uleb128 0x3b
 4695 023f 0B       		.uleb128 0xb
 4696 0240 49       		.uleb128 0x49
 4697 0241 13       		.uleb128 0x13
 4698 0242 02       		.uleb128 0x2
 4699 0243 17       		.uleb128 0x17
 4700 0244 00       		.byte	0
 4701 0245 00       		.byte	0
 4702 0246 2B       		.uleb128 0x2b
 4703 0247 34       		.uleb128 0x34
 4704 0248 00       		.byte	0
 4705 0249 03       		.uleb128 0x3
 4706 024a 0E       		.uleb128 0xe
 4707 024b 3A       		.uleb128 0x3a
 4708 024c 0B       		.uleb128 0xb
 4709 024d 3B       		.uleb128 0x3b
 4710 024e 0B       		.uleb128 0xb
 4711 024f 49       		.uleb128 0x49
 4712 0250 13       		.uleb128 0x13
 4713 0251 02       		.uleb128 0x2
 4714 0252 17       		.uleb128 0x17
 4715 0253 00       		.byte	0
 4716 0254 00       		.byte	0
 4717 0255 2C       		.uleb128 0x2c
 4718 0256 2E       		.uleb128 0x2e
 4719 0257 00       		.byte	0
 4720 0258 3F       		.uleb128 0x3f
 4721 0259 19       		.uleb128 0x19
 4722 025a 3C       		.uleb128 0x3c
 4723 025b 19       		.uleb128 0x19
 4724 025c 6E       		.uleb128 0x6e
 4725 025d 0E       		.uleb128 0xe
 4726 025e 03       		.uleb128 0x3
 4727 025f 0E       		.uleb128 0xe
 4728 0260 3A       		.uleb128 0x3a
 4729 0261 0B       		.uleb128 0xb
ARM GAS  C:\Users\strap\AppData\Local\Temp\ccQGFe6s.s 			page 96


 4730 0262 3B       		.uleb128 0x3b
 4731 0263 0B       		.uleb128 0xb
 4732 0264 00       		.byte	0
 4733 0265 00       		.byte	0
 4734 0266 2D       		.uleb128 0x2d
 4735 0267 2E       		.uleb128 0x2e
 4736 0268 00       		.byte	0
 4737 0269 3F       		.uleb128 0x3f
 4738 026a 19       		.uleb128 0x19
 4739 026b 3C       		.uleb128 0x3c
 4740 026c 19       		.uleb128 0x19
 4741 026d 6E       		.uleb128 0x6e
 4742 026e 0E       		.uleb128 0xe
 4743 026f 03       		.uleb128 0x3
 4744 0270 0E       		.uleb128 0xe
 4745 0271 3A       		.uleb128 0x3a
 4746 0272 0B       		.uleb128 0xb
 4747 0273 3B       		.uleb128 0x3b
 4748 0274 05       		.uleb128 0x5
 4749 0275 00       		.byte	0
 4750 0276 00       		.byte	0
 4751 0277 00       		.byte	0
 4752              		.section	.debug_loc,"",%progbits
 4753              	.Ldebug_loc0:
 4754              	.LLST0:
 4755 0000 00000000 		.4byte	.LVL0
 4756 0004 1A000000 		.4byte	.LVL6
 4757 0008 0100     		.2byte	0x1
 4758 000a 50       		.byte	0x50
 4759 000b 1A000000 		.4byte	.LVL6
 4760 000f 9C000000 		.4byte	.LFE41
 4761 0013 0400     		.2byte	0x4
 4762 0015 F3       		.byte	0xf3
 4763 0016 01       		.uleb128 0x1
 4764 0017 50       		.byte	0x50
 4765 0018 9F       		.byte	0x9f
 4766 0019 00000000 		.4byte	0
 4767 001d 00000000 		.4byte	0
 4768              	.LLST1:
 4769 0021 00000000 		.4byte	.LVL0
 4770 0025 1F000000 		.4byte	.LVL7-1
 4771 0029 0100     		.2byte	0x1
 4772 002b 51       		.byte	0x51
 4773 002c 1F000000 		.4byte	.LVL7-1
 4774 0030 9C000000 		.4byte	.LFE41
 4775 0034 0400     		.2byte	0x4
 4776 0036 F3       		.byte	0xf3
 4777 0037 01       		.uleb128 0x1
 4778 0038 51       		.byte	0x51
 4779 0039 9F       		.byte	0x9f
 4780 003a 00000000 		.4byte	0
 4781 003e 00000000 		.4byte	0
 4782              	.LLST2:
 4783 0042 00000000 		.4byte	.LVL0
 4784 0046 0E000000 		.4byte	.LVL3
 4785 004a 0100     		.2byte	0x1
 4786 004c 52       		.byte	0x52
ARM GAS  C:\Users\strap\AppData\Local\Temp\ccQGFe6s.s 			page 97


 4787 004d 0E000000 		.4byte	.LVL3
 4788 0051 9C000000 		.4byte	.LFE41
 4789 0055 0400     		.2byte	0x4
 4790 0057 F3       		.byte	0xf3
 4791 0058 01       		.uleb128 0x1
 4792 0059 52       		.byte	0x52
 4793 005a 9F       		.byte	0x9f
 4794 005b 00000000 		.4byte	0
 4795 005f 00000000 		.4byte	0
 4796              	.LLST3:
 4797 0063 00000000 		.4byte	.LVL0
 4798 0067 1F000000 		.4byte	.LVL7-1
 4799 006b 0100     		.2byte	0x1
 4800 006d 53       		.byte	0x53
 4801 006e 1F000000 		.4byte	.LVL7-1
 4802 0072 9C000000 		.4byte	.LFE41
 4803 0076 0100     		.2byte	0x1
 4804 0078 58       		.byte	0x58
 4805 0079 00000000 		.4byte	0
 4806 007d 00000000 		.4byte	0
 4807              	.LLST4:
 4808 0081 0A000000 		.4byte	.LVL2
 4809 0085 70000000 		.4byte	.LVL18
 4810 0089 0100     		.2byte	0x1
 4811 008b 56       		.byte	0x56
 4812 008c 82000000 		.4byte	.LVL20
 4813 0090 8A000000 		.4byte	.LVL23
 4814 0094 0100     		.2byte	0x1
 4815 0096 56       		.byte	0x56
 4816 0097 00000000 		.4byte	0
 4817 009b 00000000 		.4byte	0
 4818              	.LLST5:
 4819 009f 12000000 		.4byte	.LVL4
 4820 00a3 74000000 		.4byte	.LVL19
 4821 00a7 0100     		.2byte	0x1
 4822 00a9 57       		.byte	0x57
 4823 00aa 82000000 		.4byte	.LVL20
 4824 00ae 94000000 		.4byte	.LVL24
 4825 00b2 0100     		.2byte	0x1
 4826 00b4 57       		.byte	0x57
 4827 00b5 00000000 		.4byte	0
 4828 00b9 00000000 		.4byte	0
 4829              	.LLST6:
 4830 00bd 26000000 		.4byte	.LVL8
 4831 00c1 38000000 		.4byte	.LVL11
 4832 00c5 0100     		.2byte	0x1
 4833 00c7 55       		.byte	0x55
 4834 00c8 38000000 		.4byte	.LVL11
 4835 00cc 3C000000 		.4byte	.LVL12
 4836 00d0 0500     		.2byte	0x5
 4837 00d2 75       		.byte	0x75
 4838 00d3 00       		.sleb128 0
 4839 00d4 38       		.byte	0x38
 4840 00d5 26       		.byte	0x26
 4841 00d6 9F       		.byte	0x9f
 4842 00d7 4E000000 		.4byte	.LVL13
 4843 00db 50000000 		.4byte	.LVL14
ARM GAS  C:\Users\strap\AppData\Local\Temp\ccQGFe6s.s 			page 98


 4844 00df 0100     		.2byte	0x1
 4845 00e1 55       		.byte	0x55
 4846 00e2 50000000 		.4byte	.LVL14
 4847 00e6 54000000 		.4byte	.LVL15
 4848 00ea 0500     		.2byte	0x5
 4849 00ec 75       		.byte	0x75
 4850 00ed 00       		.sleb128 0
 4851 00ee 38       		.byte	0x38
 4852 00ef 26       		.byte	0x26
 4853 00f0 9F       		.byte	0x9f
 4854 00f1 00000000 		.4byte	0
 4855 00f5 00000000 		.4byte	0
 4856              	.LLST7:
 4857 00f9 32000000 		.4byte	.LVL10
 4858 00fd 6A000000 		.4byte	.LVL16
 4859 0101 0100     		.2byte	0x1
 4860 0103 54       		.byte	0x54
 4861 0104 6A000000 		.4byte	.LVL16
 4862 0108 6E000000 		.4byte	.LVL17
 4863 010c 0500     		.2byte	0x5
 4864 010e 74       		.byte	0x74
 4865 010f 00       		.sleb128 0
 4866 0110 38       		.byte	0x38
 4867 0111 26       		.byte	0x26
 4868 0112 9F       		.byte	0x9f
 4869 0113 6E000000 		.4byte	.LVL17
 4870 0117 82000000 		.4byte	.LVL20
 4871 011b 0A00     		.2byte	0xa
 4872 011d 70       		.byte	0x70
 4873 011e 00       		.sleb128 0
 4874 011f 37       		.byte	0x37
 4875 0120 26       		.byte	0x26
 4876 0121 08       		.byte	0x8
 4877 0122 7F       		.byte	0x7f
 4878 0123 1C       		.byte	0x1c
 4879 0124 38       		.byte	0x38
 4880 0125 26       		.byte	0x26
 4881 0126 9F       		.byte	0x9f
 4882 0127 82000000 		.4byte	.LVL20
 4883 012b 84000000 		.4byte	.LVL21
 4884 012f 0100     		.2byte	0x1
 4885 0131 54       		.byte	0x54
 4886 0132 84000000 		.4byte	.LVL21
 4887 0136 88000000 		.4byte	.LVL22
 4888 013a 0500     		.2byte	0x5
 4889 013c 74       		.byte	0x74
 4890 013d 00       		.sleb128 0
 4891 013e 38       		.byte	0x38
 4892 013f 26       		.byte	0x26
 4893 0140 9F       		.byte	0x9f
 4894 0141 88000000 		.4byte	.LVL22
 4895 0145 9C000000 		.4byte	.LFE41
 4896 0149 0900     		.2byte	0x9
 4897 014b 70       		.byte	0x70
 4898 014c 00       		.sleb128 0
 4899 014d 37       		.byte	0x37
 4900 014e 26       		.byte	0x26
ARM GAS  C:\Users\strap\AppData\Local\Temp\ccQGFe6s.s 			page 99


 4901 014f 23       		.byte	0x23
 4902 0150 7F       		.uleb128 0x7f
 4903 0151 38       		.byte	0x38
 4904 0152 26       		.byte	0x26
 4905 0153 9F       		.byte	0x9f
 4906 0154 00000000 		.4byte	0
 4907 0158 00000000 		.4byte	0
 4908              	.LLST8:
 4909 015c 00000000 		.4byte	.LVL25
 4910 0160 14000000 		.4byte	.LVL26
 4911 0164 0100     		.2byte	0x1
 4912 0166 50       		.byte	0x50
 4913 0167 14000000 		.4byte	.LVL26
 4914 016b F6010000 		.4byte	.LFE37
 4915 016f 0100     		.2byte	0x1
 4916 0171 54       		.byte	0x54
 4917 0172 00000000 		.4byte	0
 4918 0176 00000000 		.4byte	0
 4919              	.LLST9:
 4920 017a A2000000 		.4byte	.LVL31
 4921 017e AE000000 		.4byte	.LVL32
 4922 0182 0100     		.2byte	0x1
 4923 0184 50       		.byte	0x50
 4924 0185 00000000 		.4byte	0
 4925 0189 00000000 		.4byte	0
 4926              	.LLST10:
 4927 018d 1A010000 		.4byte	.LVL36
 4928 0191 22010000 		.4byte	.LVL37
 4929 0195 0100     		.2byte	0x1
 4930 0197 50       		.byte	0x50
 4931 0198 00000000 		.4byte	0
 4932 019c 00000000 		.4byte	0
 4933              	.LLST11:
 4934 01a0 88010000 		.4byte	.LVL41
 4935 01a4 90010000 		.4byte	.LVL42
 4936 01a8 0100     		.2byte	0x1
 4937 01aa 50       		.byte	0x50
 4938 01ab 00000000 		.4byte	0
 4939 01af 00000000 		.4byte	0
 4940              	.LLST12:
 4941 01b3 E6010000 		.4byte	.LVL44
 4942 01b7 EE010000 		.4byte	.LVL45
 4943 01bb 0100     		.2byte	0x1
 4944 01bd 50       		.byte	0x50
 4945 01be 00000000 		.4byte	0
 4946 01c2 00000000 		.4byte	0
 4947              	.LLST13:
 4948 01c6 00000000 		.4byte	.LVL47
 4949 01ca 14000000 		.4byte	.LVL48
 4950 01ce 0100     		.2byte	0x1
 4951 01d0 50       		.byte	0x50
 4952 01d1 14000000 		.4byte	.LVL48
 4953 01d5 FC010000 		.4byte	.LFE38
 4954 01d9 0100     		.2byte	0x1
 4955 01db 54       		.byte	0x54
 4956 01dc 00000000 		.4byte	0
 4957 01e0 00000000 		.4byte	0
ARM GAS  C:\Users\strap\AppData\Local\Temp\ccQGFe6s.s 			page 100


 4958              	.LLST14:
 4959 01e4 A2000000 		.4byte	.LVL53
 4960 01e8 AE000000 		.4byte	.LVL54
 4961 01ec 0100     		.2byte	0x1
 4962 01ee 50       		.byte	0x50
 4963 01ef 00000000 		.4byte	0
 4964 01f3 00000000 		.4byte	0
 4965              	.LLST15:
 4966 01f7 1E010000 		.4byte	.LVL58
 4967 01fb 26010000 		.4byte	.LVL59
 4968 01ff 0100     		.2byte	0x1
 4969 0201 50       		.byte	0x50
 4970 0202 00000000 		.4byte	0
 4971 0206 00000000 		.4byte	0
 4972              	.LLST16:
 4973 020a 8E010000 		.4byte	.LVL63
 4974 020e 96010000 		.4byte	.LVL64
 4975 0212 0100     		.2byte	0x1
 4976 0214 50       		.byte	0x50
 4977 0215 00000000 		.4byte	0
 4978 0219 00000000 		.4byte	0
 4979              	.LLST17:
 4980 021d EC010000 		.4byte	.LVL66
 4981 0221 F4010000 		.4byte	.LVL67
 4982 0225 0100     		.2byte	0x1
 4983 0227 50       		.byte	0x50
 4984 0228 00000000 		.4byte	0
 4985 022c 00000000 		.4byte	0
 4986              	.LLST18:
 4987 0230 00000000 		.4byte	.LVL69
 4988 0234 14000000 		.4byte	.LVL70
 4989 0238 0100     		.2byte	0x1
 4990 023a 50       		.byte	0x50
 4991 023b 14000000 		.4byte	.LVL70
 4992 023f FE010000 		.4byte	.LFE39
 4993 0243 0100     		.2byte	0x1
 4994 0245 54       		.byte	0x54
 4995 0246 00000000 		.4byte	0
 4996 024a 00000000 		.4byte	0
 4997              	.LLST19:
 4998 024e A2000000 		.4byte	.LVL75
 4999 0252 AE000000 		.4byte	.LVL76
 5000 0256 0100     		.2byte	0x1
 5001 0258 50       		.byte	0x50
 5002 0259 00000000 		.4byte	0
 5003 025d 00000000 		.4byte	0
 5004              	.LLST20:
 5005 0261 20010000 		.4byte	.LVL80
 5006 0265 28010000 		.4byte	.LVL81
 5007 0269 0100     		.2byte	0x1
 5008 026b 50       		.byte	0x50
 5009 026c 00000000 		.4byte	0
 5010 0270 00000000 		.4byte	0
 5011              	.LLST21:
 5012 0274 90010000 		.4byte	.LVL85
 5013 0278 98010000 		.4byte	.LVL86
 5014 027c 0100     		.2byte	0x1
ARM GAS  C:\Users\strap\AppData\Local\Temp\ccQGFe6s.s 			page 101


 5015 027e 50       		.byte	0x50
 5016 027f 00000000 		.4byte	0
 5017 0283 00000000 		.4byte	0
 5018              	.LLST22:
 5019 0287 EE010000 		.4byte	.LVL88
 5020 028b F6010000 		.4byte	.LVL89
 5021 028f 0100     		.2byte	0x1
 5022 0291 50       		.byte	0x50
 5023 0292 00000000 		.4byte	0
 5024 0296 00000000 		.4byte	0
 5025              	.LLST23:
 5026 029a 00000000 		.4byte	.LVL91
 5027 029e 14000000 		.4byte	.LVL92
 5028 02a2 0100     		.2byte	0x1
 5029 02a4 50       		.byte	0x50
 5030 02a5 14000000 		.4byte	.LVL92
 5031 02a9 FA010000 		.4byte	.LFE40
 5032 02ad 0100     		.2byte	0x1
 5033 02af 54       		.byte	0x54
 5034 02b0 00000000 		.4byte	0
 5035 02b4 00000000 		.4byte	0
 5036              	.LLST24:
 5037 02b8 A2000000 		.4byte	.LVL97
 5038 02bc AE000000 		.4byte	.LVL98
 5039 02c0 0100     		.2byte	0x1
 5040 02c2 50       		.byte	0x50
 5041 02c3 00000000 		.4byte	0
 5042 02c7 00000000 		.4byte	0
 5043              	.LLST25:
 5044 02cb 20010000 		.4byte	.LVL102
 5045 02cf 28010000 		.4byte	.LVL103
 5046 02d3 0100     		.2byte	0x1
 5047 02d5 50       		.byte	0x50
 5048 02d6 00000000 		.4byte	0
 5049 02da 00000000 		.4byte	0
 5050              	.LLST26:
 5051 02de 8E010000 		.4byte	.LVL107
 5052 02e2 96010000 		.4byte	.LVL108
 5053 02e6 0100     		.2byte	0x1
 5054 02e8 50       		.byte	0x50
 5055 02e9 00000000 		.4byte	0
 5056 02ed 00000000 		.4byte	0
 5057              	.LLST27:
 5058 02f1 EA010000 		.4byte	.LVL110
 5059 02f5 F2010000 		.4byte	.LVL111
 5060 02f9 0100     		.2byte	0x1
 5061 02fb 50       		.byte	0x50
 5062 02fc 00000000 		.4byte	0
 5063 0300 00000000 		.4byte	0
 5064              	.LLST28:
 5065 0304 00000000 		.4byte	.LVL113
 5066 0308 38000000 		.4byte	.LVL117
 5067 030c 0100     		.2byte	0x1
 5068 030e 50       		.byte	0x50
 5069 030f 38000000 		.4byte	.LVL117
 5070 0313 2C020000 		.4byte	.LFE36
 5071 0317 0400     		.2byte	0x4
ARM GAS  C:\Users\strap\AppData\Local\Temp\ccQGFe6s.s 			page 102


 5072 0319 F3       		.byte	0xf3
 5073 031a 01       		.uleb128 0x1
 5074 031b 50       		.byte	0x50
 5075 031c 9F       		.byte	0x9f
 5076 031d 00000000 		.4byte	0
 5077 0321 00000000 		.4byte	0
 5078              	.LLST29:
 5079 0325 00000000 		.4byte	.LVL113
 5080 0329 3B000000 		.4byte	.LVL118-1
 5081 032d 0100     		.2byte	0x1
 5082 032f 51       		.byte	0x51
 5083 0330 3B000000 		.4byte	.LVL118-1
 5084 0334 2C020000 		.4byte	.LFE36
 5085 0338 0400     		.2byte	0x4
 5086 033a F3       		.byte	0xf3
 5087 033b 01       		.uleb128 0x1
 5088 033c 51       		.byte	0x51
 5089 033d 9F       		.byte	0x9f
 5090 033e 00000000 		.4byte	0
 5091 0342 00000000 		.4byte	0
 5092              	.LLST30:
 5093 0346 00000000 		.4byte	.LVL113
 5094 034a 3B000000 		.4byte	.LVL118-1
 5095 034e 0100     		.2byte	0x1
 5096 0350 52       		.byte	0x52
 5097 0351 3B000000 		.4byte	.LVL118-1
 5098 0355 2C020000 		.4byte	.LFE36
 5099 0359 0400     		.2byte	0x4
 5100 035b F3       		.byte	0xf3
 5101 035c 01       		.uleb128 0x1
 5102 035d 52       		.byte	0x52
 5103 035e 9F       		.byte	0x9f
 5104 035f 00000000 		.4byte	0
 5105 0363 00000000 		.4byte	0
 5106              	.LLST31:
 5107 0367 00000000 		.4byte	.LVL113
 5108 036b 14000000 		.4byte	.LVL114
 5109 036f 0100     		.2byte	0x1
 5110 0371 53       		.byte	0x53
 5111 0372 14000000 		.4byte	.LVL114
 5112 0376 B8000000 		.4byte	.LVL120
 5113 037a 0400     		.2byte	0x4
 5114 037c F3       		.byte	0xf3
 5115 037d 01       		.uleb128 0x1
 5116 037e 53       		.byte	0x53
 5117 037f 9F       		.byte	0x9f
 5118 0380 B8000000 		.4byte	.LVL120
 5119 0384 20020000 		.4byte	.LVL140
 5120 0388 0100     		.2byte	0x1
 5121 038a 56       		.byte	0x56
 5122 038b 00000000 		.4byte	0
 5123 038f 00000000 		.4byte	0
 5124              	.LLST32:
 5125 0393 00000000 		.4byte	.LVL113
 5126 0397 C4000000 		.4byte	.LVL121
 5127 039b 0200     		.2byte	0x2
 5128 039d 91       		.byte	0x91
ARM GAS  C:\Users\strap\AppData\Local\Temp\ccQGFe6s.s 			page 103


 5129 039e 00       		.sleb128 0
 5130 039f C4000000 		.4byte	.LVL121
 5131 03a3 28010000 		.4byte	.LVL129
 5132 03a7 0100     		.2byte	0x1
 5133 03a9 55       		.byte	0x55
 5134 03aa 28010000 		.4byte	.LVL129
 5135 03ae 49010000 		.4byte	.LVL130-1
 5136 03b2 0300     		.2byte	0x3
 5137 03b4 91       		.byte	0x91
 5138 03b5 FC7D     		.sleb128 -260
 5139 03b7 49010000 		.4byte	.LVL130-1
 5140 03bb 5E010000 		.4byte	.LVL134
 5141 03bf 0100     		.2byte	0x1
 5142 03c1 59       		.byte	0x59
 5143 03c2 5E010000 		.4byte	.LVL134
 5144 03c6 68010000 		.4byte	.LVL135
 5145 03ca 0100     		.2byte	0x1
 5146 03cc 55       		.byte	0x55
 5147 03cd 68010000 		.4byte	.LVL135
 5148 03d1 20020000 		.4byte	.LVL140
 5149 03d5 0100     		.2byte	0x1
 5150 03d7 59       		.byte	0x59
 5151 03d8 00000000 		.4byte	0
 5152 03dc 00000000 		.4byte	0
 5153              	.LLST33:
 5154 03e0 00000000 		.4byte	.LVL113
 5155 03e4 26020000 		.4byte	.LVL141
 5156 03e8 0200     		.2byte	0x2
 5157 03ea 91       		.byte	0x91
 5158 03eb 04       		.sleb128 4
 5159 03ec 26020000 		.4byte	.LVL141
 5160 03f0 2C020000 		.4byte	.LFE36
 5161 03f4 0200     		.2byte	0x2
 5162 03f6 7D       		.byte	0x7d
 5163 03f7 04       		.sleb128 4
 5164 03f8 00000000 		.4byte	0
 5165 03fc 00000000 		.4byte	0
 5166              	.LLST34:
 5167 0400 00000000 		.4byte	.LVL113
 5168 0404 26020000 		.4byte	.LVL141
 5169 0408 0200     		.2byte	0x2
 5170 040a 91       		.byte	0x91
 5171 040b 08       		.sleb128 8
 5172 040c 26020000 		.4byte	.LVL141
 5173 0410 2C020000 		.4byte	.LFE36
 5174 0414 0200     		.2byte	0x2
 5175 0416 7D       		.byte	0x7d
 5176 0417 08       		.sleb128 8
 5177 0418 00000000 		.4byte	0
 5178 041c 00000000 		.4byte	0
 5179              	.LLST35:
 5180 0420 2E000000 		.4byte	.LVL115
 5181 0424 20020000 		.4byte	.LVL140
 5182 0428 0100     		.2byte	0x1
 5183 042a 58       		.byte	0x58
 5184 042b 00000000 		.4byte	0
 5185 042f 00000000 		.4byte	0
ARM GAS  C:\Users\strap\AppData\Local\Temp\ccQGFe6s.s 			page 104


 5186              	.LLST36:
 5187 0433 E4000000 		.4byte	.LVL124
 5188 0437 20020000 		.4byte	.LVL140
 5189 043b 0300     		.2byte	0x3
 5190 043d 91       		.byte	0x91
 5191 043e E87D     		.sleb128 -280
 5192 0440 00000000 		.4byte	0
 5193 0444 00000000 		.4byte	0
 5194              	.LLST37:
 5195 0448 EE000000 		.4byte	.LVL125
 5196 044c F0000000 		.4byte	.LVL126
 5197 0450 0100     		.2byte	0x1
 5198 0452 53       		.byte	0x53
 5199 0453 F2000000 		.4byte	.LVL127
 5200 0457 FE000000 		.4byte	.LVL128
 5201 045b 0100     		.2byte	0x1
 5202 045d 53       		.byte	0x53
 5203 045e 5E010000 		.4byte	.LVL134
 5204 0462 67010000 		.4byte	.LVL135-1
 5205 0466 0100     		.2byte	0x1
 5206 0468 53       		.byte	0x53
 5207 0469 00000000 		.4byte	0
 5208 046d 00000000 		.4byte	0
 5209              		.section	.debug_aranges,"",%progbits
 5210 0000 44000000 		.4byte	0x44
 5211 0004 0200     		.2byte	0x2
 5212 0006 00000000 		.4byte	.Ldebug_info0
 5213 000a 04       		.byte	0x4
 5214 000b 00       		.byte	0
 5215 000c 0000     		.2byte	0
 5216 000e 0000     		.2byte	0
 5217 0010 00000000 		.4byte	.LFB41
 5218 0014 9C000000 		.4byte	.LFE41-.LFB41
 5219 0018 00000000 		.4byte	.LFB37
 5220 001c F6010000 		.4byte	.LFE37-.LFB37
 5221 0020 00000000 		.4byte	.LFB38
 5222 0024 FC010000 		.4byte	.LFE38-.LFB38
 5223 0028 00000000 		.4byte	.LFB39
 5224 002c FE010000 		.4byte	.LFE39-.LFB39
 5225 0030 00000000 		.4byte	.LFB40
 5226 0034 FA010000 		.4byte	.LFE40-.LFB40
 5227 0038 00000000 		.4byte	.LFB36
 5228 003c 2C020000 		.4byte	.LFE36-.LFB36
 5229 0040 00000000 		.4byte	0
 5230 0044 00000000 		.4byte	0
 5231              		.section	.debug_ranges,"",%progbits
 5232              	.Ldebug_ranges0:
 5233 0000 00000000 		.4byte	.LFB41
 5234 0004 9C000000 		.4byte	.LFE41
 5235 0008 00000000 		.4byte	.LFB37
 5236 000c F6010000 		.4byte	.LFE37
 5237 0010 00000000 		.4byte	.LFB38
 5238 0014 FC010000 		.4byte	.LFE38
 5239 0018 00000000 		.4byte	.LFB39
 5240 001c FE010000 		.4byte	.LFE39
 5241 0020 00000000 		.4byte	.LFB40
 5242 0024 FA010000 		.4byte	.LFE40
ARM GAS  C:\Users\strap\AppData\Local\Temp\ccQGFe6s.s 			page 105


 5243 0028 00000000 		.4byte	.LFB36
 5244 002c 2C020000 		.4byte	.LFE36
 5245 0030 00000000 		.4byte	0
 5246 0034 00000000 		.4byte	0
 5247              		.section	.debug_line,"",%progbits
 5248              	.Ldebug_line0:
 5249 0000 67050000 		.section	.debug_str,"MS",%progbits,1
 5249      0200BE02 
 5249      00000201 
 5249      FB0E0D00 
 5249      01010101 
 5250              	.LASF129:
 5251 0000 70617474 		.ascii	"pattern_blend_mode\000"
 5251      65726E5F 
 5251      626C656E 
 5251      645F6D6F 
 5251      646500
 5252              	.LASF56:
 5253 0013 4C565F4F 		.ascii	"LV_OPA_COVER\000"
 5253      50415F43 
 5253      4F564552 
 5253      00
 5254              	.LASF168:
 5255 0020 616E676C 		.ascii	"angle_gap\000"
 5255      655F6761 
 5255      7000
 5256              	.LASF142:
 5257 002a 63656E74 		.ascii	"center_y\000"
 5257      65725F79 
 5257      00
 5258              	.LASF61:
 5259 0033 66756C6C 		.ascii	"full\000"
 5259      00
 5260              	.LASF81:
 5261 0038 73746172 		.ascii	"start_line\000"
 5261      745F6C69 
 5261      6E6500
 5262              	.LASF54:
 5263 0043 4C565F4F 		.ascii	"LV_OPA_90\000"
 5263      50415F39 
 5263      3000
 5264              	.LASF175:
 5265 004d 6C765F64 		.ascii	"lv_draw_mask_angle_init\000"
 5265      7261775F 
 5265      6D61736B 
 5265      5F616E67 
 5265      6C655F69 
 5266              	.LASF45:
 5267 0065 4C565F4F 		.ascii	"LV_OPA_0\000"
 5267      50415F30 
 5267      00
 5268              	.LASF107:
 5269 006e 626F7264 		.ascii	"border_side\000"
 5269      65725F73 
 5269      69646500 
 5270              	.LASF14:
 5271 007a 756E7369 		.ascii	"unsigned int\000"
ARM GAS  C:\Users\strap\AppData\Local\Temp\ccQGFe6s.s 			page 106


 5271      676E6564 
 5271      20696E74 
 5271      00
 5272              	.LASF32:
 5273 0087 6F66735F 		.ascii	"ofs_x\000"
 5273      7800
 5274              	.LASF33:
 5275 008d 6F66735F 		.ascii	"ofs_y\000"
 5275      7900
 5276              	.LASF165:
 5277 0093 61726561 		.ascii	"area\000"
 5277      00
 5278              	.LASF35:
 5279 0098 6765745F 		.ascii	"get_glyph_dsc\000"
 5279      676C7970 
 5279      685F6473 
 5279      6300
 5280              	.LASF26:
 5281 00a6 6C765F70 		.ascii	"lv_point_t\000"
 5281      6F696E74 
 5281      5F7400
 5282              	.LASF93:
 5283 00b1 726F756E 		.ascii	"round_start\000"
 5283      645F7374 
 5283      61727400 
 5284              	.LASF8:
 5285 00bd 5F5F696E 		.ascii	"__int32_t\000"
 5285      7433325F 
 5285      7400
 5286              	.LASF114:
 5287 00c7 6F75746C 		.ascii	"outline_opa\000"
 5287      696E655F 
 5287      6F706100 
 5288              	.LASF71:
 5289 00d3 73696465 		.ascii	"side\000"
 5289      00
 5290              	.LASF122:
 5291 00d8 73686164 		.ascii	"shadow_blend_mode\000"
 5291      6F775F62 
 5291      6C656E64 
 5291      5F6D6F64 
 5291      6500
 5292              	.LASF176:
 5293 00ea 6C765F64 		.ascii	"lv_draw_mask_add\000"
 5293      7261775F 
 5293      6D61736B 
 5293      5F616464 
 5293      00
 5294              	.LASF174:
 5295 00fb 6C765F64 		.ascii	"lv_draw_rect_dsc_init\000"
 5295      7261775F 
 5295      72656374 
 5295      5F647363 
 5295      5F696E69 
 5296              	.LASF126:
 5297 0111 70617474 		.ascii	"pattern_opa\000"
 5297      65726E5F 
ARM GAS  C:\Users\strap\AppData\Local\Temp\ccQGFe6s.s 			page 107


 5297      6F706100 
 5298              	.LASF82:
 5299 011d 656E645F 		.ascii	"end_line\000"
 5299      6C696E65 
 5299      00
 5300              	.LASF70:
 5301 0126 6C765F64 		.ascii	"lv_draw_mask_common_dsc_t\000"
 5301      7261775F 
 5301      6D61736B 
 5301      5F636F6D 
 5301      6D6F6E5F 
 5302              	.LASF161:
 5303 0140 64726177 		.ascii	"draw_quarter_1\000"
 5303      5F717561 
 5303      72746572 
 5303      5F3100
 5304              	.LASF162:
 5305 014f 64726177 		.ascii	"draw_quarter_2\000"
 5305      5F717561 
 5305      72746572 
 5305      5F3200
 5306              	.LASF163:
 5307 015e 64726177 		.ascii	"draw_quarter_3\000"
 5307      5F717561 
 5307      72746572 
 5307      5F3300
 5308              	.LASF116:
 5309 016d 73686164 		.ascii	"shadow_color\000"
 5309      6F775F63 
 5309      6F6C6F72 
 5309      00
 5310              	.LASF94:
 5311 017a 726F756E 		.ascii	"round_end\000"
 5311      645F656E 
 5311      6400
 5312              	.LASF130:
 5313 0184 76616C75 		.ascii	"value_str\000"
 5313      655F7374 
 5313      7200
 5314              	.LASF144:
 5315 018e 656E645F 		.ascii	"end_quarter\000"
 5315      71756172 
 5315      74657200 
 5316              	.LASF40:
 5317 019a 756E6465 		.ascii	"underline_thickness\000"
 5317      726C696E 
 5317      655F7468 
 5317      69636B6E 
 5317      65737300 
 5318              	.LASF167:
 5319 01ae 6D61736B 		.ascii	"mask_angle_id\000"
 5319      5F616E67 
 5319      6C655F69 
 5319      6400
 5320              	.LASF20:
 5321 01bc 75696E74 		.ascii	"uint32_t\000"
 5321      33325F74 
ARM GAS  C:\Users\strap\AppData\Local\Temp\ccQGFe6s.s 			page 108


 5321      00
 5322              	.LASF15:
 5323 01c5 696E7438 		.ascii	"int8_t\000"
 5323      5F7400
 5324              	.LASF83:
 5325 01cc 64656C74 		.ascii	"delta_deg\000"
 5325      615F6465 
 5325      6700
 5326              	.LASF108:
 5327 01d6 626F7264 		.ascii	"border_opa\000"
 5327      65725F6F 
 5327      706100
 5328              	.LASF39:
 5329 01e1 756E6465 		.ascii	"underline_position\000"
 5329      726C696E 
 5329      655F706F 
 5329      73697469 
 5329      6F6E00
 5330              	.LASF170:
 5331 01f4 726F756E 		.ascii	"round_area\000"
 5331      645F6172 
 5331      656100
 5332              	.LASF17:
 5333 01ff 696E7431 		.ascii	"int16_t\000"
 5333      365F7400 
 5334              	.LASF13:
 5335 0207 6C6F6E67 		.ascii	"long long unsigned int\000"
 5335      206C6F6E 
 5335      6720756E 
 5335      7369676E 
 5335      65642069 
 5336              	.LASF44:
 5337 021e 4C565F4F 		.ascii	"LV_OPA_TRANSP\000"
 5337      50415F54 
 5337      52414E53 
 5337      5000
 5338              	.LASF106:
 5339 022c 626F7264 		.ascii	"border_width\000"
 5339      65725F77 
 5339      69647468 
 5339      00
 5340              	.LASF6:
 5341 0239 5F5F7569 		.ascii	"__uint16_t\000"
 5341      6E743136 
 5341      5F7400
 5342              	.LASF152:
 5343 0244 74686963 		.ascii	"thick_half\000"
 5343      6B5F6861 
 5343      6C6600
 5344              	.LASF88:
 5345 024f 636F6C6F 		.ascii	"color\000"
 5345      7200
 5346              	.LASF178:
 5347 0255 474E5520 		.ascii	"GNU C11 5.4.1 20160609 (release) [ARM/embedded-5-br"
 5347      43313120 
 5347      352E342E 
 5347      31203230 
ARM GAS  C:\Users\strap\AppData\Local\Temp\ccQGFe6s.s 			page 109


 5347      31363036 
 5348 0288 616E6368 		.ascii	"anch revision 237715] -mcpu=cortex-m3 -mthumb -g -O"
 5348      20726576 
 5348      6973696F 
 5348      6E203233 
 5348      37373135 
 5349 02bb 67202D66 		.ascii	"g -ffunction-sections -ffat-lto-objects\000"
 5349      66756E63 
 5349      74696F6E 
 5349      2D736563 
 5349      74696F6E 
 5350              	.LASF65:
 5351 02e3 6C765F64 		.ascii	"lv_draw_mask_res_t\000"
 5351      7261775F 
 5351      6D61736B 
 5351      5F726573 
 5351      5F7400
 5352              	.LASF91:
 5353 02f6 64617368 		.ascii	"dash_gap\000"
 5353      5F676170 
 5353      00
 5354              	.LASF67:
 5355 02ff 6C765F64 		.ascii	"lv_draw_mask_xcb_t\000"
 5355      7261775F 
 5355      6D61736B 
 5355      5F786362 
 5355      5F7400
 5356              	.LASF182:
 5357 0312 6C765F64 		.ascii	"lv_draw_arc\000"
 5357      7261775F 
 5357      61726300 
 5358              	.LASF121:
 5359 031e 73686164 		.ascii	"shadow_opa\000"
 5359      6F775F6F 
 5359      706100
 5360              	.LASF132:
 5361 0329 76616C75 		.ascii	"value_opa\000"
 5361      655F6F70 
 5361      6100
 5362              	.LASF89:
 5363 0333 77696474 		.ascii	"width\000"
 5363      6800
 5364              	.LASF127:
 5365 0339 70617474 		.ascii	"pattern_recolor_opa\000"
 5365      65726E5F 
 5365      7265636F 
 5365      6C6F725F 
 5365      6F706100 
 5366              	.LASF42:
 5367 034d 5F426F6F 		.ascii	"_Bool\000"
 5367      6C00
 5368              	.LASF181:
 5369 0353 5F6C765F 		.ascii	"_lv_font_struct\000"
 5369      666F6E74 
 5369      5F737472 
 5369      75637400 
 5370              	.LASF85:
ARM GAS  C:\Users\strap\AppData\Local\Temp\ccQGFe6s.s 			page 110


 5371 0363 6C765F62 		.ascii	"lv_blend_mode_t\000"
 5371      6C656E64 
 5371      5F6D6F64 
 5371      655F7400 
 5372              	.LASF111:
 5373 0373 6F75746C 		.ascii	"outline_color\000"
 5373      696E655F 
 5373      636F6C6F 
 5373      7200
 5374              	.LASF78:
 5375 0381 76657274 		.ascii	"vertex_p\000"
 5375      65785F70 
 5375      00
 5376              	.LASF37:
 5377 038a 6C696E65 		.ascii	"line_height\000"
 5377      5F686569 
 5377      67687400 
 5378              	.LASF143:
 5379 0396 73746172 		.ascii	"start_quarter\000"
 5379      745F7175 
 5379      61727465 
 5379      7200
 5380              	.LASF124:
 5381 03a4 70617474 		.ascii	"pattern_font\000"
 5381      65726E5F 
 5381      666F6E74 
 5381      00
 5382              	.LASF25:
 5383 03b1 63686172 		.ascii	"char\000"
 5383      00
 5384              	.LASF84:
 5385 03b6 6C765F64 		.ascii	"lv_draw_mask_angle_param_t\000"
 5385      7261775F 
 5385      6D61736B 
 5385      5F616E67 
 5385      6C655F70 
 5386              	.LASF153:
 5387 03d1 74686963 		.ascii	"thick_corr\000"
 5387      6B5F636F 
 5387      727200
 5388              	.LASF177:
 5389 03dc 6C765F64 		.ascii	"lv_draw_mask_remove_id\000"
 5389      7261775F 
 5389      6D61736B 
 5389      5F72656D 
 5389      6F76655F 
 5390              	.LASF95:
 5391 03f3 7261775F 		.ascii	"raw_end\000"
 5391      656E6400 
 5392              	.LASF34:
 5393 03fb 6C765F66 		.ascii	"lv_font_glyph_dsc_t\000"
 5393      6F6E745F 
 5393      676C7970 
 5393      685F6473 
 5393      635F7400 
 5394              	.LASF137:
 5395 040f 76616C75 		.ascii	"value_line_space\000"
ARM GAS  C:\Users\strap\AppData\Local\Temp\ccQGFe6s.s 			page 111


 5395      655F6C69 
 5395      6E655F73 
 5395      70616365 
 5395      00
 5396              	.LASF16:
 5397 0420 75696E74 		.ascii	"uint8_t\000"
 5397      385F7400 
 5398              	.LASF74:
 5399 0428 79785F73 		.ascii	"yx_steep\000"
 5399      74656570 
 5399      00
 5400              	.LASF112:
 5401 0431 6F75746C 		.ascii	"outline_width\000"
 5401      696E655F 
 5401      77696474 
 5401      6800
 5402              	.LASF128:
 5403 043f 70617474 		.ascii	"pattern_repeat\000"
 5403      65726E5F 
 5403      72657065 
 5403      617400
 5404              	.LASF115:
 5405 044e 6F75746C 		.ascii	"outline_blend_mode\000"
 5405      696E655F 
 5405      626C656E 
 5405      645F6D6F 
 5405      646500
 5406              	.LASF41:
 5407 0461 75736572 		.ascii	"user_data\000"
 5407      5F646174 
 5407      6100
 5408              	.LASF75:
 5409 046b 73746565 		.ascii	"steep\000"
 5409      7000
 5410              	.LASF90:
 5411 0471 64617368 		.ascii	"dash_width\000"
 5411      5F776964 
 5411      746800
 5412              	.LASF22:
 5413 047c 6C765F66 		.ascii	"lv_font_user_data_t\000"
 5413      6F6E745F 
 5413      75736572 
 5413      5F646174 
 5413      615F7400 
 5414              	.LASF46:
 5415 0490 4C565F4F 		.ascii	"LV_OPA_10\000"
 5415      50415F31 
 5415      3000
 5416              	.LASF12:
 5417 049a 6C6F6E67 		.ascii	"long long int\000"
 5417      206C6F6E 
 5417      6720696E 
 5417      7400
 5418              	.LASF140:
 5419 04a8 6C765F64 		.ascii	"lv_draw_rect_dsc_t\000"
 5419      7261775F 
 5419      72656374 
ARM GAS  C:\Users\strap\AppData\Local\Temp\ccQGFe6s.s 			page 112


 5419      5F647363 
 5419      5F7400
 5420              	.LASF133:
 5421 04bb 76616C75 		.ascii	"value_color\000"
 5421      655F636F 
 5421      6C6F7200 
 5422              	.LASF148:
 5423 04c7 71756172 		.ascii	"quarter_draw_dsc_t\000"
 5423      7465725F 
 5423      64726177 
 5423      5F647363 
 5423      5F7400
 5424              	.LASF92:
 5425 04da 626C656E 		.ascii	"blend_mode\000"
 5425      645F6D6F 
 5425      646500
 5426              	.LASF103:
 5427 04e5 62675F6F 		.ascii	"bg_opa\000"
 5427      706100
 5428              	.LASF28:
 5429 04ec 6C765F61 		.ascii	"lv_align_t\000"
 5429      6C69676E 
 5429      5F7400
 5430              	.LASF160:
 5431 04f7 71756172 		.ascii	"quarter_area\000"
 5431      7465725F 
 5431      61726561 
 5431      00
 5432              	.LASF113:
 5433 0504 6F75746C 		.ascii	"outline_pad\000"
 5433      696E655F 
 5433      70616400 
 5434              	.LASF120:
 5435 0510 73686164 		.ascii	"shadow_spread\000"
 5435      6F775F73 
 5435      70726561 
 5435      6400
 5436              	.LASF118:
 5437 051e 73686164 		.ascii	"shadow_ofs_x\000"
 5437      6F775F6F 
 5437      66735F78 
 5437      00
 5438              	.LASF119:
 5439 052b 73686164 		.ascii	"shadow_ofs_y\000"
 5439      6F775F6F 
 5439      66735F79 
 5439      00
 5440              	.LASF4:
 5441 0538 5F5F696E 		.ascii	"__int16_t\000"
 5441      7431365F 
 5441      7400
 5442              	.LASF77:
 5443 0542 6C765F64 		.ascii	"lv_draw_mask_line_param_t\000"
 5443      7261775F 
 5443      6D61736B 
 5443      5F6C696E 
 5443      655F7061 
ARM GAS  C:\Users\strap\AppData\Local\Temp\ccQGFe6s.s 			page 113


 5444              	.LASF86:
 5445 055c 6C765F67 		.ascii	"lv_grad_dir_t\000"
 5445      7261645F 
 5445      6469725F 
 5445      7400
 5446              	.LASF72:
 5447 056a 6F726967 		.ascii	"origo\000"
 5447      6F00
 5448              	.LASF105:
 5449 0570 626F7264 		.ascii	"border_color\000"
 5449      65725F63 
 5449      6F6C6F72 
 5449      00
 5450              	.LASF47:
 5451 057d 4C565F4F 		.ascii	"LV_OPA_20\000"
 5451      50415F32 
 5451      3000
 5452              	.LASF136:
 5453 0587 76616C75 		.ascii	"value_letter_space\000"
 5453      655F6C65 
 5453      74746572 
 5453      5F737061 
 5453      636500
 5454              	.LASF171:
 5455 059a 5F6C765F 		.ascii	"_lv_trigo_sin\000"
 5455      74726967 
 5455      6F5F7369 
 5455      6E00
 5456              	.LASF139:
 5457 05a8 76616C75 		.ascii	"value_blend_mode\000"
 5457      655F626C 
 5457      656E645F 
 5457      6D6F6465 
 5457      00
 5458              	.LASF158:
 5459 05b9 6765745F 		.ascii	"get_rounded_area\000"
 5459      726F756E 
 5459      6465645F 
 5459      61726561 
 5459      00
 5460              	.LASF156:
 5461 05ca 6369725F 		.ascii	"cir_x\000"
 5461      7800
 5462              	.LASF157:
 5463 05d0 6369725F 		.ascii	"cir_y\000"
 5463      7900
 5464              	.LASF57:
 5465 05d6 73756270 		.ascii	"subpx\000"
 5465      7800
 5466              	.LASF63:
 5467 05dc 6C765F63 		.ascii	"lv_color_t\000"
 5467      6F6C6F72 
 5467      5F7400
 5468              	.LASF0:
 5469 05e7 5F5F696E 		.ascii	"__int8_t\000"
 5469      74385F74 
 5469      00
ARM GAS  C:\Users\strap\AppData\Local\Temp\ccQGFe6s.s 			page 114


 5470              	.LASF48:
 5471 05f0 4C565F4F 		.ascii	"LV_OPA_30\000"
 5471      50415F33 
 5471      3000
 5472              	.LASF23:
 5473 05fa 6C6F6E67 		.ascii	"long double\000"
 5473      20646F75 
 5473      626C6500 
 5474              	.LASF151:
 5475 0606 7265735F 		.ascii	"res_area\000"
 5475      61726561 
 5475      00
 5476              	.LASF18:
 5477 060f 75696E74 		.ascii	"uint16_t\000"
 5477      31365F74 
 5477      00
 5478              	.LASF62:
 5479 0618 6C765F63 		.ascii	"lv_color16_t\000"
 5479      6F6C6F72 
 5479      31365F74 
 5479      00
 5480              	.LASF87:
 5481 0625 6C765F73 		.ascii	"lv_style_int_t\000"
 5481      74796C65 
 5481      5F696E74 
 5481      5F7400
 5482              	.LASF164:
 5483 0634 6369725F 		.ascii	"cir_dsc\000"
 5483      64736300 
 5484              	.LASF149:
 5485 063c 616E676C 		.ascii	"angle\000"
 5485      6500
 5486              	.LASF173:
 5487 0642 6C765F64 		.ascii	"lv_draw_rect\000"
 5487      7261775F 
 5487      72656374 
 5487      00
 5488              	.LASF73:
 5489 064f 78795F73 		.ascii	"xy_steep\000"
 5489      74656570 
 5489      00
 5490              	.LASF43:
 5491 0658 6C765F66 		.ascii	"lv_font_t\000"
 5491      6F6E745F 
 5491      7400
 5492              	.LASF5:
 5493 0662 73686F72 		.ascii	"short int\000"
 5493      7420696E 
 5493      7400
 5494              	.LASF64:
 5495 066c 6C765F6F 		.ascii	"lv_opa_t\000"
 5495      70615F74 
 5495      00
 5496              	.LASF169:
 5497 0675 715F6473 		.ascii	"q_dsc\000"
 5497      6300
 5498              	.LASF9:
ARM GAS  C:\Users\strap\AppData\Local\Temp\ccQGFe6s.s 			page 115


 5499 067b 6C6F6E67 		.ascii	"long int\000"
 5499      20696E74 
 5499      00
 5500              	.LASF49:
 5501 0684 4C565F4F 		.ascii	"LV_OPA_40\000"
 5501      50415F34 
 5501      3000
 5502              	.LASF146:
 5503 068e 64726177 		.ascii	"draw_area\000"
 5503      5F617265 
 5503      6100
 5504              	.LASF145:
 5505 0698 64726177 		.ascii	"draw_dsc\000"
 5505      5F647363 
 5505      00
 5506              	.LASF79:
 5507 06a1 73746172 		.ascii	"start_angle\000"
 5507      745F616E 
 5507      676C6500 
 5508              	.LASF179:
 5509 06ad 6C76676C 		.ascii	"lvgl\\src\\lv_draw\\lv_draw_arc.c\000"
 5509      5C737263 
 5509      5C6C765F 
 5509      64726177 
 5509      5C6C765F 
 5510              	.LASF59:
 5511 06cc 626C7565 		.ascii	"blue\000"
 5511      00
 5512              	.LASF110:
 5513 06d1 626F7264 		.ascii	"border_post\000"
 5513      65725F70 
 5513      6F737400 
 5514              	.LASF76:
 5515 06dd 666C6174 		.ascii	"flat\000"
 5515      00
 5516              	.LASF172:
 5517 06e2 5F6C765F 		.ascii	"_lv_area_intersect\000"
 5517      61726561 
 5517      5F696E74 
 5517      65727365 
 5517      637400
 5518              	.LASF101:
 5519 06f5 62675F6D 		.ascii	"bg_main_color_stop\000"
 5519      61696E5F 
 5519      636F6C6F 
 5519      725F7374 
 5519      6F7000
 5520              	.LASF21:
 5521 0708 6C765F63 		.ascii	"lv_coord_t\000"
 5521      6F6F7264 
 5521      5F7400
 5522              	.LASF141:
 5523 0713 63656E74 		.ascii	"center_x\000"
 5523      65725F78 
 5523      00
 5524              	.LASF55:
 5525 071c 4C565F4F 		.ascii	"LV_OPA_100\000"
ARM GAS  C:\Users\strap\AppData\Local\Temp\ccQGFe6s.s 			page 116


 5525      50415F31 
 5525      303000
 5526              	.LASF138:
 5527 0727 76616C75 		.ascii	"value_align\000"
 5527      655F616C 
 5527      69676E00 
 5528              	.LASF1:
 5529 0733 5F5F7569 		.ascii	"__uint8_t\000"
 5529      6E74385F 
 5529      7400
 5530              	.LASF104:
 5531 073d 62675F62 		.ascii	"bg_blend_mode\000"
 5531      6C656E64 
 5531      5F6D6F64 
 5531      6500
 5532              	.LASF50:
 5533 074b 4C565F4F 		.ascii	"LV_OPA_50\000"
 5533      50415F35 
 5533      3000
 5534              	.LASF66:
 5535 0755 6C765F64 		.ascii	"lv_draw_mask_type_t\000"
 5535      7261775F 
 5535      6D61736B 
 5535      5F747970 
 5535      655F7400 
 5536              	.LASF159:
 5537 0769 64726177 		.ascii	"draw_quarter_0\000"
 5537      5F717561 
 5537      72746572 
 5537      5F3000
 5538              	.LASF31:
 5539 0778 626F785F 		.ascii	"box_h\000"
 5539      6800
 5540              	.LASF24:
 5541 077e 73697A65 		.ascii	"sizetype\000"
 5541      74797065 
 5541      00
 5542              	.LASF11:
 5543 0787 6C6F6E67 		.ascii	"long unsigned int\000"
 5543      20756E73 
 5543      69676E65 
 5543      6420696E 
 5543      7400
 5544              	.LASF30:
 5545 0799 626F785F 		.ascii	"box_w\000"
 5545      7700
 5546              	.LASF19:
 5547 079f 696E7433 		.ascii	"int32_t\000"
 5547      325F7400 
 5548              	.LASF38:
 5549 07a7 62617365 		.ascii	"base_line\000"
 5549      5F6C696E 
 5549      6500
 5550              	.LASF147:
 5551 07b1 636C6970 		.ascii	"clip_area\000"
 5551      5F617265 
 5551      6100
ARM GAS  C:\Users\strap\AppData\Local\Temp\ccQGFe6s.s 			page 117


 5552              	.LASF97:
 5553 07bb 72616469 		.ascii	"radius\000"
 5553      757300
 5554              	.LASF51:
 5555 07c2 4C565F4F 		.ascii	"LV_OPA_60\000"
 5555      50415F36 
 5555      3000
 5556              	.LASF102:
 5557 07cc 62675F67 		.ascii	"bg_grad_color_stop\000"
 5557      7261645F 
 5557      636F6C6F 
 5557      725F7374 
 5557      6F7000
 5558              	.LASF69:
 5559 07df 74797065 		.ascii	"type\000"
 5559      00
 5560              	.LASF3:
 5561 07e4 756E7369 		.ascii	"unsigned char\000"
 5561      676E6564 
 5561      20636861 
 5561      7200
 5562              	.LASF10:
 5563 07f2 5F5F7569 		.ascii	"__uint32_t\000"
 5563      6E743332 
 5563      5F7400
 5564              	.LASF96:
 5565 07fd 6C765F64 		.ascii	"lv_draw_line_dsc_t\000"
 5565      7261775F 
 5565      6C696E65 
 5565      5F647363 
 5565      5F7400
 5566              	.LASF36:
 5567 0810 6765745F 		.ascii	"get_glyph_bitmap\000"
 5567      676C7970 
 5567      685F6269 
 5567      746D6170 
 5567      00
 5568              	.LASF134:
 5569 0821 76616C75 		.ascii	"value_ofs_x\000"
 5569      655F6F66 
 5569      735F7800 
 5570              	.LASF135:
 5571 082d 76616C75 		.ascii	"value_ofs_y\000"
 5571      655F6F66 
 5571      735F7900 
 5572              	.LASF98:
 5573 0839 62675F63 		.ascii	"bg_color\000"
 5573      6F6C6F72 
 5573      00
 5574              	.LASF154:
 5575 0842 72785F63 		.ascii	"rx_corr\000"
 5575      6F727200 
 5576              	.LASF68:
 5577 084a 6C765F64 		.ascii	"lv_draw_mask_line_side_t\000"
 5577      7261775F 
 5577      6D61736B 
 5577      5F6C696E 
ARM GAS  C:\Users\strap\AppData\Local\Temp\ccQGFe6s.s 			page 118


 5577      655F7369 
 5578              	.LASF131:
 5579 0863 76616C75 		.ascii	"value_font\000"
 5579      655F666F 
 5579      6E7400
 5580              	.LASF117:
 5581 086e 73686164 		.ascii	"shadow_width\000"
 5581      6F775F77 
 5581      69647468 
 5581      00
 5582              	.LASF80:
 5583 087b 656E645F 		.ascii	"end_angle\000"
 5583      616E676C 
 5583      6500
 5584              	.LASF52:
 5585 0885 4C565F4F 		.ascii	"LV_OPA_70\000"
 5585      50415F37 
 5585      3000
 5586              	.LASF99:
 5587 088f 62675F67 		.ascii	"bg_grad_color\000"
 5587      7261645F 
 5587      636F6C6F 
 5587      7200
 5588              	.LASF166:
 5589 089d 6D61736B 		.ascii	"mask_angle_param\000"
 5589      5F616E67 
 5589      6C655F70 
 5589      6172616D 
 5589      00
 5590              	.LASF100:
 5591 08ae 62675F67 		.ascii	"bg_grad_dir\000"
 5591      7261645F 
 5591      64697200 
 5592              	.LASF27:
 5593 08ba 6C765F61 		.ascii	"lv_area_t\000"
 5593      7265615F 
 5593      7400
 5594              	.LASF2:
 5595 08c4 7369676E 		.ascii	"signed char\000"
 5595      65642063 
 5595      68617200 
 5596              	.LASF7:
 5597 08d0 73686F72 		.ascii	"short unsigned int\000"
 5597      7420756E 
 5597      7369676E 
 5597      65642069 
 5597      6E7400
 5598              	.LASF155:
 5599 08e3 72795F63 		.ascii	"ry_corr\000"
 5599      6F727200 
 5600              	.LASF150:
 5601 08eb 7469636B 		.ascii	"tickness\000"
 5601      6E657373 
 5601      00
 5602              	.LASF125:
 5603 08f4 70617474 		.ascii	"pattern_recolor\000"
 5603      65726E5F 
ARM GAS  C:\Users\strap\AppData\Local\Temp\ccQGFe6s.s 			page 119


 5603      7265636F 
 5603      6C6F7200 
 5604              	.LASF53:
 5605 0904 4C565F4F 		.ascii	"LV_OPA_80\000"
 5605      50415F38 
 5605      3000
 5606              	.LASF109:
 5607 090e 626F7264 		.ascii	"border_blend_mode\000"
 5607      65725F62 
 5607      6C656E64 
 5607      5F6D6F64 
 5607      6500
 5608              	.LASF180:
 5609 0920 433A5C55 		.ascii	"C:\\Users\\strap\\Documents\\Creator\\test_lvgl\\il"
 5609      73657273 
 5609      5C737472 
 5609      61705C44 
 5609      6F63756D 
 5610 094d 69393334 		.ascii	"i9341_master.cydsn\000"
 5610      315F6D61 
 5610      73746572 
 5610      2E637964 
 5610      736E00
 5611              	.LASF58:
 5612 0960 67726565 		.ascii	"green_h\000"
 5612      6E5F6800 
 5613              	.LASF60:
 5614 0968 67726565 		.ascii	"green_l\000"
 5614      6E5F6C00 
 5615              	.LASF123:
 5616 0970 70617474 		.ascii	"pattern_image\000"
 5616      65726E5F 
 5616      696D6167 
 5616      6500
 5617              	.LASF29:
 5618 097e 6164765F 		.ascii	"adv_w\000"
 5618      7700
 5619              		.ident	"GCC: (GNU Tools for ARM Embedded Processors) 5.4.1 20160609 (release) [ARM/embedded-5-bran
