ARM GAS  C:\Users\strap\AppData\Local\Temp\cc9WM4tW.s 			page 1


   1              		.syntax unified
   2              		.cpu cortex-m3
   3              		.fpu softvfp
   4              		.eabi_attribute 20, 1
   5              		.eabi_attribute 21, 1
   6              		.eabi_attribute 23, 3
   7              		.eabi_attribute 24, 1
   8              		.eabi_attribute 25, 1
   9              		.eabi_attribute 26, 1
  10              		.eabi_attribute 30, 1
  11              		.eabi_attribute 34, 1
  12              		.eabi_attribute 18, 4
  13              		.thumb
  14              		.syntax unified
  15              		.file	"lv_disp.c"
  16              		.text
  17              	.Ltext0:
  18              		.cfi_sections	.debug_frame
  19              		.section	.text.scr_anim_ready,"ax",%progbits
  20              		.align	2
  21              		.thumb
  22              		.thumb_func
  23              		.type	scr_anim_ready, %function
  24              	scr_anim_ready:
  25              	.LFB349:
  26              		.file 1 "lvgl\\src\\lv_core\\lv_disp.c"
   1:lvgl\src\lv_core/lv_disp.c **** /**
   2:lvgl\src\lv_core/lv_disp.c ****  * @file lv_disp.c
   3:lvgl\src\lv_core/lv_disp.c ****  *
   4:lvgl\src\lv_core/lv_disp.c ****  */
   5:lvgl\src\lv_core/lv_disp.c **** 
   6:lvgl\src\lv_core/lv_disp.c **** /*********************
   7:lvgl\src\lv_core/lv_disp.c ****  *      INCLUDES
   8:lvgl\src\lv_core/lv_disp.c ****  *********************/
   9:lvgl\src\lv_core/lv_disp.c **** #include "lv_disp.h"
  10:lvgl\src\lv_core/lv_disp.c **** #include "../lv_misc/lv_math.h"
  11:lvgl\src\lv_core/lv_disp.c **** #include "../lv_core/lv_refr.h"
  12:lvgl\src\lv_core/lv_disp.c **** 
  13:lvgl\src\lv_core/lv_disp.c **** /*********************
  14:lvgl\src\lv_core/lv_disp.c ****  *      DEFINES
  15:lvgl\src\lv_core/lv_disp.c ****  *********************/
  16:lvgl\src\lv_core/lv_disp.c **** 
  17:lvgl\src\lv_core/lv_disp.c **** /**********************
  18:lvgl\src\lv_core/lv_disp.c ****  *      TYPEDEFS
  19:lvgl\src\lv_core/lv_disp.c ****  **********************/
  20:lvgl\src\lv_core/lv_disp.c **** 
  21:lvgl\src\lv_core/lv_disp.c **** /**********************
  22:lvgl\src\lv_core/lv_disp.c ****  *  STATIC PROTOTYPES
  23:lvgl\src\lv_core/lv_disp.c ****  **********************/
  24:lvgl\src\lv_core/lv_disp.c **** 
  25:lvgl\src\lv_core/lv_disp.c **** #if LV_USE_ANIMATION
  26:lvgl\src\lv_core/lv_disp.c ****     static void scr_load_anim_start(lv_anim_t * a);
  27:lvgl\src\lv_core/lv_disp.c ****     static void opa_scale_anim(lv_obj_t * obj, lv_anim_value_t v);
  28:lvgl\src\lv_core/lv_disp.c ****     static void scr_anim_ready(lv_anim_t * a);
  29:lvgl\src\lv_core/lv_disp.c **** #endif
  30:lvgl\src\lv_core/lv_disp.c **** 
  31:lvgl\src\lv_core/lv_disp.c **** /**********************
ARM GAS  C:\Users\strap\AppData\Local\Temp\cc9WM4tW.s 			page 2


  32:lvgl\src\lv_core/lv_disp.c ****  *  STATIC VARIABLES
  33:lvgl\src\lv_core/lv_disp.c ****  **********************/
  34:lvgl\src\lv_core/lv_disp.c **** 
  35:lvgl\src\lv_core/lv_disp.c **** /**********************
  36:lvgl\src\lv_core/lv_disp.c ****  *      MACROS
  37:lvgl\src\lv_core/lv_disp.c ****  **********************/
  38:lvgl\src\lv_core/lv_disp.c **** 
  39:lvgl\src\lv_core/lv_disp.c **** /**********************
  40:lvgl\src\lv_core/lv_disp.c ****  *   GLOBAL FUNCTIONS
  41:lvgl\src\lv_core/lv_disp.c ****  **********************/
  42:lvgl\src\lv_core/lv_disp.c **** 
  43:lvgl\src\lv_core/lv_disp.c **** /**
  44:lvgl\src\lv_core/lv_disp.c ****  * Return with a pointer to the active screen
  45:lvgl\src\lv_core/lv_disp.c ****  * @param disp pointer to display which active screen should be get. (NULL to use the default
  46:lvgl\src\lv_core/lv_disp.c ****  * screen)
  47:lvgl\src\lv_core/lv_disp.c ****  * @return pointer to the active screen object (loaded by 'lv_scr_load()')
  48:lvgl\src\lv_core/lv_disp.c ****  */
  49:lvgl\src\lv_core/lv_disp.c **** lv_obj_t * lv_disp_get_scr_act(lv_disp_t * disp)
  50:lvgl\src\lv_core/lv_disp.c **** {
  51:lvgl\src\lv_core/lv_disp.c ****     if(!disp) disp = lv_disp_get_default();
  52:lvgl\src\lv_core/lv_disp.c ****     if(!disp) {
  53:lvgl\src\lv_core/lv_disp.c ****         LV_LOG_WARN("no display registered to get its active screen");
  54:lvgl\src\lv_core/lv_disp.c ****         return NULL;
  55:lvgl\src\lv_core/lv_disp.c ****     }
  56:lvgl\src\lv_core/lv_disp.c **** 
  57:lvgl\src\lv_core/lv_disp.c ****     return disp->act_scr;
  58:lvgl\src\lv_core/lv_disp.c **** }
  59:lvgl\src\lv_core/lv_disp.c **** 
  60:lvgl\src\lv_core/lv_disp.c **** /**
  61:lvgl\src\lv_core/lv_disp.c ****  * Return with a pointer to the previous screen. Only used during screen transitions.
  62:lvgl\src\lv_core/lv_disp.c ****  * @param disp pointer to display which previous screen should be get. (NULL to use the default
  63:lvgl\src\lv_core/lv_disp.c ****  * screen)
  64:lvgl\src\lv_core/lv_disp.c ****  * @return pointer to the previous screen object or NULL if not used now
  65:lvgl\src\lv_core/lv_disp.c ****  */
  66:lvgl\src\lv_core/lv_disp.c **** lv_obj_t * lv_disp_get_scr_prev(lv_disp_t * disp)
  67:lvgl\src\lv_core/lv_disp.c **** {
  68:lvgl\src\lv_core/lv_disp.c ****     if(!disp) disp = lv_disp_get_default();
  69:lvgl\src\lv_core/lv_disp.c ****     if(!disp) {
  70:lvgl\src\lv_core/lv_disp.c ****         LV_LOG_WARN("no display registered to get its previous screen");
  71:lvgl\src\lv_core/lv_disp.c ****         return NULL;
  72:lvgl\src\lv_core/lv_disp.c ****     }
  73:lvgl\src\lv_core/lv_disp.c **** 
  74:lvgl\src\lv_core/lv_disp.c ****     return disp->prev_scr;
  75:lvgl\src\lv_core/lv_disp.c **** }
  76:lvgl\src\lv_core/lv_disp.c **** 
  77:lvgl\src\lv_core/lv_disp.c **** /**
  78:lvgl\src\lv_core/lv_disp.c ****  * Make a screen active
  79:lvgl\src\lv_core/lv_disp.c ****  * @param scr pointer to a screen
  80:lvgl\src\lv_core/lv_disp.c ****  */
  81:lvgl\src\lv_core/lv_disp.c **** void lv_disp_load_scr(lv_obj_t * scr)
  82:lvgl\src\lv_core/lv_disp.c **** {
  83:lvgl\src\lv_core/lv_disp.c ****     lv_disp_t * d = lv_obj_get_disp(scr);
  84:lvgl\src\lv_core/lv_disp.c ****     if(!d) return;  /*Shouldn't happen, just to be sure*/
  85:lvgl\src\lv_core/lv_disp.c ****     d->act_scr = scr;
  86:lvgl\src\lv_core/lv_disp.c **** 
  87:lvgl\src\lv_core/lv_disp.c ****     lv_obj_invalidate(scr);
  88:lvgl\src\lv_core/lv_disp.c **** }
ARM GAS  C:\Users\strap\AppData\Local\Temp\cc9WM4tW.s 			page 3


  89:lvgl\src\lv_core/lv_disp.c **** 
  90:lvgl\src\lv_core/lv_disp.c **** /**
  91:lvgl\src\lv_core/lv_disp.c ****  * Return with the top layer. (Same on every screen and it is above the normal screen layer)
  92:lvgl\src\lv_core/lv_disp.c ****  * @param disp pointer to display which top layer should be get. (NULL to use the default screen)
  93:lvgl\src\lv_core/lv_disp.c ****  * @return pointer to the top layer object  (transparent screen sized lv_obj)
  94:lvgl\src\lv_core/lv_disp.c ****  */
  95:lvgl\src\lv_core/lv_disp.c **** lv_obj_t * lv_disp_get_layer_top(lv_disp_t * disp)
  96:lvgl\src\lv_core/lv_disp.c **** {
  97:lvgl\src\lv_core/lv_disp.c ****     if(!disp) disp = lv_disp_get_default();
  98:lvgl\src\lv_core/lv_disp.c ****     if(!disp) {
  99:lvgl\src\lv_core/lv_disp.c ****         LV_LOG_WARN("lv_layer_top: no display registered to get its top layer");
 100:lvgl\src\lv_core/lv_disp.c ****         return NULL;
 101:lvgl\src\lv_core/lv_disp.c ****     }
 102:lvgl\src\lv_core/lv_disp.c **** 
 103:lvgl\src\lv_core/lv_disp.c ****     return disp->top_layer;
 104:lvgl\src\lv_core/lv_disp.c **** }
 105:lvgl\src\lv_core/lv_disp.c **** 
 106:lvgl\src\lv_core/lv_disp.c **** /**
 107:lvgl\src\lv_core/lv_disp.c ****  * Return with the sys. layer. (Same on every screen and it is above the normal screen and the top
 108:lvgl\src\lv_core/lv_disp.c ****  * layer)
 109:lvgl\src\lv_core/lv_disp.c ****  * @param disp pointer to display which sys. layer  should be get. (NULL to use the default screen)
 110:lvgl\src\lv_core/lv_disp.c ****  * @return pointer to the sys layer object  (transparent screen sized lv_obj)
 111:lvgl\src\lv_core/lv_disp.c ****  */
 112:lvgl\src\lv_core/lv_disp.c **** lv_obj_t * lv_disp_get_layer_sys(lv_disp_t * disp)
 113:lvgl\src\lv_core/lv_disp.c **** {
 114:lvgl\src\lv_core/lv_disp.c ****     if(!disp) disp = lv_disp_get_default();
 115:lvgl\src\lv_core/lv_disp.c ****     if(!disp) {
 116:lvgl\src\lv_core/lv_disp.c ****         LV_LOG_WARN("lv_layer_sys: no display registered to get its sys. layer");
 117:lvgl\src\lv_core/lv_disp.c ****         return NULL;
 118:lvgl\src\lv_core/lv_disp.c ****     }
 119:lvgl\src\lv_core/lv_disp.c **** 
 120:lvgl\src\lv_core/lv_disp.c ****     return disp->sys_layer;
 121:lvgl\src\lv_core/lv_disp.c **** }
 122:lvgl\src\lv_core/lv_disp.c **** 
 123:lvgl\src\lv_core/lv_disp.c **** /**
 124:lvgl\src\lv_core/lv_disp.c ****  * Assign a screen to a display.
 125:lvgl\src\lv_core/lv_disp.c ****  * @param disp pointer to a display where to assign the screen
 126:lvgl\src\lv_core/lv_disp.c ****  * @param scr pointer to a screen object to assign
 127:lvgl\src\lv_core/lv_disp.c ****  */
 128:lvgl\src\lv_core/lv_disp.c **** void lv_disp_assign_screen(lv_disp_t * disp, lv_obj_t * scr)
 129:lvgl\src\lv_core/lv_disp.c **** {
 130:lvgl\src\lv_core/lv_disp.c ****     if(lv_obj_get_parent(scr) != NULL) {
 131:lvgl\src\lv_core/lv_disp.c ****         LV_LOG_WARN("lv_disp_assign_screen: try to assign a non-screen object");
 132:lvgl\src\lv_core/lv_disp.c ****         return;
 133:lvgl\src\lv_core/lv_disp.c ****     }
 134:lvgl\src\lv_core/lv_disp.c **** 
 135:lvgl\src\lv_core/lv_disp.c ****     lv_disp_t * old_disp = lv_obj_get_disp(scr);
 136:lvgl\src\lv_core/lv_disp.c **** 
 137:lvgl\src\lv_core/lv_disp.c ****     if(old_disp == disp) return;
 138:lvgl\src\lv_core/lv_disp.c **** 
 139:lvgl\src\lv_core/lv_disp.c ****     _lv_ll_chg_list(&old_disp->scr_ll, &disp->scr_ll, scr, true);
 140:lvgl\src\lv_core/lv_disp.c **** }
 141:lvgl\src\lv_core/lv_disp.c **** 
 142:lvgl\src\lv_core/lv_disp.c **** /**
 143:lvgl\src\lv_core/lv_disp.c ****  * Set the background color of a display
 144:lvgl\src\lv_core/lv_disp.c ****  * @param disp pointer to a display
 145:lvgl\src\lv_core/lv_disp.c ****  * @param color color of the background
ARM GAS  C:\Users\strap\AppData\Local\Temp\cc9WM4tW.s 			page 4


 146:lvgl\src\lv_core/lv_disp.c ****  */
 147:lvgl\src\lv_core/lv_disp.c **** void lv_disp_set_bg_color(lv_disp_t * disp, lv_color_t color)
 148:lvgl\src\lv_core/lv_disp.c **** {
 149:lvgl\src\lv_core/lv_disp.c ****     if(!disp) disp = lv_disp_get_default();
 150:lvgl\src\lv_core/lv_disp.c ****     if(!disp) {
 151:lvgl\src\lv_core/lv_disp.c ****         LV_LOG_WARN("no display registered");
 152:lvgl\src\lv_core/lv_disp.c ****         return;
 153:lvgl\src\lv_core/lv_disp.c ****     }
 154:lvgl\src\lv_core/lv_disp.c **** 
 155:lvgl\src\lv_core/lv_disp.c ****     disp->bg_color = color;
 156:lvgl\src\lv_core/lv_disp.c **** 
 157:lvgl\src\lv_core/lv_disp.c ****     lv_area_t a;
 158:lvgl\src\lv_core/lv_disp.c ****     lv_area_set(&a, 0, 0, lv_disp_get_hor_res(disp) - 1, lv_disp_get_ver_res(disp) - 1);
 159:lvgl\src\lv_core/lv_disp.c ****     _lv_inv_area(disp, &a);
 160:lvgl\src\lv_core/lv_disp.c **** 
 161:lvgl\src\lv_core/lv_disp.c **** }
 162:lvgl\src\lv_core/lv_disp.c **** 
 163:lvgl\src\lv_core/lv_disp.c **** /**
 164:lvgl\src\lv_core/lv_disp.c ****  * Set the background image of a display
 165:lvgl\src\lv_core/lv_disp.c ****  * @param disp pointer to a display
 166:lvgl\src\lv_core/lv_disp.c ****  * @param img_src path to file or pointer to an `lv_img_dsc_t` variable
 167:lvgl\src\lv_core/lv_disp.c ****  */
 168:lvgl\src\lv_core/lv_disp.c **** void lv_disp_set_bg_image(lv_disp_t * disp, const void  * img_src)
 169:lvgl\src\lv_core/lv_disp.c **** {
 170:lvgl\src\lv_core/lv_disp.c ****     if(!disp) disp = lv_disp_get_default();
 171:lvgl\src\lv_core/lv_disp.c ****     if(!disp) {
 172:lvgl\src\lv_core/lv_disp.c ****         LV_LOG_WARN("no display registered");
 173:lvgl\src\lv_core/lv_disp.c ****         return;
 174:lvgl\src\lv_core/lv_disp.c ****     }
 175:lvgl\src\lv_core/lv_disp.c **** 
 176:lvgl\src\lv_core/lv_disp.c ****     disp->bg_img = img_src;
 177:lvgl\src\lv_core/lv_disp.c **** 
 178:lvgl\src\lv_core/lv_disp.c ****     lv_area_t a;
 179:lvgl\src\lv_core/lv_disp.c ****     lv_area_set(&a, 0, 0, lv_disp_get_hor_res(disp) - 1, lv_disp_get_ver_res(disp) - 1);
 180:lvgl\src\lv_core/lv_disp.c ****     _lv_inv_area(disp, &a);
 181:lvgl\src\lv_core/lv_disp.c **** }
 182:lvgl\src\lv_core/lv_disp.c **** 
 183:lvgl\src\lv_core/lv_disp.c **** 
 184:lvgl\src\lv_core/lv_disp.c **** /**
 185:lvgl\src\lv_core/lv_disp.c ****  * Opacity of the background
 186:lvgl\src\lv_core/lv_disp.c ****  * @param disp pointer to a display
 187:lvgl\src\lv_core/lv_disp.c ****  * @param opa opacity (0..255)
 188:lvgl\src\lv_core/lv_disp.c ****  */
 189:lvgl\src\lv_core/lv_disp.c **** void lv_disp_set_bg_opa(lv_disp_t * disp, lv_opa_t opa)
 190:lvgl\src\lv_core/lv_disp.c **** {
 191:lvgl\src\lv_core/lv_disp.c ****     if(!disp) disp = lv_disp_get_default();
 192:lvgl\src\lv_core/lv_disp.c ****     if(!disp) {
 193:lvgl\src\lv_core/lv_disp.c ****         LV_LOG_WARN("no display registered");
 194:lvgl\src\lv_core/lv_disp.c ****         return;
 195:lvgl\src\lv_core/lv_disp.c ****     }
 196:lvgl\src\lv_core/lv_disp.c **** 
 197:lvgl\src\lv_core/lv_disp.c ****     disp->bg_opa = opa;
 198:lvgl\src\lv_core/lv_disp.c **** 
 199:lvgl\src\lv_core/lv_disp.c ****     lv_area_t a;
 200:lvgl\src\lv_core/lv_disp.c ****     lv_area_set(&a, 0, 0, lv_disp_get_hor_res(disp) - 1, lv_disp_get_ver_res(disp) - 1);
 201:lvgl\src\lv_core/lv_disp.c ****     _lv_inv_area(disp, &a);
 202:lvgl\src\lv_core/lv_disp.c **** }
ARM GAS  C:\Users\strap\AppData\Local\Temp\cc9WM4tW.s 			page 5


 203:lvgl\src\lv_core/lv_disp.c **** 
 204:lvgl\src\lv_core/lv_disp.c **** #if LV_USE_ANIMATION
 205:lvgl\src\lv_core/lv_disp.c **** 
 206:lvgl\src\lv_core/lv_disp.c **** /**
 207:lvgl\src\lv_core/lv_disp.c ****  * Switch screen with animation
 208:lvgl\src\lv_core/lv_disp.c ****  * @param scr pointer to the new screen to load
 209:lvgl\src\lv_core/lv_disp.c ****  * @param anim_type type of the animation from `lv_scr_load_anim_t`. E.g.  `LV_SCR_LOAD_ANIM_MOVE_L
 210:lvgl\src\lv_core/lv_disp.c ****  * @param time time of the animation
 211:lvgl\src\lv_core/lv_disp.c ****  * @param delay delay before the transition
 212:lvgl\src\lv_core/lv_disp.c ****  * @param auto_del true: automatically delete the old screen
 213:lvgl\src\lv_core/lv_disp.c ****  */
 214:lvgl\src\lv_core/lv_disp.c **** void lv_scr_load_anim(lv_obj_t * new_scr, lv_scr_load_anim_t anim_type, uint32_t time, uint32_t del
 215:lvgl\src\lv_core/lv_disp.c **** {
 216:lvgl\src\lv_core/lv_disp.c ****     lv_disp_t * d = lv_obj_get_disp(new_scr);
 217:lvgl\src\lv_core/lv_disp.c **** 
 218:lvgl\src\lv_core/lv_disp.c ****     if(d->prev_scr && d->del_prev) {
 219:lvgl\src\lv_core/lv_disp.c ****         lv_obj_del(d->prev_scr);
 220:lvgl\src\lv_core/lv_disp.c ****         d->prev_scr = NULL;
 221:lvgl\src\lv_core/lv_disp.c ****     }
 222:lvgl\src\lv_core/lv_disp.c **** 
 223:lvgl\src\lv_core/lv_disp.c ****     d->del_prev = auto_del;
 224:lvgl\src\lv_core/lv_disp.c **** 
 225:lvgl\src\lv_core/lv_disp.c ****     /*Be sure there is no other animation on the screens*/
 226:lvgl\src\lv_core/lv_disp.c ****     lv_anim_del(new_scr, NULL);
 227:lvgl\src\lv_core/lv_disp.c ****     lv_anim_del(lv_scr_act(), NULL);
 228:lvgl\src\lv_core/lv_disp.c **** 
 229:lvgl\src\lv_core/lv_disp.c ****     /*Be sure both screens are in a normal position*/
 230:lvgl\src\lv_core/lv_disp.c ****     lv_obj_set_pos(new_scr, 0, 0);
 231:lvgl\src\lv_core/lv_disp.c ****     lv_obj_set_pos(lv_scr_act(), 0, 0);
 232:lvgl\src\lv_core/lv_disp.c ****     lv_style_remove_prop(lv_obj_get_local_style(new_scr, LV_OBJ_PART_MAIN), LV_STYLE_OPA_SCALE);
 233:lvgl\src\lv_core/lv_disp.c ****     lv_style_remove_prop(lv_obj_get_local_style(lv_scr_act(), LV_OBJ_PART_MAIN), LV_STYLE_OPA_SCALE
 234:lvgl\src\lv_core/lv_disp.c **** 
 235:lvgl\src\lv_core/lv_disp.c ****     lv_anim_t a_new;
 236:lvgl\src\lv_core/lv_disp.c ****     lv_anim_init(&a_new);
 237:lvgl\src\lv_core/lv_disp.c ****     lv_anim_set_var(&a_new, new_scr);
 238:lvgl\src\lv_core/lv_disp.c ****     lv_anim_set_start_cb(&a_new, scr_load_anim_start);
 239:lvgl\src\lv_core/lv_disp.c ****     lv_anim_set_ready_cb(&a_new, scr_anim_ready);
 240:lvgl\src\lv_core/lv_disp.c ****     lv_anim_set_time(&a_new, time);
 241:lvgl\src\lv_core/lv_disp.c ****     lv_anim_set_delay(&a_new, delay);
 242:lvgl\src\lv_core/lv_disp.c **** 
 243:lvgl\src\lv_core/lv_disp.c ****     lv_anim_t a_old;
 244:lvgl\src\lv_core/lv_disp.c ****     lv_anim_init(&a_old);
 245:lvgl\src\lv_core/lv_disp.c ****     lv_anim_set_var(&a_old, d->act_scr);
 246:lvgl\src\lv_core/lv_disp.c ****     lv_anim_set_time(&a_old, time);
 247:lvgl\src\lv_core/lv_disp.c ****     lv_anim_set_delay(&a_old, delay);
 248:lvgl\src\lv_core/lv_disp.c **** 
 249:lvgl\src\lv_core/lv_disp.c ****     switch(anim_type) {
 250:lvgl\src\lv_core/lv_disp.c ****         case LV_SCR_LOAD_ANIM_NONE:
 251:lvgl\src\lv_core/lv_disp.c ****             /* Create a dummy animation to apply the delay*/
 252:lvgl\src\lv_core/lv_disp.c ****             lv_anim_set_exec_cb(&a_new, (lv_anim_exec_xcb_t) lv_obj_set_x);
 253:lvgl\src\lv_core/lv_disp.c ****             lv_anim_set_values(&a_new, 0, 0);
 254:lvgl\src\lv_core/lv_disp.c ****             break;
 255:lvgl\src\lv_core/lv_disp.c ****         case LV_SCR_LOAD_ANIM_OVER_LEFT:
 256:lvgl\src\lv_core/lv_disp.c ****             lv_anim_set_exec_cb(&a_new, (lv_anim_exec_xcb_t) lv_obj_set_x);
 257:lvgl\src\lv_core/lv_disp.c ****             lv_anim_set_values(&a_new, lv_disp_get_hor_res(d), 0);
 258:lvgl\src\lv_core/lv_disp.c ****             break;
 259:lvgl\src\lv_core/lv_disp.c ****         case LV_SCR_LOAD_ANIM_OVER_RIGHT:
ARM GAS  C:\Users\strap\AppData\Local\Temp\cc9WM4tW.s 			page 6


 260:lvgl\src\lv_core/lv_disp.c ****             lv_anim_set_exec_cb(&a_new, (lv_anim_exec_xcb_t) lv_obj_set_x);
 261:lvgl\src\lv_core/lv_disp.c ****             lv_anim_set_values(&a_new, -lv_disp_get_hor_res(d), 0);
 262:lvgl\src\lv_core/lv_disp.c ****             break;
 263:lvgl\src\lv_core/lv_disp.c ****         case LV_SCR_LOAD_ANIM_OVER_TOP:
 264:lvgl\src\lv_core/lv_disp.c ****             lv_anim_set_exec_cb(&a_new, (lv_anim_exec_xcb_t) lv_obj_set_y);
 265:lvgl\src\lv_core/lv_disp.c ****             lv_anim_set_values(&a_new, lv_disp_get_ver_res(d), 0);
 266:lvgl\src\lv_core/lv_disp.c ****             break;
 267:lvgl\src\lv_core/lv_disp.c ****         case LV_SCR_LOAD_ANIM_OVER_BOTTOM:
 268:lvgl\src\lv_core/lv_disp.c ****             lv_anim_set_exec_cb(&a_new, (lv_anim_exec_xcb_t) lv_obj_set_y);
 269:lvgl\src\lv_core/lv_disp.c ****             lv_anim_set_values(&a_new, -lv_disp_get_ver_res(d), 0);
 270:lvgl\src\lv_core/lv_disp.c ****             break;
 271:lvgl\src\lv_core/lv_disp.c ****         case LV_SCR_LOAD_ANIM_MOVE_LEFT:
 272:lvgl\src\lv_core/lv_disp.c ****             lv_anim_set_exec_cb(&a_new, (lv_anim_exec_xcb_t) lv_obj_set_x);
 273:lvgl\src\lv_core/lv_disp.c ****             lv_anim_set_values(&a_new, lv_disp_get_hor_res(d), 0);
 274:lvgl\src\lv_core/lv_disp.c **** 
 275:lvgl\src\lv_core/lv_disp.c ****             lv_anim_set_exec_cb(&a_old, (lv_anim_exec_xcb_t) lv_obj_set_x);
 276:lvgl\src\lv_core/lv_disp.c ****             lv_anim_set_values(&a_old, 0, -lv_disp_get_hor_res(d));
 277:lvgl\src\lv_core/lv_disp.c ****             break;
 278:lvgl\src\lv_core/lv_disp.c ****         case LV_SCR_LOAD_ANIM_MOVE_RIGHT:
 279:lvgl\src\lv_core/lv_disp.c ****             lv_anim_set_exec_cb(&a_new, (lv_anim_exec_xcb_t) lv_obj_set_x);
 280:lvgl\src\lv_core/lv_disp.c ****             lv_anim_set_values(&a_new, -lv_disp_get_hor_res(d), 0);
 281:lvgl\src\lv_core/lv_disp.c **** 
 282:lvgl\src\lv_core/lv_disp.c ****             lv_anim_set_exec_cb(&a_old, (lv_anim_exec_xcb_t) lv_obj_set_x);
 283:lvgl\src\lv_core/lv_disp.c ****             lv_anim_set_values(&a_old, 0, lv_disp_get_hor_res(d));
 284:lvgl\src\lv_core/lv_disp.c ****             break;
 285:lvgl\src\lv_core/lv_disp.c ****         case LV_SCR_LOAD_ANIM_MOVE_TOP:
 286:lvgl\src\lv_core/lv_disp.c ****             lv_anim_set_exec_cb(&a_new, (lv_anim_exec_xcb_t) lv_obj_set_y);
 287:lvgl\src\lv_core/lv_disp.c ****             lv_anim_set_values(&a_new, lv_disp_get_ver_res(d), 0);
 288:lvgl\src\lv_core/lv_disp.c **** 
 289:lvgl\src\lv_core/lv_disp.c ****             lv_anim_set_exec_cb(&a_old, (lv_anim_exec_xcb_t) lv_obj_set_y);
 290:lvgl\src\lv_core/lv_disp.c ****             lv_anim_set_values(&a_old, 0, -lv_disp_get_ver_res(d));
 291:lvgl\src\lv_core/lv_disp.c ****             break;
 292:lvgl\src\lv_core/lv_disp.c ****         case LV_SCR_LOAD_ANIM_MOVE_BOTTOM:
 293:lvgl\src\lv_core/lv_disp.c ****             lv_anim_set_exec_cb(&a_new, (lv_anim_exec_xcb_t) lv_obj_set_y);
 294:lvgl\src\lv_core/lv_disp.c ****             lv_anim_set_values(&a_new, -lv_disp_get_ver_res(d), 0);
 295:lvgl\src\lv_core/lv_disp.c **** 
 296:lvgl\src\lv_core/lv_disp.c ****             lv_anim_set_exec_cb(&a_old, (lv_anim_exec_xcb_t) lv_obj_set_y);
 297:lvgl\src\lv_core/lv_disp.c ****             lv_anim_set_values(&a_old, 0, lv_disp_get_ver_res(d));
 298:lvgl\src\lv_core/lv_disp.c ****             break;
 299:lvgl\src\lv_core/lv_disp.c **** 
 300:lvgl\src\lv_core/lv_disp.c ****         case LV_SCR_LOAD_ANIM_FADE_ON:
 301:lvgl\src\lv_core/lv_disp.c ****             lv_anim_set_exec_cb(&a_new, (lv_anim_exec_xcb_t) opa_scale_anim);
 302:lvgl\src\lv_core/lv_disp.c ****             lv_anim_set_values(&a_new, LV_OPA_TRANSP, LV_OPA_COVER);
 303:lvgl\src\lv_core/lv_disp.c ****             break;
 304:lvgl\src\lv_core/lv_disp.c ****     }
 305:lvgl\src\lv_core/lv_disp.c **** 
 306:lvgl\src\lv_core/lv_disp.c ****     lv_anim_start(&a_new);
 307:lvgl\src\lv_core/lv_disp.c ****     lv_anim_start(&a_old);
 308:lvgl\src\lv_core/lv_disp.c **** }
 309:lvgl\src\lv_core/lv_disp.c **** 
 310:lvgl\src\lv_core/lv_disp.c **** #endif
 311:lvgl\src\lv_core/lv_disp.c **** 
 312:lvgl\src\lv_core/lv_disp.c **** /**
 313:lvgl\src\lv_core/lv_disp.c ****  * Get elapsed time since last user activity on a display (e.g. click)
 314:lvgl\src\lv_core/lv_disp.c ****  * @param disp pointer to an display (NULL to get the overall smallest inactivity)
 315:lvgl\src\lv_core/lv_disp.c ****  * @return elapsed ticks (milliseconds) since the last activity
 316:lvgl\src\lv_core/lv_disp.c ****  */
ARM GAS  C:\Users\strap\AppData\Local\Temp\cc9WM4tW.s 			page 7


 317:lvgl\src\lv_core/lv_disp.c **** uint32_t lv_disp_get_inactive_time(const lv_disp_t * disp)
 318:lvgl\src\lv_core/lv_disp.c **** {
 319:lvgl\src\lv_core/lv_disp.c ****     if(disp) return lv_tick_elaps(disp->last_activity_time);
 320:lvgl\src\lv_core/lv_disp.c **** 
 321:lvgl\src\lv_core/lv_disp.c ****     lv_disp_t * d;
 322:lvgl\src\lv_core/lv_disp.c ****     uint32_t t = UINT32_MAX;
 323:lvgl\src\lv_core/lv_disp.c ****     d          = lv_disp_get_next(NULL);
 324:lvgl\src\lv_core/lv_disp.c ****     while(d) {
 325:lvgl\src\lv_core/lv_disp.c ****         uint32_t elaps = lv_tick_elaps(d->last_activity_time);
 326:lvgl\src\lv_core/lv_disp.c ****         t = LV_MATH_MIN(t, elaps);
 327:lvgl\src\lv_core/lv_disp.c ****         d = lv_disp_get_next(d);
 328:lvgl\src\lv_core/lv_disp.c ****     }
 329:lvgl\src\lv_core/lv_disp.c **** 
 330:lvgl\src\lv_core/lv_disp.c ****     return t;
 331:lvgl\src\lv_core/lv_disp.c **** }
 332:lvgl\src\lv_core/lv_disp.c **** 
 333:lvgl\src\lv_core/lv_disp.c **** /**
 334:lvgl\src\lv_core/lv_disp.c ****  * Manually trigger an activity on a display
 335:lvgl\src\lv_core/lv_disp.c ****  * @param disp pointer to an display (NULL to use the default display)
 336:lvgl\src\lv_core/lv_disp.c ****  */
 337:lvgl\src\lv_core/lv_disp.c **** void lv_disp_trig_activity(lv_disp_t * disp)
 338:lvgl\src\lv_core/lv_disp.c **** {
 339:lvgl\src\lv_core/lv_disp.c ****     if(!disp) disp = lv_disp_get_default();
 340:lvgl\src\lv_core/lv_disp.c ****     if(!disp) {
 341:lvgl\src\lv_core/lv_disp.c ****         LV_LOG_WARN("lv_disp_trig_activity: no display registered");
 342:lvgl\src\lv_core/lv_disp.c ****         return;
 343:lvgl\src\lv_core/lv_disp.c ****     }
 344:lvgl\src\lv_core/lv_disp.c **** 
 345:lvgl\src\lv_core/lv_disp.c ****     disp->last_activity_time = lv_tick_get();
 346:lvgl\src\lv_core/lv_disp.c **** }
 347:lvgl\src\lv_core/lv_disp.c **** 
 348:lvgl\src\lv_core/lv_disp.c **** /**
 349:lvgl\src\lv_core/lv_disp.c ****  * Clean any CPU cache that is related to the display.
 350:lvgl\src\lv_core/lv_disp.c ****  * @param disp pointer to an display (NULL to use the default display)
 351:lvgl\src\lv_core/lv_disp.c ****  */
 352:lvgl\src\lv_core/lv_disp.c **** void lv_disp_clean_dcache(lv_disp_t * disp)
 353:lvgl\src\lv_core/lv_disp.c **** {
 354:lvgl\src\lv_core/lv_disp.c ****     if(!disp) disp = lv_disp_get_default();
 355:lvgl\src\lv_core/lv_disp.c ****     if(!disp) {
 356:lvgl\src\lv_core/lv_disp.c ****         LV_LOG_WARN("lv_disp_clean_dcache: no display registered");
 357:lvgl\src\lv_core/lv_disp.c ****         return;
 358:lvgl\src\lv_core/lv_disp.c ****     }
 359:lvgl\src\lv_core/lv_disp.c **** 
 360:lvgl\src\lv_core/lv_disp.c ****     if(disp->driver.clean_dcache_cb)
 361:lvgl\src\lv_core/lv_disp.c ****         disp->driver.clean_dcache_cb(&disp->driver);
 362:lvgl\src\lv_core/lv_disp.c **** }
 363:lvgl\src\lv_core/lv_disp.c **** 
 364:lvgl\src\lv_core/lv_disp.c **** /**
 365:lvgl\src\lv_core/lv_disp.c ****  * Get a pointer to the screen refresher task to
 366:lvgl\src\lv_core/lv_disp.c ****  * modify its parameters with `lv_task_...` functions.
 367:lvgl\src\lv_core/lv_disp.c ****  * @param disp pointer to a display
 368:lvgl\src\lv_core/lv_disp.c ****  * @return pointer to the display refresher task. (NULL on error)
 369:lvgl\src\lv_core/lv_disp.c ****  */
 370:lvgl\src\lv_core/lv_disp.c **** lv_task_t * _lv_disp_get_refr_task(lv_disp_t * disp)
 371:lvgl\src\lv_core/lv_disp.c **** {
 372:lvgl\src\lv_core/lv_disp.c ****     if(!disp) disp = lv_disp_get_default();
 373:lvgl\src\lv_core/lv_disp.c ****     if(!disp) {
ARM GAS  C:\Users\strap\AppData\Local\Temp\cc9WM4tW.s 			page 8


 374:lvgl\src\lv_core/lv_disp.c ****         LV_LOG_WARN("lv_disp_get_refr_task: no display registered");
 375:lvgl\src\lv_core/lv_disp.c ****         return NULL;
 376:lvgl\src\lv_core/lv_disp.c ****     }
 377:lvgl\src\lv_core/lv_disp.c **** 
 378:lvgl\src\lv_core/lv_disp.c ****     return disp->refr_task;
 379:lvgl\src\lv_core/lv_disp.c **** }
 380:lvgl\src\lv_core/lv_disp.c **** 
 381:lvgl\src\lv_core/lv_disp.c **** /**********************
 382:lvgl\src\lv_core/lv_disp.c ****  *   STATIC FUNCTIONS
 383:lvgl\src\lv_core/lv_disp.c ****  **********************/
 384:lvgl\src\lv_core/lv_disp.c **** 
 385:lvgl\src\lv_core/lv_disp.c **** #if LV_USE_ANIMATION
 386:lvgl\src\lv_core/lv_disp.c **** static void scr_load_anim_start(lv_anim_t * a)
 387:lvgl\src\lv_core/lv_disp.c **** {
 388:lvgl\src\lv_core/lv_disp.c ****     lv_disp_t * d = lv_obj_get_disp(a->var);
 389:lvgl\src\lv_core/lv_disp.c ****     d->prev_scr = lv_scr_act();
 390:lvgl\src\lv_core/lv_disp.c **** 
 391:lvgl\src\lv_core/lv_disp.c ****     lv_disp_load_scr(a->var);
 392:lvgl\src\lv_core/lv_disp.c **** }
 393:lvgl\src\lv_core/lv_disp.c **** 
 394:lvgl\src\lv_core/lv_disp.c **** static void opa_scale_anim(lv_obj_t * obj, lv_anim_value_t v)
 395:lvgl\src\lv_core/lv_disp.c **** {
 396:lvgl\src\lv_core/lv_disp.c ****     lv_obj_set_style_local_opa_scale(obj, LV_OBJ_PART_MAIN, LV_STATE_DEFAULT, v);
 397:lvgl\src\lv_core/lv_disp.c **** }
 398:lvgl\src\lv_core/lv_disp.c **** 
 399:lvgl\src\lv_core/lv_disp.c **** 
 400:lvgl\src\lv_core/lv_disp.c **** static void scr_anim_ready(lv_anim_t * a)
 401:lvgl\src\lv_core/lv_disp.c **** {
  27              		.loc 1 401 0
  28              		.cfi_startproc
  29              		@ args = 0, pretend = 0, frame = 0
  30              		@ frame_needed = 0, uses_anonymous_args = 0
  31              	.LVL0:
  32 0000 38B5     		push	{r3, r4, r5, lr}
  33              		.cfi_def_cfa_offset 16
  34              		.cfi_offset 3, -16
  35              		.cfi_offset 4, -12
  36              		.cfi_offset 5, -8
  37              		.cfi_offset 14, -4
  38 0002 0546     		mov	r5, r0
 402:lvgl\src\lv_core/lv_disp.c ****     lv_disp_t * d = lv_obj_get_disp(a->var);
  39              		.loc 1 402 0
  40 0004 0068     		ldr	r0, [r0]
  41              	.LVL1:
  42 0006 FFF7FEFF 		bl	lv_obj_get_disp
  43              	.LVL2:
  44 000a 0446     		mov	r4, r0
  45              	.LVL3:
 403:lvgl\src\lv_core/lv_disp.c **** 
 404:lvgl\src\lv_core/lv_disp.c ****     if(d->prev_scr && d->del_prev) lv_obj_del(d->prev_scr);
  46              		.loc 1 404 0
  47 000c 406C     		ldr	r0, [r0, #68]
  48              	.LVL4:
  49 000e 30B1     		cbz	r0, .L2
  50              		.loc 1 404 0 is_stmt 0 discriminator 1
  51 0010 94F85030 		ldrb	r3, [r4, #80]	@ zero_extendqisi2
  52 0014 13F0010F 		tst	r3, #1
ARM GAS  C:\Users\strap\AppData\Local\Temp\cc9WM4tW.s 			page 9


  53 0018 01D0     		beq	.L2
  54              		.loc 1 404 0 discriminator 2
  55 001a FFF7FEFF 		bl	lv_obj_del
  56              	.LVL5:
  57              	.L2:
 405:lvgl\src\lv_core/lv_disp.c ****     d->prev_scr = NULL;
  58              		.loc 1 405 0 is_stmt 1
  59 001e 0021     		movs	r1, #0
  60 0020 6164     		str	r1, [r4, #68]
 406:lvgl\src\lv_core/lv_disp.c ****     lv_style_remove_prop(lv_obj_get_local_style(a->var, LV_OBJ_PART_MAIN), LV_STYLE_OPA_SCALE);
  61              		.loc 1 406 0
  62 0022 2868     		ldr	r0, [r5]
  63 0024 FFF7FEFF 		bl	lv_obj_get_local_style
  64              	.LVL6:
  65 0028 48F20C01 		movw	r1, #32780
  66 002c FFF7FEFF 		bl	lv_style_remove_prop
  67              	.LVL7:
  68 0030 38BD     		pop	{r3, r4, r5, pc}
  69              		.cfi_endproc
  70              	.LFE349:
  71              		.size	scr_anim_ready, .-scr_anim_ready
  72 0032 00BF     		.section	.text.opa_scale_anim,"ax",%progbits
  73              		.align	2
  74              		.thumb
  75              		.thumb_func
  76              		.type	opa_scale_anim, %function
  77              	opa_scale_anim:
  78              	.LFB348:
 395:lvgl\src\lv_core/lv_disp.c ****     lv_obj_set_style_local_opa_scale(obj, LV_OBJ_PART_MAIN, LV_STATE_DEFAULT, v);
  79              		.loc 1 395 0
  80              		.cfi_startproc
  81              		@ args = 0, pretend = 0, frame = 0
  82              		@ frame_needed = 0, uses_anonymous_args = 0
  83              	.LVL8:
  84 0000 08B5     		push	{r3, lr}
  85              		.cfi_def_cfa_offset 8
  86              		.cfi_offset 3, -8
  87              		.cfi_offset 14, -4
  88              	.LVL9:
  89              	.LBB84:
  90              	.LBB85:
  91              		.file 2 "lvgl\\src\\lv_core\\lv_obj_style_dec.h"
   1:lvgl\src\lv_core/lv_obj_style_dec.h **** 
   2:lvgl\src\lv_core/lv_obj_style_dec.h **** /**
   3:lvgl\src\lv_core/lv_obj_style_dec.h ****  * @file lv_obj_style_dec.h
   4:lvgl\src\lv_core/lv_obj_style_dec.h ****  *
   5:lvgl\src\lv_core/lv_obj_style_dec.h ****  */
   6:lvgl\src\lv_core/lv_obj_style_dec.h **** 
   7:lvgl\src\lv_core/lv_obj_style_dec.h **** #ifndef LV_OBJ_STYLE_DEC_H
   8:lvgl\src\lv_core/lv_obj_style_dec.h **** #define LV_OBJ_STYLE_DEC_H
   9:lvgl\src\lv_core/lv_obj_style_dec.h **** 
  10:lvgl\src\lv_core/lv_obj_style_dec.h **** #ifdef __cplusplus
  11:lvgl\src\lv_core/lv_obj_style_dec.h **** extern "C" {
  12:lvgl\src\lv_core/lv_obj_style_dec.h **** #endif
  13:lvgl\src\lv_core/lv_obj_style_dec.h **** 
  14:lvgl\src\lv_core/lv_obj_style_dec.h **** /*********************
  15:lvgl\src\lv_core/lv_obj_style_dec.h ****  *      DEFINES
ARM GAS  C:\Users\strap\AppData\Local\Temp\cc9WM4tW.s 			page 10


  16:lvgl\src\lv_core/lv_obj_style_dec.h ****  *********************/
  17:lvgl\src\lv_core/lv_obj_style_dec.h **** 
  18:lvgl\src\lv_core/lv_obj_style_dec.h **** /**
  19:lvgl\src\lv_core/lv_obj_style_dec.h ****  * Macro to declare the most important style set/get API functions.
  20:lvgl\src\lv_core/lv_obj_style_dec.h ****  *
  21:lvgl\src\lv_core/lv_obj_style_dec.h ****  * Get the value of a style property from an object in the object's current state
  22:lvgl\src\lv_core/lv_obj_style_dec.h ****  * -----------------------------------------------------------------------------
  23:lvgl\src\lv_core/lv_obj_style_dec.h ****  *  - Get the value of a style property from an object in the object's current state.
  24:lvgl\src\lv_core/lv_obj_style_dec.h ****  *  - Transition animation is taken into account.
  25:lvgl\src\lv_core/lv_obj_style_dec.h ****  *  - If the property is not set in the object's styles check the parent(s) if the property can be 
  26:lvgl\src\lv_core/lv_obj_style_dec.h ****  *  - If still not found return a default value.
  27:lvgl\src\lv_core/lv_obj_style_dec.h ****  *  - For example:
  28:lvgl\src\lv_core/lv_obj_style_dec.h ****  *      `lv_style_int_t w = lv_obj_get_style_border_width(btn1, LV_BTN_PART_MAIN);`
  29:lvgl\src\lv_core/lv_obj_style_dec.h ****  *
  30:lvgl\src\lv_core/lv_obj_style_dec.h ****  * Set a local style property for an object in a given state
  31:lvgl\src\lv_core/lv_obj_style_dec.h ****  * ---------------------------------------------------------
  32:lvgl\src\lv_core/lv_obj_style_dec.h ****  *  - For example:
  33:lvgl\src\lv_core/lv_obj_style_dec.h ****  *      `lv_obj_set_style_local_border_width(btn1, LV_BTN_PART_MAIN, LV_STATE_PRESSED, 2);`
  34:lvgl\src\lv_core/lv_obj_style_dec.h ****  *
  35:lvgl\src\lv_core/lv_obj_style_dec.h ****  * Get a local style property's value of an object in a given state
  36:lvgl\src\lv_core/lv_obj_style_dec.h ****  * ----------------------------------------------------------------
  37:lvgl\src\lv_core/lv_obj_style_dec.h ****  *  - Return the best matching property in the given state.
  38:lvgl\src\lv_core/lv_obj_style_dec.h ****  *  - E.g. if `state` parameter is LV_STATE_PRESSED | LV_STATE_CHECKED` but the property defined on
  39:lvgl\src\lv_core/lv_obj_style_dec.h ****  *    `LV_STATE_PRESSED` and `LV_STATE_DEFAULT` the best matching state is `LV_STATE_PRESSED`
  40:lvgl\src\lv_core/lv_obj_style_dec.h ****  *    (because it has higher precedence) and it will be returned.
  41:lvgl\src\lv_core/lv_obj_style_dec.h ****  *  - If the property is not found even in `LV_STATE_DEFAULT` `-1` is returned.
  42:lvgl\src\lv_core/lv_obj_style_dec.h ****  *  - For example:
  43:lvgl\src\lv_core/lv_obj_style_dec.h ****  *      `//Type of result should be lv_style_int_t/lv_opa_t/lv_color_t/const void * according to th
  44:lvgl\src\lv_core/lv_obj_style_dec.h ****  *      `lv_style_int_t result;`
  45:lvgl\src\lv_core/lv_obj_style_dec.h ****  *      `lv_obj_get_style_local_border_width(btn1, LV_BTN_PART_MAIN, LV_STATE_PRESSED, &result);`
  46:lvgl\src\lv_core/lv_obj_style_dec.h ****  *      `if(weight > 0) ...the property is found and loaded into result...`
  47:lvgl\src\lv_core/lv_obj_style_dec.h ****  *
  48:lvgl\src\lv_core/lv_obj_style_dec.h ****  * Get the value from a style in a given state
  49:lvgl\src\lv_core/lv_obj_style_dec.h ****  * -------------------------------------------
  50:lvgl\src\lv_core/lv_obj_style_dec.h ****  * - The same rules applies to the return value then for "lv_obj_get_style_local_...()" above
  51:lvgl\src\lv_core/lv_obj_style_dec.h ****  * - For example
  52:lvgl\src\lv_core/lv_obj_style_dec.h ****  *      `int16_t weight = lv_style_get_border_width(&style1, LV_STATE_PRESSED, &result);`
  53:lvgl\src\lv_core/lv_obj_style_dec.h ****  *      `if(weight > 0) ...the property is found and loaded into result...`
  54:lvgl\src\lv_core/lv_obj_style_dec.h **** 
  55:lvgl\src\lv_core/lv_obj_style_dec.h ****  * Set a value in a style in a given state
  56:lvgl\src\lv_core/lv_obj_style_dec.h ****  * ---------------------------------------
  57:lvgl\src\lv_core/lv_obj_style_dec.h ****  * - For example
  58:lvgl\src\lv_core/lv_obj_style_dec.h ****  *      `lv_style_set_border_width(&style1, LV_STATE_PRESSED, 2);`
  59:lvgl\src\lv_core/lv_obj_style_dec.h ****  */
  60:lvgl\src\lv_core/lv_obj_style_dec.h **** 
  61:lvgl\src\lv_core/lv_obj_style_dec.h **** #define _OBJ_GET_STYLE_scalar(prop_name, func_name, value_type, style_type)                        
  62:lvgl\src\lv_core/lv_obj_style_dec.h ****     static inline value_type lv_obj_get_style_##func_name (const lv_obj_t * obj, uint8_t part)     
  63:lvgl\src\lv_core/lv_obj_style_dec.h ****     {                                                                                              
  64:lvgl\src\lv_core/lv_obj_style_dec.h ****         return (value_type) _lv_obj_get_style##style_type (obj, part, LV_STYLE_##prop_name);       
  65:lvgl\src\lv_core/lv_obj_style_dec.h ****     }
  66:lvgl\src\lv_core/lv_obj_style_dec.h **** 
  67:lvgl\src\lv_core/lv_obj_style_dec.h **** #define _OBJ_GET_STYLE_nonscalar(prop_name, func_name, value_type, style_type)                     
  68:lvgl\src\lv_core/lv_obj_style_dec.h ****     static inline value_type lv_obj_get_style_##func_name (const lv_obj_t * obj, uint8_t part)     
  69:lvgl\src\lv_core/lv_obj_style_dec.h ****     {                                                                                              
  70:lvgl\src\lv_core/lv_obj_style_dec.h ****         return _lv_obj_get_style##style_type (obj, part, LV_STYLE_##prop_name);                    
  71:lvgl\src\lv_core/lv_obj_style_dec.h ****     }
  72:lvgl\src\lv_core/lv_obj_style_dec.h **** 
ARM GAS  C:\Users\strap\AppData\Local\Temp\cc9WM4tW.s 			page 11


  73:lvgl\src\lv_core/lv_obj_style_dec.h **** #define _OBJ_SET_STYLE_LOCAL_scalar(prop_name, func_name, value_type, style_type)                  
  74:lvgl\src\lv_core/lv_obj_style_dec.h ****     static inline void lv_obj_set_style_local_##func_name (lv_obj_t * obj, uint8_t part, lv_state_t
  75:lvgl\src\lv_core/lv_obj_style_dec.h ****     {                                                                                              
  76:lvgl\src\lv_core/lv_obj_style_dec.h ****         _lv_obj_set_style_local##style_type (obj, part, LV_STYLE_##prop_name | (state << LV_STYLE_S
  77:lvgl\src\lv_core/lv_obj_style_dec.h ****     }
  78:lvgl\src\lv_core/lv_obj_style_dec.h **** 
  79:lvgl\src\lv_core/lv_obj_style_dec.h **** #define _OBJ_SET_STYLE_LOCAL_nonscalar(prop_name, func_name, value_type, style_type)               
  80:lvgl\src\lv_core/lv_obj_style_dec.h ****     static inline void lv_obj_set_style_local_##func_name (lv_obj_t * obj, uint8_t part, lv_state_t
  81:lvgl\src\lv_core/lv_obj_style_dec.h ****     {                                                                                              
  82:lvgl\src\lv_core/lv_obj_style_dec.h ****         _lv_obj_set_style_local##style_type (obj, part, LV_STYLE_##prop_name | (state << LV_STYLE_S
  83:lvgl\src\lv_core/lv_obj_style_dec.h ****     }
  84:lvgl\src\lv_core/lv_obj_style_dec.h **** 
  85:lvgl\src\lv_core/lv_obj_style_dec.h **** #define _OBJ_SET_STYLE_scalar(prop_name, func_name, value_type, style_type)                        
  86:lvgl\src\lv_core/lv_obj_style_dec.h ****     static inline void lv_style_set_##func_name (lv_style_t * style, lv_state_t state, value_type v
  87:lvgl\src\lv_core/lv_obj_style_dec.h ****     {                                                                                              
  88:lvgl\src\lv_core/lv_obj_style_dec.h ****         _lv_style_set##style_type (style, LV_STYLE_##prop_name | (state << LV_STYLE_STATE_POS), val
  89:lvgl\src\lv_core/lv_obj_style_dec.h ****     }
  90:lvgl\src\lv_core/lv_obj_style_dec.h **** 
  91:lvgl\src\lv_core/lv_obj_style_dec.h **** #define _OBJ_SET_STYLE_nonscalar(prop_name, func_name, value_type, style_type)                     
  92:lvgl\src\lv_core/lv_obj_style_dec.h ****     static inline void lv_style_set_##func_name (lv_style_t * style, lv_state_t state, value_type v
  93:lvgl\src\lv_core/lv_obj_style_dec.h ****     {                                                                                              
  94:lvgl\src\lv_core/lv_obj_style_dec.h ****         _lv_style_set##style_type (style, LV_STYLE_##prop_name | (state << LV_STYLE_STATE_POS), val
  95:lvgl\src\lv_core/lv_obj_style_dec.h ****     }
  96:lvgl\src\lv_core/lv_obj_style_dec.h **** 
  97:lvgl\src\lv_core/lv_obj_style_dec.h **** #define _LV_OBJ_STYLE_SET_GET_DECLARE(prop_name, func_name, value_type, style_type, scalar)        
  98:lvgl\src\lv_core/lv_obj_style_dec.h ****     _OBJ_GET_STYLE_##scalar(prop_name, func_name, value_type, style_type)                          
  99:lvgl\src\lv_core/lv_obj_style_dec.h ****     _OBJ_SET_STYLE_LOCAL_##scalar(prop_name, func_name, value_type, style_type)                    
 100:lvgl\src\lv_core/lv_obj_style_dec.h ****     _OBJ_SET_STYLE_##scalar(prop_name, func_name, value_type, style_type)
 101:lvgl\src\lv_core/lv_obj_style_dec.h **** 
 102:lvgl\src\lv_core/lv_obj_style_dec.h **** _LV_OBJ_STYLE_SET_GET_DECLARE(RADIUS, radius, lv_style_int_t, _int, scalar)
 103:lvgl\src\lv_core/lv_obj_style_dec.h **** _LV_OBJ_STYLE_SET_GET_DECLARE(CLIP_CORNER, clip_corner, bool, _int, scalar)
 104:lvgl\src\lv_core/lv_obj_style_dec.h **** _LV_OBJ_STYLE_SET_GET_DECLARE(SIZE, size, lv_style_int_t, _int, scalar)
 105:lvgl\src\lv_core/lv_obj_style_dec.h **** _LV_OBJ_STYLE_SET_GET_DECLARE(TRANSFORM_WIDTH, transform_width, lv_style_int_t, _int, scalar)
 106:lvgl\src\lv_core/lv_obj_style_dec.h **** _LV_OBJ_STYLE_SET_GET_DECLARE(TRANSFORM_HEIGHT, transform_height, lv_style_int_t, _int, scalar)
 107:lvgl\src\lv_core/lv_obj_style_dec.h **** _LV_OBJ_STYLE_SET_GET_DECLARE(TRANSFORM_ANGLE, transform_angle, lv_style_int_t, _int, scalar)
 108:lvgl\src\lv_core/lv_obj_style_dec.h **** _LV_OBJ_STYLE_SET_GET_DECLARE(TRANSFORM_ZOOM, transform_zoom, lv_style_int_t, _int, scalar)
 109:lvgl\src\lv_core/lv_obj_style_dec.h **** _LV_OBJ_STYLE_SET_GET_DECLARE(OPA_SCALE, opa_scale, lv_opa_t, _opa, scalar)
  92              		.loc 2 109 0
  93 0002 CBB2     		uxtb	r3, r1
  94 0004 48F20C02 		movw	r2, #32780
  95 0008 0021     		movs	r1, #0
  96              	.LVL10:
  97 000a FFF7FEFF 		bl	_lv_obj_set_style_local_opa
  98              	.LVL11:
  99 000e 08BD     		pop	{r3, pc}
 100              	.LBE85:
 101              	.LBE84:
 102              		.cfi_endproc
 103              	.LFE348:
 104              		.size	opa_scale_anim, .-opa_scale_anim
 105              		.section	.text.lv_disp_get_scr_act,"ax",%progbits
 106              		.align	2
 107              		.global	lv_disp_get_scr_act
 108              		.thumb
 109              		.thumb_func
 110              		.type	lv_disp_get_scr_act, %function
 111              	lv_disp_get_scr_act:
ARM GAS  C:\Users\strap\AppData\Local\Temp\cc9WM4tW.s 			page 12


 112              	.LFB333:
  50:lvgl\src\lv_core/lv_disp.c ****     if(!disp) disp = lv_disp_get_default();
 113              		.loc 1 50 0
 114              		.cfi_startproc
 115              		@ args = 0, pretend = 0, frame = 0
 116              		@ frame_needed = 0, uses_anonymous_args = 0
 117              	.LVL12:
 118 0000 08B5     		push	{r3, lr}
 119              		.cfi_def_cfa_offset 8
 120              		.cfi_offset 3, -8
 121              		.cfi_offset 14, -4
  51:lvgl\src\lv_core/lv_disp.c ****     if(!disp) {
 122              		.loc 1 51 0
 123 0002 0346     		mov	r3, r0
 124 0004 10B9     		cbnz	r0, .L7
  51:lvgl\src\lv_core/lv_disp.c ****     if(!disp) {
 125              		.loc 1 51 0 is_stmt 0 discriminator 1
 126 0006 FFF7FEFF 		bl	lv_disp_get_default
 127              	.LVL13:
 128 000a 0346     		mov	r3, r0
 129              	.LVL14:
 130              	.L7:
  52:lvgl\src\lv_core/lv_disp.c ****         LV_LOG_WARN("no display registered to get its active screen");
 131              		.loc 1 52 0 is_stmt 1
 132 000c 0BB1     		cbz	r3, .L9
  57:lvgl\src\lv_core/lv_disp.c **** }
 133              		.loc 1 57 0
 134 000e 186C     		ldr	r0, [r3, #64]
 135              	.LVL15:
 136 0010 08BD     		pop	{r3, pc}
 137              	.LVL16:
 138              	.L9:
  54:lvgl\src\lv_core/lv_disp.c ****     }
 139              		.loc 1 54 0
 140 0012 0020     		movs	r0, #0
 141              	.LVL17:
  58:lvgl\src\lv_core/lv_disp.c **** 
 142              		.loc 1 58 0
 143 0014 08BD     		pop	{r3, pc}
 144              		.cfi_endproc
 145              	.LFE333:
 146              		.size	lv_disp_get_scr_act, .-lv_disp_get_scr_act
 147 0016 00BF     		.section	.text.lv_disp_get_scr_prev,"ax",%progbits
 148              		.align	2
 149              		.global	lv_disp_get_scr_prev
 150              		.thumb
 151              		.thumb_func
 152              		.type	lv_disp_get_scr_prev, %function
 153              	lv_disp_get_scr_prev:
 154              	.LFB334:
  67:lvgl\src\lv_core/lv_disp.c ****     if(!disp) disp = lv_disp_get_default();
 155              		.loc 1 67 0
 156              		.cfi_startproc
 157              		@ args = 0, pretend = 0, frame = 0
 158              		@ frame_needed = 0, uses_anonymous_args = 0
 159              	.LVL18:
 160 0000 08B5     		push	{r3, lr}
ARM GAS  C:\Users\strap\AppData\Local\Temp\cc9WM4tW.s 			page 13


 161              		.cfi_def_cfa_offset 8
 162              		.cfi_offset 3, -8
 163              		.cfi_offset 14, -4
  68:lvgl\src\lv_core/lv_disp.c ****     if(!disp) {
 164              		.loc 1 68 0
 165 0002 0346     		mov	r3, r0
 166 0004 10B9     		cbnz	r0, .L12
  68:lvgl\src\lv_core/lv_disp.c ****     if(!disp) {
 167              		.loc 1 68 0 is_stmt 0 discriminator 1
 168 0006 FFF7FEFF 		bl	lv_disp_get_default
 169              	.LVL19:
 170 000a 0346     		mov	r3, r0
 171              	.LVL20:
 172              	.L12:
  69:lvgl\src\lv_core/lv_disp.c ****         LV_LOG_WARN("no display registered to get its previous screen");
 173              		.loc 1 69 0 is_stmt 1
 174 000c 0BB1     		cbz	r3, .L14
  74:lvgl\src\lv_core/lv_disp.c **** }
 175              		.loc 1 74 0
 176 000e 586C     		ldr	r0, [r3, #68]
 177              	.LVL21:
 178 0010 08BD     		pop	{r3, pc}
 179              	.LVL22:
 180              	.L14:
  71:lvgl\src\lv_core/lv_disp.c ****     }
 181              		.loc 1 71 0
 182 0012 0020     		movs	r0, #0
 183              	.LVL23:
  75:lvgl\src\lv_core/lv_disp.c **** 
 184              		.loc 1 75 0
 185 0014 08BD     		pop	{r3, pc}
 186              		.cfi_endproc
 187              	.LFE334:
 188              		.size	lv_disp_get_scr_prev, .-lv_disp_get_scr_prev
 189 0016 00BF     		.section	.text.lv_disp_load_scr,"ax",%progbits
 190              		.align	2
 191              		.global	lv_disp_load_scr
 192              		.thumb
 193              		.thumb_func
 194              		.type	lv_disp_load_scr, %function
 195              	lv_disp_load_scr:
 196              	.LFB335:
  82:lvgl\src\lv_core/lv_disp.c ****     lv_disp_t * d = lv_obj_get_disp(scr);
 197              		.loc 1 82 0
 198              		.cfi_startproc
 199              		@ args = 0, pretend = 0, frame = 0
 200              		@ frame_needed = 0, uses_anonymous_args = 0
 201              	.LVL24:
 202 0000 10B5     		push	{r4, lr}
 203              		.cfi_def_cfa_offset 8
 204              		.cfi_offset 4, -8
 205              		.cfi_offset 14, -4
 206 0002 0446     		mov	r4, r0
  83:lvgl\src\lv_core/lv_disp.c ****     if(!d) return;  /*Shouldn't happen, just to be sure*/
 207              		.loc 1 83 0
 208 0004 FFF7FEFF 		bl	lv_obj_get_disp
 209              	.LVL25:
ARM GAS  C:\Users\strap\AppData\Local\Temp\cc9WM4tW.s 			page 14


  84:lvgl\src\lv_core/lv_disp.c ****     d->act_scr = scr;
 210              		.loc 1 84 0
 211 0008 18B1     		cbz	r0, .L16
  85:lvgl\src\lv_core/lv_disp.c **** 
 212              		.loc 1 85 0
 213 000a 0464     		str	r4, [r0, #64]
  87:lvgl\src\lv_core/lv_disp.c **** }
 214              		.loc 1 87 0
 215 000c 2046     		mov	r0, r4
 216              	.LVL26:
 217 000e FFF7FEFF 		bl	lv_obj_invalidate
 218              	.LVL27:
 219              	.L16:
 220 0012 10BD     		pop	{r4, pc}
 221              		.cfi_endproc
 222              	.LFE335:
 223              		.size	lv_disp_load_scr, .-lv_disp_load_scr
 224              		.section	.text.scr_load_anim_start,"ax",%progbits
 225              		.align	2
 226              		.thumb
 227              		.thumb_func
 228              		.type	scr_load_anim_start, %function
 229              	scr_load_anim_start:
 230              	.LFB347:
 387:lvgl\src\lv_core/lv_disp.c ****     lv_disp_t * d = lv_obj_get_disp(a->var);
 231              		.loc 1 387 0
 232              		.cfi_startproc
 233              		@ args = 0, pretend = 0, frame = 0
 234              		@ frame_needed = 0, uses_anonymous_args = 0
 235              	.LVL28:
 236 0000 38B5     		push	{r3, r4, r5, lr}
 237              		.cfi_def_cfa_offset 16
 238              		.cfi_offset 3, -16
 239              		.cfi_offset 4, -12
 240              		.cfi_offset 5, -8
 241              		.cfi_offset 14, -4
 242 0002 0446     		mov	r4, r0
 388:lvgl\src\lv_core/lv_disp.c ****     d->prev_scr = lv_scr_act();
 243              		.loc 1 388 0
 244 0004 0068     		ldr	r0, [r0]
 245              	.LVL29:
 246 0006 FFF7FEFF 		bl	lv_obj_get_disp
 247              	.LVL30:
 248 000a 0546     		mov	r5, r0
 249              	.LVL31:
 250              	.LBB86:
 251              	.LBB87:
 252              		.file 3 "lvgl\\src\\lv_core\\lv_disp.h"
   1:lvgl\src\lv_core/lv_disp.h **** /**
   2:lvgl\src\lv_core/lv_disp.h ****  * @file lv_disp.h
   3:lvgl\src\lv_core/lv_disp.h ****  *
   4:lvgl\src\lv_core/lv_disp.h ****  */
   5:lvgl\src\lv_core/lv_disp.h **** 
   6:lvgl\src\lv_core/lv_disp.h **** #ifndef LV_DISP_H
   7:lvgl\src\lv_core/lv_disp.h **** #define LV_DISP_H
   8:lvgl\src\lv_core/lv_disp.h **** 
   9:lvgl\src\lv_core/lv_disp.h **** #ifdef __cplusplus
ARM GAS  C:\Users\strap\AppData\Local\Temp\cc9WM4tW.s 			page 15


  10:lvgl\src\lv_core/lv_disp.h **** extern "C" {
  11:lvgl\src\lv_core/lv_disp.h **** #endif
  12:lvgl\src\lv_core/lv_disp.h **** 
  13:lvgl\src\lv_core/lv_disp.h **** /*********************
  14:lvgl\src\lv_core/lv_disp.h ****  *      INCLUDES
  15:lvgl\src\lv_core/lv_disp.h ****  *********************/
  16:lvgl\src\lv_core/lv_disp.h **** #include "../lv_hal/lv_hal.h"
  17:lvgl\src\lv_core/lv_disp.h **** #include "lv_obj.h"
  18:lvgl\src\lv_core/lv_disp.h **** 
  19:lvgl\src\lv_core/lv_disp.h **** /*********************
  20:lvgl\src\lv_core/lv_disp.h ****  *      DEFINES
  21:lvgl\src\lv_core/lv_disp.h ****  *********************/
  22:lvgl\src\lv_core/lv_disp.h **** 
  23:lvgl\src\lv_core/lv_disp.h **** /**********************
  24:lvgl\src\lv_core/lv_disp.h ****  *      TYPEDEFS
  25:lvgl\src\lv_core/lv_disp.h ****  **********************/
  26:lvgl\src\lv_core/lv_disp.h **** 
  27:lvgl\src\lv_core/lv_disp.h **** typedef enum {
  28:lvgl\src\lv_core/lv_disp.h ****     LV_SCR_LOAD_ANIM_NONE,
  29:lvgl\src\lv_core/lv_disp.h ****     LV_SCR_LOAD_ANIM_OVER_LEFT,
  30:lvgl\src\lv_core/lv_disp.h ****     LV_SCR_LOAD_ANIM_OVER_RIGHT,
  31:lvgl\src\lv_core/lv_disp.h ****     LV_SCR_LOAD_ANIM_OVER_TOP,
  32:lvgl\src\lv_core/lv_disp.h ****     LV_SCR_LOAD_ANIM_OVER_BOTTOM,
  33:lvgl\src\lv_core/lv_disp.h ****     LV_SCR_LOAD_ANIM_MOVE_LEFT,
  34:lvgl\src\lv_core/lv_disp.h ****     LV_SCR_LOAD_ANIM_MOVE_RIGHT,
  35:lvgl\src\lv_core/lv_disp.h ****     LV_SCR_LOAD_ANIM_MOVE_TOP,
  36:lvgl\src\lv_core/lv_disp.h ****     LV_SCR_LOAD_ANIM_MOVE_BOTTOM,
  37:lvgl\src\lv_core/lv_disp.h ****     LV_SCR_LOAD_ANIM_FADE_ON,
  38:lvgl\src\lv_core/lv_disp.h **** } lv_scr_load_anim_t;
  39:lvgl\src\lv_core/lv_disp.h **** 
  40:lvgl\src\lv_core/lv_disp.h **** /**********************
  41:lvgl\src\lv_core/lv_disp.h ****  * GLOBAL PROTOTYPES
  42:lvgl\src\lv_core/lv_disp.h ****  **********************/
  43:lvgl\src\lv_core/lv_disp.h **** 
  44:lvgl\src\lv_core/lv_disp.h **** /**
  45:lvgl\src\lv_core/lv_disp.h ****  * Return with a pointer to the active screen
  46:lvgl\src\lv_core/lv_disp.h ****  * @param disp pointer to display which active screen should be get. (NULL to use the default
  47:lvgl\src\lv_core/lv_disp.h ****  * screen)
  48:lvgl\src\lv_core/lv_disp.h ****  * @return pointer to the active screen object (loaded by 'lv_scr_load()')
  49:lvgl\src\lv_core/lv_disp.h ****  */
  50:lvgl\src\lv_core/lv_disp.h **** lv_obj_t * lv_disp_get_scr_act(lv_disp_t * disp);
  51:lvgl\src\lv_core/lv_disp.h **** 
  52:lvgl\src\lv_core/lv_disp.h **** /**
  53:lvgl\src\lv_core/lv_disp.h ****  * Return with a pointer to the previous screen. Only used during screen transitions.
  54:lvgl\src\lv_core/lv_disp.h ****  * @param disp pointer to display which previous screen should be get. (NULL to use the default
  55:lvgl\src\lv_core/lv_disp.h ****  * screen)
  56:lvgl\src\lv_core/lv_disp.h ****  * @return pointer to the previous screen object or NULL if not used now
  57:lvgl\src\lv_core/lv_disp.h ****  */
  58:lvgl\src\lv_core/lv_disp.h **** lv_obj_t * lv_disp_get_scr_prev(lv_disp_t * disp);
  59:lvgl\src\lv_core/lv_disp.h **** 
  60:lvgl\src\lv_core/lv_disp.h **** /**
  61:lvgl\src\lv_core/lv_disp.h ****  * Make a screen active
  62:lvgl\src\lv_core/lv_disp.h ****  * @param scr pointer to a screen
  63:lvgl\src\lv_core/lv_disp.h ****  */
  64:lvgl\src\lv_core/lv_disp.h **** void lv_disp_load_scr(lv_obj_t * scr);
  65:lvgl\src\lv_core/lv_disp.h **** 
  66:lvgl\src\lv_core/lv_disp.h **** /**
ARM GAS  C:\Users\strap\AppData\Local\Temp\cc9WM4tW.s 			page 16


  67:lvgl\src\lv_core/lv_disp.h ****  * Return with the top layer. (Same on every screen and it is above the normal screen layer)
  68:lvgl\src\lv_core/lv_disp.h ****  * @param disp pointer to display which top layer should be get. (NULL to use the default screen)
  69:lvgl\src\lv_core/lv_disp.h ****  * @return pointer to the top layer object  (transparent screen sized lv_obj)
  70:lvgl\src\lv_core/lv_disp.h ****  */
  71:lvgl\src\lv_core/lv_disp.h **** lv_obj_t * lv_disp_get_layer_top(lv_disp_t * disp);
  72:lvgl\src\lv_core/lv_disp.h **** 
  73:lvgl\src\lv_core/lv_disp.h **** /**
  74:lvgl\src\lv_core/lv_disp.h ****  * Return with the sys. layer. (Same on every screen and it is above the normal screen and the top
  75:lvgl\src\lv_core/lv_disp.h ****  * layer)
  76:lvgl\src\lv_core/lv_disp.h ****  * @param disp pointer to display which sys. layer  should be get. (NULL to use the default screen)
  77:lvgl\src\lv_core/lv_disp.h ****  * @return pointer to the sys layer object  (transparent screen sized lv_obj)
  78:lvgl\src\lv_core/lv_disp.h ****  */
  79:lvgl\src\lv_core/lv_disp.h **** lv_obj_t * lv_disp_get_layer_sys(lv_disp_t * disp);
  80:lvgl\src\lv_core/lv_disp.h **** 
  81:lvgl\src\lv_core/lv_disp.h **** /**
  82:lvgl\src\lv_core/lv_disp.h ****  * Assign a screen to a display.
  83:lvgl\src\lv_core/lv_disp.h ****  * @param disp pointer to a display where to assign the screen
  84:lvgl\src\lv_core/lv_disp.h ****  * @param scr pointer to a screen object to assign
  85:lvgl\src\lv_core/lv_disp.h ****  */
  86:lvgl\src\lv_core/lv_disp.h **** void lv_disp_assign_screen(lv_disp_t * disp, lv_obj_t * scr);
  87:lvgl\src\lv_core/lv_disp.h **** 
  88:lvgl\src\lv_core/lv_disp.h **** 
  89:lvgl\src\lv_core/lv_disp.h **** /**
  90:lvgl\src\lv_core/lv_disp.h ****  * Set the background color of a display
  91:lvgl\src\lv_core/lv_disp.h ****  * @param disp pointer to a display
  92:lvgl\src\lv_core/lv_disp.h ****  * @param color color of the background
  93:lvgl\src\lv_core/lv_disp.h ****  */
  94:lvgl\src\lv_core/lv_disp.h **** void lv_disp_set_bg_color(lv_disp_t * disp, lv_color_t color);
  95:lvgl\src\lv_core/lv_disp.h **** 
  96:lvgl\src\lv_core/lv_disp.h **** /**
  97:lvgl\src\lv_core/lv_disp.h ****  * Set the background image of a display
  98:lvgl\src\lv_core/lv_disp.h ****  * @param disp pointer to a display
  99:lvgl\src\lv_core/lv_disp.h ****  * @param img_src path to file or pointer to an `lv_img_dsc_t` variable
 100:lvgl\src\lv_core/lv_disp.h ****  */
 101:lvgl\src\lv_core/lv_disp.h **** void lv_disp_set_bg_image(lv_disp_t * disp, const void  * img_src);
 102:lvgl\src\lv_core/lv_disp.h **** 
 103:lvgl\src\lv_core/lv_disp.h **** /**
 104:lvgl\src\lv_core/lv_disp.h ****  * Opacity of the background
 105:lvgl\src\lv_core/lv_disp.h ****  * @param disp pointer to a display
 106:lvgl\src\lv_core/lv_disp.h ****  * @param opa opacity (0..255)
 107:lvgl\src\lv_core/lv_disp.h ****  */
 108:lvgl\src\lv_core/lv_disp.h **** void lv_disp_set_bg_opa(lv_disp_t * disp, lv_opa_t opa);
 109:lvgl\src\lv_core/lv_disp.h **** 
 110:lvgl\src\lv_core/lv_disp.h **** #if LV_USE_ANIMATION
 111:lvgl\src\lv_core/lv_disp.h **** 
 112:lvgl\src\lv_core/lv_disp.h **** /**
 113:lvgl\src\lv_core/lv_disp.h ****  * Switch screen with animation
 114:lvgl\src\lv_core/lv_disp.h ****  * @param scr pointer to the new screen to load
 115:lvgl\src\lv_core/lv_disp.h ****  * @param anim_type type of the animation from `lv_scr_load_anim_t`. E.g.  `LV_SCR_LOAD_ANIM_MOVE_L
 116:lvgl\src\lv_core/lv_disp.h ****  * @param time time of the animation
 117:lvgl\src\lv_core/lv_disp.h ****  * @param delay delay before the transition
 118:lvgl\src\lv_core/lv_disp.h ****  * @param auto_del true: automatically delete the old screen
 119:lvgl\src\lv_core/lv_disp.h ****  */
 120:lvgl\src\lv_core/lv_disp.h **** void lv_scr_load_anim(lv_obj_t * scr, lv_scr_load_anim_t anim_type, uint32_t time, uint32_t delay, 
 121:lvgl\src\lv_core/lv_disp.h **** 
 122:lvgl\src\lv_core/lv_disp.h **** #endif
 123:lvgl\src\lv_core/lv_disp.h **** /**
ARM GAS  C:\Users\strap\AppData\Local\Temp\cc9WM4tW.s 			page 17


 124:lvgl\src\lv_core/lv_disp.h ****  * Get elapsed time since last user activity on a display (e.g. click)
 125:lvgl\src\lv_core/lv_disp.h ****  * @param disp pointer to an display (NULL to get the overall smallest inactivity)
 126:lvgl\src\lv_core/lv_disp.h ****  * @return elapsed ticks (milliseconds) since the last activity
 127:lvgl\src\lv_core/lv_disp.h ****  */
 128:lvgl\src\lv_core/lv_disp.h **** uint32_t lv_disp_get_inactive_time(const lv_disp_t * disp);
 129:lvgl\src\lv_core/lv_disp.h **** 
 130:lvgl\src\lv_core/lv_disp.h **** /**
 131:lvgl\src\lv_core/lv_disp.h ****  * Manually trigger an activity on a display
 132:lvgl\src\lv_core/lv_disp.h ****  * @param disp pointer to an display (NULL to use the default display)
 133:lvgl\src\lv_core/lv_disp.h ****  */
 134:lvgl\src\lv_core/lv_disp.h **** void lv_disp_trig_activity(lv_disp_t * disp);
 135:lvgl\src\lv_core/lv_disp.h **** 
 136:lvgl\src\lv_core/lv_disp.h **** /**
 137:lvgl\src\lv_core/lv_disp.h ****  * Clean any CPU cache that is related to the display.
 138:lvgl\src\lv_core/lv_disp.h ****  * @param disp pointer to an display (NULL to use the default display)
 139:lvgl\src\lv_core/lv_disp.h ****  */
 140:lvgl\src\lv_core/lv_disp.h **** void lv_disp_clean_dcache(lv_disp_t * disp);
 141:lvgl\src\lv_core/lv_disp.h **** 
 142:lvgl\src\lv_core/lv_disp.h **** /**
 143:lvgl\src\lv_core/lv_disp.h ****  * Get a pointer to the screen refresher task to
 144:lvgl\src\lv_core/lv_disp.h ****  * modify its parameters with `lv_task_...` functions.
 145:lvgl\src\lv_core/lv_disp.h ****  * @param disp pointer to a display
 146:lvgl\src\lv_core/lv_disp.h ****  * @return pointer to the display refresher task. (NULL on error)
 147:lvgl\src\lv_core/lv_disp.h ****  */
 148:lvgl\src\lv_core/lv_disp.h **** lv_task_t * _lv_disp_get_refr_task(lv_disp_t * disp);
 149:lvgl\src\lv_core/lv_disp.h **** 
 150:lvgl\src\lv_core/lv_disp.h **** /*------------------------------------------------
 151:lvgl\src\lv_core/lv_disp.h ****  * To improve backward compatibility
 152:lvgl\src\lv_core/lv_disp.h ****  * Recommended only if you have one display
 153:lvgl\src\lv_core/lv_disp.h ****  *------------------------------------------------*/
 154:lvgl\src\lv_core/lv_disp.h **** 
 155:lvgl\src\lv_core/lv_disp.h **** /**
 156:lvgl\src\lv_core/lv_disp.h ****  * Get the active screen of the default display
 157:lvgl\src\lv_core/lv_disp.h ****  * @return pointer to the active screen
 158:lvgl\src\lv_core/lv_disp.h ****  */
 159:lvgl\src\lv_core/lv_disp.h **** static inline lv_obj_t * lv_scr_act(void)
 160:lvgl\src\lv_core/lv_disp.h **** {
 161:lvgl\src\lv_core/lv_disp.h ****     return lv_disp_get_scr_act(lv_disp_get_default());
 253              		.loc 3 161 0
 254 000c FFF7FEFF 		bl	lv_disp_get_default
 255              	.LVL32:
 256 0010 FFF7FEFF 		bl	lv_disp_get_scr_act
 257              	.LVL33:
 258              	.LBE87:
 259              	.LBE86:
 389:lvgl\src\lv_core/lv_disp.c **** 
 260              		.loc 1 389 0
 261 0014 6864     		str	r0, [r5, #68]
 391:lvgl\src\lv_core/lv_disp.c **** }
 262              		.loc 1 391 0
 263 0016 2068     		ldr	r0, [r4]
 264 0018 FFF7FEFF 		bl	lv_disp_load_scr
 265              	.LVL34:
 266 001c 38BD     		pop	{r3, r4, r5, pc}
 267              		.cfi_endproc
 268              	.LFE347:
 269              		.size	scr_load_anim_start, .-scr_load_anim_start
ARM GAS  C:\Users\strap\AppData\Local\Temp\cc9WM4tW.s 			page 18


 270 001e 00BF     		.section	.text.lv_disp_get_layer_top,"ax",%progbits
 271              		.align	2
 272              		.global	lv_disp_get_layer_top
 273              		.thumb
 274              		.thumb_func
 275              		.type	lv_disp_get_layer_top, %function
 276              	lv_disp_get_layer_top:
 277              	.LFB336:
  96:lvgl\src\lv_core/lv_disp.c ****     if(!disp) disp = lv_disp_get_default();
 278              		.loc 1 96 0
 279              		.cfi_startproc
 280              		@ args = 0, pretend = 0, frame = 0
 281              		@ frame_needed = 0, uses_anonymous_args = 0
 282              	.LVL35:
 283 0000 08B5     		push	{r3, lr}
 284              		.cfi_def_cfa_offset 8
 285              		.cfi_offset 3, -8
 286              		.cfi_offset 14, -4
  97:lvgl\src\lv_core/lv_disp.c ****     if(!disp) {
 287              		.loc 1 97 0
 288 0002 0346     		mov	r3, r0
 289 0004 10B9     		cbnz	r0, .L22
  97:lvgl\src\lv_core/lv_disp.c ****     if(!disp) {
 290              		.loc 1 97 0 is_stmt 0 discriminator 1
 291 0006 FFF7FEFF 		bl	lv_disp_get_default
 292              	.LVL36:
 293 000a 0346     		mov	r3, r0
 294              	.LVL37:
 295              	.L22:
  98:lvgl\src\lv_core/lv_disp.c ****         LV_LOG_WARN("lv_layer_top: no display registered to get its top layer");
 296              		.loc 1 98 0 is_stmt 1
 297 000c 0BB1     		cbz	r3, .L24
 103:lvgl\src\lv_core/lv_disp.c **** }
 298              		.loc 1 103 0
 299 000e 986C     		ldr	r0, [r3, #72]
 300              	.LVL38:
 301 0010 08BD     		pop	{r3, pc}
 302              	.LVL39:
 303              	.L24:
 100:lvgl\src\lv_core/lv_disp.c ****     }
 304              		.loc 1 100 0
 305 0012 0020     		movs	r0, #0
 306              	.LVL40:
 104:lvgl\src\lv_core/lv_disp.c **** 
 307              		.loc 1 104 0
 308 0014 08BD     		pop	{r3, pc}
 309              		.cfi_endproc
 310              	.LFE336:
 311              		.size	lv_disp_get_layer_top, .-lv_disp_get_layer_top
 312 0016 00BF     		.section	.text.lv_disp_get_layer_sys,"ax",%progbits
 313              		.align	2
 314              		.global	lv_disp_get_layer_sys
 315              		.thumb
 316              		.thumb_func
 317              		.type	lv_disp_get_layer_sys, %function
 318              	lv_disp_get_layer_sys:
 319              	.LFB337:
ARM GAS  C:\Users\strap\AppData\Local\Temp\cc9WM4tW.s 			page 19


 113:lvgl\src\lv_core/lv_disp.c ****     if(!disp) disp = lv_disp_get_default();
 320              		.loc 1 113 0
 321              		.cfi_startproc
 322              		@ args = 0, pretend = 0, frame = 0
 323              		@ frame_needed = 0, uses_anonymous_args = 0
 324              	.LVL41:
 325 0000 08B5     		push	{r3, lr}
 326              		.cfi_def_cfa_offset 8
 327              		.cfi_offset 3, -8
 328              		.cfi_offset 14, -4
 114:lvgl\src\lv_core/lv_disp.c ****     if(!disp) {
 329              		.loc 1 114 0
 330 0002 0346     		mov	r3, r0
 331 0004 10B9     		cbnz	r0, .L27
 114:lvgl\src\lv_core/lv_disp.c ****     if(!disp) {
 332              		.loc 1 114 0 is_stmt 0 discriminator 1
 333 0006 FFF7FEFF 		bl	lv_disp_get_default
 334              	.LVL42:
 335 000a 0346     		mov	r3, r0
 336              	.LVL43:
 337              	.L27:
 115:lvgl\src\lv_core/lv_disp.c ****         LV_LOG_WARN("lv_layer_sys: no display registered to get its sys. layer");
 338              		.loc 1 115 0 is_stmt 1
 339 000c 0BB1     		cbz	r3, .L29
 120:lvgl\src\lv_core/lv_disp.c **** }
 340              		.loc 1 120 0
 341 000e D86C     		ldr	r0, [r3, #76]
 342              	.LVL44:
 343 0010 08BD     		pop	{r3, pc}
 344              	.LVL45:
 345              	.L29:
 117:lvgl\src\lv_core/lv_disp.c ****     }
 346              		.loc 1 117 0
 347 0012 0020     		movs	r0, #0
 348              	.LVL46:
 121:lvgl\src\lv_core/lv_disp.c **** 
 349              		.loc 1 121 0
 350 0014 08BD     		pop	{r3, pc}
 351              		.cfi_endproc
 352              	.LFE337:
 353              		.size	lv_disp_get_layer_sys, .-lv_disp_get_layer_sys
 354 0016 00BF     		.section	.text.lv_disp_assign_screen,"ax",%progbits
 355              		.align	2
 356              		.global	lv_disp_assign_screen
 357              		.thumb
 358              		.thumb_func
 359              		.type	lv_disp_assign_screen, %function
 360              	lv_disp_assign_screen:
 361              	.LFB338:
 129:lvgl\src\lv_core/lv_disp.c ****     if(lv_obj_get_parent(scr) != NULL) {
 362              		.loc 1 129 0
 363              		.cfi_startproc
 364              		@ args = 0, pretend = 0, frame = 0
 365              		@ frame_needed = 0, uses_anonymous_args = 0
 366              	.LVL47:
 367 0000 38B5     		push	{r3, r4, r5, lr}
 368              		.cfi_def_cfa_offset 16
ARM GAS  C:\Users\strap\AppData\Local\Temp\cc9WM4tW.s 			page 20


 369              		.cfi_offset 3, -16
 370              		.cfi_offset 4, -12
 371              		.cfi_offset 5, -8
 372              		.cfi_offset 14, -4
 373 0002 0546     		mov	r5, r0
 374 0004 0C46     		mov	r4, r1
 130:lvgl\src\lv_core/lv_disp.c ****         LV_LOG_WARN("lv_disp_assign_screen: try to assign a non-screen object");
 375              		.loc 1 130 0
 376 0006 0846     		mov	r0, r1
 377              	.LVL48:
 378 0008 FFF7FEFF 		bl	lv_obj_get_parent
 379              	.LVL49:
 380 000c 58B9     		cbnz	r0, .L31
 135:lvgl\src\lv_core/lv_disp.c **** 
 381              		.loc 1 135 0
 382 000e 2046     		mov	r0, r4
 383 0010 FFF7FEFF 		bl	lv_obj_get_disp
 384              	.LVL50:
 137:lvgl\src\lv_core/lv_disp.c **** 
 385              		.loc 1 137 0
 386 0014 A842     		cmp	r0, r5
 387 0016 06D0     		beq	.L31
 139:lvgl\src\lv_core/lv_disp.c **** }
 388              		.loc 1 139 0
 389 0018 0123     		movs	r3, #1
 390 001a 2246     		mov	r2, r4
 391 001c 05F13401 		add	r1, r5, #52
 392 0020 3430     		adds	r0, r0, #52
 393              	.LVL51:
 394 0022 FFF7FEFF 		bl	_lv_ll_chg_list
 395              	.LVL52:
 396              	.L31:
 397 0026 38BD     		pop	{r3, r4, r5, pc}
 398              		.cfi_endproc
 399              	.LFE338:
 400              		.size	lv_disp_assign_screen, .-lv_disp_assign_screen
 401              		.section	.text.lv_disp_set_bg_color,"ax",%progbits
 402              		.align	2
 403              		.global	lv_disp_set_bg_color
 404              		.thumb
 405              		.thumb_func
 406              		.type	lv_disp_set_bg_color, %function
 407              	lv_disp_set_bg_color:
 408              	.LFB339:
 148:lvgl\src\lv_core/lv_disp.c ****     if(!disp) disp = lv_disp_get_default();
 409              		.loc 1 148 0
 410              		.cfi_startproc
 411              		@ args = 0, pretend = 0, frame = 8
 412              		@ frame_needed = 0, uses_anonymous_args = 0
 413              	.LVL53:
 414 0000 30B5     		push	{r4, r5, lr}
 415              		.cfi_def_cfa_offset 12
 416              		.cfi_offset 4, -12
 417              		.cfi_offset 5, -8
 418              		.cfi_offset 14, -4
 419 0002 85B0     		sub	sp, sp, #20
 420              		.cfi_def_cfa_offset 32
ARM GAS  C:\Users\strap\AppData\Local\Temp\cc9WM4tW.s 			page 21


 421 0004 0D46     		mov	r5, r1	@ movhi
 149:lvgl\src\lv_core/lv_disp.c ****     if(!disp) {
 422              		.loc 1 149 0
 423 0006 0446     		mov	r4, r0
 424 0008 10B9     		cbnz	r0, .L35
 149:lvgl\src\lv_core/lv_disp.c ****     if(!disp) {
 425              		.loc 1 149 0 is_stmt 0 discriminator 1
 426 000a FFF7FEFF 		bl	lv_disp_get_default
 427              	.LVL54:
 428 000e 0446     		mov	r4, r0
 429              	.LVL55:
 430              	.L35:
 150:lvgl\src\lv_core/lv_disp.c ****         LV_LOG_WARN("no display registered");
 431              		.loc 1 150 0 is_stmt 1
 432 0010 B4B1     		cbz	r4, .L34
 155:lvgl\src\lv_core/lv_disp.c **** 
 433              		.loc 1 155 0
 434 0012 A4F85250 		strh	r5, [r4, #82]	@ movhi
 158:lvgl\src\lv_core/lv_disp.c ****     _lv_inv_area(disp, &a);
 435              		.loc 1 158 0
 436 0016 2046     		mov	r0, r4
 437 0018 FFF7FEFF 		bl	lv_disp_get_hor_res
 438              	.LVL56:
 439 001c 0546     		mov	r5, r0
 440              	.LVL57:
 441 001e 2046     		mov	r0, r4
 442 0020 FFF7FEFF 		bl	lv_disp_get_ver_res
 443              	.LVL58:
 444 0024 6B1E     		subs	r3, r5, #1
 445 0026 0138     		subs	r0, r0, #1
 446 0028 00B2     		sxth	r0, r0
 447 002a 0090     		str	r0, [sp]
 448 002c 1BB2     		sxth	r3, r3
 449 002e 0022     		movs	r2, #0
 450 0030 1146     		mov	r1, r2
 451 0032 02A8     		add	r0, sp, #8
 452 0034 FFF7FEFF 		bl	lv_area_set
 453              	.LVL59:
 159:lvgl\src\lv_core/lv_disp.c **** 
 454              		.loc 1 159 0
 455 0038 02A9     		add	r1, sp, #8
 456 003a 2046     		mov	r0, r4
 457 003c FFF7FEFF 		bl	_lv_inv_area
 458              	.LVL60:
 459              	.L34:
 161:lvgl\src\lv_core/lv_disp.c **** 
 460              		.loc 1 161 0
 461 0040 05B0     		add	sp, sp, #20
 462              		.cfi_def_cfa_offset 12
 463              		@ sp needed
 464 0042 30BD     		pop	{r4, r5, pc}
 465              		.cfi_endproc
 466              	.LFE339:
 467              		.size	lv_disp_set_bg_color, .-lv_disp_set_bg_color
 468              		.section	.text.lv_disp_set_bg_image,"ax",%progbits
 469              		.align	2
 470              		.global	lv_disp_set_bg_image
ARM GAS  C:\Users\strap\AppData\Local\Temp\cc9WM4tW.s 			page 22


 471              		.thumb
 472              		.thumb_func
 473              		.type	lv_disp_set_bg_image, %function
 474              	lv_disp_set_bg_image:
 475              	.LFB340:
 169:lvgl\src\lv_core/lv_disp.c ****     if(!disp) disp = lv_disp_get_default();
 476              		.loc 1 169 0
 477              		.cfi_startproc
 478              		@ args = 0, pretend = 0, frame = 8
 479              		@ frame_needed = 0, uses_anonymous_args = 0
 480              	.LVL61:
 481 0000 30B5     		push	{r4, r5, lr}
 482              		.cfi_def_cfa_offset 12
 483              		.cfi_offset 4, -12
 484              		.cfi_offset 5, -8
 485              		.cfi_offset 14, -4
 486 0002 85B0     		sub	sp, sp, #20
 487              		.cfi_def_cfa_offset 32
 488 0004 0D46     		mov	r5, r1
 170:lvgl\src\lv_core/lv_disp.c ****     if(!disp) {
 489              		.loc 1 170 0
 490 0006 0446     		mov	r4, r0
 491 0008 10B9     		cbnz	r0, .L40
 170:lvgl\src\lv_core/lv_disp.c ****     if(!disp) {
 492              		.loc 1 170 0 is_stmt 0 discriminator 1
 493 000a FFF7FEFF 		bl	lv_disp_get_default
 494              	.LVL62:
 495 000e 0446     		mov	r4, r0
 496              	.LVL63:
 497              	.L40:
 171:lvgl\src\lv_core/lv_disp.c ****         LV_LOG_WARN("no display registered");
 498              		.loc 1 171 0 is_stmt 1
 499 0010 ACB1     		cbz	r4, .L39
 176:lvgl\src\lv_core/lv_disp.c **** 
 500              		.loc 1 176 0
 501 0012 6565     		str	r5, [r4, #84]
 179:lvgl\src\lv_core/lv_disp.c ****     _lv_inv_area(disp, &a);
 502              		.loc 1 179 0
 503 0014 2046     		mov	r0, r4
 504 0016 FFF7FEFF 		bl	lv_disp_get_hor_res
 505              	.LVL64:
 506 001a 0546     		mov	r5, r0
 507              	.LVL65:
 508 001c 2046     		mov	r0, r4
 509 001e FFF7FEFF 		bl	lv_disp_get_ver_res
 510              	.LVL66:
 511 0022 6B1E     		subs	r3, r5, #1
 512 0024 0138     		subs	r0, r0, #1
 513 0026 00B2     		sxth	r0, r0
 514 0028 0090     		str	r0, [sp]
 515 002a 1BB2     		sxth	r3, r3
 516 002c 0022     		movs	r2, #0
 517 002e 1146     		mov	r1, r2
 518 0030 02A8     		add	r0, sp, #8
 519 0032 FFF7FEFF 		bl	lv_area_set
 520              	.LVL67:
 180:lvgl\src\lv_core/lv_disp.c **** }
ARM GAS  C:\Users\strap\AppData\Local\Temp\cc9WM4tW.s 			page 23


 521              		.loc 1 180 0
 522 0036 02A9     		add	r1, sp, #8
 523 0038 2046     		mov	r0, r4
 524 003a FFF7FEFF 		bl	_lv_inv_area
 525              	.LVL68:
 526              	.L39:
 181:lvgl\src\lv_core/lv_disp.c **** 
 527              		.loc 1 181 0
 528 003e 05B0     		add	sp, sp, #20
 529              		.cfi_def_cfa_offset 12
 530              		@ sp needed
 531 0040 30BD     		pop	{r4, r5, pc}
 532              		.cfi_endproc
 533              	.LFE340:
 534              		.size	lv_disp_set_bg_image, .-lv_disp_set_bg_image
 535 0042 00BF     		.section	.text.lv_disp_set_bg_opa,"ax",%progbits
 536              		.align	2
 537              		.global	lv_disp_set_bg_opa
 538              		.thumb
 539              		.thumb_func
 540              		.type	lv_disp_set_bg_opa, %function
 541              	lv_disp_set_bg_opa:
 542              	.LFB341:
 190:lvgl\src\lv_core/lv_disp.c ****     if(!disp) disp = lv_disp_get_default();
 543              		.loc 1 190 0
 544              		.cfi_startproc
 545              		@ args = 0, pretend = 0, frame = 8
 546              		@ frame_needed = 0, uses_anonymous_args = 0
 547              	.LVL69:
 548 0000 30B5     		push	{r4, r5, lr}
 549              		.cfi_def_cfa_offset 12
 550              		.cfi_offset 4, -12
 551              		.cfi_offset 5, -8
 552              		.cfi_offset 14, -4
 553 0002 85B0     		sub	sp, sp, #20
 554              		.cfi_def_cfa_offset 32
 555 0004 0D46     		mov	r5, r1
 191:lvgl\src\lv_core/lv_disp.c ****     if(!disp) {
 556              		.loc 1 191 0
 557 0006 0446     		mov	r4, r0
 558 0008 10B9     		cbnz	r0, .L45
 191:lvgl\src\lv_core/lv_disp.c ****     if(!disp) {
 559              		.loc 1 191 0 is_stmt 0 discriminator 1
 560 000a FFF7FEFF 		bl	lv_disp_get_default
 561              	.LVL70:
 562 000e 0446     		mov	r4, r0
 563              	.LVL71:
 564              	.L45:
 192:lvgl\src\lv_core/lv_disp.c ****         LV_LOG_WARN("no display registered");
 565              		.loc 1 192 0 is_stmt 1
 566 0010 B4B1     		cbz	r4, .L44
 197:lvgl\src\lv_core/lv_disp.c **** 
 567              		.loc 1 197 0
 568 0012 84F85850 		strb	r5, [r4, #88]
 200:lvgl\src\lv_core/lv_disp.c ****     _lv_inv_area(disp, &a);
 569              		.loc 1 200 0
 570 0016 2046     		mov	r0, r4
ARM GAS  C:\Users\strap\AppData\Local\Temp\cc9WM4tW.s 			page 24


 571 0018 FFF7FEFF 		bl	lv_disp_get_hor_res
 572              	.LVL72:
 573 001c 0546     		mov	r5, r0
 574 001e 2046     		mov	r0, r4
 575 0020 FFF7FEFF 		bl	lv_disp_get_ver_res
 576              	.LVL73:
 577 0024 6B1E     		subs	r3, r5, #1
 578 0026 0138     		subs	r0, r0, #1
 579 0028 00B2     		sxth	r0, r0
 580 002a 0090     		str	r0, [sp]
 581 002c 1BB2     		sxth	r3, r3
 582 002e 0022     		movs	r2, #0
 583 0030 1146     		mov	r1, r2
 584 0032 02A8     		add	r0, sp, #8
 585 0034 FFF7FEFF 		bl	lv_area_set
 586              	.LVL74:
 201:lvgl\src\lv_core/lv_disp.c **** }
 587              		.loc 1 201 0
 588 0038 02A9     		add	r1, sp, #8
 589 003a 2046     		mov	r0, r4
 590 003c FFF7FEFF 		bl	_lv_inv_area
 591              	.LVL75:
 592              	.L44:
 202:lvgl\src\lv_core/lv_disp.c **** 
 593              		.loc 1 202 0
 594 0040 05B0     		add	sp, sp, #20
 595              		.cfi_def_cfa_offset 12
 596              		@ sp needed
 597 0042 30BD     		pop	{r4, r5, pc}
 598              		.cfi_endproc
 599              	.LFE341:
 600              		.size	lv_disp_set_bg_opa, .-lv_disp_set_bg_opa
 601              		.section	.text.lv_scr_load_anim,"ax",%progbits
 602              		.align	2
 603              		.global	lv_scr_load_anim
 604              		.thumb
 605              		.thumb_func
 606              		.type	lv_scr_load_anim, %function
 607              	lv_scr_load_anim:
 608              	.LFB342:
 215:lvgl\src\lv_core/lv_disp.c ****     lv_disp_t * d = lv_obj_get_disp(new_scr);
 609              		.loc 1 215 0
 610              		.cfi_startproc
 611              		@ args = 4, pretend = 0, frame = 144
 612              		@ frame_needed = 0, uses_anonymous_args = 0
 613              	.LVL76:
 614 0000 2DE9F041 		push	{r4, r5, r6, r7, r8, lr}
 615              		.cfi_def_cfa_offset 24
 616              		.cfi_offset 4, -24
 617              		.cfi_offset 5, -20
 618              		.cfi_offset 6, -16
 619              		.cfi_offset 7, -12
 620              		.cfi_offset 8, -8
 621              		.cfi_offset 14, -4
 622 0004 A4B0     		sub	sp, sp, #144
 623              		.cfi_def_cfa_offset 168
 624 0006 0646     		mov	r6, r0
ARM GAS  C:\Users\strap\AppData\Local\Temp\cc9WM4tW.s 			page 25


 625 0008 0F46     		mov	r7, r1
 626 000a 9046     		mov	r8, r2
 627 000c 1D46     		mov	r5, r3
 216:lvgl\src\lv_core/lv_disp.c **** 
 628              		.loc 1 216 0
 629 000e FFF7FEFF 		bl	lv_obj_get_disp
 630              	.LVL77:
 631 0012 0446     		mov	r4, r0
 632              	.LVL78:
 218:lvgl\src\lv_core/lv_disp.c ****         lv_obj_del(d->prev_scr);
 633              		.loc 1 218 0
 634 0014 406C     		ldr	r0, [r0, #68]
 635              	.LVL79:
 636 0016 40B1     		cbz	r0, .L50
 218:lvgl\src\lv_core/lv_disp.c ****         lv_obj_del(d->prev_scr);
 637              		.loc 1 218 0 is_stmt 0 discriminator 1
 638 0018 94F85030 		ldrb	r3, [r4, #80]	@ zero_extendqisi2
 639 001c 13F0010F 		tst	r3, #1
 640 0020 03D0     		beq	.L50
 219:lvgl\src\lv_core/lv_disp.c ****         d->prev_scr = NULL;
 641              		.loc 1 219 0 is_stmt 1
 642 0022 FFF7FEFF 		bl	lv_obj_del
 643              	.LVL80:
 220:lvgl\src\lv_core/lv_disp.c ****     }
 644              		.loc 1 220 0
 645 0026 0023     		movs	r3, #0
 646 0028 6364     		str	r3, [r4, #68]
 647              	.L50:
 223:lvgl\src\lv_core/lv_disp.c **** 
 648              		.loc 1 223 0
 649 002a 94F85030 		ldrb	r3, [r4, #80]	@ zero_extendqisi2
 650 002e 9DF8A820 		ldrb	r2, [sp, #168]	@ zero_extendqisi2
 651 0032 62F30003 		bfi	r3, r2, #0, #1
 652 0036 84F85030 		strb	r3, [r4, #80]
 226:lvgl\src\lv_core/lv_disp.c ****     lv_anim_del(lv_scr_act(), NULL);
 653              		.loc 1 226 0
 654 003a 0021     		movs	r1, #0
 655 003c 3046     		mov	r0, r6
 656 003e FFF7FEFF 		bl	lv_anim_del
 657              	.LVL81:
 658              	.LBB88:
 659              	.LBB89:
 660              		.loc 3 161 0
 661 0042 FFF7FEFF 		bl	lv_disp_get_default
 662              	.LVL82:
 663 0046 FFF7FEFF 		bl	lv_disp_get_scr_act
 664              	.LVL83:
 665              	.LBE89:
 666              	.LBE88:
 227:lvgl\src\lv_core/lv_disp.c **** 
 667              		.loc 1 227 0
 668 004a 0021     		movs	r1, #0
 669 004c FFF7FEFF 		bl	lv_anim_del
 670              	.LVL84:
 230:lvgl\src\lv_core/lv_disp.c ****     lv_obj_set_pos(lv_scr_act(), 0, 0);
 671              		.loc 1 230 0
 672 0050 0022     		movs	r2, #0
ARM GAS  C:\Users\strap\AppData\Local\Temp\cc9WM4tW.s 			page 26


 673 0052 1146     		mov	r1, r2
 674 0054 3046     		mov	r0, r6
 675 0056 FFF7FEFF 		bl	lv_obj_set_pos
 676              	.LVL85:
 677              	.LBB90:
 678              	.LBB91:
 679              		.loc 3 161 0
 680 005a FFF7FEFF 		bl	lv_disp_get_default
 681              	.LVL86:
 682 005e FFF7FEFF 		bl	lv_disp_get_scr_act
 683              	.LVL87:
 684              	.LBE91:
 685              	.LBE90:
 231:lvgl\src\lv_core/lv_disp.c ****     lv_style_remove_prop(lv_obj_get_local_style(new_scr, LV_OBJ_PART_MAIN), LV_STYLE_OPA_SCALE);
 686              		.loc 1 231 0
 687 0062 0022     		movs	r2, #0
 688 0064 1146     		mov	r1, r2
 689 0066 FFF7FEFF 		bl	lv_obj_set_pos
 690              	.LVL88:
 232:lvgl\src\lv_core/lv_disp.c ****     lv_style_remove_prop(lv_obj_get_local_style(lv_scr_act(), LV_OBJ_PART_MAIN), LV_STYLE_OPA_SCALE
 691              		.loc 1 232 0
 692 006a 0021     		movs	r1, #0
 693 006c 3046     		mov	r0, r6
 694 006e FFF7FEFF 		bl	lv_obj_get_local_style
 695              	.LVL89:
 696 0072 48F20C01 		movw	r1, #32780
 697 0076 FFF7FEFF 		bl	lv_style_remove_prop
 698              	.LVL90:
 699              	.LBB92:
 700              	.LBB93:
 701              		.loc 3 161 0
 702 007a FFF7FEFF 		bl	lv_disp_get_default
 703              	.LVL91:
 704 007e FFF7FEFF 		bl	lv_disp_get_scr_act
 705              	.LVL92:
 706              	.LBE93:
 707              	.LBE92:
 233:lvgl\src\lv_core/lv_disp.c **** 
 708              		.loc 1 233 0
 709 0082 0021     		movs	r1, #0
 710 0084 FFF7FEFF 		bl	lv_obj_get_local_style
 711              	.LVL93:
 712 0088 48F20C01 		movw	r1, #32780
 713 008c FFF7FEFF 		bl	lv_style_remove_prop
 714              	.LVL94:
 236:lvgl\src\lv_core/lv_disp.c ****     lv_anim_set_var(&a_new, new_scr);
 715              		.loc 1 236 0
 716 0090 12A8     		add	r0, sp, #72
 717 0092 FFF7FEFF 		bl	lv_anim_init
 718              	.LVL95:
 719              	.LBB94:
 720              	.LBB95:
 721              		.file 4 "lvgl\\src\\lv_core\\../lv_misc/lv_anim.h"
   1:lvgl\src\lv_core\../lv_misc/lv_anim.h **** /**
   2:lvgl\src\lv_core\../lv_misc/lv_anim.h ****  * @file anim.h
   3:lvgl\src\lv_core\../lv_misc/lv_anim.h ****  *
   4:lvgl\src\lv_core\../lv_misc/lv_anim.h ****  */
ARM GAS  C:\Users\strap\AppData\Local\Temp\cc9WM4tW.s 			page 27


   5:lvgl\src\lv_core\../lv_misc/lv_anim.h **** 
   6:lvgl\src\lv_core\../lv_misc/lv_anim.h **** #ifndef ANIM_H
   7:lvgl\src\lv_core\../lv_misc/lv_anim.h **** #define ANIM_H
   8:lvgl\src\lv_core\../lv_misc/lv_anim.h **** 
   9:lvgl\src\lv_core\../lv_misc/lv_anim.h **** #ifdef __cplusplus
  10:lvgl\src\lv_core\../lv_misc/lv_anim.h **** extern "C" {
  11:lvgl\src\lv_core\../lv_misc/lv_anim.h **** #endif
  12:lvgl\src\lv_core\../lv_misc/lv_anim.h **** 
  13:lvgl\src\lv_core\../lv_misc/lv_anim.h **** /*********************
  14:lvgl\src\lv_core\../lv_misc/lv_anim.h ****  *      INCLUDES
  15:lvgl\src\lv_core\../lv_misc/lv_anim.h ****  *********************/
  16:lvgl\src\lv_core\../lv_misc/lv_anim.h **** #include "../lv_conf_internal.h"
  17:lvgl\src\lv_core\../lv_misc/lv_anim.h **** 
  18:lvgl\src\lv_core\../lv_misc/lv_anim.h **** #include <stdint.h>
  19:lvgl\src\lv_core\../lv_misc/lv_anim.h **** #include <stdbool.h>
  20:lvgl\src\lv_core\../lv_misc/lv_anim.h **** #include <string.h>
  21:lvgl\src\lv_core\../lv_misc/lv_anim.h **** #include "lv_mem.h"
  22:lvgl\src\lv_core\../lv_misc/lv_anim.h **** 
  23:lvgl\src\lv_core\../lv_misc/lv_anim.h **** /*********************
  24:lvgl\src\lv_core\../lv_misc/lv_anim.h ****  *      DEFINES
  25:lvgl\src\lv_core\../lv_misc/lv_anim.h ****  *********************/
  26:lvgl\src\lv_core\../lv_misc/lv_anim.h **** 
  27:lvgl\src\lv_core\../lv_misc/lv_anim.h **** /**********************
  28:lvgl\src\lv_core\../lv_misc/lv_anim.h ****  *      TYPEDEFS
  29:lvgl\src\lv_core\../lv_misc/lv_anim.h ****  **********************/
  30:lvgl\src\lv_core\../lv_misc/lv_anim.h **** 
  31:lvgl\src\lv_core\../lv_misc/lv_anim.h **** /** Can be used to indicate if animations are enabled or disabled in a case*/
  32:lvgl\src\lv_core\../lv_misc/lv_anim.h **** enum {
  33:lvgl\src\lv_core\../lv_misc/lv_anim.h ****     LV_ANIM_OFF,
  34:lvgl\src\lv_core\../lv_misc/lv_anim.h ****     LV_ANIM_ON,
  35:lvgl\src\lv_core\../lv_misc/lv_anim.h **** };
  36:lvgl\src\lv_core\../lv_misc/lv_anim.h **** 
  37:lvgl\src\lv_core\../lv_misc/lv_anim.h **** typedef uint8_t lv_anim_enable_t;
  38:lvgl\src\lv_core\../lv_misc/lv_anim.h **** 
  39:lvgl\src\lv_core\../lv_misc/lv_anim.h **** /** Type of the animated value*/
  40:lvgl\src\lv_core\../lv_misc/lv_anim.h **** typedef lv_coord_t lv_anim_value_t;
  41:lvgl\src\lv_core\../lv_misc/lv_anim.h **** 
  42:lvgl\src\lv_core\../lv_misc/lv_anim.h **** #if LV_USE_ANIMATION
  43:lvgl\src\lv_core\../lv_misc/lv_anim.h **** 
  44:lvgl\src\lv_core\../lv_misc/lv_anim.h **** #define LV_ANIM_REPEAT_INFINITE      0xFFFF
  45:lvgl\src\lv_core\../lv_misc/lv_anim.h **** 
  46:lvgl\src\lv_core\../lv_misc/lv_anim.h **** 
  47:lvgl\src\lv_core\../lv_misc/lv_anim.h **** struct _lv_anim_t;
  48:lvgl\src\lv_core\../lv_misc/lv_anim.h **** struct _lv_anim_path_t;
  49:lvgl\src\lv_core\../lv_misc/lv_anim.h **** /** Get the current value during an animation*/
  50:lvgl\src\lv_core\../lv_misc/lv_anim.h **** typedef lv_anim_value_t (*lv_anim_path_cb_t)(const struct _lv_anim_path_t *, const struct _lv_anim_
  51:lvgl\src\lv_core\../lv_misc/lv_anim.h **** 
  52:lvgl\src\lv_core\../lv_misc/lv_anim.h **** typedef struct _lv_anim_path_t {
  53:lvgl\src\lv_core\../lv_misc/lv_anim.h ****     lv_anim_path_cb_t cb;
  54:lvgl\src\lv_core\../lv_misc/lv_anim.h ****     void * user_data;
  55:lvgl\src\lv_core\../lv_misc/lv_anim.h **** } lv_anim_path_t;
  56:lvgl\src\lv_core\../lv_misc/lv_anim.h **** 
  57:lvgl\src\lv_core\../lv_misc/lv_anim.h **** 
  58:lvgl\src\lv_core\../lv_misc/lv_anim.h **** 
  59:lvgl\src\lv_core\../lv_misc/lv_anim.h **** /** Generic prototype of "animator" functions.
  60:lvgl\src\lv_core\../lv_misc/lv_anim.h ****  * First parameter is the variable to animate.
  61:lvgl\src\lv_core\../lv_misc/lv_anim.h ****  * Second parameter is the value to set.
ARM GAS  C:\Users\strap\AppData\Local\Temp\cc9WM4tW.s 			page 28


  62:lvgl\src\lv_core\../lv_misc/lv_anim.h ****  * Compatible with `lv_xxx_set_yyy(obj, value)` functions
  63:lvgl\src\lv_core\../lv_misc/lv_anim.h ****  * The `x` in `_xcb_t` means its not a fully generic prototype because
  64:lvgl\src\lv_core\../lv_misc/lv_anim.h ****  * it doesn't receive `lv_anim_t *` as its first argument*/
  65:lvgl\src\lv_core\../lv_misc/lv_anim.h **** typedef void (*lv_anim_exec_xcb_t)(void *, lv_anim_value_t);
  66:lvgl\src\lv_core\../lv_misc/lv_anim.h **** 
  67:lvgl\src\lv_core\../lv_misc/lv_anim.h **** /** Same as `lv_anim_exec_xcb_t` but receives `lv_anim_t *` as the first parameter.
  68:lvgl\src\lv_core\../lv_misc/lv_anim.h ****  * It's more consistent but less convenient. Might be used by binding generator functions.*/
  69:lvgl\src\lv_core\../lv_misc/lv_anim.h **** typedef void (*lv_anim_custom_exec_cb_t)(struct _lv_anim_t *, lv_anim_value_t);
  70:lvgl\src\lv_core\../lv_misc/lv_anim.h **** 
  71:lvgl\src\lv_core\../lv_misc/lv_anim.h **** /** Callback to call when the animation is ready*/
  72:lvgl\src\lv_core\../lv_misc/lv_anim.h **** typedef void (*lv_anim_ready_cb_t)(struct _lv_anim_t *);
  73:lvgl\src\lv_core\../lv_misc/lv_anim.h **** 
  74:lvgl\src\lv_core\../lv_misc/lv_anim.h **** /** Callback to call when the animation really stars (considering `delay`)*/
  75:lvgl\src\lv_core\../lv_misc/lv_anim.h **** typedef void (*lv_anim_start_cb_t)(struct _lv_anim_t *);
  76:lvgl\src\lv_core\../lv_misc/lv_anim.h **** 
  77:lvgl\src\lv_core\../lv_misc/lv_anim.h **** /** Describes an animation*/
  78:lvgl\src\lv_core\../lv_misc/lv_anim.h **** typedef struct _lv_anim_t {
  79:lvgl\src\lv_core\../lv_misc/lv_anim.h ****     void * var;                  /**<Variable to animate*/
  80:lvgl\src\lv_core\../lv_misc/lv_anim.h ****     lv_anim_exec_xcb_t exec_cb;   /**< Function to execute to animate*/
  81:lvgl\src\lv_core\../lv_misc/lv_anim.h ****     lv_anim_start_cb_t start_cb; /**< Call it when the animation is starts (considering `delay`)*/
  82:lvgl\src\lv_core\../lv_misc/lv_anim.h ****     lv_anim_ready_cb_t ready_cb; /**< Call it when the animation is ready*/
  83:lvgl\src\lv_core\../lv_misc/lv_anim.h ****     lv_anim_path_t path;         /**< Describe the path (curve) of animations*/
  84:lvgl\src\lv_core\../lv_misc/lv_anim.h ****     int32_t start;               /**< Start value*/
  85:lvgl\src\lv_core\../lv_misc/lv_anim.h ****     int32_t current;             /**< Current value */
  86:lvgl\src\lv_core\../lv_misc/lv_anim.h ****     int32_t end;                 /**< End value*/
  87:lvgl\src\lv_core\../lv_misc/lv_anim.h ****     int32_t time;               /**< Animation time in ms*/
  88:lvgl\src\lv_core\../lv_misc/lv_anim.h ****     int32_t act_time;            /**< Current time in animation. Set to negative to make delay.*/
  89:lvgl\src\lv_core\../lv_misc/lv_anim.h ****     uint32_t playback_delay;     /**< Wait before play back*/
  90:lvgl\src\lv_core\../lv_misc/lv_anim.h ****     uint32_t playback_time;      /**< Duration of playback animation*/
  91:lvgl\src\lv_core\../lv_misc/lv_anim.h ****     uint32_t repeat_delay;       /**< Wait before repeat*/
  92:lvgl\src\lv_core\../lv_misc/lv_anim.h ****     uint16_t repeat_cnt;         /**< Repeat count for the animation*/
  93:lvgl\src\lv_core\../lv_misc/lv_anim.h ****     uint8_t early_apply  : 1;    /**< 1: Apply start value immediately even is there is `delay` */
  94:lvgl\src\lv_core\../lv_misc/lv_anim.h **** #if LV_USE_USER_DATA
  95:lvgl\src\lv_core\../lv_misc/lv_anim.h ****     lv_anim_user_data_t user_data; /**< Custom user data*/
  96:lvgl\src\lv_core\../lv_misc/lv_anim.h **** #endif
  97:lvgl\src\lv_core\../lv_misc/lv_anim.h **** 
  98:lvgl\src\lv_core\../lv_misc/lv_anim.h ****     /*Animation system use these - user shouldn't set*/
  99:lvgl\src\lv_core\../lv_misc/lv_anim.h ****     uint32_t time_orig;
 100:lvgl\src\lv_core\../lv_misc/lv_anim.h ****     uint8_t playback_now : 1; /**< Play back is in progress*/
 101:lvgl\src\lv_core\../lv_misc/lv_anim.h ****     uint32_t has_run : 1;     /**< Indicates the animation has run in this round*/
 102:lvgl\src\lv_core\../lv_misc/lv_anim.h **** } lv_anim_t;
 103:lvgl\src\lv_core\../lv_misc/lv_anim.h **** 
 104:lvgl\src\lv_core\../lv_misc/lv_anim.h **** 
 105:lvgl\src\lv_core\../lv_misc/lv_anim.h **** /**********************
 106:lvgl\src\lv_core\../lv_misc/lv_anim.h ****  * GLOBAL PROTOTYPES
 107:lvgl\src\lv_core\../lv_misc/lv_anim.h ****  **********************/
 108:lvgl\src\lv_core\../lv_misc/lv_anim.h **** 
 109:lvgl\src\lv_core\../lv_misc/lv_anim.h **** /**
 110:lvgl\src\lv_core\../lv_misc/lv_anim.h ****  * Init. the animation module
 111:lvgl\src\lv_core\../lv_misc/lv_anim.h ****  */
 112:lvgl\src\lv_core\../lv_misc/lv_anim.h **** void _lv_anim_core_init(void);
 113:lvgl\src\lv_core\../lv_misc/lv_anim.h **** 
 114:lvgl\src\lv_core\../lv_misc/lv_anim.h **** /**
 115:lvgl\src\lv_core\../lv_misc/lv_anim.h ****  * Initialize an animation variable.
 116:lvgl\src\lv_core\../lv_misc/lv_anim.h ****  * E.g.:
 117:lvgl\src\lv_core\../lv_misc/lv_anim.h ****  * lv_anim_t a;
 118:lvgl\src\lv_core\../lv_misc/lv_anim.h ****  * lv_anim_init(&a);
ARM GAS  C:\Users\strap\AppData\Local\Temp\cc9WM4tW.s 			page 29


 119:lvgl\src\lv_core\../lv_misc/lv_anim.h ****  * lv_anim_set_...(&a);
 120:lvgl\src\lv_core\../lv_misc/lv_anim.h ****  * @param a pointer to an `lv_anim_t` variable to initialize
 121:lvgl\src\lv_core\../lv_misc/lv_anim.h ****  */
 122:lvgl\src\lv_core\../lv_misc/lv_anim.h **** void lv_anim_init(lv_anim_t * a);
 123:lvgl\src\lv_core\../lv_misc/lv_anim.h **** 
 124:lvgl\src\lv_core\../lv_misc/lv_anim.h **** /**
 125:lvgl\src\lv_core\../lv_misc/lv_anim.h ****  * Set a variable to animate
 126:lvgl\src\lv_core\../lv_misc/lv_anim.h ****  * @param a pointer to an initialized `lv_anim_t` variable
 127:lvgl\src\lv_core\../lv_misc/lv_anim.h ****  * @param var pointer to a variable to animate
 128:lvgl\src\lv_core\../lv_misc/lv_anim.h ****  */
 129:lvgl\src\lv_core\../lv_misc/lv_anim.h **** static inline void lv_anim_set_var(lv_anim_t * a, void * var)
 130:lvgl\src\lv_core\../lv_misc/lv_anim.h **** {
 131:lvgl\src\lv_core\../lv_misc/lv_anim.h ****     a->var     = var;
 722              		.loc 4 131 0
 723 0096 1296     		str	r6, [sp, #72]
 724              	.LVL96:
 725              	.LBE95:
 726              	.LBE94:
 727              	.LBB96:
 728              	.LBB97:
 132:lvgl\src\lv_core\../lv_misc/lv_anim.h **** }
 133:lvgl\src\lv_core\../lv_misc/lv_anim.h **** 
 134:lvgl\src\lv_core\../lv_misc/lv_anim.h **** /**
 135:lvgl\src\lv_core\../lv_misc/lv_anim.h ****  * Set a function to animate `var`
 136:lvgl\src\lv_core\../lv_misc/lv_anim.h ****  * @param a pointer to an initialized `lv_anim_t` variable
 137:lvgl\src\lv_core\../lv_misc/lv_anim.h ****  * @param exec_cb a function to execute during animation
 138:lvgl\src\lv_core\../lv_misc/lv_anim.h ****  *                LittelvGL's built-in functions can be used.
 139:lvgl\src\lv_core\../lv_misc/lv_anim.h ****  *                E.g. lv_obj_set_x
 140:lvgl\src\lv_core\../lv_misc/lv_anim.h ****  */
 141:lvgl\src\lv_core\../lv_misc/lv_anim.h **** static inline void lv_anim_set_exec_cb(lv_anim_t * a, lv_anim_exec_xcb_t exec_cb)
 142:lvgl\src\lv_core\../lv_misc/lv_anim.h **** {
 143:lvgl\src\lv_core\../lv_misc/lv_anim.h ****     a->exec_cb = exec_cb;
 144:lvgl\src\lv_core\../lv_misc/lv_anim.h **** }
 145:lvgl\src\lv_core\../lv_misc/lv_anim.h **** 
 146:lvgl\src\lv_core\../lv_misc/lv_anim.h **** /**
 147:lvgl\src\lv_core\../lv_misc/lv_anim.h ****  * Set the duration of an animation
 148:lvgl\src\lv_core\../lv_misc/lv_anim.h ****  * @param a pointer to an initialized `lv_anim_t` variable
 149:lvgl\src\lv_core\../lv_misc/lv_anim.h ****  * @param duration duration of the animation in milliseconds
 150:lvgl\src\lv_core\../lv_misc/lv_anim.h ****  */
 151:lvgl\src\lv_core\../lv_misc/lv_anim.h **** static inline void lv_anim_set_time(lv_anim_t * a, uint32_t duration)
 152:lvgl\src\lv_core\../lv_misc/lv_anim.h **** {
 153:lvgl\src\lv_core\../lv_misc/lv_anim.h ****     a->time     = duration;
 154:lvgl\src\lv_core\../lv_misc/lv_anim.h **** }
 155:lvgl\src\lv_core\../lv_misc/lv_anim.h **** 
 156:lvgl\src\lv_core\../lv_misc/lv_anim.h **** /**
 157:lvgl\src\lv_core\../lv_misc/lv_anim.h ****  * Set a delay before starting the animation
 158:lvgl\src\lv_core\../lv_misc/lv_anim.h ****  * @param a pointer to an initialized `lv_anim_t` variable
 159:lvgl\src\lv_core\../lv_misc/lv_anim.h ****  * @param delay delay before the animation in milliseconds
 160:lvgl\src\lv_core\../lv_misc/lv_anim.h ****  */
 161:lvgl\src\lv_core\../lv_misc/lv_anim.h **** static inline void lv_anim_set_delay(lv_anim_t * a, uint32_t delay)
 162:lvgl\src\lv_core\../lv_misc/lv_anim.h **** {
 163:lvgl\src\lv_core\../lv_misc/lv_anim.h ****     a->act_time = -(int32_t)(delay);
 164:lvgl\src\lv_core\../lv_misc/lv_anim.h **** }
 165:lvgl\src\lv_core\../lv_misc/lv_anim.h **** 
 166:lvgl\src\lv_core\../lv_misc/lv_anim.h **** /**
 167:lvgl\src\lv_core\../lv_misc/lv_anim.h ****  * Set the start and end values of an animation
 168:lvgl\src\lv_core\../lv_misc/lv_anim.h ****  * @param a pointer to an initialized `lv_anim_t` variable
ARM GAS  C:\Users\strap\AppData\Local\Temp\cc9WM4tW.s 			page 30


 169:lvgl\src\lv_core\../lv_misc/lv_anim.h ****  * @param start the start value
 170:lvgl\src\lv_core\../lv_misc/lv_anim.h ****  * @param end the end value
 171:lvgl\src\lv_core\../lv_misc/lv_anim.h ****  */
 172:lvgl\src\lv_core\../lv_misc/lv_anim.h **** static inline void lv_anim_set_values(lv_anim_t * a, lv_anim_value_t start, lv_anim_value_t end)
 173:lvgl\src\lv_core\../lv_misc/lv_anim.h **** {
 174:lvgl\src\lv_core\../lv_misc/lv_anim.h ****     a->start = start;
 175:lvgl\src\lv_core\../lv_misc/lv_anim.h ****     a->current = start;
 176:lvgl\src\lv_core\../lv_misc/lv_anim.h ****     a->end   = end;
 177:lvgl\src\lv_core\../lv_misc/lv_anim.h **** }
 178:lvgl\src\lv_core\../lv_misc/lv_anim.h **** 
 179:lvgl\src\lv_core\../lv_misc/lv_anim.h **** /**
 180:lvgl\src\lv_core\../lv_misc/lv_anim.h ****  * Similar to `lv_anim_set_exec_cb` but `lv_anim_custom_exec_cb_t` receives
 181:lvgl\src\lv_core\../lv_misc/lv_anim.h ****  * `lv_anim_t * ` as its first parameter instead of `void *`.
 182:lvgl\src\lv_core\../lv_misc/lv_anim.h ****  * This function might be used when LVGL is binded to other languages because
 183:lvgl\src\lv_core\../lv_misc/lv_anim.h ****  * it's more consistent to have `lv_anim_t *` as first parameter.
 184:lvgl\src\lv_core\../lv_misc/lv_anim.h ****  * The variable to animate can be stored in the animation's `user_sata`
 185:lvgl\src\lv_core\../lv_misc/lv_anim.h ****  * @param a pointer to an initialized `lv_anim_t` variable
 186:lvgl\src\lv_core\../lv_misc/lv_anim.h ****  * @param exec_cb a function to execute.
 187:lvgl\src\lv_core\../lv_misc/lv_anim.h ****  */
 188:lvgl\src\lv_core\../lv_misc/lv_anim.h **** static inline void lv_anim_set_custom_exec_cb(lv_anim_t * a, lv_anim_custom_exec_cb_t exec_cb)
 189:lvgl\src\lv_core\../lv_misc/lv_anim.h **** {
 190:lvgl\src\lv_core\../lv_misc/lv_anim.h ****     a->var     = a;
 191:lvgl\src\lv_core\../lv_misc/lv_anim.h ****     a->exec_cb = (lv_anim_exec_xcb_t)exec_cb;
 192:lvgl\src\lv_core\../lv_misc/lv_anim.h **** }
 193:lvgl\src\lv_core\../lv_misc/lv_anim.h **** 
 194:lvgl\src\lv_core\../lv_misc/lv_anim.h **** /**
 195:lvgl\src\lv_core\../lv_misc/lv_anim.h ****  * Set the path (curve) of the animation.
 196:lvgl\src\lv_core\../lv_misc/lv_anim.h ****  * @param a pointer to an initialized `lv_anim_t` variable
 197:lvgl\src\lv_core\../lv_misc/lv_anim.h ****  * @param path_cb a function the get the current value of the animation.
 198:lvgl\src\lv_core\../lv_misc/lv_anim.h ****  *                The built in functions starts with `lv_anim_path_...`
 199:lvgl\src\lv_core\../lv_misc/lv_anim.h ****  */
 200:lvgl\src\lv_core\../lv_misc/lv_anim.h **** static inline void lv_anim_set_path(lv_anim_t * a, const lv_anim_path_t * path)
 201:lvgl\src\lv_core\../lv_misc/lv_anim.h **** {
 202:lvgl\src\lv_core\../lv_misc/lv_anim.h ****     _lv_memcpy_small(&a->path, path, sizeof(lv_anim_path_t));
 203:lvgl\src\lv_core\../lv_misc/lv_anim.h **** }
 204:lvgl\src\lv_core\../lv_misc/lv_anim.h **** 
 205:lvgl\src\lv_core\../lv_misc/lv_anim.h **** 
 206:lvgl\src\lv_core\../lv_misc/lv_anim.h **** /**
 207:lvgl\src\lv_core\../lv_misc/lv_anim.h ****  * Set a function call when the animation really starts (considering `delay`)
 208:lvgl\src\lv_core\../lv_misc/lv_anim.h ****  * @param a pointer to an initialized `lv_anim_t` variable
 209:lvgl\src\lv_core\../lv_misc/lv_anim.h ****  * @param start_cb a function call when the animation starts
 210:lvgl\src\lv_core\../lv_misc/lv_anim.h ****  */
 211:lvgl\src\lv_core\../lv_misc/lv_anim.h **** static inline void lv_anim_set_start_cb(lv_anim_t * a, lv_anim_ready_cb_t start_cb)
 212:lvgl\src\lv_core\../lv_misc/lv_anim.h **** {
 213:lvgl\src\lv_core\../lv_misc/lv_anim.h ****     a->start_cb = start_cb;
 729              		.loc 4 213 0
 730 0098 544B     		ldr	r3, .L64
 731 009a 1493     		str	r3, [sp, #80]
 732              	.LVL97:
 733              	.LBE97:
 734              	.LBE96:
 735              	.LBB98:
 736              	.LBB99:
 214:lvgl\src\lv_core\../lv_misc/lv_anim.h **** }
 215:lvgl\src\lv_core\../lv_misc/lv_anim.h **** 
 216:lvgl\src\lv_core\../lv_misc/lv_anim.h **** /**
 217:lvgl\src\lv_core\../lv_misc/lv_anim.h ****  * Set a function call when the animation is ready
ARM GAS  C:\Users\strap\AppData\Local\Temp\cc9WM4tW.s 			page 31


 218:lvgl\src\lv_core\../lv_misc/lv_anim.h ****  * @param a pointer to an initialized `lv_anim_t` variable
 219:lvgl\src\lv_core\../lv_misc/lv_anim.h ****  * @param ready_cb a function call when the animation is ready
 220:lvgl\src\lv_core\../lv_misc/lv_anim.h ****  */
 221:lvgl\src\lv_core\../lv_misc/lv_anim.h **** static inline void lv_anim_set_ready_cb(lv_anim_t * a, lv_anim_ready_cb_t ready_cb)
 222:lvgl\src\lv_core\../lv_misc/lv_anim.h **** {
 223:lvgl\src\lv_core\../lv_misc/lv_anim.h ****     a->ready_cb = ready_cb;
 737              		.loc 4 223 0
 738 009c 544B     		ldr	r3, .L64+4
 739 009e 1593     		str	r3, [sp, #84]
 740              	.LVL98:
 741              	.LBE99:
 742              	.LBE98:
 743              	.LBB100:
 744              	.LBB101:
 153:lvgl\src\lv_core\../lv_misc/lv_anim.h **** }
 745              		.loc 4 153 0
 746 00a0 CDF86C80 		str	r8, [sp, #108]
 747              	.LVL99:
 748              	.LBE101:
 749              	.LBE100:
 750              	.LBB102:
 751              	.LBB103:
 163:lvgl\src\lv_core\../lv_misc/lv_anim.h **** }
 752              		.loc 4 163 0
 753 00a4 6D42     		negs	r5, r5
 754              	.LVL100:
 755 00a6 1C95     		str	r5, [sp, #112]
 756              	.LVL101:
 757              	.LBE103:
 758              	.LBE102:
 244:lvgl\src\lv_core/lv_disp.c ****     lv_anim_set_var(&a_old, d->act_scr);
 759              		.loc 1 244 0
 760 00a8 6846     		mov	r0, sp
 761 00aa FFF7FEFF 		bl	lv_anim_init
 762              	.LVL102:
 245:lvgl\src\lv_core/lv_disp.c ****     lv_anim_set_time(&a_old, time);
 763              		.loc 1 245 0
 764 00ae 236C     		ldr	r3, [r4, #64]
 765              	.LVL103:
 766              	.LBB104:
 767              	.LBB105:
 131:lvgl\src\lv_core\../lv_misc/lv_anim.h **** }
 768              		.loc 4 131 0
 769 00b0 0093     		str	r3, [sp]
 770              	.LVL104:
 771              	.LBE105:
 772              	.LBE104:
 773              	.LBB106:
 774              	.LBB107:
 153:lvgl\src\lv_core\../lv_misc/lv_anim.h **** }
 775              		.loc 4 153 0
 776 00b2 CDF82480 		str	r8, [sp, #36]
 777              	.LVL105:
 778              	.LBE107:
 779              	.LBE106:
 780              	.LBB108:
 781              	.LBB109:
ARM GAS  C:\Users\strap\AppData\Local\Temp\cc9WM4tW.s 			page 32


 163:lvgl\src\lv_core\../lv_misc/lv_anim.h **** }
 782              		.loc 4 163 0
 783 00b6 0A95     		str	r5, [sp, #40]
 784              	.LVL106:
 785              	.LBE109:
 786              	.LBE108:
 249:lvgl\src\lv_core/lv_disp.c ****         case LV_SCR_LOAD_ANIM_NONE:
 787              		.loc 1 249 0
 788 00b8 092F     		cmp	r7, #9
 789 00ba 00F28D80 		bhi	.L51
 790 00be DFE807F0 		tbb	[pc, r7]
 791              	.L53:
 792 00c2 05       		.byte	(.L52-.L53)/2
 793 00c3 0C       		.byte	(.L54-.L53)/2
 794 00c4 16       		.byte	(.L55-.L53)/2
 795 00c5 22       		.byte	(.L56-.L53)/2
 796 00c6 2C       		.byte	(.L57-.L53)/2
 797 00c7 38       		.byte	(.L58-.L53)/2
 798 00c8 4B       		.byte	(.L59-.L53)/2
 799 00c9 5E       		.byte	(.L60-.L53)/2
 800 00ca 71       		.byte	(.L61-.L53)/2
 801 00cb 84       		.byte	(.L62-.L53)/2
 802              		.p2align 1
 803              	.L52:
 804              	.LVL107:
 805              	.LBB110:
 806              	.LBB111:
 143:lvgl\src\lv_core\../lv_misc/lv_anim.h **** }
 807              		.loc 4 143 0
 808 00cc 494B     		ldr	r3, .L64+8
 809 00ce 1393     		str	r3, [sp, #76]
 810              	.LVL108:
 811              	.LBE111:
 812              	.LBE110:
 813              	.LBB112:
 814              	.LBB113:
 174:lvgl\src\lv_core\../lv_misc/lv_anim.h ****     a->current = start;
 815              		.loc 4 174 0
 816 00d0 0023     		movs	r3, #0
 817 00d2 1893     		str	r3, [sp, #96]
 175:lvgl\src\lv_core\../lv_misc/lv_anim.h ****     a->end   = end;
 818              		.loc 4 175 0
 819 00d4 1993     		str	r3, [sp, #100]
 176:lvgl\src\lv_core\../lv_misc/lv_anim.h **** }
 820              		.loc 4 176 0
 821 00d6 1A93     		str	r3, [sp, #104]
 822 00d8 7EE0     		b	.L51
 823              	.LVL109:
 824              	.L54:
 825              	.LBE113:
 826              	.LBE112:
 827              	.LBB114:
 828              	.LBB115:
 143:lvgl\src\lv_core\../lv_misc/lv_anim.h **** }
 829              		.loc 4 143 0
 830 00da 464B     		ldr	r3, .L64+8
 831 00dc 1393     		str	r3, [sp, #76]
ARM GAS  C:\Users\strap\AppData\Local\Temp\cc9WM4tW.s 			page 33


 832              	.LVL110:
 833              	.LBE115:
 834              	.LBE114:
 257:lvgl\src\lv_core/lv_disp.c ****             break;
 835              		.loc 1 257 0
 836 00de 2046     		mov	r0, r4
 837 00e0 FFF7FEFF 		bl	lv_disp_get_hor_res
 838              	.LVL111:
 839              	.LBB116:
 840              	.LBB117:
 174:lvgl\src\lv_core\../lv_misc/lv_anim.h ****     a->current = start;
 841              		.loc 4 174 0
 842 00e4 1890     		str	r0, [sp, #96]
 175:lvgl\src\lv_core\../lv_misc/lv_anim.h ****     a->end   = end;
 843              		.loc 4 175 0
 844 00e6 1990     		str	r0, [sp, #100]
 176:lvgl\src\lv_core\../lv_misc/lv_anim.h **** }
 845              		.loc 4 176 0
 846 00e8 0023     		movs	r3, #0
 847 00ea 1A93     		str	r3, [sp, #104]
 848 00ec 74E0     		b	.L51
 849              	.LVL112:
 850              	.L55:
 851              	.LBE117:
 852              	.LBE116:
 853              	.LBB118:
 854              	.LBB119:
 143:lvgl\src\lv_core\../lv_misc/lv_anim.h **** }
 855              		.loc 4 143 0
 856 00ee 414B     		ldr	r3, .L64+8
 857 00f0 1393     		str	r3, [sp, #76]
 858              	.LVL113:
 859              	.LBE119:
 860              	.LBE118:
 261:lvgl\src\lv_core/lv_disp.c ****             break;
 861              		.loc 1 261 0
 862 00f2 2046     		mov	r0, r4
 863 00f4 FFF7FEFF 		bl	lv_disp_get_hor_res
 864              	.LVL114:
 865 00f8 4042     		negs	r0, r0
 866 00fa 00B2     		sxth	r0, r0
 867              	.LVL115:
 868              	.LBB120:
 869              	.LBB121:
 174:lvgl\src\lv_core\../lv_misc/lv_anim.h ****     a->current = start;
 870              		.loc 4 174 0
 871 00fc 1890     		str	r0, [sp, #96]
 175:lvgl\src\lv_core\../lv_misc/lv_anim.h ****     a->end   = end;
 872              		.loc 4 175 0
 873 00fe 1990     		str	r0, [sp, #100]
 176:lvgl\src\lv_core\../lv_misc/lv_anim.h **** }
 874              		.loc 4 176 0
 875 0100 0023     		movs	r3, #0
 876 0102 1A93     		str	r3, [sp, #104]
 877 0104 68E0     		b	.L51
 878              	.LVL116:
 879              	.L56:
ARM GAS  C:\Users\strap\AppData\Local\Temp\cc9WM4tW.s 			page 34


 880              	.LBE121:
 881              	.LBE120:
 882              	.LBB122:
 883              	.LBB123:
 143:lvgl\src\lv_core\../lv_misc/lv_anim.h **** }
 884              		.loc 4 143 0
 885 0106 3C4B     		ldr	r3, .L64+12
 886 0108 1393     		str	r3, [sp, #76]
 887              	.LVL117:
 888              	.LBE123:
 889              	.LBE122:
 265:lvgl\src\lv_core/lv_disp.c ****             break;
 890              		.loc 1 265 0
 891 010a 2046     		mov	r0, r4
 892 010c FFF7FEFF 		bl	lv_disp_get_ver_res
 893              	.LVL118:
 894              	.LBB124:
 895              	.LBB125:
 174:lvgl\src\lv_core\../lv_misc/lv_anim.h ****     a->current = start;
 896              		.loc 4 174 0
 897 0110 1890     		str	r0, [sp, #96]
 175:lvgl\src\lv_core\../lv_misc/lv_anim.h ****     a->end   = end;
 898              		.loc 4 175 0
 899 0112 1990     		str	r0, [sp, #100]
 176:lvgl\src\lv_core\../lv_misc/lv_anim.h **** }
 900              		.loc 4 176 0
 901 0114 0023     		movs	r3, #0
 902 0116 1A93     		str	r3, [sp, #104]
 903 0118 5EE0     		b	.L51
 904              	.LVL119:
 905              	.L57:
 906              	.LBE125:
 907              	.LBE124:
 908              	.LBB126:
 909              	.LBB127:
 143:lvgl\src\lv_core\../lv_misc/lv_anim.h **** }
 910              		.loc 4 143 0
 911 011a 374B     		ldr	r3, .L64+12
 912 011c 1393     		str	r3, [sp, #76]
 913              	.LVL120:
 914              	.LBE127:
 915              	.LBE126:
 269:lvgl\src\lv_core/lv_disp.c ****             break;
 916              		.loc 1 269 0
 917 011e 2046     		mov	r0, r4
 918 0120 FFF7FEFF 		bl	lv_disp_get_ver_res
 919              	.LVL121:
 920 0124 4042     		negs	r0, r0
 921 0126 00B2     		sxth	r0, r0
 922              	.LVL122:
 923              	.LBB128:
 924              	.LBB129:
 174:lvgl\src\lv_core\../lv_misc/lv_anim.h ****     a->current = start;
 925              		.loc 4 174 0
 926 0128 1890     		str	r0, [sp, #96]
 175:lvgl\src\lv_core\../lv_misc/lv_anim.h ****     a->end   = end;
 927              		.loc 4 175 0
ARM GAS  C:\Users\strap\AppData\Local\Temp\cc9WM4tW.s 			page 35


 928 012a 1990     		str	r0, [sp, #100]
 176:lvgl\src\lv_core\../lv_misc/lv_anim.h **** }
 929              		.loc 4 176 0
 930 012c 0023     		movs	r3, #0
 931 012e 1A93     		str	r3, [sp, #104]
 932 0130 52E0     		b	.L51
 933              	.LVL123:
 934              	.L58:
 935              	.LBE129:
 936              	.LBE128:
 937              	.LBB130:
 938              	.LBB131:
 143:lvgl\src\lv_core\../lv_misc/lv_anim.h **** }
 939              		.loc 4 143 0
 940 0132 304E     		ldr	r6, .L64+8
 941              	.LVL124:
 942 0134 1396     		str	r6, [sp, #76]
 943              	.LVL125:
 944              	.LBE131:
 945              	.LBE130:
 273:lvgl\src\lv_core/lv_disp.c **** 
 946              		.loc 1 273 0
 947 0136 2046     		mov	r0, r4
 948 0138 FFF7FEFF 		bl	lv_disp_get_hor_res
 949              	.LVL126:
 950              	.LBB132:
 951              	.LBB133:
 174:lvgl\src\lv_core\../lv_misc/lv_anim.h ****     a->current = start;
 952              		.loc 4 174 0
 953 013c 1890     		str	r0, [sp, #96]
 175:lvgl\src\lv_core\../lv_misc/lv_anim.h ****     a->end   = end;
 954              		.loc 4 175 0
 955 013e 1990     		str	r0, [sp, #100]
 176:lvgl\src\lv_core\../lv_misc/lv_anim.h **** }
 956              		.loc 4 176 0
 957 0140 0025     		movs	r5, #0
 958              	.LVL127:
 959 0142 1A95     		str	r5, [sp, #104]
 960              	.LVL128:
 961              	.LBE133:
 962              	.LBE132:
 963              	.LBB134:
 964              	.LBB135:
 143:lvgl\src\lv_core\../lv_misc/lv_anim.h **** }
 965              		.loc 4 143 0
 966 0144 0196     		str	r6, [sp, #4]
 967              	.LVL129:
 968              	.LBE135:
 969              	.LBE134:
 276:lvgl\src\lv_core/lv_disp.c ****             break;
 970              		.loc 1 276 0
 971 0146 2046     		mov	r0, r4
 972 0148 FFF7FEFF 		bl	lv_disp_get_hor_res
 973              	.LVL130:
 974 014c 4042     		negs	r0, r0
 975 014e 00B2     		sxth	r0, r0
 976              	.LVL131:
ARM GAS  C:\Users\strap\AppData\Local\Temp\cc9WM4tW.s 			page 36


 977              	.LBB136:
 978              	.LBB137:
 174:lvgl\src\lv_core\../lv_misc/lv_anim.h ****     a->current = start;
 979              		.loc 4 174 0
 980 0150 0695     		str	r5, [sp, #24]
 175:lvgl\src\lv_core\../lv_misc/lv_anim.h ****     a->end   = end;
 981              		.loc 4 175 0
 982 0152 0795     		str	r5, [sp, #28]
 176:lvgl\src\lv_core\../lv_misc/lv_anim.h **** }
 983              		.loc 4 176 0
 984 0154 0890     		str	r0, [sp, #32]
 985 0156 3FE0     		b	.L51
 986              	.LVL132:
 987              	.L59:
 988              	.LBE137:
 989              	.LBE136:
 990              	.LBB138:
 991              	.LBB139:
 143:lvgl\src\lv_core\../lv_misc/lv_anim.h **** }
 992              		.loc 4 143 0
 993 0158 264E     		ldr	r6, .L64+8
 994              	.LVL133:
 995 015a 1396     		str	r6, [sp, #76]
 996              	.LVL134:
 997              	.LBE139:
 998              	.LBE138:
 280:lvgl\src\lv_core/lv_disp.c **** 
 999              		.loc 1 280 0
 1000 015c 2046     		mov	r0, r4
 1001 015e FFF7FEFF 		bl	lv_disp_get_hor_res
 1002              	.LVL135:
 1003 0162 4042     		negs	r0, r0
 1004 0164 00B2     		sxth	r0, r0
 1005              	.LVL136:
 1006              	.LBB140:
 1007              	.LBB141:
 174:lvgl\src\lv_core\../lv_misc/lv_anim.h ****     a->current = start;
 1008              		.loc 4 174 0
 1009 0166 1890     		str	r0, [sp, #96]
 175:lvgl\src\lv_core\../lv_misc/lv_anim.h ****     a->end   = end;
 1010              		.loc 4 175 0
 1011 0168 1990     		str	r0, [sp, #100]
 176:lvgl\src\lv_core\../lv_misc/lv_anim.h **** }
 1012              		.loc 4 176 0
 1013 016a 0025     		movs	r5, #0
 1014 016c 1A95     		str	r5, [sp, #104]
 1015              	.LVL137:
 1016              	.LBE141:
 1017              	.LBE140:
 1018              	.LBB142:
 1019              	.LBB143:
 143:lvgl\src\lv_core\../lv_misc/lv_anim.h **** }
 1020              		.loc 4 143 0
 1021 016e 0196     		str	r6, [sp, #4]
 1022              	.LVL138:
 1023              	.LBE143:
 1024              	.LBE142:
ARM GAS  C:\Users\strap\AppData\Local\Temp\cc9WM4tW.s 			page 37


 283:lvgl\src\lv_core/lv_disp.c ****             break;
 1025              		.loc 1 283 0
 1026 0170 2046     		mov	r0, r4
 1027 0172 FFF7FEFF 		bl	lv_disp_get_hor_res
 1028              	.LVL139:
 1029              	.LBB144:
 1030              	.LBB145:
 174:lvgl\src\lv_core\../lv_misc/lv_anim.h ****     a->current = start;
 1031              		.loc 4 174 0
 1032 0176 0695     		str	r5, [sp, #24]
 175:lvgl\src\lv_core\../lv_misc/lv_anim.h ****     a->end   = end;
 1033              		.loc 4 175 0
 1034 0178 0795     		str	r5, [sp, #28]
 176:lvgl\src\lv_core\../lv_misc/lv_anim.h **** }
 1035              		.loc 4 176 0
 1036 017a 0890     		str	r0, [sp, #32]
 1037 017c 2CE0     		b	.L51
 1038              	.LVL140:
 1039              	.L60:
 1040              	.LBE145:
 1041              	.LBE144:
 1042              	.LBB146:
 1043              	.LBB147:
 143:lvgl\src\lv_core\../lv_misc/lv_anim.h **** }
 1044              		.loc 4 143 0
 1045 017e 1E4E     		ldr	r6, .L64+12
 1046              	.LVL141:
 1047 0180 1396     		str	r6, [sp, #76]
 1048              	.LVL142:
 1049              	.LBE147:
 1050              	.LBE146:
 287:lvgl\src\lv_core/lv_disp.c **** 
 1051              		.loc 1 287 0
 1052 0182 2046     		mov	r0, r4
 1053 0184 FFF7FEFF 		bl	lv_disp_get_ver_res
 1054              	.LVL143:
 1055              	.LBB148:
 1056              	.LBB149:
 174:lvgl\src\lv_core\../lv_misc/lv_anim.h ****     a->current = start;
 1057              		.loc 4 174 0
 1058 0188 1890     		str	r0, [sp, #96]
 175:lvgl\src\lv_core\../lv_misc/lv_anim.h ****     a->end   = end;
 1059              		.loc 4 175 0
 1060 018a 1990     		str	r0, [sp, #100]
 176:lvgl\src\lv_core\../lv_misc/lv_anim.h **** }
 1061              		.loc 4 176 0
 1062 018c 0025     		movs	r5, #0
 1063 018e 1A95     		str	r5, [sp, #104]
 1064              	.LVL144:
 1065              	.LBE149:
 1066              	.LBE148:
 1067              	.LBB150:
 1068              	.LBB151:
 143:lvgl\src\lv_core\../lv_misc/lv_anim.h **** }
 1069              		.loc 4 143 0
 1070 0190 0196     		str	r6, [sp, #4]
 1071              	.LVL145:
ARM GAS  C:\Users\strap\AppData\Local\Temp\cc9WM4tW.s 			page 38


 1072              	.LBE151:
 1073              	.LBE150:
 290:lvgl\src\lv_core/lv_disp.c ****             break;
 1074              		.loc 1 290 0
 1075 0192 2046     		mov	r0, r4
 1076 0194 FFF7FEFF 		bl	lv_disp_get_ver_res
 1077              	.LVL146:
 1078 0198 4042     		negs	r0, r0
 1079 019a 00B2     		sxth	r0, r0
 1080              	.LVL147:
 1081              	.LBB152:
 1082              	.LBB153:
 174:lvgl\src\lv_core\../lv_misc/lv_anim.h ****     a->current = start;
 1083              		.loc 4 174 0
 1084 019c 0695     		str	r5, [sp, #24]
 175:lvgl\src\lv_core\../lv_misc/lv_anim.h ****     a->end   = end;
 1085              		.loc 4 175 0
 1086 019e 0795     		str	r5, [sp, #28]
 176:lvgl\src\lv_core\../lv_misc/lv_anim.h **** }
 1087              		.loc 4 176 0
 1088 01a0 0890     		str	r0, [sp, #32]
 1089 01a2 19E0     		b	.L51
 1090              	.LVL148:
 1091              	.L61:
 1092              	.LBE153:
 1093              	.LBE152:
 1094              	.LBB154:
 1095              	.LBB155:
 143:lvgl\src\lv_core\../lv_misc/lv_anim.h **** }
 1096              		.loc 4 143 0
 1097 01a4 144E     		ldr	r6, .L64+12
 1098              	.LVL149:
 1099 01a6 1396     		str	r6, [sp, #76]
 1100              	.LVL150:
 1101              	.LBE155:
 1102              	.LBE154:
 294:lvgl\src\lv_core/lv_disp.c **** 
 1103              		.loc 1 294 0
 1104 01a8 2046     		mov	r0, r4
 1105 01aa FFF7FEFF 		bl	lv_disp_get_ver_res
 1106              	.LVL151:
 1107 01ae 4042     		negs	r0, r0
 1108 01b0 00B2     		sxth	r0, r0
 1109              	.LVL152:
 1110              	.LBB156:
 1111              	.LBB157:
 174:lvgl\src\lv_core\../lv_misc/lv_anim.h ****     a->current = start;
 1112              		.loc 4 174 0
 1113 01b2 1890     		str	r0, [sp, #96]
 175:lvgl\src\lv_core\../lv_misc/lv_anim.h ****     a->end   = end;
 1114              		.loc 4 175 0
 1115 01b4 1990     		str	r0, [sp, #100]
 176:lvgl\src\lv_core\../lv_misc/lv_anim.h **** }
 1116              		.loc 4 176 0
 1117 01b6 0025     		movs	r5, #0
 1118 01b8 1A95     		str	r5, [sp, #104]
 1119              	.LVL153:
ARM GAS  C:\Users\strap\AppData\Local\Temp\cc9WM4tW.s 			page 39


 1120              	.LBE157:
 1121              	.LBE156:
 1122              	.LBB158:
 1123              	.LBB159:
 143:lvgl\src\lv_core\../lv_misc/lv_anim.h **** }
 1124              		.loc 4 143 0
 1125 01ba 0196     		str	r6, [sp, #4]
 1126              	.LVL154:
 1127              	.LBE159:
 1128              	.LBE158:
 297:lvgl\src\lv_core/lv_disp.c ****             break;
 1129              		.loc 1 297 0
 1130 01bc 2046     		mov	r0, r4
 1131 01be FFF7FEFF 		bl	lv_disp_get_ver_res
 1132              	.LVL155:
 1133              	.LBB160:
 1134              	.LBB161:
 174:lvgl\src\lv_core\../lv_misc/lv_anim.h ****     a->current = start;
 1135              		.loc 4 174 0
 1136 01c2 0695     		str	r5, [sp, #24]
 175:lvgl\src\lv_core\../lv_misc/lv_anim.h ****     a->end   = end;
 1137              		.loc 4 175 0
 1138 01c4 0795     		str	r5, [sp, #28]
 176:lvgl\src\lv_core\../lv_misc/lv_anim.h **** }
 1139              		.loc 4 176 0
 1140 01c6 0890     		str	r0, [sp, #32]
 1141 01c8 06E0     		b	.L51
 1142              	.LVL156:
 1143              	.L62:
 1144              	.LBE161:
 1145              	.LBE160:
 1146              	.LBB162:
 1147              	.LBB163:
 143:lvgl\src\lv_core\../lv_misc/lv_anim.h **** }
 1148              		.loc 4 143 0
 1149 01ca 0C4B     		ldr	r3, .L64+16
 1150 01cc 1393     		str	r3, [sp, #76]
 1151              	.LVL157:
 1152              	.LBE163:
 1153              	.LBE162:
 1154              	.LBB164:
 1155              	.LBB165:
 174:lvgl\src\lv_core\../lv_misc/lv_anim.h ****     a->current = start;
 1156              		.loc 4 174 0
 1157 01ce 0023     		movs	r3, #0
 1158 01d0 1893     		str	r3, [sp, #96]
 175:lvgl\src\lv_core\../lv_misc/lv_anim.h ****     a->end   = end;
 1159              		.loc 4 175 0
 1160 01d2 1993     		str	r3, [sp, #100]
 176:lvgl\src\lv_core\../lv_misc/lv_anim.h **** }
 1161              		.loc 4 176 0
 1162 01d4 FF23     		movs	r3, #255
 1163 01d6 1A93     		str	r3, [sp, #104]
 1164              	.LVL158:
 1165              	.L51:
 1166              	.LBE165:
 1167              	.LBE164:
ARM GAS  C:\Users\strap\AppData\Local\Temp\cc9WM4tW.s 			page 40


 306:lvgl\src\lv_core/lv_disp.c ****     lv_anim_start(&a_old);
 1168              		.loc 1 306 0
 1169 01d8 12A8     		add	r0, sp, #72
 1170 01da FFF7FEFF 		bl	lv_anim_start
 1171              	.LVL159:
 307:lvgl\src\lv_core/lv_disp.c **** }
 1172              		.loc 1 307 0
 1173 01de 6846     		mov	r0, sp
 1174 01e0 FFF7FEFF 		bl	lv_anim_start
 1175              	.LVL160:
 308:lvgl\src\lv_core/lv_disp.c **** 
 1176              		.loc 1 308 0
 1177 01e4 24B0     		add	sp, sp, #144
 1178              		.cfi_def_cfa_offset 24
 1179              		@ sp needed
 1180 01e6 BDE8F081 		pop	{r4, r5, r6, r7, r8, pc}
 1181              	.LVL161:
 1182              	.L65:
 1183 01ea 00BF     		.align	2
 1184              	.L64:
 1185 01ec 00000000 		.word	scr_load_anim_start
 1186 01f0 00000000 		.word	scr_anim_ready
 1187 01f4 00000000 		.word	lv_obj_set_x
 1188 01f8 00000000 		.word	lv_obj_set_y
 1189 01fc 00000000 		.word	opa_scale_anim
 1190              		.cfi_endproc
 1191              	.LFE342:
 1192              		.size	lv_scr_load_anim, .-lv_scr_load_anim
 1193              		.section	.text.lv_disp_get_inactive_time,"ax",%progbits
 1194              		.align	2
 1195              		.global	lv_disp_get_inactive_time
 1196              		.thumb
 1197              		.thumb_func
 1198              		.type	lv_disp_get_inactive_time, %function
 1199              	lv_disp_get_inactive_time:
 1200              	.LFB343:
 318:lvgl\src\lv_core/lv_disp.c ****     if(disp) return lv_tick_elaps(disp->last_activity_time);
 1201              		.loc 1 318 0
 1202              		.cfi_startproc
 1203              		@ args = 0, pretend = 0, frame = 0
 1204              		@ frame_needed = 0, uses_anonymous_args = 0
 1205              	.LVL162:
 1206 0000 38B5     		push	{r3, r4, r5, lr}
 1207              		.cfi_def_cfa_offset 16
 1208              		.cfi_offset 3, -16
 1209              		.cfi_offset 4, -12
 1210              		.cfi_offset 5, -8
 1211              		.cfi_offset 14, -4
 319:lvgl\src\lv_core/lv_disp.c **** 
 1212              		.loc 1 319 0
 1213 0002 20B1     		cbz	r0, .L67
 319:lvgl\src\lv_core/lv_disp.c **** 
 1214              		.loc 1 319 0 is_stmt 0 discriminator 1
 1215 0004 D0F87C01 		ldr	r0, [r0, #380]
 1216              	.LVL163:
 1217 0008 FFF7FEFF 		bl	lv_tick_elaps
 1218              	.LVL164:
ARM GAS  C:\Users\strap\AppData\Local\Temp\cc9WM4tW.s 			page 41


 1219 000c 38BD     		pop	{r3, r4, r5, pc}
 1220              	.LVL165:
 1221              	.L67:
 323:lvgl\src\lv_core/lv_disp.c ****     while(d) {
 1222              		.loc 1 323 0 is_stmt 1
 1223 000e 0020     		movs	r0, #0
 1224              	.LVL166:
 1225 0010 FFF7FEFF 		bl	lv_disp_get_next
 1226              	.LVL167:
 1227 0014 0446     		mov	r4, r0
 1228              	.LVL168:
 322:lvgl\src\lv_core/lv_disp.c ****     d          = lv_disp_get_next(NULL);
 1229              		.loc 1 322 0
 1230 0016 4FF0FF35 		mov	r5, #-1
 324:lvgl\src\lv_core/lv_disp.c ****         uint32_t elaps = lv_tick_elaps(d->last_activity_time);
 1231              		.loc 1 324 0
 1232 001a 0AE0     		b	.L69
 1233              	.LVL169:
 1234              	.L70:
 1235              	.LBB166:
 325:lvgl\src\lv_core/lv_disp.c ****         t = LV_MATH_MIN(t, elaps);
 1236              		.loc 1 325 0
 1237 001c D4F87C01 		ldr	r0, [r4, #380]
 1238              	.LVL170:
 1239 0020 FFF7FEFF 		bl	lv_tick_elaps
 1240              	.LVL171:
 326:lvgl\src\lv_core/lv_disp.c ****         d = lv_disp_get_next(d);
 1241              		.loc 1 326 0
 1242 0024 8542     		cmp	r5, r0
 1243 0026 28BF     		it	cs
 1244 0028 0546     		movcs	r5, r0
 1245              	.LVL172:
 327:lvgl\src\lv_core/lv_disp.c ****     }
 1246              		.loc 1 327 0
 1247 002a 2046     		mov	r0, r4
 1248              	.LVL173:
 1249 002c FFF7FEFF 		bl	lv_disp_get_next
 1250              	.LVL174:
 1251 0030 0446     		mov	r4, r0
 1252              	.LVL175:
 1253              	.L69:
 1254              	.LBE166:
 324:lvgl\src\lv_core/lv_disp.c ****         uint32_t elaps = lv_tick_elaps(d->last_activity_time);
 1255              		.loc 1 324 0
 1256 0032 002C     		cmp	r4, #0
 1257 0034 F2D1     		bne	.L70
 330:lvgl\src\lv_core/lv_disp.c **** }
 1258              		.loc 1 330 0
 1259 0036 2846     		mov	r0, r5
 1260              	.LVL176:
 331:lvgl\src\lv_core/lv_disp.c **** 
 1261              		.loc 1 331 0
 1262 0038 38BD     		pop	{r3, r4, r5, pc}
 1263              		.cfi_endproc
 1264              	.LFE343:
 1265              		.size	lv_disp_get_inactive_time, .-lv_disp_get_inactive_time
 1266 003a 00BF     		.section	.text.lv_disp_trig_activity,"ax",%progbits
ARM GAS  C:\Users\strap\AppData\Local\Temp\cc9WM4tW.s 			page 42


 1267              		.align	2
 1268              		.global	lv_disp_trig_activity
 1269              		.thumb
 1270              		.thumb_func
 1271              		.type	lv_disp_trig_activity, %function
 1272              	lv_disp_trig_activity:
 1273              	.LFB344:
 338:lvgl\src\lv_core/lv_disp.c ****     if(!disp) disp = lv_disp_get_default();
 1274              		.loc 1 338 0
 1275              		.cfi_startproc
 1276              		@ args = 0, pretend = 0, frame = 0
 1277              		@ frame_needed = 0, uses_anonymous_args = 0
 1278              	.LVL177:
 1279 0000 10B5     		push	{r4, lr}
 1280              		.cfi_def_cfa_offset 8
 1281              		.cfi_offset 4, -8
 1282              		.cfi_offset 14, -4
 339:lvgl\src\lv_core/lv_disp.c ****     if(!disp) {
 1283              		.loc 1 339 0
 1284 0002 0446     		mov	r4, r0
 1285 0004 10B9     		cbnz	r0, .L73
 339:lvgl\src\lv_core/lv_disp.c ****     if(!disp) {
 1286              		.loc 1 339 0 is_stmt 0 discriminator 1
 1287 0006 FFF7FEFF 		bl	lv_disp_get_default
 1288              	.LVL178:
 1289 000a 0446     		mov	r4, r0
 1290              	.LVL179:
 1291              	.L73:
 340:lvgl\src\lv_core/lv_disp.c ****         LV_LOG_WARN("lv_disp_trig_activity: no display registered");
 1292              		.loc 1 340 0 is_stmt 1
 1293 000c 1CB1     		cbz	r4, .L72
 345:lvgl\src\lv_core/lv_disp.c **** }
 1294              		.loc 1 345 0
 1295 000e FFF7FEFF 		bl	lv_tick_get
 1296              	.LVL180:
 1297 0012 C4F87C01 		str	r0, [r4, #380]
 1298              	.L72:
 1299 0016 10BD     		pop	{r4, pc}
 1300              		.cfi_endproc
 1301              	.LFE344:
 1302              		.size	lv_disp_trig_activity, .-lv_disp_trig_activity
 1303              		.section	.text.lv_disp_clean_dcache,"ax",%progbits
 1304              		.align	2
 1305              		.global	lv_disp_clean_dcache
 1306              		.thumb
 1307              		.thumb_func
 1308              		.type	lv_disp_clean_dcache, %function
 1309              	lv_disp_clean_dcache:
 1310              	.LFB345:
 353:lvgl\src\lv_core/lv_disp.c ****     if(!disp) disp = lv_disp_get_default();
 1311              		.loc 1 353 0
 1312              		.cfi_startproc
 1313              		@ args = 0, pretend = 0, frame = 0
 1314              		@ frame_needed = 0, uses_anonymous_args = 0
 1315              	.LVL181:
 1316 0000 08B5     		push	{r3, lr}
 1317              		.cfi_def_cfa_offset 8
ARM GAS  C:\Users\strap\AppData\Local\Temp\cc9WM4tW.s 			page 43


 1318              		.cfi_offset 3, -8
 1319              		.cfi_offset 14, -4
 354:lvgl\src\lv_core/lv_disp.c ****     if(!disp) {
 1320              		.loc 1 354 0
 1321 0002 0346     		mov	r3, r0
 1322 0004 10B9     		cbnz	r0, .L77
 354:lvgl\src\lv_core/lv_disp.c ****     if(!disp) {
 1323              		.loc 1 354 0 is_stmt 0 discriminator 1
 1324 0006 FFF7FEFF 		bl	lv_disp_get_default
 1325              	.LVL182:
 1326 000a 0346     		mov	r3, r0
 1327              	.LVL183:
 1328              	.L77:
 355:lvgl\src\lv_core/lv_disp.c ****         LV_LOG_WARN("lv_disp_clean_dcache: no display registered");
 1329              		.loc 1 355 0 is_stmt 1
 1330 000c 1BB1     		cbz	r3, .L76
 360:lvgl\src\lv_core/lv_disp.c ****         disp->driver.clean_dcache_cb(&disp->driver);
 1331              		.loc 1 360 0
 1332 000e 1A6A     		ldr	r2, [r3, #32]
 1333 0010 0AB1     		cbz	r2, .L76
 361:lvgl\src\lv_core/lv_disp.c **** }
 1334              		.loc 1 361 0
 1335 0012 1846     		mov	r0, r3
 1336 0014 9047     		blx	r2
 1337              	.LVL184:
 1338              	.L76:
 1339 0016 08BD     		pop	{r3, pc}
 1340              		.cfi_endproc
 1341              	.LFE345:
 1342              		.size	lv_disp_clean_dcache, .-lv_disp_clean_dcache
 1343              		.section	.text._lv_disp_get_refr_task,"ax",%progbits
 1344              		.align	2
 1345              		.global	_lv_disp_get_refr_task
 1346              		.thumb
 1347              		.thumb_func
 1348              		.type	_lv_disp_get_refr_task, %function
 1349              	_lv_disp_get_refr_task:
 1350              	.LFB346:
 371:lvgl\src\lv_core/lv_disp.c ****     if(!disp) disp = lv_disp_get_default();
 1351              		.loc 1 371 0
 1352              		.cfi_startproc
 1353              		@ args = 0, pretend = 0, frame = 0
 1354              		@ frame_needed = 0, uses_anonymous_args = 0
 1355              	.LVL185:
 1356 0000 08B5     		push	{r3, lr}
 1357              		.cfi_def_cfa_offset 8
 1358              		.cfi_offset 3, -8
 1359              		.cfi_offset 14, -4
 372:lvgl\src\lv_core/lv_disp.c ****     if(!disp) {
 1360              		.loc 1 372 0
 1361 0002 0346     		mov	r3, r0
 1362 0004 10B9     		cbnz	r0, .L81
 372:lvgl\src\lv_core/lv_disp.c ****     if(!disp) {
 1363              		.loc 1 372 0 is_stmt 0 discriminator 1
 1364 0006 FFF7FEFF 		bl	lv_disp_get_default
 1365              	.LVL186:
 1366 000a 0346     		mov	r3, r0
ARM GAS  C:\Users\strap\AppData\Local\Temp\cc9WM4tW.s 			page 44


 1367              	.LVL187:
 1368              	.L81:
 373:lvgl\src\lv_core/lv_disp.c ****         LV_LOG_WARN("lv_disp_get_refr_task: no display registered");
 1369              		.loc 1 373 0 is_stmt 1
 1370 000c 0BB1     		cbz	r3, .L83
 378:lvgl\src\lv_core/lv_disp.c **** }
 1371              		.loc 1 378 0
 1372 000e 186B     		ldr	r0, [r3, #48]
 1373              	.LVL188:
 1374 0010 08BD     		pop	{r3, pc}
 1375              	.LVL189:
 1376              	.L83:
 375:lvgl\src\lv_core/lv_disp.c ****     }
 1377              		.loc 1 375 0
 1378 0012 0020     		movs	r0, #0
 1379              	.LVL190:
 379:lvgl\src\lv_core/lv_disp.c **** 
 1380              		.loc 1 379 0
 1381 0014 08BD     		pop	{r3, pc}
 1382              		.cfi_endproc
 1383              	.LFE346:
 1384              		.size	_lv_disp_get_refr_task, .-_lv_disp_get_refr_task
 1385 0016 00BF     		.text
 1386              	.Letext0:
 1387              		.file 5 "c:\\program files (x86)\\cypress\\psoc creator\\4.4\\psoc creator\\import\\gnu\\arm\\5.4.
 1388              		.file 6 "c:\\program files (x86)\\cypress\\psoc creator\\4.4\\psoc creator\\import\\gnu\\arm\\5.4.
 1389              		.file 7 "lvgl\\src\\lv_core\\../lv_hal/../lv_misc/../../../lv_conf.h"
 1390              		.file 8 "lvgl\\src\\lv_core\\../lv_hal/../lv_misc/lv_color.h"
 1391              		.file 9 "lvgl\\src\\lv_core\\../lv_hal/../lv_misc/lv_types.h"
 1392              		.file 10 "lvgl\\src\\lv_core\\../lv_hal/../lv_misc/lv_area.h"
 1393              		.file 11 "lvgl\\src\\lv_core\\../lv_hal/../lv_misc/lv_ll.h"
 1394              		.file 12 "lvgl\\src\\lv_core\\../lv_hal/../lv_misc/lv_task.h"
 1395              		.file 13 "lvgl\\src\\lv_core\\../lv_hal/lv_hal_disp.h"
 1396              		.file 14 "lvgl\\src\\lv_core\\lv_obj.h"
 1397              		.file 15 "lvgl\\src\\lv_core\\../lv_hal/lv_hal_indev.h"
 1398              		.file 16 "lvgl\\src\\lv_core\\lv_style.h"
 1399              		.file 17 "lvgl\\src\\lv_core\\../lv_draw/../lv_misc/lv_bidi.h"
 1400              		.file 18 "lvgl\\src\\lv_core\\../lv_core/lv_refr.h"
 1401              		.file 19 "lvgl\\src\\lv_core\\../lv_hal/lv_hal_tick.h"