ARM GAS  C:\Users\strap\AppData\Local\Temp\ccNppe8f.s 			page 1


   1              		.syntax unified
   2              		.cpu cortex-m3
   3              		.fpu softvfp
   4              		.eabi_attribute 20, 1
   5              		.eabi_attribute 21, 1
   6              		.eabi_attribute 23, 3
   7              		.eabi_attribute 24, 1
   8              		.eabi_attribute 25, 1
   9              		.eabi_attribute 26, 1
  10              		.eabi_attribute 30, 1
  11              		.eabi_attribute 34, 1
  12              		.eabi_attribute 18, 4
  13              		.thumb
  14              		.syntax unified
  15              		.file	"lv_draw_triangle.c"
  16              		.text
  17              	.Ltext0:
  18              		.cfi_sections	.debug_frame
  19              		.section	.text.lv_draw_polygon,"ax",%progbits
  20              		.align	2
  21              		.global	lv_draw_polygon
  22              		.thumb
  23              		.thumb_func
  24              		.type	lv_draw_polygon, %function
  25              	lv_draw_polygon:
  26              	.LFB37:
  27              		.file 1 "lvgl\\src\\lv_draw\\lv_draw_triangle.c"
   1:lvgl\src\lv_draw/lv_draw_triangle.c **** /**
   2:lvgl\src\lv_draw/lv_draw_triangle.c ****  * @file lv_draw_triangle.c
   3:lvgl\src\lv_draw/lv_draw_triangle.c ****  *
   4:lvgl\src\lv_draw/lv_draw_triangle.c ****  */
   5:lvgl\src\lv_draw/lv_draw_triangle.c **** 
   6:lvgl\src\lv_draw/lv_draw_triangle.c **** /*********************
   7:lvgl\src\lv_draw/lv_draw_triangle.c ****  *      INCLUDES
   8:lvgl\src\lv_draw/lv_draw_triangle.c ****  *********************/
   9:lvgl\src\lv_draw/lv_draw_triangle.c **** #include "lv_draw_triangle.h"
  10:lvgl\src\lv_draw/lv_draw_triangle.c **** #include "../lv_misc/lv_math.h"
  11:lvgl\src\lv_draw/lv_draw_triangle.c **** #include "../lv_misc/lv_mem.h"
  12:lvgl\src\lv_draw/lv_draw_triangle.c **** 
  13:lvgl\src\lv_draw/lv_draw_triangle.c **** /*********************
  14:lvgl\src\lv_draw/lv_draw_triangle.c ****  *      DEFINES
  15:lvgl\src\lv_draw/lv_draw_triangle.c ****  *********************/
  16:lvgl\src\lv_draw/lv_draw_triangle.c **** 
  17:lvgl\src\lv_draw/lv_draw_triangle.c **** /**********************
  18:lvgl\src\lv_draw/lv_draw_triangle.c ****  *      TYPEDEFS
  19:lvgl\src\lv_draw/lv_draw_triangle.c ****  **********************/
  20:lvgl\src\lv_draw/lv_draw_triangle.c **** 
  21:lvgl\src\lv_draw/lv_draw_triangle.c **** /**********************
  22:lvgl\src\lv_draw/lv_draw_triangle.c ****  *  STATIC PROTOTYPES
  23:lvgl\src\lv_draw/lv_draw_triangle.c ****  **********************/
  24:lvgl\src\lv_draw/lv_draw_triangle.c **** 
  25:lvgl\src\lv_draw/lv_draw_triangle.c **** /**********************
  26:lvgl\src\lv_draw/lv_draw_triangle.c ****  *  STATIC VARIABLES
  27:lvgl\src\lv_draw/lv_draw_triangle.c ****  **********************/
  28:lvgl\src\lv_draw/lv_draw_triangle.c **** 
  29:lvgl\src\lv_draw/lv_draw_triangle.c **** /**********************
  30:lvgl\src\lv_draw/lv_draw_triangle.c ****  *      MACROS
ARM GAS  C:\Users\strap\AppData\Local\Temp\ccNppe8f.s 			page 2


  31:lvgl\src\lv_draw/lv_draw_triangle.c ****  **********************/
  32:lvgl\src\lv_draw/lv_draw_triangle.c **** 
  33:lvgl\src\lv_draw/lv_draw_triangle.c **** /**********************
  34:lvgl\src\lv_draw/lv_draw_triangle.c ****  *   GLOBAL FUNCTIONS
  35:lvgl\src\lv_draw/lv_draw_triangle.c ****  **********************/
  36:lvgl\src\lv_draw/lv_draw_triangle.c **** 
  37:lvgl\src\lv_draw/lv_draw_triangle.c **** /**
  38:lvgl\src\lv_draw/lv_draw_triangle.c ****  * Draw a triangle
  39:lvgl\src\lv_draw/lv_draw_triangle.c ****  * @param points pointer to an array with 3 points
  40:lvgl\src\lv_draw/lv_draw_triangle.c ****  * @param clip_area the triangle will be drawn only in this area
  41:lvgl\src\lv_draw/lv_draw_triangle.c ****  * @param draw_dsc pointer to an initialized `lv_draw_rect_dsc_t` variable
  42:lvgl\src\lv_draw/lv_draw_triangle.c ****  */
  43:lvgl\src\lv_draw/lv_draw_triangle.c **** void lv_draw_triangle(const lv_point_t points[], const lv_area_t * clip_area, const lv_draw_rect_ds
  44:lvgl\src\lv_draw/lv_draw_triangle.c **** {
  45:lvgl\src\lv_draw/lv_draw_triangle.c ****     lv_draw_polygon(points, 3, clip_area, draw_dsc);
  46:lvgl\src\lv_draw/lv_draw_triangle.c **** }
  47:lvgl\src\lv_draw/lv_draw_triangle.c **** 
  48:lvgl\src\lv_draw/lv_draw_triangle.c **** /**
  49:lvgl\src\lv_draw/lv_draw_triangle.c ****  * Draw a polygon. Only convex polygons are supported
  50:lvgl\src\lv_draw/lv_draw_triangle.c ****  * @param points an array of points
  51:lvgl\src\lv_draw/lv_draw_triangle.c ****  * @param point_cnt number of points
  52:lvgl\src\lv_draw/lv_draw_triangle.c ****  * @param clip_area polygon will be drawn only in this area
  53:lvgl\src\lv_draw/lv_draw_triangle.c ****  * @param draw_dsc pointer to an initialized `lv_draw_rect_dsc_t` variable
  54:lvgl\src\lv_draw/lv_draw_triangle.c ****  */
  55:lvgl\src\lv_draw/lv_draw_triangle.c **** void lv_draw_polygon(const lv_point_t points[], uint16_t point_cnt, const lv_area_t * clip_area,
  56:lvgl\src\lv_draw/lv_draw_triangle.c ****                      const lv_draw_rect_dsc_t * draw_dsc)
  57:lvgl\src\lv_draw/lv_draw_triangle.c **** {
  28              		.loc 1 57 0
  29              		.cfi_startproc
  30              		@ args = 0, pretend = 0, frame = 40
  31              		@ frame_needed = 0, uses_anonymous_args = 0
  32              	.LVL0:
  58:lvgl\src\lv_draw/lv_draw_triangle.c ****     if(point_cnt < 3) return;
  33              		.loc 1 58 0
  34 0000 0229     		cmp	r1, #2
  35 0002 40F2EF80 		bls	.L29
  57:lvgl\src\lv_draw/lv_draw_triangle.c ****     if(point_cnt < 3) return;
  36              		.loc 1 57 0
  37 0006 2DE9F04F 		push	{r4, r5, r6, r7, r8, r9, r10, fp, lr}
  38              		.cfi_def_cfa_offset 36
  39              		.cfi_offset 4, -36
  40              		.cfi_offset 5, -32
  41              		.cfi_offset 6, -28
  42              		.cfi_offset 7, -24
  43              		.cfi_offset 8, -20
  44              		.cfi_offset 9, -16
  45              		.cfi_offset 10, -12
  46              		.cfi_offset 11, -8
  47              		.cfi_offset 14, -4
  48 000a 8DB0     		sub	sp, sp, #52
  49              		.cfi_def_cfa_offset 88
  50 000c 0446     		mov	r4, r0
  51 000e 0F46     		mov	r7, r1
  59:lvgl\src\lv_draw/lv_draw_triangle.c ****     if(points == NULL) return;
  52              		.loc 1 59 0
  53 0010 0028     		cmp	r0, #0
  54 0012 00F0E480 		beq	.L1
ARM GAS  C:\Users\strap\AppData\Local\Temp\ccNppe8f.s 			page 3


  60:lvgl\src\lv_draw/lv_draw_triangle.c **** 
  61:lvgl\src\lv_draw/lv_draw_triangle.c ****     int16_t i;
  62:lvgl\src\lv_draw/lv_draw_triangle.c ****     lv_area_t poly_coords = {.x1 = LV_COORD_MAX, .y1 = LV_COORD_MAX, .x2 = LV_COORD_MIN, .y2 = LV_C
  55              		.loc 1 62 0
  56 0016 7449     		ldr	r1, .L30
  57              	.LVL1:
  58 0018 0AAD     		add	r5, sp, #40
  59 001a 0868     		ldr	r0, [r1]	@ unaligned
  60              	.LVL2:
  61 001c 4968     		ldr	r1, [r1, #4]	@ unaligned
  62 001e 03C5     		stmia	r5!, {r0, r1}
  63              	.LVL3:
  63:lvgl\src\lv_draw/lv_draw_triangle.c **** 
  64:lvgl\src\lv_draw/lv_draw_triangle.c ****     for(i = 0; i < point_cnt; i++) {
  64              		.loc 1 64 0
  65 0020 0021     		movs	r1, #0
  66 0022 23E0     		b	.L3
  67              	.LVL4:
  68              	.L4:
  65:lvgl\src\lv_draw/lv_draw_triangle.c ****         poly_coords.x1 = LV_MATH_MIN(poly_coords.x1, points[i].x);
  69              		.loc 1 65 0 discriminator 3
  70 0024 04EB8105 		add	r5, r4, r1, lsl #2
  71 0028 34F921C0 		ldrsh	ip, [r4, r1, lsl #2]
  72 002c BDF92800 		ldrsh	r0, [sp, #40]
  73 0030 6045     		cmp	r0, ip
  74 0032 A8BF     		it	ge
  75 0034 6046     		movge	r0, ip
  76 0036 ADF82800 		strh	r0, [sp, #40]	@ movhi
  66:lvgl\src\lv_draw/lv_draw_triangle.c ****         poly_coords.y1 = LV_MATH_MIN(poly_coords.y1, points[i].y);
  77              		.loc 1 66 0 discriminator 3
  78 003a B5F902E0 		ldrsh	lr, [r5, #2]
  79 003e BDF92A60 		ldrsh	r6, [sp, #42]
  80 0042 7645     		cmp	r6, lr
  81 0044 A8BF     		it	ge
  82 0046 7646     		movge	r6, lr
  83 0048 ADF82A60 		strh	r6, [sp, #42]	@ movhi
  67:lvgl\src\lv_draw/lv_draw_triangle.c ****         poly_coords.x2 = LV_MATH_MAX(poly_coords.x2, points[i].x);
  84              		.loc 1 67 0 discriminator 3
  85 004c BDF92C50 		ldrsh	r5, [sp, #44]
  86 0050 6545     		cmp	r5, ip
  87 0052 B8BF     		it	lt
  88 0054 6546     		movlt	r5, ip
  89 0056 ADF82C50 		strh	r5, [sp, #44]	@ movhi
  68:lvgl\src\lv_draw/lv_draw_triangle.c ****         poly_coords.y2 = LV_MATH_MAX(poly_coords.y2, points[i].y);
  90              		.loc 1 68 0 discriminator 3
  91 005a BDF92E00 		ldrsh	r0, [sp, #46]
  92 005e 7045     		cmp	r0, lr
  93 0060 B8BF     		it	lt
  94 0062 7046     		movlt	r0, lr
  95 0064 ADF82E00 		strh	r0, [sp, #46]	@ movhi
  64:lvgl\src\lv_draw/lv_draw_triangle.c ****         poly_coords.x1 = LV_MATH_MIN(poly_coords.x1, points[i].x);
  96              		.loc 1 64 0 discriminator 3
  97 0068 0131     		adds	r1, r1, #1
  98              	.LVL5:
  99 006a 09B2     		sxth	r1, r1
 100              	.LVL6:
 101              	.L3:
ARM GAS  C:\Users\strap\AppData\Local\Temp\ccNppe8f.s 			page 4


  64:lvgl\src\lv_draw/lv_draw_triangle.c ****         poly_coords.x1 = LV_MATH_MIN(poly_coords.x1, points[i].x);
 102              		.loc 1 64 0 is_stmt 0 discriminator 1
 103 006c B846     		mov	r8, r7
 104 006e B942     		cmp	r1, r7
 105 0070 D8DB     		blt	.L4
 106 0072 0793     		str	r3, [sp, #28]
 107 0074 0692     		str	r2, [sp, #24]
  69:lvgl\src\lv_draw/lv_draw_triangle.c ****     }
  70:lvgl\src\lv_draw/lv_draw_triangle.c **** 
  71:lvgl\src\lv_draw/lv_draw_triangle.c **** 
  72:lvgl\src\lv_draw/lv_draw_triangle.c ****     bool is_common;
  73:lvgl\src\lv_draw/lv_draw_triangle.c ****     lv_area_t poly_mask;
  74:lvgl\src\lv_draw/lv_draw_triangle.c ****     is_common = _lv_area_intersect(&poly_mask, &poly_coords, clip_area);
 108              		.loc 1 74 0 is_stmt 1
 109 0076 0AA9     		add	r1, sp, #40
 110              	.LVL7:
 111 0078 08A8     		add	r0, sp, #32
 112 007a FFF7FEFF 		bl	_lv_area_intersect
 113              	.LVL8:
  75:lvgl\src\lv_draw/lv_draw_triangle.c ****     if(!is_common) return;
 114              		.loc 1 75 0
 115 007e 0028     		cmp	r0, #0
 116 0080 00F0AD80 		beq	.L1
  76:lvgl\src\lv_draw/lv_draw_triangle.c **** 
  77:lvgl\src\lv_draw/lv_draw_triangle.c ****     /*Find the lowest point*/
  78:lvgl\src\lv_draw/lv_draw_triangle.c ****     lv_coord_t y_min = points[0].y;
 117              		.loc 1 78 0
 118 0084 B4F90210 		ldrsh	r1, [r4, #2]
 119              	.LVL9:
  79:lvgl\src\lv_draw/lv_draw_triangle.c ****     int16_t y_min_i = 0;
 120              		.loc 1 79 0
 121 0088 0025     		movs	r5, #0
  80:lvgl\src\lv_draw/lv_draw_triangle.c **** 
  81:lvgl\src\lv_draw/lv_draw_triangle.c ****     for(i = 1; i < point_cnt; i++) {
 122              		.loc 1 81 0
 123 008a 0123     		movs	r3, #1
 124 008c 09E0     		b	.L5
 125              	.LVL10:
 126              	.L7:
  82:lvgl\src\lv_draw/lv_draw_triangle.c ****         if(points[i].y < y_min) {
 127              		.loc 1 82 0
 128 008e 04EB8302 		add	r2, r4, r3, lsl #2
 129 0092 B2F90220 		ldrsh	r2, [r2, #2]
 130 0096 9142     		cmp	r1, r2
 131 0098 01DD     		ble	.L6
  83:lvgl\src\lv_draw/lv_draw_triangle.c ****             y_min = points[i].y;
  84:lvgl\src\lv_draw/lv_draw_triangle.c ****             y_min_i = i;
 132              		.loc 1 84 0
 133 009a 1D46     		mov	r5, r3
 134              	.LVL11:
  83:lvgl\src\lv_draw/lv_draw_triangle.c ****             y_min = points[i].y;
 135              		.loc 1 83 0
 136 009c 1146     		mov	r1, r2
 137              	.LVL12:
 138              	.L6:
  81:lvgl\src\lv_draw/lv_draw_triangle.c ****         if(points[i].y < y_min) {
 139              		.loc 1 81 0 discriminator 2
ARM GAS  C:\Users\strap\AppData\Local\Temp\ccNppe8f.s 			page 5


 140 009e 0133     		adds	r3, r3, #1
 141              	.LVL13:
 142 00a0 1BB2     		sxth	r3, r3
 143              	.LVL14:
 144              	.L5:
  81:lvgl\src\lv_draw/lv_draw_triangle.c ****         if(points[i].y < y_min) {
 145              		.loc 1 81 0 is_stmt 0 discriminator 1
 146 00a2 9845     		cmp	r8, r3
 147 00a4 F3DC     		bgt	.L7
  85:lvgl\src\lv_draw/lv_draw_triangle.c ****         }
  86:lvgl\src\lv_draw/lv_draw_triangle.c ****     }
  87:lvgl\src\lv_draw/lv_draw_triangle.c **** 
  88:lvgl\src\lv_draw/lv_draw_triangle.c ****     lv_draw_mask_line_param_t * mp = _lv_mem_buf_get(sizeof(lv_draw_mask_line_param_t) * point_cnt)
 148              		.loc 1 88 0 is_stmt 1
 149 00a6 BB46     		mov	fp, r7
 150 00a8 2C20     		movs	r0, #44
 151              	.LVL15:
 152 00aa 00FB07F0 		mul	r0, r0, r7
 153 00ae FFF7FEFF 		bl	_lv_mem_buf_get
 154              	.LVL16:
 155 00b2 0490     		str	r0, [sp, #16]
 156              	.LVL17:
  89:lvgl\src\lv_draw/lv_draw_triangle.c ****     lv_draw_mask_line_param_t * mp_next = mp;
  90:lvgl\src\lv_draw/lv_draw_triangle.c **** 
  91:lvgl\src\lv_draw/lv_draw_triangle.c ****     int32_t i_prev_left = y_min_i;
 157              		.loc 1 91 0
 158 00b4 A946     		mov	r9, r5
 159              	.LVL18:
  92:lvgl\src\lv_draw/lv_draw_triangle.c ****     int32_t i_prev_right = y_min_i;
  93:lvgl\src\lv_draw/lv_draw_triangle.c ****     int32_t i_next_left;
  94:lvgl\src\lv_draw/lv_draw_triangle.c ****     int32_t i_next_right;
  95:lvgl\src\lv_draw/lv_draw_triangle.c ****     uint32_t mask_cnt = 0;
  96:lvgl\src\lv_draw/lv_draw_triangle.c **** 
  97:lvgl\src\lv_draw/lv_draw_triangle.c ****     /* Check if the order of points is inverted or not.
  98:lvgl\src\lv_draw/lv_draw_triangle.c ****      * The normal case is when the left point is on `y_min_i - 1`*/
  99:lvgl\src\lv_draw/lv_draw_triangle.c ****     i_next_left = y_min_i - 1;
 100:lvgl\src\lv_draw/lv_draw_triangle.c ****     if(i_next_left < 0) i_next_left = point_cnt + i_next_left;
 160              		.loc 1 100 0
 161 00b6 013D     		subs	r5, r5, #1
 162              	.LVL19:
 163 00b8 00D5     		bpl	.L8
 164              		.loc 1 100 0 is_stmt 0 discriminator 1
 165 00ba 4544     		add	r5, r5, r8
 166              	.LVL20:
 167              	.L8:
 101:lvgl\src\lv_draw/lv_draw_triangle.c **** 
 102:lvgl\src\lv_draw/lv_draw_triangle.c ****     i_next_right = y_min_i + 1;
 168              		.loc 1 102 0 is_stmt 1
 169 00bc 09F10103 		add	r3, r9, #1
 170              	.LVL21:
 103:lvgl\src\lv_draw/lv_draw_triangle.c ****     if(i_next_right > point_cnt - 1) i_next_right = 0;
 171              		.loc 1 103 0
 172 00c0 08F1FF32 		add	r2, r8, #-1
 173 00c4 1646     		mov	r6, r2
 174 00c6 9342     		cmp	r3, r2
 175 00c8 00DD     		ble	.L9
 176 00ca 0023     		movs	r3, #0
ARM GAS  C:\Users\strap\AppData\Local\Temp\ccNppe8f.s 			page 6


 177              	.LVL22:
 178              	.L9:
 104:lvgl\src\lv_draw/lv_draw_triangle.c **** 
 105:lvgl\src\lv_draw/lv_draw_triangle.c ****     bool inv = false;
 106:lvgl\src\lv_draw/lv_draw_triangle.c ****     if(points[i_next_left].x > points[i_next_right].x && points[i_next_left].y < points[i_next_righ
 179              		.loc 1 106 0
 180 00cc 04EB8500 		add	r0, r4, r5, lsl #2
 181              	.LVL23:
 182 00d0 34F92520 		ldrsh	r2, [r4, r5, lsl #2]
 183 00d4 04EB8301 		add	r1, r4, r3, lsl #2
 184 00d8 34F92330 		ldrsh	r3, [r4, r3, lsl #2]
 185              	.LVL24:
 186 00dc 9A42     		cmp	r2, r3
 187 00de 08DD     		ble	.L24
 188              		.loc 1 106 0 is_stmt 0 discriminator 1
 189 00e0 B0F90220 		ldrsh	r2, [r0, #2]
 190 00e4 B1F90230 		ldrsh	r3, [r1, #2]
 191 00e8 9A42     		cmp	r2, r3
 192 00ea 05DB     		blt	.L25
 105:lvgl\src\lv_draw/lv_draw_triangle.c ****     if(points[i_next_left].x > points[i_next_right].x && points[i_next_left].y < points[i_next_righ
 193              		.loc 1 105 0 is_stmt 1
 194 00ec 0023     		movs	r3, #0
 195 00ee 0393     		str	r3, [sp, #12]
 196 00f0 04E0     		b	.L10
 197              	.L24:
 198 00f2 0023     		movs	r3, #0
 199 00f4 0393     		str	r3, [sp, #12]
 200 00f6 01E0     		b	.L10
 201              	.L25:
 202              		.loc 1 106 0
 203 00f8 0123     		movs	r3, #1
 204 00fa 0393     		str	r3, [sp, #12]
 205              	.L10:
 206 00fc CA46     		mov	r10, r9
 207 00fe 049B     		ldr	r3, [sp, #16]
 208 0100 9C46     		mov	ip, r3
 209 0102 0025     		movs	r5, #0
 210              	.LVL25:
 211 0104 CDF81480 		str	r8, [sp, #20]
 212 0108 B046     		mov	r8, r6
 213              	.LVL26:
 214              	.L20:
 107:lvgl\src\lv_draw/lv_draw_triangle.c **** 
 108:lvgl\src\lv_draw/lv_draw_triangle.c ****     do {
 109:lvgl\src\lv_draw/lv_draw_triangle.c ****         if(!inv) {
 215              		.loc 1 109 0
 216 010a 039B     		ldr	r3, [sp, #12]
 217 010c 4BB9     		cbnz	r3, .L11
 218              	.LVL27:
 110:lvgl\src\lv_draw/lv_draw_triangle.c ****             i_next_left = i_prev_left - 1;
 111:lvgl\src\lv_draw/lv_draw_triangle.c ****             if(i_next_left < 0) i_next_left = point_cnt + i_next_left;
 219              		.loc 1 111 0
 220 010e B9F10106 		subs	r6, r9, #1
 221              	.LVL28:
 222 0112 01D5     		bpl	.L12
 223              		.loc 1 111 0 is_stmt 0 discriminator 1
 224 0114 059B     		ldr	r3, [sp, #20]
ARM GAS  C:\Users\strap\AppData\Local\Temp\ccNppe8f.s 			page 7


 225 0116 1E44     		add	r6, r6, r3
 226              	.LVL29:
 227              	.L12:
 112:lvgl\src\lv_draw/lv_draw_triangle.c **** 
 113:lvgl\src\lv_draw/lv_draw_triangle.c ****             i_next_right = i_prev_right + 1;
 228              		.loc 1 113 0 is_stmt 1
 229 0118 0AF10107 		add	r7, r10, #1
 230              	.LVL30:
 114:lvgl\src\lv_draw/lv_draw_triangle.c ****             if(i_next_right > point_cnt - 1) i_next_right = 0;
 231              		.loc 1 114 0
 232 011c B845     		cmp	r8, r7
 233 011e 0BDB     		blt	.L26
 234 0120 0BE0     		b	.L13
 235              	.LVL31:
 236              	.L11:
 115:lvgl\src\lv_draw/lv_draw_triangle.c ****         }
 116:lvgl\src\lv_draw/lv_draw_triangle.c ****         else {
 117:lvgl\src\lv_draw/lv_draw_triangle.c ****             i_next_left = i_prev_left + 1;
 237              		.loc 1 117 0
 238 0122 09F10106 		add	r6, r9, #1
 239              	.LVL32:
 118:lvgl\src\lv_draw/lv_draw_triangle.c ****             if(i_next_left > point_cnt - 1) i_next_left = 0;
 240              		.loc 1 118 0
 241 0126 B045     		cmp	r8, r6
 242 0128 00DA     		bge	.L14
 243 012a 0026     		movs	r6, #0
 244              	.LVL33:
 245              	.L14:
 119:lvgl\src\lv_draw/lv_draw_triangle.c **** 
 120:lvgl\src\lv_draw/lv_draw_triangle.c ****             i_next_right = i_prev_right - 1;
 121:lvgl\src\lv_draw/lv_draw_triangle.c ****             if(i_next_right < 0) i_next_right = point_cnt + i_next_right;
 246              		.loc 1 121 0
 247 012c BAF10107 		subs	r7, r10, #1
 248              	.LVL34:
 249 0130 03D5     		bpl	.L13
 250              		.loc 1 121 0 is_stmt 0 discriminator 1
 251 0132 059B     		ldr	r3, [sp, #20]
 252 0134 1F44     		add	r7, r7, r3
 253              	.LVL35:
 254 0136 00E0     		b	.L13
 255              	.L26:
 114:lvgl\src\lv_draw/lv_draw_triangle.c ****         }
 256              		.loc 1 114 0 is_stmt 1
 257 0138 0027     		movs	r7, #0
 258              	.LVL36:
 259              	.L13:
 122:lvgl\src\lv_draw/lv_draw_triangle.c ****         }
 123:lvgl\src\lv_draw/lv_draw_triangle.c **** 
 124:lvgl\src\lv_draw/lv_draw_triangle.c ****         if(points[i_next_left].y >=  points[i_prev_left].y) {
 260              		.loc 1 124 0
 261 013a B300     		lsls	r3, r6, #2
 262 013c E218     		adds	r2, r4, r3
 263 013e B2F90200 		ldrsh	r0, [r2, #2]
 264 0142 4FEA8901 		lsl	r1, r9, #2
 265 0146 6218     		adds	r2, r4, r1
 266 0148 B2F90220 		ldrsh	r2, [r2, #2]
 267 014c 9042     		cmp	r0, r2
ARM GAS  C:\Users\strap\AppData\Local\Temp\ccNppe8f.s 			page 8


 268 014e 16DB     		blt	.L15
 125:lvgl\src\lv_draw/lv_draw_triangle.c ****             if(points[i_next_left].y != points[i_prev_left].y &&
 269              		.loc 1 125 0
 270 0150 13D0     		beq	.L16
 126:lvgl\src\lv_draw/lv_draw_triangle.c ****                points[i_next_left].x !=  points[i_prev_left].x) {
 271              		.loc 1 126 0 discriminator 1
 272 0152 E35E     		ldrsh	r3, [r4, r3]
 273 0154 615E     		ldrsh	r1, [r4, r1]
 125:lvgl\src\lv_draw/lv_draw_triangle.c ****             if(points[i_next_left].y != points[i_prev_left].y &&
 274              		.loc 1 125 0 discriminator 1
 275 0156 8B42     		cmp	r3, r1
 276 0158 0FD0     		beq	.L16
 127:lvgl\src\lv_draw/lv_draw_triangle.c ****                 lv_draw_mask_line_points_init(mp_next, points[i_prev_left].x, points[i_prev_left].y
 277              		.loc 1 127 0
 278 015a 4FF0010E 		mov	lr, #1
 279 015e CDF804E0 		str	lr, [sp, #4]
 280 0162 0090     		str	r0, [sp]
 281 0164 E146     		mov	r9, ip
 282              	.LVL37:
 283 0166 6046     		mov	r0, ip
 284 0168 FFF7FEFF 		bl	lv_draw_mask_line_points_init
 285              	.LVL38:
 128:lvgl\src\lv_draw/lv_draw_triangle.c ****                                               points[i_next_left].x, points[i_next_left].y,
 129:lvgl\src\lv_draw/lv_draw_triangle.c ****                                               LV_DRAW_MASK_LINE_SIDE_RIGHT);
 130:lvgl\src\lv_draw/lv_draw_triangle.c ****                 lv_draw_mask_add(mp_next, mp);
 286              		.loc 1 130 0
 287 016c 0499     		ldr	r1, [sp, #16]
 288 016e 4846     		mov	r0, r9
 289 0170 FFF7FEFF 		bl	lv_draw_mask_add
 290              	.LVL39:
 131:lvgl\src\lv_draw/lv_draw_triangle.c ****                 mp_next++;
 291              		.loc 1 131 0
 292 0174 4B46     		mov	r3, r9
 293 0176 2C33     		adds	r3, r3, #44
 294 0178 9C46     		mov	ip, r3
 295              	.LVL40:
 296              	.L16:
 132:lvgl\src\lv_draw/lv_draw_triangle.c ****             }
 133:lvgl\src\lv_draw/lv_draw_triangle.c ****             mask_cnt++;
 297              		.loc 1 133 0
 298 017a 0135     		adds	r5, r5, #1
 299              	.LVL41:
 134:lvgl\src\lv_draw/lv_draw_triangle.c ****             i_prev_left = i_next_left;
 300              		.loc 1 134 0
 301 017c B146     		mov	r9, r6
 302              	.LVL42:
 303              	.L15:
 135:lvgl\src\lv_draw/lv_draw_triangle.c ****         }
 136:lvgl\src\lv_draw/lv_draw_triangle.c **** 
 137:lvgl\src\lv_draw/lv_draw_triangle.c ****         if(mask_cnt == point_cnt) break;
 304              		.loc 1 137 0
 305 017e 5D45     		cmp	r5, fp
 306 0180 21D0     		beq	.L17
 138:lvgl\src\lv_draw/lv_draw_triangle.c **** 
 139:lvgl\src\lv_draw/lv_draw_triangle.c ****         if(points[i_next_right].y >=  points[i_prev_right].y) {
 307              		.loc 1 139 0
 308 0182 BB00     		lsls	r3, r7, #2
ARM GAS  C:\Users\strap\AppData\Local\Temp\ccNppe8f.s 			page 9


 309 0184 E218     		adds	r2, r4, r3
 310 0186 B2F90200 		ldrsh	r0, [r2, #2]
 311 018a 4FEA8A01 		lsl	r1, r10, #2
 312 018e 6218     		adds	r2, r4, r1
 313 0190 B2F90220 		ldrsh	r2, [r2, #2]
 314 0194 9042     		cmp	r0, r2
 315 0196 14DB     		blt	.L18
 140:lvgl\src\lv_draw/lv_draw_triangle.c ****             if(points[i_next_right].y != points[i_prev_right].y &&
 316              		.loc 1 140 0
 317 0198 11D0     		beq	.L19
 141:lvgl\src\lv_draw/lv_draw_triangle.c ****                points[i_next_right].x !=  points[i_prev_right].x) {
 318              		.loc 1 141 0 discriminator 1
 319 019a E35E     		ldrsh	r3, [r4, r3]
 320 019c 615E     		ldrsh	r1, [r4, r1]
 140:lvgl\src\lv_draw/lv_draw_triangle.c ****             if(points[i_next_right].y != points[i_prev_right].y &&
 321              		.loc 1 140 0 discriminator 1
 322 019e 8B42     		cmp	r3, r1
 323 01a0 0DD0     		beq	.L19
 142:lvgl\src\lv_draw/lv_draw_triangle.c **** 
 143:lvgl\src\lv_draw/lv_draw_triangle.c ****                 lv_draw_mask_line_points_init(mp_next, points[i_prev_right].x, points[i_prev_right]
 324              		.loc 1 143 0
 325 01a2 0026     		movs	r6, #0
 326              	.LVL43:
 327 01a4 0196     		str	r6, [sp, #4]
 328 01a6 0090     		str	r0, [sp]
 329 01a8 6646     		mov	r6, ip
 330 01aa 6046     		mov	r0, ip
 331 01ac FFF7FEFF 		bl	lv_draw_mask_line_points_init
 332              	.LVL44:
 144:lvgl\src\lv_draw/lv_draw_triangle.c ****                                               points[i_next_right].x, points[i_next_right].y,
 145:lvgl\src\lv_draw/lv_draw_triangle.c ****                                               LV_DRAW_MASK_LINE_SIDE_LEFT);
 146:lvgl\src\lv_draw/lv_draw_triangle.c ****                 lv_draw_mask_add(mp_next, mp);
 333              		.loc 1 146 0
 334 01b0 0499     		ldr	r1, [sp, #16]
 335 01b2 3046     		mov	r0, r6
 336 01b4 FFF7FEFF 		bl	lv_draw_mask_add
 337              	.LVL45:
 147:lvgl\src\lv_draw/lv_draw_triangle.c ****                 mp_next++;
 338              		.loc 1 147 0
 339 01b8 3346     		mov	r3, r6
 340 01ba 2C33     		adds	r3, r3, #44
 341 01bc 9C46     		mov	ip, r3
 342              	.LVL46:
 343              	.L19:
 148:lvgl\src\lv_draw/lv_draw_triangle.c ****             }
 149:lvgl\src\lv_draw/lv_draw_triangle.c ****             mask_cnt++;
 344              		.loc 1 149 0
 345 01be 0135     		adds	r5, r5, #1
 346              	.LVL47:
 150:lvgl\src\lv_draw/lv_draw_triangle.c ****             i_prev_right = i_next_right;
 347              		.loc 1 150 0
 348 01c0 BA46     		mov	r10, r7
 349              	.LVL48:
 350              	.L18:
 151:lvgl\src\lv_draw/lv_draw_triangle.c ****         }
 152:lvgl\src\lv_draw/lv_draw_triangle.c **** 
 153:lvgl\src\lv_draw/lv_draw_triangle.c ****     } while(mask_cnt < point_cnt);
ARM GAS  C:\Users\strap\AppData\Local\Temp\ccNppe8f.s 			page 10


 351              		.loc 1 153 0
 352 01c2 5D45     		cmp	r5, fp
 353 01c4 A1D3     		bcc	.L20
 354              	.L17:
 154:lvgl\src\lv_draw/lv_draw_triangle.c **** 
 155:lvgl\src\lv_draw/lv_draw_triangle.c ****     lv_draw_rect(&poly_coords, clip_area, draw_dsc);
 355              		.loc 1 155 0
 356 01c6 079A     		ldr	r2, [sp, #28]
 357 01c8 0699     		ldr	r1, [sp, #24]
 358 01ca 0AA8     		add	r0, sp, #40
 359 01cc FFF7FEFF 		bl	lv_draw_rect
 360              	.LVL49:
 156:lvgl\src\lv_draw/lv_draw_triangle.c **** 
 157:lvgl\src\lv_draw/lv_draw_triangle.c ****     lv_draw_mask_remove_custom(mp);
 361              		.loc 1 157 0
 362 01d0 049C     		ldr	r4, [sp, #16]
 363              	.LVL50:
 364 01d2 2046     		mov	r0, r4
 365 01d4 FFF7FEFF 		bl	lv_draw_mask_remove_custom
 366              	.LVL51:
 158:lvgl\src\lv_draw/lv_draw_triangle.c **** 
 159:lvgl\src\lv_draw/lv_draw_triangle.c ****     _lv_mem_buf_release(mp);
 367              		.loc 1 159 0
 368 01d8 2046     		mov	r0, r4
 369 01da FFF7FEFF 		bl	_lv_mem_buf_release
 370              	.LVL52:
 371              	.L1:
 160:lvgl\src\lv_draw/lv_draw_triangle.c **** 
 161:lvgl\src\lv_draw/lv_draw_triangle.c **** }
 372              		.loc 1 161 0
 373 01de 0DB0     		add	sp, sp, #52
 374              		.cfi_def_cfa_offset 36
 375              		@ sp needed
 376 01e0 BDE8F08F 		pop	{r4, r5, r6, r7, r8, r9, r10, fp, pc}
 377              	.LVL53:
 378              	.L29:
 379              		.cfi_def_cfa_offset 0
 380              		.cfi_restore 4
 381              		.cfi_restore 5
 382              		.cfi_restore 6
 383              		.cfi_restore 7
 384              		.cfi_restore 8
 385              		.cfi_restore 9
 386              		.cfi_restore 10
 387              		.cfi_restore 11
 388              		.cfi_restore 14
 389 01e4 7047     		bx	lr
 390              	.L31:
 391 01e6 00BF     		.align	2
 392              	.L30:
 393 01e8 00000000 		.word	.LANCHOR0
 394              		.cfi_endproc
 395              	.LFE37:
 396              		.size	lv_draw_polygon, .-lv_draw_polygon
 397              		.section	.text.lv_draw_triangle,"ax",%progbits
 398              		.align	2
 399              		.global	lv_draw_triangle
ARM GAS  C:\Users\strap\AppData\Local\Temp\ccNppe8f.s 			page 11


 400              		.thumb
 401              		.thumb_func
 402              		.type	lv_draw_triangle, %function
 403              	lv_draw_triangle:
 404              	.LFB36:
  44:lvgl\src\lv_draw/lv_draw_triangle.c ****     lv_draw_polygon(points, 3, clip_area, draw_dsc);
 405              		.loc 1 44 0
 406              		.cfi_startproc
 407              		@ args = 0, pretend = 0, frame = 0
 408              		@ frame_needed = 0, uses_anonymous_args = 0
 409              	.LVL54:
 410 0000 08B5     		push	{r3, lr}
 411              		.cfi_def_cfa_offset 8
 412              		.cfi_offset 3, -8
 413              		.cfi_offset 14, -4
  45:lvgl\src\lv_draw/lv_draw_triangle.c **** }
 414              		.loc 1 45 0
 415 0002 1346     		mov	r3, r2
 416 0004 0A46     		mov	r2, r1
 417              	.LVL55:
 418 0006 0321     		movs	r1, #3
 419              	.LVL56:
 420 0008 FFF7FEFF 		bl	lv_draw_polygon
 421              	.LVL57:
 422 000c 08BD     		pop	{r3, pc}
 423              		.cfi_endproc
 424              	.LFE36:
 425              		.size	lv_draw_triangle, .-lv_draw_triangle
 426 000e 00BF     		.section	.rodata
 427              		.align	2
 428              		.set	.LANCHOR0,. + 0
 429              	.LC0:
 430 0000 187C     		.short	31768
 431 0002 187C     		.short	31768
 432 0004 E883     		.short	-31768
 433 0006 E883     		.short	-31768
 434              		.text
 435              	.Letext0:
 436              		.file 2 "c:\\program files (x86)\\cypress\\psoc creator\\4.4\\psoc creator\\import\\gnu\\arm\\5.4.
 437              		.file 3 "c:\\program files (x86)\\cypress\\psoc creator\\4.4\\psoc creator\\import\\gnu\\arm\\5.4.
 438              		.file 4 "lvgl\\src\\lv_draw\\../lv_core/../lv_font/../../../lv_conf.h"
 439              		.file 5 "lvgl\\src\\lv_draw\\../lv_core/../lv_font/../lv_misc/lv_area.h"
 440              		.file 6 "lvgl\\src\\lv_draw\\../lv_core/../lv_font/lv_font.h"
 441              		.file 7 "lvgl\\src\\lv_draw\\../lv_core/../lv_misc/lv_color.h"
 442              		.file 8 "lvgl\\src\\lv_draw\\../lv_core/../lv_draw/lv_draw_mask.h"
 443              		.file 9 "lvgl\\src\\lv_draw\\../lv_core/../lv_draw/lv_draw_blend.h"
 444              		.file 10 "lvgl\\src\\lv_draw\\../lv_core/lv_style.h"
 445              		.file 11 "lvgl\\src\\lv_draw\\lv_draw_rect.h"
 446              		.file 12 "lvgl\\src\\lv_draw\\../lv_core/../lv_font/../lv_misc/lv_mem.h"