ARM GAS  C:\Users\strap\AppData\Local\Temp\ccjLHvYP.s 			page 1


   1              		.syntax unified
   2              		.cpu cortex-m3
   3              		.fpu softvfp
   4              		.eabi_attribute 20, 1
   5              		.eabi_attribute 21, 1
   6              		.eabi_attribute 23, 3
   7              		.eabi_attribute 24, 1
   8              		.eabi_attribute 25, 1
   9              		.eabi_attribute 26, 1
  10              		.eabi_attribute 30, 1
  11              		.eabi_attribute 34, 1
  12              		.eabi_attribute 18, 4
  13              		.thumb
  14              		.syntax unified
  15              		.file	"lv_draw_line.c"
  16              		.text
  17              	.Ltext0:
  18              		.cfi_sections	.debug_frame
  19              		.section	.text.draw_line_hor,"ax",%progbits
  20              		.align	2
  21              		.thumb
  22              		.thumb_func
  23              		.type	draw_line_hor, %function
  24              	draw_line_hor:
  25              	.LFB331:
  26              		.file 1 "lvgl\\src\\lv_draw\\lv_draw_line.c"
   1:lvgl\src\lv_draw/lv_draw_line.c **** /**
   2:lvgl\src\lv_draw/lv_draw_line.c ****  * @file lv_draw_line.c
   3:lvgl\src\lv_draw/lv_draw_line.c ****  *
   4:lvgl\src\lv_draw/lv_draw_line.c ****  */
   5:lvgl\src\lv_draw/lv_draw_line.c **** 
   6:lvgl\src\lv_draw/lv_draw_line.c **** /*********************
   7:lvgl\src\lv_draw/lv_draw_line.c ****  *      INCLUDES
   8:lvgl\src\lv_draw/lv_draw_line.c ****  *********************/
   9:lvgl\src\lv_draw/lv_draw_line.c **** #include <stdio.h>
  10:lvgl\src\lv_draw/lv_draw_line.c **** #include <stdbool.h>
  11:lvgl\src\lv_draw/lv_draw_line.c **** #include "lv_draw_mask.h"
  12:lvgl\src\lv_draw/lv_draw_line.c **** #include "lv_draw_blend.h"
  13:lvgl\src\lv_draw/lv_draw_line.c **** #include "../lv_core/lv_refr.h"
  14:lvgl\src\lv_draw/lv_draw_line.c **** #include "../lv_misc/lv_math.h"
  15:lvgl\src\lv_draw/lv_draw_line.c **** 
  16:lvgl\src\lv_draw/lv_draw_line.c **** /*********************
  17:lvgl\src\lv_draw/lv_draw_line.c ****  *      DEFINES
  18:lvgl\src\lv_draw/lv_draw_line.c ****  *********************/
  19:lvgl\src\lv_draw/lv_draw_line.c **** 
  20:lvgl\src\lv_draw/lv_draw_line.c **** /**********************
  21:lvgl\src\lv_draw/lv_draw_line.c ****  *      TYPEDEFS
  22:lvgl\src\lv_draw/lv_draw_line.c ****  **********************/
  23:lvgl\src\lv_draw/lv_draw_line.c **** 
  24:lvgl\src\lv_draw/lv_draw_line.c **** /**********************
  25:lvgl\src\lv_draw/lv_draw_line.c ****  *  STATIC PROTOTYPES
  26:lvgl\src\lv_draw/lv_draw_line.c ****  **********************/
  27:lvgl\src\lv_draw/lv_draw_line.c **** LV_ATTRIBUTE_FAST_MEM static void draw_line_skew(const lv_point_t * point1, const lv_point_t * poin
  28:lvgl\src\lv_draw/lv_draw_line.c ****                                                  const lv_area_t * clip,
  29:lvgl\src\lv_draw/lv_draw_line.c ****                                                  const lv_draw_line_dsc_t * dsc);
  30:lvgl\src\lv_draw/lv_draw_line.c **** LV_ATTRIBUTE_FAST_MEM static void draw_line_hor(const lv_point_t * point1, const lv_point_t * point
  31:lvgl\src\lv_draw/lv_draw_line.c ****                                                 const lv_area_t * clip,
ARM GAS  C:\Users\strap\AppData\Local\Temp\ccjLHvYP.s 			page 2


  32:lvgl\src\lv_draw/lv_draw_line.c ****                                                 const lv_draw_line_dsc_t * dsc);
  33:lvgl\src\lv_draw/lv_draw_line.c **** LV_ATTRIBUTE_FAST_MEM static void draw_line_ver(const lv_point_t * point1, const lv_point_t * point
  34:lvgl\src\lv_draw/lv_draw_line.c ****                                                 const lv_area_t * clip,
  35:lvgl\src\lv_draw/lv_draw_line.c ****                                                 const lv_draw_line_dsc_t * dsc);
  36:lvgl\src\lv_draw/lv_draw_line.c **** 
  37:lvgl\src\lv_draw/lv_draw_line.c **** /**********************
  38:lvgl\src\lv_draw/lv_draw_line.c ****  *  STATIC VARIABLES
  39:lvgl\src\lv_draw/lv_draw_line.c ****  **********************/
  40:lvgl\src\lv_draw/lv_draw_line.c **** 
  41:lvgl\src\lv_draw/lv_draw_line.c **** /**********************
  42:lvgl\src\lv_draw/lv_draw_line.c ****  *      MACROS
  43:lvgl\src\lv_draw/lv_draw_line.c ****  **********************/
  44:lvgl\src\lv_draw/lv_draw_line.c **** 
  45:lvgl\src\lv_draw/lv_draw_line.c **** /**********************
  46:lvgl\src\lv_draw/lv_draw_line.c ****  *   GLOBAL FUNCTIONS
  47:lvgl\src\lv_draw/lv_draw_line.c ****  **********************/
  48:lvgl\src\lv_draw/lv_draw_line.c **** 
  49:lvgl\src\lv_draw/lv_draw_line.c **** LV_ATTRIBUTE_FAST_MEM void lv_draw_line_dsc_init(lv_draw_line_dsc_t * dsc)
  50:lvgl\src\lv_draw/lv_draw_line.c **** {
  51:lvgl\src\lv_draw/lv_draw_line.c ****     _lv_memset_00(dsc, sizeof(lv_draw_line_dsc_t));
  52:lvgl\src\lv_draw/lv_draw_line.c ****     dsc->width = 1;
  53:lvgl\src\lv_draw/lv_draw_line.c ****     dsc->opa = LV_OPA_COVER;
  54:lvgl\src\lv_draw/lv_draw_line.c ****     dsc->color = LV_COLOR_BLACK;
  55:lvgl\src\lv_draw/lv_draw_line.c **** }
  56:lvgl\src\lv_draw/lv_draw_line.c **** 
  57:lvgl\src\lv_draw/lv_draw_line.c **** /**
  58:lvgl\src\lv_draw/lv_draw_line.c ****  * Draw a line
  59:lvgl\src\lv_draw/lv_draw_line.c ****  * @param point1 first point of the line
  60:lvgl\src\lv_draw/lv_draw_line.c ****  * @param point2 second point of the line
  61:lvgl\src\lv_draw/lv_draw_line.c ****  * @param clip the line will be drawn only in this area
  62:lvgl\src\lv_draw/lv_draw_line.c ****  * @param dsc pointer to an initialized `lv_draw_line_dsc_t` variable
  63:lvgl\src\lv_draw/lv_draw_line.c ****  */
  64:lvgl\src\lv_draw/lv_draw_line.c **** LV_ATTRIBUTE_FAST_MEM void lv_draw_line(const lv_point_t * point1, const lv_point_t * point2, const
  65:lvgl\src\lv_draw/lv_draw_line.c ****                                         const lv_draw_line_dsc_t * dsc)
  66:lvgl\src\lv_draw/lv_draw_line.c **** {
  67:lvgl\src\lv_draw/lv_draw_line.c ****     if(dsc->width == 0) return;
  68:lvgl\src\lv_draw/lv_draw_line.c ****     if(dsc->opa <= LV_OPA_MIN) return;
  69:lvgl\src\lv_draw/lv_draw_line.c **** 
  70:lvgl\src\lv_draw/lv_draw_line.c ****     if(point1->x == point2->x && point1->y == point2->y) return;
  71:lvgl\src\lv_draw/lv_draw_line.c **** 
  72:lvgl\src\lv_draw/lv_draw_line.c ****     lv_area_t clip_line;
  73:lvgl\src\lv_draw/lv_draw_line.c ****     clip_line.x1 = LV_MATH_MIN(point1->x, point2->x) - dsc->width / 2;
  74:lvgl\src\lv_draw/lv_draw_line.c ****     clip_line.x2 = LV_MATH_MAX(point1->x, point2->x) + dsc->width / 2;
  75:lvgl\src\lv_draw/lv_draw_line.c ****     clip_line.y1 = LV_MATH_MIN(point1->y, point2->y) - dsc->width / 2;
  76:lvgl\src\lv_draw/lv_draw_line.c ****     clip_line.y2 = LV_MATH_MAX(point1->y, point2->y) + dsc->width / 2;
  77:lvgl\src\lv_draw/lv_draw_line.c **** 
  78:lvgl\src\lv_draw/lv_draw_line.c ****     bool is_common;
  79:lvgl\src\lv_draw/lv_draw_line.c ****     is_common = _lv_area_intersect(&clip_line, &clip_line, clip);
  80:lvgl\src\lv_draw/lv_draw_line.c ****     if(!is_common) return;
  81:lvgl\src\lv_draw/lv_draw_line.c **** 
  82:lvgl\src\lv_draw/lv_draw_line.c ****     if(point1->y == point2->y) draw_line_hor(point1, point2, &clip_line, dsc);
  83:lvgl\src\lv_draw/lv_draw_line.c ****     else if(point1->x == point2->x) draw_line_ver(point1, point2, &clip_line, dsc);
  84:lvgl\src\lv_draw/lv_draw_line.c ****     else draw_line_skew(point1, point2, &clip_line, dsc);
  85:lvgl\src\lv_draw/lv_draw_line.c **** 
  86:lvgl\src\lv_draw/lv_draw_line.c **** 
  87:lvgl\src\lv_draw/lv_draw_line.c ****     if(dsc->round_end || dsc->round_start) {
  88:lvgl\src\lv_draw/lv_draw_line.c ****         lv_draw_rect_dsc_t cir_dsc;
ARM GAS  C:\Users\strap\AppData\Local\Temp\ccjLHvYP.s 			page 3


  89:lvgl\src\lv_draw/lv_draw_line.c ****         lv_draw_rect_dsc_init(&cir_dsc);
  90:lvgl\src\lv_draw/lv_draw_line.c ****         cir_dsc.bg_color = dsc->color;
  91:lvgl\src\lv_draw/lv_draw_line.c ****         cir_dsc.radius = LV_RADIUS_CIRCLE;
  92:lvgl\src\lv_draw/lv_draw_line.c ****         cir_dsc.bg_opa = dsc->opa;
  93:lvgl\src\lv_draw/lv_draw_line.c **** 
  94:lvgl\src\lv_draw/lv_draw_line.c ****         int32_t r = (dsc->width >> 1);
  95:lvgl\src\lv_draw/lv_draw_line.c ****         int32_t r_corr = (dsc->width & 1) ? 0 : 1;
  96:lvgl\src\lv_draw/lv_draw_line.c ****         lv_area_t cir_area;
  97:lvgl\src\lv_draw/lv_draw_line.c **** 
  98:lvgl\src\lv_draw/lv_draw_line.c ****         if(dsc->round_start) {
  99:lvgl\src\lv_draw/lv_draw_line.c ****             cir_area.x1 = point1->x - r;
 100:lvgl\src\lv_draw/lv_draw_line.c ****             cir_area.y1 = point1->y - r;
 101:lvgl\src\lv_draw/lv_draw_line.c ****             cir_area.x2 = point1->x + r - r_corr;
 102:lvgl\src\lv_draw/lv_draw_line.c ****             cir_area.y2 = point1->y + r - r_corr ;
 103:lvgl\src\lv_draw/lv_draw_line.c ****             lv_draw_rect(&cir_area, clip, &cir_dsc);
 104:lvgl\src\lv_draw/lv_draw_line.c ****         }
 105:lvgl\src\lv_draw/lv_draw_line.c **** 
 106:lvgl\src\lv_draw/lv_draw_line.c ****         if(dsc->round_end) {
 107:lvgl\src\lv_draw/lv_draw_line.c ****             cir_area.x1 = point2->x - r;
 108:lvgl\src\lv_draw/lv_draw_line.c ****             cir_area.y1 = point2->y - r;
 109:lvgl\src\lv_draw/lv_draw_line.c ****             cir_area.x2 = point2->x + r - r_corr;
 110:lvgl\src\lv_draw/lv_draw_line.c ****             cir_area.y2 = point2->y + r - r_corr ;
 111:lvgl\src\lv_draw/lv_draw_line.c ****             lv_draw_rect(&cir_area, clip, &cir_dsc);
 112:lvgl\src\lv_draw/lv_draw_line.c ****         }
 113:lvgl\src\lv_draw/lv_draw_line.c ****     }
 114:lvgl\src\lv_draw/lv_draw_line.c **** }
 115:lvgl\src\lv_draw/lv_draw_line.c **** 
 116:lvgl\src\lv_draw/lv_draw_line.c **** /**********************
 117:lvgl\src\lv_draw/lv_draw_line.c ****  *   STATIC FUNCTIONS
 118:lvgl\src\lv_draw/lv_draw_line.c ****  **********************/
 119:lvgl\src\lv_draw/lv_draw_line.c **** 
 120:lvgl\src\lv_draw/lv_draw_line.c **** LV_ATTRIBUTE_FAST_MEM static void draw_line_hor(const lv_point_t * point1, const lv_point_t * point
 121:lvgl\src\lv_draw/lv_draw_line.c ****                                                 const lv_area_t * clip,
 122:lvgl\src\lv_draw/lv_draw_line.c ****                                                 const lv_draw_line_dsc_t * dsc)
 123:lvgl\src\lv_draw/lv_draw_line.c **** {
  27              		.loc 1 123 0
  28              		.cfi_startproc
  29              		@ args = 0, pretend = 0, frame = 24
  30              		@ frame_needed = 0, uses_anonymous_args = 0
  31              	.LVL0:
  32 0000 2DE9F04F 		push	{r4, r5, r6, r7, r8, r9, r10, fp, lr}
  33              		.cfi_def_cfa_offset 36
  34              		.cfi_offset 4, -36
  35              		.cfi_offset 5, -32
  36              		.cfi_offset 6, -28
  37              		.cfi_offset 7, -24
  38              		.cfi_offset 8, -20
  39              		.cfi_offset 9, -16
  40              		.cfi_offset 10, -12
  41              		.cfi_offset 11, -8
  42              		.cfi_offset 14, -4
  43 0004 8BB0     		sub	sp, sp, #44
  44              		.cfi_def_cfa_offset 80
  45 0006 8146     		mov	r9, r0
  46 0008 8A46     		mov	r10, r1
  47 000a 0492     		str	r2, [sp, #16]
  48 000c 1C46     		mov	r4, r3
ARM GAS  C:\Users\strap\AppData\Local\Temp\ccjLHvYP.s 			page 4


 124:lvgl\src\lv_draw/lv_draw_line.c ****     lv_opa_t opa = dsc->opa;
  49              		.loc 1 124 0
  50 000e 93F808B0 		ldrb	fp, [r3, #8]	@ zero_extendqisi2
  51              	.LVL1:
 125:lvgl\src\lv_draw/lv_draw_line.c **** 
 126:lvgl\src\lv_draw/lv_draw_line.c ****     lv_disp_t * disp    = _lv_refr_get_disp_refreshing();
  52              		.loc 1 126 0
  53 0012 FFF7FEFF 		bl	_lv_refr_get_disp_refreshing
  54              	.LVL2:
 127:lvgl\src\lv_draw/lv_draw_line.c ****     lv_disp_buf_t * vdb = lv_disp_get_buf(disp);
  55              		.loc 1 127 0
  56 0016 FFF7FEFF 		bl	lv_disp_get_buf
  57              	.LVL3:
  58 001a 0646     		mov	r6, r0
  59              	.LVL4:
 128:lvgl\src\lv_draw/lv_draw_line.c **** 
 129:lvgl\src\lv_draw/lv_draw_line.c ****     const lv_area_t * disp_area = &vdb->area;
 130:lvgl\src\lv_draw/lv_draw_line.c **** 
 131:lvgl\src\lv_draw/lv_draw_line.c ****     int32_t w = dsc->width - 1;
  60              		.loc 1 131 0
  61 001c B4F90250 		ldrsh	r5, [r4, #2]
  62 0020 013D     		subs	r5, r5, #1
  63              	.LVL5:
 132:lvgl\src\lv_draw/lv_draw_line.c ****     int32_t w_half0 = w >> 1;
  64              		.loc 1 132 0
  65 0022 4FEA6508 		asr	r8, r5, #1
  66              	.LVL6:
 133:lvgl\src\lv_draw/lv_draw_line.c ****     int32_t w_half1 = w_half0 + (w & 0x1); /*Compensate rounding error*/
  67              		.loc 1 133 0
  68 0026 05F00105 		and	r5, r5, #1
  69              	.LVL7:
  70 002a 4544     		add	r5, r5, r8
  71              	.LVL8:
 134:lvgl\src\lv_draw/lv_draw_line.c **** 
 135:lvgl\src\lv_draw/lv_draw_line.c ****     bool dashed = dsc->dash_gap && dsc->dash_width ? true : false;
  72              		.loc 1 135 0
  73 002c B4F90630 		ldrsh	r3, [r4, #6]
  74 0030 23B1     		cbz	r3, .L16
  75              		.loc 1 135 0 is_stmt 0 discriminator 1
  76 0032 B4F90430 		ldrsh	r3, [r4, #4]
  77 0036 1BB9     		cbnz	r3, .L17
  78              		.loc 1 135 0
  79 0038 0027     		movs	r7, #0
  80 003a 02E0     		b	.L2
  81              	.L16:
  82 003c 0027     		movs	r7, #0
  83 003e 00E0     		b	.L2
  84              	.L17:
  85 0040 0127     		movs	r7, #1
  86              	.L2:
  87              	.LVL9:
 136:lvgl\src\lv_draw/lv_draw_line.c **** 
 137:lvgl\src\lv_draw/lv_draw_line.c ****     bool simple_mode = true;
 138:lvgl\src\lv_draw/lv_draw_line.c ****     if(lv_draw_mask_get_cnt()) simple_mode = false;
  88              		.loc 1 138 0 is_stmt 1 discriminator 6
  89 0042 FFF7FEFF 		bl	lv_draw_mask_get_cnt
  90              	.LVL10:
ARM GAS  C:\Users\strap\AppData\Local\Temp\ccjLHvYP.s 			page 5


  91 0046 10B9     		cbnz	r0, .L18
 139:lvgl\src\lv_draw/lv_draw_line.c ****     else if(dashed) simple_mode = false;
  92              		.loc 1 139 0
  93 0048 1FB9     		cbnz	r7, .L19
 137:lvgl\src\lv_draw/lv_draw_line.c ****     if(lv_draw_mask_get_cnt()) simple_mode = false;
  94              		.loc 1 137 0
  95 004a 0122     		movs	r2, #1
  96 004c 02E0     		b	.L3
  97              	.L18:
 138:lvgl\src\lv_draw/lv_draw_line.c ****     else if(dashed) simple_mode = false;
  98              		.loc 1 138 0
  99 004e 0022     		movs	r2, #0
 100 0050 00E0     		b	.L3
 101              	.L19:
 102              		.loc 1 139 0
 103 0052 0022     		movs	r2, #0
 104              	.L3:
 105              	.LVL11:
 140:lvgl\src\lv_draw/lv_draw_line.c **** 
 141:lvgl\src\lv_draw/lv_draw_line.c ****     lv_area_t draw_area;
 142:lvgl\src\lv_draw/lv_draw_line.c ****     draw_area.x1 = LV_MATH_MIN(point1->x, point2->x);
 106              		.loc 1 142 0
 107 0054 BAF90010 		ldrsh	r1, [r10]
 108 0058 B9F90030 		ldrsh	r3, [r9]
 109 005c 0846     		mov	r0, r1
 110 005e 9942     		cmp	r1, r3
 111 0060 A8BF     		it	ge
 112 0062 1846     		movge	r0, r3
 113 0064 ADF82000 		strh	r0, [sp, #32]	@ movhi
 143:lvgl\src\lv_draw/lv_draw_line.c ****     draw_area.x2 = LV_MATH_MAX(point1->x, point2->x)  - 1;
 114              		.loc 1 143 0
 115 0068 8B42     		cmp	r3, r1
 116 006a B8BF     		it	lt
 117 006c 0B46     		movlt	r3, r1
 118 006e 013B     		subs	r3, r3, #1
 119 0070 ADF82430 		strh	r3, [sp, #36]	@ movhi
 144:lvgl\src\lv_draw/lv_draw_line.c ****     draw_area.y1 = point1->y - w_half1;
 120              		.loc 1 144 0
 121 0074 B9F90230 		ldrsh	r3, [r9, #2]
 122 0078 5D1B     		subs	r5, r3, r5
 123              	.LVL12:
 124 007a ADF82250 		strh	r5, [sp, #34]	@ movhi
 145:lvgl\src\lv_draw/lv_draw_line.c ****     draw_area.y2 = point1->y + w_half0;
 125              		.loc 1 145 0
 126 007e 9844     		add	r8, r8, r3
 127              	.LVL13:
 128 0080 ADF82680 		strh	r8, [sp, #38]	@ movhi
 146:lvgl\src\lv_draw/lv_draw_line.c **** 
 147:lvgl\src\lv_draw/lv_draw_line.c ****     /*If there is no mask then simply draw a rectangle*/
 148:lvgl\src\lv_draw/lv_draw_line.c ****     if(simple_mode) {
 129              		.loc 1 148 0
 130 0084 72B1     		cbz	r2, .L4
 149:lvgl\src\lv_draw/lv_draw_line.c ****         _lv_blend_fill(clip, &draw_area,
 150:lvgl\src\lv_draw/lv_draw_line.c ****                        dsc->color, NULL, LV_DRAW_MASK_RES_FULL_COVER, opa,
 151:lvgl\src\lv_draw/lv_draw_line.c ****                        dsc->blend_mode);
 131              		.loc 1 151 0
 132 0086 637A     		ldrb	r3, [r4, #9]	@ zero_extendqisi2
ARM GAS  C:\Users\strap\AppData\Local\Temp\ccjLHvYP.s 			page 6


 133 0088 03F00303 		and	r3, r3, #3
 149:lvgl\src\lv_draw/lv_draw_line.c ****         _lv_blend_fill(clip, &draw_area,
 134              		.loc 1 149 0
 135 008c 2288     		ldrh	r2, [r4]
 136              	.LVL14:
 137 008e 0293     		str	r3, [sp, #8]
 138 0090 CDF804B0 		str	fp, [sp, #4]
 139 0094 0123     		movs	r3, #1
 140 0096 0093     		str	r3, [sp]
 141 0098 0023     		movs	r3, #0
 142 009a 08A9     		add	r1, sp, #32
 143 009c 0498     		ldr	r0, [sp, #16]
 144 009e FFF7FEFF 		bl	_lv_blend_fill
 145              	.LVL15:
 146 00a2 A2E0     		b	.L1
 147              	.LVL16:
 148              	.L4:
 149              	.LBB15:
 152:lvgl\src\lv_draw/lv_draw_line.c ****     }
 153:lvgl\src\lv_draw/lv_draw_line.c ****     /*If there other mask apply it*/
 154:lvgl\src\lv_draw/lv_draw_line.c ****     else {
 155:lvgl\src\lv_draw/lv_draw_line.c ****         /* Get clipped fill area which is the real draw area.
 156:lvgl\src\lv_draw/lv_draw_line.c ****          * It is always the same or inside `fill_area` */
 157:lvgl\src\lv_draw/lv_draw_line.c ****         bool is_common;
 158:lvgl\src\lv_draw/lv_draw_line.c ****         is_common = _lv_area_intersect(&draw_area, clip, &draw_area);
 150              		.loc 1 158 0
 151 00a4 08AA     		add	r2, sp, #32
 152              	.LVL17:
 153 00a6 0499     		ldr	r1, [sp, #16]
 154 00a8 1046     		mov	r0, r2
 155 00aa FFF7FEFF 		bl	_lv_area_intersect
 156              	.LVL18:
 159:lvgl\src\lv_draw/lv_draw_line.c ****         if(!is_common) return;
 157              		.loc 1 159 0
 158 00ae 0028     		cmp	r0, #0
 159 00b0 00F09B80 		beq	.L1
 160:lvgl\src\lv_draw/lv_draw_line.c **** 
 161:lvgl\src\lv_draw/lv_draw_line.c ****         /* Now `draw_area` has absolute coordinates.
 162:lvgl\src\lv_draw/lv_draw_line.c ****          * Make it relative to `disp_area` to simplify draw to `disp_buf`*/
 163:lvgl\src\lv_draw/lv_draw_line.c ****         draw_area.x1 -= disp_area->x1;
 160              		.loc 1 163 0
 161 00b4 BDF92050 		ldrsh	r5, [sp, #32]
 162 00b8 B6F910E0 		ldrsh	lr, [r6, #16]
 163 00bc 1FFA8EF3 		uxth	r3, lr
 164 00c0 C3EB050A 		rsb	r10, r3, r5
 165              	.LVL19:
 166 00c4 1FFA8AFA 		uxth	r10, r10
 167 00c8 0FFA8AF1 		sxth	r1, r10
 168 00cc ADF82010 		strh	r1, [sp, #32]	@ movhi
 164:lvgl\src\lv_draw/lv_draw_line.c ****         draw_area.y1 -= disp_area->y1;
 169              		.loc 1 164 0
 170 00d0 BDF92220 		ldrsh	r2, [sp, #34]
 171 00d4 B6F812C0 		ldrh	ip, [r6, #18]
 172 00d8 CCEB0200 		rsb	r0, ip, r2
 173              	.LVL20:
 174 00dc ADF82200 		strh	r0, [sp, #34]	@ movhi
 165:lvgl\src\lv_draw/lv_draw_line.c ****         draw_area.x2 -= disp_area->x1;
ARM GAS  C:\Users\strap\AppData\Local\Temp\ccjLHvYP.s 			page 7


 175              		.loc 1 165 0
 176 00e0 BDF92400 		ldrsh	r0, [sp, #36]
 177 00e4 C31A     		subs	r3, r0, r3
 178 00e6 9BB2     		uxth	r3, r3
 179 00e8 ADF82430 		strh	r3, [sp, #36]	@ movhi
 166:lvgl\src\lv_draw/lv_draw_line.c ****         draw_area.y2 -= disp_area->y1;
 180              		.loc 1 166 0
 181 00ec BDF82680 		ldrh	r8, [sp, #38]
 182 00f0 CCEB080C 		rsb	ip, ip, r8
 183 00f4 ADF826C0 		strh	ip, [sp, #38]	@ movhi
 184              	.LVL21:
 185              	.LBB16:
 186              	.LBB17:
 187              		.file 2 "lvgl\\src\\lv_draw\\../lv_misc/lv_area.h"
   1:lvgl\src\lv_draw\../lv_misc/lv_area.h **** /**
   2:lvgl\src\lv_draw\../lv_misc/lv_area.h ****  * @file lv_area.h
   3:lvgl\src\lv_draw\../lv_misc/lv_area.h ****  *
   4:lvgl\src\lv_draw\../lv_misc/lv_area.h ****  */
   5:lvgl\src\lv_draw\../lv_misc/lv_area.h **** 
   6:lvgl\src\lv_draw\../lv_misc/lv_area.h **** #ifndef LV_AREA_H
   7:lvgl\src\lv_draw\../lv_misc/lv_area.h **** #define LV_AREA_H
   8:lvgl\src\lv_draw\../lv_misc/lv_area.h **** 
   9:lvgl\src\lv_draw\../lv_misc/lv_area.h **** #ifdef __cplusplus
  10:lvgl\src\lv_draw\../lv_misc/lv_area.h **** extern "C" {
  11:lvgl\src\lv_draw\../lv_misc/lv_area.h **** #endif
  12:lvgl\src\lv_draw\../lv_misc/lv_area.h **** 
  13:lvgl\src\lv_draw\../lv_misc/lv_area.h **** /*********************
  14:lvgl\src\lv_draw\../lv_misc/lv_area.h ****  *      INCLUDES
  15:lvgl\src\lv_draw\../lv_misc/lv_area.h ****  *********************/
  16:lvgl\src\lv_draw\../lv_misc/lv_area.h **** #include "../lv_conf_internal.h"
  17:lvgl\src\lv_draw\../lv_misc/lv_area.h **** #include <string.h>
  18:lvgl\src\lv_draw\../lv_misc/lv_area.h **** #include <stdbool.h>
  19:lvgl\src\lv_draw\../lv_misc/lv_area.h **** #include <stdint.h>
  20:lvgl\src\lv_draw\../lv_misc/lv_area.h **** #include "lv_mem.h"
  21:lvgl\src\lv_draw\../lv_misc/lv_area.h **** 
  22:lvgl\src\lv_draw\../lv_misc/lv_area.h **** /*********************
  23:lvgl\src\lv_draw\../lv_misc/lv_area.h ****  *      DEFINES
  24:lvgl\src\lv_draw\../lv_misc/lv_area.h ****  *********************/
  25:lvgl\src\lv_draw\../lv_misc/lv_area.h **** /*To avoid overflow don't let the max ranges (reduce with 1000) */
  26:lvgl\src\lv_draw\../lv_misc/lv_area.h **** #define LV_COORD_MAX ((lv_coord_t)((uint32_t)((uint32_t)1 << (8 * sizeof(lv_coord_t) - 1)) - 1000))
  27:lvgl\src\lv_draw\../lv_misc/lv_area.h **** #define LV_COORD_MIN (-LV_COORD_MAX)
  28:lvgl\src\lv_draw\../lv_misc/lv_area.h **** 
  29:lvgl\src\lv_draw\../lv_misc/lv_area.h **** LV_EXPORT_CONST_INT(LV_COORD_MAX);
  30:lvgl\src\lv_draw\../lv_misc/lv_area.h **** LV_EXPORT_CONST_INT(LV_COORD_MIN);
  31:lvgl\src\lv_draw\../lv_misc/lv_area.h **** 
  32:lvgl\src\lv_draw\../lv_misc/lv_area.h **** /**********************
  33:lvgl\src\lv_draw\../lv_misc/lv_area.h ****  *      TYPEDEFS
  34:lvgl\src\lv_draw\../lv_misc/lv_area.h ****  **********************/
  35:lvgl\src\lv_draw\../lv_misc/lv_area.h **** 
  36:lvgl\src\lv_draw\../lv_misc/lv_area.h **** /**
  37:lvgl\src\lv_draw\../lv_misc/lv_area.h ****  * Represents a point on the screen.
  38:lvgl\src\lv_draw\../lv_misc/lv_area.h ****  */
  39:lvgl\src\lv_draw\../lv_misc/lv_area.h **** typedef struct {
  40:lvgl\src\lv_draw\../lv_misc/lv_area.h ****     lv_coord_t x;
  41:lvgl\src\lv_draw\../lv_misc/lv_area.h ****     lv_coord_t y;
  42:lvgl\src\lv_draw\../lv_misc/lv_area.h **** } lv_point_t;
  43:lvgl\src\lv_draw\../lv_misc/lv_area.h **** 
ARM GAS  C:\Users\strap\AppData\Local\Temp\ccjLHvYP.s 			page 8


  44:lvgl\src\lv_draw\../lv_misc/lv_area.h **** /** Represents an area of the screen. */
  45:lvgl\src\lv_draw\../lv_misc/lv_area.h **** typedef struct {
  46:lvgl\src\lv_draw\../lv_misc/lv_area.h ****     lv_coord_t x1;
  47:lvgl\src\lv_draw\../lv_misc/lv_area.h ****     lv_coord_t y1;
  48:lvgl\src\lv_draw\../lv_misc/lv_area.h ****     lv_coord_t x2;
  49:lvgl\src\lv_draw\../lv_misc/lv_area.h ****     lv_coord_t y2;
  50:lvgl\src\lv_draw\../lv_misc/lv_area.h **** } lv_area_t;
  51:lvgl\src\lv_draw\../lv_misc/lv_area.h **** 
  52:lvgl\src\lv_draw\../lv_misc/lv_area.h **** 
  53:lvgl\src\lv_draw\../lv_misc/lv_area.h **** 
  54:lvgl\src\lv_draw\../lv_misc/lv_area.h **** /** Alignments */
  55:lvgl\src\lv_draw\../lv_misc/lv_area.h **** enum {
  56:lvgl\src\lv_draw\../lv_misc/lv_area.h ****     LV_ALIGN_CENTER = 0,
  57:lvgl\src\lv_draw\../lv_misc/lv_area.h ****     LV_ALIGN_IN_TOP_LEFT,
  58:lvgl\src\lv_draw\../lv_misc/lv_area.h ****     LV_ALIGN_IN_TOP_MID,
  59:lvgl\src\lv_draw\../lv_misc/lv_area.h ****     LV_ALIGN_IN_TOP_RIGHT,
  60:lvgl\src\lv_draw\../lv_misc/lv_area.h ****     LV_ALIGN_IN_BOTTOM_LEFT,
  61:lvgl\src\lv_draw\../lv_misc/lv_area.h ****     LV_ALIGN_IN_BOTTOM_MID,
  62:lvgl\src\lv_draw\../lv_misc/lv_area.h ****     LV_ALIGN_IN_BOTTOM_RIGHT,
  63:lvgl\src\lv_draw\../lv_misc/lv_area.h ****     LV_ALIGN_IN_LEFT_MID,
  64:lvgl\src\lv_draw\../lv_misc/lv_area.h ****     LV_ALIGN_IN_RIGHT_MID,
  65:lvgl\src\lv_draw\../lv_misc/lv_area.h ****     LV_ALIGN_OUT_TOP_LEFT,
  66:lvgl\src\lv_draw\../lv_misc/lv_area.h ****     LV_ALIGN_OUT_TOP_MID,
  67:lvgl\src\lv_draw\../lv_misc/lv_area.h ****     LV_ALIGN_OUT_TOP_RIGHT,
  68:lvgl\src\lv_draw\../lv_misc/lv_area.h ****     LV_ALIGN_OUT_BOTTOM_LEFT,
  69:lvgl\src\lv_draw\../lv_misc/lv_area.h ****     LV_ALIGN_OUT_BOTTOM_MID,
  70:lvgl\src\lv_draw\../lv_misc/lv_area.h ****     LV_ALIGN_OUT_BOTTOM_RIGHT,
  71:lvgl\src\lv_draw\../lv_misc/lv_area.h ****     LV_ALIGN_OUT_LEFT_TOP,
  72:lvgl\src\lv_draw\../lv_misc/lv_area.h ****     LV_ALIGN_OUT_LEFT_MID,
  73:lvgl\src\lv_draw\../lv_misc/lv_area.h ****     LV_ALIGN_OUT_LEFT_BOTTOM,
  74:lvgl\src\lv_draw\../lv_misc/lv_area.h ****     LV_ALIGN_OUT_RIGHT_TOP,
  75:lvgl\src\lv_draw\../lv_misc/lv_area.h ****     LV_ALIGN_OUT_RIGHT_MID,
  76:lvgl\src\lv_draw\../lv_misc/lv_area.h ****     LV_ALIGN_OUT_RIGHT_BOTTOM,
  77:lvgl\src\lv_draw\../lv_misc/lv_area.h **** };
  78:lvgl\src\lv_draw\../lv_misc/lv_area.h **** typedef uint8_t lv_align_t;
  79:lvgl\src\lv_draw\../lv_misc/lv_area.h **** 
  80:lvgl\src\lv_draw\../lv_misc/lv_area.h **** 
  81:lvgl\src\lv_draw\../lv_misc/lv_area.h **** /**********************
  82:lvgl\src\lv_draw\../lv_misc/lv_area.h ****  * GLOBAL PROTOTYPES
  83:lvgl\src\lv_draw\../lv_misc/lv_area.h ****  **********************/
  84:lvgl\src\lv_draw\../lv_misc/lv_area.h **** 
  85:lvgl\src\lv_draw\../lv_misc/lv_area.h **** /**
  86:lvgl\src\lv_draw\../lv_misc/lv_area.h ****  * Initialize an area
  87:lvgl\src\lv_draw\../lv_misc/lv_area.h ****  * @param area_p pointer to an area
  88:lvgl\src\lv_draw\../lv_misc/lv_area.h ****  * @param x1 left coordinate of the area
  89:lvgl\src\lv_draw\../lv_misc/lv_area.h ****  * @param y1 top coordinate of the area
  90:lvgl\src\lv_draw\../lv_misc/lv_area.h ****  * @param x2 right coordinate of the area
  91:lvgl\src\lv_draw\../lv_misc/lv_area.h ****  * @param y2 bottom coordinate of the area
  92:lvgl\src\lv_draw\../lv_misc/lv_area.h ****  */
  93:lvgl\src\lv_draw\../lv_misc/lv_area.h **** void lv_area_set(lv_area_t * area_p, lv_coord_t x1, lv_coord_t y1, lv_coord_t x2, lv_coord_t y2);
  94:lvgl\src\lv_draw\../lv_misc/lv_area.h **** 
  95:lvgl\src\lv_draw\../lv_misc/lv_area.h **** /**
  96:lvgl\src\lv_draw\../lv_misc/lv_area.h ****  * Copy an area
  97:lvgl\src\lv_draw\../lv_misc/lv_area.h ****  * @param dest pointer to the destination area
  98:lvgl\src\lv_draw\../lv_misc/lv_area.h ****  * @param src pointer to the source area
  99:lvgl\src\lv_draw\../lv_misc/lv_area.h ****  */
 100:lvgl\src\lv_draw\../lv_misc/lv_area.h **** inline static void lv_area_copy(lv_area_t * dest, const lv_area_t * src)
ARM GAS  C:\Users\strap\AppData\Local\Temp\ccjLHvYP.s 			page 9


 101:lvgl\src\lv_draw\../lv_misc/lv_area.h **** {
 102:lvgl\src\lv_draw\../lv_misc/lv_area.h ****     _lv_memcpy_small(dest, src, sizeof(lv_area_t));
 103:lvgl\src\lv_draw\../lv_misc/lv_area.h **** }
 104:lvgl\src\lv_draw\../lv_misc/lv_area.h **** 
 105:lvgl\src\lv_draw\../lv_misc/lv_area.h **** /**
 106:lvgl\src\lv_draw\../lv_misc/lv_area.h ****  * Get the width of an area
 107:lvgl\src\lv_draw\../lv_misc/lv_area.h ****  * @param area_p pointer to an area
 108:lvgl\src\lv_draw\../lv_misc/lv_area.h ****  * @return the width of the area (if x1 == x2 -> width = 1)
 109:lvgl\src\lv_draw\../lv_misc/lv_area.h ****  */
 110:lvgl\src\lv_draw\../lv_misc/lv_area.h **** static inline lv_coord_t lv_area_get_width(const lv_area_t * area_p)
 111:lvgl\src\lv_draw\../lv_misc/lv_area.h **** {
 112:lvgl\src\lv_draw\../lv_misc/lv_area.h ****     return (lv_coord_t)(area_p->x2 - area_p->x1 + 1);
 188              		.loc 2 112 0
 189 00f8 CAEB030A 		rsb	r10, r10, r3
 190 00fc 0AF1010A 		add	r10, r10, #1
 191 0100 0FFA8AFA 		sxth	r10, r10
 192              	.LVL22:
 193              	.LBE17:
 194              	.LBE16:
 167:lvgl\src\lv_draw/lv_draw_line.c **** 
 168:lvgl\src\lv_draw/lv_draw_line.c ****         int32_t draw_area_w = lv_area_get_width(&draw_area);
 195              		.loc 1 168 0
 196 0104 D146     		mov	r9, r10
 197              	.LVL23:
 169:lvgl\src\lv_draw/lv_draw_line.c **** 
 170:lvgl\src\lv_draw/lv_draw_line.c ****         lv_area_t fill_area;
 171:lvgl\src\lv_draw/lv_draw_line.c ****         fill_area.x1 = draw_area.x1 + disp_area->x1;
 198              		.loc 1 171 0
 199 0106 ADF81850 		strh	r5, [sp, #24]	@ movhi
 172:lvgl\src\lv_draw/lv_draw_line.c ****         fill_area.x2 = draw_area.x2 + disp_area->x1;
 200              		.loc 1 172 0
 201 010a ADF81C00 		strh	r0, [sp, #28]	@ movhi
 173:lvgl\src\lv_draw/lv_draw_line.c ****         fill_area.y1 = draw_area.y1 + disp_area->y1;
 202              		.loc 1 173 0
 203 010e ADF81A20 		strh	r2, [sp, #26]	@ movhi
 174:lvgl\src\lv_draw/lv_draw_line.c ****         fill_area.y2 = fill_area.y1;
 204              		.loc 1 174 0
 205 0112 ADF81E20 		strh	r2, [sp, #30]	@ movhi
 206              	.LVL24:
 175:lvgl\src\lv_draw/lv_draw_line.c **** 
 176:lvgl\src\lv_draw/lv_draw_line.c ****         lv_style_int_t dash_start = 0;
 177:lvgl\src\lv_draw/lv_draw_line.c ****         if(dashed) {
 207              		.loc 1 177 0
 208 0116 67B1     		cbz	r7, .L20
 178:lvgl\src\lv_draw/lv_draw_line.c ****             dash_start = (vdb->area.x1 + draw_area.x1) % (dsc->dash_gap + dsc->dash_width);
 209              		.loc 1 178 0
 210 0118 7144     		add	r1, r1, lr
 211 011a B4F90620 		ldrsh	r2, [r4, #6]
 212 011e B4F90430 		ldrsh	r3, [r4, #4]
 213 0122 1344     		add	r3, r3, r2
 214 0124 91FBF3FE 		sdiv	lr, r1, r3
 215 0128 03FB1E11 		mls	r1, r3, lr, r1
 216 012c 0BB2     		sxth	r3, r1
 217 012e 0593     		str	r3, [sp, #20]
 218              	.LVL25:
 219 0130 01E0     		b	.L7
 220              	.LVL26:
ARM GAS  C:\Users\strap\AppData\Local\Temp\ccjLHvYP.s 			page 10


 221              	.L20:
 176:lvgl\src\lv_draw/lv_draw_line.c ****         if(dashed) {
 222              		.loc 1 176 0
 223 0132 0023     		movs	r3, #0
 224 0134 0593     		str	r3, [sp, #20]
 225              	.LVL27:
 226              	.L7:
 179:lvgl\src\lv_draw/lv_draw_line.c ****         }
 180:lvgl\src\lv_draw/lv_draw_line.c **** 
 181:lvgl\src\lv_draw/lv_draw_line.c ****         lv_opa_t * mask_buf = _lv_mem_buf_get(draw_area_w);
 227              		.loc 1 181 0
 228 0136 D346     		mov	fp, r10
 229              	.LVL28:
 230 0138 5046     		mov	r0, r10
 231 013a FFF7FEFF 		bl	_lv_mem_buf_get
 232              	.LVL29:
 233 013e 8046     		mov	r8, r0
 234              	.LVL30:
 182:lvgl\src\lv_draw/lv_draw_line.c ****         int32_t h;
 183:lvgl\src\lv_draw/lv_draw_line.c ****         for(h = draw_area.y1; h <= draw_area.y2; h++) {
 235              		.loc 1 183 0
 236 0140 BDF92250 		ldrsh	r5, [sp, #34]
 237              	.LVL31:
 238 0144 4AE0     		b	.L8
 239              	.LVL32:
 240              	.L14:
 241              	.LBB18:
 184:lvgl\src\lv_draw/lv_draw_line.c ****             _lv_memset_ff(mask_buf, draw_area_w);
 242              		.loc 1 184 0
 243 0146 5946     		mov	r1, fp
 244 0148 4046     		mov	r0, r8
 245 014a FFF7FEFF 		bl	_lv_memset_ff
 246              	.LVL33:
 185:lvgl\src\lv_draw/lv_draw_line.c ****             lv_draw_mask_res_t mask_res = lv_draw_mask_apply(mask_buf, vdb->area.x1 + draw_area.x1,
 247              		.loc 1 185 0
 248 014e B6F91010 		ldrsh	r1, [r6, #16]
 249 0152 BDF92030 		ldrsh	r3, [sp, #32]
 250 0156 1944     		add	r1, r1, r3
 251 0158 B6F91220 		ldrsh	r2, [r6, #18]
 252 015c 2A44     		add	r2, r2, r5
 253 015e 5346     		mov	r3, r10
 254 0160 12B2     		sxth	r2, r2
 255 0162 09B2     		sxth	r1, r1
 256 0164 4046     		mov	r0, r8
 257 0166 FFF7FEFF 		bl	lv_draw_mask_apply
 258              	.LVL34:
 186:lvgl\src\lv_draw/lv_draw_line.c **** 
 187:lvgl\src\lv_draw/lv_draw_line.c ****             if(dashed) {
 259              		.loc 1 187 0
 260 016a FFB1     		cbz	r7, .L9
 188:lvgl\src\lv_draw/lv_draw_line.c ****                 if(mask_res != LV_DRAW_MASK_RES_TRANSP) {
 261              		.loc 1 188 0
 262 016c C8B9     		cbnz	r0, .L21
 263 016e 1DE0     		b	.L9
 264              	.LVL35:
 265              	.L13:
 266              	.LBB19:
ARM GAS  C:\Users\strap\AppData\Local\Temp\ccjLHvYP.s 			page 11


 189:lvgl\src\lv_draw/lv_draw_line.c ****                     lv_style_int_t dash_cnt = dash_start;
 190:lvgl\src\lv_draw/lv_draw_line.c ****                     lv_coord_t i;
 191:lvgl\src\lv_draw/lv_draw_line.c ****                     for(i = 0; i < draw_area_w; i++, dash_cnt++) {
 192:lvgl\src\lv_draw/lv_draw_line.c ****                         if(dash_cnt <= dsc->dash_width) {
 267              		.loc 1 192 0
 268 0170 B4F90430 		ldrsh	r3, [r4, #4]
 269 0174 9A42     		cmp	r2, r3
 270 0176 04DC     		bgt	.L11
 271              	.LBB20:
 193:lvgl\src\lv_draw/lv_draw_line.c ****                             int16_t diff = dsc->dash_width - dash_cnt;
 272              		.loc 1 193 0
 273 0178 9A1A     		subs	r2, r3, r2
 274              	.LVL36:
 275 017a 92B2     		uxth	r2, r2
 276              	.LVL37:
 194:lvgl\src\lv_draw/lv_draw_line.c ****                             i += diff;
 277              		.loc 1 194 0
 278 017c 1044     		add	r0, r0, r2
 279              	.LVL38:
 280 017e 00B2     		sxth	r0, r0
 281              	.LVL39:
 282              	.LBE20:
 283 0180 0AE0     		b	.L12
 284              	.LVL40:
 285              	.L11:
 195:lvgl\src\lv_draw/lv_draw_line.c ****                             dash_cnt += diff;
 196:lvgl\src\lv_draw/lv_draw_line.c ****                         }
 197:lvgl\src\lv_draw/lv_draw_line.c ****                         else if(dash_cnt >= dsc->dash_gap + dsc->dash_width) {
 286              		.loc 1 197 0
 287 0182 B4F90610 		ldrsh	r1, [r4, #6]
 288 0186 0B44     		add	r3, r3, r1
 289 0188 9A42     		cmp	r2, r3
 290 018a 04DA     		bge	.L22
 198:lvgl\src\lv_draw/lv_draw_line.c ****                             dash_cnt = 0;
 199:lvgl\src\lv_draw/lv_draw_line.c ****                         }
 200:lvgl\src\lv_draw/lv_draw_line.c ****                         else {
 201:lvgl\src\lv_draw/lv_draw_line.c ****                             mask_buf[i] = 0x00;
 291              		.loc 1 201 0
 292 018c 0023     		movs	r3, #0
 293 018e 08F80030 		strb	r3, [r8, r0]
 294 0192 1346     		mov	r3, r2
 295 0194 00E0     		b	.L12
 296              	.L22:
 198:lvgl\src\lv_draw/lv_draw_line.c ****                             dash_cnt = 0;
 297              		.loc 1 198 0
 298 0196 0023     		movs	r3, #0
 299              	.LVL41:
 300              	.L12:
 191:lvgl\src\lv_draw/lv_draw_line.c ****                         if(dash_cnt <= dsc->dash_width) {
 301              		.loc 1 191 0 discriminator 2
 302 0198 0130     		adds	r0, r0, #1
 303              	.LVL42:
 304 019a 00B2     		sxth	r0, r0
 305              	.LVL43:
 306 019c 0133     		adds	r3, r3, #1
 307              	.LVL44:
 308 019e 1AB2     		sxth	r2, r3
ARM GAS  C:\Users\strap\AppData\Local\Temp\ccjLHvYP.s 			page 12


 309              	.LVL45:
 310 01a0 01E0     		b	.L10
 311              	.LVL46:
 312              	.L21:
 313              	.LBE19:
 314 01a2 059A     		ldr	r2, [sp, #20]
 315 01a4 0020     		movs	r0, #0
 316              	.LVL47:
 317              	.L10:
 318              	.LBB21:
 191:lvgl\src\lv_draw/lv_draw_line.c ****                         if(dash_cnt <= dsc->dash_width) {
 319              		.loc 1 191 0 is_stmt 0 discriminator 1
 320 01a6 8145     		cmp	r9, r0
 321 01a8 E2DC     		bgt	.L13
 202:lvgl\src\lv_draw/lv_draw_line.c ****                         }
 203:lvgl\src\lv_draw/lv_draw_line.c ****                     }
 204:lvgl\src\lv_draw/lv_draw_line.c **** 
 205:lvgl\src\lv_draw/lv_draw_line.c ****                     mask_res = LV_DRAW_MASK_RES_CHANGED;
 322              		.loc 1 205 0 is_stmt 1
 323 01aa 0220     		movs	r0, #2
 324              	.LVL48:
 325              	.L9:
 326              	.LBE21:
 206:lvgl\src\lv_draw/lv_draw_line.c ****                 }
 207:lvgl\src\lv_draw/lv_draw_line.c ****             }
 208:lvgl\src\lv_draw/lv_draw_line.c **** 
 209:lvgl\src\lv_draw/lv_draw_line.c ****             _lv_blend_fill(clip, &fill_area,
 210:lvgl\src\lv_draw/lv_draw_line.c ****                            dsc->color, mask_buf, mask_res, dsc->opa,
 211:lvgl\src\lv_draw/lv_draw_line.c ****                            dsc->blend_mode);
 327              		.loc 1 211 0 discriminator 2
 328 01ac 637A     		ldrb	r3, [r4, #9]	@ zero_extendqisi2
 329 01ae 03F00303 		and	r3, r3, #3
 209:lvgl\src\lv_draw/lv_draw_line.c ****                            dsc->color, mask_buf, mask_res, dsc->opa,
 330              		.loc 1 209 0 discriminator 2
 331 01b2 0293     		str	r3, [sp, #8]
 332 01b4 237A     		ldrb	r3, [r4, #8]	@ zero_extendqisi2
 333 01b6 0193     		str	r3, [sp, #4]
 334 01b8 0090     		str	r0, [sp]
 335 01ba 4346     		mov	r3, r8
 336 01bc 2288     		ldrh	r2, [r4]
 337 01be 06A9     		add	r1, sp, #24
 338 01c0 0498     		ldr	r0, [sp, #16]
 339              	.LVL49:
 340 01c2 FFF7FEFF 		bl	_lv_blend_fill
 341              	.LVL50:
 212:lvgl\src\lv_draw/lv_draw_line.c **** 
 213:lvgl\src\lv_draw/lv_draw_line.c ****             fill_area.y1++;
 342              		.loc 1 213 0 discriminator 2
 343 01c6 BDF91A30 		ldrsh	r3, [sp, #26]
 344 01ca 0133     		adds	r3, r3, #1
 345 01cc ADF81A30 		strh	r3, [sp, #26]	@ movhi
 214:lvgl\src\lv_draw/lv_draw_line.c ****             fill_area.y2++;
 346              		.loc 1 214 0 discriminator 2
 347 01d0 BDF91E30 		ldrsh	r3, [sp, #30]
 348 01d4 0133     		adds	r3, r3, #1
 349 01d6 ADF81E30 		strh	r3, [sp, #30]	@ movhi
 350              	.LBE18:
ARM GAS  C:\Users\strap\AppData\Local\Temp\ccjLHvYP.s 			page 13


 183:lvgl\src\lv_draw/lv_draw_line.c ****             _lv_memset_ff(mask_buf, draw_area_w);
 351              		.loc 1 183 0 discriminator 2
 352 01da 0135     		adds	r5, r5, #1
 353              	.LVL51:
 354              	.L8:
 183:lvgl\src\lv_draw/lv_draw_line.c ****             _lv_memset_ff(mask_buf, draw_area_w);
 355              		.loc 1 183 0 is_stmt 0 discriminator 1
 356 01dc BDF92630 		ldrsh	r3, [sp, #38]
 357 01e0 9D42     		cmp	r5, r3
 358 01e2 B0DD     		ble	.L14
 215:lvgl\src\lv_draw/lv_draw_line.c ****         }
 216:lvgl\src\lv_draw/lv_draw_line.c ****         _lv_mem_buf_release(mask_buf);
 359              		.loc 1 216 0 is_stmt 1
 360 01e4 4046     		mov	r0, r8
 361 01e6 FFF7FEFF 		bl	_lv_mem_buf_release
 362              	.LVL52:
 363              	.L1:
 364              	.LBE15:
 217:lvgl\src\lv_draw/lv_draw_line.c ****     }
 218:lvgl\src\lv_draw/lv_draw_line.c **** }
 365              		.loc 1 218 0
 366 01ea 0BB0     		add	sp, sp, #44
 367              		.cfi_def_cfa_offset 36
 368              		@ sp needed
 369 01ec BDE8F08F 		pop	{r4, r5, r6, r7, r8, r9, r10, fp, pc}
 370              		.cfi_endproc
 371              	.LFE331:
 372              		.size	draw_line_hor, .-draw_line_hor
 373              		.section	.text.draw_line_ver,"ax",%progbits
 374              		.align	2
 375              		.thumb
 376              		.thumb_func
 377              		.type	draw_line_ver, %function
 378              	draw_line_ver:
 379              	.LFB332:
 219:lvgl\src\lv_draw/lv_draw_line.c **** 
 220:lvgl\src\lv_draw/lv_draw_line.c **** 
 221:lvgl\src\lv_draw/lv_draw_line.c **** LV_ATTRIBUTE_FAST_MEM static void draw_line_ver(const lv_point_t * point1, const lv_point_t * point
 222:lvgl\src\lv_draw/lv_draw_line.c ****                                                 const lv_area_t * clip,
 223:lvgl\src\lv_draw/lv_draw_line.c ****                                                 const lv_draw_line_dsc_t * dsc)
 224:lvgl\src\lv_draw/lv_draw_line.c **** {
 380              		.loc 1 224 0
 381              		.cfi_startproc
 382              		@ args = 0, pretend = 0, frame = 24
 383              		@ frame_needed = 0, uses_anonymous_args = 0
 384              	.LVL53:
 385 0000 2DE9F04F 		push	{r4, r5, r6, r7, r8, r9, r10, fp, lr}
 386              		.cfi_def_cfa_offset 36
 387              		.cfi_offset 4, -36
 388              		.cfi_offset 5, -32
 389              		.cfi_offset 6, -28
 390              		.cfi_offset 7, -24
 391              		.cfi_offset 8, -20
 392              		.cfi_offset 9, -16
 393              		.cfi_offset 10, -12
 394              		.cfi_offset 11, -8
 395              		.cfi_offset 14, -4
ARM GAS  C:\Users\strap\AppData\Local\Temp\ccjLHvYP.s 			page 14


 396 0004 8BB0     		sub	sp, sp, #44
 397              		.cfi_def_cfa_offset 80
 398 0006 8146     		mov	r9, r0
 399 0008 8A46     		mov	r10, r1
 400 000a 0592     		str	r2, [sp, #20]
 401 000c 1D46     		mov	r5, r3
 225:lvgl\src\lv_draw/lv_draw_line.c ****     lv_opa_t opa = dsc->opa;
 402              		.loc 1 225 0
 403 000e 93F808B0 		ldrb	fp, [r3, #8]	@ zero_extendqisi2
 404              	.LVL54:
 226:lvgl\src\lv_draw/lv_draw_line.c **** 
 227:lvgl\src\lv_draw/lv_draw_line.c ****     lv_disp_t * disp    = _lv_refr_get_disp_refreshing();
 405              		.loc 1 227 0
 406 0012 FFF7FEFF 		bl	_lv_refr_get_disp_refreshing
 407              	.LVL55:
 228:lvgl\src\lv_draw/lv_draw_line.c ****     lv_disp_buf_t * vdb = lv_disp_get_buf(disp);
 408              		.loc 1 228 0
 409 0016 FFF7FEFF 		bl	lv_disp_get_buf
 410              	.LVL56:
 411 001a 0746     		mov	r7, r0
 412              	.LVL57:
 229:lvgl\src\lv_draw/lv_draw_line.c **** 
 230:lvgl\src\lv_draw/lv_draw_line.c ****     const lv_area_t * disp_area = &vdb->area;
 231:lvgl\src\lv_draw/lv_draw_line.c **** 
 232:lvgl\src\lv_draw/lv_draw_line.c ****     int32_t w = dsc->width - 1;
 413              		.loc 1 232 0
 414 001c B5F90240 		ldrsh	r4, [r5, #2]
 415 0020 013C     		subs	r4, r4, #1
 416              	.LVL58:
 233:lvgl\src\lv_draw/lv_draw_line.c ****     int32_t w_half0 = w >> 1;
 417              		.loc 1 233 0
 418 0022 4FEA6408 		asr	r8, r4, #1
 419              	.LVL59:
 234:lvgl\src\lv_draw/lv_draw_line.c ****     int32_t w_half1 = w_half0 + (w & 0x1); /*Compensate rounding error*/
 420              		.loc 1 234 0
 421 0026 04F00104 		and	r4, r4, #1
 422              	.LVL60:
 423 002a 4444     		add	r4, r4, r8
 424              	.LVL61:
 235:lvgl\src\lv_draw/lv_draw_line.c **** 
 236:lvgl\src\lv_draw/lv_draw_line.c ****     bool dashed = dsc->dash_gap && dsc->dash_width ? true : false;
 425              		.loc 1 236 0
 426 002c B5F90630 		ldrsh	r3, [r5, #6]
 427 0030 23B1     		cbz	r3, .L37
 428              		.loc 1 236 0 is_stmt 0 discriminator 1
 429 0032 B5F90430 		ldrsh	r3, [r5, #4]
 430 0036 1BB9     		cbnz	r3, .L38
 431              		.loc 1 236 0
 432 0038 0026     		movs	r6, #0
 433 003a 02E0     		b	.L25
 434              	.L37:
 435 003c 0026     		movs	r6, #0
 436 003e 00E0     		b	.L25
 437              	.L38:
 438 0040 0126     		movs	r6, #1
 439              	.L25:
 440              	.LVL62:
ARM GAS  C:\Users\strap\AppData\Local\Temp\ccjLHvYP.s 			page 15


 237:lvgl\src\lv_draw/lv_draw_line.c **** 
 238:lvgl\src\lv_draw/lv_draw_line.c ****     bool simple_mode = true;
 239:lvgl\src\lv_draw/lv_draw_line.c ****     if(lv_draw_mask_get_cnt()) simple_mode = false;
 441              		.loc 1 239 0 is_stmt 1 discriminator 6
 442 0042 FFF7FEFF 		bl	lv_draw_mask_get_cnt
 443              	.LVL63:
 444 0046 10B9     		cbnz	r0, .L39
 240:lvgl\src\lv_draw/lv_draw_line.c ****     else if(dashed) simple_mode = false;
 445              		.loc 1 240 0
 446 0048 1EB9     		cbnz	r6, .L40
 238:lvgl\src\lv_draw/lv_draw_line.c ****     if(lv_draw_mask_get_cnt()) simple_mode = false;
 447              		.loc 1 238 0
 448 004a 0122     		movs	r2, #1
 449 004c 02E0     		b	.L26
 450              	.L39:
 239:lvgl\src\lv_draw/lv_draw_line.c ****     else if(dashed) simple_mode = false;
 451              		.loc 1 239 0
 452 004e 0022     		movs	r2, #0
 453 0050 00E0     		b	.L26
 454              	.L40:
 455              		.loc 1 240 0
 456 0052 0022     		movs	r2, #0
 457              	.L26:
 458              	.LVL64:
 241:lvgl\src\lv_draw/lv_draw_line.c **** 
 242:lvgl\src\lv_draw/lv_draw_line.c ****     lv_area_t draw_area;
 243:lvgl\src\lv_draw/lv_draw_line.c ****     draw_area.x1 = point1->x - w_half1;
 459              		.loc 1 243 0
 460 0054 B9F90030 		ldrsh	r3, [r9]
 461 0058 1C1B     		subs	r4, r3, r4
 462              	.LVL65:
 463 005a ADF82040 		strh	r4, [sp, #32]	@ movhi
 244:lvgl\src\lv_draw/lv_draw_line.c ****     draw_area.x2 = point1->x + w_half0;
 464              		.loc 1 244 0
 465 005e 9844     		add	r8, r8, r3
 466              	.LVL66:
 467 0060 ADF82480 		strh	r8, [sp, #36]	@ movhi
 245:lvgl\src\lv_draw/lv_draw_line.c ****     draw_area.y1 = LV_MATH_MIN(point1->y, point2->y);
 468              		.loc 1 245 0
 469 0064 BAF90210 		ldrsh	r1, [r10, #2]
 470 0068 B9F90230 		ldrsh	r3, [r9, #2]
 471 006c 0846     		mov	r0, r1
 472 006e 9942     		cmp	r1, r3
 473 0070 A8BF     		it	ge
 474 0072 1846     		movge	r0, r3
 475 0074 ADF82200 		strh	r0, [sp, #34]	@ movhi
 246:lvgl\src\lv_draw/lv_draw_line.c ****     draw_area.y2 = LV_MATH_MAX(point1->y, point2->y) - 1;
 476              		.loc 1 246 0
 477 0078 8B42     		cmp	r3, r1
 478 007a B8BF     		it	lt
 479 007c 0B46     		movlt	r3, r1
 480 007e 013B     		subs	r3, r3, #1
 481 0080 ADF82630 		strh	r3, [sp, #38]	@ movhi
 247:lvgl\src\lv_draw/lv_draw_line.c **** 
 248:lvgl\src\lv_draw/lv_draw_line.c ****     /*If there is no mask then simply draw a rectangle*/
 249:lvgl\src\lv_draw/lv_draw_line.c ****     if(simple_mode) {
 482              		.loc 1 249 0
ARM GAS  C:\Users\strap\AppData\Local\Temp\ccjLHvYP.s 			page 16


 483 0084 72B1     		cbz	r2, .L27
 250:lvgl\src\lv_draw/lv_draw_line.c ****         _lv_blend_fill(clip, &draw_area,
 251:lvgl\src\lv_draw/lv_draw_line.c ****                        dsc->color,  NULL, LV_DRAW_MASK_RES_FULL_COVER, opa,
 252:lvgl\src\lv_draw/lv_draw_line.c ****                        dsc->blend_mode);
 484              		.loc 1 252 0
 485 0086 6B7A     		ldrb	r3, [r5, #9]	@ zero_extendqisi2
 486 0088 03F00303 		and	r3, r3, #3
 250:lvgl\src\lv_draw/lv_draw_line.c ****         _lv_blend_fill(clip, &draw_area,
 487              		.loc 1 250 0
 488 008c 2A88     		ldrh	r2, [r5]
 489              	.LVL67:
 490 008e 0293     		str	r3, [sp, #8]
 491 0090 CDF804B0 		str	fp, [sp, #4]
 492 0094 0123     		movs	r3, #1
 493 0096 0093     		str	r3, [sp]
 494 0098 0023     		movs	r3, #0
 495 009a 08A9     		add	r1, sp, #32
 496 009c 0598     		ldr	r0, [sp, #20]
 497 009e FFF7FEFF 		bl	_lv_blend_fill
 498              	.LVL68:
 499 00a2 8FE0     		b	.L24
 500              	.LVL69:
 501              	.L27:
 502              	.LBB22:
 253:lvgl\src\lv_draw/lv_draw_line.c ****     }
 254:lvgl\src\lv_draw/lv_draw_line.c ****     /*If there other mask apply it*/
 255:lvgl\src\lv_draw/lv_draw_line.c ****     else {
 256:lvgl\src\lv_draw/lv_draw_line.c ****         /* Get clipped fill area which is the real draw area.
 257:lvgl\src\lv_draw/lv_draw_line.c ****          * It is always the same or inside `fill_area` */
 258:lvgl\src\lv_draw/lv_draw_line.c ****         bool is_common;
 259:lvgl\src\lv_draw/lv_draw_line.c ****         is_common = _lv_area_intersect(&draw_area, clip, &draw_area);
 503              		.loc 1 259 0
 504 00a4 08AA     		add	r2, sp, #32
 505              	.LVL70:
 506 00a6 0599     		ldr	r1, [sp, #20]
 507 00a8 1046     		mov	r0, r2
 508 00aa FFF7FEFF 		bl	_lv_area_intersect
 509              	.LVL71:
 260:lvgl\src\lv_draw/lv_draw_line.c ****         if(!is_common) return;
 510              		.loc 1 260 0
 511 00ae 0028     		cmp	r0, #0
 512 00b0 00F08880 		beq	.L24
 261:lvgl\src\lv_draw/lv_draw_line.c **** 
 262:lvgl\src\lv_draw/lv_draw_line.c ****         /* Now `draw_area` has absolute coordinates.
 263:lvgl\src\lv_draw/lv_draw_line.c ****          * Make it relative to `disp_area` to simplify draw to `disp_buf`*/
 264:lvgl\src\lv_draw/lv_draw_line.c ****         draw_area.x1 -= vdb->area.x1;
 513              		.loc 1 264 0
 514 00b4 BDF92040 		ldrsh	r4, [sp, #32]
 515 00b8 3A8A     		ldrh	r2, [r7, #16]
 516 00ba C2EB040A 		rsb	r10, r2, r4
 517              	.LVL72:
 518 00be 1FFA8AFA 		uxth	r10, r10
 519 00c2 ADF820A0 		strh	r10, [sp, #32]	@ movhi
 265:lvgl\src\lv_draw/lv_draw_line.c ****         draw_area.y1 -= vdb->area.y1;
 520              		.loc 1 265 0
 521 00c6 BDF92210 		ldrsh	r1, [sp, #34]
 522 00ca B7F812E0 		ldrh	lr, [r7, #18]
ARM GAS  C:\Users\strap\AppData\Local\Temp\ccjLHvYP.s 			page 17


 523 00ce CEEB0103 		rsb	r3, lr, r1
 524 00d2 ADF82230 		strh	r3, [sp, #34]	@ movhi
 266:lvgl\src\lv_draw/lv_draw_line.c ****         draw_area.x2 -= vdb->area.x1;
 525              		.loc 1 266 0
 526 00d6 BDF92400 		ldrsh	r0, [sp, #36]
 527              	.LVL73:
 528 00da 821A     		subs	r2, r0, r2
 529 00dc 93B2     		uxth	r3, r2
 530 00de ADF82430 		strh	r3, [sp, #36]	@ movhi
 267:lvgl\src\lv_draw/lv_draw_line.c ****         draw_area.y2 -= vdb->area.y1;
 531              		.loc 1 267 0
 532 00e2 BDF82620 		ldrh	r2, [sp, #38]
 533 00e6 CEEB0202 		rsb	r2, lr, r2
 534 00ea ADF82620 		strh	r2, [sp, #38]	@ movhi
 535              	.LVL74:
 536              	.LBB23:
 537              	.LBB24:
 538              		.loc 2 112 0
 539 00ee CAEB030A 		rsb	r10, r10, r3
 540 00f2 0AF1010A 		add	r10, r10, #1
 541 00f6 0FFA8AFA 		sxth	r10, r10
 542              	.LVL75:
 543              	.LBE24:
 544              	.LBE23:
 268:lvgl\src\lv_draw/lv_draw_line.c **** 
 269:lvgl\src\lv_draw/lv_draw_line.c ****         int32_t draw_area_w = lv_area_get_width(&draw_area);
 270:lvgl\src\lv_draw/lv_draw_line.c **** 
 271:lvgl\src\lv_draw/lv_draw_line.c ****         lv_area_t fill_area;
 272:lvgl\src\lv_draw/lv_draw_line.c ****         fill_area.x1 = draw_area.x1 + disp_area->x1;
 545              		.loc 1 272 0
 546 00fa ADF81840 		strh	r4, [sp, #24]	@ movhi
 273:lvgl\src\lv_draw/lv_draw_line.c ****         fill_area.x2 = draw_area.x2 + disp_area->x1;
 547              		.loc 1 273 0
 548 00fe ADF81C00 		strh	r0, [sp, #28]	@ movhi
 274:lvgl\src\lv_draw/lv_draw_line.c ****         fill_area.y1 = draw_area.y1 + disp_area->y1;
 549              		.loc 1 274 0
 550 0102 ADF81A10 		strh	r1, [sp, #26]	@ movhi
 275:lvgl\src\lv_draw/lv_draw_line.c ****         fill_area.y2 = fill_area.y1;
 551              		.loc 1 275 0
 552 0106 ADF81E10 		strh	r1, [sp, #30]	@ movhi
 276:lvgl\src\lv_draw/lv_draw_line.c **** 
 277:lvgl\src\lv_draw/lv_draw_line.c ****         lv_opa_t * mask_buf = _lv_mem_buf_get(draw_area_w);
 553              		.loc 1 277 0
 554 010a D346     		mov	fp, r10
 555              	.LVL76:
 556 010c 5046     		mov	r0, r10
 557 010e FFF7FEFF 		bl	_lv_mem_buf_get
 558              	.LVL77:
 559 0112 8046     		mov	r8, r0
 560              	.LVL78:
 278:lvgl\src\lv_draw/lv_draw_line.c **** 
 279:lvgl\src\lv_draw/lv_draw_line.c ****         lv_style_int_t dash_start = 0;
 280:lvgl\src\lv_draw/lv_draw_line.c ****         if(dashed) {
 561              		.loc 1 280 0
 562 0114 86B1     		cbz	r6, .L41
 281:lvgl\src\lv_draw/lv_draw_line.c ****             dash_start = (vdb->area.y1 + draw_area.y1) % (dsc->dash_gap + dsc->dash_width);
 563              		.loc 1 281 0
ARM GAS  C:\Users\strap\AppData\Local\Temp\ccjLHvYP.s 			page 18


 564 0116 B7F91210 		ldrsh	r1, [r7, #18]
 565 011a BDF92230 		ldrsh	r3, [sp, #34]
 566 011e 1944     		add	r1, r1, r3
 567 0120 B5F90630 		ldrsh	r3, [r5, #6]
 568 0124 B5F90420 		ldrsh	r2, [r5, #4]
 569 0128 1344     		add	r3, r3, r2
 570 012a 91FBF3F9 		sdiv	r9, r1, r3
 571              	.LVL79:
 572 012e 03FB1919 		mls	r9, r3, r9, r1
 573 0132 0FFA89F9 		sxth	r9, r9
 574              	.LVL80:
 575 0136 01E0     		b	.L30
 576              	.LVL81:
 577              	.L41:
 279:lvgl\src\lv_draw/lv_draw_line.c ****         if(dashed) {
 578              		.loc 1 279 0
 579 0138 4FF00009 		mov	r9, #0
 580              	.LVL82:
 581              	.L30:
 282:lvgl\src\lv_draw/lv_draw_line.c ****         }
 283:lvgl\src\lv_draw/lv_draw_line.c **** 
 284:lvgl\src\lv_draw/lv_draw_line.c ****         lv_style_int_t dash_cnt = dash_start;
 285:lvgl\src\lv_draw/lv_draw_line.c **** 
 286:lvgl\src\lv_draw/lv_draw_line.c ****         int32_t h;
 287:lvgl\src\lv_draw/lv_draw_line.c ****         for(h = draw_area.y1; h <= draw_area.y2; h++) {
 582              		.loc 1 287 0
 583 013c BDF92240 		ldrsh	r4, [sp, #34]
 584              	.LVL83:
 585 0140 39E0     		b	.L31
 586              	.LVL84:
 587              	.L35:
 588              	.LBB25:
 288:lvgl\src\lv_draw/lv_draw_line.c ****             _lv_memset_ff(mask_buf, draw_area_w);
 589              		.loc 1 288 0
 590 0142 5946     		mov	r1, fp
 591 0144 4046     		mov	r0, r8
 592 0146 FFF7FEFF 		bl	_lv_memset_ff
 593              	.LVL85:
 289:lvgl\src\lv_draw/lv_draw_line.c ****             lv_draw_mask_res_t mask_res = lv_draw_mask_apply(mask_buf, vdb->area.x1 + draw_area.x1,
 594              		.loc 1 289 0
 595 014a B7F91010 		ldrsh	r1, [r7, #16]
 596 014e BDF92030 		ldrsh	r3, [sp, #32]
 597 0152 1944     		add	r1, r1, r3
 598 0154 B7F91220 		ldrsh	r2, [r7, #18]
 599 0158 2244     		add	r2, r2, r4
 600 015a 5346     		mov	r3, r10
 601 015c 12B2     		sxth	r2, r2
 602 015e 09B2     		sxth	r1, r1
 603 0160 4046     		mov	r0, r8
 604 0162 FFF7FEFF 		bl	lv_draw_mask_apply
 605              	.LVL86:
 290:lvgl\src\lv_draw/lv_draw_line.c **** 
 291:lvgl\src\lv_draw/lv_draw_line.c ****             if(dashed) {
 606              		.loc 1 291 0
 607 0166 86B1     		cbz	r6, .L32
 292:lvgl\src\lv_draw/lv_draw_line.c ****                 if(mask_res != LV_DRAW_MASK_RES_TRANSP) {
 608              		.loc 1 292 0
ARM GAS  C:\Users\strap\AppData\Local\Temp\ccjLHvYP.s 			page 19


 609 0168 58B1     		cbz	r0, .L33
 293:lvgl\src\lv_draw/lv_draw_line.c ****                     if(dash_cnt > dsc->dash_width) {
 610              		.loc 1 293 0
 611 016a B5F90430 		ldrsh	r3, [r5, #4]
 612 016e 9945     		cmp	r9, r3
 613 0170 00DD     		ble	.L34
 294:lvgl\src\lv_draw/lv_draw_line.c ****                         mask_res = LV_DRAW_MASK_RES_TRANSP;
 614              		.loc 1 294 0
 615 0172 0020     		movs	r0, #0
 616              	.LVL87:
 617              	.L34:
 295:lvgl\src\lv_draw/lv_draw_line.c ****                     }
 296:lvgl\src\lv_draw/lv_draw_line.c **** 
 297:lvgl\src\lv_draw/lv_draw_line.c ****                     if(dash_cnt >= dsc->dash_gap + dsc->dash_width) {
 618              		.loc 1 297 0
 619 0174 B5F90620 		ldrsh	r2, [r5, #6]
 620 0178 1344     		add	r3, r3, r2
 621 017a 9945     		cmp	r9, r3
 622 017c 01DB     		blt	.L33
 298:lvgl\src\lv_draw/lv_draw_line.c ****                         dash_cnt = 0;
 623              		.loc 1 298 0
 624 017e 4FF00009 		mov	r9, #0
 625              	.LVL88:
 626              	.L33:
 299:lvgl\src\lv_draw/lv_draw_line.c ****                     }
 300:lvgl\src\lv_draw/lv_draw_line.c ****                 }
 301:lvgl\src\lv_draw/lv_draw_line.c ****                 dash_cnt ++;
 627              		.loc 1 301 0
 628 0182 09F10109 		add	r9, r9, #1
 629              	.LVL89:
 630 0186 0FFA89F9 		sxth	r9, r9
 631              	.LVL90:
 632              	.L32:
 302:lvgl\src\lv_draw/lv_draw_line.c ****             }
 303:lvgl\src\lv_draw/lv_draw_line.c **** 
 304:lvgl\src\lv_draw/lv_draw_line.c ****             _lv_blend_fill(clip, &fill_area,
 633              		.loc 1 304 0 discriminator 2
 634 018a 0023     		movs	r3, #0
 635 018c 0293     		str	r3, [sp, #8]
 636 018e 2B7A     		ldrb	r3, [r5, #8]	@ zero_extendqisi2
 637 0190 0193     		str	r3, [sp, #4]
 638 0192 0090     		str	r0, [sp]
 639 0194 4346     		mov	r3, r8
 640 0196 2A88     		ldrh	r2, [r5]
 641 0198 06A9     		add	r1, sp, #24
 642 019a 0598     		ldr	r0, [sp, #20]
 643              	.LVL91:
 644 019c FFF7FEFF 		bl	_lv_blend_fill
 645              	.LVL92:
 305:lvgl\src\lv_draw/lv_draw_line.c ****                            dsc->color, mask_buf, mask_res, dsc->opa,
 306:lvgl\src\lv_draw/lv_draw_line.c ****                            LV_BLEND_MODE_NORMAL);
 307:lvgl\src\lv_draw/lv_draw_line.c **** 
 308:lvgl\src\lv_draw/lv_draw_line.c ****             fill_area.y1++;
 646              		.loc 1 308 0 discriminator 2
 647 01a0 BDF91A30 		ldrsh	r3, [sp, #26]
 648 01a4 0133     		adds	r3, r3, #1
 649 01a6 ADF81A30 		strh	r3, [sp, #26]	@ movhi
ARM GAS  C:\Users\strap\AppData\Local\Temp\ccjLHvYP.s 			page 20


 309:lvgl\src\lv_draw/lv_draw_line.c ****             fill_area.y2++;
 650              		.loc 1 309 0 discriminator 2
 651 01aa BDF91E30 		ldrsh	r3, [sp, #30]
 652 01ae 0133     		adds	r3, r3, #1
 653 01b0 ADF81E30 		strh	r3, [sp, #30]	@ movhi
 654              	.LBE25:
 287:lvgl\src\lv_draw/lv_draw_line.c ****             _lv_memset_ff(mask_buf, draw_area_w);
 655              		.loc 1 287 0 discriminator 2
 656 01b4 0134     		adds	r4, r4, #1
 657              	.LVL93:
 658              	.L31:
 287:lvgl\src\lv_draw/lv_draw_line.c ****             _lv_memset_ff(mask_buf, draw_area_w);
 659              		.loc 1 287 0 is_stmt 0 discriminator 1
 660 01b6 BDF92630 		ldrsh	r3, [sp, #38]
 661 01ba 9C42     		cmp	r4, r3
 662 01bc C1DD     		ble	.L35
 310:lvgl\src\lv_draw/lv_draw_line.c ****         }
 311:lvgl\src\lv_draw/lv_draw_line.c ****         _lv_mem_buf_release(mask_buf);
 663              		.loc 1 311 0 is_stmt 1
 664 01be 4046     		mov	r0, r8
 665 01c0 FFF7FEFF 		bl	_lv_mem_buf_release
 666              	.LVL94:
 667              	.L24:
 668              	.LBE22:
 312:lvgl\src\lv_draw/lv_draw_line.c ****     }
 313:lvgl\src\lv_draw/lv_draw_line.c **** }
 669              		.loc 1 313 0
 670 01c4 0BB0     		add	sp, sp, #44
 671              		.cfi_def_cfa_offset 36
 672              		@ sp needed
 673 01c6 BDE8F08F 		pop	{r4, r5, r6, r7, r8, r9, r10, fp, pc}
 674              		.cfi_endproc
 675              	.LFE332:
 676              		.size	draw_line_ver, .-draw_line_ver
 677 01ca 00BF     		.section	.text.draw_line_skew,"ax",%progbits
 678              		.align	2
 679              		.thumb
 680              		.thumb_func
 681              		.type	draw_line_skew, %function
 682              	draw_line_skew:
 683              	.LFB333:
 314:lvgl\src\lv_draw/lv_draw_line.c **** 
 315:lvgl\src\lv_draw/lv_draw_line.c **** 
 316:lvgl\src\lv_draw/lv_draw_line.c **** LV_ATTRIBUTE_FAST_MEM static void draw_line_skew(const lv_point_t * point1, const lv_point_t * poin
 317:lvgl\src\lv_draw/lv_draw_line.c ****                                                  const lv_area_t * clip,
 318:lvgl\src\lv_draw/lv_draw_line.c ****                                                  const lv_draw_line_dsc_t * dsc)
 319:lvgl\src\lv_draw/lv_draw_line.c **** {
 684              		.loc 1 319 0
 685              		.cfi_startproc
 686              		@ args = 0, pretend = 0, frame = 224
 687              		@ frame_needed = 0, uses_anonymous_args = 0
 688              	.LVL95:
 689 0000 2DE9F04F 		push	{r4, r5, r6, r7, r8, r9, r10, fp, lr}
 690              		.cfi_def_cfa_offset 36
 691              		.cfi_offset 4, -36
 692              		.cfi_offset 5, -32
 693              		.cfi_offset 6, -28
ARM GAS  C:\Users\strap\AppData\Local\Temp\ccjLHvYP.s 			page 21


 694              		.cfi_offset 7, -24
 695              		.cfi_offset 8, -20
 696              		.cfi_offset 9, -16
 697              		.cfi_offset 10, -12
 698              		.cfi_offset 11, -8
 699              		.cfi_offset 14, -4
 700 0004 BDB0     		sub	sp, sp, #244
 701              		.cfi_def_cfa_offset 280
 702 0006 0592     		str	r2, [sp, #20]
 703 0008 9B46     		mov	fp, r3
 320:lvgl\src\lv_draw/lv_draw_line.c ****     /*Keep the great y in p1*/
 321:lvgl\src\lv_draw/lv_draw_line.c ****     lv_point_t p1;
 322:lvgl\src\lv_draw/lv_draw_line.c ****     lv_point_t p2;
 323:lvgl\src\lv_draw/lv_draw_line.c ****     if(point1->y < point2->y) {
 704              		.loc 1 323 0
 705 000a B0F90230 		ldrsh	r3, [r0, #2]
 706              	.LVL96:
 707 000e B1F90220 		ldrsh	r2, [r1, #2]
 708              	.LVL97:
 709 0012 9342     		cmp	r3, r2
 710 0014 0CDA     		bge	.L46
 324:lvgl\src\lv_draw/lv_draw_line.c ****         p1.y = point1->y;
 711              		.loc 1 324 0
 712 0016 ADF8EE30 		strh	r3, [sp, #238]	@ movhi
 325:lvgl\src\lv_draw/lv_draw_line.c ****         p2.y = point2->y;
 713              		.loc 1 325 0
 714 001a ADF8EA20 		strh	r2, [sp, #234]	@ movhi
 326:lvgl\src\lv_draw/lv_draw_line.c ****         p1.x = point1->x;
 715              		.loc 1 326 0
 716 001e B0F90030 		ldrsh	r3, [r0]
 717 0022 ADF8EC30 		strh	r3, [sp, #236]	@ movhi
 327:lvgl\src\lv_draw/lv_draw_line.c ****         p2.x = point2->x;
 718              		.loc 1 327 0
 719 0026 B1F90030 		ldrsh	r3, [r1]
 720 002a ADF8E830 		strh	r3, [sp, #232]	@ movhi
 721 002e 0BE0     		b	.L47
 722              	.L46:
 328:lvgl\src\lv_draw/lv_draw_line.c ****     }
 329:lvgl\src\lv_draw/lv_draw_line.c ****     else {
 330:lvgl\src\lv_draw/lv_draw_line.c ****         p1.y = point2->y;
 723              		.loc 1 330 0
 724 0030 ADF8EE20 		strh	r2, [sp, #238]	@ movhi
 331:lvgl\src\lv_draw/lv_draw_line.c ****         p2.y = point1->y;
 725              		.loc 1 331 0
 726 0034 ADF8EA30 		strh	r3, [sp, #234]	@ movhi
 332:lvgl\src\lv_draw/lv_draw_line.c ****         p1.x = point2->x;
 727              		.loc 1 332 0
 728 0038 B1F90030 		ldrsh	r3, [r1]
 729 003c ADF8EC30 		strh	r3, [sp, #236]	@ movhi
 333:lvgl\src\lv_draw/lv_draw_line.c ****         p2.x = point1->x;
 730              		.loc 1 333 0
 731 0040 B0F90030 		ldrsh	r3, [r0]
 732 0044 ADF8E830 		strh	r3, [sp, #232]	@ movhi
 733              	.L47:
 334:lvgl\src\lv_draw/lv_draw_line.c ****     }
 335:lvgl\src\lv_draw/lv_draw_line.c **** 
 336:lvgl\src\lv_draw/lv_draw_line.c ****     int32_t xdiff = p2.x - p1.x;
ARM GAS  C:\Users\strap\AppData\Local\Temp\ccjLHvYP.s 			page 22


 734              		.loc 1 336 0
 735 0048 BDF9E880 		ldrsh	r8, [sp, #232]
 736 004c BDF9EC70 		ldrsh	r7, [sp, #236]
 737 0050 C7EB0803 		rsb	r3, r7, r8
 738 0054 0493     		str	r3, [sp, #16]
 739              	.LVL98:
 337:lvgl\src\lv_draw/lv_draw_line.c ****     int32_t ydiff = p2.y - p1.y;
 740              		.loc 1 337 0
 741 0056 BDF9EA60 		ldrsh	r6, [sp, #234]
 742 005a BDF9EE50 		ldrsh	r5, [sp, #238]
 743 005e 721B     		subs	r2, r6, r5
 744 0060 0792     		str	r2, [sp, #28]
 745              	.LVL99:
 338:lvgl\src\lv_draw/lv_draw_line.c ****     bool flat = LV_MATH_ABS(xdiff) > LV_MATH_ABS(ydiff) ? true : false;
 746              		.loc 1 338 0
 747 0062 002B     		cmp	r3, #0
 748 0064 B8BF     		it	lt
 749 0066 5B42     		rsblt	r3, r3, #0
 750              	.LVL100:
 751 0068 9946     		mov	r9, r3
 752 006a 002A     		cmp	r2, #0
 753 006c B8BF     		it	lt
 754 006e 5242     		rsblt	r2, r2, #0
 755              	.LVL101:
 756 0070 9246     		mov	r10, r2
 757              	.LVL102:
 339:lvgl\src\lv_draw/lv_draw_line.c **** 
 340:lvgl\src\lv_draw/lv_draw_line.c ****     static const uint8_t wcorr[] = {
 341:lvgl\src\lv_draw/lv_draw_line.c ****         128, 128, 128, 129, 129, 130, 130, 131,
 342:lvgl\src\lv_draw/lv_draw_line.c ****         132, 133, 134, 135, 137, 138, 140, 141,
 343:lvgl\src\lv_draw/lv_draw_line.c ****         143, 145, 147, 149, 151, 153, 155, 158,
 344:lvgl\src\lv_draw/lv_draw_line.c ****         160, 162, 165, 167, 170, 173, 175, 178,
 345:lvgl\src\lv_draw/lv_draw_line.c ****         181,
 346:lvgl\src\lv_draw/lv_draw_line.c ****     };
 347:lvgl\src\lv_draw/lv_draw_line.c **** 
 348:lvgl\src\lv_draw/lv_draw_line.c ****     int32_t w = dsc->width;
 758              		.loc 1 348 0
 759 0072 BBF90230 		ldrsh	r3, [fp, #2]
 760              	.LVL103:
 349:lvgl\src\lv_draw/lv_draw_line.c ****     int32_t wcorr_i = 0;
 350:lvgl\src\lv_draw/lv_draw_line.c ****     if(flat) wcorr_i = (LV_MATH_ABS(ydiff) << 5) / LV_MATH_ABS(xdiff);
 761              		.loc 1 350 0
 762 0076 9145     		cmp	r9, r2
 763 0078 03DD     		ble	.L48
 764              		.loc 1 350 0 is_stmt 0 discriminator 1
 765 007a 5201     		lsls	r2, r2, #5
 766              	.LVL104:
 767 007c 92FBF9F2 		sdiv	r2, r2, r9
 768              	.LVL105:
 769 0080 03E0     		b	.L49
 770              	.LVL106:
 771              	.L48:
 351:lvgl\src\lv_draw/lv_draw_line.c ****     else wcorr_i = (LV_MATH_ABS(xdiff) << 5) / LV_MATH_ABS(ydiff);
 772              		.loc 1 351 0 is_stmt 1
 773 0082 4FEA4912 		lsl	r2, r9, #5
 774              	.LVL107:
 775 0086 92FBFAF2 		sdiv	r2, r2, r10
ARM GAS  C:\Users\strap\AppData\Local\Temp\ccjLHvYP.s 			page 23


 776              	.LVL108:
 777              	.L49:
 352:lvgl\src\lv_draw/lv_draw_line.c **** 
 353:lvgl\src\lv_draw/lv_draw_line.c ****     w = (w * wcorr[wcorr_i] + 63) >> 7;     /*+ 63 for rounding*/
 778              		.loc 1 353 0
 779 008a 9E49     		ldr	r1, .L65
 780              	.LVL109:
 781 008c 8C5C     		ldrb	r4, [r1, r2]	@ zero_extendqisi2
 782 008e 03FB04F4 		mul	r4, r3, r4
 783 0092 3F34     		adds	r4, r4, #63
 784 0094 E311     		asrs	r3, r4, #7
 785              	.LVL110:
 354:lvgl\src\lv_draw/lv_draw_line.c ****     int32_t w_half0 = w >> 1;
 786              		.loc 1 354 0
 787 0096 2412     		asrs	r4, r4, #8
 788              	.LVL111:
 355:lvgl\src\lv_draw/lv_draw_line.c ****     int32_t w_half1 = w_half0 + (w & 0x1); /*Compensate rounding error*/
 789              		.loc 1 355 0
 790 0098 03F00102 		and	r2, r3, #1
 791              	.LVL112:
 792 009c A218     		adds	r2, r4, r2
 793 009e 0692     		str	r2, [sp, #24]
 794              	.LVL113:
 356:lvgl\src\lv_draw/lv_draw_line.c **** 
 357:lvgl\src\lv_draw/lv_draw_line.c ****     lv_area_t draw_area;
 358:lvgl\src\lv_draw/lv_draw_line.c ****     draw_area.x1 = LV_MATH_MIN(p1.x, p2.x) - w;
 795              		.loc 1 358 0
 796 00a0 9BB2     		uxth	r3, r3
 797              	.LVL114:
 798 00a2 B845     		cmp	r8, r7
 799 00a4 D4BF     		ite	le
 800 00a6 C3EB0802 		rsble	r2, r3, r8
 801 00aa C3EB0702 		rsbgt	r2, r3, r7
 802              	.LVL115:
 803 00ae ADF8E020 		strh	r2, [sp, #224]	@ movhi
 359:lvgl\src\lv_draw/lv_draw_line.c ****     draw_area.x2 = LV_MATH_MAX(p1.x, p2.x) + w;
 804              		.loc 1 359 0
 805 00b2 B845     		cmp	r8, r7
 806 00b4 ACBF     		ite	ge
 807 00b6 03EB0802 		addge	r2, r3, r8
 808 00ba DA19     		addlt	r2, r3, r7
 809 00bc ADF8E420 		strh	r2, [sp, #228]	@ movhi
 360:lvgl\src\lv_draw/lv_draw_line.c ****     draw_area.y1 = LV_MATH_MIN(p1.y, p2.y) - w;
 810              		.loc 1 360 0
 811 00c0 AE42     		cmp	r6, r5
 812 00c2 D4BF     		ite	le
 813 00c4 C3EB0602 		rsble	r2, r3, r6
 814 00c8 C3EB0502 		rsbgt	r2, r3, r5
 815 00cc ADF8E220 		strh	r2, [sp, #226]	@ movhi
 361:lvgl\src\lv_draw/lv_draw_line.c ****     draw_area.y2 = LV_MATH_MAX(p1.y, p2.y) + w;
 816              		.loc 1 361 0
 817 00d0 AE42     		cmp	r6, r5
 818 00d2 ACBF     		ite	ge
 819 00d4 9B19     		addge	r3, r3, r6
 820 00d6 5B19     		addlt	r3, r3, r5
 821 00d8 ADF8E630 		strh	r3, [sp, #230]	@ movhi
 362:lvgl\src\lv_draw/lv_draw_line.c **** 
ARM GAS  C:\Users\strap\AppData\Local\Temp\ccjLHvYP.s 			page 24


 363:lvgl\src\lv_draw/lv_draw_line.c ****     /* Get the union of `coords` and `clip`*/
 364:lvgl\src\lv_draw/lv_draw_line.c ****     /* `clip` is already truncated to the `vdb` size
 365:lvgl\src\lv_draw/lv_draw_line.c ****      * in 'lv_refr_area' function */
 366:lvgl\src\lv_draw/lv_draw_line.c ****     bool is_common = _lv_area_intersect(&draw_area, &draw_area, clip);
 822              		.loc 1 366 0
 823 00dc 059A     		ldr	r2, [sp, #20]
 824 00de 38A9     		add	r1, sp, #224
 825 00e0 0846     		mov	r0, r1
 826              	.LVL116:
 827 00e2 FFF7FEFF 		bl	_lv_area_intersect
 828              	.LVL117:
 367:lvgl\src\lv_draw/lv_draw_line.c ****     if(is_common == false) return;
 829              		.loc 1 367 0
 830 00e6 0028     		cmp	r0, #0
 831 00e8 00F05D81 		beq	.L45
 368:lvgl\src\lv_draw/lv_draw_line.c **** 
 369:lvgl\src\lv_draw/lv_draw_line.c ****     lv_draw_mask_line_param_t mask_left_param;
 370:lvgl\src\lv_draw/lv_draw_line.c ****     lv_draw_mask_line_param_t mask_right_param;
 371:lvgl\src\lv_draw/lv_draw_line.c ****     lv_draw_mask_line_param_t mask_top_param;
 372:lvgl\src\lv_draw/lv_draw_line.c ****     lv_draw_mask_line_param_t mask_bottom_param;
 373:lvgl\src\lv_draw/lv_draw_line.c **** 
 374:lvgl\src\lv_draw/lv_draw_line.c ****     if(flat) {
 832              		.loc 1 374 0
 833 00ec D145     		cmp	r9, r10
 834 00ee 3EDD     		ble	.L51
 375:lvgl\src\lv_draw/lv_draw_line.c ****         if(xdiff > 0) {
 835              		.loc 1 375 0
 836 00f0 049B     		ldr	r3, [sp, #16]
 837 00f2 002B     		cmp	r3, #0
 838 00f4 1DDD     		ble	.L52
 376:lvgl\src\lv_draw/lv_draw_line.c ****             lv_draw_mask_line_points_init(&mask_left_param, p1.x, p1.y - w_half0, p2.x, p2.y - w_ha
 839              		.loc 1 376 0
 840 00f6 ADB2     		uxth	r5, r5
 841 00f8 A4B2     		uxth	r4, r4
 842              	.LVL118:
 843 00fa B6B2     		uxth	r6, r6
 844 00fc 2A1B     		subs	r2, r5, r4
 845 00fe 0023     		movs	r3, #0
 846 0100 0193     		str	r3, [sp, #4]
 847 0102 341B     		subs	r4, r6, r4
 848 0104 24B2     		sxth	r4, r4
 849 0106 0094     		str	r4, [sp]
 850 0108 4346     		mov	r3, r8
 851 010a 12B2     		sxth	r2, r2
 852 010c 3946     		mov	r1, r7
 853 010e 2DA8     		add	r0, sp, #180
 854              	.LVL119:
 855 0110 FFF7FEFF 		bl	lv_draw_mask_line_points_init
 856              	.LVL120:
 377:lvgl\src\lv_draw/lv_draw_line.c ****                                           LV_DRAW_MASK_LINE_SIDE_LEFT);
 378:lvgl\src\lv_draw/lv_draw_line.c ****             lv_draw_mask_line_points_init(&mask_right_param, p1.x, p1.y + w_half1, p2.x, p2.y + w_h
 857              		.loc 1 378 0
 858 0114 BDF81830 		ldrh	r3, [sp, #24]
 859 0118 1D44     		add	r5, r5, r3
 860 011a 0122     		movs	r2, #1
 861 011c 0192     		str	r2, [sp, #4]
 862 011e 1E44     		add	r6, r6, r3
ARM GAS  C:\Users\strap\AppData\Local\Temp\ccjLHvYP.s 			page 25


 863 0120 36B2     		sxth	r6, r6
 864 0122 0096     		str	r6, [sp]
 865 0124 4346     		mov	r3, r8
 866 0126 2AB2     		sxth	r2, r5
 867 0128 3946     		mov	r1, r7
 868 012a 22A8     		add	r0, sp, #136
 869 012c FFF7FEFF 		bl	lv_draw_mask_line_points_init
 870              	.LVL121:
 871 0130 3CE0     		b	.L53
 872              	.LVL122:
 873              	.L52:
 379:lvgl\src\lv_draw/lv_draw_line.c ****                                           LV_DRAW_MASK_LINE_SIDE_RIGHT);
 380:lvgl\src\lv_draw/lv_draw_line.c ****         }
 381:lvgl\src\lv_draw/lv_draw_line.c ****         else {
 382:lvgl\src\lv_draw/lv_draw_line.c ****             lv_draw_mask_line_points_init(&mask_left_param, p1.x, p1.y + w_half1, p2.x, p2.y + w_ha
 874              		.loc 1 382 0
 875 0132 ADB2     		uxth	r5, r5
 876 0134 BDF81830 		ldrh	r3, [sp, #24]
 877 0138 B6B2     		uxth	r6, r6
 878 013a EA18     		adds	r2, r5, r3
 879 013c 0021     		movs	r1, #0
 880 013e 0191     		str	r1, [sp, #4]
 881 0140 3344     		add	r3, r3, r6
 882 0142 1BB2     		sxth	r3, r3
 883 0144 0093     		str	r3, [sp]
 884 0146 4346     		mov	r3, r8
 885 0148 12B2     		sxth	r2, r2
 886 014a 3946     		mov	r1, r7
 887 014c 2DA8     		add	r0, sp, #180
 888              	.LVL123:
 889 014e FFF7FEFF 		bl	lv_draw_mask_line_points_init
 890              	.LVL124:
 383:lvgl\src\lv_draw/lv_draw_line.c ****                                           LV_DRAW_MASK_LINE_SIDE_LEFT);
 384:lvgl\src\lv_draw/lv_draw_line.c ****             lv_draw_mask_line_points_init(&mask_right_param, p1.x, p1.y - w_half0, p2.x, p2.y - w_h
 891              		.loc 1 384 0
 892 0152 A4B2     		uxth	r4, r4
 893              	.LVL125:
 894 0154 2A1B     		subs	r2, r5, r4
 895 0156 0123     		movs	r3, #1
 896 0158 0193     		str	r3, [sp, #4]
 897 015a 361B     		subs	r6, r6, r4
 898 015c 36B2     		sxth	r6, r6
 899 015e 0096     		str	r6, [sp]
 900 0160 4346     		mov	r3, r8
 901 0162 12B2     		sxth	r2, r2
 902 0164 3946     		mov	r1, r7
 903 0166 22A8     		add	r0, sp, #136
 904 0168 FFF7FEFF 		bl	lv_draw_mask_line_points_init
 905              	.LVL126:
 906 016c 1EE0     		b	.L53
 907              	.LVL127:
 908              	.L51:
 385:lvgl\src\lv_draw/lv_draw_line.c ****                                           LV_DRAW_MASK_LINE_SIDE_RIGHT);
 386:lvgl\src\lv_draw/lv_draw_line.c ****         }
 387:lvgl\src\lv_draw/lv_draw_line.c ****     }
 388:lvgl\src\lv_draw/lv_draw_line.c ****     else {
 389:lvgl\src\lv_draw/lv_draw_line.c ****         lv_draw_mask_line_points_init(&mask_left_param, p1.x + w_half1, p1.y, p2.x + w_half1, p2.y,
ARM GAS  C:\Users\strap\AppData\Local\Temp\ccjLHvYP.s 			page 26


 909              		.loc 1 389 0
 910 016e BFB2     		uxth	r7, r7
 911 0170 BDF81810 		ldrh	r1, [sp, #24]
 912 0174 1FFA88F8 		uxth	r8, r8
 913 0178 01EB0803 		add	r3, r1, r8
 914 017c 3944     		add	r1, r1, r7
 915 017e 0022     		movs	r2, #0
 916 0180 0192     		str	r2, [sp, #4]
 917 0182 0096     		str	r6, [sp]
 918 0184 1BB2     		sxth	r3, r3
 919 0186 2A46     		mov	r2, r5
 920 0188 09B2     		sxth	r1, r1
 921 018a 2DA8     		add	r0, sp, #180
 922              	.LVL128:
 923 018c FFF7FEFF 		bl	lv_draw_mask_line_points_init
 924              	.LVL129:
 390:lvgl\src\lv_draw/lv_draw_line.c ****                                       LV_DRAW_MASK_LINE_SIDE_LEFT);
 391:lvgl\src\lv_draw/lv_draw_line.c ****         lv_draw_mask_line_points_init(&mask_right_param, p1.x - w_half0, p1.y, p2.x - w_half0, p2.y
 925              		.loc 1 391 0
 926 0190 A4B2     		uxth	r4, r4
 927              	.LVL130:
 928 0192 C4EB0808 		rsb	r8, r4, r8
 929 0196 391B     		subs	r1, r7, r4
 930 0198 0123     		movs	r3, #1
 931 019a 0193     		str	r3, [sp, #4]
 932 019c 0096     		str	r6, [sp]
 933 019e 0FFA88F3 		sxth	r3, r8
 934 01a2 2A46     		mov	r2, r5
 935 01a4 09B2     		sxth	r1, r1
 936 01a6 22A8     		add	r0, sp, #136
 937 01a8 FFF7FEFF 		bl	lv_draw_mask_line_points_init
 938              	.LVL131:
 939              	.L53:
 392:lvgl\src\lv_draw/lv_draw_line.c ****                                       LV_DRAW_MASK_LINE_SIDE_RIGHT);
 393:lvgl\src\lv_draw/lv_draw_line.c ****     }
 394:lvgl\src\lv_draw/lv_draw_line.c **** 
 395:lvgl\src\lv_draw/lv_draw_line.c ****     /*Use the normal vector for the endings*/
 396:lvgl\src\lv_draw/lv_draw_line.c **** 
 397:lvgl\src\lv_draw/lv_draw_line.c ****     int16_t mask_left_id = lv_draw_mask_add(&mask_left_param, NULL);
 940              		.loc 1 397 0
 941 01ac 0021     		movs	r1, #0
 942 01ae 2DA8     		add	r0, sp, #180
 943 01b0 FFF7FEFF 		bl	lv_draw_mask_add
 944              	.LVL132:
 945 01b4 0690     		str	r0, [sp, #24]
 946              	.LVL133:
 398:lvgl\src\lv_draw/lv_draw_line.c ****     int16_t mask_right_id = lv_draw_mask_add(&mask_right_param, NULL);
 947              		.loc 1 398 0
 948 01b6 0021     		movs	r1, #0
 949 01b8 22A8     		add	r0, sp, #136
 950 01ba FFF7FEFF 		bl	lv_draw_mask_add
 951              	.LVL134:
 952 01be 0890     		str	r0, [sp, #32]
 953              	.LVL135:
 399:lvgl\src\lv_draw/lv_draw_line.c ****     int16_t mask_top_id = LV_MASK_ID_INV;
 400:lvgl\src\lv_draw/lv_draw_line.c ****     int16_t mask_bottom_id = LV_MASK_ID_INV;
 401:lvgl\src\lv_draw/lv_draw_line.c **** 
ARM GAS  C:\Users\strap\AppData\Local\Temp\ccjLHvYP.s 			page 27


 402:lvgl\src\lv_draw/lv_draw_line.c ****     if(!dsc->raw_end) {
 954              		.loc 1 402 0
 955 01c0 9BF80930 		ldrb	r3, [fp, #9]	@ zero_extendqisi2
 956 01c4 13F0100F 		tst	r3, #16
 957 01c8 2CD1     		bne	.L63
 403:lvgl\src\lv_draw/lv_draw_line.c ****         lv_draw_mask_line_points_init(&mask_top_param, p1.x, p1.y, p1.x - ydiff, p1.y + xdiff, LV_D
 958              		.loc 1 403 0
 959 01ca BDF9EC10 		ldrsh	r1, [sp, #236]
 960 01ce BDF81C40 		ldrh	r4, [sp, #28]
 961 01d2 BDF9EE20 		ldrsh	r2, [sp, #238]
 962 01d6 BDF81090 		ldrh	r9, [sp, #16]
 963              	.LVL136:
 964 01da 0B1B     		subs	r3, r1, r4
 965 01dc 0320     		movs	r0, #3
 966 01de 0190     		str	r0, [sp, #4]
 967 01e0 09EB0200 		add	r0, r9, r2
 968 01e4 00B2     		sxth	r0, r0
 969 01e6 0090     		str	r0, [sp]
 970 01e8 1BB2     		sxth	r3, r3
 971 01ea 17A8     		add	r0, sp, #92
 972 01ec FFF7FEFF 		bl	lv_draw_mask_line_points_init
 973              	.LVL137:
 404:lvgl\src\lv_draw/lv_draw_line.c ****         lv_draw_mask_line_points_init(&mask_bottom_param, p2.x, p2.y, p2.x - ydiff, p2.y + xdiff,  
 974              		.loc 1 404 0
 975 01f0 BDF9E810 		ldrsh	r1, [sp, #232]
 976 01f4 BDF9EA20 		ldrsh	r2, [sp, #234]
 977 01f8 0B1B     		subs	r3, r1, r4
 978 01fa 0220     		movs	r0, #2
 979 01fc 0190     		str	r0, [sp, #4]
 980 01fe 9144     		add	r9, r9, r2
 981 0200 0FFA89F0 		sxth	r0, r9
 982 0204 0090     		str	r0, [sp]
 983 0206 1BB2     		sxth	r3, r3
 984 0208 0CA8     		add	r0, sp, #48
 985 020a FFF7FEFF 		bl	lv_draw_mask_line_points_init
 986              	.LVL138:
 405:lvgl\src\lv_draw/lv_draw_line.c ****         mask_top_id = lv_draw_mask_add(&mask_top_param, NULL);
 987              		.loc 1 405 0
 988 020e 0021     		movs	r1, #0
 989 0210 17A8     		add	r0, sp, #92
 990 0212 FFF7FEFF 		bl	lv_draw_mask_add
 991              	.LVL139:
 992 0216 0790     		str	r0, [sp, #28]
 993              	.LVL140:
 406:lvgl\src\lv_draw/lv_draw_line.c ****         mask_bottom_id = lv_draw_mask_add(&mask_bottom_param, NULL);
 994              		.loc 1 406 0
 995 0218 0021     		movs	r1, #0
 996 021a 0CA8     		add	r0, sp, #48
 997 021c FFF7FEFF 		bl	lv_draw_mask_add
 998              	.LVL141:
 999 0220 0990     		str	r0, [sp, #36]
 1000              	.LVL142:
 1001 0222 03E0     		b	.L54
 1002              	.LVL143:
 1003              	.L63:
 400:lvgl\src\lv_draw/lv_draw_line.c **** 
 1004              		.loc 1 400 0
ARM GAS  C:\Users\strap\AppData\Local\Temp\ccjLHvYP.s 			page 28


 1005 0224 4FF0FF33 		mov	r3, #-1
 1006 0228 0993     		str	r3, [sp, #36]
 399:lvgl\src\lv_draw/lv_draw_line.c ****     int16_t mask_bottom_id = LV_MASK_ID_INV;
 1007              		.loc 1 399 0
 1008 022a 0793     		str	r3, [sp, #28]
 1009              	.LVL144:
 1010              	.L54:
 407:lvgl\src\lv_draw/lv_draw_line.c ****     }
 408:lvgl\src\lv_draw/lv_draw_line.c **** 
 409:lvgl\src\lv_draw/lv_draw_line.c ****     lv_disp_t * disp    = _lv_refr_get_disp_refreshing();
 1011              		.loc 1 409 0
 1012 022c FFF7FEFF 		bl	_lv_refr_get_disp_refreshing
 1013              	.LVL145:
 1014 0230 0546     		mov	r5, r0
 1015              	.LVL146:
 410:lvgl\src\lv_draw/lv_draw_line.c ****     lv_disp_buf_t * vdb = lv_disp_get_buf(disp);
 1016              		.loc 1 410 0
 1017 0232 FFF7FEFF 		bl	lv_disp_get_buf
 1018              	.LVL147:
 1019 0236 8146     		mov	r9, r0
 1020              	.LVL148:
 411:lvgl\src\lv_draw/lv_draw_line.c **** 
 412:lvgl\src\lv_draw/lv_draw_line.c ****     const lv_area_t * disp_area = &vdb->area;
 413:lvgl\src\lv_draw/lv_draw_line.c **** 
 414:lvgl\src\lv_draw/lv_draw_line.c ****     /*Store the coordinates of the `draw_a` relative to the VDB */
 415:lvgl\src\lv_draw/lv_draw_line.c ****     draw_area.x1 -= disp_area->x1;
 1021              		.loc 1 415 0
 1022 0238 038A     		ldrh	r3, [r0, #16]
 1023 023a BDF8E040 		ldrh	r4, [sp, #224]
 1024 023e E41A     		subs	r4, r4, r3
 1025 0240 A4B2     		uxth	r4, r4
 1026 0242 ADF8E040 		strh	r4, [sp, #224]	@ movhi
 416:lvgl\src\lv_draw/lv_draw_line.c ****     draw_area.y1 -= disp_area->y1;
 1027              		.loc 1 416 0
 1028 0246 418A     		ldrh	r1, [r0, #18]
 1029 0248 BDF8E200 		ldrh	r0, [sp, #226]
 1030              	.LVL149:
 1031 024c 401A     		subs	r0, r0, r1
 1032 024e ADF8E200 		strh	r0, [sp, #226]	@ movhi
 417:lvgl\src\lv_draw/lv_draw_line.c ****     draw_area.x2 -= disp_area->x1;
 1033              		.loc 1 417 0
 1034 0252 BDF8E420 		ldrh	r2, [sp, #228]
 1035 0256 D21A     		subs	r2, r2, r3
 1036 0258 93B2     		uxth	r3, r2
 1037 025a ADF8E430 		strh	r3, [sp, #228]	@ movhi
 418:lvgl\src\lv_draw/lv_draw_line.c ****     draw_area.y2 -= disp_area->y1;
 1038              		.loc 1 418 0
 1039 025e BDF8E620 		ldrh	r2, [sp, #230]
 1040 0262 521A     		subs	r2, r2, r1
 1041 0264 ADF8E620 		strh	r2, [sp, #230]	@ movhi
 1042              	.LVL150:
 1043              	.LBB26:
 1044              	.LBB27:
 1045              		.loc 2 112 0
 1046 0268 1C1B     		subs	r4, r3, r4
 1047 026a 0134     		adds	r4, r4, #1
 1048 026c 24B2     		sxth	r4, r4
ARM GAS  C:\Users\strap\AppData\Local\Temp\ccjLHvYP.s 			page 29


 1049              	.LVL151:
 1050              	.LBE27:
 1051              	.LBE26:
 419:lvgl\src\lv_draw/lv_draw_line.c **** 
 420:lvgl\src\lv_draw/lv_draw_line.c ****     /* The real draw area is around the line.
 421:lvgl\src\lv_draw/lv_draw_line.c ****      * It's easy to calculate with steep lines, but the area can be very wide with very flat lines.
 422:lvgl\src\lv_draw/lv_draw_line.c ****      * So deal with it only with steep lines. */
 423:lvgl\src\lv_draw/lv_draw_line.c ****     int32_t draw_area_w = lv_area_get_width(&draw_area);
 424:lvgl\src\lv_draw/lv_draw_line.c **** 
 425:lvgl\src\lv_draw/lv_draw_line.c ****     /*Draw the background line by line*/
 426:lvgl\src\lv_draw/lv_draw_line.c ****     int32_t h;
 427:lvgl\src\lv_draw/lv_draw_line.c ****     uint32_t hor_res = (uint32_t)lv_disp_get_hor_res(disp);
 1052              		.loc 1 427 0
 1053 026e 2846     		mov	r0, r5
 1054 0270 FFF7FEFF 		bl	lv_disp_get_hor_res
 1055              	.LVL152:
 1056 0274 0546     		mov	r5, r0
 1057              	.LVL153:
 1058 0276 8246     		mov	r10, r0
 1059              	.LVL154:
 428:lvgl\src\lv_draw/lv_draw_line.c ****     size_t mask_buf_size = LV_MATH_MIN(lv_area_get_size(&draw_area), hor_res);
 1060              		.loc 1 428 0
 1061 0278 38A8     		add	r0, sp, #224
 1062              	.LVL155:
 1063 027a FFF7FEFF 		bl	lv_area_get_size
 1064              	.LVL156:
 1065 027e 8542     		cmp	r5, r0
 1066 0280 03D9     		bls	.L55
 1067              		.loc 1 428 0 is_stmt 0 discriminator 1
 1068 0282 38A8     		add	r0, sp, #224
 1069 0284 FFF7FEFF 		bl	lv_area_get_size
 1070              	.LVL157:
 1071 0288 8246     		mov	r10, r0
 1072              	.L55:
 1073              	.LVL158:
 429:lvgl\src\lv_draw/lv_draw_line.c ****     lv_opa_t * mask_buf = _lv_mem_buf_get(mask_buf_size);
 1074              		.loc 1 429 0 is_stmt 1 discriminator 4
 1075 028a 5046     		mov	r0, r10
 1076 028c FFF7FEFF 		bl	_lv_mem_buf_get
 1077              	.LVL159:
 1078 0290 8046     		mov	r8, r0
 1079              	.LVL160:
 430:lvgl\src\lv_draw/lv_draw_line.c **** 
 431:lvgl\src\lv_draw/lv_draw_line.c ****     lv_area_t fill_area;
 432:lvgl\src\lv_draw/lv_draw_line.c ****     fill_area.x1 = draw_area.x1 + disp_area->x1;
 1080              		.loc 1 432 0 discriminator 4
 1081 0292 BDF9E030 		ldrsh	r3, [sp, #224]
 1082 0296 B9F81020 		ldrh	r2, [r9, #16]
 1083 029a 1344     		add	r3, r3, r2
 1084 029c 1BB2     		sxth	r3, r3
 1085 029e 0493     		str	r3, [sp, #16]
 1086              	.LVL161:
 1087 02a0 ADF82830 		strh	r3, [sp, #40]	@ movhi
 433:lvgl\src\lv_draw/lv_draw_line.c ****     fill_area.x2 = draw_area.x2 + disp_area->x1;
 1088              		.loc 1 433 0 discriminator 4
 1089 02a4 BDF9E430 		ldrsh	r3, [sp, #228]
 1090 02a8 1344     		add	r3, r3, r2
ARM GAS  C:\Users\strap\AppData\Local\Temp\ccjLHvYP.s 			page 30


 1091 02aa ADF82C30 		strh	r3, [sp, #44]	@ movhi
 434:lvgl\src\lv_draw/lv_draw_line.c ****     fill_area.y1 = draw_area.y1 + disp_area->y1;
 1092              		.loc 1 434 0 discriminator 4
 1093 02ae BDF9E220 		ldrsh	r2, [sp, #226]
 1094 02b2 B9F91230 		ldrsh	r3, [r9, #18]
 1095 02b6 1344     		add	r3, r3, r2
 1096 02b8 1BB2     		sxth	r3, r3
 1097 02ba ADF82A30 		strh	r3, [sp, #42]	@ movhi
 435:lvgl\src\lv_draw/lv_draw_line.c ****     fill_area.y2 = fill_area.y1;
 1098              		.loc 1 435 0 discriminator 4
 1099 02be ADF82E30 		strh	r3, [sp, #46]	@ movhi
 1100              	.LVL162:
 436:lvgl\src\lv_draw/lv_draw_line.c **** 
 437:lvgl\src\lv_draw/lv_draw_line.c ****     int32_t x = vdb->area.x1 + draw_area.x1;
 438:lvgl\src\lv_draw/lv_draw_line.c **** 
 439:lvgl\src\lv_draw/lv_draw_line.c ****     uint32_t mask_p = 0;
 440:lvgl\src\lv_draw/lv_draw_line.c **** 
 441:lvgl\src\lv_draw/lv_draw_line.c ****     _lv_memset_ff(mask_buf, mask_buf_size);
 1101              		.loc 1 441 0 discriminator 4
 1102 02c2 5146     		mov	r1, r10
 1103 02c4 FFF7FEFF 		bl	_lv_memset_ff
 1104              	.LVL163:
 442:lvgl\src\lv_draw/lv_draw_line.c ****     /*Fill the first row with 'color'*/
 443:lvgl\src\lv_draw/lv_draw_line.c ****     for(h = draw_area.y1 + disp_area->y1; h <= draw_area.y2 + disp_area->y1; h++) {
 1105              		.loc 1 443 0 discriminator 4
 1106 02c8 BDF9E250 		ldrsh	r5, [sp, #226]
 1107              	.LVL164:
 1108 02cc B9F91230 		ldrsh	r3, [r9, #18]
 1109 02d0 1D44     		add	r5, r5, r3
 1110              	.LVL165:
 439:lvgl\src\lv_draw/lv_draw_line.c **** 
 1111              		.loc 1 439 0 discriminator 4
 1112 02d2 0026     		movs	r6, #0
 1113              		.loc 1 443 0 discriminator 4
 1114 02d4 37E0     		b	.L56
 1115              	.LVL166:
 1116              	.L60:
 1117              	.LBB28:
 444:lvgl\src\lv_draw/lv_draw_line.c **** 
 445:lvgl\src\lv_draw/lv_draw_line.c ****         lv_draw_mask_res_t mask_res = lv_draw_mask_apply(&mask_buf[mask_p], x, h, draw_area_w);
 1118              		.loc 1 445 0
 1119 02d6 08EB0607 		add	r7, r8, r6
 1120 02da 2346     		mov	r3, r4
 1121 02dc 2AB2     		sxth	r2, r5
 1122 02de 0499     		ldr	r1, [sp, #16]
 1123 02e0 3846     		mov	r0, r7
 1124 02e2 FFF7FEFF 		bl	lv_draw_mask_apply
 1125              	.LVL167:
 446:lvgl\src\lv_draw/lv_draw_line.c ****         if(mask_res == LV_DRAW_MASK_RES_TRANSP) {
 1126              		.loc 1 446 0
 1127 02e6 18B9     		cbnz	r0, .L57
 447:lvgl\src\lv_draw/lv_draw_line.c ****             _lv_memset_00(&mask_buf[mask_p], draw_area_w);
 1128              		.loc 1 447 0
 1129 02e8 2146     		mov	r1, r4
 1130 02ea 3846     		mov	r0, r7
 1131              	.LVL168:
 1132 02ec FFF7FEFF 		bl	_lv_memset_00
ARM GAS  C:\Users\strap\AppData\Local\Temp\ccjLHvYP.s 			page 31


 1133              	.LVL169:
 1134              	.L57:
 448:lvgl\src\lv_draw/lv_draw_line.c ****         }
 449:lvgl\src\lv_draw/lv_draw_line.c **** 
 450:lvgl\src\lv_draw/lv_draw_line.c ****         mask_p += draw_area_w;
 1135              		.loc 1 450 0
 1136 02f0 2644     		add	r6, r6, r4
 1137              	.LVL170:
 451:lvgl\src\lv_draw/lv_draw_line.c ****         if((uint32_t) mask_p + draw_area_w < mask_buf_size) {
 1138              		.loc 1 451 0
 1139 02f2 A319     		adds	r3, r4, r6
 1140 02f4 9A45     		cmp	r10, r3
 1141 02f6 07D9     		bls	.L58
 452:lvgl\src\lv_draw/lv_draw_line.c ****             fill_area.y2 ++;
 1142              		.loc 1 452 0
 1143 02f8 BDF92E30 		ldrsh	r3, [sp, #46]
 1144 02fc 0133     		adds	r3, r3, #1
 1145 02fe ADF82E30 		strh	r3, [sp, #46]	@ movhi
 1146 0302 1FE0     		b	.L59
 1147              	.L66:
 1148              		.align	2
 1149              	.L65:
 1150 0304 00000000 		.word	.LANCHOR0
 1151              	.L58:
 453:lvgl\src\lv_draw/lv_draw_line.c ****         }
 454:lvgl\src\lv_draw/lv_draw_line.c ****         else {
 455:lvgl\src\lv_draw/lv_draw_line.c ****             _lv_blend_fill(&fill_area, clip,
 456:lvgl\src\lv_draw/lv_draw_line.c ****                            dsc->color, mask_buf, LV_DRAW_MASK_RES_CHANGED, dsc->opa,
 457:lvgl\src\lv_draw/lv_draw_line.c ****                            dsc->blend_mode);
 1152              		.loc 1 457 0
 1153 0308 9BF80930 		ldrb	r3, [fp, #9]	@ zero_extendqisi2
 1154 030c 03F00303 		and	r3, r3, #3
 455:lvgl\src\lv_draw/lv_draw_line.c ****                            dsc->color, mask_buf, LV_DRAW_MASK_RES_CHANGED, dsc->opa,
 1155              		.loc 1 455 0
 1156 0310 0293     		str	r3, [sp, #8]
 1157 0312 9BF80830 		ldrb	r3, [fp, #8]	@ zero_extendqisi2
 1158 0316 0193     		str	r3, [sp, #4]
 1159 0318 0223     		movs	r3, #2
 1160 031a 0093     		str	r3, [sp]
 1161 031c 4346     		mov	r3, r8
 1162 031e BBF80020 		ldrh	r2, [fp]
 1163 0322 0599     		ldr	r1, [sp, #20]
 1164 0324 0AA8     		add	r0, sp, #40
 1165 0326 FFF7FEFF 		bl	_lv_blend_fill
 1166              	.LVL171:
 458:lvgl\src\lv_draw/lv_draw_line.c **** 
 459:lvgl\src\lv_draw/lv_draw_line.c ****             fill_area.y1 = fill_area.y2 + 1;
 1167              		.loc 1 459 0
 1168 032a BDF92E30 		ldrsh	r3, [sp, #46]
 1169 032e 0133     		adds	r3, r3, #1
 1170 0330 1BB2     		sxth	r3, r3
 1171 0332 ADF82A30 		strh	r3, [sp, #42]	@ movhi
 460:lvgl\src\lv_draw/lv_draw_line.c ****             fill_area.y2 = fill_area.y1;
 1172              		.loc 1 460 0
 1173 0336 ADF82E30 		strh	r3, [sp, #46]	@ movhi
 1174              	.LVL172:
 461:lvgl\src\lv_draw/lv_draw_line.c ****             mask_p = 0;
ARM GAS  C:\Users\strap\AppData\Local\Temp\ccjLHvYP.s 			page 32


 462:lvgl\src\lv_draw/lv_draw_line.c ****             _lv_memset_ff(mask_buf, mask_buf_size);
 1175              		.loc 1 462 0
 1176 033a 5146     		mov	r1, r10
 1177 033c 4046     		mov	r0, r8
 1178 033e FFF7FEFF 		bl	_lv_memset_ff
 1179              	.LVL173:
 461:lvgl\src\lv_draw/lv_draw_line.c ****             mask_p = 0;
 1180              		.loc 1 461 0
 1181 0342 0026     		movs	r6, #0
 1182              	.LVL174:
 1183              	.L59:
 1184              	.LBE28:
 443:lvgl\src\lv_draw/lv_draw_line.c **** 
 1185              		.loc 1 443 0 discriminator 2
 1186 0344 0135     		adds	r5, r5, #1
 1187              	.LVL175:
 1188              	.L56:
 443:lvgl\src\lv_draw/lv_draw_line.c **** 
 1189              		.loc 1 443 0 is_stmt 0 discriminator 1
 1190 0346 BDF9E620 		ldrsh	r2, [sp, #230]
 1191 034a B9F91230 		ldrsh	r3, [r9, #18]
 1192 034e 1344     		add	r3, r3, r2
 1193 0350 9D42     		cmp	r5, r3
 1194 0352 C0DD     		ble	.L60
 463:lvgl\src\lv_draw/lv_draw_line.c ****         }
 464:lvgl\src\lv_draw/lv_draw_line.c ****     }
 465:lvgl\src\lv_draw/lv_draw_line.c **** 
 466:lvgl\src\lv_draw/lv_draw_line.c ****     /*Flush the last part*/
 467:lvgl\src\lv_draw/lv_draw_line.c ****     if(fill_area.y1 != fill_area.y2) {
 1195              		.loc 1 467 0 is_stmt 1
 1196 0354 BDF92A20 		ldrsh	r2, [sp, #42]
 1197 0358 BDF92E30 		ldrsh	r3, [sp, #46]
 1198 035c 9A42     		cmp	r2, r3
 1199 035e 13D0     		beq	.L61
 468:lvgl\src\lv_draw/lv_draw_line.c ****         fill_area.y2--;
 1200              		.loc 1 468 0
 1201 0360 013B     		subs	r3, r3, #1
 1202 0362 ADF82E30 		strh	r3, [sp, #46]	@ movhi
 469:lvgl\src\lv_draw/lv_draw_line.c ****         _lv_blend_fill(&fill_area, clip,
 470:lvgl\src\lv_draw/lv_draw_line.c ****                        dsc->color, mask_buf, LV_DRAW_MASK_RES_CHANGED, dsc->opa,
 471:lvgl\src\lv_draw/lv_draw_line.c ****                        dsc->blend_mode);
 1203              		.loc 1 471 0
 1204 0366 9BF80930 		ldrb	r3, [fp, #9]	@ zero_extendqisi2
 1205 036a 03F00303 		and	r3, r3, #3
 469:lvgl\src\lv_draw/lv_draw_line.c ****         _lv_blend_fill(&fill_area, clip,
 1206              		.loc 1 469 0
 1207 036e BBF80020 		ldrh	r2, [fp]
 1208 0372 0293     		str	r3, [sp, #8]
 1209 0374 9BF80830 		ldrb	r3, [fp, #8]	@ zero_extendqisi2
 1210 0378 0193     		str	r3, [sp, #4]
 1211 037a 0223     		movs	r3, #2
 1212 037c 0093     		str	r3, [sp]
 1213 037e 4346     		mov	r3, r8
 1214 0380 0599     		ldr	r1, [sp, #20]
 1215 0382 0AA8     		add	r0, sp, #40
 1216 0384 FFF7FEFF 		bl	_lv_blend_fill
 1217              	.LVL176:
ARM GAS  C:\Users\strap\AppData\Local\Temp\ccjLHvYP.s 			page 33


 1218              	.L61:
 472:lvgl\src\lv_draw/lv_draw_line.c **** 
 473:lvgl\src\lv_draw/lv_draw_line.c ****     }
 474:lvgl\src\lv_draw/lv_draw_line.c **** 
 475:lvgl\src\lv_draw/lv_draw_line.c ****     _lv_mem_buf_release(mask_buf);
 1219              		.loc 1 475 0
 1220 0388 4046     		mov	r0, r8
 1221 038a FFF7FEFF 		bl	_lv_mem_buf_release
 1222              	.LVL177:
 476:lvgl\src\lv_draw/lv_draw_line.c **** 
 477:lvgl\src\lv_draw/lv_draw_line.c ****     lv_draw_mask_remove_id(mask_left_id);
 1223              		.loc 1 477 0
 1224 038e 0698     		ldr	r0, [sp, #24]
 1225 0390 FFF7FEFF 		bl	lv_draw_mask_remove_id
 1226              	.LVL178:
 478:lvgl\src\lv_draw/lv_draw_line.c ****     lv_draw_mask_remove_id(mask_right_id);
 1227              		.loc 1 478 0
 1228 0394 0898     		ldr	r0, [sp, #32]
 1229 0396 FFF7FEFF 		bl	lv_draw_mask_remove_id
 1230              	.LVL179:
 479:lvgl\src\lv_draw/lv_draw_line.c ****     lv_draw_mask_remove_id(mask_top_id);
 1231              		.loc 1 479 0
 1232 039a 0798     		ldr	r0, [sp, #28]
 1233 039c FFF7FEFF 		bl	lv_draw_mask_remove_id
 1234              	.LVL180:
 480:lvgl\src\lv_draw/lv_draw_line.c ****     lv_draw_mask_remove_id(mask_bottom_id);
 1235              		.loc 1 480 0
 1236 03a0 0998     		ldr	r0, [sp, #36]
 1237 03a2 FFF7FEFF 		bl	lv_draw_mask_remove_id
 1238              	.LVL181:
 1239              	.L45:
 481:lvgl\src\lv_draw/lv_draw_line.c **** }
 1240              		.loc 1 481 0
 1241 03a6 3DB0     		add	sp, sp, #244
 1242              		.cfi_def_cfa_offset 36
 1243              		@ sp needed
 1244 03a8 BDE8F08F 		pop	{r4, r5, r6, r7, r8, r9, r10, fp, pc}
 1245              		.cfi_endproc
 1246              	.LFE333:
 1247              		.size	draw_line_skew, .-draw_line_skew
 1248              		.section	.text.lv_draw_line_dsc_init,"ax",%progbits
 1249              		.align	2
 1250              		.global	lv_draw_line_dsc_init
 1251              		.thumb
 1252              		.thumb_func
 1253              		.type	lv_draw_line_dsc_init, %function
 1254              	lv_draw_line_dsc_init:
 1255              	.LFB329:
  50:lvgl\src\lv_draw/lv_draw_line.c ****     _lv_memset_00(dsc, sizeof(lv_draw_line_dsc_t));
 1256              		.loc 1 50 0
 1257              		.cfi_startproc
 1258              		@ args = 0, pretend = 0, frame = 0
 1259              		@ frame_needed = 0, uses_anonymous_args = 0
 1260              	.LVL182:
 1261 0000 10B5     		push	{r4, lr}
 1262              		.cfi_def_cfa_offset 8
 1263              		.cfi_offset 4, -8
ARM GAS  C:\Users\strap\AppData\Local\Temp\ccjLHvYP.s 			page 34


 1264              		.cfi_offset 14, -4
 1265 0002 0446     		mov	r4, r0
  51:lvgl\src\lv_draw/lv_draw_line.c ****     dsc->width = 1;
 1266              		.loc 1 51 0
 1267 0004 0A21     		movs	r1, #10
 1268 0006 FFF7FEFF 		bl	_lv_memset_00
 1269              	.LVL183:
  52:lvgl\src\lv_draw/lv_draw_line.c ****     dsc->opa = LV_OPA_COVER;
 1270              		.loc 1 52 0
 1271 000a 0123     		movs	r3, #1
 1272 000c 6380     		strh	r3, [r4, #2]	@ movhi
  53:lvgl\src\lv_draw/lv_draw_line.c ****     dsc->color = LV_COLOR_BLACK;
 1273              		.loc 1 53 0
 1274 000e FF23     		movs	r3, #255
 1275 0010 2372     		strb	r3, [r4, #8]
  54:lvgl\src\lv_draw/lv_draw_line.c **** }
 1276              		.loc 1 54 0
 1277 0012 0023     		movs	r3, #0
 1278 0014 2380     		strh	r3, [r4]	@ movhi
 1279 0016 10BD     		pop	{r4, pc}
 1280              		.cfi_endproc
 1281              	.LFE329:
 1282              		.size	lv_draw_line_dsc_init, .-lv_draw_line_dsc_init
 1283              		.section	.text.lv_draw_line,"ax",%progbits
 1284              		.align	2
 1285              		.global	lv_draw_line
 1286              		.thumb
 1287              		.thumb_func
 1288              		.type	lv_draw_line, %function
 1289              	lv_draw_line:
 1290              	.LFB330:
  66:lvgl\src\lv_draw/lv_draw_line.c ****     if(dsc->width == 0) return;
 1291              		.loc 1 66 0
 1292              		.cfi_startproc
 1293              		@ args = 0, pretend = 0, frame = 104
 1294              		@ frame_needed = 0, uses_anonymous_args = 0
 1295              	.LVL184:
 1296 0000 2DE9F043 		push	{r4, r5, r6, r7, r8, r9, lr}
 1297              		.cfi_def_cfa_offset 28
 1298              		.cfi_offset 4, -28
 1299              		.cfi_offset 5, -24
 1300              		.cfi_offset 6, -20
 1301              		.cfi_offset 7, -16
 1302              		.cfi_offset 8, -12
 1303              		.cfi_offset 9, -8
 1304              		.cfi_offset 14, -4
 1305 0004 9BB0     		sub	sp, sp, #108
 1306              		.cfi_def_cfa_offset 136
  67:lvgl\src\lv_draw/lv_draw_line.c ****     if(dsc->opa <= LV_OPA_MIN) return;
 1307              		.loc 1 67 0
 1308 0006 B3F90240 		ldrsh	r4, [r3, #2]
 1309 000a 002C     		cmp	r4, #0
 1310 000c 00F0BE80 		beq	.L69
  68:lvgl\src\lv_draw/lv_draw_line.c **** 
 1311              		.loc 1 68 0
 1312 0010 1D7A     		ldrb	r5, [r3, #8]	@ zero_extendqisi2
 1313 0012 022D     		cmp	r5, #2
ARM GAS  C:\Users\strap\AppData\Local\Temp\ccjLHvYP.s 			page 35


 1314 0014 40F2BA80 		bls	.L69
  70:lvgl\src\lv_draw/lv_draw_line.c **** 
 1315              		.loc 1 70 0
 1316 0018 B0F900E0 		ldrsh	lr, [r0]
 1317 001c B1F900C0 		ldrsh	ip, [r1]
 1318 0020 E645     		cmp	lr, ip
 1319 0022 06D1     		bne	.L71
  70:lvgl\src\lv_draw/lv_draw_line.c **** 
 1320              		.loc 1 70 0 is_stmt 0 discriminator 1
 1321 0024 B0F90260 		ldrsh	r6, [r0, #2]
 1322 0028 B1F90250 		ldrsh	r5, [r1, #2]
 1323 002c AE42     		cmp	r6, r5
 1324 002e 00F0AD80 		beq	.L69
 1325              	.L71:
 1326 0032 1D46     		mov	r5, r3
 1327 0034 9046     		mov	r8, r2
 1328 0036 0E46     		mov	r6, r1
 1329 0038 0746     		mov	r7, r0
  73:lvgl\src\lv_draw/lv_draw_line.c ****     clip_line.x2 = LV_MATH_MAX(point1->x, point2->x) + dsc->width / 2;
 1330              		.loc 1 73 0 is_stmt 1
 1331 003a 04EBD474 		add	r4, r4, r4, lsr #31
 1332 003e C4F34F04 		ubfx	r4, r4, #1, #16
 1333 0042 E645     		cmp	lr, ip
 1334 0044 D4BF     		ite	le
 1335 0046 C4EB0E0E 		rsble	lr, r4, lr
 1336 004a C4EB0C0E 		rsbgt	lr, r4, ip
 1337 004e ADF860E0 		strh	lr, [sp, #96]	@ movhi
  74:lvgl\src\lv_draw/lv_draw_line.c ****     clip_line.y1 = LV_MATH_MIN(point1->y, point2->y) - dsc->width / 2;
 1338              		.loc 1 74 0
 1339 0052 B1F90020 		ldrsh	r2, [r1]
 1340              	.LVL185:
 1341 0056 B0F90030 		ldrsh	r3, [r0]
 1342              	.LVL186:
 1343 005a 9A42     		cmp	r2, r3
 1344 005c ACBF     		ite	ge
 1345 005e A418     		addge	r4, r4, r2
 1346 0060 E418     		addlt	r4, r4, r3
 1347 0062 ADF86440 		strh	r4, [sp, #100]	@ movhi
  75:lvgl\src\lv_draw/lv_draw_line.c ****     clip_line.y2 = LV_MATH_MAX(point1->y, point2->y) + dsc->width / 2;
 1348              		.loc 1 75 0
 1349 0066 B1F90200 		ldrsh	r0, [r1, #2]
 1350              	.LVL187:
 1351 006a B7F90210 		ldrsh	r1, [r7, #2]
 1352              	.LVL188:
 1353 006e B5F90230 		ldrsh	r3, [r5, #2]
 1354 0072 03EBD372 		add	r2, r3, r3, lsr #31
 1355 0076 5310     		asrs	r3, r2, #1
 1356 0078 8842     		cmp	r0, r1
 1357 007a D4BF     		ite	le
 1358 007c C3EB0002 		rsble	r2, r3, r0
 1359 0080 C3EB0102 		rsbgt	r2, r3, r1
 1360 0084 ADF86220 		strh	r2, [sp, #98]	@ movhi
  76:lvgl\src\lv_draw/lv_draw_line.c **** 
 1361              		.loc 1 76 0
 1362 0088 8842     		cmp	r0, r1
 1363 008a ACBF     		ite	ge
 1364 008c 1B18     		addge	r3, r3, r0
ARM GAS  C:\Users\strap\AppData\Local\Temp\ccjLHvYP.s 			page 36


 1365 008e 5B18     		addlt	r3, r3, r1
 1366 0090 ADF86630 		strh	r3, [sp, #102]	@ movhi
  79:lvgl\src\lv_draw/lv_draw_line.c ****     if(!is_common) return;
 1367              		.loc 1 79 0
 1368 0094 4246     		mov	r2, r8
 1369 0096 18A9     		add	r1, sp, #96
 1370 0098 0846     		mov	r0, r1
 1371 009a FFF7FEFF 		bl	_lv_area_intersect
 1372              	.LVL189:
  80:lvgl\src\lv_draw/lv_draw_line.c **** 
 1373              		.loc 1 80 0
 1374 009e 0028     		cmp	r0, #0
 1375 00a0 74D0     		beq	.L69
  82:lvgl\src\lv_draw/lv_draw_line.c ****     else if(point1->x == point2->x) draw_line_ver(point1, point2, &clip_line, dsc);
 1376              		.loc 1 82 0
 1377 00a2 B7F90220 		ldrsh	r2, [r7, #2]
 1378 00a6 B6F90230 		ldrsh	r3, [r6, #2]
 1379 00aa 9A42     		cmp	r2, r3
 1380 00ac 06D1     		bne	.L72
  82:lvgl\src\lv_draw/lv_draw_line.c ****     else if(point1->x == point2->x) draw_line_ver(point1, point2, &clip_line, dsc);
 1381              		.loc 1 82 0 is_stmt 0 discriminator 1
 1382 00ae 2B46     		mov	r3, r5
 1383 00b0 18AA     		add	r2, sp, #96
 1384 00b2 3146     		mov	r1, r6
 1385 00b4 3846     		mov	r0, r7
 1386              	.LVL190:
 1387 00b6 FFF7FEFF 		bl	draw_line_hor
 1388              	.LVL191:
 1389 00ba 12E0     		b	.L73
 1390              	.LVL192:
 1391              	.L72:
  83:lvgl\src\lv_draw/lv_draw_line.c ****     else draw_line_skew(point1, point2, &clip_line, dsc);
 1392              		.loc 1 83 0 is_stmt 1
 1393 00bc B7F90020 		ldrsh	r2, [r7]
 1394 00c0 B6F90030 		ldrsh	r3, [r6]
 1395 00c4 9A42     		cmp	r2, r3
 1396 00c6 06D1     		bne	.L74
  83:lvgl\src\lv_draw/lv_draw_line.c ****     else draw_line_skew(point1, point2, &clip_line, dsc);
 1397              		.loc 1 83 0 is_stmt 0 discriminator 1
 1398 00c8 2B46     		mov	r3, r5
 1399 00ca 18AA     		add	r2, sp, #96
 1400 00cc 3146     		mov	r1, r6
 1401 00ce 3846     		mov	r0, r7
 1402              	.LVL193:
 1403 00d0 FFF7FEFF 		bl	draw_line_ver
 1404              	.LVL194:
 1405 00d4 05E0     		b	.L73
 1406              	.LVL195:
 1407              	.L74:
  84:lvgl\src\lv_draw/lv_draw_line.c **** 
 1408              		.loc 1 84 0 is_stmt 1
 1409 00d6 2B46     		mov	r3, r5
 1410 00d8 18AA     		add	r2, sp, #96
 1411 00da 3146     		mov	r1, r6
 1412 00dc 3846     		mov	r0, r7
 1413              	.LVL196:
 1414 00de FFF7FEFF 		bl	draw_line_skew
ARM GAS  C:\Users\strap\AppData\Local\Temp\ccjLHvYP.s 			page 37


 1415              	.LVL197:
 1416              	.L73:
  87:lvgl\src\lv_draw/lv_draw_line.c ****         lv_draw_rect_dsc_t cir_dsc;
 1417              		.loc 1 87 0
 1418 00e2 6B7A     		ldrb	r3, [r5, #9]	@ zero_extendqisi2
 1419 00e4 13F00C0F 		tst	r3, #12
 1420 00e8 50D0     		beq	.L69
 1421              	.LBB29:
  89:lvgl\src\lv_draw/lv_draw_line.c ****         cir_dsc.bg_color = dsc->color;
 1422              		.loc 1 89 0
 1423 00ea 03A8     		add	r0, sp, #12
 1424 00ec FFF7FEFF 		bl	lv_draw_rect_dsc_init
 1425              	.LVL198:
  90:lvgl\src\lv_draw/lv_draw_line.c ****         cir_dsc.radius = LV_RADIUS_CIRCLE;
 1426              		.loc 1 90 0
 1427 00f0 2B88     		ldrh	r3, [r5]
 1428 00f2 ADF80E30 		strh	r3, [sp, #14]	@ movhi
  91:lvgl\src\lv_draw/lv_draw_line.c ****         cir_dsc.bg_opa = dsc->opa;
 1429              		.loc 1 91 0
 1430 00f6 47F6FF73 		movw	r3, #32767
 1431 00fa ADF80C30 		strh	r3, [sp, #12]	@ movhi
  92:lvgl\src\lv_draw/lv_draw_line.c **** 
 1432              		.loc 1 92 0
 1433 00fe 2B7A     		ldrb	r3, [r5, #8]	@ zero_extendqisi2
 1434 0100 8DF81830 		strb	r3, [sp, #24]
  94:lvgl\src\lv_draw/lv_draw_line.c ****         int32_t r_corr = (dsc->width & 1) ? 0 : 1;
 1435              		.loc 1 94 0
 1436 0104 B5F90230 		ldrsh	r3, [r5, #2]
 1437 0108 5C10     		asrs	r4, r3, #1
 1438              	.LVL199:
  95:lvgl\src\lv_draw/lv_draw_line.c ****         lv_area_t cir_area;
 1439              		.loc 1 95 0
 1440 010a 9BB2     		uxth	r3, r3
 1441 010c 83F00103 		eor	r3, r3, #1
 1442 0110 03F00109 		and	r9, r3, #1
 1443              	.LVL200:
  98:lvgl\src\lv_draw/lv_draw_line.c ****             cir_area.x1 = point1->x - r;
 1444              		.loc 1 98 0
 1445 0114 6B7A     		ldrb	r3, [r5, #9]	@ zero_extendqisi2
 1446 0116 13F0040F 		tst	r3, #4
 1447 011a 19D0     		beq	.L76
  99:lvgl\src\lv_draw/lv_draw_line.c ****             cir_area.y1 = point1->y - r;
 1448              		.loc 1 99 0
 1449 011c B7F90020 		ldrsh	r2, [r7]
 1450 0120 A0B2     		uxth	r0, r4
 1451 0122 131A     		subs	r3, r2, r0
 1452 0124 ADF80430 		strh	r3, [sp, #4]	@ movhi
 100:lvgl\src\lv_draw/lv_draw_line.c ****             cir_area.x2 = point1->x + r - r_corr;
 1453              		.loc 1 100 0
 1454 0128 B7F90230 		ldrsh	r3, [r7, #2]
 1455 012c 191A     		subs	r1, r3, r0
 1456 012e ADF80610 		strh	r1, [sp, #6]	@ movhi
 101:lvgl\src\lv_draw/lv_draw_line.c ****             cir_area.y2 = point1->y + r - r_corr ;
 1457              		.loc 1 101 0
 1458 0132 1FFA89F1 		uxth	r1, r9
 1459 0136 0244     		add	r2, r2, r0
 1460 0138 521A     		subs	r2, r2, r1
ARM GAS  C:\Users\strap\AppData\Local\Temp\ccjLHvYP.s 			page 38


 1461 013a ADF80820 		strh	r2, [sp, #8]	@ movhi
 102:lvgl\src\lv_draw/lv_draw_line.c ****             lv_draw_rect(&cir_area, clip, &cir_dsc);
 1462              		.loc 1 102 0
 1463 013e 0344     		add	r3, r3, r0
 1464 0140 5B1A     		subs	r3, r3, r1
 1465 0142 ADF80A30 		strh	r3, [sp, #10]	@ movhi
 103:lvgl\src\lv_draw/lv_draw_line.c ****         }
 1466              		.loc 1 103 0
 1467 0146 03AA     		add	r2, sp, #12
 1468 0148 4146     		mov	r1, r8
 1469 014a 01A8     		add	r0, sp, #4
 1470 014c FFF7FEFF 		bl	lv_draw_rect
 1471              	.LVL201:
 1472              	.L76:
 106:lvgl\src\lv_draw/lv_draw_line.c ****             cir_area.x1 = point2->x - r;
 1473              		.loc 1 106 0
 1474 0150 6B7A     		ldrb	r3, [r5, #9]	@ zero_extendqisi2
 1475 0152 13F0080F 		tst	r3, #8
 1476 0156 19D0     		beq	.L69
 107:lvgl\src\lv_draw/lv_draw_line.c ****             cir_area.y1 = point2->y - r;
 1477              		.loc 1 107 0
 1478 0158 B6F90010 		ldrsh	r1, [r6]
 1479 015c A4B2     		uxth	r4, r4
 1480 015e 0B1B     		subs	r3, r1, r4
 1481 0160 ADF80430 		strh	r3, [sp, #4]	@ movhi
 108:lvgl\src\lv_draw/lv_draw_line.c ****             cir_area.x2 = point2->x + r - r_corr;
 1482              		.loc 1 108 0
 1483 0164 B6F90220 		ldrsh	r2, [r6, #2]
 1484 0168 131B     		subs	r3, r2, r4
 1485 016a ADF80630 		strh	r3, [sp, #6]	@ movhi
 109:lvgl\src\lv_draw/lv_draw_line.c ****             cir_area.y2 = point2->y + r - r_corr ;
 1486              		.loc 1 109 0
 1487 016e 1FFA89F3 		uxth	r3, r9
 1488 0172 2144     		add	r1, r1, r4
 1489 0174 C91A     		subs	r1, r1, r3
 1490 0176 ADF80810 		strh	r1, [sp, #8]	@ movhi
 110:lvgl\src\lv_draw/lv_draw_line.c ****             lv_draw_rect(&cir_area, clip, &cir_dsc);
 1491              		.loc 1 110 0
 1492 017a 1444     		add	r4, r4, r2
 1493              	.LVL202:
 1494 017c E31A     		subs	r3, r4, r3
 1495 017e ADF80A30 		strh	r3, [sp, #10]	@ movhi
 111:lvgl\src\lv_draw/lv_draw_line.c ****         }
 1496              		.loc 1 111 0
 1497 0182 03AA     		add	r2, sp, #12
 1498 0184 4146     		mov	r1, r8
 1499 0186 01A8     		add	r0, sp, #4
 1500 0188 FFF7FEFF 		bl	lv_draw_rect
 1501              	.LVL203:
 1502              	.L69:
 1503              	.LBE29:
 114:lvgl\src\lv_draw/lv_draw_line.c **** 
 1504              		.loc 1 114 0
 1505 018c 1BB0     		add	sp, sp, #108
 1506              		.cfi_def_cfa_offset 28
 1507              		@ sp needed
 1508 018e BDE8F083 		pop	{r4, r5, r6, r7, r8, r9, pc}
ARM GAS  C:\Users\strap\AppData\Local\Temp\ccjLHvYP.s 			page 39


 1509              		.cfi_endproc
 1510              	.LFE330:
 1511              		.size	lv_draw_line, .-lv_draw_line
 1512 0192 00BF     		.section	.rodata
 1513              		.align	2
 1514              		.set	.LANCHOR0,. + 0
 1515              		.type	wcorr.9285, %object
 1516              		.size	wcorr.9285, 33
 1517              	wcorr.9285:
 1518 0000 80       		.byte	-128
 1519 0001 80       		.byte	-128
 1520 0002 80       		.byte	-128
 1521 0003 81       		.byte	-127
 1522 0004 81       		.byte	-127
 1523 0005 82       		.byte	-126
 1524 0006 82       		.byte	-126
 1525 0007 83       		.byte	-125
 1526 0008 84       		.byte	-124
 1527 0009 85       		.byte	-123
 1528 000a 86       		.byte	-122
 1529 000b 87       		.byte	-121
 1530 000c 89       		.byte	-119
 1531 000d 8A       		.byte	-118
 1532 000e 8C       		.byte	-116
 1533 000f 8D       		.byte	-115
 1534 0010 8F       		.byte	-113
 1535 0011 91       		.byte	-111
 1536 0012 93       		.byte	-109
 1537 0013 95       		.byte	-107
 1538 0014 97       		.byte	-105
 1539 0015 99       		.byte	-103
 1540 0016 9B       		.byte	-101
 1541 0017 9E       		.byte	-98
 1542 0018 A0       		.byte	-96
 1543 0019 A2       		.byte	-94
 1544 001a A5       		.byte	-91
 1545 001b A7       		.byte	-89
 1546 001c AA       		.byte	-86
 1547 001d AD       		.byte	-83
 1548 001e AF       		.byte	-81
 1549 001f B2       		.byte	-78
 1550 0020 B5       		.byte	-75
 1551              		.text
 1552              	.Letext0:
 1553              		.file 3 "c:\\program files (x86)\\cypress\\psoc creator\\4.4\\psoc creator\\import\\gnu\\arm\\5.4.
 1554              		.file 4 "c:\\program files (x86)\\cypress\\psoc creator\\4.4\\psoc creator\\import\\gnu\\arm\\5.4.
 1555              		.file 5 "c:\\program files (x86)\\cypress\\psoc creator\\4.4\\psoc creator\\import\\gnu\\arm\\5.4.
 1556              		.file 6 "lvgl\\src\\lv_draw\\../lv_misc/../../../lv_conf.h"
 1557              		.file 7 "lvgl\\src\\lv_draw\\../lv_misc/lv_types.h"
 1558              		.file 8 "lvgl\\src\\lv_draw\\../lv_misc/lv_color.h"
 1559              		.file 9 "lvgl\\src\\lv_draw\\lv_draw_mask.h"
 1560              		.file 10 "lvgl\\src\\lv_draw\\lv_draw_blend.h"
 1561              		.file 11 "lvgl\\src\\lv_draw\\../lv_core/../lv_font/lv_font.h"
 1562              		.file 12 "lvgl\\src\\lv_draw\\../lv_core/lv_style.h"
 1563              		.file 13 "lvgl\\src\\lv_draw\\../lv_core/../lv_hal/../lv_misc/lv_ll.h"
 1564              		.file 14 "lvgl\\src\\lv_draw\\../lv_core/../lv_hal/../lv_misc/lv_task.h"
 1565              		.file 15 "lvgl\\src\\lv_draw\\../lv_core/../lv_hal/lv_hal_disp.h"
ARM GAS  C:\Users\strap\AppData\Local\Temp\ccjLHvYP.s 			page 40


 1566              		.file 16 "lvgl\\src\\lv_draw\\../lv_core/lv_obj.h"
 1567              		.file 17 "lvgl\\src\\lv_draw\\../lv_core/../lv_hal/lv_hal_indev.h"
 1568              		.file 18 "lvgl\\src\\lv_draw\\../lv_core/../lv_draw/lv_draw_rect.h"
 1569              		.file 19 "lvgl\\src\\lv_draw\\../lv_core/../lv_draw/../lv_misc/lv_bidi.h"
 1570              		.file 20 "lvgl\\src\\lv_draw\\../lv_core/../lv_draw/lv_draw_line.h"
 1571              		.file 21 "lvgl\\src\\lv_draw\\../lv_misc/lv_mem.h"
 1572              		.file 22 "lvgl\\src\\lv_draw\\../lv_core/lv_refr.h"