ARM GAS  C:\Users\strap\AppData\Local\Temp\ccsTbppz.s 			page 1


   1              		.syntax unified
   2              		.cpu cortex-m3
   3              		.fpu softvfp
   4              		.eabi_attribute 20, 1
   5              		.eabi_attribute 21, 1
   6              		.eabi_attribute 23, 3
   7              		.eabi_attribute 24, 1
   8              		.eabi_attribute 25, 1
   9              		.eabi_attribute 26, 1
  10              		.eabi_attribute 30, 1
  11              		.eabi_attribute 34, 1
  12              		.eabi_attribute 18, 4
  13              		.thumb
  14              		.syntax unified
  15              		.file	"lv_draw_rect.c"
  16              		.text
  17              	.Ltext0:
  18              		.cfi_sections	.debug_frame
  19              		.section	.text.shadow_blur_corner,"ax",%progbits
  20              		.align	2
  21              		.thumb
  22              		.thumb_func
  23              		.type	shadow_blur_corner, %function
  24              	shadow_blur_corner:
  25              	.LFB336:
  26              		.file 1 "lvgl\\src\\lv_draw\\lv_draw_rect.c"
   1:lvgl\src\lv_draw/lv_draw_rect.c **** /**
   2:lvgl\src\lv_draw/lv_draw_rect.c ****  * @file lv_draw_rect.c
   3:lvgl\src\lv_draw/lv_draw_rect.c ****  *
   4:lvgl\src\lv_draw/lv_draw_rect.c ****  */
   5:lvgl\src\lv_draw/lv_draw_rect.c **** 
   6:lvgl\src\lv_draw/lv_draw_rect.c **** /*********************
   7:lvgl\src\lv_draw/lv_draw_rect.c ****  *      INCLUDES
   8:lvgl\src\lv_draw/lv_draw_rect.c ****  *********************/
   9:lvgl\src\lv_draw/lv_draw_rect.c **** #include "lv_draw_rect.h"
  10:lvgl\src\lv_draw/lv_draw_rect.c **** #include "lv_draw_blend.h"
  11:lvgl\src\lv_draw/lv_draw_rect.c **** #include "lv_draw_mask.h"
  12:lvgl\src\lv_draw/lv_draw_rect.c **** #include "../lv_misc/lv_math.h"
  13:lvgl\src\lv_draw/lv_draw_rect.c **** #include "../lv_core/lv_refr.h"
  14:lvgl\src\lv_draw/lv_draw_rect.c **** #include "../lv_misc/lv_debug.h"
  15:lvgl\src\lv_draw/lv_draw_rect.c **** 
  16:lvgl\src\lv_draw/lv_draw_rect.c **** /*********************
  17:lvgl\src\lv_draw/lv_draw_rect.c ****  *      DEFINES
  18:lvgl\src\lv_draw/lv_draw_rect.c ****  *********************/
  19:lvgl\src\lv_draw/lv_draw_rect.c **** #define SHADOW_UPSACALE_SHIFT   6
  20:lvgl\src\lv_draw/lv_draw_rect.c **** #define SHADOW_ENHANCE          1
  21:lvgl\src\lv_draw/lv_draw_rect.c **** #define SPLIT_LIMIT             50
  22:lvgl\src\lv_draw/lv_draw_rect.c **** 
  23:lvgl\src\lv_draw/lv_draw_rect.c **** /**********************
  24:lvgl\src\lv_draw/lv_draw_rect.c ****  *      TYPEDEFS
  25:lvgl\src\lv_draw/lv_draw_rect.c ****  **********************/
  26:lvgl\src\lv_draw/lv_draw_rect.c **** 
  27:lvgl\src\lv_draw/lv_draw_rect.c **** /**********************
  28:lvgl\src\lv_draw/lv_draw_rect.c ****  *  STATIC PROTOTYPES
  29:lvgl\src\lv_draw/lv_draw_rect.c ****  **********************/
  30:lvgl\src\lv_draw/lv_draw_rect.c **** LV_ATTRIBUTE_FAST_MEM static void draw_bg(const lv_area_t * coords, const lv_area_t * clip,
  31:lvgl\src\lv_draw/lv_draw_rect.c ****                                           const lv_draw_rect_dsc_t * dsc);
ARM GAS  C:\Users\strap\AppData\Local\Temp\ccsTbppz.s 			page 2


  32:lvgl\src\lv_draw/lv_draw_rect.c **** LV_ATTRIBUTE_FAST_MEM static void draw_border(const lv_area_t * coords, const lv_area_t * clip,
  33:lvgl\src\lv_draw/lv_draw_rect.c ****                                               const lv_draw_rect_dsc_t * dsc);
  34:lvgl\src\lv_draw/lv_draw_rect.c **** 
  35:lvgl\src\lv_draw/lv_draw_rect.c **** #if LV_USE_OUTLINE
  36:lvgl\src\lv_draw/lv_draw_rect.c ****     static void draw_outline(const lv_area_t * coords, const lv_area_t * clip, const lv_draw_rect_d
  37:lvgl\src\lv_draw/lv_draw_rect.c **** #endif
  38:lvgl\src\lv_draw/lv_draw_rect.c **** #if LV_USE_SHADOW
  39:lvgl\src\lv_draw/lv_draw_rect.c **** LV_ATTRIBUTE_FAST_MEM static void draw_shadow(const lv_area_t * coords, const lv_area_t * clip,
  40:lvgl\src\lv_draw/lv_draw_rect.c ****                                               const lv_draw_rect_dsc_t * dsc);
  41:lvgl\src\lv_draw/lv_draw_rect.c **** LV_ATTRIBUTE_FAST_MEM static void shadow_draw_corner_buf(const lv_area_t * coords,  uint16_t * sh_b
  42:lvgl\src\lv_draw/lv_draw_rect.c ****                                                          lv_coord_t r);
  43:lvgl\src\lv_draw/lv_draw_rect.c **** LV_ATTRIBUTE_FAST_MEM static void shadow_blur_corner(lv_coord_t size, lv_coord_t sw, uint16_t * sh_
  44:lvgl\src\lv_draw/lv_draw_rect.c **** #endif
  45:lvgl\src\lv_draw/lv_draw_rect.c **** 
  46:lvgl\src\lv_draw/lv_draw_rect.c **** #if LV_USE_PATTERN
  47:lvgl\src\lv_draw/lv_draw_rect.c ****     static void draw_pattern(const lv_area_t * coords, const lv_area_t * clip, const lv_draw_rect_d
  48:lvgl\src\lv_draw/lv_draw_rect.c **** #endif
  49:lvgl\src\lv_draw/lv_draw_rect.c **** 
  50:lvgl\src\lv_draw/lv_draw_rect.c **** #if LV_USE_VALUE_STR
  51:lvgl\src\lv_draw/lv_draw_rect.c ****     static void draw_value_str(const lv_area_t * coords, const lv_area_t * clip, const lv_draw_rect
  52:lvgl\src\lv_draw/lv_draw_rect.c **** #endif
  53:lvgl\src\lv_draw/lv_draw_rect.c **** static void draw_full_border(const lv_area_t * area_inner, const lv_area_t * area_outer, const lv_a
  54:lvgl\src\lv_draw/lv_draw_rect.c ****                                  lv_coord_t radius, bool radius_is_in, lv_color_t color, lv_opa_t o
  55:lvgl\src\lv_draw/lv_draw_rect.c **** LV_ATTRIBUTE_FAST_MEM static inline lv_color_t grad_get(const lv_draw_rect_dsc_t * dsc, lv_coord_t 
  56:lvgl\src\lv_draw/lv_draw_rect.c **** 
  57:lvgl\src\lv_draw/lv_draw_rect.c **** /**********************
  58:lvgl\src\lv_draw/lv_draw_rect.c ****  *  STATIC VARIABLES
  59:lvgl\src\lv_draw/lv_draw_rect.c ****  **********************/
  60:lvgl\src\lv_draw/lv_draw_rect.c **** #if LV_USE_SHADOW && LV_SHADOW_CACHE_SIZE
  61:lvgl\src\lv_draw/lv_draw_rect.c ****     static uint8_t sh_cache[LV_SHADOW_CACHE_SIZE * LV_SHADOW_CACHE_SIZE];
  62:lvgl\src\lv_draw/lv_draw_rect.c ****     static int32_t sh_cache_size = -1;
  63:lvgl\src\lv_draw/lv_draw_rect.c ****     static int32_t sh_cache_r = -1;
  64:lvgl\src\lv_draw/lv_draw_rect.c **** #endif
  65:lvgl\src\lv_draw/lv_draw_rect.c **** 
  66:lvgl\src\lv_draw/lv_draw_rect.c **** /**********************
  67:lvgl\src\lv_draw/lv_draw_rect.c ****  *      MACROS
  68:lvgl\src\lv_draw/lv_draw_rect.c ****  **********************/
  69:lvgl\src\lv_draw/lv_draw_rect.c **** 
  70:lvgl\src\lv_draw/lv_draw_rect.c **** /**********************
  71:lvgl\src\lv_draw/lv_draw_rect.c ****  *   GLOBAL FUNCTIONS
  72:lvgl\src\lv_draw/lv_draw_rect.c ****  **********************/
  73:lvgl\src\lv_draw/lv_draw_rect.c **** 
  74:lvgl\src\lv_draw/lv_draw_rect.c **** LV_ATTRIBUTE_FAST_MEM void lv_draw_rect_dsc_init(lv_draw_rect_dsc_t * dsc)
  75:lvgl\src\lv_draw/lv_draw_rect.c **** {
  76:lvgl\src\lv_draw/lv_draw_rect.c ****     _lv_memset_00(dsc, sizeof(lv_draw_rect_dsc_t));
  77:lvgl\src\lv_draw/lv_draw_rect.c ****     dsc->bg_color = LV_COLOR_WHITE;
  78:lvgl\src\lv_draw/lv_draw_rect.c ****     dsc->bg_grad_color = LV_COLOR_BLACK;
  79:lvgl\src\lv_draw/lv_draw_rect.c ****     dsc->border_color = LV_COLOR_BLACK;
  80:lvgl\src\lv_draw/lv_draw_rect.c ****     dsc->pattern_recolor = LV_COLOR_BLACK;
  81:lvgl\src\lv_draw/lv_draw_rect.c ****     dsc->value_color = LV_COLOR_BLACK;
  82:lvgl\src\lv_draw/lv_draw_rect.c ****     dsc->shadow_color = LV_COLOR_BLACK;
  83:lvgl\src\lv_draw/lv_draw_rect.c ****     dsc->bg_grad_color_stop = 0xFF;
  84:lvgl\src\lv_draw/lv_draw_rect.c ****     dsc->bg_opa = LV_OPA_COVER;
  85:lvgl\src\lv_draw/lv_draw_rect.c ****     dsc->outline_opa = LV_OPA_COVER;
  86:lvgl\src\lv_draw/lv_draw_rect.c ****     dsc->border_opa = LV_OPA_COVER;
  87:lvgl\src\lv_draw/lv_draw_rect.c ****     dsc->pattern_opa = LV_OPA_COVER;
  88:lvgl\src\lv_draw/lv_draw_rect.c ****     dsc->pattern_font = LV_THEME_DEFAULT_FONT_NORMAL;
ARM GAS  C:\Users\strap\AppData\Local\Temp\ccsTbppz.s 			page 3


  89:lvgl\src\lv_draw/lv_draw_rect.c ****     dsc->value_opa = LV_OPA_COVER;
  90:lvgl\src\lv_draw/lv_draw_rect.c ****     dsc->value_font = LV_THEME_DEFAULT_FONT_NORMAL;
  91:lvgl\src\lv_draw/lv_draw_rect.c ****     dsc->shadow_opa = LV_OPA_COVER;
  92:lvgl\src\lv_draw/lv_draw_rect.c ****     dsc->border_side = LV_BORDER_SIDE_FULL;
  93:lvgl\src\lv_draw/lv_draw_rect.c **** 
  94:lvgl\src\lv_draw/lv_draw_rect.c **** }
  95:lvgl\src\lv_draw/lv_draw_rect.c **** 
  96:lvgl\src\lv_draw/lv_draw_rect.c **** /**
  97:lvgl\src\lv_draw/lv_draw_rect.c ****  * Draw a rectangle
  98:lvgl\src\lv_draw/lv_draw_rect.c ****  * @param coords the coordinates of the rectangle
  99:lvgl\src\lv_draw/lv_draw_rect.c ****  * @param mask the rectangle will be drawn only in this mask
 100:lvgl\src\lv_draw/lv_draw_rect.c ****  * @param dsc pointer to an initialized `lv_draw_rect_dsc_t` variable
 101:lvgl\src\lv_draw/lv_draw_rect.c ****  */
 102:lvgl\src\lv_draw/lv_draw_rect.c **** void lv_draw_rect(const lv_area_t * coords, const lv_area_t * clip, const lv_draw_rect_dsc_t * dsc)
 103:lvgl\src\lv_draw/lv_draw_rect.c **** {
 104:lvgl\src\lv_draw/lv_draw_rect.c ****     if(lv_area_get_height(coords) < 1 || lv_area_get_width(coords) < 1) return;
 105:lvgl\src\lv_draw/lv_draw_rect.c **** #if LV_USE_SHADOW
 106:lvgl\src\lv_draw/lv_draw_rect.c ****     draw_shadow(coords, clip, dsc);
 107:lvgl\src\lv_draw/lv_draw_rect.c **** #endif
 108:lvgl\src\lv_draw/lv_draw_rect.c **** 
 109:lvgl\src\lv_draw/lv_draw_rect.c ****     draw_bg(coords, clip, dsc);
 110:lvgl\src\lv_draw/lv_draw_rect.c **** 
 111:lvgl\src\lv_draw/lv_draw_rect.c **** #if LV_USE_PATTERN
 112:lvgl\src\lv_draw/lv_draw_rect.c ****     draw_pattern(coords, clip, dsc);
 113:lvgl\src\lv_draw/lv_draw_rect.c **** #endif
 114:lvgl\src\lv_draw/lv_draw_rect.c ****     draw_border(coords, clip, dsc);
 115:lvgl\src\lv_draw/lv_draw_rect.c **** 
 116:lvgl\src\lv_draw/lv_draw_rect.c **** #if LV_USE_VALUE_STR
 117:lvgl\src\lv_draw/lv_draw_rect.c ****     draw_value_str(coords, clip, dsc);
 118:lvgl\src\lv_draw/lv_draw_rect.c **** #endif
 119:lvgl\src\lv_draw/lv_draw_rect.c **** 
 120:lvgl\src\lv_draw/lv_draw_rect.c **** #if LV_USE_OUTLINE
 121:lvgl\src\lv_draw/lv_draw_rect.c ****     draw_outline(coords, clip, dsc);
 122:lvgl\src\lv_draw/lv_draw_rect.c **** #endif
 123:lvgl\src\lv_draw/lv_draw_rect.c **** 
 124:lvgl\src\lv_draw/lv_draw_rect.c ****     LV_ASSERT_MEM_INTEGRITY();
 125:lvgl\src\lv_draw/lv_draw_rect.c **** }
 126:lvgl\src\lv_draw/lv_draw_rect.c **** 
 127:lvgl\src\lv_draw/lv_draw_rect.c **** /**
 128:lvgl\src\lv_draw/lv_draw_rect.c ****  * Draw a pixel
 129:lvgl\src\lv_draw/lv_draw_rect.c ****  * @param point the coordinates of the point to draw
 130:lvgl\src\lv_draw/lv_draw_rect.c ****  * @param mask the pixel will be drawn only in this mask
 131:lvgl\src\lv_draw/lv_draw_rect.c ****  * @param style pointer to a style
 132:lvgl\src\lv_draw/lv_draw_rect.c ****  * @param opa_scale scale down the opacity by the factor
 133:lvgl\src\lv_draw/lv_draw_rect.c ****  */
 134:lvgl\src\lv_draw/lv_draw_rect.c **** void lv_draw_px(const lv_point_t * point, const lv_area_t * clip_area, const lv_style_t * style)
 135:lvgl\src\lv_draw/lv_draw_rect.c **** {
 136:lvgl\src\lv_draw/lv_draw_rect.c ****     LV_UNUSED(point);
 137:lvgl\src\lv_draw/lv_draw_rect.c ****     LV_UNUSED(clip_area);
 138:lvgl\src\lv_draw/lv_draw_rect.c ****     LV_UNUSED(style);
 139:lvgl\src\lv_draw/lv_draw_rect.c ****     //    lv_opa_t opa = style->body.opa;
 140:lvgl\src\lv_draw/lv_draw_rect.c ****     //    if(opa_scale != LV_OPA_COVER) opa = (opa * opa_scale) >> 8;
 141:lvgl\src\lv_draw/lv_draw_rect.c ****     //
 142:lvgl\src\lv_draw/lv_draw_rect.c ****     //    if(opa > LV_OPA_MAX) opa = LV_OPA_COVER;
 143:lvgl\src\lv_draw/lv_draw_rect.c ****     //
 144:lvgl\src\lv_draw/lv_draw_rect.c ****     //    lv_area_t fill_area;
 145:lvgl\src\lv_draw/lv_draw_rect.c ****     //    fill_area.x1 = point->x;
ARM GAS  C:\Users\strap\AppData\Local\Temp\ccsTbppz.s 			page 4


 146:lvgl\src\lv_draw/lv_draw_rect.c ****     //    fill_area.y1 = point->y;
 147:lvgl\src\lv_draw/lv_draw_rect.c ****     //    fill_area.x2 = point->x;
 148:lvgl\src\lv_draw/lv_draw_rect.c ****     //    fill_area.y2 = point->y;
 149:lvgl\src\lv_draw/lv_draw_rect.c ****     //
 150:lvgl\src\lv_draw/lv_draw_rect.c ****     //    uint8_t mask_cnt = lv_draw_mask_get_cnt();
 151:lvgl\src\lv_draw/lv_draw_rect.c ****     //
 152:lvgl\src\lv_draw/lv_draw_rect.c ****     //    if(mask_cnt == 0) {
 153:lvgl\src\lv_draw/lv_draw_rect.c ****     //        lv_blend_fill(clip_area, &fill_area, style->body.main_color, NULL, LV_DRAW_MASK_RES_F
 154:lvgl\src\lv_draw/lv_draw_rect.c ****     //    } else {
 155:lvgl\src\lv_draw/lv_draw_rect.c ****     //        uint8_t mask_buf;
 156:lvgl\src\lv_draw/lv_draw_rect.c ****     //        lv_draw_mask_res_t mask_res;
 157:lvgl\src\lv_draw/lv_draw_rect.c ****     //        mask_res = lv_draw_mask_apply(&mask_buf, point->x, point->y, 1);
 158:lvgl\src\lv_draw/lv_draw_rect.c ****     //        lv_blend_fill(clip_area, &fill_area, style->body.main_color, &mask_buf, mask_res, opa
 159:lvgl\src\lv_draw/lv_draw_rect.c ****     //    }
 160:lvgl\src\lv_draw/lv_draw_rect.c **** }
 161:lvgl\src\lv_draw/lv_draw_rect.c **** 
 162:lvgl\src\lv_draw/lv_draw_rect.c **** /**********************
 163:lvgl\src\lv_draw/lv_draw_rect.c ****  *   STATIC FUNCTIONS
 164:lvgl\src\lv_draw/lv_draw_rect.c ****  **********************/
 165:lvgl\src\lv_draw/lv_draw_rect.c **** 
 166:lvgl\src\lv_draw/lv_draw_rect.c **** LV_ATTRIBUTE_FAST_MEM static void draw_bg(const lv_area_t * coords, const lv_area_t * clip,
 167:lvgl\src\lv_draw/lv_draw_rect.c ****                                           const lv_draw_rect_dsc_t * dsc)
 168:lvgl\src\lv_draw/lv_draw_rect.c **** {
 169:lvgl\src\lv_draw/lv_draw_rect.c ****     if(dsc->bg_opa <= LV_OPA_MIN) return;
 170:lvgl\src\lv_draw/lv_draw_rect.c **** 
 171:lvgl\src\lv_draw/lv_draw_rect.c ****     lv_area_t coords_bg;
 172:lvgl\src\lv_draw/lv_draw_rect.c ****     lv_area_copy(&coords_bg, coords);
 173:lvgl\src\lv_draw/lv_draw_rect.c **** 
 174:lvgl\src\lv_draw/lv_draw_rect.c ****     /*If the border fully covers make the bg area 1px smaller to avoid artifacts on the corners*/
 175:lvgl\src\lv_draw/lv_draw_rect.c ****     if(dsc->border_width > 1 && dsc->border_opa >= LV_OPA_MAX && dsc->radius != 0) {
 176:lvgl\src\lv_draw/lv_draw_rect.c ****         coords_bg.x1 += (dsc->border_side & LV_BORDER_SIDE_LEFT) ? 1 : 0;
 177:lvgl\src\lv_draw/lv_draw_rect.c ****         coords_bg.y1 += (dsc->border_side & LV_BORDER_SIDE_TOP) ? 1 : 0;
 178:lvgl\src\lv_draw/lv_draw_rect.c ****         coords_bg.x2 -= (dsc->border_side & LV_BORDER_SIDE_RIGHT) ? 1 : 0;
 179:lvgl\src\lv_draw/lv_draw_rect.c ****         coords_bg.y2 -= (dsc->border_side & LV_BORDER_SIDE_BOTTOM) ? 1 : 0;
 180:lvgl\src\lv_draw/lv_draw_rect.c ****     }
 181:lvgl\src\lv_draw/lv_draw_rect.c **** 
 182:lvgl\src\lv_draw/lv_draw_rect.c ****     lv_opa_t opa = dsc->bg_opa;
 183:lvgl\src\lv_draw/lv_draw_rect.c **** 
 184:lvgl\src\lv_draw/lv_draw_rect.c ****     if(opa > LV_OPA_MAX) opa = LV_OPA_COVER;
 185:lvgl\src\lv_draw/lv_draw_rect.c **** 
 186:lvgl\src\lv_draw/lv_draw_rect.c ****     lv_disp_t * disp    = _lv_refr_get_disp_refreshing();
 187:lvgl\src\lv_draw/lv_draw_rect.c ****     lv_disp_buf_t * vdb = lv_disp_get_buf(disp);
 188:lvgl\src\lv_draw/lv_draw_rect.c **** 
 189:lvgl\src\lv_draw/lv_draw_rect.c ****     /* Get clipped fill area which is the real draw area.
 190:lvgl\src\lv_draw/lv_draw_rect.c ****      * It is always the same or inside `fill_area` */
 191:lvgl\src\lv_draw/lv_draw_rect.c ****     lv_area_t draw_area;
 192:lvgl\src\lv_draw/lv_draw_rect.c ****     bool is_common;
 193:lvgl\src\lv_draw/lv_draw_rect.c ****     is_common = _lv_area_intersect(&draw_area, &coords_bg, clip);
 194:lvgl\src\lv_draw/lv_draw_rect.c ****     if(is_common == false) return;
 195:lvgl\src\lv_draw/lv_draw_rect.c **** 
 196:lvgl\src\lv_draw/lv_draw_rect.c ****     const lv_area_t * disp_area = &vdb->area;
 197:lvgl\src\lv_draw/lv_draw_rect.c **** 
 198:lvgl\src\lv_draw/lv_draw_rect.c ****     /* Now `draw_area` has absolute coordinates.
 199:lvgl\src\lv_draw/lv_draw_rect.c ****      * Make it relative to `disp_area` to simplify draw to `disp_buf`*/
 200:lvgl\src\lv_draw/lv_draw_rect.c ****     draw_area.x1 -= disp_area->x1;
 201:lvgl\src\lv_draw/lv_draw_rect.c ****     draw_area.y1 -= disp_area->y1;
 202:lvgl\src\lv_draw/lv_draw_rect.c ****     draw_area.x2 -= disp_area->x1;
ARM GAS  C:\Users\strap\AppData\Local\Temp\ccsTbppz.s 			page 5


 203:lvgl\src\lv_draw/lv_draw_rect.c ****     draw_area.y2 -= disp_area->y1;
 204:lvgl\src\lv_draw/lv_draw_rect.c **** 
 205:lvgl\src\lv_draw/lv_draw_rect.c ****     int32_t draw_area_w = lv_area_get_width(&draw_area);
 206:lvgl\src\lv_draw/lv_draw_rect.c **** 
 207:lvgl\src\lv_draw/lv_draw_rect.c ****     /*Create a mask if there is a radius*/
 208:lvgl\src\lv_draw/lv_draw_rect.c ****     lv_opa_t * mask_buf = _lv_mem_buf_get(draw_area_w);
 209:lvgl\src\lv_draw/lv_draw_rect.c **** 
 210:lvgl\src\lv_draw/lv_draw_rect.c ****     lv_grad_dir_t grad_dir = dsc->bg_grad_dir;
 211:lvgl\src\lv_draw/lv_draw_rect.c ****     if(dsc->bg_color.full == dsc->bg_grad_color.full) grad_dir = LV_GRAD_DIR_NONE;
 212:lvgl\src\lv_draw/lv_draw_rect.c **** 
 213:lvgl\src\lv_draw/lv_draw_rect.c ****     uint16_t other_mask_cnt = lv_draw_mask_get_cnt();
 214:lvgl\src\lv_draw/lv_draw_rect.c ****     bool simple_mode = true;
 215:lvgl\src\lv_draw/lv_draw_rect.c ****     if(other_mask_cnt) simple_mode = false;
 216:lvgl\src\lv_draw/lv_draw_rect.c ****     else if(grad_dir == LV_GRAD_DIR_HOR) simple_mode = false;
 217:lvgl\src\lv_draw/lv_draw_rect.c **** 
 218:lvgl\src\lv_draw/lv_draw_rect.c ****     int16_t mask_rout_id = LV_MASK_ID_INV;
 219:lvgl\src\lv_draw/lv_draw_rect.c **** 
 220:lvgl\src\lv_draw/lv_draw_rect.c ****     int32_t coords_w = lv_area_get_width(&coords_bg);
 221:lvgl\src\lv_draw/lv_draw_rect.c ****     int32_t coords_h = lv_area_get_height(&coords_bg);
 222:lvgl\src\lv_draw/lv_draw_rect.c **** 
 223:lvgl\src\lv_draw/lv_draw_rect.c ****     /*Get the real radius*/
 224:lvgl\src\lv_draw/lv_draw_rect.c ****     int32_t rout = dsc->radius;
 225:lvgl\src\lv_draw/lv_draw_rect.c ****     int32_t short_side = LV_MATH_MIN(coords_w, coords_h);
 226:lvgl\src\lv_draw/lv_draw_rect.c ****     if(rout > short_side >> 1) rout = short_side >> 1;
 227:lvgl\src\lv_draw/lv_draw_rect.c **** 
 228:lvgl\src\lv_draw/lv_draw_rect.c ****     /*Most simple case: just a plain rectangle*/
 229:lvgl\src\lv_draw/lv_draw_rect.c ****     if(simple_mode && rout == 0 && (grad_dir == LV_GRAD_DIR_NONE)) {
 230:lvgl\src\lv_draw/lv_draw_rect.c ****         _lv_blend_fill(clip, &coords_bg,
 231:lvgl\src\lv_draw/lv_draw_rect.c ****                        dsc->bg_color, NULL, LV_DRAW_MASK_RES_FULL_COVER, opa,
 232:lvgl\src\lv_draw/lv_draw_rect.c ****                        dsc->bg_blend_mode);
 233:lvgl\src\lv_draw/lv_draw_rect.c ****     }
 234:lvgl\src\lv_draw/lv_draw_rect.c ****     /*More complex case: there is a radius, gradient or other mask.*/
 235:lvgl\src\lv_draw/lv_draw_rect.c ****     else {
 236:lvgl\src\lv_draw/lv_draw_rect.c ****         lv_draw_mask_radius_param_t mask_rout_param;
 237:lvgl\src\lv_draw/lv_draw_rect.c ****         if(rout > 0) {
 238:lvgl\src\lv_draw/lv_draw_rect.c ****             lv_draw_mask_radius_init(&mask_rout_param, &coords_bg, rout, false);
 239:lvgl\src\lv_draw/lv_draw_rect.c ****             mask_rout_id = lv_draw_mask_add(&mask_rout_param, NULL);
 240:lvgl\src\lv_draw/lv_draw_rect.c ****         }
 241:lvgl\src\lv_draw/lv_draw_rect.c **** 
 242:lvgl\src\lv_draw/lv_draw_rect.c ****         /*Draw the background line by line*/
 243:lvgl\src\lv_draw/lv_draw_rect.c ****         int32_t h;
 244:lvgl\src\lv_draw/lv_draw_rect.c ****         lv_draw_mask_res_t mask_res = LV_DRAW_MASK_RES_FULL_COVER;
 245:lvgl\src\lv_draw/lv_draw_rect.c ****         lv_color_t grad_color = dsc->bg_color;
 246:lvgl\src\lv_draw/lv_draw_rect.c **** 
 247:lvgl\src\lv_draw/lv_draw_rect.c **** 
 248:lvgl\src\lv_draw/lv_draw_rect.c ****         lv_color_t * grad_map = NULL;
 249:lvgl\src\lv_draw/lv_draw_rect.c ****         /*In case of horizontal gradient pre-compute a line with a gradient*/
 250:lvgl\src\lv_draw/lv_draw_rect.c ****         if(grad_dir == LV_GRAD_DIR_HOR) {
 251:lvgl\src\lv_draw/lv_draw_rect.c ****             grad_map = _lv_mem_buf_get(coords_w * sizeof(lv_color_t));
 252:lvgl\src\lv_draw/lv_draw_rect.c **** 
 253:lvgl\src\lv_draw/lv_draw_rect.c ****             int32_t i;
 254:lvgl\src\lv_draw/lv_draw_rect.c ****             for(i = 0; i < coords_w; i++) {
 255:lvgl\src\lv_draw/lv_draw_rect.c ****                 grad_map[i] = grad_get(dsc, coords_w, i);
 256:lvgl\src\lv_draw/lv_draw_rect.c ****             }
 257:lvgl\src\lv_draw/lv_draw_rect.c ****         }
 258:lvgl\src\lv_draw/lv_draw_rect.c **** 
 259:lvgl\src\lv_draw/lv_draw_rect.c ****         bool split = false;
ARM GAS  C:\Users\strap\AppData\Local\Temp\ccsTbppz.s 			page 6


 260:lvgl\src\lv_draw/lv_draw_rect.c ****         if(lv_area_get_width(&coords_bg) - 2 * rout > SPLIT_LIMIT) split = true;
 261:lvgl\src\lv_draw/lv_draw_rect.c **** 
 262:lvgl\src\lv_draw/lv_draw_rect.c ****         lv_opa_t opa2;
 263:lvgl\src\lv_draw/lv_draw_rect.c **** 
 264:lvgl\src\lv_draw/lv_draw_rect.c ****         lv_area_t fill_area;
 265:lvgl\src\lv_draw/lv_draw_rect.c ****         fill_area.x1 = coords_bg.x1;
 266:lvgl\src\lv_draw/lv_draw_rect.c ****         fill_area.x2 = coords_bg.x2;
 267:lvgl\src\lv_draw/lv_draw_rect.c ****         fill_area.y1 = disp_area->y1 + draw_area.y1;
 268:lvgl\src\lv_draw/lv_draw_rect.c ****         fill_area.y2 = fill_area.y1;
 269:lvgl\src\lv_draw/lv_draw_rect.c ****         for(h = draw_area.y1; h <= draw_area.y2; h++) {
 270:lvgl\src\lv_draw/lv_draw_rect.c ****             int32_t y = h + vdb->area.y1;
 271:lvgl\src\lv_draw/lv_draw_rect.c **** 
 272:lvgl\src\lv_draw/lv_draw_rect.c ****             opa2 = opa;
 273:lvgl\src\lv_draw/lv_draw_rect.c **** 
 274:lvgl\src\lv_draw/lv_draw_rect.c ****             /*In not corner areas apply the mask only if required*/
 275:lvgl\src\lv_draw/lv_draw_rect.c ****             if(y > coords_bg.y1 + rout + 1 &&
 276:lvgl\src\lv_draw/lv_draw_rect.c ****                y < coords_bg.y2 - rout - 1) {
 277:lvgl\src\lv_draw/lv_draw_rect.c ****                 mask_res = LV_DRAW_MASK_RES_FULL_COVER;
 278:lvgl\src\lv_draw/lv_draw_rect.c ****                 if(simple_mode == false) {
 279:lvgl\src\lv_draw/lv_draw_rect.c ****                     _lv_memset(mask_buf, opa, draw_area_w);
 280:lvgl\src\lv_draw/lv_draw_rect.c ****                     mask_res = lv_draw_mask_apply(mask_buf, vdb->area.x1 + draw_area.x1, vdb->area.
 281:lvgl\src\lv_draw/lv_draw_rect.c ****                 }
 282:lvgl\src\lv_draw/lv_draw_rect.c ****             }
 283:lvgl\src\lv_draw/lv_draw_rect.c ****             /*In corner areas apply the mask anyway*/
 284:lvgl\src\lv_draw/lv_draw_rect.c ****             else {
 285:lvgl\src\lv_draw/lv_draw_rect.c ****                 _lv_memset(mask_buf, opa, draw_area_w);
 286:lvgl\src\lv_draw/lv_draw_rect.c ****                 mask_res = lv_draw_mask_apply(mask_buf, vdb->area.x1 + draw_area.x1, vdb->area.y1 +
 287:lvgl\src\lv_draw/lv_draw_rect.c ****             }
 288:lvgl\src\lv_draw/lv_draw_rect.c **** 
 289:lvgl\src\lv_draw/lv_draw_rect.c ****             /*If mask will taken into account its base opacity was already set by memset above*/
 290:lvgl\src\lv_draw/lv_draw_rect.c ****             if(mask_res == LV_DRAW_MASK_RES_CHANGED) {
 291:lvgl\src\lv_draw/lv_draw_rect.c ****                 opa2 = LV_OPA_COVER;
 292:lvgl\src\lv_draw/lv_draw_rect.c ****             }
 293:lvgl\src\lv_draw/lv_draw_rect.c **** 
 294:lvgl\src\lv_draw/lv_draw_rect.c ****             /*Get the current line color*/
 295:lvgl\src\lv_draw/lv_draw_rect.c ****             if(grad_dir == LV_GRAD_DIR_VER) {
 296:lvgl\src\lv_draw/lv_draw_rect.c ****                 grad_color = grad_get(dsc, lv_area_get_height(&coords_bg), y - coords_bg.y1);
 297:lvgl\src\lv_draw/lv_draw_rect.c ****             }
 298:lvgl\src\lv_draw/lv_draw_rect.c **** 
 299:lvgl\src\lv_draw/lv_draw_rect.c ****             /* If there is not other mask and drawing the corner area split the drawing to corner a
 300:lvgl\src\lv_draw/lv_draw_rect.c ****              * because it the middle mask shouldn't be taken into account (therefore its faster)*/
 301:lvgl\src\lv_draw/lv_draw_rect.c ****             if(simple_mode && split &&
 302:lvgl\src\lv_draw/lv_draw_rect.c ****                (y < coords_bg.y1 + rout + 1 ||
 303:lvgl\src\lv_draw/lv_draw_rect.c ****                 y > coords_bg.y2 - rout - 1)) {
 304:lvgl\src\lv_draw/lv_draw_rect.c **** 
 305:lvgl\src\lv_draw/lv_draw_rect.c ****                 /*Left part*/
 306:lvgl\src\lv_draw/lv_draw_rect.c ****                 lv_area_t fill_area2;
 307:lvgl\src\lv_draw/lv_draw_rect.c ****                 fill_area2.x1 = coords_bg.x1;
 308:lvgl\src\lv_draw/lv_draw_rect.c ****                 fill_area2.x2 = coords_bg.x1 + rout - 1;
 309:lvgl\src\lv_draw/lv_draw_rect.c ****                 fill_area2.y1 = fill_area.y1;
 310:lvgl\src\lv_draw/lv_draw_rect.c ****                 fill_area2.y2 = fill_area.y2;
 311:lvgl\src\lv_draw/lv_draw_rect.c **** 
 312:lvgl\src\lv_draw/lv_draw_rect.c ****                 _lv_blend_fill(clip, &fill_area2,
 313:lvgl\src\lv_draw/lv_draw_rect.c ****                                grad_color, mask_buf, mask_res, opa2, dsc->bg_blend_mode);
 314:lvgl\src\lv_draw/lv_draw_rect.c **** 
 315:lvgl\src\lv_draw/lv_draw_rect.c ****                 /*Center part*/
 316:lvgl\src\lv_draw/lv_draw_rect.c ****                 if(grad_dir == LV_GRAD_DIR_VER) {
ARM GAS  C:\Users\strap\AppData\Local\Temp\ccsTbppz.s 			page 7


 317:lvgl\src\lv_draw/lv_draw_rect.c ****                     fill_area2.x1 = coords_bg.x1 + rout;
 318:lvgl\src\lv_draw/lv_draw_rect.c ****                     fill_area2.x2 = coords_bg.x2 - rout;
 319:lvgl\src\lv_draw/lv_draw_rect.c ****                     _lv_blend_fill(clip, &fill_area2,
 320:lvgl\src\lv_draw/lv_draw_rect.c ****                                    grad_color, NULL, LV_DRAW_MASK_RES_FULL_COVER, opa, dsc->bg_blen
 321:lvgl\src\lv_draw/lv_draw_rect.c ****                 }
 322:lvgl\src\lv_draw/lv_draw_rect.c **** 
 323:lvgl\src\lv_draw/lv_draw_rect.c ****                 /*Right part*/
 324:lvgl\src\lv_draw/lv_draw_rect.c ****                 fill_area2.x1 = coords_bg.x2 - rout + 1;
 325:lvgl\src\lv_draw/lv_draw_rect.c ****                 fill_area2.x2 = coords_bg.x2;
 326:lvgl\src\lv_draw/lv_draw_rect.c **** 
 327:lvgl\src\lv_draw/lv_draw_rect.c ****                 int32_t mask_ofs = (coords_bg.x2 - rout + 1) - (vdb->area.x1 + draw_area.x1);
 328:lvgl\src\lv_draw/lv_draw_rect.c ****                 if(mask_ofs < 0) mask_ofs = 0;
 329:lvgl\src\lv_draw/lv_draw_rect.c ****                 _lv_blend_fill(clip, &fill_area2,
 330:lvgl\src\lv_draw/lv_draw_rect.c ****                                grad_color, mask_buf + mask_ofs, mask_res, opa2, dsc->bg_blend_mode)
 331:lvgl\src\lv_draw/lv_draw_rect.c **** 
 332:lvgl\src\lv_draw/lv_draw_rect.c **** 
 333:lvgl\src\lv_draw/lv_draw_rect.c ****             }
 334:lvgl\src\lv_draw/lv_draw_rect.c ****             else {
 335:lvgl\src\lv_draw/lv_draw_rect.c ****                 if(grad_dir == LV_GRAD_DIR_HOR) {
 336:lvgl\src\lv_draw/lv_draw_rect.c ****                     _lv_blend_map(clip, &fill_area, grad_map, mask_buf, mask_res, opa2, dsc->bg_ble
 337:lvgl\src\lv_draw/lv_draw_rect.c ****                 }
 338:lvgl\src\lv_draw/lv_draw_rect.c ****                 else if(grad_dir == LV_GRAD_DIR_VER) {
 339:lvgl\src\lv_draw/lv_draw_rect.c ****                     _lv_blend_fill(clip, &fill_area,
 340:lvgl\src\lv_draw/lv_draw_rect.c ****                                    grad_color, mask_buf, mask_res, opa2, dsc->bg_blend_mode);
 341:lvgl\src\lv_draw/lv_draw_rect.c ****                 }
 342:lvgl\src\lv_draw/lv_draw_rect.c ****                 else if(other_mask_cnt != 0 || !split) {
 343:lvgl\src\lv_draw/lv_draw_rect.c ****                     _lv_blend_fill(clip, &fill_area,
 344:lvgl\src\lv_draw/lv_draw_rect.c ****                                    grad_color, mask_buf, mask_res, opa2, dsc->bg_blend_mode);
 345:lvgl\src\lv_draw/lv_draw_rect.c ****                 }
 346:lvgl\src\lv_draw/lv_draw_rect.c ****             }
 347:lvgl\src\lv_draw/lv_draw_rect.c ****             fill_area.y1++;
 348:lvgl\src\lv_draw/lv_draw_rect.c ****             fill_area.y2++;
 349:lvgl\src\lv_draw/lv_draw_rect.c ****         }
 350:lvgl\src\lv_draw/lv_draw_rect.c **** 
 351:lvgl\src\lv_draw/lv_draw_rect.c ****         if(grad_dir == LV_GRAD_DIR_NONE && other_mask_cnt == 0 && split) {
 352:lvgl\src\lv_draw/lv_draw_rect.c ****             /*Central part*/
 353:lvgl\src\lv_draw/lv_draw_rect.c ****             fill_area.x1 = coords_bg.x1 + rout;
 354:lvgl\src\lv_draw/lv_draw_rect.c ****             fill_area.x2 = coords_bg.x2 - rout;
 355:lvgl\src\lv_draw/lv_draw_rect.c ****             fill_area.y1 = coords_bg.y1;
 356:lvgl\src\lv_draw/lv_draw_rect.c ****             fill_area.y2 = coords_bg.y1 + rout;
 357:lvgl\src\lv_draw/lv_draw_rect.c **** 
 358:lvgl\src\lv_draw/lv_draw_rect.c ****             _lv_blend_fill(clip, &fill_area,
 359:lvgl\src\lv_draw/lv_draw_rect.c ****                            dsc->bg_color, NULL, LV_DRAW_MASK_RES_FULL_COVER, opa, dsc->bg_blend_mod
 360:lvgl\src\lv_draw/lv_draw_rect.c **** 
 361:lvgl\src\lv_draw/lv_draw_rect.c ****             fill_area.y1 = coords_bg.y2 - rout;
 362:lvgl\src\lv_draw/lv_draw_rect.c ****             if(fill_area.y1 <= fill_area.y2) fill_area.y1 = fill_area.y2 + 1;    /*Avoid overdrawin
 363:lvgl\src\lv_draw/lv_draw_rect.c ****             fill_area.y2 = coords_bg.y2;
 364:lvgl\src\lv_draw/lv_draw_rect.c **** 
 365:lvgl\src\lv_draw/lv_draw_rect.c **** 
 366:lvgl\src\lv_draw/lv_draw_rect.c ****             _lv_blend_fill(clip, &fill_area,
 367:lvgl\src\lv_draw/lv_draw_rect.c ****                            dsc->bg_color, NULL, LV_DRAW_MASK_RES_FULL_COVER, opa, dsc->bg_blend_mod
 368:lvgl\src\lv_draw/lv_draw_rect.c **** 
 369:lvgl\src\lv_draw/lv_draw_rect.c ****             fill_area.x1 = coords_bg.x1;
 370:lvgl\src\lv_draw/lv_draw_rect.c ****             fill_area.x2 = coords_bg.x2;
 371:lvgl\src\lv_draw/lv_draw_rect.c ****             fill_area.y1 = coords_bg.y1 + rout + 1;
 372:lvgl\src\lv_draw/lv_draw_rect.c ****             fill_area.y2 = coords_bg.y2 - rout - 1;
 373:lvgl\src\lv_draw/lv_draw_rect.c **** 
ARM GAS  C:\Users\strap\AppData\Local\Temp\ccsTbppz.s 			page 8


 374:lvgl\src\lv_draw/lv_draw_rect.c ****             _lv_blend_fill(clip, &fill_area,
 375:lvgl\src\lv_draw/lv_draw_rect.c ****                            dsc->bg_color, NULL, LV_DRAW_MASK_RES_FULL_COVER, opa, dsc->bg_blend_mod
 376:lvgl\src\lv_draw/lv_draw_rect.c **** 
 377:lvgl\src\lv_draw/lv_draw_rect.c ****         }
 378:lvgl\src\lv_draw/lv_draw_rect.c **** 
 379:lvgl\src\lv_draw/lv_draw_rect.c ****         if(grad_map) _lv_mem_buf_release(grad_map);
 380:lvgl\src\lv_draw/lv_draw_rect.c ****     }
 381:lvgl\src\lv_draw/lv_draw_rect.c **** 
 382:lvgl\src\lv_draw/lv_draw_rect.c ****     lv_draw_mask_remove_id(mask_rout_id);
 383:lvgl\src\lv_draw/lv_draw_rect.c **** 
 384:lvgl\src\lv_draw/lv_draw_rect.c ****     _lv_mem_buf_release(mask_buf);
 385:lvgl\src\lv_draw/lv_draw_rect.c **** 
 386:lvgl\src\lv_draw/lv_draw_rect.c **** }
 387:lvgl\src\lv_draw/lv_draw_rect.c **** 
 388:lvgl\src\lv_draw/lv_draw_rect.c **** LV_ATTRIBUTE_FAST_MEM static void draw_border(const lv_area_t * coords, const lv_area_t * clip,
 389:lvgl\src\lv_draw/lv_draw_rect.c ****                                               const lv_draw_rect_dsc_t * dsc)
 390:lvgl\src\lv_draw/lv_draw_rect.c **** {
 391:lvgl\src\lv_draw/lv_draw_rect.c ****     if(dsc->border_opa <= LV_OPA_MIN) return;
 392:lvgl\src\lv_draw/lv_draw_rect.c ****     if(dsc->border_width == 0) return;
 393:lvgl\src\lv_draw/lv_draw_rect.c ****     if(dsc->border_side == LV_BORDER_SIDE_NONE) return;
 394:lvgl\src\lv_draw/lv_draw_rect.c ****     if(dsc->border_post) return;
 395:lvgl\src\lv_draw/lv_draw_rect.c **** 
 396:lvgl\src\lv_draw/lv_draw_rect.c ****     int32_t coords_w = lv_area_get_width(coords);
 397:lvgl\src\lv_draw/lv_draw_rect.c ****     int32_t coords_h = lv_area_get_height(coords);
 398:lvgl\src\lv_draw/lv_draw_rect.c **** 
 399:lvgl\src\lv_draw/lv_draw_rect.c ****     /*Get the real radius*/
 400:lvgl\src\lv_draw/lv_draw_rect.c ****     int32_t rout = dsc->radius;
 401:lvgl\src\lv_draw/lv_draw_rect.c ****     int32_t short_side = LV_MATH_MIN(coords_w, coords_h);
 402:lvgl\src\lv_draw/lv_draw_rect.c ****     if(rout > short_side >> 1) rout = short_side >> 1;
 403:lvgl\src\lv_draw/lv_draw_rect.c **** 
 404:lvgl\src\lv_draw/lv_draw_rect.c ****     /*Get the inner area*/
 405:lvgl\src\lv_draw/lv_draw_rect.c ****     lv_area_t area_inner;
 406:lvgl\src\lv_draw/lv_draw_rect.c ****     lv_area_copy(&area_inner, coords);
 407:lvgl\src\lv_draw/lv_draw_rect.c ****     area_inner.x1 += ((dsc->border_side & LV_BORDER_SIDE_LEFT) ? dsc->border_width : - (dsc->border
 408:lvgl\src\lv_draw/lv_draw_rect.c ****     area_inner.x2 -= ((dsc->border_side & LV_BORDER_SIDE_RIGHT) ? dsc->border_width : - (dsc->borde
 409:lvgl\src\lv_draw/lv_draw_rect.c ****     area_inner.y1 += ((dsc->border_side & LV_BORDER_SIDE_TOP) ? dsc->border_width : - (dsc->border_
 410:lvgl\src\lv_draw/lv_draw_rect.c ****     area_inner.y2 -= ((dsc->border_side & LV_BORDER_SIDE_BOTTOM) ? dsc->border_width : - (dsc->bord
 411:lvgl\src\lv_draw/lv_draw_rect.c **** 
 412:lvgl\src\lv_draw/lv_draw_rect.c ****     if(dsc->border_side == LV_BORDER_SIDE_FULL) {
 413:lvgl\src\lv_draw/lv_draw_rect.c ****         draw_full_border(&area_inner, coords, clip, dsc->radius, false, dsc->border_color, dsc->bor
 414:lvgl\src\lv_draw/lv_draw_rect.c ****     }
 415:lvgl\src\lv_draw/lv_draw_rect.c ****     else {
 416:lvgl\src\lv_draw/lv_draw_rect.c ****         lv_opa_t opa = dsc->border_opa;
 417:lvgl\src\lv_draw/lv_draw_rect.c ****         if(opa > LV_OPA_MAX) opa = LV_OPA_COVER;
 418:lvgl\src\lv_draw/lv_draw_rect.c **** 
 419:lvgl\src\lv_draw/lv_draw_rect.c ****         lv_disp_t * disp    = _lv_refr_get_disp_refreshing();
 420:lvgl\src\lv_draw/lv_draw_rect.c ****         lv_disp_buf_t * vdb = lv_disp_get_buf(disp);
 421:lvgl\src\lv_draw/lv_draw_rect.c **** 
 422:lvgl\src\lv_draw/lv_draw_rect.c ****         /* Get clipped fill area which is the real draw area.
 423:lvgl\src\lv_draw/lv_draw_rect.c ****          * It is always the same or inside `fill_area` */
 424:lvgl\src\lv_draw/lv_draw_rect.c ****         lv_area_t draw_area;
 425:lvgl\src\lv_draw/lv_draw_rect.c ****         bool is_common;
 426:lvgl\src\lv_draw/lv_draw_rect.c ****         is_common = _lv_area_intersect(&draw_area, coords, clip);
 427:lvgl\src\lv_draw/lv_draw_rect.c ****         if(is_common == false) return;
 428:lvgl\src\lv_draw/lv_draw_rect.c **** 
 429:lvgl\src\lv_draw/lv_draw_rect.c ****         const lv_area_t * disp_area = &vdb->area;
 430:lvgl\src\lv_draw/lv_draw_rect.c **** 
ARM GAS  C:\Users\strap\AppData\Local\Temp\ccsTbppz.s 			page 9


 431:lvgl\src\lv_draw/lv_draw_rect.c ****         /* Now `draw_area` has absolute coordinates.
 432:lvgl\src\lv_draw/lv_draw_rect.c ****          * Make it relative to `disp_area` to simplify draw to `disp_buf`*/
 433:lvgl\src\lv_draw/lv_draw_rect.c ****         draw_area.x1 -= disp_area->x1;
 434:lvgl\src\lv_draw/lv_draw_rect.c ****         draw_area.y1 -= disp_area->y1;
 435:lvgl\src\lv_draw/lv_draw_rect.c ****         draw_area.x2 -= disp_area->x1;
 436:lvgl\src\lv_draw/lv_draw_rect.c ****         draw_area.y2 -= disp_area->y1;
 437:lvgl\src\lv_draw/lv_draw_rect.c **** 
 438:lvgl\src\lv_draw/lv_draw_rect.c ****         int32_t draw_area_w = lv_area_get_width(&draw_area);
 439:lvgl\src\lv_draw/lv_draw_rect.c **** 
 440:lvgl\src\lv_draw/lv_draw_rect.c ****         /*Create a mask if there is a radius*/
 441:lvgl\src\lv_draw/lv_draw_rect.c ****         lv_opa_t * mask_buf = _lv_mem_buf_get(draw_area_w);
 442:lvgl\src\lv_draw/lv_draw_rect.c **** 
 443:lvgl\src\lv_draw/lv_draw_rect.c ****         /*Create mask for the outer area*/
 444:lvgl\src\lv_draw/lv_draw_rect.c ****         int16_t mask_rout_id = LV_MASK_ID_INV;
 445:lvgl\src\lv_draw/lv_draw_rect.c ****         lv_draw_mask_radius_param_t mask_rout_param;
 446:lvgl\src\lv_draw/lv_draw_rect.c ****         if(rout > 0) {
 447:lvgl\src\lv_draw/lv_draw_rect.c ****             lv_draw_mask_radius_init(&mask_rout_param, coords, rout, false);
 448:lvgl\src\lv_draw/lv_draw_rect.c ****             mask_rout_id = lv_draw_mask_add(&mask_rout_param, NULL);
 449:lvgl\src\lv_draw/lv_draw_rect.c ****         }
 450:lvgl\src\lv_draw/lv_draw_rect.c **** 
 451:lvgl\src\lv_draw/lv_draw_rect.c ****         /*Create mask for the inner mask*/
 452:lvgl\src\lv_draw/lv_draw_rect.c ****         int32_t rin = rout - dsc->border_width;
 453:lvgl\src\lv_draw/lv_draw_rect.c ****         if(rin < 0) rin = 0;
 454:lvgl\src\lv_draw/lv_draw_rect.c ****         lv_draw_mask_radius_param_t mask_rin_param;
 455:lvgl\src\lv_draw/lv_draw_rect.c ****         lv_draw_mask_radius_init(&mask_rin_param, &area_inner, rout - dsc->border_width, true);
 456:lvgl\src\lv_draw/lv_draw_rect.c ****         int16_t mask_rin_id = lv_draw_mask_add(&mask_rin_param, NULL);
 457:lvgl\src\lv_draw/lv_draw_rect.c **** 
 458:lvgl\src\lv_draw/lv_draw_rect.c ****         int32_t corner_size = LV_MATH_MAX(rout, dsc->border_width - 1);
 459:lvgl\src\lv_draw/lv_draw_rect.c **** 
 460:lvgl\src\lv_draw/lv_draw_rect.c ****         int32_t h;
 461:lvgl\src\lv_draw/lv_draw_rect.c ****         lv_draw_mask_res_t mask_res;
 462:lvgl\src\lv_draw/lv_draw_rect.c ****         lv_area_t fill_area;
 463:lvgl\src\lv_draw/lv_draw_rect.c **** 
 464:lvgl\src\lv_draw/lv_draw_rect.c ****         lv_color_t color = dsc->border_color;
 465:lvgl\src\lv_draw/lv_draw_rect.c ****         lv_blend_mode_t blend_mode = dsc->border_blend_mode;
 466:lvgl\src\lv_draw/lv_draw_rect.c **** 
 467:lvgl\src\lv_draw/lv_draw_rect.c ****         fill_area.x1 = coords->x1;
 468:lvgl\src\lv_draw/lv_draw_rect.c ****         fill_area.x2 = coords->x2;
 469:lvgl\src\lv_draw/lv_draw_rect.c ****         fill_area.y1 = disp_area->y1 + draw_area.y1;
 470:lvgl\src\lv_draw/lv_draw_rect.c ****         fill_area.y2 = fill_area.y1;
 471:lvgl\src\lv_draw/lv_draw_rect.c **** 
 472:lvgl\src\lv_draw/lv_draw_rect.c ****         uint32_t buf_ofs = 0;
 473:lvgl\src\lv_draw/lv_draw_rect.c ****         if(dsc->border_side == LV_BORDER_SIDE_LEFT) fill_area.x2 = coords->x1 + corner_size;
 474:lvgl\src\lv_draw/lv_draw_rect.c ****         else if(dsc->border_side == LV_BORDER_SIDE_RIGHT) {
 475:lvgl\src\lv_draw/lv_draw_rect.c ****             fill_area.x1 = coords->x2 - corner_size;
 476:lvgl\src\lv_draw/lv_draw_rect.c ****             buf_ofs = fill_area.x1 - coords->x1;
 477:lvgl\src\lv_draw/lv_draw_rect.c ****         }
 478:lvgl\src\lv_draw/lv_draw_rect.c **** 
 479:lvgl\src\lv_draw/lv_draw_rect.c ****         volatile bool top_only = false;
 480:lvgl\src\lv_draw/lv_draw_rect.c ****         volatile bool bottom_only = false;
 481:lvgl\src\lv_draw/lv_draw_rect.c ****         if(dsc->border_side == LV_BORDER_SIDE_TOP) top_only = true;
 482:lvgl\src\lv_draw/lv_draw_rect.c ****         if(dsc->border_side == LV_BORDER_SIDE_BOTTOM) bottom_only = true;
 483:lvgl\src\lv_draw/lv_draw_rect.c ****         if(dsc->border_side == (LV_BORDER_SIDE_TOP | LV_BORDER_SIDE_BOTTOM)) {
 484:lvgl\src\lv_draw/lv_draw_rect.c ****             top_only = true;
 485:lvgl\src\lv_draw/lv_draw_rect.c ****             bottom_only = true;
 486:lvgl\src\lv_draw/lv_draw_rect.c ****         }
 487:lvgl\src\lv_draw/lv_draw_rect.c **** 
ARM GAS  C:\Users\strap\AppData\Local\Temp\ccsTbppz.s 			page 10


 488:lvgl\src\lv_draw/lv_draw_rect.c ****         volatile bool normal = !top_only && !bottom_only ? true : false;
 489:lvgl\src\lv_draw/lv_draw_rect.c **** 
 490:lvgl\src\lv_draw/lv_draw_rect.c ****         for(h = draw_area.y1; h <= draw_area.y2; h++) {
 491:lvgl\src\lv_draw/lv_draw_rect.c ****             if(normal ||
 492:lvgl\src\lv_draw/lv_draw_rect.c ****                (top_only && fill_area.y1 <= coords->y1 + corner_size) ||
 493:lvgl\src\lv_draw/lv_draw_rect.c ****                (bottom_only && fill_area.y1 >= coords->y2 - corner_size)) {
 494:lvgl\src\lv_draw/lv_draw_rect.c ****                 _lv_memset_ff(mask_buf, draw_area_w);
 495:lvgl\src\lv_draw/lv_draw_rect.c ****                 mask_res = lv_draw_mask_apply(mask_buf, vdb->area.x1 + draw_area.x1, vdb->area.y1 +
 496:lvgl\src\lv_draw/lv_draw_rect.c ****                 _lv_blend_fill(clip, &fill_area, color, mask_buf + buf_ofs, mask_res, opa, blend_mo
 497:lvgl\src\lv_draw/lv_draw_rect.c ****             }
 498:lvgl\src\lv_draw/lv_draw_rect.c ****             fill_area.y1++;
 499:lvgl\src\lv_draw/lv_draw_rect.c ****             fill_area.y2++;
 500:lvgl\src\lv_draw/lv_draw_rect.c **** 
 501:lvgl\src\lv_draw/lv_draw_rect.c ****         }
 502:lvgl\src\lv_draw/lv_draw_rect.c ****         lv_draw_mask_remove_id(mask_rin_id);
 503:lvgl\src\lv_draw/lv_draw_rect.c ****         lv_draw_mask_remove_id(mask_rout_id);
 504:lvgl\src\lv_draw/lv_draw_rect.c ****         _lv_mem_buf_release(mask_buf);
 505:lvgl\src\lv_draw/lv_draw_rect.c ****     }
 506:lvgl\src\lv_draw/lv_draw_rect.c **** }
 507:lvgl\src\lv_draw/lv_draw_rect.c **** 
 508:lvgl\src\lv_draw/lv_draw_rect.c **** LV_ATTRIBUTE_FAST_MEM static inline lv_color_t grad_get(const lv_draw_rect_dsc_t * dsc, lv_coord_t 
 509:lvgl\src\lv_draw/lv_draw_rect.c **** {
 510:lvgl\src\lv_draw/lv_draw_rect.c ****     int32_t min = (dsc->bg_main_color_stop * s) >> 8;
 511:lvgl\src\lv_draw/lv_draw_rect.c ****     if(i <= min) return dsc->bg_color;
 512:lvgl\src\lv_draw/lv_draw_rect.c **** 
 513:lvgl\src\lv_draw/lv_draw_rect.c ****     int32_t max = (dsc->bg_grad_color_stop * s) >> 8;
 514:lvgl\src\lv_draw/lv_draw_rect.c ****     if(i >= max) return dsc->bg_grad_color;
 515:lvgl\src\lv_draw/lv_draw_rect.c **** 
 516:lvgl\src\lv_draw/lv_draw_rect.c ****     int32_t d = dsc->bg_grad_color_stop - dsc->bg_main_color_stop;
 517:lvgl\src\lv_draw/lv_draw_rect.c ****     d = (s * d) >> 8;
 518:lvgl\src\lv_draw/lv_draw_rect.c ****     i -= min;
 519:lvgl\src\lv_draw/lv_draw_rect.c ****     lv_opa_t mix = (i * 255) / d;
 520:lvgl\src\lv_draw/lv_draw_rect.c ****     return lv_color_mix(dsc->bg_grad_color, dsc->bg_color, mix);
 521:lvgl\src\lv_draw/lv_draw_rect.c **** }
 522:lvgl\src\lv_draw/lv_draw_rect.c **** 
 523:lvgl\src\lv_draw/lv_draw_rect.c **** #if LV_USE_SHADOW
 524:lvgl\src\lv_draw/lv_draw_rect.c **** LV_ATTRIBUTE_FAST_MEM static void draw_shadow(const lv_area_t * coords, const lv_area_t * clip,
 525:lvgl\src\lv_draw/lv_draw_rect.c ****                                               const lv_draw_rect_dsc_t * dsc)
 526:lvgl\src\lv_draw/lv_draw_rect.c **** {
 527:lvgl\src\lv_draw/lv_draw_rect.c ****     /*Check whether the shadow is visible*/
 528:lvgl\src\lv_draw/lv_draw_rect.c ****     if(dsc->shadow_width == 0) return;
 529:lvgl\src\lv_draw/lv_draw_rect.c ****     if(dsc->shadow_opa <= LV_OPA_MIN) return;
 530:lvgl\src\lv_draw/lv_draw_rect.c **** 
 531:lvgl\src\lv_draw/lv_draw_rect.c ****     if(dsc->shadow_width == 1 && dsc->shadow_ofs_x == 0 &&
 532:lvgl\src\lv_draw/lv_draw_rect.c ****        dsc->shadow_ofs_y == 0 && dsc->shadow_spread <= 0) {
 533:lvgl\src\lv_draw/lv_draw_rect.c ****         return;
 534:lvgl\src\lv_draw/lv_draw_rect.c ****     }
 535:lvgl\src\lv_draw/lv_draw_rect.c **** 
 536:lvgl\src\lv_draw/lv_draw_rect.c ****     int32_t sw = dsc->shadow_width;
 537:lvgl\src\lv_draw/lv_draw_rect.c **** 
 538:lvgl\src\lv_draw/lv_draw_rect.c ****     lv_area_t sh_rect_area;
 539:lvgl\src\lv_draw/lv_draw_rect.c ****     sh_rect_area.x1 = coords->x1  + dsc->shadow_ofs_x - dsc->shadow_spread;
 540:lvgl\src\lv_draw/lv_draw_rect.c ****     sh_rect_area.x2 = coords->x2  + dsc->shadow_ofs_x + dsc->shadow_spread;
 541:lvgl\src\lv_draw/lv_draw_rect.c ****     sh_rect_area.y1 = coords->y1  + dsc->shadow_ofs_y - dsc->shadow_spread;
 542:lvgl\src\lv_draw/lv_draw_rect.c ****     sh_rect_area.y2 = coords->y2  + dsc->shadow_ofs_y + dsc->shadow_spread;
 543:lvgl\src\lv_draw/lv_draw_rect.c **** 
 544:lvgl\src\lv_draw/lv_draw_rect.c ****     lv_area_t sh_area;
ARM GAS  C:\Users\strap\AppData\Local\Temp\ccsTbppz.s 			page 11


 545:lvgl\src\lv_draw/lv_draw_rect.c ****     sh_area.x1 = sh_rect_area.x1 - sw / 2 - 1;
 546:lvgl\src\lv_draw/lv_draw_rect.c ****     sh_area.x2 = sh_rect_area.x2 + sw / 2 + 1;
 547:lvgl\src\lv_draw/lv_draw_rect.c ****     sh_area.y1 = sh_rect_area.y1 - sw / 2 - 1;
 548:lvgl\src\lv_draw/lv_draw_rect.c ****     sh_area.y2 = sh_rect_area.y2 + sw / 2 + 1;
 549:lvgl\src\lv_draw/lv_draw_rect.c **** 
 550:lvgl\src\lv_draw/lv_draw_rect.c ****     lv_opa_t opa = dsc->shadow_opa;
 551:lvgl\src\lv_draw/lv_draw_rect.c **** 
 552:lvgl\src\lv_draw/lv_draw_rect.c ****     if(opa > LV_OPA_MAX) opa = LV_OPA_COVER;
 553:lvgl\src\lv_draw/lv_draw_rect.c **** 
 554:lvgl\src\lv_draw/lv_draw_rect.c ****     lv_disp_t * disp    = _lv_refr_get_disp_refreshing();
 555:lvgl\src\lv_draw/lv_draw_rect.c ****     lv_disp_buf_t * vdb = lv_disp_get_buf(disp);
 556:lvgl\src\lv_draw/lv_draw_rect.c **** 
 557:lvgl\src\lv_draw/lv_draw_rect.c ****     /* Get clipped fill area which is the real draw area.
 558:lvgl\src\lv_draw/lv_draw_rect.c ****      * It is always the same or inside `fill_area` */
 559:lvgl\src\lv_draw/lv_draw_rect.c ****     lv_area_t draw_area;
 560:lvgl\src\lv_draw/lv_draw_rect.c ****     bool is_common;
 561:lvgl\src\lv_draw/lv_draw_rect.c ****     is_common = _lv_area_intersect(&draw_area, &sh_area, clip);
 562:lvgl\src\lv_draw/lv_draw_rect.c ****     if(is_common == false) return;
 563:lvgl\src\lv_draw/lv_draw_rect.c **** 
 564:lvgl\src\lv_draw/lv_draw_rect.c ****     const lv_area_t * disp_area = &vdb->area;
 565:lvgl\src\lv_draw/lv_draw_rect.c **** 
 566:lvgl\src\lv_draw/lv_draw_rect.c ****     /* Now `draw_area` has absolute coordinates.
 567:lvgl\src\lv_draw/lv_draw_rect.c ****      * Make it relative to `disp_area` to simplify draw to `disp_buf`*/
 568:lvgl\src\lv_draw/lv_draw_rect.c ****     draw_area.x1 -= disp_area->x1;
 569:lvgl\src\lv_draw/lv_draw_rect.c ****     draw_area.y1 -= disp_area->y1;
 570:lvgl\src\lv_draw/lv_draw_rect.c ****     draw_area.x2 -= disp_area->x1;
 571:lvgl\src\lv_draw/lv_draw_rect.c ****     draw_area.y2 -= disp_area->y1;
 572:lvgl\src\lv_draw/lv_draw_rect.c **** 
 573:lvgl\src\lv_draw/lv_draw_rect.c ****     /*Consider 1 px smaller bg to be sure the edge will be covered by the shadow*/
 574:lvgl\src\lv_draw/lv_draw_rect.c ****     lv_area_t bg_coords;
 575:lvgl\src\lv_draw/lv_draw_rect.c ****     lv_area_copy(&bg_coords, coords);
 576:lvgl\src\lv_draw/lv_draw_rect.c ****     bg_coords.x1 += 1;
 577:lvgl\src\lv_draw/lv_draw_rect.c ****     bg_coords.y1 += 1;
 578:lvgl\src\lv_draw/lv_draw_rect.c ****     bg_coords.x2 -= 1;
 579:lvgl\src\lv_draw/lv_draw_rect.c ****     bg_coords.y2 -= 1;
 580:lvgl\src\lv_draw/lv_draw_rect.c **** 
 581:lvgl\src\lv_draw/lv_draw_rect.c ****     /*Get the real radius*/
 582:lvgl\src\lv_draw/lv_draw_rect.c ****     int32_t r_bg = dsc->radius;
 583:lvgl\src\lv_draw/lv_draw_rect.c ****     int32_t short_side = LV_MATH_MIN(lv_area_get_width(&bg_coords), lv_area_get_height(&bg_coords))
 584:lvgl\src\lv_draw/lv_draw_rect.c ****     if(r_bg > short_side >> 1) r_bg = short_side >> 1;
 585:lvgl\src\lv_draw/lv_draw_rect.c **** 
 586:lvgl\src\lv_draw/lv_draw_rect.c ****     int32_t r_sh = dsc->radius;
 587:lvgl\src\lv_draw/lv_draw_rect.c ****     short_side = LV_MATH_MIN(lv_area_get_width(&sh_rect_area), lv_area_get_height(&sh_rect_area));
 588:lvgl\src\lv_draw/lv_draw_rect.c ****     if(r_sh > short_side >> 1) r_sh = short_side >> 1;
 589:lvgl\src\lv_draw/lv_draw_rect.c **** 
 590:lvgl\src\lv_draw/lv_draw_rect.c **** 
 591:lvgl\src\lv_draw/lv_draw_rect.c ****     int32_t corner_size = sw  + r_sh;
 592:lvgl\src\lv_draw/lv_draw_rect.c **** 
 593:lvgl\src\lv_draw/lv_draw_rect.c ****     lv_opa_t * sh_buf;
 594:lvgl\src\lv_draw/lv_draw_rect.c **** 
 595:lvgl\src\lv_draw/lv_draw_rect.c **** #if LV_SHADOW_CACHE_SIZE
 596:lvgl\src\lv_draw/lv_draw_rect.c ****     if(sh_cache_size == corner_size && sh_cache_r == r_sh) {
 597:lvgl\src\lv_draw/lv_draw_rect.c ****         /*Use the cache if available*/
 598:lvgl\src\lv_draw/lv_draw_rect.c ****         sh_buf = _lv_mem_buf_get(corner_size * corner_size);
 599:lvgl\src\lv_draw/lv_draw_rect.c ****         _lv_memcpy(sh_buf, sh_cache, corner_size * corner_size);
 600:lvgl\src\lv_draw/lv_draw_rect.c ****     }
 601:lvgl\src\lv_draw/lv_draw_rect.c ****     else {
ARM GAS  C:\Users\strap\AppData\Local\Temp\ccsTbppz.s 			page 12


 602:lvgl\src\lv_draw/lv_draw_rect.c ****         /*A larger buffer is required for calculation */
 603:lvgl\src\lv_draw/lv_draw_rect.c ****         sh_buf = _lv_mem_buf_get(corner_size * corner_size * sizeof(uint16_t));
 604:lvgl\src\lv_draw/lv_draw_rect.c ****         shadow_draw_corner_buf(&sh_rect_area, (uint16_t *)sh_buf, dsc->shadow_width, r_sh);
 605:lvgl\src\lv_draw/lv_draw_rect.c **** 
 606:lvgl\src\lv_draw/lv_draw_rect.c ****         /*Cache the corner if it fits into the cache size*/
 607:lvgl\src\lv_draw/lv_draw_rect.c ****         if(corner_size * corner_size < sizeof(sh_cache)) {
 608:lvgl\src\lv_draw/lv_draw_rect.c ****             _lv_memcpy(sh_cache, sh_buf, corner_size * corner_size);
 609:lvgl\src\lv_draw/lv_draw_rect.c ****             sh_cache_size = corner_size;
 610:lvgl\src\lv_draw/lv_draw_rect.c ****             sh_cache_r = r_sh;
 611:lvgl\src\lv_draw/lv_draw_rect.c ****         }
 612:lvgl\src\lv_draw/lv_draw_rect.c ****     }
 613:lvgl\src\lv_draw/lv_draw_rect.c **** #else
 614:lvgl\src\lv_draw/lv_draw_rect.c ****     sh_buf = _lv_mem_buf_get(corner_size * corner_size * sizeof(uint16_t));
 615:lvgl\src\lv_draw/lv_draw_rect.c ****     shadow_draw_corner_buf(&sh_rect_area, (uint16_t *)sh_buf, dsc->shadow_width, r_sh);
 616:lvgl\src\lv_draw/lv_draw_rect.c **** #endif
 617:lvgl\src\lv_draw/lv_draw_rect.c **** 
 618:lvgl\src\lv_draw/lv_draw_rect.c ****     lv_coord_t h_half = sh_area.y1 + lv_area_get_height(&sh_area) / 2;
 619:lvgl\src\lv_draw/lv_draw_rect.c ****     lv_coord_t w_half = sh_area.x1 + lv_area_get_width(&sh_area) / 2;
 620:lvgl\src\lv_draw/lv_draw_rect.c **** 
 621:lvgl\src\lv_draw/lv_draw_rect.c ****     bool simple_mode = true;
 622:lvgl\src\lv_draw/lv_draw_rect.c ****     if(lv_draw_mask_get_cnt() > 0) simple_mode = false;
 623:lvgl\src\lv_draw/lv_draw_rect.c ****     else if(dsc->shadow_ofs_x != 0 || dsc->shadow_ofs_y != 0) simple_mode = false;
 624:lvgl\src\lv_draw/lv_draw_rect.c ****     else if(dsc->shadow_spread != 0) simple_mode = false;
 625:lvgl\src\lv_draw/lv_draw_rect.c **** 
 626:lvgl\src\lv_draw/lv_draw_rect.c ****     /*Create a mask*/
 627:lvgl\src\lv_draw/lv_draw_rect.c ****     lv_draw_mask_res_t mask_res;
 628:lvgl\src\lv_draw/lv_draw_rect.c ****     lv_opa_t * mask_buf = _lv_mem_buf_get(lv_area_get_width(&sh_area));
 629:lvgl\src\lv_draw/lv_draw_rect.c **** 
 630:lvgl\src\lv_draw/lv_draw_rect.c ****     lv_draw_mask_radius_param_t mask_rout_param;
 631:lvgl\src\lv_draw/lv_draw_rect.c ****     lv_draw_mask_radius_init(&mask_rout_param, &bg_coords, r_bg, true);
 632:lvgl\src\lv_draw/lv_draw_rect.c **** 
 633:lvgl\src\lv_draw/lv_draw_rect.c ****     int16_t mask_rout_id = lv_draw_mask_add(&mask_rout_param, NULL);
 634:lvgl\src\lv_draw/lv_draw_rect.c **** 
 635:lvgl\src\lv_draw/lv_draw_rect.c ****     lv_area_t a;
 636:lvgl\src\lv_draw/lv_draw_rect.c **** 
 637:lvgl\src\lv_draw/lv_draw_rect.c ****     /*Draw the top right corner*/
 638:lvgl\src\lv_draw/lv_draw_rect.c ****     int32_t y;
 639:lvgl\src\lv_draw/lv_draw_rect.c ****     lv_opa_t * sh_buf_tmp;
 640:lvgl\src\lv_draw/lv_draw_rect.c ****     a.x2 = sh_area.x2;
 641:lvgl\src\lv_draw/lv_draw_rect.c ****     a.x1 = a.x2 - corner_size + 1;
 642:lvgl\src\lv_draw/lv_draw_rect.c ****     a.y1 = sh_area.y1;
 643:lvgl\src\lv_draw/lv_draw_rect.c ****     a.y2 = a.y1 + corner_size - 1;
 644:lvgl\src\lv_draw/lv_draw_rect.c **** 
 645:lvgl\src\lv_draw/lv_draw_rect.c ****     lv_area_t ca;
 646:lvgl\src\lv_draw/lv_draw_rect.c ****     bool has_com = _lv_area_intersect(&ca, &a, clip);
 647:lvgl\src\lv_draw/lv_draw_rect.c ****     if(has_com && _lv_area_is_in(&a, &bg_coords, r_bg) == false) {
 648:lvgl\src\lv_draw/lv_draw_rect.c ****         /*Avoid overlap in the middle with large radius*/
 649:lvgl\src\lv_draw/lv_draw_rect.c ****         if(ca.y2 > h_half) ca.y2 = h_half;
 650:lvgl\src\lv_draw/lv_draw_rect.c ****         if(ca.x1 <= w_half) ca.x1 = w_half + 1;
 651:lvgl\src\lv_draw/lv_draw_rect.c **** 
 652:lvgl\src\lv_draw/lv_draw_rect.c ****         lv_coord_t h = lv_area_get_height(&ca);
 653:lvgl\src\lv_draw/lv_draw_rect.c ****         lv_coord_t w = lv_area_get_width(&ca);
 654:lvgl\src\lv_draw/lv_draw_rect.c ****         if(w > 0) {
 655:lvgl\src\lv_draw/lv_draw_rect.c ****             sh_buf_tmp = sh_buf + (ca.x1 - a.x1);
 656:lvgl\src\lv_draw/lv_draw_rect.c ****             sh_buf_tmp += corner_size * (ca.y1 - a.y1);
 657:lvgl\src\lv_draw/lv_draw_rect.c **** 
 658:lvgl\src\lv_draw/lv_draw_rect.c ****             lv_area_t fa;
ARM GAS  C:\Users\strap\AppData\Local\Temp\ccsTbppz.s 			page 13


 659:lvgl\src\lv_draw/lv_draw_rect.c ****             lv_area_copy(&fa, &ca);
 660:lvgl\src\lv_draw/lv_draw_rect.c ****             fa.y2 = fa.y1;
 661:lvgl\src\lv_draw/lv_draw_rect.c **** 
 662:lvgl\src\lv_draw/lv_draw_rect.c ****             for(y = 0; y < h; y++) {
 663:lvgl\src\lv_draw/lv_draw_rect.c ****                 _lv_memcpy(mask_buf, sh_buf_tmp, w);
 664:lvgl\src\lv_draw/lv_draw_rect.c ****                 mask_res = lv_draw_mask_apply(mask_buf, fa.x1, fa.y1, w);
 665:lvgl\src\lv_draw/lv_draw_rect.c ****                 if(mask_res == LV_DRAW_MASK_RES_FULL_COVER) mask_res = LV_DRAW_MASK_RES_CHANGED;
 666:lvgl\src\lv_draw/lv_draw_rect.c **** 
 667:lvgl\src\lv_draw/lv_draw_rect.c ****                 _lv_blend_fill(clip, &fa, dsc->shadow_color, mask_buf,
 668:lvgl\src\lv_draw/lv_draw_rect.c ****                                mask_res, opa, dsc->shadow_blend_mode);
 669:lvgl\src\lv_draw/lv_draw_rect.c ****                 fa.y1++;
 670:lvgl\src\lv_draw/lv_draw_rect.c ****                 fa.y2++;
 671:lvgl\src\lv_draw/lv_draw_rect.c ****                 sh_buf_tmp += corner_size;
 672:lvgl\src\lv_draw/lv_draw_rect.c ****             }
 673:lvgl\src\lv_draw/lv_draw_rect.c ****         }
 674:lvgl\src\lv_draw/lv_draw_rect.c ****     }
 675:lvgl\src\lv_draw/lv_draw_rect.c **** 
 676:lvgl\src\lv_draw/lv_draw_rect.c ****     /*Draw the bottom right corner*/
 677:lvgl\src\lv_draw/lv_draw_rect.c ****     a.x2 = sh_area.x2;
 678:lvgl\src\lv_draw/lv_draw_rect.c ****     a.x1 = a.x2 - corner_size + 1;
 679:lvgl\src\lv_draw/lv_draw_rect.c ****     a.y1 = sh_area.y2 - corner_size + 1;
 680:lvgl\src\lv_draw/lv_draw_rect.c ****     a.y2 = sh_area.y2;
 681:lvgl\src\lv_draw/lv_draw_rect.c **** 
 682:lvgl\src\lv_draw/lv_draw_rect.c ****     has_com = _lv_area_intersect(&ca, &a, clip);
 683:lvgl\src\lv_draw/lv_draw_rect.c ****     if(has_com && _lv_area_is_in(&a, &bg_coords, r_bg) == false) {
 684:lvgl\src\lv_draw/lv_draw_rect.c ****         /*Avoid overlap in the middle with large radius*/
 685:lvgl\src\lv_draw/lv_draw_rect.c ****         if(ca.y1 <= h_half) ca.y1 = h_half + 1;
 686:lvgl\src\lv_draw/lv_draw_rect.c ****         if(ca.x1 <= w_half) ca.x1 = w_half + 1;
 687:lvgl\src\lv_draw/lv_draw_rect.c **** 
 688:lvgl\src\lv_draw/lv_draw_rect.c ****         lv_coord_t h = lv_area_get_height(&ca);
 689:lvgl\src\lv_draw/lv_draw_rect.c ****         lv_coord_t w = lv_area_get_width(&ca);
 690:lvgl\src\lv_draw/lv_draw_rect.c **** 
 691:lvgl\src\lv_draw/lv_draw_rect.c ****         if(w > 0) {
 692:lvgl\src\lv_draw/lv_draw_rect.c ****             sh_buf_tmp = sh_buf + (ca.x1 - a.x1);
 693:lvgl\src\lv_draw/lv_draw_rect.c ****             sh_buf_tmp += corner_size * (a.y2 - ca.y2);
 694:lvgl\src\lv_draw/lv_draw_rect.c **** 
 695:lvgl\src\lv_draw/lv_draw_rect.c ****             lv_area_t fa;
 696:lvgl\src\lv_draw/lv_draw_rect.c ****             lv_area_copy(&fa, &ca);
 697:lvgl\src\lv_draw/lv_draw_rect.c ****             fa.y1 = fa.y2;    /*Fill from bottom to top*/
 698:lvgl\src\lv_draw/lv_draw_rect.c **** 
 699:lvgl\src\lv_draw/lv_draw_rect.c ****             for(y = 0; y < h; y++) {
 700:lvgl\src\lv_draw/lv_draw_rect.c ****                 _lv_memcpy(mask_buf, sh_buf_tmp, w);
 701:lvgl\src\lv_draw/lv_draw_rect.c ****                 mask_res = lv_draw_mask_apply(mask_buf, fa.x1, fa.y1, w);
 702:lvgl\src\lv_draw/lv_draw_rect.c ****                 if(mask_res == LV_DRAW_MASK_RES_FULL_COVER) mask_res = LV_DRAW_MASK_RES_CHANGED;
 703:lvgl\src\lv_draw/lv_draw_rect.c **** 
 704:lvgl\src\lv_draw/lv_draw_rect.c ****                 _lv_blend_fill(clip, &fa, dsc->shadow_color, mask_buf,
 705:lvgl\src\lv_draw/lv_draw_rect.c ****                                mask_res, opa, dsc->shadow_blend_mode);
 706:lvgl\src\lv_draw/lv_draw_rect.c ****                 fa.y1--;
 707:lvgl\src\lv_draw/lv_draw_rect.c ****                 fa.y2--;
 708:lvgl\src\lv_draw/lv_draw_rect.c ****                 sh_buf_tmp += corner_size;
 709:lvgl\src\lv_draw/lv_draw_rect.c ****             }
 710:lvgl\src\lv_draw/lv_draw_rect.c ****         }
 711:lvgl\src\lv_draw/lv_draw_rect.c ****     }
 712:lvgl\src\lv_draw/lv_draw_rect.c **** 
 713:lvgl\src\lv_draw/lv_draw_rect.c ****     /*Fill the right side*/
 714:lvgl\src\lv_draw/lv_draw_rect.c ****     a.x2 = sh_area.x2;
 715:lvgl\src\lv_draw/lv_draw_rect.c ****     a.x1 = a.x2 - corner_size + 1;
ARM GAS  C:\Users\strap\AppData\Local\Temp\ccsTbppz.s 			page 14


 716:lvgl\src\lv_draw/lv_draw_rect.c ****     a.y1 = sh_area.y1 + corner_size;
 717:lvgl\src\lv_draw/lv_draw_rect.c ****     a.y2 = sh_area.y2 - corner_size;
 718:lvgl\src\lv_draw/lv_draw_rect.c **** 
 719:lvgl\src\lv_draw/lv_draw_rect.c ****     has_com = _lv_area_intersect(&ca, &a, clip);
 720:lvgl\src\lv_draw/lv_draw_rect.c ****     if(has_com && _lv_area_is_in(&a, &bg_coords, r_bg) == false) {
 721:lvgl\src\lv_draw/lv_draw_rect.c ****         if(simple_mode) ca.x1 = LV_MATH_MAX(ca.x1, coords->x2);
 722:lvgl\src\lv_draw/lv_draw_rect.c ****         /*Draw horizontal lines*/
 723:lvgl\src\lv_draw/lv_draw_rect.c ****         lv_coord_t w = lv_area_get_width(&ca);
 724:lvgl\src\lv_draw/lv_draw_rect.c ****         if(w > 0) {
 725:lvgl\src\lv_draw/lv_draw_rect.c ****             lv_coord_t h = lv_area_get_height(&ca);
 726:lvgl\src\lv_draw/lv_draw_rect.c **** 
 727:lvgl\src\lv_draw/lv_draw_rect.c ****             /*The last line of the shadow is repeated on the side*/
 728:lvgl\src\lv_draw/lv_draw_rect.c ****             sh_buf_tmp = sh_buf + corner_size * (corner_size - 1);
 729:lvgl\src\lv_draw/lv_draw_rect.c ****             sh_buf_tmp += ca.x1 - a.x1;
 730:lvgl\src\lv_draw/lv_draw_rect.c **** 
 731:lvgl\src\lv_draw/lv_draw_rect.c ****             lv_area_t fa;
 732:lvgl\src\lv_draw/lv_draw_rect.c ****             lv_area_copy(&fa, &ca);
 733:lvgl\src\lv_draw/lv_draw_rect.c ****             fa.y2 = fa.y1;
 734:lvgl\src\lv_draw/lv_draw_rect.c ****             mask_res = LV_DRAW_MASK_RES_FULL_COVER;
 735:lvgl\src\lv_draw/lv_draw_rect.c ****             for(y = 0; y < h; y++) {
 736:lvgl\src\lv_draw/lv_draw_rect.c ****                 _lv_memcpy(mask_buf, sh_buf_tmp, w);
 737:lvgl\src\lv_draw/lv_draw_rect.c **** 
 738:lvgl\src\lv_draw/lv_draw_rect.c ****                 if(simple_mode) {
 739:lvgl\src\lv_draw/lv_draw_rect.c ****                     mask_res = LV_DRAW_MASK_RES_CHANGED;
 740:lvgl\src\lv_draw/lv_draw_rect.c ****                 }
 741:lvgl\src\lv_draw/lv_draw_rect.c ****                 else {
 742:lvgl\src\lv_draw/lv_draw_rect.c ****                     mask_res = lv_draw_mask_apply(mask_buf, fa.x1, fa.y1, w);
 743:lvgl\src\lv_draw/lv_draw_rect.c ****                     if(mask_res == LV_DRAW_MASK_RES_FULL_COVER) mask_res = LV_DRAW_MASK_RES_CHANGED
 744:lvgl\src\lv_draw/lv_draw_rect.c ****                 }
 745:lvgl\src\lv_draw/lv_draw_rect.c **** 
 746:lvgl\src\lv_draw/lv_draw_rect.c ****                 _lv_blend_fill(clip, &fa,
 747:lvgl\src\lv_draw/lv_draw_rect.c ****                                dsc->shadow_color, mask_buf, mask_res, dsc->shadow_opa, dsc->shadow_
 748:lvgl\src\lv_draw/lv_draw_rect.c ****                 fa.y1++;
 749:lvgl\src\lv_draw/lv_draw_rect.c ****                 fa.y2++;
 750:lvgl\src\lv_draw/lv_draw_rect.c ****             }
 751:lvgl\src\lv_draw/lv_draw_rect.c ****         }
 752:lvgl\src\lv_draw/lv_draw_rect.c ****     }
 753:lvgl\src\lv_draw/lv_draw_rect.c **** 
 754:lvgl\src\lv_draw/lv_draw_rect.c ****     /*Invert the shadow corner buffer and draw the corners on the left*/
 755:lvgl\src\lv_draw/lv_draw_rect.c ****     sh_buf_tmp = sh_buf ;
 756:lvgl\src\lv_draw/lv_draw_rect.c ****     for(y = 0; y < corner_size; y++) {
 757:lvgl\src\lv_draw/lv_draw_rect.c ****         int32_t x;
 758:lvgl\src\lv_draw/lv_draw_rect.c ****         for(x = 0; x < corner_size / 2; x++) {
 759:lvgl\src\lv_draw/lv_draw_rect.c ****             lv_opa_t tmp = sh_buf_tmp[x];
 760:lvgl\src\lv_draw/lv_draw_rect.c ****             sh_buf_tmp[x] = sh_buf_tmp[corner_size - x - 1];
 761:lvgl\src\lv_draw/lv_draw_rect.c ****             sh_buf_tmp[corner_size - x - 1] = tmp;
 762:lvgl\src\lv_draw/lv_draw_rect.c ****         }
 763:lvgl\src\lv_draw/lv_draw_rect.c ****         sh_buf_tmp += corner_size;
 764:lvgl\src\lv_draw/lv_draw_rect.c ****     }
 765:lvgl\src\lv_draw/lv_draw_rect.c **** 
 766:lvgl\src\lv_draw/lv_draw_rect.c ****     /*Draw the top left corner*/
 767:lvgl\src\lv_draw/lv_draw_rect.c ****     a.x1 = sh_area.x1;
 768:lvgl\src\lv_draw/lv_draw_rect.c ****     a.x2 = a.x1 + corner_size - 1;
 769:lvgl\src\lv_draw/lv_draw_rect.c ****     a.y1 = sh_area.y1;
 770:lvgl\src\lv_draw/lv_draw_rect.c ****     a.y2 = a.y1 + corner_size - 1;
 771:lvgl\src\lv_draw/lv_draw_rect.c **** 
 772:lvgl\src\lv_draw/lv_draw_rect.c ****     has_com = _lv_area_intersect(&ca, &a, clip);
ARM GAS  C:\Users\strap\AppData\Local\Temp\ccsTbppz.s 			page 15


 773:lvgl\src\lv_draw/lv_draw_rect.c ****     if(has_com && _lv_area_is_in(&a, &bg_coords, r_bg) == false) {
 774:lvgl\src\lv_draw/lv_draw_rect.c ****         /*Avoid overlap in the middle with large radius*/
 775:lvgl\src\lv_draw/lv_draw_rect.c ****         if(ca.y2 > h_half) ca.y2 = h_half;
 776:lvgl\src\lv_draw/lv_draw_rect.c ****         if(ca.x2 > w_half) ca.x2 = w_half;
 777:lvgl\src\lv_draw/lv_draw_rect.c **** 
 778:lvgl\src\lv_draw/lv_draw_rect.c ****         lv_coord_t h = lv_area_get_height(&ca);
 779:lvgl\src\lv_draw/lv_draw_rect.c ****         lv_coord_t w = lv_area_get_width(&ca);
 780:lvgl\src\lv_draw/lv_draw_rect.c ****         if(w > 0) {
 781:lvgl\src\lv_draw/lv_draw_rect.c ****             sh_buf_tmp = sh_buf + (ca.x1 - a.x1);
 782:lvgl\src\lv_draw/lv_draw_rect.c ****             sh_buf_tmp += corner_size * (ca.y1 - a.y1);
 783:lvgl\src\lv_draw/lv_draw_rect.c **** 
 784:lvgl\src\lv_draw/lv_draw_rect.c ****             lv_area_t fa;
 785:lvgl\src\lv_draw/lv_draw_rect.c ****             lv_area_copy(&fa, &ca);
 786:lvgl\src\lv_draw/lv_draw_rect.c ****             fa.y2 = fa.y1;
 787:lvgl\src\lv_draw/lv_draw_rect.c **** 
 788:lvgl\src\lv_draw/lv_draw_rect.c ****             for(y = 0; y < h; y++) {
 789:lvgl\src\lv_draw/lv_draw_rect.c ****                 _lv_memcpy(mask_buf, sh_buf_tmp, w);
 790:lvgl\src\lv_draw/lv_draw_rect.c ****                 mask_res = lv_draw_mask_apply(mask_buf, fa.x1, fa.y1, w);
 791:lvgl\src\lv_draw/lv_draw_rect.c ****                 if(mask_res == LV_DRAW_MASK_RES_FULL_COVER) mask_res = LV_DRAW_MASK_RES_CHANGED;
 792:lvgl\src\lv_draw/lv_draw_rect.c **** 
 793:lvgl\src\lv_draw/lv_draw_rect.c ****                 _lv_blend_fill(clip, &fa, dsc->shadow_color, mask_buf,
 794:lvgl\src\lv_draw/lv_draw_rect.c ****                                mask_res, opa, dsc->shadow_blend_mode);
 795:lvgl\src\lv_draw/lv_draw_rect.c ****                 fa.y1++;
 796:lvgl\src\lv_draw/lv_draw_rect.c ****                 fa.y2++;
 797:lvgl\src\lv_draw/lv_draw_rect.c ****                 sh_buf_tmp += corner_size;
 798:lvgl\src\lv_draw/lv_draw_rect.c ****             }
 799:lvgl\src\lv_draw/lv_draw_rect.c ****         }
 800:lvgl\src\lv_draw/lv_draw_rect.c ****     }
 801:lvgl\src\lv_draw/lv_draw_rect.c **** 
 802:lvgl\src\lv_draw/lv_draw_rect.c ****     /*Draw the bottom left corner*/
 803:lvgl\src\lv_draw/lv_draw_rect.c ****     a.x1 = sh_area.x1;
 804:lvgl\src\lv_draw/lv_draw_rect.c ****     a.x2 = a.x1 + corner_size - 1;
 805:lvgl\src\lv_draw/lv_draw_rect.c ****     a.y1 = sh_area.y2 - corner_size + 1;
 806:lvgl\src\lv_draw/lv_draw_rect.c ****     a.y2 = sh_area.y2;
 807:lvgl\src\lv_draw/lv_draw_rect.c **** 
 808:lvgl\src\lv_draw/lv_draw_rect.c ****     has_com = _lv_area_intersect(&ca, &a, clip);
 809:lvgl\src\lv_draw/lv_draw_rect.c ****     if(has_com && _lv_area_is_in(&a, &bg_coords, r_bg) == false) {
 810:lvgl\src\lv_draw/lv_draw_rect.c ****         /*Avoid overlap in the middle with large radius*/
 811:lvgl\src\lv_draw/lv_draw_rect.c ****         if(ca.y1 <= h_half) ca.y1 = h_half + 1;
 812:lvgl\src\lv_draw/lv_draw_rect.c ****         if(ca.x2 > w_half) ca.x2 = w_half;
 813:lvgl\src\lv_draw/lv_draw_rect.c ****         lv_coord_t h = lv_area_get_height(&ca);
 814:lvgl\src\lv_draw/lv_draw_rect.c ****         lv_coord_t w = lv_area_get_width(&ca);
 815:lvgl\src\lv_draw/lv_draw_rect.c **** 
 816:lvgl\src\lv_draw/lv_draw_rect.c ****         if(w > 0) {
 817:lvgl\src\lv_draw/lv_draw_rect.c ****             sh_buf_tmp = sh_buf + (ca.x1 - a.x1);
 818:lvgl\src\lv_draw/lv_draw_rect.c ****             sh_buf_tmp += corner_size * (a.y2 - ca.y2);
 819:lvgl\src\lv_draw/lv_draw_rect.c **** 
 820:lvgl\src\lv_draw/lv_draw_rect.c ****             lv_area_t fa;
 821:lvgl\src\lv_draw/lv_draw_rect.c ****             lv_area_copy(&fa, &ca);
 822:lvgl\src\lv_draw/lv_draw_rect.c ****             fa.y1 = fa.y2;    /*Fill from bottom to top*/
 823:lvgl\src\lv_draw/lv_draw_rect.c **** 
 824:lvgl\src\lv_draw/lv_draw_rect.c ****             for(y = 0; y < h; y++) {
 825:lvgl\src\lv_draw/lv_draw_rect.c ****                 _lv_memcpy(mask_buf, sh_buf_tmp, w);
 826:lvgl\src\lv_draw/lv_draw_rect.c ****                 mask_res = lv_draw_mask_apply(mask_buf, fa.x1, fa.y1, w);
 827:lvgl\src\lv_draw/lv_draw_rect.c ****                 if(mask_res == LV_DRAW_MASK_RES_FULL_COVER) mask_res = LV_DRAW_MASK_RES_CHANGED;
 828:lvgl\src\lv_draw/lv_draw_rect.c **** 
 829:lvgl\src\lv_draw/lv_draw_rect.c ****                 _lv_blend_fill(clip, &fa, dsc->shadow_color, mask_buf,
ARM GAS  C:\Users\strap\AppData\Local\Temp\ccsTbppz.s 			page 16


 830:lvgl\src\lv_draw/lv_draw_rect.c ****                                mask_res, opa, dsc->shadow_blend_mode);
 831:lvgl\src\lv_draw/lv_draw_rect.c ****                 fa.y1--;
 832:lvgl\src\lv_draw/lv_draw_rect.c ****                 fa.y2--;
 833:lvgl\src\lv_draw/lv_draw_rect.c ****                 sh_buf_tmp += corner_size;
 834:lvgl\src\lv_draw/lv_draw_rect.c ****             }
 835:lvgl\src\lv_draw/lv_draw_rect.c ****         }
 836:lvgl\src\lv_draw/lv_draw_rect.c ****     }
 837:lvgl\src\lv_draw/lv_draw_rect.c **** 
 838:lvgl\src\lv_draw/lv_draw_rect.c ****     /*Fill the left side*/
 839:lvgl\src\lv_draw/lv_draw_rect.c ****     a.x1 = sh_area.x1;
 840:lvgl\src\lv_draw/lv_draw_rect.c ****     a.x2 = a.x1 + corner_size - 1;
 841:lvgl\src\lv_draw/lv_draw_rect.c ****     a.y1 = sh_area.y1 + corner_size;
 842:lvgl\src\lv_draw/lv_draw_rect.c ****     a.y2 = sh_area.y2 - corner_size;
 843:lvgl\src\lv_draw/lv_draw_rect.c **** 
 844:lvgl\src\lv_draw/lv_draw_rect.c ****     has_com = _lv_area_intersect(&ca, &a, clip);
 845:lvgl\src\lv_draw/lv_draw_rect.c ****     if(has_com && _lv_area_is_in(&a, &bg_coords, r_bg) == false) {
 846:lvgl\src\lv_draw/lv_draw_rect.c ****         if(simple_mode) ca.x2 = LV_MATH_MIN(coords->x1, ca.x2);
 847:lvgl\src\lv_draw/lv_draw_rect.c ****         /*Draw vertical lines*/
 848:lvgl\src\lv_draw/lv_draw_rect.c ****         lv_coord_t w = lv_area_get_width(&ca);
 849:lvgl\src\lv_draw/lv_draw_rect.c ****         if(w > 0) {
 850:lvgl\src\lv_draw/lv_draw_rect.c ****             lv_coord_t h = lv_area_get_height(&ca);
 851:lvgl\src\lv_draw/lv_draw_rect.c ****             /*The last line of the shadow is repeated on the side*/
 852:lvgl\src\lv_draw/lv_draw_rect.c ****             sh_buf_tmp = sh_buf + corner_size * (corner_size - 1);
 853:lvgl\src\lv_draw/lv_draw_rect.c ****             sh_buf_tmp += ca.x1 - a.x1;
 854:lvgl\src\lv_draw/lv_draw_rect.c **** 
 855:lvgl\src\lv_draw/lv_draw_rect.c ****             lv_area_t fa;
 856:lvgl\src\lv_draw/lv_draw_rect.c ****             lv_area_copy(&fa, &ca);
 857:lvgl\src\lv_draw/lv_draw_rect.c ****             fa.y2 = fa.y1;
 858:lvgl\src\lv_draw/lv_draw_rect.c ****             for(y = 0; y < h; y++) {
 859:lvgl\src\lv_draw/lv_draw_rect.c ****                 _lv_memcpy(mask_buf, sh_buf_tmp, w);
 860:lvgl\src\lv_draw/lv_draw_rect.c ****                 if(simple_mode) {
 861:lvgl\src\lv_draw/lv_draw_rect.c ****                     mask_res = LV_DRAW_MASK_RES_CHANGED;
 862:lvgl\src\lv_draw/lv_draw_rect.c ****                 }
 863:lvgl\src\lv_draw/lv_draw_rect.c ****                 else {
 864:lvgl\src\lv_draw/lv_draw_rect.c ****                     mask_res = lv_draw_mask_apply(mask_buf, fa.x1, fa.y1, w);
 865:lvgl\src\lv_draw/lv_draw_rect.c ****                     if(mask_res == LV_DRAW_MASK_RES_FULL_COVER) mask_res = LV_DRAW_MASK_RES_CHANGED
 866:lvgl\src\lv_draw/lv_draw_rect.c ****                 }
 867:lvgl\src\lv_draw/lv_draw_rect.c **** 
 868:lvgl\src\lv_draw/lv_draw_rect.c ****                 _lv_blend_fill(clip, &fa,
 869:lvgl\src\lv_draw/lv_draw_rect.c ****                                dsc->shadow_color, mask_buf, mask_res, dsc->shadow_opa, dsc->shadow_
 870:lvgl\src\lv_draw/lv_draw_rect.c ****                 fa.y1++;
 871:lvgl\src\lv_draw/lv_draw_rect.c ****                 fa.y2++;
 872:lvgl\src\lv_draw/lv_draw_rect.c ****             }
 873:lvgl\src\lv_draw/lv_draw_rect.c ****         }
 874:lvgl\src\lv_draw/lv_draw_rect.c ****     }
 875:lvgl\src\lv_draw/lv_draw_rect.c **** 
 876:lvgl\src\lv_draw/lv_draw_rect.c ****     /*Fill the top side*/
 877:lvgl\src\lv_draw/lv_draw_rect.c ****     a.x1 = sh_area.x1 + corner_size;
 878:lvgl\src\lv_draw/lv_draw_rect.c ****     a.x2 = sh_area.x2 - corner_size;
 879:lvgl\src\lv_draw/lv_draw_rect.c ****     a.y1 = sh_area.y1;
 880:lvgl\src\lv_draw/lv_draw_rect.c ****     a.y2 = sh_area.y1 + corner_size - 1;
 881:lvgl\src\lv_draw/lv_draw_rect.c **** 
 882:lvgl\src\lv_draw/lv_draw_rect.c ****     has_com = _lv_area_intersect(&ca, &a, clip);
 883:lvgl\src\lv_draw/lv_draw_rect.c ****     if(has_com && _lv_area_is_in(&a, &bg_coords, r_bg) == false) {
 884:lvgl\src\lv_draw/lv_draw_rect.c ****         if(simple_mode) ca.y2 = LV_MATH_MIN(ca.y2, coords->y1);
 885:lvgl\src\lv_draw/lv_draw_rect.c ****         /*Draw horizontal lines*/
 886:lvgl\src\lv_draw/lv_draw_rect.c ****         lv_coord_t w = lv_area_get_width(&ca);
ARM GAS  C:\Users\strap\AppData\Local\Temp\ccsTbppz.s 			page 17


 887:lvgl\src\lv_draw/lv_draw_rect.c ****         lv_coord_t h = lv_area_get_height(&ca);
 888:lvgl\src\lv_draw/lv_draw_rect.c ****         sh_buf_tmp = sh_buf + corner_size - 1;
 889:lvgl\src\lv_draw/lv_draw_rect.c ****         sh_buf_tmp += corner_size * (ca.y1 - a.y1);
 890:lvgl\src\lv_draw/lv_draw_rect.c **** 
 891:lvgl\src\lv_draw/lv_draw_rect.c ****         lv_area_t fa;
 892:lvgl\src\lv_draw/lv_draw_rect.c ****         lv_area_copy(&fa, &ca);
 893:lvgl\src\lv_draw/lv_draw_rect.c ****         fa.y2 = fa.y1;
 894:lvgl\src\lv_draw/lv_draw_rect.c ****         mask_res = LV_DRAW_MASK_RES_FULL_COVER;
 895:lvgl\src\lv_draw/lv_draw_rect.c ****         for(y = 0; y < h; y++) {
 896:lvgl\src\lv_draw/lv_draw_rect.c ****             lv_opa_t opa_tmp = sh_buf_tmp[0];
 897:lvgl\src\lv_draw/lv_draw_rect.c ****             if(opa_tmp != LV_OPA_COVER || opa != LV_OPA_COVER) opa_tmp = (opa * opa_tmp) >> 8;
 898:lvgl\src\lv_draw/lv_draw_rect.c **** 
 899:lvgl\src\lv_draw/lv_draw_rect.c ****             _lv_memset(mask_buf, opa_tmp, w);
 900:lvgl\src\lv_draw/lv_draw_rect.c **** 
 901:lvgl\src\lv_draw/lv_draw_rect.c ****             if(simple_mode) {
 902:lvgl\src\lv_draw/lv_draw_rect.c ****                 mask_res = LV_DRAW_MASK_RES_CHANGED;
 903:lvgl\src\lv_draw/lv_draw_rect.c ****             }
 904:lvgl\src\lv_draw/lv_draw_rect.c ****             else {
 905:lvgl\src\lv_draw/lv_draw_rect.c ****                 mask_res = lv_draw_mask_apply(mask_buf, fa.x1, fa.y1, w);
 906:lvgl\src\lv_draw/lv_draw_rect.c ****                 if(mask_res == LV_DRAW_MASK_RES_FULL_COVER) mask_res = LV_DRAW_MASK_RES_CHANGED;
 907:lvgl\src\lv_draw/lv_draw_rect.c ****             }
 908:lvgl\src\lv_draw/lv_draw_rect.c **** 
 909:lvgl\src\lv_draw/lv_draw_rect.c ****             _lv_blend_fill(clip, &fa, dsc->shadow_color, mask_buf,
 910:lvgl\src\lv_draw/lv_draw_rect.c ****                            mask_res, LV_OPA_COVER, dsc->shadow_blend_mode);
 911:lvgl\src\lv_draw/lv_draw_rect.c ****             fa.y1++;
 912:lvgl\src\lv_draw/lv_draw_rect.c ****             fa.y2++;
 913:lvgl\src\lv_draw/lv_draw_rect.c ****             sh_buf_tmp += corner_size;
 914:lvgl\src\lv_draw/lv_draw_rect.c ****         }
 915:lvgl\src\lv_draw/lv_draw_rect.c ****     }
 916:lvgl\src\lv_draw/lv_draw_rect.c **** 
 917:lvgl\src\lv_draw/lv_draw_rect.c **** 
 918:lvgl\src\lv_draw/lv_draw_rect.c ****     /*Fill the bottom side*/
 919:lvgl\src\lv_draw/lv_draw_rect.c ****     a.x1 = sh_area.x1 + corner_size;
 920:lvgl\src\lv_draw/lv_draw_rect.c ****     a.x2 = sh_area.x2 - corner_size;
 921:lvgl\src\lv_draw/lv_draw_rect.c ****     a.y1 = sh_area.y2 - corner_size + 1;
 922:lvgl\src\lv_draw/lv_draw_rect.c ****     a.y2 = sh_area.y2;
 923:lvgl\src\lv_draw/lv_draw_rect.c **** 
 924:lvgl\src\lv_draw/lv_draw_rect.c ****     has_com = _lv_area_intersect(&ca, &a, clip);
 925:lvgl\src\lv_draw/lv_draw_rect.c ****     if(has_com && _lv_area_is_in(&a, &bg_coords, r_bg) == false) {
 926:lvgl\src\lv_draw/lv_draw_rect.c ****         if(simple_mode) ca.y1 = LV_MATH_MAX(ca.y1, coords->y2);
 927:lvgl\src\lv_draw/lv_draw_rect.c ****         /*Draw horizontal lines*/
 928:lvgl\src\lv_draw/lv_draw_rect.c ****         lv_coord_t w = lv_area_get_width(&ca);
 929:lvgl\src\lv_draw/lv_draw_rect.c ****         lv_coord_t h = lv_area_get_height(&ca);
 930:lvgl\src\lv_draw/lv_draw_rect.c ****         sh_buf_tmp = sh_buf + corner_size - 1;
 931:lvgl\src\lv_draw/lv_draw_rect.c ****         sh_buf_tmp += corner_size * (a.y2 - ca.y2);
 932:lvgl\src\lv_draw/lv_draw_rect.c **** 
 933:lvgl\src\lv_draw/lv_draw_rect.c ****         lv_area_t fa;
 934:lvgl\src\lv_draw/lv_draw_rect.c ****         lv_area_copy(&fa, &ca);
 935:lvgl\src\lv_draw/lv_draw_rect.c ****         fa.y1 = fa.y2;
 936:lvgl\src\lv_draw/lv_draw_rect.c ****         for(y = 0; y < h; y++) {
 937:lvgl\src\lv_draw/lv_draw_rect.c ****             lv_opa_t opa_tmp = sh_buf_tmp[0];
 938:lvgl\src\lv_draw/lv_draw_rect.c ****             if(opa_tmp != LV_OPA_COVER || opa != LV_OPA_COVER) opa_tmp = (opa * opa_tmp) >> 8;
 939:lvgl\src\lv_draw/lv_draw_rect.c **** 
 940:lvgl\src\lv_draw/lv_draw_rect.c ****             _lv_memset(mask_buf, opa_tmp, w);
 941:lvgl\src\lv_draw/lv_draw_rect.c ****             if(simple_mode) {
 942:lvgl\src\lv_draw/lv_draw_rect.c ****                 mask_res = LV_DRAW_MASK_RES_CHANGED;
 943:lvgl\src\lv_draw/lv_draw_rect.c ****             }
ARM GAS  C:\Users\strap\AppData\Local\Temp\ccsTbppz.s 			page 18


 944:lvgl\src\lv_draw/lv_draw_rect.c ****             else {
 945:lvgl\src\lv_draw/lv_draw_rect.c ****                 mask_res = lv_draw_mask_apply(mask_buf, fa.x1, fa.y1, w);
 946:lvgl\src\lv_draw/lv_draw_rect.c ****                 if(mask_res == LV_DRAW_MASK_RES_FULL_COVER) mask_res = LV_DRAW_MASK_RES_CHANGED;
 947:lvgl\src\lv_draw/lv_draw_rect.c ****             }
 948:lvgl\src\lv_draw/lv_draw_rect.c **** 
 949:lvgl\src\lv_draw/lv_draw_rect.c ****             _lv_blend_fill(clip, &fa, dsc->shadow_color, mask_buf,
 950:lvgl\src\lv_draw/lv_draw_rect.c ****                            mask_res, LV_OPA_COVER, dsc->shadow_blend_mode);
 951:lvgl\src\lv_draw/lv_draw_rect.c ****             fa.y1--;
 952:lvgl\src\lv_draw/lv_draw_rect.c ****             fa.y2--;
 953:lvgl\src\lv_draw/lv_draw_rect.c ****             sh_buf_tmp += corner_size;
 954:lvgl\src\lv_draw/lv_draw_rect.c ****         }
 955:lvgl\src\lv_draw/lv_draw_rect.c ****     }
 956:lvgl\src\lv_draw/lv_draw_rect.c **** 
 957:lvgl\src\lv_draw/lv_draw_rect.c ****     /*Draw the middle area*/
 958:lvgl\src\lv_draw/lv_draw_rect.c ****     a.x1 = sh_area.x1 + corner_size;
 959:lvgl\src\lv_draw/lv_draw_rect.c ****     a.x2 = sh_area.x2 - corner_size;
 960:lvgl\src\lv_draw/lv_draw_rect.c ****     a.y1 = sh_area.y1 + corner_size;
 961:lvgl\src\lv_draw/lv_draw_rect.c ****     a.y2 = sh_area.y2 - corner_size;
 962:lvgl\src\lv_draw/lv_draw_rect.c **** 
 963:lvgl\src\lv_draw/lv_draw_rect.c ****     has_com = _lv_area_intersect(&ca, &a, clip);
 964:lvgl\src\lv_draw/lv_draw_rect.c ****     if(has_com && simple_mode == false &&  _lv_area_is_in(&a, &bg_coords, r_bg) == false) {
 965:lvgl\src\lv_draw/lv_draw_rect.c ****         /*Draw horizontal lines*/
 966:lvgl\src\lv_draw/lv_draw_rect.c ****         lv_coord_t w = lv_area_get_width(&ca);
 967:lvgl\src\lv_draw/lv_draw_rect.c ****         lv_coord_t h = lv_area_get_height(&ca);
 968:lvgl\src\lv_draw/lv_draw_rect.c **** 
 969:lvgl\src\lv_draw/lv_draw_rect.c ****         lv_area_t fa;
 970:lvgl\src\lv_draw/lv_draw_rect.c ****         lv_area_copy(&fa, &ca);
 971:lvgl\src\lv_draw/lv_draw_rect.c ****         fa.y2 = fa.y1;
 972:lvgl\src\lv_draw/lv_draw_rect.c ****         for(y = 0; y < h; y++) {
 973:lvgl\src\lv_draw/lv_draw_rect.c ****             _lv_memset(mask_buf, dsc->shadow_opa, w);
 974:lvgl\src\lv_draw/lv_draw_rect.c ****             mask_res = lv_draw_mask_apply(mask_buf, fa.x1, fa.y1, w);
 975:lvgl\src\lv_draw/lv_draw_rect.c ****             if(mask_res == LV_DRAW_MASK_RES_FULL_COVER) mask_res = LV_DRAW_MASK_RES_CHANGED;
 976:lvgl\src\lv_draw/lv_draw_rect.c **** 
 977:lvgl\src\lv_draw/lv_draw_rect.c ****             _lv_blend_fill(clip, &fa, dsc->shadow_color, mask_buf,
 978:lvgl\src\lv_draw/lv_draw_rect.c ****                            mask_res, LV_OPA_COVER, dsc->shadow_blend_mode);
 979:lvgl\src\lv_draw/lv_draw_rect.c ****             fa.y1++;
 980:lvgl\src\lv_draw/lv_draw_rect.c ****             fa.y2++;
 981:lvgl\src\lv_draw/lv_draw_rect.c ****         }
 982:lvgl\src\lv_draw/lv_draw_rect.c ****     }
 983:lvgl\src\lv_draw/lv_draw_rect.c **** 
 984:lvgl\src\lv_draw/lv_draw_rect.c ****     lv_draw_mask_remove_id(mask_rout_id);
 985:lvgl\src\lv_draw/lv_draw_rect.c ****     _lv_mem_buf_release(mask_buf);
 986:lvgl\src\lv_draw/lv_draw_rect.c ****     _lv_mem_buf_release(sh_buf);
 987:lvgl\src\lv_draw/lv_draw_rect.c **** }
 988:lvgl\src\lv_draw/lv_draw_rect.c **** 
 989:lvgl\src\lv_draw/lv_draw_rect.c **** /**
 990:lvgl\src\lv_draw/lv_draw_rect.c ****  * Calculate a blurred corner
 991:lvgl\src\lv_draw/lv_draw_rect.c ****  * @param coords Coordinates of the shadow
 992:lvgl\src\lv_draw/lv_draw_rect.c ****  * @param sh_buf a buffer to store the result. It's size should be `(sw + r)^2 * 2`
 993:lvgl\src\lv_draw/lv_draw_rect.c ****  * @param sw shadow width
 994:lvgl\src\lv_draw/lv_draw_rect.c ****  * @param r radius
 995:lvgl\src\lv_draw/lv_draw_rect.c ****  */
 996:lvgl\src\lv_draw/lv_draw_rect.c **** LV_ATTRIBUTE_FAST_MEM static void shadow_draw_corner_buf(const lv_area_t * coords, uint16_t * sh_bu
 997:lvgl\src\lv_draw/lv_draw_rect.c ****                                                          lv_coord_t r)
 998:lvgl\src\lv_draw/lv_draw_rect.c **** {
 999:lvgl\src\lv_draw/lv_draw_rect.c ****     int32_t sw_ori = sw;
1000:lvgl\src\lv_draw/lv_draw_rect.c ****     int32_t size = sw_ori  + r;
ARM GAS  C:\Users\strap\AppData\Local\Temp\ccsTbppz.s 			page 19


1001:lvgl\src\lv_draw/lv_draw_rect.c **** 
1002:lvgl\src\lv_draw/lv_draw_rect.c ****     lv_area_t sh_area;
1003:lvgl\src\lv_draw/lv_draw_rect.c ****     lv_area_copy(&sh_area, coords);
1004:lvgl\src\lv_draw/lv_draw_rect.c ****     sh_area.x2 = sw / 2 + r - 1  - ((sw & 1) ? 0 : 1);
1005:lvgl\src\lv_draw/lv_draw_rect.c ****     sh_area.y1 = sw / 2 + 1;
1006:lvgl\src\lv_draw/lv_draw_rect.c **** 
1007:lvgl\src\lv_draw/lv_draw_rect.c ****     sh_area.x1 = sh_area.x2 - lv_area_get_width(coords);
1008:lvgl\src\lv_draw/lv_draw_rect.c ****     sh_area.y2 = sh_area.y1 + lv_area_get_height(coords);
1009:lvgl\src\lv_draw/lv_draw_rect.c **** 
1010:lvgl\src\lv_draw/lv_draw_rect.c ****     lv_draw_mask_radius_param_t mask_param;
1011:lvgl\src\lv_draw/lv_draw_rect.c ****     lv_draw_mask_radius_init(&mask_param, &sh_area, r, false);
1012:lvgl\src\lv_draw/lv_draw_rect.c **** 
1013:lvgl\src\lv_draw/lv_draw_rect.c **** #if SHADOW_ENHANCE
1014:lvgl\src\lv_draw/lv_draw_rect.c ****     /*Set half shadow width width because blur will be repeated*/
1015:lvgl\src\lv_draw/lv_draw_rect.c ****     if(sw_ori == 1) sw = 1;
1016:lvgl\src\lv_draw/lv_draw_rect.c ****     else sw = sw_ori >> 1;
1017:lvgl\src\lv_draw/lv_draw_rect.c **** #endif
1018:lvgl\src\lv_draw/lv_draw_rect.c **** 
1019:lvgl\src\lv_draw/lv_draw_rect.c ****     int32_t y;
1020:lvgl\src\lv_draw/lv_draw_rect.c ****     lv_opa_t * mask_line = _lv_mem_buf_get(size);
1021:lvgl\src\lv_draw/lv_draw_rect.c ****     uint16_t * sh_ups_tmp_buf = (uint16_t *)sh_buf;
1022:lvgl\src\lv_draw/lv_draw_rect.c ****     for(y = 0; y < size; y++) {
1023:lvgl\src\lv_draw/lv_draw_rect.c ****         _lv_memset_ff(mask_line, size);
1024:lvgl\src\lv_draw/lv_draw_rect.c ****         lv_draw_mask_res_t mask_res = mask_param.dsc.cb(mask_line, 0, y, size, &mask_param);
1025:lvgl\src\lv_draw/lv_draw_rect.c ****         if(mask_res == LV_DRAW_MASK_RES_TRANSP) {
1026:lvgl\src\lv_draw/lv_draw_rect.c ****             _lv_memset_00(sh_ups_tmp_buf, size * sizeof(sh_ups_tmp_buf[0]));
1027:lvgl\src\lv_draw/lv_draw_rect.c ****         }
1028:lvgl\src\lv_draw/lv_draw_rect.c ****         else {
1029:lvgl\src\lv_draw/lv_draw_rect.c ****             int32_t i;
1030:lvgl\src\lv_draw/lv_draw_rect.c ****             sh_ups_tmp_buf[0] = (mask_line[0] << SHADOW_UPSACALE_SHIFT) / sw;
1031:lvgl\src\lv_draw/lv_draw_rect.c ****             for(i = 1; i < size; i++) {
1032:lvgl\src\lv_draw/lv_draw_rect.c ****                 if(mask_line[i] == mask_line[i - 1]) sh_ups_tmp_buf[i] = sh_ups_tmp_buf[i - 1];
1033:lvgl\src\lv_draw/lv_draw_rect.c ****                 else  sh_ups_tmp_buf[i] = (mask_line[i] << SHADOW_UPSACALE_SHIFT) / sw;
1034:lvgl\src\lv_draw/lv_draw_rect.c ****             }
1035:lvgl\src\lv_draw/lv_draw_rect.c ****         }
1036:lvgl\src\lv_draw/lv_draw_rect.c **** 
1037:lvgl\src\lv_draw/lv_draw_rect.c ****         sh_ups_tmp_buf += size;
1038:lvgl\src\lv_draw/lv_draw_rect.c ****     }
1039:lvgl\src\lv_draw/lv_draw_rect.c ****     _lv_mem_buf_release(mask_line);
1040:lvgl\src\lv_draw/lv_draw_rect.c **** 
1041:lvgl\src\lv_draw/lv_draw_rect.c ****     if(sw == 1) {
1042:lvgl\src\lv_draw/lv_draw_rect.c ****         int32_t i;
1043:lvgl\src\lv_draw/lv_draw_rect.c ****         lv_opa_t * res_buf = (lv_opa_t *)sh_buf;
1044:lvgl\src\lv_draw/lv_draw_rect.c ****         for(i = 0; i < size * size; i++) {
1045:lvgl\src\lv_draw/lv_draw_rect.c ****             res_buf[i] = (sh_buf[i] >> SHADOW_UPSACALE_SHIFT);
1046:lvgl\src\lv_draw/lv_draw_rect.c ****         }
1047:lvgl\src\lv_draw/lv_draw_rect.c ****         return;
1048:lvgl\src\lv_draw/lv_draw_rect.c ****     }
1049:lvgl\src\lv_draw/lv_draw_rect.c **** 
1050:lvgl\src\lv_draw/lv_draw_rect.c ****     shadow_blur_corner(size, sw, sh_buf);
1051:lvgl\src\lv_draw/lv_draw_rect.c **** 
1052:lvgl\src\lv_draw/lv_draw_rect.c **** #if SHADOW_ENHANCE == 0
1053:lvgl\src\lv_draw/lv_draw_rect.c ****     /*The result is required in lv_opa_t not uint16_t*/
1054:lvgl\src\lv_draw/lv_draw_rect.c ****     uint32_t x;
1055:lvgl\src\lv_draw/lv_draw_rect.c ****     lv_opa_t * res_buf = (lv_opa_t *)sh_buf;
1056:lvgl\src\lv_draw/lv_draw_rect.c ****     for(x = 0; x < size * size; x++) {
1057:lvgl\src\lv_draw/lv_draw_rect.c ****         res_buf[x] = sh_buf[x];
ARM GAS  C:\Users\strap\AppData\Local\Temp\ccsTbppz.s 			page 20


1058:lvgl\src\lv_draw/lv_draw_rect.c ****     }
1059:lvgl\src\lv_draw/lv_draw_rect.c **** #else
1060:lvgl\src\lv_draw/lv_draw_rect.c ****     sw += sw_ori & 1;
1061:lvgl\src\lv_draw/lv_draw_rect.c ****     if(sw > 1) {
1062:lvgl\src\lv_draw/lv_draw_rect.c ****         uint32_t i;
1063:lvgl\src\lv_draw/lv_draw_rect.c ****         sh_buf[0] = (sh_buf[0] << SHADOW_UPSACALE_SHIFT) / sw;
1064:lvgl\src\lv_draw/lv_draw_rect.c ****         for(i = 1; i < (uint32_t) size * size; i++) {
1065:lvgl\src\lv_draw/lv_draw_rect.c ****             if(sh_buf[i] == sh_buf[i - 1]) sh_buf[i] = sh_buf[i - 1];
1066:lvgl\src\lv_draw/lv_draw_rect.c ****             else  sh_buf[i] = (sh_buf[i] << SHADOW_UPSACALE_SHIFT) / sw;
1067:lvgl\src\lv_draw/lv_draw_rect.c ****         }
1068:lvgl\src\lv_draw/lv_draw_rect.c **** 
1069:lvgl\src\lv_draw/lv_draw_rect.c ****         shadow_blur_corner(size, sw, sh_buf);
1070:lvgl\src\lv_draw/lv_draw_rect.c ****     }
1071:lvgl\src\lv_draw/lv_draw_rect.c ****     int32_t x;
1072:lvgl\src\lv_draw/lv_draw_rect.c ****     lv_opa_t * res_buf = (lv_opa_t *)sh_buf;
1073:lvgl\src\lv_draw/lv_draw_rect.c ****     for(x = 0; x < size * size; x++) {
1074:lvgl\src\lv_draw/lv_draw_rect.c ****         res_buf[x] = sh_buf[x];
1075:lvgl\src\lv_draw/lv_draw_rect.c ****     }
1076:lvgl\src\lv_draw/lv_draw_rect.c **** #endif
1077:lvgl\src\lv_draw/lv_draw_rect.c **** 
1078:lvgl\src\lv_draw/lv_draw_rect.c **** }
1079:lvgl\src\lv_draw/lv_draw_rect.c **** 
1080:lvgl\src\lv_draw/lv_draw_rect.c **** LV_ATTRIBUTE_FAST_MEM static void shadow_blur_corner(lv_coord_t size, lv_coord_t sw, uint16_t * sh_
1081:lvgl\src\lv_draw/lv_draw_rect.c **** {
  27              		.loc 1 1081 0
  28              		.cfi_startproc
  29              		@ args = 0, pretend = 0, frame = 16
  30              		@ frame_needed = 0, uses_anonymous_args = 0
  31              	.LVL0:
  32 0000 2DE9F04F 		push	{r4, r5, r6, r7, r8, r9, r10, fp, lr}
  33              		.cfi_def_cfa_offset 36
  34              		.cfi_offset 4, -36
  35              		.cfi_offset 5, -32
  36              		.cfi_offset 6, -28
  37              		.cfi_offset 7, -24
  38              		.cfi_offset 8, -20
  39              		.cfi_offset 9, -16
  40              		.cfi_offset 10, -12
  41              		.cfi_offset 11, -8
  42              		.cfi_offset 14, -4
  43 0004 85B0     		sub	sp, sp, #20
  44              		.cfi_def_cfa_offset 56
  45 0006 0290     		str	r0, [sp, #8]
  46 0008 0191     		str	r1, [sp, #4]
  47 000a 1546     		mov	r5, r2
1082:lvgl\src\lv_draw/lv_draw_rect.c ****     int32_t s_left = sw >> 1;
  48              		.loc 1 1082 0
  49 000c 4F10     		asrs	r7, r1, #1
  50              	.LVL1:
1083:lvgl\src\lv_draw/lv_draw_rect.c ****     int32_t s_right = (sw >> 1);
1084:lvgl\src\lv_draw/lv_draw_rect.c ****     if((sw & 1) == 0) s_left--;
  51              		.loc 1 1084 0
  52 000e 11F0010F 		tst	r1, #1
  53 0012 02D1     		bne	.L25
  54              		.loc 1 1084 0 is_stmt 0 discriminator 1
  55 0014 07F1FF38 		add	r8, r7, #-1
  56              	.LVL2:
ARM GAS  C:\Users\strap\AppData\Local\Temp\ccsTbppz.s 			page 21


  57 0018 00E0     		b	.L2
  58              	.LVL3:
  59              	.L25:
1082:lvgl\src\lv_draw/lv_draw_rect.c ****     int32_t s_left = sw >> 1;
  60              		.loc 1 1082 0 is_stmt 1
  61 001a B846     		mov	r8, r7
  62              	.LVL4:
  63              	.L2:
1085:lvgl\src\lv_draw/lv_draw_rect.c **** 
1086:lvgl\src\lv_draw/lv_draw_rect.c ****     /*Horizontal blur*/
1087:lvgl\src\lv_draw/lv_draw_rect.c ****     uint16_t * sh_ups_blur_buf = _lv_mem_buf_get(size * sizeof(uint16_t));
  64              		.loc 1 1087 0
  65 001c 029B     		ldr	r3, [sp, #8]
  66 001e 9A46     		mov	r10, r3
  67 0020 5E00     		lsls	r6, r3, #1
  68 0022 3046     		mov	r0, r6
  69              	.LVL5:
  70 0024 FFF7FEFF 		bl	_lv_mem_buf_get
  71              	.LVL6:
  72 0028 0446     		mov	r4, r0
  73              	.LVL7:
1088:lvgl\src\lv_draw/lv_draw_rect.c **** 
1089:lvgl\src\lv_draw/lv_draw_rect.c ****     int32_t x;
1090:lvgl\src\lv_draw/lv_draw_rect.c ****     int32_t y;
1091:lvgl\src\lv_draw/lv_draw_rect.c **** 
1092:lvgl\src\lv_draw/lv_draw_rect.c ****     uint16_t * sh_ups_tmp_buf = sh_ups_buf;
  74              		.loc 1 1092 0
  75 002a A946     		mov	r9, r5
1093:lvgl\src\lv_draw/lv_draw_rect.c **** 
1094:lvgl\src\lv_draw/lv_draw_rect.c ****     for(y = 0; y < size; y++) {
  76              		.loc 1 1094 0
  77 002c 4FF0000B 		mov	fp, #0
  78 0030 0395     		str	r5, [sp, #12]
  79 0032 029D     		ldr	r5, [sp, #8]
  80              	.LVL8:
  81 0034 2BE0     		b	.L3
  82              	.LVL9:
  83              	.L9:
  84              	.LBB207:
1095:lvgl\src\lv_draw/lv_draw_rect.c ****         int32_t v = sh_ups_tmp_buf[size - 1] * sw;
  85              		.loc 1 1095 0
  86 0036 0AF10043 		add	r3, r10, #-2147483648
  87 003a 013B     		subs	r3, r3, #1
  88 003c 39F81330 		ldrh	r3, [r9, r3, lsl #1]
  89 0040 019A     		ldr	r2, [sp, #4]
  90 0042 02FB03F3 		mul	r3, r2, r3
  91              	.LVL10:
1096:lvgl\src\lv_draw/lv_draw_rect.c ****         for(x = size - 1; x >= 0; x--) {
  92              		.loc 1 1096 0
  93 0046 681E     		subs	r0, r5, #1
  94              	.LVL11:
  95 0048 17E0     		b	.L4
  96              	.L8:
  97              	.LBB208:
1097:lvgl\src\lv_draw/lv_draw_rect.c ****             sh_ups_blur_buf[x] = v;
  98              		.loc 1 1097 0
  99 004a 24F81030 		strh	r3, [r4, r0, lsl #1]	@ movhi
ARM GAS  C:\Users\strap\AppData\Local\Temp\ccsTbppz.s 			page 22


 100              	.LVL12:
1098:lvgl\src\lv_draw/lv_draw_rect.c **** 
1099:lvgl\src\lv_draw/lv_draw_rect.c ****             /*Forget the right pixel*/
1100:lvgl\src\lv_draw/lv_draw_rect.c ****             uint32_t right_val = 0;
1101:lvgl\src\lv_draw/lv_draw_rect.c ****             if(x + s_right < size) right_val = sh_ups_tmp_buf[x + s_right];
 101              		.loc 1 1101 0
 102 004e C219     		adds	r2, r0, r7
 103 0050 9142     		cmp	r1, r2
 104 0052 02DD     		ble	.L26
 105              		.loc 1 1101 0 is_stmt 0 discriminator 1
 106 0054 39F81220 		ldrh	r2, [r9, r2, lsl #1]
 107              	.LVL13:
 108 0058 00E0     		b	.L5
 109              	.LVL14:
 110              	.L26:
1100:lvgl\src\lv_draw/lv_draw_rect.c ****             if(x + s_right < size) right_val = sh_ups_tmp_buf[x + s_right];
 111              		.loc 1 1100 0 is_stmt 1
 112 005a 0022     		movs	r2, #0
 113              	.LVL15:
 114              	.L5:
1102:lvgl\src\lv_draw/lv_draw_rect.c ****             v -= right_val;
 115              		.loc 1 1102 0
 116 005c 9B1A     		subs	r3, r3, r2
 117              	.LVL16:
1103:lvgl\src\lv_draw/lv_draw_rect.c **** 
1104:lvgl\src\lv_draw/lv_draw_rect.c ****             /*Add the left pixel*/
1105:lvgl\src\lv_draw/lv_draw_rect.c ****             uint32_t left_val;
1106:lvgl\src\lv_draw/lv_draw_rect.c ****             if(x - s_left - 1 < 0) left_val = sh_ups_tmp_buf[0];
 118              		.loc 1 1106 0
 119 005e C8EB0002 		rsb	r2, r8, r0
 120              	.LVL17:
 121 0062 012A     		cmp	r2, #1
 122 0064 02D5     		bpl	.L6
 123              		.loc 1 1106 0 is_stmt 0 discriminator 1
 124 0066 B9F80020 		ldrh	r2, [r9]
 125              	.LVL18:
 126 006a 04E0     		b	.L7
 127              	.LVL19:
 128              	.L6:
1107:lvgl\src\lv_draw/lv_draw_rect.c ****             else left_val = sh_ups_tmp_buf[x - s_left - 1];
 129              		.loc 1 1107 0 is_stmt 1
 130 006c 02F10042 		add	r2, r2, #-2147483648
 131 0070 013A     		subs	r2, r2, #1
 132 0072 39F81220 		ldrh	r2, [r9, r2, lsl #1]
 133              	.LVL20:
 134              	.L7:
1108:lvgl\src\lv_draw/lv_draw_rect.c ****             v += left_val;
 135              		.loc 1 1108 0 discriminator 2
 136 0076 1344     		add	r3, r3, r2
 137              	.LVL21:
 138              	.LBE208:
1096:lvgl\src\lv_draw/lv_draw_rect.c ****             sh_ups_blur_buf[x] = v;
 139              		.loc 1 1096 0 discriminator 2
 140 0078 0138     		subs	r0, r0, #1
 141              	.LVL22:
 142              	.L4:
1096:lvgl\src\lv_draw/lv_draw_rect.c ****             sh_ups_blur_buf[x] = v;
ARM GAS  C:\Users\strap\AppData\Local\Temp\ccsTbppz.s 			page 23


 143              		.loc 1 1096 0 is_stmt 0 discriminator 1
 144 007a 0028     		cmp	r0, #0
 145 007c E5DA     		bge	.L8
1109:lvgl\src\lv_draw/lv_draw_rect.c ****         }
1110:lvgl\src\lv_draw/lv_draw_rect.c ****         _lv_memcpy(sh_ups_tmp_buf, sh_ups_blur_buf, size * sizeof(uint16_t));
 146              		.loc 1 1110 0 is_stmt 1 discriminator 2
 147 007e 3246     		mov	r2, r6
 148 0080 2146     		mov	r1, r4
 149 0082 4846     		mov	r0, r9
 150              	.LVL23:
 151 0084 FFF7FEFF 		bl	_lv_memcpy
 152              	.LVL24:
1111:lvgl\src\lv_draw/lv_draw_rect.c ****         sh_ups_tmp_buf += size;
 153              		.loc 1 1111 0 discriminator 2
 154 0088 B144     		add	r9, r9, r6
 155              	.LVL25:
 156              	.LBE207:
1094:lvgl\src\lv_draw/lv_draw_rect.c ****         int32_t v = sh_ups_tmp_buf[size - 1] * sw;
 157              		.loc 1 1094 0 discriminator 2
 158 008a 0BF1010B 		add	fp, fp, #1
 159              	.LVL26:
 160              	.L3:
1094:lvgl\src\lv_draw/lv_draw_rect.c ****         int32_t v = sh_ups_tmp_buf[size - 1] * sw;
 161              		.loc 1 1094 0 is_stmt 0 discriminator 1
 162 008e 2946     		mov	r1, r5
 163 0090 AB45     		cmp	fp, r5
 164 0092 D0DB     		blt	.L9
 165 0094 039D     		ldr	r5, [sp, #12]
1112:lvgl\src\lv_draw/lv_draw_rect.c ****     }
1113:lvgl\src\lv_draw/lv_draw_rect.c **** 
1114:lvgl\src\lv_draw/lv_draw_rect.c ****     /*Vertical blur*/
1115:lvgl\src\lv_draw/lv_draw_rect.c ****     uint32_t i;
1116:lvgl\src\lv_draw/lv_draw_rect.c ****     sh_ups_buf[0] = sh_ups_buf[0] / sw;
 166              		.loc 1 1116 0 is_stmt 1
 167 0096 2B88     		ldrh	r3, [r5]
 168 0098 019A     		ldr	r2, [sp, #4]
 169 009a 9446     		mov	ip, r2
 170 009c 93FBF2F3 		sdiv	r3, r3, r2
 171 00a0 2B80     		strh	r3, [r5]	@ movhi
 172              	.LVL27:
1117:lvgl\src\lv_draw/lv_draw_rect.c ****     for(i = 1; i < (uint32_t)size * size; i++) {
 173              		.loc 1 1117 0
 174 00a2 0123     		movs	r3, #1
 175 00a4 10E0     		b	.L10
 176              	.LVL28:
 177              	.L13:
1118:lvgl\src\lv_draw/lv_draw_rect.c ****         if(sh_ups_buf[i] == sh_ups_buf[i - 1]) sh_ups_buf[i] = sh_ups_buf[i - 1];
 178              		.loc 1 1118 0
 179 00a6 35F81320 		ldrh	r2, [r5, r3, lsl #1]
 180 00aa 03F10040 		add	r0, r3, #-2147483648
 181 00ae 0138     		subs	r0, r0, #1
 182 00b0 35F81000 		ldrh	r0, [r5, r0, lsl #1]
 183 00b4 8242     		cmp	r2, r0
 184 00b6 02D1     		bne	.L11
 185              		.loc 1 1118 0 is_stmt 0 discriminator 1
 186 00b8 25F81300 		strh	r0, [r5, r3, lsl #1]	@ movhi
 187 00bc 03E0     		b	.L12
ARM GAS  C:\Users\strap\AppData\Local\Temp\ccsTbppz.s 			page 24


 188              	.L11:
1119:lvgl\src\lv_draw/lv_draw_rect.c ****         else  sh_ups_buf[i] = sh_ups_buf[i] / sw;
 189              		.loc 1 1119 0 is_stmt 1
 190 00be 92FBFCF2 		sdiv	r2, r2, ip
 191 00c2 25F81320 		strh	r2, [r5, r3, lsl #1]	@ movhi
 192              	.L12:
1117:lvgl\src\lv_draw/lv_draw_rect.c ****     for(i = 1; i < (uint32_t)size * size; i++) {
 193              		.loc 1 1117 0 discriminator 2
 194 00c6 0133     		adds	r3, r3, #1
 195              	.LVL29:
 196              	.L10:
1117:lvgl\src\lv_draw/lv_draw_rect.c ****     for(i = 1; i < (uint32_t)size * size; i++) {
 197              		.loc 1 1117 0 is_stmt 0 discriminator 1
 198 00c8 0AFB0AF2 		mul	r2, r10, r10
 199 00cc 9342     		cmp	r3, r2
 200 00ce EAD3     		bcc	.L13
 201 00d0 4FF0000A 		mov	r10, #0
 202 00d4 3DE0     		b	.L14
 203              	.LVL30:
 204              	.L24:
 205              	.LBB209:
1120:lvgl\src\lv_draw/lv_draw_rect.c ****     }
1121:lvgl\src\lv_draw/lv_draw_rect.c **** 
1122:lvgl\src\lv_draw/lv_draw_rect.c ****     for(x = 0; x < size; x++) {
1123:lvgl\src\lv_draw/lv_draw_rect.c ****         sh_ups_tmp_buf = &sh_ups_buf[x];
 206              		.loc 1 1123 0 is_stmt 1
 207 00d6 05EB4A0E 		add	lr, r5, r10, lsl #1
 208              	.LVL31:
1124:lvgl\src\lv_draw/lv_draw_rect.c ****         int32_t v = sh_ups_tmp_buf[0] * sw;
 209              		.loc 1 1124 0
 210 00da 35F81A20 		ldrh	r2, [r5, r10, lsl #1]
 211 00de 0CFB02F2 		mul	r2, ip, r2
 212              	.LVL32:
1123:lvgl\src\lv_draw/lv_draw_rect.c ****         int32_t v = sh_ups_tmp_buf[0] * sw;
 213              		.loc 1 1123 0
 214 00e2 F146     		mov	r9, lr
1125:lvgl\src\lv_draw/lv_draw_rect.c ****         for(y = 0; y < size ; y++, sh_ups_tmp_buf += size) {
 215              		.loc 1 1125 0
 216 00e4 0023     		movs	r3, #0
 217 00e6 26E0     		b	.L15
 218              	.LVL33:
 219              	.L21:
 220              	.LBB210:
1126:lvgl\src\lv_draw/lv_draw_rect.c ****             sh_ups_blur_buf[y] = v < 0 ? 0 : (v >> SHADOW_UPSACALE_SHIFT);
 221              		.loc 1 1126 0
 222 00e8 5800     		lsls	r0, r3, #1
 223 00ea 002A     		cmp	r2, #0
 224 00ec 02DB     		blt	.L27
 225              		.loc 1 1126 0 is_stmt 0 discriminator 1
 226 00ee C2F38F1B 		ubfx	fp, r2, #6, #16
 227 00f2 01E0     		b	.L16
 228              	.L27:
 229              		.loc 1 1126 0
 230 00f4 4FF0000B 		mov	fp, #0
 231              	.L16:
 232              		.loc 1 1126 0 discriminator 4
 233 00f8 24F800B0 		strh	fp, [r4, r0]	@ movhi
ARM GAS  C:\Users\strap\AppData\Local\Temp\ccsTbppz.s 			page 25


1127:lvgl\src\lv_draw/lv_draw_rect.c **** 
1128:lvgl\src\lv_draw/lv_draw_rect.c ****             /*Forget the top pixel*/
1129:lvgl\src\lv_draw/lv_draw_rect.c ****             uint32_t top_val;
1130:lvgl\src\lv_draw/lv_draw_rect.c ****             if(y - s_right <= 0) top_val = sh_ups_tmp_buf[0];
 234              		.loc 1 1130 0 is_stmt 1 discriminator 4
 235 00fc D81B     		subs	r0, r3, r7
 236 00fe 0028     		cmp	r0, #0
 237 0100 02DC     		bgt	.L17
 238              		.loc 1 1130 0 is_stmt 0 discriminator 1
 239 0102 B9F80000 		ldrh	r0, [r9]
 240              	.LVL34:
 241 0106 03E0     		b	.L18
 242              	.LVL35:
 243              	.L17:
1131:lvgl\src\lv_draw/lv_draw_rect.c ****             else top_val = sh_ups_buf[(y - s_right) * size + x];
 244              		.loc 1 1131 0 is_stmt 1
 245 0108 00FB01A0 		mla	r0, r0, r1, r10
 246 010c 35F81000 		ldrh	r0, [r5, r0, lsl #1]
 247              	.LVL36:
 248              	.L18:
1132:lvgl\src\lv_draw/lv_draw_rect.c ****             v -= top_val;
 249              		.loc 1 1132 0
 250 0110 121A     		subs	r2, r2, r0
 251              	.LVL37:
1133:lvgl\src\lv_draw/lv_draw_rect.c **** 
1134:lvgl\src\lv_draw/lv_draw_rect.c ****             /*Add the bottom pixel*/
1135:lvgl\src\lv_draw/lv_draw_rect.c ****             uint32_t bottom_val;
1136:lvgl\src\lv_draw/lv_draw_rect.c ****             if(y + s_left + 1 < size) bottom_val = sh_ups_buf[(y + s_left + 1) * size + x];
 252              		.loc 1 1136 0
 253 0112 08EB0300 		add	r0, r8, r3
 254              	.LVL38:
 255 0116 0130     		adds	r0, r0, #1
 256 0118 8142     		cmp	r1, r0
 257 011a 04DD     		ble	.L19
 258              		.loc 1 1136 0 is_stmt 0 discriminator 1
 259 011c 00FB01A0 		mla	r0, r0, r1, r10
 260 0120 35F81000 		ldrh	r0, [r5, r0, lsl #1]
 261              	.LVL39:
 262 0124 04E0     		b	.L20
 263              	.LVL40:
 264              	.L19:
1137:lvgl\src\lv_draw/lv_draw_rect.c ****             else bottom_val = sh_ups_buf[(size - 1) * size + x];
 265              		.loc 1 1137 0 is_stmt 1
 266 0126 481E     		subs	r0, r1, #1
 267 0128 00FB01A0 		mla	r0, r0, r1, r10
 268 012c 35F81000 		ldrh	r0, [r5, r0, lsl #1]
 269              	.LVL41:
 270              	.L20:
1138:lvgl\src\lv_draw/lv_draw_rect.c ****             v += bottom_val;
 271              		.loc 1 1138 0 discriminator 2
 272 0130 0244     		add	r2, r2, r0
 273              	.LVL42:
 274              	.LBE210:
1125:lvgl\src\lv_draw/lv_draw_rect.c ****             sh_ups_blur_buf[y] = v < 0 ? 0 : (v >> SHADOW_UPSACALE_SHIFT);
 275              		.loc 1 1125 0 discriminator 2
 276 0132 0133     		adds	r3, r3, #1
 277              	.LVL43:
ARM GAS  C:\Users\strap\AppData\Local\Temp\ccsTbppz.s 			page 26


 278 0134 B144     		add	r9, r9, r6
 279              	.LVL44:
 280              	.L15:
1125:lvgl\src\lv_draw/lv_draw_rect.c ****             sh_ups_blur_buf[y] = v < 0 ? 0 : (v >> SHADOW_UPSACALE_SHIFT);
 281              		.loc 1 1125 0 is_stmt 0 discriminator 1
 282 0136 8B42     		cmp	r3, r1
 283 0138 D6DB     		blt	.L21
 284 013a 0023     		movs	r3, #0
 285              	.LVL45:
 286 013c 05E0     		b	.L22
 287              	.LVL46:
 288              	.L23:
1139:lvgl\src\lv_draw/lv_draw_rect.c ****         }
1140:lvgl\src\lv_draw/lv_draw_rect.c **** 
1141:lvgl\src\lv_draw/lv_draw_rect.c ****         /*Write back the result into `sh_ups_buf`*/
1142:lvgl\src\lv_draw/lv_draw_rect.c ****         sh_ups_tmp_buf = &sh_ups_buf[x];
1143:lvgl\src\lv_draw/lv_draw_rect.c ****         for(y = 0; y < size; y++, sh_ups_tmp_buf += size) {
1144:lvgl\src\lv_draw/lv_draw_rect.c ****             (*sh_ups_tmp_buf) = sh_ups_blur_buf[y];
 289              		.loc 1 1144 0 is_stmt 1 discriminator 3
 290 013e 34F81320 		ldrh	r2, [r4, r3, lsl #1]
 291 0142 AEF80020 		strh	r2, [lr]	@ movhi
1143:lvgl\src\lv_draw/lv_draw_rect.c ****             (*sh_ups_tmp_buf) = sh_ups_blur_buf[y];
 292              		.loc 1 1143 0 discriminator 3
 293 0146 0133     		adds	r3, r3, #1
 294              	.LVL47:
 295 0148 B644     		add	lr, lr, r6
 296              	.LVL48:
 297              	.L22:
1143:lvgl\src\lv_draw/lv_draw_rect.c ****             (*sh_ups_tmp_buf) = sh_ups_blur_buf[y];
 298              		.loc 1 1143 0 is_stmt 0 discriminator 1
 299 014a 8B42     		cmp	r3, r1
 300 014c F7DB     		blt	.L23
 301              	.LBE209:
1122:lvgl\src\lv_draw/lv_draw_rect.c ****         sh_ups_tmp_buf = &sh_ups_buf[x];
 302              		.loc 1 1122 0 is_stmt 1 discriminator 2
 303 014e 0AF1010A 		add	r10, r10, #1
 304              	.LVL49:
 305              	.L14:
1122:lvgl\src\lv_draw/lv_draw_rect.c ****         sh_ups_tmp_buf = &sh_ups_buf[x];
 306              		.loc 1 1122 0 is_stmt 0 discriminator 1
 307 0152 8A45     		cmp	r10, r1
 308 0154 BFDB     		blt	.L24
1145:lvgl\src\lv_draw/lv_draw_rect.c ****         }
1146:lvgl\src\lv_draw/lv_draw_rect.c ****     }
1147:lvgl\src\lv_draw/lv_draw_rect.c **** 
1148:lvgl\src\lv_draw/lv_draw_rect.c ****     _lv_mem_buf_release(sh_ups_blur_buf);
 309              		.loc 1 1148 0 is_stmt 1
 310 0156 2046     		mov	r0, r4
 311 0158 FFF7FEFF 		bl	_lv_mem_buf_release
 312              	.LVL50:
1149:lvgl\src\lv_draw/lv_draw_rect.c **** }
 313              		.loc 1 1149 0
 314 015c 05B0     		add	sp, sp, #20
 315              		.cfi_def_cfa_offset 36
 316              		@ sp needed
 317 015e BDE8F08F 		pop	{r4, r5, r6, r7, r8, r9, r10, fp, pc}
 318              		.cfi_endproc
ARM GAS  C:\Users\strap\AppData\Local\Temp\ccsTbppz.s 			page 27


 319              	.LFE336:
 320              		.size	shadow_blur_corner, .-shadow_blur_corner
 321 0162 00BF     		.section	.text.shadow_draw_corner_buf,"ax",%progbits
 322              		.align	2
 323              		.thumb
 324              		.thumb_func
 325              		.type	shadow_draw_corner_buf, %function
 326              	shadow_draw_corner_buf:
 327              	.LFB335:
 998:lvgl\src\lv_draw/lv_draw_rect.c ****     int32_t sw_ori = sw;
 328              		.loc 1 998 0
 329              		.cfi_startproc
 330              		@ args = 0, pretend = 0, frame = 56
 331              		@ frame_needed = 0, uses_anonymous_args = 0
 332              	.LVL51:
 333 0000 2DE9F04F 		push	{r4, r5, r6, r7, r8, r9, r10, fp, lr}
 334              		.cfi_def_cfa_offset 36
 335              		.cfi_offset 4, -36
 336              		.cfi_offset 5, -32
 337              		.cfi_offset 6, -28
 338              		.cfi_offset 7, -24
 339              		.cfi_offset 8, -20
 340              		.cfi_offset 9, -16
 341              		.cfi_offset 10, -12
 342              		.cfi_offset 11, -8
 343              		.cfi_offset 14, -4
 344 0004 91B0     		sub	sp, sp, #68
 345              		.cfi_def_cfa_offset 104
 346 0006 8846     		mov	r8, r1
 347 0008 1446     		mov	r4, r2
 348 000a 1A46     		mov	r2, r3
 349              	.LVL52:
1000:lvgl\src\lv_draw/lv_draw_rect.c **** 
 350              		.loc 1 1000 0
 351 000c E618     		adds	r6, r4, r3
 352              	.LVL53:
 353              	.LBB211:
 354              	.LBB212:
 355              	.LBB213:
 356              		.file 2 "lvgl\\src\\lv_draw\\../lv_core/../lv_font/../lv_misc/lv_mem.h"
   1:lvgl\src\lv_draw\../lv_core/../lv_font/../lv_misc/lv_mem.h **** /**
   2:lvgl\src\lv_draw\../lv_core/../lv_font/../lv_misc/lv_mem.h ****  * @file lv_mem.h
   3:lvgl\src\lv_draw\../lv_core/../lv_font/../lv_misc/lv_mem.h ****  *
   4:lvgl\src\lv_draw\../lv_core/../lv_font/../lv_misc/lv_mem.h ****  */
   5:lvgl\src\lv_draw\../lv_core/../lv_font/../lv_misc/lv_mem.h **** 
   6:lvgl\src\lv_draw\../lv_core/../lv_font/../lv_misc/lv_mem.h **** #ifndef LV_MEM_H
   7:lvgl\src\lv_draw\../lv_core/../lv_font/../lv_misc/lv_mem.h **** #define LV_MEM_H
   8:lvgl\src\lv_draw\../lv_core/../lv_font/../lv_misc/lv_mem.h **** 
   9:lvgl\src\lv_draw\../lv_core/../lv_font/../lv_misc/lv_mem.h **** #ifdef __cplusplus
  10:lvgl\src\lv_draw\../lv_core/../lv_font/../lv_misc/lv_mem.h **** extern "C" {
  11:lvgl\src\lv_draw\../lv_core/../lv_font/../lv_misc/lv_mem.h **** #endif
  12:lvgl\src\lv_draw\../lv_core/../lv_font/../lv_misc/lv_mem.h **** 
  13:lvgl\src\lv_draw\../lv_core/../lv_font/../lv_misc/lv_mem.h **** /*********************
  14:lvgl\src\lv_draw\../lv_core/../lv_font/../lv_misc/lv_mem.h ****  *      INCLUDES
  15:lvgl\src\lv_draw\../lv_core/../lv_font/../lv_misc/lv_mem.h ****  *********************/
  16:lvgl\src\lv_draw\../lv_core/../lv_font/../lv_misc/lv_mem.h **** #include "../lv_conf_internal.h"
  17:lvgl\src\lv_draw\../lv_core/../lv_font/../lv_misc/lv_mem.h **** 
ARM GAS  C:\Users\strap\AppData\Local\Temp\ccsTbppz.s 			page 28


  18:lvgl\src\lv_draw\../lv_core/../lv_font/../lv_misc/lv_mem.h **** #include <stdint.h>
  19:lvgl\src\lv_draw\../lv_core/../lv_font/../lv_misc/lv_mem.h **** #include <stddef.h>
  20:lvgl\src\lv_draw\../lv_core/../lv_font/../lv_misc/lv_mem.h **** #include "lv_log.h"
  21:lvgl\src\lv_draw\../lv_core/../lv_font/../lv_misc/lv_mem.h **** #include "lv_types.h"
  22:lvgl\src\lv_draw\../lv_core/../lv_font/../lv_misc/lv_mem.h **** 
  23:lvgl\src\lv_draw\../lv_core/../lv_font/../lv_misc/lv_mem.h **** #if LV_MEMCPY_MEMSET_STD
  24:lvgl\src\lv_draw\../lv_core/../lv_font/../lv_misc/lv_mem.h **** #include <string.h>
  25:lvgl\src\lv_draw\../lv_core/../lv_font/../lv_misc/lv_mem.h **** #endif
  26:lvgl\src\lv_draw\../lv_core/../lv_font/../lv_misc/lv_mem.h **** 
  27:lvgl\src\lv_draw\../lv_core/../lv_font/../lv_misc/lv_mem.h **** /*********************
  28:lvgl\src\lv_draw\../lv_core/../lv_font/../lv_misc/lv_mem.h ****  *      DEFINES
  29:lvgl\src\lv_draw\../lv_core/../lv_font/../lv_misc/lv_mem.h ****  *********************/
  30:lvgl\src\lv_draw\../lv_core/../lv_font/../lv_misc/lv_mem.h **** 
  31:lvgl\src\lv_draw\../lv_core/../lv_font/../lv_misc/lv_mem.h **** #ifndef LV_MEM_BUF_MAX_NUM
  32:lvgl\src\lv_draw\../lv_core/../lv_font/../lv_misc/lv_mem.h **** #define LV_MEM_BUF_MAX_NUM    16
  33:lvgl\src\lv_draw\../lv_core/../lv_font/../lv_misc/lv_mem.h **** #endif
  34:lvgl\src\lv_draw\../lv_core/../lv_font/../lv_misc/lv_mem.h **** 
  35:lvgl\src\lv_draw\../lv_core/../lv_font/../lv_misc/lv_mem.h **** /**********************
  36:lvgl\src\lv_draw\../lv_core/../lv_font/../lv_misc/lv_mem.h ****  *      TYPEDEFS
  37:lvgl\src\lv_draw\../lv_core/../lv_font/../lv_misc/lv_mem.h ****  **********************/
  38:lvgl\src\lv_draw\../lv_core/../lv_font/../lv_misc/lv_mem.h **** 
  39:lvgl\src\lv_draw\../lv_core/../lv_font/../lv_misc/lv_mem.h **** /**
  40:lvgl\src\lv_draw\../lv_core/../lv_font/../lv_misc/lv_mem.h ****  * Heap information structure.
  41:lvgl\src\lv_draw\../lv_core/../lv_font/../lv_misc/lv_mem.h ****  */
  42:lvgl\src\lv_draw\../lv_core/../lv_font/../lv_misc/lv_mem.h **** typedef struct {
  43:lvgl\src\lv_draw\../lv_core/../lv_font/../lv_misc/lv_mem.h ****     uint32_t total_size; /**< Total heap size */
  44:lvgl\src\lv_draw\../lv_core/../lv_font/../lv_misc/lv_mem.h ****     uint32_t free_cnt;
  45:lvgl\src\lv_draw\../lv_core/../lv_font/../lv_misc/lv_mem.h ****     uint32_t free_size; /**< Size of available memory */
  46:lvgl\src\lv_draw\../lv_core/../lv_font/../lv_misc/lv_mem.h ****     uint32_t free_biggest_size;
  47:lvgl\src\lv_draw\../lv_core/../lv_font/../lv_misc/lv_mem.h ****     uint32_t used_cnt;
  48:lvgl\src\lv_draw\../lv_core/../lv_font/../lv_misc/lv_mem.h ****     uint32_t max_used; /**< Max size of Heap memory used */
  49:lvgl\src\lv_draw\../lv_core/../lv_font/../lv_misc/lv_mem.h ****     uint8_t used_pct; /**< Percentage used */
  50:lvgl\src\lv_draw\../lv_core/../lv_font/../lv_misc/lv_mem.h ****     uint8_t frag_pct; /**< Amount of fragmentation */
  51:lvgl\src\lv_draw\../lv_core/../lv_font/../lv_misc/lv_mem.h **** } lv_mem_monitor_t;
  52:lvgl\src\lv_draw\../lv_core/../lv_font/../lv_misc/lv_mem.h **** 
  53:lvgl\src\lv_draw\../lv_core/../lv_font/../lv_misc/lv_mem.h **** typedef struct {
  54:lvgl\src\lv_draw\../lv_core/../lv_font/../lv_misc/lv_mem.h ****     void * p;
  55:lvgl\src\lv_draw\../lv_core/../lv_font/../lv_misc/lv_mem.h ****     uint16_t size;
  56:lvgl\src\lv_draw\../lv_core/../lv_font/../lv_misc/lv_mem.h ****     uint8_t used    : 1;
  57:lvgl\src\lv_draw\../lv_core/../lv_font/../lv_misc/lv_mem.h **** } lv_mem_buf_t;
  58:lvgl\src\lv_draw\../lv_core/../lv_font/../lv_misc/lv_mem.h **** 
  59:lvgl\src\lv_draw\../lv_core/../lv_font/../lv_misc/lv_mem.h **** typedef lv_mem_buf_t lv_mem_buf_arr_t[LV_MEM_BUF_MAX_NUM];
  60:lvgl\src\lv_draw\../lv_core/../lv_font/../lv_misc/lv_mem.h **** extern lv_mem_buf_arr_t _lv_mem_buf;
  61:lvgl\src\lv_draw\../lv_core/../lv_font/../lv_misc/lv_mem.h **** 
  62:lvgl\src\lv_draw\../lv_core/../lv_font/../lv_misc/lv_mem.h **** /**********************
  63:lvgl\src\lv_draw\../lv_core/../lv_font/../lv_misc/lv_mem.h ****  * GLOBAL PROTOTYPES
  64:lvgl\src\lv_draw\../lv_core/../lv_font/../lv_misc/lv_mem.h ****  **********************/
  65:lvgl\src\lv_draw\../lv_core/../lv_font/../lv_misc/lv_mem.h **** 
  66:lvgl\src\lv_draw\../lv_core/../lv_font/../lv_misc/lv_mem.h **** /**
  67:lvgl\src\lv_draw\../lv_core/../lv_font/../lv_misc/lv_mem.h ****  * Initialize the dyn_mem module (work memory and other variables)
  68:lvgl\src\lv_draw\../lv_core/../lv_font/../lv_misc/lv_mem.h ****  */
  69:lvgl\src\lv_draw\../lv_core/../lv_font/../lv_misc/lv_mem.h **** void _lv_mem_init(void);
  70:lvgl\src\lv_draw\../lv_core/../lv_font/../lv_misc/lv_mem.h **** 
  71:lvgl\src\lv_draw\../lv_core/../lv_font/../lv_misc/lv_mem.h **** /**
  72:lvgl\src\lv_draw\../lv_core/../lv_font/../lv_misc/lv_mem.h ****  * Clean up the memory buffer which frees all the allocated memories.
  73:lvgl\src\lv_draw\../lv_core/../lv_font/../lv_misc/lv_mem.h ****  * @note It work only if `LV_MEM_CUSTOM == 0`
  74:lvgl\src\lv_draw\../lv_core/../lv_font/../lv_misc/lv_mem.h ****  */
ARM GAS  C:\Users\strap\AppData\Local\Temp\ccsTbppz.s 			page 29


  75:lvgl\src\lv_draw\../lv_core/../lv_font/../lv_misc/lv_mem.h **** void _lv_mem_deinit(void);
  76:lvgl\src\lv_draw\../lv_core/../lv_font/../lv_misc/lv_mem.h **** 
  77:lvgl\src\lv_draw\../lv_core/../lv_font/../lv_misc/lv_mem.h **** /**
  78:lvgl\src\lv_draw\../lv_core/../lv_font/../lv_misc/lv_mem.h ****  * Allocate a memory dynamically
  79:lvgl\src\lv_draw\../lv_core/../lv_font/../lv_misc/lv_mem.h ****  * @param size size of the memory to allocate in bytes
  80:lvgl\src\lv_draw\../lv_core/../lv_font/../lv_misc/lv_mem.h ****  * @return pointer to the allocated memory
  81:lvgl\src\lv_draw\../lv_core/../lv_font/../lv_misc/lv_mem.h ****  */
  82:lvgl\src\lv_draw\../lv_core/../lv_font/../lv_misc/lv_mem.h **** void * lv_mem_alloc(size_t size);
  83:lvgl\src\lv_draw\../lv_core/../lv_font/../lv_misc/lv_mem.h **** 
  84:lvgl\src\lv_draw\../lv_core/../lv_font/../lv_misc/lv_mem.h **** /**
  85:lvgl\src\lv_draw\../lv_core/../lv_font/../lv_misc/lv_mem.h ****  * Free an allocated data
  86:lvgl\src\lv_draw\../lv_core/../lv_font/../lv_misc/lv_mem.h ****  * @param data pointer to an allocated memory
  87:lvgl\src\lv_draw\../lv_core/../lv_font/../lv_misc/lv_mem.h ****  */
  88:lvgl\src\lv_draw\../lv_core/../lv_font/../lv_misc/lv_mem.h **** void lv_mem_free(const void * data);
  89:lvgl\src\lv_draw\../lv_core/../lv_font/../lv_misc/lv_mem.h **** 
  90:lvgl\src\lv_draw\../lv_core/../lv_font/../lv_misc/lv_mem.h **** /**
  91:lvgl\src\lv_draw\../lv_core/../lv_font/../lv_misc/lv_mem.h ****  * Reallocate a memory with a new size. The old content will be kept.
  92:lvgl\src\lv_draw\../lv_core/../lv_font/../lv_misc/lv_mem.h ****  * @param data pointer to an allocated memory.
  93:lvgl\src\lv_draw\../lv_core/../lv_font/../lv_misc/lv_mem.h ****  * Its content will be copied to the new memory block and freed
  94:lvgl\src\lv_draw\../lv_core/../lv_font/../lv_misc/lv_mem.h ****  * @param new_size the desired new size in byte
  95:lvgl\src\lv_draw\../lv_core/../lv_font/../lv_misc/lv_mem.h ****  * @return pointer to the new memory
  96:lvgl\src\lv_draw\../lv_core/../lv_font/../lv_misc/lv_mem.h ****  */
  97:lvgl\src\lv_draw\../lv_core/../lv_font/../lv_misc/lv_mem.h **** void * lv_mem_realloc(void * data_p, size_t new_size);
  98:lvgl\src\lv_draw\../lv_core/../lv_font/../lv_misc/lv_mem.h **** 
  99:lvgl\src\lv_draw\../lv_core/../lv_font/../lv_misc/lv_mem.h **** /**
 100:lvgl\src\lv_draw\../lv_core/../lv_font/../lv_misc/lv_mem.h ****  * Join the adjacent free memory blocks
 101:lvgl\src\lv_draw\../lv_core/../lv_font/../lv_misc/lv_mem.h ****  */
 102:lvgl\src\lv_draw\../lv_core/../lv_font/../lv_misc/lv_mem.h **** void lv_mem_defrag(void);
 103:lvgl\src\lv_draw\../lv_core/../lv_font/../lv_misc/lv_mem.h **** 
 104:lvgl\src\lv_draw\../lv_core/../lv_font/../lv_misc/lv_mem.h **** /**
 105:lvgl\src\lv_draw\../lv_core/../lv_font/../lv_misc/lv_mem.h ****  *
 106:lvgl\src\lv_draw\../lv_core/../lv_font/../lv_misc/lv_mem.h ****  * @return
 107:lvgl\src\lv_draw\../lv_core/../lv_font/../lv_misc/lv_mem.h ****  */
 108:lvgl\src\lv_draw\../lv_core/../lv_font/../lv_misc/lv_mem.h **** lv_res_t lv_mem_test(void);
 109:lvgl\src\lv_draw\../lv_core/../lv_font/../lv_misc/lv_mem.h **** 
 110:lvgl\src\lv_draw\../lv_core/../lv_font/../lv_misc/lv_mem.h **** /**
 111:lvgl\src\lv_draw\../lv_core/../lv_font/../lv_misc/lv_mem.h ****  * Give information about the work memory of dynamic allocation
 112:lvgl\src\lv_draw\../lv_core/../lv_font/../lv_misc/lv_mem.h ****  * @param mon_p pointer to a dm_mon_p variable,
 113:lvgl\src\lv_draw\../lv_core/../lv_font/../lv_misc/lv_mem.h ****  *              the result of the analysis will be stored here
 114:lvgl\src\lv_draw\../lv_core/../lv_font/../lv_misc/lv_mem.h ****  */
 115:lvgl\src\lv_draw\../lv_core/../lv_font/../lv_misc/lv_mem.h **** void lv_mem_monitor(lv_mem_monitor_t * mon_p);
 116:lvgl\src\lv_draw\../lv_core/../lv_font/../lv_misc/lv_mem.h **** 
 117:lvgl\src\lv_draw\../lv_core/../lv_font/../lv_misc/lv_mem.h **** /**
 118:lvgl\src\lv_draw\../lv_core/../lv_font/../lv_misc/lv_mem.h ****  * Give the size of an allocated memory
 119:lvgl\src\lv_draw\../lv_core/../lv_font/../lv_misc/lv_mem.h ****  * @param data pointer to an allocated memory
 120:lvgl\src\lv_draw\../lv_core/../lv_font/../lv_misc/lv_mem.h ****  * @return the size of data memory in bytes
 121:lvgl\src\lv_draw\../lv_core/../lv_font/../lv_misc/lv_mem.h ****  */
 122:lvgl\src\lv_draw\../lv_core/../lv_font/../lv_misc/lv_mem.h **** uint32_t _lv_mem_get_size(const void * data);
 123:lvgl\src\lv_draw\../lv_core/../lv_font/../lv_misc/lv_mem.h **** 
 124:lvgl\src\lv_draw\../lv_core/../lv_font/../lv_misc/lv_mem.h **** /**
 125:lvgl\src\lv_draw\../lv_core/../lv_font/../lv_misc/lv_mem.h ****  * Get a temporal buffer with the given size.
 126:lvgl\src\lv_draw\../lv_core/../lv_font/../lv_misc/lv_mem.h ****  * @param size the required size
 127:lvgl\src\lv_draw\../lv_core/../lv_font/../lv_misc/lv_mem.h ****  */
 128:lvgl\src\lv_draw\../lv_core/../lv_font/../lv_misc/lv_mem.h **** void * _lv_mem_buf_get(uint32_t size);
 129:lvgl\src\lv_draw\../lv_core/../lv_font/../lv_misc/lv_mem.h **** 
 130:lvgl\src\lv_draw\../lv_core/../lv_font/../lv_misc/lv_mem.h **** /**
 131:lvgl\src\lv_draw\../lv_core/../lv_font/../lv_misc/lv_mem.h ****  * Release a memory buffer
ARM GAS  C:\Users\strap\AppData\Local\Temp\ccsTbppz.s 			page 30


 132:lvgl\src\lv_draw\../lv_core/../lv_font/../lv_misc/lv_mem.h ****  * @param p buffer to release
 133:lvgl\src\lv_draw\../lv_core/../lv_font/../lv_misc/lv_mem.h ****  */
 134:lvgl\src\lv_draw\../lv_core/../lv_font/../lv_misc/lv_mem.h **** void _lv_mem_buf_release(void * p);
 135:lvgl\src\lv_draw\../lv_core/../lv_font/../lv_misc/lv_mem.h **** 
 136:lvgl\src\lv_draw\../lv_core/../lv_font/../lv_misc/lv_mem.h **** /**
 137:lvgl\src\lv_draw\../lv_core/../lv_font/../lv_misc/lv_mem.h ****  * Free all memory buffers
 138:lvgl\src\lv_draw\../lv_core/../lv_font/../lv_misc/lv_mem.h ****  */
 139:lvgl\src\lv_draw\../lv_core/../lv_font/../lv_misc/lv_mem.h **** void _lv_mem_buf_free_all(void);
 140:lvgl\src\lv_draw\../lv_core/../lv_font/../lv_misc/lv_mem.h **** 
 141:lvgl\src\lv_draw\../lv_core/../lv_font/../lv_misc/lv_mem.h **** 
 142:lvgl\src\lv_draw\../lv_core/../lv_font/../lv_misc/lv_mem.h **** //! @cond Doxygen_Suppress
 143:lvgl\src\lv_draw\../lv_core/../lv_font/../lv_misc/lv_mem.h **** 
 144:lvgl\src\lv_draw\../lv_core/../lv_font/../lv_misc/lv_mem.h **** #if LV_MEMCPY_MEMSET_STD
 145:lvgl\src\lv_draw\../lv_core/../lv_font/../lv_misc/lv_mem.h **** 
 146:lvgl\src\lv_draw\../lv_core/../lv_font/../lv_misc/lv_mem.h **** /**
 147:lvgl\src\lv_draw\../lv_core/../lv_font/../lv_misc/lv_mem.h ****  * Wrapper for the standard memcpy
 148:lvgl\src\lv_draw\../lv_core/../lv_font/../lv_misc/lv_mem.h ****  * @param dst pointer to the destination buffer
 149:lvgl\src\lv_draw\../lv_core/../lv_font/../lv_misc/lv_mem.h ****  * @param src pointer to the source buffer
 150:lvgl\src\lv_draw\../lv_core/../lv_font/../lv_misc/lv_mem.h ****  * @param len number of byte to copy
 151:lvgl\src\lv_draw\../lv_core/../lv_font/../lv_misc/lv_mem.h ****  */
 152:lvgl\src\lv_draw\../lv_core/../lv_font/../lv_misc/lv_mem.h **** static inline void * _lv_memcpy(void * dst, const void * src, size_t len)
 153:lvgl\src\lv_draw\../lv_core/../lv_font/../lv_misc/lv_mem.h **** {
 154:lvgl\src\lv_draw\../lv_core/../lv_font/../lv_misc/lv_mem.h ****     return memcpy(dst, src, len);
 155:lvgl\src\lv_draw\../lv_core/../lv_font/../lv_misc/lv_mem.h **** }
 156:lvgl\src\lv_draw\../lv_core/../lv_font/../lv_misc/lv_mem.h **** 
 157:lvgl\src\lv_draw\../lv_core/../lv_font/../lv_misc/lv_mem.h **** /**
 158:lvgl\src\lv_draw\../lv_core/../lv_font/../lv_misc/lv_mem.h ****  * Wrapper for the standard memcpy
 159:lvgl\src\lv_draw\../lv_core/../lv_font/../lv_misc/lv_mem.h ****  * @param dst pointer to the destination buffer
 160:lvgl\src\lv_draw\../lv_core/../lv_font/../lv_misc/lv_mem.h ****  * @param src pointer to the source buffer
 161:lvgl\src\lv_draw\../lv_core/../lv_font/../lv_misc/lv_mem.h ****  * @param len number of byte to copy
 162:lvgl\src\lv_draw\../lv_core/../lv_font/../lv_misc/lv_mem.h ****  */
 163:lvgl\src\lv_draw\../lv_core/../lv_font/../lv_misc/lv_mem.h **** static inline void * _lv_memcpy_small(void * dst, const void * src, size_t len)
 164:lvgl\src\lv_draw\../lv_core/../lv_font/../lv_misc/lv_mem.h **** {
 165:lvgl\src\lv_draw\../lv_core/../lv_font/../lv_misc/lv_mem.h ****     return memcpy(dst, src, len);
 166:lvgl\src\lv_draw\../lv_core/../lv_font/../lv_misc/lv_mem.h **** }
 167:lvgl\src\lv_draw\../lv_core/../lv_font/../lv_misc/lv_mem.h **** 
 168:lvgl\src\lv_draw\../lv_core/../lv_font/../lv_misc/lv_mem.h **** /**
 169:lvgl\src\lv_draw\../lv_core/../lv_font/../lv_misc/lv_mem.h ****  * Wrapper for the standard memset
 170:lvgl\src\lv_draw\../lv_core/../lv_font/../lv_misc/lv_mem.h ****  * @param dst pointer to the destination buffer
 171:lvgl\src\lv_draw\../lv_core/../lv_font/../lv_misc/lv_mem.h ****  * @param v value to set [0..255]
 172:lvgl\src\lv_draw\../lv_core/../lv_font/../lv_misc/lv_mem.h ****  * @param len number of byte to set
 173:lvgl\src\lv_draw\../lv_core/../lv_font/../lv_misc/lv_mem.h ****  */
 174:lvgl\src\lv_draw\../lv_core/../lv_font/../lv_misc/lv_mem.h **** static inline void _lv_memset(void * dst, uint8_t v, size_t len)
 175:lvgl\src\lv_draw\../lv_core/../lv_font/../lv_misc/lv_mem.h **** {
 176:lvgl\src\lv_draw\../lv_core/../lv_font/../lv_misc/lv_mem.h ****     memset(dst, v, len);
 177:lvgl\src\lv_draw\../lv_core/../lv_font/../lv_misc/lv_mem.h **** }
 178:lvgl\src\lv_draw\../lv_core/../lv_font/../lv_misc/lv_mem.h **** 
 179:lvgl\src\lv_draw\../lv_core/../lv_font/../lv_misc/lv_mem.h **** /**
 180:lvgl\src\lv_draw\../lv_core/../lv_font/../lv_misc/lv_mem.h ****  * Wrapper for the standard memset with fixed 0x00 value
 181:lvgl\src\lv_draw\../lv_core/../lv_font/../lv_misc/lv_mem.h ****  * @param dst pointer to the destination buffer
 182:lvgl\src\lv_draw\../lv_core/../lv_font/../lv_misc/lv_mem.h ****  * @param len number of byte to set
 183:lvgl\src\lv_draw\../lv_core/../lv_font/../lv_misc/lv_mem.h ****  */
 184:lvgl\src\lv_draw\../lv_core/../lv_font/../lv_misc/lv_mem.h **** static inline void _lv_memset_00(void * dst, size_t len)
 185:lvgl\src\lv_draw\../lv_core/../lv_font/../lv_misc/lv_mem.h **** {
 186:lvgl\src\lv_draw\../lv_core/../lv_font/../lv_misc/lv_mem.h ****     memset(dst, 0x00, len);
 187:lvgl\src\lv_draw\../lv_core/../lv_font/../lv_misc/lv_mem.h **** }
 188:lvgl\src\lv_draw\../lv_core/../lv_font/../lv_misc/lv_mem.h **** 
ARM GAS  C:\Users\strap\AppData\Local\Temp\ccsTbppz.s 			page 31


 189:lvgl\src\lv_draw\../lv_core/../lv_font/../lv_misc/lv_mem.h **** /**
 190:lvgl\src\lv_draw\../lv_core/../lv_font/../lv_misc/lv_mem.h ****  * Wrapper for the standard memset with fixed 0xFF value
 191:lvgl\src\lv_draw\../lv_core/../lv_font/../lv_misc/lv_mem.h ****  * @param dst pointer to the destination buffer
 192:lvgl\src\lv_draw\../lv_core/../lv_font/../lv_misc/lv_mem.h ****  * @param len number of byte to set
 193:lvgl\src\lv_draw\../lv_core/../lv_font/../lv_misc/lv_mem.h ****  */
 194:lvgl\src\lv_draw\../lv_core/../lv_font/../lv_misc/lv_mem.h **** static inline void _lv_memset_ff(void * dst, size_t len)
 195:lvgl\src\lv_draw\../lv_core/../lv_font/../lv_misc/lv_mem.h **** {
 196:lvgl\src\lv_draw\../lv_core/../lv_font/../lv_misc/lv_mem.h ****     memset(dst, 0xFF, len);
 197:lvgl\src\lv_draw\../lv_core/../lv_font/../lv_misc/lv_mem.h **** }
 198:lvgl\src\lv_draw\../lv_core/../lv_font/../lv_misc/lv_mem.h **** 
 199:lvgl\src\lv_draw\../lv_core/../lv_font/../lv_misc/lv_mem.h **** #else
 200:lvgl\src\lv_draw\../lv_core/../lv_font/../lv_misc/lv_mem.h **** /**
 201:lvgl\src\lv_draw\../lv_core/../lv_font/../lv_misc/lv_mem.h ****  * Same as `memcpy` but optimized for 4 byte operation.
 202:lvgl\src\lv_draw\../lv_core/../lv_font/../lv_misc/lv_mem.h ****  * @param dst pointer to the destination buffer
 203:lvgl\src\lv_draw\../lv_core/../lv_font/../lv_misc/lv_mem.h ****  * @param src pointer to the source buffer
 204:lvgl\src\lv_draw\../lv_core/../lv_font/../lv_misc/lv_mem.h ****  * @param len number of byte to copy
 205:lvgl\src\lv_draw\../lv_core/../lv_font/../lv_misc/lv_mem.h ****  */
 206:lvgl\src\lv_draw\../lv_core/../lv_font/../lv_misc/lv_mem.h **** LV_ATTRIBUTE_FAST_MEM void * _lv_memcpy(void * dst, const void * src, size_t len);
 207:lvgl\src\lv_draw\../lv_core/../lv_font/../lv_misc/lv_mem.h **** 
 208:lvgl\src\lv_draw\../lv_core/../lv_font/../lv_misc/lv_mem.h **** /**
 209:lvgl\src\lv_draw\../lv_core/../lv_font/../lv_misc/lv_mem.h ****  * Same as `memcpy` but optimized to copy only a few bytes.
 210:lvgl\src\lv_draw\../lv_core/../lv_font/../lv_misc/lv_mem.h ****  * @param dst pointer to the destination buffer
 211:lvgl\src\lv_draw\../lv_core/../lv_font/../lv_misc/lv_mem.h ****  * @param src pointer to the source buffer
 212:lvgl\src\lv_draw\../lv_core/../lv_font/../lv_misc/lv_mem.h ****  * @param len number of byte to copy
 213:lvgl\src\lv_draw\../lv_core/../lv_font/../lv_misc/lv_mem.h ****  */
 214:lvgl\src\lv_draw\../lv_core/../lv_font/../lv_misc/lv_mem.h **** LV_ATTRIBUTE_FAST_MEM static inline void * _lv_memcpy_small(void * dst, const void * src, size_t le
 215:lvgl\src\lv_draw\../lv_core/../lv_font/../lv_misc/lv_mem.h **** {
 216:lvgl\src\lv_draw\../lv_core/../lv_font/../lv_misc/lv_mem.h ****     uint8_t * d8 = (uint8_t *)dst;
 217:lvgl\src\lv_draw\../lv_core/../lv_font/../lv_misc/lv_mem.h ****     const uint8_t * s8 = (const uint8_t *)src;
 357              		.loc 2 217 0
 358 000e 0546     		mov	r5, r0
 216:lvgl\src\lv_draw\../lv_core/../lv_font/../lv_misc/lv_mem.h ****     const uint8_t * s8 = (const uint8_t *)src;
 359              		.loc 2 216 0
 360 0010 0EA9     		add	r1, sp, #56
 361              	.LVL54:
 362              	.LBE213:
 363              	.LBE212:
 364              	.LBE211:
1000:lvgl\src\lv_draw/lv_draw_rect.c **** 
 365              		.loc 1 1000 0
 366 0012 0823     		movs	r3, #8
 367              	.LVL55:
 368 0014 04E0     		b	.L30
 369              	.LVL56:
 370              	.L31:
 371              	.LBB216:
 372              	.LBB215:
 373              	.LBB214:
 218:lvgl\src\lv_draw\../lv_core/../lv_font/../lv_misc/lv_mem.h **** 
 219:lvgl\src\lv_draw\../lv_core/../lv_font/../lv_misc/lv_mem.h ****     while(len) {
 220:lvgl\src\lv_draw\../lv_core/../lv_font/../lv_misc/lv_mem.h ****         *d8 = *s8;
 374              		.loc 2 220 0
 375 0016 15F8017B 		ldrb	r7, [r5], #1	@ zero_extendqisi2
 376              	.LVL57:
 377 001a 01F8017B 		strb	r7, [r1], #1
 378              	.LVL58:
 221:lvgl\src\lv_draw\../lv_core/../lv_font/../lv_misc/lv_mem.h ****         d8++;
ARM GAS  C:\Users\strap\AppData\Local\Temp\ccsTbppz.s 			page 32


 222:lvgl\src\lv_draw\../lv_core/../lv_font/../lv_misc/lv_mem.h ****         s8++;
 223:lvgl\src\lv_draw\../lv_core/../lv_font/../lv_misc/lv_mem.h ****         len--;
 379              		.loc 2 223 0
 380 001e 013B     		subs	r3, r3, #1
 381              	.LVL59:
 382              	.L30:
 219:lvgl\src\lv_draw\../lv_core/../lv_font/../lv_misc/lv_mem.h ****         *d8 = *s8;
 383              		.loc 2 219 0
 384 0020 002B     		cmp	r3, #0
 385 0022 F8D1     		bne	.L31
 386              	.LVL60:
 387              	.LBE214:
 388              	.LBE215:
 389              	.LBE216:
1004:lvgl\src\lv_draw/lv_draw_rect.c ****     sh_area.y1 = sw / 2 + 1;
 390              		.loc 1 1004 0
 391 0024 04EBD471 		add	r1, r4, r4, lsr #31
 392              	.LVL61:
 393 0028 C1F34F01 		ubfx	r1, r1, #1, #16
 394 002c 1FFA82FB 		uxth	fp, r2
 395 0030 A3B2     		uxth	r3, r4
 396 0032 0393     		str	r3, [sp, #12]
 397 0034 13F00103 		ands	r3, r3, #1
 398 0038 0593     		str	r3, [sp, #20]
 399 003a 0CBF     		ite	eq
 400 003c 0125     		moveq	r5, #1
 401              	.LVL62:
 402 003e 0025     		movne	r5, #0
 403 0040 01EB0B03 		add	r3, r1, fp
 404 0044 5B1B     		subs	r3, r3, r5
 405 0046 013B     		subs	r3, r3, #1
 406 0048 9BB2     		uxth	r3, r3
 407 004a ADF83C30 		strh	r3, [sp, #60]	@ movhi
1005:lvgl\src\lv_draw/lv_draw_rect.c **** 
 408              		.loc 1 1005 0
 409 004e 0131     		adds	r1, r1, #1
 410 0050 8DB2     		uxth	r5, r1
 411 0052 ADF83A50 		strh	r5, [sp, #58]	@ movhi
 412              	.LVL63:
 413              	.LBB217:
 414              	.LBB218:
 415              		.file 3 "lvgl\\src\\lv_draw\\../lv_core/../lv_font/../lv_misc/lv_area.h"
   1:lvgl\src\lv_draw\../lv_core/../lv_font/../lv_misc/lv_area.h **** /**
   2:lvgl\src\lv_draw\../lv_core/../lv_font/../lv_misc/lv_area.h ****  * @file lv_area.h
   3:lvgl\src\lv_draw\../lv_core/../lv_font/../lv_misc/lv_area.h ****  *
   4:lvgl\src\lv_draw\../lv_core/../lv_font/../lv_misc/lv_area.h ****  */
   5:lvgl\src\lv_draw\../lv_core/../lv_font/../lv_misc/lv_area.h **** 
   6:lvgl\src\lv_draw\../lv_core/../lv_font/../lv_misc/lv_area.h **** #ifndef LV_AREA_H
   7:lvgl\src\lv_draw\../lv_core/../lv_font/../lv_misc/lv_area.h **** #define LV_AREA_H
   8:lvgl\src\lv_draw\../lv_core/../lv_font/../lv_misc/lv_area.h **** 
   9:lvgl\src\lv_draw\../lv_core/../lv_font/../lv_misc/lv_area.h **** #ifdef __cplusplus
  10:lvgl\src\lv_draw\../lv_core/../lv_font/../lv_misc/lv_area.h **** extern "C" {
  11:lvgl\src\lv_draw\../lv_core/../lv_font/../lv_misc/lv_area.h **** #endif
  12:lvgl\src\lv_draw\../lv_core/../lv_font/../lv_misc/lv_area.h **** 
  13:lvgl\src\lv_draw\../lv_core/../lv_font/../lv_misc/lv_area.h **** /*********************
  14:lvgl\src\lv_draw\../lv_core/../lv_font/../lv_misc/lv_area.h ****  *      INCLUDES
  15:lvgl\src\lv_draw\../lv_core/../lv_font/../lv_misc/lv_area.h ****  *********************/
ARM GAS  C:\Users\strap\AppData\Local\Temp\ccsTbppz.s 			page 33


  16:lvgl\src\lv_draw\../lv_core/../lv_font/../lv_misc/lv_area.h **** #include "../lv_conf_internal.h"
  17:lvgl\src\lv_draw\../lv_core/../lv_font/../lv_misc/lv_area.h **** #include <string.h>
  18:lvgl\src\lv_draw\../lv_core/../lv_font/../lv_misc/lv_area.h **** #include <stdbool.h>
  19:lvgl\src\lv_draw\../lv_core/../lv_font/../lv_misc/lv_area.h **** #include <stdint.h>
  20:lvgl\src\lv_draw\../lv_core/../lv_font/../lv_misc/lv_area.h **** #include "lv_mem.h"
  21:lvgl\src\lv_draw\../lv_core/../lv_font/../lv_misc/lv_area.h **** 
  22:lvgl\src\lv_draw\../lv_core/../lv_font/../lv_misc/lv_area.h **** /*********************
  23:lvgl\src\lv_draw\../lv_core/../lv_font/../lv_misc/lv_area.h ****  *      DEFINES
  24:lvgl\src\lv_draw\../lv_core/../lv_font/../lv_misc/lv_area.h ****  *********************/
  25:lvgl\src\lv_draw\../lv_core/../lv_font/../lv_misc/lv_area.h **** /*To avoid overflow don't let the max ranges (reduce with 1000) */
  26:lvgl\src\lv_draw\../lv_core/../lv_font/../lv_misc/lv_area.h **** #define LV_COORD_MAX ((lv_coord_t)((uint32_t)((uint32_t)1 << (8 * sizeof(lv_coord_t) - 1)) - 1000))
  27:lvgl\src\lv_draw\../lv_core/../lv_font/../lv_misc/lv_area.h **** #define LV_COORD_MIN (-LV_COORD_MAX)
  28:lvgl\src\lv_draw\../lv_core/../lv_font/../lv_misc/lv_area.h **** 
  29:lvgl\src\lv_draw\../lv_core/../lv_font/../lv_misc/lv_area.h **** LV_EXPORT_CONST_INT(LV_COORD_MAX);
  30:lvgl\src\lv_draw\../lv_core/../lv_font/../lv_misc/lv_area.h **** LV_EXPORT_CONST_INT(LV_COORD_MIN);
  31:lvgl\src\lv_draw\../lv_core/../lv_font/../lv_misc/lv_area.h **** 
  32:lvgl\src\lv_draw\../lv_core/../lv_font/../lv_misc/lv_area.h **** /**********************
  33:lvgl\src\lv_draw\../lv_core/../lv_font/../lv_misc/lv_area.h ****  *      TYPEDEFS
  34:lvgl\src\lv_draw\../lv_core/../lv_font/../lv_misc/lv_area.h ****  **********************/
  35:lvgl\src\lv_draw\../lv_core/../lv_font/../lv_misc/lv_area.h **** 
  36:lvgl\src\lv_draw\../lv_core/../lv_font/../lv_misc/lv_area.h **** /**
  37:lvgl\src\lv_draw\../lv_core/../lv_font/../lv_misc/lv_area.h ****  * Represents a point on the screen.
  38:lvgl\src\lv_draw\../lv_core/../lv_font/../lv_misc/lv_area.h ****  */
  39:lvgl\src\lv_draw\../lv_core/../lv_font/../lv_misc/lv_area.h **** typedef struct {
  40:lvgl\src\lv_draw\../lv_core/../lv_font/../lv_misc/lv_area.h ****     lv_coord_t x;
  41:lvgl\src\lv_draw\../lv_core/../lv_font/../lv_misc/lv_area.h ****     lv_coord_t y;
  42:lvgl\src\lv_draw\../lv_core/../lv_font/../lv_misc/lv_area.h **** } lv_point_t;
  43:lvgl\src\lv_draw\../lv_core/../lv_font/../lv_misc/lv_area.h **** 
  44:lvgl\src\lv_draw\../lv_core/../lv_font/../lv_misc/lv_area.h **** /** Represents an area of the screen. */
  45:lvgl\src\lv_draw\../lv_core/../lv_font/../lv_misc/lv_area.h **** typedef struct {
  46:lvgl\src\lv_draw\../lv_core/../lv_font/../lv_misc/lv_area.h ****     lv_coord_t x1;
  47:lvgl\src\lv_draw\../lv_core/../lv_font/../lv_misc/lv_area.h ****     lv_coord_t y1;
  48:lvgl\src\lv_draw\../lv_core/../lv_font/../lv_misc/lv_area.h ****     lv_coord_t x2;
  49:lvgl\src\lv_draw\../lv_core/../lv_font/../lv_misc/lv_area.h ****     lv_coord_t y2;
  50:lvgl\src\lv_draw\../lv_core/../lv_font/../lv_misc/lv_area.h **** } lv_area_t;
  51:lvgl\src\lv_draw\../lv_core/../lv_font/../lv_misc/lv_area.h **** 
  52:lvgl\src\lv_draw\../lv_core/../lv_font/../lv_misc/lv_area.h **** 
  53:lvgl\src\lv_draw\../lv_core/../lv_font/../lv_misc/lv_area.h **** 
  54:lvgl\src\lv_draw\../lv_core/../lv_font/../lv_misc/lv_area.h **** /** Alignments */
  55:lvgl\src\lv_draw\../lv_core/../lv_font/../lv_misc/lv_area.h **** enum {
  56:lvgl\src\lv_draw\../lv_core/../lv_font/../lv_misc/lv_area.h ****     LV_ALIGN_CENTER = 0,
  57:lvgl\src\lv_draw\../lv_core/../lv_font/../lv_misc/lv_area.h ****     LV_ALIGN_IN_TOP_LEFT,
  58:lvgl\src\lv_draw\../lv_core/../lv_font/../lv_misc/lv_area.h ****     LV_ALIGN_IN_TOP_MID,
  59:lvgl\src\lv_draw\../lv_core/../lv_font/../lv_misc/lv_area.h ****     LV_ALIGN_IN_TOP_RIGHT,
  60:lvgl\src\lv_draw\../lv_core/../lv_font/../lv_misc/lv_area.h ****     LV_ALIGN_IN_BOTTOM_LEFT,
  61:lvgl\src\lv_draw\../lv_core/../lv_font/../lv_misc/lv_area.h ****     LV_ALIGN_IN_BOTTOM_MID,
  62:lvgl\src\lv_draw\../lv_core/../lv_font/../lv_misc/lv_area.h ****     LV_ALIGN_IN_BOTTOM_RIGHT,
  63:lvgl\src\lv_draw\../lv_core/../lv_font/../lv_misc/lv_area.h ****     LV_ALIGN_IN_LEFT_MID,
  64:lvgl\src\lv_draw\../lv_core/../lv_font/../lv_misc/lv_area.h ****     LV_ALIGN_IN_RIGHT_MID,
  65:lvgl\src\lv_draw\../lv_core/../lv_font/../lv_misc/lv_area.h ****     LV_ALIGN_OUT_TOP_LEFT,
  66:lvgl\src\lv_draw\../lv_core/../lv_font/../lv_misc/lv_area.h ****     LV_ALIGN_OUT_TOP_MID,
  67:lvgl\src\lv_draw\../lv_core/../lv_font/../lv_misc/lv_area.h ****     LV_ALIGN_OUT_TOP_RIGHT,
  68:lvgl\src\lv_draw\../lv_core/../lv_font/../lv_misc/lv_area.h ****     LV_ALIGN_OUT_BOTTOM_LEFT,
  69:lvgl\src\lv_draw\../lv_core/../lv_font/../lv_misc/lv_area.h ****     LV_ALIGN_OUT_BOTTOM_MID,
  70:lvgl\src\lv_draw\../lv_core/../lv_font/../lv_misc/lv_area.h ****     LV_ALIGN_OUT_BOTTOM_RIGHT,
  71:lvgl\src\lv_draw\../lv_core/../lv_font/../lv_misc/lv_area.h ****     LV_ALIGN_OUT_LEFT_TOP,
  72:lvgl\src\lv_draw\../lv_core/../lv_font/../lv_misc/lv_area.h ****     LV_ALIGN_OUT_LEFT_MID,
ARM GAS  C:\Users\strap\AppData\Local\Temp\ccsTbppz.s 			page 34


  73:lvgl\src\lv_draw\../lv_core/../lv_font/../lv_misc/lv_area.h ****     LV_ALIGN_OUT_LEFT_BOTTOM,
  74:lvgl\src\lv_draw\../lv_core/../lv_font/../lv_misc/lv_area.h ****     LV_ALIGN_OUT_RIGHT_TOP,
  75:lvgl\src\lv_draw\../lv_core/../lv_font/../lv_misc/lv_area.h ****     LV_ALIGN_OUT_RIGHT_MID,
  76:lvgl\src\lv_draw\../lv_core/../lv_font/../lv_misc/lv_area.h ****     LV_ALIGN_OUT_RIGHT_BOTTOM,
  77:lvgl\src\lv_draw\../lv_core/../lv_font/../lv_misc/lv_area.h **** };
  78:lvgl\src\lv_draw\../lv_core/../lv_font/../lv_misc/lv_area.h **** typedef uint8_t lv_align_t;
  79:lvgl\src\lv_draw\../lv_core/../lv_font/../lv_misc/lv_area.h **** 
  80:lvgl\src\lv_draw\../lv_core/../lv_font/../lv_misc/lv_area.h **** 
  81:lvgl\src\lv_draw\../lv_core/../lv_font/../lv_misc/lv_area.h **** /**********************
  82:lvgl\src\lv_draw\../lv_core/../lv_font/../lv_misc/lv_area.h ****  * GLOBAL PROTOTYPES
  83:lvgl\src\lv_draw\../lv_core/../lv_font/../lv_misc/lv_area.h ****  **********************/
  84:lvgl\src\lv_draw\../lv_core/../lv_font/../lv_misc/lv_area.h **** 
  85:lvgl\src\lv_draw\../lv_core/../lv_font/../lv_misc/lv_area.h **** /**
  86:lvgl\src\lv_draw\../lv_core/../lv_font/../lv_misc/lv_area.h ****  * Initialize an area
  87:lvgl\src\lv_draw\../lv_core/../lv_font/../lv_misc/lv_area.h ****  * @param area_p pointer to an area
  88:lvgl\src\lv_draw\../lv_core/../lv_font/../lv_misc/lv_area.h ****  * @param x1 left coordinate of the area
  89:lvgl\src\lv_draw\../lv_core/../lv_font/../lv_misc/lv_area.h ****  * @param y1 top coordinate of the area
  90:lvgl\src\lv_draw\../lv_core/../lv_font/../lv_misc/lv_area.h ****  * @param x2 right coordinate of the area
  91:lvgl\src\lv_draw\../lv_core/../lv_font/../lv_misc/lv_area.h ****  * @param y2 bottom coordinate of the area
  92:lvgl\src\lv_draw\../lv_core/../lv_font/../lv_misc/lv_area.h ****  */
  93:lvgl\src\lv_draw\../lv_core/../lv_font/../lv_misc/lv_area.h **** void lv_area_set(lv_area_t * area_p, lv_coord_t x1, lv_coord_t y1, lv_coord_t x2, lv_coord_t y2);
  94:lvgl\src\lv_draw\../lv_core/../lv_font/../lv_misc/lv_area.h **** 
  95:lvgl\src\lv_draw\../lv_core/../lv_font/../lv_misc/lv_area.h **** /**
  96:lvgl\src\lv_draw\../lv_core/../lv_font/../lv_misc/lv_area.h ****  * Copy an area
  97:lvgl\src\lv_draw\../lv_core/../lv_font/../lv_misc/lv_area.h ****  * @param dest pointer to the destination area
  98:lvgl\src\lv_draw\../lv_core/../lv_font/../lv_misc/lv_area.h ****  * @param src pointer to the source area
  99:lvgl\src\lv_draw\../lv_core/../lv_font/../lv_misc/lv_area.h ****  */
 100:lvgl\src\lv_draw\../lv_core/../lv_font/../lv_misc/lv_area.h **** inline static void lv_area_copy(lv_area_t * dest, const lv_area_t * src)
 101:lvgl\src\lv_draw\../lv_core/../lv_font/../lv_misc/lv_area.h **** {
 102:lvgl\src\lv_draw\../lv_core/../lv_font/../lv_misc/lv_area.h ****     _lv_memcpy_small(dest, src, sizeof(lv_area_t));
 103:lvgl\src\lv_draw\../lv_core/../lv_font/../lv_misc/lv_area.h **** }
 104:lvgl\src\lv_draw\../lv_core/../lv_font/../lv_misc/lv_area.h **** 
 105:lvgl\src\lv_draw\../lv_core/../lv_font/../lv_misc/lv_area.h **** /**
 106:lvgl\src\lv_draw\../lv_core/../lv_font/../lv_misc/lv_area.h ****  * Get the width of an area
 107:lvgl\src\lv_draw\../lv_core/../lv_font/../lv_misc/lv_area.h ****  * @param area_p pointer to an area
 108:lvgl\src\lv_draw\../lv_core/../lv_font/../lv_misc/lv_area.h ****  * @return the width of the area (if x1 == x2 -> width = 1)
 109:lvgl\src\lv_draw\../lv_core/../lv_font/../lv_misc/lv_area.h ****  */
 110:lvgl\src\lv_draw\../lv_core/../lv_font/../lv_misc/lv_area.h **** static inline lv_coord_t lv_area_get_width(const lv_area_t * area_p)
 111:lvgl\src\lv_draw\../lv_core/../lv_font/../lv_misc/lv_area.h **** {
 112:lvgl\src\lv_draw\../lv_core/../lv_font/../lv_misc/lv_area.h ****     return (lv_coord_t)(area_p->x2 - area_p->x1 + 1);
 416              		.loc 3 112 0
 417 0056 B0F90410 		ldrsh	r1, [r0, #4]
 418 005a B0F90070 		ldrsh	r7, [r0]
 419 005e C91B     		subs	r1, r1, r7
 420 0060 0131     		adds	r1, r1, #1
 421 0062 89B2     		uxth	r1, r1
 422              	.LVL64:
 423              	.LBE218:
 424              	.LBE217:
1007:lvgl\src\lv_draw/lv_draw_rect.c ****     sh_area.y2 = sh_area.y1 + lv_area_get_height(coords);
 425              		.loc 1 1007 0
 426 0064 5B1A     		subs	r3, r3, r1
 427 0066 ADF83830 		strh	r3, [sp, #56]	@ movhi
 428              	.LVL65:
 429              	.LBB219:
 430              	.LBB220:
 113:lvgl\src\lv_draw\../lv_core/../lv_font/../lv_misc/lv_area.h **** }
ARM GAS  C:\Users\strap\AppData\Local\Temp\ccsTbppz.s 			page 35


 114:lvgl\src\lv_draw\../lv_core/../lv_font/../lv_misc/lv_area.h **** 
 115:lvgl\src\lv_draw\../lv_core/../lv_font/../lv_misc/lv_area.h **** /**
 116:lvgl\src\lv_draw\../lv_core/../lv_font/../lv_misc/lv_area.h ****  * Get the height of an area
 117:lvgl\src\lv_draw\../lv_core/../lv_font/../lv_misc/lv_area.h ****  * @param area_p pointer to an area
 118:lvgl\src\lv_draw\../lv_core/../lv_font/../lv_misc/lv_area.h ****  * @return the height of the area (if y1 == y2 -> height = 1)
 119:lvgl\src\lv_draw\../lv_core/../lv_font/../lv_misc/lv_area.h ****  */
 120:lvgl\src\lv_draw\../lv_core/../lv_font/../lv_misc/lv_area.h **** static inline lv_coord_t lv_area_get_height(const lv_area_t * area_p)
 121:lvgl\src\lv_draw\../lv_core/../lv_font/../lv_misc/lv_area.h **** {
 122:lvgl\src\lv_draw\../lv_core/../lv_font/../lv_misc/lv_area.h ****     return (lv_coord_t)(area_p->y2 - area_p->y1 + 1);
 431              		.loc 3 122 0
 432 006a B0F90610 		ldrsh	r1, [r0, #6]
 433 006e B0F90230 		ldrsh	r3, [r0, #2]
 434 0072 CB1A     		subs	r3, r1, r3
 435 0074 0133     		adds	r3, r3, #1
 436 0076 9BB2     		uxth	r3, r3
 437              	.LVL66:
 438              	.LBE220:
 439              	.LBE219:
1008:lvgl\src\lv_draw/lv_draw_rect.c **** 
 440              		.loc 1 1008 0
 441 0078 2B44     		add	r3, r3, r5
 442 007a ADF83E30 		strh	r3, [sp, #62]	@ movhi
1011:lvgl\src\lv_draw/lv_draw_rect.c **** 
 443              		.loc 1 1011 0
 444 007e 0023     		movs	r3, #0
 445 0080 0EA9     		add	r1, sp, #56
 446 0082 07A8     		add	r0, sp, #28
 447              	.LVL67:
 448 0084 FFF7FEFF 		bl	lv_draw_mask_radius_init
 449              	.LVL68:
1015:lvgl\src\lv_draw/lv_draw_rect.c ****     else sw = sw_ori >> 1;
 450              		.loc 1 1015 0
 451 0088 012C     		cmp	r4, #1
 452 008a 02D0     		beq	.L53
1016:lvgl\src\lv_draw/lv_draw_rect.c **** #endif
 453              		.loc 1 1016 0
 454 008c 6310     		asrs	r3, r4, #1
 455 008e 0293     		str	r3, [sp, #8]
 456              	.LVL69:
 457 0090 01E0     		b	.L32
 458              	.LVL70:
 459              	.L53:
1015:lvgl\src\lv_draw/lv_draw_rect.c ****     else sw = sw_ori >> 1;
 460              		.loc 1 1015 0
 461 0092 0123     		movs	r3, #1
 462 0094 0293     		str	r3, [sp, #8]
 463              	.LVL71:
 464              	.L32:
1020:lvgl\src\lv_draw/lv_draw_rect.c ****     uint16_t * sh_ups_tmp_buf = (uint16_t *)sh_buf;
 465              		.loc 1 1020 0
 466 0096 B146     		mov	r9, r6
 467 0098 3046     		mov	r0, r6
 468 009a FFF7FEFF 		bl	_lv_mem_buf_get
 469              	.LVL72:
 470 009e 0446     		mov	r4, r0
 471              	.LVL73:
1021:lvgl\src\lv_draw/lv_draw_rect.c ****     for(y = 0; y < size; y++) {
ARM GAS  C:\Users\strap\AppData\Local\Temp\ccsTbppz.s 			page 36


 472              		.loc 1 1021 0
 473 00a0 4546     		mov	r5, r8
1022:lvgl\src\lv_draw/lv_draw_rect.c ****         _lv_memset_ff(mask_line, size);
 474              		.loc 1 1022 0
 475 00a2 0027     		movs	r7, #0
 476 00a4 DDF80CA0 		ldr	r10, [sp, #12]
 477 00a8 CDF81080 		str	r8, [sp, #16]
 478 00ac 37E0     		b	.L33
 479              	.LVL74:
 480              	.L40:
 481              	.LBB221:
1023:lvgl\src\lv_draw/lv_draw_rect.c ****         lv_draw_mask_res_t mask_res = mask_param.dsc.cb(mask_line, 0, y, size, &mask_param);
 482              		.loc 1 1023 0
 483 00ae 4946     		mov	r1, r9
 484 00b0 2046     		mov	r0, r4
 485 00b2 FFF7FEFF 		bl	_lv_memset_ff
 486              	.LVL75:
1024:lvgl\src\lv_draw/lv_draw_rect.c ****         if(mask_res == LV_DRAW_MASK_RES_TRANSP) {
 487              		.loc 1 1024 0
 488 00b6 10AA     		add	r2, sp, #64
 489 00b8 52F8248D 		ldr	r8, [r2, #-36]!
 490 00bc 0BEB0A03 		add	r3, fp, r10
 491 00c0 0092     		str	r2, [sp]
 492 00c2 1BB2     		sxth	r3, r3
 493 00c4 3AB2     		sxth	r2, r7
 494 00c6 0021     		movs	r1, #0
 495 00c8 2046     		mov	r0, r4
 496 00ca C047     		blx	r8
 497              	.LVL76:
1025:lvgl\src\lv_draw/lv_draw_rect.c ****             _lv_memset_00(sh_ups_tmp_buf, size * sizeof(sh_ups_tmp_buf[0]));
 498              		.loc 1 1025 0
 499 00cc 28B9     		cbnz	r0, .L34
1026:lvgl\src\lv_draw/lv_draw_rect.c ****         }
 500              		.loc 1 1026 0
 501 00ce 4FEA4901 		lsl	r1, r9, #1
 502 00d2 2846     		mov	r0, r5
 503              	.LVL77:
 504 00d4 FFF7FEFF 		bl	_lv_memset_00
 505              	.LVL78:
 506 00d8 1EE0     		b	.L35
 507              	.LVL79:
 508              	.L34:
 509              	.LBB222:
1030:lvgl\src\lv_draw/lv_draw_rect.c ****             for(i = 1; i < size; i++) {
 510              		.loc 1 1030 0
 511 00da 2378     		ldrb	r3, [r4]	@ zero_extendqisi2
 512 00dc 9B01     		lsls	r3, r3, #6
 513 00de 029A     		ldr	r2, [sp, #8]
 514 00e0 1046     		mov	r0, r2
 515              	.LVL80:
 516 00e2 93FBF2F3 		sdiv	r3, r3, r2
 517 00e6 2B80     		strh	r3, [r5]	@ movhi
 518              	.LVL81:
1031:lvgl\src\lv_draw/lv_draw_rect.c ****                 if(mask_line[i] == mask_line[i - 1]) sh_ups_tmp_buf[i] = sh_ups_tmp_buf[i - 1];
 519              		.loc 1 1031 0
 520 00e8 0123     		movs	r3, #1
 521 00ea 13E0     		b	.L36
ARM GAS  C:\Users\strap\AppData\Local\Temp\ccsTbppz.s 			page 37


 522              	.LVL82:
 523              	.L39:
1032:lvgl\src\lv_draw/lv_draw_rect.c ****                 else  sh_ups_tmp_buf[i] = (mask_line[i] << SHADOW_UPSACALE_SHIFT) / sw;
 524              		.loc 1 1032 0
 525 00ec E25C     		ldrb	r2, [r4, r3]	@ zero_extendqisi2
 526 00ee E118     		adds	r1, r4, r3
 527 00f0 11F8011C 		ldrb	r1, [r1, #-1]	@ zero_extendqisi2
 528 00f4 8A42     		cmp	r2, r1
 529 00f6 07D1     		bne	.L37
1032:lvgl\src\lv_draw/lv_draw_rect.c ****                 else  sh_ups_tmp_buf[i] = (mask_line[i] << SHADOW_UPSACALE_SHIFT) / sw;
 530              		.loc 1 1032 0 is_stmt 0 discriminator 1
 531 00f8 03F10042 		add	r2, r3, #-2147483648
 532 00fc 013A     		subs	r2, r2, #1
 533 00fe 35F81220 		ldrh	r2, [r5, r2, lsl #1]
 534 0102 25F81320 		strh	r2, [r5, r3, lsl #1]	@ movhi
 535 0106 04E0     		b	.L38
 536              	.L37:
1033:lvgl\src\lv_draw/lv_draw_rect.c ****             }
 537              		.loc 1 1033 0 is_stmt 1
 538 0108 9201     		lsls	r2, r2, #6
 539 010a 92FBF0F2 		sdiv	r2, r2, r0
 540 010e 25F81320 		strh	r2, [r5, r3, lsl #1]	@ movhi
 541              	.L38:
1031:lvgl\src\lv_draw/lv_draw_rect.c ****                 if(mask_line[i] == mask_line[i - 1]) sh_ups_tmp_buf[i] = sh_ups_tmp_buf[i - 1];
 542              		.loc 1 1031 0 discriminator 2
 543 0112 0133     		adds	r3, r3, #1
 544              	.LVL83:
 545              	.L36:
1031:lvgl\src\lv_draw/lv_draw_rect.c ****                 if(mask_line[i] == mask_line[i - 1]) sh_ups_tmp_buf[i] = sh_ups_tmp_buf[i - 1];
 546              		.loc 1 1031 0 is_stmt 0 discriminator 1
 547 0114 B342     		cmp	r3, r6
 548 0116 E9DB     		blt	.L39
 549              	.LVL84:
 550              	.L35:
 551              	.LBE222:
1037:lvgl\src\lv_draw/lv_draw_rect.c ****     }
 552              		.loc 1 1037 0 is_stmt 1 discriminator 2
 553 0118 05EB4905 		add	r5, r5, r9, lsl #1
 554              	.LVL85:
 555              	.LBE221:
1022:lvgl\src\lv_draw/lv_draw_rect.c ****         _lv_memset_ff(mask_line, size);
 556              		.loc 1 1022 0 discriminator 2
 557 011c 0137     		adds	r7, r7, #1
 558              	.LVL86:
 559              	.L33:
1022:lvgl\src\lv_draw/lv_draw_rect.c ****         _lv_memset_ff(mask_line, size);
 560              		.loc 1 1022 0 is_stmt 0 discriminator 1
 561 011e B742     		cmp	r7, r6
 562 0120 C5DB     		blt	.L40
 563 0122 DDF81080 		ldr	r8, [sp, #16]
1039:lvgl\src\lv_draw/lv_draw_rect.c **** 
 564              		.loc 1 1039 0 is_stmt 1
 565 0126 2046     		mov	r0, r4
 566 0128 FFF7FEFF 		bl	_lv_mem_buf_release
 567              	.LVL87:
1041:lvgl\src\lv_draw/lv_draw_rect.c ****         int32_t i;
 568              		.loc 1 1041 0
ARM GAS  C:\Users\strap\AppData\Local\Temp\ccsTbppz.s 			page 38


 569 012c 029B     		ldr	r3, [sp, #8]
 570 012e 012B     		cmp	r3, #1
 571 0130 0DD1     		bne	.L55
 572 0132 06E0     		b	.L54
 573              	.LVL88:
 574              	.L43:
 575              	.LBB223:
1045:lvgl\src\lv_draw/lv_draw_rect.c ****         }
 576              		.loc 1 1045 0 discriminator 3
 577 0134 38F81320 		ldrh	r2, [r8, r3, lsl #1]
 578 0138 9209     		lsrs	r2, r2, #6
 579 013a 08F80320 		strb	r2, [r8, r3]
1044:lvgl\src\lv_draw/lv_draw_rect.c ****             res_buf[i] = (sh_buf[i] >> SHADOW_UPSACALE_SHIFT);
 580              		.loc 1 1044 0 discriminator 3
 581 013e 0133     		adds	r3, r3, #1
 582              	.LVL89:
 583 0140 00E0     		b	.L41
 584              	.LVL90:
 585              	.L54:
 586              	.LBE223:
 587 0142 0023     		movs	r3, #0
 588              	.L41:
 589              	.LVL91:
 590              	.LBB224:
1044:lvgl\src\lv_draw/lv_draw_rect.c ****             res_buf[i] = (sh_buf[i] >> SHADOW_UPSACALE_SHIFT);
 591              		.loc 1 1044 0 is_stmt 0 discriminator 1
 592 0144 06FB06F2 		mul	r2, r6, r6
 593 0148 9342     		cmp	r3, r2
 594 014a F3DB     		blt	.L43
 595 014c 3CE0     		b	.L29
 596              	.LVL92:
 597              	.L55:
 598              	.LBE224:
1050:lvgl\src\lv_draw/lv_draw_rect.c **** 
 599              		.loc 1 1050 0 is_stmt 1
 600 014e 039B     		ldr	r3, [sp, #12]
 601 0150 5B44     		add	r3, r3, fp
 602 0152 1CB2     		sxth	r4, r3
 603              	.LVL93:
 604 0154 4246     		mov	r2, r8
 605 0156 029D     		ldr	r5, [sp, #8]
 606              	.LVL94:
 607 0158 2946     		mov	r1, r5
 608 015a 2046     		mov	r0, r4
 609 015c FFF7FEFF 		bl	shadow_blur_corner
 610              	.LVL95:
1060:lvgl\src\lv_draw/lv_draw_rect.c ****     if(sw > 1) {
 611              		.loc 1 1060 0
 612 0160 059B     		ldr	r3, [sp, #20]
 613 0162 2B44     		add	r3, r3, r5
 614 0164 19B2     		sxth	r1, r3
 615              	.LVL96:
1061:lvgl\src\lv_draw/lv_draw_rect.c ****         uint32_t i;
 616              		.loc 1 1061 0
 617 0166 0129     		cmp	r1, #1
 618 0168 23DD     		ble	.L45
 619              	.LBB225:
ARM GAS  C:\Users\strap\AppData\Local\Temp\ccsTbppz.s 			page 39


1063:lvgl\src\lv_draw/lv_draw_rect.c ****         for(i = 1; i < (uint32_t) size * size; i++) {
 620              		.loc 1 1063 0
 621 016a B8F80030 		ldrh	r3, [r8]
 622 016e 9B01     		lsls	r3, r3, #6
 623 0170 0D46     		mov	r5, r1
 624 0172 93FBF1F3 		sdiv	r3, r3, r1
 625 0176 A8F80030 		strh	r3, [r8]	@ movhi
 626              	.LVL97:
1064:lvgl\src\lv_draw/lv_draw_rect.c ****             if(sh_buf[i] == sh_buf[i - 1]) sh_buf[i] = sh_buf[i - 1];
 627              		.loc 1 1064 0
 628 017a 0123     		movs	r3, #1
 629 017c 11E0     		b	.L46
 630              	.LVL98:
 631              	.L49:
1065:lvgl\src\lv_draw/lv_draw_rect.c ****             else  sh_buf[i] = (sh_buf[i] << SHADOW_UPSACALE_SHIFT) / sw;
 632              		.loc 1 1065 0
 633 017e 38F81320 		ldrh	r2, [r8, r3, lsl #1]
 634 0182 03F10040 		add	r0, r3, #-2147483648
 635 0186 0138     		subs	r0, r0, #1
 636 0188 38F81000 		ldrh	r0, [r8, r0, lsl #1]
 637 018c 8242     		cmp	r2, r0
 638 018e 02D1     		bne	.L47
1065:lvgl\src\lv_draw/lv_draw_rect.c ****             else  sh_buf[i] = (sh_buf[i] << SHADOW_UPSACALE_SHIFT) / sw;
 639              		.loc 1 1065 0 is_stmt 0 discriminator 1
 640 0190 28F81300 		strh	r0, [r8, r3, lsl #1]	@ movhi
 641 0194 04E0     		b	.L48
 642              	.L47:
1066:lvgl\src\lv_draw/lv_draw_rect.c ****         }
 643              		.loc 1 1066 0 is_stmt 1
 644 0196 9201     		lsls	r2, r2, #6
 645 0198 92FBF5F2 		sdiv	r2, r2, r5
 646 019c 28F81320 		strh	r2, [r8, r3, lsl #1]	@ movhi
 647              	.L48:
1064:lvgl\src\lv_draw/lv_draw_rect.c ****             if(sh_buf[i] == sh_buf[i - 1]) sh_buf[i] = sh_buf[i - 1];
 648              		.loc 1 1064 0 discriminator 2
 649 01a0 0133     		adds	r3, r3, #1
 650              	.LVL99:
 651              	.L46:
1064:lvgl\src\lv_draw/lv_draw_rect.c ****             if(sh_buf[i] == sh_buf[i - 1]) sh_buf[i] = sh_buf[i - 1];
 652              		.loc 1 1064 0 is_stmt 0 discriminator 1
 653 01a2 09FB09F2 		mul	r2, r9, r9
 654 01a6 9342     		cmp	r3, r2
 655 01a8 E9D3     		bcc	.L49
1069:lvgl\src\lv_draw/lv_draw_rect.c ****     }
 656              		.loc 1 1069 0 is_stmt 1
 657 01aa 4246     		mov	r2, r8
 658 01ac 2046     		mov	r0, r4
 659 01ae FFF7FEFF 		bl	shadow_blur_corner
 660              	.LVL100:
 661              	.L45:
1064:lvgl\src\lv_draw/lv_draw_rect.c ****             if(sh_buf[i] == sh_buf[i - 1]) sh_buf[i] = sh_buf[i - 1];
 662              		.loc 1 1064 0 discriminator 1
 663 01b2 0023     		movs	r3, #0
 664 01b4 04E0     		b	.L50
 665              	.LVL101:
 666              	.L51:
 667              	.LBE225:
ARM GAS  C:\Users\strap\AppData\Local\Temp\ccsTbppz.s 			page 40


1074:lvgl\src\lv_draw/lv_draw_rect.c ****     }
 668              		.loc 1 1074 0 discriminator 3
 669 01b6 38F81320 		ldrh	r2, [r8, r3, lsl #1]
 670 01ba 08F80320 		strb	r2, [r8, r3]
1073:lvgl\src\lv_draw/lv_draw_rect.c ****         res_buf[x] = sh_buf[x];
 671              		.loc 1 1073 0 discriminator 3
 672 01be 0133     		adds	r3, r3, #1
 673              	.LVL102:
 674              	.L50:
1073:lvgl\src\lv_draw/lv_draw_rect.c ****         res_buf[x] = sh_buf[x];
 675              		.loc 1 1073 0 is_stmt 0 discriminator 1
 676 01c0 06FB06F2 		mul	r2, r6, r6
 677 01c4 9342     		cmp	r3, r2
 678 01c6 F6DB     		blt	.L51
 679              	.LVL103:
 680              	.L29:
1078:lvgl\src\lv_draw/lv_draw_rect.c **** 
 681              		.loc 1 1078 0 is_stmt 1
 682 01c8 11B0     		add	sp, sp, #68
 683              		.cfi_def_cfa_offset 36
 684              		@ sp needed
 685 01ca BDE8F08F 		pop	{r4, r5, r6, r7, r8, r9, r10, fp, pc}
 686              		.cfi_endproc
 687              	.LFE335:
 688              		.size	shadow_draw_corner_buf, .-shadow_draw_corner_buf
 689 01ce 00BF     		.section	.text.draw_shadow,"ax",%progbits
 690              		.align	2
 691              		.thumb
 692              		.thumb_func
 693              		.type	draw_shadow, %function
 694              	draw_shadow:
 695              	.LFB334:
 526:lvgl\src\lv_draw/lv_draw_rect.c ****     /*Check whether the shadow is visible*/
 696              		.loc 1 526 0
 697              		.cfi_startproc
 698              		@ args = 0, pretend = 0, frame = 136
 699              		@ frame_needed = 0, uses_anonymous_args = 0
 700              	.LVL104:
 701 0000 2DE9F04F 		push	{r4, r5, r6, r7, r8, r9, r10, fp, lr}
 702              		.cfi_def_cfa_offset 36
 703              		.cfi_offset 4, -36
 704              		.cfi_offset 5, -32
 705              		.cfi_offset 6, -28
 706              		.cfi_offset 7, -24
 707              		.cfi_offset 8, -20
 708              		.cfi_offset 9, -16
 709              		.cfi_offset 10, -12
 710              		.cfi_offset 11, -8
 711              		.cfi_offset 14, -4
 712 0004 A7B0     		sub	sp, sp, #156
 713              		.cfi_def_cfa_offset 192
 528:lvgl\src\lv_draw/lv_draw_rect.c ****     if(dsc->shadow_opa <= LV_OPA_MIN) return;
 714              		.loc 1 528 0
 715 0006 B2F92240 		ldrsh	r4, [r2, #34]
 716 000a 002C     		cmp	r4, #0
 717 000c 00F01986 		beq	.L57
 529:lvgl\src\lv_draw/lv_draw_rect.c **** 
ARM GAS  C:\Users\strap\AppData\Local\Temp\ccsTbppz.s 			page 41


 718              		.loc 1 529 0
 719 0010 92F82A80 		ldrb	r8, [r2, #42]	@ zero_extendqisi2
 720 0014 B8F1020F 		cmp	r8, #2
 721 0018 40F21386 		bls	.L57
 531:lvgl\src\lv_draw/lv_draw_rect.c ****        dsc->shadow_ofs_y == 0 && dsc->shadow_spread <= 0) {
 722              		.loc 1 531 0
 723 001c 012C     		cmp	r4, #1
 724 001e 06D1     		bne	.L59
 531:lvgl\src\lv_draw/lv_draw_rect.c ****        dsc->shadow_ofs_y == 0 && dsc->shadow_spread <= 0) {
 725              		.loc 1 531 0 is_stmt 0 discriminator 1
 726 0020 536A     		ldr	r3, [r2, #36]
 727 0022 23B9     		cbnz	r3, .L59
 532:lvgl\src\lv_draw/lv_draw_rect.c ****         return;
 728              		.loc 1 532 0 is_stmt 1
 729 0024 B2F92830 		ldrsh	r3, [r2, #40]
 730 0028 002B     		cmp	r3, #0
 731 002a 40F30A86 		ble	.L57
 732              	.L59:
 733              	.LVL105:
 539:lvgl\src\lv_draw/lv_draw_rect.c ****     sh_rect_area.x2 = coords->x2  + dsc->shadow_ofs_x + dsc->shadow_spread;
 734              		.loc 1 539 0
 735 002e B0F90060 		ldrsh	r6, [r0]
 736 0032 958C     		ldrh	r5, [r2, #36]
 737 0034 B2F828E0 		ldrh	lr, [r2, #40]
 738 0038 2E44     		add	r6, r6, r5
 739 003a CEEB0606 		rsb	r6, lr, r6
 740 003e B6B2     		uxth	r6, r6
 741 0040 ADF89060 		strh	r6, [sp, #144]	@ movhi
 540:lvgl\src\lv_draw/lv_draw_rect.c ****     sh_rect_area.y1 = coords->y1  + dsc->shadow_ofs_y - dsc->shadow_spread;
 742              		.loc 1 540 0
 743 0044 B0F90430 		ldrsh	r3, [r0, #4]
 744 0048 1D44     		add	r5, r5, r3
 745 004a 7544     		add	r5, r5, lr
 746 004c ADB2     		uxth	r5, r5
 747 004e ADF89450 		strh	r5, [sp, #148]	@ movhi
 541:lvgl\src\lv_draw/lv_draw_rect.c ****     sh_rect_area.y2 = coords->y2  + dsc->shadow_ofs_y + dsc->shadow_spread;
 748              		.loc 1 541 0
 749 0052 B0F90230 		ldrsh	r3, [r0, #2]
 750 0056 B2F826C0 		ldrh	ip, [r2, #38]
 751 005a 6344     		add	r3, r3, ip
 752 005c CEEB0303 		rsb	r3, lr, r3
 753 0060 9BB2     		uxth	r3, r3
 754 0062 ADF89230 		strh	r3, [sp, #146]	@ movhi
 542:lvgl\src\lv_draw/lv_draw_rect.c **** 
 755              		.loc 1 542 0
 756 0066 B0F90670 		ldrsh	r7, [r0, #6]
 757 006a 6744     		add	r7, r7, ip
 758 006c BE44     		add	lr, lr, r7
 759 006e 1FFA8EFE 		uxth	lr, lr
 760 0072 ADF896E0 		strh	lr, [sp, #150]	@ movhi
 545:lvgl\src\lv_draw/lv_draw_rect.c ****     sh_area.x2 = sh_rect_area.x2 + sw / 2 + 1;
 761              		.loc 1 545 0
 762 0076 04EBD477 		add	r7, r4, r4, lsr #31
 763 007a C7F34F07 		ubfx	r7, r7, #1, #16
 764 007e F61B     		subs	r6, r6, r7
 765 0080 013E     		subs	r6, r6, #1
 766 0082 ADF88860 		strh	r6, [sp, #136]	@ movhi
ARM GAS  C:\Users\strap\AppData\Local\Temp\ccsTbppz.s 			page 42


 546:lvgl\src\lv_draw/lv_draw_rect.c ****     sh_area.y1 = sh_rect_area.y1 - sw / 2 - 1;
 767              		.loc 1 546 0
 768 0086 3D44     		add	r5, r5, r7
 769 0088 0135     		adds	r5, r5, #1
 770 008a ADF88C50 		strh	r5, [sp, #140]	@ movhi
 547:lvgl\src\lv_draw/lv_draw_rect.c ****     sh_area.y2 = sh_rect_area.y2 + sw / 2 + 1;
 771              		.loc 1 547 0
 772 008e DD1B     		subs	r5, r3, r7
 773 0090 013D     		subs	r5, r5, #1
 774 0092 ADF88A50 		strh	r5, [sp, #138]	@ movhi
 548:lvgl\src\lv_draw/lv_draw_rect.c **** 
 775              		.loc 1 548 0
 776 0096 0EEB0703 		add	r3, lr, r7
 777 009a 0133     		adds	r3, r3, #1
 778 009c ADF88E30 		strh	r3, [sp, #142]	@ movhi
 779              	.LVL106:
 552:lvgl\src\lv_draw/lv_draw_rect.c **** 
 780              		.loc 1 552 0
 781 00a0 B8F1FD0F 		cmp	r8, #253
 782 00a4 01D9     		bls	.L60
 783 00a6 4FF0FF08 		mov	r8, #255
 784              	.LVL107:
 785              	.L60:
 786 00aa 1546     		mov	r5, r2
 787 00ac 0F46     		mov	r7, r1
 788 00ae 0691     		str	r1, [sp, #24]
 789 00b0 8146     		mov	r9, r0
 790 00b2 0990     		str	r0, [sp, #36]
 791              	.LVL108:
 554:lvgl\src\lv_draw/lv_draw_rect.c ****     lv_disp_buf_t * vdb = lv_disp_get_buf(disp);
 792              		.loc 1 554 0
 793 00b4 FFF7FEFF 		bl	_lv_refr_get_disp_refreshing
 794              	.LVL109:
 555:lvgl\src\lv_draw/lv_draw_rect.c **** 
 795              		.loc 1 555 0
 796 00b8 FFF7FEFF 		bl	lv_disp_get_buf
 797              	.LVL110:
 798 00bc 0646     		mov	r6, r0
 799              	.LVL111:
 561:lvgl\src\lv_draw/lv_draw_rect.c ****     if(is_common == false) return;
 800              		.loc 1 561 0
 801 00be 3A46     		mov	r2, r7
 802 00c0 22A9     		add	r1, sp, #136
 803 00c2 20A8     		add	r0, sp, #128
 804              	.LVL112:
 805 00c4 FFF7FEFF 		bl	_lv_area_intersect
 806              	.LVL113:
 562:lvgl\src\lv_draw/lv_draw_rect.c **** 
 807              		.loc 1 562 0
 808 00c8 0028     		cmp	r0, #0
 809 00ca 00F0BA85 		beq	.L57
 810              	.LVL114:
 568:lvgl\src\lv_draw/lv_draw_rect.c ****     draw_area.y1 -= disp_area->y1;
 811              		.loc 1 568 0
 812 00ce 378A     		ldrh	r7, [r6, #16]
 813              	.LVL115:
 814 00d0 BDF88030 		ldrh	r3, [sp, #128]
ARM GAS  C:\Users\strap\AppData\Local\Temp\ccsTbppz.s 			page 43


 815 00d4 DB1B     		subs	r3, r3, r7
 816 00d6 ADF88030 		strh	r3, [sp, #128]	@ movhi
 569:lvgl\src\lv_draw/lv_draw_rect.c ****     draw_area.x2 -= disp_area->x1;
 817              		.loc 1 569 0
 818 00da 708A     		ldrh	r0, [r6, #18]
 819              	.LVL116:
 820 00dc BDF88210 		ldrh	r1, [sp, #130]
 821 00e0 091A     		subs	r1, r1, r0
 822 00e2 ADF88210 		strh	r1, [sp, #130]	@ movhi
 570:lvgl\src\lv_draw/lv_draw_rect.c ****     draw_area.y2 -= disp_area->y1;
 823              		.loc 1 570 0
 824 00e6 BDF88420 		ldrh	r2, [sp, #132]
 825 00ea D21B     		subs	r2, r2, r7
 826 00ec ADF88420 		strh	r2, [sp, #132]	@ movhi
 571:lvgl\src\lv_draw/lv_draw_rect.c **** 
 827              		.loc 1 571 0
 828 00f0 BDF88630 		ldrh	r3, [sp, #134]
 829 00f4 1B1A     		subs	r3, r3, r0
 830 00f6 ADF88630 		strh	r3, [sp, #134]	@ movhi
 831              	.LVL117:
 832              	.LBB226:
 833              	.LBB227:
 834              	.LBB228:
 217:lvgl\src\lv_draw\../lv_core/../lv_font/../lv_misc/lv_mem.h **** 
 835              		.loc 2 217 0
 836 00fa 4946     		mov	r1, r9
 216:lvgl\src\lv_draw\../lv_core/../lv_font/../lv_misc/lv_mem.h ****     const uint8_t * s8 = (const uint8_t *)src;
 837              		.loc 2 216 0
 838 00fc 1EAA     		add	r2, sp, #120
 839              	.LVL118:
 840              	.LBE228:
 841              	.LBE227:
 842              	.LBE226:
 571:lvgl\src\lv_draw/lv_draw_rect.c **** 
 843              		.loc 1 571 0
 844 00fe 0823     		movs	r3, #8
 845 0100 04E0     		b	.L61
 846              	.LVL119:
 847              	.L62:
 848              	.LBB231:
 849              	.LBB230:
 850              	.LBB229:
 220:lvgl\src\lv_draw\../lv_core/../lv_font/../lv_misc/lv_mem.h ****         d8++;
 851              		.loc 2 220 0
 852 0102 11F8010B 		ldrb	r0, [r1], #1	@ zero_extendqisi2
 853              	.LVL120:
 854 0106 02F8010B 		strb	r0, [r2], #1
 855              	.LVL121:
 856              		.loc 2 223 0
 857 010a 013B     		subs	r3, r3, #1
 858              	.LVL122:
 859              	.L61:
 219:lvgl\src\lv_draw\../lv_core/../lv_font/../lv_misc/lv_mem.h ****         *d8 = *s8;
 860              		.loc 2 219 0
 861 010c 002B     		cmp	r3, #0
 862 010e F8D1     		bne	.L62
 863              	.LVL123:
ARM GAS  C:\Users\strap\AppData\Local\Temp\ccsTbppz.s 			page 44


 864              	.LBE229:
 865              	.LBE230:
 866              	.LBE231:
 576:lvgl\src\lv_draw/lv_draw_rect.c ****     bg_coords.y1 += 1;
 867              		.loc 1 576 0
 868 0110 BDF87870 		ldrh	r7, [sp, #120]
 869 0114 0137     		adds	r7, r7, #1
 870 0116 BFB2     		uxth	r7, r7
 871 0118 ADF87870 		strh	r7, [sp, #120]	@ movhi
 577:lvgl\src\lv_draw/lv_draw_rect.c ****     bg_coords.x2 -= 1;
 872              		.loc 1 577 0
 873 011c BDF87A20 		ldrh	r2, [sp, #122]
 874              	.LVL124:
 875 0120 0132     		adds	r2, r2, #1
 876 0122 92B2     		uxth	r2, r2
 877 0124 ADF87A20 		strh	r2, [sp, #122]	@ movhi
 578:lvgl\src\lv_draw/lv_draw_rect.c ****     bg_coords.y2 -= 1;
 878              		.loc 1 578 0
 879 0128 BDF87C30 		ldrh	r3, [sp, #124]
 880 012c 013B     		subs	r3, r3, #1
 881 012e 99B2     		uxth	r1, r3
 882              	.LVL125:
 883 0130 ADF87C10 		strh	r1, [sp, #124]	@ movhi
 579:lvgl\src\lv_draw/lv_draw_rect.c **** 
 884              		.loc 1 579 0
 885 0134 BDF87E30 		ldrh	r3, [sp, #126]
 886 0138 013B     		subs	r3, r3, #1
 887 013a 9BB2     		uxth	r3, r3
 888 013c ADF87E30 		strh	r3, [sp, #126]	@ movhi
 582:lvgl\src\lv_draw/lv_draw_rect.c ****     int32_t short_side = LV_MATH_MIN(lv_area_get_width(&bg_coords), lv_area_get_height(&bg_coords))
 889              		.loc 1 582 0
 890 0140 B5F90000 		ldrsh	r0, [r5]
 891              	.LVL126:
 892              	.LBB232:
 893              	.LBB233:
 112:lvgl\src\lv_draw\../lv_core/../lv_font/../lv_misc/lv_area.h **** }
 894              		.loc 3 112 0
 895 0144 CF1B     		subs	r7, r1, r7
 896 0146 0137     		adds	r7, r7, #1
 897 0148 3FB2     		sxth	r7, r7
 898              	.LVL127:
 899              	.LBE233:
 900              	.LBE232:
 901              	.LBB234:
 902              	.LBB235:
 903              		.loc 3 122 0
 904 014a 9A1A     		subs	r2, r3, r2
 905 014c 0132     		adds	r2, r2, #1
 906 014e 13B2     		sxth	r3, r2
 907              	.LVL128:
 908              	.LBE235:
 909              	.LBE234:
 583:lvgl\src\lv_draw/lv_draw_rect.c ****     if(r_bg > short_side >> 1) r_bg = short_side >> 1;
 910              		.loc 1 583 0
 911 0150 9F42     		cmp	r7, r3
 912 0152 00DA     		bge	.L64
 913 0154 3B46     		mov	r3, r7
ARM GAS  C:\Users\strap\AppData\Local\Temp\ccsTbppz.s 			page 45


 914              	.L64:
 915              	.LVL129:
 584:lvgl\src\lv_draw/lv_draw_rect.c **** 
 916              		.loc 1 584 0 discriminator 4
 917 0156 5F10     		asrs	r7, r3, #1
 918 0158 B842     		cmp	r0, r7
 919 015a 00DC     		bgt	.L65
 582:lvgl\src\lv_draw/lv_draw_rect.c ****     int32_t short_side = LV_MATH_MIN(lv_area_get_width(&bg_coords), lv_area_get_height(&bg_coords))
 920              		.loc 1 582 0
 921 015c 0746     		mov	r7, r0
 922              	.L65:
 923              	.LVL130:
 924              	.LBB236:
 925              	.LBB237:
 112:lvgl\src\lv_draw\../lv_core/../lv_font/../lv_misc/lv_area.h **** }
 926              		.loc 3 112 0
 927 015e BDF99430 		ldrsh	r3, [sp, #148]
 928              	.LVL131:
 929 0162 BDF99020 		ldrsh	r2, [sp, #144]
 930 0166 9B1A     		subs	r3, r3, r2
 931 0168 0133     		adds	r3, r3, #1
 932 016a 1EB2     		sxth	r6, r3
 933              	.LVL132:
 934              	.LBE237:
 935              	.LBE236:
 936              	.LBB238:
 937              	.LBB239:
 938              		.loc 3 122 0
 939 016c BDF99620 		ldrsh	r2, [sp, #150]
 940 0170 BDF99230 		ldrsh	r3, [sp, #146]
 941 0174 D21A     		subs	r2, r2, r3
 942 0176 0132     		adds	r2, r2, #1
 943 0178 13B2     		sxth	r3, r2
 944              	.LVL133:
 945              	.LBE239:
 946              	.LBE238:
 587:lvgl\src\lv_draw/lv_draw_rect.c ****     if(r_sh > short_side >> 1) r_sh = short_side >> 1;
 947              		.loc 1 587 0
 948 017a B342     		cmp	r3, r6
 949 017c 00DD     		ble	.L67
 950 017e 3346     		mov	r3, r6
 951              	.L67:
 952              	.LVL134:
 588:lvgl\src\lv_draw/lv_draw_rect.c **** 
 953              		.loc 1 588 0 discriminator 4
 954 0180 5E10     		asrs	r6, r3, #1
 955 0182 B042     		cmp	r0, r6
 956 0184 00DC     		bgt	.L68
 586:lvgl\src\lv_draw/lv_draw_rect.c ****     short_side = LV_MATH_MIN(lv_area_get_width(&sh_rect_area), lv_area_get_height(&sh_rect_area));
 957              		.loc 1 586 0
 958 0186 0646     		mov	r6, r0
 959              	.L68:
 960              	.LVL135:
 591:lvgl\src\lv_draw/lv_draw_rect.c **** 
 961              		.loc 1 591 0
 962 0188 3444     		add	r4, r4, r6
 963              	.LVL136:
ARM GAS  C:\Users\strap\AppData\Local\Temp\ccsTbppz.s 			page 46


 614:lvgl\src\lv_draw/lv_draw_rect.c ****     shadow_draw_corner_buf(&sh_rect_area, (uint16_t *)sh_buf, dsc->shadow_width, r_sh);
 964              		.loc 1 614 0
 965 018a 04FB04F0 		mul	r0, r4, r4
 966 018e 4000     		lsls	r0, r0, #1
 967 0190 FFF7FEFF 		bl	_lv_mem_buf_get
 968              	.LVL137:
 969 0194 0146     		mov	r1, r0
 970 0196 0790     		str	r0, [sp, #28]
 971              	.LVL138:
 615:lvgl\src\lv_draw/lv_draw_rect.c **** #endif
 972              		.loc 1 615 0
 973 0198 33B2     		sxth	r3, r6
 974 019a B5F92220 		ldrsh	r2, [r5, #34]
 975 019e 24A8     		add	r0, sp, #144
 976              	.LVL139:
 977 01a0 FFF7FEFF 		bl	shadow_draw_corner_buf
 978              	.LVL140:
 618:lvgl\src\lv_draw/lv_draw_rect.c ****     lv_coord_t w_half = sh_area.x1 + lv_area_get_width(&sh_area) / 2;
 979              		.loc 1 618 0
 980 01a4 BDF88A20 		ldrh	r2, [sp, #138]
 981              	.LVL141:
 982              	.LBB240:
 983              	.LBB241:
 984              		.loc 3 122 0
 985 01a8 BDF98E30 		ldrsh	r3, [sp, #142]
 986 01ac 9B1A     		subs	r3, r3, r2
 987 01ae 0133     		adds	r3, r3, #1
 988 01b0 1BB2     		sxth	r3, r3
 989              	.LVL142:
 990              	.LBE241:
 991              	.LBE240:
 618:lvgl\src\lv_draw/lv_draw_rect.c ****     lv_coord_t w_half = sh_area.x1 + lv_area_get_width(&sh_area) / 2;
 992              		.loc 1 618 0
 993 01b2 03EBD373 		add	r3, r3, r3, lsr #31
 994 01b6 02EB6303 		add	r3, r2, r3, asr #1
 995 01ba 9BB2     		uxth	r3, r3
 996 01bc 0D93     		str	r3, [sp, #52]
 997 01be 0FFA83FB 		sxth	fp, r3
 998              	.LVL143:
 619:lvgl\src\lv_draw/lv_draw_rect.c **** 
 999              		.loc 1 619 0
 1000 01c2 BDF88820 		ldrh	r2, [sp, #136]
 1001              	.LVL144:
 1002              	.LBB242:
 1003              	.LBB243:
 112:lvgl\src\lv_draw\../lv_core/../lv_font/../lv_misc/lv_area.h **** }
 1004              		.loc 3 112 0
 1005 01c6 BDF98C30 		ldrsh	r3, [sp, #140]
 1006 01ca 9B1A     		subs	r3, r3, r2
 1007 01cc 0133     		adds	r3, r3, #1
 1008 01ce 1BB2     		sxth	r3, r3
 1009              	.LVL145:
 1010              	.LBE243:
 1011              	.LBE242:
 619:lvgl\src\lv_draw/lv_draw_rect.c **** 
 1012              		.loc 1 619 0
 1013 01d0 03EBD373 		add	r3, r3, r3, lsr #31
ARM GAS  C:\Users\strap\AppData\Local\Temp\ccsTbppz.s 			page 47


 1014 01d4 02EB6303 		add	r3, r2, r3, asr #1
 1015 01d8 9BB2     		uxth	r3, r3
 1016 01da 0E93     		str	r3, [sp, #56]
 1017 01dc 1BB2     		sxth	r3, r3
 1018 01de 0C93     		str	r3, [sp, #48]
 1019              	.LVL146:
 622:lvgl\src\lv_draw/lv_draw_rect.c ****     else if(dsc->shadow_ofs_x != 0 || dsc->shadow_ofs_y != 0) simple_mode = false;
 1020              		.loc 1 622 0
 1021 01e0 FFF7FEFF 		bl	lv_draw_mask_get_cnt
 1022              	.LVL147:
 1023 01e4 30B9     		cbnz	r0, .L145
 623:lvgl\src\lv_draw/lv_draw_rect.c ****     else if(dsc->shadow_spread != 0) simple_mode = false;
 1024              		.loc 1 623 0
 1025 01e6 6B6A     		ldr	r3, [r5, #36]
 1026 01e8 33B9     		cbnz	r3, .L146
 624:lvgl\src\lv_draw/lv_draw_rect.c **** 
 1027              		.loc 1 624 0
 1028 01ea B5F92830 		ldrsh	r3, [r5, #40]
 1029 01ee 2BB9     		cbnz	r3, .L147
 621:lvgl\src\lv_draw/lv_draw_rect.c ****     if(lv_draw_mask_get_cnt() > 0) simple_mode = false;
 1030              		.loc 1 621 0
 1031 01f0 0126     		movs	r6, #1
 1032              	.LVL148:
 1033 01f2 04E0     		b	.L69
 1034              	.LVL149:
 1035              	.L145:
 622:lvgl\src\lv_draw/lv_draw_rect.c ****     else if(dsc->shadow_ofs_x != 0 || dsc->shadow_ofs_y != 0) simple_mode = false;
 1036              		.loc 1 622 0
 1037 01f4 0026     		movs	r6, #0
 1038              	.LVL150:
 1039 01f6 02E0     		b	.L69
 1040              	.LVL151:
 1041              	.L146:
 623:lvgl\src\lv_draw/lv_draw_rect.c ****     else if(dsc->shadow_spread != 0) simple_mode = false;
 1042              		.loc 1 623 0
 1043 01f8 0026     		movs	r6, #0
 1044              	.LVL152:
 1045 01fa 00E0     		b	.L69
 1046              	.LVL153:
 1047              	.L147:
 624:lvgl\src\lv_draw/lv_draw_rect.c **** 
 1048              		.loc 1 624 0
 1049 01fc 0026     		movs	r6, #0
 1050              	.LVL154:
 1051              	.L69:
 1052              	.LBB244:
 1053              	.LBB245:
 112:lvgl\src\lv_draw\../lv_core/../lv_font/../lv_misc/lv_area.h **** }
 1054              		.loc 3 112 0
 1055 01fe BDF98C30 		ldrsh	r3, [sp, #140]
 1056 0202 BDF98800 		ldrsh	r0, [sp, #136]
 1057 0206 181A     		subs	r0, r3, r0
 1058 0208 0130     		adds	r0, r0, #1
 1059              	.LVL155:
 1060              	.LBE245:
 1061              	.LBE244:
 628:lvgl\src\lv_draw/lv_draw_rect.c **** 
ARM GAS  C:\Users\strap\AppData\Local\Temp\ccsTbppz.s 			page 48


 1062              		.loc 1 628 0
 1063 020a 00B2     		sxth	r0, r0
 1064 020c FFF7FEFF 		bl	_lv_mem_buf_get
 1065              	.LVL156:
 1066 0210 0590     		str	r0, [sp, #20]
 1067              	.LVL157:
 631:lvgl\src\lv_draw/lv_draw_rect.c **** 
 1068              		.loc 1 631 0
 1069 0212 3BB2     		sxth	r3, r7
 1070 0214 1A46     		mov	r2, r3
 1071 0216 0893     		str	r3, [sp, #32]
 1072 0218 0123     		movs	r3, #1
 1073 021a 1EA9     		add	r1, sp, #120
 1074 021c 17A8     		add	r0, sp, #92
 1075              	.LVL158:
 1076 021e FFF7FEFF 		bl	lv_draw_mask_radius_init
 1077              	.LVL159:
 633:lvgl\src\lv_draw/lv_draw_rect.c **** 
 1078              		.loc 1 633 0
 1079 0222 0021     		movs	r1, #0
 1080 0224 17A8     		add	r0, sp, #92
 1081 0226 FFF7FEFF 		bl	lv_draw_mask_add
 1082              	.LVL160:
 1083 022a 0B90     		str	r0, [sp, #44]
 1084              	.LVL161:
 640:lvgl\src\lv_draw/lv_draw_rect.c ****     a.x1 = a.x2 - corner_size + 1;
 1085              		.loc 1 640 0
 1086 022c BDF98C30 		ldrsh	r3, [sp, #140]
 1087 0230 ADF85830 		strh	r3, [sp, #88]	@ movhi
 641:lvgl\src\lv_draw/lv_draw_rect.c ****     a.y1 = sh_area.y1;
 1088              		.loc 1 641 0
 1089 0234 A7B2     		uxth	r7, r4
 1090              	.LVL162:
 1091 0236 DB1B     		subs	r3, r3, r7
 1092 0238 0133     		adds	r3, r3, #1
 1093 023a ADF85430 		strh	r3, [sp, #84]	@ movhi
 642:lvgl\src\lv_draw/lv_draw_rect.c ****     a.y2 = a.y1 + corner_size - 1;
 1094              		.loc 1 642 0
 1095 023e BDF98A30 		ldrsh	r3, [sp, #138]
 1096 0242 ADF85630 		strh	r3, [sp, #86]	@ movhi
 643:lvgl\src\lv_draw/lv_draw_rect.c **** 
 1097              		.loc 1 643 0
 1098 0246 3B44     		add	r3, r3, r7
 1099 0248 013B     		subs	r3, r3, #1
 1100 024a ADF85A30 		strh	r3, [sp, #90]	@ movhi
 646:lvgl\src\lv_draw/lv_draw_rect.c ****     if(has_com && _lv_area_is_in(&a, &bg_coords, r_bg) == false) {
 1101              		.loc 1 646 0
 1102 024e 069A     		ldr	r2, [sp, #24]
 1103 0250 15A9     		add	r1, sp, #84
 1104 0252 13A8     		add	r0, sp, #76
 1105 0254 FFF7FEFF 		bl	_lv_area_intersect
 1106              	.LVL163:
 647:lvgl\src\lv_draw/lv_draw_rect.c ****         /*Avoid overlap in the middle with large radius*/
 1107              		.loc 1 647 0
 1108 0258 0028     		cmp	r0, #0
 1109 025a 78D0     		beq	.L70
 647:lvgl\src\lv_draw/lv_draw_rect.c ****         /*Avoid overlap in the middle with large radius*/
ARM GAS  C:\Users\strap\AppData\Local\Temp\ccsTbppz.s 			page 49


 1110              		.loc 1 647 0 is_stmt 0 discriminator 1
 1111 025c 089A     		ldr	r2, [sp, #32]
 1112 025e 1EA9     		add	r1, sp, #120
 1113 0260 15A8     		add	r0, sp, #84
 1114              	.LVL164:
 1115 0262 FFF7FEFF 		bl	_lv_area_is_in
 1116              	.LVL165:
 1117 0266 0028     		cmp	r0, #0
 1118 0268 71D1     		bne	.L70
 1119              	.LBB246:
 649:lvgl\src\lv_draw/lv_draw_rect.c ****         if(ca.x1 <= w_half) ca.x1 = w_half + 1;
 1120              		.loc 1 649 0 is_stmt 1
 1121 026a BDF95230 		ldrsh	r3, [sp, #82]
 1122 026e 9B45     		cmp	fp, r3
 1123 0270 01DA     		bge	.L71
 649:lvgl\src\lv_draw/lv_draw_rect.c ****         if(ca.x1 <= w_half) ca.x1 = w_half + 1;
 1124              		.loc 1 649 0 is_stmt 0 discriminator 1
 1125 0272 ADF852B0 		strh	fp, [sp, #82]	@ movhi
 1126              	.L71:
 650:lvgl\src\lv_draw/lv_draw_rect.c **** 
 1127              		.loc 1 650 0 is_stmt 1
 1128 0276 BDF94C30 		ldrsh	r3, [sp, #76]
 1129 027a 0C9A     		ldr	r2, [sp, #48]
 1130 027c 9A42     		cmp	r2, r3
 1131 027e 03DB     		blt	.L72
 650:lvgl\src\lv_draw/lv_draw_rect.c **** 
 1132              		.loc 1 650 0 is_stmt 0 discriminator 1
 1133 0280 0E9B     		ldr	r3, [sp, #56]
 1134 0282 0133     		adds	r3, r3, #1
 1135 0284 ADF84C30 		strh	r3, [sp, #76]	@ movhi
 1136              	.L72:
 1137              	.LVL166:
 1138              	.LBB247:
 1139              	.LBB248:
 1140              		.loc 3 122 0 is_stmt 1
 1141 0288 BDF95220 		ldrsh	r2, [sp, #82]
 1142 028c BDF94E30 		ldrsh	r3, [sp, #78]
 1143 0290 D21A     		subs	r2, r2, r3
 1144 0292 0132     		adds	r2, r2, #1
 1145 0294 12B2     		sxth	r2, r2
 1146 0296 9646     		mov	lr, r2
 1147              	.LVL167:
 1148              	.LBE248:
 1149              	.LBE247:
 1150              	.LBB249:
 1151              	.LBB250:
 112:lvgl\src\lv_draw\../lv_core/../lv_font/../lv_misc/lv_area.h **** }
 1152              		.loc 3 112 0
 1153 0298 BDF95020 		ldrsh	r2, [sp, #80]
 1154 029c BDF94C10 		ldrsh	r1, [sp, #76]
 1155 02a0 521A     		subs	r2, r2, r1
 1156 02a2 0132     		adds	r2, r2, #1
 1157 02a4 12B2     		sxth	r2, r2
 1158 02a6 0A92     		str	r2, [sp, #40]
 1159              	.LVL168:
 1160              	.LBE250:
 1161              	.LBE249:
ARM GAS  C:\Users\strap\AppData\Local\Temp\ccsTbppz.s 			page 50


 654:lvgl\src\lv_draw/lv_draw_rect.c ****             sh_buf_tmp = sh_buf + (ca.x1 - a.x1);
 1162              		.loc 1 654 0
 1163 02a8 002A     		cmp	r2, #0
 1164 02aa 50DD     		ble	.L70
 1165              	.LBB251:
 655:lvgl\src\lv_draw/lv_draw_rect.c ****             sh_buf_tmp += corner_size * (ca.y1 - a.y1);
 1166              		.loc 1 655 0
 1167 02ac BDF95490 		ldrsh	r9, [sp, #84]
 1168              	.LVL169:
 1169 02b0 C9EB0101 		rsb	r1, r9, r1
 1170              	.LVL170:
 656:lvgl\src\lv_draw/lv_draw_rect.c **** 
 1171              		.loc 1 656 0
 1172 02b4 BDF95690 		ldrsh	r9, [sp, #86]
 1173 02b8 C9EB0303 		rsb	r3, r9, r3
 1174 02bc 03FB0419 		mla	r9, r3, r4, r1
 1175 02c0 079B     		ldr	r3, [sp, #28]
 1176 02c2 9944     		add	r9, r9, r3
 1177              	.LVL171:
 1178              	.LBB252:
 1179              	.LBB253:
 1180              	.LBB254:
 217:lvgl\src\lv_draw\../lv_core/../lv_font/../lv_misc/lv_mem.h **** 
 1181              		.loc 2 217 0
 1182 02c4 13A9     		add	r1, sp, #76
 1183              	.LVL172:
 216:lvgl\src\lv_draw\../lv_core/../lv_font/../lv_misc/lv_mem.h ****     const uint8_t * s8 = (const uint8_t *)src;
 1184              		.loc 2 216 0
 1185 02c6 11AA     		add	r2, sp, #68
 1186              	.LVL173:
 1187              	.LBE254:
 1188              	.LBE253:
 1189              	.LBE252:
 656:lvgl\src\lv_draw/lv_draw_rect.c **** 
 1190              		.loc 1 656 0
 1191 02c8 0823     		movs	r3, #8
 1192 02ca 04E0     		b	.L73
 1193              	.LVL174:
 1194              	.L74:
 1195              	.LBB257:
 1196              	.LBB256:
 1197              	.LBB255:
 220:lvgl\src\lv_draw\../lv_core/../lv_font/../lv_misc/lv_mem.h ****         d8++;
 1198              		.loc 2 220 0
 1199 02cc 11F8010B 		ldrb	r0, [r1], #1	@ zero_extendqisi2
 1200              	.LVL175:
 1201 02d0 02F8010B 		strb	r0, [r2], #1
 1202              	.LVL176:
 1203              		.loc 2 223 0
 1204 02d4 013B     		subs	r3, r3, #1
 1205              	.LVL177:
 1206              	.L73:
 219:lvgl\src\lv_draw\../lv_core/../lv_font/../lv_misc/lv_mem.h ****         *d8 = *s8;
 1207              		.loc 2 219 0
 1208 02d6 002B     		cmp	r3, #0
 1209 02d8 F8D1     		bne	.L74
 1210              	.LVL178:
ARM GAS  C:\Users\strap\AppData\Local\Temp\ccsTbppz.s 			page 51


 1211              	.LBE255:
 1212              	.LBE256:
 1213              	.LBE257:
 660:lvgl\src\lv_draw/lv_draw_rect.c **** 
 1214              		.loc 1 660 0
 1215 02da BDF94630 		ldrsh	r3, [sp, #70]
 1216 02de ADF84A30 		strh	r3, [sp, #74]	@ movhi
 1217              	.LVL179:
 662:lvgl\src\lv_draw/lv_draw_rect.c ****                 _lv_memcpy(mask_buf, sh_buf_tmp, w);
 1218              		.loc 1 662 0
 1219 02e2 4FF0000A 		mov	r10, #0
 1220 02e6 0F96     		str	r6, [sp, #60]
 1221 02e8 2346     		mov	r3, r4
 1222 02ea 4446     		mov	r4, r8
 1223              	.LVL180:
 1224 02ec 7646     		mov	r6, lr
 1225              	.LVL181:
 1226 02ee 9846     		mov	r8, r3
 1227              	.LVL182:
 1228 02f0 27E0     		b	.L75
 1229              	.LVL183:
 1230              	.L77:
 663:lvgl\src\lv_draw/lv_draw_rect.c ****                 mask_res = lv_draw_mask_apply(mask_buf, fa.x1, fa.y1, w);
 1231              		.loc 1 663 0
 1232 02f2 0A9A     		ldr	r2, [sp, #40]
 1233 02f4 4946     		mov	r1, r9
 1234 02f6 0598     		ldr	r0, [sp, #20]
 1235 02f8 FFF7FEFF 		bl	_lv_memcpy
 1236              	.LVL184:
 664:lvgl\src\lv_draw/lv_draw_rect.c ****                 if(mask_res == LV_DRAW_MASK_RES_FULL_COVER) mask_res = LV_DRAW_MASK_RES_CHANGED;
 1237              		.loc 1 664 0
 1238 02fc 0A9B     		ldr	r3, [sp, #40]
 1239 02fe BDF94620 		ldrsh	r2, [sp, #70]
 1240 0302 BDF94410 		ldrsh	r1, [sp, #68]
 1241 0306 0598     		ldr	r0, [sp, #20]
 1242 0308 FFF7FEFF 		bl	lv_draw_mask_apply
 1243              	.LVL185:
 665:lvgl\src\lv_draw/lv_draw_rect.c **** 
 1244              		.loc 1 665 0
 1245 030c 0128     		cmp	r0, #1
 1246 030e 00D1     		bne	.L76
 1247 0310 0220     		movs	r0, #2
 1248              	.LVL186:
 1249              	.L76:
 667:lvgl\src\lv_draw/lv_draw_rect.c ****                                mask_res, opa, dsc->shadow_blend_mode);
 1250              		.loc 1 667 0 discriminator 2
 1251 0312 95F82B30 		ldrb	r3, [r5, #43]	@ zero_extendqisi2
 1252 0316 0293     		str	r3, [sp, #8]
 1253 0318 0194     		str	r4, [sp, #4]
 1254 031a 0090     		str	r0, [sp]
 1255 031c 059B     		ldr	r3, [sp, #20]
 1256 031e 2A8C     		ldrh	r2, [r5, #32]
 1257 0320 11A9     		add	r1, sp, #68
 1258 0322 0698     		ldr	r0, [sp, #24]
 1259              	.LVL187:
 1260 0324 FFF7FEFF 		bl	_lv_blend_fill
 1261              	.LVL188:
ARM GAS  C:\Users\strap\AppData\Local\Temp\ccsTbppz.s 			page 52


 669:lvgl\src\lv_draw/lv_draw_rect.c ****                 fa.y2++;
 1262              		.loc 1 669 0 discriminator 2
 1263 0328 BDF94630 		ldrsh	r3, [sp, #70]
 1264 032c 0133     		adds	r3, r3, #1
 1265 032e ADF84630 		strh	r3, [sp, #70]	@ movhi
 670:lvgl\src\lv_draw/lv_draw_rect.c ****                 sh_buf_tmp += corner_size;
 1266              		.loc 1 670 0 discriminator 2
 1267 0332 BDF94A30 		ldrsh	r3, [sp, #74]
 1268 0336 0133     		adds	r3, r3, #1
 1269 0338 ADF84A30 		strh	r3, [sp, #74]	@ movhi
 671:lvgl\src\lv_draw/lv_draw_rect.c ****             }
 1270              		.loc 1 671 0 discriminator 2
 1271 033c C144     		add	r9, r9, r8
 1272              	.LVL189:
 662:lvgl\src\lv_draw/lv_draw_rect.c ****                 _lv_memcpy(mask_buf, sh_buf_tmp, w);
 1273              		.loc 1 662 0 discriminator 2
 1274 033e 0AF1010A 		add	r10, r10, #1
 1275              	.LVL190:
 1276              	.L75:
 662:lvgl\src\lv_draw/lv_draw_rect.c ****                 _lv_memcpy(mask_buf, sh_buf_tmp, w);
 1277              		.loc 1 662 0 is_stmt 0 discriminator 1
 1278 0342 B245     		cmp	r10, r6
 1279 0344 D5DB     		blt	.L77
 1280 0346 0F9E     		ldr	r6, [sp, #60]
 1281 0348 4346     		mov	r3, r8
 1282 034a A046     		mov	r8, r4
 1283              	.LVL191:
 1284 034c 1C46     		mov	r4, r3
 1285              	.LVL192:
 1286              	.L70:
 1287              	.LBE251:
 1288              	.LBE246:
 677:lvgl\src\lv_draw/lv_draw_rect.c ****     a.x1 = a.x2 - corner_size + 1;
 1289              		.loc 1 677 0 is_stmt 1
 1290 034e BDF98C30 		ldrsh	r3, [sp, #140]
 1291 0352 ADF85830 		strh	r3, [sp, #88]	@ movhi
 678:lvgl\src\lv_draw/lv_draw_rect.c ****     a.y1 = sh_area.y2 - corner_size + 1;
 1292              		.loc 1 678 0
 1293 0356 DB1B     		subs	r3, r3, r7
 1294 0358 0133     		adds	r3, r3, #1
 1295 035a ADF85430 		strh	r3, [sp, #84]	@ movhi
 679:lvgl\src\lv_draw/lv_draw_rect.c ****     a.y2 = sh_area.y2;
 1296              		.loc 1 679 0
 1297 035e BDF98E20 		ldrsh	r2, [sp, #142]
 1298 0362 D31B     		subs	r3, r2, r7
 1299 0364 0133     		adds	r3, r3, #1
 1300 0366 ADF85630 		strh	r3, [sp, #86]	@ movhi
 680:lvgl\src\lv_draw/lv_draw_rect.c **** 
 1301              		.loc 1 680 0
 1302 036a ADF85A20 		strh	r2, [sp, #90]	@ movhi
 682:lvgl\src\lv_draw/lv_draw_rect.c ****     if(has_com && _lv_area_is_in(&a, &bg_coords, r_bg) == false) {
 1303              		.loc 1 682 0
 1304 036e 069A     		ldr	r2, [sp, #24]
 1305 0370 15A9     		add	r1, sp, #84
 1306 0372 13A8     		add	r0, sp, #76
 1307 0374 FFF7FEFF 		bl	_lv_area_intersect
 1308              	.LVL193:
ARM GAS  C:\Users\strap\AppData\Local\Temp\ccsTbppz.s 			page 53


 683:lvgl\src\lv_draw/lv_draw_rect.c ****         /*Avoid overlap in the middle with large radius*/
 1309              		.loc 1 683 0
 1310 0378 0028     		cmp	r0, #0
 1311 037a 79D0     		beq	.L78
 683:lvgl\src\lv_draw/lv_draw_rect.c ****         /*Avoid overlap in the middle with large radius*/
 1312              		.loc 1 683 0 is_stmt 0 discriminator 1
 1313 037c 089A     		ldr	r2, [sp, #32]
 1314 037e 1EA9     		add	r1, sp, #120
 1315 0380 15A8     		add	r0, sp, #84
 1316              	.LVL194:
 1317 0382 FFF7FEFF 		bl	_lv_area_is_in
 1318              	.LVL195:
 1319 0386 0028     		cmp	r0, #0
 1320 0388 72D1     		bne	.L78
 1321              	.LBB258:
 685:lvgl\src\lv_draw/lv_draw_rect.c ****         if(ca.x1 <= w_half) ca.x1 = w_half + 1;
 1322              		.loc 1 685 0 is_stmt 1
 1323 038a BDF94E30 		ldrsh	r3, [sp, #78]
 1324 038e 9B45     		cmp	fp, r3
 1325 0390 03DB     		blt	.L79
 685:lvgl\src\lv_draw/lv_draw_rect.c ****         if(ca.x1 <= w_half) ca.x1 = w_half + 1;
 1326              		.loc 1 685 0 is_stmt 0 discriminator 1
 1327 0392 0D9B     		ldr	r3, [sp, #52]
 1328 0394 0133     		adds	r3, r3, #1
 1329 0396 ADF84E30 		strh	r3, [sp, #78]	@ movhi
 1330              	.L79:
 686:lvgl\src\lv_draw/lv_draw_rect.c **** 
 1331              		.loc 1 686 0 is_stmt 1
 1332 039a BDF94C30 		ldrsh	r3, [sp, #76]
 1333 039e 0C9A     		ldr	r2, [sp, #48]
 1334 03a0 9A42     		cmp	r2, r3
 1335 03a2 03DB     		blt	.L80
 686:lvgl\src\lv_draw/lv_draw_rect.c **** 
 1336              		.loc 1 686 0 is_stmt 0 discriminator 1
 1337 03a4 0E9B     		ldr	r3, [sp, #56]
 1338 03a6 0133     		adds	r3, r3, #1
 1339 03a8 ADF84C30 		strh	r3, [sp, #76]	@ movhi
 1340              	.L80:
 1341              	.LVL196:
 1342              	.LBB259:
 1343              	.LBB260:
 1344              		.loc 3 122 0 is_stmt 1
 1345 03ac BDF95210 		ldrsh	r1, [sp, #82]
 1346 03b0 BDF94E20 		ldrsh	r2, [sp, #78]
 1347 03b4 8A1A     		subs	r2, r1, r2
 1348 03b6 0132     		adds	r2, r2, #1
 1349 03b8 13B2     		sxth	r3, r2
 1350 03ba 9E46     		mov	lr, r3
 1351              	.LVL197:
 1352              	.LBE260:
 1353              	.LBE259:
 1354              	.LBB261:
 1355              	.LBB262:
 112:lvgl\src\lv_draw\../lv_core/../lv_font/../lv_misc/lv_area.h **** }
 1356              		.loc 3 112 0
 1357 03bc BDF95020 		ldrsh	r2, [sp, #80]
 1358 03c0 BDF94C30 		ldrsh	r3, [sp, #76]
ARM GAS  C:\Users\strap\AppData\Local\Temp\ccsTbppz.s 			page 54


 1359 03c4 D21A     		subs	r2, r2, r3
 1360 03c6 0132     		adds	r2, r2, #1
 1361 03c8 12B2     		sxth	r2, r2
 1362 03ca 0A92     		str	r2, [sp, #40]
 1363              	.LVL198:
 1364              	.LBE262:
 1365              	.LBE261:
 691:lvgl\src\lv_draw/lv_draw_rect.c ****             sh_buf_tmp = sh_buf + (ca.x1 - a.x1);
 1366              		.loc 1 691 0
 1367 03cc 002A     		cmp	r2, #0
 1368 03ce 4FDD     		ble	.L78
 1369              	.LBB263:
 692:lvgl\src\lv_draw/lv_draw_rect.c ****             sh_buf_tmp += corner_size * (a.y2 - ca.y2);
 1370              		.loc 1 692 0
 1371 03d0 BDF95490 		ldrsh	r9, [sp, #84]
 1372 03d4 C9EB0309 		rsb	r9, r9, r3
 1373              	.LVL199:
 693:lvgl\src\lv_draw/lv_draw_rect.c **** 
 1374              		.loc 1 693 0
 1375 03d8 BDF95A30 		ldrsh	r3, [sp, #90]
 1376 03dc 5B1A     		subs	r3, r3, r1
 1377 03de 03FB0499 		mla	r9, r3, r4, r9
 1378              	.LVL200:
 1379 03e2 079B     		ldr	r3, [sp, #28]
 1380 03e4 9944     		add	r9, r9, r3
 1381              	.LVL201:
 1382              	.LBB264:
 1383              	.LBB265:
 1384              	.LBB266:
 217:lvgl\src\lv_draw\../lv_core/../lv_font/../lv_misc/lv_mem.h **** 
 1385              		.loc 2 217 0
 1386 03e6 13A9     		add	r1, sp, #76
 1387              	.LVL202:
 216:lvgl\src\lv_draw\../lv_core/../lv_font/../lv_misc/lv_mem.h ****     const uint8_t * s8 = (const uint8_t *)src;
 1388              		.loc 2 216 0
 1389 03e8 11AA     		add	r2, sp, #68
 1390              	.LVL203:
 1391              	.LBE266:
 1392              	.LBE265:
 1393              	.LBE264:
 693:lvgl\src\lv_draw/lv_draw_rect.c **** 
 1394              		.loc 1 693 0
 1395 03ea 0823     		movs	r3, #8
 1396 03ec 04E0     		b	.L81
 1397              	.LVL204:
 1398              	.L82:
 1399              	.LBB269:
 1400              	.LBB268:
 1401              	.LBB267:
 220:lvgl\src\lv_draw\../lv_core/../lv_font/../lv_misc/lv_mem.h ****         d8++;
 1402              		.loc 2 220 0
 1403 03ee 11F8010B 		ldrb	r0, [r1], #1	@ zero_extendqisi2
 1404              	.LVL205:
 1405 03f2 02F8010B 		strb	r0, [r2], #1
 1406              	.LVL206:
 1407              		.loc 2 223 0
 1408 03f6 013B     		subs	r3, r3, #1
ARM GAS  C:\Users\strap\AppData\Local\Temp\ccsTbppz.s 			page 55


 1409              	.LVL207:
 1410              	.L81:
 219:lvgl\src\lv_draw\../lv_core/../lv_font/../lv_misc/lv_mem.h ****         *d8 = *s8;
 1411              		.loc 2 219 0
 1412 03f8 002B     		cmp	r3, #0
 1413 03fa F8D1     		bne	.L82
 1414              	.LVL208:
 1415              	.LBE267:
 1416              	.LBE268:
 1417              	.LBE269:
 697:lvgl\src\lv_draw/lv_draw_rect.c **** 
 1418              		.loc 1 697 0
 1419 03fc BDF94A30 		ldrsh	r3, [sp, #74]
 1420 0400 ADF84630 		strh	r3, [sp, #70]	@ movhi
 1421              	.LVL209:
 699:lvgl\src\lv_draw/lv_draw_rect.c ****                 _lv_memcpy(mask_buf, sh_buf_tmp, w);
 1422              		.loc 1 699 0
 1423 0404 4FF0000A 		mov	r10, #0
 1424 0408 0E96     		str	r6, [sp, #56]
 1425 040a 2346     		mov	r3, r4
 1426 040c 4446     		mov	r4, r8
 1427              	.LVL210:
 1428 040e 7646     		mov	r6, lr
 1429 0410 9846     		mov	r8, r3
 1430 0412 27E0     		b	.L83
 1431              	.LVL211:
 1432              	.L85:
 700:lvgl\src\lv_draw/lv_draw_rect.c ****                 mask_res = lv_draw_mask_apply(mask_buf, fa.x1, fa.y1, w);
 1433              		.loc 1 700 0
 1434 0414 0A9A     		ldr	r2, [sp, #40]
 1435 0416 4946     		mov	r1, r9
 1436 0418 0598     		ldr	r0, [sp, #20]
 1437 041a FFF7FEFF 		bl	_lv_memcpy
 1438              	.LVL212:
 701:lvgl\src\lv_draw/lv_draw_rect.c ****                 if(mask_res == LV_DRAW_MASK_RES_FULL_COVER) mask_res = LV_DRAW_MASK_RES_CHANGED;
 1439              		.loc 1 701 0
 1440 041e 0A9B     		ldr	r3, [sp, #40]
 1441 0420 BDF94620 		ldrsh	r2, [sp, #70]
 1442 0424 BDF94410 		ldrsh	r1, [sp, #68]
 1443 0428 0598     		ldr	r0, [sp, #20]
 1444 042a FFF7FEFF 		bl	lv_draw_mask_apply
 1445              	.LVL213:
 702:lvgl\src\lv_draw/lv_draw_rect.c **** 
 1446              		.loc 1 702 0
 1447 042e 0128     		cmp	r0, #1
 1448 0430 00D1     		bne	.L84
 1449 0432 0220     		movs	r0, #2
 1450              	.LVL214:
 1451              	.L84:
 704:lvgl\src\lv_draw/lv_draw_rect.c ****                                mask_res, opa, dsc->shadow_blend_mode);
 1452              		.loc 1 704 0 discriminator 2
 1453 0434 95F82B30 		ldrb	r3, [r5, #43]	@ zero_extendqisi2
 1454 0438 0293     		str	r3, [sp, #8]
 1455 043a 0194     		str	r4, [sp, #4]
 1456 043c 0090     		str	r0, [sp]
 1457 043e 059B     		ldr	r3, [sp, #20]
 1458 0440 2A8C     		ldrh	r2, [r5, #32]
ARM GAS  C:\Users\strap\AppData\Local\Temp\ccsTbppz.s 			page 56


 1459 0442 11A9     		add	r1, sp, #68
 1460 0444 0698     		ldr	r0, [sp, #24]
 1461              	.LVL215:
 1462 0446 FFF7FEFF 		bl	_lv_blend_fill
 1463              	.LVL216:
 706:lvgl\src\lv_draw/lv_draw_rect.c ****                 fa.y2--;
 1464              		.loc 1 706 0 discriminator 2
 1465 044a BDF94630 		ldrsh	r3, [sp, #70]
 1466 044e 013B     		subs	r3, r3, #1
 1467 0450 ADF84630 		strh	r3, [sp, #70]	@ movhi
 707:lvgl\src\lv_draw/lv_draw_rect.c ****                 sh_buf_tmp += corner_size;
 1468              		.loc 1 707 0 discriminator 2
 1469 0454 BDF94A30 		ldrsh	r3, [sp, #74]
 1470 0458 013B     		subs	r3, r3, #1
 1471 045a ADF84A30 		strh	r3, [sp, #74]	@ movhi
 708:lvgl\src\lv_draw/lv_draw_rect.c ****             }
 1472              		.loc 1 708 0 discriminator 2
 1473 045e C144     		add	r9, r9, r8
 1474              	.LVL217:
 699:lvgl\src\lv_draw/lv_draw_rect.c ****                 _lv_memcpy(mask_buf, sh_buf_tmp, w);
 1475              		.loc 1 699 0 discriminator 2
 1476 0460 0AF1010A 		add	r10, r10, #1
 1477              	.LVL218:
 1478              	.L83:
 699:lvgl\src\lv_draw/lv_draw_rect.c ****                 _lv_memcpy(mask_buf, sh_buf_tmp, w);
 1479              		.loc 1 699 0 is_stmt 0 discriminator 1
 1480 0464 B245     		cmp	r10, r6
 1481 0466 D5DB     		blt	.L85
 1482 0468 0E9E     		ldr	r6, [sp, #56]
 1483 046a 4346     		mov	r3, r8
 1484 046c A046     		mov	r8, r4
 1485              	.LVL219:
 1486 046e 1C46     		mov	r4, r3
 1487              	.LVL220:
 1488              	.L78:
 1489              	.LBE263:
 1490              	.LBE258:
 714:lvgl\src\lv_draw/lv_draw_rect.c ****     a.x1 = a.x2 - corner_size + 1;
 1491              		.loc 1 714 0 is_stmt 1
 1492 0470 BDF98C30 		ldrsh	r3, [sp, #140]
 1493 0474 ADF85830 		strh	r3, [sp, #88]	@ movhi
 715:lvgl\src\lv_draw/lv_draw_rect.c ****     a.y1 = sh_area.y1 + corner_size;
 1494              		.loc 1 715 0
 1495 0478 DB1B     		subs	r3, r3, r7
 1496 047a 0133     		adds	r3, r3, #1
 1497 047c ADF85430 		strh	r3, [sp, #84]	@ movhi
 716:lvgl\src\lv_draw/lv_draw_rect.c ****     a.y2 = sh_area.y2 - corner_size;
 1498              		.loc 1 716 0
 1499 0480 BDF98A30 		ldrsh	r3, [sp, #138]
 1500 0484 3B44     		add	r3, r3, r7
 1501 0486 ADF85630 		strh	r3, [sp, #86]	@ movhi
 717:lvgl\src\lv_draw/lv_draw_rect.c **** 
 1502              		.loc 1 717 0
 1503 048a BDF98E30 		ldrsh	r3, [sp, #142]
 1504 048e DB1B     		subs	r3, r3, r7
 1505 0490 ADF85A30 		strh	r3, [sp, #90]	@ movhi
 719:lvgl\src\lv_draw/lv_draw_rect.c ****     if(has_com && _lv_area_is_in(&a, &bg_coords, r_bg) == false) {
ARM GAS  C:\Users\strap\AppData\Local\Temp\ccsTbppz.s 			page 57


 1506              		.loc 1 719 0
 1507 0494 069A     		ldr	r2, [sp, #24]
 1508 0496 15A9     		add	r1, sp, #84
 1509 0498 13A8     		add	r0, sp, #76
 1510 049a FFF7FEFF 		bl	_lv_area_intersect
 1511              	.LVL221:
 720:lvgl\src\lv_draw/lv_draw_rect.c ****         if(simple_mode) ca.x1 = LV_MATH_MAX(ca.x1, coords->x2);
 1512              		.loc 1 720 0
 1513 049e 0028     		cmp	r0, #0
 1514 04a0 6FD0     		beq	.L86
 720:lvgl\src\lv_draw/lv_draw_rect.c ****         if(simple_mode) ca.x1 = LV_MATH_MAX(ca.x1, coords->x2);
 1515              		.loc 1 720 0 is_stmt 0 discriminator 1
 1516 04a2 089A     		ldr	r2, [sp, #32]
 1517 04a4 1EA9     		add	r1, sp, #120
 1518 04a6 15A8     		add	r0, sp, #84
 1519              	.LVL222:
 1520 04a8 FFF7FEFF 		bl	_lv_area_is_in
 1521              	.LVL223:
 1522 04ac 0028     		cmp	r0, #0
 1523 04ae 68D1     		bne	.L86
 1524              	.LBB270:
 721:lvgl\src\lv_draw/lv_draw_rect.c ****         /*Draw horizontal lines*/
 1525              		.loc 1 721 0 is_stmt 1
 1526 04b0 4EB1     		cbz	r6, .L87
 721:lvgl\src\lv_draw/lv_draw_rect.c ****         /*Draw horizontal lines*/
 1527              		.loc 1 721 0 is_stmt 0 discriminator 1
 1528 04b2 099B     		ldr	r3, [sp, #36]
 1529 04b4 B3F90420 		ldrsh	r2, [r3, #4]
 1530 04b8 BDF94C30 		ldrsh	r3, [sp, #76]
 1531 04bc 9342     		cmp	r3, r2
 1532 04be B8BF     		it	lt
 1533 04c0 1346     		movlt	r3, r2
 1534 04c2 ADF84C30 		strh	r3, [sp, #76]	@ movhi
 1535              	.L87:
 1536              	.LVL224:
 1537              	.LBB271:
 1538              	.LBB272:
 112:lvgl\src\lv_draw\../lv_core/../lv_font/../lv_misc/lv_area.h **** }
 1539              		.loc 3 112 0 is_stmt 1
 1540 04c6 BDF95030 		ldrsh	r3, [sp, #80]
 1541 04ca BDF94C20 		ldrsh	r2, [sp, #76]
 1542 04ce 9B1A     		subs	r3, r3, r2
 1543 04d0 0133     		adds	r3, r3, #1
 1544 04d2 1BB2     		sxth	r3, r3
 1545 04d4 0A93     		str	r3, [sp, #40]
 1546              	.LVL225:
 1547              	.LBE272:
 1548              	.LBE271:
 724:lvgl\src\lv_draw/lv_draw_rect.c ****             lv_coord_t h = lv_area_get_height(&ca);
 1549              		.loc 1 724 0
 1550 04d6 002B     		cmp	r3, #0
 1551 04d8 53DD     		ble	.L86
 1552              	.LVL226:
 1553              	.LBB273:
 1554              	.LBB274:
 1555              	.LBB275:
 1556              		.loc 3 122 0
ARM GAS  C:\Users\strap\AppData\Local\Temp\ccsTbppz.s 			page 58


 1557 04da BDF95230 		ldrsh	r3, [sp, #82]
 1558 04de BDF94EA0 		ldrsh	r10, [sp, #78]
 1559 04e2 CAEB030A 		rsb	r10, r10, r3
 1560 04e6 0AF1010A 		add	r10, r10, #1
 1561 04ea 0FFA8AFA 		sxth	r10, r10
 1562              	.LVL227:
 1563              	.LBE275:
 1564              	.LBE274:
 728:lvgl\src\lv_draw/lv_draw_rect.c ****             sh_buf_tmp += ca.x1 - a.x1;
 1565              		.loc 1 728 0
 1566 04ee 631E     		subs	r3, r4, #1
 729:lvgl\src\lv_draw/lv_draw_rect.c **** 
 1567              		.loc 1 729 0
 1568 04f0 BDF95410 		ldrsh	r1, [sp, #84]
 1569 04f4 521A     		subs	r2, r2, r1
 1570 04f6 03FB0423 		mla	r3, r3, r4, r2
 1571 04fa 079A     		ldr	r2, [sp, #28]
 1572 04fc D318     		adds	r3, r2, r3
 1573 04fe 0E93     		str	r3, [sp, #56]
 1574              	.LVL228:
 1575              	.LBB276:
 1576              	.LBB277:
 1577              	.LBB278:
 217:lvgl\src\lv_draw\../lv_core/../lv_font/../lv_misc/lv_mem.h **** 
 1578              		.loc 2 217 0
 1579 0500 13A9     		add	r1, sp, #76
 1580              	.LVL229:
 216:lvgl\src\lv_draw\../lv_core/../lv_font/../lv_misc/lv_mem.h ****     const uint8_t * s8 = (const uint8_t *)src;
 1581              		.loc 2 216 0
 1582 0502 11AA     		add	r2, sp, #68
 1583              	.LVL230:
 1584              	.LBE278:
 1585              	.LBE277:
 1586              	.LBE276:
 729:lvgl\src\lv_draw/lv_draw_rect.c **** 
 1587              		.loc 1 729 0
 1588 0504 0823     		movs	r3, #8
 1589              	.LVL231:
 1590 0506 04E0     		b	.L88
 1591              	.LVL232:
 1592              	.L89:
 1593              	.LBB281:
 1594              	.LBB280:
 1595              	.LBB279:
 220:lvgl\src\lv_draw\../lv_core/../lv_font/../lv_misc/lv_mem.h ****         d8++;
 1596              		.loc 2 220 0
 1597 0508 11F8010B 		ldrb	r0, [r1], #1	@ zero_extendqisi2
 1598              	.LVL233:
 1599 050c 02F8010B 		strb	r0, [r2], #1
 1600              	.LVL234:
 1601              		.loc 2 223 0
 1602 0510 013B     		subs	r3, r3, #1
 1603              	.LVL235:
 1604              	.L88:
 219:lvgl\src\lv_draw\../lv_core/../lv_font/../lv_misc/lv_mem.h ****         *d8 = *s8;
 1605              		.loc 2 219 0
 1606 0512 002B     		cmp	r3, #0
ARM GAS  C:\Users\strap\AppData\Local\Temp\ccsTbppz.s 			page 59


 1607 0514 F8D1     		bne	.L89
 1608              	.LVL236:
 1609              	.LBE279:
 1610              	.LBE280:
 1611              	.LBE281:
 733:lvgl\src\lv_draw/lv_draw_rect.c ****             mask_res = LV_DRAW_MASK_RES_FULL_COVER;
 1612              		.loc 1 733 0
 1613 0516 BDF94630 		ldrsh	r3, [sp, #70]
 1614 051a ADF84A30 		strh	r3, [sp, #74]	@ movhi
 1615              	.LVL237:
 735:lvgl\src\lv_draw/lv_draw_rect.c ****                 _lv_memcpy(mask_buf, sh_buf_tmp, w);
 1616              		.loc 1 735 0
 1617 051e 4FF00009 		mov	r9, #0
 1618 0522 2CE0     		b	.L90
 1619              	.LVL238:
 1620              	.L92:
 736:lvgl\src\lv_draw/lv_draw_rect.c **** 
 1621              		.loc 1 736 0
 1622 0524 0A9A     		ldr	r2, [sp, #40]
 1623 0526 0E99     		ldr	r1, [sp, #56]
 1624 0528 0598     		ldr	r0, [sp, #20]
 1625 052a FFF7FEFF 		bl	_lv_memcpy
 1626              	.LVL239:
 738:lvgl\src\lv_draw/lv_draw_rect.c ****                     mask_res = LV_DRAW_MASK_RES_CHANGED;
 1627              		.loc 1 738 0
 1628 052e 56B9     		cbnz	r6, .L150
 742:lvgl\src\lv_draw/lv_draw_rect.c ****                     if(mask_res == LV_DRAW_MASK_RES_FULL_COVER) mask_res = LV_DRAW_MASK_RES_CHANGED
 1629              		.loc 1 742 0
 1630 0530 0A9B     		ldr	r3, [sp, #40]
 1631 0532 BDF94620 		ldrsh	r2, [sp, #70]
 1632 0536 BDF94410 		ldrsh	r1, [sp, #68]
 1633 053a 0598     		ldr	r0, [sp, #20]
 1634 053c FFF7FEFF 		bl	lv_draw_mask_apply
 1635              	.LVL240:
 743:lvgl\src\lv_draw/lv_draw_rect.c ****                 }
 1636              		.loc 1 743 0
 1637 0540 0128     		cmp	r0, #1
 1638 0542 03D1     		bne	.L91
 1639 0544 01E0     		b	.L151
 1640              	.LVL241:
 1641              	.L150:
 739:lvgl\src\lv_draw/lv_draw_rect.c ****                 }
 1642              		.loc 1 739 0
 1643 0546 0220     		movs	r0, #2
 1644 0548 00E0     		b	.L91
 1645              	.LVL242:
 1646              	.L151:
 743:lvgl\src\lv_draw/lv_draw_rect.c ****                 }
 1647              		.loc 1 743 0
 1648 054a 0220     		movs	r0, #2
 1649              	.LVL243:
 1650              	.L91:
 746:lvgl\src\lv_draw/lv_draw_rect.c ****                                dsc->shadow_color, mask_buf, mask_res, dsc->shadow_opa, dsc->shadow_
 1651              		.loc 1 746 0 discriminator 2
 1652 054c 95F82B30 		ldrb	r3, [r5, #43]	@ zero_extendqisi2
 1653 0550 0293     		str	r3, [sp, #8]
 1654 0552 95F82A30 		ldrb	r3, [r5, #42]	@ zero_extendqisi2
ARM GAS  C:\Users\strap\AppData\Local\Temp\ccsTbppz.s 			page 60


 1655 0556 0193     		str	r3, [sp, #4]
 1656 0558 0090     		str	r0, [sp]
 1657 055a 059B     		ldr	r3, [sp, #20]
 1658 055c 2A8C     		ldrh	r2, [r5, #32]
 1659 055e 11A9     		add	r1, sp, #68
 1660 0560 0698     		ldr	r0, [sp, #24]
 1661              	.LVL244:
 1662 0562 FFF7FEFF 		bl	_lv_blend_fill
 1663              	.LVL245:
 748:lvgl\src\lv_draw/lv_draw_rect.c ****                 fa.y2++;
 1664              		.loc 1 748 0 discriminator 2
 1665 0566 BDF94630 		ldrsh	r3, [sp, #70]
 1666 056a 0133     		adds	r3, r3, #1
 1667 056c ADF84630 		strh	r3, [sp, #70]	@ movhi
 749:lvgl\src\lv_draw/lv_draw_rect.c ****             }
 1668              		.loc 1 749 0 discriminator 2
 1669 0570 BDF94A30 		ldrsh	r3, [sp, #74]
 1670 0574 0133     		adds	r3, r3, #1
 1671 0576 ADF84A30 		strh	r3, [sp, #74]	@ movhi
 735:lvgl\src\lv_draw/lv_draw_rect.c ****                 _lv_memcpy(mask_buf, sh_buf_tmp, w);
 1672              		.loc 1 735 0 discriminator 2
 1673 057a 09F10109 		add	r9, r9, #1
 1674              	.LVL246:
 1675              	.L90:
 735:lvgl\src\lv_draw/lv_draw_rect.c ****                 _lv_memcpy(mask_buf, sh_buf_tmp, w);
 1676              		.loc 1 735 0 is_stmt 0 discriminator 1
 1677 057e D145     		cmp	r9, r10
 1678 0580 D0DB     		blt	.L92
 1679              	.LVL247:
 1680              	.L86:
 1681              	.LBE273:
 1682              	.LBE270:
 1683 0582 0799     		ldr	r1, [sp, #28]
 1684 0584 0020     		movs	r0, #0
 1685 0586 13E0     		b	.L93
 1686              	.LVL248:
 1687              	.L94:
 1688              	.LBB282:
 1689              	.LBB283:
 759:lvgl\src\lv_draw/lv_draw_rect.c ****             sh_buf_tmp[x] = sh_buf_tmp[corner_size - x - 1];
 1690              		.loc 1 759 0 is_stmt 1 discriminator 3
 1691 0588 11F803E0 		ldrb	lr, [r1, r3]	@ zero_extendqisi2
 1692              	.LVL249:
 760:lvgl\src\lv_draw/lv_draw_rect.c ****             sh_buf_tmp[corner_size - x - 1] = tmp;
 1693              		.loc 1 760 0 discriminator 3
 1694 058c E21A     		subs	r2, r4, r3
 1695 058e 013A     		subs	r2, r2, #1
 1696 0590 11F802C0 		ldrb	ip, [r1, r2]	@ zero_extendqisi2
 1697 0594 01F803C0 		strb	ip, [r1, r3]
 761:lvgl\src\lv_draw/lv_draw_rect.c ****         }
 1698              		.loc 1 761 0 discriminator 3
 1699 0598 01F802E0 		strb	lr, [r1, r2]
 1700              	.LBE283:
 758:lvgl\src\lv_draw/lv_draw_rect.c ****             lv_opa_t tmp = sh_buf_tmp[x];
 1701              		.loc 1 758 0 discriminator 3
 1702 059c 0133     		adds	r3, r3, #1
 1703              	.LVL250:
ARM GAS  C:\Users\strap\AppData\Local\Temp\ccsTbppz.s 			page 61


 1704 059e 00E0     		b	.L95
 1705              	.LVL251:
 1706              	.L152:
 1707              	.LBE282:
 1708 05a0 0023     		movs	r3, #0
 1709              	.L95:
 1710              	.LVL252:
 1711              	.LBB284:
 758:lvgl\src\lv_draw/lv_draw_rect.c ****             lv_opa_t tmp = sh_buf_tmp[x];
 1712              		.loc 1 758 0 is_stmt 0 discriminator 1
 1713 05a2 04EBD472 		add	r2, r4, r4, lsr #31
 1714 05a6 B3EB620F 		cmp	r3, r2, asr #1
 1715 05aa EDDB     		blt	.L94
 763:lvgl\src\lv_draw/lv_draw_rect.c ****     }
 1716              		.loc 1 763 0 is_stmt 1 discriminator 2
 1717 05ac 2144     		add	r1, r1, r4
 1718              	.LVL253:
 1719              	.LBE284:
 756:lvgl\src\lv_draw/lv_draw_rect.c ****         int32_t x;
 1720              		.loc 1 756 0 discriminator 2
 1721 05ae 0130     		adds	r0, r0, #1
 1722              	.LVL254:
 1723              	.L93:
 756:lvgl\src\lv_draw/lv_draw_rect.c ****         int32_t x;
 1724              		.loc 1 756 0 is_stmt 0 discriminator 1
 1725 05b0 A042     		cmp	r0, r4
 1726 05b2 F5DB     		blt	.L152
 767:lvgl\src\lv_draw/lv_draw_rect.c ****     a.x2 = a.x1 + corner_size - 1;
 1727              		.loc 1 767 0 is_stmt 1
 1728 05b4 BDF98830 		ldrsh	r3, [sp, #136]
 1729 05b8 ADF85430 		strh	r3, [sp, #84]	@ movhi
 768:lvgl\src\lv_draw/lv_draw_rect.c ****     a.y1 = sh_area.y1;
 1730              		.loc 1 768 0
 1731 05bc 3B44     		add	r3, r3, r7
 1732 05be 013B     		subs	r3, r3, #1
 1733 05c0 ADF85830 		strh	r3, [sp, #88]	@ movhi
 769:lvgl\src\lv_draw/lv_draw_rect.c ****     a.y2 = a.y1 + corner_size - 1;
 1734              		.loc 1 769 0
 1735 05c4 BDF98A30 		ldrsh	r3, [sp, #138]
 1736 05c8 ADF85630 		strh	r3, [sp, #86]	@ movhi
 770:lvgl\src\lv_draw/lv_draw_rect.c **** 
 1737              		.loc 1 770 0
 1738 05cc 3B44     		add	r3, r3, r7
 1739 05ce 013B     		subs	r3, r3, #1
 1740 05d0 ADF85A30 		strh	r3, [sp, #90]	@ movhi
 772:lvgl\src\lv_draw/lv_draw_rect.c ****     if(has_com && _lv_area_is_in(&a, &bg_coords, r_bg) == false) {
 1741              		.loc 1 772 0
 1742 05d4 069A     		ldr	r2, [sp, #24]
 1743 05d6 15A9     		add	r1, sp, #84
 1744              	.LVL255:
 1745 05d8 13A8     		add	r0, sp, #76
 1746              	.LVL256:
 1747 05da FFF7FEFF 		bl	_lv_area_intersect
 1748              	.LVL257:
 773:lvgl\src\lv_draw/lv_draw_rect.c ****         /*Avoid overlap in the middle with large radius*/
 1749              		.loc 1 773 0
 1750 05de 0028     		cmp	r0, #0
ARM GAS  C:\Users\strap\AppData\Local\Temp\ccsTbppz.s 			page 62


 1751 05e0 76D0     		beq	.L96
 773:lvgl\src\lv_draw/lv_draw_rect.c ****         /*Avoid overlap in the middle with large radius*/
 1752              		.loc 1 773 0 is_stmt 0 discriminator 1
 1753 05e2 089A     		ldr	r2, [sp, #32]
 1754 05e4 1EA9     		add	r1, sp, #120
 1755 05e6 15A8     		add	r0, sp, #84
 1756              	.LVL258:
 1757 05e8 FFF7FEFF 		bl	_lv_area_is_in
 1758              	.LVL259:
 1759 05ec 0028     		cmp	r0, #0
 1760 05ee 6FD1     		bne	.L96
 1761              	.LBB285:
 775:lvgl\src\lv_draw/lv_draw_rect.c ****         if(ca.x2 > w_half) ca.x2 = w_half;
 1762              		.loc 1 775 0 is_stmt 1
 1763 05f0 BDF95230 		ldrsh	r3, [sp, #82]
 1764 05f4 9B45     		cmp	fp, r3
 1765 05f6 01DA     		bge	.L97
 775:lvgl\src\lv_draw/lv_draw_rect.c ****         if(ca.x2 > w_half) ca.x2 = w_half;
 1766              		.loc 1 775 0 is_stmt 0 discriminator 1
 1767 05f8 ADF852B0 		strh	fp, [sp, #82]	@ movhi
 1768              	.L97:
 776:lvgl\src\lv_draw/lv_draw_rect.c **** 
 1769              		.loc 1 776 0 is_stmt 1
 1770 05fc BDF95030 		ldrsh	r3, [sp, #80]
 1771 0600 0C99     		ldr	r1, [sp, #48]
 1772 0602 9942     		cmp	r1, r3
 1773 0604 01DA     		bge	.L98
 776:lvgl\src\lv_draw/lv_draw_rect.c **** 
 1774              		.loc 1 776 0 is_stmt 0 discriminator 1
 1775 0606 ADF85010 		strh	r1, [sp, #80]	@ movhi
 1776              	.L98:
 1777              	.LVL260:
 1778              	.LBB286:
 1779              	.LBB287:
 1780              		.loc 3 122 0 is_stmt 1
 1781 060a BDF95220 		ldrsh	r2, [sp, #82]
 1782 060e BDF94E30 		ldrsh	r3, [sp, #78]
 1783 0612 D21A     		subs	r2, r2, r3
 1784 0614 0132     		adds	r2, r2, #1
 1785 0616 12B2     		sxth	r2, r2
 1786 0618 9646     		mov	lr, r2
 1787              	.LVL261:
 1788              	.LBE287:
 1789              	.LBE286:
 1790              	.LBB288:
 1791              	.LBB289:
 112:lvgl\src\lv_draw\../lv_core/../lv_font/../lv_misc/lv_area.h **** }
 1792              		.loc 3 112 0
 1793 061a BDF95020 		ldrsh	r2, [sp, #80]
 1794 061e BDF94C10 		ldrsh	r1, [sp, #76]
 1795 0622 521A     		subs	r2, r2, r1
 1796 0624 0132     		adds	r2, r2, #1
 1797 0626 12B2     		sxth	r2, r2
 1798 0628 0A92     		str	r2, [sp, #40]
 1799              	.LVL262:
 1800              	.LBE289:
 1801              	.LBE288:
ARM GAS  C:\Users\strap\AppData\Local\Temp\ccsTbppz.s 			page 63


 780:lvgl\src\lv_draw/lv_draw_rect.c ****             sh_buf_tmp = sh_buf + (ca.x1 - a.x1);
 1802              		.loc 1 780 0
 1803 062a 002A     		cmp	r2, #0
 1804 062c 50DD     		ble	.L96
 1805              	.LBB290:
 781:lvgl\src\lv_draw/lv_draw_rect.c ****             sh_buf_tmp += corner_size * (ca.y1 - a.y1);
 1806              		.loc 1 781 0
 1807 062e BDF95490 		ldrsh	r9, [sp, #84]
 1808 0632 C9EB0101 		rsb	r1, r9, r1
 1809              	.LVL263:
 782:lvgl\src\lv_draw/lv_draw_rect.c **** 
 1810              		.loc 1 782 0
 1811 0636 BDF95690 		ldrsh	r9, [sp, #86]
 1812 063a C9EB0303 		rsb	r3, r9, r3
 1813 063e 03FB0419 		mla	r9, r3, r4, r1
 1814 0642 079B     		ldr	r3, [sp, #28]
 1815 0644 9944     		add	r9, r9, r3
 1816              	.LVL264:
 1817              	.LBB291:
 1818              	.LBB292:
 1819              	.LBB293:
 217:lvgl\src\lv_draw\../lv_core/../lv_font/../lv_misc/lv_mem.h **** 
 1820              		.loc 2 217 0
 1821 0646 13A9     		add	r1, sp, #76
 1822              	.LVL265:
 216:lvgl\src\lv_draw\../lv_core/../lv_font/../lv_misc/lv_mem.h ****     const uint8_t * s8 = (const uint8_t *)src;
 1823              		.loc 2 216 0
 1824 0648 11AA     		add	r2, sp, #68
 1825              	.LVL266:
 1826              	.LBE293:
 1827              	.LBE292:
 1828              	.LBE291:
 782:lvgl\src\lv_draw/lv_draw_rect.c **** 
 1829              		.loc 1 782 0
 1830 064a 0823     		movs	r3, #8
 1831 064c 04E0     		b	.L99
 1832              	.LVL267:
 1833              	.L100:
 1834              	.LBB296:
 1835              	.LBB295:
 1836              	.LBB294:
 220:lvgl\src\lv_draw\../lv_core/../lv_font/../lv_misc/lv_mem.h ****         d8++;
 1837              		.loc 2 220 0
 1838 064e 11F8010B 		ldrb	r0, [r1], #1	@ zero_extendqisi2
 1839              	.LVL268:
 1840 0652 02F8010B 		strb	r0, [r2], #1
 1841              	.LVL269:
 1842              		.loc 2 223 0
 1843 0656 013B     		subs	r3, r3, #1
 1844              	.LVL270:
 1845              	.L99:
 219:lvgl\src\lv_draw\../lv_core/../lv_font/../lv_misc/lv_mem.h ****         *d8 = *s8;
 1846              		.loc 2 219 0
 1847 0658 002B     		cmp	r3, #0
 1848 065a F8D1     		bne	.L100
 1849              	.LVL271:
 1850              	.LBE294:
ARM GAS  C:\Users\strap\AppData\Local\Temp\ccsTbppz.s 			page 64


 1851              	.LBE295:
 1852              	.LBE296:
 786:lvgl\src\lv_draw/lv_draw_rect.c **** 
 1853              		.loc 1 786 0
 1854 065c BDF94630 		ldrsh	r3, [sp, #70]
 1855 0660 ADF84A30 		strh	r3, [sp, #74]	@ movhi
 1856              	.LVL272:
 788:lvgl\src\lv_draw/lv_draw_rect.c ****                 _lv_memcpy(mask_buf, sh_buf_tmp, w);
 1857              		.loc 1 788 0
 1858 0664 4FF0000A 		mov	r10, #0
 1859 0668 0E96     		str	r6, [sp, #56]
 1860 066a 2346     		mov	r3, r4
 1861 066c 4446     		mov	r4, r8
 1862              	.LVL273:
 1863 066e 7646     		mov	r6, lr
 1864 0670 9846     		mov	r8, r3
 1865 0672 27E0     		b	.L101
 1866              	.LVL274:
 1867              	.L103:
 789:lvgl\src\lv_draw/lv_draw_rect.c ****                 mask_res = lv_draw_mask_apply(mask_buf, fa.x1, fa.y1, w);
 1868              		.loc 1 789 0
 1869 0674 0A9A     		ldr	r2, [sp, #40]
 1870 0676 4946     		mov	r1, r9
 1871 0678 0598     		ldr	r0, [sp, #20]
 1872 067a FFF7FEFF 		bl	_lv_memcpy
 1873              	.LVL275:
 790:lvgl\src\lv_draw/lv_draw_rect.c ****                 if(mask_res == LV_DRAW_MASK_RES_FULL_COVER) mask_res = LV_DRAW_MASK_RES_CHANGED;
 1874              		.loc 1 790 0
 1875 067e 0A9B     		ldr	r3, [sp, #40]
 1876 0680 BDF94620 		ldrsh	r2, [sp, #70]
 1877 0684 BDF94410 		ldrsh	r1, [sp, #68]
 1878 0688 0598     		ldr	r0, [sp, #20]
 1879 068a FFF7FEFF 		bl	lv_draw_mask_apply
 1880              	.LVL276:
 791:lvgl\src\lv_draw/lv_draw_rect.c **** 
 1881              		.loc 1 791 0
 1882 068e 0128     		cmp	r0, #1
 1883 0690 00D1     		bne	.L102
 1884 0692 0220     		movs	r0, #2
 1885              	.LVL277:
 1886              	.L102:
 793:lvgl\src\lv_draw/lv_draw_rect.c ****                                mask_res, opa, dsc->shadow_blend_mode);
 1887              		.loc 1 793 0 discriminator 2
 1888 0694 95F82B30 		ldrb	r3, [r5, #43]	@ zero_extendqisi2
 1889 0698 0293     		str	r3, [sp, #8]
 1890 069a 0194     		str	r4, [sp, #4]
 1891 069c 0090     		str	r0, [sp]
 1892 069e 059B     		ldr	r3, [sp, #20]
 1893 06a0 2A8C     		ldrh	r2, [r5, #32]
 1894 06a2 11A9     		add	r1, sp, #68
 1895 06a4 0698     		ldr	r0, [sp, #24]
 1896              	.LVL278:
 1897 06a6 FFF7FEFF 		bl	_lv_blend_fill
 1898              	.LVL279:
 795:lvgl\src\lv_draw/lv_draw_rect.c ****                 fa.y2++;
 1899              		.loc 1 795 0 discriminator 2
 1900 06aa BDF94630 		ldrsh	r3, [sp, #70]
ARM GAS  C:\Users\strap\AppData\Local\Temp\ccsTbppz.s 			page 65


 1901 06ae 0133     		adds	r3, r3, #1
 1902 06b0 ADF84630 		strh	r3, [sp, #70]	@ movhi
 796:lvgl\src\lv_draw/lv_draw_rect.c ****                 sh_buf_tmp += corner_size;
 1903              		.loc 1 796 0 discriminator 2
 1904 06b4 BDF94A30 		ldrsh	r3, [sp, #74]
 1905 06b8 0133     		adds	r3, r3, #1
 1906 06ba ADF84A30 		strh	r3, [sp, #74]	@ movhi
 797:lvgl\src\lv_draw/lv_draw_rect.c ****             }
 1907              		.loc 1 797 0 discriminator 2
 1908 06be C144     		add	r9, r9, r8
 1909              	.LVL280:
 788:lvgl\src\lv_draw/lv_draw_rect.c ****                 _lv_memcpy(mask_buf, sh_buf_tmp, w);
 1910              		.loc 1 788 0 discriminator 2
 1911 06c0 0AF1010A 		add	r10, r10, #1
 1912              	.LVL281:
 1913              	.L101:
 788:lvgl\src\lv_draw/lv_draw_rect.c ****                 _lv_memcpy(mask_buf, sh_buf_tmp, w);
 1914              		.loc 1 788 0 is_stmt 0 discriminator 1
 1915 06c4 B245     		cmp	r10, r6
 1916 06c6 D5DB     		blt	.L103
 1917 06c8 0E9E     		ldr	r6, [sp, #56]
 1918 06ca 4346     		mov	r3, r8
 1919 06cc A046     		mov	r8, r4
 1920              	.LVL282:
 1921 06ce 1C46     		mov	r4, r3
 1922              	.LVL283:
 1923              	.L96:
 1924              	.LBE290:
 1925              	.LBE285:
 803:lvgl\src\lv_draw/lv_draw_rect.c ****     a.x2 = a.x1 + corner_size - 1;
 1926              		.loc 1 803 0 is_stmt 1
 1927 06d0 BDF98830 		ldrsh	r3, [sp, #136]
 1928 06d4 ADF85430 		strh	r3, [sp, #84]	@ movhi
 804:lvgl\src\lv_draw/lv_draw_rect.c ****     a.y1 = sh_area.y2 - corner_size + 1;
 1929              		.loc 1 804 0
 1930 06d8 3B44     		add	r3, r3, r7
 1931 06da 013B     		subs	r3, r3, #1
 1932 06dc ADF85830 		strh	r3, [sp, #88]	@ movhi
 805:lvgl\src\lv_draw/lv_draw_rect.c ****     a.y2 = sh_area.y2;
 1933              		.loc 1 805 0
 1934 06e0 BDF98E20 		ldrsh	r2, [sp, #142]
 1935 06e4 D31B     		subs	r3, r2, r7
 1936 06e6 0133     		adds	r3, r3, #1
 1937 06e8 ADF85630 		strh	r3, [sp, #86]	@ movhi
 806:lvgl\src\lv_draw/lv_draw_rect.c **** 
 1938              		.loc 1 806 0
 1939 06ec ADF85A20 		strh	r2, [sp, #90]	@ movhi
 808:lvgl\src\lv_draw/lv_draw_rect.c ****     if(has_com && _lv_area_is_in(&a, &bg_coords, r_bg) == false) {
 1940              		.loc 1 808 0
 1941 06f0 069A     		ldr	r2, [sp, #24]
 1942 06f2 15A9     		add	r1, sp, #84
 1943 06f4 13A8     		add	r0, sp, #76
 1944 06f6 FFF7FEFF 		bl	_lv_area_intersect
 1945              	.LVL284:
 809:lvgl\src\lv_draw/lv_draw_rect.c ****         /*Avoid overlap in the middle with large radius*/
 1946              		.loc 1 809 0
 1947 06fa 0028     		cmp	r0, #0
ARM GAS  C:\Users\strap\AppData\Local\Temp\ccsTbppz.s 			page 66


 1948 06fc 76D0     		beq	.L104
 809:lvgl\src\lv_draw/lv_draw_rect.c ****         /*Avoid overlap in the middle with large radius*/
 1949              		.loc 1 809 0 is_stmt 0 discriminator 1
 1950 06fe 089A     		ldr	r2, [sp, #32]
 1951 0700 1EA9     		add	r1, sp, #120
 1952 0702 15A8     		add	r0, sp, #84
 1953              	.LVL285:
 1954 0704 FFF7FEFF 		bl	_lv_area_is_in
 1955              	.LVL286:
 1956 0708 0028     		cmp	r0, #0
 1957 070a 6FD1     		bne	.L104
 1958              	.LBB297:
 811:lvgl\src\lv_draw/lv_draw_rect.c ****         if(ca.x2 > w_half) ca.x2 = w_half;
 1959              		.loc 1 811 0 is_stmt 1
 1960 070c BDF94E30 		ldrsh	r3, [sp, #78]
 1961 0710 9B45     		cmp	fp, r3
 1962 0712 03DB     		blt	.L105
 811:lvgl\src\lv_draw/lv_draw_rect.c ****         if(ca.x2 > w_half) ca.x2 = w_half;
 1963              		.loc 1 811 0 is_stmt 0 discriminator 1
 1964 0714 0D9B     		ldr	r3, [sp, #52]
 1965 0716 0133     		adds	r3, r3, #1
 1966 0718 ADF84E30 		strh	r3, [sp, #78]	@ movhi
 1967              	.L105:
 812:lvgl\src\lv_draw/lv_draw_rect.c ****         lv_coord_t h = lv_area_get_height(&ca);
 1968              		.loc 1 812 0 is_stmt 1
 1969 071c BDF95030 		ldrsh	r3, [sp, #80]
 1970 0720 0C99     		ldr	r1, [sp, #48]
 1971 0722 9942     		cmp	r1, r3
 1972 0724 01DA     		bge	.L106
 812:lvgl\src\lv_draw/lv_draw_rect.c ****         lv_coord_t h = lv_area_get_height(&ca);
 1973              		.loc 1 812 0 is_stmt 0 discriminator 1
 1974 0726 ADF85010 		strh	r1, [sp, #80]	@ movhi
 1975              	.L106:
 1976              	.LVL287:
 1977              	.LBB298:
 1978              	.LBB299:
 1979              		.loc 3 122 0 is_stmt 1
 1980 072a BDF95210 		ldrsh	r1, [sp, #82]
 1981 072e BDF94EB0 		ldrsh	fp, [sp, #78]
 1982              	.LVL288:
 1983 0732 CBEB010B 		rsb	fp, fp, r1
 1984 0736 0BF1010B 		add	fp, fp, #1
 1985 073a 0FFA8BFB 		sxth	fp, fp
 1986              	.LVL289:
 1987              	.LBE299:
 1988              	.LBE298:
 1989              	.LBB300:
 1990              	.LBB301:
 112:lvgl\src\lv_draw\../lv_core/../lv_font/../lv_misc/lv_area.h **** }
 1991              		.loc 3 112 0
 1992 073e BDF95020 		ldrsh	r2, [sp, #80]
 1993 0742 BDF94C30 		ldrsh	r3, [sp, #76]
 1994 0746 D21A     		subs	r2, r2, r3
 1995 0748 0132     		adds	r2, r2, #1
 1996 074a 12B2     		sxth	r2, r2
 1997 074c 0A92     		str	r2, [sp, #40]
 1998              	.LVL290:
ARM GAS  C:\Users\strap\AppData\Local\Temp\ccsTbppz.s 			page 67


 1999              	.LBE301:
 2000              	.LBE300:
 816:lvgl\src\lv_draw/lv_draw_rect.c ****             sh_buf_tmp = sh_buf + (ca.x1 - a.x1);
 2001              		.loc 1 816 0
 2002 074e 002A     		cmp	r2, #0
 2003 0750 4CDD     		ble	.L104
 2004              	.LBB302:
 817:lvgl\src\lv_draw/lv_draw_rect.c ****             sh_buf_tmp += corner_size * (a.y2 - ca.y2);
 2005              		.loc 1 817 0
 2006 0752 BDF95490 		ldrsh	r9, [sp, #84]
 2007 0756 C9EB0309 		rsb	r9, r9, r3
 2008              	.LVL291:
 818:lvgl\src\lv_draw/lv_draw_rect.c **** 
 2009              		.loc 1 818 0
 2010 075a BDF95A30 		ldrsh	r3, [sp, #90]
 2011 075e 5B1A     		subs	r3, r3, r1
 2012 0760 03FB0499 		mla	r9, r3, r4, r9
 2013              	.LVL292:
 2014 0764 079B     		ldr	r3, [sp, #28]
 2015 0766 9944     		add	r9, r9, r3
 2016              	.LVL293:
 2017              	.LBB303:
 2018              	.LBB304:
 2019              	.LBB305:
 217:lvgl\src\lv_draw\../lv_core/../lv_font/../lv_misc/lv_mem.h **** 
 2020              		.loc 2 217 0
 2021 0768 13A9     		add	r1, sp, #76
 2022              	.LVL294:
 216:lvgl\src\lv_draw\../lv_core/../lv_font/../lv_misc/lv_mem.h ****     const uint8_t * s8 = (const uint8_t *)src;
 2023              		.loc 2 216 0
 2024 076a 11AA     		add	r2, sp, #68
 2025              	.LVL295:
 2026              	.LBE305:
 2027              	.LBE304:
 2028              	.LBE303:
 818:lvgl\src\lv_draw/lv_draw_rect.c **** 
 2029              		.loc 1 818 0
 2030 076c 0823     		movs	r3, #8
 2031 076e 04E0     		b	.L107
 2032              	.LVL296:
 2033              	.L108:
 2034              	.LBB308:
 2035              	.LBB307:
 2036              	.LBB306:
 220:lvgl\src\lv_draw\../lv_core/../lv_font/../lv_misc/lv_mem.h ****         d8++;
 2037              		.loc 2 220 0
 2038 0770 11F8010B 		ldrb	r0, [r1], #1	@ zero_extendqisi2
 2039              	.LVL297:
 2040 0774 02F8010B 		strb	r0, [r2], #1
 2041              	.LVL298:
 2042              		.loc 2 223 0
 2043 0778 013B     		subs	r3, r3, #1
 2044              	.LVL299:
 2045              	.L107:
 219:lvgl\src\lv_draw\../lv_core/../lv_font/../lv_misc/lv_mem.h ****         *d8 = *s8;
 2046              		.loc 2 219 0
 2047 077a 002B     		cmp	r3, #0
ARM GAS  C:\Users\strap\AppData\Local\Temp\ccsTbppz.s 			page 68


 2048 077c F8D1     		bne	.L108
 2049              	.LVL300:
 2050              	.LBE306:
 2051              	.LBE307:
 2052              	.LBE308:
 822:lvgl\src\lv_draw/lv_draw_rect.c **** 
 2053              		.loc 1 822 0
 2054 077e BDF94A30 		ldrsh	r3, [sp, #74]
 2055 0782 ADF84630 		strh	r3, [sp, #70]	@ movhi
 2056              	.LVL301:
 824:lvgl\src\lv_draw/lv_draw_rect.c ****                 _lv_memcpy(mask_buf, sh_buf_tmp, w);
 2057              		.loc 1 824 0
 2058 0786 4FF0000A 		mov	r10, #0
 2059 078a 2346     		mov	r3, r4
 2060 078c 4446     		mov	r4, r8
 2061              	.LVL302:
 2062 078e 9846     		mov	r8, r3
 2063 0790 27E0     		b	.L109
 2064              	.LVL303:
 2065              	.L111:
 825:lvgl\src\lv_draw/lv_draw_rect.c ****                 mask_res = lv_draw_mask_apply(mask_buf, fa.x1, fa.y1, w);
 2066              		.loc 1 825 0
 2067 0792 0A9A     		ldr	r2, [sp, #40]
 2068 0794 4946     		mov	r1, r9
 2069 0796 0598     		ldr	r0, [sp, #20]
 2070 0798 FFF7FEFF 		bl	_lv_memcpy
 2071              	.LVL304:
 826:lvgl\src\lv_draw/lv_draw_rect.c ****                 if(mask_res == LV_DRAW_MASK_RES_FULL_COVER) mask_res = LV_DRAW_MASK_RES_CHANGED;
 2072              		.loc 1 826 0
 2073 079c 0A9B     		ldr	r3, [sp, #40]
 2074 079e BDF94620 		ldrsh	r2, [sp, #70]
 2075 07a2 BDF94410 		ldrsh	r1, [sp, #68]
 2076 07a6 0598     		ldr	r0, [sp, #20]
 2077 07a8 FFF7FEFF 		bl	lv_draw_mask_apply
 2078              	.LVL305:
 827:lvgl\src\lv_draw/lv_draw_rect.c **** 
 2079              		.loc 1 827 0
 2080 07ac 0128     		cmp	r0, #1
 2081 07ae 00D1     		bne	.L110
 2082 07b0 0220     		movs	r0, #2
 2083              	.LVL306:
 2084              	.L110:
 829:lvgl\src\lv_draw/lv_draw_rect.c ****                                mask_res, opa, dsc->shadow_blend_mode);
 2085              		.loc 1 829 0 discriminator 2
 2086 07b2 95F82B30 		ldrb	r3, [r5, #43]	@ zero_extendqisi2
 2087 07b6 0293     		str	r3, [sp, #8]
 2088 07b8 0194     		str	r4, [sp, #4]
 2089 07ba 0090     		str	r0, [sp]
 2090 07bc 059B     		ldr	r3, [sp, #20]
 2091 07be 2A8C     		ldrh	r2, [r5, #32]
 2092 07c0 11A9     		add	r1, sp, #68
 2093 07c2 0698     		ldr	r0, [sp, #24]
 2094              	.LVL307:
 2095 07c4 FFF7FEFF 		bl	_lv_blend_fill
 2096              	.LVL308:
 831:lvgl\src\lv_draw/lv_draw_rect.c ****                 fa.y2--;
 2097              		.loc 1 831 0 discriminator 2
ARM GAS  C:\Users\strap\AppData\Local\Temp\ccsTbppz.s 			page 69


 2098 07c8 BDF94630 		ldrsh	r3, [sp, #70]
 2099 07cc 013B     		subs	r3, r3, #1
 2100 07ce ADF84630 		strh	r3, [sp, #70]	@ movhi
 832:lvgl\src\lv_draw/lv_draw_rect.c ****                 sh_buf_tmp += corner_size;
 2101              		.loc 1 832 0 discriminator 2
 2102 07d2 BDF94A30 		ldrsh	r3, [sp, #74]
 2103 07d6 013B     		subs	r3, r3, #1
 2104 07d8 ADF84A30 		strh	r3, [sp, #74]	@ movhi
 833:lvgl\src\lv_draw/lv_draw_rect.c ****             }
 2105              		.loc 1 833 0 discriminator 2
 2106 07dc C144     		add	r9, r9, r8
 2107              	.LVL309:
 824:lvgl\src\lv_draw/lv_draw_rect.c ****                 _lv_memcpy(mask_buf, sh_buf_tmp, w);
 2108              		.loc 1 824 0 discriminator 2
 2109 07de 0AF1010A 		add	r10, r10, #1
 2110              	.LVL310:
 2111              	.L109:
 824:lvgl\src\lv_draw/lv_draw_rect.c ****                 _lv_memcpy(mask_buf, sh_buf_tmp, w);
 2112              		.loc 1 824 0 is_stmt 0 discriminator 1
 2113 07e2 DA45     		cmp	r10, fp
 2114 07e4 D5DB     		blt	.L111
 2115 07e6 4346     		mov	r3, r8
 2116 07e8 A046     		mov	r8, r4
 2117              	.LVL311:
 2118 07ea 1C46     		mov	r4, r3
 2119              	.LVL312:
 2120              	.L104:
 2121              	.LBE302:
 2122              	.LBE297:
 839:lvgl\src\lv_draw/lv_draw_rect.c ****     a.x2 = a.x1 + corner_size - 1;
 2123              		.loc 1 839 0 is_stmt 1
 2124 07ec BDF98830 		ldrsh	r3, [sp, #136]
 2125 07f0 ADF85430 		strh	r3, [sp, #84]	@ movhi
 840:lvgl\src\lv_draw/lv_draw_rect.c ****     a.y1 = sh_area.y1 + corner_size;
 2126              		.loc 1 840 0
 2127 07f4 3B44     		add	r3, r3, r7
 2128 07f6 013B     		subs	r3, r3, #1
 2129 07f8 ADF85830 		strh	r3, [sp, #88]	@ movhi
 841:lvgl\src\lv_draw/lv_draw_rect.c ****     a.y2 = sh_area.y2 - corner_size;
 2130              		.loc 1 841 0
 2131 07fc BDF98A30 		ldrsh	r3, [sp, #138]
 2132 0800 3B44     		add	r3, r3, r7
 2133 0802 ADF85630 		strh	r3, [sp, #86]	@ movhi
 842:lvgl\src\lv_draw/lv_draw_rect.c **** 
 2134              		.loc 1 842 0
 2135 0806 BDF98E30 		ldrsh	r3, [sp, #142]
 2136 080a DB1B     		subs	r3, r3, r7
 2137 080c ADF85A30 		strh	r3, [sp, #90]	@ movhi
 844:lvgl\src\lv_draw/lv_draw_rect.c ****     if(has_com && _lv_area_is_in(&a, &bg_coords, r_bg) == false) {
 2138              		.loc 1 844 0
 2139 0810 069A     		ldr	r2, [sp, #24]
 2140 0812 15A9     		add	r1, sp, #84
 2141 0814 13A8     		add	r0, sp, #76
 2142 0816 FFF7FEFF 		bl	_lv_area_intersect
 2143              	.LVL313:
 845:lvgl\src\lv_draw/lv_draw_rect.c ****         if(simple_mode) ca.x2 = LV_MATH_MIN(coords->x1, ca.x2);
 2144              		.loc 1 845 0
ARM GAS  C:\Users\strap\AppData\Local\Temp\ccsTbppz.s 			page 70


 2145 081a 0028     		cmp	r0, #0
 2146 081c 72D0     		beq	.L112
 845:lvgl\src\lv_draw/lv_draw_rect.c ****         if(simple_mode) ca.x2 = LV_MATH_MIN(coords->x1, ca.x2);
 2147              		.loc 1 845 0 is_stmt 0 discriminator 1
 2148 081e 089A     		ldr	r2, [sp, #32]
 2149 0820 1EA9     		add	r1, sp, #120
 2150 0822 15A8     		add	r0, sp, #84
 2151              	.LVL314:
 2152 0824 FFF7FEFF 		bl	_lv_area_is_in
 2153              	.LVL315:
 2154 0828 0028     		cmp	r0, #0
 2155 082a 6BD1     		bne	.L112
 2156              	.LBB309:
 846:lvgl\src\lv_draw/lv_draw_rect.c ****         /*Draw vertical lines*/
 2157              		.loc 1 846 0 is_stmt 1
 2158 082c 4EB1     		cbz	r6, .L113
 846:lvgl\src\lv_draw/lv_draw_rect.c ****         /*Draw vertical lines*/
 2159              		.loc 1 846 0 is_stmt 0 discriminator 1
 2160 082e BDF95020 		ldrsh	r2, [sp, #80]
 2161 0832 099B     		ldr	r3, [sp, #36]
 2162 0834 B3F90030 		ldrsh	r3, [r3]
 2163 0838 9342     		cmp	r3, r2
 2164 083a A8BF     		it	ge
 2165 083c 1346     		movge	r3, r2
 2166 083e ADF85030 		strh	r3, [sp, #80]	@ movhi
 2167              	.L113:
 2168              	.LVL316:
 2169              	.LBB310:
 2170              	.LBB311:
 112:lvgl\src\lv_draw\../lv_core/../lv_font/../lv_misc/lv_area.h **** }
 2171              		.loc 3 112 0 is_stmt 1
 2172 0842 BDF950B0 		ldrsh	fp, [sp, #80]
 2173 0846 BDF94C20 		ldrsh	r2, [sp, #76]
 2174 084a C2EB0B0B 		rsb	fp, r2, fp
 2175 084e 0BF1010B 		add	fp, fp, #1
 2176 0852 0FFA8BFB 		sxth	fp, fp
 2177              	.LVL317:
 2178              	.LBE311:
 2179              	.LBE310:
 849:lvgl\src\lv_draw/lv_draw_rect.c ****             lv_coord_t h = lv_area_get_height(&ca);
 2180              		.loc 1 849 0
 2181 0856 BBF1000F 		cmp	fp, #0
 2182 085a 53DD     		ble	.L112
 2183              	.LVL318:
 2184              	.LBB312:
 2185              	.LBB313:
 2186              	.LBB314:
 2187              		.loc 3 122 0
 2188 085c BDF95230 		ldrsh	r3, [sp, #82]
 2189 0860 BDF94EA0 		ldrsh	r10, [sp, #78]
 2190 0864 CAEB030A 		rsb	r10, r10, r3
 2191 0868 0AF1010A 		add	r10, r10, #1
 2192 086c 0FFA8AFA 		sxth	r10, r10
 2193              	.LVL319:
 2194              	.LBE314:
 2195              	.LBE313:
 852:lvgl\src\lv_draw/lv_draw_rect.c ****             sh_buf_tmp += ca.x1 - a.x1;
ARM GAS  C:\Users\strap\AppData\Local\Temp\ccsTbppz.s 			page 71


 2196              		.loc 1 852 0
 2197 0870 631E     		subs	r3, r4, #1
 853:lvgl\src\lv_draw/lv_draw_rect.c **** 
 2198              		.loc 1 853 0
 2199 0872 BDF95410 		ldrsh	r1, [sp, #84]
 2200 0876 521A     		subs	r2, r2, r1
 2201 0878 03FB0423 		mla	r3, r3, r4, r2
 2202 087c 079A     		ldr	r2, [sp, #28]
 2203 087e D318     		adds	r3, r2, r3
 2204 0880 0A93     		str	r3, [sp, #40]
 2205              	.LVL320:
 2206              	.LBB315:
 2207              	.LBB316:
 2208              	.LBB317:
 217:lvgl\src\lv_draw\../lv_core/../lv_font/../lv_misc/lv_mem.h **** 
 2209              		.loc 2 217 0
 2210 0882 13A9     		add	r1, sp, #76
 2211              	.LVL321:
 216:lvgl\src\lv_draw\../lv_core/../lv_font/../lv_misc/lv_mem.h ****     const uint8_t * s8 = (const uint8_t *)src;
 2212              		.loc 2 216 0
 2213 0884 11AA     		add	r2, sp, #68
 2214              	.LVL322:
 2215              	.LBE317:
 2216              	.LBE316:
 2217              	.LBE315:
 853:lvgl\src\lv_draw/lv_draw_rect.c **** 
 2218              		.loc 1 853 0
 2219 0886 0823     		movs	r3, #8
 2220              	.LVL323:
 2221 0888 04E0     		b	.L114
 2222              	.LVL324:
 2223              	.L115:
 2224              	.LBB320:
 2225              	.LBB319:
 2226              	.LBB318:
 220:lvgl\src\lv_draw\../lv_core/../lv_font/../lv_misc/lv_mem.h ****         d8++;
 2227              		.loc 2 220 0
 2228 088a 11F8010B 		ldrb	r0, [r1], #1	@ zero_extendqisi2
 2229              	.LVL325:
 2230 088e 02F8010B 		strb	r0, [r2], #1
 2231              	.LVL326:
 2232              		.loc 2 223 0
 2233 0892 013B     		subs	r3, r3, #1
 2234              	.LVL327:
 2235              	.L114:
 219:lvgl\src\lv_draw\../lv_core/../lv_font/../lv_misc/lv_mem.h ****         *d8 = *s8;
 2236              		.loc 2 219 0
 2237 0894 002B     		cmp	r3, #0
 2238 0896 F8D1     		bne	.L115
 2239              	.LVL328:
 2240              	.LBE318:
 2241              	.LBE319:
 2242              	.LBE320:
 857:lvgl\src\lv_draw/lv_draw_rect.c ****             for(y = 0; y < h; y++) {
 2243              		.loc 1 857 0
 2244 0898 BDF94630 		ldrsh	r3, [sp, #70]
 2245 089c ADF84A30 		strh	r3, [sp, #74]	@ movhi
ARM GAS  C:\Users\strap\AppData\Local\Temp\ccsTbppz.s 			page 72


 2246              	.LVL329:
 858:lvgl\src\lv_draw/lv_draw_rect.c ****                 _lv_memcpy(mask_buf, sh_buf_tmp, w);
 2247              		.loc 1 858 0
 2248 08a0 4FF00009 		mov	r9, #0
 2249 08a4 2CE0     		b	.L116
 2250              	.LVL330:
 2251              	.L118:
 859:lvgl\src\lv_draw/lv_draw_rect.c ****                 if(simple_mode) {
 2252              		.loc 1 859 0
 2253 08a6 5A46     		mov	r2, fp
 2254 08a8 0A99     		ldr	r1, [sp, #40]
 2255 08aa 0598     		ldr	r0, [sp, #20]
 2256 08ac FFF7FEFF 		bl	_lv_memcpy
 2257              	.LVL331:
 860:lvgl\src\lv_draw/lv_draw_rect.c ****                     mask_res = LV_DRAW_MASK_RES_CHANGED;
 2258              		.loc 1 860 0
 2259 08b0 56B9     		cbnz	r6, .L155
 864:lvgl\src\lv_draw/lv_draw_rect.c ****                     if(mask_res == LV_DRAW_MASK_RES_FULL_COVER) mask_res = LV_DRAW_MASK_RES_CHANGED
 2260              		.loc 1 864 0
 2261 08b2 5B46     		mov	r3, fp
 2262 08b4 BDF94620 		ldrsh	r2, [sp, #70]
 2263 08b8 BDF94410 		ldrsh	r1, [sp, #68]
 2264 08bc 0598     		ldr	r0, [sp, #20]
 2265 08be FFF7FEFF 		bl	lv_draw_mask_apply
 2266              	.LVL332:
 865:lvgl\src\lv_draw/lv_draw_rect.c ****                 }
 2267              		.loc 1 865 0
 2268 08c2 0128     		cmp	r0, #1
 2269 08c4 03D1     		bne	.L117
 2270 08c6 01E0     		b	.L156
 2271              	.LVL333:
 2272              	.L155:
 861:lvgl\src\lv_draw/lv_draw_rect.c ****                 }
 2273              		.loc 1 861 0
 2274 08c8 0220     		movs	r0, #2
 2275 08ca 00E0     		b	.L117
 2276              	.LVL334:
 2277              	.L156:
 865:lvgl\src\lv_draw/lv_draw_rect.c ****                 }
 2278              		.loc 1 865 0
 2279 08cc 0220     		movs	r0, #2
 2280              	.LVL335:
 2281              	.L117:
 868:lvgl\src\lv_draw/lv_draw_rect.c ****                                dsc->shadow_color, mask_buf, mask_res, dsc->shadow_opa, dsc->shadow_
 2282              		.loc 1 868 0 discriminator 2
 2283 08ce 95F82B30 		ldrb	r3, [r5, #43]	@ zero_extendqisi2
 2284 08d2 0293     		str	r3, [sp, #8]
 2285 08d4 95F82A30 		ldrb	r3, [r5, #42]	@ zero_extendqisi2
 2286 08d8 0193     		str	r3, [sp, #4]
 2287 08da 0090     		str	r0, [sp]
 2288 08dc 059B     		ldr	r3, [sp, #20]
 2289 08de 2A8C     		ldrh	r2, [r5, #32]
 2290 08e0 11A9     		add	r1, sp, #68
 2291 08e2 0698     		ldr	r0, [sp, #24]
 2292              	.LVL336:
 2293 08e4 FFF7FEFF 		bl	_lv_blend_fill
 2294              	.LVL337:
ARM GAS  C:\Users\strap\AppData\Local\Temp\ccsTbppz.s 			page 73


 870:lvgl\src\lv_draw/lv_draw_rect.c ****                 fa.y2++;
 2295              		.loc 1 870 0 discriminator 2
 2296 08e8 BDF94630 		ldrsh	r3, [sp, #70]
 2297 08ec 0133     		adds	r3, r3, #1
 2298 08ee ADF84630 		strh	r3, [sp, #70]	@ movhi
 871:lvgl\src\lv_draw/lv_draw_rect.c ****             }
 2299              		.loc 1 871 0 discriminator 2
 2300 08f2 BDF94A30 		ldrsh	r3, [sp, #74]
 2301 08f6 0133     		adds	r3, r3, #1
 2302 08f8 ADF84A30 		strh	r3, [sp, #74]	@ movhi
 858:lvgl\src\lv_draw/lv_draw_rect.c ****                 _lv_memcpy(mask_buf, sh_buf_tmp, w);
 2303              		.loc 1 858 0 discriminator 2
 2304 08fc 09F10109 		add	r9, r9, #1
 2305              	.LVL338:
 2306              	.L116:
 858:lvgl\src\lv_draw/lv_draw_rect.c ****                 _lv_memcpy(mask_buf, sh_buf_tmp, w);
 2307              		.loc 1 858 0 is_stmt 0 discriminator 1
 2308 0900 D145     		cmp	r9, r10
 2309 0902 D0DB     		blt	.L118
 2310              	.LVL339:
 2311              	.L112:
 2312              	.LBE312:
 2313              	.LBE309:
 877:lvgl\src\lv_draw/lv_draw_rect.c ****     a.x2 = sh_area.x2 - corner_size;
 2314              		.loc 1 877 0 is_stmt 1
 2315 0904 BDF98830 		ldrsh	r3, [sp, #136]
 2316 0908 3B44     		add	r3, r3, r7
 2317 090a ADF85430 		strh	r3, [sp, #84]	@ movhi
 878:lvgl\src\lv_draw/lv_draw_rect.c ****     a.y1 = sh_area.y1;
 2318              		.loc 1 878 0
 2319 090e BDF98C30 		ldrsh	r3, [sp, #140]
 2320 0912 DB1B     		subs	r3, r3, r7
 2321 0914 ADF85830 		strh	r3, [sp, #88]	@ movhi
 879:lvgl\src\lv_draw/lv_draw_rect.c ****     a.y2 = sh_area.y1 + corner_size - 1;
 2322              		.loc 1 879 0
 2323 0918 BDF98A30 		ldrsh	r3, [sp, #138]
 2324 091c ADF85630 		strh	r3, [sp, #86]	@ movhi
 880:lvgl\src\lv_draw/lv_draw_rect.c **** 
 2325              		.loc 1 880 0
 2326 0920 3B44     		add	r3, r3, r7
 2327 0922 013B     		subs	r3, r3, #1
 2328 0924 ADF85A30 		strh	r3, [sp, #90]	@ movhi
 882:lvgl\src\lv_draw/lv_draw_rect.c ****     if(has_com && _lv_area_is_in(&a, &bg_coords, r_bg) == false) {
 2329              		.loc 1 882 0
 2330 0928 069A     		ldr	r2, [sp, #24]
 2331 092a 15A9     		add	r1, sp, #84
 2332 092c 13A8     		add	r0, sp, #76
 2333 092e FFF7FEFF 		bl	_lv_area_intersect
 2334              	.LVL340:
 883:lvgl\src\lv_draw/lv_draw_rect.c ****         if(simple_mode) ca.y2 = LV_MATH_MIN(ca.y2, coords->y1);
 2335              		.loc 1 883 0
 2336 0932 0028     		cmp	r0, #0
 2337 0934 7BD0     		beq	.L119
 883:lvgl\src\lv_draw/lv_draw_rect.c ****         if(simple_mode) ca.y2 = LV_MATH_MIN(ca.y2, coords->y1);
 2338              		.loc 1 883 0 is_stmt 0 discriminator 1
 2339 0936 089A     		ldr	r2, [sp, #32]
 2340 0938 1EA9     		add	r1, sp, #120
ARM GAS  C:\Users\strap\AppData\Local\Temp\ccsTbppz.s 			page 74


 2341 093a 15A8     		add	r0, sp, #84
 2342              	.LVL341:
 2343 093c FFF7FEFF 		bl	_lv_area_is_in
 2344              	.LVL342:
 2345 0940 0028     		cmp	r0, #0
 2346 0942 74D1     		bne	.L119
 2347              	.LBB321:
 884:lvgl\src\lv_draw/lv_draw_rect.c ****         /*Draw horizontal lines*/
 2348              		.loc 1 884 0 is_stmt 1
 2349 0944 4EB1     		cbz	r6, .L120
 884:lvgl\src\lv_draw/lv_draw_rect.c ****         /*Draw horizontal lines*/
 2350              		.loc 1 884 0 is_stmt 0 discriminator 1
 2351 0946 099B     		ldr	r3, [sp, #36]
 2352 0948 B3F90220 		ldrsh	r2, [r3, #2]
 2353 094c BDF95230 		ldrsh	r3, [sp, #82]
 2354 0950 9342     		cmp	r3, r2
 2355 0952 A8BF     		it	ge
 2356 0954 1346     		movge	r3, r2
 2357 0956 ADF85230 		strh	r3, [sp, #82]	@ movhi
 2358              	.L120:
 2359              	.LVL343:
 2360              	.LBB322:
 2361              	.LBB323:
 112:lvgl\src\lv_draw\../lv_core/../lv_font/../lv_misc/lv_area.h **** }
 2362              		.loc 3 112 0 is_stmt 1
 2363 095a BDF95030 		ldrsh	r3, [sp, #80]
 2364 095e BDF94C20 		ldrsh	r2, [sp, #76]
 2365 0962 9B1A     		subs	r3, r3, r2
 2366 0964 0133     		adds	r3, r3, #1
 2367 0966 1BB2     		sxth	r3, r3
 2368 0968 0A93     		str	r3, [sp, #40]
 2369              	.LVL344:
 2370              	.LBE323:
 2371              	.LBE322:
 2372              	.LBB324:
 2373              	.LBB325:
 2374              		.loc 3 122 0
 2375 096a BDF952B0 		ldrsh	fp, [sp, #82]
 2376 096e BDF94E30 		ldrsh	r3, [sp, #78]
 2377 0972 C3EB0B0B 		rsb	fp, r3, fp
 2378 0976 0BF1010B 		add	fp, fp, #1
 2379 097a 0FFA8BFB 		sxth	fp, fp
 2380              	.LVL345:
 2381              	.LBE325:
 2382              	.LBE324:
 888:lvgl\src\lv_draw/lv_draw_rect.c ****         sh_buf_tmp += corner_size * (ca.y1 - a.y1);
 2383              		.loc 1 888 0
 2384 097e A646     		mov	lr, r4
 2385 0980 04F1FF39 		add	r9, r4, #-1
 889:lvgl\src\lv_draw/lv_draw_rect.c **** 
 2386              		.loc 1 889 0
 2387 0984 BDF95620 		ldrsh	r2, [sp, #86]
 2388 0988 9B1A     		subs	r3, r3, r2
 2389 098a 03FB0499 		mla	r9, r3, r4, r9
 2390 098e 079B     		ldr	r3, [sp, #28]
 2391 0990 9944     		add	r9, r9, r3
 2392              	.LVL346:
ARM GAS  C:\Users\strap\AppData\Local\Temp\ccsTbppz.s 			page 75


 2393              	.LBB326:
 2394              	.LBB327:
 2395              	.LBB328:
 217:lvgl\src\lv_draw\../lv_core/../lv_font/../lv_misc/lv_mem.h **** 
 2396              		.loc 2 217 0
 2397 0992 13A9     		add	r1, sp, #76
 2398              	.LVL347:
 216:lvgl\src\lv_draw\../lv_core/../lv_font/../lv_misc/lv_mem.h ****     const uint8_t * s8 = (const uint8_t *)src;
 2399              		.loc 2 216 0
 2400 0994 11AA     		add	r2, sp, #68
 2401              	.LVL348:
 2402              	.LBE328:
 2403              	.LBE327:
 2404              	.LBE326:
 889:lvgl\src\lv_draw/lv_draw_rect.c **** 
 2405              		.loc 1 889 0
 2406 0996 0823     		movs	r3, #8
 2407 0998 04E0     		b	.L121
 2408              	.LVL349:
 2409              	.L122:
 2410              	.LBB331:
 2411              	.LBB330:
 2412              	.LBB329:
 220:lvgl\src\lv_draw\../lv_core/../lv_font/../lv_misc/lv_mem.h ****         d8++;
 2413              		.loc 2 220 0
 2414 099a 11F8010B 		ldrb	r0, [r1], #1	@ zero_extendqisi2
 2415              	.LVL350:
 2416 099e 02F8010B 		strb	r0, [r2], #1
 2417              	.LVL351:
 2418              		.loc 2 223 0
 2419 09a2 013B     		subs	r3, r3, #1
 2420              	.LVL352:
 2421              	.L121:
 219:lvgl\src\lv_draw\../lv_core/../lv_font/../lv_misc/lv_mem.h ****         *d8 = *s8;
 2422              		.loc 2 219 0
 2423 09a4 002B     		cmp	r3, #0
 2424 09a6 F8D1     		bne	.L122
 2425              	.LVL353:
 2426              	.LBE329:
 2427              	.LBE330:
 2428              	.LBE331:
 893:lvgl\src\lv_draw/lv_draw_rect.c ****         mask_res = LV_DRAW_MASK_RES_FULL_COVER;
 2429              		.loc 1 893 0
 2430 09a8 BDF94630 		ldrsh	r3, [sp, #70]
 2431 09ac ADF84A30 		strh	r3, [sp, #74]	@ movhi
 2432              	.LVL354:
 895:lvgl\src\lv_draw/lv_draw_rect.c ****             lv_opa_t opa_tmp = sh_buf_tmp[0];
 2433              		.loc 1 895 0
 2434 09b0 4FF0000A 		mov	r10, #0
 2435 09b4 0C94     		str	r4, [sp, #48]
 2436              	.LVL355:
 2437 09b6 7446     		mov	r4, lr
 2438              	.LVL356:
 2439 09b8 36E0     		b	.L123
 2440              	.LVL357:
 2441              	.L127:
 2442              	.LBB332:
ARM GAS  C:\Users\strap\AppData\Local\Temp\ccsTbppz.s 			page 76


 896:lvgl\src\lv_draw/lv_draw_rect.c ****             if(opa_tmp != LV_OPA_COVER || opa != LV_OPA_COVER) opa_tmp = (opa * opa_tmp) >> 8;
 2443              		.loc 1 896 0
 2444 09ba 99F80010 		ldrb	r1, [r9]	@ zero_extendqisi2
 2445              	.LVL358:
 897:lvgl\src\lv_draw/lv_draw_rect.c **** 
 2446              		.loc 1 897 0
 2447 09be FF29     		cmp	r1, #255
 2448 09c0 02D1     		bne	.L124
 897:lvgl\src\lv_draw/lv_draw_rect.c **** 
 2449              		.loc 1 897 0 is_stmt 0 discriminator 2
 2450 09c2 B8F1FF0F 		cmp	r8, #255
 2451 09c6 03D0     		beq	.L125
 2452              	.L124:
 897:lvgl\src\lv_draw/lv_draw_rect.c **** 
 2453              		.loc 1 897 0 discriminator 3
 2454 09c8 01FB08F1 		mul	r1, r1, r8
 2455              	.LVL359:
 2456 09cc C1F30721 		ubfx	r1, r1, #8, #8
 2457              	.LVL360:
 2458              	.L125:
 899:lvgl\src\lv_draw/lv_draw_rect.c **** 
 2459              		.loc 1 899 0 is_stmt 1
 2460 09d0 0A9A     		ldr	r2, [sp, #40]
 2461 09d2 0598     		ldr	r0, [sp, #20]
 2462 09d4 FFF7FEFF 		bl	_lv_memset
 2463              	.LVL361:
 901:lvgl\src\lv_draw/lv_draw_rect.c ****                 mask_res = LV_DRAW_MASK_RES_CHANGED;
 2464              		.loc 1 901 0
 2465 09d8 56B9     		cbnz	r6, .L157
 905:lvgl\src\lv_draw/lv_draw_rect.c ****                 if(mask_res == LV_DRAW_MASK_RES_FULL_COVER) mask_res = LV_DRAW_MASK_RES_CHANGED;
 2466              		.loc 1 905 0
 2467 09da 0A9B     		ldr	r3, [sp, #40]
 2468 09dc BDF94620 		ldrsh	r2, [sp, #70]
 2469 09e0 BDF94410 		ldrsh	r1, [sp, #68]
 2470 09e4 0598     		ldr	r0, [sp, #20]
 2471 09e6 FFF7FEFF 		bl	lv_draw_mask_apply
 2472              	.LVL362:
 906:lvgl\src\lv_draw/lv_draw_rect.c ****             }
 2473              		.loc 1 906 0
 2474 09ea 0128     		cmp	r0, #1
 2475 09ec 03D1     		bne	.L126
 2476 09ee 01E0     		b	.L158
 2477              	.LVL363:
 2478              	.L157:
 902:lvgl\src\lv_draw/lv_draw_rect.c ****             }
 2479              		.loc 1 902 0
 2480 09f0 0220     		movs	r0, #2
 2481 09f2 00E0     		b	.L126
 2482              	.LVL364:
 2483              	.L158:
 906:lvgl\src\lv_draw/lv_draw_rect.c ****             }
 2484              		.loc 1 906 0
 2485 09f4 0220     		movs	r0, #2
 2486              	.LVL365:
 2487              	.L126:
 909:lvgl\src\lv_draw/lv_draw_rect.c ****                            mask_res, LV_OPA_COVER, dsc->shadow_blend_mode);
 2488              		.loc 1 909 0 discriminator 2
ARM GAS  C:\Users\strap\AppData\Local\Temp\ccsTbppz.s 			page 77


 2489 09f6 95F82B30 		ldrb	r3, [r5, #43]	@ zero_extendqisi2
 2490 09fa 0293     		str	r3, [sp, #8]
 2491 09fc FF23     		movs	r3, #255
 2492 09fe 0193     		str	r3, [sp, #4]
 2493 0a00 0090     		str	r0, [sp]
 2494 0a02 059B     		ldr	r3, [sp, #20]
 2495 0a04 2A8C     		ldrh	r2, [r5, #32]
 2496 0a06 11A9     		add	r1, sp, #68
 2497 0a08 0698     		ldr	r0, [sp, #24]
 2498              	.LVL366:
 2499 0a0a FFF7FEFF 		bl	_lv_blend_fill
 2500              	.LVL367:
 911:lvgl\src\lv_draw/lv_draw_rect.c ****             fa.y2++;
 2501              		.loc 1 911 0 discriminator 2
 2502 0a0e BDF94630 		ldrsh	r3, [sp, #70]
 2503 0a12 0133     		adds	r3, r3, #1
 2504 0a14 ADF84630 		strh	r3, [sp, #70]	@ movhi
 912:lvgl\src\lv_draw/lv_draw_rect.c ****             sh_buf_tmp += corner_size;
 2505              		.loc 1 912 0 discriminator 2
 2506 0a18 BDF94A30 		ldrsh	r3, [sp, #74]
 2507 0a1c 0133     		adds	r3, r3, #1
 2508 0a1e ADF84A30 		strh	r3, [sp, #74]	@ movhi
 913:lvgl\src\lv_draw/lv_draw_rect.c ****         }
 2509              		.loc 1 913 0 discriminator 2
 2510 0a22 A144     		add	r9, r9, r4
 2511              	.LVL368:
 2512              	.LBE332:
 895:lvgl\src\lv_draw/lv_draw_rect.c ****             lv_opa_t opa_tmp = sh_buf_tmp[0];
 2513              		.loc 1 895 0 discriminator 2
 2514 0a24 0AF1010A 		add	r10, r10, #1
 2515              	.LVL369:
 2516              	.L123:
 895:lvgl\src\lv_draw/lv_draw_rect.c ****             lv_opa_t opa_tmp = sh_buf_tmp[0];
 2517              		.loc 1 895 0 is_stmt 0 discriminator 1
 2518 0a28 DA45     		cmp	r10, fp
 2519 0a2a C6DB     		blt	.L127
 2520 0a2c 0C9C     		ldr	r4, [sp, #48]
 2521              	.LVL370:
 2522              	.L119:
 2523              	.LBE321:
 919:lvgl\src\lv_draw/lv_draw_rect.c ****     a.x2 = sh_area.x2 - corner_size;
 2524              		.loc 1 919 0 is_stmt 1
 2525 0a2e BDF98830 		ldrsh	r3, [sp, #136]
 2526 0a32 3B44     		add	r3, r3, r7
 2527 0a34 ADF85430 		strh	r3, [sp, #84]	@ movhi
 920:lvgl\src\lv_draw/lv_draw_rect.c ****     a.y1 = sh_area.y2 - corner_size + 1;
 2528              		.loc 1 920 0
 2529 0a38 BDF98C30 		ldrsh	r3, [sp, #140]
 2530 0a3c DB1B     		subs	r3, r3, r7
 2531 0a3e ADF85830 		strh	r3, [sp, #88]	@ movhi
 921:lvgl\src\lv_draw/lv_draw_rect.c ****     a.y2 = sh_area.y2;
 2532              		.loc 1 921 0
 2533 0a42 BDF98E20 		ldrsh	r2, [sp, #142]
 2534 0a46 D31B     		subs	r3, r2, r7
 2535 0a48 0133     		adds	r3, r3, #1
 2536 0a4a ADF85630 		strh	r3, [sp, #86]	@ movhi
 922:lvgl\src\lv_draw/lv_draw_rect.c **** 
ARM GAS  C:\Users\strap\AppData\Local\Temp\ccsTbppz.s 			page 78


 2537              		.loc 1 922 0
 2538 0a4e ADF85A20 		strh	r2, [sp, #90]	@ movhi
 924:lvgl\src\lv_draw/lv_draw_rect.c ****     if(has_com && _lv_area_is_in(&a, &bg_coords, r_bg) == false) {
 2539              		.loc 1 924 0
 2540 0a52 069A     		ldr	r2, [sp, #24]
 2541 0a54 15A9     		add	r1, sp, #84
 2542 0a56 13A8     		add	r0, sp, #76
 2543 0a58 FFF7FEFF 		bl	_lv_area_intersect
 2544              	.LVL371:
 925:lvgl\src\lv_draw/lv_draw_rect.c ****         if(simple_mode) ca.y1 = LV_MATH_MAX(ca.y1, coords->y2);
 2545              		.loc 1 925 0
 2546 0a5c 0028     		cmp	r0, #0
 2547 0a5e 76D0     		beq	.L128
 925:lvgl\src\lv_draw/lv_draw_rect.c ****         if(simple_mode) ca.y1 = LV_MATH_MAX(ca.y1, coords->y2);
 2548              		.loc 1 925 0 is_stmt 0 discriminator 1
 2549 0a60 089A     		ldr	r2, [sp, #32]
 2550 0a62 1EA9     		add	r1, sp, #120
 2551 0a64 15A8     		add	r0, sp, #84
 2552              	.LVL372:
 2553 0a66 FFF7FEFF 		bl	_lv_area_is_in
 2554              	.LVL373:
 2555 0a6a 0028     		cmp	r0, #0
 2556 0a6c 6FD1     		bne	.L128
 2557              	.LBB333:
 926:lvgl\src\lv_draw/lv_draw_rect.c ****         /*Draw horizontal lines*/
 2558              		.loc 1 926 0 is_stmt 1
 2559 0a6e 4EB1     		cbz	r6, .L129
 926:lvgl\src\lv_draw/lv_draw_rect.c ****         /*Draw horizontal lines*/
 2560              		.loc 1 926 0 is_stmt 0 discriminator 1
 2561 0a70 099B     		ldr	r3, [sp, #36]
 2562 0a72 B3F90620 		ldrsh	r2, [r3, #6]
 2563 0a76 BDF94E30 		ldrsh	r3, [sp, #78]
 2564 0a7a 9342     		cmp	r3, r2
 2565 0a7c B8BF     		it	lt
 2566 0a7e 1346     		movlt	r3, r2
 2567 0a80 ADF84E30 		strh	r3, [sp, #78]	@ movhi
 2568              	.L129:
 2569              	.LVL374:
 2570              	.LBB334:
 2571              	.LBB335:
 112:lvgl\src\lv_draw\../lv_core/../lv_font/../lv_misc/lv_area.h **** }
 2572              		.loc 3 112 0 is_stmt 1
 2573 0a84 BDF95030 		ldrsh	r3, [sp, #80]
 2574 0a88 BDF94C20 		ldrsh	r2, [sp, #76]
 2575 0a8c 9B1A     		subs	r3, r3, r2
 2576 0a8e 0133     		adds	r3, r3, #1
 2577 0a90 1BB2     		sxth	r3, r3
 2578 0a92 0993     		str	r3, [sp, #36]
 2579              	.LVL375:
 2580              	.LBE335:
 2581              	.LBE334:
 2582              	.LBB336:
 2583              	.LBB337:
 2584              		.loc 3 122 0
 2585 0a94 BDF95220 		ldrsh	r2, [sp, #82]
 2586 0a98 BDF94E90 		ldrsh	r9, [sp, #78]
 2587 0a9c C9EB0209 		rsb	r9, r9, r2
ARM GAS  C:\Users\strap\AppData\Local\Temp\ccsTbppz.s 			page 79


 2588 0aa0 09F10109 		add	r9, r9, #1
 2589 0aa4 0FFA89F9 		sxth	r9, r9
 2590              	.LVL376:
 2591              	.LBE337:
 2592              	.LBE336:
 930:lvgl\src\lv_draw/lv_draw_rect.c ****         sh_buf_tmp += corner_size * (a.y2 - ca.y2);
 2593              		.loc 1 930 0
 2594 0aa8 A246     		mov	r10, r4
 2595 0aaa 611E     		subs	r1, r4, #1
 2596              	.LVL377:
 931:lvgl\src\lv_draw/lv_draw_rect.c **** 
 2597              		.loc 1 931 0
 2598 0aac BDF95A30 		ldrsh	r3, [sp, #90]
 2599 0ab0 9B1A     		subs	r3, r3, r2
 2600 0ab2 03FB0414 		mla	r4, r3, r4, r1
 2601 0ab6 079B     		ldr	r3, [sp, #28]
 2602 0ab8 1C44     		add	r4, r4, r3
 2603              	.LVL378:
 2604              	.LBB338:
 2605              	.LBB339:
 2606              	.LBB340:
 217:lvgl\src\lv_draw\../lv_core/../lv_font/../lv_misc/lv_mem.h **** 
 2607              		.loc 2 217 0
 2608 0aba 13A9     		add	r1, sp, #76
 2609              	.LVL379:
 216:lvgl\src\lv_draw\../lv_core/../lv_font/../lv_misc/lv_mem.h ****     const uint8_t * s8 = (const uint8_t *)src;
 2610              		.loc 2 216 0
 2611 0abc 11AA     		add	r2, sp, #68
 2612              	.LVL380:
 2613              	.LBE340:
 2614              	.LBE339:
 2615              	.LBE338:
 931:lvgl\src\lv_draw/lv_draw_rect.c **** 
 2616              		.loc 1 931 0
 2617 0abe 0823     		movs	r3, #8
 2618 0ac0 04E0     		b	.L130
 2619              	.LVL381:
 2620              	.L131:
 2621              	.LBB343:
 2622              	.LBB342:
 2623              	.LBB341:
 220:lvgl\src\lv_draw\../lv_core/../lv_font/../lv_misc/lv_mem.h ****         d8++;
 2624              		.loc 2 220 0
 2625 0ac2 11F8010B 		ldrb	r0, [r1], #1	@ zero_extendqisi2
 2626              	.LVL382:
