ARM GAS  C:\Users\strap\AppData\Local\Temp\ccUgAYbc.s 			page 1


   1              		.syntax unified
   2              		.cpu cortex-m3
   3              		.fpu softvfp
   4              		.eabi_attribute 20, 1
   5              		.eabi_attribute 21, 1
   6              		.eabi_attribute 23, 3
   7              		.eabi_attribute 24, 1
   8              		.eabi_attribute 25, 1
   9              		.eabi_attribute 26, 1
  10              		.eabi_attribute 30, 1
  11              		.eabi_attribute 34, 1
  12              		.eabi_attribute 18, 4
  13              		.thumb
  14              		.syntax unified
  15              		.file	"lv_draw_img.c"
  16              		.text
  17              	.Ltext0:
  18              		.cfi_sections	.debug_frame
  19              		.section	.text.lv_draw_map,"ax",%progbits
  20              		.align	2
  21              		.thumb
  22              		.thumb_func
  23              		.type	lv_draw_map, %function
  24              	lv_draw_map:
  25              	.LFB335:
  26              		.file 1 "lvgl\\src\\lv_draw\\lv_draw_img.c"
   1:lvgl\src\lv_draw/lv_draw_img.c **** /**
   2:lvgl\src\lv_draw/lv_draw_img.c ****  * @file lv_draw_img.c
   3:lvgl\src\lv_draw/lv_draw_img.c ****  *
   4:lvgl\src\lv_draw/lv_draw_img.c ****  */
   5:lvgl\src\lv_draw/lv_draw_img.c **** 
   6:lvgl\src\lv_draw/lv_draw_img.c **** /*********************
   7:lvgl\src\lv_draw/lv_draw_img.c ****  *      INCLUDES
   8:lvgl\src\lv_draw/lv_draw_img.c ****  *********************/
   9:lvgl\src\lv_draw/lv_draw_img.c **** #include "lv_draw_img.h"
  10:lvgl\src\lv_draw/lv_draw_img.c **** #include "lv_img_cache.h"
  11:lvgl\src\lv_draw/lv_draw_img.c **** #include "../lv_hal/lv_hal_disp.h"
  12:lvgl\src\lv_draw/lv_draw_img.c **** #include "../lv_misc/lv_log.h"
  13:lvgl\src\lv_draw/lv_draw_img.c **** #include "../lv_core/lv_refr.h"
  14:lvgl\src\lv_draw/lv_draw_img.c **** #include "../lv_misc/lv_mem.h"
  15:lvgl\src\lv_draw/lv_draw_img.c **** #include "../lv_misc/lv_math.h"
  16:lvgl\src\lv_draw/lv_draw_img.c **** #if LV_USE_GPU_STM32_DMA2D
  17:lvgl\src\lv_draw/lv_draw_img.c **** #include "../lv_gpu/lv_gpu_stm32_dma2d.h"
  18:lvgl\src\lv_draw/lv_draw_img.c **** #elif LV_USE_GPU_NXP_PXP
  19:lvgl\src\lv_draw/lv_draw_img.c ****     #include "../lv_gpu/lv_gpu_nxp_pxp.h"
  20:lvgl\src\lv_draw/lv_draw_img.c **** #endif
  21:lvgl\src\lv_draw/lv_draw_img.c **** 
  22:lvgl\src\lv_draw/lv_draw_img.c **** /*********************
  23:lvgl\src\lv_draw/lv_draw_img.c ****  *      DEFINES
  24:lvgl\src\lv_draw/lv_draw_img.c ****  *********************/
  25:lvgl\src\lv_draw/lv_draw_img.c **** 
  26:lvgl\src\lv_draw/lv_draw_img.c **** /**********************
  27:lvgl\src\lv_draw/lv_draw_img.c ****  *      TYPEDEFS
  28:lvgl\src\lv_draw/lv_draw_img.c ****  **********************/
  29:lvgl\src\lv_draw/lv_draw_img.c **** 
  30:lvgl\src\lv_draw/lv_draw_img.c **** /**********************
  31:lvgl\src\lv_draw/lv_draw_img.c ****  *  STATIC PROTOTYPES
ARM GAS  C:\Users\strap\AppData\Local\Temp\ccUgAYbc.s 			page 2


  32:lvgl\src\lv_draw/lv_draw_img.c ****  **********************/
  33:lvgl\src\lv_draw/lv_draw_img.c **** LV_ATTRIBUTE_FAST_MEM static lv_res_t lv_img_draw_core(const lv_area_t * coords, const lv_area_t * 
  34:lvgl\src\lv_draw/lv_draw_img.c ****                                                        const void * src,
  35:lvgl\src\lv_draw/lv_draw_img.c ****                                                        const lv_draw_img_dsc_t * draw_dsc);
  36:lvgl\src\lv_draw/lv_draw_img.c **** 
  37:lvgl\src\lv_draw/lv_draw_img.c **** LV_ATTRIBUTE_FAST_MEM static void lv_draw_map(const lv_area_t * map_area, const lv_area_t * clip_ar
  38:lvgl\src\lv_draw/lv_draw_img.c ****                                               const uint8_t * map_p,
  39:lvgl\src\lv_draw/lv_draw_img.c ****                                               const lv_draw_img_dsc_t * draw_dsc,
  40:lvgl\src\lv_draw/lv_draw_img.c ****                                               bool chroma_key, bool alpha_byte);
  41:lvgl\src\lv_draw/lv_draw_img.c **** 
  42:lvgl\src\lv_draw/lv_draw_img.c **** static void show_error(const lv_area_t * coords, const lv_area_t * clip_area, const char * msg);
  43:lvgl\src\lv_draw/lv_draw_img.c **** 
  44:lvgl\src\lv_draw/lv_draw_img.c **** /**********************
  45:lvgl\src\lv_draw/lv_draw_img.c ****  *  STATIC VARIABLES
  46:lvgl\src\lv_draw/lv_draw_img.c ****  **********************/
  47:lvgl\src\lv_draw/lv_draw_img.c **** 
  48:lvgl\src\lv_draw/lv_draw_img.c **** /**********************
  49:lvgl\src\lv_draw/lv_draw_img.c ****  *      MACROS
  50:lvgl\src\lv_draw/lv_draw_img.c ****  **********************/
  51:lvgl\src\lv_draw/lv_draw_img.c **** 
  52:lvgl\src\lv_draw/lv_draw_img.c **** /**********************
  53:lvgl\src\lv_draw/lv_draw_img.c ****  *   GLOBAL FUNCTIONS
  54:lvgl\src\lv_draw/lv_draw_img.c ****  **********************/
  55:lvgl\src\lv_draw/lv_draw_img.c **** 
  56:lvgl\src\lv_draw/lv_draw_img.c **** void lv_draw_img_dsc_init(lv_draw_img_dsc_t * dsc)
  57:lvgl\src\lv_draw/lv_draw_img.c **** {
  58:lvgl\src\lv_draw/lv_draw_img.c ****     _lv_memset_00(dsc, sizeof(lv_draw_img_dsc_t));
  59:lvgl\src\lv_draw/lv_draw_img.c ****     dsc->recolor = LV_COLOR_BLACK;
  60:lvgl\src\lv_draw/lv_draw_img.c ****     dsc->opa = LV_OPA_COVER;
  61:lvgl\src\lv_draw/lv_draw_img.c ****     dsc->zoom = LV_IMG_ZOOM_NONE;
  62:lvgl\src\lv_draw/lv_draw_img.c ****     dsc->antialias = LV_ANTIALIAS;
  63:lvgl\src\lv_draw/lv_draw_img.c **** 
  64:lvgl\src\lv_draw/lv_draw_img.c **** }
  65:lvgl\src\lv_draw/lv_draw_img.c **** 
  66:lvgl\src\lv_draw/lv_draw_img.c **** /**
  67:lvgl\src\lv_draw/lv_draw_img.c ****  * Draw an image
  68:lvgl\src\lv_draw/lv_draw_img.c ****  * @param coords the coordinates of the image
  69:lvgl\src\lv_draw/lv_draw_img.c ****  * @param mask the image will be drawn only in this area
  70:lvgl\src\lv_draw/lv_draw_img.c ****  * @param src pointer to a lv_color_t array which contains the pixels of the image
  71:lvgl\src\lv_draw/lv_draw_img.c ****  * @param dsc pointer to an initialized `lv_draw_img_dsc_t` variable
  72:lvgl\src\lv_draw/lv_draw_img.c ****  */
  73:lvgl\src\lv_draw/lv_draw_img.c **** void lv_draw_img(const lv_area_t * coords, const lv_area_t * mask, const void * src, const lv_draw_
  74:lvgl\src\lv_draw/lv_draw_img.c **** {
  75:lvgl\src\lv_draw/lv_draw_img.c ****     if(src == NULL) {
  76:lvgl\src\lv_draw/lv_draw_img.c ****         LV_LOG_WARN("Image draw: src is NULL");
  77:lvgl\src\lv_draw/lv_draw_img.c ****         show_error(coords, mask, "No\ndata");
  78:lvgl\src\lv_draw/lv_draw_img.c ****         return;
  79:lvgl\src\lv_draw/lv_draw_img.c ****     }
  80:lvgl\src\lv_draw/lv_draw_img.c **** 
  81:lvgl\src\lv_draw/lv_draw_img.c ****     if(dsc->opa <= LV_OPA_MIN) return;
  82:lvgl\src\lv_draw/lv_draw_img.c **** 
  83:lvgl\src\lv_draw/lv_draw_img.c ****     lv_res_t res;
  84:lvgl\src\lv_draw/lv_draw_img.c ****     res = lv_img_draw_core(coords, mask, src, dsc);
  85:lvgl\src\lv_draw/lv_draw_img.c **** 
  86:lvgl\src\lv_draw/lv_draw_img.c ****     if(res == LV_RES_INV) {
  87:lvgl\src\lv_draw/lv_draw_img.c ****         LV_LOG_WARN("Image draw error");
  88:lvgl\src\lv_draw/lv_draw_img.c ****         show_error(coords, mask, "No\ndata");
ARM GAS  C:\Users\strap\AppData\Local\Temp\ccUgAYbc.s 			page 3


  89:lvgl\src\lv_draw/lv_draw_img.c ****         return;
  90:lvgl\src\lv_draw/lv_draw_img.c ****     }
  91:lvgl\src\lv_draw/lv_draw_img.c **** }
  92:lvgl\src\lv_draw/lv_draw_img.c **** 
  93:lvgl\src\lv_draw/lv_draw_img.c **** /**
  94:lvgl\src\lv_draw/lv_draw_img.c ****  * Get the pixel size of a color format in bits
  95:lvgl\src\lv_draw/lv_draw_img.c ****  * @param cf a color format (`LV_IMG_CF_...`)
  96:lvgl\src\lv_draw/lv_draw_img.c ****  * @return the pixel size in bits
  97:lvgl\src\lv_draw/lv_draw_img.c ****  */
  98:lvgl\src\lv_draw/lv_draw_img.c **** uint8_t lv_img_cf_get_px_size(lv_img_cf_t cf)
  99:lvgl\src\lv_draw/lv_draw_img.c **** {
 100:lvgl\src\lv_draw/lv_draw_img.c ****     uint8_t px_size = 0;
 101:lvgl\src\lv_draw/lv_draw_img.c **** 
 102:lvgl\src\lv_draw/lv_draw_img.c ****     switch(cf) {
 103:lvgl\src\lv_draw/lv_draw_img.c ****         case LV_IMG_CF_UNKNOWN:
 104:lvgl\src\lv_draw/lv_draw_img.c ****         case LV_IMG_CF_RAW:
 105:lvgl\src\lv_draw/lv_draw_img.c ****             px_size = 0;
 106:lvgl\src\lv_draw/lv_draw_img.c ****             break;
 107:lvgl\src\lv_draw/lv_draw_img.c ****         case LV_IMG_CF_TRUE_COLOR:
 108:lvgl\src\lv_draw/lv_draw_img.c ****         case LV_IMG_CF_TRUE_COLOR_CHROMA_KEYED:
 109:lvgl\src\lv_draw/lv_draw_img.c ****             px_size = LV_COLOR_SIZE;
 110:lvgl\src\lv_draw/lv_draw_img.c ****             break;
 111:lvgl\src\lv_draw/lv_draw_img.c ****         case LV_IMG_CF_TRUE_COLOR_ALPHA:
 112:lvgl\src\lv_draw/lv_draw_img.c ****             px_size = LV_IMG_PX_SIZE_ALPHA_BYTE << 3;
 113:lvgl\src\lv_draw/lv_draw_img.c ****             break;
 114:lvgl\src\lv_draw/lv_draw_img.c ****         case LV_IMG_CF_INDEXED_1BIT:
 115:lvgl\src\lv_draw/lv_draw_img.c ****         case LV_IMG_CF_ALPHA_1BIT:
 116:lvgl\src\lv_draw/lv_draw_img.c ****             px_size = 1;
 117:lvgl\src\lv_draw/lv_draw_img.c ****             break;
 118:lvgl\src\lv_draw/lv_draw_img.c ****         case LV_IMG_CF_INDEXED_2BIT:
 119:lvgl\src\lv_draw/lv_draw_img.c ****         case LV_IMG_CF_ALPHA_2BIT:
 120:lvgl\src\lv_draw/lv_draw_img.c ****             px_size = 2;
 121:lvgl\src\lv_draw/lv_draw_img.c ****             break;
 122:lvgl\src\lv_draw/lv_draw_img.c ****         case LV_IMG_CF_INDEXED_4BIT:
 123:lvgl\src\lv_draw/lv_draw_img.c ****         case LV_IMG_CF_ALPHA_4BIT:
 124:lvgl\src\lv_draw/lv_draw_img.c ****             px_size = 4;
 125:lvgl\src\lv_draw/lv_draw_img.c ****             break;
 126:lvgl\src\lv_draw/lv_draw_img.c ****         case LV_IMG_CF_INDEXED_8BIT:
 127:lvgl\src\lv_draw/lv_draw_img.c ****         case LV_IMG_CF_ALPHA_8BIT:
 128:lvgl\src\lv_draw/lv_draw_img.c ****             px_size = 8;
 129:lvgl\src\lv_draw/lv_draw_img.c ****             break;
 130:lvgl\src\lv_draw/lv_draw_img.c ****         default:
 131:lvgl\src\lv_draw/lv_draw_img.c ****             px_size = 0;
 132:lvgl\src\lv_draw/lv_draw_img.c ****             break;
 133:lvgl\src\lv_draw/lv_draw_img.c ****     }
 134:lvgl\src\lv_draw/lv_draw_img.c **** 
 135:lvgl\src\lv_draw/lv_draw_img.c ****     return px_size;
 136:lvgl\src\lv_draw/lv_draw_img.c **** }
 137:lvgl\src\lv_draw/lv_draw_img.c **** 
 138:lvgl\src\lv_draw/lv_draw_img.c **** /**
 139:lvgl\src\lv_draw/lv_draw_img.c ****  * Check if a color format is chroma keyed or not
 140:lvgl\src\lv_draw/lv_draw_img.c ****  * @param cf a color format (`LV_IMG_CF_...`)
 141:lvgl\src\lv_draw/lv_draw_img.c ****  * @return true: chroma keyed; false: not chroma keyed
 142:lvgl\src\lv_draw/lv_draw_img.c ****  */
 143:lvgl\src\lv_draw/lv_draw_img.c **** bool lv_img_cf_is_chroma_keyed(lv_img_cf_t cf)
 144:lvgl\src\lv_draw/lv_draw_img.c **** {
 145:lvgl\src\lv_draw/lv_draw_img.c ****     bool is_chroma_keyed = false;
ARM GAS  C:\Users\strap\AppData\Local\Temp\ccUgAYbc.s 			page 4


 146:lvgl\src\lv_draw/lv_draw_img.c **** 
 147:lvgl\src\lv_draw/lv_draw_img.c ****     switch(cf) {
 148:lvgl\src\lv_draw/lv_draw_img.c ****         case LV_IMG_CF_TRUE_COLOR_CHROMA_KEYED:
 149:lvgl\src\lv_draw/lv_draw_img.c ****         case LV_IMG_CF_RAW_CHROMA_KEYED:
 150:lvgl\src\lv_draw/lv_draw_img.c ****         case LV_IMG_CF_INDEXED_1BIT:
 151:lvgl\src\lv_draw/lv_draw_img.c ****         case LV_IMG_CF_INDEXED_2BIT:
 152:lvgl\src\lv_draw/lv_draw_img.c ****         case LV_IMG_CF_INDEXED_4BIT:
 153:lvgl\src\lv_draw/lv_draw_img.c ****         case LV_IMG_CF_INDEXED_8BIT:
 154:lvgl\src\lv_draw/lv_draw_img.c ****             is_chroma_keyed = true;
 155:lvgl\src\lv_draw/lv_draw_img.c ****             break;
 156:lvgl\src\lv_draw/lv_draw_img.c **** 
 157:lvgl\src\lv_draw/lv_draw_img.c ****         default:
 158:lvgl\src\lv_draw/lv_draw_img.c ****             is_chroma_keyed = false;
 159:lvgl\src\lv_draw/lv_draw_img.c ****             break;
 160:lvgl\src\lv_draw/lv_draw_img.c ****     }
 161:lvgl\src\lv_draw/lv_draw_img.c **** 
 162:lvgl\src\lv_draw/lv_draw_img.c ****     return is_chroma_keyed;
 163:lvgl\src\lv_draw/lv_draw_img.c **** }
 164:lvgl\src\lv_draw/lv_draw_img.c **** 
 165:lvgl\src\lv_draw/lv_draw_img.c **** /**
 166:lvgl\src\lv_draw/lv_draw_img.c ****  * Check if a color format has alpha channel or not
 167:lvgl\src\lv_draw/lv_draw_img.c ****  * @param cf a color format (`LV_IMG_CF_...`)
 168:lvgl\src\lv_draw/lv_draw_img.c ****  * @return true: has alpha channel; false: doesn't have alpha channel
 169:lvgl\src\lv_draw/lv_draw_img.c ****  */
 170:lvgl\src\lv_draw/lv_draw_img.c **** bool lv_img_cf_has_alpha(lv_img_cf_t cf)
 171:lvgl\src\lv_draw/lv_draw_img.c **** {
 172:lvgl\src\lv_draw/lv_draw_img.c ****     bool has_alpha = false;
 173:lvgl\src\lv_draw/lv_draw_img.c **** 
 174:lvgl\src\lv_draw/lv_draw_img.c ****     switch(cf) {
 175:lvgl\src\lv_draw/lv_draw_img.c ****         case LV_IMG_CF_TRUE_COLOR_ALPHA:
 176:lvgl\src\lv_draw/lv_draw_img.c ****         case LV_IMG_CF_RAW_ALPHA:
 177:lvgl\src\lv_draw/lv_draw_img.c ****         case LV_IMG_CF_INDEXED_1BIT:
 178:lvgl\src\lv_draw/lv_draw_img.c ****         case LV_IMG_CF_INDEXED_2BIT:
 179:lvgl\src\lv_draw/lv_draw_img.c ****         case LV_IMG_CF_INDEXED_4BIT:
 180:lvgl\src\lv_draw/lv_draw_img.c ****         case LV_IMG_CF_INDEXED_8BIT:
 181:lvgl\src\lv_draw/lv_draw_img.c ****         case LV_IMG_CF_ALPHA_1BIT:
 182:lvgl\src\lv_draw/lv_draw_img.c ****         case LV_IMG_CF_ALPHA_2BIT:
 183:lvgl\src\lv_draw/lv_draw_img.c ****         case LV_IMG_CF_ALPHA_4BIT:
 184:lvgl\src\lv_draw/lv_draw_img.c ****         case LV_IMG_CF_ALPHA_8BIT:
 185:lvgl\src\lv_draw/lv_draw_img.c ****             has_alpha = true;
 186:lvgl\src\lv_draw/lv_draw_img.c ****             break;
 187:lvgl\src\lv_draw/lv_draw_img.c ****         default:
 188:lvgl\src\lv_draw/lv_draw_img.c ****             has_alpha = false;
 189:lvgl\src\lv_draw/lv_draw_img.c ****             break;
 190:lvgl\src\lv_draw/lv_draw_img.c ****     }
 191:lvgl\src\lv_draw/lv_draw_img.c **** 
 192:lvgl\src\lv_draw/lv_draw_img.c ****     return has_alpha;
 193:lvgl\src\lv_draw/lv_draw_img.c **** }
 194:lvgl\src\lv_draw/lv_draw_img.c **** 
 195:lvgl\src\lv_draw/lv_draw_img.c **** /**
 196:lvgl\src\lv_draw/lv_draw_img.c ****  * Get the type of an image source
 197:lvgl\src\lv_draw/lv_draw_img.c ****  * @param src pointer to an image source:
 198:lvgl\src\lv_draw/lv_draw_img.c ****  *  - pointer to an 'lv_img_t' variable (image stored internally and compiled into the code)
 199:lvgl\src\lv_draw/lv_draw_img.c ****  *  - a path to a file (e.g. "S:/folder/image.bin")
 200:lvgl\src\lv_draw/lv_draw_img.c ****  *  - or a symbol (e.g. LV_SYMBOL_CLOSE)
 201:lvgl\src\lv_draw/lv_draw_img.c ****  * @return type of the image source LV_IMG_SRC_VARIABLE/FILE/SYMBOL/UNKNOWN
 202:lvgl\src\lv_draw/lv_draw_img.c ****  */
ARM GAS  C:\Users\strap\AppData\Local\Temp\ccUgAYbc.s 			page 5


 203:lvgl\src\lv_draw/lv_draw_img.c **** lv_img_src_t lv_img_src_get_type(const void * src)
 204:lvgl\src\lv_draw/lv_draw_img.c **** {
 205:lvgl\src\lv_draw/lv_draw_img.c ****     lv_img_src_t img_src_type = LV_IMG_SRC_UNKNOWN;
 206:lvgl\src\lv_draw/lv_draw_img.c **** 
 207:lvgl\src\lv_draw/lv_draw_img.c ****     if(src == NULL) return img_src_type;
 208:lvgl\src\lv_draw/lv_draw_img.c ****     const uint8_t * u8_p = src;
 209:lvgl\src\lv_draw/lv_draw_img.c **** 
 210:lvgl\src\lv_draw/lv_draw_img.c ****     /*The first byte shows the type of the image source*/
 211:lvgl\src\lv_draw/lv_draw_img.c ****     if(u8_p[0] >= 0x20 && u8_p[0] <= 0x7F) {
 212:lvgl\src\lv_draw/lv_draw_img.c ****         img_src_type = LV_IMG_SRC_FILE; /*If it's an ASCII character then it's file name*/
 213:lvgl\src\lv_draw/lv_draw_img.c ****     }
 214:lvgl\src\lv_draw/lv_draw_img.c ****     else if(u8_p[0] >= 0x80) {
 215:lvgl\src\lv_draw/lv_draw_img.c ****         img_src_type = LV_IMG_SRC_SYMBOL; /*Symbols begins after 0x7F*/
 216:lvgl\src\lv_draw/lv_draw_img.c ****     }
 217:lvgl\src\lv_draw/lv_draw_img.c ****     else {
 218:lvgl\src\lv_draw/lv_draw_img.c ****         img_src_type = LV_IMG_SRC_VARIABLE; /*`lv_img_dsc_t` is design to the first byte < 0x20*/
 219:lvgl\src\lv_draw/lv_draw_img.c ****     }
 220:lvgl\src\lv_draw/lv_draw_img.c **** 
 221:lvgl\src\lv_draw/lv_draw_img.c ****     if(LV_IMG_SRC_UNKNOWN == img_src_type) {
 222:lvgl\src\lv_draw/lv_draw_img.c ****         LV_LOG_WARN("lv_img_src_get_type: unknown image type");
 223:lvgl\src\lv_draw/lv_draw_img.c ****     }
 224:lvgl\src\lv_draw/lv_draw_img.c **** 
 225:lvgl\src\lv_draw/lv_draw_img.c ****     return img_src_type;
 226:lvgl\src\lv_draw/lv_draw_img.c **** }
 227:lvgl\src\lv_draw/lv_draw_img.c **** 
 228:lvgl\src\lv_draw/lv_draw_img.c **** /**********************
 229:lvgl\src\lv_draw/lv_draw_img.c ****  *   STATIC FUNCTIONS
 230:lvgl\src\lv_draw/lv_draw_img.c ****  **********************/
 231:lvgl\src\lv_draw/lv_draw_img.c **** 
 232:lvgl\src\lv_draw/lv_draw_img.c **** LV_ATTRIBUTE_FAST_MEM static lv_res_t lv_img_draw_core(const lv_area_t * coords, const lv_area_t * 
 233:lvgl\src\lv_draw/lv_draw_img.c ****                                                        const void * src,
 234:lvgl\src\lv_draw/lv_draw_img.c ****                                                        const lv_draw_img_dsc_t * draw_dsc)
 235:lvgl\src\lv_draw/lv_draw_img.c **** {
 236:lvgl\src\lv_draw/lv_draw_img.c ****     if(draw_dsc->opa <= LV_OPA_MIN) return LV_RES_OK;
 237:lvgl\src\lv_draw/lv_draw_img.c **** 
 238:lvgl\src\lv_draw/lv_draw_img.c ****     lv_img_cache_entry_t * cdsc = _lv_img_cache_open(src, draw_dsc->recolor);
 239:lvgl\src\lv_draw/lv_draw_img.c **** 
 240:lvgl\src\lv_draw/lv_draw_img.c ****     if(cdsc == NULL) return LV_RES_INV;
 241:lvgl\src\lv_draw/lv_draw_img.c **** 
 242:lvgl\src\lv_draw/lv_draw_img.c ****     bool chroma_keyed = lv_img_cf_is_chroma_keyed(cdsc->dec_dsc.header.cf);
 243:lvgl\src\lv_draw/lv_draw_img.c ****     bool alpha_byte   = lv_img_cf_has_alpha(cdsc->dec_dsc.header.cf);
 244:lvgl\src\lv_draw/lv_draw_img.c **** 
 245:lvgl\src\lv_draw/lv_draw_img.c ****     if(cdsc->dec_dsc.error_msg != NULL) {
 246:lvgl\src\lv_draw/lv_draw_img.c ****         LV_LOG_WARN("Image draw error");
 247:lvgl\src\lv_draw/lv_draw_img.c **** 
 248:lvgl\src\lv_draw/lv_draw_img.c ****         show_error(coords, clip_area, cdsc->dec_dsc.error_msg);
 249:lvgl\src\lv_draw/lv_draw_img.c ****     }
 250:lvgl\src\lv_draw/lv_draw_img.c ****     /* The decoder could open the image and gave the entire uncompressed image.
 251:lvgl\src\lv_draw/lv_draw_img.c ****      * Just draw it!*/
 252:lvgl\src\lv_draw/lv_draw_img.c ****     else if(cdsc->dec_dsc.img_data) {
 253:lvgl\src\lv_draw/lv_draw_img.c ****         lv_area_t map_area_rot;
 254:lvgl\src\lv_draw/lv_draw_img.c ****         lv_area_copy(&map_area_rot, coords);
 255:lvgl\src\lv_draw/lv_draw_img.c ****         if(draw_dsc->angle || draw_dsc->zoom != LV_IMG_ZOOM_NONE) {
 256:lvgl\src\lv_draw/lv_draw_img.c ****             int32_t w = lv_area_get_width(coords);
 257:lvgl\src\lv_draw/lv_draw_img.c ****             int32_t h = lv_area_get_height(coords);
 258:lvgl\src\lv_draw/lv_draw_img.c **** 
 259:lvgl\src\lv_draw/lv_draw_img.c ****             _lv_img_buf_get_transformed_area(&map_area_rot, w, h, draw_dsc->angle, draw_dsc->zoom, 
ARM GAS  C:\Users\strap\AppData\Local\Temp\ccUgAYbc.s 			page 6


 260:lvgl\src\lv_draw/lv_draw_img.c **** 
 261:lvgl\src\lv_draw/lv_draw_img.c ****             map_area_rot.x1 += coords->x1;
 262:lvgl\src\lv_draw/lv_draw_img.c ****             map_area_rot.y1 += coords->y1;
 263:lvgl\src\lv_draw/lv_draw_img.c ****             map_area_rot.x2 += coords->x1;
 264:lvgl\src\lv_draw/lv_draw_img.c ****             map_area_rot.y2 += coords->y1;
 265:lvgl\src\lv_draw/lv_draw_img.c ****         }
 266:lvgl\src\lv_draw/lv_draw_img.c **** 
 267:lvgl\src\lv_draw/lv_draw_img.c ****         lv_area_t mask_com; /*Common area of mask and coords*/
 268:lvgl\src\lv_draw/lv_draw_img.c ****         bool union_ok;
 269:lvgl\src\lv_draw/lv_draw_img.c ****         union_ok = _lv_area_intersect(&mask_com, clip_area, &map_area_rot);
 270:lvgl\src\lv_draw/lv_draw_img.c ****         if(union_ok == false) {
 271:lvgl\src\lv_draw/lv_draw_img.c ****             return LV_RES_OK; /*Out of mask. There is nothing to draw so the image is drawn
 272:lvgl\src\lv_draw/lv_draw_img.c ****                                  successfully.*/
 273:lvgl\src\lv_draw/lv_draw_img.c ****         }
 274:lvgl\src\lv_draw/lv_draw_img.c **** 
 275:lvgl\src\lv_draw/lv_draw_img.c ****         lv_draw_map(coords, &mask_com, cdsc->dec_dsc.img_data, draw_dsc, chroma_keyed, alpha_byte);
 276:lvgl\src\lv_draw/lv_draw_img.c ****     }
 277:lvgl\src\lv_draw/lv_draw_img.c ****     /* The whole uncompressed image is not available. Try to read it line-by-line*/
 278:lvgl\src\lv_draw/lv_draw_img.c ****     else {
 279:lvgl\src\lv_draw/lv_draw_img.c ****         lv_area_t mask_com; /*Common area of mask and coords*/
 280:lvgl\src\lv_draw/lv_draw_img.c ****         bool union_ok;
 281:lvgl\src\lv_draw/lv_draw_img.c ****         union_ok = _lv_area_intersect(&mask_com, clip_area, coords);
 282:lvgl\src\lv_draw/lv_draw_img.c ****         if(union_ok == false) {
 283:lvgl\src\lv_draw/lv_draw_img.c ****             return LV_RES_OK; /*Out of mask. There is nothing to draw so the image is drawn
 284:lvgl\src\lv_draw/lv_draw_img.c ****                                  successfully.*/
 285:lvgl\src\lv_draw/lv_draw_img.c ****         }
 286:lvgl\src\lv_draw/lv_draw_img.c **** 
 287:lvgl\src\lv_draw/lv_draw_img.c ****         int32_t width = lv_area_get_width(&mask_com);
 288:lvgl\src\lv_draw/lv_draw_img.c **** 
 289:lvgl\src\lv_draw/lv_draw_img.c ****         uint8_t  * buf = _lv_mem_buf_get(lv_area_get_width(&mask_com) *
 290:lvgl\src\lv_draw/lv_draw_img.c ****                                          LV_IMG_PX_SIZE_ALPHA_BYTE);  /*+1 because of the possible 
 291:lvgl\src\lv_draw/lv_draw_img.c **** 
 292:lvgl\src\lv_draw/lv_draw_img.c ****         lv_area_t line;
 293:lvgl\src\lv_draw/lv_draw_img.c ****         lv_area_copy(&line, &mask_com);
 294:lvgl\src\lv_draw/lv_draw_img.c ****         lv_area_set_height(&line, 1);
 295:lvgl\src\lv_draw/lv_draw_img.c ****         int32_t x = mask_com.x1 - coords->x1;
 296:lvgl\src\lv_draw/lv_draw_img.c ****         int32_t y = mask_com.y1 - coords->y1;
 297:lvgl\src\lv_draw/lv_draw_img.c ****         int32_t row;
 298:lvgl\src\lv_draw/lv_draw_img.c ****         lv_res_t read_res;
 299:lvgl\src\lv_draw/lv_draw_img.c ****         for(row = mask_com.y1; row <= mask_com.y2; row++) {
 300:lvgl\src\lv_draw/lv_draw_img.c ****             lv_area_t mask_line;
 301:lvgl\src\lv_draw/lv_draw_img.c ****             union_ok = _lv_area_intersect(&mask_line, clip_area, &line);
 302:lvgl\src\lv_draw/lv_draw_img.c ****             if(union_ok == false) continue;
 303:lvgl\src\lv_draw/lv_draw_img.c **** 
 304:lvgl\src\lv_draw/lv_draw_img.c ****             read_res = lv_img_decoder_read_line(&cdsc->dec_dsc, x, y, width, buf);
 305:lvgl\src\lv_draw/lv_draw_img.c ****             if(read_res != LV_RES_OK) {
 306:lvgl\src\lv_draw/lv_draw_img.c ****                 lv_img_decoder_close(&cdsc->dec_dsc);
 307:lvgl\src\lv_draw/lv_draw_img.c ****                 LV_LOG_WARN("Image draw can't read the line");
 308:lvgl\src\lv_draw/lv_draw_img.c ****                 _lv_mem_buf_release(buf);
 309:lvgl\src\lv_draw/lv_draw_img.c ****                 return LV_RES_INV;
 310:lvgl\src\lv_draw/lv_draw_img.c ****             }
 311:lvgl\src\lv_draw/lv_draw_img.c **** 
 312:lvgl\src\lv_draw/lv_draw_img.c **** 
 313:lvgl\src\lv_draw/lv_draw_img.c ****             lv_draw_map(&line, &mask_line, buf, draw_dsc, chroma_keyed, alpha_byte);
 314:lvgl\src\lv_draw/lv_draw_img.c ****             line.y1++;
 315:lvgl\src\lv_draw/lv_draw_img.c ****             line.y2++;
 316:lvgl\src\lv_draw/lv_draw_img.c ****             y++;
ARM GAS  C:\Users\strap\AppData\Local\Temp\ccUgAYbc.s 			page 7


 317:lvgl\src\lv_draw/lv_draw_img.c ****         }
 318:lvgl\src\lv_draw/lv_draw_img.c ****         _lv_mem_buf_release(buf);
 319:lvgl\src\lv_draw/lv_draw_img.c ****     }
 320:lvgl\src\lv_draw/lv_draw_img.c **** 
 321:lvgl\src\lv_draw/lv_draw_img.c ****     return LV_RES_OK;
 322:lvgl\src\lv_draw/lv_draw_img.c **** }
 323:lvgl\src\lv_draw/lv_draw_img.c **** 
 324:lvgl\src\lv_draw/lv_draw_img.c **** /**
 325:lvgl\src\lv_draw/lv_draw_img.c ****  * Draw a color map to the display (image)
 326:lvgl\src\lv_draw/lv_draw_img.c ****  * @param cords_p coordinates the color map
 327:lvgl\src\lv_draw/lv_draw_img.c ****  * @param mask_p the map will drawn only on this area  (truncated to VDB area)
 328:lvgl\src\lv_draw/lv_draw_img.c ****  * @param map_p pointer to a lv_color_t array
 329:lvgl\src\lv_draw/lv_draw_img.c ****  * @param draw_dsc pointer to an initialized `lv_draw_img_dsc_t` variable
 330:lvgl\src\lv_draw/lv_draw_img.c ****  * @param chroma_keyed true: enable transparency of LV_IMG_LV_COLOR_TRANSP color pixels
 331:lvgl\src\lv_draw/lv_draw_img.c ****  * @param alpha_byte true: extra alpha byte is inserted for every pixel
 332:lvgl\src\lv_draw/lv_draw_img.c ****  */
 333:lvgl\src\lv_draw/lv_draw_img.c **** LV_ATTRIBUTE_FAST_MEM static void lv_draw_map(const lv_area_t * map_area, const lv_area_t * clip_ar
 334:lvgl\src\lv_draw/lv_draw_img.c ****                                               const uint8_t * map_p,
 335:lvgl\src\lv_draw/lv_draw_img.c ****                                               const lv_draw_img_dsc_t * draw_dsc,
 336:lvgl\src\lv_draw/lv_draw_img.c ****                                               bool chroma_key, bool alpha_byte)
 337:lvgl\src\lv_draw/lv_draw_img.c **** {
  27              		.loc 1 337 0
  28              		.cfi_startproc
  29              		@ args = 8, pretend = 0, frame = 216
  30              		@ frame_needed = 0, uses_anonymous_args = 0
  31              	.LVL0:
  32 0000 2DE9F04F 		push	{r4, r5, r6, r7, r8, r9, r10, fp, lr}
  33              		.cfi_def_cfa_offset 36
  34              		.cfi_offset 4, -36
  35              		.cfi_offset 5, -32
  36              		.cfi_offset 6, -28
  37              		.cfi_offset 7, -24
  38              		.cfi_offset 8, -20
  39              		.cfi_offset 9, -16
  40              		.cfi_offset 10, -12
  41              		.cfi_offset 11, -8
  42              		.cfi_offset 14, -4
  43 0004 BBB0     		sub	sp, sp, #236
  44              		.cfi_def_cfa_offset 272
  45 0006 1590     		str	r0, [sp, #84]
  46 0008 1E91     		str	r1, [sp, #120]
  47 000a 1646     		mov	r6, r2
  48 000c 0993     		str	r3, [sp, #36]
  49 000e 9DF81031 		ldrb	r3, [sp, #272]	@ zero_extendqisi2
  50              	.LVL1:
  51 0012 0D93     		str	r3, [sp, #52]
  52 0014 9DF81431 		ldrb	r3, [sp, #276]	@ zero_extendqisi2
  53 0018 0893     		str	r3, [sp, #32]
  54              	.LVL2:
  55              	.LBB101:
  56              	.LBB102:
  57              	.LBB103:
  58              		.file 2 "lvgl\\src\\lv_draw\\../lv_misc/lv_mem.h"
   1:lvgl\src\lv_draw\../lv_misc/lv_mem.h **** /**
   2:lvgl\src\lv_draw\../lv_misc/lv_mem.h ****  * @file lv_mem.h
   3:lvgl\src\lv_draw\../lv_misc/lv_mem.h ****  *
   4:lvgl\src\lv_draw\../lv_misc/lv_mem.h ****  */
ARM GAS  C:\Users\strap\AppData\Local\Temp\ccUgAYbc.s 			page 8


   5:lvgl\src\lv_draw\../lv_misc/lv_mem.h **** 
   6:lvgl\src\lv_draw\../lv_misc/lv_mem.h **** #ifndef LV_MEM_H
   7:lvgl\src\lv_draw\../lv_misc/lv_mem.h **** #define LV_MEM_H
   8:lvgl\src\lv_draw\../lv_misc/lv_mem.h **** 
   9:lvgl\src\lv_draw\../lv_misc/lv_mem.h **** #ifdef __cplusplus
  10:lvgl\src\lv_draw\../lv_misc/lv_mem.h **** extern "C" {
  11:lvgl\src\lv_draw\../lv_misc/lv_mem.h **** #endif
  12:lvgl\src\lv_draw\../lv_misc/lv_mem.h **** 
  13:lvgl\src\lv_draw\../lv_misc/lv_mem.h **** /*********************
  14:lvgl\src\lv_draw\../lv_misc/lv_mem.h ****  *      INCLUDES
  15:lvgl\src\lv_draw\../lv_misc/lv_mem.h ****  *********************/
  16:lvgl\src\lv_draw\../lv_misc/lv_mem.h **** #include "../lv_conf_internal.h"
  17:lvgl\src\lv_draw\../lv_misc/lv_mem.h **** 
  18:lvgl\src\lv_draw\../lv_misc/lv_mem.h **** #include <stdint.h>
  19:lvgl\src\lv_draw\../lv_misc/lv_mem.h **** #include <stddef.h>
  20:lvgl\src\lv_draw\../lv_misc/lv_mem.h **** #include "lv_log.h"
  21:lvgl\src\lv_draw\../lv_misc/lv_mem.h **** #include "lv_types.h"
  22:lvgl\src\lv_draw\../lv_misc/lv_mem.h **** 
  23:lvgl\src\lv_draw\../lv_misc/lv_mem.h **** #if LV_MEMCPY_MEMSET_STD
  24:lvgl\src\lv_draw\../lv_misc/lv_mem.h **** #include <string.h>
  25:lvgl\src\lv_draw\../lv_misc/lv_mem.h **** #endif
  26:lvgl\src\lv_draw\../lv_misc/lv_mem.h **** 
  27:lvgl\src\lv_draw\../lv_misc/lv_mem.h **** /*********************
  28:lvgl\src\lv_draw\../lv_misc/lv_mem.h ****  *      DEFINES
  29:lvgl\src\lv_draw\../lv_misc/lv_mem.h ****  *********************/
  30:lvgl\src\lv_draw\../lv_misc/lv_mem.h **** 
  31:lvgl\src\lv_draw\../lv_misc/lv_mem.h **** #ifndef LV_MEM_BUF_MAX_NUM
  32:lvgl\src\lv_draw\../lv_misc/lv_mem.h **** #define LV_MEM_BUF_MAX_NUM    16
  33:lvgl\src\lv_draw\../lv_misc/lv_mem.h **** #endif
  34:lvgl\src\lv_draw\../lv_misc/lv_mem.h **** 
  35:lvgl\src\lv_draw\../lv_misc/lv_mem.h **** /**********************
  36:lvgl\src\lv_draw\../lv_misc/lv_mem.h ****  *      TYPEDEFS
  37:lvgl\src\lv_draw\../lv_misc/lv_mem.h ****  **********************/
  38:lvgl\src\lv_draw\../lv_misc/lv_mem.h **** 
  39:lvgl\src\lv_draw\../lv_misc/lv_mem.h **** /**
  40:lvgl\src\lv_draw\../lv_misc/lv_mem.h ****  * Heap information structure.
  41:lvgl\src\lv_draw\../lv_misc/lv_mem.h ****  */
  42:lvgl\src\lv_draw\../lv_misc/lv_mem.h **** typedef struct {
  43:lvgl\src\lv_draw\../lv_misc/lv_mem.h ****     uint32_t total_size; /**< Total heap size */
  44:lvgl\src\lv_draw\../lv_misc/lv_mem.h ****     uint32_t free_cnt;
  45:lvgl\src\lv_draw\../lv_misc/lv_mem.h ****     uint32_t free_size; /**< Size of available memory */
  46:lvgl\src\lv_draw\../lv_misc/lv_mem.h ****     uint32_t free_biggest_size;
  47:lvgl\src\lv_draw\../lv_misc/lv_mem.h ****     uint32_t used_cnt;
  48:lvgl\src\lv_draw\../lv_misc/lv_mem.h ****     uint32_t max_used; /**< Max size of Heap memory used */
  49:lvgl\src\lv_draw\../lv_misc/lv_mem.h ****     uint8_t used_pct; /**< Percentage used */
  50:lvgl\src\lv_draw\../lv_misc/lv_mem.h ****     uint8_t frag_pct; /**< Amount of fragmentation */
  51:lvgl\src\lv_draw\../lv_misc/lv_mem.h **** } lv_mem_monitor_t;
  52:lvgl\src\lv_draw\../lv_misc/lv_mem.h **** 
  53:lvgl\src\lv_draw\../lv_misc/lv_mem.h **** typedef struct {
  54:lvgl\src\lv_draw\../lv_misc/lv_mem.h ****     void * p;
  55:lvgl\src\lv_draw\../lv_misc/lv_mem.h ****     uint16_t size;
  56:lvgl\src\lv_draw\../lv_misc/lv_mem.h ****     uint8_t used    : 1;
  57:lvgl\src\lv_draw\../lv_misc/lv_mem.h **** } lv_mem_buf_t;
  58:lvgl\src\lv_draw\../lv_misc/lv_mem.h **** 
  59:lvgl\src\lv_draw\../lv_misc/lv_mem.h **** typedef lv_mem_buf_t lv_mem_buf_arr_t[LV_MEM_BUF_MAX_NUM];
  60:lvgl\src\lv_draw\../lv_misc/lv_mem.h **** extern lv_mem_buf_arr_t _lv_mem_buf;
  61:lvgl\src\lv_draw\../lv_misc/lv_mem.h **** 
ARM GAS  C:\Users\strap\AppData\Local\Temp\ccUgAYbc.s 			page 9


  62:lvgl\src\lv_draw\../lv_misc/lv_mem.h **** /**********************
  63:lvgl\src\lv_draw\../lv_misc/lv_mem.h ****  * GLOBAL PROTOTYPES
  64:lvgl\src\lv_draw\../lv_misc/lv_mem.h ****  **********************/
  65:lvgl\src\lv_draw\../lv_misc/lv_mem.h **** 
  66:lvgl\src\lv_draw\../lv_misc/lv_mem.h **** /**
  67:lvgl\src\lv_draw\../lv_misc/lv_mem.h ****  * Initialize the dyn_mem module (work memory and other variables)
  68:lvgl\src\lv_draw\../lv_misc/lv_mem.h ****  */
  69:lvgl\src\lv_draw\../lv_misc/lv_mem.h **** void _lv_mem_init(void);
  70:lvgl\src\lv_draw\../lv_misc/lv_mem.h **** 
  71:lvgl\src\lv_draw\../lv_misc/lv_mem.h **** /**
  72:lvgl\src\lv_draw\../lv_misc/lv_mem.h ****  * Clean up the memory buffer which frees all the allocated memories.
  73:lvgl\src\lv_draw\../lv_misc/lv_mem.h ****  * @note It work only if `LV_MEM_CUSTOM == 0`
  74:lvgl\src\lv_draw\../lv_misc/lv_mem.h ****  */
  75:lvgl\src\lv_draw\../lv_misc/lv_mem.h **** void _lv_mem_deinit(void);
  76:lvgl\src\lv_draw\../lv_misc/lv_mem.h **** 
  77:lvgl\src\lv_draw\../lv_misc/lv_mem.h **** /**
  78:lvgl\src\lv_draw\../lv_misc/lv_mem.h ****  * Allocate a memory dynamically
  79:lvgl\src\lv_draw\../lv_misc/lv_mem.h ****  * @param size size of the memory to allocate in bytes
  80:lvgl\src\lv_draw\../lv_misc/lv_mem.h ****  * @return pointer to the allocated memory
  81:lvgl\src\lv_draw\../lv_misc/lv_mem.h ****  */
  82:lvgl\src\lv_draw\../lv_misc/lv_mem.h **** void * lv_mem_alloc(size_t size);
  83:lvgl\src\lv_draw\../lv_misc/lv_mem.h **** 
  84:lvgl\src\lv_draw\../lv_misc/lv_mem.h **** /**
  85:lvgl\src\lv_draw\../lv_misc/lv_mem.h ****  * Free an allocated data
  86:lvgl\src\lv_draw\../lv_misc/lv_mem.h ****  * @param data pointer to an allocated memory
  87:lvgl\src\lv_draw\../lv_misc/lv_mem.h ****  */
  88:lvgl\src\lv_draw\../lv_misc/lv_mem.h **** void lv_mem_free(const void * data);
  89:lvgl\src\lv_draw\../lv_misc/lv_mem.h **** 
  90:lvgl\src\lv_draw\../lv_misc/lv_mem.h **** /**
  91:lvgl\src\lv_draw\../lv_misc/lv_mem.h ****  * Reallocate a memory with a new size. The old content will be kept.
  92:lvgl\src\lv_draw\../lv_misc/lv_mem.h ****  * @param data pointer to an allocated memory.
  93:lvgl\src\lv_draw\../lv_misc/lv_mem.h ****  * Its content will be copied to the new memory block and freed
  94:lvgl\src\lv_draw\../lv_misc/lv_mem.h ****  * @param new_size the desired new size in byte
  95:lvgl\src\lv_draw\../lv_misc/lv_mem.h ****  * @return pointer to the new memory
  96:lvgl\src\lv_draw\../lv_misc/lv_mem.h ****  */
  97:lvgl\src\lv_draw\../lv_misc/lv_mem.h **** void * lv_mem_realloc(void * data_p, size_t new_size);
  98:lvgl\src\lv_draw\../lv_misc/lv_mem.h **** 
  99:lvgl\src\lv_draw\../lv_misc/lv_mem.h **** /**
 100:lvgl\src\lv_draw\../lv_misc/lv_mem.h ****  * Join the adjacent free memory blocks
 101:lvgl\src\lv_draw\../lv_misc/lv_mem.h ****  */
 102:lvgl\src\lv_draw\../lv_misc/lv_mem.h **** void lv_mem_defrag(void);
 103:lvgl\src\lv_draw\../lv_misc/lv_mem.h **** 
 104:lvgl\src\lv_draw\../lv_misc/lv_mem.h **** /**
 105:lvgl\src\lv_draw\../lv_misc/lv_mem.h ****  *
 106:lvgl\src\lv_draw\../lv_misc/lv_mem.h ****  * @return
 107:lvgl\src\lv_draw\../lv_misc/lv_mem.h ****  */
 108:lvgl\src\lv_draw\../lv_misc/lv_mem.h **** lv_res_t lv_mem_test(void);
 109:lvgl\src\lv_draw\../lv_misc/lv_mem.h **** 
 110:lvgl\src\lv_draw\../lv_misc/lv_mem.h **** /**
 111:lvgl\src\lv_draw\../lv_misc/lv_mem.h ****  * Give information about the work memory of dynamic allocation
 112:lvgl\src\lv_draw\../lv_misc/lv_mem.h ****  * @param mon_p pointer to a dm_mon_p variable,
 113:lvgl\src\lv_draw\../lv_misc/lv_mem.h ****  *              the result of the analysis will be stored here
 114:lvgl\src\lv_draw\../lv_misc/lv_mem.h ****  */
 115:lvgl\src\lv_draw\../lv_misc/lv_mem.h **** void lv_mem_monitor(lv_mem_monitor_t * mon_p);
 116:lvgl\src\lv_draw\../lv_misc/lv_mem.h **** 
 117:lvgl\src\lv_draw\../lv_misc/lv_mem.h **** /**
 118:lvgl\src\lv_draw\../lv_misc/lv_mem.h ****  * Give the size of an allocated memory
ARM GAS  C:\Users\strap\AppData\Local\Temp\ccUgAYbc.s 			page 10


 119:lvgl\src\lv_draw\../lv_misc/lv_mem.h ****  * @param data pointer to an allocated memory
 120:lvgl\src\lv_draw\../lv_misc/lv_mem.h ****  * @return the size of data memory in bytes
 121:lvgl\src\lv_draw\../lv_misc/lv_mem.h ****  */
 122:lvgl\src\lv_draw\../lv_misc/lv_mem.h **** uint32_t _lv_mem_get_size(const void * data);
 123:lvgl\src\lv_draw\../lv_misc/lv_mem.h **** 
 124:lvgl\src\lv_draw\../lv_misc/lv_mem.h **** /**
 125:lvgl\src\lv_draw\../lv_misc/lv_mem.h ****  * Get a temporal buffer with the given size.
 126:lvgl\src\lv_draw\../lv_misc/lv_mem.h ****  * @param size the required size
 127:lvgl\src\lv_draw\../lv_misc/lv_mem.h ****  */
 128:lvgl\src\lv_draw\../lv_misc/lv_mem.h **** void * _lv_mem_buf_get(uint32_t size);
 129:lvgl\src\lv_draw\../lv_misc/lv_mem.h **** 
 130:lvgl\src\lv_draw\../lv_misc/lv_mem.h **** /**
 131:lvgl\src\lv_draw\../lv_misc/lv_mem.h ****  * Release a memory buffer
 132:lvgl\src\lv_draw\../lv_misc/lv_mem.h ****  * @param p buffer to release
 133:lvgl\src\lv_draw\../lv_misc/lv_mem.h ****  */
 134:lvgl\src\lv_draw\../lv_misc/lv_mem.h **** void _lv_mem_buf_release(void * p);
 135:lvgl\src\lv_draw\../lv_misc/lv_mem.h **** 
 136:lvgl\src\lv_draw\../lv_misc/lv_mem.h **** /**
 137:lvgl\src\lv_draw\../lv_misc/lv_mem.h ****  * Free all memory buffers
 138:lvgl\src\lv_draw\../lv_misc/lv_mem.h ****  */
 139:lvgl\src\lv_draw\../lv_misc/lv_mem.h **** void _lv_mem_buf_free_all(void);
 140:lvgl\src\lv_draw\../lv_misc/lv_mem.h **** 
 141:lvgl\src\lv_draw\../lv_misc/lv_mem.h **** 
 142:lvgl\src\lv_draw\../lv_misc/lv_mem.h **** //! @cond Doxygen_Suppress
 143:lvgl\src\lv_draw\../lv_misc/lv_mem.h **** 
 144:lvgl\src\lv_draw\../lv_misc/lv_mem.h **** #if LV_MEMCPY_MEMSET_STD
 145:lvgl\src\lv_draw\../lv_misc/lv_mem.h **** 
 146:lvgl\src\lv_draw\../lv_misc/lv_mem.h **** /**
 147:lvgl\src\lv_draw\../lv_misc/lv_mem.h ****  * Wrapper for the standard memcpy
 148:lvgl\src\lv_draw\../lv_misc/lv_mem.h ****  * @param dst pointer to the destination buffer
 149:lvgl\src\lv_draw\../lv_misc/lv_mem.h ****  * @param src pointer to the source buffer
 150:lvgl\src\lv_draw\../lv_misc/lv_mem.h ****  * @param len number of byte to copy
 151:lvgl\src\lv_draw\../lv_misc/lv_mem.h ****  */
 152:lvgl\src\lv_draw\../lv_misc/lv_mem.h **** static inline void * _lv_memcpy(void * dst, const void * src, size_t len)
 153:lvgl\src\lv_draw\../lv_misc/lv_mem.h **** {
 154:lvgl\src\lv_draw\../lv_misc/lv_mem.h ****     return memcpy(dst, src, len);
 155:lvgl\src\lv_draw\../lv_misc/lv_mem.h **** }
 156:lvgl\src\lv_draw\../lv_misc/lv_mem.h **** 
 157:lvgl\src\lv_draw\../lv_misc/lv_mem.h **** /**
 158:lvgl\src\lv_draw\../lv_misc/lv_mem.h ****  * Wrapper for the standard memcpy
 159:lvgl\src\lv_draw\../lv_misc/lv_mem.h ****  * @param dst pointer to the destination buffer
 160:lvgl\src\lv_draw\../lv_misc/lv_mem.h ****  * @param src pointer to the source buffer
 161:lvgl\src\lv_draw\../lv_misc/lv_mem.h ****  * @param len number of byte to copy
 162:lvgl\src\lv_draw\../lv_misc/lv_mem.h ****  */
 163:lvgl\src\lv_draw\../lv_misc/lv_mem.h **** static inline void * _lv_memcpy_small(void * dst, const void * src, size_t len)
 164:lvgl\src\lv_draw\../lv_misc/lv_mem.h **** {
 165:lvgl\src\lv_draw\../lv_misc/lv_mem.h ****     return memcpy(dst, src, len);
 166:lvgl\src\lv_draw\../lv_misc/lv_mem.h **** }
 167:lvgl\src\lv_draw\../lv_misc/lv_mem.h **** 
 168:lvgl\src\lv_draw\../lv_misc/lv_mem.h **** /**
 169:lvgl\src\lv_draw\../lv_misc/lv_mem.h ****  * Wrapper for the standard memset
 170:lvgl\src\lv_draw\../lv_misc/lv_mem.h ****  * @param dst pointer to the destination buffer
 171:lvgl\src\lv_draw\../lv_misc/lv_mem.h ****  * @param v value to set [0..255]
 172:lvgl\src\lv_draw\../lv_misc/lv_mem.h ****  * @param len number of byte to set
 173:lvgl\src\lv_draw\../lv_misc/lv_mem.h ****  */
 174:lvgl\src\lv_draw\../lv_misc/lv_mem.h **** static inline void _lv_memset(void * dst, uint8_t v, size_t len)
 175:lvgl\src\lv_draw\../lv_misc/lv_mem.h **** {
ARM GAS  C:\Users\strap\AppData\Local\Temp\ccUgAYbc.s 			page 11


 176:lvgl\src\lv_draw\../lv_misc/lv_mem.h ****     memset(dst, v, len);
 177:lvgl\src\lv_draw\../lv_misc/lv_mem.h **** }
 178:lvgl\src\lv_draw\../lv_misc/lv_mem.h **** 
 179:lvgl\src\lv_draw\../lv_misc/lv_mem.h **** /**
 180:lvgl\src\lv_draw\../lv_misc/lv_mem.h ****  * Wrapper for the standard memset with fixed 0x00 value
 181:lvgl\src\lv_draw\../lv_misc/lv_mem.h ****  * @param dst pointer to the destination buffer
 182:lvgl\src\lv_draw\../lv_misc/lv_mem.h ****  * @param len number of byte to set
 183:lvgl\src\lv_draw\../lv_misc/lv_mem.h ****  */
 184:lvgl\src\lv_draw\../lv_misc/lv_mem.h **** static inline void _lv_memset_00(void * dst, size_t len)
 185:lvgl\src\lv_draw\../lv_misc/lv_mem.h **** {
 186:lvgl\src\lv_draw\../lv_misc/lv_mem.h ****     memset(dst, 0x00, len);
 187:lvgl\src\lv_draw\../lv_misc/lv_mem.h **** }
 188:lvgl\src\lv_draw\../lv_misc/lv_mem.h **** 
 189:lvgl\src\lv_draw\../lv_misc/lv_mem.h **** /**
 190:lvgl\src\lv_draw\../lv_misc/lv_mem.h ****  * Wrapper for the standard memset with fixed 0xFF value
 191:lvgl\src\lv_draw\../lv_misc/lv_mem.h ****  * @param dst pointer to the destination buffer
 192:lvgl\src\lv_draw\../lv_misc/lv_mem.h ****  * @param len number of byte to set
 193:lvgl\src\lv_draw\../lv_misc/lv_mem.h ****  */
 194:lvgl\src\lv_draw\../lv_misc/lv_mem.h **** static inline void _lv_memset_ff(void * dst, size_t len)
 195:lvgl\src\lv_draw\../lv_misc/lv_mem.h **** {
 196:lvgl\src\lv_draw\../lv_misc/lv_mem.h ****     memset(dst, 0xFF, len);
 197:lvgl\src\lv_draw\../lv_misc/lv_mem.h **** }
 198:lvgl\src\lv_draw\../lv_misc/lv_mem.h **** 
 199:lvgl\src\lv_draw\../lv_misc/lv_mem.h **** #else
 200:lvgl\src\lv_draw\../lv_misc/lv_mem.h **** /**
 201:lvgl\src\lv_draw\../lv_misc/lv_mem.h ****  * Same as `memcpy` but optimized for 4 byte operation.
 202:lvgl\src\lv_draw\../lv_misc/lv_mem.h ****  * @param dst pointer to the destination buffer
 203:lvgl\src\lv_draw\../lv_misc/lv_mem.h ****  * @param src pointer to the source buffer
 204:lvgl\src\lv_draw\../lv_misc/lv_mem.h ****  * @param len number of byte to copy
 205:lvgl\src\lv_draw\../lv_misc/lv_mem.h ****  */
 206:lvgl\src\lv_draw\../lv_misc/lv_mem.h **** LV_ATTRIBUTE_FAST_MEM void * _lv_memcpy(void * dst, const void * src, size_t len);
 207:lvgl\src\lv_draw\../lv_misc/lv_mem.h **** 
 208:lvgl\src\lv_draw\../lv_misc/lv_mem.h **** /**
 209:lvgl\src\lv_draw\../lv_misc/lv_mem.h ****  * Same as `memcpy` but optimized to copy only a few bytes.
 210:lvgl\src\lv_draw\../lv_misc/lv_mem.h ****  * @param dst pointer to the destination buffer
 211:lvgl\src\lv_draw\../lv_misc/lv_mem.h ****  * @param src pointer to the source buffer
 212:lvgl\src\lv_draw\../lv_misc/lv_mem.h ****  * @param len number of byte to copy
 213:lvgl\src\lv_draw\../lv_misc/lv_mem.h ****  */
 214:lvgl\src\lv_draw\../lv_misc/lv_mem.h **** LV_ATTRIBUTE_FAST_MEM static inline void * _lv_memcpy_small(void * dst, const void * src, size_t le
 215:lvgl\src\lv_draw\../lv_misc/lv_mem.h **** {
 216:lvgl\src\lv_draw\../lv_misc/lv_mem.h ****     uint8_t * d8 = (uint8_t *)dst;
  59              		.loc 2 216 0
  60 001a 38AA     		add	r2, sp, #224
  61              	.LVL3:
  62 001c 0823     		movs	r3, #8
  63 001e 04E0     		b	.L2
  64              	.LVL4:
  65              	.L3:
 217:lvgl\src\lv_draw\../lv_misc/lv_mem.h ****     const uint8_t * s8 = (const uint8_t *)src;
 218:lvgl\src\lv_draw\../lv_misc/lv_mem.h **** 
 219:lvgl\src\lv_draw\../lv_misc/lv_mem.h ****     while(len) {
 220:lvgl\src\lv_draw\../lv_misc/lv_mem.h ****         *d8 = *s8;
  66              		.loc 2 220 0
  67 0020 11F8010B 		ldrb	r0, [r1], #1	@ zero_extendqisi2
  68              	.LVL5:
  69 0024 02F8010B 		strb	r0, [r2], #1
  70              	.LVL6:
ARM GAS  C:\Users\strap\AppData\Local\Temp\ccUgAYbc.s 			page 12


 221:lvgl\src\lv_draw\../lv_misc/lv_mem.h ****         d8++;
 222:lvgl\src\lv_draw\../lv_misc/lv_mem.h ****         s8++;
 223:lvgl\src\lv_draw\../lv_misc/lv_mem.h ****         len--;
  71              		.loc 2 223 0
  72 0028 013B     		subs	r3, r3, #1
  73              	.LVL7:
  74              	.L2:
 219:lvgl\src\lv_draw\../lv_misc/lv_mem.h ****         *d8 = *s8;
  75              		.loc 2 219 0
  76 002a 002B     		cmp	r3, #0
  77 002c F8D1     		bne	.L3
  78              	.LVL8:
  79              	.LBE103:
  80              	.LBE102:
  81              	.LBE101:
 338:lvgl\src\lv_draw/lv_draw_img.c ****     /* Use the clip area as draw area*/
 339:lvgl\src\lv_draw/lv_draw_img.c ****     lv_area_t draw_area;
 340:lvgl\src\lv_draw/lv_draw_img.c ****     lv_area_copy(&draw_area, clip_area);
 341:lvgl\src\lv_draw/lv_draw_img.c **** 
 342:lvgl\src\lv_draw/lv_draw_img.c ****     lv_disp_t * disp    = _lv_refr_get_disp_refreshing();
  82              		.loc 1 342 0
  83 002e FFF7FEFF 		bl	_lv_refr_get_disp_refreshing
  84              	.LVL9:
  85 0032 8046     		mov	r8, r0
  86              	.LVL10:
 343:lvgl\src\lv_draw/lv_draw_img.c ****     lv_disp_buf_t * vdb = lv_disp_get_buf(disp);
  87              		.loc 1 343 0
  88 0034 FFF7FEFF 		bl	lv_disp_get_buf
  89              	.LVL11:
  90 0038 1390     		str	r0, [sp, #76]
  91              	.LVL12:
 344:lvgl\src\lv_draw/lv_draw_img.c ****     const lv_area_t * disp_area = &vdb->area;
 345:lvgl\src\lv_draw/lv_draw_img.c **** 
 346:lvgl\src\lv_draw/lv_draw_img.c ****     /* Now `draw_area` has absolute coordinates.
 347:lvgl\src\lv_draw/lv_draw_img.c ****      * Make it relative to `disp_area` to simplify draw to `disp_buf`*/
 348:lvgl\src\lv_draw/lv_draw_img.c ****     draw_area.x1 -= disp_area->x1;
  92              		.loc 1 348 0
  93 003a 058A     		ldrh	r5, [r0, #16]
  94 003c BDF8E030 		ldrh	r3, [sp, #224]
  95 0040 5B1B     		subs	r3, r3, r5
  96 0042 ADF8E030 		strh	r3, [sp, #224]	@ movhi
 349:lvgl\src\lv_draw/lv_draw_img.c ****     draw_area.y1 -= disp_area->y1;
  97              		.loc 1 349 0
  98 0046 408A     		ldrh	r0, [r0, #18]
  99              	.LVL13:
 100 0048 BDF8E210 		ldrh	r1, [sp, #226]
 101 004c 091A     		subs	r1, r1, r0
 102 004e ADF8E210 		strh	r1, [sp, #226]	@ movhi
 350:lvgl\src\lv_draw/lv_draw_img.c ****     draw_area.x2 -= disp_area->x1;
 103              		.loc 1 350 0
 104 0052 BDF8E420 		ldrh	r2, [sp, #228]
 105 0056 521B     		subs	r2, r2, r5
 106 0058 ADF8E420 		strh	r2, [sp, #228]	@ movhi
 351:lvgl\src\lv_draw/lv_draw_img.c ****     draw_area.y2 -= disp_area->y1;
 107              		.loc 1 351 0
 108 005c BDF8E630 		ldrh	r3, [sp, #230]
 109 0060 1B1A     		subs	r3, r3, r0
ARM GAS  C:\Users\strap\AppData\Local\Temp\ccUgAYbc.s 			page 13


 110 0062 ADF8E630 		strh	r3, [sp, #230]	@ movhi
 352:lvgl\src\lv_draw/lv_draw_img.c **** 
 353:lvgl\src\lv_draw/lv_draw_img.c ****     uint8_t other_mask_cnt = lv_draw_mask_get_cnt();
 111              		.loc 1 353 0
 112 0066 FFF7FEFF 		bl	lv_draw_mask_get_cnt
 113              	.LVL14:
 354:lvgl\src\lv_draw/lv_draw_img.c **** 
 355:lvgl\src\lv_draw/lv_draw_img.c ****     /*The simplest case just copy the pixels into the VDB*/
 356:lvgl\src\lv_draw/lv_draw_img.c ****     if(other_mask_cnt == 0 && draw_dsc->angle == 0 && draw_dsc->zoom == LV_IMG_ZOOM_NONE &&
 114              		.loc 1 356 0
 115 006a 1490     		str	r0, [sp, #80]
 116 006c C8B9     		cbnz	r0, .L4
 117              		.loc 1 356 0 is_stmt 0 discriminator 1
 118 006e 099A     		ldr	r2, [sp, #36]
 119 0070 5388     		ldrh	r3, [r2, #2]
 120 0072 B3B9     		cbnz	r3, .L4
 121              		.loc 1 356 0 discriminator 2
 122 0074 1389     		ldrh	r3, [r2, #8]
 123 0076 B3F5807F 		cmp	r3, #256
 124 007a 12D1     		bne	.L4
 125              		.loc 1 356 0 discriminator 3
 126 007c 0D9B     		ldr	r3, [sp, #52]
 127 007e 83B9     		cbnz	r3, .L4
 357:lvgl\src\lv_draw/lv_draw_img.c ****        chroma_key == false && alpha_byte == false && draw_dsc->recolor_opa == LV_OPA_TRANSP) {
 128              		.loc 1 357 0 is_stmt 1
 129 0080 089B     		ldr	r3, [sp, #32]
 130 0082 73B9     		cbnz	r3, .L4
 131              		.loc 1 357 0 is_stmt 0 discriminator 1
 132 0084 937A     		ldrb	r3, [r2, #10]	@ zero_extendqisi2
 133 0086 63B9     		cbnz	r3, .L4
 358:lvgl\src\lv_draw/lv_draw_img.c ****         _lv_blend_map(clip_area, map_area, (lv_color_t *)map_p, NULL, LV_DRAW_MASK_RES_FULL_COVER, 
 134              		.loc 1 358 0 is_stmt 1
 135 0088 937B     		ldrb	r3, [r2, #14]	@ zero_extendqisi2
 136 008a 0293     		str	r3, [sp, #8]
 137 008c 1378     		ldrb	r3, [r2]	@ zero_extendqisi2
 138 008e 0193     		str	r3, [sp, #4]
 139 0090 0123     		movs	r3, #1
 140 0092 0093     		str	r3, [sp]
 141 0094 0023     		movs	r3, #0
 142 0096 3246     		mov	r2, r6
 143 0098 1599     		ldr	r1, [sp, #84]
 144 009a 1E98     		ldr	r0, [sp, #120]
 145              	.LVL15:
 146 009c FFF7FEFF 		bl	_lv_blend_map
 147              	.LVL16:
 148 00a0 81E3     		b	.L1
 149              	.LVL17:
 150              	.L4:
 151              	.LBB104:
 359:lvgl\src\lv_draw/lv_draw_img.c ****                       draw_dsc->blend_mode);
 360:lvgl\src\lv_draw/lv_draw_img.c ****     }
 361:lvgl\src\lv_draw/lv_draw_img.c **** #if LV_USE_GPU_NXP_PXP
 362:lvgl\src\lv_draw/lv_draw_img.c ****     /* Simple case without masking and transformations */
 363:lvgl\src\lv_draw/lv_draw_img.c ****     else if(other_mask_cnt == 0 && draw_dsc->angle == 0 && draw_dsc->zoom == LV_IMG_ZOOM_NONE && al
 364:lvgl\src\lv_draw/lv_draw_img.c ****             chroma_key == true && draw_dsc->recolor_opa == LV_OPA_TRANSP) { /* copy with color keyi
 365:lvgl\src\lv_draw/lv_draw_img.c ****         lv_gpu_nxp_pxp_enable_color_key();
 366:lvgl\src\lv_draw/lv_draw_img.c ****         _lv_blend_map(clip_area, map_area, (lv_color_t *)map_p, NULL, LV_DRAW_MASK_RES_FULL_COVER, 
ARM GAS  C:\Users\strap\AppData\Local\Temp\ccUgAYbc.s 			page 14


 367:lvgl\src\lv_draw/lv_draw_img.c ****                       draw_dsc->blend_mode);
 368:lvgl\src\lv_draw/lv_draw_img.c ****         lv_gpu_nxp_pxp_disable_color_key();
 369:lvgl\src\lv_draw/lv_draw_img.c ****     }
 370:lvgl\src\lv_draw/lv_draw_img.c ****     else if(other_mask_cnt == 0 && draw_dsc->angle == 0 && draw_dsc->zoom == LV_IMG_ZOOM_NONE && al
 371:lvgl\src\lv_draw/lv_draw_img.c ****             chroma_key == false && draw_dsc->recolor_opa != LV_OPA_TRANSP) { /* copy with recolor (
 372:lvgl\src\lv_draw/lv_draw_img.c ****         lv_gpu_nxp_pxp_enable_recolor(draw_dsc->recolor, draw_dsc->recolor_opa);
 373:lvgl\src\lv_draw/lv_draw_img.c ****         _lv_blend_map(clip_area, map_area, (lv_color_t *)map_p, NULL, LV_DRAW_MASK_RES_FULL_COVER, 
 374:lvgl\src\lv_draw/lv_draw_img.c ****                       draw_dsc->blend_mode);
 375:lvgl\src\lv_draw/lv_draw_img.c ****         lv_gpu_nxp_pxp_disable_recolor();
 376:lvgl\src\lv_draw/lv_draw_img.c ****     }
 377:lvgl\src\lv_draw/lv_draw_img.c **** #endif
 378:lvgl\src\lv_draw/lv_draw_img.c ****     /*In the other cases every pixel need to be checked one-by-one*/
 379:lvgl\src\lv_draw/lv_draw_img.c ****     else {
 380:lvgl\src\lv_draw/lv_draw_img.c ****         /*The pixel size in byte is different if an alpha byte is added too*/
 381:lvgl\src\lv_draw/lv_draw_img.c ****         uint8_t px_size_byte = alpha_byte ? LV_IMG_PX_SIZE_ALPHA_BYTE : sizeof(lv_color_t);
 152              		.loc 1 381 0
 153 00a2 089B     		ldr	r3, [sp, #32]
 154 00a4 13B1     		cbz	r3, .L54
 155 00a6 0323     		movs	r3, #3
 156 00a8 0693     		str	r3, [sp, #24]
 157 00aa 01E0     		b	.L6
 158              	.L54:
 159 00ac 0223     		movs	r3, #2
 160 00ae 0693     		str	r3, [sp, #24]
 161              	.L6:
 162              	.LVL18:
 163              	.LBB105:
 164              	.LBB106:
 165              		.file 3 "lvgl\\src\\lv_draw\\../lv_misc/lv_area.h"
   1:lvgl\src\lv_draw\../lv_misc/lv_area.h **** /**
   2:lvgl\src\lv_draw\../lv_misc/lv_area.h ****  * @file lv_area.h
   3:lvgl\src\lv_draw\../lv_misc/lv_area.h ****  *
   4:lvgl\src\lv_draw\../lv_misc/lv_area.h ****  */
   5:lvgl\src\lv_draw\../lv_misc/lv_area.h **** 
   6:lvgl\src\lv_draw\../lv_misc/lv_area.h **** #ifndef LV_AREA_H
   7:lvgl\src\lv_draw\../lv_misc/lv_area.h **** #define LV_AREA_H
   8:lvgl\src\lv_draw\../lv_misc/lv_area.h **** 
   9:lvgl\src\lv_draw\../lv_misc/lv_area.h **** #ifdef __cplusplus
  10:lvgl\src\lv_draw\../lv_misc/lv_area.h **** extern "C" {
  11:lvgl\src\lv_draw\../lv_misc/lv_area.h **** #endif
  12:lvgl\src\lv_draw\../lv_misc/lv_area.h **** 
  13:lvgl\src\lv_draw\../lv_misc/lv_area.h **** /*********************
  14:lvgl\src\lv_draw\../lv_misc/lv_area.h ****  *      INCLUDES
  15:lvgl\src\lv_draw\../lv_misc/lv_area.h ****  *********************/
  16:lvgl\src\lv_draw\../lv_misc/lv_area.h **** #include "../lv_conf_internal.h"
  17:lvgl\src\lv_draw\../lv_misc/lv_area.h **** #include <string.h>
  18:lvgl\src\lv_draw\../lv_misc/lv_area.h **** #include <stdbool.h>
  19:lvgl\src\lv_draw\../lv_misc/lv_area.h **** #include <stdint.h>
  20:lvgl\src\lv_draw\../lv_misc/lv_area.h **** #include "lv_mem.h"
  21:lvgl\src\lv_draw\../lv_misc/lv_area.h **** 
  22:lvgl\src\lv_draw\../lv_misc/lv_area.h **** /*********************
  23:lvgl\src\lv_draw\../lv_misc/lv_area.h ****  *      DEFINES
  24:lvgl\src\lv_draw\../lv_misc/lv_area.h ****  *********************/
  25:lvgl\src\lv_draw\../lv_misc/lv_area.h **** /*To avoid overflow don't let the max ranges (reduce with 1000) */
  26:lvgl\src\lv_draw\../lv_misc/lv_area.h **** #define LV_COORD_MAX ((lv_coord_t)((uint32_t)((uint32_t)1 << (8 * sizeof(lv_coord_t) - 1)) - 1000))
  27:lvgl\src\lv_draw\../lv_misc/lv_area.h **** #define LV_COORD_MIN (-LV_COORD_MAX)
  28:lvgl\src\lv_draw\../lv_misc/lv_area.h **** 
ARM GAS  C:\Users\strap\AppData\Local\Temp\ccUgAYbc.s 			page 15


  29:lvgl\src\lv_draw\../lv_misc/lv_area.h **** LV_EXPORT_CONST_INT(LV_COORD_MAX);
  30:lvgl\src\lv_draw\../lv_misc/lv_area.h **** LV_EXPORT_CONST_INT(LV_COORD_MIN);
  31:lvgl\src\lv_draw\../lv_misc/lv_area.h **** 
  32:lvgl\src\lv_draw\../lv_misc/lv_area.h **** /**********************
  33:lvgl\src\lv_draw\../lv_misc/lv_area.h ****  *      TYPEDEFS
  34:lvgl\src\lv_draw\../lv_misc/lv_area.h ****  **********************/
  35:lvgl\src\lv_draw\../lv_misc/lv_area.h **** 
  36:lvgl\src\lv_draw\../lv_misc/lv_area.h **** /**
  37:lvgl\src\lv_draw\../lv_misc/lv_area.h ****  * Represents a point on the screen.
  38:lvgl\src\lv_draw\../lv_misc/lv_area.h ****  */
  39:lvgl\src\lv_draw\../lv_misc/lv_area.h **** typedef struct {
  40:lvgl\src\lv_draw\../lv_misc/lv_area.h ****     lv_coord_t x;
  41:lvgl\src\lv_draw\../lv_misc/lv_area.h ****     lv_coord_t y;
  42:lvgl\src\lv_draw\../lv_misc/lv_area.h **** } lv_point_t;
  43:lvgl\src\lv_draw\../lv_misc/lv_area.h **** 
  44:lvgl\src\lv_draw\../lv_misc/lv_area.h **** /** Represents an area of the screen. */
  45:lvgl\src\lv_draw\../lv_misc/lv_area.h **** typedef struct {
  46:lvgl\src\lv_draw\../lv_misc/lv_area.h ****     lv_coord_t x1;
  47:lvgl\src\lv_draw\../lv_misc/lv_area.h ****     lv_coord_t y1;
  48:lvgl\src\lv_draw\../lv_misc/lv_area.h ****     lv_coord_t x2;
  49:lvgl\src\lv_draw\../lv_misc/lv_area.h ****     lv_coord_t y2;
  50:lvgl\src\lv_draw\../lv_misc/lv_area.h **** } lv_area_t;
  51:lvgl\src\lv_draw\../lv_misc/lv_area.h **** 
  52:lvgl\src\lv_draw\../lv_misc/lv_area.h **** 
  53:lvgl\src\lv_draw\../lv_misc/lv_area.h **** 
  54:lvgl\src\lv_draw\../lv_misc/lv_area.h **** /** Alignments */
  55:lvgl\src\lv_draw\../lv_misc/lv_area.h **** enum {
  56:lvgl\src\lv_draw\../lv_misc/lv_area.h ****     LV_ALIGN_CENTER = 0,
  57:lvgl\src\lv_draw\../lv_misc/lv_area.h ****     LV_ALIGN_IN_TOP_LEFT,
  58:lvgl\src\lv_draw\../lv_misc/lv_area.h ****     LV_ALIGN_IN_TOP_MID,
  59:lvgl\src\lv_draw\../lv_misc/lv_area.h ****     LV_ALIGN_IN_TOP_RIGHT,
  60:lvgl\src\lv_draw\../lv_misc/lv_area.h ****     LV_ALIGN_IN_BOTTOM_LEFT,
  61:lvgl\src\lv_draw\../lv_misc/lv_area.h ****     LV_ALIGN_IN_BOTTOM_MID,
  62:lvgl\src\lv_draw\../lv_misc/lv_area.h ****     LV_ALIGN_IN_BOTTOM_RIGHT,
  63:lvgl\src\lv_draw\../lv_misc/lv_area.h ****     LV_ALIGN_IN_LEFT_MID,
  64:lvgl\src\lv_draw\../lv_misc/lv_area.h ****     LV_ALIGN_IN_RIGHT_MID,
  65:lvgl\src\lv_draw\../lv_misc/lv_area.h ****     LV_ALIGN_OUT_TOP_LEFT,
  66:lvgl\src\lv_draw\../lv_misc/lv_area.h ****     LV_ALIGN_OUT_TOP_MID,
  67:lvgl\src\lv_draw\../lv_misc/lv_area.h ****     LV_ALIGN_OUT_TOP_RIGHT,
  68:lvgl\src\lv_draw\../lv_misc/lv_area.h ****     LV_ALIGN_OUT_BOTTOM_LEFT,
  69:lvgl\src\lv_draw\../lv_misc/lv_area.h ****     LV_ALIGN_OUT_BOTTOM_MID,
  70:lvgl\src\lv_draw\../lv_misc/lv_area.h ****     LV_ALIGN_OUT_BOTTOM_RIGHT,
  71:lvgl\src\lv_draw\../lv_misc/lv_area.h ****     LV_ALIGN_OUT_LEFT_TOP,
  72:lvgl\src\lv_draw\../lv_misc/lv_area.h ****     LV_ALIGN_OUT_LEFT_MID,
  73:lvgl\src\lv_draw\../lv_misc/lv_area.h ****     LV_ALIGN_OUT_LEFT_BOTTOM,
  74:lvgl\src\lv_draw\../lv_misc/lv_area.h ****     LV_ALIGN_OUT_RIGHT_TOP,
  75:lvgl\src\lv_draw\../lv_misc/lv_area.h ****     LV_ALIGN_OUT_RIGHT_MID,
  76:lvgl\src\lv_draw\../lv_misc/lv_area.h ****     LV_ALIGN_OUT_RIGHT_BOTTOM,
  77:lvgl\src\lv_draw\../lv_misc/lv_area.h **** };
  78:lvgl\src\lv_draw\../lv_misc/lv_area.h **** typedef uint8_t lv_align_t;
  79:lvgl\src\lv_draw\../lv_misc/lv_area.h **** 
  80:lvgl\src\lv_draw\../lv_misc/lv_area.h **** 
  81:lvgl\src\lv_draw\../lv_misc/lv_area.h **** /**********************
  82:lvgl\src\lv_draw\../lv_misc/lv_area.h ****  * GLOBAL PROTOTYPES
  83:lvgl\src\lv_draw\../lv_misc/lv_area.h ****  **********************/
  84:lvgl\src\lv_draw\../lv_misc/lv_area.h **** 
  85:lvgl\src\lv_draw\../lv_misc/lv_area.h **** /**
ARM GAS  C:\Users\strap\AppData\Local\Temp\ccUgAYbc.s 			page 16


  86:lvgl\src\lv_draw\../lv_misc/lv_area.h ****  * Initialize an area
  87:lvgl\src\lv_draw\../lv_misc/lv_area.h ****  * @param area_p pointer to an area
  88:lvgl\src\lv_draw\../lv_misc/lv_area.h ****  * @param x1 left coordinate of the area
  89:lvgl\src\lv_draw\../lv_misc/lv_area.h ****  * @param y1 top coordinate of the area
  90:lvgl\src\lv_draw\../lv_misc/lv_area.h ****  * @param x2 right coordinate of the area
  91:lvgl\src\lv_draw\../lv_misc/lv_area.h ****  * @param y2 bottom coordinate of the area
  92:lvgl\src\lv_draw\../lv_misc/lv_area.h ****  */
  93:lvgl\src\lv_draw\../lv_misc/lv_area.h **** void lv_area_set(lv_area_t * area_p, lv_coord_t x1, lv_coord_t y1, lv_coord_t x2, lv_coord_t y2);
  94:lvgl\src\lv_draw\../lv_misc/lv_area.h **** 
  95:lvgl\src\lv_draw\../lv_misc/lv_area.h **** /**
  96:lvgl\src\lv_draw\../lv_misc/lv_area.h ****  * Copy an area
  97:lvgl\src\lv_draw\../lv_misc/lv_area.h ****  * @param dest pointer to the destination area
  98:lvgl\src\lv_draw\../lv_misc/lv_area.h ****  * @param src pointer to the source area
  99:lvgl\src\lv_draw\../lv_misc/lv_area.h ****  */
 100:lvgl\src\lv_draw\../lv_misc/lv_area.h **** inline static void lv_area_copy(lv_area_t * dest, const lv_area_t * src)
 101:lvgl\src\lv_draw\../lv_misc/lv_area.h **** {
 102:lvgl\src\lv_draw\../lv_misc/lv_area.h ****     _lv_memcpy_small(dest, src, sizeof(lv_area_t));
 103:lvgl\src\lv_draw\../lv_misc/lv_area.h **** }
 104:lvgl\src\lv_draw\../lv_misc/lv_area.h **** 
 105:lvgl\src\lv_draw\../lv_misc/lv_area.h **** /**
 106:lvgl\src\lv_draw\../lv_misc/lv_area.h ****  * Get the width of an area
 107:lvgl\src\lv_draw\../lv_misc/lv_area.h ****  * @param area_p pointer to an area
 108:lvgl\src\lv_draw\../lv_misc/lv_area.h ****  * @return the width of the area (if x1 == x2 -> width = 1)
 109:lvgl\src\lv_draw\../lv_misc/lv_area.h ****  */
 110:lvgl\src\lv_draw\../lv_misc/lv_area.h **** static inline lv_coord_t lv_area_get_width(const lv_area_t * area_p)
 111:lvgl\src\lv_draw\../lv_misc/lv_area.h **** {
 112:lvgl\src\lv_draw\../lv_misc/lv_area.h ****     return (lv_coord_t)(area_p->x2 - area_p->x1 + 1);
 166              		.loc 3 112 0 discriminator 4
 167 00b0 159A     		ldr	r2, [sp, #84]
 168 00b2 1346     		mov	r3, r2
 169 00b4 B2F90450 		ldrsh	r5, [r2, #4]
 170 00b8 B2F90020 		ldrsh	r2, [r2]
 171 00bc AD1A     		subs	r5, r5, r2
 172 00be 0135     		adds	r5, r5, #1
 173 00c0 2DB2     		sxth	r5, r5
 174              	.LVL19:
 175              	.LBE106:
 176              	.LBE105:
 382:lvgl\src\lv_draw/lv_draw_img.c **** 
 383:lvgl\src\lv_draw/lv_draw_img.c ****         /*Go to the first displayed pixel of the map*/
 384:lvgl\src\lv_draw/lv_draw_img.c ****         int32_t map_w = lv_area_get_width(map_area);
 177              		.loc 1 384 0 discriminator 4
 178 00c2 1895     		str	r5, [sp, #96]
 179              	.LVL20:
 385:lvgl\src\lv_draw/lv_draw_img.c ****         const uint8_t * map_buf_tmp = map_p;
 386:lvgl\src\lv_draw/lv_draw_img.c ****         map_buf_tmp += map_w * (draw_area.y1 - (map_area->y1 - disp_area->y1)) * px_size_byte;
 180              		.loc 1 386 0 discriminator 4
 181 00c4 BDF9E200 		ldrsh	r0, [sp, #226]
 182              	.LVL21:
 183 00c8 B3F90230 		ldrsh	r3, [r3, #2]
 184 00cc 139C     		ldr	r4, [sp, #76]
 185 00ce B4F91210 		ldrsh	r1, [r4, #18]
 186 00d2 5B1A     		subs	r3, r3, r1
 187 00d4 C31A     		subs	r3, r0, r3
 188 00d6 03FB05F3 		mul	r3, r3, r5
 189 00da 069F     		ldr	r7, [sp, #24]
 190 00dc 1997     		str	r7, [sp, #100]
ARM GAS  C:\Users\strap\AppData\Local\Temp\ccUgAYbc.s 			page 17


 191              	.LVL22:
 387:lvgl\src\lv_draw/lv_draw_img.c ****         map_buf_tmp += (draw_area.x1 - (map_area->x1 - disp_area->x1)) * px_size_byte;
 192              		.loc 1 387 0 discriminator 4
 193 00de BDF9E0C0 		ldrsh	ip, [sp, #224]
 194 00e2 B4F910E0 		ldrsh	lr, [r4, #16]
 195 00e6 CEEB0202 		rsb	r2, lr, r2
 196 00ea C2EB0C02 		rsb	r2, r2, ip
 197 00ee 02FB07F2 		mul	r2, r2, r7
 198 00f2 07FB0323 		mla	r3, r7, r3, r2
 199              	.LVL23:
 200 00f6 F318     		adds	r3, r6, r3
 201 00f8 1093     		str	r3, [sp, #64]
 202              	.LVL24:
 388:lvgl\src\lv_draw/lv_draw_img.c **** 
 389:lvgl\src\lv_draw/lv_draw_img.c ****         lv_color_t c;
 390:lvgl\src\lv_draw/lv_draw_img.c ****         lv_color_t chroma_keyed_color = LV_COLOR_TRANSP;
 391:lvgl\src\lv_draw/lv_draw_img.c ****         uint32_t px_i = 0;
 392:lvgl\src\lv_draw/lv_draw_img.c **** 
 393:lvgl\src\lv_draw/lv_draw_img.c ****         const uint8_t * map_px;
 394:lvgl\src\lv_draw/lv_draw_img.c **** 
 395:lvgl\src\lv_draw/lv_draw_img.c ****         lv_area_t blend_area;
 396:lvgl\src\lv_draw/lv_draw_img.c ****         blend_area.x1 = draw_area.x1 + disp_area->x1;
 203              		.loc 1 396 0 discriminator 4
 204 00fa 1FFA8CF2 		uxth	r2, ip
 205 00fe 02EB0E03 		add	r3, r2, lr
 206              	.LVL25:
 207 0102 9FB2     		uxth	r7, r3
 208 0104 ADF88C70 		strh	r7, [sp, #140]	@ movhi
 209              	.LVL26:
 210              	.LBB107:
 211              	.LBB108:
 212              		.loc 3 112 0 discriminator 4
 213 0108 BDF9E430 		ldrsh	r3, [sp, #228]
 214 010c 9A1A     		subs	r2, r3, r2
 215 010e 0132     		adds	r2, r2, #1
 216 0110 93B2     		uxth	r3, r2
 217 0112 0FFA83FA 		sxth	r10, r3
 218              	.LVL27:
 219              	.LBE108:
 220              	.LBE107:
 397:lvgl\src\lv_draw/lv_draw_img.c ****         blend_area.x2 = blend_area.x1 + lv_area_get_width(&draw_area) - 1;
 221              		.loc 1 397 0 discriminator 4
 222 0116 3B44     		add	r3, r3, r7
 223 0118 013B     		subs	r3, r3, #1
 224 011a ADF89030 		strh	r3, [sp, #144]	@ movhi
 398:lvgl\src\lv_draw/lv_draw_img.c ****         blend_area.y1 = disp_area->y1 + draw_area.y1;
 225              		.loc 1 398 0 discriminator 4
 226 011e 80B2     		uxth	r0, r0
 227 0120 4318     		adds	r3, r0, r1
 228 0122 1BB2     		sxth	r3, r3
 229 0124 ADF88E30 		strh	r3, [sp, #142]	@ movhi
 399:lvgl\src\lv_draw/lv_draw_img.c ****         blend_area.y2 = blend_area.y1;
 230              		.loc 1 399 0 discriminator 4
 231 0128 ADF89230 		strh	r3, [sp, #146]	@ movhi
 232              	.LVL28:
 233              	.LBB109:
 234              	.LBB110:
ARM GAS  C:\Users\strap\AppData\Local\Temp\ccUgAYbc.s 			page 18


 113:lvgl\src\lv_draw\../lv_misc/lv_area.h **** }
 114:lvgl\src\lv_draw\../lv_misc/lv_area.h **** 
 115:lvgl\src\lv_draw\../lv_misc/lv_area.h **** /**
 116:lvgl\src\lv_draw\../lv_misc/lv_area.h ****  * Get the height of an area
 117:lvgl\src\lv_draw\../lv_misc/lv_area.h ****  * @param area_p pointer to an area
 118:lvgl\src\lv_draw\../lv_misc/lv_area.h ****  * @return the height of the area (if y1 == y2 -> height = 1)
 119:lvgl\src\lv_draw\../lv_misc/lv_area.h ****  */
 120:lvgl\src\lv_draw\../lv_misc/lv_area.h **** static inline lv_coord_t lv_area_get_height(const lv_area_t * area_p)
 121:lvgl\src\lv_draw\../lv_misc/lv_area.h **** {
 122:lvgl\src\lv_draw\../lv_misc/lv_area.h ****     return (lv_coord_t)(area_p->y2 - area_p->y1 + 1);
 235              		.loc 3 122 0 discriminator 4
 236 012c BDF9E630 		ldrsh	r3, [sp, #230]
 237 0130 1B1A     		subs	r3, r3, r0
 238 0132 0133     		adds	r3, r3, #1
 239 0134 1BB2     		sxth	r3, r3
 240 0136 1793     		str	r3, [sp, #92]
 241              	.LVL29:
 242              	.LBE110:
 243              	.LBE109:
 400:lvgl\src\lv_draw/lv_draw_img.c **** 
 401:lvgl\src\lv_draw/lv_draw_img.c ****         lv_coord_t draw_area_h = lv_area_get_height(&draw_area);
 402:lvgl\src\lv_draw/lv_draw_img.c ****         lv_coord_t draw_area_w = lv_area_get_width(&draw_area);
 403:lvgl\src\lv_draw/lv_draw_img.c **** 
 404:lvgl\src\lv_draw/lv_draw_img.c **** #if LV_USE_IMG_TRANSFORM
 405:lvgl\src\lv_draw/lv_draw_img.c ****         bool transform = draw_dsc->angle != 0 || draw_dsc->zoom != LV_IMG_ZOOM_NONE ? true : false;
 244              		.loc 1 405 0 discriminator 4
 245 0138 099A     		ldr	r2, [sp, #36]
 246 013a 5388     		ldrh	r3, [r2, #2]
 247 013c 2BB9     		cbnz	r3, .L55
 248              		.loc 1 405 0 is_stmt 0 discriminator 2
 249 013e 1389     		ldrh	r3, [r2, #8]
 250 0140 B3F5807F 		cmp	r3, #256
 251 0144 03D0     		beq	.L56
 252              		.loc 1 405 0
 253 0146 0123     		movs	r3, #1
 254 0148 02E0     		b	.L7
 255              	.L55:
 256 014a 0123     		movs	r3, #1
 257 014c 00E0     		b	.L7
 258              	.L56:
 259 014e 0023     		movs	r3, #0
 260              	.L7:
 261              		.loc 1 405 0 discriminator 6
 262 0150 0793     		str	r3, [sp, #28]
 263              	.LVL30:
 406:lvgl\src\lv_draw/lv_draw_img.c **** #else
 407:lvgl\src\lv_draw/lv_draw_img.c ****         bool transform = false;
 408:lvgl\src\lv_draw/lv_draw_img.c **** #endif
 409:lvgl\src\lv_draw/lv_draw_img.c ****         /*Simple ARGB image. Handle it as special case because it's very common*/
 410:lvgl\src\lv_draw/lv_draw_img.c ****         if(other_mask_cnt == 0 && !transform && !chroma_key && draw_dsc->recolor_opa == LV_OPA_TRAN
 264              		.loc 1 410 0 is_stmt 1 discriminator 6
 265 0152 149A     		ldr	r2, [sp, #80]
 266 0154 002A     		cmp	r2, #0
 267 0156 40F08B80 		bne	.L8
 268              		.loc 1 410 0 is_stmt 0 discriminator 1
 269 015a 002B     		cmp	r3, #0
 270 015c 40F08880 		bne	.L8
ARM GAS  C:\Users\strap\AppData\Local\Temp\ccUgAYbc.s 			page 19


 271              		.loc 1 410 0 discriminator 2
 272 0160 0D9B     		ldr	r3, [sp, #52]
 273              	.LVL31:
 274 0162 002B     		cmp	r3, #0
 275 0164 40F08480 		bne	.L8
 276              		.loc 1 410 0 discriminator 3
 277 0168 099B     		ldr	r3, [sp, #36]
 278 016a 9B7A     		ldrb	r3, [r3, #10]	@ zero_extendqisi2
 279 016c 002B     		cmp	r3, #0
 280 016e 7FD1     		bne	.L8
 281              		.loc 1 410 0 discriminator 4
 282 0170 089B     		ldr	r3, [sp, #32]
 283 0172 002B     		cmp	r3, #0
 284 0174 7CD0     		beq	.L8
 285              	.LBB111:
 411:lvgl\src\lv_draw/lv_draw_img.c **** #if LV_USE_GPU_STM32_DMA2D && LV_COLOR_DEPTH == 32
 412:lvgl\src\lv_draw/lv_draw_img.c ****             /*Blend ARGB images directly*/
 413:lvgl\src\lv_draw/lv_draw_img.c ****             if(lv_area_get_size(&draw_area) > 240) {
 414:lvgl\src\lv_draw/lv_draw_img.c ****                 int32_t disp_w = lv_area_get_width(disp_area);
 415:lvgl\src\lv_draw/lv_draw_img.c ****                 lv_color_t * disp_buf = vdb->buf_act;
 416:lvgl\src\lv_draw/lv_draw_img.c ****                 lv_color_t * disp_buf_first = disp_buf + disp_w * draw_area.y1 + draw_area.x1;
 417:lvgl\src\lv_draw/lv_draw_img.c ****                 lv_gpu_stm32_dma2d_blend(disp_buf_first, disp_w, (const lv_color_t *)map_buf_tmp, d
 418:lvgl\src\lv_draw/lv_draw_img.c ****                                          draw_area_h);
 419:lvgl\src\lv_draw/lv_draw_img.c ****                 return;
 420:lvgl\src\lv_draw/lv_draw_img.c ****             }
 421:lvgl\src\lv_draw/lv_draw_img.c **** #endif
 422:lvgl\src\lv_draw/lv_draw_img.c ****             uint32_t hor_res = (uint32_t) lv_disp_get_hor_res(disp);
 286              		.loc 1 422 0 is_stmt 1
 287 0176 4046     		mov	r0, r8
 288 0178 FFF7FEFF 		bl	lv_disp_get_hor_res
 289              	.LVL32:
 290 017c 0446     		mov	r4, r0
 291 017e 0746     		mov	r7, r0
 292              	.LVL33:
 423:lvgl\src\lv_draw/lv_draw_img.c ****             uint32_t mask_buf_size = lv_area_get_size(&draw_area) > (uint32_t) hor_res ? hor_res : 
 293              		.loc 1 423 0
 294 0180 38A8     		add	r0, sp, #224
 295              	.LVL34:
 296 0182 FFF7FEFF 		bl	lv_area_get_size
 297              	.LVL35:
 298 0186 8442     		cmp	r4, r0
 299 0188 03D3     		bcc	.L9
 300              		.loc 1 423 0 is_stmt 0 discriminator 1
 301 018a 38A8     		add	r0, sp, #224
 302 018c FFF7FEFF 		bl	lv_area_get_size
 303              	.LVL36:
 304 0190 0746     		mov	r7, r0
 305              	.L9:
 306              	.LVL37:
 424:lvgl\src\lv_draw/lv_draw_img.c ****             lv_color_t * map2 = _lv_mem_buf_get(mask_buf_size * sizeof(lv_color_t));
 307              		.loc 1 424 0 is_stmt 1 discriminator 4
 308 0192 7800     		lsls	r0, r7, #1
 309 0194 FFF7FEFF 		bl	_lv_mem_buf_get
 310              	.LVL38:
 311 0198 0546     		mov	r5, r0
 312              	.LVL39:
 425:lvgl\src\lv_draw/lv_draw_img.c ****             lv_opa_t * mask_buf = _lv_mem_buf_get(mask_buf_size);
ARM GAS  C:\Users\strap\AppData\Local\Temp\ccUgAYbc.s 			page 20


 313              		.loc 1 425 0 discriminator 4
 314 019a 3846     		mov	r0, r7
 315              	.LVL40:
 316 019c FFF7FEFF 		bl	_lv_mem_buf_get
 317              	.LVL41:
 318 01a0 0446     		mov	r4, r0
 319              	.LVL42:
 426:lvgl\src\lv_draw/lv_draw_img.c **** 
 427:lvgl\src\lv_draw/lv_draw_img.c ****             int32_t x;
 428:lvgl\src\lv_draw/lv_draw_img.c ****             int32_t y;
 429:lvgl\src\lv_draw/lv_draw_img.c ****             for(y = 0; y < draw_area_h; y++) {
 320              		.loc 1 429 0 discriminator 4
 321 01a2 0026     		movs	r6, #0
 322              	.LVL43:
 323              	.LBE111:
 391:lvgl\src\lv_draw/lv_draw_img.c **** 
 324              		.loc 1 391 0 discriminator 4
 325 01a4 3246     		mov	r2, r6
 326 01a6 DDF84090 		ldr	r9, [sp, #64]
 327 01aa DDF81880 		ldr	r8, [sp, #24]
 328              	.LVL44:
 329 01ae DDF824B0 		ldr	fp, [sp, #36]
 330              	.LBB115:
 331              		.loc 1 429 0 discriminator 4
 332 01b2 3DE0     		b	.L10
 333              	.LVL45:
 334              	.L12:
 335              	.LBB112:
 430:lvgl\src\lv_draw/lv_draw_img.c ****                 map_px = map_buf_tmp;
 431:lvgl\src\lv_draw/lv_draw_img.c ****                 for(x = 0; x < draw_area_w; x++, map_px += px_size_byte, px_i++) {
 432:lvgl\src\lv_draw/lv_draw_img.c ****                     lv_opa_t px_opa = map_px[LV_IMG_PX_SIZE_ALPHA_BYTE - 1];
 336              		.loc 1 432 0
 337 01b4 9878     		ldrb	r0, [r3, #2]	@ zero_extendqisi2
 338              	.LVL46:
 433:lvgl\src\lv_draw/lv_draw_img.c ****                     mask_buf[px_i] = px_opa;
 339              		.loc 1 433 0
 340 01b6 A054     		strb	r0, [r4, r2]
 434:lvgl\src\lv_draw/lv_draw_img.c ****                     if(px_opa) {
 341              		.loc 1 434 0
 342 01b8 30B1     		cbz	r0, .L11
 435:lvgl\src\lv_draw/lv_draw_img.c **** #if LV_COLOR_DEPTH == 8 || LV_COLOR_DEPTH == 1
 436:lvgl\src\lv_draw/lv_draw_img.c ****                         map2[px_i].full =  map_px[0];
 437:lvgl\src\lv_draw/lv_draw_img.c **** #elif LV_COLOR_DEPTH == 16
 438:lvgl\src\lv_draw/lv_draw_img.c ****                         map2[px_i].full =  map_px[0] + (map_px[1] << 8);
 343              		.loc 1 438 0
 344 01ba 1878     		ldrb	r0, [r3]	@ zero_extendqisi2
 345              	.LVL47:
 346 01bc 93F801E0 		ldrb	lr, [r3, #1]	@ zero_extendqisi2
 347 01c0 00EB0E20 		add	r0, r0, lr, lsl #8
 348 01c4 25F81200 		strh	r0, [r5, r2, lsl #1]	@ movhi
 349              	.LVL48:
 350              	.L11:
 351              	.LBE112:
 431:lvgl\src\lv_draw/lv_draw_img.c ****                     lv_opa_t px_opa = map_px[LV_IMG_PX_SIZE_ALPHA_BYTE - 1];
 352              		.loc 1 431 0 discriminator 2
 353 01c8 0131     		adds	r1, r1, #1
 354              	.LVL49:
ARM GAS  C:\Users\strap\AppData\Local\Temp\ccUgAYbc.s 			page 21


 355 01ca 4344     		add	r3, r3, r8
 356              	.LVL50:
 357 01cc 0132     		adds	r2, r2, #1
 358              	.LVL51:
 359 01ce 01E0     		b	.L15
 360              	.LVL52:
 361              	.L57:
 362 01d0 4B46     		mov	r3, r9
 363 01d2 0021     		movs	r1, #0
 364              	.L15:
 365              	.LVL53:
 431:lvgl\src\lv_draw/lv_draw_img.c ****                     lv_opa_t px_opa = map_px[LV_IMG_PX_SIZE_ALPHA_BYTE - 1];
 366              		.loc 1 431 0 is_stmt 0 discriminator 1
 367 01d4 5145     		cmp	r1, r10
 368 01d6 EDDB     		blt	.L12
 439:lvgl\src\lv_draw/lv_draw_img.c **** #elif LV_COLOR_DEPTH == 32
 440:lvgl\src\lv_draw/lv_draw_img.c ****                         map2[px_i].full =  *((uint32_t *)map_px);
 441:lvgl\src\lv_draw/lv_draw_img.c **** #endif
 442:lvgl\src\lv_draw/lv_draw_img.c ****                     }
 443:lvgl\src\lv_draw/lv_draw_img.c **** #if LV_COLOR_DEPTH == 32
 444:lvgl\src\lv_draw/lv_draw_img.c ****                     map2[px_i].ch.alpha = 0xFF;
 445:lvgl\src\lv_draw/lv_draw_img.c **** #endif
 446:lvgl\src\lv_draw/lv_draw_img.c ****                 }
 447:lvgl\src\lv_draw/lv_draw_img.c **** 
 448:lvgl\src\lv_draw/lv_draw_img.c ****                 map_buf_tmp += map_w * px_size_byte;
 369              		.loc 1 448 0 is_stmt 1
 370 01d8 189B     		ldr	r3, [sp, #96]
 371              	.LVL54:
 372 01da 1999     		ldr	r1, [sp, #100]
 373              	.LVL55:
 374 01dc 01FB0399 		mla	r9, r1, r3, r9
 375              	.LVL56:
 376              	.LBB113:
 377              	.LBB114:
 112:lvgl\src\lv_draw\../lv_misc/lv_area.h **** }
 378              		.loc 3 112 0
 379 01e0 BDF9E430 		ldrsh	r3, [sp, #228]
 380 01e4 BDF9E010 		ldrsh	r1, [sp, #224]
 381 01e8 5B1A     		subs	r3, r3, r1
 382 01ea 0133     		adds	r3, r3, #1
 383 01ec 1BB2     		sxth	r3, r3
 384              	.LVL57:
 385              	.LBE114:
 386              	.LBE113:
 449:lvgl\src\lv_draw/lv_draw_img.c ****                 if(px_i + lv_area_get_width(&draw_area) < mask_buf_size) {
 387              		.loc 1 449 0
 388 01ee 1344     		add	r3, r3, r2
 389 01f0 9F42     		cmp	r7, r3
 390 01f2 05D9     		bls	.L13
 450:lvgl\src\lv_draw/lv_draw_img.c ****                     blend_area.y2 ++;
 391              		.loc 1 450 0
 392 01f4 BDF99230 		ldrsh	r3, [sp, #146]
 393 01f8 0133     		adds	r3, r3, #1
 394 01fa ADF89230 		strh	r3, [sp, #146]	@ movhi
 395 01fe 16E0     		b	.L14
 396              	.L13:
 451:lvgl\src\lv_draw/lv_draw_img.c ****                 }
ARM GAS  C:\Users\strap\AppData\Local\Temp\ccUgAYbc.s 			page 22


 452:lvgl\src\lv_draw/lv_draw_img.c ****                 else {
 453:lvgl\src\lv_draw/lv_draw_img.c ****                     _lv_blend_map(clip_area, &blend_area, map2, mask_buf, LV_DRAW_MASK_RES_CHANGED,
 397              		.loc 1 453 0
 398 0200 9BF80E30 		ldrb	r3, [fp, #14]	@ zero_extendqisi2
 399 0204 0293     		str	r3, [sp, #8]
 400 0206 9BF80030 		ldrb	r3, [fp]	@ zero_extendqisi2
 401 020a 0193     		str	r3, [sp, #4]
 402 020c 0223     		movs	r3, #2
 403 020e 0093     		str	r3, [sp]
 404 0210 2346     		mov	r3, r4
 405 0212 2A46     		mov	r2, r5
 406              	.LVL58:
 407 0214 23A9     		add	r1, sp, #140
 408 0216 1E98     		ldr	r0, [sp, #120]
 409 0218 FFF7FEFF 		bl	_lv_blend_map
 410              	.LVL59:
 454:lvgl\src\lv_draw/lv_draw_img.c **** 
 455:lvgl\src\lv_draw/lv_draw_img.c ****                     blend_area.y1 = blend_area.y2 + 1;
 411              		.loc 1 455 0
 412 021c BDF99230 		ldrsh	r3, [sp, #146]
 413 0220 0133     		adds	r3, r3, #1
 414 0222 1BB2     		sxth	r3, r3
 415 0224 ADF88E30 		strh	r3, [sp, #142]	@ movhi
 456:lvgl\src\lv_draw/lv_draw_img.c ****                     blend_area.y2 = blend_area.y1;
 416              		.loc 1 456 0
 417 0228 ADF89230 		strh	r3, [sp, #146]	@ movhi
 418              	.LVL60:
 457:lvgl\src\lv_draw/lv_draw_img.c **** 
 458:lvgl\src\lv_draw/lv_draw_img.c ****                     px_i = 0;
 419              		.loc 1 458 0
 420 022c 0022     		movs	r2, #0
 421              	.LVL61:
 422              	.L14:
 429:lvgl\src\lv_draw/lv_draw_img.c ****                 map_px = map_buf_tmp;
 423              		.loc 1 429 0 discriminator 2
 424 022e 0136     		adds	r6, r6, #1
 425              	.LVL62:
 426              	.L10:
 429:lvgl\src\lv_draw/lv_draw_img.c ****                 map_px = map_buf_tmp;
 427              		.loc 1 429 0 is_stmt 0 discriminator 1
 428 0230 179B     		ldr	r3, [sp, #92]
 429 0232 9E42     		cmp	r6, r3
 430 0234 CCDB     		blt	.L57
 459:lvgl\src\lv_draw/lv_draw_img.c ****                 }
 460:lvgl\src\lv_draw/lv_draw_img.c ****             }
 461:lvgl\src\lv_draw/lv_draw_img.c ****             /*Flush the last part*/
 462:lvgl\src\lv_draw/lv_draw_img.c ****             if(blend_area.y1 != blend_area.y2) {
 431              		.loc 1 462 0 is_stmt 1
 432 0236 BDF98E20 		ldrsh	r2, [sp, #142]
 433              	.LVL63:
 434 023a BDF99230 		ldrsh	r3, [sp, #146]
 435 023e 9A42     		cmp	r2, r3
 436 0240 0FD0     		beq	.L16
 463:lvgl\src\lv_draw/lv_draw_img.c ****                 blend_area.y2--;
 437              		.loc 1 463 0
 438 0242 013B     		subs	r3, r3, #1
 439 0244 ADF89230 		strh	r3, [sp, #146]	@ movhi
ARM GAS  C:\Users\strap\AppData\Local\Temp\ccUgAYbc.s 			page 23


 464:lvgl\src\lv_draw/lv_draw_img.c ****                 _lv_blend_map(clip_area, &blend_area, map2, mask_buf, LV_DRAW_MASK_RES_CHANGED, dra
 440              		.loc 1 464 0
 441 0248 099A     		ldr	r2, [sp, #36]
 442 024a 937B     		ldrb	r3, [r2, #14]	@ zero_extendqisi2
 443 024c 0293     		str	r3, [sp, #8]
 444 024e 1378     		ldrb	r3, [r2]	@ zero_extendqisi2
 445 0250 0193     		str	r3, [sp, #4]
 446 0252 0223     		movs	r3, #2
 447 0254 0093     		str	r3, [sp]
 448 0256 2346     		mov	r3, r4
 449 0258 2A46     		mov	r2, r5
 450 025a 23A9     		add	r1, sp, #140
 451 025c 1E98     		ldr	r0, [sp, #120]
 452 025e FFF7FEFF 		bl	_lv_blend_map
 453              	.LVL64:
 454              	.L16:
 465:lvgl\src\lv_draw/lv_draw_img.c ****             }
 466:lvgl\src\lv_draw/lv_draw_img.c **** 
 467:lvgl\src\lv_draw/lv_draw_img.c ****             _lv_mem_buf_release(mask_buf);
 455              		.loc 1 467 0
 456 0262 2046     		mov	r0, r4
 457 0264 FFF7FEFF 		bl	_lv_mem_buf_release
 458              	.LVL65:
 468:lvgl\src\lv_draw/lv_draw_img.c ****             _lv_mem_buf_release(map2);
 459              		.loc 1 468 0
 460 0268 2846     		mov	r0, r5
 461 026a FFF7FEFF 		bl	_lv_mem_buf_release
 462              	.LVL66:
 463              	.LBE115:
 410:lvgl\src\lv_draw/lv_draw_img.c **** #if LV_USE_GPU_STM32_DMA2D && LV_COLOR_DEPTH == 32
 464              		.loc 1 410 0
 465 026e 9AE2     		b	.L1
 466              	.LVL67:
 467              	.L8:
 468              	.LBB116:
 469:lvgl\src\lv_draw/lv_draw_img.c ****         }
 470:lvgl\src\lv_draw/lv_draw_img.c ****         /*Most complicated case: transform or other mask or chroma keyed*/
 471:lvgl\src\lv_draw/lv_draw_img.c ****         else {
 472:lvgl\src\lv_draw/lv_draw_img.c ****             /*Build the image and a mask line-by-line*/
 473:lvgl\src\lv_draw/lv_draw_img.c ****             uint32_t hor_res = (uint32_t) lv_disp_get_hor_res(disp);
 469              		.loc 1 473 0
 470 0270 4046     		mov	r0, r8
 471 0272 FFF7FEFF 		bl	lv_disp_get_hor_res
 472              	.LVL68:
 473 0276 0446     		mov	r4, r0
 474 0278 1690     		str	r0, [sp, #88]
 475              	.LVL69:
 474:lvgl\src\lv_draw/lv_draw_img.c ****             uint32_t mask_buf_size = lv_area_get_size(&draw_area) > hor_res ? hor_res : lv_area_get
 476              		.loc 1 474 0
 477 027a 38A8     		add	r0, sp, #224
 478              	.LVL70:
 479 027c FFF7FEFF 		bl	lv_area_get_size
 480              	.LVL71:
 481 0280 8442     		cmp	r4, r0
 482 0282 03D3     		bcc	.L18
 483              		.loc 1 474 0 is_stmt 0 discriminator 1
 484 0284 38A8     		add	r0, sp, #224
ARM GAS  C:\Users\strap\AppData\Local\Temp\ccUgAYbc.s 			page 24


 485 0286 FFF7FEFF 		bl	lv_area_get_size
 486              	.LVL72:
 487 028a 1690     		str	r0, [sp, #88]
 488              	.L18:
 489              	.LVL73:
 475:lvgl\src\lv_draw/lv_draw_img.c ****             lv_color_t * map2 = _lv_mem_buf_get(mask_buf_size * sizeof(lv_color_t));
 490              		.loc 1 475 0 is_stmt 1 discriminator 4
 491 028c 169C     		ldr	r4, [sp, #88]
 492              	.LVL74:
 493 028e 6000     		lsls	r0, r4, #1
 494 0290 FFF7FEFF 		bl	_lv_mem_buf_get
 495              	.LVL75:
 496 0294 0A90     		str	r0, [sp, #40]
 497              	.LVL76:
 476:lvgl\src\lv_draw/lv_draw_img.c ****             lv_opa_t * mask_buf = _lv_mem_buf_get(mask_buf_size);
 498              		.loc 1 476 0 discriminator 4
 499 0296 2046     		mov	r0, r4
 500              	.LVL77:
 501 0298 FFF7FEFF 		bl	_lv_mem_buf_get
 502              	.LVL78:
 503 029c 8346     		mov	fp, r0
 504              	.LVL79:
 477:lvgl\src\lv_draw/lv_draw_img.c **** 
 478:lvgl\src\lv_draw/lv_draw_img.c **** #if LV_USE_IMG_TRANSFORM
 479:lvgl\src\lv_draw/lv_draw_img.c ****             lv_img_transform_dsc_t trans_dsc;
 480:lvgl\src\lv_draw/lv_draw_img.c ****             _lv_memset_00(&trans_dsc, sizeof(lv_img_transform_dsc_t));
 505              		.loc 1 480 0 discriminator 4
 506 029e 4C21     		movs	r1, #76
 507 02a0 25A8     		add	r0, sp, #148
 508              	.LVL80:
 509 02a2 FFF7FEFF 		bl	_lv_memset_00
 510              	.LVL81:
 481:lvgl\src\lv_draw/lv_draw_img.c ****             if(transform) {
 511              		.loc 1 481 0 discriminator 4
 512 02a6 079B     		ldr	r3, [sp, #28]
 513 02a8 83B3     		cbz	r3, .L19
 514              	.LVL82:
 515              	.LBB117:
 482:lvgl\src\lv_draw/lv_draw_img.c ****                 lv_img_cf_t cf = LV_IMG_CF_TRUE_COLOR;
 483:lvgl\src\lv_draw/lv_draw_img.c ****                 if(alpha_byte) cf = LV_IMG_CF_TRUE_COLOR_ALPHA;
 516              		.loc 1 483 0
 517 02aa 089B     		ldr	r3, [sp, #32]
 518 02ac 1BB9     		cbnz	r3, .L58
 484:lvgl\src\lv_draw/lv_draw_img.c ****                 else if(chroma_key) cf = LV_IMG_CF_TRUE_COLOR_CHROMA_KEYED;
 519              		.loc 1 484 0
 520 02ae 0D9B     		ldr	r3, [sp, #52]
 521 02b0 1BB9     		cbnz	r3, .L59
 482:lvgl\src\lv_draw/lv_draw_img.c ****                 lv_img_cf_t cf = LV_IMG_CF_TRUE_COLOR;
 522              		.loc 1 482 0
 523 02b2 0422     		movs	r2, #4
 524 02b4 02E0     		b	.L20
 525              	.L58:
 483:lvgl\src\lv_draw/lv_draw_img.c ****                 else if(chroma_key) cf = LV_IMG_CF_TRUE_COLOR_CHROMA_KEYED;
 526              		.loc 1 483 0
 527 02b6 0522     		movs	r2, #5
 528 02b8 00E0     		b	.L20
 529              	.L59:
ARM GAS  C:\Users\strap\AppData\Local\Temp\ccUgAYbc.s 			page 25


 530              		.loc 1 484 0
 531 02ba 0622     		movs	r2, #6
 532              	.L20:
 533              	.LVL83:
 485:lvgl\src\lv_draw/lv_draw_img.c **** 
 486:lvgl\src\lv_draw/lv_draw_img.c ****                 trans_dsc.cfg.angle = draw_dsc->angle;
 534              		.loc 1 486 0
 535 02bc 0998     		ldr	r0, [sp, #36]
 536 02be 4388     		ldrh	r3, [r0, #2]
 537 02c0 ADF8A030 		strh	r3, [sp, #160]	@ movhi
 487:lvgl\src\lv_draw/lv_draw_img.c ****                 trans_dsc.cfg.zoom = draw_dsc->zoom;
 538              		.loc 1 487 0
 539 02c4 0389     		ldrh	r3, [r0, #8]
 540 02c6 ADF8A230 		strh	r3, [sp, #162]	@ movhi
 488:lvgl\src\lv_draw/lv_draw_img.c ****                 trans_dsc.cfg.src = map_p;
 541              		.loc 1 488 0
 542 02ca 2596     		str	r6, [sp, #148]
 489:lvgl\src\lv_draw/lv_draw_img.c ****                 trans_dsc.cfg.src_w = map_w;
 543              		.loc 1 489 0
 544 02cc ADF89850 		strh	r5, [sp, #152]	@ movhi
 545              	.LVL84:
 546              	.LBB118:
 547              	.LBB119:
 548              		.loc 3 122 0
 549 02d0 1599     		ldr	r1, [sp, #84]
 550 02d2 B1F90630 		ldrsh	r3, [r1, #6]
 551 02d6 B1F90210 		ldrsh	r1, [r1, #2]
 552 02da 5B1A     		subs	r3, r3, r1
 553 02dc 0133     		adds	r3, r3, #1
 554              	.LVL85:
 555              	.LBE119:
 556              	.LBE118:
 490:lvgl\src\lv_draw/lv_draw_img.c ****                 trans_dsc.cfg.src_h = lv_area_get_height(map_area);;
 557              		.loc 1 490 0
 558 02de ADF89A30 		strh	r3, [sp, #154]	@ movhi
 491:lvgl\src\lv_draw/lv_draw_img.c ****                 trans_dsc.cfg.cf = cf;
 559              		.loc 1 491 0
 560 02e2 8DF8A620 		strb	r2, [sp, #166]
 492:lvgl\src\lv_draw/lv_draw_img.c ****                 trans_dsc.cfg.pivot_x = draw_dsc->pivot.x;
 561              		.loc 1 492 0
 562 02e6 B0F90430 		ldrsh	r3, [r0, #4]
 563 02ea ADF89C30 		strh	r3, [sp, #156]	@ movhi
 493:lvgl\src\lv_draw/lv_draw_img.c ****                 trans_dsc.cfg.pivot_y = draw_dsc->pivot.y;
 564              		.loc 1 493 0
 565 02ee B0F90630 		ldrsh	r3, [r0, #6]
 566 02f2 ADF89E30 		strh	r3, [sp, #158]	@ movhi
 494:lvgl\src\lv_draw/lv_draw_img.c ****                 trans_dsc.cfg.color = draw_dsc->recolor;
 567              		.loc 1 494 0
 568 02f6 8389     		ldrh	r3, [r0, #12]
 569 02f8 ADF8A430 		strh	r3, [sp, #164]	@ movhi
 495:lvgl\src\lv_draw/lv_draw_img.c ****                 trans_dsc.cfg.antialias = draw_dsc->antialias;
 570              		.loc 1 495 0
 571 02fc C37B     		ldrb	r3, [r0, #15]	@ zero_extendqisi2
 572 02fe C3F30003 		ubfx	r3, r3, #0, #1
 573 0302 8DF8A730 		strb	r3, [sp, #167]
 496:lvgl\src\lv_draw/lv_draw_img.c **** 
 497:lvgl\src\lv_draw/lv_draw_img.c ****                 _lv_img_buf_transform_init(&trans_dsc);
ARM GAS  C:\Users\strap\AppData\Local\Temp\ccUgAYbc.s 			page 26


 574              		.loc 1 497 0
 575 0306 25A8     		add	r0, sp, #148
 576 0308 FFF7FEFF 		bl	_lv_img_buf_transform_init
 577              	.LVL86:
 578              	.L19:
 579              	.LBE117:
 498:lvgl\src\lv_draw/lv_draw_img.c ****             }
 499:lvgl\src\lv_draw/lv_draw_img.c **** #endif
 500:lvgl\src\lv_draw/lv_draw_img.c ****             uint16_t recolor_premult[3] = {0};
 580              		.loc 1 500 0
 581 030c 0023     		movs	r3, #0
 582 030e 2193     		str	r3, [sp, #132]
 583 0310 ADF88830 		strh	r3, [sp, #136]	@ movhi
 501:lvgl\src\lv_draw/lv_draw_img.c ****             lv_opa_t recolor_opa_inv = 255 - draw_dsc->recolor_opa;
 584              		.loc 1 501 0
 585 0314 0999     		ldr	r1, [sp, #36]
 586 0316 8A7A     		ldrb	r2, [r1, #10]	@ zero_extendqisi2
 587 0318 D343     		mvns	r3, r2
 588 031a DBB2     		uxtb	r3, r3
 589 031c 0F93     		str	r3, [sp, #60]
 590              	.LVL87:
 502:lvgl\src\lv_draw/lv_draw_img.c ****             if(draw_dsc->recolor_opa != 0) {
 591              		.loc 1 502 0
 592 031e BAB1     		cbz	r2, .L21
 593 0320 8B89     		ldrh	r3, [r1, #12]
 594              	.LVL88:
 595              	.LBB120:
 596              	.LBB121:
 597              		.file 4 "lvgl\\src\\lv_draw\\../lv_misc/lv_color.h"
   1:lvgl\src\lv_draw\../lv_misc/lv_color.h **** /**
   2:lvgl\src\lv_draw\../lv_misc/lv_color.h ****  * @file lv_color.h
   3:lvgl\src\lv_draw\../lv_misc/lv_color.h ****  *
   4:lvgl\src\lv_draw\../lv_misc/lv_color.h ****  */
   5:lvgl\src\lv_draw\../lv_misc/lv_color.h **** 
   6:lvgl\src\lv_draw\../lv_misc/lv_color.h **** #ifndef LV_COLOR_H
   7:lvgl\src\lv_draw\../lv_misc/lv_color.h **** #define LV_COLOR_H
   8:lvgl\src\lv_draw\../lv_misc/lv_color.h **** 
   9:lvgl\src\lv_draw\../lv_misc/lv_color.h **** #ifdef __cplusplus
  10:lvgl\src\lv_draw\../lv_misc/lv_color.h **** extern "C" {
  11:lvgl\src\lv_draw\../lv_misc/lv_color.h **** #endif
  12:lvgl\src\lv_draw\../lv_misc/lv_color.h **** 
  13:lvgl\src\lv_draw\../lv_misc/lv_color.h **** /*********************
  14:lvgl\src\lv_draw\../lv_misc/lv_color.h ****  *      INCLUDES
  15:lvgl\src\lv_draw\../lv_misc/lv_color.h ****  *********************/
  16:lvgl\src\lv_draw\../lv_misc/lv_color.h **** #include "../lv_conf_internal.h"
  17:lvgl\src\lv_draw\../lv_misc/lv_color.h **** #include "lv_math.h"
  18:lvgl\src\lv_draw\../lv_misc/lv_color.h **** 
  19:lvgl\src\lv_draw\../lv_misc/lv_color.h **** /*Error checking*/
  20:lvgl\src\lv_draw\../lv_misc/lv_color.h **** #if LV_COLOR_DEPTH == 24
  21:lvgl\src\lv_draw\../lv_misc/lv_color.h **** #error "LV_COLOR_DEPTH  24 is deprecated. Use LV_COLOR_DEPTH  32 instead (lv_conf.h)"
  22:lvgl\src\lv_draw\../lv_misc/lv_color.h **** #endif
  23:lvgl\src\lv_draw\../lv_misc/lv_color.h **** 
  24:lvgl\src\lv_draw\../lv_misc/lv_color.h **** #if LV_COLOR_DEPTH != 32 && LV_COLOR_SCREEN_TRANSP != 0
  25:lvgl\src\lv_draw\../lv_misc/lv_color.h **** #error "LV_COLOR_SCREEN_TRANSP requires LV_COLOR_DEPTH == 32. Set it in lv_conf.h"
  26:lvgl\src\lv_draw\../lv_misc/lv_color.h **** #endif
  27:lvgl\src\lv_draw\../lv_misc/lv_color.h **** 
  28:lvgl\src\lv_draw\../lv_misc/lv_color.h **** #if LV_COLOR_DEPTH != 16 && LV_COLOR_16_SWAP != 0
ARM GAS  C:\Users\strap\AppData\Local\Temp\ccUgAYbc.s 			page 27


  29:lvgl\src\lv_draw\../lv_misc/lv_color.h **** #error "LV_COLOR_16_SWAP requires LV_COLOR_DEPTH == 16. Set it in lv_conf.h"
  30:lvgl\src\lv_draw\../lv_misc/lv_color.h **** #endif
  31:lvgl\src\lv_draw\../lv_misc/lv_color.h **** 
  32:lvgl\src\lv_draw\../lv_misc/lv_color.h **** #include <stdint.h>
  33:lvgl\src\lv_draw\../lv_misc/lv_color.h **** 
  34:lvgl\src\lv_draw\../lv_misc/lv_color.h **** /*********************
  35:lvgl\src\lv_draw\../lv_misc/lv_color.h ****  *      DEFINES
  36:lvgl\src\lv_draw\../lv_misc/lv_color.h ****  *********************/
  37:lvgl\src\lv_draw\../lv_misc/lv_color.h **** #define LV_COLOR_WHITE LV_COLOR_MAKE(0xFF, 0xFF, 0xFF)
  38:lvgl\src\lv_draw\../lv_misc/lv_color.h **** #define LV_COLOR_SILVER LV_COLOR_MAKE(0xC0, 0xC0, 0xC0)
  39:lvgl\src\lv_draw\../lv_misc/lv_color.h **** #define LV_COLOR_GRAY LV_COLOR_MAKE(0x80, 0x80, 0x80)
  40:lvgl\src\lv_draw\../lv_misc/lv_color.h **** #define LV_COLOR_BLACK LV_COLOR_MAKE(0x00, 0x00, 0x00)
  41:lvgl\src\lv_draw\../lv_misc/lv_color.h **** #define LV_COLOR_RED LV_COLOR_MAKE(0xFF, 0x00, 0x00)
  42:lvgl\src\lv_draw\../lv_misc/lv_color.h **** #define LV_COLOR_MAROON LV_COLOR_MAKE(0x80, 0x00, 0x00)
  43:lvgl\src\lv_draw\../lv_misc/lv_color.h **** #define LV_COLOR_YELLOW LV_COLOR_MAKE(0xFF, 0xFF, 0x00)
  44:lvgl\src\lv_draw\../lv_misc/lv_color.h **** #define LV_COLOR_OLIVE LV_COLOR_MAKE(0x80, 0x80, 0x00)
  45:lvgl\src\lv_draw\../lv_misc/lv_color.h **** #define LV_COLOR_LIME LV_COLOR_MAKE(0x00, 0xFF, 0x00)
  46:lvgl\src\lv_draw\../lv_misc/lv_color.h **** #define LV_COLOR_GREEN LV_COLOR_MAKE(0x00, 0x80, 0x00)
  47:lvgl\src\lv_draw\../lv_misc/lv_color.h **** #define LV_COLOR_CYAN LV_COLOR_MAKE(0x00, 0xFF, 0xFF)
  48:lvgl\src\lv_draw\../lv_misc/lv_color.h **** #define LV_COLOR_AQUA LV_COLOR_CYAN
  49:lvgl\src\lv_draw\../lv_misc/lv_color.h **** #define LV_COLOR_TEAL LV_COLOR_MAKE(0x00, 0x80, 0x80)
  50:lvgl\src\lv_draw\../lv_misc/lv_color.h **** #define LV_COLOR_BLUE LV_COLOR_MAKE(0x00, 0x00, 0xFF)
  51:lvgl\src\lv_draw\../lv_misc/lv_color.h **** #define LV_COLOR_NAVY LV_COLOR_MAKE(0x00, 0x00, 0x80)
  52:lvgl\src\lv_draw\../lv_misc/lv_color.h **** #define LV_COLOR_MAGENTA LV_COLOR_MAKE(0xFF, 0x00, 0xFF)
  53:lvgl\src\lv_draw\../lv_misc/lv_color.h **** #define LV_COLOR_PURPLE LV_COLOR_MAKE(0x80, 0x00, 0x80)
  54:lvgl\src\lv_draw\../lv_misc/lv_color.h **** #define LV_COLOR_ORANGE LV_COLOR_MAKE(0xFF, 0xA5, 0x00)
  55:lvgl\src\lv_draw\../lv_misc/lv_color.h **** 
  56:lvgl\src\lv_draw\../lv_misc/lv_color.h **** /**
  57:lvgl\src\lv_draw\../lv_misc/lv_color.h ****  * Opacity percentages.
  58:lvgl\src\lv_draw\../lv_misc/lv_color.h ****  */
  59:lvgl\src\lv_draw\../lv_misc/lv_color.h **** enum {
  60:lvgl\src\lv_draw\../lv_misc/lv_color.h ****     LV_OPA_TRANSP = 0,
  61:lvgl\src\lv_draw\../lv_misc/lv_color.h ****     LV_OPA_0      = 0,
  62:lvgl\src\lv_draw\../lv_misc/lv_color.h ****     LV_OPA_10     = 25,
  63:lvgl\src\lv_draw\../lv_misc/lv_color.h ****     LV_OPA_20     = 51,
  64:lvgl\src\lv_draw\../lv_misc/lv_color.h ****     LV_OPA_30     = 76,
  65:lvgl\src\lv_draw\../lv_misc/lv_color.h ****     LV_OPA_40     = 102,
  66:lvgl\src\lv_draw\../lv_misc/lv_color.h ****     LV_OPA_50     = 127,
  67:lvgl\src\lv_draw\../lv_misc/lv_color.h ****     LV_OPA_60     = 153,
  68:lvgl\src\lv_draw\../lv_misc/lv_color.h ****     LV_OPA_70     = 178,
  69:lvgl\src\lv_draw\../lv_misc/lv_color.h ****     LV_OPA_80     = 204,
  70:lvgl\src\lv_draw\../lv_misc/lv_color.h ****     LV_OPA_90     = 229,
  71:lvgl\src\lv_draw\../lv_misc/lv_color.h ****     LV_OPA_100    = 255,
  72:lvgl\src\lv_draw\../lv_misc/lv_color.h ****     LV_OPA_COVER  = 255,
  73:lvgl\src\lv_draw\../lv_misc/lv_color.h **** };
  74:lvgl\src\lv_draw\../lv_misc/lv_color.h **** 
  75:lvgl\src\lv_draw\../lv_misc/lv_color.h **** #define LV_OPA_MIN 2    /*Opacities below this will be transparent*/
  76:lvgl\src\lv_draw\../lv_misc/lv_color.h **** #define LV_OPA_MAX 253  /*Opacities above this will fully cover*/
  77:lvgl\src\lv_draw\../lv_misc/lv_color.h **** 
  78:lvgl\src\lv_draw\../lv_misc/lv_color.h **** #if LV_COLOR_DEPTH == 1
  79:lvgl\src\lv_draw\../lv_misc/lv_color.h **** #define LV_COLOR_SIZE 8
  80:lvgl\src\lv_draw\../lv_misc/lv_color.h **** #elif LV_COLOR_DEPTH == 8
  81:lvgl\src\lv_draw\../lv_misc/lv_color.h **** #define LV_COLOR_SIZE 8
  82:lvgl\src\lv_draw\../lv_misc/lv_color.h **** #elif LV_COLOR_DEPTH == 16
  83:lvgl\src\lv_draw\../lv_misc/lv_color.h **** #define LV_COLOR_SIZE 16
  84:lvgl\src\lv_draw\../lv_misc/lv_color.h **** #elif LV_COLOR_DEPTH == 32
  85:lvgl\src\lv_draw\../lv_misc/lv_color.h **** #define LV_COLOR_SIZE 32
ARM GAS  C:\Users\strap\AppData\Local\Temp\ccUgAYbc.s 			page 28


  86:lvgl\src\lv_draw\../lv_misc/lv_color.h **** #else
  87:lvgl\src\lv_draw\../lv_misc/lv_color.h **** #error "Invalid LV_COLOR_DEPTH in lv_conf.h! Set it to 1, 8, 16 or 32!"
  88:lvgl\src\lv_draw\../lv_misc/lv_color.h **** #endif
  89:lvgl\src\lv_draw\../lv_misc/lv_color.h **** 
  90:lvgl\src\lv_draw\../lv_misc/lv_color.h **** 
  91:lvgl\src\lv_draw\../lv_misc/lv_color.h **** /* Adjust color mix functions rounding.
  92:lvgl\src\lv_draw\../lv_misc/lv_color.h ****  * GPUs might calculate color mix (blending) differently.
  93:lvgl\src\lv_draw\../lv_misc/lv_color.h ****  * Should be in range of 0..254
  94:lvgl\src\lv_draw\../lv_misc/lv_color.h ****  * 0: no adjustment, get the integer part of the result (round down)
  95:lvgl\src\lv_draw\../lv_misc/lv_color.h ****  * 64: round up from x.75
  96:lvgl\src\lv_draw\../lv_misc/lv_color.h ****  * 128: round up from half
  97:lvgl\src\lv_draw\../lv_misc/lv_color.h ****  * 192: round up from x.25
  98:lvgl\src\lv_draw\../lv_misc/lv_color.h ****  * 254: round up */
  99:lvgl\src\lv_draw\../lv_misc/lv_color.h **** #ifndef LV_COLOR_MIX_ROUND_OFS
 100:lvgl\src\lv_draw\../lv_misc/lv_color.h **** #if LV_COLOR_DEPTH == 32
 101:lvgl\src\lv_draw\../lv_misc/lv_color.h **** #define LV_COLOR_MIX_ROUND_OFS 0
 102:lvgl\src\lv_draw\../lv_misc/lv_color.h **** #else
 103:lvgl\src\lv_draw\../lv_misc/lv_color.h **** #define LV_COLOR_MIX_ROUND_OFS 128
 104:lvgl\src\lv_draw\../lv_misc/lv_color.h **** #endif
 105:lvgl\src\lv_draw\../lv_misc/lv_color.h **** #endif
 106:lvgl\src\lv_draw\../lv_misc/lv_color.h **** 
 107:lvgl\src\lv_draw\../lv_misc/lv_color.h **** /*---------------------------------------
 108:lvgl\src\lv_draw\../lv_misc/lv_color.h ****  * Macros for all existing  color depths
 109:lvgl\src\lv_draw\../lv_misc/lv_color.h ****  * to set/get values of the color channels
 110:lvgl\src\lv_draw\../lv_misc/lv_color.h ****  *------------------------------------------*/
 111:lvgl\src\lv_draw\../lv_misc/lv_color.h **** # define LV_COLOR_SET_R1(c, v) (c).ch.red = (uint8_t)((v) & 0x1);
 112:lvgl\src\lv_draw\../lv_misc/lv_color.h **** # define LV_COLOR_SET_G1(c, v) (c).ch.green = (uint8_t)((v) & 0x1);
 113:lvgl\src\lv_draw\../lv_misc/lv_color.h **** # define LV_COLOR_SET_B1(c, v) (c).ch.blue = (uint8_t)((v) & 0x1);
 114:lvgl\src\lv_draw\../lv_misc/lv_color.h **** # define LV_COLOR_SET_A1(c, v)
 115:lvgl\src\lv_draw\../lv_misc/lv_color.h **** 
 116:lvgl\src\lv_draw\../lv_misc/lv_color.h **** # define LV_COLOR_GET_R1(c) (c).ch.red
 117:lvgl\src\lv_draw\../lv_misc/lv_color.h **** # define LV_COLOR_GET_G1(c) (c).ch.green
 118:lvgl\src\lv_draw\../lv_misc/lv_color.h **** # define LV_COLOR_GET_B1(c) (c).ch.blue
 119:lvgl\src\lv_draw\../lv_misc/lv_color.h **** # define LV_COLOR_GET_A1(c) 1
 120:lvgl\src\lv_draw\../lv_misc/lv_color.h **** 
 121:lvgl\src\lv_draw\../lv_misc/lv_color.h **** # define LV_COLOR_SET_R8(c, v) (c).ch.red = (uint8_t)(v) & 0x7U;
 122:lvgl\src\lv_draw\../lv_misc/lv_color.h **** # define LV_COLOR_SET_G8(c, v) (c).ch.green = (uint8_t)(v) & 0x7U;
 123:lvgl\src\lv_draw\../lv_misc/lv_color.h **** # define LV_COLOR_SET_B8(c, v) (c).ch.blue = (uint8_t)(v) & 0x3U;
 124:lvgl\src\lv_draw\../lv_misc/lv_color.h **** # define LV_COLOR_SET_A8(c, v) do {} while(0)
 125:lvgl\src\lv_draw\../lv_misc/lv_color.h **** 
 126:lvgl\src\lv_draw\../lv_misc/lv_color.h **** # define LV_COLOR_GET_R8(c) (c).ch.red
 127:lvgl\src\lv_draw\../lv_misc/lv_color.h **** # define LV_COLOR_GET_G8(c) (c).ch.green
 128:lvgl\src\lv_draw\../lv_misc/lv_color.h **** # define LV_COLOR_GET_B8(c) (c).ch.blue
 129:lvgl\src\lv_draw\../lv_misc/lv_color.h **** # define LV_COLOR_GET_A8(c) 0xFF
 130:lvgl\src\lv_draw\../lv_misc/lv_color.h **** 
 131:lvgl\src\lv_draw\../lv_misc/lv_color.h **** # define LV_COLOR_SET_R16(c, v) (c).ch.red = (uint8_t)(v) & 0x1FU;
 132:lvgl\src\lv_draw\../lv_misc/lv_color.h **** # define LV_COLOR_SET_G16(c, v) (c).ch.green = (uint8_t)(v) & 0x3FU;
 133:lvgl\src\lv_draw\../lv_misc/lv_color.h **** # define LV_COLOR_SET_G16_SWAP(c, v) {(c).ch.green_h = (uint8_t)(((v) >> 3) & 0x7); (c).ch.green_l 
 134:lvgl\src\lv_draw\../lv_misc/lv_color.h **** # define LV_COLOR_SET_B16(c, v) (c).ch.blue = (uint8_t)(v) & 0x1FU;
 135:lvgl\src\lv_draw\../lv_misc/lv_color.h **** # define LV_COLOR_SET_A16(c, v) do {} while(0)
 136:lvgl\src\lv_draw\../lv_misc/lv_color.h **** 
 137:lvgl\src\lv_draw\../lv_misc/lv_color.h **** # define LV_COLOR_GET_R16(c) (c).ch.red
 138:lvgl\src\lv_draw\../lv_misc/lv_color.h **** # define LV_COLOR_GET_G16(c) (c).ch.green
 139:lvgl\src\lv_draw\../lv_misc/lv_color.h **** # define LV_COLOR_GET_G16_SWAP(c) (((c).ch.green_h << 3) + (c).ch.green_l)
 140:lvgl\src\lv_draw\../lv_misc/lv_color.h **** # define LV_COLOR_GET_B16(c) (c).ch.blue
 141:lvgl\src\lv_draw\../lv_misc/lv_color.h **** # define LV_COLOR_GET_A16(c) 0xFF
 142:lvgl\src\lv_draw\../lv_misc/lv_color.h **** 
ARM GAS  C:\Users\strap\AppData\Local\Temp\ccUgAYbc.s 			page 29


 143:lvgl\src\lv_draw\../lv_misc/lv_color.h **** # define LV_COLOR_SET_R32(c, v) (c).ch.red = (uint32_t)((v) & 0xFF);
 144:lvgl\src\lv_draw\../lv_misc/lv_color.h **** # define LV_COLOR_SET_G32(c, v) (c).ch.green = (uint32_t)((v) & 0xFF);
 145:lvgl\src\lv_draw\../lv_misc/lv_color.h **** # define LV_COLOR_SET_B32(c, v) (c).ch.blue = (uint32_t)((v) & 0xFF);
 146:lvgl\src\lv_draw\../lv_misc/lv_color.h **** # define LV_COLOR_SET_A32(c, v) (c).ch.alpha = (uint32_t)((v) & 0xFF);
 147:lvgl\src\lv_draw\../lv_misc/lv_color.h **** 
 148:lvgl\src\lv_draw\../lv_misc/lv_color.h **** # define LV_COLOR_GET_R32(c) (c).ch.red
 149:lvgl\src\lv_draw\../lv_misc/lv_color.h **** # define LV_COLOR_GET_G32(c) (c).ch.green
 150:lvgl\src\lv_draw\../lv_misc/lv_color.h **** # define LV_COLOR_GET_B32(c) (c).ch.blue
 151:lvgl\src\lv_draw\../lv_misc/lv_color.h **** # define LV_COLOR_GET_A32(c) (c).ch.alpha
 152:lvgl\src\lv_draw\../lv_misc/lv_color.h **** 
 153:lvgl\src\lv_draw\../lv_misc/lv_color.h **** 
 154:lvgl\src\lv_draw\../lv_misc/lv_color.h **** /*---------------------------------------
 155:lvgl\src\lv_draw\../lv_misc/lv_color.h ****  * Macros for the current color depth
 156:lvgl\src\lv_draw\../lv_misc/lv_color.h ****  * to set/get values of the color channels
 157:lvgl\src\lv_draw\../lv_misc/lv_color.h ****  *------------------------------------------*/
 158:lvgl\src\lv_draw\../lv_misc/lv_color.h **** #if LV_COLOR_DEPTH == 1
 159:lvgl\src\lv_draw\../lv_misc/lv_color.h **** # define LV_COLOR_SET_R(c, v) LV_COLOR_SET_R1(c,v)
 160:lvgl\src\lv_draw\../lv_misc/lv_color.h **** # define LV_COLOR_SET_G(c, v) LV_COLOR_SET_G1(c,v)
 161:lvgl\src\lv_draw\../lv_misc/lv_color.h **** # define LV_COLOR_SET_B(c, v) LV_COLOR_SET_B1(c,v)
 162:lvgl\src\lv_draw\../lv_misc/lv_color.h **** # define LV_COLOR_SET_A(c, v) LV_COLOR_SET_A1(c,v)
 163:lvgl\src\lv_draw\../lv_misc/lv_color.h **** 
 164:lvgl\src\lv_draw\../lv_misc/lv_color.h **** # define LV_COLOR_GET_R(c) LV_COLOR_GET_R1(c)
 165:lvgl\src\lv_draw\../lv_misc/lv_color.h **** # define LV_COLOR_GET_G(c) LV_COLOR_GET_G1(c)
 166:lvgl\src\lv_draw\../lv_misc/lv_color.h **** # define LV_COLOR_GET_B(c) LV_COLOR_GET_B1(c)
 167:lvgl\src\lv_draw\../lv_misc/lv_color.h **** # define LV_COLOR_GET_A(c) LV_COLOR_GET_A1(c)
 168:lvgl\src\lv_draw\../lv_misc/lv_color.h **** 
 169:lvgl\src\lv_draw\../lv_misc/lv_color.h **** #elif LV_COLOR_DEPTH == 8
 170:lvgl\src\lv_draw\../lv_misc/lv_color.h **** # define LV_COLOR_SET_R(c, v) LV_COLOR_SET_R8(c,v)
 171:lvgl\src\lv_draw\../lv_misc/lv_color.h **** # define LV_COLOR_SET_G(c, v) LV_COLOR_SET_G8(c,v)
 172:lvgl\src\lv_draw\../lv_misc/lv_color.h **** # define LV_COLOR_SET_B(c, v) LV_COLOR_SET_B8(c,v)
 173:lvgl\src\lv_draw\../lv_misc/lv_color.h **** # define LV_COLOR_SET_A(c, v) LV_COLOR_SET_A8(c,v)
 174:lvgl\src\lv_draw\../lv_misc/lv_color.h **** 
 175:lvgl\src\lv_draw\../lv_misc/lv_color.h **** # define LV_COLOR_GET_R(c) LV_COLOR_GET_R8(c)
 176:lvgl\src\lv_draw\../lv_misc/lv_color.h **** # define LV_COLOR_GET_G(c) LV_COLOR_GET_G8(c)
 177:lvgl\src\lv_draw\../lv_misc/lv_color.h **** # define LV_COLOR_GET_B(c) LV_COLOR_GET_B8(c)
 178:lvgl\src\lv_draw\../lv_misc/lv_color.h **** # define LV_COLOR_GET_A(c) LV_COLOR_GET_A8(c)
 179:lvgl\src\lv_draw\../lv_misc/lv_color.h **** 
 180:lvgl\src\lv_draw\../lv_misc/lv_color.h **** #elif LV_COLOR_DEPTH == 16
 181:lvgl\src\lv_draw\../lv_misc/lv_color.h **** # define LV_COLOR_SET_R(c, v) LV_COLOR_SET_R16(c,v)
 182:lvgl\src\lv_draw\../lv_misc/lv_color.h **** # if LV_COLOR_16_SWAP == 0
 183:lvgl\src\lv_draw\../lv_misc/lv_color.h **** #   define LV_COLOR_SET_G(c, v) LV_COLOR_SET_G16(c,v)
 184:lvgl\src\lv_draw\../lv_misc/lv_color.h **** # else
 185:lvgl\src\lv_draw\../lv_misc/lv_color.h **** #   define LV_COLOR_SET_G(c, v) LV_COLOR_SET_G16_SWAP(c,v)
 186:lvgl\src\lv_draw\../lv_misc/lv_color.h **** # endif
 187:lvgl\src\lv_draw\../lv_misc/lv_color.h **** # define LV_COLOR_SET_B(c, v) LV_COLOR_SET_B16(c,v)
 188:lvgl\src\lv_draw\../lv_misc/lv_color.h **** # define LV_COLOR_SET_A(c, v) LV_COLOR_SET_A16(c,v)
 189:lvgl\src\lv_draw\../lv_misc/lv_color.h **** 
 190:lvgl\src\lv_draw\../lv_misc/lv_color.h **** # define LV_COLOR_GET_R(c) LV_COLOR_GET_R16(c)
 191:lvgl\src\lv_draw\../lv_misc/lv_color.h **** # if LV_COLOR_16_SWAP == 0
 192:lvgl\src\lv_draw\../lv_misc/lv_color.h **** #   define LV_COLOR_GET_G(c) LV_COLOR_GET_G16(c)
 193:lvgl\src\lv_draw\../lv_misc/lv_color.h **** # else
 194:lvgl\src\lv_draw\../lv_misc/lv_color.h **** #   define LV_COLOR_GET_G(c) LV_COLOR_GET_G16_SWAP(c)
 195:lvgl\src\lv_draw\../lv_misc/lv_color.h **** # endif
 196:lvgl\src\lv_draw\../lv_misc/lv_color.h **** # define LV_COLOR_GET_B(c)   LV_COLOR_GET_B16(c)
 197:lvgl\src\lv_draw\../lv_misc/lv_color.h **** # define LV_COLOR_GET_A(c)   LV_COLOR_GET_A16(c)
 198:lvgl\src\lv_draw\../lv_misc/lv_color.h **** 
 199:lvgl\src\lv_draw\../lv_misc/lv_color.h **** #elif LV_COLOR_DEPTH == 32
ARM GAS  C:\Users\strap\AppData\Local\Temp\ccUgAYbc.s 			page 30


 200:lvgl\src\lv_draw\../lv_misc/lv_color.h **** # define LV_COLOR_SET_R(c, v) LV_COLOR_SET_R32(c,v)
 201:lvgl\src\lv_draw\../lv_misc/lv_color.h **** # define LV_COLOR_SET_G(c, v) LV_COLOR_SET_G32(c,v)
 202:lvgl\src\lv_draw\../lv_misc/lv_color.h **** # define LV_COLOR_SET_B(c, v) LV_COLOR_SET_B32(c,v)
 203:lvgl\src\lv_draw\../lv_misc/lv_color.h **** # define LV_COLOR_SET_A(c, v) LV_COLOR_SET_A32(c,v)
 204:lvgl\src\lv_draw\../lv_misc/lv_color.h **** 
 205:lvgl\src\lv_draw\../lv_misc/lv_color.h **** # define LV_COLOR_GET_R(c) LV_COLOR_GET_R32(c)
 206:lvgl\src\lv_draw\../lv_misc/lv_color.h **** # define LV_COLOR_GET_G(c) LV_COLOR_GET_G32(c)
 207:lvgl\src\lv_draw\../lv_misc/lv_color.h **** # define LV_COLOR_GET_B(c) LV_COLOR_GET_B32(c)
 208:lvgl\src\lv_draw\../lv_misc/lv_color.h **** # define LV_COLOR_GET_A(c) LV_COLOR_GET_A32(c)
 209:lvgl\src\lv_draw\../lv_misc/lv_color.h **** #endif
 210:lvgl\src\lv_draw\../lv_misc/lv_color.h **** 
 211:lvgl\src\lv_draw\../lv_misc/lv_color.h **** /**********************
 212:lvgl\src\lv_draw\../lv_misc/lv_color.h ****  *      TYPEDEFS
 213:lvgl\src\lv_draw\../lv_misc/lv_color.h ****  **********************/
 214:lvgl\src\lv_draw\../lv_misc/lv_color.h **** 
 215:lvgl\src\lv_draw\../lv_misc/lv_color.h **** typedef union {
 216:lvgl\src\lv_draw\../lv_misc/lv_color.h ****     uint8_t full; /*must be declared first to set all bits of byte via initializer list */
 217:lvgl\src\lv_draw\../lv_misc/lv_color.h ****     union {
 218:lvgl\src\lv_draw\../lv_misc/lv_color.h ****         uint8_t blue : 1;
 219:lvgl\src\lv_draw\../lv_misc/lv_color.h ****         uint8_t green : 1;
 220:lvgl\src\lv_draw\../lv_misc/lv_color.h ****         uint8_t red : 1;
 221:lvgl\src\lv_draw\../lv_misc/lv_color.h ****     } ch;
 222:lvgl\src\lv_draw\../lv_misc/lv_color.h **** } lv_color1_t;
 223:lvgl\src\lv_draw\../lv_misc/lv_color.h **** 
 224:lvgl\src\lv_draw\../lv_misc/lv_color.h **** typedef union {
 225:lvgl\src\lv_draw\../lv_misc/lv_color.h ****     struct {
 226:lvgl\src\lv_draw\../lv_misc/lv_color.h ****         uint8_t blue : 2;
 227:lvgl\src\lv_draw\../lv_misc/lv_color.h ****         uint8_t green : 3;
 228:lvgl\src\lv_draw\../lv_misc/lv_color.h ****         uint8_t red : 3;
 229:lvgl\src\lv_draw\../lv_misc/lv_color.h ****     } ch;
 230:lvgl\src\lv_draw\../lv_misc/lv_color.h ****     uint8_t full;
 231:lvgl\src\lv_draw\../lv_misc/lv_color.h **** } lv_color8_t;
 232:lvgl\src\lv_draw\../lv_misc/lv_color.h **** 
 233:lvgl\src\lv_draw\../lv_misc/lv_color.h **** typedef union {
 234:lvgl\src\lv_draw\../lv_misc/lv_color.h ****     struct {
 235:lvgl\src\lv_draw\../lv_misc/lv_color.h **** #if LV_COLOR_16_SWAP == 0
 236:lvgl\src\lv_draw\../lv_misc/lv_color.h ****         uint16_t blue : 5;
 237:lvgl\src\lv_draw\../lv_misc/lv_color.h ****         uint16_t green : 6;
 238:lvgl\src\lv_draw\../lv_misc/lv_color.h ****         uint16_t red : 5;
 239:lvgl\src\lv_draw\../lv_misc/lv_color.h **** #else
 240:lvgl\src\lv_draw\../lv_misc/lv_color.h ****         uint16_t green_h : 3;
 241:lvgl\src\lv_draw\../lv_misc/lv_color.h ****         uint16_t red : 5;
 242:lvgl\src\lv_draw\../lv_misc/lv_color.h ****         uint16_t blue : 5;
 243:lvgl\src\lv_draw\../lv_misc/lv_color.h ****         uint16_t green_l : 3;
 244:lvgl\src\lv_draw\../lv_misc/lv_color.h **** #endif
 245:lvgl\src\lv_draw\../lv_misc/lv_color.h ****     } ch;
 246:lvgl\src\lv_draw\../lv_misc/lv_color.h ****     uint16_t full;
 247:lvgl\src\lv_draw\../lv_misc/lv_color.h **** } lv_color16_t;
 248:lvgl\src\lv_draw\../lv_misc/lv_color.h **** 
 249:lvgl\src\lv_draw\../lv_misc/lv_color.h **** typedef union {
 250:lvgl\src\lv_draw\../lv_misc/lv_color.h ****     struct {
 251:lvgl\src\lv_draw\../lv_misc/lv_color.h ****         uint8_t blue;
 252:lvgl\src\lv_draw\../lv_misc/lv_color.h ****         uint8_t green;
 253:lvgl\src\lv_draw\../lv_misc/lv_color.h ****         uint8_t red;
 254:lvgl\src\lv_draw\../lv_misc/lv_color.h ****         uint8_t alpha;
 255:lvgl\src\lv_draw\../lv_misc/lv_color.h ****     } ch;
 256:lvgl\src\lv_draw\../lv_misc/lv_color.h ****     uint32_t full;
ARM GAS  C:\Users\strap\AppData\Local\Temp\ccUgAYbc.s 			page 31


 257:lvgl\src\lv_draw\../lv_misc/lv_color.h **** } lv_color32_t;
 258:lvgl\src\lv_draw\../lv_misc/lv_color.h **** 
 259:lvgl\src\lv_draw\../lv_misc/lv_color.h **** #if LV_COLOR_DEPTH == 1
 260:lvgl\src\lv_draw\../lv_misc/lv_color.h **** typedef uint8_t lv_color_int_t;
 261:lvgl\src\lv_draw\../lv_misc/lv_color.h **** typedef lv_color1_t lv_color_t;
 262:lvgl\src\lv_draw\../lv_misc/lv_color.h **** #define _LV_COLOR_ZERO_INITIALIZER {0x00}
 263:lvgl\src\lv_draw\../lv_misc/lv_color.h **** #elif LV_COLOR_DEPTH == 8
 264:lvgl\src\lv_draw\../lv_misc/lv_color.h **** typedef uint8_t lv_color_int_t;
 265:lvgl\src\lv_draw\../lv_misc/lv_color.h **** typedef lv_color8_t lv_color_t;
 266:lvgl\src\lv_draw\../lv_misc/lv_color.h **** #define _LV_COLOR_ZERO_INITIALIZER {{0x00, 0x00, 0x00}}
 267:lvgl\src\lv_draw\../lv_misc/lv_color.h **** #elif LV_COLOR_DEPTH == 16
 268:lvgl\src\lv_draw\../lv_misc/lv_color.h **** typedef uint16_t lv_color_int_t;
 269:lvgl\src\lv_draw\../lv_misc/lv_color.h **** typedef lv_color16_t lv_color_t;
 270:lvgl\src\lv_draw\../lv_misc/lv_color.h **** #define _LV_COLOR_ZERO_INITIALIZER {{0x00, 0x00, 0x00}}
 271:lvgl\src\lv_draw\../lv_misc/lv_color.h **** #elif LV_COLOR_DEPTH == 32
 272:lvgl\src\lv_draw\../lv_misc/lv_color.h **** typedef uint32_t lv_color_int_t;
 273:lvgl\src\lv_draw\../lv_misc/lv_color.h **** typedef lv_color32_t lv_color_t;
 274:lvgl\src\lv_draw\../lv_misc/lv_color.h **** #define _LV_COLOR_ZERO_INITIALIZER {{0x00, 0x00, 0x00, 0x00}}
 275:lvgl\src\lv_draw\../lv_misc/lv_color.h **** #else
 276:lvgl\src\lv_draw\../lv_misc/lv_color.h **** #error "Invalid LV_COLOR_DEPTH in lv_conf.h! Set it to 1, 8, 16 or 32!"
 277:lvgl\src\lv_draw\../lv_misc/lv_color.h **** #endif
 278:lvgl\src\lv_draw\../lv_misc/lv_color.h **** 
 279:lvgl\src\lv_draw\../lv_misc/lv_color.h **** 
 280:lvgl\src\lv_draw\../lv_misc/lv_color.h **** typedef struct {
 281:lvgl\src\lv_draw\../lv_misc/lv_color.h ****     uint16_t h;
 282:lvgl\src\lv_draw\../lv_misc/lv_color.h ****     uint8_t s;
 283:lvgl\src\lv_draw\../lv_misc/lv_color.h ****     uint8_t v;
 284:lvgl\src\lv_draw\../lv_misc/lv_color.h **** } lv_color_hsv_t;
 285:lvgl\src\lv_draw\../lv_misc/lv_color.h **** 
 286:lvgl\src\lv_draw\../lv_misc/lv_color.h **** //! @cond Doxygen_Suppress
 287:lvgl\src\lv_draw\../lv_misc/lv_color.h **** /*No idea where the guard is required but else throws warnings in the docs*/
 288:lvgl\src\lv_draw\../lv_misc/lv_color.h **** typedef uint8_t lv_opa_t;
 289:lvgl\src\lv_draw\../lv_misc/lv_color.h **** //! @endcond
 290:lvgl\src\lv_draw\../lv_misc/lv_color.h **** 
 291:lvgl\src\lv_draw\../lv_misc/lv_color.h **** /**********************
 292:lvgl\src\lv_draw\../lv_misc/lv_color.h ****  * GLOBAL PROTOTYPES
 293:lvgl\src\lv_draw\../lv_misc/lv_color.h ****  **********************/
 294:lvgl\src\lv_draw\../lv_misc/lv_color.h **** 
 295:lvgl\src\lv_draw\../lv_misc/lv_color.h **** /*In color conversations:
 296:lvgl\src\lv_draw\../lv_misc/lv_color.h ****  * - When converting to bigger color type the LSB weight of 1 LSB is calculated
 297:lvgl\src\lv_draw\../lv_misc/lv_color.h ****  *   E.g. 16 bit Red has 5 bits
 298:lvgl\src\lv_draw\../lv_misc/lv_color.h ****  *         8 bit Red has 2 bits
 299:lvgl\src\lv_draw\../lv_misc/lv_color.h ****  *        ----------------------
 300:lvgl\src\lv_draw\../lv_misc/lv_color.h ****  *        8 bit red LSB = (2^5 - 1) / (2^2 - 1) = 31 / 3 = 10
 301:lvgl\src\lv_draw\../lv_misc/lv_color.h ****  *
 302:lvgl\src\lv_draw\../lv_misc/lv_color.h ****  * - When calculating to smaller color type simply shift out the LSBs
 303:lvgl\src\lv_draw\../lv_misc/lv_color.h ****  *   E.g.  8 bit Red has 2 bits
 304:lvgl\src\lv_draw\../lv_misc/lv_color.h ****  *        16 bit Red has 5 bits
 305:lvgl\src\lv_draw\../lv_misc/lv_color.h ****  *        ----------------------
 306:lvgl\src\lv_draw\../lv_misc/lv_color.h ****  *         Shift right with 5 - 3 = 2
 307:lvgl\src\lv_draw\../lv_misc/lv_color.h ****  */
 308:lvgl\src\lv_draw\../lv_misc/lv_color.h **** static inline uint8_t lv_color_to1(lv_color_t color)
 309:lvgl\src\lv_draw\../lv_misc/lv_color.h **** {
 310:lvgl\src\lv_draw\../lv_misc/lv_color.h **** #if LV_COLOR_DEPTH == 1
 311:lvgl\src\lv_draw\../lv_misc/lv_color.h ****     return color.full;
 312:lvgl\src\lv_draw\../lv_misc/lv_color.h **** #elif LV_COLOR_DEPTH == 8
 313:lvgl\src\lv_draw\../lv_misc/lv_color.h ****     if((LV_COLOR_GET_R(color) & 0x4) || (LV_COLOR_GET_G(color) & 0x4) || (LV_COLOR_GET_B(color) & 0
ARM GAS  C:\Users\strap\AppData\Local\Temp\ccUgAYbc.s 			page 32


 314:lvgl\src\lv_draw\../lv_misc/lv_color.h ****         return 1;
 315:lvgl\src\lv_draw\../lv_misc/lv_color.h ****     }
 316:lvgl\src\lv_draw\../lv_misc/lv_color.h ****     else {
 317:lvgl\src\lv_draw\../lv_misc/lv_color.h ****         return 0;
 318:lvgl\src\lv_draw\../lv_misc/lv_color.h ****     }
 319:lvgl\src\lv_draw\../lv_misc/lv_color.h **** #elif LV_COLOR_DEPTH == 16
 320:lvgl\src\lv_draw\../lv_misc/lv_color.h ****     if((LV_COLOR_GET_R(color) & 0x10) || (LV_COLOR_GET_G(color) & 0x20) || (LV_COLOR_GET_B(color) &
 321:lvgl\src\lv_draw\../lv_misc/lv_color.h ****         return 1;
 322:lvgl\src\lv_draw\../lv_misc/lv_color.h ****     }
 323:lvgl\src\lv_draw\../lv_misc/lv_color.h ****     else {
 324:lvgl\src\lv_draw\../lv_misc/lv_color.h ****         return 0;
 325:lvgl\src\lv_draw\../lv_misc/lv_color.h ****     }
 326:lvgl\src\lv_draw\../lv_misc/lv_color.h **** #elif LV_COLOR_DEPTH == 32
 327:lvgl\src\lv_draw\../lv_misc/lv_color.h ****     if((LV_COLOR_GET_R(color) & 0x80) || (LV_COLOR_GET_G(color) & 0x80) || (LV_COLOR_GET_B(color) &
 328:lvgl\src\lv_draw\../lv_misc/lv_color.h ****         return 1;
 329:lvgl\src\lv_draw\../lv_misc/lv_color.h ****     }
 330:lvgl\src\lv_draw\../lv_misc/lv_color.h ****     else {
 331:lvgl\src\lv_draw\../lv_misc/lv_color.h ****         return 0;
 332:lvgl\src\lv_draw\../lv_misc/lv_color.h ****     }
 333:lvgl\src\lv_draw\../lv_misc/lv_color.h **** #endif
 334:lvgl\src\lv_draw\../lv_misc/lv_color.h **** }
 335:lvgl\src\lv_draw\../lv_misc/lv_color.h **** 
 336:lvgl\src\lv_draw\../lv_misc/lv_color.h **** static inline uint8_t lv_color_to8(lv_color_t color)
 337:lvgl\src\lv_draw\../lv_misc/lv_color.h **** {
 338:lvgl\src\lv_draw\../lv_misc/lv_color.h **** #if LV_COLOR_DEPTH == 1
 339:lvgl\src\lv_draw\../lv_misc/lv_color.h ****     if(color.full == 0)
 340:lvgl\src\lv_draw\../lv_misc/lv_color.h ****         return 0;
 341:lvgl\src\lv_draw\../lv_misc/lv_color.h ****     else
 342:lvgl\src\lv_draw\../lv_misc/lv_color.h ****         return 0xFF;
 343:lvgl\src\lv_draw\../lv_misc/lv_color.h **** #elif LV_COLOR_DEPTH == 8
 344:lvgl\src\lv_draw\../lv_misc/lv_color.h ****     return color.full;
 345:lvgl\src\lv_draw\../lv_misc/lv_color.h **** #elif LV_COLOR_DEPTH == 16
 346:lvgl\src\lv_draw\../lv_misc/lv_color.h ****     lv_color8_t ret;
 347:lvgl\src\lv_draw\../lv_misc/lv_color.h ****     LV_COLOR_SET_R8(ret, LV_COLOR_GET_R(color) >> 2);   /* 5 - 3  = 2*/
 348:lvgl\src\lv_draw\../lv_misc/lv_color.h ****     LV_COLOR_SET_G8(ret, LV_COLOR_GET_G(color) >> 3); /* 6 - 3  = 3*/
 349:lvgl\src\lv_draw\../lv_misc/lv_color.h ****     LV_COLOR_SET_B8(ret, LV_COLOR_GET_B(color) >> 3);  /* 5 - 2  = 3*/
 350:lvgl\src\lv_draw\../lv_misc/lv_color.h ****     return ret.full;
 351:lvgl\src\lv_draw\../lv_misc/lv_color.h **** #elif LV_COLOR_DEPTH == 32
 352:lvgl\src\lv_draw\../lv_misc/lv_color.h ****     lv_color8_t ret;
 353:lvgl\src\lv_draw\../lv_misc/lv_color.h ****     LV_COLOR_SET_R8(ret, LV_COLOR_GET_R(color) >> 5);   /* 8 - 3  = 5*/
 354:lvgl\src\lv_draw\../lv_misc/lv_color.h ****     LV_COLOR_SET_G8(ret, LV_COLOR_GET_G(color) >> 5); /* 8 - 3  = 5*/
 355:lvgl\src\lv_draw\../lv_misc/lv_color.h ****     LV_COLOR_SET_B8(ret, LV_COLOR_GET_B(color) >> 6);  /* 8 - 2  = 6*/
 356:lvgl\src\lv_draw\../lv_misc/lv_color.h ****     return ret.full;
 357:lvgl\src\lv_draw\../lv_misc/lv_color.h **** #endif
 358:lvgl\src\lv_draw\../lv_misc/lv_color.h **** }
 359:lvgl\src\lv_draw\../lv_misc/lv_color.h **** 
 360:lvgl\src\lv_draw\../lv_misc/lv_color.h **** static inline uint16_t lv_color_to16(lv_color_t color)
 361:lvgl\src\lv_draw\../lv_misc/lv_color.h **** {
 362:lvgl\src\lv_draw\../lv_misc/lv_color.h **** #if LV_COLOR_DEPTH == 1
 363:lvgl\src\lv_draw\../lv_misc/lv_color.h ****     if(color.full == 0)
 364:lvgl\src\lv_draw\../lv_misc/lv_color.h ****         return 0;
 365:lvgl\src\lv_draw\../lv_misc/lv_color.h ****     else
 366:lvgl\src\lv_draw\../lv_misc/lv_color.h ****         return 0xFFFF;
 367:lvgl\src\lv_draw\../lv_misc/lv_color.h **** #elif LV_COLOR_DEPTH == 8
 368:lvgl\src\lv_draw\../lv_misc/lv_color.h ****     lv_color16_t ret;
 369:lvgl\src\lv_draw\../lv_misc/lv_color.h ****     LV_COLOR_SET_R16(ret, LV_COLOR_GET_R(color) * 4);     /*(2^5 - 1)/(2^3 - 1) = 31/7 = 4*/
 370:lvgl\src\lv_draw\../lv_misc/lv_color.h **** #if LV_COLOR_16_SWAP == 0
ARM GAS  C:\Users\strap\AppData\Local\Temp\ccUgAYbc.s 			page 33


 371:lvgl\src\lv_draw\../lv_misc/lv_color.h ****     LV_COLOR_SET_G16(ret,  LV_COLOR_GET_G(color) * 9); /*(2^6 - 1)/(2^3 - 1) = 63/7 = 9*/
 372:lvgl\src\lv_draw\../lv_misc/lv_color.h **** #else
 373:lvgl\src\lv_draw\../lv_misc/lv_color.h ****     LV_COLOR_SET_G16_SWAP(ret, (LV_COLOR_GET_G(color) * 9)); /*(2^6 - 1)/(2^3 - 1) = 63/7 = 9*/
 374:lvgl\src\lv_draw\../lv_misc/lv_color.h **** #endif
 375:lvgl\src\lv_draw\../lv_misc/lv_color.h ****     LV_COLOR_SET_B16(ret, LV_COLOR_GET_B(color) * 10);  /*(2^5 - 1)/(2^2 - 1) = 31/3 = 10*/
 376:lvgl\src\lv_draw\../lv_misc/lv_color.h ****     return ret.full;
 377:lvgl\src\lv_draw\../lv_misc/lv_color.h **** #elif LV_COLOR_DEPTH == 16
 378:lvgl\src\lv_draw\../lv_misc/lv_color.h ****     return color.full;
 379:lvgl\src\lv_draw\../lv_misc/lv_color.h **** #elif LV_COLOR_DEPTH == 32
 380:lvgl\src\lv_draw\../lv_misc/lv_color.h ****     lv_color16_t ret;
 381:lvgl\src\lv_draw\../lv_misc/lv_color.h ****     LV_COLOR_SET_R16(ret, LV_COLOR_GET_R(color) >> 3);   /* 8 - 5  = 3*/
 382:lvgl\src\lv_draw\../lv_misc/lv_color.h **** 
 383:lvgl\src\lv_draw\../lv_misc/lv_color.h **** #if LV_COLOR_16_SWAP == 0
 384:lvgl\src\lv_draw\../lv_misc/lv_color.h ****     LV_COLOR_SET_G16(ret, LV_COLOR_GET_G(color) >> 2); /* 8 - 6  = 2*/
 385:lvgl\src\lv_draw\../lv_misc/lv_color.h **** #else
 386:lvgl\src\lv_draw\../lv_misc/lv_color.h ****     LV_COLOR_SET_G16_SWAP(ret, ret.ch.green_h = (LV_COLOR_GET_G(color) >> 2); /*(2^6 - 1)/(2^3 - 1)
 387:lvgl\src\lv_draw\../lv_misc/lv_color.h **** #endif
 388:lvgl\src\lv_draw\../lv_misc/lv_color.h ****     LV_COLOR_SET_B16(ret, LV_COLOR_GET_B(color) >> 3);  /* 8 - 5  = 3*/
 389:lvgl\src\lv_draw\../lv_misc/lv_color.h ****     return ret.full;
 390:lvgl\src\lv_draw\../lv_misc/lv_color.h **** #endif
 391:lvgl\src\lv_draw\../lv_misc/lv_color.h **** }
 392:lvgl\src\lv_draw\../lv_misc/lv_color.h **** 
 393:lvgl\src\lv_draw\../lv_misc/lv_color.h **** static inline uint32_t lv_color_to32(lv_color_t color)
 394:lvgl\src\lv_draw\../lv_misc/lv_color.h **** {
 395:lvgl\src\lv_draw\../lv_misc/lv_color.h **** #if LV_COLOR_DEPTH == 1
 396:lvgl\src\lv_draw\../lv_misc/lv_color.h ****     if(color.full == 0)
 397:lvgl\src\lv_draw\../lv_misc/lv_color.h ****         return 0xFF000000;
 398:lvgl\src\lv_draw\../lv_misc/lv_color.h ****     else
 399:lvgl\src\lv_draw\../lv_misc/lv_color.h ****         return 0xFFFFFFFF;
 400:lvgl\src\lv_draw\../lv_misc/lv_color.h **** #elif LV_COLOR_DEPTH == 8
 401:lvgl\src\lv_draw\../lv_misc/lv_color.h ****     lv_color32_t ret;
 402:lvgl\src\lv_draw\../lv_misc/lv_color.h ****     LV_COLOR_SET_R32(ret, LV_COLOR_GET_R(color) * 36);     /*(2^8 - 1)/(2^3 - 1) = 255/7 = 36*/
 403:lvgl\src\lv_draw\../lv_misc/lv_color.h ****     LV_COLOR_SET_G32(ret, LV_COLOR_GET_G(color) * 36); /*(2^8 - 1)/(2^3 - 1) = 255/7 = 36*/
 404:lvgl\src\lv_draw\../lv_misc/lv_color.h ****     LV_COLOR_SET_B32(ret, LV_COLOR_GET_B(color) * 85);   /*(2^8 - 1)/(2^2 - 1) = 255/3 = 85*/
 405:lvgl\src\lv_draw\../lv_misc/lv_color.h ****     LV_COLOR_SET_A32(ret, 0xFF);
 406:lvgl\src\lv_draw\../lv_misc/lv_color.h ****     return ret.full;
 407:lvgl\src\lv_draw\../lv_misc/lv_color.h **** #elif LV_COLOR_DEPTH == 16
 408:lvgl\src\lv_draw\../lv_misc/lv_color.h ****     /**
 409:lvgl\src\lv_draw\../lv_misc/lv_color.h ****      * The floating point math for conversion is:
 410:lvgl\src\lv_draw\../lv_misc/lv_color.h ****      *  valueto = valuefrom * ( (2^bitsto - 1) / (float)(2^bitsfrom - 1) )
 411:lvgl\src\lv_draw\../lv_misc/lv_color.h ****      * The faster integer math for conversion is:
 412:lvgl\src\lv_draw\../lv_misc/lv_color.h ****      *  valueto = ( valuefrom * multiplier + adder ) >> divisor
 413:lvgl\src\lv_draw\../lv_misc/lv_color.h ****      *   multiplier = FLOOR( ( (2^bitsto - 1) << divisor ) / (float)(2^bitsfrom - 1) )
 414:lvgl\src\lv_draw\../lv_misc/lv_color.h ****      *
 415:lvgl\src\lv_draw\../lv_misc/lv_color.h ****      * Find the first divisor where ( adder >> divisor ) <= 0
 416:lvgl\src\lv_draw\../lv_misc/lv_color.h ****      *
 417:lvgl\src\lv_draw\../lv_misc/lv_color.h ****      * 5-bit to 8-bit: ( 31 * multiplier + adder ) >> divisor = 255
 418:lvgl\src\lv_draw\../lv_misc/lv_color.h ****      * divisor  multiplier  adder  min (0)  max (31)
 419:lvgl\src\lv_draw\../lv_misc/lv_color.h ****      *       0           8      7        7       255
 420:lvgl\src\lv_draw\../lv_misc/lv_color.h ****      *       1          16     14        7       255
 421:lvgl\src\lv_draw\../lv_misc/lv_color.h ****      *       2          32     28        7       255
 422:lvgl\src\lv_draw\../lv_misc/lv_color.h ****      *       3          65     25        3       255
 423:lvgl\src\lv_draw\../lv_misc/lv_color.h ****      *       4         131     19        1       255
 424:lvgl\src\lv_draw\../lv_misc/lv_color.h ****      *       5         263      7        0       255
 425:lvgl\src\lv_draw\../lv_misc/lv_color.h ****      *
 426:lvgl\src\lv_draw\../lv_misc/lv_color.h ****      * 6-bit to 8-bit: 255 = ( 63 * multiplier + adder ) >> divisor
 427:lvgl\src\lv_draw\../lv_misc/lv_color.h ****      * divisor  multiplier  adder  min (0)  max (63)
ARM GAS  C:\Users\strap\AppData\Local\Temp\ccUgAYbc.s 			page 34


 428:lvgl\src\lv_draw\../lv_misc/lv_color.h ****      *       0           4      3        3       255
 429:lvgl\src\lv_draw\../lv_misc/lv_color.h ****      *       1           8      6        3       255
 430:lvgl\src\lv_draw\../lv_misc/lv_color.h ****      *       2          16     12        3       255
 431:lvgl\src\lv_draw\../lv_misc/lv_color.h ****      *       3          32     24        3       255
 432:lvgl\src\lv_draw\../lv_misc/lv_color.h ****      *       4          64     48        3       255
 433:lvgl\src\lv_draw\../lv_misc/lv_color.h ****      *       5         129     33        1       255
 434:lvgl\src\lv_draw\../lv_misc/lv_color.h ****      *       6         259      3        0       255
 435:lvgl\src\lv_draw\../lv_misc/lv_color.h ****      */
 436:lvgl\src\lv_draw\../lv_misc/lv_color.h **** 
 437:lvgl\src\lv_draw\../lv_misc/lv_color.h ****     lv_color32_t ret;
 438:lvgl\src\lv_draw\../lv_misc/lv_color.h ****     LV_COLOR_SET_R32(ret, (LV_COLOR_GET_R(color) * 263 + 7) >> 5);
 439:lvgl\src\lv_draw\../lv_misc/lv_color.h ****     LV_COLOR_SET_G32(ret, (LV_COLOR_GET_G(color) * 259 + 3) >> 6);
 440:lvgl\src\lv_draw\../lv_misc/lv_color.h ****     LV_COLOR_SET_B32(ret, (LV_COLOR_GET_B(color) * 263 + 7) >> 5);
 441:lvgl\src\lv_draw\../lv_misc/lv_color.h ****     LV_COLOR_SET_A32(ret, 0xFF);
 442:lvgl\src\lv_draw\../lv_misc/lv_color.h ****     return ret.full;
 443:lvgl\src\lv_draw\../lv_misc/lv_color.h **** #elif LV_COLOR_DEPTH == 32
 444:lvgl\src\lv_draw\../lv_misc/lv_color.h ****     return color.full;
 445:lvgl\src\lv_draw\../lv_misc/lv_color.h **** #endif
 446:lvgl\src\lv_draw\../lv_misc/lv_color.h **** }
 447:lvgl\src\lv_draw\../lv_misc/lv_color.h **** 
 448:lvgl\src\lv_draw\../lv_misc/lv_color.h **** 
 449:lvgl\src\lv_draw\../lv_misc/lv_color.h **** //! @cond Doxygen_Suppress
 450:lvgl\src\lv_draw\../lv_misc/lv_color.h **** 
 451:lvgl\src\lv_draw\../lv_misc/lv_color.h **** /**
 452:lvgl\src\lv_draw\../lv_misc/lv_color.h ****  * Mix two colors with a given ratio.
 453:lvgl\src\lv_draw\../lv_misc/lv_color.h ****  * @param c1 the first color to mix (usually the foreground)
 454:lvgl\src\lv_draw\../lv_misc/lv_color.h ****  * @param c2 the second color to mix (usually the background)
 455:lvgl\src\lv_draw\../lv_misc/lv_color.h ****  * @param mix The ratio of the colors. 0: full `c2`, 255: full `c1`, 127: half `c1` and half`c2`
 456:lvgl\src\lv_draw\../lv_misc/lv_color.h ****  * @return the mixed color
 457:lvgl\src\lv_draw\../lv_misc/lv_color.h ****  */
 458:lvgl\src\lv_draw\../lv_misc/lv_color.h **** LV_ATTRIBUTE_FAST_MEM static inline lv_color_t lv_color_mix(lv_color_t c1, lv_color_t c2, uint8_t m
 459:lvgl\src\lv_draw\../lv_misc/lv_color.h **** {
 460:lvgl\src\lv_draw\../lv_misc/lv_color.h ****     lv_color_t ret;
 461:lvgl\src\lv_draw\../lv_misc/lv_color.h **** #if LV_COLOR_DEPTH != 1
 462:lvgl\src\lv_draw\../lv_misc/lv_color.h ****     /*LV_COLOR_DEPTH == 8, 16 or 32*/
 463:lvgl\src\lv_draw\../lv_misc/lv_color.h ****     LV_COLOR_SET_R(ret, LV_MATH_UDIV255((uint16_t) LV_COLOR_GET_R(c1) * mix + LV_COLOR_GET_R(c2) *
 464:lvgl\src\lv_draw\../lv_misc/lv_color.h ****                                         (255 - mix) + LV_COLOR_MIX_ROUND_OFS));
 465:lvgl\src\lv_draw\../lv_misc/lv_color.h ****     LV_COLOR_SET_G(ret, LV_MATH_UDIV255((uint16_t) LV_COLOR_GET_G(c1) * mix + LV_COLOR_GET_G(c2) *
 466:lvgl\src\lv_draw\../lv_misc/lv_color.h ****                                         (255 - mix) + LV_COLOR_MIX_ROUND_OFS));
 467:lvgl\src\lv_draw\../lv_misc/lv_color.h ****     LV_COLOR_SET_B(ret, LV_MATH_UDIV255((uint16_t) LV_COLOR_GET_B(c1) * mix + LV_COLOR_GET_B(c2) *
 468:lvgl\src\lv_draw\../lv_misc/lv_color.h ****                                         (255 - mix) + LV_COLOR_MIX_ROUND_OFS));
 469:lvgl\src\lv_draw\../lv_misc/lv_color.h ****     LV_COLOR_SET_A(ret, 0xFF);
 470:lvgl\src\lv_draw\../lv_misc/lv_color.h **** #else
 471:lvgl\src\lv_draw\../lv_misc/lv_color.h ****     /*LV_COLOR_DEPTH == 1*/
 472:lvgl\src\lv_draw\../lv_misc/lv_color.h ****     ret.full = mix > LV_OPA_50 ? c1.full : c2.full;
 473:lvgl\src\lv_draw\../lv_misc/lv_color.h **** #endif
 474:lvgl\src\lv_draw\../lv_misc/lv_color.h **** 
 475:lvgl\src\lv_draw\../lv_misc/lv_color.h ****     return ret;
 476:lvgl\src\lv_draw\../lv_misc/lv_color.h **** }
 477:lvgl\src\lv_draw\../lv_misc/lv_color.h **** 
 478:lvgl\src\lv_draw\../lv_misc/lv_color.h **** LV_ATTRIBUTE_FAST_MEM static inline void lv_color_premult(lv_color_t c, uint8_t mix, uint16_t * out
 479:lvgl\src\lv_draw\../lv_misc/lv_color.h **** {
 480:lvgl\src\lv_draw\../lv_misc/lv_color.h **** #if LV_COLOR_DEPTH != 1
 481:lvgl\src\lv_draw\../lv_misc/lv_color.h ****     out[0] = (uint16_t) LV_COLOR_GET_R(c) * mix;
 598              		.loc 4 481 0
 599 0322 C3F3C401 		ubfx	r1, r3, #3, #5
 600 0326 92B2     		uxth	r2, r2
ARM GAS  C:\Users\strap\AppData\Local\Temp\ccUgAYbc.s 			page 35


 601              	.LVL89:
 602 0328 01FB02F1 		mul	r1, r1, r2
 603 032c ADF88410 		strh	r1, [sp, #132]	@ movhi
 482:lvgl\src\lv_draw\../lv_misc/lv_color.h ****     out[1] = (uint16_t) LV_COLOR_GET_G(c) * mix;
 604              		.loc 4 482 0
 605 0330 03F00700 		and	r0, r3, #7
 606 0334 C3F34231 		ubfx	r1, r3, #13, #3
 607 0338 01EBC001 		add	r1, r1, r0, lsl #3
 608 033c 01FB02F1 		mul	r1, r1, r2
 609 0340 ADF88610 		strh	r1, [sp, #134]	@ movhi
 483:lvgl\src\lv_draw\../lv_misc/lv_color.h ****     out[2] = (uint16_t) LV_COLOR_GET_B(c) * mix;
 610              		.loc 4 483 0
 611 0344 C3F30423 		ubfx	r3, r3, #8, #5
 612              	.LVL90:
 613 0348 03FB02F3 		mul	r3, r3, r2
 614 034c ADF88830 		strh	r3, [sp, #136]	@ movhi
 615              	.LVL91:
 616              	.L21:
 617              	.LBE121:
 618              	.LBE120:
 503:lvgl\src\lv_draw/lv_draw_img.c ****                 lv_color_premult(draw_dsc->recolor, draw_dsc->recolor_opa, recolor_premult);
 504:lvgl\src\lv_draw/lv_draw_img.c ****             }
 505:lvgl\src\lv_draw/lv_draw_img.c **** 
 506:lvgl\src\lv_draw/lv_draw_img.c ****             lv_draw_mask_res_t mask_res;
 507:lvgl\src\lv_draw/lv_draw_img.c ****             mask_res = (alpha_byte || chroma_key || draw_dsc->angle ||
 619              		.loc 1 507 0
 620 0350 089B     		ldr	r3, [sp, #32]
 621 0352 5BB9     		cbnz	r3, .L60
 622              		.loc 1 507 0 is_stmt 0 discriminator 2
 623 0354 0D9B     		ldr	r3, [sp, #52]
 624 0356 63B9     		cbnz	r3, .L61
 625              		.loc 1 507 0 discriminator 4
 626 0358 099A     		ldr	r2, [sp, #36]
 627 035a 5388     		ldrh	r3, [r2, #2]
 628 035c 63B9     		cbnz	r3, .L62
 508:lvgl\src\lv_draw/lv_draw_img.c ****                         draw_dsc->zoom != LV_IMG_ZOOM_NONE) ? LV_DRAW_MASK_RES_CHANGED : LV_DRAW_MA
 629              		.loc 1 508 0 is_stmt 1 discriminator 6
 630 035e 1389     		ldrh	r3, [r2, #8]
 507:lvgl\src\lv_draw/lv_draw_img.c ****                         draw_dsc->zoom != LV_IMG_ZOOM_NONE) ? LV_DRAW_MASK_RES_CHANGED : LV_DRAW_MA
 631              		.loc 1 507 0 discriminator 6
 632 0360 B3F5807F 		cmp	r3, #256
 633 0364 0BD0     		beq	.L63
 507:lvgl\src\lv_draw/lv_draw_img.c ****                         draw_dsc->zoom != LV_IMG_ZOOM_NONE) ? LV_DRAW_MASK_RES_CHANGED : LV_DRAW_MA
 634              		.loc 1 507 0 is_stmt 0
 635 0366 0223     		movs	r3, #2
 636 0368 1B93     		str	r3, [sp, #108]
 637 036a 0AE0     		b	.L22
 638              	.L60:
 639 036c 0223     		movs	r3, #2
 640 036e 1B93     		str	r3, [sp, #108]
 641 0370 07E0     		b	.L22
 642              	.L61:
 643 0372 0223     		movs	r3, #2
 644 0374 1B93     		str	r3, [sp, #108]
 645 0376 04E0     		b	.L22
 646              	.L62:
 647 0378 0223     		movs	r3, #2
ARM GAS  C:\Users\strap\AppData\Local\Temp\ccUgAYbc.s 			page 36


 648 037a 1B93     		str	r3, [sp, #108]
 649 037c 01E0     		b	.L22
 650              	.L63:
 651 037e 0123     		movs	r3, #1
 652 0380 1B93     		str	r3, [sp, #108]
 653              	.L22:
 654              	.LVL92:
 509:lvgl\src\lv_draw/lv_draw_img.c **** 
 510:lvgl\src\lv_draw/lv_draw_img.c **** 
 511:lvgl\src\lv_draw/lv_draw_img.c ****             /*Prepare the `mask_buf`if there are other masks*/
 512:lvgl\src\lv_draw/lv_draw_img.c ****             if(other_mask_cnt) {
 655              		.loc 1 512 0 is_stmt 1 discriminator 10
 656 0382 149B     		ldr	r3, [sp, #80]
 657 0384 1BB1     		cbz	r3, .L23
 513:lvgl\src\lv_draw/lv_draw_img.c ****                 _lv_memset_ff(mask_buf, mask_buf_size);
 658              		.loc 1 513 0
 659 0386 1699     		ldr	r1, [sp, #88]
 660 0388 5846     		mov	r0, fp
 661 038a FFF7FEFF 		bl	_lv_memset_ff
 662              	.LVL93:
 663              	.L23:
 514:lvgl\src\lv_draw/lv_draw_img.c ****             }
 515:lvgl\src\lv_draw/lv_draw_img.c **** 
 516:lvgl\src\lv_draw/lv_draw_img.c ****             int32_t x;
 517:lvgl\src\lv_draw/lv_draw_img.c ****             int32_t y;
 518:lvgl\src\lv_draw/lv_draw_img.c **** #if LV_USE_IMG_TRANSFORM
 519:lvgl\src\lv_draw/lv_draw_img.c ****             int32_t rot_y = disp_area->y1 + draw_area.y1 - map_area->y1;
 664              		.loc 1 519 0
 665 038e 139B     		ldr	r3, [sp, #76]
 666 0390 B3F91220 		ldrsh	r2, [r3, #18]
 667 0394 BDF9E230 		ldrsh	r3, [sp, #226]
 668 0398 1344     		add	r3, r3, r2
 669 039a 159A     		ldr	r2, [sp, #84]
 670 039c B2F90220 		ldrsh	r2, [r2, #2]
 671 03a0 9B1A     		subs	r3, r3, r2
 672 03a2 1193     		str	r3, [sp, #68]
 673              	.LVL94:
 520:lvgl\src\lv_draw/lv_draw_img.c **** #endif
 521:lvgl\src\lv_draw/lv_draw_img.c ****             for(y = 0; y < draw_area_h; y++) {
 674              		.loc 1 521 0
 675 03a4 0023     		movs	r3, #0
 676              	.LVL95:
 677 03a6 0B93     		str	r3, [sp, #44]
 678              	.LBE116:
 391:lvgl\src\lv_draw/lv_draw_img.c **** 
 679              		.loc 1 391 0
 680 03a8 1293     		str	r3, [sp, #72]
 681 03aa CDF814A0 		str	r10, [sp, #20]
 682 03ae DA46     		mov	r10, fp
 683              	.LBB145:
 684              		.loc 1 521 0
 685 03b0 D7E1     		b	.L24
 686              	.LVL96:
 687              	.L52:
 688              	.LBB122:
 522:lvgl\src\lv_draw/lv_draw_img.c ****                 map_px = map_buf_tmp;
 523:lvgl\src\lv_draw/lv_draw_img.c ****                 uint32_t px_i_start = px_i;
ARM GAS  C:\Users\strap\AppData\Local\Temp\ccUgAYbc.s 			page 37


 524:lvgl\src\lv_draw/lv_draw_img.c **** 
 525:lvgl\src\lv_draw/lv_draw_img.c **** #if LV_USE_IMG_TRANSFORM
 526:lvgl\src\lv_draw/lv_draw_img.c ****                 int32_t rot_x = disp_area->x1 + draw_area.x1 - map_area->x1;
 689              		.loc 1 526 0
 690 03b2 139B     		ldr	r3, [sp, #76]
 691              	.LVL97:
 692 03b4 B3F91020 		ldrsh	r2, [r3, #16]
 693 03b8 BDF9E030 		ldrsh	r3, [sp, #224]
 694 03bc 1344     		add	r3, r3, r2
 695 03be 159A     		ldr	r2, [sp, #84]
 696 03c0 B2F90020 		ldrsh	r2, [r2]
 697 03c4 9B1A     		subs	r3, r3, r2
 698 03c6 0E93     		str	r3, [sp, #56]
 699              	.LVL98:
 522:lvgl\src\lv_draw/lv_draw_img.c ****                 map_px = map_buf_tmp;
 700              		.loc 1 522 0
 701 03c8 DDF84080 		ldr	r8, [sp, #64]
 527:lvgl\src\lv_draw/lv_draw_img.c **** #endif
 528:lvgl\src\lv_draw/lv_draw_img.c ****                 for(x = 0; x < draw_area_w; x++, map_px += px_size_byte, px_i++) {
 702              		.loc 1 528 0
 703 03cc DDF848B0 		ldr	fp, [sp, #72]
 704 03d0 0026     		movs	r6, #0
 705 03d2 41E1     		b	.L25
 706              	.LVL99:
 707              	.L46:
 529:lvgl\src\lv_draw/lv_draw_img.c **** 
 530:lvgl\src\lv_draw/lv_draw_img.c **** 
 531:lvgl\src\lv_draw/lv_draw_img.c **** #if LV_USE_IMG_TRANSFORM
 532:lvgl\src\lv_draw/lv_draw_img.c ****                     if(transform) {
 708              		.loc 1 532 0
 709 03d4 079B     		ldr	r3, [sp, #28]
 710 03d6 002B     		cmp	r3, #0
 711 03d8 00F0E280 		beq	.L26
 712              	.LBB123:
 533:lvgl\src\lv_draw/lv_draw_img.c **** 
 534:lvgl\src\lv_draw/lv_draw_img.c ****                         /*Transform*/
 535:lvgl\src\lv_draw/lv_draw_img.c ****                         bool ret;
 536:lvgl\src\lv_draw/lv_draw_img.c ****                         ret = _lv_img_buf_transform(&trans_dsc, rot_x + x, rot_y + y);
 713              		.loc 1 536 0
 714 03dc 0E9B     		ldr	r3, [sp, #56]
 715 03de 3344     		add	r3, r3, r6
 716 03e0 1BB2     		sxth	r3, r3
 717 03e2 119A     		ldr	r2, [sp, #68]
 718 03e4 0B99     		ldr	r1, [sp, #44]
 719 03e6 0A44     		add	r2, r2, r1
 720 03e8 12B2     		sxth	r2, r2
 721              	.LVL100:
 722              	.LBB124:
 723              	.LBB125:
 724              		.file 5 "lvgl\\src\\lv_draw\\lv_img_buf.h"
   1:lvgl\src\lv_draw/lv_img_buf.h **** /**
   2:lvgl\src\lv_draw/lv_img_buf.h ****  * @file lv_img_buf.h
   3:lvgl\src\lv_draw/lv_img_buf.h ****  *
   4:lvgl\src\lv_draw/lv_img_buf.h ****  */
   5:lvgl\src\lv_draw/lv_img_buf.h **** 
   6:lvgl\src\lv_draw/lv_img_buf.h **** #ifndef LV_IMG_BUF_H
   7:lvgl\src\lv_draw/lv_img_buf.h **** #define LV_IMG_BUF_H
ARM GAS  C:\Users\strap\AppData\Local\Temp\ccUgAYbc.s 			page 38


   8:lvgl\src\lv_draw/lv_img_buf.h **** 
   9:lvgl\src\lv_draw/lv_img_buf.h **** #ifdef __cplusplus
  10:lvgl\src\lv_draw/lv_img_buf.h **** extern "C" {
  11:lvgl\src\lv_draw/lv_img_buf.h **** #endif
  12:lvgl\src\lv_draw/lv_img_buf.h **** 
  13:lvgl\src\lv_draw/lv_img_buf.h **** /*********************
  14:lvgl\src\lv_draw/lv_img_buf.h ****  *      INCLUDES
  15:lvgl\src\lv_draw/lv_img_buf.h ****  *********************/
  16:lvgl\src\lv_draw/lv_img_buf.h **** #include <stdbool.h>
  17:lvgl\src\lv_draw/lv_img_buf.h **** #include "../lv_misc/lv_color.h"
  18:lvgl\src\lv_draw/lv_img_buf.h **** #include "../lv_misc/lv_area.h"
  19:lvgl\src\lv_draw/lv_img_buf.h **** 
  20:lvgl\src\lv_draw/lv_img_buf.h **** 
  21:lvgl\src\lv_draw/lv_img_buf.h **** /*********************
  22:lvgl\src\lv_draw/lv_img_buf.h ****  *      DEFINES
  23:lvgl\src\lv_draw/lv_img_buf.h ****  *********************/
  24:lvgl\src\lv_draw/lv_img_buf.h **** /*If image pixels contains alpha we need to know how much byte is a pixel*/
  25:lvgl\src\lv_draw/lv_img_buf.h **** #if LV_COLOR_DEPTH == 1 || LV_COLOR_DEPTH == 8
  26:lvgl\src\lv_draw/lv_img_buf.h **** #define LV_IMG_PX_SIZE_ALPHA_BYTE 2
  27:lvgl\src\lv_draw/lv_img_buf.h **** #elif LV_COLOR_DEPTH == 16
  28:lvgl\src\lv_draw/lv_img_buf.h **** #define LV_IMG_PX_SIZE_ALPHA_BYTE 3
  29:lvgl\src\lv_draw/lv_img_buf.h **** #elif LV_COLOR_DEPTH == 32
  30:lvgl\src\lv_draw/lv_img_buf.h **** #define LV_IMG_PX_SIZE_ALPHA_BYTE 4
  31:lvgl\src\lv_draw/lv_img_buf.h **** #endif
  32:lvgl\src\lv_draw/lv_img_buf.h **** 
  33:lvgl\src\lv_draw/lv_img_buf.h **** #define LV_IMG_BUF_SIZE_TRUE_COLOR(w, h) ((LV_COLOR_SIZE / 8) * w * h)
  34:lvgl\src\lv_draw/lv_img_buf.h **** #define LV_IMG_BUF_SIZE_TRUE_COLOR_CHROMA_KEYED(w, h) ((LV_COLOR_SIZE / 8) * w * h)
  35:lvgl\src\lv_draw/lv_img_buf.h **** #define LV_IMG_BUF_SIZE_TRUE_COLOR_ALPHA(w, h) (LV_IMG_PX_SIZE_ALPHA_BYTE * w * h)
  36:lvgl\src\lv_draw/lv_img_buf.h **** 
  37:lvgl\src\lv_draw/lv_img_buf.h **** /*+ 1: to be sure no fractional row*/
  38:lvgl\src\lv_draw/lv_img_buf.h **** #define LV_IMG_BUF_SIZE_ALPHA_1BIT(w, h) ((((w / 8) + 1) * h))
  39:lvgl\src\lv_draw/lv_img_buf.h **** #define LV_IMG_BUF_SIZE_ALPHA_2BIT(w, h) ((((w / 4) + 1) * h))
  40:lvgl\src\lv_draw/lv_img_buf.h **** #define LV_IMG_BUF_SIZE_ALPHA_4BIT(w, h) ((((w / 2) + 1) * h))
  41:lvgl\src\lv_draw/lv_img_buf.h **** #define LV_IMG_BUF_SIZE_ALPHA_8BIT(w, h) ((w * h))
  42:lvgl\src\lv_draw/lv_img_buf.h **** 
  43:lvgl\src\lv_draw/lv_img_buf.h **** /*4 * X: for palette*/
  44:lvgl\src\lv_draw/lv_img_buf.h **** #define LV_IMG_BUF_SIZE_INDEXED_1BIT(w, h) (LV_IMG_BUF_SIZE_ALPHA_1BIT(w, h) + 4 * 2)
  45:lvgl\src\lv_draw/lv_img_buf.h **** #define LV_IMG_BUF_SIZE_INDEXED_2BIT(w, h) (LV_IMG_BUF_SIZE_ALPHA_2BIT(w, h) + 4 * 4)
  46:lvgl\src\lv_draw/lv_img_buf.h **** #define LV_IMG_BUF_SIZE_INDEXED_4BIT(w, h) (LV_IMG_BUF_SIZE_ALPHA_4BIT(w, h) + 4 * 16)
  47:lvgl\src\lv_draw/lv_img_buf.h **** #define LV_IMG_BUF_SIZE_INDEXED_8BIT(w, h) (LV_IMG_BUF_SIZE_ALPHA_8BIT(w, h) + 4 * 256)
  48:lvgl\src\lv_draw/lv_img_buf.h **** 
  49:lvgl\src\lv_draw/lv_img_buf.h **** #define LV_IMG_ZOOM_NONE   256
  50:lvgl\src\lv_draw/lv_img_buf.h **** 
  51:lvgl\src\lv_draw/lv_img_buf.h **** #define _LV_TRANSFORM_TRIGO_SHIFT 10
  52:lvgl\src\lv_draw/lv_img_buf.h **** #define _LV_ZOOM_INV_UPSCALE 5
  53:lvgl\src\lv_draw/lv_img_buf.h **** 
  54:lvgl\src\lv_draw/lv_img_buf.h **** /**********************
  55:lvgl\src\lv_draw/lv_img_buf.h ****  *      TYPEDEFS
  56:lvgl\src\lv_draw/lv_img_buf.h ****  **********************/
  57:lvgl\src\lv_draw/lv_img_buf.h **** 
  58:lvgl\src\lv_draw/lv_img_buf.h **** /*Image color format*/
  59:lvgl\src\lv_draw/lv_img_buf.h **** enum {
  60:lvgl\src\lv_draw/lv_img_buf.h ****     LV_IMG_CF_UNKNOWN = 0,
  61:lvgl\src\lv_draw/lv_img_buf.h **** 
  62:lvgl\src\lv_draw/lv_img_buf.h ****     LV_IMG_CF_RAW,              /**< Contains the file as it is. Needs custom decoder function*/
  63:lvgl\src\lv_draw/lv_img_buf.h ****     LV_IMG_CF_RAW_ALPHA,        /**< Contains the file as it is. The image has alpha. Needs custom 
  64:lvgl\src\lv_draw/lv_img_buf.h ****                                    function*/
ARM GAS  C:\Users\strap\AppData\Local\Temp\ccUgAYbc.s 			page 39


  65:lvgl\src\lv_draw/lv_img_buf.h ****     LV_IMG_CF_RAW_CHROMA_KEYED, /**< Contains the file as it is. The image is chroma keyed. Needs
  66:lvgl\src\lv_draw/lv_img_buf.h ****                                    custom decoder function*/
  67:lvgl\src\lv_draw/lv_img_buf.h **** 
  68:lvgl\src\lv_draw/lv_img_buf.h ****     LV_IMG_CF_TRUE_COLOR,              /**< Color format and depth should match with LV_COLOR setti
  69:lvgl\src\lv_draw/lv_img_buf.h ****     LV_IMG_CF_TRUE_COLOR_ALPHA,        /**< Same as `LV_IMG_CF_TRUE_COLOR` but every pixel has an a
  70:lvgl\src\lv_draw/lv_img_buf.h ****     LV_IMG_CF_TRUE_COLOR_CHROMA_KEYED, /**< Same as `LV_IMG_CF_TRUE_COLOR` but LV_COLOR_TRANSP pixe
  71:lvgl\src\lv_draw/lv_img_buf.h ****                                           will be transparent*/
  72:lvgl\src\lv_draw/lv_img_buf.h **** 
  73:lvgl\src\lv_draw/lv_img_buf.h ****     LV_IMG_CF_INDEXED_1BIT, /**< Can have 2 different colors in a palette (always chroma keyed)*/
  74:lvgl\src\lv_draw/lv_img_buf.h ****     LV_IMG_CF_INDEXED_2BIT, /**< Can have 4 different colors in a palette (always chroma keyed)*/
  75:lvgl\src\lv_draw/lv_img_buf.h ****     LV_IMG_CF_INDEXED_4BIT, /**< Can have 16 different colors in a palette (always chroma keyed)*/
  76:lvgl\src\lv_draw/lv_img_buf.h ****     LV_IMG_CF_INDEXED_8BIT, /**< Can have 256 different colors in a palette (always chroma keyed)*/
  77:lvgl\src\lv_draw/lv_img_buf.h **** 
  78:lvgl\src\lv_draw/lv_img_buf.h ****     LV_IMG_CF_ALPHA_1BIT, /**< Can have one color and it can be drawn or not*/
  79:lvgl\src\lv_draw/lv_img_buf.h ****     LV_IMG_CF_ALPHA_2BIT, /**< Can have one color but 4 different alpha value*/
  80:lvgl\src\lv_draw/lv_img_buf.h ****     LV_IMG_CF_ALPHA_4BIT, /**< Can have one color but 16 different alpha value*/
  81:lvgl\src\lv_draw/lv_img_buf.h ****     LV_IMG_CF_ALPHA_8BIT, /**< Can have one color but 256 different alpha value*/
  82:lvgl\src\lv_draw/lv_img_buf.h **** 
  83:lvgl\src\lv_draw/lv_img_buf.h ****     LV_IMG_CF_RESERVED_15,              /**< Reserved for further use. */
  84:lvgl\src\lv_draw/lv_img_buf.h ****     LV_IMG_CF_RESERVED_16,              /**< Reserved for further use. */
  85:lvgl\src\lv_draw/lv_img_buf.h ****     LV_IMG_CF_RESERVED_17,              /**< Reserved for further use. */
  86:lvgl\src\lv_draw/lv_img_buf.h ****     LV_IMG_CF_RESERVED_18,              /**< Reserved for further use. */
  87:lvgl\src\lv_draw/lv_img_buf.h ****     LV_IMG_CF_RESERVED_19,              /**< Reserved for further use. */
  88:lvgl\src\lv_draw/lv_img_buf.h ****     LV_IMG_CF_RESERVED_20,              /**< Reserved for further use. */
  89:lvgl\src\lv_draw/lv_img_buf.h ****     LV_IMG_CF_RESERVED_21,              /**< Reserved for further use. */
  90:lvgl\src\lv_draw/lv_img_buf.h ****     LV_IMG_CF_RESERVED_22,              /**< Reserved for further use. */
  91:lvgl\src\lv_draw/lv_img_buf.h ****     LV_IMG_CF_RESERVED_23,              /**< Reserved for further use. */
  92:lvgl\src\lv_draw/lv_img_buf.h **** 
  93:lvgl\src\lv_draw/lv_img_buf.h ****     LV_IMG_CF_USER_ENCODED_0,          /**< User holder encoding format. */
  94:lvgl\src\lv_draw/lv_img_buf.h ****     LV_IMG_CF_USER_ENCODED_1,          /**< User holder encoding format. */
  95:lvgl\src\lv_draw/lv_img_buf.h ****     LV_IMG_CF_USER_ENCODED_2,          /**< User holder encoding format. */
  96:lvgl\src\lv_draw/lv_img_buf.h ****     LV_IMG_CF_USER_ENCODED_3,          /**< User holder encoding format. */
  97:lvgl\src\lv_draw/lv_img_buf.h ****     LV_IMG_CF_USER_ENCODED_4,          /**< User holder encoding format. */
  98:lvgl\src\lv_draw/lv_img_buf.h ****     LV_IMG_CF_USER_ENCODED_5,          /**< User holder encoding format. */
  99:lvgl\src\lv_draw/lv_img_buf.h ****     LV_IMG_CF_USER_ENCODED_6,          /**< User holder encoding format. */
 100:lvgl\src\lv_draw/lv_img_buf.h ****     LV_IMG_CF_USER_ENCODED_7,          /**< User holder encoding format. */
 101:lvgl\src\lv_draw/lv_img_buf.h **** };
 102:lvgl\src\lv_draw/lv_img_buf.h **** typedef uint8_t lv_img_cf_t;
 103:lvgl\src\lv_draw/lv_img_buf.h **** 
 104:lvgl\src\lv_draw/lv_img_buf.h **** 
 105:lvgl\src\lv_draw/lv_img_buf.h **** /**
 106:lvgl\src\lv_draw/lv_img_buf.h ****  * LVGL image header
 107:lvgl\src\lv_draw/lv_img_buf.h ****  */
 108:lvgl\src\lv_draw/lv_img_buf.h **** /* The first 8 bit is very important to distinguish the different source types.
 109:lvgl\src\lv_draw/lv_img_buf.h ****  * For more info see `lv_img_get_src_type()` in lv_img.c
 110:lvgl\src\lv_draw/lv_img_buf.h ****  * On big endian systems the order is reversed so cf and always_zero must be at
 111:lvgl\src\lv_draw/lv_img_buf.h ****  * the end of the struct.
 112:lvgl\src\lv_draw/lv_img_buf.h ****  * */
 113:lvgl\src\lv_draw/lv_img_buf.h **** #if LV_BIG_ENDIAN_SYSTEM
 114:lvgl\src\lv_draw/lv_img_buf.h **** typedef struct {
 115:lvgl\src\lv_draw/lv_img_buf.h **** 
 116:lvgl\src\lv_draw/lv_img_buf.h ****     uint32_t h : 11; /*Height of     the image map*/
 117:lvgl\src\lv_draw/lv_img_buf.h ****     uint32_t w : 11; /*Width of the image map*/
 118:lvgl\src\lv_draw/lv_img_buf.h ****     uint32_t reserved : 2; /*Reserved to be used later*/
 119:lvgl\src\lv_draw/lv_img_buf.h ****     uint32_t always_zero : 3; /*It the upper bits of the first byte. Always zero to look like a
 120:lvgl\src\lv_draw/lv_img_buf.h ****                                  non-printable character*/
 121:lvgl\src\lv_draw/lv_img_buf.h ****     uint32_t cf : 5;          /* Color format: See `lv_img_color_format_t`*/
ARM GAS  C:\Users\strap\AppData\Local\Temp\ccUgAYbc.s 			page 40


 122:lvgl\src\lv_draw/lv_img_buf.h **** 
 123:lvgl\src\lv_draw/lv_img_buf.h **** 
 124:lvgl\src\lv_draw/lv_img_buf.h **** } lv_img_header_t;
 125:lvgl\src\lv_draw/lv_img_buf.h **** #else
 126:lvgl\src\lv_draw/lv_img_buf.h **** typedef struct {
 127:lvgl\src\lv_draw/lv_img_buf.h **** 
 128:lvgl\src\lv_draw/lv_img_buf.h ****     uint32_t cf : 5;          /* Color format: See `lv_img_color_format_t`*/
 129:lvgl\src\lv_draw/lv_img_buf.h ****     uint32_t always_zero : 3; /*It the upper bits of the first byte. Always zero to look like a
 130:lvgl\src\lv_draw/lv_img_buf.h ****                                  non-printable character*/
 131:lvgl\src\lv_draw/lv_img_buf.h **** 
 132:lvgl\src\lv_draw/lv_img_buf.h ****     uint32_t reserved : 2; /*Reserved to be used later*/
 133:lvgl\src\lv_draw/lv_img_buf.h **** 
 134:lvgl\src\lv_draw/lv_img_buf.h ****     uint32_t w : 11; /*Width of the image map*/
 135:lvgl\src\lv_draw/lv_img_buf.h ****     uint32_t h : 11; /*Height of     the image map*/
 136:lvgl\src\lv_draw/lv_img_buf.h **** } lv_img_header_t;
 137:lvgl\src\lv_draw/lv_img_buf.h **** #endif
 138:lvgl\src\lv_draw/lv_img_buf.h **** 
 139:lvgl\src\lv_draw/lv_img_buf.h **** /** Image header it is compatible with
 140:lvgl\src\lv_draw/lv_img_buf.h ****  * the result from image converter utility*/
 141:lvgl\src\lv_draw/lv_img_buf.h **** typedef struct {
 142:lvgl\src\lv_draw/lv_img_buf.h ****     lv_img_header_t header;
 143:lvgl\src\lv_draw/lv_img_buf.h ****     uint32_t data_size;
 144:lvgl\src\lv_draw/lv_img_buf.h ****     const uint8_t * data;
 145:lvgl\src\lv_draw/lv_img_buf.h **** } lv_img_dsc_t;
 146:lvgl\src\lv_draw/lv_img_buf.h **** 
 147:lvgl\src\lv_draw/lv_img_buf.h **** typedef struct {
 148:lvgl\src\lv_draw/lv_img_buf.h ****     struct {
 149:lvgl\src\lv_draw/lv_img_buf.h ****         const void * src;           /*image source (array of pixels)*/
 150:lvgl\src\lv_draw/lv_img_buf.h ****         lv_coord_t src_w;           /*width of the image source*/
 151:lvgl\src\lv_draw/lv_img_buf.h ****         lv_coord_t src_h;           /*height of the image source*/
 152:lvgl\src\lv_draw/lv_img_buf.h ****         lv_coord_t pivot_x;         /*pivot x*/
 153:lvgl\src\lv_draw/lv_img_buf.h ****         lv_coord_t pivot_y;         /* pivot y*/
 154:lvgl\src\lv_draw/lv_img_buf.h ****         int16_t angle;              /*angle to rotate*/
 155:lvgl\src\lv_draw/lv_img_buf.h ****         uint16_t zoom;              /*256 no zoom, 128 half size, 512 double size*/
 156:lvgl\src\lv_draw/lv_img_buf.h ****         lv_color_t color;           /*a color used for `LV_IMG_CF_INDEXED_1/2/4/8BIT` color formats
 157:lvgl\src\lv_draw/lv_img_buf.h ****         lv_img_cf_t cf;             /*color format of the image to rotate*/
 158:lvgl\src\lv_draw/lv_img_buf.h ****         bool antialias;
 159:lvgl\src\lv_draw/lv_img_buf.h ****     } cfg;
 160:lvgl\src\lv_draw/lv_img_buf.h **** 
 161:lvgl\src\lv_draw/lv_img_buf.h ****     struct {
 162:lvgl\src\lv_draw/lv_img_buf.h ****         lv_color_t color;
 163:lvgl\src\lv_draw/lv_img_buf.h ****         lv_opa_t opa;
 164:lvgl\src\lv_draw/lv_img_buf.h ****     } res;
 165:lvgl\src\lv_draw/lv_img_buf.h **** 
 166:lvgl\src\lv_draw/lv_img_buf.h **** 
 167:lvgl\src\lv_draw/lv_img_buf.h ****     struct {
 168:lvgl\src\lv_draw/lv_img_buf.h ****         lv_img_dsc_t img_dsc;
 169:lvgl\src\lv_draw/lv_img_buf.h ****         int32_t pivot_x_256;
 170:lvgl\src\lv_draw/lv_img_buf.h ****         int32_t pivot_y_256;
 171:lvgl\src\lv_draw/lv_img_buf.h ****         int32_t sinma;
 172:lvgl\src\lv_draw/lv_img_buf.h ****         int32_t cosma;
 173:lvgl\src\lv_draw/lv_img_buf.h **** 
 174:lvgl\src\lv_draw/lv_img_buf.h ****         uint8_t chroma_keyed : 1;
 175:lvgl\src\lv_draw/lv_img_buf.h ****         uint8_t has_alpha : 1;
 176:lvgl\src\lv_draw/lv_img_buf.h ****         uint8_t native_color : 1;
 177:lvgl\src\lv_draw/lv_img_buf.h **** 
 178:lvgl\src\lv_draw/lv_img_buf.h ****         uint32_t zoom_inv;
ARM GAS  C:\Users\strap\AppData\Local\Temp\ccUgAYbc.s 			page 41


 179:lvgl\src\lv_draw/lv_img_buf.h **** 
 180:lvgl\src\lv_draw/lv_img_buf.h ****         /*Runtime data*/
 181:lvgl\src\lv_draw/lv_img_buf.h ****         lv_coord_t xs;
 182:lvgl\src\lv_draw/lv_img_buf.h ****         lv_coord_t ys;
 183:lvgl\src\lv_draw/lv_img_buf.h ****         lv_coord_t xs_int;
 184:lvgl\src\lv_draw/lv_img_buf.h ****         lv_coord_t ys_int;
 185:lvgl\src\lv_draw/lv_img_buf.h ****         uint32_t pxi;
 186:lvgl\src\lv_draw/lv_img_buf.h ****         uint8_t px_size;
 187:lvgl\src\lv_draw/lv_img_buf.h ****     } tmp;
 188:lvgl\src\lv_draw/lv_img_buf.h **** } lv_img_transform_dsc_t;
 189:lvgl\src\lv_draw/lv_img_buf.h **** 
 190:lvgl\src\lv_draw/lv_img_buf.h **** /**********************
 191:lvgl\src\lv_draw/lv_img_buf.h ****  * GLOBAL PROTOTYPES
 192:lvgl\src\lv_draw/lv_img_buf.h ****  **********************/
 193:lvgl\src\lv_draw/lv_img_buf.h **** 
 194:lvgl\src\lv_draw/lv_img_buf.h **** /**
 195:lvgl\src\lv_draw/lv_img_buf.h ****  * Allocate an image buffer in RAM
 196:lvgl\src\lv_draw/lv_img_buf.h ****  * @param w width of image
 197:lvgl\src\lv_draw/lv_img_buf.h ****  * @param h height of image
 198:lvgl\src\lv_draw/lv_img_buf.h ****  * @param cf a color format (`LV_IMG_CF_...`)
 199:lvgl\src\lv_draw/lv_img_buf.h ****  * @return an allocated image, or NULL on failure
 200:lvgl\src\lv_draw/lv_img_buf.h ****  */
 201:lvgl\src\lv_draw/lv_img_buf.h **** lv_img_dsc_t * lv_img_buf_alloc(lv_coord_t w, lv_coord_t h, lv_img_cf_t cf);
 202:lvgl\src\lv_draw/lv_img_buf.h **** 
 203:lvgl\src\lv_draw/lv_img_buf.h **** /**
 204:lvgl\src\lv_draw/lv_img_buf.h ****  * Get the color of an image's pixel
 205:lvgl\src\lv_draw/lv_img_buf.h ****  * @param dsc an image descriptor
 206:lvgl\src\lv_draw/lv_img_buf.h ****  * @param x x coordinate of the point to get
 207:lvgl\src\lv_draw/lv_img_buf.h ****  * @param y x coordinate of the point to get
 208:lvgl\src\lv_draw/lv_img_buf.h ****  * @param color the color of the image. In case of `LV_IMG_CF_ALPHA_1/2/4/8` this color is used.
 209:lvgl\src\lv_draw/lv_img_buf.h ****  * Not used in other cases.
 210:lvgl\src\lv_draw/lv_img_buf.h ****  * @param safe true: check out of bounds
 211:lvgl\src\lv_draw/lv_img_buf.h ****  * @return color of the point
 212:lvgl\src\lv_draw/lv_img_buf.h ****  */
 213:lvgl\src\lv_draw/lv_img_buf.h **** lv_color_t lv_img_buf_get_px_color(lv_img_dsc_t * dsc, lv_coord_t x, lv_coord_t y, lv_color_t color
 214:lvgl\src\lv_draw/lv_img_buf.h **** 
 215:lvgl\src\lv_draw/lv_img_buf.h **** /**
 216:lvgl\src\lv_draw/lv_img_buf.h ****  * Get the alpha value of an image's pixel
 217:lvgl\src\lv_draw/lv_img_buf.h ****  * @param dsc pointer to an image descriptor
 218:lvgl\src\lv_draw/lv_img_buf.h ****  * @param x x coordinate of the point to set
 219:lvgl\src\lv_draw/lv_img_buf.h ****  * @param y x coordinate of the point to set
 220:lvgl\src\lv_draw/lv_img_buf.h ****  * @param safe true: check out of bounds
 221:lvgl\src\lv_draw/lv_img_buf.h ****  * @return alpha value of the point
 222:lvgl\src\lv_draw/lv_img_buf.h ****  */
 223:lvgl\src\lv_draw/lv_img_buf.h **** lv_opa_t lv_img_buf_get_px_alpha(lv_img_dsc_t * dsc, lv_coord_t x, lv_coord_t y);
 224:lvgl\src\lv_draw/lv_img_buf.h **** 
 225:lvgl\src\lv_draw/lv_img_buf.h **** /**
 226:lvgl\src\lv_draw/lv_img_buf.h ****  * Set the color of a pixel of an image. The alpha channel won't be affected.
 227:lvgl\src\lv_draw/lv_img_buf.h ****  * @param dsc pointer to an image descriptor
 228:lvgl\src\lv_draw/lv_img_buf.h ****  * @param x x coordinate of the point to set
 229:lvgl\src\lv_draw/lv_img_buf.h ****  * @param y x coordinate of the point to set
 230:lvgl\src\lv_draw/lv_img_buf.h ****  * @param c color of the point
 231:lvgl\src\lv_draw/lv_img_buf.h ****  * @param safe true: check out of bounds
 232:lvgl\src\lv_draw/lv_img_buf.h ****  */
 233:lvgl\src\lv_draw/lv_img_buf.h **** void lv_img_buf_set_px_color(lv_img_dsc_t * dsc, lv_coord_t x, lv_coord_t y, lv_color_t c);
 234:lvgl\src\lv_draw/lv_img_buf.h **** 
 235:lvgl\src\lv_draw/lv_img_buf.h **** /**
ARM GAS  C:\Users\strap\AppData\Local\Temp\ccUgAYbc.s 			page 42


 236:lvgl\src\lv_draw/lv_img_buf.h ****  * Set the alpha value of a pixel of an image. The color won't be affected
 237:lvgl\src\lv_draw/lv_img_buf.h ****  * @param dsc pointer to an image descriptor
 238:lvgl\src\lv_draw/lv_img_buf.h ****  * @param x x coordinate of the point to set
 239:lvgl\src\lv_draw/lv_img_buf.h ****  * @param y x coordinate of the point to set
 240:lvgl\src\lv_draw/lv_img_buf.h ****  * @param opa the desired opacity
 241:lvgl\src\lv_draw/lv_img_buf.h ****  * @param safe true: check out of bounds
 242:lvgl\src\lv_draw/lv_img_buf.h ****  */
 243:lvgl\src\lv_draw/lv_img_buf.h **** void lv_img_buf_set_px_alpha(lv_img_dsc_t * dsc, lv_coord_t x, lv_coord_t y, lv_opa_t opa);
 244:lvgl\src\lv_draw/lv_img_buf.h **** 
 245:lvgl\src\lv_draw/lv_img_buf.h **** /**
 246:lvgl\src\lv_draw/lv_img_buf.h ****  * Set the palette color of an indexed image. Valid only for `LV_IMG_CF_INDEXED1/2/4/8`
 247:lvgl\src\lv_draw/lv_img_buf.h ****  * @param dsc pointer to an image descriptor
 248:lvgl\src\lv_draw/lv_img_buf.h ****  * @param id the palette color to set:
 249:lvgl\src\lv_draw/lv_img_buf.h ****  *   - for `LV_IMG_CF_INDEXED1`: 0..1
 250:lvgl\src\lv_draw/lv_img_buf.h ****  *   - for `LV_IMG_CF_INDEXED2`: 0..3
 251:lvgl\src\lv_draw/lv_img_buf.h ****  *   - for `LV_IMG_CF_INDEXED4`: 0..15
 252:lvgl\src\lv_draw/lv_img_buf.h ****  *   - for `LV_IMG_CF_INDEXED8`: 0..255
 253:lvgl\src\lv_draw/lv_img_buf.h ****  * @param c the color to set
 254:lvgl\src\lv_draw/lv_img_buf.h ****  */
 255:lvgl\src\lv_draw/lv_img_buf.h **** void lv_img_buf_set_palette(lv_img_dsc_t * dsc, uint8_t id, lv_color_t c);
 256:lvgl\src\lv_draw/lv_img_buf.h **** 
 257:lvgl\src\lv_draw/lv_img_buf.h **** /**
 258:lvgl\src\lv_draw/lv_img_buf.h ****  * Free an allocated image buffer
 259:lvgl\src\lv_draw/lv_img_buf.h ****  * @param dsc image buffer to free
 260:lvgl\src\lv_draw/lv_img_buf.h ****  */
 261:lvgl\src\lv_draw/lv_img_buf.h **** void lv_img_buf_free(lv_img_dsc_t * dsc);
 262:lvgl\src\lv_draw/lv_img_buf.h **** 
 263:lvgl\src\lv_draw/lv_img_buf.h **** /**
 264:lvgl\src\lv_draw/lv_img_buf.h ****  * Get the memory consumption of a raw bitmap, given color format and dimensions.
 265:lvgl\src\lv_draw/lv_img_buf.h ****  * @param w width
 266:lvgl\src\lv_draw/lv_img_buf.h ****  * @param h height
 267:lvgl\src\lv_draw/lv_img_buf.h ****  * @param cf color format
 268:lvgl\src\lv_draw/lv_img_buf.h ****  * @return size in bytes
 269:lvgl\src\lv_draw/lv_img_buf.h ****  */
 270:lvgl\src\lv_draw/lv_img_buf.h **** uint32_t lv_img_buf_get_img_size(lv_coord_t w, lv_coord_t h, lv_img_cf_t cf);
 271:lvgl\src\lv_draw/lv_img_buf.h **** 
 272:lvgl\src\lv_draw/lv_img_buf.h **** 
 273:lvgl\src\lv_draw/lv_img_buf.h **** #if LV_USE_IMG_TRANSFORM
 274:lvgl\src\lv_draw/lv_img_buf.h **** /**
 275:lvgl\src\lv_draw/lv_img_buf.h ****  * Initialize a descriptor to rotate an image
 276:lvgl\src\lv_draw/lv_img_buf.h ****  * @param dsc pointer to an `lv_img_transform_dsc_t` variable whose `cfg` field is initialized
 277:lvgl\src\lv_draw/lv_img_buf.h ****  */
 278:lvgl\src\lv_draw/lv_img_buf.h **** void _lv_img_buf_transform_init(lv_img_transform_dsc_t * dsc);
 279:lvgl\src\lv_draw/lv_img_buf.h **** 
 280:lvgl\src\lv_draw/lv_img_buf.h **** /**
 281:lvgl\src\lv_draw/lv_img_buf.h ****  * Continue transformation by taking the neighbors into account
 282:lvgl\src\lv_draw/lv_img_buf.h ****  * @param dsc pointer to the transformation descriptor
 283:lvgl\src\lv_draw/lv_img_buf.h ****  */
 284:lvgl\src\lv_draw/lv_img_buf.h **** bool _lv_img_buf_transform_anti_alias(lv_img_transform_dsc_t * dsc);
 285:lvgl\src\lv_draw/lv_img_buf.h **** 
 286:lvgl\src\lv_draw/lv_img_buf.h **** 
 287:lvgl\src\lv_draw/lv_img_buf.h **** /**
 288:lvgl\src\lv_draw/lv_img_buf.h ****  * Get which color and opa would come to a pixel if it were rotated
 289:lvgl\src\lv_draw/lv_img_buf.h ****  * @param dsc a descriptor initialized by `lv_img_buf_rotate_init`
 290:lvgl\src\lv_draw/lv_img_buf.h ****  * @param x the coordinate which color and opa should be get
 291:lvgl\src\lv_draw/lv_img_buf.h ****  * @param y the coordinate which color and opa should be get
 292:lvgl\src\lv_draw/lv_img_buf.h ****  * @return true: there is valid pixel on these x/y coordinates; false: the rotated pixel was out of
ARM GAS  C:\Users\strap\AppData\Local\Temp\ccUgAYbc.s 			page 43


 293:lvgl\src\lv_draw/lv_img_buf.h ****  * @note the result is written back to `dsc->res_color` and `dsc->res_opa`
 294:lvgl\src\lv_draw/lv_img_buf.h ****  */
 295:lvgl\src\lv_draw/lv_img_buf.h **** static inline bool _lv_img_buf_transform(lv_img_transform_dsc_t * dsc, lv_coord_t x, lv_coord_t y)
 296:lvgl\src\lv_draw/lv_img_buf.h **** {
 297:lvgl\src\lv_draw/lv_img_buf.h ****     const uint8_t * src_u8 = (const uint8_t *)dsc->cfg.src;
 725              		.loc 5 297 0
 726 03ea 2599     		ldr	r1, [sp, #148]
 727              	.LVL101:
 298:lvgl\src\lv_draw/lv_img_buf.h **** 
 299:lvgl\src\lv_draw/lv_img_buf.h ****     /*Get the target point relative coordinates to the pivot*/
 300:lvgl\src\lv_draw/lv_img_buf.h ****     int32_t xt = x - dsc->cfg.pivot_x;
 728              		.loc 5 300 0
 729 03ec BDF99C40 		ldrsh	r4, [sp, #156]
 730 03f0 1B1B     		subs	r3, r3, r4
 731              	.LVL102:
 301:lvgl\src\lv_draw/lv_img_buf.h ****     int32_t yt = y - dsc->cfg.pivot_y;
 732              		.loc 5 301 0
 733 03f2 BDF99E40 		ldrsh	r4, [sp, #158]
 734 03f6 121B     		subs	r2, r2, r4
 735              	.LVL103:
 302:lvgl\src\lv_draw/lv_img_buf.h **** 
 303:lvgl\src\lv_draw/lv_img_buf.h ****     int32_t xs;
 304:lvgl\src\lv_draw/lv_img_buf.h ****     int32_t ys;
 305:lvgl\src\lv_draw/lv_img_buf.h ****     if(dsc->cfg.zoom == LV_IMG_ZOOM_NONE) {
 736              		.loc 5 305 0
 737 03f8 BDF8A200 		ldrh	r0, [sp, #162]
 738 03fc B0F5807F 		cmp	r0, #256
 739 0400 11D1     		bne	.L27
 306:lvgl\src\lv_draw/lv_img_buf.h ****         /*Get the source pixel from the upscaled image*/
 307:lvgl\src\lv_draw/lv_img_buf.h ****         xs = ((dsc->tmp.cosma * xt - dsc->tmp.sinma * yt) >> (_LV_TRANSFORM_TRIGO_SHIFT - 8)) + dsc
 740              		.loc 5 307 0
 741 0402 319C     		ldr	r4, [sp, #196]
 742 0404 04FB03F7 		mul	r7, r4, r3
 743 0408 309D     		ldr	r5, [sp, #192]
 744 040a 05FB1277 		mls	r7, r5, r2, r7
 745 040e 2E98     		ldr	r0, [sp, #184]
 746 0410 00EBA700 		add	r0, r0, r7, asr #2
 747 0414 0C90     		str	r0, [sp, #48]
 748              	.LVL104:
 308:lvgl\src\lv_draw/lv_img_buf.h ****         ys = ((dsc->tmp.sinma * xt + dsc->tmp.cosma * yt) >> (_LV_TRANSFORM_TRIGO_SHIFT - 8)) + dsc
 749              		.loc 5 308 0
 750 0416 04FB02F4 		mul	r4, r4, r2
 751 041a 05FB0343 		mla	r3, r5, r3, r4
 752              	.LVL105:
 753 041e 2F9C     		ldr	r4, [sp, #188]
 754 0420 04EBA304 		add	r4, r4, r3, asr #2
 755              	.LVL106:
 756 0424 27E0     		b	.L28
 757              	.LVL107:
 758              	.L27:
 309:lvgl\src\lv_draw/lv_img_buf.h ****     }
 310:lvgl\src\lv_draw/lv_img_buf.h ****     else if(dsc->cfg.angle == 0) {
 759              		.loc 5 310 0
 760 0426 BDF9A000 		ldrsh	r0, [sp, #160]
 761 042a 60B9     		cbnz	r0, .L29
 311:lvgl\src\lv_draw/lv_img_buf.h ****         xt = (int32_t)((int32_t)xt * dsc->tmp.zoom_inv) >> _LV_ZOOM_INV_UPSCALE;
 762              		.loc 5 311 0
ARM GAS  C:\Users\strap\AppData\Local\Temp\ccUgAYbc.s 			page 44


 763 042c 3398     		ldr	r0, [sp, #204]
 764 042e 00FB03F3 		mul	r3, r0, r3
 765              	.LVL108:
 312:lvgl\src\lv_draw/lv_img_buf.h ****         yt = (int32_t)((int32_t)yt * dsc->tmp.zoom_inv) >> _LV_ZOOM_INV_UPSCALE;
 766              		.loc 5 312 0
 767 0432 00FB02F2 		mul	r2, r0, r2
 768              	.LVL109:
 313:lvgl\src\lv_draw/lv_img_buf.h ****         xs = xt + dsc->tmp.pivot_x_256;
 769              		.loc 5 313 0
 770 0436 2E98     		ldr	r0, [sp, #184]
 771 0438 00EB6313 		add	r3, r0, r3, asr #5
 772              	.LVL110:
 773 043c 0C93     		str	r3, [sp, #48]
 774              	.LVL111:
 314:lvgl\src\lv_draw/lv_img_buf.h ****         ys = yt + dsc->tmp.pivot_y_256;
 775              		.loc 5 314 0
 776 043e 2F9C     		ldr	r4, [sp, #188]
 777 0440 04EB6214 		add	r4, r4, r2, asr #5
 778              	.LVL112:
 779 0444 17E0     		b	.L28
 780              	.LVL113:
 781              	.L29:
 315:lvgl\src\lv_draw/lv_img_buf.h ****     }
 316:lvgl\src\lv_draw/lv_img_buf.h ****     else {
 317:lvgl\src\lv_draw/lv_img_buf.h ****         xt = (int32_t)((int32_t)xt * dsc->tmp.zoom_inv) >> _LV_ZOOM_INV_UPSCALE;
 782              		.loc 5 317 0
 783 0446 3398     		ldr	r0, [sp, #204]
 784 0448 00FB03F3 		mul	r3, r0, r3
 785              	.LVL114:
 786 044c 5B11     		asrs	r3, r3, #5
 787              	.LVL115:
 318:lvgl\src\lv_draw/lv_img_buf.h ****         yt = (int32_t)((int32_t)yt * dsc->tmp.zoom_inv) >> _LV_ZOOM_INV_UPSCALE;
 788              		.loc 5 318 0
 789 044e 00FB02F2 		mul	r2, r0, r2
 790              	.LVL116:
 791 0452 5211     		asrs	r2, r2, #5
 792              	.LVL117:
 319:lvgl\src\lv_draw/lv_img_buf.h ****         xs = ((dsc->tmp.cosma * xt - dsc->tmp.sinma * yt) >> (_LV_TRANSFORM_TRIGO_SHIFT)) + dsc->tm
 793              		.loc 5 319 0
 794 0454 319D     		ldr	r5, [sp, #196]
 795 0456 05FB03F4 		mul	r4, r5, r3
 796 045a 309F     		ldr	r7, [sp, #192]
 797 045c 07FB1244 		mls	r4, r7, r2, r4
 798 0460 2E98     		ldr	r0, [sp, #184]
 799 0462 00EBA420 		add	r0, r0, r4, asr #10
 800 0466 0C90     		str	r0, [sp, #48]
 801              	.LVL118:
 320:lvgl\src\lv_draw/lv_img_buf.h ****         ys = ((dsc->tmp.sinma * xt + dsc->tmp.cosma * yt) >> (_LV_TRANSFORM_TRIGO_SHIFT)) + dsc->tm
 802              		.loc 5 320 0
 803 0468 05FB02F2 		mul	r2, r5, r2
 804              	.LVL119:
 805 046c 07FB0323 		mla	r3, r7, r3, r2
 806              	.LVL120:
 807 0470 2F9C     		ldr	r4, [sp, #188]
 808 0472 04EBA324 		add	r4, r4, r3, asr #10
 809              	.LVL121:
 810              	.L28:
ARM GAS  C:\Users\strap\AppData\Local\Temp\ccUgAYbc.s 			page 45


 321:lvgl\src\lv_draw/lv_img_buf.h ****     }
 322:lvgl\src\lv_draw/lv_img_buf.h **** 
 323:lvgl\src\lv_draw/lv_img_buf.h ****     /*Get the integer part of the source pixel*/
 324:lvgl\src\lv_draw/lv_img_buf.h ****     int32_t xs_int = xs >> 8;
 811              		.loc 5 324 0
 812 0476 0C9B     		ldr	r3, [sp, #48]
 813 0478 1D12     		asrs	r5, r3, #8
 814              	.LVL122:
 325:lvgl\src\lv_draw/lv_img_buf.h ****     int32_t ys_int = ys >> 8;
 815              		.loc 5 325 0
 816 047a 2712     		asrs	r7, r4, #8
 817              	.LVL123:
 326:lvgl\src\lv_draw/lv_img_buf.h **** 
 327:lvgl\src\lv_draw/lv_img_buf.h ****     if(xs_int >= dsc->cfg.src_w) return false;
 818              		.loc 5 327 0
 819 047c BDF99830 		ldrsh	r3, [sp, #152]
 820 0480 9D42     		cmp	r5, r3
 821 0482 78DA     		bge	.L64
 328:lvgl\src\lv_draw/lv_img_buf.h ****     else if(xs_int < 0) return false;
 822              		.loc 5 328 0
 823 0484 002D     		cmp	r5, #0
 824 0486 78DB     		blt	.L65
 329:lvgl\src\lv_draw/lv_img_buf.h **** 
 330:lvgl\src\lv_draw/lv_img_buf.h ****     if(ys_int >= dsc->cfg.src_h) return false;
 825              		.loc 5 330 0
 826 0488 BDF99A20 		ldrsh	r2, [sp, #154]
 827 048c 9742     		cmp	r7, r2
 828 048e 76DA     		bge	.L66
 331:lvgl\src\lv_draw/lv_img_buf.h ****     else if(ys_int < 0) return false;
 829              		.loc 5 331 0
 830 0490 002F     		cmp	r7, #0
 831 0492 76DB     		blt	.L67
 332:lvgl\src\lv_draw/lv_img_buf.h **** 
 333:lvgl\src\lv_draw/lv_img_buf.h ****     uint8_t px_size;
 334:lvgl\src\lv_draw/lv_img_buf.h ****     uint32_t pxi;
 335:lvgl\src\lv_draw/lv_img_buf.h ****     if(dsc->tmp.native_color) {
 832              		.loc 5 335 0
 833 0494 9DF8C820 		ldrb	r2, [sp, #200]	@ zero_extendqisi2
 834 0498 12F0040F 		tst	r2, #4
 835 049c 2AD0     		beq	.L31
 336:lvgl\src\lv_draw/lv_img_buf.h ****         if(dsc->tmp.has_alpha == 0) {
 836              		.loc 5 336 0
 837 049e 12F0020F 		tst	r2, #2
 838 04a2 10D1     		bne	.L32
 839              	.LVL124:
 337:lvgl\src\lv_draw/lv_img_buf.h ****             px_size = LV_COLOR_SIZE >> 3;
 338:lvgl\src\lv_draw/lv_img_buf.h **** 
 339:lvgl\src\lv_draw/lv_img_buf.h ****             pxi     = dsc->cfg.src_w * ys_int * px_size + xs_int * px_size;
 840              		.loc 5 339 0
 841 04a4 03FB0753 		mla	r3, r3, r7, r5
 842 04a8 5B00     		lsls	r3, r3, #1
 843 04aa 1A93     		str	r3, [sp, #104]
 844              	.LVL125:
 340:lvgl\src\lv_draw/lv_img_buf.h ****             _lv_memcpy_small(&dsc->res.color, &src_u8[pxi], px_size);
 845              		.loc 5 340 0
 846 04ac 1944     		add	r1, r1, r3
 847              	.LVL126:
ARM GAS  C:\Users\strap\AppData\Local\Temp\ccUgAYbc.s 			page 46


 848              	.LBB126:
 849              	.LBB127:
 216:lvgl\src\lv_draw\../lv_misc/lv_mem.h ****     const uint8_t * s8 = (const uint8_t *)src;
 850              		.loc 2 216 0
 851 04ae 2AAA     		add	r2, sp, #168
 852              	.LVL127:
 853              	.LBE127:
 854              	.LBE126:
 855              		.loc 5 340 0
 856 04b0 0223     		movs	r3, #2
 857              	.LVL128:
 858 04b2 04E0     		b	.L33
 859              	.LVL129:
 860              	.L34:
 861              	.LBB129:
 862              	.LBB128:
 220:lvgl\src\lv_draw\../lv_misc/lv_mem.h ****         d8++;
 863              		.loc 2 220 0
 864 04b4 11F8010B 		ldrb	r0, [r1], #1	@ zero_extendqisi2
 865              	.LVL130:
 866 04b8 02F8010B 		strb	r0, [r2], #1
 867              	.LVL131:
 868              		.loc 2 223 0
 869 04bc 013B     		subs	r3, r3, #1
 870              	.LVL132:
 871              	.L33:
 219:lvgl\src\lv_draw\../lv_misc/lv_mem.h ****         *d8 = *s8;
 872              		.loc 2 219 0
 873 04be 002B     		cmp	r3, #0
 874 04c0 F8D1     		bne	.L34
 875              	.LBE128:
 876              	.LBE129:
 337:lvgl\src\lv_draw/lv_img_buf.h **** 
 877              		.loc 5 337 0
 878 04c2 0222     		movs	r2, #2
 879              	.LVL133:
 880 04c4 2BE0     		b	.L35
 881              	.LVL134:
 882              	.L32:
 341:lvgl\src\lv_draw/lv_img_buf.h ****         }
 342:lvgl\src\lv_draw/lv_img_buf.h ****         else {
 343:lvgl\src\lv_draw/lv_img_buf.h ****             px_size = LV_IMG_PX_SIZE_ALPHA_BYTE;
 344:lvgl\src\lv_draw/lv_img_buf.h ****             pxi     = dsc->cfg.src_w * ys_int * px_size + xs_int * px_size;
 883              		.loc 5 344 0
 884 04c6 03FB0753 		mla	r3, r3, r7, r5
 885 04ca 03EB4303 		add	r3, r3, r3, lsl #1
 886 04ce 1A93     		str	r3, [sp, #104]
 887              	.LVL135:
 345:lvgl\src\lv_draw/lv_img_buf.h ****             _lv_memcpy_small(&dsc->res.color, &src_u8[pxi], px_size - 1);
 888              		.loc 5 345 0
 889 04d0 01EB030E 		add	lr, r1, r3
 890              	.LVL136:
 891              	.LBB130:
 892              	.LBB131:
 216:lvgl\src\lv_draw\../lv_misc/lv_mem.h ****     const uint8_t * s8 = (const uint8_t *)src;
 893              		.loc 2 216 0
 894 04d4 2AA8     		add	r0, sp, #168
ARM GAS  C:\Users\strap\AppData\Local\Temp\ccUgAYbc.s 			page 47


 895              	.LVL137:
 896              	.LBE131:
 897              	.LBE130:
 898              		.loc 5 345 0
 899 04d6 0222     		movs	r2, #2
 900 04d8 04E0     		b	.L36
 901              	.LVL138:
 902              	.L37:
 903              	.LBB133:
 904              	.LBB132:
 220:lvgl\src\lv_draw\../lv_misc/lv_mem.h ****         d8++;
 905              		.loc 2 220 0
 906 04da 1EF801CB 		ldrb	ip, [lr], #1	@ zero_extendqisi2
 907              	.LVL139:
 908 04de 00F801CB 		strb	ip, [r0], #1
 909              	.LVL140:
 910              		.loc 2 223 0
 911 04e2 013A     		subs	r2, r2, #1
 912              	.LVL141:
 913              	.L36:
 219:lvgl\src\lv_draw\../lv_misc/lv_mem.h ****         *d8 = *s8;
 914              		.loc 2 219 0
 915 04e4 002A     		cmp	r2, #0
 916 04e6 F8D1     		bne	.L37
 917              	.LVL142:
 918              	.LBE132:
 919              	.LBE133:
 346:lvgl\src\lv_draw/lv_img_buf.h ****             dsc->res.opa = src_u8[pxi + px_size - 1];
 920              		.loc 5 346 0
 921 04e8 1944     		add	r1, r1, r3
 922              	.LVL143:
 923 04ea 8B78     		ldrb	r3, [r1, #2]	@ zero_extendqisi2
 924              	.LVL144:
 925 04ec 8DF8AA30 		strb	r3, [sp, #170]
 343:lvgl\src\lv_draw/lv_img_buf.h ****             pxi     = dsc->cfg.src_w * ys_int * px_size + xs_int * px_size;
 926              		.loc 5 343 0
 927 04f0 0322     		movs	r2, #3
 928 04f2 14E0     		b	.L35
 929              	.LVL145:
 930              	.L31:
 347:lvgl\src\lv_draw/lv_img_buf.h ****         }
 348:lvgl\src\lv_draw/lv_img_buf.h ****     }
 349:lvgl\src\lv_draw/lv_img_buf.h ****     else {
 350:lvgl\src\lv_draw/lv_img_buf.h ****         pxi = 0; /*unused*/
 351:lvgl\src\lv_draw/lv_img_buf.h ****         px_size = 0;    /*unused*/
 352:lvgl\src\lv_draw/lv_img_buf.h ****         dsc->res.color = lv_img_buf_get_px_color(&dsc->tmp.img_dsc, xs_int, ys_int, dsc->cfg.color)
 931              		.loc 5 352 0
 932 04f4 29B2     		sxth	r1, r5
 933              	.LVL146:
 934 04f6 3AB2     		sxth	r2, r7
 935 04f8 BDF8A430 		ldrh	r3, [sp, #164]
 936 04fc 1F92     		str	r2, [sp, #124]
 937 04fe 1A91     		str	r1, [sp, #104]
 938 0500 2BA8     		add	r0, sp, #172
 939 0502 FFF7FEFF 		bl	lv_img_buf_get_px_color
 940              	.LVL147:
 941 0506 ADF8A800 		strh	r0, [sp, #168]	@ movhi
ARM GAS  C:\Users\strap\AppData\Local\Temp\ccUgAYbc.s 			page 48


 353:lvgl\src\lv_draw/lv_img_buf.h ****         dsc->res.opa = lv_img_buf_get_px_alpha(&dsc->tmp.img_dsc, xs_int, ys_int);
 942              		.loc 5 353 0
 943 050a 1F9A     		ldr	r2, [sp, #124]
 944 050c 1A99     		ldr	r1, [sp, #104]
 945 050e 2BA8     		add	r0, sp, #172
 946 0510 FFF7FEFF 		bl	lv_img_buf_get_px_alpha
 947              	.LVL148:
 948 0514 8DF8AA00 		strb	r0, [sp, #170]
 350:lvgl\src\lv_draw/lv_img_buf.h ****         px_size = 0;    /*unused*/
 949              		.loc 5 350 0
 950 0518 0023     		movs	r3, #0
 951 051a 1A93     		str	r3, [sp, #104]
 351:lvgl\src\lv_draw/lv_img_buf.h ****         dsc->res.color = lv_img_buf_get_px_color(&dsc->tmp.img_dsc, xs_int, ys_int, dsc->cfg.color)
 952              		.loc 5 351 0
 953 051c 1A46     		mov	r2, r3
 954              	.LVL149:
 955              	.L35:
 354:lvgl\src\lv_draw/lv_img_buf.h ****     }
 355:lvgl\src\lv_draw/lv_img_buf.h **** 
 356:lvgl\src\lv_draw/lv_img_buf.h ****     if(dsc->tmp.chroma_keyed) {
 956              		.loc 5 356 0
 957 051e 9DF8C830 		ldrb	r3, [sp, #200]	@ zero_extendqisi2
 958 0522 13F0010F 		tst	r3, #1
 959 0526 11D0     		beq	.L38
 960              	.LBB134:
 357:lvgl\src\lv_draw/lv_img_buf.h ****         lv_color_t ct = LV_COLOR_TRANSP;
 961              		.loc 5 357 0
 962 0528 1C9B     		ldr	r3, [sp, #112]
 963 052a 43F00703 		orr	r3, r3, #7
 964 052e 6FF3C703 		bfc	r3, #3, #5
 965 0532 6FF30C23 		bfc	r3, #8, #5
 966 0536 43F46043 		orr	r3, r3, #57344
 967 053a ADF87030 		strh	r3, [sp, #112]	@ movhi
 358:lvgl\src\lv_draw/lv_img_buf.h ****         if(dsc->res.color.full == ct.full) return false;
 968              		.loc 5 358 0
 969 053e BDF8A810 		ldrh	r1, [sp, #168]
 970 0542 9BB2     		uxth	r3, r3
 971 0544 9942     		cmp	r1, r3
 972 0546 01D1     		bne	.L38
 973 0548 0020     		movs	r0, #0
 974 054a 1DE0     		b	.L30
 975              	.L38:
 976              	.LBE134:
 359:lvgl\src\lv_draw/lv_img_buf.h ****     }
 360:lvgl\src\lv_draw/lv_img_buf.h **** 
 361:lvgl\src\lv_draw/lv_img_buf.h ****     if(dsc->cfg.antialias == false) return true;
 977              		.loc 5 361 0
 978 054c 9DF8A730 		ldrb	r3, [sp, #167]	@ zero_extendqisi2
 979 0550 CBB1     		cbz	r3, .L68
 362:lvgl\src\lv_draw/lv_img_buf.h **** 
 363:lvgl\src\lv_draw/lv_img_buf.h ****     dsc->tmp.xs = xs;
 980              		.loc 5 363 0
 981 0552 BDF83030 		ldrh	r3, [sp, #48]
 982 0556 ADF8D030 		strh	r3, [sp, #208]	@ movhi
 364:lvgl\src\lv_draw/lv_img_buf.h ****     dsc->tmp.ys = ys;
 983              		.loc 5 364 0
 984 055a ADF8D240 		strh	r4, [sp, #210]	@ movhi
ARM GAS  C:\Users\strap\AppData\Local\Temp\ccUgAYbc.s 			page 49


 365:lvgl\src\lv_draw/lv_img_buf.h ****     dsc->tmp.xs_int = xs_int;
 985              		.loc 5 365 0
 986 055e ADF8D450 		strh	r5, [sp, #212]	@ movhi
 366:lvgl\src\lv_draw/lv_img_buf.h ****     dsc->tmp.ys_int = ys_int;
 987              		.loc 5 366 0
 988 0562 ADF8D670 		strh	r7, [sp, #214]	@ movhi
 367:lvgl\src\lv_draw/lv_img_buf.h ****     dsc->tmp.pxi = pxi;
 989              		.loc 5 367 0
 990 0566 1A9B     		ldr	r3, [sp, #104]
 991 0568 3693     		str	r3, [sp, #216]
 368:lvgl\src\lv_draw/lv_img_buf.h ****     dsc->tmp.px_size = px_size;
 992              		.loc 5 368 0
 993 056a 8DF8DC20 		strb	r2, [sp, #220]
 369:lvgl\src\lv_draw/lv_img_buf.h **** 
 370:lvgl\src\lv_draw/lv_img_buf.h ****     bool ret;
 371:lvgl\src\lv_draw/lv_img_buf.h ****     ret = _lv_img_buf_transform_anti_alias(dsc);
 994              		.loc 5 371 0
 995 056e 25A8     		add	r0, sp, #148
 996              	.LVL150:
 997 0570 FFF7FEFF 		bl	_lv_img_buf_transform_anti_alias
 998              	.LVL151:
 999 0574 08E0     		b	.L30
 1000              	.LVL152:
 1001              	.L64:
 327:lvgl\src\lv_draw/lv_img_buf.h ****     else if(xs_int < 0) return false;
 1002              		.loc 5 327 0
 1003 0576 0020     		movs	r0, #0
 1004 0578 06E0     		b	.L30
 1005              	.L65:
 328:lvgl\src\lv_draw/lv_img_buf.h **** 
 1006              		.loc 5 328 0
 1007 057a 0020     		movs	r0, #0
 1008 057c 04E0     		b	.L30
 1009              	.L66:
 330:lvgl\src\lv_draw/lv_img_buf.h ****     else if(ys_int < 0) return false;
 1010              		.loc 5 330 0
 1011 057e 0020     		movs	r0, #0
 1012 0580 02E0     		b	.L30
 1013              	.L67:
 331:lvgl\src\lv_draw/lv_img_buf.h **** 
 1014              		.loc 5 331 0
 1015 0582 0020     		movs	r0, #0
 1016 0584 00E0     		b	.L30
 1017              	.LVL153:
 1018              	.L68:
 361:lvgl\src\lv_draw/lv_img_buf.h **** 
 1019              		.loc 5 361 0
 1020 0586 0120     		movs	r0, #1
 1021              	.LVL154:
 1022              	.L30:
 1023              	.LBE125:
 1024              	.LBE124:
 537:lvgl\src\lv_draw/lv_draw_img.c ****                         if(ret == false) {
 1025              		.loc 1 537 0
 1026 0588 18B9     		cbnz	r0, .L40
 538:lvgl\src\lv_draw/lv_draw_img.c ****                             mask_buf[px_i] = LV_OPA_TRANSP;
 1027              		.loc 1 538 0
ARM GAS  C:\Users\strap\AppData\Local\Temp\ccUgAYbc.s 			page 50


 1028 058a 0023     		movs	r3, #0
 1029 058c 0AF80B30 		strb	r3, [r10, fp]
 539:lvgl\src\lv_draw/lv_draw_img.c ****                             continue;
 1030              		.loc 1 539 0
 1031 0590 5DE0     		b	.L41
 1032              	.L40:
 540:lvgl\src\lv_draw/lv_draw_img.c ****                         }
 541:lvgl\src\lv_draw/lv_draw_img.c ****                         else {
 542:lvgl\src\lv_draw/lv_draw_img.c ****                             mask_buf[px_i] = trans_dsc.res.opa;
 1033              		.loc 1 542 0
 1034 0592 9DF8AA30 		ldrb	r3, [sp, #170]	@ zero_extendqisi2
 1035 0596 0AF80B30 		strb	r3, [r10, fp]
 543:lvgl\src\lv_draw/lv_draw_img.c ****                             c.full = trans_dsc.res.color.full;
 1036              		.loc 1 543 0
 1037 059a BDF8A830 		ldrh	r3, [sp, #168]
 1038              	.LBE123:
 1039 059e 1DE0     		b	.L42
 1040              	.L26:
 544:lvgl\src\lv_draw/lv_draw_img.c ****                         }
 545:lvgl\src\lv_draw/lv_draw_img.c ****                     }
 546:lvgl\src\lv_draw/lv_draw_img.c ****                     /*No transform*/
 547:lvgl\src\lv_draw/lv_draw_img.c ****                     else
 548:lvgl\src\lv_draw/lv_draw_img.c **** #endif
 549:lvgl\src\lv_draw/lv_draw_img.c ****                     {
 550:lvgl\src\lv_draw/lv_draw_img.c ****                         if(alpha_byte) {
 1041              		.loc 1 550 0
 1042 05a0 089B     		ldr	r3, [sp, #32]
 1043 05a2 33B1     		cbz	r3, .L43
 1044              	.LBB135:
 551:lvgl\src\lv_draw/lv_draw_img.c ****                             lv_opa_t px_opa = map_px[LV_IMG_PX_SIZE_ALPHA_BYTE - 1];
 1045              		.loc 1 551 0
 1046 05a4 98F80230 		ldrb	r3, [r8, #2]	@ zero_extendqisi2
 1047              	.LVL155:
 552:lvgl\src\lv_draw/lv_draw_img.c ****                             mask_buf[px_i] = px_opa;
 1048              		.loc 1 552 0
 1049 05a8 0AF80B30 		strb	r3, [r10, fp]
 553:lvgl\src\lv_draw/lv_draw_img.c ****                             if(px_opa == 0) {
 1050              		.loc 1 553 0
 1051 05ac 002B     		cmp	r3, #0
 1052 05ae 4ED0     		beq	.L41
 1053 05b0 02E0     		b	.L44
 1054              	.LVL156:
 1055              	.L43:
 1056              	.LBE135:
 554:lvgl\src\lv_draw/lv_draw_img.c **** #if  LV_COLOR_DEPTH == 32
 555:lvgl\src\lv_draw/lv_draw_img.c ****                                 map2[px_i].full = 0;
 556:lvgl\src\lv_draw/lv_draw_img.c **** #endif
 557:lvgl\src\lv_draw/lv_draw_img.c ****                                 continue;
 558:lvgl\src\lv_draw/lv_draw_img.c ****                             }
 559:lvgl\src\lv_draw/lv_draw_img.c ****                         }
 560:lvgl\src\lv_draw/lv_draw_img.c ****                         else {
 561:lvgl\src\lv_draw/lv_draw_img.c ****                             mask_buf[px_i] = 0xFF;
 1057              		.loc 1 561 0
 1058 05b2 FF23     		movs	r3, #255
 1059 05b4 0AF80B30 		strb	r3, [r10, fp]
 1060              	.L44:
 562:lvgl\src\lv_draw/lv_draw_img.c ****                         }
ARM GAS  C:\Users\strap\AppData\Local\Temp\ccUgAYbc.s 			page 51


 563:lvgl\src\lv_draw/lv_draw_img.c **** 
 564:lvgl\src\lv_draw/lv_draw_img.c **** #if LV_COLOR_DEPTH == 1
 565:lvgl\src\lv_draw/lv_draw_img.c ****                         c.full = map_px[0];
 566:lvgl\src\lv_draw/lv_draw_img.c **** #elif LV_COLOR_DEPTH == 8
 567:lvgl\src\lv_draw/lv_draw_img.c ****                         c.full =  map_px[0];
 568:lvgl\src\lv_draw/lv_draw_img.c **** #elif LV_COLOR_DEPTH == 16
 569:lvgl\src\lv_draw/lv_draw_img.c ****                         c.full =  map_px[0] + (map_px[1] << 8);
 1061              		.loc 1 569 0
 1062 05b8 98F80030 		ldrb	r3, [r8]	@ zero_extendqisi2
 1063 05bc 98F80120 		ldrb	r2, [r8, #1]	@ zero_extendqisi2
 1064 05c0 03EB0222 		add	r2, r3, r2, lsl #8
 1065 05c4 92B2     		uxth	r2, r2
 1066 05c6 1346     		mov	r3, r2	@ movhi
 1067              	.LVL157:
 570:lvgl\src\lv_draw/lv_draw_img.c **** #elif LV_COLOR_DEPTH == 32
 571:lvgl\src\lv_draw/lv_draw_img.c ****                         c.full =  *((uint32_t *)map_px);
 572:lvgl\src\lv_draw/lv_draw_img.c ****                         c.ch.alpha = 0xFF;
 573:lvgl\src\lv_draw/lv_draw_img.c **** #endif
 574:lvgl\src\lv_draw/lv_draw_img.c ****                         if(chroma_key) {
 1068              		.loc 1 574 0
 1069 05c8 0D99     		ldr	r1, [sp, #52]
 1070 05ca 39B1     		cbz	r1, .L42
 575:lvgl\src\lv_draw/lv_draw_img.c ****                             if(c.full == chroma_keyed_color.full) {
 1071              		.loc 1 575 0
 1072 05cc BFF8DC11 		ldrh	r1, .L76
 1073 05d0 8A42     		cmp	r2, r1
 1074 05d2 03D1     		bne	.L42
 576:lvgl\src\lv_draw/lv_draw_img.c ****                                 mask_buf[px_i] = LV_OPA_TRANSP;
 1075              		.loc 1 576 0
 1076 05d4 0023     		movs	r3, #0
 1077 05d6 0AF80B30 		strb	r3, [r10, fp]
 577:lvgl\src\lv_draw/lv_draw_img.c **** #if  LV_COLOR_DEPTH == 32
 578:lvgl\src\lv_draw/lv_draw_img.c ****                                 map2[px_i].full = 0;
 579:lvgl\src\lv_draw/lv_draw_img.c **** #endif
 580:lvgl\src\lv_draw/lv_draw_img.c ****                                 continue;
 1078              		.loc 1 580 0
 1079 05da 38E0     		b	.L41
 1080              	.L42:
 581:lvgl\src\lv_draw/lv_draw_img.c ****                             }
 582:lvgl\src\lv_draw/lv_draw_img.c ****                         }
 583:lvgl\src\lv_draw/lv_draw_img.c ****                     }
 584:lvgl\src\lv_draw/lv_draw_img.c **** 
 585:lvgl\src\lv_draw/lv_draw_img.c ****                     if(draw_dsc->recolor_opa != 0) {
 1081              		.loc 1 585 0
 1082 05dc 099A     		ldr	r2, [sp, #36]
 1083 05de 927A     		ldrb	r2, [r2, #10]	@ zero_extendqisi2
 1084 05e0 92B3     		cbz	r2, .L45
 1085              	.LVL158:
 1086              	.LBB136:
 1087              	.LBB137:
 484:lvgl\src\lv_draw\../lv_misc/lv_color.h **** #else
 485:lvgl\src\lv_draw\../lv_misc/lv_color.h ****     (void) mix;
 486:lvgl\src\lv_draw\../lv_misc/lv_color.h ****     /*Pre-multiplication can't be used with 1 bpp*/
 487:lvgl\src\lv_draw\../lv_misc/lv_color.h ****     out[0] = LV_COLOR_GET_R(c);
 488:lvgl\src\lv_draw\../lv_misc/lv_color.h ****     out[1] = LV_COLOR_GET_G(c);
 489:lvgl\src\lv_draw\../lv_misc/lv_color.h ****     out[2] = LV_COLOR_GET_B(c);
 490:lvgl\src\lv_draw\../lv_misc/lv_color.h **** #endif
ARM GAS  C:\Users\strap\AppData\Local\Temp\ccUgAYbc.s 			page 52


 491:lvgl\src\lv_draw\../lv_misc/lv_color.h **** 
 492:lvgl\src\lv_draw\../lv_misc/lv_color.h **** }
 493:lvgl\src\lv_draw\../lv_misc/lv_color.h **** 
 494:lvgl\src\lv_draw\../lv_misc/lv_color.h **** 
 495:lvgl\src\lv_draw\../lv_misc/lv_color.h **** /**
 496:lvgl\src\lv_draw\../lv_misc/lv_color.h ****  * Mix two colors with a given ratio. It runs faster then `lv_color_mix` but requires some pre comp
 497:lvgl\src\lv_draw\../lv_misc/lv_color.h ****  * @param c1 The first color. Should be preprocessed with `lv_color_premult(c1)`
 498:lvgl\src\lv_draw\../lv_misc/lv_color.h ****  * @param c2 The second color. As it is no pre computation required on it
 499:lvgl\src\lv_draw\../lv_misc/lv_color.h ****  * @param mix The ratio of the colors. 0: full `c2`, 255: full `c1`, 127: half `c1` and half `c2`.
 500:lvgl\src\lv_draw\../lv_misc/lv_color.h ****  *            Should be modified like mix = `255 - mix`
 501:lvgl\src\lv_draw\../lv_misc/lv_color.h ****  * @return the mixed color
 502:lvgl\src\lv_draw\../lv_misc/lv_color.h ****  * @note 255 won't give clearly `c1`.
 503:lvgl\src\lv_draw\../lv_misc/lv_color.h ****  */
 504:lvgl\src\lv_draw\../lv_misc/lv_color.h **** LV_ATTRIBUTE_FAST_MEM static inline lv_color_t lv_color_mix_premult(uint16_t * premult_c1, lv_color
 505:lvgl\src\lv_draw\../lv_misc/lv_color.h **** {
 506:lvgl\src\lv_draw\../lv_misc/lv_color.h ****     lv_color_t ret;
 507:lvgl\src\lv_draw\../lv_misc/lv_color.h **** #if LV_COLOR_DEPTH != 1
 508:lvgl\src\lv_draw\../lv_misc/lv_color.h ****     /*LV_COLOR_DEPTH == 8, 16 or 32*/
 509:lvgl\src\lv_draw\../lv_misc/lv_color.h ****     LV_COLOR_SET_R(ret, LV_MATH_UDIV255((uint16_t) premult_c1[0] + LV_COLOR_GET_R(c2) * mix + LV_CO
 1088              		.loc 4 509 0
 1089 05e2 BDF88410 		ldrh	r1, [sp, #132]
 1090              	.LVL159:
 1091 05e6 C3F3C402 		ubfx	r2, r3, #3, #5
 1092 05ea 0F9C     		ldr	r4, [sp, #60]
 1093 05ec 04FB0212 		mla	r2, r4, r2, r1
 1094 05f0 8032     		adds	r2, r2, #128
 1095 05f2 02EB0221 		add	r1, r2, r2, lsl #8
 1096 05f6 02EBC112 		add	r2, r2, r1, lsl #7
 1097 05fa D20D     		lsrs	r2, r2, #23
 1098 05fc 62F3C709 		bfi	r9, r2, #3, #5
 510:lvgl\src\lv_draw\../lv_misc/lv_color.h ****     LV_COLOR_SET_G(ret, LV_MATH_UDIV255((uint16_t) premult_c1[1] + LV_COLOR_GET_G(c2) * mix + LV_CO
 1099              		.loc 4 510 0
 1100 0600 BDF88600 		ldrh	r0, [sp, #134]
 1101 0604 03F00702 		and	r2, r3, #7
 1102 0608 C3F34231 		ubfx	r1, r3, #13, #3
 1103 060c 01EBC202 		add	r2, r1, r2, lsl #3
 1104 0610 02FB0402 		mla	r2, r2, r4, r0
 1105 0614 8032     		adds	r2, r2, #128
 1106 0616 02EB0221 		add	r1, r2, r2, lsl #8
 1107 061a 02EBC112 		add	r2, r2, r1, lsl #7
 1108 061e 910E     		lsrs	r1, r2, #26
 1109 0620 61F30209 		bfi	r9, r1, #0, #3
 1110 0624 D20D     		lsrs	r2, r2, #23
 1111 0626 62F34F39 		bfi	r9, r2, #13, #3
 511:lvgl\src\lv_draw\../lv_misc/lv_color.h ****     LV_COLOR_SET_B(ret, LV_MATH_UDIV255((uint16_t) premult_c1[2] + LV_COLOR_GET_B(c2) * mix + LV_CO
 1112              		.loc 4 511 0
 1113 062a BDF88820 		ldrh	r2, [sp, #136]
 1114 062e C3F30423 		ubfx	r3, r3, #8, #5
 1115              	.LVL160:
 1116 0632 04FB0323 		mla	r3, r4, r3, r2
 1117 0636 8033     		adds	r3, r3, #128
 1118 0638 03EB0322 		add	r2, r3, r3, lsl #8
 1119 063c 03EBC213 		add	r3, r3, r2, lsl #7
 1120 0640 DB0D     		lsrs	r3, r3, #23
 1121 0642 63F30C29 		bfi	r9, r3, #8, #5
 1122 0646 4B46     		mov	r3, r9	@ movhi
 1123              	.LVL161:
ARM GAS  C:\Users\strap\AppData\Local\Temp\ccUgAYbc.s 			page 53


 1124              	.L45:
 1125              	.LBE137:
 1126              	.LBE136:
 586:lvgl\src\lv_draw/lv_draw_img.c ****                         c = lv_color_mix_premult(recolor_premult, c, recolor_opa_inv);
 587:lvgl\src\lv_draw/lv_draw_img.c ****                     }
 588:lvgl\src\lv_draw/lv_draw_img.c **** 
 589:lvgl\src\lv_draw/lv_draw_img.c ****                     map2[px_i].full = c.full;
 1127              		.loc 1 589 0
 1128 0648 0A9A     		ldr	r2, [sp, #40]
 1129              	.LVL162:
 1130 064a 22F81B30 		strh	r3, [r2, fp, lsl #1]	@ movhi
 1131              	.L41:
 528:lvgl\src\lv_draw/lv_draw_img.c **** 
 1132              		.loc 1 528 0 discriminator 2
 1133 064e 0136     		adds	r6, r6, #1
 1134              	.LVL163:
 1135 0650 069B     		ldr	r3, [sp, #24]
 1136              	.LVL164:
 1137 0652 9844     		add	r8, r8, r3
 1138              	.LVL165:
 1139 0654 0BF1010B 		add	fp, fp, #1
 1140              	.LVL166:
 1141              	.L25:
 528:lvgl\src\lv_draw/lv_draw_img.c **** 
 1142              		.loc 1 528 0 is_stmt 0 discriminator 1
 1143 0658 059B     		ldr	r3, [sp, #20]
 1144 065a 9E42     		cmp	r6, r3
 1145 065c FFF6BAAE 		blt	.L46
 590:lvgl\src\lv_draw/lv_draw_img.c ****                 }
 591:lvgl\src\lv_draw/lv_draw_img.c **** 
 592:lvgl\src\lv_draw/lv_draw_img.c ****                 /*Apply the masks if any*/
 593:lvgl\src\lv_draw/lv_draw_img.c ****                 if(other_mask_cnt) {
 1146              		.loc 1 593 0 is_stmt 1
 1147 0660 149B     		ldr	r3, [sp, #80]
 1148 0662 53B3     		cbz	r3, .L47
 1149              	.LBB138:
 594:lvgl\src\lv_draw/lv_draw_img.c ****                     lv_draw_mask_res_t mask_res_sub;
 595:lvgl\src\lv_draw/lv_draw_img.c ****                     mask_res_sub = lv_draw_mask_apply(mask_buf + px_i_start, draw_area.x1 + vdb->ar
 1150              		.loc 1 595 0
 1151 0664 129B     		ldr	r3, [sp, #72]
 1152 0666 5344     		add	r3, r3, r10
 1153 0668 1C46     		mov	r4, r3
 1154 066a BDF8E000 		ldrh	r0, [sp, #224]
 1155 066e 139D     		ldr	r5, [sp, #76]
 1156 0670 B5F91010 		ldrsh	r1, [r5, #16]
 1157 0674 0144     		add	r1, r1, r0
 1158 0676 BDF9E220 		ldrsh	r2, [sp, #226]
 1159 067a B5F91230 		ldrsh	r3, [r5, #18]
 1160 067e 0B9D     		ldr	r5, [sp, #44]
 1161 0680 2A44     		add	r2, r2, r5
 1162 0682 1A44     		add	r2, r2, r3
 1163              	.LVL167:
 1164              	.LBB139:
 1165              	.LBB140:
 112:lvgl\src\lv_draw\../lv_misc/lv_area.h **** }
 1166              		.loc 3 112 0
 1167 0684 BDF9E430 		ldrsh	r3, [sp, #228]
ARM GAS  C:\Users\strap\AppData\Local\Temp\ccUgAYbc.s 			page 54


 1168 0688 1B1A     		subs	r3, r3, r0
 1169 068a 0133     		adds	r3, r3, #1
 1170              	.LVL168:
 1171              	.LBE140:
 1172              	.LBE139:
 1173              		.loc 1 595 0
 1174 068c 1BB2     		sxth	r3, r3
 1175 068e 12B2     		sxth	r2, r2
 1176 0690 09B2     		sxth	r1, r1
 1177 0692 2046     		mov	r0, r4
 1178 0694 FFF7FEFF 		bl	lv_draw_mask_apply
 1179              	.LVL169:
 596:lvgl\src\lv_draw/lv_draw_img.c ****                                                       lv_area_get_width(&draw_area));
 597:lvgl\src\lv_draw/lv_draw_img.c ****                     if(mask_res_sub == LV_DRAW_MASK_RES_TRANSP) {
 1180              		.loc 1 597 0
 1181 0698 60B9     		cbnz	r0, .L48
 1182              	.LVL170:
 1183              	.LBB141:
 1184              	.LBB142:
 112:lvgl\src\lv_draw\../lv_misc/lv_area.h **** }
 1185              		.loc 3 112 0
 1186 069a BDF9E430 		ldrsh	r3, [sp, #228]
 1187 069e BDF9E010 		ldrsh	r1, [sp, #224]
 1188 06a2 591A     		subs	r1, r3, r1
 1189 06a4 0131     		adds	r1, r1, #1
 1190              	.LVL171:
 1191              	.LBE142:
 1192              	.LBE141:
 598:lvgl\src\lv_draw/lv_draw_img.c ****                         _lv_memset_00(mask_buf + px_i_start, lv_area_get_width(&draw_area));
 1193              		.loc 1 598 0
 1194 06a6 09B2     		sxth	r1, r1
 1195 06a8 2046     		mov	r0, r4
 1196              	.LVL172:
 1197 06aa FFF7FEFF 		bl	_lv_memset_00
 1198              	.LVL173:
 599:lvgl\src\lv_draw/lv_draw_img.c ****                         mask_res = LV_DRAW_MASK_RES_CHANGED;
 1199              		.loc 1 599 0
 1200 06ae 0223     		movs	r3, #2
 1201 06b0 1B93     		str	r3, [sp, #108]
 1202 06b2 02E0     		b	.L47
 1203              	.LVL174:
 1204              	.L48:
 600:lvgl\src\lv_draw/lv_draw_img.c ****                     }
 601:lvgl\src\lv_draw/lv_draw_img.c ****                     else if(mask_res_sub == LV_DRAW_MASK_RES_CHANGED) {
 1205              		.loc 1 601 0
 1206 06b4 0228     		cmp	r0, #2
 1207 06b6 00D1     		bne	.L47
 602:lvgl\src\lv_draw/lv_draw_img.c ****                         mask_res = LV_DRAW_MASK_RES_CHANGED;
 1208              		.loc 1 602 0
 1209 06b8 1B90     		str	r0, [sp, #108]
 1210              	.LVL175:
 1211              	.L47:
 1212              	.LBE138:
 603:lvgl\src\lv_draw/lv_draw_img.c ****                     }
 604:lvgl\src\lv_draw/lv_draw_img.c ****                 }
 605:lvgl\src\lv_draw/lv_draw_img.c **** 
 606:lvgl\src\lv_draw/lv_draw_img.c ****                 map_buf_tmp += map_w * px_size_byte;
ARM GAS  C:\Users\strap\AppData\Local\Temp\ccUgAYbc.s 			page 55


 1213              		.loc 1 606 0
 1214 06ba 189B     		ldr	r3, [sp, #96]
 1215 06bc 199A     		ldr	r2, [sp, #100]
 1216 06be 1099     		ldr	r1, [sp, #64]
 1217 06c0 02FB0313 		mla	r3, r2, r3, r1
 1218 06c4 1093     		str	r3, [sp, #64]
 1219              	.LVL176:
 1220              	.LBB143:
 1221              	.LBB144:
 112:lvgl\src\lv_draw\../lv_misc/lv_area.h **** }
 1222              		.loc 3 112 0
 1223 06c6 BDF9E430 		ldrsh	r3, [sp, #228]
 1224              	.LVL177:
 1225 06ca BDF9E020 		ldrsh	r2, [sp, #224]
 1226 06ce 9B1A     		subs	r3, r3, r2
 1227 06d0 0133     		adds	r3, r3, #1
 1228 06d2 1BB2     		sxth	r3, r3
 1229              	.LVL178:
 1230              	.LBE144:
 1231              	.LBE143:
 607:lvgl\src\lv_draw/lv_draw_img.c ****                 if(px_i + lv_area_get_width(&draw_area) < mask_buf_size) {
 1232              		.loc 1 607 0
 1233 06d4 5B44     		add	r3, r3, fp
 1234 06d6 169A     		ldr	r2, [sp, #88]
 1235 06d8 9A42     		cmp	r2, r3
 1236 06da 07D9     		bls	.L49
 608:lvgl\src\lv_draw/lv_draw_img.c ****                     blend_area.y2 ++;
 1237              		.loc 1 608 0
 1238 06dc BDF99230 		ldrsh	r3, [sp, #146]
 1239 06e0 0133     		adds	r3, r3, #1
 1240 06e2 ADF89230 		strh	r3, [sp, #146]	@ movhi
 1241 06e6 CDF848B0 		str	fp, [sp, #72]
 1242              	.LVL179:
 1243 06ea 37E0     		b	.L50
 1244              	.LVL180:
 1245              	.L49:
 609:lvgl\src\lv_draw/lv_draw_img.c ****                 }
 610:lvgl\src\lv_draw/lv_draw_img.c ****                 else {
 611:lvgl\src\lv_draw/lv_draw_img.c **** 
 612:lvgl\src\lv_draw/lv_draw_img.c ****                     _lv_blend_map(clip_area, &blend_area, map2, mask_buf, mask_res, draw_dsc->opa, 
 1246              		.loc 1 612 0
 1247 06ec 099C     		ldr	r4, [sp, #36]
 1248 06ee A37B     		ldrb	r3, [r4, #14]	@ zero_extendqisi2
 1249 06f0 0293     		str	r3, [sp, #8]
 1250 06f2 2378     		ldrb	r3, [r4]	@ zero_extendqisi2
 1251 06f4 0193     		str	r3, [sp, #4]
 1252 06f6 1B9B     		ldr	r3, [sp, #108]
 1253 06f8 0093     		str	r3, [sp]
 1254 06fa 5346     		mov	r3, r10
 1255 06fc 0A9A     		ldr	r2, [sp, #40]
 1256 06fe 23A9     		add	r1, sp, #140
 1257 0700 1E98     		ldr	r0, [sp, #120]
 1258 0702 FFF7FEFF 		bl	_lv_blend_map
 1259              	.LVL181:
 613:lvgl\src\lv_draw/lv_draw_img.c **** 
 614:lvgl\src\lv_draw/lv_draw_img.c ****                     blend_area.y1 = blend_area.y2 + 1;
 1260              		.loc 1 614 0
ARM GAS  C:\Users\strap\AppData\Local\Temp\ccUgAYbc.s 			page 56


 1261 0706 BDF99230 		ldrsh	r3, [sp, #146]
 1262 070a 0133     		adds	r3, r3, #1
 1263 070c 1BB2     		sxth	r3, r3
 1264 070e ADF88E30 		strh	r3, [sp, #142]	@ movhi
 615:lvgl\src\lv_draw/lv_draw_img.c ****                     blend_area.y2 = blend_area.y1;
 1265              		.loc 1 615 0
 1266 0712 ADF89230 		strh	r3, [sp, #146]	@ movhi
 1267              	.LVL182:
 616:lvgl\src\lv_draw/lv_draw_img.c **** 
 617:lvgl\src\lv_draw/lv_draw_img.c ****                     px_i = 0;
 618:lvgl\src\lv_draw/lv_draw_img.c ****                     mask_res = (alpha_byte || chroma_key || draw_dsc->angle ||
 1268              		.loc 1 618 0
 1269 0716 089B     		ldr	r3, [sp, #32]
 1270 0718 53B9     		cbnz	r3, .L70
 1271              		.loc 1 618 0 is_stmt 0 discriminator 2
 1272 071a 0D9B     		ldr	r3, [sp, #52]
 1273 071c 5BB9     		cbnz	r3, .L71
 1274              		.loc 1 618 0 discriminator 4
 1275 071e 6388     		ldrh	r3, [r4, #2]
 1276 0720 63B9     		cbnz	r3, .L72
 619:lvgl\src\lv_draw/lv_draw_img.c ****                                 draw_dsc->zoom != LV_IMG_ZOOM_NONE) ? LV_DRAW_MASK_RES_CHANGED : LV
 1277              		.loc 1 619 0 is_stmt 1 discriminator 6
 1278 0722 2389     		ldrh	r3, [r4, #8]
 618:lvgl\src\lv_draw/lv_draw_img.c ****                                 draw_dsc->zoom != LV_IMG_ZOOM_NONE) ? LV_DRAW_MASK_RES_CHANGED : LV
 1279              		.loc 1 618 0 discriminator 6
 1280 0724 B3F5807F 		cmp	r3, #256
 1281 0728 0BD0     		beq	.L73
 618:lvgl\src\lv_draw/lv_draw_img.c ****                                 draw_dsc->zoom != LV_IMG_ZOOM_NONE) ? LV_DRAW_MASK_RES_CHANGED : LV
 1282              		.loc 1 618 0 is_stmt 0
 1283 072a 0223     		movs	r3, #2
 1284 072c 1B93     		str	r3, [sp, #108]
 1285              	.LVL183:
 1286 072e 0AE0     		b	.L51
 1287              	.LVL184:
 1288              	.L70:
 1289 0730 0223     		movs	r3, #2
 1290 0732 1B93     		str	r3, [sp, #108]
 1291              	.LVL185:
 1292 0734 07E0     		b	.L51
 1293              	.LVL186:
 1294              	.L71:
 1295 0736 0223     		movs	r3, #2
 1296 0738 1B93     		str	r3, [sp, #108]
 1297              	.LVL187:
 1298 073a 04E0     		b	.L51
 1299              	.LVL188:
 1300              	.L72:
 1301 073c 0223     		movs	r3, #2
 1302 073e 1B93     		str	r3, [sp, #108]
 1303              	.LVL189:
 1304 0740 01E0     		b	.L51
 1305              	.LVL190:
 1306              	.L73:
 1307 0742 0123     		movs	r3, #1
 1308 0744 1B93     		str	r3, [sp, #108]
 1309              	.LVL191:
 1310              	.L51:
ARM GAS  C:\Users\strap\AppData\Local\Temp\ccUgAYbc.s 			page 57


 620:lvgl\src\lv_draw/lv_draw_img.c **** 
 621:lvgl\src\lv_draw/lv_draw_img.c ****                     /*Prepare the `mask_buf`if there are other masks*/
 622:lvgl\src\lv_draw/lv_draw_img.c ****                     if(other_mask_cnt) {
 1311              		.loc 1 622 0 is_stmt 1 discriminator 10
 1312 0746 149B     		ldr	r3, [sp, #80]
 1313 0748 33B1     		cbz	r3, .L74
 623:lvgl\src\lv_draw/lv_draw_img.c ****                         _lv_memset_ff(mask_buf, mask_buf_size);
 1314              		.loc 1 623 0
 1315 074a 1699     		ldr	r1, [sp, #88]
 1316 074c 5046     		mov	r0, r10
 1317 074e FFF7FEFF 		bl	_lv_memset_ff
 1318              	.LVL192:
 617:lvgl\src\lv_draw/lv_draw_img.c ****                     mask_res = (alpha_byte || chroma_key || draw_dsc->angle ||
 1319              		.loc 1 617 0
 1320 0752 0023     		movs	r3, #0
 1321 0754 1293     		str	r3, [sp, #72]
 1322              	.LVL193:
 1323 0756 01E0     		b	.L50
 1324              	.LVL194:
 1325              	.L74:
 1326 0758 0023     		movs	r3, #0
 1327 075a 1293     		str	r3, [sp, #72]
 1328              	.LVL195:
 1329              	.L50:
 1330              	.LBE122:
 521:lvgl\src\lv_draw/lv_draw_img.c ****                 map_px = map_buf_tmp;
 1331              		.loc 1 521 0 discriminator 2
 1332 075c 0B9B     		ldr	r3, [sp, #44]
 1333 075e 0133     		adds	r3, r3, #1
 1334 0760 0B93     		str	r3, [sp, #44]
 1335              	.LVL196:
 1336              	.L24:
 521:lvgl\src\lv_draw/lv_draw_img.c ****                 map_px = map_buf_tmp;
 1337              		.loc 1 521 0 is_stmt 0 discriminator 1
 1338 0762 0B9B     		ldr	r3, [sp, #44]
 1339 0764 179A     		ldr	r2, [sp, #92]
 1340 0766 9342     		cmp	r3, r2
 1341 0768 FFF623AE 		blt	.L52
 1342 076c D346     		mov	fp, r10
 624:lvgl\src\lv_draw/lv_draw_img.c ****                     }
 625:lvgl\src\lv_draw/lv_draw_img.c ****                 }
 626:lvgl\src\lv_draw/lv_draw_img.c ****             }
 627:lvgl\src\lv_draw/lv_draw_img.c **** 
 628:lvgl\src\lv_draw/lv_draw_img.c ****             /*Flush the last part*/
 629:lvgl\src\lv_draw/lv_draw_img.c ****             if(blend_area.y1 != blend_area.y2) {
 1343              		.loc 1 629 0 is_stmt 1
 1344 076e BDF98E20 		ldrsh	r2, [sp, #142]
 1345 0772 BDF99230 		ldrsh	r3, [sp, #146]
 1346 0776 9A42     		cmp	r2, r3
 1347 0778 0FD0     		beq	.L53
 630:lvgl\src\lv_draw/lv_draw_img.c ****                 blend_area.y2--;
 1348              		.loc 1 630 0
 1349 077a 013B     		subs	r3, r3, #1
 1350 077c ADF89230 		strh	r3, [sp, #146]	@ movhi
 631:lvgl\src\lv_draw/lv_draw_img.c ****                 _lv_blend_map(clip_area, &blend_area, map2, mask_buf, mask_res, draw_dsc->opa, draw
 1351              		.loc 1 631 0
 1352 0780 099A     		ldr	r2, [sp, #36]
ARM GAS  C:\Users\strap\AppData\Local\Temp\ccUgAYbc.s 			page 58


 1353 0782 937B     		ldrb	r3, [r2, #14]	@ zero_extendqisi2
 1354 0784 0293     		str	r3, [sp, #8]
 1355 0786 1378     		ldrb	r3, [r2]	@ zero_extendqisi2
 1356 0788 0193     		str	r3, [sp, #4]
 1357 078a 1B9B     		ldr	r3, [sp, #108]
 1358 078c 0093     		str	r3, [sp]
 1359 078e 5346     		mov	r3, r10
 1360 0790 0A9A     		ldr	r2, [sp, #40]
 1361 0792 23A9     		add	r1, sp, #140
 1362 0794 1E98     		ldr	r0, [sp, #120]
 1363 0796 FFF7FEFF 		bl	_lv_blend_map
 1364              	.LVL197:
 1365              	.L53:
 632:lvgl\src\lv_draw/lv_draw_img.c ****             }
 633:lvgl\src\lv_draw/lv_draw_img.c **** 
 634:lvgl\src\lv_draw/lv_draw_img.c ****             _lv_mem_buf_release(mask_buf);
 1366              		.loc 1 634 0
 1367 079a 5846     		mov	r0, fp
 1368 079c FFF7FEFF 		bl	_lv_mem_buf_release
 1369              	.LVL198:
 635:lvgl\src\lv_draw/lv_draw_img.c ****             _lv_mem_buf_release(map2);
 1370              		.loc 1 635 0
 1371 07a0 0A98     		ldr	r0, [sp, #40]
 1372 07a2 FFF7FEFF 		bl	_lv_mem_buf_release
 1373              	.LVL199:
 1374              	.L1:
 1375              	.LBE145:
 1376              	.LBE104:
 636:lvgl\src\lv_draw/lv_draw_img.c ****         }
 637:lvgl\src\lv_draw/lv_draw_img.c ****     }
 638:lvgl\src\lv_draw/lv_draw_img.c **** }
 1377              		.loc 1 638 0
 1378 07a6 3BB0     		add	sp, sp, #236
 1379              		.cfi_def_cfa_offset 36
 1380              		@ sp needed
 1381 07a8 BDE8F08F 		pop	{r4, r5, r6, r7, r8, r9, r10, fp, pc}
 1382              	.LVL200:
 1383              	.L77:
 1384              		.align	2
 1385              	.L76:
 1386 07ac 07E0     		.short	-8185
 1387 07ae 0000     		.space	2
 1388              		.cfi_endproc
 1389              	.LFE335:
 1390              		.size	lv_draw_map, .-lv_draw_map
 1391              		.section	.text.show_error,"ax",%progbits
 1392              		.align	2
 1393              		.thumb
 1394              		.thumb_func
 1395              		.type	show_error, %function
 1396              	show_error:
 1397              	.LFB336:
 639:lvgl\src\lv_draw/lv_draw_img.c **** 
 640:lvgl\src\lv_draw/lv_draw_img.c **** static void show_error(const lv_area_t * coords, const lv_area_t * clip_area, const char * msg)
 641:lvgl\src\lv_draw/lv_draw_img.c **** {
 1398              		.loc 1 641 0
 1399              		.cfi_startproc
ARM GAS  C:\Users\strap\AppData\Local\Temp\ccUgAYbc.s 			page 59


 1400              		@ args = 0, pretend = 0, frame = 120
 1401              		@ frame_needed = 0, uses_anonymous_args = 0
 1402              	.LVL201:
 1403 0000 70B5     		push	{r4, r5, r6, lr}
 1404              		.cfi_def_cfa_offset 16
 1405              		.cfi_offset 4, -16
 1406              		.cfi_offset 5, -12
 1407              		.cfi_offset 6, -8
 1408              		.cfi_offset 14, -4
 1409 0002 A0B0     		sub	sp, sp, #128
 1410              		.cfi_def_cfa_offset 144
 1411 0004 0446     		mov	r4, r0
 1412 0006 0D46     		mov	r5, r1
 1413 0008 1646     		mov	r6, r2
 642:lvgl\src\lv_draw/lv_draw_img.c ****     lv_draw_rect_dsc_t rect_dsc;
 643:lvgl\src\lv_draw/lv_draw_img.c ****     lv_draw_rect_dsc_init(&rect_dsc);
 1414              		.loc 1 643 0
 1415 000a 0BA8     		add	r0, sp, #44
 1416              	.LVL202:
 1417 000c FFF7FEFF 		bl	lv_draw_rect_dsc_init
 1418              	.LVL203:
 644:lvgl\src\lv_draw/lv_draw_img.c ****     rect_dsc.bg_color = LV_COLOR_WHITE;
 1419              		.loc 1 644 0
 1420 0010 0A4B     		ldr	r3, .L80
 1421 0012 1B88     		ldrh	r3, [r3]
 1422 0014 ADF82E30 		strh	r3, [sp, #46]	@ movhi
 645:lvgl\src\lv_draw/lv_draw_img.c ****     lv_draw_rect(coords, clip_area, &rect_dsc);
 1423              		.loc 1 645 0
 1424 0018 0BAA     		add	r2, sp, #44
 1425 001a 2946     		mov	r1, r5
 1426 001c 2046     		mov	r0, r4
 1427 001e FFF7FEFF 		bl	lv_draw_rect
 1428              	.LVL204:
 646:lvgl\src\lv_draw/lv_draw_img.c **** 
 647:lvgl\src\lv_draw/lv_draw_img.c ****     lv_draw_label_dsc_t label_dsc;
 648:lvgl\src\lv_draw/lv_draw_img.c ****     lv_draw_label_dsc_init(&label_dsc);
 1429              		.loc 1 648 0
 1430 0022 02A8     		add	r0, sp, #8
 1431 0024 FFF7FEFF 		bl	lv_draw_label_dsc_init
 1432              	.LVL205:
 649:lvgl\src\lv_draw/lv_draw_img.c ****     lv_draw_label(coords, clip_area, &label_dsc, msg, NULL);
 1433              		.loc 1 649 0
 1434 0028 0023     		movs	r3, #0
 1435 002a 0093     		str	r3, [sp]
 1436 002c 3346     		mov	r3, r6
 1437 002e 02AA     		add	r2, sp, #8
 1438 0030 2946     		mov	r1, r5
 1439 0032 2046     		mov	r0, r4
 1440 0034 FFF7FEFF 		bl	lv_draw_label
 1441              	.LVL206:
 650:lvgl\src\lv_draw/lv_draw_img.c **** }
 1442              		.loc 1 650 0
 1443 0038 20B0     		add	sp, sp, #128
 1444              		.cfi_def_cfa_offset 16
 1445              		@ sp needed
 1446 003a 70BD     		pop	{r4, r5, r6, pc}
 1447              	.LVL207:
ARM GAS  C:\Users\strap\AppData\Local\Temp\ccUgAYbc.s 			page 60


 1448              	.L81:
 1449              		.align	2
 1450              	.L80:
 1451 003c 00000000 		.word	.LANCHOR0
 1452              		.cfi_endproc
 1453              	.LFE336:
 1454              		.size	show_error, .-show_error
 1455              		.section	.text.lv_draw_img_dsc_init,"ax",%progbits
 1456              		.align	2
 1457              		.global	lv_draw_img_dsc_init
 1458              		.thumb
 1459              		.thumb_func
 1460              		.type	lv_draw_img_dsc_init, %function
 1461              	lv_draw_img_dsc_init:
 1462              	.LFB328:
  57:lvgl\src\lv_draw/lv_draw_img.c ****     _lv_memset_00(dsc, sizeof(lv_draw_img_dsc_t));
 1463              		.loc 1 57 0
 1464              		.cfi_startproc
 1465              		@ args = 0, pretend = 0, frame = 0
 1466              		@ frame_needed = 0, uses_anonymous_args = 0
 1467              	.LVL208:
 1468 0000 10B5     		push	{r4, lr}
 1469              		.cfi_def_cfa_offset 8
 1470              		.cfi_offset 4, -8
 1471              		.cfi_offset 14, -4
 1472 0002 0446     		mov	r4, r0
  58:lvgl\src\lv_draw/lv_draw_img.c ****     dsc->recolor = LV_COLOR_BLACK;
 1473              		.loc 1 58 0
 1474 0004 1021     		movs	r1, #16
 1475 0006 FFF7FEFF 		bl	_lv_memset_00
 1476              	.LVL209:
  59:lvgl\src\lv_draw/lv_draw_img.c ****     dsc->opa = LV_OPA_COVER;
 1477              		.loc 1 59 0
 1478 000a 0023     		movs	r3, #0
 1479 000c A381     		strh	r3, [r4, #12]	@ movhi
  60:lvgl\src\lv_draw/lv_draw_img.c ****     dsc->zoom = LV_IMG_ZOOM_NONE;
 1480              		.loc 1 60 0
 1481 000e FF23     		movs	r3, #255
 1482 0010 2370     		strb	r3, [r4]
  61:lvgl\src\lv_draw/lv_draw_img.c ****     dsc->antialias = LV_ANTIALIAS;
 1483              		.loc 1 61 0
 1484 0012 4FF48073 		mov	r3, #256
 1485 0016 2381     		strh	r3, [r4, #8]	@ movhi
  62:lvgl\src\lv_draw/lv_draw_img.c **** 
 1486              		.loc 1 62 0
 1487 0018 E37B     		ldrb	r3, [r4, #15]	@ zero_extendqisi2
 1488 001a 43F00103 		orr	r3, r3, #1
 1489 001e E373     		strb	r3, [r4, #15]
 1490 0020 10BD     		pop	{r4, pc}
 1491              		.cfi_endproc
 1492              	.LFE328:
 1493              		.size	lv_draw_img_dsc_init, .-lv_draw_img_dsc_init
 1494 0022 00BF     		.section	.text.lv_img_cf_get_px_size,"ax",%progbits
 1495              		.align	2
 1496              		.global	lv_img_cf_get_px_size
 1497              		.thumb
 1498              		.thumb_func
ARM GAS  C:\Users\strap\AppData\Local\Temp\ccUgAYbc.s 			page 61


 1499              		.type	lv_img_cf_get_px_size, %function
 1500              	lv_img_cf_get_px_size:
 1501              	.LFB330:
  99:lvgl\src\lv_draw/lv_draw_img.c ****     uint8_t px_size = 0;
 1502              		.loc 1 99 0
 1503              		.cfi_startproc
 1504              		@ args = 0, pretend = 0, frame = 0
 1505              		@ frame_needed = 0, uses_anonymous_args = 0
 1506              		@ link register save eliminated.
 1507              	.LVL210:
 102:lvgl\src\lv_draw/lv_draw_img.c ****         case LV_IMG_CF_UNKNOWN:
 1508              		.loc 1 102 0
 1509 0000 0438     		subs	r0, r0, #4
 1510              	.LVL211:
 1511 0002 0A28     		cmp	r0, #10
 1512 0004 07D8     		bhi	.L85
 1513 0006 DFE800F0 		tbb	[pc, r0]
 1514              	.L87:
 1515 000a 12       		.byte	(.L93-.L87)/2
 1516 000b 08       		.byte	(.L88-.L87)/2
 1517 000c 12       		.byte	(.L93-.L87)/2
 1518 000d 0A       		.byte	(.L89-.L87)/2
 1519 000e 0C       		.byte	(.L90-.L87)/2
 1520 000f 0E       		.byte	(.L91-.L87)/2
 1521 0010 10       		.byte	(.L92-.L87)/2
 1522 0011 0A       		.byte	(.L89-.L87)/2
 1523 0012 0C       		.byte	(.L90-.L87)/2
 1524 0013 0E       		.byte	(.L91-.L87)/2
 1525 0014 10       		.byte	(.L92-.L87)/2
 1526 0015 00       		.p2align 1
 1527              	.L85:
 105:lvgl\src\lv_draw/lv_draw_img.c ****             break;
 1528              		.loc 1 105 0
 1529 0016 0020     		movs	r0, #0
 1530 0018 7047     		bx	lr
 1531              	.L88:
 1532              	.LVL212:
 112:lvgl\src\lv_draw/lv_draw_img.c ****             break;
 1533              		.loc 1 112 0
 1534 001a 1820     		movs	r0, #24
 113:lvgl\src\lv_draw/lv_draw_img.c ****         case LV_IMG_CF_INDEXED_1BIT:
 1535              		.loc 1 113 0
 1536 001c 7047     		bx	lr
 1537              	.LVL213:
 1538              	.L89:
 116:lvgl\src\lv_draw/lv_draw_img.c ****             break;
 1539              		.loc 1 116 0
 1540 001e 0120     		movs	r0, #1
 117:lvgl\src\lv_draw/lv_draw_img.c ****         case LV_IMG_CF_INDEXED_2BIT:
 1541              		.loc 1 117 0
 1542 0020 7047     		bx	lr
 1543              	.LVL214:
 1544              	.L90:
 120:lvgl\src\lv_draw/lv_draw_img.c ****             break;
 1545              		.loc 1 120 0
 1546 0022 0220     		movs	r0, #2
 121:lvgl\src\lv_draw/lv_draw_img.c ****         case LV_IMG_CF_INDEXED_4BIT:
ARM GAS  C:\Users\strap\AppData\Local\Temp\ccUgAYbc.s 			page 62


 1547              		.loc 1 121 0
 1548 0024 7047     		bx	lr
 1549              	.LVL215:
 1550              	.L91:
 124:lvgl\src\lv_draw/lv_draw_img.c ****             break;
 1551              		.loc 1 124 0
 1552 0026 0420     		movs	r0, #4
 125:lvgl\src\lv_draw/lv_draw_img.c ****         case LV_IMG_CF_INDEXED_8BIT:
 1553              		.loc 1 125 0
 1554 0028 7047     		bx	lr
 1555              	.LVL216:
 1556              	.L92:
 128:lvgl\src\lv_draw/lv_draw_img.c ****             break;
 1557              		.loc 1 128 0
 1558 002a 0820     		movs	r0, #8
 129:lvgl\src\lv_draw/lv_draw_img.c ****         default:
 1559              		.loc 1 129 0
 1560 002c 7047     		bx	lr
 1561              	.LVL217:
 1562              	.L93:
 109:lvgl\src\lv_draw/lv_draw_img.c ****             break;
 1563              		.loc 1 109 0
 1564 002e 1020     		movs	r0, #16
 1565              	.LVL218:
 136:lvgl\src\lv_draw/lv_draw_img.c **** 
 1566              		.loc 1 136 0
 1567 0030 7047     		bx	lr
 1568              		.cfi_endproc
 1569              	.LFE330:
 1570              		.size	lv_img_cf_get_px_size, .-lv_img_cf_get_px_size
 1571 0032 00BF     		.section	.text.lv_img_cf_is_chroma_keyed,"ax",%progbits
 1572              		.align	2
 1573              		.global	lv_img_cf_is_chroma_keyed
 1574              		.thumb
 1575              		.thumb_func
 1576              		.type	lv_img_cf_is_chroma_keyed, %function
 1577              	lv_img_cf_is_chroma_keyed:
 1578              	.LFB331:
 144:lvgl\src\lv_draw/lv_draw_img.c ****     bool is_chroma_keyed = false;
 1579              		.loc 1 144 0
 1580              		.cfi_startproc
 1581              		@ args = 0, pretend = 0, frame = 0
 1582              		@ frame_needed = 0, uses_anonymous_args = 0
 1583              		@ link register save eliminated.
 1584              	.LVL219:
 147:lvgl\src\lv_draw/lv_draw_img.c ****         case LV_IMG_CF_TRUE_COLOR_CHROMA_KEYED:
 1585              		.loc 1 147 0
 1586 0000 0328     		cmp	r0, #3
 1587 0002 03D0     		beq	.L96
 1588 0004 04D3     		bcc	.L97
 1589 0006 0638     		subs	r0, r0, #6
 1590              	.LVL220:
 1591 0008 0428     		cmp	r0, #4
 1592 000a 01D8     		bhi	.L97
 1593              	.L96:
 154:lvgl\src\lv_draw/lv_draw_img.c ****             break;
 1594              		.loc 1 154 0
ARM GAS  C:\Users\strap\AppData\Local\Temp\ccUgAYbc.s 			page 63


 1595 000c 0120     		movs	r0, #1
 1596 000e 7047     		bx	lr
 1597              	.L97:
 158:lvgl\src\lv_draw/lv_draw_img.c ****             break;
 1598              		.loc 1 158 0
 1599 0010 0020     		movs	r0, #0
 1600              	.LVL221:
 163:lvgl\src\lv_draw/lv_draw_img.c **** 
 1601              		.loc 1 163 0
 1602 0012 7047     		bx	lr
 1603              		.cfi_endproc
 1604              	.LFE331:
 1605              		.size	lv_img_cf_is_chroma_keyed, .-lv_img_cf_is_chroma_keyed
 1606              		.section	.text.lv_img_cf_has_alpha,"ax",%progbits
 1607              		.align	2
 1608              		.global	lv_img_cf_has_alpha
 1609              		.thumb
 1610              		.thumb_func
 1611              		.type	lv_img_cf_has_alpha, %function
 1612              	lv_img_cf_has_alpha:
 1613              	.LFB332:
 171:lvgl\src\lv_draw/lv_draw_img.c ****     bool has_alpha = false;
 1614              		.loc 1 171 0
 1615              		.cfi_startproc
 1616              		@ args = 0, pretend = 0, frame = 0
 1617              		@ frame_needed = 0, uses_anonymous_args = 0
 1618              		@ link register save eliminated.
 1619              	.LVL222:
 174:lvgl\src\lv_draw/lv_draw_img.c ****         case LV_IMG_CF_TRUE_COLOR_ALPHA:
 1620              		.loc 1 174 0
 1621 0000 0238     		subs	r0, r0, #2
 1622              	.LVL223:
 1623 0002 0C28     		cmp	r0, #12
 1624 0004 0AD8     		bhi	.L102
 1625 0006 DFE800F0 		tbb	[pc, r0]
 1626              	.L101:
 1627 000a 07       		.byte	(.L100-.L101)/2
 1628 000b 09       		.byte	(.L102-.L101)/2
 1629 000c 09       		.byte	(.L102-.L101)/2
 1630 000d 07       		.byte	(.L100-.L101)/2
 1631 000e 09       		.byte	(.L102-.L101)/2
 1632 000f 07       		.byte	(.L100-.L101)/2
 1633 0010 07       		.byte	(.L100-.L101)/2
 1634 0011 07       		.byte	(.L100-.L101)/2
 1635 0012 07       		.byte	(.L100-.L101)/2
 1636 0013 07       		.byte	(.L100-.L101)/2
 1637 0014 07       		.byte	(.L100-.L101)/2
 1638 0015 07       		.byte	(.L100-.L101)/2
 1639 0016 07       		.byte	(.L100-.L101)/2
 1640 0017 00       		.p2align 1
 1641              	.L100:
 185:lvgl\src\lv_draw/lv_draw_img.c ****             break;
 1642              		.loc 1 185 0
 1643 0018 0120     		movs	r0, #1
 1644 001a 7047     		bx	lr
 1645              	.L102:
 188:lvgl\src\lv_draw/lv_draw_img.c ****             break;
ARM GAS  C:\Users\strap\AppData\Local\Temp\ccUgAYbc.s 			page 64


 1646              		.loc 1 188 0
 1647 001c 0020     		movs	r0, #0
 1648              	.LVL224:
 193:lvgl\src\lv_draw/lv_draw_img.c **** 
 1649              		.loc 1 193 0
 1650 001e 7047     		bx	lr
 1651              		.cfi_endproc
 1652              	.LFE332:
 1653              		.size	lv_img_cf_has_alpha, .-lv_img_cf_has_alpha
 1654              		.section	.text.lv_img_draw_core,"ax",%progbits
 1655              		.align	2
 1656              		.thumb
 1657              		.thumb_func
 1658              		.type	lv_img_draw_core, %function
 1659              	lv_img_draw_core:
 1660              	.LFB334:
 235:lvgl\src\lv_draw/lv_draw_img.c ****     if(draw_dsc->opa <= LV_OPA_MIN) return LV_RES_OK;
 1661              		.loc 1 235 0
 1662              		.cfi_startproc
 1663              		@ args = 0, pretend = 0, frame = 48
 1664              		@ frame_needed = 0, uses_anonymous_args = 0
 1665              	.LVL225:
 1666 0000 2DE9F04F 		push	{r4, r5, r6, r7, r8, r9, r10, fp, lr}
 1667              		.cfi_def_cfa_offset 36
 1668              		.cfi_offset 4, -36
 1669              		.cfi_offset 5, -32
 1670              		.cfi_offset 6, -28
 1671              		.cfi_offset 7, -24
 1672              		.cfi_offset 8, -20
 1673              		.cfi_offset 9, -16
 1674              		.cfi_offset 10, -12
 1675              		.cfi_offset 11, -8
 1676              		.cfi_offset 14, -4
 1677 0004 8FB0     		sub	sp, sp, #60
 1678              		.cfi_def_cfa_offset 96
 236:lvgl\src\lv_draw/lv_draw_img.c **** 
 1679              		.loc 1 236 0
 1680 0006 1C78     		ldrb	r4, [r3]	@ zero_extendqisi2
 1681 0008 022C     		cmp	r4, #2
 1682 000a 40F2E480 		bls	.L120
 1683 000e 1C46     		mov	r4, r3
 1684 0010 0E46     		mov	r6, r1
 1685 0012 0546     		mov	r5, r0
 238:lvgl\src\lv_draw/lv_draw_img.c **** 
 1686              		.loc 1 238 0
 1687 0014 9989     		ldrh	r1, [r3, #12]
 1688              	.LVL226:
 1689 0016 1046     		mov	r0, r2
 1690              	.LVL227:
 1691 0018 FFF7FEFF 		bl	_lv_img_cache_open
 1692              	.LVL228:
 240:lvgl\src\lv_draw/lv_draw_img.c **** 
 1693              		.loc 1 240 0
 1694 001c 0746     		mov	r7, r0
 1695 001e 0028     		cmp	r0, #0
 1696 0020 00F0DB80 		beq	.L121
 242:lvgl\src\lv_draw/lv_draw_img.c ****     bool alpha_byte   = lv_img_cf_has_alpha(cdsc->dec_dsc.header.cf);
ARM GAS  C:\Users\strap\AppData\Local\Temp\ccUgAYbc.s 			page 65


 1697              		.loc 1 242 0
 1698 0024 90F80C90 		ldrb	r9, [r0, #12]	@ zero_extendqisi2
 1699 0028 09F01F09 		and	r9, r9, #31
 1700 002c 4846     		mov	r0, r9
 1701              	.LVL229:
 1702 002e FFF7FEFF 		bl	lv_img_cf_is_chroma_keyed
 1703              	.LVL230:
 1704 0032 8046     		mov	r8, r0
 1705              	.LVL231:
 243:lvgl\src\lv_draw/lv_draw_img.c **** 
 1706              		.loc 1 243 0
 1707 0034 4846     		mov	r0, r9
 1708 0036 FFF7FEFF 		bl	lv_img_cf_has_alpha
 1709              	.LVL232:
 1710 003a 8146     		mov	r9, r0
 1711              	.LVL233:
 245:lvgl\src\lv_draw/lv_draw_img.c ****         LV_LOG_WARN("Image draw error");
 1712              		.loc 1 245 0
 1713 003c BA69     		ldr	r2, [r7, #24]
 1714 003e 2AB1     		cbz	r2, .L105
 248:lvgl\src\lv_draw/lv_draw_img.c ****     }
 1715              		.loc 1 248 0
 1716 0040 3146     		mov	r1, r6
 1717 0042 2846     		mov	r0, r5
 1718 0044 FFF7FEFF 		bl	show_error
 1719              	.LVL234:
 321:lvgl\src\lv_draw/lv_draw_img.c **** }
 1720              		.loc 1 321 0
 1721 0048 0120     		movs	r0, #1
 1722 004a C7E0     		b	.L104
 1723              	.L105:
 252:lvgl\src\lv_draw/lv_draw_img.c ****         lv_area_t map_area_rot;
 1724              		.loc 1 252 0
 1725 004c 3B69     		ldr	r3, [r7, #16]
 1726 004e 33B9     		cbnz	r3, .L122
 1727 0050 52E0     		b	.L124
 1728              	.LVL235:
 1729              	.L108:
 1730              	.LBB146:
 1731              	.LBB147:
 1732              	.LBB148:
 1733              	.LBB149:
 220:lvgl\src\lv_draw\../lv_misc/lv_mem.h ****         d8++;
 1734              		.loc 2 220 0
 1735 0052 11F8010B 		ldrb	r0, [r1], #1	@ zero_extendqisi2
 1736              	.LVL236:
 1737 0056 02F8010B 		strb	r0, [r2], #1
 1738              	.LVL237:
 1739              		.loc 2 223 0
 1740 005a 013B     		subs	r3, r3, #1
 1741              	.LVL238:
 1742 005c 02E0     		b	.L106
 1743              	.LVL239:
 1744              	.L122:
 1745              	.LBE149:
 1746              	.LBE148:
 1747              	.LBE147:
ARM GAS  C:\Users\strap\AppData\Local\Temp\ccUgAYbc.s 			page 66


 1748              	.LBE146:
 1749 005e 2946     		mov	r1, r5
 1750 0060 0AAA     		add	r2, sp, #40
 1751 0062 0823     		movs	r3, #8
 1752              	.L106:
 1753              	.LVL240:
 1754              	.LBB158:
 1755              	.LBB152:
 1756              	.LBB151:
 1757              	.LBB150:
 219:lvgl\src\lv_draw\../lv_misc/lv_mem.h ****         *d8 = *s8;
 1758              		.loc 2 219 0
 1759 0064 002B     		cmp	r3, #0
 1760 0066 F4D1     		bne	.L108
 1761              	.LVL241:
 1762              	.LBE150:
 1763              	.LBE151:
 1764              	.LBE152:
 255:lvgl\src\lv_draw/lv_draw_img.c ****             int32_t w = lv_area_get_width(coords);
 1765              		.loc 1 255 0
 1766 0068 6388     		ldrh	r3, [r4, #2]
 1767 006a 1BB9     		cbnz	r3, .L109
 255:lvgl\src\lv_draw/lv_draw_img.c ****             int32_t w = lv_area_get_width(coords);
 1768              		.loc 1 255 0 is_stmt 0 discriminator 1
 1769 006c 2289     		ldrh	r2, [r4, #8]
 1770              	.LVL242:
 1771 006e B2F5807F 		cmp	r2, #256
 1772 0072 2DD0     		beq	.L110
 1773              	.L109:
 1774              	.LVL243:
 1775              	.LBB153:
 1776              	.LBB154:
 1777              	.LBB155:
 112:lvgl\src\lv_draw\../lv_misc/lv_area.h **** }
 1778              		.loc 3 112 0 is_stmt 1
 1779 0074 B5F90420 		ldrsh	r2, [r5, #4]
 1780 0078 B5F90010 		ldrsh	r1, [r5]
 1781              	.LVL244:
 1782 007c 511A     		subs	r1, r2, r1
 1783 007e 0131     		adds	r1, r1, #1
 1784              	.LVL245:
 1785              	.LBE155:
 1786              	.LBE154:
 1787              	.LBB156:
 1788              	.LBB157:
 1789              		.loc 3 122 0
 1790 0080 B5F90620 		ldrsh	r2, [r5, #6]
 1791 0084 B5F90200 		ldrsh	r0, [r5, #2]
 1792 0088 121A     		subs	r2, r2, r0
 1793 008a 0132     		adds	r2, r2, #1
 1794              	.LVL246:
 1795              	.LBE157:
 1796              	.LBE156:
 259:lvgl\src\lv_draw/lv_draw_img.c **** 
 1797              		.loc 1 259 0
 1798 008c 201D     		adds	r0, r4, #4
 1799 008e 0190     		str	r0, [sp, #4]
ARM GAS  C:\Users\strap\AppData\Local\Temp\ccUgAYbc.s 			page 67


 1800 0090 2089     		ldrh	r0, [r4, #8]
 1801 0092 0090     		str	r0, [sp]
 1802 0094 1BB2     		sxth	r3, r3
 1803 0096 12B2     		sxth	r2, r2
 1804              	.LVL247:
 1805 0098 09B2     		sxth	r1, r1
 1806              	.LVL248:
 1807 009a 0AA8     		add	r0, sp, #40
 1808 009c FFF7FEFF 		bl	_lv_img_buf_get_transformed_area
 1809              	.LVL249:
 261:lvgl\src\lv_draw/lv_draw_img.c ****             map_area_rot.y1 += coords->y1;
 1810              		.loc 1 261 0
 1811 00a0 B5F900E0 		ldrsh	lr, [r5]
 1812 00a4 BDF82830 		ldrh	r3, [sp, #40]
 1813 00a8 7344     		add	r3, r3, lr
 1814 00aa ADF82830 		strh	r3, [sp, #40]	@ movhi
 262:lvgl\src\lv_draw/lv_draw_img.c ****             map_area_rot.x2 += coords->x1;
 1815              		.loc 1 262 0
 1816 00ae B5F90200 		ldrsh	r0, [r5, #2]
 1817 00b2 BDF82A10 		ldrh	r1, [sp, #42]
 1818 00b6 0144     		add	r1, r1, r0
 1819 00b8 ADF82A10 		strh	r1, [sp, #42]	@ movhi
 263:lvgl\src\lv_draw/lv_draw_img.c ****             map_area_rot.y2 += coords->y1;
 1820              		.loc 1 263 0
 1821 00bc BDF82C20 		ldrh	r2, [sp, #44]
 1822 00c0 7244     		add	r2, r2, lr
 1823 00c2 ADF82C20 		strh	r2, [sp, #44]	@ movhi
 264:lvgl\src\lv_draw/lv_draw_img.c ****         }
 1824              		.loc 1 264 0
 1825 00c6 BDF82E30 		ldrh	r3, [sp, #46]
 1826 00ca 0344     		add	r3, r3, r0
 1827 00cc ADF82E30 		strh	r3, [sp, #46]	@ movhi
 1828              	.L110:
 1829              	.LBE153:
 269:lvgl\src\lv_draw/lv_draw_img.c ****         if(union_ok == false) {
 1830              		.loc 1 269 0
 1831 00d0 0AAA     		add	r2, sp, #40
 1832 00d2 3146     		mov	r1, r6
 1833 00d4 0CA8     		add	r0, sp, #48
 1834 00d6 FFF7FEFF 		bl	_lv_area_intersect
 1835              	.LVL250:
 270:lvgl\src\lv_draw/lv_draw_img.c ****             return LV_RES_OK; /*Out of mask. There is nothing to draw so the image is drawn
 1836              		.loc 1 270 0
 1837 00da 08B9     		cbnz	r0, .L111
 271:lvgl\src\lv_draw/lv_draw_img.c ****                                  successfully.*/
 1838              		.loc 1 271 0
 1839 00dc 0120     		movs	r0, #1
 1840              	.LVL251:
 1841 00de 7DE0     		b	.L104
 1842              	.LVL252:
 1843              	.L111:
 275:lvgl\src\lv_draw/lv_draw_img.c ****     }
 1844              		.loc 1 275 0
 1845 00e0 3A69     		ldr	r2, [r7, #16]
 1846 00e2 CDF80490 		str	r9, [sp, #4]
 1847 00e6 CDF80080 		str	r8, [sp]
 1848 00ea 2346     		mov	r3, r4
ARM GAS  C:\Users\strap\AppData\Local\Temp\ccUgAYbc.s 			page 68


 1849 00ec 0CA9     		add	r1, sp, #48
 1850 00ee 2846     		mov	r0, r5
 1851              	.LVL253:
 1852 00f0 FFF7FEFF 		bl	lv_draw_map
 1853              	.LVL254:
 1854              	.LBE158:
 321:lvgl\src\lv_draw/lv_draw_img.c **** }
 1855              		.loc 1 321 0
 1856 00f4 0120     		movs	r0, #1
 1857 00f6 71E0     		b	.L104
 1858              	.L124:
 1859              	.LBB159:
 281:lvgl\src\lv_draw/lv_draw_img.c ****         if(union_ok == false) {
 1860              		.loc 1 281 0
 1861 00f8 2A46     		mov	r2, r5
 1862 00fa 3146     		mov	r1, r6
 1863 00fc 08A8     		add	r0, sp, #32
 1864 00fe FFF7FEFF 		bl	_lv_area_intersect
 1865              	.LVL255:
 282:lvgl\src\lv_draw/lv_draw_img.c ****             return LV_RES_OK; /*Out of mask. There is nothing to draw so the image is drawn
 1866              		.loc 1 282 0
 1867 0102 0028     		cmp	r0, #0
 1868 0104 65D0     		beq	.L123
 1869              	.LVL256:
 1870              	.LBB160:
 1871              	.LBB161:
 112:lvgl\src\lv_draw\../lv_misc/lv_area.h **** }
 1872              		.loc 3 112 0
 1873 0106 BDF92430 		ldrsh	r3, [sp, #36]
 1874 010a 0DF1380A 		add	r10, sp, #56
 1875 010e 3AF9182D 		ldrsh	r2, [r10, #-24]!
 1876 0112 9B1A     		subs	r3, r3, r2
 1877 0114 0133     		adds	r3, r3, #1
 1878 0116 1BB2     		sxth	r3, r3
 1879 0118 0393     		str	r3, [sp, #12]
 1880              	.LVL257:
 1881              	.LBE161:
 1882              	.LBE160:
 289:lvgl\src\lv_draw/lv_draw_img.c ****                                          LV_IMG_PX_SIZE_ALPHA_BYTE);  /*+1 because of the possible 
 1883              		.loc 1 289 0
 1884 011a 03EB4300 		add	r0, r3, r3, lsl #1
 1885              	.LVL258:
 1886 011e FFF7FEFF 		bl	_lv_mem_buf_get
 1887              	.LVL259:
 1888 0122 0790     		str	r0, [sp, #28]
 1889              	.LVL260:
 1890              	.LBB162:
 1891              	.LBB163:
 1892              	.LBB164:
 216:lvgl\src\lv_draw\../lv_misc/lv_mem.h ****     const uint8_t * s8 = (const uint8_t *)src;
 1893              		.loc 2 216 0
 1894 0124 0AAA     		add	r2, sp, #40
 1895              	.LVL261:
 1896              	.LBE164:
 1897              	.LBE163:
 1898              	.LBE162:
 289:lvgl\src\lv_draw/lv_draw_img.c ****                                          LV_IMG_PX_SIZE_ALPHA_BYTE);  /*+1 because of the possible 
ARM GAS  C:\Users\strap\AppData\Local\Temp\ccUgAYbc.s 			page 69


 1899              		.loc 1 289 0
 1900 0126 0823     		movs	r3, #8
 1901 0128 04E0     		b	.L113
 1902              	.LVL262:
 1903              	.L114:
 1904              	.LBB167:
 1905              	.LBB166:
 1906              	.LBB165:
 220:lvgl\src\lv_draw\../lv_misc/lv_mem.h ****         d8++;
 1907              		.loc 2 220 0
 1908 012a 1AF8011B 		ldrb	r1, [r10], #1	@ zero_extendqisi2
 1909              	.LVL263:
 1910 012e 02F8011B 		strb	r1, [r2], #1
 1911              	.LVL264:
 1912              		.loc 2 223 0
 1913 0132 013B     		subs	r3, r3, #1
 1914              	.LVL265:
 1915              	.L113:
 219:lvgl\src\lv_draw\../lv_misc/lv_mem.h ****         *d8 = *s8;
 1916              		.loc 2 219 0
 1917 0134 002B     		cmp	r3, #0
 1918 0136 F8D1     		bne	.L114
 1919              	.LVL266:
 1920              	.LBE165:
 1921              	.LBE166:
 1922              	.LBE167:
 294:lvgl\src\lv_draw/lv_draw_img.c ****         int32_t x = mask_com.x1 - coords->x1;
 1923              		.loc 1 294 0
 1924 0138 0121     		movs	r1, #1
 1925 013a 0AA8     		add	r0, sp, #40
 1926              	.LVL267:
 1927 013c FFF7FEFF 		bl	lv_area_set_height
 1928              	.LVL268:
 295:lvgl\src\lv_draw/lv_draw_img.c ****         int32_t y = mask_com.y1 - coords->y1;
 1929              		.loc 1 295 0
 1930 0140 BDF92030 		ldrsh	r3, [sp, #32]
 1931 0144 B5F900B0 		ldrsh	fp, [r5]
 1932              	.LVL269:
 296:lvgl\src\lv_draw/lv_draw_img.c ****         int32_t row;
 1933              		.loc 1 296 0
 1934 0148 BDF922A0 		ldrsh	r10, [sp, #34]
 1935              	.LVL270:
 1936 014c B5F90250 		ldrsh	r5, [r5, #2]
 1937              	.LVL271:
 1938 0150 C5EB0A05 		rsb	r5, r5, r10
 1939              	.LVL272:
 1940 0154 0497     		str	r7, [sp, #16]
 1941 0156 079F     		ldr	r7, [sp, #28]
 1942              	.LVL273:
 1943 0158 0694     		str	r4, [sp, #24]
 1944 015a 4446     		mov	r4, r8
 1945              	.LVL274:
 1946 015c 9846     		mov	r8, r3
 1947              	.LVL275:
 299:lvgl\src\lv_draw/lv_draw_img.c ****             lv_area_t mask_line;
 1948              		.loc 1 299 0
 1949 015e 2FE0     		b	.L115
ARM GAS  C:\Users\strap\AppData\Local\Temp\ccUgAYbc.s 			page 70


 1950              	.LVL276:
 1951              	.L119:
 1952              	.LBB168:
 301:lvgl\src\lv_draw/lv_draw_img.c ****             if(union_ok == false) continue;
 1953              		.loc 1 301 0
 1954 0160 0AAA     		add	r2, sp, #40
 1955 0162 3146     		mov	r1, r6
 1956 0164 0CA8     		add	r0, sp, #48
 1957 0166 FFF7FEFF 		bl	_lv_area_intersect
 1958              	.LVL277:
 302:lvgl\src\lv_draw/lv_draw_img.c **** 
 1959              		.loc 1 302 0
 1960 016a 38B3     		cbz	r0, .L117
 304:lvgl\src\lv_draw/lv_draw_img.c ****             if(read_res != LV_RES_OK) {
 1961              		.loc 1 304 0
 1962 016c 0498     		ldr	r0, [sp, #16]
 1963              	.LVL278:
 1964 016e 0590     		str	r0, [sp, #20]
 1965 0170 CBEB0801 		rsb	r1, fp, r8
 1966 0174 0097     		str	r7, [sp]
 1967 0176 039B     		ldr	r3, [sp, #12]
 1968 0178 2AB2     		sxth	r2, r5
 1969 017a 09B2     		sxth	r1, r1
 1970 017c FFF7FEFF 		bl	lv_img_decoder_read_line
 1971              	.LVL279:
 305:lvgl\src\lv_draw/lv_draw_img.c ****                 lv_img_decoder_close(&cdsc->dec_dsc);
 1972              		.loc 1 305 0
 1973 0180 0128     		cmp	r0, #1
 1974 0182 07D0     		beq	.L118
 306:lvgl\src\lv_draw/lv_draw_img.c ****                 LV_LOG_WARN("Image draw can't read the line");
 1975              		.loc 1 306 0
 1976 0184 0598     		ldr	r0, [sp, #20]
 1977              	.LVL280:
 1978 0186 FFF7FEFF 		bl	lv_img_decoder_close
 1979              	.LVL281:
 308:lvgl\src\lv_draw/lv_draw_img.c ****                 return LV_RES_INV;
 1980              		.loc 1 308 0
 1981 018a 0798     		ldr	r0, [sp, #28]
 1982 018c FFF7FEFF 		bl	_lv_mem_buf_release
 1983              	.LVL282:
 309:lvgl\src\lv_draw/lv_draw_img.c ****             }
 1984              		.loc 1 309 0
 1985 0190 0020     		movs	r0, #0
 1986 0192 23E0     		b	.L104
 1987              	.LVL283:
 1988              	.L118:
 313:lvgl\src\lv_draw/lv_draw_img.c ****             line.y1++;
 1989              		.loc 1 313 0
 1990 0194 CDF80490 		str	r9, [sp, #4]
 1991 0198 0094     		str	r4, [sp]
 1992 019a 069B     		ldr	r3, [sp, #24]
 1993 019c 3A46     		mov	r2, r7
 1994 019e 0CA9     		add	r1, sp, #48
 1995 01a0 0AA8     		add	r0, sp, #40
 1996              	.LVL284:
 1997 01a2 FFF7FEFF 		bl	lv_draw_map
 1998              	.LVL285:
ARM GAS  C:\Users\strap\AppData\Local\Temp\ccUgAYbc.s 			page 71


 314:lvgl\src\lv_draw/lv_draw_img.c ****             line.y2++;
 1999              		.loc 1 314 0
 2000 01a6 BDF92A30 		ldrsh	r3, [sp, #42]
 2001 01aa 0133     		adds	r3, r3, #1
 2002 01ac ADF82A30 		strh	r3, [sp, #42]	@ movhi
 315:lvgl\src\lv_draw/lv_draw_img.c ****             y++;
 2003              		.loc 1 315 0
 2004 01b0 BDF92E30 		ldrsh	r3, [sp, #46]
 2005 01b4 0133     		adds	r3, r3, #1
 2006 01b6 ADF82E30 		strh	r3, [sp, #46]	@ movhi
 316:lvgl\src\lv_draw/lv_draw_img.c ****         }
 2007              		.loc 1 316 0
 2008 01ba 0135     		adds	r5, r5, #1
 2009              	.LVL286:
 2010              	.L117:
 2011              	.LBE168:
 299:lvgl\src\lv_draw/lv_draw_img.c ****             lv_area_t mask_line;
 2012              		.loc 1 299 0 discriminator 2
 2013 01bc 0AF1010A 		add	r10, r10, #1
 2014              	.LVL287:
 2015              	.L115:
 299:lvgl\src\lv_draw/lv_draw_img.c ****             lv_area_t mask_line;
 2016              		.loc 1 299 0 is_stmt 0 discriminator 1
 2017 01c0 BDF92630 		ldrsh	r3, [sp, #38]
 2018 01c4 9A45     		cmp	r10, r3
 2019 01c6 CBDD     		ble	.L119
 318:lvgl\src\lv_draw/lv_draw_img.c ****     }
 2020              		.loc 1 318 0 is_stmt 1
 2021 01c8 0798     		ldr	r0, [sp, #28]
 2022 01ca FFF7FEFF 		bl	_lv_mem_buf_release
 2023              	.LVL288:
 2024              	.LBE159:
 321:lvgl\src\lv_draw/lv_draw_img.c **** }
 2025              		.loc 1 321 0
 2026 01ce 0120     		movs	r0, #1
 2027              	.LBB169:
 2028 01d0 04E0     		b	.L104
 2029              	.LVL289:
 2030              	.L123:
 283:lvgl\src\lv_draw/lv_draw_img.c ****                                  successfully.*/
 2031              		.loc 1 283 0
 2032 01d2 0120     		movs	r0, #1
 2033              	.LVL290:
 2034 01d4 02E0     		b	.L104
 2035              	.LVL291:
 2036              	.L120:
 2037              	.LBE169:
 236:lvgl\src\lv_draw/lv_draw_img.c **** 
 2038              		.loc 1 236 0
 2039 01d6 0120     		movs	r0, #1
 2040              	.LVL292:
 2041 01d8 00E0     		b	.L104
 2042              	.LVL293:
 2043              	.L121:
 240:lvgl\src\lv_draw/lv_draw_img.c **** 
 2044              		.loc 1 240 0
 2045 01da 0020     		movs	r0, #0
ARM GAS  C:\Users\strap\AppData\Local\Temp\ccUgAYbc.s 			page 72


 2046              	.LVL294:
 2047              	.L104:
 322:lvgl\src\lv_draw/lv_draw_img.c **** 
 2048              		.loc 1 322 0
 2049 01dc 0FB0     		add	sp, sp, #60
 2050              		.cfi_def_cfa_offset 36
 2051              		@ sp needed
 2052 01de BDE8F08F 		pop	{r4, r5, r6, r7, r8, r9, r10, fp, pc}
 2053              		.cfi_endproc
 2054              	.LFE334:
 2055              		.size	lv_img_draw_core, .-lv_img_draw_core
 2056 01e2 00BF     		.section	.text.lv_draw_img,"ax",%progbits
 2057              		.align	2
 2058              		.global	lv_draw_img
 2059              		.thumb
 2060              		.thumb_func
 2061              		.type	lv_draw_img, %function
 2062              	lv_draw_img:
 2063              	.LFB329:
  74:lvgl\src\lv_draw/lv_draw_img.c ****     if(src == NULL) {
 2064              		.loc 1 74 0
 2065              		.cfi_startproc
 2066              		@ args = 0, pretend = 0, frame = 0
 2067              		@ frame_needed = 0, uses_anonymous_args = 0
 2068              	.LVL295:
 2069 0000 38B5     		push	{r3, r4, r5, lr}
 2070              		.cfi_def_cfa_offset 16
 2071              		.cfi_offset 3, -16
 2072              		.cfi_offset 4, -12
 2073              		.cfi_offset 5, -8
 2074              		.cfi_offset 14, -4
 2075 0002 0446     		mov	r4, r0
 2076 0004 0D46     		mov	r5, r1
  75:lvgl\src\lv_draw/lv_draw_img.c ****         LV_LOG_WARN("Image draw: src is NULL");
 2077              		.loc 1 75 0
 2078 0006 1AB9     		cbnz	r2, .L127
  77:lvgl\src\lv_draw/lv_draw_img.c ****         return;
 2079              		.loc 1 77 0
 2080 0008 094A     		ldr	r2, .L130
 2081              	.LVL296:
 2082 000a FFF7FEFF 		bl	show_error
 2083              	.LVL297:
  78:lvgl\src\lv_draw/lv_draw_img.c ****     }
 2084              		.loc 1 78 0
 2085 000e 38BD     		pop	{r3, r4, r5, pc}
 2086              	.LVL298:
 2087              	.L127:
 2088 0010 1146     		mov	r1, r2
 2089              	.LVL299:
  81:lvgl\src\lv_draw/lv_draw_img.c **** 
 2090              		.loc 1 81 0
 2091 0012 1A78     		ldrb	r2, [r3]	@ zero_extendqisi2
 2092              	.LVL300:
 2093 0014 022A     		cmp	r2, #2
 2094 0016 09D9     		bls	.L126
  84:lvgl\src\lv_draw/lv_draw_img.c **** 
 2095              		.loc 1 84 0
ARM GAS  C:\Users\strap\AppData\Local\Temp\ccUgAYbc.s 			page 73


 2096 0018 0A46     		mov	r2, r1
 2097 001a 2946     		mov	r1, r5
 2098              	.LVL301:
 2099 001c FFF7FEFF 		bl	lv_img_draw_core
 2100              	.LVL302:
  86:lvgl\src\lv_draw/lv_draw_img.c ****         LV_LOG_WARN("Image draw error");
 2101              		.loc 1 86 0
 2102 0020 20B9     		cbnz	r0, .L126
  88:lvgl\src\lv_draw/lv_draw_img.c ****         return;
 2103              		.loc 1 88 0
 2104 0022 034A     		ldr	r2, .L130
 2105 0024 2946     		mov	r1, r5
 2106 0026 2046     		mov	r0, r4
 2107              	.LVL303:
 2108 0028 FFF7FEFF 		bl	show_error
 2109              	.LVL304:
 2110              	.L126:
 2111 002c 38BD     		pop	{r3, r4, r5, pc}
 2112              	.LVL305:
 2113              	.L131:
 2114 002e 00BF     		.align	2
 2115              	.L130:
 2116 0030 00000000 		.word	.LC2
 2117              		.cfi_endproc
 2118              	.LFE329:
 2119              		.size	lv_draw_img, .-lv_draw_img
 2120              		.section	.text.lv_img_src_get_type,"ax",%progbits
 2121              		.align	2
 2122              		.global	lv_img_src_get_type
 2123              		.thumb
 2124              		.thumb_func
 2125              		.type	lv_img_src_get_type, %function
 2126              	lv_img_src_get_type:
 2127              	.LFB333:
 204:lvgl\src\lv_draw/lv_draw_img.c ****     lv_img_src_t img_src_type = LV_IMG_SRC_UNKNOWN;
 2128              		.loc 1 204 0
 2129              		.cfi_startproc
 2130              		@ args = 0, pretend = 0, frame = 0
 2131              		@ frame_needed = 0, uses_anonymous_args = 0
 2132              		@ link register save eliminated.
 2133              	.LVL306:
 207:lvgl\src\lv_draw/lv_draw_img.c ****     const uint8_t * u8_p = src;
 2134              		.loc 1 207 0
 2135 0000 50B1     		cbz	r0, .L134
 2136              	.LVL307:
 211:lvgl\src\lv_draw/lv_draw_img.c ****         img_src_type = LV_IMG_SRC_FILE; /*If it's an ASCII character then it's file name*/
 2137              		.loc 1 211 0
 2138 0002 0278     		ldrb	r2, [r0]	@ zero_extendqisi2
 2139 0004 A2F12003 		sub	r3, r2, #32
 2140 0008 DBB2     		uxtb	r3, r3
 2141 000a 5F2B     		cmp	r3, #95
 2142 000c 06D9     		bls	.L135
 214:lvgl\src\lv_draw/lv_draw_img.c ****         img_src_type = LV_IMG_SRC_SYMBOL; /*Symbols begins after 0x7F*/
 2143              		.loc 1 214 0
 2144 000e 12F0800F 		tst	r2, #128
 2145 0012 05D0     		beq	.L136
 215:lvgl\src\lv_draw/lv_draw_img.c ****     }
ARM GAS  C:\Users\strap\AppData\Local\Temp\ccUgAYbc.s 			page 74


 2146              		.loc 1 215 0
 2147 0014 0220     		movs	r0, #2
 2148              	.LVL308:
 2149 0016 7047     		bx	lr
 2150              	.LVL309:
 2151              	.L134:
 207:lvgl\src\lv_draw/lv_draw_img.c ****     const uint8_t * u8_p = src;
 2152              		.loc 1 207 0
 2153 0018 0320     		movs	r0, #3
 2154              	.LVL310:
 2155 001a 7047     		bx	lr
 2156              	.LVL311:
 2157              	.L135:
 212:lvgl\src\lv_draw/lv_draw_img.c ****     }
 2158              		.loc 1 212 0
 2159 001c 0120     		movs	r0, #1
 2160              	.LVL312:
 2161 001e 7047     		bx	lr
 2162              	.LVL313:
 2163              	.L136:
 218:lvgl\src\lv_draw/lv_draw_img.c ****     }
 2164              		.loc 1 218 0
 2165 0020 0020     		movs	r0, #0
 2166              	.LVL314:
 226:lvgl\src\lv_draw/lv_draw_img.c **** 
 2167              		.loc 1 226 0
 2168 0022 7047     		bx	lr
 2169              		.cfi_endproc
 2170              	.LFE333:
 2171              		.size	lv_img_src_get_type, .-lv_img_src_get_type
 2172              		.section	.rodata
 2173              		.align	2
 2174              		.set	.LANCHOR0,. + 0
 2175              	.LC0:
 2176 0000 FF       		.byte	255
 2177 0001 FF       		.byte	255
 2178              		.section	.rodata.str1.4,"aMS",%progbits,1
 2179              		.align	2
 2180              	.LC2:
 2181 0000 4E6F0A64 		.ascii	"No\012data\000"
 2181      61746100 
 2182              		.text
 2183              	.Letext0:
 2184              		.file 6 "c:\\program files (x86)\\cypress\\psoc creator\\4.4\\psoc creator\\import\\gnu\\arm\\5.4.
 2185              		.file 7 "c:\\program files (x86)\\cypress\\psoc creator\\4.4\\psoc creator\\import\\gnu\\arm\\5.4.
 2186              		.file 8 "lvgl\\src\\lv_draw\\../../../lv_conf.h"
 2187              		.file 9 "c:\\program files (x86)\\cypress\\psoc creator\\4.4\\psoc creator\\import\\gnu\\arm\\5.4.
 2188              		.file 10 "lvgl\\src\\lv_draw\\../lv_misc/lv_types.h"
 2189              		.file 11 "lvgl\\src\\lv_draw\\../lv_core/../lv_font/lv_font.h"
 2190              		.file 12 "lvgl\\src\\lv_draw\\../lv_core/../lv_draw/lv_draw_mask.h"
 2191              		.file 13 "lvgl\\src\\lv_draw\\../lv_core/../lv_draw/lv_draw_blend.h"
 2192              		.file 14 "lvgl\\src\\lv_draw\\../lv_core/lv_style.h"
 2193              		.file 15 "lvgl\\src\\lv_draw\\lv_img_decoder.h"
 2194              		.file 16 "lvgl\\src\\lv_draw\\lv_draw_img.h"
 2195              		.file 17 "lvgl\\src\\lv_draw\\lv_img_cache.h"
 2196              		.file 18 "lvgl\\src\\lv_draw\\../lv_hal/../lv_misc/lv_ll.h"
 2197              		.file 19 "lvgl\\src\\lv_draw\\../lv_hal/../lv_misc/lv_task.h"
ARM GAS  C:\Users\strap\AppData\Local\Temp\ccUgAYbc.s 			page 75


 2198              		.file 20 "lvgl\\src\\lv_draw\\../lv_hal/lv_hal_indev.h"
 2199              		.file 21 "lvgl\\src\\lv_draw\\../lv_hal/lv_hal_disp.h"
 2200              		.file 22 "lvgl\\src\\lv_draw\\../lv_core/lv_obj.h"
 2201              		.file 23 "lvgl\\src\\lv_draw\\../lv_core/../lv_draw/lv_draw_rect.h"
 2202              		.file 24 "lvgl\\src\\lv_draw\\../lv_core/../lv_draw/../lv_misc/lv_bidi.h"
 2203              		.file 25 "lvgl\\src\\lv_draw\\../lv_core/../lv_draw/../lv_misc/lv_txt.h"
 2204              		.file 26 "lvgl\\src\\lv_draw\\../lv_core/../lv_draw/lv_draw_label.h"
 2205              		.file 27 "lvgl\\src\\lv_draw\\../lv_core/lv_refr.h"
 2206              		.section	.debug_info,"",%progbits
 2207              	.Ldebug_info0:
 2208 0000 14290000 		.4byte	0x2914
 2209 0004 0400     		.2byte	0x4
 2210 0006 00000000 		.4byte	.Ldebug_abbrev0
 2211 000a 04       		.byte	0x4
 2212 000b 01       		.uleb128 0x1
 2213 000c E1030000 		.4byte	.LASF445
 2214 0010 0C       		.byte	0xc
 2215 0011 D80F0000 		.4byte	.LASF446
 2216 0015 E0010000 		.4byte	.LASF447
 2217 0019 C0000000 		.4byte	.Ldebug_ranges0+0xc0
 2218 001d 00000000 		.4byte	0
 2219 0021 00000000 		.4byte	.Ldebug_line0
 2220 0025 02       		.uleb128 0x2
 2221 0026 C8100000 		.4byte	.LASF0
 2222 002a 06       		.byte	0x6
 2223 002b 1B       		.byte	0x1b
 2224 002c 30000000 		.4byte	0x30
 2225 0030 03       		.uleb128 0x3
 2226 0031 01       		.byte	0x1
 2227 0032 06       		.byte	0x6
 2228 0033 0C050000 		.4byte	.LASF2
 2229 0037 02       		.uleb128 0x2
 2230 0038 A0020000 		.4byte	.LASF1
 2231 003c 06       		.byte	0x6
 2232 003d 1D       		.byte	0x1d
 2233 003e 42000000 		.4byte	0x42
 2234 0042 03       		.uleb128 0x3
 2235 0043 01       		.byte	0x1
 2236 0044 08       		.byte	0x8
 2237 0045 84050000 		.4byte	.LASF3
 2238 0049 02       		.uleb128 0x2
 2239 004a 8A120000 		.4byte	.LASF4
 2240 004e 06       		.byte	0x6
 2241 004f 29       		.byte	0x29
 2242 0050 54000000 		.4byte	0x54
 2243 0054 03       		.uleb128 0x3
 2244 0055 02       		.byte	0x2
 2245 0056 05       		.byte	0x5
 2246 0057 90130000 		.4byte	.LASF5
 2247 005b 02       		.uleb128 0x2
 2248 005c 4A070000 		.4byte	.LASF6
 2249 0060 06       		.byte	0x6
 2250 0061 2B       		.byte	0x2b
 2251 0062 66000000 		.4byte	0x66
 2252 0066 03       		.uleb128 0x3
 2253 0067 02       		.byte	0x2
 2254 0068 07       		.byte	0x7
ARM GAS  C:\Users\strap\AppData\Local\Temp\ccUgAYbc.s 			page 76


 2255 0069 4B160000 		.4byte	.LASF7
 2256 006d 02       		.uleb128 0x2
 2257 006e CC160000 		.4byte	.LASF8
 2258 0072 06       		.byte	0x6
 2259 0073 3F       		.byte	0x3f
 2260 0074 78000000 		.4byte	0x78
 2261 0078 03       		.uleb128 0x3
 2262 0079 04       		.byte	0x4
 2263 007a 05       		.byte	0x5
 2264 007b 0B030000 		.4byte	.LASF9
 2265 007f 02       		.uleb128 0x2
 2266 0080 C50B0000 		.4byte	.LASF10
 2267 0084 06       		.byte	0x6
 2268 0085 41       		.byte	0x41
 2269 0086 8A000000 		.4byte	0x8a
 2270 008a 03       		.uleb128 0x3
 2271 008b 04       		.byte	0x4
 2272 008c 07       		.byte	0x7
 2273 008d 280A0000 		.4byte	.LASF11
 2274 0091 03       		.uleb128 0x3
 2275 0092 08       		.byte	0x8
 2276 0093 05       		.byte	0x5
 2277 0094 E90B0000 		.4byte	.LASF12
 2278 0098 03       		.uleb128 0x3
 2279 0099 08       		.byte	0x8
 2280 009a 07       		.byte	0x7
 2281 009b 12110000 		.4byte	.LASF13
 2282 009f 04       		.uleb128 0x4
 2283 00a0 04       		.byte	0x4
 2284 00a1 05       		.byte	0x5
 2285 00a2 696E7400 		.ascii	"int\000"
 2286 00a6 03       		.uleb128 0x3
 2287 00a7 04       		.byte	0x4
 2288 00a8 07       		.byte	0x7
 2289 00a9 050D0000 		.4byte	.LASF14
 2290 00ad 02       		.uleb128 0x2
 2291 00ae 00000000 		.4byte	.LASF15
 2292 00b2 07       		.byte	0x7
 2293 00b3 14       		.byte	0x14
 2294 00b4 25000000 		.4byte	0x25
 2295 00b8 02       		.uleb128 0x2
 2296 00b9 18050000 		.4byte	.LASF16
 2297 00bd 07       		.byte	0x7
 2298 00be 18       		.byte	0x18
 2299 00bf 37000000 		.4byte	0x37
 2300 00c3 02       		.uleb128 0x2
 2301 00c4 EF130000 		.4byte	.LASF17
 2302 00c8 07       		.byte	0x7
 2303 00c9 20       		.byte	0x20
 2304 00ca 49000000 		.4byte	0x49
 2305 00ce 02       		.uleb128 0x2
 2306 00cf 39110000 		.4byte	.LASF18
 2307 00d3 07       		.byte	0x7
 2308 00d4 24       		.byte	0x24
 2309 00d5 5B000000 		.4byte	0x5b
 2310 00d9 02       		.uleb128 0x2
 2311 00da 9C000000 		.4byte	.LASF19
ARM GAS  C:\Users\strap\AppData\Local\Temp\ccUgAYbc.s 			page 77


 2312 00de 07       		.byte	0x7
 2313 00df 2C       		.byte	0x2c
 2314 00e0 6D000000 		.4byte	0x6d
 2315 00e4 02       		.uleb128 0x2
 2316 00e5 CC150000 		.4byte	.LASF20
 2317 00e9 07       		.byte	0x7
 2318 00ea 30       		.byte	0x30
 2319 00eb 7F000000 		.4byte	0x7f
 2320 00ef 02       		.uleb128 0x2
 2321 00f0 5E160000 		.4byte	.LASF21
 2322 00f4 08       		.byte	0x8
 2323 00f5 46       		.byte	0x46
 2324 00f6 C3000000 		.4byte	0xc3
 2325 00fa 05       		.uleb128 0x5
 2326 00fb 04       		.byte	0x4
 2327 00fc 02       		.uleb128 0x2
 2328 00fd EE150000 		.4byte	.LASF22
 2329 0101 08       		.byte	0x8
 2330 0102 EA       		.byte	0xea
 2331 0103 FA000000 		.4byte	0xfa
 2332 0107 06       		.uleb128 0x6
 2333 0108 47020000 		.4byte	.LASF23
 2334 010c 08       		.byte	0x8
 2335 010d 2101     		.2byte	0x121
 2336 010f FA000000 		.4byte	0xfa
 2337 0113 06       		.uleb128 0x6
 2338 0114 B8110000 		.4byte	.LASF24
 2339 0118 08       		.byte	0x8
 2340 0119 A901     		.2byte	0x1a9
 2341 011b FA000000 		.4byte	0xfa
 2342 011f 06       		.uleb128 0x6
 2343 0120 550A0000 		.4byte	.LASF25
 2344 0124 08       		.byte	0x8
 2345 0125 1202     		.2byte	0x212
 2346 0127 FA000000 		.4byte	0xfa
 2347 012b 07       		.uleb128 0x7
 2348 012c 01       		.byte	0x1
 2349 012d 42000000 		.4byte	0x42
 2350 0131 04       		.byte	0x4
 2351 0132 3B       		.byte	0x3b
 2352 0133 86010000 		.4byte	0x186
 2353 0137 08       		.uleb128 0x8
 2354 0138 920C0000 		.4byte	.LASF26
 2355 013c 00       		.byte	0
 2356 013d 08       		.uleb128 0x8
 2357 013e 0E0B0000 		.4byte	.LASF27
 2358 0142 00       		.byte	0
 2359 0143 08       		.uleb128 0x8
 2360 0144 F6110000 		.4byte	.LASF28
 2361 0148 19       		.byte	0x19
 2362 0149 08       		.uleb128 0x8
 2363 014a A8120000 		.4byte	.LASF29
 2364 014e 33       		.byte	0x33
 2365 014f 08       		.uleb128 0x8
 2366 0150 47130000 		.4byte	.LASF30
 2367 0154 4C       		.byte	0x4c
 2368 0155 08       		.uleb128 0x8
ARM GAS  C:\Users\strap\AppData\Local\Temp\ccUgAYbc.s 			page 78


 2369 0156 E5130000 		.4byte	.LASF31
 2370 015a 66       		.byte	0x66
 2371 015b 08       		.uleb128 0x8
 2372 015c 78140000 		.4byte	.LASF32
 2373 0160 7F       		.byte	0x7f
 2374 0161 08       		.uleb128 0x8
 2375 0162 87150000 		.4byte	.LASF33
 2376 0166 99       		.byte	0x99
 2377 0167 08       		.uleb128 0x8
 2378 0168 34160000 		.4byte	.LASF34
 2379 016c B2       		.byte	0xb2
 2380 016d 08       		.uleb128 0x8
 2381 016e FD160000 		.4byte	.LASF35
 2382 0172 CC       		.byte	0xcc
 2383 0173 08       		.uleb128 0x8
 2384 0174 DC170000 		.4byte	.LASF36
 2385 0178 E5       		.byte	0xe5
 2386 0179 08       		.uleb128 0x8
 2387 017a EC0E0000 		.4byte	.LASF37
 2388 017e FF       		.byte	0xff
 2389 017f 08       		.uleb128 0x8
 2390 0180 59100000 		.4byte	.LASF38
 2391 0184 FF       		.byte	0xff
 2392 0185 00       		.byte	0
 2393 0186 09       		.uleb128 0x9
 2394 0187 02       		.byte	0x2
 2395 0188 04       		.byte	0x4
 2396 0189 EA       		.byte	0xea
 2397 018a CB010000 		.4byte	0x1cb
 2398 018e 0A       		.uleb128 0xa
 2399 018f 82090000 		.4byte	.LASF39
 2400 0193 04       		.byte	0x4
 2401 0194 F0       		.byte	0xf0
 2402 0195 CE000000 		.4byte	0xce
 2403 0199 02       		.byte	0x2
 2404 019a 03       		.byte	0x3
 2405 019b 0D       		.byte	0xd
 2406 019c 00       		.byte	0
 2407 019d 0B       		.uleb128 0xb
 2408 019e 72656400 		.ascii	"red\000"
 2409 01a2 04       		.byte	0x4
 2410 01a3 F1       		.byte	0xf1
 2411 01a4 CE000000 		.4byte	0xce
 2412 01a8 02       		.byte	0x2
 2413 01a9 05       		.byte	0x5
 2414 01aa 08       		.byte	0x8
 2415 01ab 00       		.byte	0
 2416 01ac 0A       		.uleb128 0xa
 2417 01ad 6E050000 		.4byte	.LASF40
 2418 01b1 04       		.byte	0x4
 2419 01b2 F2       		.byte	0xf2
 2420 01b3 CE000000 		.4byte	0xce
 2421 01b7 02       		.byte	0x2
 2422 01b8 05       		.byte	0x5
 2423 01b9 03       		.byte	0x3
 2424 01ba 00       		.byte	0
 2425 01bb 0A       		.uleb128 0xa
ARM GAS  C:\Users\strap\AppData\Local\Temp\ccUgAYbc.s 			page 79


 2426 01bc 8A090000 		.4byte	.LASF41
 2427 01c0 04       		.byte	0x4
 2428 01c1 F3       		.byte	0xf3
 2429 01c2 CE000000 		.4byte	0xce
 2430 01c6 02       		.byte	0x2
 2431 01c7 03       		.byte	0x3
 2432 01c8 00       		.byte	0
 2433 01c9 00       		.byte	0
 2434 01ca 00       		.byte	0
 2435 01cb 0C       		.uleb128 0xc
 2436 01cc 02       		.byte	0x2
 2437 01cd 04       		.byte	0x4
 2438 01ce E9       		.byte	0xe9
 2439 01cf E9010000 		.4byte	0x1e9
 2440 01d3 0D       		.uleb128 0xd
 2441 01d4 636800   		.ascii	"ch\000"
 2442 01d7 04       		.byte	0x4
 2443 01d8 F5       		.byte	0xf5
 2444 01d9 86010000 		.4byte	0x186
 2445 01dd 0E       		.uleb128 0xe
 2446 01de 99120000 		.4byte	.LASF42
 2447 01e2 04       		.byte	0x4
 2448 01e3 F6       		.byte	0xf6
 2449 01e4 CE000000 		.4byte	0xce
 2450 01e8 00       		.byte	0
 2451 01e9 02       		.uleb128 0x2
 2452 01ea 7D130000 		.4byte	.LASF43
 2453 01ee 04       		.byte	0x4
 2454 01ef F7       		.byte	0xf7
 2455 01f0 CB010000 		.4byte	0x1cb
 2456 01f4 06       		.uleb128 0x6
 2457 01f5 67110000 		.4byte	.LASF44
 2458 01f9 04       		.byte	0x4
 2459 01fa 0D01     		.2byte	0x10d
 2460 01fc E9010000 		.4byte	0x1e9
 2461 0200 06       		.uleb128 0x6
 2462 0201 93000000 		.4byte	.LASF45
 2463 0205 04       		.byte	0x4
 2464 0206 2001     		.2byte	0x120
 2465 0208 B8000000 		.4byte	0xb8
 2466 020c 02       		.uleb128 0x2
 2467 020d 34000000 		.4byte	.LASF46
 2468 0211 09       		.byte	0x9
 2469 0212 D8       		.byte	0xd8
 2470 0213 A6000000 		.4byte	0xa6
 2471 0217 03       		.uleb128 0x3
 2472 0218 08       		.byte	0x8
 2473 0219 04       		.byte	0x4
 2474 021a FF0F0000 		.4byte	.LASF47
 2475 021e 03       		.uleb128 0x3
 2476 021f 04       		.byte	0x4
 2477 0220 07       		.byte	0x7
 2478 0221 41000000 		.4byte	.LASF48
 2479 0225 03       		.uleb128 0x3
 2480 0226 01       		.byte	0x1
 2481 0227 08       		.byte	0x8
 2482 0228 B6060000 		.4byte	.LASF49
ARM GAS  C:\Users\strap\AppData\Local\Temp\ccUgAYbc.s 			page 80


 2483 022c 0F       		.uleb128 0xf
 2484 022d 04       		.byte	0x4
 2485 022e 32020000 		.4byte	0x232
 2486 0232 10       		.uleb128 0x10
 2487 0233 25020000 		.4byte	0x225
 2488 0237 07       		.uleb128 0x7
 2489 0238 01       		.byte	0x1
 2490 0239 42000000 		.4byte	0x42
 2491 023d 0A       		.byte	0xa
 2492 023e 2F       		.byte	0x2f
 2493 023f 50020000 		.4byte	0x250
 2494 0243 08       		.uleb128 0x8
 2495 0244 3C020000 		.4byte	.LASF50
 2496 0248 00       		.byte	0
 2497 0249 08       		.uleb128 0x8
 2498 024a 42110000 		.4byte	.LASF51
 2499 024e 01       		.byte	0x1
 2500 024f 00       		.byte	0
 2501 0250 02       		.uleb128 0x2
 2502 0251 CF0F0000 		.4byte	.LASF52
 2503 0255 0A       		.byte	0xa
 2504 0256 34       		.byte	0x34
 2505 0257 B8000000 		.4byte	0xb8
 2506 025b 09       		.uleb128 0x9
 2507 025c 04       		.byte	0x4
 2508 025d 03       		.byte	0x3
 2509 025e 27       		.byte	0x27
 2510 025f 78020000 		.4byte	0x278
 2511 0263 11       		.uleb128 0x11
 2512 0264 7800     		.ascii	"x\000"
 2513 0266 03       		.byte	0x3
 2514 0267 28       		.byte	0x28
 2515 0268 EF000000 		.4byte	0xef
 2516 026c 00       		.byte	0
 2517 026d 11       		.uleb128 0x11
 2518 026e 7900     		.ascii	"y\000"
 2519 0270 03       		.byte	0x3
 2520 0271 29       		.byte	0x29
 2521 0272 EF000000 		.4byte	0xef
 2522 0276 02       		.byte	0x2
 2523 0277 00       		.byte	0
 2524 0278 02       		.uleb128 0x2
 2525 0279 D3000000 		.4byte	.LASF53
 2526 027d 03       		.byte	0x3
 2527 027e 2A       		.byte	0x2a
 2528 027f 5B020000 		.4byte	0x25b
 2529 0283 09       		.uleb128 0x9
 2530 0284 08       		.byte	0x8
 2531 0285 03       		.byte	0x3
 2532 0286 2D       		.byte	0x2d
 2533 0287 B8020000 		.4byte	0x2b8
 2534 028b 11       		.uleb128 0x11
 2535 028c 783100   		.ascii	"x1\000"
 2536 028f 03       		.byte	0x3
 2537 0290 2E       		.byte	0x2e
 2538 0291 EF000000 		.4byte	0xef
 2539 0295 00       		.byte	0
ARM GAS  C:\Users\strap\AppData\Local\Temp\ccUgAYbc.s 			page 81


 2540 0296 11       		.uleb128 0x11
 2541 0297 793100   		.ascii	"y1\000"
 2542 029a 03       		.byte	0x3
 2543 029b 2F       		.byte	0x2f
 2544 029c EF000000 		.4byte	0xef
 2545 02a0 02       		.byte	0x2
 2546 02a1 11       		.uleb128 0x11
 2547 02a2 783200   		.ascii	"x2\000"
 2548 02a5 03       		.byte	0x3
 2549 02a6 30       		.byte	0x30
 2550 02a7 EF000000 		.4byte	0xef
 2551 02ab 04       		.byte	0x4
 2552 02ac 11       		.uleb128 0x11
 2553 02ad 793200   		.ascii	"y2\000"
 2554 02b0 03       		.byte	0x3
 2555 02b1 31       		.byte	0x31
 2556 02b2 EF000000 		.4byte	0xef
 2557 02b6 06       		.byte	0x6
 2558 02b7 00       		.byte	0
 2559 02b8 02       		.uleb128 0x2
 2560 02b9 76080000 		.4byte	.LASF54
 2561 02bd 03       		.byte	0x3
 2562 02be 32       		.byte	0x32
 2563 02bf 83020000 		.4byte	0x283
 2564 02c3 02       		.uleb128 0x2
 2565 02c4 38010000 		.4byte	.LASF55
 2566 02c8 03       		.byte	0x3
 2567 02c9 4E       		.byte	0x4e
 2568 02ca B8000000 		.4byte	0xb8
 2569 02ce 07       		.uleb128 0x7
 2570 02cf 01       		.byte	0x1
 2571 02d0 42000000 		.4byte	0x42
 2572 02d4 05       		.byte	0x5
 2573 02d5 3B       		.byte	0x3b
 2574 02d6 9B030000 		.4byte	0x39b
 2575 02da 08       		.uleb128 0x8
 2576 02db 72110000 		.4byte	.LASF56
 2577 02df 00       		.byte	0
 2578 02e0 08       		.uleb128 0x8
 2579 02e1 C5050000 		.4byte	.LASF57
 2580 02e5 01       		.byte	0x1
 2581 02e6 08       		.uleb128 0x8
 2582 02e7 19150000 		.4byte	.LASF58
 2583 02eb 02       		.byte	0x2
 2584 02ec 08       		.uleb128 0x8
 2585 02ed 830E0000 		.4byte	.LASF59
 2586 02f1 03       		.byte	0x3
 2587 02f2 08       		.uleb128 0x8
 2588 02f3 00120000 		.4byte	.LASF60
 2589 02f7 04       		.byte	0x4
 2590 02f8 08       		.uleb128 0x8
 2591 02f9 310D0000 		.4byte	.LASF61
 2592 02fd 05       		.byte	0x5
 2593 02fe 08       		.uleb128 0x8
 2594 02ff A60E0000 		.4byte	.LASF62
 2595 0303 06       		.byte	0x6
 2596 0304 08       		.uleb128 0x8
ARM GAS  C:\Users\strap\AppData\Local\Temp\ccUgAYbc.s 			page 82


 2597 0305 B6010000 		.4byte	.LASF63
 2598 0309 07       		.byte	0x7
 2599 030a 08       		.uleb128 0x8
 2600 030b B40D0000 		.4byte	.LASF64
 2601 030f 08       		.byte	0x8
 2602 0310 08       		.uleb128 0x8
 2603 0311 FB0D0000 		.4byte	.LASF65
 2604 0315 09       		.byte	0x9
 2605 0316 08       		.uleb128 0x8
 2606 0317 6C0E0000 		.4byte	.LASF66
 2607 031b 0A       		.byte	0xa
 2608 031c 08       		.uleb128 0x8
 2609 031d A4000000 		.4byte	.LASF67
 2610 0321 0B       		.byte	0xb
 2611 0322 08       		.uleb128 0x8
 2612 0323 A00C0000 		.4byte	.LASF68
 2613 0327 0C       		.byte	0xc
 2614 0328 08       		.uleb128 0x8
 2615 0329 DC0C0000 		.4byte	.LASF69
 2616 032d 0D       		.byte	0xd
 2617 032e 08       		.uleb128 0x8
 2618 032f 790D0000 		.4byte	.LASF70
 2619 0333 0E       		.byte	0xe
 2620 0334 08       		.uleb128 0x8
 2621 0335 9E080000 		.4byte	.LASF71
 2622 0339 0F       		.byte	0xf
 2623 033a 08       		.uleb128 0x8
 2624 033b B4080000 		.4byte	.LASF72
 2625 033f 10       		.byte	0x10
 2626 0340 08       		.uleb128 0x8
 2627 0341 CA080000 		.4byte	.LASF73
 2628 0345 11       		.byte	0x11
 2629 0346 08       		.uleb128 0x8
 2630 0347 E0080000 		.4byte	.LASF74
 2631 034b 12       		.byte	0x12
 2632 034c 08       		.uleb128 0x8
 2633 034d F6080000 		.4byte	.LASF75
 2634 0351 13       		.byte	0x13
 2635 0352 08       		.uleb128 0x8
 2636 0353 97090000 		.4byte	.LASF76
 2637 0357 14       		.byte	0x14
 2638 0358 08       		.uleb128 0x8
 2639 0359 AD090000 		.4byte	.LASF77
 2640 035d 15       		.byte	0x15
 2641 035e 08       		.uleb128 0x8
 2642 035f C3090000 		.4byte	.LASF78
 2643 0363 16       		.byte	0x16
 2644 0364 08       		.uleb128 0x8
 2645 0365 D9090000 		.4byte	.LASF79
 2646 0369 17       		.byte	0x17
 2647 036a 08       		.uleb128 0x8
 2648 036b 070F0000 		.4byte	.LASF80
 2649 036f 18       		.byte	0x18
 2650 0370 08       		.uleb128 0x8
 2651 0371 200F0000 		.4byte	.LASF81
 2652 0375 19       		.byte	0x19
 2653 0376 08       		.uleb128 0x8
ARM GAS  C:\Users\strap\AppData\Local\Temp\ccUgAYbc.s 			page 83


 2654 0377 390F0000 		.4byte	.LASF82
 2655 037b 1A       		.byte	0x1a
 2656 037c 08       		.uleb128 0x8
 2657 037d 520F0000 		.4byte	.LASF83
 2658 0381 1B       		.byte	0x1b
 2659 0382 08       		.uleb128 0x8
 2660 0383 6B0F0000 		.4byte	.LASF84
 2661 0387 1C       		.byte	0x1c
 2662 0388 08       		.uleb128 0x8
 2663 0389 840F0000 		.4byte	.LASF85
 2664 038d 1D       		.byte	0x1d
 2665 038e 08       		.uleb128 0x8
 2666 038f 9D0F0000 		.4byte	.LASF86
 2667 0393 1E       		.byte	0x1e
 2668 0394 08       		.uleb128 0x8
 2669 0395 B60F0000 		.4byte	.LASF87
 2670 0399 1F       		.byte	0x1f
 2671 039a 00       		.byte	0
 2672 039b 02       		.uleb128 0x2
 2673 039c 430A0000 		.4byte	.LASF88
 2674 03a0 05       		.byte	0x5
 2675 03a1 66       		.byte	0x66
 2676 03a2 B8000000 		.4byte	0xb8
 2677 03a6 09       		.uleb128 0x9
 2678 03a7 04       		.byte	0x4
 2679 03a8 05       		.byte	0x5
 2680 03a9 7E       		.byte	0x7e
 2681 03aa F5030000 		.4byte	0x3f5
 2682 03ae 0B       		.uleb128 0xb
 2683 03af 636600   		.ascii	"cf\000"
 2684 03b2 05       		.byte	0x5
 2685 03b3 80       		.byte	0x80
 2686 03b4 E4000000 		.4byte	0xe4
 2687 03b8 04       		.byte	0x4
 2688 03b9 05       		.byte	0x5
 2689 03ba 1B       		.byte	0x1b
 2690 03bb 00       		.byte	0
 2691 03bc 0A       		.uleb128 0xa
 2692 03bd 9F160000 		.4byte	.LASF89
 2693 03c1 05       		.byte	0x5
 2694 03c2 81       		.byte	0x81
 2695 03c3 E4000000 		.4byte	0xe4
 2696 03c7 04       		.byte	0x4
 2697 03c8 03       		.byte	0x3
 2698 03c9 18       		.byte	0x18
 2699 03ca 00       		.byte	0
 2700 03cb 0A       		.uleb128 0xa
 2701 03cc 20160000 		.4byte	.LASF90
 2702 03d0 05       		.byte	0x5
 2703 03d1 84       		.byte	0x84
 2704 03d2 E4000000 		.4byte	0xe4
 2705 03d6 04       		.byte	0x4
 2706 03d7 02       		.byte	0x2
 2707 03d8 16       		.byte	0x16
 2708 03d9 00       		.byte	0
 2709 03da 0B       		.uleb128 0xb
 2710 03db 7700     		.ascii	"w\000"
ARM GAS  C:\Users\strap\AppData\Local\Temp\ccUgAYbc.s 			page 84


 2711 03dd 05       		.byte	0x5
 2712 03de 86       		.byte	0x86
 2713 03df E4000000 		.4byte	0xe4
 2714 03e3 04       		.byte	0x4
 2715 03e4 0B       		.byte	0xb
 2716 03e5 0B       		.byte	0xb
 2717 03e6 00       		.byte	0
 2718 03e7 0B       		.uleb128 0xb
 2719 03e8 6800     		.ascii	"h\000"
 2720 03ea 05       		.byte	0x5
 2721 03eb 87       		.byte	0x87
 2722 03ec E4000000 		.4byte	0xe4
 2723 03f0 04       		.byte	0x4
 2724 03f1 0B       		.byte	0xb
 2725 03f2 00       		.byte	0
 2726 03f3 00       		.byte	0
 2727 03f4 00       		.byte	0
 2728 03f5 02       		.uleb128 0x2
 2729 03f6 ED000000 		.4byte	.LASF91
 2730 03fa 05       		.byte	0x5
 2731 03fb 88       		.byte	0x88
 2732 03fc A6030000 		.4byte	0x3a6
 2733 0400 09       		.uleb128 0x9
 2734 0401 0C       		.byte	0xc
 2735 0402 05       		.byte	0x5
 2736 0403 8D       		.byte	0x8d
 2737 0404 2D040000 		.4byte	0x42d
 2738 0408 12       		.uleb128 0x12
 2739 0409 08060000 		.4byte	.LASF92
 2740 040d 05       		.byte	0x5
 2741 040e 8E       		.byte	0x8e
 2742 040f F5030000 		.4byte	0x3f5
 2743 0413 00       		.byte	0
 2744 0414 12       		.uleb128 0x12
 2745 0415 240B0000 		.4byte	.LASF93
 2746 0419 05       		.byte	0x5
 2747 041a 8F       		.byte	0x8f
 2748 041b E4000000 		.4byte	0xe4
 2749 041f 04       		.byte	0x4
 2750 0420 12       		.uleb128 0x12
 2751 0421 70170000 		.4byte	.LASF94
 2752 0425 05       		.byte	0x5
 2753 0426 90       		.byte	0x90
 2754 0427 2D040000 		.4byte	0x42d
 2755 042b 08       		.byte	0x8
 2756 042c 00       		.byte	0
 2757 042d 0F       		.uleb128 0xf
 2758 042e 04       		.byte	0x4
 2759 042f 33040000 		.4byte	0x433
 2760 0433 10       		.uleb128 0x10
 2761 0434 B8000000 		.4byte	0xb8
 2762 0438 02       		.uleb128 0x2
 2763 0439 E9110000 		.4byte	.LASF95
 2764 043d 05       		.byte	0x5
 2765 043e 91       		.byte	0x91
 2766 043f 00040000 		.4byte	0x400
 2767 0443 09       		.uleb128 0x9
ARM GAS  C:\Users\strap\AppData\Local\Temp\ccUgAYbc.s 			page 85


 2768 0444 14       		.byte	0x14
 2769 0445 05       		.byte	0x5
 2770 0446 94       		.byte	0x94
 2771 0447 C3040000 		.4byte	0x4c3
 2772 044b 11       		.uleb128 0x11
 2773 044c 73726300 		.ascii	"src\000"
 2774 0450 05       		.byte	0x5
 2775 0451 95       		.byte	0x95
 2776 0452 C3040000 		.4byte	0x4c3
 2777 0456 00       		.byte	0
 2778 0457 12       		.uleb128 0x12
 2779 0458 13130000 		.4byte	.LASF96
 2780 045c 05       		.byte	0x5
 2781 045d 96       		.byte	0x96
 2782 045e EF000000 		.4byte	0xef
 2783 0462 04       		.byte	0x4
 2784 0463 12       		.uleb128 0x12
 2785 0464 FC120000 		.4byte	.LASF97
 2786 0468 05       		.byte	0x5
 2787 0469 97       		.byte	0x97
 2788 046a EF000000 		.4byte	0xef
 2789 046e 06       		.byte	0x6
 2790 046f 12       		.uleb128 0x12
 2791 0470 3A070000 		.4byte	.LASF98
 2792 0474 05       		.byte	0x5
 2793 0475 98       		.byte	0x98
 2794 0476 EF000000 		.4byte	0xef
 2795 047a 08       		.byte	0x8
 2796 047b 12       		.uleb128 0x12
 2797 047c 42070000 		.4byte	.LASF99
 2798 0480 05       		.byte	0x5
 2799 0481 99       		.byte	0x99
 2800 0482 EF000000 		.4byte	0xef
 2801 0486 0A       		.byte	0xa
 2802 0487 12       		.uleb128 0x12
 2803 0488 3C0B0000 		.4byte	.LASF100
 2804 048c 05       		.byte	0x5
 2805 048d 9A       		.byte	0x9a
 2806 048e C3000000 		.4byte	0xc3
 2807 0492 0C       		.byte	0xc
 2808 0493 12       		.uleb128 0x12
 2809 0494 170B0000 		.4byte	.LASF101
 2810 0498 05       		.byte	0x5
 2811 0499 9B       		.byte	0x9b
 2812 049a CE000000 		.4byte	0xce
 2813 049e 0E       		.byte	0xe
 2814 049f 12       		.uleb128 0x12
 2815 04a0 B2120000 		.4byte	.LASF102
 2816 04a4 05       		.byte	0x5
 2817 04a5 9C       		.byte	0x9c
 2818 04a6 F4010000 		.4byte	0x1f4
 2819 04aa 10       		.byte	0x10
 2820 04ab 11       		.uleb128 0x11
 2821 04ac 636600   		.ascii	"cf\000"
 2822 04af 05       		.byte	0x5
 2823 04b0 9D       		.byte	0x9d
 2824 04b1 9B030000 		.4byte	0x39b
ARM GAS  C:\Users\strap\AppData\Local\Temp\ccUgAYbc.s 			page 86


 2825 04b5 12       		.byte	0x12
 2826 04b6 12       		.uleb128 0x12
 2827 04b7 C80E0000 		.4byte	.LASF103
 2828 04bb 05       		.byte	0x5
 2829 04bc 9E       		.byte	0x9e
 2830 04bd CA040000 		.4byte	0x4ca
 2831 04c1 13       		.byte	0x13
 2832 04c2 00       		.byte	0
 2833 04c3 0F       		.uleb128 0xf
 2834 04c4 04       		.byte	0x4
 2835 04c5 C9040000 		.4byte	0x4c9
 2836 04c9 13       		.uleb128 0x13
 2837 04ca 03       		.uleb128 0x3
 2838 04cb 01       		.byte	0x1
 2839 04cc 02       		.byte	0x2
 2840 04cd 2F060000 		.4byte	.LASF104
 2841 04d1 09       		.uleb128 0x9
 2842 04d2 04       		.byte	0x4
 2843 04d3 05       		.byte	0x5
 2844 04d4 A1       		.byte	0xa1
 2845 04d5 F2040000 		.4byte	0x4f2
 2846 04d9 12       		.uleb128 0x12
 2847 04da B2120000 		.4byte	.LASF102
 2848 04de 05       		.byte	0x5
 2849 04df A2       		.byte	0xa2
 2850 04e0 F4010000 		.4byte	0x1f4
 2851 04e4 00       		.byte	0
 2852 04e5 11       		.uleb128 0x11
 2853 04e6 6F706100 		.ascii	"opa\000"
 2854 04ea 05       		.byte	0x5
 2855 04eb A3       		.byte	0xa3
 2856 04ec 00020000 		.4byte	0x200
 2857 04f0 02       		.byte	0x2
 2858 04f1 00       		.byte	0
 2859 04f2 09       		.uleb128 0x9
 2860 04f3 34       		.byte	0x34
 2861 04f4 05       		.byte	0x5
 2862 04f5 A7       		.byte	0xa7
 2863 04f6 B6050000 		.4byte	0x5b6
 2864 04fa 12       		.uleb128 0x12
 2865 04fb 60090000 		.4byte	.LASF105
 2866 04ff 05       		.byte	0x5
 2867 0500 A8       		.byte	0xa8
 2868 0501 38040000 		.4byte	0x438
 2869 0505 00       		.byte	0
 2870 0506 12       		.uleb128 0x12
 2871 0507 C00C0000 		.4byte	.LASF106
 2872 050b 05       		.byte	0x5
 2873 050c A9       		.byte	0xa9
 2874 050d D9000000 		.4byte	0xd9
 2875 0511 0C       		.byte	0xc
 2876 0512 12       		.uleb128 0x12
 2877 0513 76090000 		.4byte	.LASF107
 2878 0517 05       		.byte	0x5
 2879 0518 AA       		.byte	0xaa
 2880 0519 D9000000 		.4byte	0xd9
 2881 051d 10       		.byte	0x10
ARM GAS  C:\Users\strap\AppData\Local\Temp\ccUgAYbc.s 			page 87


 2882 051e 12       		.uleb128 0x12
 2883 051f D5150000 		.4byte	.LASF108
 2884 0523 05       		.byte	0x5
 2885 0524 AB       		.byte	0xab
 2886 0525 D9000000 		.4byte	0xd9
 2887 0529 14       		.byte	0x14
 2888 052a 12       		.uleb128 0x12
 2889 052b 68020000 		.4byte	.LASF109
 2890 052f 05       		.byte	0x5
 2891 0530 AC       		.byte	0xac
 2892 0531 D9000000 		.4byte	0xd9
 2893 0535 18       		.byte	0x18
 2894 0536 0A       		.uleb128 0xa
 2895 0537 960D0000 		.4byte	.LASF110
 2896 053b 05       		.byte	0x5
 2897 053c AE       		.byte	0xae
 2898 053d B8000000 		.4byte	0xb8
 2899 0541 01       		.byte	0x1
 2900 0542 01       		.byte	0x1
 2901 0543 07       		.byte	0x7
 2902 0544 1C       		.byte	0x1c
 2903 0545 0A       		.uleb128 0xa
 2904 0546 55110000 		.4byte	.LASF111
 2905 054a 05       		.byte	0x5
 2906 054b AF       		.byte	0xaf
 2907 054c B8000000 		.4byte	0xb8
 2908 0550 01       		.byte	0x1
 2909 0551 01       		.byte	0x1
 2910 0552 06       		.byte	0x6
 2911 0553 1C       		.byte	0x1c
 2912 0554 0A       		.uleb128 0xa
 2913 0555 7D120000 		.4byte	.LASF112
 2914 0559 05       		.byte	0x5
 2915 055a B0       		.byte	0xb0
 2916 055b B8000000 		.4byte	0xb8
 2917 055f 01       		.byte	0x1
 2918 0560 01       		.byte	0x1
 2919 0561 05       		.byte	0x5
 2920 0562 1C       		.byte	0x1c
 2921 0563 12       		.uleb128 0x12
 2922 0564 40050000 		.4byte	.LASF113
 2923 0568 05       		.byte	0x5
 2924 0569 B2       		.byte	0xb2
 2925 056a E4000000 		.4byte	0xe4
 2926 056e 20       		.byte	0x20
 2927 056f 11       		.uleb128 0x11
 2928 0570 787300   		.ascii	"xs\000"
 2929 0573 05       		.byte	0x5
 2930 0574 B5       		.byte	0xb5
 2931 0575 EF000000 		.4byte	0xef
 2932 0579 24       		.byte	0x24
 2933 057a 11       		.uleb128 0x11
 2934 057b 797300   		.ascii	"ys\000"
 2935 057e 05       		.byte	0x5
 2936 057f B6       		.byte	0xb6
 2937 0580 EF000000 		.4byte	0xef
 2938 0584 26       		.byte	0x26
ARM GAS  C:\Users\strap\AppData\Local\Temp\ccUgAYbc.s 			page 88


 2939 0585 12       		.uleb128 0x12
 2940 0586 15140000 		.4byte	.LASF114
 2941 058a 05       		.byte	0x5
 2942 058b B7       		.byte	0xb7
 2943 058c EF000000 		.4byte	0xef
 2944 0590 28       		.byte	0x28
 2945 0591 12       		.uleb128 0x12
 2946 0592 4E0B0000 		.4byte	.LASF115
 2947 0596 05       		.byte	0x5
 2948 0597 B8       		.byte	0xb8
 2949 0598 EF000000 		.4byte	0xef
 2950 059c 2A       		.byte	0x2a
 2951 059d 11       		.uleb128 0x11
 2952 059e 70786900 		.ascii	"pxi\000"
 2953 05a2 05       		.byte	0x5
 2954 05a3 B9       		.byte	0xb9
 2955 05a4 E4000000 		.4byte	0xe4
 2956 05a8 2C       		.byte	0x2c
 2957 05a9 12       		.uleb128 0x12
 2958 05aa 58090000 		.4byte	.LASF116
 2959 05ae 05       		.byte	0x5
 2960 05af BA       		.byte	0xba
 2961 05b0 B8000000 		.4byte	0xb8
 2962 05b4 30       		.byte	0x30
 2963 05b5 00       		.byte	0
 2964 05b6 09       		.uleb128 0x9
 2965 05b7 4C       		.byte	0x4c
 2966 05b8 05       		.byte	0x5
 2967 05b9 93       		.byte	0x93
 2968 05ba E3050000 		.4byte	0x5e3
 2969 05be 11       		.uleb128 0x11
 2970 05bf 63666700 		.ascii	"cfg\000"
 2971 05c3 05       		.byte	0x5
 2972 05c4 9F       		.byte	0x9f
 2973 05c5 43040000 		.4byte	0x443
 2974 05c9 00       		.byte	0
 2975 05ca 11       		.uleb128 0x11
 2976 05cb 72657300 		.ascii	"res\000"
 2977 05cf 05       		.byte	0x5
 2978 05d0 A4       		.byte	0xa4
 2979 05d1 D1040000 		.4byte	0x4d1
 2980 05d5 14       		.byte	0x14
 2981 05d6 11       		.uleb128 0x11
 2982 05d7 746D7000 		.ascii	"tmp\000"
 2983 05db 05       		.byte	0x5
 2984 05dc BB       		.byte	0xbb
 2985 05dd F2040000 		.4byte	0x4f2
 2986 05e1 18       		.byte	0x18
 2987 05e2 00       		.byte	0
 2988 05e3 02       		.uleb128 0x2
 2989 05e4 16070000 		.4byte	.LASF117
 2990 05e8 05       		.byte	0x5
 2991 05e9 BC       		.byte	0xbc
 2992 05ea B6050000 		.4byte	0x5b6
 2993 05ee 09       		.uleb128 0x9
 2994 05ef 0C       		.byte	0xc
 2995 05f0 0B       		.byte	0xb
ARM GAS  C:\Users\strap\AppData\Local\Temp\ccUgAYbc.s 			page 89


 2996 05f1 2A       		.byte	0x2a
 2997 05f2 3F060000 		.4byte	0x63f
 2998 05f6 12       		.uleb128 0x12
 2999 05f7 3B000000 		.4byte	.LASF118
 3000 05fb 0B       		.byte	0xb
 3001 05fc 2B       		.byte	0x2b
 3002 05fd CE000000 		.4byte	0xce
 3003 0601 00       		.byte	0
 3004 0602 12       		.uleb128 0x12
 3005 0603 8A130000 		.4byte	.LASF119
 3006 0607 0B       		.byte	0xb
 3007 0608 2C       		.byte	0x2c
 3008 0609 CE000000 		.4byte	0xce
 3009 060d 02       		.byte	0x2
 3010 060e 12       		.uleb128 0x12
 3011 060f 86160000 		.4byte	.LASF120
 3012 0613 0B       		.byte	0xb
 3013 0614 2D       		.byte	0x2d
 3014 0615 CE000000 		.4byte	0xce
 3015 0619 04       		.byte	0x4
 3016 061a 12       		.uleb128 0x12
 3017 061b DB050000 		.4byte	.LASF121
 3018 061f 0B       		.byte	0xb
 3019 0620 2E       		.byte	0x2e
 3020 0621 C3000000 		.4byte	0xc3
 3021 0625 06       		.byte	0x6
 3022 0626 12       		.uleb128 0x12
 3023 0627 E1050000 		.4byte	.LASF122
 3024 062b 0B       		.byte	0xb
 3025 062c 2F       		.byte	0x2f
 3026 062d C3000000 		.4byte	0xc3
 3027 0631 08       		.byte	0x8
 3028 0632 11       		.uleb128 0x11
 3029 0633 62707000 		.ascii	"bpp\000"
 3030 0637 0B       		.byte	0xb
 3031 0638 30       		.byte	0x30
 3032 0639 B8000000 		.4byte	0xb8
 3033 063d 0A       		.byte	0xa
 3034 063e 00       		.byte	0
 3035 063f 02       		.uleb128 0x2
 3036 0640 4A0E0000 		.4byte	.LASF123
 3037 0644 0B       		.byte	0xb
 3038 0645 31       		.byte	0x31
 3039 0646 EE050000 		.4byte	0x5ee
 3040 064a 14       		.uleb128 0x14
 3041 064b 75170000 		.4byte	.LASF178
 3042 064f 18       		.byte	0x18
 3043 0650 0B       		.byte	0xb
 3044 0651 3F       		.byte	0x3f
 3045 0652 C6060000 		.4byte	0x6c6
 3046 0656 12       		.uleb128 0x12
 3047 0657 BE160000 		.4byte	.LASF124
 3048 065b 0B       		.byte	0xb
 3049 065c 41       		.byte	0x41
 3050 065d F5060000 		.4byte	0x6f5
 3051 0661 00       		.byte	0
 3052 0662 12       		.uleb128 0x12
ARM GAS  C:\Users\strap\AppData\Local\Temp\ccUgAYbc.s 			page 90


 3053 0663 49050000 		.4byte	.LASF125
 3054 0667 0B       		.byte	0xb
 3055 0668 44       		.byte	0x44
 3056 0669 0F070000 		.4byte	0x70f
 3057 066d 04       		.byte	0x4
 3058 066e 12       		.uleb128 0x12
 3059 066f 0D010000 		.4byte	.LASF126
 3060 0673 0B       		.byte	0xb
 3061 0674 47       		.byte	0x47
 3062 0675 EF000000 		.4byte	0xef
 3063 0679 08       		.byte	0x8
 3064 067a 12       		.uleb128 0x12
 3065 067b A4130000 		.4byte	.LASF127
 3066 067f 0B       		.byte	0xb
 3067 0680 48       		.byte	0x48
 3068 0681 EF000000 		.4byte	0xef
 3069 0685 0A       		.byte	0xa
 3070 0686 0A       		.uleb128 0xa
 3071 0687 53100000 		.4byte	.LASF128
 3072 068b 0B       		.byte	0xb
 3073 068c 49       		.byte	0x49
 3074 068d B8000000 		.4byte	0xb8
 3075 0691 01       		.byte	0x1
 3076 0692 02       		.byte	0x2
 3077 0693 06       		.byte	0x6
 3078 0694 0C       		.byte	0xc
 3079 0695 12       		.uleb128 0x12
 3080 0696 E9060000 		.4byte	.LASF129
 3081 069a 0B       		.byte	0xb
 3082 069b 4B       		.byte	0x4b
 3083 069c AD000000 		.4byte	0xad
 3084 06a0 0D       		.byte	0xd
 3085 06a1 12       		.uleb128 0x12
 3086 06a2 780C0000 		.4byte	.LASF130
 3087 06a6 0B       		.byte	0xb
 3088 06a7 4C       		.byte	0x4c
 3089 06a8 AD000000 		.4byte	0xad
 3090 06ac 0E       		.byte	0xe
 3091 06ad 11       		.uleb128 0x11
 3092 06ae 64736300 		.ascii	"dsc\000"
 3093 06b2 0B       		.byte	0xb
 3094 06b3 4E       		.byte	0x4e
 3095 06b4 FA000000 		.4byte	0xfa
 3096 06b8 10       		.byte	0x10
 3097 06b9 12       		.uleb128 0x12
 3098 06ba 95160000 		.4byte	.LASF131
 3099 06be 0B       		.byte	0xb
 3100 06bf 50       		.byte	0x50
 3101 06c0 13010000 		.4byte	0x113
 3102 06c4 14       		.byte	0x14
 3103 06c5 00       		.byte	0
 3104 06c6 15       		.uleb128 0x15
 3105 06c7 CA040000 		.4byte	0x4ca
 3106 06cb E4060000 		.4byte	0x6e4
 3107 06cf 16       		.uleb128 0x16
 3108 06d0 E4060000 		.4byte	0x6e4
 3109 06d4 16       		.uleb128 0x16
ARM GAS  C:\Users\strap\AppData\Local\Temp\ccUgAYbc.s 			page 91


 3110 06d5 EF060000 		.4byte	0x6ef
 3111 06d9 16       		.uleb128 0x16
 3112 06da E4000000 		.4byte	0xe4
 3113 06de 16       		.uleb128 0x16
 3114 06df E4000000 		.4byte	0xe4
 3115 06e3 00       		.byte	0
 3116 06e4 0F       		.uleb128 0xf
 3117 06e5 04       		.byte	0x4
 3118 06e6 EA060000 		.4byte	0x6ea
 3119 06ea 10       		.uleb128 0x10
 3120 06eb 4A060000 		.4byte	0x64a
 3121 06ef 0F       		.uleb128 0xf
 3122 06f0 04       		.byte	0x4
 3123 06f1 3F060000 		.4byte	0x63f
 3124 06f5 0F       		.uleb128 0xf
 3125 06f6 04       		.byte	0x4
 3126 06f7 C6060000 		.4byte	0x6c6
 3127 06fb 15       		.uleb128 0x15
 3128 06fc 2D040000 		.4byte	0x42d
 3129 0700 0F070000 		.4byte	0x70f
 3130 0704 16       		.uleb128 0x16
 3131 0705 E4060000 		.4byte	0x6e4
 3132 0709 16       		.uleb128 0x16
 3133 070a E4000000 		.4byte	0xe4
 3134 070e 00       		.byte	0
 3135 070f 0F       		.uleb128 0xf
 3136 0710 04       		.byte	0x4
 3137 0711 FB060000 		.4byte	0x6fb
 3138 0715 02       		.uleb128 0x2
 3139 0716 16160000 		.4byte	.LASF132
 3140 071a 0B       		.byte	0xb
 3141 071b 54       		.byte	0x54
 3142 071c 4A060000 		.4byte	0x64a
 3143 0720 07       		.uleb128 0x7
 3144 0721 01       		.byte	0x1
 3145 0722 42000000 		.4byte	0x42
 3146 0726 0C       		.byte	0xc
 3147 0727 1E       		.byte	0x1e
 3148 0728 45070000 		.4byte	0x745
 3149 072c 08       		.uleb128 0x8
 3150 072d 69160000 		.4byte	.LASF133
 3151 0731 00       		.byte	0
 3152 0732 08       		.uleb128 0x8
 3153 0733 18000000 		.4byte	.LASF134
 3154 0737 01       		.byte	0x1
 3155 0738 08       		.uleb128 0x8
 3156 0739 990A0000 		.4byte	.LASF135
 3157 073d 02       		.byte	0x2
 3158 073e 08       		.uleb128 0x8
 3159 073f 29100000 		.4byte	.LASF136
 3160 0743 03       		.byte	0x3
 3161 0744 00       		.byte	0
 3162 0745 02       		.uleb128 0x2
 3163 0746 CD010000 		.4byte	.LASF137
 3164 074a 0C       		.byte	0xc
 3165 074b 25       		.byte	0x25
 3166 074c B8000000 		.4byte	0xb8
ARM GAS  C:\Users\strap\AppData\Local\Temp\ccUgAYbc.s 			page 92


 3167 0750 0F       		.uleb128 0xf
 3168 0751 04       		.byte	0x4
 3169 0752 00020000 		.4byte	0x200
 3170 0756 02       		.uleb128 0x2
 3171 0757 19010000 		.4byte	.LASF138
 3172 075b 0D       		.byte	0xd
 3173 075c 23       		.byte	0x23
 3174 075d B8000000 		.4byte	0xb8
 3175 0761 02       		.uleb128 0x2
 3176 0762 EF160000 		.4byte	.LASF139
 3177 0766 0E       		.byte	0xe
 3178 0767 48       		.byte	0x48
 3179 0768 B8000000 		.4byte	0xb8
 3180 076c 02       		.uleb128 0x2
 3181 076d D90B0000 		.4byte	.LASF140
 3182 0771 0E       		.byte	0xe
 3183 0772 52       		.byte	0x52
 3184 0773 B8000000 		.4byte	0xb8
 3185 0777 09       		.uleb128 0x9
 3186 0778 04       		.byte	0x4
 3187 0779 0E       		.byte	0xe
 3188 077a D3       		.byte	0xd3
 3189 077b 8C070000 		.4byte	0x78c
 3190 077f 11       		.uleb128 0x11
 3191 0780 6D617000 		.ascii	"map\000"
 3192 0784 0E       		.byte	0xe
 3193 0785 D4       		.byte	0xd4
 3194 0786 8C070000 		.4byte	0x78c
 3195 078a 00       		.byte	0
 3196 078b 00       		.byte	0
 3197 078c 0F       		.uleb128 0xf
 3198 078d 04       		.byte	0x4
 3199 078e B8000000 		.4byte	0xb8
 3200 0792 02       		.uleb128 0x2
 3201 0793 010A0000 		.4byte	.LASF141
 3202 0797 0E       		.byte	0xe
 3203 0798 D8       		.byte	0xd8
 3204 0799 77070000 		.4byte	0x777
 3205 079d 02       		.uleb128 0x2
 3206 079e DD040000 		.4byte	.LASF142
 3207 07a2 0E       		.byte	0xe
 3208 07a3 DA       		.byte	0xda
 3209 07a4 C3000000 		.4byte	0xc3
 3210 07a8 09       		.uleb128 0x9
 3211 07a9 08       		.byte	0x8
 3212 07aa 0E       		.byte	0xe
 3213 07ab DC       		.byte	0xdc
 3214 07ac 52090000 		.4byte	0x952
 3215 07b0 12       		.uleb128 0x12
 3216 07b1 83040000 		.4byte	.LASF143
 3217 07b5 0E       		.byte	0xe
 3218 07b6 DD       		.byte	0xdd
 3219 07b7 52090000 		.4byte	0x952
 3220 07bb 00       		.byte	0
 3221 07bc 0A       		.uleb128 0xa
 3222 07bd EC040000 		.4byte	.LASF144
 3223 07c1 0E       		.byte	0xe
ARM GAS  C:\Users\strap\AppData\Local\Temp\ccUgAYbc.s 			page 93


 3224 07c2 E1       		.byte	0xe1
 3225 07c3 E4000000 		.4byte	0xe4
 3226 07c7 04       		.byte	0x4
 3227 07c8 06       		.byte	0x6
 3228 07c9 1A       		.byte	0x1a
 3229 07ca 04       		.byte	0x4
 3230 07cb 0A       		.uleb128 0xa
 3231 07cc 66100000 		.4byte	.LASF145
 3232 07d0 0E       		.byte	0xe
 3233 07d1 E2       		.byte	0xe2
 3234 07d2 E4000000 		.4byte	0xe4
 3235 07d6 04       		.byte	0x4
 3236 07d7 01       		.byte	0x1
 3237 07d8 19       		.byte	0x19
 3238 07d9 04       		.byte	0x4
 3239 07da 0A       		.uleb128 0xa
 3240 07db 46170000 		.4byte	.LASF146
 3241 07df 0E       		.byte	0xe
 3242 07e0 E3       		.byte	0xe3
 3243 07e1 E4000000 		.4byte	0xe4
 3244 07e5 04       		.byte	0x4
 3245 07e6 01       		.byte	0x1
 3246 07e7 18       		.byte	0x18
 3247 07e8 04       		.byte	0x4
 3248 07e9 0A       		.uleb128 0xa
 3249 07ea B50C0000 		.4byte	.LASF147
 3250 07ee 0E       		.byte	0xe
 3251 07ef E4       		.byte	0xe4
 3252 07f0 E4000000 		.4byte	0xe4
 3253 07f4 04       		.byte	0x4
 3254 07f5 01       		.byte	0x1
 3255 07f6 17       		.byte	0x17
 3256 07f7 04       		.byte	0x4
 3257 07f8 0A       		.uleb128 0xa
 3258 07f9 3E160000 		.4byte	.LASF148
 3259 07fd 0E       		.byte	0xe
 3260 07fe E5       		.byte	0xe5
 3261 07ff E4000000 		.4byte	0xe4
 3262 0803 04       		.byte	0x4
 3263 0804 01       		.byte	0x1
 3264 0805 16       		.byte	0x16
 3265 0806 04       		.byte	0x4
 3266 0807 0A       		.uleb128 0xa
 3267 0808 F6040000 		.4byte	.LASF149
 3268 080c 0E       		.byte	0xe
 3269 080d E6       		.byte	0xe6
 3270 080e E4000000 		.4byte	0xe4
 3271 0812 04       		.byte	0x4
 3272 0813 01       		.byte	0x1
 3273 0814 15       		.byte	0x15
 3274 0815 04       		.byte	0x4
 3275 0816 0A       		.uleb128 0xa
 3276 0817 AE030000 		.4byte	.LASF150
 3277 081b 0E       		.byte	0xe
 3278 081c E7       		.byte	0xe7
 3279 081d E4000000 		.4byte	0xe4
 3280 0821 04       		.byte	0x4
ARM GAS  C:\Users\strap\AppData\Local\Temp\ccUgAYbc.s 			page 94


 3281 0822 01       		.byte	0x1
 3282 0823 14       		.byte	0x14
 3283 0824 04       		.byte	0x4
 3284 0825 0A       		.uleb128 0xa
 3285 0826 3E0E0000 		.4byte	.LASF151
 3286 082a 0E       		.byte	0xe
 3287 082b E9       		.byte	0xe9
 3288 082c E4000000 		.4byte	0xe4
 3289 0830 04       		.byte	0x4
 3290 0831 01       		.byte	0x1
 3291 0832 13       		.byte	0x13
 3292 0833 04       		.byte	0x4
 3293 0834 0A       		.uleb128 0xa
 3294 0835 19100000 		.4byte	.LASF152
 3295 0839 0E       		.byte	0xe
 3296 083a EA       		.byte	0xea
 3297 083b E4000000 		.4byte	0xe4
 3298 083f 04       		.byte	0x4
 3299 0840 01       		.byte	0x1
 3300 0841 12       		.byte	0x12
 3301 0842 04       		.byte	0x4
 3302 0843 0A       		.uleb128 0xa
 3303 0844 7D010000 		.4byte	.LASF153
 3304 0848 0E       		.byte	0xe
 3305 0849 EB       		.byte	0xeb
 3306 084a E4000000 		.4byte	0xe4
 3307 084e 04       		.byte	0x4
 3308 084f 01       		.byte	0x1
 3309 0850 11       		.byte	0x11
 3310 0851 04       		.byte	0x4
 3311 0852 0A       		.uleb128 0xa
 3312 0853 CE030000 		.4byte	.LASF154
 3313 0857 0E       		.byte	0xe
 3314 0858 EC       		.byte	0xec
 3315 0859 E4000000 		.4byte	0xe4
 3316 085d 04       		.byte	0x4
 3317 085e 01       		.byte	0x1
 3318 085f 10       		.byte	0x10
 3319 0860 04       		.byte	0x4
 3320 0861 0A       		.uleb128 0xa
 3321 0862 7B020000 		.4byte	.LASF155
 3322 0866 0E       		.byte	0xe
 3323 0867 ED       		.byte	0xed
 3324 0868 E4000000 		.4byte	0xe4
 3325 086c 04       		.byte	0x4
 3326 086d 01       		.byte	0x1
 3327 086e 0F       		.byte	0xf
 3328 086f 04       		.byte	0x4
 3329 0870 0A       		.uleb128 0xa
 3330 0871 93040000 		.4byte	.LASF156
 3331 0875 0E       		.byte	0xe
 3332 0876 EE       		.byte	0xee
 3333 0877 E4000000 		.4byte	0xe4
 3334 087b 04       		.byte	0x4
 3335 087c 01       		.byte	0x1
 3336 087d 0E       		.byte	0xe
 3337 087e 04       		.byte	0x4
ARM GAS  C:\Users\strap\AppData\Local\Temp\ccUgAYbc.s 			page 95


 3338 087f 0A       		.uleb128 0xa
 3339 0880 FC100000 		.4byte	.LASF157
 3340 0884 0E       		.byte	0xe
 3341 0885 EF       		.byte	0xef
 3342 0886 E4000000 		.4byte	0xe4
 3343 088a 04       		.byte	0x4
 3344 088b 01       		.byte	0x1
 3345 088c 0D       		.byte	0xd
 3346 088d 04       		.byte	0x4
 3347 088e 0A       		.uleb128 0xa
 3348 088f 30080000 		.4byte	.LASF158
 3349 0893 0E       		.byte	0xe
 3350 0894 F0       		.byte	0xf0
 3351 0895 E4000000 		.4byte	0xe4
 3352 0899 04       		.byte	0x4
 3353 089a 01       		.byte	0x1
 3354 089b 0C       		.byte	0xc
 3355 089c 04       		.byte	0x4
 3356 089d 0A       		.uleb128 0xa
 3357 089e FE130000 		.4byte	.LASF159
 3358 08a2 0E       		.byte	0xe
 3359 08a3 F1       		.byte	0xf1
 3360 08a4 E4000000 		.4byte	0xe4
 3361 08a8 04       		.byte	0x4
 3362 08a9 01       		.byte	0x1
 3363 08aa 0B       		.byte	0xb
 3364 08ab 04       		.byte	0x4
 3365 08ac 0A       		.uleb128 0xa
 3366 08ad EF090000 		.4byte	.LASF160
 3367 08b1 0E       		.byte	0xe
 3368 08b2 F3       		.byte	0xf3
 3369 08b3 E4000000 		.4byte	0xe4
 3370 08b7 04       		.byte	0x4
 3371 08b8 01       		.byte	0x1
 3372 08b9 0A       		.byte	0xa
 3373 08ba 04       		.byte	0x4
 3374 08bb 0A       		.uleb128 0xa
 3375 08bc F4070000 		.4byte	.LASF161
 3376 08c0 0E       		.byte	0xe
 3377 08c1 F4       		.byte	0xf4
 3378 08c2 E4000000 		.4byte	0xe4
 3379 08c6 04       		.byte	0x4
 3380 08c7 01       		.byte	0x1
 3381 08c8 09       		.byte	0x9
 3382 08c9 04       		.byte	0x4
 3383 08ca 0A       		.uleb128 0xa
 3384 08cb 0C0A0000 		.4byte	.LASF162
 3385 08cf 0E       		.byte	0xe
 3386 08d0 F5       		.byte	0xf5
 3387 08d1 E4000000 		.4byte	0xe4
 3388 08d5 04       		.byte	0x4
 3389 08d6 01       		.byte	0x1
 3390 08d7 08       		.byte	0x8
 3391 08d8 04       		.byte	0x4
 3392 08d9 0A       		.uleb128 0xa
 3393 08da A2140000 		.4byte	.LASF163
 3394 08de 0E       		.byte	0xe
ARM GAS  C:\Users\strap\AppData\Local\Temp\ccUgAYbc.s 			page 96


 3395 08df F7       		.byte	0xf7
 3396 08e0 E4000000 		.4byte	0xe4
 3397 08e4 04       		.byte	0x4
 3398 08e5 01       		.byte	0x1
 3399 08e6 07       		.byte	0x7
 3400 08e7 04       		.byte	0x4
 3401 08e8 0A       		.uleb128 0xa
 3402 08e9 58080000 		.4byte	.LASF164
 3403 08ed 0E       		.byte	0xe
 3404 08ee F8       		.byte	0xf8
 3405 08ef E4000000 		.4byte	0xe4
 3406 08f3 04       		.byte	0x4
 3407 08f4 01       		.byte	0x1
 3408 08f5 06       		.byte	0x6
 3409 08f6 04       		.byte	0x4
 3410 08f7 0A       		.uleb128 0xa
 3411 08f8 7F060000 		.4byte	.LASF165
 3412 08fc 0E       		.byte	0xe
 3413 08fd F9       		.byte	0xf9
 3414 08fe E4000000 		.4byte	0xe4
 3415 0902 04       		.byte	0x4
 3416 0903 01       		.byte	0x1
 3417 0904 05       		.byte	0x5
 3418 0905 04       		.byte	0x4
 3419 0906 0A       		.uleb128 0xa
 3420 0907 BC130000 		.4byte	.LASF166
 3421 090b 0E       		.byte	0xe
 3422 090c FA       		.byte	0xfa
 3423 090d E4000000 		.4byte	0xe4
 3424 0911 04       		.byte	0x4
 3425 0912 01       		.byte	0x1
 3426 0913 04       		.byte	0x4
 3427 0914 04       		.byte	0x4
 3428 0915 0A       		.uleb128 0xa
 3429 0916 2D150000 		.4byte	.LASF167
 3430 091a 0E       		.byte	0xe
 3431 091b FB       		.byte	0xfb
 3432 091c E4000000 		.4byte	0xe4
 3433 0920 04       		.byte	0x4
 3434 0921 01       		.byte	0x1
 3435 0922 03       		.byte	0x3
 3436 0923 04       		.byte	0x4
 3437 0924 0A       		.uleb128 0xa
 3438 0925 CC110000 		.4byte	.LASF168
 3439 0929 0E       		.byte	0xe
 3440 092a FD       		.byte	0xfd
 3441 092b E4000000 		.4byte	0xe4
 3442 092f 04       		.byte	0x4
 3443 0930 01       		.byte	0x1
 3444 0931 02       		.byte	0x2
 3445 0932 04       		.byte	0x4
 3446 0933 0A       		.uleb128 0xa
 3447 0934 F70E0000 		.4byte	.LASF169
 3448 0938 0E       		.byte	0xe
 3449 0939 FE       		.byte	0xfe
 3450 093a E4000000 		.4byte	0xe4
 3451 093e 04       		.byte	0x4
ARM GAS  C:\Users\strap\AppData\Local\Temp\ccUgAYbc.s 			page 97


 3452 093f 01       		.byte	0x1
 3453 0940 01       		.byte	0x1
 3454 0941 04       		.byte	0x4
 3455 0942 0A       		.uleb128 0xa
 3456 0943 040C0000 		.4byte	.LASF170
 3457 0947 0E       		.byte	0xe
 3458 0948 FF       		.byte	0xff
 3459 0949 E4000000 		.4byte	0xe4
 3460 094d 04       		.byte	0x4
 3461 094e 01       		.byte	0x1
 3462 094f 00       		.byte	0
 3463 0950 04       		.byte	0x4
 3464 0951 00       		.byte	0
 3465 0952 0F       		.uleb128 0xf
 3466 0953 04       		.byte	0x4
 3467 0954 58090000 		.4byte	0x958
 3468 0958 0F       		.uleb128 0xf
 3469 0959 04       		.byte	0x4
 3470 095a 92070000 		.4byte	0x792
 3471 095e 06       		.uleb128 0x6
 3472 095f B8120000 		.4byte	.LASF171
 3473 0963 0E       		.byte	0xe
 3474 0964 0001     		.2byte	0x100
 3475 0966 A8070000 		.4byte	0x7a8
 3476 096a 07       		.uleb128 0x7
 3477 096b 01       		.byte	0x1
 3478 096c 42000000 		.4byte	0x42
 3479 0970 0F       		.byte	0xf
 3480 0971 23       		.byte	0x23
 3481 0972 8F090000 		.4byte	0x98f
 3482 0976 08       		.uleb128 0x8
 3483 0977 F4050000 		.4byte	.LASF172
 3484 097b 00       		.byte	0
 3485 097c 08       		.uleb128 0x8
 3486 097d D5130000 		.4byte	.LASF173
 3487 0981 01       		.byte	0x1
 3488 0982 08       		.uleb128 0x8
 3489 0983 B9000000 		.4byte	.LASF174
 3490 0987 02       		.byte	0x2
 3491 0988 08       		.uleb128 0x8
 3492 0989 85070000 		.4byte	.LASF175
 3493 098d 03       		.byte	0x3
 3494 098e 00       		.byte	0
 3495 098f 02       		.uleb128 0x2
 3496 0990 AC150000 		.4byte	.LASF176
 3497 0994 0F       		.byte	0xf
 3498 0995 2A       		.byte	0x2a
 3499 0996 B8000000 		.4byte	0xb8
 3500 099a 02       		.uleb128 0x2
 3501 099b 07170000 		.4byte	.LASF177
 3502 099f 0F       		.byte	0xf
 3503 09a0 38       		.byte	0x38
 3504 09a1 A5090000 		.4byte	0x9a5
 3505 09a5 0F       		.uleb128 0xf
 3506 09a6 04       		.byte	0x4
 3507 09a7 AB090000 		.4byte	0x9ab
 3508 09ab 15       		.uleb128 0x15
ARM GAS  C:\Users\strap\AppData\Local\Temp\ccUgAYbc.s 			page 98


 3509 09ac 50020000 		.4byte	0x250
 3510 09b0 C4090000 		.4byte	0x9c4
 3511 09b4 16       		.uleb128 0x16
 3512 09b5 C4090000 		.4byte	0x9c4
 3513 09b9 16       		.uleb128 0x16
 3514 09ba C3040000 		.4byte	0x4c3
 3515 09be 16       		.uleb128 0x16
 3516 09bf 130A0000 		.4byte	0xa13
 3517 09c3 00       		.byte	0
 3518 09c4 0F       		.uleb128 0xf
 3519 09c5 04       		.byte	0x4
 3520 09c6 CA090000 		.4byte	0x9ca
 3521 09ca 14       		.uleb128 0x14
 3522 09cb CD020000 		.4byte	.LASF179
 3523 09cf 14       		.byte	0x14
 3524 09d0 0F       		.byte	0xf
 3525 09d1 57       		.byte	0x57
 3526 09d2 130A0000 		.4byte	0xa13
 3527 09d6 12       		.uleb128 0x12
 3528 09d7 5F110000 		.4byte	.LASF180
 3529 09db 0F       		.byte	0xf
 3530 09dc 58       		.byte	0x58
 3531 09dd 9A090000 		.4byte	0x99a
 3532 09e1 00       		.byte	0
 3533 09e2 12       		.uleb128 0x12
 3534 09e3 38050000 		.4byte	.LASF181
 3535 09e7 0F       		.byte	0xf
 3536 09e8 59       		.byte	0x59
 3537 09e9 190A0000 		.4byte	0xa19
 3538 09ed 04       		.byte	0x4
 3539 09ee 12       		.uleb128 0x12
 3540 09ef EF120000 		.4byte	.LASF182
 3541 09f3 0F       		.byte	0xf
 3542 09f4 5A       		.byte	0x5a
 3543 09f5 BD0A0000 		.4byte	0xabd
 3544 09f9 08       		.byte	0x8
 3545 09fa 12       		.uleb128 0x12
 3546 09fb 9E030000 		.4byte	.LASF183
 3547 09ff 0F       		.byte	0xf
 3548 0a00 5B       		.byte	0x5b
 3549 0a01 F60A0000 		.4byte	0xaf6
 3550 0a05 0C       		.byte	0xc
 3551 0a06 12       		.uleb128 0x12
 3552 0a07 95160000 		.4byte	.LASF131
 3553 0a0b 0F       		.byte	0xf
 3554 0a0c 5E       		.byte	0x5e
 3555 0a0d FC000000 		.4byte	0xfc
 3556 0a11 10       		.byte	0x10
 3557 0a12 00       		.byte	0
 3558 0a13 0F       		.uleb128 0xf
 3559 0a14 04       		.byte	0x4
 3560 0a15 F5030000 		.4byte	0x3f5
 3561 0a19 02       		.uleb128 0x2
 3562 0a1a 35120000 		.4byte	.LASF184
 3563 0a1e 0F       		.byte	0xf
 3564 0a1f 40       		.byte	0x40
 3565 0a20 240A0000 		.4byte	0xa24
ARM GAS  C:\Users\strap\AppData\Local\Temp\ccUgAYbc.s 			page 99


 3566 0a24 0F       		.uleb128 0xf
 3567 0a25 04       		.byte	0x4
 3568 0a26 2A0A0000 		.4byte	0xa2a
 3569 0a2a 15       		.uleb128 0x15
 3570 0a2b 50020000 		.4byte	0x250
 3571 0a2f 3E0A0000 		.4byte	0xa3e
 3572 0a33 16       		.uleb128 0x16
 3573 0a34 C4090000 		.4byte	0x9c4
 3574 0a38 16       		.uleb128 0x16
 3575 0a39 3E0A0000 		.4byte	0xa3e
 3576 0a3d 00       		.byte	0
 3577 0a3e 0F       		.uleb128 0xf
 3578 0a3f 04       		.byte	0x4
 3579 0a40 440A0000 		.4byte	0xa44
 3580 0a44 14       		.uleb128 0x14
 3581 0a45 49030000 		.4byte	.LASF185
 3582 0a49 20       		.byte	0x20
 3583 0a4a 0F       		.byte	0xf
 3584 0a4b 63       		.byte	0x63
 3585 0a4c BD0A0000 		.4byte	0xabd
 3586 0a50 12       		.uleb128 0x12
 3587 0a51 CB000000 		.4byte	.LASF186
 3588 0a55 0F       		.byte	0xf
 3589 0a56 65       		.byte	0x65
 3590 0a57 220B0000 		.4byte	0xb22
 3591 0a5b 00       		.byte	0
 3592 0a5c 11       		.uleb128 0x11
 3593 0a5d 73726300 		.ascii	"src\000"
 3594 0a61 0F       		.byte	0xf
 3595 0a62 68       		.byte	0x68
 3596 0a63 C3040000 		.4byte	0x4c3
 3597 0a67 04       		.byte	0x4
 3598 0a68 12       		.uleb128 0x12
 3599 0a69 B2120000 		.4byte	.LASF102
 3600 0a6d 0F       		.byte	0xf
 3601 0a6e 6B       		.byte	0x6b
 3602 0a6f F4010000 		.4byte	0x1f4
 3603 0a73 08       		.byte	0x8
 3604 0a74 12       		.uleb128 0x12
 3605 0a75 1F170000 		.4byte	.LASF187
 3606 0a79 0F       		.byte	0xf
 3607 0a7a 6E       		.byte	0x6e
 3608 0a7b 8F090000 		.4byte	0x98f
 3609 0a7f 0A       		.byte	0xa
 3610 0a80 12       		.uleb128 0x12
 3611 0a81 08060000 		.4byte	.LASF92
 3612 0a85 0F       		.byte	0xf
 3613 0a86 71       		.byte	0x71
 3614 0a87 F5030000 		.4byte	0x3f5
 3615 0a8b 0C       		.byte	0xc
 3616 0a8c 12       		.uleb128 0x12
 3617 0a8d 7D000000 		.4byte	.LASF188
 3618 0a91 0F       		.byte	0xf
 3619 0a92 75       		.byte	0x75
 3620 0a93 2D040000 		.4byte	0x42d
 3621 0a97 10       		.byte	0x10
 3622 0a98 12       		.uleb128 0x12
ARM GAS  C:\Users\strap\AppData\Local\Temp\ccUgAYbc.s 			page 100


 3623 0a99 9C050000 		.4byte	.LASF189
 3624 0a9d 0F       		.byte	0xf
 3625 0a9e 79       		.byte	0x79
 3626 0a9f E4000000 		.4byte	0xe4
 3627 0aa3 14       		.byte	0x14
 3628 0aa4 12       		.uleb128 0x12
 3629 0aa5 A50B0000 		.4byte	.LASF190
 3630 0aa9 0F       		.byte	0xf
 3631 0aaa 7D       		.byte	0x7d
 3632 0aab 2C020000 		.4byte	0x22c
 3633 0aaf 18       		.byte	0x18
 3634 0ab0 12       		.uleb128 0x12
 3635 0ab1 95160000 		.4byte	.LASF131
 3636 0ab5 0F       		.byte	0xf
 3637 0ab6 80       		.byte	0x80
 3638 0ab7 FA000000 		.4byte	0xfa
 3639 0abb 1C       		.byte	0x1c
 3640 0abc 00       		.byte	0
 3641 0abd 02       		.uleb128 0x2
 3642 0abe 70100000 		.4byte	.LASF191
 3643 0ac2 0F       		.byte	0xf
 3644 0ac3 4D       		.byte	0x4d
 3645 0ac4 C80A0000 		.4byte	0xac8
 3646 0ac8 0F       		.uleb128 0xf
 3647 0ac9 04       		.byte	0x4
 3648 0aca CE0A0000 		.4byte	0xace
 3649 0ace 15       		.uleb128 0x15
 3650 0acf 50020000 		.4byte	0x250
 3651 0ad3 F60A0000 		.4byte	0xaf6
 3652 0ad7 16       		.uleb128 0x16
 3653 0ad8 C4090000 		.4byte	0x9c4
 3654 0adc 16       		.uleb128 0x16
 3655 0add 3E0A0000 		.4byte	0xa3e
 3656 0ae1 16       		.uleb128 0x16
 3657 0ae2 EF000000 		.4byte	0xef
 3658 0ae6 16       		.uleb128 0x16
 3659 0ae7 EF000000 		.4byte	0xef
 3660 0aeb 16       		.uleb128 0x16
 3661 0aec EF000000 		.4byte	0xef
 3662 0af0 16       		.uleb128 0x16
 3663 0af1 8C070000 		.4byte	0x78c
 3664 0af5 00       		.byte	0
 3665 0af6 02       		.uleb128 0x2
 3666 0af7 D6160000 		.4byte	.LASF192
 3667 0afb 0F       		.byte	0xf
 3668 0afc 55       		.byte	0x55
 3669 0afd 010B0000 		.4byte	0xb01
 3670 0b01 0F       		.uleb128 0xf
 3671 0b02 04       		.byte	0x4
 3672 0b03 070B0000 		.4byte	0xb07
 3673 0b07 17       		.uleb128 0x17
 3674 0b08 170B0000 		.4byte	0xb17
 3675 0b0c 16       		.uleb128 0x16
 3676 0b0d C4090000 		.4byte	0x9c4
 3677 0b11 16       		.uleb128 0x16
 3678 0b12 3E0A0000 		.4byte	0xa3e
 3679 0b16 00       		.byte	0
ARM GAS  C:\Users\strap\AppData\Local\Temp\ccUgAYbc.s 			page 101


 3680 0b17 02       		.uleb128 0x2
 3681 0b18 29030000 		.4byte	.LASF193
 3682 0b1c 0F       		.byte	0xf
 3683 0b1d 60       		.byte	0x60
 3684 0b1e CA090000 		.4byte	0x9ca
 3685 0b22 0F       		.uleb128 0xf
 3686 0b23 04       		.byte	0x4
 3687 0b24 170B0000 		.4byte	0xb17
 3688 0b28 02       		.uleb128 0x2
 3689 0b29 E60D0000 		.4byte	.LASF194
 3690 0b2d 0F       		.byte	0xf
 3691 0b2e 81       		.byte	0x81
 3692 0b2f 440A0000 		.4byte	0xa44
 3693 0b33 09       		.uleb128 0x9
 3694 0b34 10       		.byte	0x10
 3695 0b35 10       		.byte	0x10
 3696 0b36 1F       		.byte	0x1f
 3697 0b37 9F0B0000 		.4byte	0xb9f
 3698 0b3b 11       		.uleb128 0x11
 3699 0b3c 6F706100 		.ascii	"opa\000"
 3700 0b40 10       		.byte	0x10
 3701 0b41 20       		.byte	0x20
 3702 0b42 00020000 		.4byte	0x200
 3703 0b46 00       		.byte	0
 3704 0b47 12       		.uleb128 0x12
 3705 0b48 3C0B0000 		.4byte	.LASF100
 3706 0b4c 10       		.byte	0x10
 3707 0b4d 22       		.byte	0x22
 3708 0b4e CE000000 		.4byte	0xce
 3709 0b52 02       		.byte	0x2
 3710 0b53 12       		.uleb128 0x12
 3711 0b54 D2120000 		.4byte	.LASF195
 3712 0b58 10       		.byte	0x10
 3713 0b59 23       		.byte	0x23
 3714 0b5a 78020000 		.4byte	0x278
 3715 0b5e 04       		.byte	0x4
 3716 0b5f 12       		.uleb128 0x12
 3717 0b60 170B0000 		.4byte	.LASF101
 3718 0b64 10       		.byte	0x10
 3719 0b65 24       		.byte	0x24
 3720 0b66 CE000000 		.4byte	0xce
 3721 0b6a 08       		.byte	0x8
 3722 0b6b 12       		.uleb128 0x12
 3723 0b6c 320E0000 		.4byte	.LASF196
 3724 0b70 10       		.byte	0x10
 3725 0b71 26       		.byte	0x26
 3726 0b72 00020000 		.4byte	0x200
 3727 0b76 0A       		.byte	0xa
 3728 0b77 12       		.uleb128 0x12
 3729 0b78 1C0B0000 		.4byte	.LASF197
 3730 0b7c 10       		.byte	0x10
 3731 0b7d 27       		.byte	0x27
 3732 0b7e F4010000 		.4byte	0x1f4
 3733 0b82 0C       		.byte	0xc
 3734 0b83 12       		.uleb128 0x12
 3735 0b84 AA020000 		.4byte	.LASF198
 3736 0b88 10       		.byte	0x10
ARM GAS  C:\Users\strap\AppData\Local\Temp\ccUgAYbc.s 			page 102


 3737 0b89 29       		.byte	0x29
 3738 0b8a 56070000 		.4byte	0x756
 3739 0b8e 0E       		.byte	0xe
 3740 0b8f 0A       		.uleb128 0xa
 3741 0b90 C80E0000 		.4byte	.LASF103
 3742 0b94 10       		.byte	0x10
 3743 0b95 2B       		.byte	0x2b
 3744 0b96 B8000000 		.4byte	0xb8
 3745 0b9a 01       		.byte	0x1
 3746 0b9b 01       		.byte	0x1
 3747 0b9c 07       		.byte	0x7
 3748 0b9d 0F       		.byte	0xf
 3749 0b9e 00       		.byte	0
 3750 0b9f 02       		.uleb128 0x2
 3751 0ba0 BB060000 		.4byte	.LASF199
 3752 0ba4 10       		.byte	0x10
 3753 0ba5 2C       		.byte	0x2c
 3754 0ba6 330B0000 		.4byte	0xb33
 3755 0baa 09       		.uleb128 0x9
 3756 0bab 24       		.byte	0x24
 3757 0bac 11       		.byte	0x11
 3758 0bad 1F       		.byte	0x1f
 3759 0bae CB0B0000 		.4byte	0xbcb
 3760 0bb2 12       		.uleb128 0x12
 3761 0bb3 70140000 		.4byte	.LASF200
 3762 0bb7 11       		.byte	0x11
 3763 0bb8 20       		.byte	0x20
 3764 0bb9 280B0000 		.4byte	0xb28
 3765 0bbd 00       		.byte	0
 3766 0bbe 12       		.uleb128 0x12
 3767 0bbf 99030000 		.4byte	.LASF201
 3768 0bc3 11       		.byte	0x11
 3769 0bc4 25       		.byte	0x25
 3770 0bc5 D9000000 		.4byte	0xd9
 3771 0bc9 20       		.byte	0x20
 3772 0bca 00       		.byte	0
 3773 0bcb 02       		.uleb128 0x2
 3774 0bcc E10A0000 		.4byte	.LASF202
 3775 0bd0 11       		.byte	0x11
 3776 0bd1 26       		.byte	0x26
 3777 0bd2 AA0B0000 		.4byte	0xbaa
 3778 0bd6 02       		.uleb128 0x2
 3779 0bd7 2C140000 		.4byte	.LASF203
 3780 0bdb 12       		.byte	0x12
 3781 0bdc 1E       		.byte	0x1e
 3782 0bdd B8000000 		.4byte	0xb8
 3783 0be1 09       		.uleb128 0x9
 3784 0be2 0C       		.byte	0xc
 3785 0be3 12       		.byte	0x12
 3786 0be4 21       		.byte	0x21
 3787 0be5 0E0C0000 		.4byte	0xc0e
 3788 0be9 12       		.uleb128 0x12
 3789 0bea B3170000 		.4byte	.LASF204
 3790 0bee 12       		.byte	0x12
 3791 0bef 22       		.byte	0x22
 3792 0bf0 E4000000 		.4byte	0xe4
 3793 0bf4 00       		.byte	0
ARM GAS  C:\Users\strap\AppData\Local\Temp\ccUgAYbc.s 			page 103


 3794 0bf5 12       		.uleb128 0x12
 3795 0bf6 8E040000 		.4byte	.LASF205
 3796 0bfa 12       		.byte	0x12
 3797 0bfb 23       		.byte	0x23
 3798 0bfc 0E0C0000 		.4byte	0xc0e
 3799 0c00 04       		.byte	0x4
 3800 0c01 12       		.uleb128 0x12
 3801 0c02 86000000 		.4byte	.LASF206
 3802 0c06 12       		.byte	0x12
 3803 0c07 24       		.byte	0x24
 3804 0c08 0E0C0000 		.4byte	0xc0e
 3805 0c0c 08       		.byte	0x8
 3806 0c0d 00       		.byte	0
 3807 0c0e 0F       		.uleb128 0xf
 3808 0c0f 04       		.byte	0x4
 3809 0c10 D60B0000 		.4byte	0xbd6
 3810 0c14 02       		.uleb128 0x2
 3811 0c15 B4130000 		.4byte	.LASF207
 3812 0c19 12       		.byte	0x12
 3813 0c1a 25       		.byte	0x25
 3814 0c1b E10B0000 		.4byte	0xbe1
 3815 0c1f 02       		.uleb128 0x2
 3816 0c20 63170000 		.4byte	.LASF208
 3817 0c24 13       		.byte	0x13
 3818 0c25 29       		.byte	0x29
 3819 0c26 2A0C0000 		.4byte	0xc2a
 3820 0c2a 0F       		.uleb128 0xf
 3821 0c2b 04       		.byte	0x4
 3822 0c2c 300C0000 		.4byte	0xc30
 3823 0c30 17       		.uleb128 0x17
 3824 0c31 3B0C0000 		.4byte	0xc3b
 3825 0c35 16       		.uleb128 0x16
 3826 0c36 3B0C0000 		.4byte	0xc3b
 3827 0c3a 00       		.byte	0
 3828 0c3b 0F       		.uleb128 0xf
 3829 0c3c 04       		.byte	0x4
 3830 0c3d 410C0000 		.4byte	0xc41
 3831 0c41 14       		.uleb128 0x14
 3832 0c42 72150000 		.4byte	.LASF209
 3833 0c46 18       		.byte	0x18
 3834 0c47 13       		.byte	0x13
 3835 0c48 3C       		.byte	0x3c
 3836 0c49 990C0000 		.4byte	0xc99
 3837 0c4d 12       		.uleb128 0x12
 3838 0c4e 4D120000 		.4byte	.LASF210
 3839 0c52 13       		.byte	0x13
 3840 0c53 3D       		.byte	0x3d
 3841 0c54 E4000000 		.4byte	0xe4
 3842 0c58 00       		.byte	0
 3843 0c59 12       		.uleb128 0x12
 3844 0c5a 4C110000 		.4byte	.LASF211
 3845 0c5e 13       		.byte	0x13
 3846 0c5f 3E       		.byte	0x3e
 3847 0c60 E4000000 		.4byte	0xe4
 3848 0c64 04       		.byte	0x4
 3849 0c65 12       		.uleb128 0x12
 3850 0c66 D3050000 		.4byte	.LASF212
ARM GAS  C:\Users\strap\AppData\Local\Temp\ccUgAYbc.s 			page 104


 3851 0c6a 13       		.byte	0x13
 3852 0c6b 3F       		.byte	0x3f
 3853 0c6c 1F0C0000 		.4byte	0xc1f
 3854 0c70 08       		.byte	0x8
 3855 0c71 12       		.uleb128 0x12
 3856 0c72 95160000 		.4byte	.LASF131
 3857 0c76 13       		.byte	0x13
 3858 0c77 41       		.byte	0x41
 3859 0c78 FA000000 		.4byte	0xfa
 3860 0c7c 0C       		.byte	0xc
 3861 0c7d 12       		.uleb128 0x12
 3862 0c7e A9010000 		.4byte	.LASF213
 3863 0c82 13       		.byte	0x13
 3864 0c83 43       		.byte	0x43
 3865 0c84 D9000000 		.4byte	0xd9
 3866 0c88 10       		.byte	0x10
 3867 0c89 0A       		.uleb128 0xa
 3868 0c8a 88020000 		.4byte	.LASF214
 3869 0c8e 13       		.byte	0x13
 3870 0c8f 44       		.byte	0x44
 3871 0c90 B8000000 		.4byte	0xb8
 3872 0c94 01       		.byte	0x1
 3873 0c95 03       		.byte	0x3
 3874 0c96 05       		.byte	0x5
 3875 0c97 14       		.byte	0x14
 3876 0c98 00       		.byte	0
 3877 0c99 02       		.uleb128 0x2
 3878 0c9a 84110000 		.4byte	.LASF215
 3879 0c9e 13       		.byte	0x13
 3880 0c9f 45       		.byte	0x45
 3881 0ca0 410C0000 		.4byte	0xc41
 3882 0ca4 02       		.uleb128 0x2
 3883 0ca5 0B100000 		.4byte	.LASF216
 3884 0ca9 14       		.byte	0x14
 3885 0caa 3D       		.byte	0x3d
 3886 0cab B8000000 		.4byte	0xb8
 3887 0caf 18       		.uleb128 0x18
 3888 0cb0 9E0E0000 		.4byte	.LASF217
 3889 0cb4 8001     		.2byte	0x180
 3890 0cb6 15       		.byte	0x15
 3891 0cb7 93       		.byte	0x93
 3892 0cb8 7A0D0000 		.4byte	0xd7a
 3893 0cbc 12       		.uleb128 0x12
 3894 0cbd E8120000 		.4byte	.LASF218
 3895 0cc1 15       		.byte	0x15
 3896 0cc2 95       		.byte	0x95
 3897 0cc3 10110000 		.4byte	0x1110
 3898 0cc7 00       		.byte	0
 3899 0cc8 12       		.uleb128 0x12
 3900 0cc9 14030000 		.4byte	.LASF219
 3901 0ccd 15       		.byte	0x15
 3902 0cce 98       		.byte	0x98
 3903 0ccf 7A0D0000 		.4byte	0xd7a
 3904 0cd3 30       		.byte	0x30
 3905 0cd4 12       		.uleb128 0x12
 3906 0cd5 8D020000 		.4byte	.LASF220
 3907 0cd9 15       		.byte	0x15
ARM GAS  C:\Users\strap\AppData\Local\Temp\ccUgAYbc.s 			page 105


 3908 0cda 9B       		.byte	0x9b
 3909 0cdb 140C0000 		.4byte	0xc14
 3910 0cdf 34       		.byte	0x34
 3911 0ce0 12       		.uleb128 0x12
 3912 0ce1 8B000000 		.4byte	.LASF221
 3913 0ce5 15       		.byte	0x15
 3914 0ce6 9C       		.byte	0x9c
 3915 0ce7 010F0000 		.4byte	0xf01
 3916 0ceb 40       		.byte	0x40
 3917 0cec 12       		.uleb128 0x12
 3918 0ced 5A130000 		.4byte	.LASF222
 3919 0cf1 15       		.byte	0x15
 3920 0cf2 9D       		.byte	0x9d
 3921 0cf3 010F0000 		.4byte	0xf01
 3922 0cf7 44       		.byte	0x44
 3923 0cf8 12       		.uleb128 0x12
 3924 0cf9 92050000 		.4byte	.LASF223
 3925 0cfd 15       		.byte	0x15
 3926 0cfe 9E       		.byte	0x9e
 3927 0cff 010F0000 		.4byte	0xf01
 3928 0d03 48       		.byte	0x48
 3929 0d04 12       		.uleb128 0x12
 3930 0d05 0B140000 		.4byte	.LASF224
 3931 0d09 15       		.byte	0x15
 3932 0d0a 9F       		.byte	0x9f
 3933 0d0b 010F0000 		.4byte	0xf01
 3934 0d0f 4C       		.byte	0x4c
 3935 0d10 0A       		.uleb128 0xa
 3936 0d11 39140000 		.4byte	.LASF225
 3937 0d15 15       		.byte	0x15
 3938 0d16 A1       		.byte	0xa1
 3939 0d17 B8000000 		.4byte	0xb8
 3940 0d1b 01       		.byte	0x1
 3941 0d1c 01       		.byte	0x1
 3942 0d1d 07       		.byte	0x7
 3943 0d1e 50       		.byte	0x50
 3944 0d1f 12       		.uleb128 0x12
 3945 0d20 04010000 		.4byte	.LASF226
 3946 0d24 15       		.byte	0x15
 3947 0d25 A4       		.byte	0xa4
 3948 0d26 F4010000 		.4byte	0x1f4
 3949 0d2a 52       		.byte	0x52
 3950 0d2b 12       		.uleb128 0x12
 3951 0d2c 4E140000 		.4byte	.LASF227
 3952 0d30 15       		.byte	0x15
 3953 0d31 A5       		.byte	0xa5
 3954 0d32 C3040000 		.4byte	0x4c3
 3955 0d36 54       		.byte	0x54
 3956 0d37 12       		.uleb128 0x12
 3957 0d38 42030000 		.4byte	.LASF228
 3958 0d3c 15       		.byte	0x15
 3959 0d3d A6       		.byte	0xa6
 3960 0d3e 00020000 		.4byte	0x200
 3961 0d42 58       		.byte	0x58
 3962 0d43 12       		.uleb128 0x12
 3963 0d44 DC0D0000 		.4byte	.LASF229
 3964 0d48 15       		.byte	0x15
ARM GAS  C:\Users\strap\AppData\Local\Temp\ccUgAYbc.s 			page 106


 3965 0d49 A9       		.byte	0xa9
 3966 0d4a 1B110000 		.4byte	0x111b
 3967 0d4e 5A       		.byte	0x5a
 3968 0d4f 19       		.uleb128 0x19
 3969 0d50 6F060000 		.4byte	.LASF230
 3970 0d54 15       		.byte	0x15
 3971 0d55 AA       		.byte	0xaa
 3972 0d56 2B110000 		.4byte	0x112b
 3973 0d5a 5A01     		.2byte	0x15a
 3974 0d5c 1A       		.uleb128 0x1a
 3975 0d5d AE130000 		.4byte	.LASF231
 3976 0d61 15       		.byte	0x15
 3977 0d62 AB       		.byte	0xab
 3978 0d63 E4000000 		.4byte	0xe4
 3979 0d67 04       		.byte	0x4
 3980 0d68 0A       		.byte	0xa
 3981 0d69 06       		.byte	0x6
 3982 0d6a 7801     		.2byte	0x178
 3983 0d6c 19       		.uleb128 0x19
 3984 0d6d F8020000 		.4byte	.LASF232
 3985 0d71 15       		.byte	0x15
 3986 0d72 AE       		.byte	0xae
 3987 0d73 E4000000 		.4byte	0xe4
 3988 0d77 7C01     		.2byte	0x17c
 3989 0d79 00       		.byte	0
 3990 0d7a 0F       		.uleb128 0xf
 3991 0d7b 04       		.byte	0x4
 3992 0d7c 990C0000 		.4byte	0xc99
 3993 0d80 14       		.uleb128 0x14
 3994 0d81 2B130000 		.4byte	.LASF233
 3995 0d85 50       		.byte	0x50
 3996 0d86 16       		.byte	0x16
 3997 0d87 C5       		.byte	0xc5
 3998 0d88 010F0000 		.4byte	0xf01
 3999 0d8c 12       		.uleb128 0x12
 4000 0d8d 11090000 		.4byte	.LASF234
 4001 0d91 16       		.byte	0x16
 4002 0d92 C6       		.byte	0xc6
 4003 0d93 010F0000 		.4byte	0xf01
 4004 0d97 00       		.byte	0
 4005 0d98 12       		.uleb128 0x12
 4006 0d99 320C0000 		.4byte	.LASF235
 4007 0d9d 16       		.byte	0x16
 4008 0d9e C7       		.byte	0xc7
 4009 0d9f 140C0000 		.4byte	0xc14
 4010 0da3 04       		.byte	0x4
 4011 0da4 12       		.uleb128 0x12
 4012 0da5 F7130000 		.4byte	.LASF236
 4013 0da9 16       		.byte	0x16
 4014 0daa C9       		.byte	0xc9
 4015 0dab B8020000 		.4byte	0x2b8
 4016 0daf 10       		.byte	0x10
 4017 0db0 12       		.uleb128 0x12
 4018 0db1 D00B0000 		.4byte	.LASF237
 4019 0db5 16       		.byte	0x16
 4020 0db6 CB       		.byte	0xcb
 4021 0db7 98140000 		.4byte	0x1498
ARM GAS  C:\Users\strap\AppData\Local\Temp\ccUgAYbc.s 			page 107


 4022 0dbb 18       		.byte	0x18
 4023 0dbc 12       		.uleb128 0x12
 4024 0dbd 7D150000 		.4byte	.LASF238
 4025 0dc1 16       		.byte	0x16
 4026 0dc2 CC       		.byte	0xcc
 4027 0dc3 C4140000 		.4byte	0x14c4
 4028 0dc7 1C       		.byte	0x1c
 4029 0dc8 12       		.uleb128 0x12
 4030 0dc9 98070000 		.4byte	.LASF239
 4031 0dcd 16       		.byte	0x16
 4032 0dce CD       		.byte	0xcd
 4033 0dcf 63140000 		.4byte	0x1463
 4034 0dd3 20       		.byte	0x20
 4035 0dd4 12       		.uleb128 0x12
 4036 0dd5 5F020000 		.4byte	.LASF240
 4037 0dd9 16       		.byte	0x16
 4038 0dda CF       		.byte	0xcf
 4039 0ddb FA000000 		.4byte	0xfa
 4040 0ddf 24       		.byte	0x24
 4041 0de0 12       		.uleb128 0x12
 4042 0de1 83040000 		.4byte	.LASF143
 4043 0de5 16       		.byte	0x16
 4044 0de6 D0       		.byte	0xd0
 4045 0de7 5E090000 		.4byte	0x95e
 4046 0deb 28       		.byte	0x28
 4047 0dec 12       		.uleb128 0x12
 4048 0ded 0F060000 		.4byte	.LASF241
 4049 0df1 16       		.byte	0x16
 4050 0df2 D3       		.byte	0xd3
 4051 0df3 B8000000 		.4byte	0xb8
 4052 0df7 30       		.byte	0x30
 4053 0df8 12       		.uleb128 0x12
 4054 0df9 19130000 		.4byte	.LASF242
 4055 0dfd 16       		.byte	0x16
 4056 0dfe D4       		.byte	0xd4
 4057 0dff B8000000 		.4byte	0xb8
 4058 0e03 31       		.byte	0x31
 4059 0e04 12       		.uleb128 0x12
 4060 0e05 69080000 		.4byte	.LASF243
 4061 0e09 16       		.byte	0x16
 4062 0e0a D9       		.byte	0xd9
 4063 0e0b EF000000 		.4byte	0xef
 4064 0e0f 32       		.byte	0x32
 4065 0e10 0A       		.uleb128 0xa
 4066 0e11 32010000 		.4byte	.LASF244
 4067 0e15 16       		.byte	0x16
 4068 0e16 DC       		.byte	0xdc
 4069 0e17 B8000000 		.4byte	0xb8
 4070 0e1b 01       		.byte	0x1
 4071 0e1c 01       		.byte	0x1
 4072 0e1d 07       		.byte	0x7
 4073 0e1e 34       		.byte	0x34
 4074 0e1f 0A       		.uleb128 0xa
 4075 0e20 0E130000 		.4byte	.LASF245
 4076 0e24 16       		.byte	0x16
 4077 0e25 DD       		.byte	0xdd
 4078 0e26 B8000000 		.4byte	0xb8
ARM GAS  C:\Users\strap\AppData\Local\Temp\ccUgAYbc.s 			page 108


 4079 0e2a 01       		.byte	0x1
 4080 0e2b 01       		.byte	0x1
 4081 0e2c 06       		.byte	0x6
 4082 0e2d 34       		.byte	0x34
 4083 0e2e 0A       		.uleb128 0xa
 4084 0e2f 25080000 		.4byte	.LASF246
 4085 0e33 16       		.byte	0x16
 4086 0e34 DE       		.byte	0xde
 4087 0e35 B8000000 		.4byte	0xb8
 4088 0e39 01       		.byte	0x1
 4089 0e3a 01       		.byte	0x1
 4090 0e3b 05       		.byte	0x5
 4091 0e3c 34       		.byte	0x34
 4092 0e3d 0A       		.uleb128 0xa
 4093 0e3e C8140000 		.4byte	.LASF247
 4094 0e42 16       		.byte	0x16
 4095 0e43 DF       		.byte	0xdf
 4096 0e44 B8000000 		.4byte	0xb8
 4097 0e48 01       		.byte	0x1
 4098 0e49 01       		.byte	0x1
 4099 0e4a 04       		.byte	0x4
 4100 0e4b 34       		.byte	0x34
 4101 0e4c 0A       		.uleb128 0xa
 4102 0e4d F1020000 		.4byte	.LASF248
 4103 0e51 16       		.byte	0x16
 4104 0e52 E0       		.byte	0xe0
 4105 0e53 B8000000 		.4byte	0xb8
 4106 0e57 01       		.byte	0x1
 4107 0e58 01       		.byte	0x1
 4108 0e59 03       		.byte	0x3
 4109 0e5a 34       		.byte	0x34
 4110 0e5b 0B       		.uleb128 0xb
 4111 0e5c 746F7000 		.ascii	"top\000"
 4112 0e60 16       		.byte	0x16
 4113 0e61 E1       		.byte	0xe1
 4114 0e62 B8000000 		.4byte	0xb8
 4115 0e66 01       		.byte	0x1
 4116 0e67 01       		.byte	0x1
 4117 0e68 02       		.byte	0x2
 4118 0e69 34       		.byte	0x34
 4119 0e6a 0A       		.uleb128 0xa
 4120 0e6b 520C0000 		.4byte	.LASF249
 4121 0e6f 16       		.byte	0x16
 4122 0e70 E2       		.byte	0xe2
 4123 0e71 B8000000 		.4byte	0xb8
 4124 0e75 01       		.byte	0x1
 4125 0e76 01       		.byte	0x1
 4126 0e77 01       		.byte	0x1
 4127 0e78 34       		.byte	0x34
 4128 0e79 0A       		.uleb128 0xa
 4129 0e7a 1C0A0000 		.4byte	.LASF250
 4130 0e7e 16       		.byte	0x16
 4131 0e7f E3       		.byte	0xe3
 4132 0e80 B8000000 		.4byte	0xb8
 4133 0e84 01       		.byte	0x1
 4134 0e85 01       		.byte	0x1
 4135 0e86 00       		.byte	0
ARM GAS  C:\Users\strap\AppData\Local\Temp\ccUgAYbc.s 			page 109


 4136 0e87 34       		.byte	0x34
 4137 0e88 0A       		.uleb128 0xa
 4138 0e89 DA060000 		.4byte	.LASF251
 4139 0e8d 16       		.byte	0x16
 4140 0e8e E4       		.byte	0xe4
 4141 0e8f B8000000 		.4byte	0xb8
 4142 0e93 01       		.byte	0x1
 4143 0e94 01       		.byte	0x1
 4144 0e95 07       		.byte	0x7
 4145 0e96 35       		.byte	0x35
 4146 0e97 0A       		.uleb128 0xa
 4147 0e98 E7050000 		.4byte	.LASF252
 4148 0e9c 16       		.byte	0x16
 4149 0e9d E5       		.byte	0xe5
 4150 0e9e B8000000 		.4byte	0xb8
 4151 0ea2 01       		.byte	0x1
 4152 0ea3 01       		.byte	0x1
 4153 0ea4 06       		.byte	0x6
 4154 0ea5 35       		.byte	0x35
 4155 0ea6 0A       		.uleb128 0xa
 4156 0ea7 BC050000 		.4byte	.LASF253
 4157 0eab 16       		.byte	0x16
 4158 0eac E7       		.byte	0xe7
 4159 0ead A40C0000 		.4byte	0xca4
 4160 0eb1 01       		.byte	0x1
 4161 0eb2 03       		.byte	0x3
 4162 0eb3 03       		.byte	0x3
 4163 0eb4 35       		.byte	0x35
 4164 0eb5 0A       		.uleb128 0xa
 4165 0eb6 51130000 		.4byte	.LASF254
 4166 0eba 16       		.byte	0x16
 4167 0ebb E8       		.byte	0xe8
 4168 0ebc 6F130000 		.4byte	0x136f
 4169 0ec0 01       		.byte	0x1
 4170 0ec1 02       		.byte	0x2
 4171 0ec2 01       		.byte	0x1
 4172 0ec3 35       		.byte	0x35
 4173 0ec4 12       		.uleb128 0x12
 4174 0ec5 05080000 		.4byte	.LASF255
 4175 0ec9 16       		.byte	0x16
 4176 0eca EB       		.byte	0xeb
 4177 0ecb FA000000 		.4byte	0xfa
 4178 0ecf 38       		.byte	0x38
 4179 0ed0 12       		.uleb128 0x12
 4180 0ed1 3B0C0000 		.4byte	.LASF256
 4181 0ed5 16       		.byte	0x16
 4182 0ed6 EE       		.byte	0xee
 4183 0ed7 B8000000 		.4byte	0xb8
 4184 0edb 3C       		.byte	0x3c
 4185 0edc 12       		.uleb128 0x12
 4186 0edd A3010000 		.4byte	.LASF257
 4187 0ee1 16       		.byte	0x16
 4188 0ee2 F0       		.byte	0xf0
 4189 0ee3 5B150000 		.4byte	0x155b
 4190 0ee7 3D       		.byte	0x3d
 4191 0ee8 12       		.uleb128 0x12
 4192 0ee9 18090000 		.4byte	.LASF258
ARM GAS  C:\Users\strap\AppData\Local\Temp\ccUgAYbc.s 			page 110


 4193 0eed 16       		.byte	0x16
 4194 0eee F3       		.byte	0xf3
 4195 0eef 50150000 		.4byte	0x1550
 4196 0ef3 40       		.byte	0x40
 4197 0ef4 12       		.uleb128 0x12
 4198 0ef5 95160000 		.4byte	.LASF131
 4199 0ef9 16       		.byte	0x16
 4200 0efa F7       		.byte	0xf7
 4201 0efb 1F010000 		.4byte	0x11f
 4202 0eff 4C       		.byte	0x4c
 4203 0f00 00       		.byte	0
 4204 0f01 0F       		.uleb128 0xf
 4205 0f02 04       		.byte	0x4
 4206 0f03 800D0000 		.4byte	0xd80
 4207 0f07 09       		.uleb128 0x9
 4208 0f08 24       		.byte	0x24
 4209 0f09 15       		.byte	0x15
 4210 0f0a 2F       		.byte	0x2f
 4211 0f0b 820F0000 		.4byte	0xf82
 4212 0f0f 12       		.uleb128 0x12
 4213 0f10 430C0000 		.4byte	.LASF259
 4214 0f14 15       		.byte	0x15
 4215 0f15 30       		.byte	0x30
 4216 0f16 FA000000 		.4byte	0xfa
 4217 0f1a 00       		.byte	0
 4218 0f1b 12       		.uleb128 0x12
 4219 0f1c 480C0000 		.4byte	.LASF260
 4220 0f20 15       		.byte	0x15
 4221 0f21 31       		.byte	0x31
 4222 0f22 FA000000 		.4byte	0xfa
 4223 0f26 04       		.byte	0x4
 4224 0f27 12       		.uleb128 0x12
 4225 0f28 F70F0000 		.4byte	.LASF261
 4226 0f2c 15       		.byte	0x15
 4227 0f2d 34       		.byte	0x34
 4228 0f2e FA000000 		.4byte	0xfa
 4229 0f32 08       		.byte	0x8
 4230 0f33 12       		.uleb128 0x12
 4231 0f34 F7100000 		.4byte	.LASF262
 4232 0f38 15       		.byte	0x15
 4233 0f39 35       		.byte	0x35
 4234 0f3a E4000000 		.4byte	0xe4
 4235 0f3e 0C       		.byte	0xc
 4236 0f3f 12       		.uleb128 0x12
 4237 0f40 92090000 		.4byte	.LASF263
 4238 0f44 15       		.byte	0x15
 4239 0f45 36       		.byte	0x36
 4240 0f46 B8020000 		.4byte	0x2b8
 4241 0f4a 10       		.byte	0x10
 4242 0f4b 12       		.uleb128 0x12
 4243 0f4c DA070000 		.4byte	.LASF264
 4244 0f50 15       		.byte	0x15
 4245 0f51 38       		.byte	0x38
 4246 0f52 820F0000 		.4byte	0xf82
 4247 0f56 18       		.byte	0x18
 4248 0f57 12       		.uleb128 0x12
 4249 0f58 21060000 		.4byte	.LASF265
ARM GAS  C:\Users\strap\AppData\Local\Temp\ccUgAYbc.s 			page 111


 4250 0f5c 15       		.byte	0x15
 4251 0f5d 3A       		.byte	0x3a
 4252 0f5e 820F0000 		.4byte	0xf82
 4253 0f62 1C       		.byte	0x1c
 4254 0f63 0A       		.uleb128 0xa
 4255 0f64 B2040000 		.4byte	.LASF266
 4256 0f68 15       		.byte	0x15
 4257 0f69 3B       		.byte	0x3b
 4258 0f6a 870F0000 		.4byte	0xf87
 4259 0f6e 04       		.byte	0x4
 4260 0f6f 01       		.byte	0x1
 4261 0f70 1F       		.byte	0x1f
 4262 0f71 20       		.byte	0x20
 4263 0f72 0A       		.uleb128 0xa
 4264 0f73 8F0A0000 		.4byte	.LASF267
 4265 0f77 15       		.byte	0x15
 4266 0f78 3C       		.byte	0x3c
 4267 0f79 870F0000 		.4byte	0xf87
 4268 0f7d 04       		.byte	0x4
 4269 0f7e 01       		.byte	0x1
 4270 0f7f 1E       		.byte	0x1e
 4271 0f80 20       		.byte	0x20
 4272 0f81 00       		.byte	0
 4273 0f82 1B       		.uleb128 0x1b
 4274 0f83 9F000000 		.4byte	0x9f
 4275 0f87 1B       		.uleb128 0x1b
 4276 0f88 E4000000 		.4byte	0xe4
 4277 0f8c 02       		.uleb128 0x2
 4278 0f8d 760B0000 		.4byte	.LASF268
 4279 0f91 15       		.byte	0x15
 4280 0f92 3D       		.byte	0x3d
 4281 0f93 070F0000 		.4byte	0xf07
 4282 0f97 14       		.uleb128 0x14
 4283 0f98 420B0000 		.4byte	.LASF269
 4284 0f9c 30       		.byte	0x30
 4285 0f9d 15       		.byte	0x15
 4286 0f9e 42       		.byte	0x42
 4287 0f9f 61100000 		.4byte	0x1061
 4288 0fa3 12       		.uleb128 0x12
 4289 0fa4 20050000 		.4byte	.LASF270
 4290 0fa8 15       		.byte	0x15
 4291 0fa9 44       		.byte	0x44
 4292 0faa EF000000 		.4byte	0xef
 4293 0fae 00       		.byte	0
 4294 0faf 12       		.uleb128 0x12
 4295 0fb0 B5020000 		.4byte	.LASF271
 4296 0fb4 15       		.byte	0x15
 4297 0fb5 45       		.byte	0x45
 4298 0fb6 EF000000 		.4byte	0xef
 4299 0fba 02       		.byte	0x2
 4300 0fbb 12       		.uleb128 0x12
 4301 0fbc 97080000 		.4byte	.LASF272
 4302 0fc0 15       		.byte	0x15
 4303 0fc1 49       		.byte	0x49
 4304 0fc2 61100000 		.4byte	0x1061
 4305 0fc6 04       		.byte	0x4
 4306 0fc7 0A       		.uleb128 0xa
ARM GAS  C:\Users\strap\AppData\Local\Temp\ccUgAYbc.s 			page 112


 4307 0fc8 2D070000 		.4byte	.LASF273
 4308 0fcc 15       		.byte	0x15
 4309 0fcd 4C       		.byte	0x4c
 4310 0fce E4000000 		.4byte	0xe4
 4311 0fd2 04       		.byte	0x4
 4312 0fd3 01       		.byte	0x1
 4313 0fd4 1F       		.byte	0x1f
 4314 0fd5 08       		.byte	0x8
 4315 0fd6 0A       		.uleb128 0xa
 4316 0fd7 3A030000 		.4byte	.LASF274
 4317 0fdb 15       		.byte	0x15
 4318 0fdc 4E       		.byte	0x4e
 4319 0fdd E4000000 		.4byte	0xe4
 4320 0fe1 04       		.byte	0x4
 4321 0fe2 01       		.byte	0x1
 4322 0fe3 1E       		.byte	0x1e
 4323 0fe4 08       		.byte	0x8
 4324 0fe5 0B       		.uleb128 0xb
 4325 0fe6 64706900 		.ascii	"dpi\000"
 4326 0fea 15       		.byte	0x15
 4327 0feb 59       		.byte	0x59
 4328 0fec E4000000 		.4byte	0xe4
 4329 0ff0 04       		.byte	0x4
 4330 0ff1 0A       		.byte	0xa
 4331 0ff2 14       		.byte	0x14
 4332 0ff3 08       		.byte	0x8
 4333 0ff4 12       		.uleb128 0x12
 4334 0ff5 8C160000 		.4byte	.LASF275
 4335 0ff9 15       		.byte	0x15
 4336 0ffa 5D       		.byte	0x5d
 4337 0ffb 93100000 		.4byte	0x1093
 4338 0fff 0C       		.byte	0xc
 4339 1000 12       		.uleb128 0x12
 4340 1001 54120000 		.4byte	.LASF276
 4341 1005 15       		.byte	0x15
 4342 1006 61       		.byte	0x61
 4343 1007 AF100000 		.4byte	0x10af
 4344 100b 10       		.byte	0x10
 4345 100c 12       		.uleb128 0x12
 4346 100d 02050000 		.4byte	.LASF277
 4347 1011 15       		.byte	0x15
 4348 1012 66       		.byte	0x66
 4349 1013 DE100000 		.4byte	0x10de
 4350 1017 14       		.byte	0x14
 4351 1018 12       		.uleb128 0x12
 4352 1019 29160000 		.4byte	.LASF278
 4353 101d 15       		.byte	0x15
 4354 101e 6B       		.byte	0x6b
 4355 101f F9100000 		.4byte	0x10f9
 4356 1023 18       		.byte	0x18
 4357 1024 12       		.uleb128 0x12
 4358 1025 BD0B0000 		.4byte	.LASF279
 4359 1029 15       		.byte	0x15
 4360 102a 70       		.byte	0x70
 4361 102b 0A110000 		.4byte	0x110a
 4362 102f 1C       		.byte	0x1c
 4363 1030 12       		.uleb128 0x12
ARM GAS  C:\Users\strap\AppData\Local\Temp\ccUgAYbc.s 			page 113


 4364 1031 29110000 		.4byte	.LASF280
 4365 1035 15       		.byte	0x15
 4366 1036 73       		.byte	0x73
 4367 1037 0A110000 		.4byte	0x110a
 4368 103b 20       		.byte	0x20
 4369 103c 12       		.uleb128 0x12
 4370 103d EB100000 		.4byte	.LASF281
 4371 1041 15       		.byte	0x15
 4372 1042 76       		.byte	0x76
 4373 1043 0A110000 		.4byte	0x110a
 4374 1047 24       		.byte	0x24
 4375 1048 12       		.uleb128 0x12
 4376 1049 07000000 		.4byte	.LASF282
 4377 104d 15       		.byte	0x15
 4378 104e 85       		.byte	0x85
 4379 104f F4010000 		.4byte	0x1f4
 4380 1053 28       		.byte	0x28
 4381 1054 12       		.uleb128 0x12
 4382 1055 95160000 		.4byte	.LASF131
 4383 1059 15       		.byte	0x15
 4384 105a 88       		.byte	0x88
 4385 105b 07010000 		.4byte	0x107
 4386 105f 2C       		.byte	0x2c
 4387 1060 00       		.byte	0
 4388 1061 0F       		.uleb128 0xf
 4389 1062 04       		.byte	0x4
 4390 1063 8C0F0000 		.4byte	0xf8c
 4391 1067 17       		.uleb128 0x17
 4392 1068 7C100000 		.4byte	0x107c
 4393 106c 16       		.uleb128 0x16
 4394 106d 7C100000 		.4byte	0x107c
 4395 1071 16       		.uleb128 0x16
 4396 1072 82100000 		.4byte	0x1082
 4397 1076 16       		.uleb128 0x16
 4398 1077 8D100000 		.4byte	0x108d
 4399 107b 00       		.byte	0
 4400 107c 0F       		.uleb128 0xf
 4401 107d 04       		.byte	0x4
 4402 107e 970F0000 		.4byte	0xf97
 4403 1082 0F       		.uleb128 0xf
 4404 1083 04       		.byte	0x4
 4405 1084 88100000 		.4byte	0x1088
 4406 1088 10       		.uleb128 0x10
 4407 1089 B8020000 		.4byte	0x2b8
 4408 108d 0F       		.uleb128 0xf
 4409 108e 04       		.byte	0x4
 4410 108f F4010000 		.4byte	0x1f4
 4411 1093 0F       		.uleb128 0xf
 4412 1094 04       		.byte	0x4
 4413 1095 67100000 		.4byte	0x1067
 4414 1099 17       		.uleb128 0x17
 4415 109a A9100000 		.4byte	0x10a9
 4416 109e 16       		.uleb128 0x16
 4417 109f 7C100000 		.4byte	0x107c
 4418 10a3 16       		.uleb128 0x16
 4419 10a4 A9100000 		.4byte	0x10a9
 4420 10a8 00       		.byte	0
ARM GAS  C:\Users\strap\AppData\Local\Temp\ccUgAYbc.s 			page 114


 4421 10a9 0F       		.uleb128 0xf
 4422 10aa 04       		.byte	0x4
 4423 10ab B8020000 		.4byte	0x2b8
 4424 10af 0F       		.uleb128 0xf
 4425 10b0 04       		.byte	0x4
 4426 10b1 99100000 		.4byte	0x1099
 4427 10b5 17       		.uleb128 0x17
 4428 10b6 DE100000 		.4byte	0x10de
 4429 10ba 16       		.uleb128 0x16
 4430 10bb 7C100000 		.4byte	0x107c
 4431 10bf 16       		.uleb128 0x16
 4432 10c0 8C070000 		.4byte	0x78c
 4433 10c4 16       		.uleb128 0x16
 4434 10c5 EF000000 		.4byte	0xef
 4435 10c9 16       		.uleb128 0x16
 4436 10ca EF000000 		.4byte	0xef
 4437 10ce 16       		.uleb128 0x16
 4438 10cf EF000000 		.4byte	0xef
 4439 10d3 16       		.uleb128 0x16
 4440 10d4 F4010000 		.4byte	0x1f4
 4441 10d8 16       		.uleb128 0x16
 4442 10d9 00020000 		.4byte	0x200
 4443 10dd 00       		.byte	0
 4444 10de 0F       		.uleb128 0xf
 4445 10df 04       		.byte	0x4
 4446 10e0 B5100000 		.4byte	0x10b5
 4447 10e4 17       		.uleb128 0x17
 4448 10e5 F9100000 		.4byte	0x10f9
 4449 10e9 16       		.uleb128 0x16
 4450 10ea 7C100000 		.4byte	0x107c
 4451 10ee 16       		.uleb128 0x16
 4452 10ef E4000000 		.4byte	0xe4
 4453 10f3 16       		.uleb128 0x16
 4454 10f4 E4000000 		.4byte	0xe4
 4455 10f8 00       		.byte	0
 4456 10f9 0F       		.uleb128 0xf
 4457 10fa 04       		.byte	0x4
 4458 10fb E4100000 		.4byte	0x10e4
 4459 10ff 17       		.uleb128 0x17
 4460 1100 0A110000 		.4byte	0x110a
 4461 1104 16       		.uleb128 0x16
 4462 1105 7C100000 		.4byte	0x107c
 4463 1109 00       		.byte	0
 4464 110a 0F       		.uleb128 0xf
 4465 110b 04       		.byte	0x4
 4466 110c FF100000 		.4byte	0x10ff
 4467 1110 02       		.uleb128 0x2
 4468 1111 0B150000 		.4byte	.LASF283
 4469 1115 15       		.byte	0x15
 4470 1116 8B       		.byte	0x8b
 4471 1117 970F0000 		.4byte	0xf97
 4472 111b 1C       		.uleb128 0x1c
 4473 111c B8020000 		.4byte	0x2b8
 4474 1120 2B110000 		.4byte	0x112b
 4475 1124 1D       		.uleb128 0x1d
 4476 1125 1E020000 		.4byte	0x21e
 4477 1129 1F       		.byte	0x1f
ARM GAS  C:\Users\strap\AppData\Local\Temp\ccUgAYbc.s 			page 115


 4478 112a 00       		.byte	0
 4479 112b 1C       		.uleb128 0x1c
 4480 112c B8000000 		.4byte	0xb8
 4481 1130 3B110000 		.4byte	0x113b
 4482 1134 1D       		.uleb128 0x1d
 4483 1135 1E020000 		.4byte	0x21e
 4484 1139 1F       		.byte	0x1f
 4485 113a 00       		.byte	0
 4486 113b 02       		.uleb128 0x2
 4487 113c 4A000000 		.4byte	.LASF284
 4488 1140 15       		.byte	0x15
 4489 1141 AF       		.byte	0xaf
 4490 1142 AF0C0000 		.4byte	0xcaf
 4491 1146 09       		.uleb128 0x9
 4492 1147 54       		.byte	0x54
 4493 1148 17       		.byte	0x17
 4494 1149 1A       		.byte	0x1a
 4495 114a 59130000 		.4byte	0x1359
 4496 114e 12       		.uleb128 0x12
 4497 114f FD000000 		.4byte	.LASF285
 4498 1153 17       		.byte	0x17
 4499 1154 1B       		.byte	0x1b
 4500 1155 9D070000 		.4byte	0x79d
 4501 1159 00       		.byte	0
 4502 115a 12       		.uleb128 0x12
 4503 115b 04010000 		.4byte	.LASF226
 4504 115f 17       		.byte	0x17
 4505 1160 1E       		.byte	0x1e
 4506 1161 F4010000 		.4byte	0x1f4
 4507 1165 02       		.byte	0x2
 4508 1166 12       		.uleb128 0x12
 4509 1167 610B0000 		.4byte	.LASF286
 4510 116b 17       		.byte	0x17
 4511 116c 1F       		.byte	0x1f
 4512 116d F4010000 		.4byte	0x1f4
 4513 1171 04       		.byte	0x4
 4514 1172 12       		.uleb128 0x12
 4515 1173 F60A0000 		.4byte	.LASF287
 4516 1177 17       		.byte	0x17
 4517 1178 20       		.byte	0x20
 4518 1179 61070000 		.4byte	0x761
 4519 117d 06       		.byte	0x6
 4520 117e 12       		.uleb128 0x12
 4521 117f 6A000000 		.4byte	.LASF288
 4522 1183 17       		.byte	0x17
 4523 1184 21       		.byte	0x21
 4524 1185 9D070000 		.4byte	0x79d
 4525 1189 08       		.byte	0x8
 4526 118a 12       		.uleb128 0x12
 4527 118b 29020000 		.4byte	.LASF289
 4528 118f 17       		.byte	0x17
 4529 1190 22       		.byte	0x22
 4530 1191 9D070000 		.4byte	0x79d
 4531 1195 0A       		.byte	0xa
 4532 1196 12       		.uleb128 0x12
 4533 1197 42030000 		.4byte	.LASF228
 4534 119b 17       		.byte	0x17
ARM GAS  C:\Users\strap\AppData\Local\Temp\ccUgAYbc.s 			page 116


 4535 119c 23       		.byte	0x23
 4536 119d 00020000 		.4byte	0x200
 4537 11a1 0C       		.byte	0xc
 4538 11a2 12       		.uleb128 0x12
 4539 11a3 BA170000 		.4byte	.LASF290
 4540 11a7 17       		.byte	0x17
 4541 11a8 24       		.byte	0x24
 4542 11a9 56070000 		.4byte	0x756
 4543 11ad 0D       		.byte	0xd
 4544 11ae 12       		.uleb128 0x12
 4545 11af 6D070000 		.4byte	.LASF291
 4546 11b3 17       		.byte	0x17
 4547 11b4 27       		.byte	0x27
 4548 11b5 F4010000 		.4byte	0x1f4
 4549 11b9 0E       		.byte	0xe
 4550 11ba 12       		.uleb128 0x12
 4551 11bb AB110000 		.4byte	.LASF292
 4552 11bf 17       		.byte	0x17
 4553 11c0 28       		.byte	0x28
 4554 11c1 9D070000 		.4byte	0x79d
 4555 11c5 10       		.byte	0x10
 4556 11c6 12       		.uleb128 0x12
 4557 11c7 94020000 		.4byte	.LASF293
 4558 11cb 17       		.byte	0x17
 4559 11cc 29       		.byte	0x29
 4560 11cd 9D070000 		.4byte	0x79d
 4561 11d1 12       		.byte	0x12
 4562 11d2 12       		.uleb128 0x12
 4563 11d3 D4140000 		.4byte	.LASF294
 4564 11d7 17       		.byte	0x17
 4565 11d8 2A       		.byte	0x2a
 4566 11d9 00020000 		.4byte	0x200
 4567 11dd 14       		.byte	0x14
 4568 11de 12       		.uleb128 0x12
 4569 11df A2070000 		.4byte	.LASF295
 4570 11e3 17       		.byte	0x17
 4571 11e4 2B       		.byte	0x2b
 4572 11e5 56070000 		.4byte	0x756
 4573 11e9 15       		.byte	0x15
 4574 11ea 0A       		.uleb128 0xa
 4575 11eb C0070000 		.4byte	.LASF296
 4576 11ef 17       		.byte	0x17
 4577 11f0 2C       		.byte	0x2c
 4578 11f1 B8000000 		.4byte	0xb8
 4579 11f5 01       		.byte	0x1
 4580 11f6 01       		.byte	0x1
 4581 11f7 07       		.byte	0x7
 4582 11f8 16       		.byte	0x16
 4583 11f9 12       		.uleb128 0x12
 4584 11fa CF040000 		.4byte	.LASF297
 4585 11fe 17       		.byte	0x17
 4586 11ff 2F       		.byte	0x2f
 4587 1200 F4010000 		.4byte	0x1f4
 4588 1204 18       		.byte	0x18
 4589 1205 12       		.uleb128 0x12
 4590 1206 5E0E0000 		.4byte	.LASF298
 4591 120a 17       		.byte	0x17
ARM GAS  C:\Users\strap\AppData\Local\Temp\ccUgAYbc.s 			page 117


 4592 120b 30       		.byte	0x30
 4593 120c 9D070000 		.4byte	0x79d
 4594 1210 1A       		.byte	0x1a
 4595 1211 12       		.uleb128 0x12
 4596 1212 55070000 		.4byte	.LASF299
 4597 1216 17       		.byte	0x17
 4598 1217 31       		.byte	0x31
 4599 1218 9D070000 		.4byte	0x79d
 4600 121c 1C       		.byte	0x1c
 4601 121d 12       		.uleb128 0x12
 4602 121e D00D0000 		.4byte	.LASF300
 4603 1222 17       		.byte	0x17
 4604 1223 32       		.byte	0x32
 4605 1224 00020000 		.4byte	0x200
 4606 1228 1E       		.byte	0x1e
 4607 1229 12       		.uleb128 0x12
 4608 122a BB030000 		.4byte	.LASF301
 4609 122e 17       		.byte	0x17
 4610 122f 33       		.byte	0x33
 4611 1230 56070000 		.4byte	0x756
 4612 1234 1F       		.byte	0x1f
 4613 1235 12       		.uleb128 0x12
 4614 1236 F70B0000 		.4byte	.LASF302
 4615 123a 17       		.byte	0x17
 4616 123b 36       		.byte	0x36
 4617 123c F4010000 		.4byte	0x1f4
 4618 1240 20       		.byte	0x20
 4619 1241 12       		.uleb128 0x12
 4620 1242 09160000 		.4byte	.LASF303
 4621 1246 17       		.byte	0x17
 4622 1247 37       		.byte	0x37
 4623 1248 9D070000 		.4byte	0x79d
 4624 124c 22       		.byte	0x22
 4625 124d 12       		.uleb128 0x12
 4626 124e 85170000 		.4byte	.LASF304
 4627 1252 17       		.byte	0x17
 4628 1253 38       		.byte	0x38
 4629 1254 9D070000 		.4byte	0x79d
 4630 1258 24       		.byte	0x24
 4631 1259 12       		.uleb128 0x12
 4632 125a 92170000 		.4byte	.LASF305
 4633 125e 17       		.byte	0x17
 4634 125f 39       		.byte	0x39
 4635 1260 9D070000 		.4byte	0x79d
 4636 1264 26       		.byte	0x26
 4637 1265 12       		.uleb128 0x12
 4638 1266 68090000 		.4byte	.LASF306
 4639 126a 17       		.byte	0x17
 4640 126b 3A       		.byte	0x3a
 4641 126c 9D070000 		.4byte	0x79d
 4642 1270 28       		.byte	0x28
 4643 1271 12       		.uleb128 0x12
 4644 1272 CA130000 		.4byte	.LASF307
 4645 1276 17       		.byte	0x17
 4646 1277 3B       		.byte	0x3b
 4647 1278 00020000 		.4byte	0x200
 4648 127c 2A       		.byte	0x2a
ARM GAS  C:\Users\strap\AppData\Local\Temp\ccUgAYbc.s 			page 118


 4649 127d 12       		.uleb128 0x12
 4650 127e A4060000 		.4byte	.LASF308
 4651 1282 17       		.byte	0x17
 4652 1283 3C       		.byte	0x3c
 4653 1284 56070000 		.4byte	0x756
 4654 1288 2B       		.byte	0x2b
 4655 1289 12       		.uleb128 0x12
 4656 128a 240C0000 		.4byte	.LASF309
 4657 128e 17       		.byte	0x17
 4658 128f 3F       		.byte	0x3f
 4659 1290 C3040000 		.4byte	0x4c3
 4660 1294 2C       		.byte	0x2c
 4661 1295 12       		.uleb128 0x12
 4662 1296 DC110000 		.4byte	.LASF310
 4663 129a 17       		.byte	0x17
 4664 129b 40       		.byte	0x40
 4665 129c 59130000 		.4byte	0x1359
 4666 12a0 30       		.byte	0x30
 4667 12a1 12       		.uleb128 0x12
 4668 12a2 CA0A0000 		.4byte	.LASF311
 4669 12a6 17       		.byte	0x17
 4670 12a7 41       		.byte	0x41
 4671 12a8 F4010000 		.4byte	0x1f4
 4672 12ac 34       		.byte	0x34
 4673 12ad 12       		.uleb128 0x12
 4674 12ae 61070000 		.4byte	.LASF312
 4675 12b2 17       		.byte	0x17
 4676 12b3 42       		.byte	0x42
 4677 12b4 00020000 		.4byte	0x200
 4678 12b8 36       		.byte	0x36
 4679 12b9 12       		.uleb128 0x12
 4680 12ba 28170000 		.4byte	.LASF313
 4681 12be 17       		.byte	0x17
 4682 12bf 43       		.byte	0x43
 4683 12c0 00020000 		.4byte	0x200
 4684 12c4 37       		.byte	0x37
 4685 12c5 0A       		.uleb128 0xa
 4686 12c6 A3040000 		.4byte	.LASF314
 4687 12ca 17       		.byte	0x17
 4688 12cb 44       		.byte	0x44
 4689 12cc B8000000 		.4byte	0xb8
 4690 12d0 01       		.byte	0x1
 4691 12d1 01       		.byte	0x1
 4692 12d2 07       		.byte	0x7
 4693 12d3 38       		.byte	0x38
 4694 12d4 12       		.uleb128 0x12
 4695 12d5 50170000 		.4byte	.LASF315
 4696 12d9 17       		.byte	0x17
 4697 12da 45       		.byte	0x45
 4698 12db 56070000 		.4byte	0x756
 4699 12df 39       		.byte	0x39
 4700 12e0 12       		.uleb128 0x12
 4701 12e1 9E120000 		.4byte	.LASF316
 4702 12e5 17       		.byte	0x17
 4703 12e6 48       		.byte	0x48
 4704 12e7 2C020000 		.4byte	0x22c
 4705 12eb 3C       		.byte	0x3c
ARM GAS  C:\Users\strap\AppData\Local\Temp\ccUgAYbc.s 			page 119


 4706 12ec 12       		.uleb128 0x12
 4707 12ed 7A070000 		.4byte	.LASF317
 4708 12f1 17       		.byte	0x17
 4709 12f2 49       		.byte	0x49
 4710 12f3 59130000 		.4byte	0x1359
 4711 12f7 40       		.byte	0x40
 4712 12f8 12       		.uleb128 0x12
 4713 12f9 9A130000 		.4byte	.LASF318
 4714 12fd 17       		.byte	0x17
 4715 12fe 4A       		.byte	0x4a
 4716 12ff 00020000 		.4byte	0x200
 4717 1303 44       		.byte	0x44
 4718 1304 12       		.uleb128 0x12
 4719 1305 0D080000 		.4byte	.LASF319
 4720 1309 17       		.byte	0x17
 4721 130a 4B       		.byte	0x4b
 4722 130b F4010000 		.4byte	0x1f4
 4723 130f 46       		.byte	0x46
 4724 1310 12       		.uleb128 0x12
 4725 1311 200D0000 		.4byte	.LASF320
 4726 1315 17       		.byte	0x17
 4727 1316 4C       		.byte	0x4c
 4728 1317 9D070000 		.4byte	0x79d
 4729 131b 48       		.byte	0x48
 4730 131c 12       		.uleb128 0x12
 4731 131d B4070000 		.4byte	.LASF321
 4732 1321 17       		.byte	0x17
 4733 1322 4D       		.byte	0x4d
 4734 1323 9D070000 		.4byte	0x79d
 4735 1327 4A       		.byte	0x4a
 4736 1328 12       		.uleb128 0x12
 4737 1329 7C030000 		.4byte	.LASF322
 4738 132d 17       		.byte	0x17
 4739 132e 4E       		.byte	0x4e
 4740 132f 9D070000 		.4byte	0x79d
 4741 1333 4C       		.byte	0x4c
 4742 1334 12       		.uleb128 0x12
 4743 1335 73050000 		.4byte	.LASF323
 4744 1339 17       		.byte	0x17
 4745 133a 4F       		.byte	0x4f
 4746 133b 9D070000 		.4byte	0x79d
 4747 133f 4E       		.byte	0x4e
 4748 1340 12       		.uleb128 0x12
 4749 1341 63060000 		.4byte	.LASF324
 4750 1345 17       		.byte	0x17
 4751 1346 50       		.byte	0x50
 4752 1347 C3020000 		.4byte	0x2c3
 4753 134b 50       		.byte	0x50
 4754 134c 12       		.uleb128 0x12
 4755 134d A30D0000 		.4byte	.LASF325
 4756 1351 17       		.byte	0x17
 4757 1352 51       		.byte	0x51
 4758 1353 56070000 		.4byte	0x756
 4759 1357 51       		.byte	0x51
 4760 1358 00       		.byte	0
 4761 1359 0F       		.uleb128 0xf
 4762 135a 04       		.byte	0x4
ARM GAS  C:\Users\strap\AppData\Local\Temp\ccUgAYbc.s 			page 120


 4763 135b 5F130000 		.4byte	0x135f
 4764 135f 10       		.uleb128 0x10
 4765 1360 15070000 		.4byte	0x715
 4766 1364 02       		.uleb128 0x2
 4767 1365 91060000 		.4byte	.LASF326
 4768 1369 17       		.byte	0x17
 4769 136a 52       		.byte	0x52
 4770 136b 46110000 		.4byte	0x1146
 4771 136f 02       		.uleb128 0x2
 4772 1370 4A080000 		.4byte	.LASF327
 4773 1374 18       		.byte	0x18
 4774 1375 2B       		.byte	0x2b
 4775 1376 B8000000 		.4byte	0xb8
 4776 137a 02       		.uleb128 0x2
 4777 137b 120D0000 		.4byte	.LASF328
 4778 137f 19       		.byte	0x19
 4779 1380 2F       		.byte	0x2f
 4780 1381 B8000000 		.4byte	0xb8
 4781 1385 09       		.uleb128 0x9
 4782 1386 24       		.byte	0x24
 4783 1387 1A       		.byte	0x1a
 4784 1388 1D       		.byte	0x1d
 4785 1389 42140000 		.4byte	0x1442
 4786 138d 12       		.uleb128 0x12
 4787 138e B2120000 		.4byte	.LASF102
 4788 1392 1A       		.byte	0x1a
 4789 1393 1E       		.byte	0x1e
 4790 1394 F4010000 		.4byte	0x1f4
 4791 1398 00       		.byte	0
 4792 1399 12       		.uleb128 0x12
 4793 139a 3C170000 		.4byte	.LASF329
 4794 139e 1A       		.byte	0x1a
 4795 139f 1F       		.byte	0x1f
 4796 13a0 F4010000 		.4byte	0x1f4
 4797 13a4 02       		.byte	0x2
 4798 13a5 12       		.uleb128 0x12
 4799 13a6 6E020000 		.4byte	.LASF330
 4800 13aa 1A       		.byte	0x1a
 4801 13ab 20       		.byte	0x20
 4802 13ac F4010000 		.4byte	0x1f4
 4803 13b0 04       		.byte	0x4
 4804 13b1 12       		.uleb128 0x12
 4805 13b2 35130000 		.4byte	.LASF331
 4806 13b6 1A       		.byte	0x1a
 4807 13b7 21       		.byte	0x21
 4808 13b8 59130000 		.4byte	0x1359
 4809 13bc 08       		.byte	0x8
 4810 13bd 11       		.uleb128 0x11
 4811 13be 6F706100 		.ascii	"opa\000"
 4812 13c2 1A       		.byte	0x1a
 4813 13c3 22       		.byte	0x22
 4814 13c4 00020000 		.4byte	0x200
 4815 13c8 0C       		.byte	0xc
 4816 13c9 12       		.uleb128 0x12
 4817 13ca D8120000 		.4byte	.LASF332
 4818 13ce 1A       		.byte	0x1a
 4819 13cf 23       		.byte	0x23
ARM GAS  C:\Users\strap\AppData\Local\Temp\ccUgAYbc.s 			page 121


 4820 13d0 9D070000 		.4byte	0x79d
 4821 13d4 0E       		.byte	0xe
 4822 13d5 12       		.uleb128 0x12
 4823 13d6 3A130000 		.4byte	.LASF333
 4824 13da 1A       		.byte	0x1a
 4825 13db 24       		.byte	0x24
 4826 13dc 9D070000 		.4byte	0x79d
 4827 13e0 10       		.byte	0x10
 4828 13e1 12       		.uleb128 0x12
 4829 13e2 C2150000 		.4byte	.LASF334
 4830 13e6 1A       		.byte	0x1a
 4831 13e7 25       		.byte	0x25
 4832 13e8 E4000000 		.4byte	0xe4
 4833 13ec 14       		.byte	0x14
 4834 13ed 12       		.uleb128 0x12
 4835 13ee 8E0D0000 		.4byte	.LASF335
 4836 13f2 1A       		.byte	0x1a
 4837 13f3 26       		.byte	0x26
 4838 13f4 E4000000 		.4byte	0xe4
 4839 13f8 18       		.byte	0x18
 4840 13f9 12       		.uleb128 0x12
 4841 13fa DB050000 		.4byte	.LASF121
 4842 13fe 1A       		.byte	0x1a
 4843 13ff 27       		.byte	0x27
 4844 1400 EF000000 		.4byte	0xef
 4845 1404 1C       		.byte	0x1c
 4846 1405 12       		.uleb128 0x12
 4847 1406 E1050000 		.4byte	.LASF122
 4848 140a 1A       		.byte	0x1a
 4849 140b 28       		.byte	0x28
 4850 140c EF000000 		.4byte	0xef
 4851 1410 1E       		.byte	0x1e
 4852 1411 12       		.uleb128 0x12
 4853 1412 29010000 		.4byte	.LASF336
 4854 1416 1A       		.byte	0x1a
 4855 1417 29       		.byte	0x29
 4856 1418 6F130000 		.4byte	0x136f
 4857 141c 20       		.byte	0x20
 4858 141d 12       		.uleb128 0x12
 4859 141e CB0D0000 		.4byte	.LASF337
 4860 1422 1A       		.byte	0x1a
 4861 1423 2A       		.byte	0x2a
 4862 1424 7A130000 		.4byte	0x137a
 4863 1428 21       		.byte	0x21
 4864 1429 12       		.uleb128 0x12
 4865 142a 5F120000 		.4byte	.LASF338
 4866 142e 1A       		.byte	0x1a
 4867 142f 2B       		.byte	0x2b
 4868 1430 6C070000 		.4byte	0x76c
 4869 1434 22       		.byte	0x22
 4870 1435 12       		.uleb128 0x12
 4871 1436 AA020000 		.4byte	.LASF198
 4872 143a 1A       		.byte	0x1a
 4873 143b 2C       		.byte	0x2c
 4874 143c 56070000 		.4byte	0x756
 4875 1440 23       		.byte	0x23
 4876 1441 00       		.byte	0
ARM GAS  C:\Users\strap\AppData\Local\Temp\ccUgAYbc.s 			page 122


 4877 1442 02       		.uleb128 0x2
 4878 1443 5D030000 		.4byte	.LASF339
 4879 1447 1A       		.byte	0x1a
 4880 1448 2D       		.byte	0x2d
 4881 1449 85130000 		.4byte	0x1385
 4882 144d 02       		.uleb128 0x2
 4883 144e 42100000 		.4byte	.LASF340
 4884 1452 16       		.byte	0x16
 4885 1453 42       		.byte	0x42
 4886 1454 B8000000 		.4byte	0xb8
 4887 1458 02       		.uleb128 0x2
 4888 1459 5E010000 		.4byte	.LASF341
 4889 145d 16       		.byte	0x16
 4890 145e 4C       		.byte	0x4c
 4891 145f B8000000 		.4byte	0xb8
 4892 1463 02       		.uleb128 0x2
 4893 1464 CD170000 		.4byte	.LASF342
 4894 1468 16       		.byte	0x16
 4895 1469 52       		.byte	0x52
 4896 146a 6E140000 		.4byte	0x146e
 4897 146e 0F       		.uleb128 0xf
 4898 146f 04       		.byte	0x4
 4899 1470 74140000 		.4byte	0x1474
 4900 1474 15       		.uleb128 0x15
 4901 1475 58140000 		.4byte	0x1458
 4902 1479 8D140000 		.4byte	0x148d
 4903 147d 16       		.uleb128 0x16
 4904 147e 010F0000 		.4byte	0xf01
 4905 1482 16       		.uleb128 0x16
 4906 1483 82100000 		.4byte	0x1082
 4907 1487 16       		.uleb128 0x16
 4908 1488 4D140000 		.4byte	0x144d
 4909 148c 00       		.byte	0
 4910 148d 02       		.uleb128 0x2
 4911 148e 8D010000 		.4byte	.LASF343
 4912 1492 16       		.byte	0x16
 4913 1493 6E       		.byte	0x6e
 4914 1494 B8000000 		.4byte	0xb8
 4915 1498 02       		.uleb128 0x2
 4916 1499 CC070000 		.4byte	.LASF344
 4917 149d 16       		.byte	0x16
 4918 149e 75       		.byte	0x75
 4919 149f A3140000 		.4byte	0x14a3
 4920 14a3 0F       		.uleb128 0xf
 4921 14a4 04       		.byte	0x4
 4922 14a5 A9140000 		.4byte	0x14a9
 4923 14a9 17       		.uleb128 0x17
 4924 14aa B9140000 		.4byte	0x14b9
 4925 14ae 16       		.uleb128 0x16
 4926 14af 010F0000 		.4byte	0xf01
 4927 14b3 16       		.uleb128 0x16
 4928 14b4 8D140000 		.4byte	0x148d
 4929 14b8 00       		.byte	0
 4930 14b9 02       		.uleb128 0x2
 4931 14ba 02130000 		.4byte	.LASF345
 4932 14be 16       		.byte	0x16
 4933 14bf 9B       		.byte	0x9b
ARM GAS  C:\Users\strap\AppData\Local\Temp\ccUgAYbc.s 			page 123


 4934 14c0 B8000000 		.4byte	0xb8
 4935 14c4 02       		.uleb128 0x2
 4936 14c5 54060000 		.4byte	.LASF346
 4937 14c9 16       		.byte	0x16
 4938 14ca 9D       		.byte	0x9d
 4939 14cb CF140000 		.4byte	0x14cf
 4940 14cf 0F       		.uleb128 0xf
 4941 14d0 04       		.byte	0x4
 4942 14d1 D5140000 		.4byte	0x14d5
 4943 14d5 15       		.uleb128 0x15
 4944 14d6 50020000 		.4byte	0x250
 4945 14da EE140000 		.4byte	0x14ee
 4946 14de 16       		.uleb128 0x16
 4947 14df 010F0000 		.4byte	0xf01
 4948 14e3 16       		.uleb128 0x16
 4949 14e4 B9140000 		.4byte	0x14b9
 4950 14e8 16       		.uleb128 0x16
 4951 14e9 FA000000 		.4byte	0xfa
 4952 14ed 00       		.byte	0
 4953 14ee 09       		.uleb128 0x9
 4954 14ef 0C       		.byte	0xc
 4955 14f0 16       		.byte	0x16
 4956 14f1 A0       		.byte	0xa0
 4957 14f2 45150000 		.4byte	0x1545
 4958 14f6 12       		.uleb128 0x12
 4959 14f7 63130000 		.4byte	.LASF347
 4960 14fb 16       		.byte	0x16
 4961 14fc A1       		.byte	0xa1
 4962 14fd 45150000 		.4byte	0x1545
 4963 1501 00       		.byte	0
 4964 1502 12       		.uleb128 0x12
 4965 1503 E3120000 		.4byte	.LASF348
 4966 1507 16       		.byte	0x16
 4967 1508 A2       		.byte	0xa2
 4968 1509 EF000000 		.4byte	0xef
 4969 150d 04       		.byte	0x4
 4970 150e 12       		.uleb128 0x12
 4971 150f FC060000 		.4byte	.LASF349
 4972 1513 16       		.byte	0x16
 4973 1514 A3       		.byte	0xa3
 4974 1515 EF000000 		.4byte	0xef
 4975 1519 06       		.byte	0x6
 4976 151a 12       		.uleb128 0x12
 4977 151b 8C0C0000 		.4byte	.LASF350
 4978 151f 16       		.byte	0x16
 4979 1520 A4       		.byte	0xa4
 4980 1521 C3020000 		.4byte	0x2c3
 4981 1525 08       		.byte	0x8
 4982 1526 0A       		.uleb128 0xa
 4983 1527 1C0E0000 		.4byte	.LASF351
 4984 152b 16       		.byte	0x16
 4985 152c A5       		.byte	0xa5
 4986 152d B8000000 		.4byte	0xb8
 4987 1531 01       		.byte	0x1
 4988 1532 01       		.byte	0x1
 4989 1533 07       		.byte	0x7
 4990 1534 09       		.byte	0x9
ARM GAS  C:\Users\strap\AppData\Local\Temp\ccUgAYbc.s 			page 124


 4991 1535 0A       		.uleb128 0xa
 4992 1536 8E110000 		.4byte	.LASF352
 4993 153a 16       		.byte	0x16
 4994 153b A6       		.byte	0xa6
 4995 153c B8000000 		.4byte	0xb8
 4996 1540 01       		.byte	0x1
 4997 1541 01       		.byte	0x1
 4998 1542 06       		.byte	0x6
 4999 1543 09       		.byte	0x9
 5000 1544 00       		.byte	0
 5001 1545 0F       		.uleb128 0xf
 5002 1546 04       		.byte	0x4
 5003 1547 4B150000 		.4byte	0x154b
 5004 154b 10       		.uleb128 0x10
 5005 154c 800D0000 		.4byte	0xd80
 5006 1550 02       		.uleb128 0x2
 5007 1551 DE100000 		.4byte	.LASF353
 5008 1555 16       		.byte	0x16
 5009 1556 A8       		.byte	0xa8
 5010 1557 EE140000 		.4byte	0x14ee
 5011 155b 02       		.uleb128 0x2
 5012 155c 71030000 		.4byte	.LASF354
 5013 1560 16       		.byte	0x16
 5014 1561 C3       		.byte	0xc3
 5015 1562 B8000000 		.4byte	0xb8
 5016 1566 1E       		.uleb128 0x1e
 5017 1567 940B0000 		.4byte	.LASF356
 5018 156b 02       		.byte	0x2
 5019 156c D6       		.byte	0xd6
 5020 156d FA000000 		.4byte	0xfa
 5021 1571 03       		.byte	0x3
 5022 1572 AC150000 		.4byte	0x15ac
 5023 1576 1F       		.uleb128 0x1f
 5024 1577 64737400 		.ascii	"dst\000"
 5025 157b 02       		.byte	0x2
 5026 157c D6       		.byte	0xd6
 5027 157d FA000000 		.4byte	0xfa
 5028 1581 1F       		.uleb128 0x1f
 5029 1582 73726300 		.ascii	"src\000"
 5030 1586 02       		.byte	0x2
 5031 1587 D6       		.byte	0xd6
 5032 1588 C3040000 		.4byte	0x4c3
 5033 158c 1F       		.uleb128 0x1f
 5034 158d 6C656E00 		.ascii	"len\000"
 5035 1591 02       		.byte	0x2
 5036 1592 D6       		.byte	0xd6
 5037 1593 0C020000 		.4byte	0x20c
 5038 1597 20       		.uleb128 0x20
 5039 1598 643800   		.ascii	"d8\000"
 5040 159b 02       		.byte	0x2
 5041 159c D8       		.byte	0xd8
 5042 159d 8C070000 		.4byte	0x78c
 5043 15a1 20       		.uleb128 0x20
 5044 15a2 733800   		.ascii	"s8\000"
 5045 15a5 02       		.byte	0x2
 5046 15a6 D9       		.byte	0xd9
 5047 15a7 2D040000 		.4byte	0x42d
ARM GAS  C:\Users\strap\AppData\Local\Temp\ccUgAYbc.s 			page 125


 5048 15ab 00       		.byte	0
 5049 15ac 21       		.uleb128 0x21
 5050 15ad CD060000 		.4byte	.LASF360
 5051 15b1 03       		.byte	0x3
 5052 15b2 64       		.byte	0x64
 5053 15b3 03       		.byte	0x3
 5054 15b4 CF150000 		.4byte	0x15cf
 5055 15b8 22       		.uleb128 0x22
 5056 15b9 94120000 		.4byte	.LASF355
 5057 15bd 03       		.byte	0x3
 5058 15be 64       		.byte	0x64
 5059 15bf A9100000 		.4byte	0x10a9
 5060 15c3 1F       		.uleb128 0x1f
 5061 15c4 73726300 		.ascii	"src\000"
 5062 15c8 03       		.byte	0x3
 5063 15c9 64       		.byte	0x64
 5064 15ca 82100000 		.4byte	0x1082
 5065 15ce 00       		.byte	0
 5066 15cf 1E       		.uleb128 0x1e
 5067 15d0 90140000 		.4byte	.LASF357
 5068 15d4 03       		.byte	0x3
 5069 15d5 6E       		.byte	0x6e
 5070 15d6 EF000000 		.4byte	0xef
 5071 15da 03       		.byte	0x3
 5072 15db EB150000 		.4byte	0x15eb
 5073 15df 22       		.uleb128 0x22
 5074 15e0 A7030000 		.4byte	.LASF358
 5075 15e4 03       		.byte	0x3
 5076 15e5 6E       		.byte	0x6e
 5077 15e6 82100000 		.4byte	0x1082
 5078 15ea 00       		.byte	0
 5079 15eb 1E       		.uleb128 0x1e
 5080 15ec 98110000 		.4byte	.LASF359
 5081 15f0 03       		.byte	0x3
 5082 15f1 78       		.byte	0x78
 5083 15f2 EF000000 		.4byte	0xef
 5084 15f6 03       		.byte	0x3
 5085 15f7 07160000 		.4byte	0x1607
 5086 15fb 22       		.uleb128 0x22
 5087 15fc A7030000 		.4byte	.LASF358
 5088 1600 03       		.byte	0x3
 5089 1601 78       		.byte	0x78
 5090 1602 82100000 		.4byte	0x1082
 5091 1606 00       		.byte	0
 5092 1607 23       		.uleb128 0x23
 5093 1608 44150000 		.4byte	.LASF361
 5094 160c 04       		.byte	0x4
 5095 160d DE01     		.2byte	0x1de
 5096 160f 03       		.byte	0x3
 5097 1610 37160000 		.4byte	0x1637
 5098 1614 24       		.uleb128 0x24
 5099 1615 6300     		.ascii	"c\000"
 5100 1617 04       		.byte	0x4
 5101 1618 DE01     		.2byte	0x1de
 5102 161a F4010000 		.4byte	0x1f4
 5103 161e 24       		.uleb128 0x24
 5104 161f 6D697800 		.ascii	"mix\000"
ARM GAS  C:\Users\strap\AppData\Local\Temp\ccUgAYbc.s 			page 126


 5105 1623 04       		.byte	0x4
 5106 1624 DE01     		.2byte	0x1de
 5107 1626 B8000000 		.4byte	0xb8
 5108 162a 24       		.uleb128 0x24
 5109 162b 6F757400 		.ascii	"out\000"
 5110 162f 04       		.byte	0x4
 5111 1630 DE01     		.2byte	0x1de
 5112 1632 37160000 		.4byte	0x1637
 5113 1636 00       		.byte	0
 5114 1637 0F       		.uleb128 0xf
 5115 1638 04       		.byte	0x4
 5116 1639 CE000000 		.4byte	0xce
 5117 163d 25       		.uleb128 0x25
 5118 163e 54000000 		.4byte	.LASF362
 5119 1642 05       		.byte	0x5
 5120 1643 2701     		.2byte	0x127
 5121 1645 CA040000 		.4byte	0x4ca
 5122 1649 03       		.byte	0x3
 5123 164a F0160000 		.4byte	0x16f0
 5124 164e 24       		.uleb128 0x24
 5125 164f 64736300 		.ascii	"dsc\000"
 5126 1653 05       		.byte	0x5
 5127 1654 2701     		.2byte	0x127
 5128 1656 F0160000 		.4byte	0x16f0
 5129 165a 24       		.uleb128 0x24
 5130 165b 7800     		.ascii	"x\000"
 5131 165d 05       		.byte	0x5
 5132 165e 2701     		.2byte	0x127
 5133 1660 EF000000 		.4byte	0xef
 5134 1664 24       		.uleb128 0x24
 5135 1665 7900     		.ascii	"y\000"
 5136 1667 05       		.byte	0x5
 5137 1668 2701     		.2byte	0x127
 5138 166a EF000000 		.4byte	0xef
 5139 166e 26       		.uleb128 0x26
 5140 166f 6F0B0000 		.4byte	.LASF363
 5141 1673 05       		.byte	0x5
 5142 1674 2901     		.2byte	0x129
 5143 1676 2D040000 		.4byte	0x42d
 5144 167a 27       		.uleb128 0x27
 5145 167b 787400   		.ascii	"xt\000"
 5146 167e 05       		.byte	0x5
 5147 167f 2C01     		.2byte	0x12c
 5148 1681 D9000000 		.4byte	0xd9
 5149 1685 27       		.uleb128 0x27
 5150 1686 797400   		.ascii	"yt\000"
 5151 1689 05       		.byte	0x5
 5152 168a 2D01     		.2byte	0x12d
 5153 168c D9000000 		.4byte	0xd9
 5154 1690 27       		.uleb128 0x27
 5155 1691 787300   		.ascii	"xs\000"
 5156 1694 05       		.byte	0x5
 5157 1695 2F01     		.2byte	0x12f
 5158 1697 D9000000 		.4byte	0xd9
 5159 169b 27       		.uleb128 0x27
 5160 169c 797300   		.ascii	"ys\000"
 5161 169f 05       		.byte	0x5
ARM GAS  C:\Users\strap\AppData\Local\Temp\ccUgAYbc.s 			page 127


 5162 16a0 3001     		.2byte	0x130
 5163 16a2 D9000000 		.4byte	0xd9
 5164 16a6 26       		.uleb128 0x26
 5165 16a7 15140000 		.4byte	.LASF114
 5166 16ab 05       		.byte	0x5
 5167 16ac 4401     		.2byte	0x144
 5168 16ae D9000000 		.4byte	0xd9
 5169 16b2 26       		.uleb128 0x26
 5170 16b3 4E0B0000 		.4byte	.LASF115
 5171 16b7 05       		.byte	0x5
 5172 16b8 4501     		.2byte	0x145
 5173 16ba D9000000 		.4byte	0xd9
 5174 16be 26       		.uleb128 0x26
 5175 16bf 58090000 		.4byte	.LASF116
 5176 16c3 05       		.byte	0x5
 5177 16c4 4D01     		.2byte	0x14d
 5178 16c6 B8000000 		.4byte	0xb8
 5179 16ca 27       		.uleb128 0x27
 5180 16cb 70786900 		.ascii	"pxi\000"
 5181 16cf 05       		.byte	0x5
 5182 16d0 4E01     		.2byte	0x14e
 5183 16d2 E4000000 		.4byte	0xe4
 5184 16d6 27       		.uleb128 0x27
 5185 16d7 72657400 		.ascii	"ret\000"
 5186 16db 05       		.byte	0x5
 5187 16dc 7201     		.2byte	0x172
 5188 16de CA040000 		.4byte	0x4ca
 5189 16e2 28       		.uleb128 0x28
 5190 16e3 27       		.uleb128 0x27
 5191 16e4 637400   		.ascii	"ct\000"
 5192 16e7 05       		.byte	0x5
 5193 16e8 6501     		.2byte	0x165
 5194 16ea F4010000 		.4byte	0x1f4
 5195 16ee 00       		.byte	0
 5196 16ef 00       		.byte	0
 5197 16f0 0F       		.uleb128 0xf
 5198 16f1 04       		.byte	0x4
 5199 16f2 E3050000 		.4byte	0x5e3
 5200 16f6 25       		.uleb128 0x25
 5201 16f7 20120000 		.4byte	.LASF364
 5202 16fb 04       		.byte	0x4
 5203 16fc F801     		.2byte	0x1f8
 5204 16fe F4010000 		.4byte	0x1f4
 5205 1702 03       		.byte	0x3
 5206 1703 37170000 		.4byte	0x1737
 5207 1707 29       		.uleb128 0x29
 5208 1708 F4140000 		.4byte	.LASF365
 5209 170c 04       		.byte	0x4
 5210 170d F801     		.2byte	0x1f8
 5211 170f 37160000 		.4byte	0x1637
 5212 1713 24       		.uleb128 0x24
 5213 1714 633200   		.ascii	"c2\000"
 5214 1717 04       		.byte	0x4
 5215 1718 F801     		.2byte	0x1f8
 5216 171a F4010000 		.4byte	0x1f4
 5217 171e 24       		.uleb128 0x24
 5218 171f 6D697800 		.ascii	"mix\000"
ARM GAS  C:\Users\strap\AppData\Local\Temp\ccUgAYbc.s 			page 128


 5219 1723 04       		.byte	0x4
 5220 1724 F801     		.2byte	0x1f8
 5221 1726 B8000000 		.4byte	0xb8
 5222 172a 27       		.uleb128 0x27
 5223 172b 72657400 		.ascii	"ret\000"
 5224 172f 04       		.byte	0x4
 5225 1730 FA01     		.2byte	0x1fa
 5226 1732 F4010000 		.4byte	0x1f4
 5227 1736 00       		.byte	0
 5228 1737 2A       		.uleb128 0x2a
 5229 1738 FF140000 		.4byte	.LASF398
 5230 173c 01       		.byte	0x1
 5231 173d 4D01     		.2byte	0x14d
 5232 173f 00000000 		.4byte	.LFB335
 5233 1743 B0070000 		.4byte	.LFE335-.LFB335
 5234 1747 01       		.uleb128 0x1
 5235 1748 9C       		.byte	0x9c
 5236 1749 9A200000 		.4byte	0x209a
 5237 174d 2B       		.uleb128 0x2b
 5238 174e B9150000 		.4byte	.LASF366
 5239 1752 01       		.byte	0x1
 5240 1753 4D01     		.2byte	0x14d
 5241 1755 82100000 		.4byte	0x1082
 5242 1759 00000000 		.4byte	.LLST0
 5243 175d 2B       		.uleb128 0x2b
 5244 175e 6F0D0000 		.4byte	.LASF367
 5245 1762 01       		.byte	0x1
 5246 1763 4D01     		.2byte	0x14d
 5247 1765 82100000 		.4byte	0x1082
 5248 1769 2D000000 		.4byte	.LLST1
 5249 176d 2B       		.uleb128 0x2b
 5250 176e 4F0A0000 		.4byte	.LASF368
 5251 1772 01       		.byte	0x1
 5252 1773 4E01     		.2byte	0x14e
 5253 1775 2D040000 		.4byte	0x42d
 5254 1779 5A000000 		.4byte	.LLST2
 5255 177d 2B       		.uleb128 0x2b
 5256 177e 20020000 		.4byte	.LASF369
 5257 1782 01       		.byte	0x1
 5258 1783 4F01     		.2byte	0x14f
 5259 1785 9A200000 		.4byte	0x209a
 5260 1789 9F000000 		.4byte	.LLST3
 5261 178d 2B       		.uleb128 0x2b
 5262 178e 98010000 		.4byte	.LASF370
 5263 1792 01       		.byte	0x1
 5264 1793 5001     		.2byte	0x150
 5265 1795 CA040000 		.4byte	0x4ca
 5266 1799 CC000000 		.4byte	.LLST4
 5267 179d 2B       		.uleb128 0x2b
 5268 179e E6020000 		.4byte	.LASF371
 5269 17a2 01       		.byte	0x1
 5270 17a3 5001     		.2byte	0x150
 5271 17a5 CA040000 		.4byte	0x4ca
 5272 17a9 EC000000 		.4byte	.LLST5
 5273 17ad 2C       		.uleb128 0x2c
 5274 17ae 8F030000 		.4byte	.LASF372
 5275 17b2 01       		.byte	0x1
ARM GAS  C:\Users\strap\AppData\Local\Temp\ccUgAYbc.s 			page 129


 5276 17b3 5301     		.2byte	0x153
 5277 17b5 B8020000 		.4byte	0x2b8
 5278 17b9 02       		.uleb128 0x2
 5279 17ba 91       		.byte	0x91
 5280 17bb 50       		.sleb128 -48
 5281 17bc 2D       		.uleb128 0x2d
 5282 17bd 2C0D0000 		.4byte	.LASF373
 5283 17c1 01       		.byte	0x1
 5284 17c2 5601     		.2byte	0x156
 5285 17c4 A5200000 		.4byte	0x20a5
 5286 17c8 0C010000 		.4byte	.LLST6
 5287 17cc 2E       		.uleb128 0x2e
 5288 17cd 76646200 		.ascii	"vdb\000"
 5289 17d1 01       		.byte	0x1
 5290 17d2 5701     		.2byte	0x157
 5291 17d4 61100000 		.4byte	0x1061
 5292 17d8 35010000 		.4byte	.LLST7
 5293 17dc 2D       		.uleb128 0x2d
 5294 17dd 20090000 		.4byte	.LASF374
 5295 17e1 01       		.byte	0x1
 5296 17e2 5801     		.2byte	0x158
 5297 17e4 82100000 		.4byte	0x1082
 5298 17e8 62010000 		.4byte	.LLST8
 5299 17ec 2D       		.uleb128 0x2d
 5300 17ed 6E010000 		.4byte	.LASF375
 5301 17f1 01       		.byte	0x1
 5302 17f2 6101     		.2byte	0x161
 5303 17f4 B8000000 		.4byte	0xb8
 5304 17f8 99010000 		.4byte	.LLST9
 5305 17fc 2F       		.uleb128 0x2f
 5306 17fd AC150000 		.4byte	0x15ac
 5307 1801 1A000000 		.4byte	.LBB101
 5308 1805 14000000 		.4byte	.LBE101-.LBB101
 5309 1809 01       		.byte	0x1
 5310 180a 5401     		.2byte	0x154
 5311 180c 6A180000 		.4byte	0x186a
 5312 1810 30       		.uleb128 0x30
 5313 1811 C3150000 		.4byte	0x15c3
 5314 1815 B7010000 		.4byte	.LLST10
 5315 1819 30       		.uleb128 0x30
 5316 181a B8150000 		.4byte	0x15b8
 5317 181e D7010000 		.4byte	.LLST11
 5318 1822 31       		.uleb128 0x31
 5319 1823 66150000 		.4byte	0x1566
 5320 1827 1A000000 		.4byte	.LBB102
 5321 182b 14000000 		.4byte	.LBE102-.LBB102
 5322 182f 03       		.byte	0x3
 5323 1830 66       		.byte	0x66
 5324 1831 30       		.uleb128 0x30
 5325 1832 8C150000 		.4byte	0x158c
 5326 1836 04020000 		.4byte	.LLST12
 5327 183a 30       		.uleb128 0x30
 5328 183b 81150000 		.4byte	0x1581
 5329 183f B7010000 		.4byte	.LLST10
 5330 1843 30       		.uleb128 0x30
 5331 1844 76150000 		.4byte	0x1576
 5332 1848 D7010000 		.4byte	.LLST11
ARM GAS  C:\Users\strap\AppData\Local\Temp\ccUgAYbc.s 			page 130


 5333 184c 32       		.uleb128 0x32
 5334 184d 1A000000 		.4byte	.LBB103
 5335 1851 14000000 		.4byte	.LBE103-.LBB103
 5336 1855 33       		.uleb128 0x33
 5337 1856 97150000 		.4byte	0x1597
 5338 185a 23020000 		.4byte	.LLST15
 5339 185e 33       		.uleb128 0x33
 5340 185f A1150000 		.4byte	0x15a1
 5341 1863 43020000 		.4byte	.LLST16
 5342 1867 00       		.byte	0
 5343 1868 00       		.byte	0
 5344 1869 00       		.byte	0
 5345 186a 34       		.uleb128 0x34
 5346 186b A2000000 		.4byte	.LBB104
 5347 186f 04070000 		.4byte	.LBE104-.LBB104
 5348 1873 48200000 		.4byte	0x2048
 5349 1877 2D       		.uleb128 0x2d
 5350 1878 9A100000 		.4byte	.LASF376
 5351 187c 01       		.byte	0x1
 5352 187d 7D01     		.2byte	0x17d
 5353 187f B8000000 		.4byte	0xb8
 5354 1883 6E020000 		.4byte	.LLST17
 5355 1887 2D       		.uleb128 0x2d
 5356 1888 680A0000 		.4byte	.LASF377
 5357 188c 01       		.byte	0x1
 5358 188d 8001     		.2byte	0x180
 5359 188f D9000000 		.4byte	0xd9
 5360 1893 83020000 		.4byte	.LLST18
 5361 1897 2D       		.uleb128 0x2d
 5362 1898 020B0000 		.4byte	.LASF378
 5363 189c 01       		.byte	0x1
 5364 189d 8101     		.2byte	0x181
 5365 189f 2D040000 		.4byte	0x42d
 5366 18a3 BB020000 		.4byte	.LLST19
 5367 18a7 2E       		.uleb128 0x2e
 5368 18a8 6300     		.ascii	"c\000"
 5369 18aa 01       		.byte	0x1
 5370 18ab 8501     		.2byte	0x185
 5371 18ad F4010000 		.4byte	0x1f4
 5372 18b1 4F030000 		.4byte	.LLST20
 5373 18b5 26       		.uleb128 0x26
 5374 18b6 AB160000 		.4byte	.LASF379
 5375 18ba 01       		.byte	0x1
 5376 18bb 8601     		.2byte	0x186
 5377 18bd F4010000 		.4byte	0x1f4
 5378 18c1 2D       		.uleb128 0x2d
 5379 18c2 C8170000 		.4byte	.LASF380
 5380 18c6 01       		.byte	0x1
 5381 18c7 8701     		.2byte	0x187
 5382 18c9 E4000000 		.4byte	0xe4
 5383 18cd 6D030000 		.4byte	.LLST21
 5384 18d1 2D       		.uleb128 0x2d
 5385 18d2 28050000 		.4byte	.LASF381
 5386 18d6 01       		.byte	0x1
 5387 18d7 8901     		.2byte	0x189
 5388 18d9 2D040000 		.4byte	0x42d
 5389 18dd E0030000 		.4byte	.LLST22
ARM GAS  C:\Users\strap\AppData\Local\Temp\ccUgAYbc.s 			page 131


 5390 18e1 2C       		.uleb128 0x2c
 5391 18e2 15120000 		.4byte	.LASF382
 5392 18e6 01       		.byte	0x1
 5393 18e7 8B01     		.2byte	0x18b
 5394 18e9 B8020000 		.4byte	0x2b8
 5395 18ed 03       		.uleb128 0x3
 5396 18ee 91       		.byte	0x91
 5397 18ef FC7E     		.sleb128 -132
 5398 18f1 26       		.uleb128 0x26
 5399 18f2 19080000 		.4byte	.LASF383
 5400 18f6 01       		.byte	0x1
 5401 18f7 9101     		.2byte	0x191
 5402 18f9 EF000000 		.4byte	0xef
 5403 18fd 26       		.uleb128 0x26
 5404 18fe 3E080000 		.4byte	.LASF384
 5405 1902 01       		.byte	0x1
 5406 1903 9201     		.2byte	0x192
 5407 1905 EF000000 		.4byte	0xef
 5408 1909 2D       		.uleb128 0x2d
 5409 190a C8120000 		.4byte	.LASF385
 5410 190e 01       		.byte	0x1
 5411 190f 9501     		.2byte	0x195
 5412 1911 CA040000 		.4byte	0x4ca
 5413 1915 16040000 		.4byte	.LLST23
 5414 1919 2F       		.uleb128 0x2f
 5415 191a CF150000 		.4byte	0x15cf
 5416 191e B0000000 		.4byte	.LBB105
 5417 1922 12000000 		.4byte	.LBE105-.LBB105
 5418 1926 01       		.byte	0x1
 5419 1927 8001     		.2byte	0x180
 5420 1929 37190000 		.4byte	0x1937
 5421 192d 30       		.uleb128 0x30
 5422 192e DF150000 		.4byte	0x15df
 5423 1932 36040000 		.4byte	.LLST24
 5424 1936 00       		.byte	0
 5425 1937 2F       		.uleb128 0x2f
 5426 1938 CF150000 		.4byte	0x15cf
 5427 193c 08010000 		.4byte	.LBB107
 5428 1940 0E000000 		.4byte	.LBE107-.LBB107
 5429 1944 01       		.byte	0x1
 5430 1945 8D01     		.2byte	0x18d
 5431 1947 55190000 		.4byte	0x1955
 5432 194b 30       		.uleb128 0x30
 5433 194c DF150000 		.4byte	0x15df
 5434 1950 4B040000 		.4byte	.LLST25
 5435 1954 00       		.byte	0
 5436 1955 2F       		.uleb128 0x2f
 5437 1956 EB150000 		.4byte	0x15eb
 5438 195a 2C010000 		.4byte	.LBB109
 5439 195e 0C000000 		.4byte	.LBE109-.LBB109
 5440 1962 01       		.byte	0x1
 5441 1963 9101     		.2byte	0x191
 5442 1965 73190000 		.4byte	0x1973
 5443 1969 30       		.uleb128 0x30
 5444 196a FB150000 		.4byte	0x15fb
 5445 196e 60040000 		.4byte	.LLST26
 5446 1972 00       		.byte	0
ARM GAS  C:\Users\strap\AppData\Local\Temp\ccUgAYbc.s 			page 132


 5447 1973 35       		.uleb128 0x35
 5448 1974 00000000 		.4byte	.Ldebug_ranges0+0
 5449 1978 FD1A0000 		.4byte	0x1afd
 5450 197c 2D       		.uleb128 0x2d
 5451 197d 20050000 		.4byte	.LASF270
 5452 1981 01       		.byte	0x1
 5453 1982 A601     		.2byte	0x1a6
 5454 1984 E4000000 		.4byte	0xe4
 5455 1988 75040000 		.4byte	.LLST27
 5456 198c 2D       		.uleb128 0x2d
 5457 198d 82140000 		.4byte	.LASF386
 5458 1991 01       		.byte	0x1
 5459 1992 A701     		.2byte	0x1a7
 5460 1994 E4000000 		.4byte	0xe4
 5461 1998 93040000 		.4byte	.LLST28
 5462 199c 2D       		.uleb128 0x2d
 5463 199d 0C090000 		.4byte	.LASF387
 5464 19a1 01       		.byte	0x1
 5465 19a2 A801     		.2byte	0x1a8
 5466 19a4 8D100000 		.4byte	0x108d
 5467 19a8 A6040000 		.4byte	.LLST29
 5468 19ac 2D       		.uleb128 0x2d
 5469 19ad 1B0C0000 		.4byte	.LASF388
 5470 19b1 01       		.byte	0x1
 5471 19b2 A901     		.2byte	0x1a9
 5472 19b4 50070000 		.4byte	0x750
 5473 19b8 C4040000 		.4byte	.LLST30
 5474 19bc 2E       		.uleb128 0x2e
 5475 19bd 7800     		.ascii	"x\000"
 5476 19bf 01       		.byte	0x1
 5477 19c0 AB01     		.2byte	0x1ab
 5478 19c2 D9000000 		.4byte	0xd9
 5479 19c6 E2040000 		.4byte	.LLST31
 5480 19ca 2E       		.uleb128 0x2e
 5481 19cb 7900     		.ascii	"y\000"
 5482 19cd 01       		.byte	0x1
 5483 19ce AC01     		.2byte	0x1ac
 5484 19d0 D9000000 		.4byte	0xd9
 5485 19d4 00050000 		.4byte	.LLST32
 5486 19d8 34       		.uleb128 0x34
 5487 19d9 B4010000 		.4byte	.LBB112
 5488 19dd 14000000 		.4byte	.LBE112-.LBB112
 5489 19e1 F6190000 		.4byte	0x19f6
 5490 19e5 2D       		.uleb128 0x2d
 5491 19e6 DA0A0000 		.4byte	.LASF389
 5492 19ea 01       		.byte	0x1
 5493 19eb B001     		.2byte	0x1b0
 5494 19ed 00020000 		.4byte	0x200
 5495 19f1 1F050000 		.4byte	.LLST33
 5496 19f5 00       		.byte	0
 5497 19f6 2F       		.uleb128 0x2f
 5498 19f7 CF150000 		.4byte	0x15cf
 5499 19fb E0010000 		.4byte	.LBB113
 5500 19ff 0E000000 		.4byte	.LBE113-.LBB113
 5501 1a03 01       		.byte	0x1
 5502 1a04 C101     		.2byte	0x1c1
 5503 1a06 141A0000 		.4byte	0x1a14
ARM GAS  C:\Users\strap\AppData\Local\Temp\ccUgAYbc.s 			page 133


 5504 1a0a 30       		.uleb128 0x30
 5505 1a0b DF150000 		.4byte	0x15df
 5506 1a0f 41050000 		.4byte	.LLST34
 5507 1a13 00       		.byte	0
 5508 1a14 36       		.uleb128 0x36
 5509 1a15 7C010000 		.4byte	.LVL32
 5510 1a19 00280000 		.4byte	0x2800
 5511 1a1d 281A0000 		.4byte	0x1a28
 5512 1a21 37       		.uleb128 0x37
 5513 1a22 01       		.uleb128 0x1
 5514 1a23 50       		.byte	0x50
 5515 1a24 02       		.uleb128 0x2
 5516 1a25 78       		.byte	0x78
 5517 1a26 00       		.sleb128 0
 5518 1a27 00       		.byte	0
 5519 1a28 36       		.uleb128 0x36
 5520 1a29 86010000 		.4byte	.LVL35
 5521 1a2d 0B280000 		.4byte	0x280b
 5522 1a31 3C1A0000 		.4byte	0x1a3c
 5523 1a35 37       		.uleb128 0x37
 5524 1a36 01       		.uleb128 0x1
 5525 1a37 50       		.byte	0x50
 5526 1a38 02       		.uleb128 0x2
 5527 1a39 91       		.byte	0x91
 5528 1a3a 50       		.sleb128 -48
 5529 1a3b 00       		.byte	0
 5530 1a3c 36       		.uleb128 0x36
 5531 1a3d 90010000 		.4byte	.LVL36
 5532 1a41 0B280000 		.4byte	0x280b
 5533 1a45 501A0000 		.4byte	0x1a50
 5534 1a49 37       		.uleb128 0x37
 5535 1a4a 01       		.uleb128 0x1
 5536 1a4b 50       		.byte	0x50
 5537 1a4c 02       		.uleb128 0x2
 5538 1a4d 91       		.byte	0x91
 5539 1a4e 50       		.sleb128 -48
 5540 1a4f 00       		.byte	0
 5541 1a50 36       		.uleb128 0x36
 5542 1a51 98010000 		.4byte	.LVL38
 5543 1a55 16280000 		.4byte	0x2816
 5544 1a59 661A0000 		.4byte	0x1a66
 5545 1a5d 37       		.uleb128 0x37
 5546 1a5e 01       		.uleb128 0x1
 5547 1a5f 50       		.byte	0x50
 5548 1a60 04       		.uleb128 0x4
 5549 1a61 77       		.byte	0x77
 5550 1a62 00       		.sleb128 0
 5551 1a63 31       		.byte	0x31
 5552 1a64 24       		.byte	0x24
 5553 1a65 00       		.byte	0
 5554 1a66 36       		.uleb128 0x36
 5555 1a67 A0010000 		.4byte	.LVL41
 5556 1a6b 16280000 		.4byte	0x2816
 5557 1a6f 7A1A0000 		.4byte	0x1a7a
 5558 1a73 37       		.uleb128 0x37
 5559 1a74 01       		.uleb128 0x1
 5560 1a75 50       		.byte	0x50
ARM GAS  C:\Users\strap\AppData\Local\Temp\ccUgAYbc.s 			page 134


 5561 1a76 02       		.uleb128 0x2
 5562 1a77 77       		.byte	0x77
 5563 1a78 00       		.sleb128 0
 5564 1a79 00       		.byte	0
 5565 1a7a 36       		.uleb128 0x36
 5566 1a7b 1C020000 		.4byte	.LVL59
 5567 1a7f 21280000 		.4byte	0x2821
 5568 1a83 A91A0000 		.4byte	0x1aa9
 5569 1a87 37       		.uleb128 0x37
 5570 1a88 01       		.uleb128 0x1
 5571 1a89 50       		.byte	0x50
 5572 1a8a 04       		.uleb128 0x4
 5573 1a8b 91       		.byte	0x91
 5574 1a8c E87E     		.sleb128 -152
 5575 1a8e 06       		.byte	0x6
 5576 1a8f 37       		.uleb128 0x37
 5577 1a90 01       		.uleb128 0x1
 5578 1a91 51       		.byte	0x51
 5579 1a92 03       		.uleb128 0x3
 5580 1a93 91       		.byte	0x91
 5581 1a94 FC7E     		.sleb128 -132
 5582 1a96 37       		.uleb128 0x37
 5583 1a97 01       		.uleb128 0x1
 5584 1a98 52       		.byte	0x52
 5585 1a99 02       		.uleb128 0x2
 5586 1a9a 75       		.byte	0x75
 5587 1a9b 00       		.sleb128 0
 5588 1a9c 37       		.uleb128 0x37
 5589 1a9d 01       		.uleb128 0x1
 5590 1a9e 53       		.byte	0x53
 5591 1a9f 02       		.uleb128 0x2
 5592 1aa0 74       		.byte	0x74
 5593 1aa1 00       		.sleb128 0
 5594 1aa2 37       		.uleb128 0x37
 5595 1aa3 02       		.uleb128 0x2
 5596 1aa4 7D       		.byte	0x7d
 5597 1aa5 00       		.sleb128 0
 5598 1aa6 01       		.uleb128 0x1
 5599 1aa7 32       		.byte	0x32
 5600 1aa8 00       		.byte	0
 5601 1aa9 36       		.uleb128 0x36
 5602 1aaa 62020000 		.4byte	.LVL64
 5603 1aae 21280000 		.4byte	0x2821
 5604 1ab2 D81A0000 		.4byte	0x1ad8
 5605 1ab6 37       		.uleb128 0x37
 5606 1ab7 01       		.uleb128 0x1
 5607 1ab8 50       		.byte	0x50
 5608 1ab9 04       		.uleb128 0x4
 5609 1aba 91       		.byte	0x91
 5610 1abb E87E     		.sleb128 -152
 5611 1abd 06       		.byte	0x6
 5612 1abe 37       		.uleb128 0x37
 5613 1abf 01       		.uleb128 0x1
 5614 1ac0 51       		.byte	0x51
 5615 1ac1 03       		.uleb128 0x3
 5616 1ac2 91       		.byte	0x91
 5617 1ac3 FC7E     		.sleb128 -132
ARM GAS  C:\Users\strap\AppData\Local\Temp\ccUgAYbc.s 			page 135


 5618 1ac5 37       		.uleb128 0x37
 5619 1ac6 01       		.uleb128 0x1
 5620 1ac7 52       		.byte	0x52
 5621 1ac8 02       		.uleb128 0x2
 5622 1ac9 75       		.byte	0x75
 5623 1aca 00       		.sleb128 0
 5624 1acb 37       		.uleb128 0x37
 5625 1acc 01       		.uleb128 0x1
 5626 1acd 53       		.byte	0x53
 5627 1ace 02       		.uleb128 0x2
 5628 1acf 74       		.byte	0x74
 5629 1ad0 00       		.sleb128 0
 5630 1ad1 37       		.uleb128 0x37
 5631 1ad2 02       		.uleb128 0x2
 5632 1ad3 7D       		.byte	0x7d
 5633 1ad4 00       		.sleb128 0
 5634 1ad5 01       		.uleb128 0x1
 5635 1ad6 32       		.byte	0x32
 5636 1ad7 00       		.byte	0
 5637 1ad8 36       		.uleb128 0x36
 5638 1ad9 68020000 		.4byte	.LVL65
 5639 1add 2C280000 		.4byte	0x282c
 5640 1ae1 EC1A0000 		.4byte	0x1aec
 5641 1ae5 37       		.uleb128 0x37
 5642 1ae6 01       		.uleb128 0x1
 5643 1ae7 50       		.byte	0x50
 5644 1ae8 02       		.uleb128 0x2
 5645 1ae9 74       		.byte	0x74
 5646 1aea 00       		.sleb128 0
 5647 1aeb 00       		.byte	0
 5648 1aec 38       		.uleb128 0x38
 5649 1aed 6E020000 		.4byte	.LVL66
 5650 1af1 2C280000 		.4byte	0x282c
 5651 1af5 37       		.uleb128 0x37
 5652 1af6 01       		.uleb128 0x1
 5653 1af7 50       		.byte	0x50
 5654 1af8 02       		.uleb128 0x2
 5655 1af9 75       		.byte	0x75
 5656 1afa 00       		.sleb128 0
 5657 1afb 00       		.byte	0
 5658 1afc 00       		.byte	0
 5659 1afd 39       		.uleb128 0x39
 5660 1afe 18000000 		.4byte	.Ldebug_ranges0+0x18
 5661 1b02 2D       		.uleb128 0x2d
 5662 1b03 20050000 		.4byte	.LASF270
 5663 1b07 01       		.byte	0x1
 5664 1b08 D901     		.2byte	0x1d9
 5665 1b0a E4000000 		.4byte	0xe4
 5666 1b0e 56050000 		.4byte	.LLST35
 5667 1b12 2D       		.uleb128 0x2d
 5668 1b13 82140000 		.4byte	.LASF386
 5669 1b17 01       		.byte	0x1
 5670 1b18 DA01     		.2byte	0x1da
 5671 1b1a E4000000 		.4byte	0xe4
 5672 1b1e 74050000 		.4byte	.LLST36
 5673 1b22 2D       		.uleb128 0x2d
 5674 1b23 0C090000 		.4byte	.LASF387
ARM GAS  C:\Users\strap\AppData\Local\Temp\ccUgAYbc.s 			page 136


 5675 1b27 01       		.byte	0x1
 5676 1b28 DB01     		.2byte	0x1db
 5677 1b2a 8D100000 		.4byte	0x108d
 5678 1b2e 89050000 		.4byte	.LLST37
 5679 1b32 2D       		.uleb128 0x2d
 5680 1b33 1B0C0000 		.4byte	.LASF388
 5681 1b37 01       		.byte	0x1
 5682 1b38 DC01     		.2byte	0x1dc
 5683 1b3a 50070000 		.4byte	0x750
 5684 1b3e A9050000 		.4byte	.LLST38
 5685 1b42 2C       		.uleb128 0x2c
 5686 1b43 DE000000 		.4byte	.LASF390
 5687 1b47 01       		.byte	0x1
 5688 1b48 DF01     		.2byte	0x1df
 5689 1b4a E3050000 		.4byte	0x5e3
 5690 1b4e 03       		.uleb128 0x3
 5691 1b4f 91       		.byte	0x91
 5692 1b50 847F     		.sleb128 -124
 5693 1b52 2C       		.uleb128 0x2c
 5694 1b53 CC0C0000 		.4byte	.LASF391
 5695 1b57 01       		.byte	0x1
 5696 1b58 F401     		.2byte	0x1f4
 5697 1b5a AB200000 		.4byte	0x20ab
 5698 1b5e 03       		.uleb128 0x3
 5699 1b5f 91       		.byte	0x91
 5700 1b60 F47E     		.sleb128 -140
 5701 1b62 2D       		.uleb128 0x2d
 5702 1b63 BD020000 		.4byte	.LASF392
 5703 1b67 01       		.byte	0x1
 5704 1b68 F501     		.2byte	0x1f5
 5705 1b6a 00020000 		.4byte	0x200
 5706 1b6e D2050000 		.4byte	.LLST39
 5707 1b72 2D       		.uleb128 0x2d
 5708 1b73 2F050000 		.4byte	.LASF393
 5709 1b77 01       		.byte	0x1
 5710 1b78 FA01     		.2byte	0x1fa
 5711 1b7a 45070000 		.4byte	0x745
 5712 1b7e E7050000 		.4byte	.LLST40
 5713 1b82 2E       		.uleb128 0x2e
 5714 1b83 7800     		.ascii	"x\000"
 5715 1b85 01       		.byte	0x1
 5716 1b86 0402     		.2byte	0x204
 5717 1b88 D9000000 		.4byte	0xd9
 5718 1b8c 49060000 		.4byte	.LLST41
 5719 1b90 2E       		.uleb128 0x2e
 5720 1b91 7900     		.ascii	"y\000"
 5721 1b93 01       		.byte	0x1
 5722 1b94 0502     		.2byte	0x205
 5723 1b96 D9000000 		.4byte	0xd9
 5724 1b9a 68060000 		.4byte	.LLST42
 5725 1b9e 2D       		.uleb128 0x2d
 5726 1b9f 48140000 		.4byte	.LASF394
 5727 1ba3 01       		.byte	0x1
 5728 1ba4 0702     		.2byte	0x207
 5729 1ba6 D9000000 		.4byte	0xd9
 5730 1baa 94060000 		.4byte	.LLST43
 5731 1bae 34       		.uleb128 0x34
ARM GAS  C:\Users\strap\AppData\Local\Temp\ccUgAYbc.s 			page 137


 5732 1baf AA020000 		.4byte	.LBB117
 5733 1bb3 62000000 		.4byte	.LBE117-.LBB117
 5734 1bb7 FA1B0000 		.4byte	0x1bfa
 5735 1bbb 2E       		.uleb128 0x2e
 5736 1bbc 636600   		.ascii	"cf\000"
 5737 1bbf 01       		.byte	0x1
 5738 1bc0 E201     		.2byte	0x1e2
 5739 1bc2 9B030000 		.4byte	0x39b
 5740 1bc6 B4060000 		.4byte	.LLST44
 5741 1bca 2F       		.uleb128 0x2f
 5742 1bcb EB150000 		.4byte	0x15eb
 5743 1bcf D0020000 		.4byte	.LBB118
 5744 1bd3 0E000000 		.4byte	.LBE118-.LBB118
 5745 1bd7 01       		.byte	0x1
 5746 1bd8 EA01     		.2byte	0x1ea
 5747 1bda E81B0000 		.4byte	0x1be8
 5748 1bde 30       		.uleb128 0x30
 5749 1bdf FB150000 		.4byte	0x15fb
 5750 1be3 D3060000 		.4byte	.LLST45
 5751 1be7 00       		.byte	0
 5752 1be8 38       		.uleb128 0x38
 5753 1be9 0C030000 		.4byte	.LVL86
 5754 1bed 37280000 		.4byte	0x2837
 5755 1bf1 37       		.uleb128 0x37
 5756 1bf2 01       		.uleb128 0x1
 5757 1bf3 50       		.byte	0x50
 5758 1bf4 03       		.uleb128 0x3
 5759 1bf5 91       		.byte	0x91
 5760 1bf6 847F     		.sleb128 -124
 5761 1bf8 00       		.byte	0
 5762 1bf9 00       		.byte	0
 5763 1bfa 2F       		.uleb128 0x2f
 5764 1bfb 07160000 		.4byte	0x1607
 5765 1bff 22030000 		.4byte	.LBB120
 5766 1c03 2E000000 		.4byte	.LBE120-.LBB120
 5767 1c07 01       		.byte	0x1
 5768 1c08 F701     		.2byte	0x1f7
 5769 1c0a 2A1C0000 		.4byte	0x1c2a
 5770 1c0e 30       		.uleb128 0x30
 5771 1c0f 2A160000 		.4byte	0x162a
 5772 1c13 E8060000 		.4byte	.LLST46
 5773 1c17 30       		.uleb128 0x30
 5774 1c18 1E160000 		.4byte	0x161e
 5775 1c1c FE060000 		.4byte	.LLST47
 5776 1c20 30       		.uleb128 0x30
 5777 1c21 14160000 		.4byte	0x1614
 5778 1c25 21070000 		.4byte	.LLST48
 5779 1c29 00       		.byte	0
 5780 1c2a 34       		.uleb128 0x34
 5781 1c2b B2030000 		.4byte	.LBB122
 5782 1c2f AA030000 		.4byte	.LBE122-.LBB122
 5783 1c33 4A1F0000 		.4byte	0x1f4a
 5784 1c37 2D       		.uleb128 0x2d
 5785 1c38 91150000 		.4byte	.LASF395
 5786 1c3c 01       		.byte	0x1
 5787 1c3d 0B02     		.2byte	0x20b
 5788 1c3f E4000000 		.4byte	0xe4
ARM GAS  C:\Users\strap\AppData\Local\Temp\ccUgAYbc.s 			page 138


 5789 1c43 34070000 		.4byte	.LLST49
 5790 1c47 2D       		.uleb128 0x2d
 5791 1c48 42140000 		.4byte	.LASF396
 5792 1c4c 01       		.byte	0x1
 5793 1c4d 0E02     		.2byte	0x20e
 5794 1c4f D9000000 		.4byte	0xd9
 5795 1c53 63070000 		.4byte	.LLST50
 5796 1c57 34       		.uleb128 0x34
 5797 1c58 DC030000 		.4byte	.LBB123
 5798 1c5c C2010000 		.4byte	.LBE123-.LBB123
 5799 1c60 031E0000 		.4byte	0x1e03
 5800 1c64 27       		.uleb128 0x27
 5801 1c65 72657400 		.ascii	"ret\000"
 5802 1c69 01       		.byte	0x1
 5803 1c6a 1702     		.2byte	0x217
 5804 1c6c CA040000 		.4byte	0x4ca
 5805 1c70 3A       		.uleb128 0x3a
 5806 1c71 3D160000 		.4byte	0x163d
 5807 1c75 EA030000 		.4byte	.LBB124
 5808 1c79 9E010000 		.4byte	.LBE124-.LBB124
 5809 1c7d 01       		.byte	0x1
 5810 1c7e 1802     		.2byte	0x218
 5811 1c80 30       		.uleb128 0x30
 5812 1c81 64160000 		.4byte	0x1664
 5813 1c85 83070000 		.4byte	.LLST51
 5814 1c89 30       		.uleb128 0x30
 5815 1c8a 5A160000 		.4byte	0x165a
 5816 1c8e AA070000 		.4byte	.LLST52
 5817 1c92 30       		.uleb128 0x30
 5818 1c93 4E160000 		.4byte	0x164e
 5819 1c97 CF070000 		.4byte	.LLST53
 5820 1c9b 32       		.uleb128 0x32
 5821 1c9c EA030000 		.4byte	.LBB125
 5822 1ca0 9E010000 		.4byte	.LBE125-.LBB125
 5823 1ca4 33       		.uleb128 0x33
 5824 1ca5 6E160000 		.4byte	0x166e
 5825 1ca9 FE070000 		.4byte	.LLST54
 5826 1cad 33       		.uleb128 0x33
 5827 1cae 7A160000 		.4byte	0x167a
 5828 1cb2 4C080000 		.4byte	.LLST55
 5829 1cb6 33       		.uleb128 0x33
 5830 1cb7 85160000 		.4byte	0x1685
 5831 1cbb 1D090000 		.4byte	.LLST56
 5832 1cbf 33       		.uleb128 0x33
 5833 1cc0 90160000 		.4byte	0x1690
 5834 1cc4 99090000 		.4byte	.LLST57
 5835 1cc8 33       		.uleb128 0x33
 5836 1cc9 9B160000 		.4byte	0x169b
 5837 1ccd CF090000 		.4byte	.LLST58
 5838 1cd1 33       		.uleb128 0x33
 5839 1cd2 A6160000 		.4byte	0x16a6
 5840 1cd6 F8090000 		.4byte	.LLST59
 5841 1cda 33       		.uleb128 0x33
 5842 1cdb B2160000 		.4byte	0x16b2
 5843 1cdf 0B0A0000 		.4byte	.LLST60
 5844 1ce3 33       		.uleb128 0x33
 5845 1ce4 BE160000 		.4byte	0x16be
ARM GAS  C:\Users\strap\AppData\Local\Temp\ccUgAYbc.s 			page 139


 5846 1ce8 1E0A0000 		.4byte	.LLST61
 5847 1cec 33       		.uleb128 0x33
 5848 1ced CA160000 		.4byte	0x16ca
 5849 1cf1 600A0000 		.4byte	.LLST62
 5850 1cf5 33       		.uleb128 0x33
 5851 1cf6 D6160000 		.4byte	0x16d6
 5852 1cfa BE0A0000 		.4byte	.LLST63
 5853 1cfe 3B       		.uleb128 0x3b
 5854 1cff 66150000 		.4byte	0x1566
 5855 1d03 AE040000 		.4byte	.LBB126
 5856 1d07 30000000 		.4byte	.Ldebug_ranges0+0x30
 5857 1d0b 05       		.byte	0x5
 5858 1d0c 5401     		.2byte	0x154
 5859 1d0e 461D0000 		.4byte	0x1d46
 5860 1d12 30       		.uleb128 0x30
 5861 1d13 8C150000 		.4byte	0x158c
 5862 1d17 D10A0000 		.4byte	.LLST64
 5863 1d1b 30       		.uleb128 0x30
 5864 1d1c 81150000 		.4byte	0x1581
 5865 1d20 F00A0000 		.4byte	.LLST65
 5866 1d24 30       		.uleb128 0x30
 5867 1d25 76150000 		.4byte	0x1576
 5868 1d29 030B0000 		.4byte	.LLST66
 5869 1d2d 39       		.uleb128 0x39
 5870 1d2e 30000000 		.4byte	.Ldebug_ranges0+0x30
 5871 1d32 33       		.uleb128 0x33
 5872 1d33 97150000 		.4byte	0x1597
 5873 1d37 320B0000 		.4byte	.LLST67
 5874 1d3b 33       		.uleb128 0x33
 5875 1d3c A1150000 		.4byte	0x15a1
 5876 1d40 530B0000 		.4byte	.LLST68
 5877 1d44 00       		.byte	0
 5878 1d45 00       		.byte	0
 5879 1d46 3B       		.uleb128 0x3b
 5880 1d47 66150000 		.4byte	0x1566
 5881 1d4b D4040000 		.4byte	.LBB130
 5882 1d4f 48000000 		.4byte	.Ldebug_ranges0+0x48
 5883 1d53 05       		.byte	0x5
 5884 1d54 5901     		.2byte	0x159
 5885 1d56 8E1D0000 		.4byte	0x1d8e
 5886 1d5a 30       		.uleb128 0x30
 5887 1d5b 8C150000 		.4byte	0x158c
 5888 1d5f 7E0B0000 		.4byte	.LLST69
 5889 1d63 30       		.uleb128 0x30
 5890 1d64 81150000 		.4byte	0x1581
 5891 1d68 9D0B0000 		.4byte	.LLST70
 5892 1d6c 30       		.uleb128 0x30
 5893 1d6d 76150000 		.4byte	0x1576
 5894 1d71 C00B0000 		.4byte	.LLST71
 5895 1d75 39       		.uleb128 0x39
 5896 1d76 48000000 		.4byte	.Ldebug_ranges0+0x48
 5897 1d7a 33       		.uleb128 0x33
 5898 1d7b 97150000 		.4byte	0x1597
 5899 1d7f EF0B0000 		.4byte	.LLST72
 5900 1d83 33       		.uleb128 0x33
 5901 1d84 A1150000 		.4byte	0x15a1
 5902 1d88 100C0000 		.4byte	.LLST73
ARM GAS  C:\Users\strap\AppData\Local\Temp\ccUgAYbc.s 			page 140


 5903 1d8c 00       		.byte	0
 5904 1d8d 00       		.byte	0
 5905 1d8e 34       		.uleb128 0x34
 5906 1d8f 28050000 		.4byte	.LBB134
 5907 1d93 24000000 		.4byte	.LBE134-.LBB134
 5908 1d97 A11D0000 		.4byte	0x1da1
 5909 1d9b 3C       		.uleb128 0x3c
 5910 1d9c E3160000 		.4byte	0x16e3
 5911 1da0 00       		.byte	0
 5912 1da1 36       		.uleb128 0x36
 5913 1da2 06050000 		.4byte	.LVL147
 5914 1da6 43280000 		.4byte	0x2843
 5915 1daa C81D0000 		.4byte	0x1dc8
 5916 1dae 37       		.uleb128 0x37
 5917 1daf 01       		.uleb128 0x1
 5918 1db0 50       		.byte	0x50
 5919 1db1 03       		.uleb128 0x3
 5920 1db2 91       		.byte	0x91
 5921 1db3 9C7F     		.sleb128 -100
 5922 1db5 37       		.uleb128 0x37
 5923 1db6 01       		.uleb128 0x1
 5924 1db7 51       		.byte	0x51
 5925 1db8 05       		.uleb128 0x5
 5926 1db9 91       		.byte	0x91
 5927 1dba D87E     		.sleb128 -168
 5928 1dbc 94       		.byte	0x94
 5929 1dbd 02       		.byte	0x2
 5930 1dbe 37       		.uleb128 0x37
 5931 1dbf 01       		.uleb128 0x1
 5932 1dc0 52       		.byte	0x52
 5933 1dc1 05       		.uleb128 0x5
 5934 1dc2 91       		.byte	0x91
 5935 1dc3 EC7E     		.sleb128 -148
 5936 1dc5 94       		.byte	0x94
 5937 1dc6 02       		.byte	0x2
 5938 1dc7 00       		.byte	0
 5939 1dc8 36       		.uleb128 0x36
 5940 1dc9 14050000 		.4byte	.LVL148
 5941 1dcd 4E280000 		.4byte	0x284e
 5942 1dd1 EF1D0000 		.4byte	0x1def
 5943 1dd5 37       		.uleb128 0x37
 5944 1dd6 01       		.uleb128 0x1
 5945 1dd7 50       		.byte	0x50
 5946 1dd8 03       		.uleb128 0x3
 5947 1dd9 91       		.byte	0x91
 5948 1dda 9C7F     		.sleb128 -100
 5949 1ddc 37       		.uleb128 0x37
 5950 1ddd 01       		.uleb128 0x1
 5951 1dde 51       		.byte	0x51
 5952 1ddf 05       		.uleb128 0x5
 5953 1de0 91       		.byte	0x91
 5954 1de1 D87E     		.sleb128 -168
 5955 1de3 94       		.byte	0x94
 5956 1de4 02       		.byte	0x2
 5957 1de5 37       		.uleb128 0x37
 5958 1de6 01       		.uleb128 0x1
 5959 1de7 52       		.byte	0x52
ARM GAS  C:\Users\strap\AppData\Local\Temp\ccUgAYbc.s 			page 141


 5960 1de8 05       		.uleb128 0x5
 5961 1de9 91       		.byte	0x91
 5962 1dea EC7E     		.sleb128 -148
 5963 1dec 94       		.byte	0x94
 5964 1ded 02       		.byte	0x2
 5965 1dee 00       		.byte	0
 5966 1def 38       		.uleb128 0x38
 5967 1df0 74050000 		.4byte	.LVL151
 5968 1df4 59280000 		.4byte	0x2859
 5969 1df8 37       		.uleb128 0x37
 5970 1df9 01       		.uleb128 0x1
 5971 1dfa 50       		.byte	0x50
 5972 1dfb 03       		.uleb128 0x3
 5973 1dfc 91       		.byte	0x91
 5974 1dfd 847F     		.sleb128 -124
 5975 1dff 00       		.byte	0
 5976 1e00 00       		.byte	0
 5977 1e01 00       		.byte	0
 5978 1e02 00       		.byte	0
 5979 1e03 34       		.uleb128 0x34
 5980 1e04 A4050000 		.4byte	.LBB135
 5981 1e08 0E000000 		.4byte	.LBE135-.LBB135
 5982 1e0c 211E0000 		.4byte	0x1e21
 5983 1e10 2D       		.uleb128 0x2d
 5984 1e11 DA0A0000 		.4byte	.LASF389
 5985 1e15 01       		.byte	0x1
 5986 1e16 2702     		.2byte	0x227
 5987 1e18 00020000 		.4byte	0x200
 5988 1e1c 3B0C0000 		.4byte	.LLST74
 5989 1e20 00       		.byte	0
 5990 1e21 2F       		.uleb128 0x2f
 5991 1e22 F6160000 		.4byte	0x16f6
 5992 1e26 E2050000 		.4byte	.LBB136
 5993 1e2a 66000000 		.4byte	.LBE136-.LBB136
 5994 1e2e 01       		.byte	0x1
 5995 1e2f 4A02     		.2byte	0x24a
 5996 1e31 601E0000 		.4byte	0x1e60
 5997 1e35 30       		.uleb128 0x30
 5998 1e36 1E170000 		.4byte	0x171e
 5999 1e3a 4E0C0000 		.4byte	.LLST75
 6000 1e3e 3D       		.uleb128 0x3d
 6001 1e3f 13170000 		.4byte	0x1713
 6002 1e43 30       		.uleb128 0x30
 6003 1e44 07170000 		.4byte	0x1707
 6004 1e48 630C0000 		.4byte	.LLST76
 6005 1e4c 32       		.uleb128 0x32
 6006 1e4d E2050000 		.4byte	.LBB137
 6007 1e51 66000000 		.4byte	.LBE137-.LBB137
 6008 1e55 33       		.uleb128 0x33
 6009 1e56 2A170000 		.4byte	0x172a
 6010 1e5a 790C0000 		.4byte	.LLST77
 6011 1e5e 00       		.byte	0
 6012 1e5f 00       		.byte	0
 6013 1e60 34       		.uleb128 0x34
 6014 1e61 64060000 		.4byte	.LBB138
 6015 1e65 56000000 		.4byte	.LBE138-.LBB138
 6016 1e69 DE1E0000 		.4byte	0x1ede
ARM GAS  C:\Users\strap\AppData\Local\Temp\ccUgAYbc.s 			page 142


 6017 1e6d 2D       		.uleb128 0x2d
 6018 1e6e D1100000 		.4byte	.LASF397
 6019 1e72 01       		.byte	0x1
 6020 1e73 5202     		.2byte	0x252
 6021 1e75 45070000 		.4byte	0x745
 6022 1e79 8C0C0000 		.4byte	.LLST78
 6023 1e7d 2F       		.uleb128 0x2f
 6024 1e7e CF150000 		.4byte	0x15cf
 6025 1e82 84060000 		.4byte	.LBB139
 6026 1e86 08000000 		.4byte	.LBE139-.LBB139
 6027 1e8a 01       		.byte	0x1
 6028 1e8b 5302     		.2byte	0x253
 6029 1e8d 9B1E0000 		.4byte	0x1e9b
 6030 1e91 30       		.uleb128 0x30
 6031 1e92 DF150000 		.4byte	0x15df
 6032 1e96 AA0C0000 		.4byte	.LLST79
 6033 1e9a 00       		.byte	0
 6034 1e9b 2F       		.uleb128 0x2f
 6035 1e9c CF150000 		.4byte	0x15cf
 6036 1ea0 9A060000 		.4byte	.LBB141
 6037 1ea4 0C000000 		.4byte	.LBE141-.LBB141
 6038 1ea8 01       		.byte	0x1
 6039 1ea9 5602     		.2byte	0x256
 6040 1eab B91E0000 		.4byte	0x1eb9
 6041 1eaf 30       		.uleb128 0x30
 6042 1eb0 DF150000 		.4byte	0x15df
 6043 1eb4 BF0C0000 		.4byte	.LLST80
 6044 1eb8 00       		.byte	0
 6045 1eb9 36       		.uleb128 0x36
 6046 1eba 98060000 		.4byte	.LVL169
 6047 1ebe 65280000 		.4byte	0x2865
 6048 1ec2 CD1E0000 		.4byte	0x1ecd
 6049 1ec6 37       		.uleb128 0x37
 6050 1ec7 01       		.uleb128 0x1
 6051 1ec8 50       		.byte	0x50
 6052 1ec9 02       		.uleb128 0x2
 6053 1eca 74       		.byte	0x74
 6054 1ecb 00       		.sleb128 0
 6055 1ecc 00       		.byte	0
 6056 1ecd 38       		.uleb128 0x38
 6057 1ece AE060000 		.4byte	.LVL173
 6058 1ed2 70280000 		.4byte	0x2870
 6059 1ed6 37       		.uleb128 0x37
 6060 1ed7 01       		.uleb128 0x1
 6061 1ed8 50       		.byte	0x50
 6062 1ed9 02       		.uleb128 0x2
 6063 1eda 74       		.byte	0x74
 6064 1edb 00       		.sleb128 0
 6065 1edc 00       		.byte	0
 6066 1edd 00       		.byte	0
 6067 1ede 2F       		.uleb128 0x2f
 6068 1edf CF150000 		.4byte	0x15cf
 6069 1ee3 C6060000 		.4byte	.LBB143
 6070 1ee7 0E000000 		.4byte	.LBE143-.LBB143
 6071 1eeb 01       		.byte	0x1
 6072 1eec 5F02     		.2byte	0x25f
 6073 1eee FC1E0000 		.4byte	0x1efc
ARM GAS  C:\Users\strap\AppData\Local\Temp\ccUgAYbc.s 			page 143


 6074 1ef2 30       		.uleb128 0x30
 6075 1ef3 DF150000 		.4byte	0x15df
 6076 1ef7 D40C0000 		.4byte	.LLST81
 6077 1efb 00       		.byte	0
 6078 1efc 36       		.uleb128 0x36
 6079 1efd 06070000 		.4byte	.LVL181
 6080 1f01 21280000 		.4byte	0x2821
 6081 1f05 311F0000 		.4byte	0x1f31
 6082 1f09 37       		.uleb128 0x37
 6083 1f0a 01       		.uleb128 0x1
 6084 1f0b 50       		.byte	0x50
 6085 1f0c 04       		.uleb128 0x4
 6086 1f0d 91       		.byte	0x91
 6087 1f0e E87E     		.sleb128 -152
 6088 1f10 06       		.byte	0x6
 6089 1f11 37       		.uleb128 0x37
 6090 1f12 01       		.uleb128 0x1
 6091 1f13 51       		.byte	0x51
 6092 1f14 03       		.uleb128 0x3
 6093 1f15 91       		.byte	0x91
 6094 1f16 FC7E     		.sleb128 -132
 6095 1f18 37       		.uleb128 0x37
 6096 1f19 01       		.uleb128 0x1
 6097 1f1a 52       		.byte	0x52
 6098 1f1b 04       		.uleb128 0x4
 6099 1f1c 91       		.byte	0x91
 6100 1f1d 987E     		.sleb128 -232
 6101 1f1f 06       		.byte	0x6
 6102 1f20 37       		.uleb128 0x37
 6103 1f21 01       		.uleb128 0x1
 6104 1f22 53       		.byte	0x53
 6105 1f23 02       		.uleb128 0x2
 6106 1f24 7A       		.byte	0x7a
 6107 1f25 00       		.sleb128 0
 6108 1f26 37       		.uleb128 0x37
 6109 1f27 02       		.uleb128 0x2
 6110 1f28 7D       		.byte	0x7d
 6111 1f29 00       		.sleb128 0
 6112 1f2a 05       		.uleb128 0x5
 6113 1f2b 91       		.byte	0x91
 6114 1f2c DC7E     		.sleb128 -164
 6115 1f2e 94       		.byte	0x94
 6116 1f2f 01       		.byte	0x1
 6117 1f30 00       		.byte	0
 6118 1f31 38       		.uleb128 0x38
 6119 1f32 52070000 		.4byte	.LVL192
 6120 1f36 7B280000 		.4byte	0x287b
 6121 1f3a 37       		.uleb128 0x37
 6122 1f3b 01       		.uleb128 0x1
 6123 1f3c 50       		.byte	0x50
 6124 1f3d 02       		.uleb128 0x2
 6125 1f3e 7A       		.byte	0x7a
 6126 1f3f 00       		.sleb128 0
 6127 1f40 37       		.uleb128 0x37
 6128 1f41 01       		.uleb128 0x1
 6129 1f42 51       		.byte	0x51
 6130 1f43 04       		.uleb128 0x4
ARM GAS  C:\Users\strap\AppData\Local\Temp\ccUgAYbc.s 			page 144


 6131 1f44 91       		.byte	0x91
 6132 1f45 C87E     		.sleb128 -184
 6133 1f47 06       		.byte	0x6
 6134 1f48 00       		.byte	0
 6135 1f49 00       		.byte	0
 6136 1f4a 36       		.uleb128 0x36
 6137 1f4b 76020000 		.4byte	.LVL68
 6138 1f4f 00280000 		.4byte	0x2800
 6139 1f53 5E1F0000 		.4byte	0x1f5e
 6140 1f57 37       		.uleb128 0x37
 6141 1f58 01       		.uleb128 0x1
 6142 1f59 50       		.byte	0x50
 6143 1f5a 02       		.uleb128 0x2
 6144 1f5b 78       		.byte	0x78
 6145 1f5c 00       		.sleb128 0
 6146 1f5d 00       		.byte	0
 6147 1f5e 36       		.uleb128 0x36
 6148 1f5f 80020000 		.4byte	.LVL71
 6149 1f63 0B280000 		.4byte	0x280b
 6150 1f67 721F0000 		.4byte	0x1f72
 6151 1f6b 37       		.uleb128 0x37
 6152 1f6c 01       		.uleb128 0x1
 6153 1f6d 50       		.byte	0x50
 6154 1f6e 02       		.uleb128 0x2
 6155 1f6f 91       		.byte	0x91
 6156 1f70 50       		.sleb128 -48
 6157 1f71 00       		.byte	0
 6158 1f72 36       		.uleb128 0x36
 6159 1f73 8A020000 		.4byte	.LVL72
 6160 1f77 0B280000 		.4byte	0x280b
 6161 1f7b 861F0000 		.4byte	0x1f86
 6162 1f7f 37       		.uleb128 0x37
 6163 1f80 01       		.uleb128 0x1
 6164 1f81 50       		.byte	0x50
 6165 1f82 02       		.uleb128 0x2
 6166 1f83 91       		.byte	0x91
 6167 1f84 50       		.sleb128 -48
 6168 1f85 00       		.byte	0
 6169 1f86 36       		.uleb128 0x36
 6170 1f87 94020000 		.4byte	.LVL75
 6171 1f8b 16280000 		.4byte	0x2816
 6172 1f8f 9E1F0000 		.4byte	0x1f9e
 6173 1f93 37       		.uleb128 0x37
 6174 1f94 01       		.uleb128 0x1
 6175 1f95 50       		.byte	0x50
 6176 1f96 06       		.uleb128 0x6
 6177 1f97 91       		.byte	0x91
 6178 1f98 C87E     		.sleb128 -184
 6179 1f9a 06       		.byte	0x6
 6180 1f9b 31       		.byte	0x31
 6181 1f9c 24       		.byte	0x24
 6182 1f9d 00       		.byte	0
 6183 1f9e 36       		.uleb128 0x36
 6184 1f9f 9C020000 		.4byte	.LVL78
 6185 1fa3 16280000 		.4byte	0x2816
 6186 1fa7 B41F0000 		.4byte	0x1fb4
 6187 1fab 37       		.uleb128 0x37
ARM GAS  C:\Users\strap\AppData\Local\Temp\ccUgAYbc.s 			page 145


 6188 1fac 01       		.uleb128 0x1
 6189 1fad 50       		.byte	0x50
 6190 1fae 04       		.uleb128 0x4
 6191 1faf 91       		.byte	0x91
 6192 1fb0 C87E     		.sleb128 -184
 6193 1fb2 06       		.byte	0x6
 6194 1fb3 00       		.byte	0
 6195 1fb4 36       		.uleb128 0x36
 6196 1fb5 A6020000 		.4byte	.LVL81
 6197 1fb9 70280000 		.4byte	0x2870
 6198 1fbd CF1F0000 		.4byte	0x1fcf
 6199 1fc1 37       		.uleb128 0x37
 6200 1fc2 01       		.uleb128 0x1
 6201 1fc3 50       		.byte	0x50
 6202 1fc4 03       		.uleb128 0x3
 6203 1fc5 91       		.byte	0x91
 6204 1fc6 847F     		.sleb128 -124
 6205 1fc8 37       		.uleb128 0x37
 6206 1fc9 01       		.uleb128 0x1
 6207 1fca 51       		.byte	0x51
 6208 1fcb 02       		.uleb128 0x2
 6209 1fcc 08       		.byte	0x8
 6210 1fcd 4C       		.byte	0x4c
 6211 1fce 00       		.byte	0
 6212 1fcf 36       		.uleb128 0x36
 6213 1fd0 8E030000 		.4byte	.LVL93
 6214 1fd4 7B280000 		.4byte	0x287b
 6215 1fd8 EB1F0000 		.4byte	0x1feb
 6216 1fdc 37       		.uleb128 0x37
 6217 1fdd 01       		.uleb128 0x1
 6218 1fde 50       		.byte	0x50
 6219 1fdf 02       		.uleb128 0x2
 6220 1fe0 7B       		.byte	0x7b
 6221 1fe1 00       		.sleb128 0
 6222 1fe2 37       		.uleb128 0x37
 6223 1fe3 01       		.uleb128 0x1
 6224 1fe4 51       		.byte	0x51
 6225 1fe5 04       		.uleb128 0x4
 6226 1fe6 91       		.byte	0x91
 6227 1fe7 C87E     		.sleb128 -184
 6228 1fe9 06       		.byte	0x6
 6229 1fea 00       		.byte	0
 6230 1feb 36       		.uleb128 0x36
 6231 1fec 9A070000 		.4byte	.LVL197
 6232 1ff0 21280000 		.4byte	0x2821
 6233 1ff4 20200000 		.4byte	0x2020
 6234 1ff8 37       		.uleb128 0x37
 6235 1ff9 01       		.uleb128 0x1
 6236 1ffa 50       		.byte	0x50
 6237 1ffb 04       		.uleb128 0x4
 6238 1ffc 91       		.byte	0x91
 6239 1ffd E87E     		.sleb128 -152
 6240 1fff 06       		.byte	0x6
 6241 2000 37       		.uleb128 0x37
 6242 2001 01       		.uleb128 0x1
 6243 2002 51       		.byte	0x51
 6244 2003 03       		.uleb128 0x3
ARM GAS  C:\Users\strap\AppData\Local\Temp\ccUgAYbc.s 			page 146


 6245 2004 91       		.byte	0x91
 6246 2005 FC7E     		.sleb128 -132
 6247 2007 37       		.uleb128 0x37
 6248 2008 01       		.uleb128 0x1
 6249 2009 52       		.byte	0x52
 6250 200a 04       		.uleb128 0x4
 6251 200b 91       		.byte	0x91
 6252 200c 987E     		.sleb128 -232
 6253 200e 06       		.byte	0x6
 6254 200f 37       		.uleb128 0x37
 6255 2010 01       		.uleb128 0x1
 6256 2011 53       		.byte	0x53
 6257 2012 02       		.uleb128 0x2
 6258 2013 7A       		.byte	0x7a
 6259 2014 00       		.sleb128 0
 6260 2015 37       		.uleb128 0x37
 6261 2016 02       		.uleb128 0x2
 6262 2017 7D       		.byte	0x7d
 6263 2018 00       		.sleb128 0
 6264 2019 05       		.uleb128 0x5
 6265 201a 91       		.byte	0x91
 6266 201b DC7E     		.sleb128 -164
 6267 201d 94       		.byte	0x94
 6268 201e 01       		.byte	0x1
 6269 201f 00       		.byte	0
 6270 2020 36       		.uleb128 0x36
 6271 2021 A0070000 		.4byte	.LVL198
 6272 2025 2C280000 		.4byte	0x282c
 6273 2029 34200000 		.4byte	0x2034
 6274 202d 37       		.uleb128 0x37
 6275 202e 01       		.uleb128 0x1
 6276 202f 50       		.byte	0x50
 6277 2030 02       		.uleb128 0x2
 6278 2031 7A       		.byte	0x7a
 6279 2032 00       		.sleb128 0
 6280 2033 00       		.byte	0
 6281 2034 38       		.uleb128 0x38
 6282 2035 A6070000 		.4byte	.LVL199
 6283 2039 2C280000 		.4byte	0x282c
 6284 203d 37       		.uleb128 0x37
 6285 203e 01       		.uleb128 0x1
 6286 203f 50       		.byte	0x50
 6287 2040 04       		.uleb128 0x4
 6288 2041 91       		.byte	0x91
 6289 2042 987E     		.sleb128 -232
 6290 2044 06       		.byte	0x6
 6291 2045 00       		.byte	0
 6292 2046 00       		.byte	0
 6293 2047 00       		.byte	0
 6294 2048 3E       		.uleb128 0x3e
 6295 2049 32000000 		.4byte	.LVL9
 6296 204d 86280000 		.4byte	0x2886
 6297 2051 36       		.uleb128 0x36
 6298 2052 38000000 		.4byte	.LVL11
 6299 2056 91280000 		.4byte	0x2891
 6300 205a 65200000 		.4byte	0x2065
 6301 205e 37       		.uleb128 0x37
ARM GAS  C:\Users\strap\AppData\Local\Temp\ccUgAYbc.s 			page 147


 6302 205f 01       		.uleb128 0x1
 6303 2060 50       		.byte	0x50
 6304 2061 02       		.uleb128 0x2
 6305 2062 78       		.byte	0x78
 6306 2063 00       		.sleb128 0
 6307 2064 00       		.byte	0
 6308 2065 3E       		.uleb128 0x3e
 6309 2066 6A000000 		.4byte	.LVL14
 6310 206a 9D280000 		.4byte	0x289d
 6311 206e 38       		.uleb128 0x38
 6312 206f A0000000 		.4byte	.LVL16
 6313 2073 21280000 		.4byte	0x2821
 6314 2077 37       		.uleb128 0x37
 6315 2078 01       		.uleb128 0x1
 6316 2079 50       		.byte	0x50
 6317 207a 04       		.uleb128 0x4
 6318 207b 91       		.byte	0x91
 6319 207c E87E     		.sleb128 -152
 6320 207e 06       		.byte	0x6
 6321 207f 37       		.uleb128 0x37
 6322 2080 01       		.uleb128 0x1
 6323 2081 51       		.byte	0x51
 6324 2082 04       		.uleb128 0x4
 6325 2083 91       		.byte	0x91
 6326 2084 C47E     		.sleb128 -188
 6327 2086 06       		.byte	0x6
 6328 2087 37       		.uleb128 0x37
 6329 2088 01       		.uleb128 0x1
 6330 2089 52       		.byte	0x52
 6331 208a 02       		.uleb128 0x2
 6332 208b 76       		.byte	0x76
 6333 208c 00       		.sleb128 0
 6334 208d 37       		.uleb128 0x37
 6335 208e 01       		.uleb128 0x1
 6336 208f 53       		.byte	0x53
 6337 2090 01       		.uleb128 0x1
 6338 2091 30       		.byte	0x30
 6339 2092 37       		.uleb128 0x37
 6340 2093 02       		.uleb128 0x2
 6341 2094 7D       		.byte	0x7d
 6342 2095 00       		.sleb128 0
 6343 2096 01       		.uleb128 0x1
 6344 2097 31       		.byte	0x31
 6345 2098 00       		.byte	0
 6346 2099 00       		.byte	0
 6347 209a 0F       		.uleb128 0xf
 6348 209b 04       		.byte	0x4
 6349 209c A0200000 		.4byte	0x20a0
 6350 20a0 10       		.uleb128 0x10
 6351 20a1 9F0B0000 		.4byte	0xb9f
 6352 20a5 0F       		.uleb128 0xf
 6353 20a6 04       		.byte	0x4
 6354 20a7 3B110000 		.4byte	0x113b
 6355 20ab 1C       		.uleb128 0x1c
 6356 20ac CE000000 		.4byte	0xce
 6357 20b0 BB200000 		.4byte	0x20bb
 6358 20b4 1D       		.uleb128 0x1d
ARM GAS  C:\Users\strap\AppData\Local\Temp\ccUgAYbc.s 			page 148


 6359 20b5 1E020000 		.4byte	0x21e
 6360 20b9 02       		.byte	0x2
 6361 20ba 00       		.byte	0
 6362 20bb 2A       		.uleb128 0x2a
 6363 20bc 1E030000 		.4byte	.LASF399
 6364 20c0 01       		.byte	0x1
 6365 20c1 8002     		.2byte	0x280
 6366 20c3 00000000 		.4byte	.LFB336
 6367 20c7 40000000 		.4byte	.LFE336-.LFB336
 6368 20cb 01       		.uleb128 0x1
 6369 20cc 9C       		.byte	0x9c
 6370 20cd 96210000 		.4byte	0x2196
 6371 20d1 2B       		.uleb128 0x2b
 6372 20d2 F7130000 		.4byte	.LASF236
 6373 20d6 01       		.byte	0x1
 6374 20d7 8002     		.2byte	0x280
 6375 20d9 82100000 		.4byte	0x1082
 6376 20dd E90C0000 		.4byte	.LLST82
 6377 20e1 2B       		.uleb128 0x2b
 6378 20e2 6F0D0000 		.4byte	.LASF367
 6379 20e6 01       		.byte	0x1
 6380 20e7 8002     		.2byte	0x280
 6381 20e9 82100000 		.4byte	0x1082
 6382 20ed 150D0000 		.4byte	.LLST83
 6383 20f1 3F       		.uleb128 0x3f
 6384 20f2 6D736700 		.ascii	"msg\000"
 6385 20f6 01       		.byte	0x1
 6386 20f7 8002     		.2byte	0x280
 6387 20f9 2C020000 		.4byte	0x22c
 6388 20fd 410D0000 		.4byte	.LLST84
 6389 2101 2C       		.uleb128 0x2c
 6390 2102 3A0A0000 		.4byte	.LASF400
 6391 2106 01       		.byte	0x1
 6392 2107 8202     		.2byte	0x282
 6393 2109 64130000 		.4byte	0x1364
 6394 210d 03       		.uleb128 0x3
 6395 210e 91       		.byte	0x91
 6396 210f 9C7F     		.sleb128 -100
 6397 2111 2C       		.uleb128 0x2c
 6398 2112 B20A0000 		.4byte	.LASF401
 6399 2116 01       		.byte	0x1
 6400 2117 8702     		.2byte	0x287
 6401 2119 42140000 		.4byte	0x1442
 6402 211d 03       		.uleb128 0x3
 6403 211e 91       		.byte	0x91
 6404 211f F87E     		.sleb128 -136
 6405 2121 36       		.uleb128 0x36
 6406 2122 10000000 		.4byte	.LVL203
 6407 2126 A8280000 		.4byte	0x28a8
 6408 212a 36210000 		.4byte	0x2136
 6409 212e 37       		.uleb128 0x37
 6410 212f 01       		.uleb128 0x1
 6411 2130 50       		.byte	0x50
 6412 2131 03       		.uleb128 0x3
 6413 2132 91       		.byte	0x91
 6414 2133 9C7F     		.sleb128 -100
 6415 2135 00       		.byte	0
ARM GAS  C:\Users\strap\AppData\Local\Temp\ccUgAYbc.s 			page 149


 6416 2136 36       		.uleb128 0x36
 6417 2137 22000000 		.4byte	.LVL204
 6418 213b B3280000 		.4byte	0x28b3
 6419 213f 57210000 		.4byte	0x2157
 6420 2143 37       		.uleb128 0x37
 6421 2144 01       		.uleb128 0x1
 6422 2145 50       		.byte	0x50
 6423 2146 02       		.uleb128 0x2
 6424 2147 74       		.byte	0x74
 6425 2148 00       		.sleb128 0
 6426 2149 37       		.uleb128 0x37
 6427 214a 01       		.uleb128 0x1
 6428 214b 51       		.byte	0x51
 6429 214c 02       		.uleb128 0x2
 6430 214d 75       		.byte	0x75
 6431 214e 00       		.sleb128 0
 6432 214f 37       		.uleb128 0x37
 6433 2150 01       		.uleb128 0x1
 6434 2151 52       		.byte	0x52
 6435 2152 03       		.uleb128 0x3
 6436 2153 91       		.byte	0x91
 6437 2154 9C7F     		.sleb128 -100
 6438 2156 00       		.byte	0
 6439 2157 36       		.uleb128 0x36
 6440 2158 28000000 		.4byte	.LVL205
 6441 215c BE280000 		.4byte	0x28be
 6442 2160 6C210000 		.4byte	0x216c
 6443 2164 37       		.uleb128 0x37
 6444 2165 01       		.uleb128 0x1
 6445 2166 50       		.byte	0x50
 6446 2167 03       		.uleb128 0x3
 6447 2168 91       		.byte	0x91
 6448 2169 F87E     		.sleb128 -136
 6449 216b 00       		.byte	0
 6450 216c 38       		.uleb128 0x38
 6451 216d 38000000 		.4byte	.LVL206
 6452 2171 C9280000 		.4byte	0x28c9
 6453 2175 37       		.uleb128 0x37
 6454 2176 01       		.uleb128 0x1
 6455 2177 50       		.byte	0x50
 6456 2178 02       		.uleb128 0x2
 6457 2179 74       		.byte	0x74
 6458 217a 00       		.sleb128 0
 6459 217b 37       		.uleb128 0x37
 6460 217c 01       		.uleb128 0x1
 6461 217d 51       		.byte	0x51
 6462 217e 02       		.uleb128 0x2
 6463 217f 75       		.byte	0x75
 6464 2180 00       		.sleb128 0
 6465 2181 37       		.uleb128 0x37
 6466 2182 01       		.uleb128 0x1
 6467 2183 52       		.byte	0x52
 6468 2184 03       		.uleb128 0x3
 6469 2185 91       		.byte	0x91
 6470 2186 F87E     		.sleb128 -136
 6471 2188 37       		.uleb128 0x37
 6472 2189 01       		.uleb128 0x1
ARM GAS  C:\Users\strap\AppData\Local\Temp\ccUgAYbc.s 			page 150


 6473 218a 53       		.byte	0x53
 6474 218b 02       		.uleb128 0x2
 6475 218c 76       		.byte	0x76
 6476 218d 00       		.sleb128 0
 6477 218e 37       		.uleb128 0x37
 6478 218f 02       		.uleb128 0x2
 6479 2190 7D       		.byte	0x7d
 6480 2191 00       		.sleb128 0
 6481 2192 01       		.uleb128 0x1
 6482 2193 30       		.byte	0x30
 6483 2194 00       		.byte	0
 6484 2195 00       		.byte	0
 6485 2196 40       		.uleb128 0x40
 6486 2197 68130000 		.4byte	.LASF414
 6487 219b 01       		.byte	0x1
 6488 219c 38       		.byte	0x38
 6489 219d 00000000 		.4byte	.LFB328
 6490 21a1 22000000 		.4byte	.LFE328-.LFB328
 6491 21a5 01       		.uleb128 0x1
 6492 21a6 9C       		.byte	0x9c
 6493 21a7 D0210000 		.4byte	0x21d0
 6494 21ab 41       		.uleb128 0x41
 6495 21ac 64736300 		.ascii	"dsc\000"
 6496 21b0 01       		.byte	0x1
 6497 21b1 38       		.byte	0x38
 6498 21b2 D0210000 		.4byte	0x21d0
 6499 21b6 6D0D0000 		.4byte	.LLST85
 6500 21ba 38       		.uleb128 0x38
 6501 21bb 0A000000 		.4byte	.LVL209
 6502 21bf 70280000 		.4byte	0x2870
 6503 21c3 37       		.uleb128 0x37
 6504 21c4 01       		.uleb128 0x1
 6505 21c5 50       		.byte	0x50
 6506 21c6 02       		.uleb128 0x2
 6507 21c7 74       		.byte	0x74
 6508 21c8 00       		.sleb128 0
 6509 21c9 37       		.uleb128 0x37
 6510 21ca 01       		.uleb128 0x1
 6511 21cb 51       		.byte	0x51
 6512 21cc 01       		.uleb128 0x1
 6513 21cd 40       		.byte	0x40
 6514 21ce 00       		.byte	0
 6515 21cf 00       		.byte	0
 6516 21d0 0F       		.uleb128 0xf
 6517 21d1 04       		.byte	0x4
 6518 21d2 9F0B0000 		.4byte	0xb9f
 6519 21d6 42       		.uleb128 0x42
 6520 21d7 590D0000 		.4byte	.LASF402
 6521 21db 01       		.byte	0x1
 6522 21dc 62       		.byte	0x62
 6523 21dd B8000000 		.4byte	0xb8
 6524 21e1 00000000 		.4byte	.LFB330
 6525 21e5 32000000 		.4byte	.LFE330-.LFB330
 6526 21e9 01       		.uleb128 0x1
 6527 21ea 9C       		.byte	0x9c
 6528 21eb 0D220000 		.4byte	0x220d
 6529 21ef 41       		.uleb128 0x41
ARM GAS  C:\Users\strap\AppData\Local\Temp\ccUgAYbc.s 			page 151


 6530 21f0 636600   		.ascii	"cf\000"
 6531 21f3 01       		.byte	0x1
 6532 21f4 62       		.byte	0x62
 6533 21f5 9B030000 		.4byte	0x39b
 6534 21f9 8B0D0000 		.4byte	.LLST86
 6535 21fd 43       		.uleb128 0x43
 6536 21fe 58090000 		.4byte	.LASF116
 6537 2202 01       		.byte	0x1
 6538 2203 64       		.byte	0x64
 6539 2204 B8000000 		.4byte	0xb8
 6540 2208 AC0D0000 		.4byte	.LLST87
 6541 220c 00       		.byte	0
 6542 220d 42       		.uleb128 0x42
 6543 220e D20E0000 		.4byte	.LASF403
 6544 2212 01       		.byte	0x1
 6545 2213 8F       		.byte	0x8f
 6546 2214 CA040000 		.4byte	0x4ca
 6547 2218 00000000 		.4byte	.LFB331
 6548 221c 14000000 		.4byte	.LFE331-.LFB331
 6549 2220 01       		.uleb128 0x1
 6550 2221 9C       		.byte	0x9c
 6551 2222 44220000 		.4byte	0x2244
 6552 2226 41       		.uleb128 0x41
 6553 2227 636600   		.ascii	"cf\000"
 6554 222a 01       		.byte	0x1
 6555 222b 8F       		.byte	0x8f
 6556 222c 9B030000 		.4byte	0x39b
 6557 2230 130E0000 		.4byte	.LLST88
 6558 2234 43       		.uleb128 0x43
 6559 2235 1C140000 		.4byte	.LASF404
 6560 2239 01       		.byte	0x1
 6561 223a 91       		.byte	0x91
 6562 223b CA040000 		.4byte	0x4ca
 6563 223f 340E0000 		.4byte	.LLST89
 6564 2243 00       		.byte	0
 6565 2244 42       		.uleb128 0x42
 6566 2245 5A050000 		.4byte	.LASF405
 6567 2249 01       		.byte	0x1
 6568 224a AA       		.byte	0xaa
 6569 224b CA040000 		.4byte	0x4ca
 6570 224f 00000000 		.4byte	.LFB332
 6571 2253 20000000 		.4byte	.LFE332-.LFB332
 6572 2257 01       		.uleb128 0x1
 6573 2258 9C       		.byte	0x9c
 6574 2259 7B220000 		.4byte	0x227b
 6575 225d 41       		.uleb128 0x41
 6576 225e 636600   		.ascii	"cf\000"
 6577 2261 01       		.byte	0x1
 6578 2262 AA       		.byte	0xaa
 6579 2263 9B030000 		.4byte	0x39b
 6580 2267 530E0000 		.4byte	.LLST90
 6581 226b 43       		.uleb128 0x43
 6582 226c 55110000 		.4byte	.LASF111
 6583 2270 01       		.byte	0x1
 6584 2271 AC       		.byte	0xac
 6585 2272 CA040000 		.4byte	0x4ca
 6586 2276 740E0000 		.4byte	.LLST91
ARM GAS  C:\Users\strap\AppData\Local\Temp\ccUgAYbc.s 			page 152


 6587 227a 00       		.byte	0
 6588 227b 44       		.uleb128 0x44
 6589 227c E3070000 		.4byte	.LASF448
 6590 2280 01       		.byte	0x1
 6591 2281 E8       		.byte	0xe8
 6592 2282 50020000 		.4byte	0x250
 6593 2286 00000000 		.4byte	.LFB334
 6594 228a E2010000 		.4byte	.LFE334-.LFB334
 6595 228e 01       		.uleb128 0x1
 6596 228f 9C       		.byte	0x9c
 6597 2290 F1260000 		.4byte	0x26f1
 6598 2294 45       		.uleb128 0x45
 6599 2295 F7130000 		.4byte	.LASF236
 6600 2299 01       		.byte	0x1
 6601 229a E8       		.byte	0xe8
 6602 229b 82100000 		.4byte	0x1082
 6603 229f 930E0000 		.4byte	.LLST92
 6604 22a3 45       		.uleb128 0x45
 6605 22a4 6F0D0000 		.4byte	.LASF367
 6606 22a8 01       		.byte	0x1
 6607 22a9 E8       		.byte	0xe8
 6608 22aa 82100000 		.4byte	0x1082
 6609 22ae FC0E0000 		.4byte	.LLST93
 6610 22b2 41       		.uleb128 0x41
 6611 22b3 73726300 		.ascii	"src\000"
 6612 22b7 01       		.byte	0x1
 6613 22b8 E9       		.byte	0xe9
 6614 22b9 C3040000 		.4byte	0x4c3
 6615 22bd 3E0F0000 		.4byte	.LLST94
 6616 22c1 45       		.uleb128 0x45
 6617 22c2 20020000 		.4byte	.LASF369
 6618 22c6 01       		.byte	0x1
 6619 22c7 EA       		.byte	0xea
 6620 22c8 9A200000 		.4byte	0x209a
 6621 22cc 780F0000 		.4byte	.LLST95
 6622 22d0 43       		.uleb128 0x43
 6623 22d1 E8000000 		.4byte	.LASF406
 6624 22d5 01       		.byte	0x1
 6625 22d6 EE       		.byte	0xee
 6626 22d7 F1260000 		.4byte	0x26f1
 6627 22db D20F0000 		.4byte	.LLST96
 6628 22df 43       		.uleb128 0x43
 6629 22e0 960D0000 		.4byte	.LASF110
 6630 22e4 01       		.byte	0x1
 6631 22e5 F2       		.byte	0xf2
 6632 22e6 CA040000 		.4byte	0x4ca
 6633 22ea 13100000 		.4byte	.LLST97
 6634 22ee 43       		.uleb128 0x43
 6635 22ef E6020000 		.4byte	.LASF371
 6636 22f3 01       		.byte	0x1
 6637 22f4 F3       		.byte	0xf3
 6638 22f5 CA040000 		.4byte	0x4ca
 6639 22f9 31100000 		.4byte	.LLST98
 6640 22fd 35       		.uleb128 0x35
 6641 22fe 60000000 		.4byte	.Ldebug_ranges0+0x60
 6642 2302 56240000 		.4byte	0x2456
 6643 2306 46       		.uleb128 0x46
ARM GAS  C:\Users\strap\AppData\Local\Temp\ccUgAYbc.s 			page 153


 6644 2307 4C0D0000 		.4byte	.LASF407
 6645 230b 01       		.byte	0x1
 6646 230c FD       		.byte	0xfd
 6647 230d B8020000 		.4byte	0x2b8
 6648 2311 02       		.uleb128 0x2
 6649 2312 91       		.byte	0x91
 6650 2313 48       		.sleb128 -56
 6651 2314 2C       		.uleb128 0x2c
 6652 2315 C10A0000 		.4byte	.LASF408
 6653 2319 01       		.byte	0x1
 6654 231a 0B01     		.2byte	0x10b
 6655 231c B8020000 		.4byte	0x2b8
 6656 2320 02       		.uleb128 0x2
 6657 2321 91       		.byte	0x91
 6658 2322 50       		.sleb128 -48
 6659 2323 2D       		.uleb128 0x2d
 6660 2324 290E0000 		.4byte	.LASF409
 6661 2328 01       		.byte	0x1
 6662 2329 0C01     		.2byte	0x10c
 6663 232b CA040000 		.4byte	0x4ca
 6664 232f 44100000 		.4byte	.LLST99
 6665 2333 47       		.uleb128 0x47
 6666 2334 AC150000 		.4byte	0x15ac
 6667 2338 52000000 		.4byte	.LBB147
 6668 233c 78000000 		.4byte	.Ldebug_ranges0+0x78
 6669 2340 01       		.byte	0x1
 6670 2341 FE       		.byte	0xfe
 6671 2342 8E230000 		.4byte	0x238e
 6672 2346 3D       		.uleb128 0x3d
 6673 2347 C3150000 		.4byte	0x15c3
 6674 234b 48       		.uleb128 0x48
 6675 234c B8150000 		.4byte	0x15b8
 6676 2350 01       		.uleb128 0x1
 6677 2351 52       		.byte	0x52
 6678 2352 49       		.uleb128 0x49
 6679 2353 66150000 		.4byte	0x1566
 6680 2357 52000000 		.4byte	.LBB148
 6681 235b 78000000 		.4byte	.Ldebug_ranges0+0x78
 6682 235f 03       		.byte	0x3
 6683 2360 66       		.byte	0x66
 6684 2361 30       		.uleb128 0x30
 6685 2362 8C150000 		.4byte	0x158c
 6686 2366 62100000 		.4byte	.LLST100
 6687 236a 3D       		.uleb128 0x3d
 6688 236b 81150000 		.4byte	0x1581
 6689 236f 3D       		.uleb128 0x3d
 6690 2370 76150000 		.4byte	0x1576
 6691 2374 39       		.uleb128 0x39
 6692 2375 78000000 		.4byte	.Ldebug_ranges0+0x78
 6693 2379 33       		.uleb128 0x33
 6694 237a 97150000 		.4byte	0x1597
 6695 237e 80100000 		.4byte	.LLST101
 6696 2382 33       		.uleb128 0x33
 6697 2383 A1150000 		.4byte	0x15a1
 6698 2387 9E100000 		.4byte	.LLST102
 6699 238b 00       		.byte	0
 6700 238c 00       		.byte	0
ARM GAS  C:\Users\strap\AppData\Local\Temp\ccUgAYbc.s 			page 154


 6701 238d 00       		.byte	0
 6702 238e 34       		.uleb128 0x34
 6703 238f 74000000 		.4byte	.LBB153
 6704 2393 5C000000 		.4byte	.LBE153-.LBB153
 6705 2397 0B240000 		.4byte	0x240b
 6706 239b 2E       		.uleb128 0x2e
 6707 239c 7700     		.ascii	"w\000"
 6708 239e 01       		.byte	0x1
 6709 239f 0001     		.2byte	0x100
 6710 23a1 D9000000 		.4byte	0xd9
 6711 23a5 D4100000 		.4byte	.LLST103
 6712 23a9 2E       		.uleb128 0x2e
 6713 23aa 6800     		.ascii	"h\000"
 6714 23ac 01       		.byte	0x1
 6715 23ad 0101     		.2byte	0x101
 6716 23af D9000000 		.4byte	0xd9
 6717 23b3 F8100000 		.4byte	.LLST104
 6718 23b7 2F       		.uleb128 0x2f
 6719 23b8 CF150000 		.4byte	0x15cf
 6720 23bc 74000000 		.4byte	.LBB154
 6721 23c0 0C000000 		.4byte	.LBE154-.LBB154
 6722 23c4 01       		.byte	0x1
 6723 23c5 0001     		.2byte	0x100
 6724 23c7 D5230000 		.4byte	0x23d5
 6725 23cb 30       		.uleb128 0x30
 6726 23cc DF150000 		.4byte	0x15df
 6727 23d0 1C110000 		.4byte	.LLST105
 6728 23d4 00       		.byte	0
 6729 23d5 2F       		.uleb128 0x2f
 6730 23d6 EB150000 		.4byte	0x15eb
 6731 23da 80000000 		.4byte	.LBB156
 6732 23de 0C000000 		.4byte	.LBE156-.LBB156
 6733 23e2 01       		.byte	0x1
 6734 23e3 0101     		.2byte	0x101
 6735 23e5 F3230000 		.4byte	0x23f3
 6736 23e9 30       		.uleb128 0x30
 6737 23ea FB150000 		.4byte	0x15fb
 6738 23ee 2F110000 		.4byte	.LLST106
 6739 23f2 00       		.byte	0
 6740 23f3 38       		.uleb128 0x38
 6741 23f4 A0000000 		.4byte	.LVL249
 6742 23f8 D4280000 		.4byte	0x28d4
 6743 23fc 37       		.uleb128 0x37
 6744 23fd 01       		.uleb128 0x1
 6745 23fe 50       		.byte	0x50
 6746 23ff 02       		.uleb128 0x2
 6747 2400 91       		.byte	0x91
 6748 2401 48       		.sleb128 -56
 6749 2402 37       		.uleb128 0x37
 6750 2403 02       		.uleb128 0x2
 6751 2404 7D       		.byte	0x7d
 6752 2405 04       		.sleb128 4
 6753 2406 02       		.uleb128 0x2
 6754 2407 74       		.byte	0x74
 6755 2408 04       		.sleb128 4
 6756 2409 00       		.byte	0
 6757 240a 00       		.byte	0
ARM GAS  C:\Users\strap\AppData\Local\Temp\ccUgAYbc.s 			page 155


 6758 240b 36       		.uleb128 0x36
 6759 240c DA000000 		.4byte	.LVL250
 6760 2410 E0280000 		.4byte	0x28e0
 6761 2414 2B240000 		.4byte	0x242b
 6762 2418 37       		.uleb128 0x37
 6763 2419 01       		.uleb128 0x1
 6764 241a 50       		.byte	0x50
 6765 241b 02       		.uleb128 0x2
 6766 241c 91       		.byte	0x91
 6767 241d 50       		.sleb128 -48
 6768 241e 37       		.uleb128 0x37
 6769 241f 01       		.uleb128 0x1
 6770 2420 51       		.byte	0x51
 6771 2421 02       		.uleb128 0x2
 6772 2422 76       		.byte	0x76
 6773 2423 00       		.sleb128 0
 6774 2424 37       		.uleb128 0x37
 6775 2425 01       		.uleb128 0x1
 6776 2426 52       		.byte	0x52
 6777 2427 02       		.uleb128 0x2
 6778 2428 91       		.byte	0x91
 6779 2429 48       		.sleb128 -56
 6780 242a 00       		.byte	0
 6781 242b 38       		.uleb128 0x38
 6782 242c F4000000 		.4byte	.LVL254
 6783 2430 37170000 		.4byte	0x1737
 6784 2434 37       		.uleb128 0x37
 6785 2435 01       		.uleb128 0x1
 6786 2436 50       		.byte	0x50
 6787 2437 02       		.uleb128 0x2
 6788 2438 75       		.byte	0x75
 6789 2439 00       		.sleb128 0
 6790 243a 37       		.uleb128 0x37
 6791 243b 01       		.uleb128 0x1
 6792 243c 51       		.byte	0x51
 6793 243d 02       		.uleb128 0x2
 6794 243e 91       		.byte	0x91
 6795 243f 50       		.sleb128 -48
 6796 2440 37       		.uleb128 0x37
 6797 2441 01       		.uleb128 0x1
 6798 2442 53       		.byte	0x53
 6799 2443 02       		.uleb128 0x2
 6800 2444 74       		.byte	0x74
 6801 2445 00       		.sleb128 0
 6802 2446 37       		.uleb128 0x37
 6803 2447 02       		.uleb128 0x2
 6804 2448 7D       		.byte	0x7d
 6805 2449 00       		.sleb128 0
 6806 244a 02       		.uleb128 0x2
 6807 244b 78       		.byte	0x78
 6808 244c 00       		.sleb128 0
 6809 244d 37       		.uleb128 0x37
 6810 244e 02       		.uleb128 0x2
 6811 244f 7D       		.byte	0x7d
 6812 2450 04       		.sleb128 4
 6813 2451 02       		.uleb128 0x2
 6814 2452 79       		.byte	0x79
ARM GAS  C:\Users\strap\AppData\Local\Temp\ccUgAYbc.s 			page 156


 6815 2453 00       		.sleb128 0
 6816 2454 00       		.byte	0
 6817 2455 00       		.byte	0
 6818 2456 35       		.uleb128 0x35
 6819 2457 90000000 		.4byte	.Ldebug_ranges0+0x90
 6820 245b 9D260000 		.4byte	0x269d
 6821 245f 2C       		.uleb128 0x2c
 6822 2460 C10A0000 		.4byte	.LASF408
 6823 2464 01       		.byte	0x1
 6824 2465 1701     		.2byte	0x117
 6825 2467 B8020000 		.4byte	0x2b8
 6826 246b 02       		.uleb128 0x2
 6827 246c 91       		.byte	0x91
 6828 246d 40       		.sleb128 -64
 6829 246e 2D       		.uleb128 0x2d
 6830 246f 290E0000 		.4byte	.LASF409
 6831 2473 01       		.byte	0x1
 6832 2474 1801     		.2byte	0x118
 6833 2476 CA040000 		.4byte	0x4ca
 6834 247a 42110000 		.4byte	.LLST107
 6835 247e 2D       		.uleb128 0x2d
 6836 247f 150C0000 		.4byte	.LASF410
 6837 2483 01       		.byte	0x1
 6838 2484 1F01     		.2byte	0x11f
 6839 2486 D9000000 		.4byte	0xd9
 6840 248a 6B110000 		.4byte	.LLST108
 6841 248e 2E       		.uleb128 0x2e
 6842 248f 62756600 		.ascii	"buf\000"
 6843 2493 01       		.byte	0x1
 6844 2494 2101     		.2byte	0x121
 6845 2496 8C070000 		.4byte	0x78c
 6846 249a 98110000 		.4byte	.LLST109
 6847 249e 2C       		.uleb128 0x2c
 6848 249f BC0A0000 		.4byte	.LASF411
 6849 24a3 01       		.byte	0x1
 6850 24a4 2401     		.2byte	0x124
 6851 24a6 B8020000 		.4byte	0x2b8
 6852 24aa 02       		.uleb128 0x2
 6853 24ab 91       		.byte	0x91
 6854 24ac 48       		.sleb128 -56
 6855 24ad 2E       		.uleb128 0x2e
 6856 24ae 7800     		.ascii	"x\000"
 6857 24b0 01       		.byte	0x1
 6858 24b1 2701     		.2byte	0x127
 6859 24b3 D9000000 		.4byte	0xd9
 6860 24b7 B8110000 		.4byte	.LLST110
 6861 24bb 2E       		.uleb128 0x2e
 6862 24bc 7900     		.ascii	"y\000"
 6863 24be 01       		.byte	0x1
 6864 24bf 2801     		.2byte	0x128
 6865 24c1 D9000000 		.4byte	0xd9
 6866 24c5 F0110000 		.4byte	.LLST111
 6867 24c9 2E       		.uleb128 0x2e
 6868 24ca 726F7700 		.ascii	"row\000"
 6869 24ce 01       		.byte	0x1
 6870 24cf 2901     		.2byte	0x129
 6871 24d1 D9000000 		.4byte	0xd9
ARM GAS  C:\Users\strap\AppData\Local\Temp\ccUgAYbc.s 			page 157


 6872 24d5 03120000 		.4byte	.LLST112
 6873 24d9 2D       		.uleb128 0x2d
 6874 24da DD020000 		.4byte	.LASF412
 6875 24de 01       		.byte	0x1
 6876 24df 2A01     		.2byte	0x12a
 6877 24e1 50020000 		.4byte	0x250
 6878 24e5 16120000 		.4byte	.LLST113
 6879 24e9 2F       		.uleb128 0x2f
 6880 24ea CF150000 		.4byte	0x15cf
 6881 24ee 06010000 		.4byte	.LBB160
 6882 24f2 14000000 		.4byte	.LBE160-.LBB160
 6883 24f6 01       		.byte	0x1
 6884 24f7 1F01     		.2byte	0x11f
 6885 24f9 07250000 		.4byte	0x2507
 6886 24fd 30       		.uleb128 0x30
 6887 24fe DF150000 		.4byte	0x15df
 6888 2502 34120000 		.4byte	.LLST114
 6889 2506 00       		.byte	0
 6890 2507 3B       		.uleb128 0x3b
 6891 2508 AC150000 		.4byte	0x15ac
 6892 250c 24010000 		.4byte	.LBB162
 6893 2510 A8000000 		.4byte	.Ldebug_ranges0+0xa8
 6894 2514 01       		.byte	0x1
 6895 2515 2501     		.2byte	0x125
 6896 2517 69250000 		.4byte	0x2569
 6897 251b 30       		.uleb128 0x30
 6898 251c C3150000 		.4byte	0x15c3
 6899 2520 49120000 		.4byte	.LLST115
 6900 2524 30       		.uleb128 0x30
 6901 2525 B8150000 		.4byte	0x15b8
 6902 2529 5E120000 		.4byte	.LLST116
 6903 252d 49       		.uleb128 0x49
 6904 252e 66150000 		.4byte	0x1566
 6905 2532 24010000 		.4byte	.LBB163
 6906 2536 A8000000 		.4byte	.Ldebug_ranges0+0xa8
 6907 253a 03       		.byte	0x3
 6908 253b 66       		.byte	0x66
 6909 253c 30       		.uleb128 0x30
 6910 253d 8C150000 		.4byte	0x158c
 6911 2541 8B120000 		.4byte	.LLST117
 6912 2545 3D       		.uleb128 0x3d
 6913 2546 81150000 		.4byte	0x1581
 6914 254a 3D       		.uleb128 0x3d
 6915 254b 76150000 		.4byte	0x1576
 6916 254f 39       		.uleb128 0x39
 6917 2550 A8000000 		.4byte	.Ldebug_ranges0+0xa8
 6918 2554 33       		.uleb128 0x33
 6919 2555 97150000 		.4byte	0x1597
 6920 2559 9E120000 		.4byte	.LLST118
 6921 255d 33       		.uleb128 0x33
 6922 255e A1150000 		.4byte	0x15a1
 6923 2562 B1120000 		.4byte	.LLST119
 6924 2566 00       		.byte	0
 6925 2567 00       		.byte	0
 6926 2568 00       		.byte	0
 6927 2569 34       		.uleb128 0x34
 6928 256a 60010000 		.4byte	.LBB168
ARM GAS  C:\Users\strap\AppData\Local\Temp\ccUgAYbc.s 			page 158


 6929 256e 5C000000 		.4byte	.LBE168-.LBB168
 6930 2572 39260000 		.4byte	0x2639
 6931 2576 2C       		.uleb128 0x2c
 6932 2577 120E0000 		.4byte	.LASF413
 6933 257b 01       		.byte	0x1
 6934 257c 2C01     		.2byte	0x12c
 6935 257e B8020000 		.4byte	0x2b8
 6936 2582 02       		.uleb128 0x2
 6937 2583 91       		.byte	0x91
 6938 2584 50       		.sleb128 -48
 6939 2585 36       		.uleb128 0x36
 6940 2586 6A010000 		.4byte	.LVL277
 6941 258a E0280000 		.4byte	0x28e0
 6942 258e A5250000 		.4byte	0x25a5
 6943 2592 37       		.uleb128 0x37
 6944 2593 01       		.uleb128 0x1
 6945 2594 50       		.byte	0x50
 6946 2595 02       		.uleb128 0x2
 6947 2596 91       		.byte	0x91
 6948 2597 50       		.sleb128 -48
 6949 2598 37       		.uleb128 0x37
 6950 2599 01       		.uleb128 0x1
 6951 259a 51       		.byte	0x51
 6952 259b 02       		.uleb128 0x2
 6953 259c 76       		.byte	0x76
 6954 259d 00       		.sleb128 0
 6955 259e 37       		.uleb128 0x37
 6956 259f 01       		.uleb128 0x1
 6957 25a0 52       		.byte	0x52
 6958 25a1 02       		.uleb128 0x2
 6959 25a2 91       		.byte	0x91
 6960 25a3 48       		.sleb128 -56
 6961 25a4 00       		.byte	0
 6962 25a5 36       		.uleb128 0x36
 6963 25a6 80010000 		.4byte	.LVL279
 6964 25aa EB280000 		.4byte	0x28eb
 6965 25ae DA250000 		.4byte	0x25da
 6966 25b2 37       		.uleb128 0x37
 6967 25b3 01       		.uleb128 0x1
 6968 25b4 50       		.byte	0x50
 6969 25b5 04       		.uleb128 0x4
 6970 25b6 91       		.byte	0x91
 6971 25b7 B07F     		.sleb128 -80
 6972 25b9 06       		.byte	0x6
 6973 25ba 37       		.uleb128 0x37
 6974 25bb 01       		.uleb128 0x1
 6975 25bc 51       		.byte	0x51
 6976 25bd 05       		.uleb128 0x5
 6977 25be 78       		.byte	0x78
 6978 25bf 00       		.sleb128 0
 6979 25c0 7B       		.byte	0x7b
 6980 25c1 00       		.sleb128 0
 6981 25c2 1C       		.byte	0x1c
 6982 25c3 37       		.uleb128 0x37
 6983 25c4 01       		.uleb128 0x1
 6984 25c5 52       		.byte	0x52
 6985 25c6 02       		.uleb128 0x2
ARM GAS  C:\Users\strap\AppData\Local\Temp\ccUgAYbc.s 			page 159


 6986 25c7 75       		.byte	0x75
 6987 25c8 00       		.sleb128 0
 6988 25c9 37       		.uleb128 0x37
 6989 25ca 01       		.uleb128 0x1
 6990 25cb 53       		.byte	0x53
 6991 25cc 05       		.uleb128 0x5
 6992 25cd 91       		.byte	0x91
 6993 25ce AC7F     		.sleb128 -84
 6994 25d0 94       		.byte	0x94
 6995 25d1 02       		.byte	0x2
 6996 25d2 37       		.uleb128 0x37
 6997 25d3 02       		.uleb128 0x2
 6998 25d4 7D       		.byte	0x7d
 6999 25d5 00       		.sleb128 0
 7000 25d6 02       		.uleb128 0x2
 7001 25d7 77       		.byte	0x77
 7002 25d8 00       		.sleb128 0
 7003 25d9 00       		.byte	0
 7004 25da 36       		.uleb128 0x36
 7005 25db 8A010000 		.4byte	.LVL281
 7006 25df F6280000 		.4byte	0x28f6
 7007 25e3 F0250000 		.4byte	0x25f0
 7008 25e7 37       		.uleb128 0x37
 7009 25e8 01       		.uleb128 0x1
 7010 25e9 50       		.byte	0x50
 7011 25ea 04       		.uleb128 0x4
 7012 25eb 91       		.byte	0x91
 7013 25ec B47F     		.sleb128 -76
 7014 25ee 06       		.byte	0x6
 7015 25ef 00       		.byte	0
 7016 25f0 36       		.uleb128 0x36
 7017 25f1 90010000 		.4byte	.LVL282
 7018 25f5 2C280000 		.4byte	0x282c
 7019 25f9 06260000 		.4byte	0x2606
 7020 25fd 37       		.uleb128 0x37
 7021 25fe 01       		.uleb128 0x1
 7022 25ff 50       		.byte	0x50
 7023 2600 04       		.uleb128 0x4
 7024 2601 91       		.byte	0x91
 7025 2602 BC7F     		.sleb128 -68
 7026 2604 06       		.byte	0x6
 7027 2605 00       		.byte	0
 7028 2606 38       		.uleb128 0x38
 7029 2607 A6010000 		.4byte	.LVL285
 7030 260b 37170000 		.4byte	0x1737
 7031 260f 37       		.uleb128 0x37
 7032 2610 01       		.uleb128 0x1
 7033 2611 50       		.byte	0x50
 7034 2612 02       		.uleb128 0x2
 7035 2613 91       		.byte	0x91
 7036 2614 48       		.sleb128 -56
 7037 2615 37       		.uleb128 0x37
 7038 2616 01       		.uleb128 0x1
 7039 2617 51       		.byte	0x51
 7040 2618 02       		.uleb128 0x2
 7041 2619 91       		.byte	0x91
 7042 261a 50       		.sleb128 -48
ARM GAS  C:\Users\strap\AppData\Local\Temp\ccUgAYbc.s 			page 160


 7043 261b 37       		.uleb128 0x37
 7044 261c 01       		.uleb128 0x1
 7045 261d 52       		.byte	0x52
 7046 261e 02       		.uleb128 0x2
 7047 261f 77       		.byte	0x77
 7048 2620 00       		.sleb128 0
 7049 2621 37       		.uleb128 0x37
 7050 2622 01       		.uleb128 0x1
 7051 2623 53       		.byte	0x53
 7052 2624 04       		.uleb128 0x4
 7053 2625 91       		.byte	0x91
 7054 2626 B87F     		.sleb128 -72
 7055 2628 06       		.byte	0x6
 7056 2629 37       		.uleb128 0x37
 7057 262a 02       		.uleb128 0x2
 7058 262b 7D       		.byte	0x7d
 7059 262c 00       		.sleb128 0
 7060 262d 02       		.uleb128 0x2
 7061 262e 74       		.byte	0x74
 7062 262f 00       		.sleb128 0
 7063 2630 37       		.uleb128 0x37
 7064 2631 02       		.uleb128 0x2
 7065 2632 7D       		.byte	0x7d
 7066 2633 04       		.sleb128 4
 7067 2634 02       		.uleb128 0x2
 7068 2635 79       		.byte	0x79
 7069 2636 00       		.sleb128 0
 7070 2637 00       		.byte	0
 7071 2638 00       		.byte	0
 7072 2639 36       		.uleb128 0x36
 7073 263a 02010000 		.4byte	.LVL255
 7074 263e E0280000 		.4byte	0x28e0
 7075 2642 59260000 		.4byte	0x2659
 7076 2646 37       		.uleb128 0x37
 7077 2647 01       		.uleb128 0x1
 7078 2648 50       		.byte	0x50
 7079 2649 02       		.uleb128 0x2
 7080 264a 91       		.byte	0x91
 7081 264b 40       		.sleb128 -64
 7082 264c 37       		.uleb128 0x37
 7083 264d 01       		.uleb128 0x1
 7084 264e 51       		.byte	0x51
 7085 264f 02       		.uleb128 0x2
 7086 2650 76       		.byte	0x76
 7087 2651 00       		.sleb128 0
 7088 2652 37       		.uleb128 0x37
 7089 2653 01       		.uleb128 0x1
 7090 2654 52       		.byte	0x52
 7091 2655 02       		.uleb128 0x2
 7092 2656 75       		.byte	0x75
 7093 2657 00       		.sleb128 0
 7094 2658 00       		.byte	0
 7095 2659 36       		.uleb128 0x36
 7096 265a 22010000 		.4byte	.LVL259
 7097 265e 16280000 		.4byte	0x2816
 7098 2662 71260000 		.4byte	0x2671
 7099 2666 37       		.uleb128 0x37
ARM GAS  C:\Users\strap\AppData\Local\Temp\ccUgAYbc.s 			page 161


 7100 2667 01       		.uleb128 0x1
 7101 2668 50       		.byte	0x50
 7102 2669 06       		.uleb128 0x6
 7103 266a 91       		.byte	0x91
 7104 266b AC7F     		.sleb128 -84
 7105 266d 06       		.byte	0x6
 7106 266e 33       		.byte	0x33
 7107 266f 1E       		.byte	0x1e
 7108 2670 00       		.byte	0
 7109 2671 36       		.uleb128 0x36
 7110 2672 40010000 		.4byte	.LVL268
 7111 2676 01290000 		.4byte	0x2901
 7112 267a 8A260000 		.4byte	0x268a
 7113 267e 37       		.uleb128 0x37
 7114 267f 01       		.uleb128 0x1
 7115 2680 50       		.byte	0x50
 7116 2681 02       		.uleb128 0x2
 7117 2682 91       		.byte	0x91
 7118 2683 48       		.sleb128 -56
 7119 2684 37       		.uleb128 0x37
 7120 2685 01       		.uleb128 0x1
 7121 2686 51       		.byte	0x51
 7122 2687 01       		.uleb128 0x1
 7123 2688 31       		.byte	0x31
 7124 2689 00       		.byte	0
 7125 268a 38       		.uleb128 0x38
 7126 268b CE010000 		.4byte	.LVL288
 7127 268f 2C280000 		.4byte	0x282c
 7128 2693 37       		.uleb128 0x37
 7129 2694 01       		.uleb128 0x1
 7130 2695 50       		.byte	0x50
 7131 2696 04       		.uleb128 0x4
 7132 2697 91       		.byte	0x91
 7133 2698 BC7F     		.sleb128 -68
 7134 269a 06       		.byte	0x6
 7135 269b 00       		.byte	0
 7136 269c 00       		.byte	0
 7137 269d 36       		.uleb128 0x36
 7138 269e 1C000000 		.4byte	.LVL228
 7139 26a2 0C290000 		.4byte	0x290c
 7140 26a6 B2260000 		.4byte	0x26b2
 7141 26aa 37       		.uleb128 0x37
 7142 26ab 01       		.uleb128 0x1
 7143 26ac 50       		.byte	0x50
 7144 26ad 03       		.uleb128 0x3
 7145 26ae F3       		.byte	0xf3
 7146 26af 01       		.uleb128 0x1
 7147 26b0 52       		.byte	0x52
 7148 26b1 00       		.byte	0
 7149 26b2 36       		.uleb128 0x36
 7150 26b3 32000000 		.4byte	.LVL230
 7151 26b7 0D220000 		.4byte	0x220d
 7152 26bb C6260000 		.4byte	0x26c6
 7153 26bf 37       		.uleb128 0x37
 7154 26c0 01       		.uleb128 0x1
 7155 26c1 50       		.byte	0x50
 7156 26c2 02       		.uleb128 0x2
ARM GAS  C:\Users\strap\AppData\Local\Temp\ccUgAYbc.s 			page 162


 7157 26c3 79       		.byte	0x79
 7158 26c4 00       		.sleb128 0
 7159 26c5 00       		.byte	0
 7160 26c6 36       		.uleb128 0x36
 7161 26c7 3A000000 		.4byte	.LVL232
 7162 26cb 44220000 		.4byte	0x2244
 7163 26cf DA260000 		.4byte	0x26da
 7164 26d3 37       		.uleb128 0x37
 7165 26d4 01       		.uleb128 0x1
 7166 26d5 50       		.byte	0x50
 7167 26d6 02       		.uleb128 0x2
 7168 26d7 79       		.byte	0x79
 7169 26d8 00       		.sleb128 0
 7170 26d9 00       		.byte	0
 7171 26da 38       		.uleb128 0x38
 7172 26db 48000000 		.4byte	.LVL234
 7173 26df BB200000 		.4byte	0x20bb
 7174 26e3 37       		.uleb128 0x37
 7175 26e4 01       		.uleb128 0x1
 7176 26e5 50       		.byte	0x50
 7177 26e6 02       		.uleb128 0x2
 7178 26e7 75       		.byte	0x75
 7179 26e8 00       		.sleb128 0
 7180 26e9 37       		.uleb128 0x37
 7181 26ea 01       		.uleb128 0x1
 7182 26eb 51       		.byte	0x51
 7183 26ec 02       		.uleb128 0x2
 7184 26ed 76       		.byte	0x76
 7185 26ee 00       		.sleb128 0
 7186 26ef 00       		.byte	0
 7187 26f0 00       		.byte	0
 7188 26f1 0F       		.uleb128 0xf
 7189 26f2 04       		.byte	0x4
 7190 26f3 CB0B0000 		.4byte	0xbcb
 7191 26f7 40       		.uleb128 0x40
 7192 26f8 550B0000 		.4byte	.LASF415
 7193 26fc 01       		.byte	0x1
 7194 26fd 49       		.byte	0x49
 7195 26fe 00000000 		.4byte	.LFB329
 7196 2702 34000000 		.4byte	.LFE329-.LFB329
 7197 2706 01       		.uleb128 0x1
 7198 2707 9C       		.byte	0x9c
 7199 2708 BC270000 		.4byte	0x27bc
 7200 270c 45       		.uleb128 0x45
 7201 270d F7130000 		.4byte	.LASF236
 7202 2711 01       		.byte	0x1
 7203 2712 49       		.byte	0x49
 7204 2713 82100000 		.4byte	0x1082
 7205 2717 DC120000 		.4byte	.LLST120
 7206 271b 45       		.uleb128 0x45
 7207 271c 4D0C0000 		.4byte	.LASF416
 7208 2720 01       		.byte	0x1
 7209 2721 49       		.byte	0x49
 7210 2722 82100000 		.4byte	0x1082
 7211 2726 1E130000 		.4byte	.LLST121
 7212 272a 41       		.uleb128 0x41
 7213 272b 73726300 		.ascii	"src\000"
ARM GAS  C:\Users\strap\AppData\Local\Temp\ccUgAYbc.s 			page 163


 7214 272f 01       		.byte	0x1
 7215 2730 49       		.byte	0x49
 7216 2731 C3040000 		.4byte	0x4c3
 7217 2735 60130000 		.4byte	.LLST122
 7218 2739 41       		.uleb128 0x41
 7219 273a 64736300 		.ascii	"dsc\000"
 7220 273e 01       		.byte	0x1
 7221 273f 49       		.byte	0x49
 7222 2740 9A200000 		.4byte	0x209a
 7223 2744 B0130000 		.4byte	.LLST123
 7224 2748 4A       		.uleb128 0x4a
 7225 2749 72657300 		.ascii	"res\000"
 7226 274d 01       		.byte	0x1
 7227 274e 53       		.byte	0x53
 7228 274f 50020000 		.4byte	0x250
 7229 2753 EA130000 		.4byte	.LLST124
 7230 2757 36       		.uleb128 0x36
 7231 2758 0E000000 		.4byte	.LVL297
 7232 275c BB200000 		.4byte	0x20bb
 7233 2760 7A270000 		.4byte	0x277a
 7234 2764 37       		.uleb128 0x37
 7235 2765 01       		.uleb128 0x1
 7236 2766 50       		.byte	0x50
 7237 2767 02       		.uleb128 0x2
 7238 2768 74       		.byte	0x74
 7239 2769 00       		.sleb128 0
 7240 276a 37       		.uleb128 0x37
 7241 276b 01       		.uleb128 0x1
 7242 276c 51       		.byte	0x51
 7243 276d 02       		.uleb128 0x2
 7244 276e 75       		.byte	0x75
 7245 276f 00       		.sleb128 0
 7246 2770 37       		.uleb128 0x37
 7247 2771 01       		.uleb128 0x1
 7248 2772 52       		.byte	0x52
 7249 2773 05       		.uleb128 0x5
 7250 2774 03       		.byte	0x3
 7251 2775 00000000 		.4byte	.LC2
 7252 2779 00       		.byte	0
 7253 277a 36       		.uleb128 0x36
 7254 277b 20000000 		.4byte	.LVL302
 7255 277f 7B220000 		.4byte	0x227b
 7256 2783 9C270000 		.4byte	0x279c
 7257 2787 37       		.uleb128 0x37
 7258 2788 01       		.uleb128 0x1
 7259 2789 51       		.byte	0x51
 7260 278a 02       		.uleb128 0x2
 7261 278b 75       		.byte	0x75
 7262 278c 00       		.sleb128 0
 7263 278d 37       		.uleb128 0x37
 7264 278e 01       		.uleb128 0x1
 7265 278f 52       		.byte	0x52
 7266 2790 03       		.uleb128 0x3
 7267 2791 F3       		.byte	0xf3
 7268 2792 01       		.uleb128 0x1
 7269 2793 52       		.byte	0x52
 7270 2794 37       		.uleb128 0x37
ARM GAS  C:\Users\strap\AppData\Local\Temp\ccUgAYbc.s 			page 164


 7271 2795 01       		.uleb128 0x1
 7272 2796 53       		.byte	0x53
 7273 2797 03       		.uleb128 0x3
 7274 2798 F3       		.byte	0xf3
 7275 2799 01       		.uleb128 0x1
 7276 279a 53       		.byte	0x53
 7277 279b 00       		.byte	0
 7278 279c 38       		.uleb128 0x38
 7279 279d 2C000000 		.4byte	.LVL304
 7280 27a1 BB200000 		.4byte	0x20bb
 7281 27a5 37       		.uleb128 0x37
 7282 27a6 01       		.uleb128 0x1
 7283 27a7 50       		.byte	0x50
 7284 27a8 02       		.uleb128 0x2
 7285 27a9 74       		.byte	0x74
 7286 27aa 00       		.sleb128 0
 7287 27ab 37       		.uleb128 0x37
 7288 27ac 01       		.uleb128 0x1
 7289 27ad 51       		.byte	0x51
 7290 27ae 02       		.uleb128 0x2
 7291 27af 75       		.byte	0x75
 7292 27b0 00       		.sleb128 0
 7293 27b1 37       		.uleb128 0x37
 7294 27b2 01       		.uleb128 0x1
 7295 27b3 52       		.byte	0x52
 7296 27b4 05       		.uleb128 0x5
 7297 27b5 03       		.byte	0x3
 7298 27b6 00000000 		.4byte	.LC2
 7299 27ba 00       		.byte	0
 7300 27bb 00       		.byte	0
 7301 27bc 42       		.uleb128 0x42
 7302 27bd 9F170000 		.4byte	.LASF417
 7303 27c1 01       		.byte	0x1
 7304 27c2 CB       		.byte	0xcb
 7305 27c3 8F090000 		.4byte	0x98f
 7306 27c7 00000000 		.4byte	.LFB333
 7307 27cb 24000000 		.4byte	.LFE333-.LFB333
 7308 27cf 01       		.uleb128 0x1
 7309 27d0 9C       		.byte	0x9c
 7310 27d1 00280000 		.4byte	0x2800
 7311 27d5 41       		.uleb128 0x41
 7312 27d6 73726300 		.ascii	"src\000"
 7313 27da 01       		.byte	0x1
 7314 27db CB       		.byte	0xcb
 7315 27dc C3040000 		.4byte	0x4c3
 7316 27e0 FD130000 		.4byte	.LLST125
 7317 27e4 4B       		.uleb128 0x4b
 7318 27e5 43010000 		.4byte	.LASF418
 7319 27e9 01       		.byte	0x1
 7320 27ea CD       		.byte	0xcd
 7321 27eb 8F090000 		.4byte	0x98f
 7322 27ef 03       		.byte	0x3
 7323 27f0 43       		.uleb128 0x43
 7324 27f1 81160000 		.4byte	.LASF419
 7325 27f5 01       		.byte	0x1
 7326 27f6 D0       		.byte	0xd0
 7327 27f7 2D040000 		.4byte	0x42d
ARM GAS  C:\Users\strap\AppData\Local\Temp\ccUgAYbc.s 			page 165


 7328 27fb 69140000 		.4byte	.LLST126
 7329 27ff 00       		.byte	0
 7330 2800 4C       		.uleb128 0x4c
 7331 2801 6F040000 		.4byte	.LASF420
 7332 2805 6F040000 		.4byte	.LASF420
 7333 2809 15       		.byte	0x15
 7334 280a FC       		.byte	0xfc
 7335 280b 4C       		.uleb128 0x4c
 7336 280c 35060000 		.4byte	.LASF421
 7337 2810 35060000 		.4byte	.LASF421
 7338 2814 03       		.byte	0x3
 7339 2815 98       		.byte	0x98
 7340 2816 4C       		.uleb128 0x4c
 7341 2817 840B0000 		.4byte	.LASF422
 7342 281b 840B0000 		.4byte	.LASF422
 7343 281f 02       		.byte	0x2
 7344 2820 80       		.byte	0x80
 7345 2821 4C       		.uleb128 0x4c
 7346 2822 AF0B0000 		.4byte	.LASF423
 7347 2826 AF0B0000 		.4byte	.LASF423
 7348 282a 0D       		.byte	0xd
 7349 282b 2E       		.byte	0x2e
 7350 282c 4C       		.uleb128 0x4c
 7351 282d F10C0000 		.4byte	.LASF424
 7352 2831 F10C0000 		.4byte	.LASF424
 7353 2835 02       		.byte	0x2
 7354 2836 86       		.byte	0x86
 7355 2837 4D       		.uleb128 0x4d
 7356 2838 55140000 		.4byte	.LASF425
 7357 283c 55140000 		.4byte	.LASF425
 7358 2840 05       		.byte	0x5
 7359 2841 1601     		.2byte	0x116
 7360 2843 4C       		.uleb128 0x4c
 7361 2844 40090000 		.4byte	.LASF426
 7362 2848 40090000 		.4byte	.LASF426
 7363 284c 05       		.byte	0x5
 7364 284d D5       		.byte	0xd5
 7365 284e 4C       		.uleb128 0x4c
 7366 284f 65120000 		.4byte	.LASF427
 7367 2853 65120000 		.4byte	.LASF427
 7368 2857 05       		.byte	0x5
 7369 2858 DF       		.byte	0xdf
 7370 2859 4D       		.uleb128 0x4d
 7371 285a A7100000 		.4byte	.LASF428
 7372 285e A7100000 		.4byte	.LASF428
 7373 2862 05       		.byte	0x5
 7374 2863 1C01     		.2byte	0x11c
 7375 2865 4C       		.uleb128 0x4c
 7376 2866 DB150000 		.4byte	.LASF429
 7377 286a DB150000 		.4byte	.LASF429
 7378 286e 0C       		.byte	0xc
 7379 286f C6       		.byte	0xc6
 7380 2870 4C       		.uleb128 0x4c
 7381 2871 46060000 		.4byte	.LASF430
 7382 2875 46060000 		.4byte	.LASF430
 7383 2879 02       		.byte	0x2
 7384 287a F2       		.byte	0xf2
ARM GAS  C:\Users\strap\AppData\Local\Temp\ccUgAYbc.s 			page 166


 7385 287b 4C       		.uleb128 0x4c
 7386 287c 50010000 		.4byte	.LASF431
 7387 2880 50010000 		.4byte	.LASF431
 7388 2884 02       		.byte	0x2
 7389 2885 F9       		.byte	0xf9
 7390 2886 4C       		.uleb128 0x4c
 7391 2887 55150000 		.4byte	.LASF432
 7392 288b 55150000 		.4byte	.LASF432
 7393 288f 1B       		.byte	0x1b
 7394 2890 47       		.byte	0x47
 7395 2891 4D       		.uleb128 0x4d
 7396 2892 9C150000 		.4byte	.LASF433
 7397 2896 9C150000 		.4byte	.LASF433
 7398 289a 15       		.byte	0x15
 7399 289b 3801     		.2byte	0x138
 7400 289d 4C       		.uleb128 0x4c
 7401 289e DF140000 		.4byte	.LASF434
 7402 28a2 DF140000 		.4byte	.LASF434
 7403 28a6 0C       		.byte	0xc
 7404 28a7 E2       		.byte	0xe2
 7405 28a8 4C       		.uleb128 0x4c
 7406 28a9 2A090000 		.4byte	.LASF435
 7407 28ad 2A090000 		.4byte	.LASF435
 7408 28b1 17       		.byte	0x17
 7409 28b2 58       		.byte	0x58
 7410 28b3 4C       		.uleb128 0x4c
 7411 28b4 8D100000 		.4byte	.LASF436
 7412 28b8 8D100000 		.4byte	.LASF436
 7413 28bc 17       		.byte	0x17
 7414 28bd 62       		.byte	0x62
 7415 28be 4C       		.uleb128 0x4c
 7416 28bf 80080000 		.4byte	.LASF437
 7417 28c3 80080000 		.4byte	.LASF437
 7418 28c7 1A       		.byte	0x1a
 7419 28c8 46       		.byte	0x46
 7420 28c9 4C       		.uleb128 0x4c
 7421 28ca 2E0B0000 		.4byte	.LASF438
 7422 28ce 2E0B0000 		.4byte	.LASF438
 7423 28d2 1A       		.byte	0x1a
 7424 28d3 51       		.byte	0x51
 7425 28d4 4D       		.uleb128 0x4d
 7426 28d5 6E0A0000 		.4byte	.LASF439
 7427 28d9 6E0A0000 		.4byte	.LASF439
 7428 28dd 05       		.byte	0x5
 7429 28de 8101     		.2byte	0x181
 7430 28e0 4C       		.uleb128 0x4c
 7431 28e1 B5140000 		.4byte	.LASF440
 7432 28e5 B5140000 		.4byte	.LASF440
 7433 28e9 03       		.byte	0x3
 7434 28ea A1       		.byte	0xa1
 7435 28eb 4C       		.uleb128 0x4c
 7436 28ec 5F0C0000 		.4byte	.LASF441
 7437 28f0 5F0C0000 		.4byte	.LASF441
 7438 28f4 0F       		.byte	0xf
 7439 28f5 AF       		.byte	0xaf
 7440 28f6 4C       		.uleb128 0x4c
 7441 28f7 01070000 		.4byte	.LASF442
ARM GAS  C:\Users\strap\AppData\Local\Temp\ccUgAYbc.s 			page 167


 7442 28fb 01070000 		.4byte	.LASF442
 7443 28ff 0F       		.byte	0xf
 7444 2900 B6       		.byte	0xb6
 7445 2901 4C       		.uleb128 0x4c
 7446 2902 A9050000 		.4byte	.LASF443
 7447 2906 A9050000 		.4byte	.LASF443
 7448 290a 03       		.byte	0x3
 7449 290b 89       		.byte	0x89
 7450 290c 4C       		.uleb128 0x4c
 7451 290d BC040000 		.4byte	.LASF444
 7452 2911 BC040000 		.4byte	.LASF444
 7453 2915 11       		.byte	0x11
 7454 2916 34       		.byte	0x34
 7455 2917 00       		.byte	0
 7456              		.section	.debug_abbrev,"",%progbits
 7457              	.Ldebug_abbrev0:
 7458 0000 01       		.uleb128 0x1
 7459 0001 11       		.uleb128 0x11
 7460 0002 01       		.byte	0x1
 7461 0003 25       		.uleb128 0x25
 7462 0004 0E       		.uleb128 0xe
 7463 0005 13       		.uleb128 0x13
 7464 0006 0B       		.uleb128 0xb
 7465 0007 03       		.uleb128 0x3
 7466 0008 0E       		.uleb128 0xe
 7467 0009 1B       		.uleb128 0x1b
 7468 000a 0E       		.uleb128 0xe
 7469 000b 55       		.uleb128 0x55
 7470 000c 17       		.uleb128 0x17
 7471 000d 11       		.uleb128 0x11
 7472 000e 01       		.uleb128 0x1
 7473 000f 10       		.uleb128 0x10
 7474 0010 17       		.uleb128 0x17
 7475 0011 00       		.byte	0
 7476 0012 00       		.byte	0
 7477 0013 02       		.uleb128 0x2
 7478 0014 16       		.uleb128 0x16
 7479 0015 00       		.byte	0
 7480 0016 03       		.uleb128 0x3
 7481 0017 0E       		.uleb128 0xe
 7482 0018 3A       		.uleb128 0x3a
 7483 0019 0B       		.uleb128 0xb
 7484 001a 3B       		.uleb128 0x3b
 7485 001b 0B       		.uleb128 0xb
 7486 001c 49       		.uleb128 0x49
 7487 001d 13       		.uleb128 0x13
 7488 001e 00       		.byte	0
 7489 001f 00       		.byte	0
 7490 0020 03       		.uleb128 0x3
 7491 0021 24       		.uleb128 0x24
 7492 0022 00       		.byte	0
 7493 0023 0B       		.uleb128 0xb
 7494 0024 0B       		.uleb128 0xb
 7495 0025 3E       		.uleb128 0x3e
 7496 0026 0B       		.uleb128 0xb
 7497 0027 03       		.uleb128 0x3
 7498 0028 0E       		.uleb128 0xe
ARM GAS  C:\Users\strap\AppData\Local\Temp\ccUgAYbc.s 			page 168


 7499 0029 00       		.byte	0
 7500 002a 00       		.byte	0
 7501 002b 04       		.uleb128 0x4
 7502 002c 24       		.uleb128 0x24
 7503 002d 00       		.byte	0
 7504 002e 0B       		.uleb128 0xb
 7505 002f 0B       		.uleb128 0xb
 7506 0030 3E       		.uleb128 0x3e
 7507 0031 0B       		.uleb128 0xb
 7508 0032 03       		.uleb128 0x3
 7509 0033 08       		.uleb128 0x8
 7510 0034 00       		.byte	0
 7511 0035 00       		.byte	0
 7512 0036 05       		.uleb128 0x5
 7513 0037 0F       		.uleb128 0xf
 7514 0038 00       		.byte	0
 7515 0039 0B       		.uleb128 0xb
 7516 003a 0B       		.uleb128 0xb
 7517 003b 00       		.byte	0
 7518 003c 00       		.byte	0
 7519 003d 06       		.uleb128 0x6
 7520 003e 16       		.uleb128 0x16
 7521 003f 00       		.byte	0
 7522 0040 03       		.uleb128 0x3
 7523 0041 0E       		.uleb128 0xe
 7524 0042 3A       		.uleb128 0x3a
 7525 0043 0B       		.uleb128 0xb
 7526 0044 3B       		.uleb128 0x3b
 7527 0045 05       		.uleb128 0x5
 7528 0046 49       		.uleb128 0x49
 7529 0047 13       		.uleb128 0x13
 7530 0048 00       		.byte	0
 7531 0049 00       		.byte	0
 7532 004a 07       		.uleb128 0x7
 7533 004b 04       		.uleb128 0x4
 7534 004c 01       		.byte	0x1
 7535 004d 0B       		.uleb128 0xb
 7536 004e 0B       		.uleb128 0xb
 7537 004f 49       		.uleb128 0x49
 7538 0050 13       		.uleb128 0x13
 7539 0051 3A       		.uleb128 0x3a
 7540 0052 0B       		.uleb128 0xb
 7541 0053 3B       		.uleb128 0x3b
 7542 0054 0B       		.uleb128 0xb
 7543 0055 01       		.uleb128 0x1
 7544 0056 13       		.uleb128 0x13
 7545 0057 00       		.byte	0
 7546 0058 00       		.byte	0
 7547 0059 08       		.uleb128 0x8
 7548 005a 28       		.uleb128 0x28
 7549 005b 00       		.byte	0
 7550 005c 03       		.uleb128 0x3
 7551 005d 0E       		.uleb128 0xe
 7552 005e 1C       		.uleb128 0x1c
 7553 005f 0B       		.uleb128 0xb
 7554 0060 00       		.byte	0
 7555 0061 00       		.byte	0
ARM GAS  C:\Users\strap\AppData\Local\Temp\ccUgAYbc.s 			page 169


 7556 0062 09       		.uleb128 0x9
 7557 0063 13       		.uleb128 0x13
 7558 0064 01       		.byte	0x1
 7559 0065 0B       		.uleb128 0xb
 7560 0066 0B       		.uleb128 0xb
 7561 0067 3A       		.uleb128 0x3a
 7562 0068 0B       		.uleb128 0xb
 7563 0069 3B       		.uleb128 0x3b
 7564 006a 0B       		.uleb128 0xb
 7565 006b 01       		.uleb128 0x1
 7566 006c 13       		.uleb128 0x13
 7567 006d 00       		.byte	0
 7568 006e 00       		.byte	0
 7569 006f 0A       		.uleb128 0xa
 7570 0070 0D       		.uleb128 0xd
 7571 0071 00       		.byte	0
 7572 0072 03       		.uleb128 0x3
 7573 0073 0E       		.uleb128 0xe
 7574 0074 3A       		.uleb128 0x3a
 7575 0075 0B       		.uleb128 0xb
 7576 0076 3B       		.uleb128 0x3b
 7577 0077 0B       		.uleb128 0xb
 7578 0078 49       		.uleb128 0x49
 7579 0079 13       		.uleb128 0x13
 7580 007a 0B       		.uleb128 0xb
 7581 007b 0B       		.uleb128 0xb
 7582 007c 0D       		.uleb128 0xd
 7583 007d 0B       		.uleb128 0xb
 7584 007e 0C       		.uleb128 0xc
 7585 007f 0B       		.uleb128 0xb
 7586 0080 38       		.uleb128 0x38
 7587 0081 0B       		.uleb128 0xb
 7588 0082 00       		.byte	0
 7589 0083 00       		.byte	0
 7590 0084 0B       		.uleb128 0xb
 7591 0085 0D       		.uleb128 0xd
 7592 0086 00       		.byte	0
 7593 0087 03       		.uleb128 0x3
 7594 0088 08       		.uleb128 0x8
 7595 0089 3A       		.uleb128 0x3a
 7596 008a 0B       		.uleb128 0xb
 7597 008b 3B       		.uleb128 0x3b
 7598 008c 0B       		.uleb128 0xb
 7599 008d 49       		.uleb128 0x49
 7600 008e 13       		.uleb128 0x13
 7601 008f 0B       		.uleb128 0xb
 7602 0090 0B       		.uleb128 0xb
 7603 0091 0D       		.uleb128 0xd
 7604 0092 0B       		.uleb128 0xb
 7605 0093 0C       		.uleb128 0xc
 7606 0094 0B       		.uleb128 0xb
 7607 0095 38       		.uleb128 0x38
 7608 0096 0B       		.uleb128 0xb
 7609 0097 00       		.byte	0
 7610 0098 00       		.byte	0
 7611 0099 0C       		.uleb128 0xc
 7612 009a 17       		.uleb128 0x17
ARM GAS  C:\Users\strap\AppData\Local\Temp\ccUgAYbc.s 			page 170


 7613 009b 01       		.byte	0x1
 7614 009c 0B       		.uleb128 0xb
 7615 009d 0B       		.uleb128 0xb
 7616 009e 3A       		.uleb128 0x3a
 7617 009f 0B       		.uleb128 0xb
 7618 00a0 3B       		.uleb128 0x3b
 7619 00a1 0B       		.uleb128 0xb
 7620 00a2 01       		.uleb128 0x1
 7621 00a3 13       		.uleb128 0x13
 7622 00a4 00       		.byte	0
 7623 00a5 00       		.byte	0
 7624 00a6 0D       		.uleb128 0xd
 7625 00a7 0D       		.uleb128 0xd
 7626 00a8 00       		.byte	0
 7627 00a9 03       		.uleb128 0x3
 7628 00aa 08       		.uleb128 0x8
 7629 00ab 3A       		.uleb128 0x3a
 7630 00ac 0B       		.uleb128 0xb
 7631 00ad 3B       		.uleb128 0x3b
 7632 00ae 0B       		.uleb128 0xb
 7633 00af 49       		.uleb128 0x49
 7634 00b0 13       		.uleb128 0x13
 7635 00b1 00       		.byte	0
 7636 00b2 00       		.byte	0
 7637 00b3 0E       		.uleb128 0xe
 7638 00b4 0D       		.uleb128 0xd
 7639 00b5 00       		.byte	0
 7640 00b6 03       		.uleb128 0x3
 7641 00b7 0E       		.uleb128 0xe
 7642 00b8 3A       		.uleb128 0x3a
 7643 00b9 0B       		.uleb128 0xb
 7644 00ba 3B       		.uleb128 0x3b
 7645 00bb 0B       		.uleb128 0xb
 7646 00bc 49       		.uleb128 0x49
 7647 00bd 13       		.uleb128 0x13
 7648 00be 00       		.byte	0
 7649 00bf 00       		.byte	0
 7650 00c0 0F       		.uleb128 0xf
 7651 00c1 0F       		.uleb128 0xf
 7652 00c2 00       		.byte	0
 7653 00c3 0B       		.uleb128 0xb
 7654 00c4 0B       		.uleb128 0xb
 7655 00c5 49       		.uleb128 0x49
 7656 00c6 13       		.uleb128 0x13
 7657 00c7 00       		.byte	0
 7658 00c8 00       		.byte	0
 7659 00c9 10       		.uleb128 0x10
 7660 00ca 26       		.uleb128 0x26
 7661 00cb 00       		.byte	0
 7662 00cc 49       		.uleb128 0x49
 7663 00cd 13       		.uleb128 0x13
 7664 00ce 00       		.byte	0
 7665 00cf 00       		.byte	0
 7666 00d0 11       		.uleb128 0x11
 7667 00d1 0D       		.uleb128 0xd
 7668 00d2 00       		.byte	0
 7669 00d3 03       		.uleb128 0x3
ARM GAS  C:\Users\strap\AppData\Local\Temp\ccUgAYbc.s 			page 171


 7670 00d4 08       		.uleb128 0x8
 7671 00d5 3A       		.uleb128 0x3a
 7672 00d6 0B       		.uleb128 0xb
 7673 00d7 3B       		.uleb128 0x3b
 7674 00d8 0B       		.uleb128 0xb
 7675 00d9 49       		.uleb128 0x49
 7676 00da 13       		.uleb128 0x13
 7677 00db 38       		.uleb128 0x38
 7678 00dc 0B       		.uleb128 0xb
 7679 00dd 00       		.byte	0
 7680 00de 00       		.byte	0
 7681 00df 12       		.uleb128 0x12
 7682 00e0 0D       		.uleb128 0xd
 7683 00e1 00       		.byte	0
 7684 00e2 03       		.uleb128 0x3
 7685 00e3 0E       		.uleb128 0xe
 7686 00e4 3A       		.uleb128 0x3a
 7687 00e5 0B       		.uleb128 0xb
 7688 00e6 3B       		.uleb128 0x3b
 7689 00e7 0B       		.uleb128 0xb
 7690 00e8 49       		.uleb128 0x49
 7691 00e9 13       		.uleb128 0x13
 7692 00ea 38       		.uleb128 0x38
 7693 00eb 0B       		.uleb128 0xb
 7694 00ec 00       		.byte	0
 7695 00ed 00       		.byte	0
 7696 00ee 13       		.uleb128 0x13
 7697 00ef 26       		.uleb128 0x26
 7698 00f0 00       		.byte	0
 7699 00f1 00       		.byte	0
 7700 00f2 00       		.byte	0
 7701 00f3 14       		.uleb128 0x14
 7702 00f4 13       		.uleb128 0x13
 7703 00f5 01       		.byte	0x1
 7704 00f6 03       		.uleb128 0x3
 7705 00f7 0E       		.uleb128 0xe
 7706 00f8 0B       		.uleb128 0xb
 7707 00f9 0B       		.uleb128 0xb
 7708 00fa 3A       		.uleb128 0x3a
 7709 00fb 0B       		.uleb128 0xb
 7710 00fc 3B       		.uleb128 0x3b
 7711 00fd 0B       		.uleb128 0xb
 7712 00fe 01       		.uleb128 0x1
 7713 00ff 13       		.uleb128 0x13
 7714 0100 00       		.byte	0
 7715 0101 00       		.byte	0
 7716 0102 15       		.uleb128 0x15
 7717 0103 15       		.uleb128 0x15
 7718 0104 01       		.byte	0x1
 7719 0105 27       		.uleb128 0x27
 7720 0106 19       		.uleb128 0x19
 7721 0107 49       		.uleb128 0x49
 7722 0108 13       		.uleb128 0x13
 7723 0109 01       		.uleb128 0x1
 7724 010a 13       		.uleb128 0x13
 7725 010b 00       		.byte	0
 7726 010c 00       		.byte	0
ARM GAS  C:\Users\strap\AppData\Local\Temp\ccUgAYbc.s 			page 172


 7727 010d 16       		.uleb128 0x16
 7728 010e 05       		.uleb128 0x5
 7729 010f 00       		.byte	0
 7730 0110 49       		.uleb128 0x49
 7731 0111 13       		.uleb128 0x13
 7732 0112 00       		.byte	0
 7733 0113 00       		.byte	0
 7734 0114 17       		.uleb128 0x17
 7735 0115 15       		.uleb128 0x15
 7736 0116 01       		.byte	0x1
 7737 0117 27       		.uleb128 0x27
 7738 0118 19       		.uleb128 0x19
 7739 0119 01       		.uleb128 0x1
 7740 011a 13       		.uleb128 0x13
 7741 011b 00       		.byte	0
 7742 011c 00       		.byte	0
 7743 011d 18       		.uleb128 0x18
 7744 011e 13       		.uleb128 0x13
 7745 011f 01       		.byte	0x1
 7746 0120 03       		.uleb128 0x3
 7747 0121 0E       		.uleb128 0xe
 7748 0122 0B       		.uleb128 0xb
 7749 0123 05       		.uleb128 0x5
 7750 0124 3A       		.uleb128 0x3a
 7751 0125 0B       		.uleb128 0xb
 7752 0126 3B       		.uleb128 0x3b
 7753 0127 0B       		.uleb128 0xb
 7754 0128 01       		.uleb128 0x1
 7755 0129 13       		.uleb128 0x13
 7756 012a 00       		.byte	0
 7757 012b 00       		.byte	0
 7758 012c 19       		.uleb128 0x19
 7759 012d 0D       		.uleb128 0xd
 7760 012e 00       		.byte	0
 7761 012f 03       		.uleb128 0x3
 7762 0130 0E       		.uleb128 0xe
 7763 0131 3A       		.uleb128 0x3a
 7764 0132 0B       		.uleb128 0xb
 7765 0133 3B       		.uleb128 0x3b
 7766 0134 0B       		.uleb128 0xb
 7767 0135 49       		.uleb128 0x49
 7768 0136 13       		.uleb128 0x13
 7769 0137 38       		.uleb128 0x38
 7770 0138 05       		.uleb128 0x5
 7771 0139 00       		.byte	0
 7772 013a 00       		.byte	0
 7773 013b 1A       		.uleb128 0x1a
 7774 013c 0D       		.uleb128 0xd
 7775 013d 00       		.byte	0
 7776 013e 03       		.uleb128 0x3
 7777 013f 0E       		.uleb128 0xe
 7778 0140 3A       		.uleb128 0x3a
 7779 0141 0B       		.uleb128 0xb
 7780 0142 3B       		.uleb128 0x3b
 7781 0143 0B       		.uleb128 0xb
 7782 0144 49       		.uleb128 0x49
 7783 0145 13       		.uleb128 0x13
ARM GAS  C:\Users\strap\AppData\Local\Temp\ccUgAYbc.s 			page 173


 7784 0146 0B       		.uleb128 0xb
 7785 0147 0B       		.uleb128 0xb
 7786 0148 0D       		.uleb128 0xd
 7787 0149 0B       		.uleb128 0xb
 7788 014a 0C       		.uleb128 0xc
 7789 014b 0B       		.uleb128 0xb
 7790 014c 38       		.uleb128 0x38
 7791 014d 05       		.uleb128 0x5
 7792 014e 00       		.byte	0
 7793 014f 00       		.byte	0
 7794 0150 1B       		.uleb128 0x1b
 7795 0151 35       		.uleb128 0x35
 7796 0152 00       		.byte	0
 7797 0153 49       		.uleb128 0x49
 7798 0154 13       		.uleb128 0x13
 7799 0155 00       		.byte	0
 7800 0156 00       		.byte	0
 7801 0157 1C       		.uleb128 0x1c
 7802 0158 01       		.uleb128 0x1
 7803 0159 01       		.byte	0x1
 7804 015a 49       		.uleb128 0x49
 7805 015b 13       		.uleb128 0x13
 7806 015c 01       		.uleb128 0x1
 7807 015d 13       		.uleb128 0x13
 7808 015e 00       		.byte	0
 7809 015f 00       		.byte	0
 7810 0160 1D       		.uleb128 0x1d
 7811 0161 21       		.uleb128 0x21
 7812 0162 00       		.byte	0
 7813 0163 49       		.uleb128 0x49
 7814 0164 13       		.uleb128 0x13
 7815 0165 2F       		.uleb128 0x2f
 7816 0166 0B       		.uleb128 0xb
 7817 0167 00       		.byte	0
 7818 0168 00       		.byte	0
 7819 0169 1E       		.uleb128 0x1e
 7820 016a 2E       		.uleb128 0x2e
 7821 016b 01       		.byte	0x1
 7822 016c 03       		.uleb128 0x3
 7823 016d 0E       		.uleb128 0xe
 7824 016e 3A       		.uleb128 0x3a
 7825 016f 0B       		.uleb128 0xb
 7826 0170 3B       		.uleb128 0x3b
 7827 0171 0B       		.uleb128 0xb
 7828 0172 27       		.uleb128 0x27
 7829 0173 19       		.uleb128 0x19
 7830 0174 49       		.uleb128 0x49
 7831 0175 13       		.uleb128 0x13
 7832 0176 20       		.uleb128 0x20
 7833 0177 0B       		.uleb128 0xb
 7834 0178 01       		.uleb128 0x1
 7835 0179 13       		.uleb128 0x13
 7836 017a 00       		.byte	0
 7837 017b 00       		.byte	0
 7838 017c 1F       		.uleb128 0x1f
 7839 017d 05       		.uleb128 0x5
 7840 017e 00       		.byte	0
ARM GAS  C:\Users\strap\AppData\Local\Temp\ccUgAYbc.s 			page 174


 7841 017f 03       		.uleb128 0x3
 7842 0180 08       		.uleb128 0x8
 7843 0181 3A       		.uleb128 0x3a
 7844 0182 0B       		.uleb128 0xb
 7845 0183 3B       		.uleb128 0x3b
 7846 0184 0B       		.uleb128 0xb
 7847 0185 49       		.uleb128 0x49
 7848 0186 13       		.uleb128 0x13
 7849 0187 00       		.byte	0
 7850 0188 00       		.byte	0
 7851 0189 20       		.uleb128 0x20
 7852 018a 34       		.uleb128 0x34
 7853 018b 00       		.byte	0
 7854 018c 03       		.uleb128 0x3
 7855 018d 08       		.uleb128 0x8
 7856 018e 3A       		.uleb128 0x3a
 7857 018f 0B       		.uleb128 0xb
 7858 0190 3B       		.uleb128 0x3b
 7859 0191 0B       		.uleb128 0xb
 7860 0192 49       		.uleb128 0x49
 7861 0193 13       		.uleb128 0x13
 7862 0194 00       		.byte	0
 7863 0195 00       		.byte	0
 7864 0196 21       		.uleb128 0x21
 7865 0197 2E       		.uleb128 0x2e
 7866 0198 01       		.byte	0x1
 7867 0199 03       		.uleb128 0x3
 7868 019a 0E       		.uleb128 0xe
 7869 019b 3A       		.uleb128 0x3a
 7870 019c 0B       		.uleb128 0xb
 7871 019d 3B       		.uleb128 0x3b
 7872 019e 0B       		.uleb128 0xb
 7873 019f 27       		.uleb128 0x27
 7874 01a0 19       		.uleb128 0x19
 7875 01a1 20       		.uleb128 0x20
 7876 01a2 0B       		.uleb128 0xb
 7877 01a3 01       		.uleb128 0x1
 7878 01a4 13       		.uleb128 0x13
 7879 01a5 00       		.byte	0
 7880 01a6 00       		.byte	0
 7881 01a7 22       		.uleb128 0x22
 7882 01a8 05       		.uleb128 0x5
 7883 01a9 00       		.byte	0
 7884 01aa 03       		.uleb128 0x3
 7885 01ab 0E       		.uleb128 0xe
 7886 01ac 3A       		.uleb128 0x3a
 7887 01ad 0B       		.uleb128 0xb
 7888 01ae 3B       		.uleb128 0x3b
 7889 01af 0B       		.uleb128 0xb
 7890 01b0 49       		.uleb128 0x49
 7891 01b1 13       		.uleb128 0x13
 7892 01b2 00       		.byte	0
 7893 01b3 00       		.byte	0
 7894 01b4 23       		.uleb128 0x23
 7895 01b5 2E       		.uleb128 0x2e
 7896 01b6 01       		.byte	0x1
 7897 01b7 03       		.uleb128 0x3
ARM GAS  C:\Users\strap\AppData\Local\Temp\ccUgAYbc.s 			page 175


 7898 01b8 0E       		.uleb128 0xe
 7899 01b9 3A       		.uleb128 0x3a
 7900 01ba 0B       		.uleb128 0xb
 7901 01bb 3B       		.uleb128 0x3b
 7902 01bc 05       		.uleb128 0x5
 7903 01bd 27       		.uleb128 0x27
 7904 01be 19       		.uleb128 0x19
 7905 01bf 20       		.uleb128 0x20
 7906 01c0 0B       		.uleb128 0xb
 7907 01c1 01       		.uleb128 0x1
 7908 01c2 13       		.uleb128 0x13
 7909 01c3 00       		.byte	0
 7910 01c4 00       		.byte	0
 7911 01c5 24       		.uleb128 0x24
 7912 01c6 05       		.uleb128 0x5
 7913 01c7 00       		.byte	0
 7914 01c8 03       		.uleb128 0x3
 7915 01c9 08       		.uleb128 0x8
 7916 01ca 3A       		.uleb128 0x3a
 7917 01cb 0B       		.uleb128 0xb
 7918 01cc 3B       		.uleb128 0x3b
 7919 01cd 05       		.uleb128 0x5
 7920 01ce 49       		.uleb128 0x49
 7921 01cf 13       		.uleb128 0x13
 7922 01d0 00       		.byte	0
 7923 01d1 00       		.byte	0
 7924 01d2 25       		.uleb128 0x25
 7925 01d3 2E       		.uleb128 0x2e
 7926 01d4 01       		.byte	0x1
 7927 01d5 03       		.uleb128 0x3
 7928 01d6 0E       		.uleb128 0xe
 7929 01d7 3A       		.uleb128 0x3a
 7930 01d8 0B       		.uleb128 0xb
 7931 01d9 3B       		.uleb128 0x3b
 7932 01da 05       		.uleb128 0x5
 7933 01db 27       		.uleb128 0x27
 7934 01dc 19       		.uleb128 0x19
 7935 01dd 49       		.uleb128 0x49
 7936 01de 13       		.uleb128 0x13
 7937 01df 20       		.uleb128 0x20
 7938 01e0 0B       		.uleb128 0xb
 7939 01e1 01       		.uleb128 0x1
 7940 01e2 13       		.uleb128 0x13
 7941 01e3 00       		.byte	0
 7942 01e4 00       		.byte	0
 7943 01e5 26       		.uleb128 0x26
 7944 01e6 34       		.uleb128 0x34
 7945 01e7 00       		.byte	0
 7946 01e8 03       		.uleb128 0x3
 7947 01e9 0E       		.uleb128 0xe
 7948 01ea 3A       		.uleb128 0x3a
 7949 01eb 0B       		.uleb128 0xb
 7950 01ec 3B       		.uleb128 0x3b
 7951 01ed 05       		.uleb128 0x5
 7952 01ee 49       		.uleb128 0x49
 7953 01ef 13       		.uleb128 0x13
 7954 01f0 00       		.byte	0
ARM GAS  C:\Users\strap\AppData\Local\Temp\ccUgAYbc.s 			page 176


 7955 01f1 00       		.byte	0
 7956 01f2 27       		.uleb128 0x27
 7957 01f3 34       		.uleb128 0x34
 7958 01f4 00       		.byte	0
 7959 01f5 03       		.uleb128 0x3
 7960 01f6 08       		.uleb128 0x8
 7961 01f7 3A       		.uleb128 0x3a
 7962 01f8 0B       		.uleb128 0xb
 7963 01f9 3B       		.uleb128 0x3b
 7964 01fa 05       		.uleb128 0x5
 7965 01fb 49       		.uleb128 0x49
 7966 01fc 13       		.uleb128 0x13
 7967 01fd 00       		.byte	0
 7968 01fe 00       		.byte	0
 7969 01ff 28       		.uleb128 0x28
 7970 0200 0B       		.uleb128 0xb
 7971 0201 01       		.byte	0x1
 7972 0202 00       		.byte	0
 7973 0203 00       		.byte	0
 7974 0204 29       		.uleb128 0x29
 7975 0205 05       		.uleb128 0x5
 7976 0206 00       		.byte	0
 7977 0207 03       		.uleb128 0x3
 7978 0208 0E       		.uleb128 0xe
 7979 0209 3A       		.uleb128 0x3a
 7980 020a 0B       		.uleb128 0xb
 7981 020b 3B       		.uleb128 0x3b
 7982 020c 05       		.uleb128 0x5
 7983 020d 49       		.uleb128 0x49
 7984 020e 13       		.uleb128 0x13
 7985 020f 00       		.byte	0
 7986 0210 00       		.byte	0
 7987 0211 2A       		.uleb128 0x2a
 7988 0212 2E       		.uleb128 0x2e
 7989 0213 01       		.byte	0x1
 7990 0214 03       		.uleb128 0x3
 7991 0215 0E       		.uleb128 0xe
 7992 0216 3A       		.uleb128 0x3a
 7993 0217 0B       		.uleb128 0xb
 7994 0218 3B       		.uleb128 0x3b
 7995 0219 05       		.uleb128 0x5
 7996 021a 27       		.uleb128 0x27
 7997 021b 19       		.uleb128 0x19
 7998 021c 11       		.uleb128 0x11
 7999 021d 01       		.uleb128 0x1
 8000 021e 12       		.uleb128 0x12
 8001 021f 06       		.uleb128 0x6
 8002 0220 40       		.uleb128 0x40
 8003 0221 18       		.uleb128 0x18
 8004 0222 9742     		.uleb128 0x2117
 8005 0224 19       		.uleb128 0x19
 8006 0225 01       		.uleb128 0x1
 8007 0226 13       		.uleb128 0x13
 8008 0227 00       		.byte	0
 8009 0228 00       		.byte	0
 8010 0229 2B       		.uleb128 0x2b
 8011 022a 05       		.uleb128 0x5
ARM GAS  C:\Users\strap\AppData\Local\Temp\ccUgAYbc.s 			page 177


 8012 022b 00       		.byte	0
 8013 022c 03       		.uleb128 0x3
 8014 022d 0E       		.uleb128 0xe
 8015 022e 3A       		.uleb128 0x3a
 8016 022f 0B       		.uleb128 0xb
 8017 0230 3B       		.uleb128 0x3b
 8018 0231 05       		.uleb128 0x5
 8019 0232 49       		.uleb128 0x49
 8020 0233 13       		.uleb128 0x13
 8021 0234 02       		.uleb128 0x2
 8022 0235 17       		.uleb128 0x17
 8023 0236 00       		.byte	0
 8024 0237 00       		.byte	0
 8025 0238 2C       		.uleb128 0x2c
 8026 0239 34       		.uleb128 0x34
 8027 023a 00       		.byte	0
 8028 023b 03       		.uleb128 0x3
 8029 023c 0E       		.uleb128 0xe
 8030 023d 3A       		.uleb128 0x3a
 8031 023e 0B       		.uleb128 0xb
 8032 023f 3B       		.uleb128 0x3b
 8033 0240 05       		.uleb128 0x5
 8034 0241 49       		.uleb128 0x49
 8035 0242 13       		.uleb128 0x13
 8036 0243 02       		.uleb128 0x2
 8037 0244 18       		.uleb128 0x18
 8038 0245 00       		.byte	0
 8039 0246 00       		.byte	0
 8040 0247 2D       		.uleb128 0x2d
 8041 0248 34       		.uleb128 0x34
 8042 0249 00       		.byte	0
 8043 024a 03       		.uleb128 0x3
 8044 024b 0E       		.uleb128 0xe
 8045 024c 3A       		.uleb128 0x3a
 8046 024d 0B       		.uleb128 0xb
 8047 024e 3B       		.uleb128 0x3b
 8048 024f 05       		.uleb128 0x5
 8049 0250 49       		.uleb128 0x49
 8050 0251 13       		.uleb128 0x13
 8051 0252 02       		.uleb128 0x2
 8052 0253 17       		.uleb128 0x17
 8053 0254 00       		.byte	0
 8054 0255 00       		.byte	0
 8055 0256 2E       		.uleb128 0x2e
 8056 0257 34       		.uleb128 0x34
 8057 0258 00       		.byte	0
 8058 0259 03       		.uleb128 0x3
 8059 025a 08       		.uleb128 0x8
 8060 025b 3A       		.uleb128 0x3a
 8061 025c 0B       		.uleb128 0xb
 8062 025d 3B       		.uleb128 0x3b
 8063 025e 05       		.uleb128 0x5
 8064 025f 49       		.uleb128 0x49
 8065 0260 13       		.uleb128 0x13
 8066 0261 02       		.uleb128 0x2
 8067 0262 17       		.uleb128 0x17
 8068 0263 00       		.byte	0
ARM GAS  C:\Users\strap\AppData\Local\Temp\ccUgAYbc.s 			page 178


 8069 0264 00       		.byte	0
 8070 0265 2F       		.uleb128 0x2f
 8071 0266 1D       		.uleb128 0x1d
 8072 0267 01       		.byte	0x1
 8073 0268 31       		.uleb128 0x31
 8074 0269 13       		.uleb128 0x13
 8075 026a 11       		.uleb128 0x11
 8076 026b 01       		.uleb128 0x1
 8077 026c 12       		.uleb128 0x12
 8078 026d 06       		.uleb128 0x6
 8079 026e 58       		.uleb128 0x58
 8080 026f 0B       		.uleb128 0xb
 8081 0270 59       		.uleb128 0x59
 8082 0271 05       		.uleb128 0x5
 8083 0272 01       		.uleb128 0x1
 8084 0273 13       		.uleb128 0x13
 8085 0274 00       		.byte	0
 8086 0275 00       		.byte	0
 8087 0276 30       		.uleb128 0x30
 8088 0277 05       		.uleb128 0x5
 8089 0278 00       		.byte	0
 8090 0279 31       		.uleb128 0x31
 8091 027a 13       		.uleb128 0x13
 8092 027b 02       		.uleb128 0x2
 8093 027c 17       		.uleb128 0x17
 8094 027d 00       		.byte	0
 8095 027e 00       		.byte	0
 8096 027f 31       		.uleb128 0x31
 8097 0280 1D       		.uleb128 0x1d
 8098 0281 01       		.byte	0x1
 8099 0282 31       		.uleb128 0x31
 8100 0283 13       		.uleb128 0x13
 8101 0284 11       		.uleb128 0x11
 8102 0285 01       		.uleb128 0x1
 8103 0286 12       		.uleb128 0x12
 8104 0287 06       		.uleb128 0x6
 8105 0288 58       		.uleb128 0x58
 8106 0289 0B       		.uleb128 0xb
 8107 028a 59       		.uleb128 0x59
 8108 028b 0B       		.uleb128 0xb
 8109 028c 00       		.byte	0
 8110 028d 00       		.byte	0
 8111 028e 32       		.uleb128 0x32
 8112 028f 0B       		.uleb128 0xb
 8113 0290 01       		.byte	0x1
 8114 0291 11       		.uleb128 0x11
 8115 0292 01       		.uleb128 0x1
 8116 0293 12       		.uleb128 0x12
 8117 0294 06       		.uleb128 0x6
 8118 0295 00       		.byte	0
 8119 0296 00       		.byte	0
 8120 0297 33       		.uleb128 0x33
 8121 0298 34       		.uleb128 0x34
 8122 0299 00       		.byte	0
 8123 029a 31       		.uleb128 0x31
 8124 029b 13       		.uleb128 0x13
 8125 029c 02       		.uleb128 0x2
ARM GAS  C:\Users\strap\AppData\Local\Temp\ccUgAYbc.s 			page 179


 8126 029d 17       		.uleb128 0x17
 8127 029e 00       		.byte	0
 8128 029f 00       		.byte	0
 8129 02a0 34       		.uleb128 0x34
 8130 02a1 0B       		.uleb128 0xb
 8131 02a2 01       		.byte	0x1
 8132 02a3 11       		.uleb128 0x11
 8133 02a4 01       		.uleb128 0x1
 8134 02a5 12       		.uleb128 0x12
 8135 02a6 06       		.uleb128 0x6
 8136 02a7 01       		.uleb128 0x1
 8137 02a8 13       		.uleb128 0x13
 8138 02a9 00       		.byte	0
 8139 02aa 00       		.byte	0
 8140 02ab 35       		.uleb128 0x35
 8141 02ac 0B       		.uleb128 0xb
 8142 02ad 01       		.byte	0x1
 8143 02ae 55       		.uleb128 0x55
 8144 02af 17       		.uleb128 0x17
 8145 02b0 01       		.uleb128 0x1
 8146 02b1 13       		.uleb128 0x13
 8147 02b2 00       		.byte	0
 8148 02b3 00       		.byte	0
 8149 02b4 36       		.uleb128 0x36
 8150 02b5 898201   		.uleb128 0x4109
 8151 02b8 01       		.byte	0x1
 8152 02b9 11       		.uleb128 0x11
 8153 02ba 01       		.uleb128 0x1
 8154 02bb 31       		.uleb128 0x31
 8155 02bc 13       		.uleb128 0x13
 8156 02bd 01       		.uleb128 0x1
 8157 02be 13       		.uleb128 0x13
 8158 02bf 00       		.byte	0
 8159 02c0 00       		.byte	0
 8160 02c1 37       		.uleb128 0x37
 8161 02c2 8A8201   		.uleb128 0x410a
 8162 02c5 00       		.byte	0
 8163 02c6 02       		.uleb128 0x2
 8164 02c7 18       		.uleb128 0x18
 8165 02c8 9142     		.uleb128 0x2111
 8166 02ca 18       		.uleb128 0x18
 8167 02cb 00       		.byte	0
 8168 02cc 00       		.byte	0
 8169 02cd 38       		.uleb128 0x38
 8170 02ce 898201   		.uleb128 0x4109
 8171 02d1 01       		.byte	0x1
 8172 02d2 11       		.uleb128 0x11
 8173 02d3 01       		.uleb128 0x1
 8174 02d4 31       		.uleb128 0x31
 8175 02d5 13       		.uleb128 0x13
 8176 02d6 00       		.byte	0
 8177 02d7 00       		.byte	0
 8178 02d8 39       		.uleb128 0x39
 8179 02d9 0B       		.uleb128 0xb
 8180 02da 01       		.byte	0x1
 8181 02db 55       		.uleb128 0x55
 8182 02dc 17       		.uleb128 0x17
ARM GAS  C:\Users\strap\AppData\Local\Temp\ccUgAYbc.s 			page 180


 8183 02dd 00       		.byte	0
 8184 02de 00       		.byte	0
 8185 02df 3A       		.uleb128 0x3a
 8186 02e0 1D       		.uleb128 0x1d
 8187 02e1 01       		.byte	0x1
 8188 02e2 31       		.uleb128 0x31
 8189 02e3 13       		.uleb128 0x13
 8190 02e4 11       		.uleb128 0x11
 8191 02e5 01       		.uleb128 0x1
 8192 02e6 12       		.uleb128 0x12
 8193 02e7 06       		.uleb128 0x6
 8194 02e8 58       		.uleb128 0x58
 8195 02e9 0B       		.uleb128 0xb
 8196 02ea 59       		.uleb128 0x59
 8197 02eb 05       		.uleb128 0x5
 8198 02ec 00       		.byte	0
 8199 02ed 00       		.byte	0
 8200 02ee 3B       		.uleb128 0x3b
 8201 02ef 1D       		.uleb128 0x1d
 8202 02f0 01       		.byte	0x1
 8203 02f1 31       		.uleb128 0x31
 8204 02f2 13       		.uleb128 0x13
 8205 02f3 52       		.uleb128 0x52
 8206 02f4 01       		.uleb128 0x1
 8207 02f5 55       		.uleb128 0x55
 8208 02f6 17       		.uleb128 0x17
 8209 02f7 58       		.uleb128 0x58
 8210 02f8 0B       		.uleb128 0xb
 8211 02f9 59       		.uleb128 0x59
 8212 02fa 05       		.uleb128 0x5
 8213 02fb 01       		.uleb128 0x1
 8214 02fc 13       		.uleb128 0x13
 8215 02fd 00       		.byte	0
 8216 02fe 00       		.byte	0
 8217 02ff 3C       		.uleb128 0x3c
 8218 0300 34       		.uleb128 0x34
 8219 0301 00       		.byte	0
 8220 0302 31       		.uleb128 0x31
 8221 0303 13       		.uleb128 0x13
 8222 0304 00       		.byte	0
 8223 0305 00       		.byte	0
 8224 0306 3D       		.uleb128 0x3d
 8225 0307 05       		.uleb128 0x5
 8226 0308 00       		.byte	0
 8227 0309 31       		.uleb128 0x31
 8228 030a 13       		.uleb128 0x13
 8229 030b 00       		.byte	0
 8230 030c 00       		.byte	0
 8231 030d 3E       		.uleb128 0x3e
 8232 030e 898201   		.uleb128 0x4109
 8233 0311 00       		.byte	0
 8234 0312 11       		.uleb128 0x11
 8235 0313 01       		.uleb128 0x1
 8236 0314 31       		.uleb128 0x31
 8237 0315 13       		.uleb128 0x13
 8238 0316 00       		.byte	0
 8239 0317 00       		.byte	0
ARM GAS  C:\Users\strap\AppData\Local\Temp\ccUgAYbc.s 			page 181


 8240 0318 3F       		.uleb128 0x3f
 8241 0319 05       		.uleb128 0x5
 8242 031a 00       		.byte	0
 8243 031b 03       		.uleb128 0x3
 8244 031c 08       		.uleb128 0x8
 8245 031d 3A       		.uleb128 0x3a
 8246 031e 0B       		.uleb128 0xb
 8247 031f 3B       		.uleb128 0x3b
 8248 0320 05       		.uleb128 0x5
 8249 0321 49       		.uleb128 0x49
 8250 0322 13       		.uleb128 0x13
 8251 0323 02       		.uleb128 0x2
 8252 0324 17       		.uleb128 0x17
 8253 0325 00       		.byte	0
 8254 0326 00       		.byte	0
 8255 0327 40       		.uleb128 0x40
 8256 0328 2E       		.uleb128 0x2e
 8257 0329 01       		.byte	0x1
 8258 032a 3F       		.uleb128 0x3f
 8259 032b 19       		.uleb128 0x19
 8260 032c 03       		.uleb128 0x3
 8261 032d 0E       		.uleb128 0xe
 8262 032e 3A       		.uleb128 0x3a
 8263 032f 0B       		.uleb128 0xb
 8264 0330 3B       		.uleb128 0x3b
 8265 0331 0B       		.uleb128 0xb
 8266 0332 27       		.uleb128 0x27
 8267 0333 19       		.uleb128 0x19
 8268 0334 11       		.uleb128 0x11
 8269 0335 01       		.uleb128 0x1
 8270 0336 12       		.uleb128 0x12
 8271 0337 06       		.uleb128 0x6
 8272 0338 40       		.uleb128 0x40
 8273 0339 18       		.uleb128 0x18
 8274 033a 9742     		.uleb128 0x2117
 8275 033c 19       		.uleb128 0x19
 8276 033d 01       		.uleb128 0x1
 8277 033e 13       		.uleb128 0x13
 8278 033f 00       		.byte	0
 8279 0340 00       		.byte	0
 8280 0341 41       		.uleb128 0x41
 8281 0342 05       		.uleb128 0x5
 8282 0343 00       		.byte	0
 8283 0344 03       		.uleb128 0x3
 8284 0345 08       		.uleb128 0x8
 8285 0346 3A       		.uleb128 0x3a
 8286 0347 0B       		.uleb128 0xb
 8287 0348 3B       		.uleb128 0x3b
 8288 0349 0B       		.uleb128 0xb
 8289 034a 49       		.uleb128 0x49
 8290 034b 13       		.uleb128 0x13
 8291 034c 02       		.uleb128 0x2
 8292 034d 17       		.uleb128 0x17
 8293 034e 00       		.byte	0
 8294 034f 00       		.byte	0
 8295 0350 42       		.uleb128 0x42
 8296 0351 2E       		.uleb128 0x2e
ARM GAS  C:\Users\strap\AppData\Local\Temp\ccUgAYbc.s 			page 182


 8297 0352 01       		.byte	0x1
 8298 0353 3F       		.uleb128 0x3f
 8299 0354 19       		.uleb128 0x19
 8300 0355 03       		.uleb128 0x3
 8301 0356 0E       		.uleb128 0xe
 8302 0357 3A       		.uleb128 0x3a
 8303 0358 0B       		.uleb128 0xb
 8304 0359 3B       		.uleb128 0x3b
 8305 035a 0B       		.uleb128 0xb
 8306 035b 27       		.uleb128 0x27
 8307 035c 19       		.uleb128 0x19
 8308 035d 49       		.uleb128 0x49
 8309 035e 13       		.uleb128 0x13
 8310 035f 11       		.uleb128 0x11
 8311 0360 01       		.uleb128 0x1
 8312 0361 12       		.uleb128 0x12
 8313 0362 06       		.uleb128 0x6
 8314 0363 40       		.uleb128 0x40
 8315 0364 18       		.uleb128 0x18
 8316 0365 9742     		.uleb128 0x2117
 8317 0367 19       		.uleb128 0x19
 8318 0368 01       		.uleb128 0x1
 8319 0369 13       		.uleb128 0x13
 8320 036a 00       		.byte	0
 8321 036b 00       		.byte	0
 8322 036c 43       		.uleb128 0x43
 8323 036d 34       		.uleb128 0x34
 8324 036e 00       		.byte	0
 8325 036f 03       		.uleb128 0x3
 8326 0370 0E       		.uleb128 0xe
 8327 0371 3A       		.uleb128 0x3a
 8328 0372 0B       		.uleb128 0xb
 8329 0373 3B       		.uleb128 0x3b
 8330 0374 0B       		.uleb128 0xb
 8331 0375 49       		.uleb128 0x49
 8332 0376 13       		.uleb128 0x13
 8333 0377 02       		.uleb128 0x2
 8334 0378 17       		.uleb128 0x17
 8335 0379 00       		.byte	0
 8336 037a 00       		.byte	0
 8337 037b 44       		.uleb128 0x44
 8338 037c 2E       		.uleb128 0x2e
 8339 037d 01       		.byte	0x1
 8340 037e 03       		.uleb128 0x3
 8341 037f 0E       		.uleb128 0xe
 8342 0380 3A       		.uleb128 0x3a
 8343 0381 0B       		.uleb128 0xb
 8344 0382 3B       		.uleb128 0x3b
 8345 0383 0B       		.uleb128 0xb
 8346 0384 27       		.uleb128 0x27
 8347 0385 19       		.uleb128 0x19
 8348 0386 49       		.uleb128 0x49
 8349 0387 13       		.uleb128 0x13
 8350 0388 11       		.uleb128 0x11
 8351 0389 01       		.uleb128 0x1
 8352 038a 12       		.uleb128 0x12
 8353 038b 06       		.uleb128 0x6
ARM GAS  C:\Users\strap\AppData\Local\Temp\ccUgAYbc.s 			page 183


 8354 038c 40       		.uleb128 0x40
 8355 038d 18       		.uleb128 0x18
 8356 038e 9742     		.uleb128 0x2117
 8357 0390 19       		.uleb128 0x19
 8358 0391 01       		.uleb128 0x1
 8359 0392 13       		.uleb128 0x13
 8360 0393 00       		.byte	0
 8361 0394 00       		.byte	0
 8362 0395 45       		.uleb128 0x45
 8363 0396 05       		.uleb128 0x5
 8364 0397 00       		.byte	0
 8365 0398 03       		.uleb128 0x3
 8366 0399 0E       		.uleb128 0xe
 8367 039a 3A       		.uleb128 0x3a
 8368 039b 0B       		.uleb128 0xb
 8369 039c 3B       		.uleb128 0x3b
 8370 039d 0B       		.uleb128 0xb
 8371 039e 49       		.uleb128 0x49
 8372 039f 13       		.uleb128 0x13
 8373 03a0 02       		.uleb128 0x2
 8374 03a1 17       		.uleb128 0x17
 8375 03a2 00       		.byte	0
 8376 03a3 00       		.byte	0
 8377 03a4 46       		.uleb128 0x46
 8378 03a5 34       		.uleb128 0x34
 8379 03a6 00       		.byte	0
 8380 03a7 03       		.uleb128 0x3
 8381 03a8 0E       		.uleb128 0xe
 8382 03a9 3A       		.uleb128 0x3a
 8383 03aa 0B       		.uleb128 0xb
 8384 03ab 3B       		.uleb128 0x3b
 8385 03ac 0B       		.uleb128 0xb
 8386 03ad 49       		.uleb128 0x49
 8387 03ae 13       		.uleb128 0x13
 8388 03af 02       		.uleb128 0x2
 8389 03b0 18       		.uleb128 0x18
 8390 03b1 00       		.byte	0
 8391 03b2 00       		.byte	0
 8392 03b3 47       		.uleb128 0x47
 8393 03b4 1D       		.uleb128 0x1d
 8394 03b5 01       		.byte	0x1
 8395 03b6 31       		.uleb128 0x31
 8396 03b7 13       		.uleb128 0x13
 8397 03b8 52       		.uleb128 0x52
 8398 03b9 01       		.uleb128 0x1
 8399 03ba 55       		.uleb128 0x55
 8400 03bb 17       		.uleb128 0x17
 8401 03bc 58       		.uleb128 0x58
 8402 03bd 0B       		.uleb128 0xb
 8403 03be 59       		.uleb128 0x59
 8404 03bf 0B       		.uleb128 0xb
 8405 03c0 01       		.uleb128 0x1
 8406 03c1 13       		.uleb128 0x13
 8407 03c2 00       		.byte	0
 8408 03c3 00       		.byte	0
 8409 03c4 48       		.uleb128 0x48
 8410 03c5 05       		.uleb128 0x5
ARM GAS  C:\Users\strap\AppData\Local\Temp\ccUgAYbc.s 			page 184


 8411 03c6 00       		.byte	0
 8412 03c7 31       		.uleb128 0x31
 8413 03c8 13       		.uleb128 0x13
 8414 03c9 02       		.uleb128 0x2
 8415 03ca 18       		.uleb128 0x18
 8416 03cb 00       		.byte	0
 8417 03cc 00       		.byte	0
 8418 03cd 49       		.uleb128 0x49
 8419 03ce 1D       		.uleb128 0x1d
 8420 03cf 01       		.byte	0x1
 8421 03d0 31       		.uleb128 0x31
 8422 03d1 13       		.uleb128 0x13
 8423 03d2 52       		.uleb128 0x52
 8424 03d3 01       		.uleb128 0x1
 8425 03d4 55       		.uleb128 0x55
 8426 03d5 17       		.uleb128 0x17
 8427 03d6 58       		.uleb128 0x58
 8428 03d7 0B       		.uleb128 0xb
 8429 03d8 59       		.uleb128 0x59
 8430 03d9 0B       		.uleb128 0xb
 8431 03da 00       		.byte	0
 8432 03db 00       		.byte	0
 8433 03dc 4A       		.uleb128 0x4a
 8434 03dd 34       		.uleb128 0x34
 8435 03de 00       		.byte	0
 8436 03df 03       		.uleb128 0x3
 8437 03e0 08       		.uleb128 0x8
 8438 03e1 3A       		.uleb128 0x3a
 8439 03e2 0B       		.uleb128 0xb
 8440 03e3 3B       		.uleb128 0x3b
 8441 03e4 0B       		.uleb128 0xb
 8442 03e5 49       		.uleb128 0x49
 8443 03e6 13       		.uleb128 0x13
 8444 03e7 02       		.uleb128 0x2
 8445 03e8 17       		.uleb128 0x17
 8446 03e9 00       		.byte	0
 8447 03ea 00       		.byte	0
 8448 03eb 4B       		.uleb128 0x4b
 8449 03ec 34       		.uleb128 0x34
 8450 03ed 00       		.byte	0
 8451 03ee 03       		.uleb128 0x3
 8452 03ef 0E       		.uleb128 0xe
 8453 03f0 3A       		.uleb128 0x3a
 8454 03f1 0B       		.uleb128 0xb
 8455 03f2 3B       		.uleb128 0x3b
 8456 03f3 0B       		.uleb128 0xb
 8457 03f4 49       		.uleb128 0x49
 8458 03f5 13       		.uleb128 0x13
 8459 03f6 1C       		.uleb128 0x1c
 8460 03f7 0B       		.uleb128 0xb
 8461 03f8 00       		.byte	0
 8462 03f9 00       		.byte	0
 8463 03fa 4C       		.uleb128 0x4c
 8464 03fb 2E       		.uleb128 0x2e
 8465 03fc 00       		.byte	0
 8466 03fd 3F       		.uleb128 0x3f
 8467 03fe 19       		.uleb128 0x19
ARM GAS  C:\Users\strap\AppData\Local\Temp\ccUgAYbc.s 			page 185


 8468 03ff 3C       		.uleb128 0x3c
 8469 0400 19       		.uleb128 0x19
 8470 0401 6E       		.uleb128 0x6e
 8471 0402 0E       		.uleb128 0xe
 8472 0403 03       		.uleb128 0x3
 8473 0404 0E       		.uleb128 0xe
 8474 0405 3A       		.uleb128 0x3a
 8475 0406 0B       		.uleb128 0xb
 8476 0407 3B       		.uleb128 0x3b
 8477 0408 0B       		.uleb128 0xb
 8478 0409 00       		.byte	0
 8479 040a 00       		.byte	0
 8480 040b 4D       		.uleb128 0x4d
 8481 040c 2E       		.uleb128 0x2e
 8482 040d 00       		.byte	0
 8483 040e 3F       		.uleb128 0x3f
 8484 040f 19       		.uleb128 0x19
 8485 0410 3C       		.uleb128 0x3c
 8486 0411 19       		.uleb128 0x19
 8487 0412 6E       		.uleb128 0x6e
 8488 0413 0E       		.uleb128 0xe
 8489 0414 03       		.uleb128 0x3
 8490 0415 0E       		.uleb128 0xe
 8491 0416 3A       		.uleb128 0x3a
 8492 0417 0B       		.uleb128 0xb
 8493 0418 3B       		.uleb128 0x3b
 8494 0419 05       		.uleb128 0x5
 8495 041a 00       		.byte	0
 8496 041b 00       		.byte	0
 8497 041c 00       		.byte	0
 8498              		.section	.debug_loc,"",%progbits
 8499              	.Ldebug_loc0:
 8500              	.LLST0:
 8501 0000 00000000 		.4byte	.LVL0
 8502 0004 20000000 		.4byte	.LVL4
 8503 0008 0100     		.2byte	0x1
 8504 000a 50       		.byte	0x50
 8505 000b 20000000 		.4byte	.LVL4
 8506 000f AC070000 		.4byte	.LVL200
 8507 0013 0300     		.2byte	0x3
 8508 0015 91       		.byte	0x91
 8509 0016 C47E     		.sleb128 -188
 8510 0018 AC070000 		.4byte	.LVL200
 8511 001c B0070000 		.4byte	.LFE335
 8512 0020 0300     		.2byte	0x3
 8513 0022 7D       		.byte	0x7d
 8514 0023 C47E     		.sleb128 -188
 8515 0025 00000000 		.4byte	0
 8516 0029 00000000 		.4byte	0
 8517              	.LLST1:
 8518 002d 00000000 		.4byte	.LVL0
 8519 0031 20000000 		.4byte	.LVL4
 8520 0035 0100     		.2byte	0x1
 8521 0037 51       		.byte	0x51
 8522 0038 20000000 		.4byte	.LVL4
 8523 003c AC070000 		.4byte	.LVL200
 8524 0040 0300     		.2byte	0x3
ARM GAS  C:\Users\strap\AppData\Local\Temp\ccUgAYbc.s 			page 186


 8525 0042 91       		.byte	0x91
 8526 0043 E87E     		.sleb128 -152
 8527 0045 AC070000 		.4byte	.LVL200
 8528 0049 B0070000 		.4byte	.LFE335
 8529 004d 0300     		.2byte	0x3
 8530 004f 7D       		.byte	0x7d
 8531 0050 E87E     		.sleb128 -152
 8532 0052 00000000 		.4byte	0
 8533 0056 00000000 		.4byte	0
 8534              	.LLST2:
 8535 005a 00000000 		.4byte	.LVL0
 8536 005e 1C000000 		.4byte	.LVL3
 8537 0062 0100     		.2byte	0x1
 8538 0064 52       		.byte	0x52
 8539 0065 1C000000 		.4byte	.LVL3
 8540 0069 A4010000 		.4byte	.LVL43
 8541 006d 0100     		.2byte	0x1
 8542 006f 56       		.byte	0x56
 8543 0070 A4010000 		.4byte	.LVL43
 8544 0074 70020000 		.4byte	.LVL67
 8545 0078 0400     		.2byte	0x4
 8546 007a F3       		.byte	0xf3
 8547 007b 01       		.uleb128 0x1
 8548 007c 52       		.byte	0x52
 8549 007d 9F       		.byte	0x9f
 8550 007e 70020000 		.4byte	.LVL67
 8551 0082 B2030000 		.4byte	.LVL96
 8552 0086 0100     		.2byte	0x1
 8553 0088 56       		.byte	0x56
 8554 0089 B2030000 		.4byte	.LVL96
 8555 008d B0070000 		.4byte	.LFE335
 8556 0091 0400     		.2byte	0x4
 8557 0093 F3       		.byte	0xf3
 8558 0094 01       		.uleb128 0x1
 8559 0095 52       		.byte	0x52
 8560 0096 9F       		.byte	0x9f
 8561 0097 00000000 		.4byte	0
 8562 009b 00000000 		.4byte	0
 8563              	.LLST3:
 8564 009f 00000000 		.4byte	.LVL0
 8565 00a3 12000000 		.4byte	.LVL1
 8566 00a7 0100     		.2byte	0x1
 8567 00a9 53       		.byte	0x53
 8568 00aa 12000000 		.4byte	.LVL1
 8569 00ae AC070000 		.4byte	.LVL200
 8570 00b2 0300     		.2byte	0x3
 8571 00b4 91       		.byte	0x91
 8572 00b5 947E     		.sleb128 -236
 8573 00b7 AC070000 		.4byte	.LVL200
 8574 00bb B0070000 		.4byte	.LFE335
 8575 00bf 0300     		.2byte	0x3
 8576 00c1 7D       		.byte	0x7d
 8577 00c2 947E     		.sleb128 -236
 8578 00c4 00000000 		.4byte	0
 8579 00c8 00000000 		.4byte	0
 8580              	.LLST4:
 8581 00cc 00000000 		.4byte	.LVL0
ARM GAS  C:\Users\strap\AppData\Local\Temp\ccUgAYbc.s 			page 187


 8582 00d0 AC070000 		.4byte	.LVL200
 8583 00d4 0200     		.2byte	0x2
 8584 00d6 91       		.byte	0x91
 8585 00d7 00       		.sleb128 0
 8586 00d8 AC070000 		.4byte	.LVL200
 8587 00dc B0070000 		.4byte	.LFE335
 8588 00e0 0200     		.2byte	0x2
 8589 00e2 7D       		.byte	0x7d
 8590 00e3 00       		.sleb128 0
 8591 00e4 00000000 		.4byte	0
 8592 00e8 00000000 		.4byte	0
 8593              	.LLST5:
 8594 00ec 00000000 		.4byte	.LVL0
 8595 00f0 AC070000 		.4byte	.LVL200
 8596 00f4 0200     		.2byte	0x2
 8597 00f6 91       		.byte	0x91
 8598 00f7 04       		.sleb128 4
 8599 00f8 AC070000 		.4byte	.LVL200
 8600 00fc B0070000 		.4byte	.LFE335
 8601 0100 0200     		.2byte	0x2
 8602 0102 7D       		.byte	0x7d
 8603 0103 04       		.sleb128 4
 8604 0104 00000000 		.4byte	0
 8605 0108 00000000 		.4byte	0
 8606              	.LLST6:
 8607 010c 34000000 		.4byte	.LVL10
 8608 0110 37000000 		.4byte	.LVL11-1
 8609 0114 0100     		.2byte	0x1
 8610 0116 50       		.byte	0x50
 8611 0117 37000000 		.4byte	.LVL11-1
 8612 011b AE010000 		.4byte	.LVL44
 8613 011f 0100     		.2byte	0x1
 8614 0121 58       		.byte	0x58
 8615 0122 70020000 		.4byte	.LVL67
 8616 0126 B2030000 		.4byte	.LVL96
 8617 012a 0100     		.2byte	0x1
 8618 012c 58       		.byte	0x58
 8619 012d 00000000 		.4byte	0
 8620 0131 00000000 		.4byte	0
 8621              	.LLST7:
 8622 0135 3A000000 		.4byte	.LVL12
 8623 0139 48000000 		.4byte	.LVL13
 8624 013d 0100     		.2byte	0x1
 8625 013f 50       		.byte	0x50
 8626 0140 48000000 		.4byte	.LVL13
 8627 0144 AC070000 		.4byte	.LVL200
 8628 0148 0300     		.2byte	0x3
 8629 014a 91       		.byte	0x91
 8630 014b BC7E     		.sleb128 -196
 8631 014d AC070000 		.4byte	.LVL200
 8632 0151 B0070000 		.4byte	.LFE335
 8633 0155 0300     		.2byte	0x3
 8634 0157 7D       		.byte	0x7d
 8635 0158 BC7E     		.sleb128 -196
 8636 015a 00000000 		.4byte	0
 8637 015e 00000000 		.4byte	0
 8638              	.LLST8:
ARM GAS  C:\Users\strap\AppData\Local\Temp\ccUgAYbc.s 			page 188


 8639 0162 3A000000 		.4byte	.LVL12
 8640 0166 48000000 		.4byte	.LVL13
 8641 016a 0300     		.2byte	0x3
 8642 016c 70       		.byte	0x70
 8643 016d 10       		.sleb128 16
 8644 016e 9F       		.byte	0x9f
 8645 016f 48000000 		.4byte	.LVL13
 8646 0173 AC070000 		.4byte	.LVL200
 8647 0177 0700     		.2byte	0x7
 8648 0179 91       		.byte	0x91
 8649 017a BC7E     		.sleb128 -196
 8650 017c 06       		.byte	0x6
 8651 017d 23       		.byte	0x23
 8652 017e 10       		.uleb128 0x10
 8653 017f 9F       		.byte	0x9f
 8654 0180 AC070000 		.4byte	.LVL200
 8655 0184 B0070000 		.4byte	.LFE335
 8656 0188 0700     		.2byte	0x7
 8657 018a 7D       		.byte	0x7d
 8658 018b BC7E     		.sleb128 -196
 8659 018d 06       		.byte	0x6
 8660 018e 23       		.byte	0x23
 8661 018f 10       		.uleb128 0x10
 8662 0190 9F       		.byte	0x9f
 8663 0191 00000000 		.4byte	0
 8664 0195 00000000 		.4byte	0
 8665              	.LLST9:
 8666 0199 6A000000 		.4byte	.LVL14
 8667 019d 9C000000 		.4byte	.LVL15
 8668 01a1 0100     		.2byte	0x1
 8669 01a3 50       		.byte	0x50
 8670 01a4 A2000000 		.4byte	.LVL17
 8671 01a8 C8000000 		.4byte	.LVL21
 8672 01ac 0100     		.2byte	0x1
 8673 01ae 50       		.byte	0x50
 8674 01af 00000000 		.4byte	0
 8675 01b3 00000000 		.4byte	0
 8676              	.LLST10:
 8677 01b7 1A000000 		.4byte	.LVL2
 8678 01bb 20000000 		.4byte	.LVL4
 8679 01bf 0100     		.2byte	0x1
 8680 01c1 51       		.byte	0x51
 8681 01c2 20000000 		.4byte	.LVL4
 8682 01c6 2E000000 		.4byte	.LVL8
 8683 01ca 0300     		.2byte	0x3
 8684 01cc 91       		.byte	0x91
 8685 01cd E87E     		.sleb128 -152
 8686 01cf 00000000 		.4byte	0
 8687 01d3 00000000 		.4byte	0
 8688              	.LLST11:
 8689 01d7 1A000000 		.4byte	.LVL2
 8690 01db 1C000000 		.4byte	.LVL3
 8691 01df 0300     		.2byte	0x3
 8692 01e1 91       		.byte	0x91
 8693 01e2 50       		.sleb128 -48
 8694 01e3 9F       		.byte	0x9f
 8695 01e4 1C000000 		.4byte	.LVL3
ARM GAS  C:\Users\strap\AppData\Local\Temp\ccUgAYbc.s 			page 189


 8696 01e8 20000000 		.4byte	.LVL4
 8697 01ec 0100     		.2byte	0x1
 8698 01ee 52       		.byte	0x52
 8699 01ef 20000000 		.4byte	.LVL4
 8700 01f3 2E000000 		.4byte	.LVL8
 8701 01f7 0300     		.2byte	0x3
 8702 01f9 91       		.byte	0x91
 8703 01fa 50       		.sleb128 -48
 8704 01fb 9F       		.byte	0x9f
 8705 01fc 00000000 		.4byte	0
 8706 0200 00000000 		.4byte	0
 8707              	.LLST12:
 8708 0204 1A000000 		.4byte	.LVL2
 8709 0208 20000000 		.4byte	.LVL4
 8710 020c 0200     		.2byte	0x2
 8711 020e 38       		.byte	0x38
 8712 020f 9F       		.byte	0x9f
 8713 0210 20000000 		.4byte	.LVL4
 8714 0214 2E000000 		.4byte	.LVL8
 8715 0218 0100     		.2byte	0x1
 8716 021a 53       		.byte	0x53
 8717 021b 00000000 		.4byte	0
 8718 021f 00000000 		.4byte	0
 8719              	.LLST15:
 8720 0223 1A000000 		.4byte	.LVL2
 8721 0227 1C000000 		.4byte	.LVL3
 8722 022b 0300     		.2byte	0x3
 8723 022d 91       		.byte	0x91
 8724 022e 50       		.sleb128 -48
 8725 022f 9F       		.byte	0x9f
 8726 0230 1C000000 		.4byte	.LVL3
 8727 0234 31000000 		.4byte	.LVL9-1
 8728 0238 0100     		.2byte	0x1
 8729 023a 52       		.byte	0x52
 8730 023b 00000000 		.4byte	0
 8731 023f 00000000 		.4byte	0
 8732              	.LLST16:
 8733 0243 1A000000 		.4byte	.LVL2
 8734 0247 24000000 		.4byte	.LVL5
 8735 024b 0100     		.2byte	0x1
 8736 024d 51       		.byte	0x51
 8737 024e 24000000 		.4byte	.LVL5
 8738 0252 28000000 		.4byte	.LVL6
 8739 0256 0300     		.2byte	0x3
 8740 0258 71       		.byte	0x71
 8741 0259 7F       		.sleb128 -1
 8742 025a 9F       		.byte	0x9f
 8743 025b 28000000 		.4byte	.LVL6
 8744 025f 31000000 		.4byte	.LVL9-1
 8745 0263 0100     		.2byte	0x1
 8746 0265 51       		.byte	0x51
 8747 0266 00000000 		.4byte	0
 8748 026a 00000000 		.4byte	0
 8749              	.LLST17:
 8750 026e B0000000 		.4byte	.LVL18
 8751 0272 A6070000 		.4byte	.LVL199
 8752 0276 0300     		.2byte	0x3
ARM GAS  C:\Users\strap\AppData\Local\Temp\ccUgAYbc.s 			page 190


 8753 0278 91       		.byte	0x91
 8754 0279 887E     		.sleb128 -248
 8755 027b 00000000 		.4byte	0
 8756 027f 00000000 		.4byte	0
 8757              	.LLST18:
 8758 0283 C4000000 		.4byte	.LVL20
 8759 0287 9A010000 		.4byte	.LVL39
 8760 028b 0100     		.2byte	0x1
 8761 028d 55       		.byte	0x55
 8762 028e 9A010000 		.4byte	.LVL39
 8763 0292 70020000 		.4byte	.LVL67
 8764 0296 0300     		.2byte	0x3
 8765 0298 91       		.byte	0x91
 8766 0299 D07E     		.sleb128 -176
 8767 029b 70020000 		.4byte	.LVL67
 8768 029f B2030000 		.4byte	.LVL96
 8769 02a3 0100     		.2byte	0x1
 8770 02a5 55       		.byte	0x55
 8771 02a6 B2030000 		.4byte	.LVL96
 8772 02aa A6070000 		.4byte	.LVL199
 8773 02ae 0300     		.2byte	0x3
 8774 02b0 91       		.byte	0x91
 8775 02b1 D07E     		.sleb128 -176
 8776 02b3 00000000 		.4byte	0
 8777 02b7 00000000 		.4byte	0
 8778              	.LLST19:
 8779 02bb C4000000 		.4byte	.LVL20
 8780 02bf DE000000 		.4byte	.LVL22
 8781 02c3 0100     		.2byte	0x1
 8782 02c5 56       		.byte	0x56
 8783 02c6 DE000000 		.4byte	.LVL22
 8784 02ca F6000000 		.4byte	.LVL23
 8785 02ce 0900     		.2byte	0x9
 8786 02d0 77       		.byte	0x77
 8787 02d1 00       		.sleb128 0
 8788 02d2 73       		.byte	0x73
 8789 02d3 00       		.sleb128 0
 8790 02d4 1E       		.byte	0x1e
 8791 02d5 76       		.byte	0x76
 8792 02d6 00       		.sleb128 0
 8793 02d7 22       		.byte	0x22
 8794 02d8 9F       		.byte	0x9f
 8795 02d9 F6000000 		.4byte	.LVL23
 8796 02dd FA000000 		.4byte	.LVL24
 8797 02e1 1C00     		.2byte	0x1c
 8798 02e3 70       		.byte	0x70
 8799 02e4 00       		.sleb128 0
 8800 02e5 91       		.byte	0x91
 8801 02e6 C47E     		.sleb128 -188
 8802 02e8 06       		.byte	0x6
 8803 02e9 23       		.byte	0x23
 8804 02ea 02       		.uleb128 0x2
 8805 02eb 94       		.byte	0x94
 8806 02ec 02       		.byte	0x2
 8807 02ed 40       		.byte	0x40
 8808 02ee 24       		.byte	0x24
 8809 02ef 40       		.byte	0x40
ARM GAS  C:\Users\strap\AppData\Local\Temp\ccUgAYbc.s 			page 191


 8810 02f0 26       		.byte	0x26
 8811 02f1 1C       		.byte	0x1c
 8812 02f2 71       		.byte	0x71
 8813 02f3 00       		.sleb128 0
 8814 02f4 22       		.byte	0x22
 8815 02f5 75       		.byte	0x75
 8816 02f6 00       		.sleb128 0
 8817 02f7 1E       		.byte	0x1e
 8818 02f8 77       		.byte	0x77
 8819 02f9 00       		.sleb128 0
 8820 02fa 1E       		.byte	0x1e
 8821 02fb 76       		.byte	0x76
 8822 02fc 00       		.sleb128 0
 8823 02fd 22       		.byte	0x22
 8824 02fe 9F       		.byte	0x9f
 8825 02ff FA000000 		.4byte	.LVL24
 8826 0303 02010000 		.4byte	.LVL25
 8827 0307 0100     		.2byte	0x1
 8828 0309 53       		.byte	0x53
 8829 030a 02010000 		.4byte	.LVL25
 8830 030e B4010000 		.4byte	.LVL45
 8831 0312 0300     		.2byte	0x3
 8832 0314 91       		.byte	0x91
 8833 0315 B07E     		.sleb128 -208
 8834 0317 B4010000 		.4byte	.LVL45
 8835 031b 70020000 		.4byte	.LVL67
 8836 031f 0100     		.2byte	0x1
 8837 0321 59       		.byte	0x59
 8838 0322 70020000 		.4byte	.LVL67
 8839 0326 C6060000 		.4byte	.LVL176
 8840 032a 0300     		.2byte	0x3
 8841 032c 91       		.byte	0x91
 8842 032d B07E     		.sleb128 -208
 8843 032f C6060000 		.4byte	.LVL176
 8844 0333 CA060000 		.4byte	.LVL177
 8845 0337 0100     		.2byte	0x1
 8846 0339 53       		.byte	0x53
 8847 033a CA060000 		.4byte	.LVL177
 8848 033e A6070000 		.4byte	.LVL199
 8849 0342 0300     		.2byte	0x3
 8850 0344 91       		.byte	0x91
 8851 0345 B07E     		.sleb128 -208
 8852 0347 00000000 		.4byte	0
 8853 034b 00000000 		.4byte	0
 8854              	.LLST20:
 8855 034f E6050000 		.4byte	.LVL159
 8856 0353 32060000 		.4byte	.LVL160
 8857 0357 0100     		.2byte	0x1
 8858 0359 53       		.byte	0x53
 8859 035a 4A060000 		.4byte	.LVL162
 8860 035e 52060000 		.4byte	.LVL164
 8861 0362 0100     		.2byte	0x1
 8862 0364 53       		.byte	0x53
 8863 0365 00000000 		.4byte	0
 8864 0369 00000000 		.4byte	0
 8865              	.LLST21:
 8866 036d FA000000 		.4byte	.LVL24
ARM GAS  C:\Users\strap\AppData\Local\Temp\ccUgAYbc.s 			page 192


 8867 0371 B4010000 		.4byte	.LVL45
 8868 0375 0200     		.2byte	0x2
 8869 0377 30       		.byte	0x30
 8870 0378 9F       		.byte	0x9f
 8871 0379 B4010000 		.4byte	.LVL45
 8872 037d 14020000 		.4byte	.LVL58
 8873 0381 0100     		.2byte	0x1
 8874 0383 52       		.byte	0x52
 8875 0384 2C020000 		.4byte	.LVL60
 8876 0388 2E020000 		.4byte	.LVL61
 8877 038c 0200     		.2byte	0x2
 8878 038e 30       		.byte	0x30
 8879 038f 9F       		.byte	0x9f
 8880 0390 2E020000 		.4byte	.LVL61
 8881 0394 3A020000 		.4byte	.LVL63
 8882 0398 0100     		.2byte	0x1
 8883 039a 52       		.byte	0x52
 8884 039b 70020000 		.4byte	.LVL67
 8885 039f B2030000 		.4byte	.LVL96
 8886 03a3 0200     		.2byte	0x2
 8887 03a5 30       		.byte	0x30
 8888 03a6 9F       		.byte	0x9f
 8889 03a7 B2030000 		.4byte	.LVL96
 8890 03ab D4030000 		.4byte	.LVL99
 8891 03af 0300     		.2byte	0x3
 8892 03b1 91       		.byte	0x91
 8893 03b2 B87E     		.sleb128 -200
 8894 03b4 D4030000 		.4byte	.LVL99
 8895 03b8 16070000 		.4byte	.LVL182
 8896 03bc 0100     		.2byte	0x1
 8897 03be 5B       		.byte	0x5b
 8898 03bf 16070000 		.4byte	.LVL182
 8899 03c3 5C070000 		.4byte	.LVL195
 8900 03c7 0200     		.2byte	0x2
 8901 03c9 30       		.byte	0x30
 8902 03ca 9F       		.byte	0x9f
 8903 03cb 5C070000 		.4byte	.LVL195
 8904 03cf A6070000 		.4byte	.LVL199
 8905 03d3 0300     		.2byte	0x3
 8906 03d5 91       		.byte	0x91
 8907 03d6 B87E     		.sleb128 -200
 8908 03d8 00000000 		.4byte	0
 8909 03dc 00000000 		.4byte	0
 8910              	.LLST22:
 8911 03e0 B4010000 		.4byte	.LVL45
 8912 03e4 D0010000 		.4byte	.LVL52
 8913 03e8 0100     		.2byte	0x1
 8914 03ea 53       		.byte	0x53
 8915 03eb D4010000 		.4byte	.LVL53
 8916 03ef DA010000 		.4byte	.LVL54
 8917 03f3 0100     		.2byte	0x1
 8918 03f5 53       		.byte	0x53
 8919 03f6 B2030000 		.4byte	.LVL96
 8920 03fa D4030000 		.4byte	.LVL99
 8921 03fe 0300     		.2byte	0x3
 8922 0400 91       		.byte	0x91
 8923 0401 B07E     		.sleb128 -208
ARM GAS  C:\Users\strap\AppData\Local\Temp\ccUgAYbc.s 			page 193


 8924 0403 D4030000 		.4byte	.LVL99
 8925 0407 62070000 		.4byte	.LVL196
 8926 040b 0100     		.2byte	0x1
 8927 040d 58       		.byte	0x58
 8928 040e 00000000 		.4byte	0
 8929 0412 00000000 		.4byte	0
 8930              	.LLST23:
 8931 0416 52010000 		.4byte	.LVL30
 8932 041a 62010000 		.4byte	.LVL31
 8933 041e 0100     		.2byte	0x1
 8934 0420 53       		.byte	0x53
 8935 0421 62010000 		.4byte	.LVL31
 8936 0425 A6070000 		.4byte	.LVL199
 8937 0429 0300     		.2byte	0x3
 8938 042b 91       		.byte	0x91
 8939 042c 8C7E     		.sleb128 -244
 8940 042e 00000000 		.4byte	0
 8941 0432 00000000 		.4byte	0
 8942              	.LLST24:
 8943 0436 B0000000 		.4byte	.LVL18
 8944 043a C2000000 		.4byte	.LVL19
 8945 043e 0300     		.2byte	0x3
 8946 0440 91       		.byte	0x91
 8947 0441 C47E     		.sleb128 -188
 8948 0443 00000000 		.4byte	0
 8949 0447 00000000 		.4byte	0
 8950              	.LLST25:
 8951 044b 08010000 		.4byte	.LVL26
 8952 044f 16010000 		.4byte	.LVL27
 8953 0453 0300     		.2byte	0x3
 8954 0455 91       		.byte	0x91
 8955 0456 50       		.sleb128 -48
 8956 0457 9F       		.byte	0x9f
 8957 0458 00000000 		.4byte	0
 8958 045c 00000000 		.4byte	0
 8959              	.LLST26:
 8960 0460 2C010000 		.4byte	.LVL28
 8961 0464 38010000 		.4byte	.LVL29
 8962 0468 0300     		.2byte	0x3
 8963 046a 91       		.byte	0x91
 8964 046b 50       		.sleb128 -48
 8965 046c 9F       		.byte	0x9f
 8966 046d 00000000 		.4byte	0
 8967 0471 00000000 		.4byte	0
 8968              	.LLST27:
 8969 0475 80010000 		.4byte	.LVL33
 8970 0479 82010000 		.4byte	.LVL34
 8971 047d 0100     		.2byte	0x1
 8972 047f 50       		.byte	0x50
 8973 0480 82010000 		.4byte	.LVL34
 8974 0484 A2010000 		.4byte	.LVL42
 8975 0488 0100     		.2byte	0x1
 8976 048a 54       		.byte	0x54
 8977 048b 00000000 		.4byte	0
 8978 048f 00000000 		.4byte	0
 8979              	.LLST28:
 8980 0493 92010000 		.4byte	.LVL37
ARM GAS  C:\Users\strap\AppData\Local\Temp\ccUgAYbc.s 			page 194


 8981 0497 70020000 		.4byte	.LVL67
 8982 049b 0100     		.2byte	0x1
 8983 049d 57       		.byte	0x57
 8984 049e 00000000 		.4byte	0
 8985 04a2 00000000 		.4byte	0
 8986              	.LLST29:
 8987 04a6 9A010000 		.4byte	.LVL39
 8988 04aa 9C010000 		.4byte	.LVL40
 8989 04ae 0100     		.2byte	0x1
 8990 04b0 50       		.byte	0x50
 8991 04b1 9C010000 		.4byte	.LVL40
 8992 04b5 70020000 		.4byte	.LVL67
 8993 04b9 0100     		.2byte	0x1
 8994 04bb 55       		.byte	0x55
 8995 04bc 00000000 		.4byte	0
 8996 04c0 00000000 		.4byte	0
 8997              	.LLST30:
 8998 04c4 A2010000 		.4byte	.LVL42
 8999 04c8 B4010000 		.4byte	.LVL45
 9000 04cc 0100     		.2byte	0x1
 9001 04ce 50       		.byte	0x50
 9002 04cf B4010000 		.4byte	.LVL45
 9003 04d3 70020000 		.4byte	.LVL67
 9004 04d7 0100     		.2byte	0x1
 9005 04d9 54       		.byte	0x54
 9006 04da 00000000 		.4byte	0
 9007 04de 00000000 		.4byte	0
 9008              	.LLST31:
 9009 04e2 B4010000 		.4byte	.LVL45
 9010 04e6 D0010000 		.4byte	.LVL52
 9011 04ea 0100     		.2byte	0x1
 9012 04ec 51       		.byte	0x51
 9013 04ed D4010000 		.4byte	.LVL53
 9014 04f1 DC010000 		.4byte	.LVL55
 9015 04f5 0100     		.2byte	0x1
 9016 04f7 51       		.byte	0x51
 9017 04f8 00000000 		.4byte	0
 9018 04fc 00000000 		.4byte	0
 9019              	.LLST32:
 9020 0500 A2010000 		.4byte	.LVL42
 9021 0504 B4010000 		.4byte	.LVL45
 9022 0508 0200     		.2byte	0x2
 9023 050a 30       		.byte	0x30
 9024 050b 9F       		.byte	0x9f
 9025 050c B4010000 		.4byte	.LVL45
 9026 0510 70020000 		.4byte	.LVL67
 9027 0514 0100     		.2byte	0x1
 9028 0516 56       		.byte	0x56
 9029 0517 00000000 		.4byte	0
 9030 051b 00000000 		.4byte	0
 9031              	.LLST33:
 9032 051f B6010000 		.4byte	.LVL46
 9033 0523 BC010000 		.4byte	.LVL47
 9034 0527 0100     		.2byte	0x1
 9035 0529 50       		.byte	0x50
 9036 052a BC010000 		.4byte	.LVL47
 9037 052e C8010000 		.4byte	.LVL48
ARM GAS  C:\Users\strap\AppData\Local\Temp\ccUgAYbc.s 			page 195


 9038 0532 0500     		.2byte	0x5
 9039 0534 74       		.byte	0x74
 9040 0535 00       		.sleb128 0
 9041 0536 72       		.byte	0x72
 9042 0537 00       		.sleb128 0
 9043 0538 22       		.byte	0x22
 9044 0539 00000000 		.4byte	0
 9045 053d 00000000 		.4byte	0
 9046              	.LLST34:
 9047 0541 E0010000 		.4byte	.LVL56
 9048 0545 EE010000 		.4byte	.LVL57
 9049 0549 0300     		.2byte	0x3
 9050 054b 91       		.byte	0x91
 9051 054c 50       		.sleb128 -48
 9052 054d 9F       		.byte	0x9f
 9053 054e 00000000 		.4byte	0
 9054 0552 00000000 		.4byte	0
 9055              	.LLST35:
 9056 0556 7A020000 		.4byte	.LVL69
 9057 055a 7C020000 		.4byte	.LVL70
 9058 055e 0100     		.2byte	0x1
 9059 0560 50       		.byte	0x50
 9060 0561 7C020000 		.4byte	.LVL70
 9061 0565 8E020000 		.4byte	.LVL74
 9062 0569 0100     		.2byte	0x1
 9063 056b 54       		.byte	0x54
 9064 056c 00000000 		.4byte	0
 9065 0570 00000000 		.4byte	0
 9066              	.LLST36:
 9067 0574 8C020000 		.4byte	.LVL73
 9068 0578 A6070000 		.4byte	.LVL199
 9069 057c 0300     		.2byte	0x3
 9070 057e 91       		.byte	0x91
 9071 057f C87E     		.sleb128 -184
 9072 0581 00000000 		.4byte	0
 9073 0585 00000000 		.4byte	0
 9074              	.LLST37:
 9075 0589 96020000 		.4byte	.LVL76
 9076 058d 98020000 		.4byte	.LVL77
 9077 0591 0100     		.2byte	0x1
 9078 0593 50       		.byte	0x50
 9079 0594 98020000 		.4byte	.LVL77
 9080 0598 A6070000 		.4byte	.LVL199
 9081 059c 0300     		.2byte	0x3
 9082 059e 91       		.byte	0x91
 9083 059f 987E     		.sleb128 -232
 9084 05a1 00000000 		.4byte	0
 9085 05a5 00000000 		.4byte	0
 9086              	.LLST38:
 9087 05a9 9E020000 		.4byte	.LVL79
 9088 05ad A2020000 		.4byte	.LVL80
 9089 05b1 0100     		.2byte	0x1
 9090 05b3 50       		.byte	0x50
 9091 05b4 A2020000 		.4byte	.LVL80
 9092 05b8 B2030000 		.4byte	.LVL96
 9093 05bc 0100     		.2byte	0x1
 9094 05be 5B       		.byte	0x5b
ARM GAS  C:\Users\strap\AppData\Local\Temp\ccUgAYbc.s 			page 196


 9095 05bf B2030000 		.4byte	.LVL96
 9096 05c3 A6070000 		.4byte	.LVL199
 9097 05c7 0100     		.2byte	0x1
 9098 05c9 5A       		.byte	0x5a
 9099 05ca 00000000 		.4byte	0
 9100 05ce 00000000 		.4byte	0
 9101              	.LLST39:
 9102 05d2 1E030000 		.4byte	.LVL87
 9103 05d6 A6070000 		.4byte	.LVL199
 9104 05da 0300     		.2byte	0x3
 9105 05dc 91       		.byte	0x91
 9106 05dd AC7E     		.sleb128 -212
 9107 05df 00000000 		.4byte	0
 9108 05e3 00000000 		.4byte	0
 9109              	.LLST40:
 9110 05e7 82030000 		.4byte	.LVL92
 9111 05eb AE060000 		.4byte	.LVL173
 9112 05ef 0300     		.2byte	0x3
 9113 05f1 91       		.byte	0x91
 9114 05f2 DC7E     		.sleb128 -164
 9115 05f4 AE060000 		.4byte	.LVL173
 9116 05f8 B4060000 		.4byte	.LVL174
 9117 05fc 0200     		.2byte	0x2
 9118 05fe 32       		.byte	0x32
 9119 05ff 9F       		.byte	0x9f
 9120 0600 B4060000 		.4byte	.LVL174
 9121 0604 2E070000 		.4byte	.LVL183
 9122 0608 0300     		.2byte	0x3
 9123 060a 91       		.byte	0x91
 9124 060b DC7E     		.sleb128 -164
 9125 060d 30070000 		.4byte	.LVL184
 9126 0611 34070000 		.4byte	.LVL185
 9127 0615 0300     		.2byte	0x3
 9128 0617 91       		.byte	0x91
 9129 0618 DC7E     		.sleb128 -164
 9130 061a 36070000 		.4byte	.LVL186
 9131 061e 3A070000 		.4byte	.LVL187
 9132 0622 0300     		.2byte	0x3
 9133 0624 91       		.byte	0x91
 9134 0625 DC7E     		.sleb128 -164
 9135 0627 3C070000 		.4byte	.LVL188
 9136 062b 40070000 		.4byte	.LVL189
 9137 062f 0300     		.2byte	0x3
 9138 0631 91       		.byte	0x91
 9139 0632 DC7E     		.sleb128 -164
 9140 0634 42070000 		.4byte	.LVL190
 9141 0638 A6070000 		.4byte	.LVL199
 9142 063c 0300     		.2byte	0x3
 9143 063e 91       		.byte	0x91
 9144 063f DC7E     		.sleb128 -164
 9145 0641 00000000 		.4byte	0
 9146 0645 00000000 		.4byte	0
 9147              	.LLST41:
 9148 0649 C8030000 		.4byte	.LVL98
 9149 064d D4030000 		.4byte	.LVL99
 9150 0651 0200     		.2byte	0x2
 9151 0653 30       		.byte	0x30
ARM GAS  C:\Users\strap\AppData\Local\Temp\ccUgAYbc.s 			page 197


 9152 0654 9F       		.byte	0x9f
 9153 0655 D4030000 		.4byte	.LVL99
 9154 0659 62070000 		.4byte	.LVL196
 9155 065d 0100     		.2byte	0x1
 9156 065f 56       		.byte	0x56
 9157 0660 00000000 		.4byte	0
 9158 0664 00000000 		.4byte	0
 9159              	.LLST42:
 9160 0668 A4030000 		.4byte	.LVL94
 9161 066c B2030000 		.4byte	.LVL96
 9162 0670 0200     		.2byte	0x2
 9163 0672 30       		.byte	0x30
 9164 0673 9F       		.byte	0x9f
 9165 0674 B2030000 		.4byte	.LVL96
 9166 0678 B4030000 		.4byte	.LVL97
 9167 067c 0100     		.2byte	0x1
 9168 067e 53       		.byte	0x53
 9169 067f B4030000 		.4byte	.LVL97
 9170 0683 A6070000 		.4byte	.LVL199
 9171 0687 0300     		.2byte	0x3
 9172 0689 91       		.byte	0x91
 9173 068a 9C7E     		.sleb128 -228
 9174 068c 00000000 		.4byte	0
 9175 0690 00000000 		.4byte	0
 9176              	.LLST43:
 9177 0694 A4030000 		.4byte	.LVL94
 9178 0698 A6030000 		.4byte	.LVL95
 9179 069c 0100     		.2byte	0x1
 9180 069e 53       		.byte	0x53
 9181 069f A6030000 		.4byte	.LVL95
 9182 06a3 A6070000 		.4byte	.LVL199
 9183 06a7 0300     		.2byte	0x3
 9184 06a9 91       		.byte	0x91
 9185 06aa B47E     		.sleb128 -204
 9186 06ac 00000000 		.4byte	0
 9187 06b0 00000000 		.4byte	0
 9188              	.LLST44:
 9189 06b4 AA020000 		.4byte	.LVL82
 9190 06b8 BC020000 		.4byte	.LVL83
 9191 06bc 0200     		.2byte	0x2
 9192 06be 34       		.byte	0x34
 9193 06bf 9F       		.byte	0x9f
 9194 06c0 BC020000 		.4byte	.LVL83
 9195 06c4 0B030000 		.4byte	.LVL86-1
 9196 06c8 0100     		.2byte	0x1
 9197 06ca 52       		.byte	0x52
 9198 06cb 00000000 		.4byte	0
 9199 06cf 00000000 		.4byte	0
 9200              	.LLST45:
 9201 06d3 D0020000 		.4byte	.LVL84
 9202 06d7 DE020000 		.4byte	.LVL85
 9203 06db 0300     		.2byte	0x3
 9204 06dd 91       		.byte	0x91
 9205 06de C47E     		.sleb128 -188
 9206 06e0 00000000 		.4byte	0
 9207 06e4 00000000 		.4byte	0
 9208              	.LLST46:
ARM GAS  C:\Users\strap\AppData\Local\Temp\ccUgAYbc.s 			page 198


 9209 06e8 22030000 		.4byte	.LVL88
 9210 06ec 50030000 		.4byte	.LVL91
 9211 06f0 0400     		.2byte	0x4
 9212 06f2 91       		.byte	0x91
 9213 06f3 F47E     		.sleb128 -140
 9214 06f5 9F       		.byte	0x9f
 9215 06f6 00000000 		.4byte	0
 9216 06fa 00000000 		.4byte	0
 9217              	.LLST47:
 9218 06fe 22030000 		.4byte	.LVL88
 9219 0702 28030000 		.4byte	.LVL89
 9220 0706 0100     		.2byte	0x1
 9221 0708 52       		.byte	0x52
 9222 0709 28030000 		.4byte	.LVL89
 9223 070d 50030000 		.4byte	.LVL91
 9224 0711 0600     		.2byte	0x6
 9225 0713 91       		.byte	0x91
 9226 0714 947E     		.sleb128 -236
 9227 0716 06       		.byte	0x6
 9228 0717 23       		.byte	0x23
 9229 0718 0A       		.uleb128 0xa
 9230 0719 00000000 		.4byte	0
 9231 071d 00000000 		.4byte	0
 9232              	.LLST48:
 9233 0721 22030000 		.4byte	.LVL88
 9234 0725 48030000 		.4byte	.LVL90
 9235 0729 0100     		.2byte	0x1
 9236 072b 53       		.byte	0x53
 9237 072c 00000000 		.4byte	0
 9238 0730 00000000 		.4byte	0
 9239              	.LLST49:
 9240 0734 B2030000 		.4byte	.LVL96
 9241 0738 EA060000 		.4byte	.LVL179
 9242 073c 0300     		.2byte	0x3
 9243 073e 91       		.byte	0x91
 9244 073f B87E     		.sleb128 -200
 9245 0741 EC060000 		.4byte	.LVL180
 9246 0745 56070000 		.4byte	.LVL193
 9247 0749 0300     		.2byte	0x3
 9248 074b 91       		.byte	0x91
 9249 074c B87E     		.sleb128 -200
 9250 074e 58070000 		.4byte	.LVL194
 9251 0752 5C070000 		.4byte	.LVL195
 9252 0756 0300     		.2byte	0x3
 9253 0758 91       		.byte	0x91
 9254 0759 B87E     		.sleb128 -200
 9255 075b 00000000 		.4byte	0
 9256 075f 00000000 		.4byte	0
 9257              	.LLST50:
 9258 0763 C8030000 		.4byte	.LVL98
 9259 0767 D4030000 		.4byte	.LVL99
 9260 076b 0100     		.2byte	0x1
 9261 076d 53       		.byte	0x53
 9262 076e D4030000 		.4byte	.LVL99
 9263 0772 62070000 		.4byte	.LVL196
 9264 0776 0300     		.2byte	0x3
 9265 0778 91       		.byte	0x91
ARM GAS  C:\Users\strap\AppData\Local\Temp\ccUgAYbc.s 			page 199


 9266 0779 A87E     		.sleb128 -216
 9267 077b 00000000 		.4byte	0
 9268 077f 00000000 		.4byte	0
 9269              	.LLST51:
 9270 0783 EA030000 		.4byte	.LVL100
 9271 0787 F8030000 		.4byte	.LVL103
 9272 078b 0100     		.2byte	0x1
 9273 078d 52       		.byte	0x52
 9274 078e F8030000 		.4byte	.LVL103
 9275 0792 88050000 		.4byte	.LVL154
 9276 0796 0A00     		.2byte	0xa
 9277 0798 91       		.byte	0x91
 9278 0799 B47E     		.sleb128 -204
 9279 079b 06       		.byte	0x6
 9280 079c 91       		.byte	0x91
 9281 079d 9C7E     		.sleb128 -228
 9282 079f 06       		.byte	0x6
 9283 07a0 22       		.byte	0x22
 9284 07a1 9F       		.byte	0x9f
 9285 07a2 00000000 		.4byte	0
 9286 07a6 00000000 		.4byte	0
 9287              	.LLST52:
 9288 07aa EA030000 		.4byte	.LVL100
 9289 07ae F2030000 		.4byte	.LVL102
 9290 07b2 0100     		.2byte	0x1
 9291 07b4 53       		.byte	0x53
 9292 07b5 F2030000 		.4byte	.LVL102
 9293 07b9 88050000 		.4byte	.LVL154
 9294 07bd 0800     		.2byte	0x8
 9295 07bf 91       		.byte	0x91
 9296 07c0 A87E     		.sleb128 -216
 9297 07c2 06       		.byte	0x6
 9298 07c3 76       		.byte	0x76
 9299 07c4 00       		.sleb128 0
 9300 07c5 22       		.byte	0x22
 9301 07c6 9F       		.byte	0x9f
 9302 07c7 00000000 		.4byte	0
 9303 07cb 00000000 		.4byte	0
 9304              	.LLST53:
 9305 07cf EA030000 		.4byte	.LVL100
 9306 07d3 70050000 		.4byte	.LVL150
 9307 07d7 0400     		.2byte	0x4
 9308 07d9 91       		.byte	0x91
 9309 07da 847F     		.sleb128 -124
 9310 07dc 9F       		.byte	0x9f
 9311 07dd 70050000 		.4byte	.LVL150
 9312 07e1 73050000 		.4byte	.LVL151-1
 9313 07e5 0100     		.2byte	0x1
 9314 07e7 50       		.byte	0x50
 9315 07e8 73050000 		.4byte	.LVL151-1
 9316 07ec 88050000 		.4byte	.LVL154
 9317 07f0 0400     		.2byte	0x4
 9318 07f2 91       		.byte	0x91
 9319 07f3 847F     		.sleb128 -124
 9320 07f5 9F       		.byte	0x9f
 9321 07f6 00000000 		.4byte	0
 9322 07fa 00000000 		.4byte	0
ARM GAS  C:\Users\strap\AppData\Local\Temp\ccUgAYbc.s 			page 200


 9323              	.LLST54:
 9324 07fe EC030000 		.4byte	.LVL101
 9325 0802 AE040000 		.4byte	.LVL126
 9326 0806 0100     		.2byte	0x1
 9327 0808 51       		.byte	0x51
 9328 0809 AE040000 		.4byte	.LVL126
 9329 080d B4040000 		.4byte	.LVL129
 9330 0811 0300     		.2byte	0x3
 9331 0813 91       		.byte	0x91
 9332 0814 847F     		.sleb128 -124
 9333 0816 C6040000 		.4byte	.LVL134
 9334 081a EA040000 		.4byte	.LVL143
 9335 081e 0100     		.2byte	0x1
 9336 0820 51       		.byte	0x51
 9337 0821 F4040000 		.4byte	.LVL145
 9338 0825 F6040000 		.4byte	.LVL146
 9339 0829 0100     		.2byte	0x1
 9340 082b 51       		.byte	0x51
 9341 082c F6040000 		.4byte	.LVL146
 9342 0830 05050000 		.4byte	.LVL147-1
 9343 0834 0300     		.2byte	0x3
 9344 0836 91       		.byte	0x91
 9345 0837 847F     		.sleb128 -124
 9346 0839 76050000 		.4byte	.LVL152
 9347 083d 86050000 		.4byte	.LVL153
 9348 0841 0100     		.2byte	0x1
 9349 0843 51       		.byte	0x51
 9350 0844 00000000 		.4byte	0
 9351 0848 00000000 		.4byte	0
 9352              	.LLST55:
 9353 084c F2030000 		.4byte	.LVL102
 9354 0850 1E040000 		.4byte	.LVL105
 9355 0854 0100     		.2byte	0x1
 9356 0856 53       		.byte	0x53
 9357 0857 1E040000 		.4byte	.LVL105
 9358 085b 26040000 		.4byte	.LVL107
 9359 085f 1600     		.2byte	0x16
 9360 0861 91       		.byte	0x91
 9361 0862 A87E     		.sleb128 -216
 9362 0864 06       		.byte	0x6
 9363 0865 76       		.byte	0x76
 9364 0866 00       		.sleb128 0
 9365 0867 22       		.byte	0x22
 9366 0868 40       		.byte	0x40
 9367 0869 24       		.byte	0x24
 9368 086a 40       		.byte	0x40
 9369 086b 26       		.byte	0x26
 9370 086c 91       		.byte	0x91
 9371 086d 8C7F     		.sleb128 -116
 9372 086f 94       		.byte	0x94
 9373 0870 02       		.byte	0x2
 9374 0871 40       		.byte	0x40
 9375 0872 24       		.byte	0x24
 9376 0873 40       		.byte	0x40
 9377 0874 26       		.byte	0x26
 9378 0875 1C       		.byte	0x1c
 9379 0876 9F       		.byte	0x9f
ARM GAS  C:\Users\strap\AppData\Local\Temp\ccUgAYbc.s 			page 201


 9380 0877 26040000 		.4byte	.LVL107
 9381 087b 32040000 		.4byte	.LVL108
 9382 087f 0100     		.2byte	0x1
 9383 0881 53       		.byte	0x53
 9384 0882 32040000 		.4byte	.LVL108
 9385 0886 3C040000 		.4byte	.LVL110
 9386 088a 0500     		.2byte	0x5
 9387 088c 73       		.byte	0x73
 9388 088d 00       		.sleb128 0
 9389 088e 35       		.byte	0x35
 9390 088f 26       		.byte	0x26
 9391 0890 9F       		.byte	0x9f
 9392 0891 3C040000 		.4byte	.LVL110
 9393 0895 46040000 		.4byte	.LVL113
 9394 0899 1D00     		.2byte	0x1d
 9395 089b 91       		.byte	0x91
 9396 089c A87E     		.sleb128 -216
 9397 089e 06       		.byte	0x6
 9398 089f 76       		.byte	0x76
 9399 08a0 00       		.sleb128 0
 9400 08a1 22       		.byte	0x22
 9401 08a2 40       		.byte	0x40
 9402 08a3 24       		.byte	0x24
 9403 08a4 40       		.byte	0x40
 9404 08a5 26       		.byte	0x26
 9405 08a6 91       		.byte	0x91
 9406 08a7 8C7F     		.sleb128 -116
 9407 08a9 94       		.byte	0x94
 9408 08aa 02       		.byte	0x2
 9409 08ab 40       		.byte	0x40
 9410 08ac 24       		.byte	0x24
 9411 08ad 40       		.byte	0x40
 9412 08ae 26       		.byte	0x26
 9413 08af 1C       		.byte	0x1c
 9414 08b0 91       		.byte	0x91
 9415 08b1 BC7F     		.sleb128 -68
 9416 08b3 06       		.byte	0x6
 9417 08b4 1E       		.byte	0x1e
 9418 08b5 35       		.byte	0x35
 9419 08b6 26       		.byte	0x26
 9420 08b7 9F       		.byte	0x9f
 9421 08b8 46040000 		.4byte	.LVL113
 9422 08bc 4C040000 		.4byte	.LVL114
 9423 08c0 0100     		.2byte	0x1
 9424 08c2 53       		.byte	0x53
 9425 08c3 4C040000 		.4byte	.LVL114
 9426 08c7 4E040000 		.4byte	.LVL115
 9427 08cb 1600     		.2byte	0x16
 9428 08cd 91       		.byte	0x91
 9429 08ce A87E     		.sleb128 -216
 9430 08d0 06       		.byte	0x6
 9431 08d1 76       		.byte	0x76
 9432 08d2 00       		.sleb128 0
 9433 08d3 22       		.byte	0x22
 9434 08d4 40       		.byte	0x40
 9435 08d5 24       		.byte	0x24
 9436 08d6 40       		.byte	0x40
ARM GAS  C:\Users\strap\AppData\Local\Temp\ccUgAYbc.s 			page 202


 9437 08d7 26       		.byte	0x26
 9438 08d8 91       		.byte	0x91
 9439 08d9 8C7F     		.sleb128 -116
 9440 08db 94       		.byte	0x94
 9441 08dc 02       		.byte	0x2
 9442 08dd 40       		.byte	0x40
 9443 08de 24       		.byte	0x24
 9444 08df 40       		.byte	0x40
 9445 08e0 26       		.byte	0x26
 9446 08e1 1C       		.byte	0x1c
 9447 08e2 9F       		.byte	0x9f
 9448 08e3 4E040000 		.4byte	.LVL115
 9449 08e7 70040000 		.4byte	.LVL120
 9450 08eb 0100     		.2byte	0x1
 9451 08ed 53       		.byte	0x53
 9452 08ee 70040000 		.4byte	.LVL120
 9453 08f2 76040000 		.4byte	.LVL121
 9454 08f6 1D00     		.2byte	0x1d
 9455 08f8 91       		.byte	0x91
 9456 08f9 A87E     		.sleb128 -216
 9457 08fb 06       		.byte	0x6
 9458 08fc 76       		.byte	0x76
 9459 08fd 00       		.sleb128 0
 9460 08fe 22       		.byte	0x22
 9461 08ff 40       		.byte	0x40
 9462 0900 24       		.byte	0x24
 9463 0901 40       		.byte	0x40
 9464 0902 26       		.byte	0x26
 9465 0903 91       		.byte	0x91
 9466 0904 8C7F     		.sleb128 -116
 9467 0906 94       		.byte	0x94
 9468 0907 02       		.byte	0x2
 9469 0908 40       		.byte	0x40
 9470 0909 24       		.byte	0x24
 9471 090a 40       		.byte	0x40
 9472 090b 26       		.byte	0x26
 9473 090c 1C       		.byte	0x1c
 9474 090d 91       		.byte	0x91
 9475 090e BC7F     		.sleb128 -68
 9476 0910 06       		.byte	0x6
 9477 0911 1E       		.byte	0x1e
 9478 0912 35       		.byte	0x35
 9479 0913 26       		.byte	0x26
 9480 0914 9F       		.byte	0x9f
 9481 0915 00000000 		.4byte	0
 9482 0919 00000000 		.4byte	0
 9483              	.LLST56:
 9484 091d F8030000 		.4byte	.LVL103
 9485 0921 36040000 		.4byte	.LVL109
 9486 0925 0100     		.2byte	0x1
 9487 0927 52       		.byte	0x52
 9488 0928 36040000 		.4byte	.LVL109
 9489 092c 46040000 		.4byte	.LVL113
 9490 0930 0500     		.2byte	0x5
 9491 0932 72       		.byte	0x72
 9492 0933 00       		.sleb128 0
 9493 0934 35       		.byte	0x35
ARM GAS  C:\Users\strap\AppData\Local\Temp\ccUgAYbc.s 			page 203


 9494 0935 26       		.byte	0x26
 9495 0936 9F       		.byte	0x9f
 9496 0937 46040000 		.4byte	.LVL113
 9497 093b 52040000 		.4byte	.LVL116
 9498 093f 0100     		.2byte	0x1
 9499 0941 52       		.byte	0x52
 9500 0942 52040000 		.4byte	.LVL116
 9501 0946 54040000 		.4byte	.LVL117
 9502 094a 1100     		.2byte	0x11
 9503 094c 91       		.byte	0x91
 9504 094d B47E     		.sleb128 -204
 9505 094f 06       		.byte	0x6
 9506 0950 91       		.byte	0x91
 9507 0951 9C7E     		.sleb128 -228
 9508 0953 06       		.byte	0x6
 9509 0954 22       		.byte	0x22
 9510 0955 40       		.byte	0x40
 9511 0956 24       		.byte	0x24
 9512 0957 40       		.byte	0x40
 9513 0958 26       		.byte	0x26
 9514 0959 74       		.byte	0x74
 9515 095a 00       		.sleb128 0
 9516 095b 1C       		.byte	0x1c
 9517 095c 9F       		.byte	0x9f
 9518 095d 54040000 		.4byte	.LVL117
 9519 0961 6C040000 		.4byte	.LVL119
 9520 0965 0100     		.2byte	0x1
 9521 0967 52       		.byte	0x52
 9522 0968 6C040000 		.4byte	.LVL119
 9523 096c 76040000 		.4byte	.LVL121
 9524 0970 1F00     		.2byte	0x1f
 9525 0972 91       		.byte	0x91
 9526 0973 B47E     		.sleb128 -204
 9527 0975 06       		.byte	0x6
 9528 0976 91       		.byte	0x91
 9529 0977 9C7E     		.sleb128 -228
 9530 0979 06       		.byte	0x6
 9531 097a 22       		.byte	0x22
 9532 097b 40       		.byte	0x40
 9533 097c 24       		.byte	0x24
 9534 097d 40       		.byte	0x40
 9535 097e 26       		.byte	0x26
 9536 097f 91       		.byte	0x91
 9537 0980 8E7F     		.sleb128 -114
 9538 0982 94       		.byte	0x94
 9539 0983 02       		.byte	0x2
 9540 0984 40       		.byte	0x40
 9541 0985 24       		.byte	0x24
 9542 0986 40       		.byte	0x40
 9543 0987 26       		.byte	0x26
 9544 0988 1C       		.byte	0x1c
 9545 0989 91       		.byte	0x91
 9546 098a BC7F     		.sleb128 -68
 9547 098c 06       		.byte	0x6
 9548 098d 1E       		.byte	0x1e
 9549 098e 35       		.byte	0x35
 9550 098f 26       		.byte	0x26
ARM GAS  C:\Users\strap\AppData\Local\Temp\ccUgAYbc.s 			page 204


 9551 0990 9F       		.byte	0x9f
 9552 0991 00000000 		.4byte	0
 9553 0995 00000000 		.4byte	0
 9554              	.LLST57:
 9555 0999 16040000 		.4byte	.LVL104
 9556 099d 26040000 		.4byte	.LVL107
 9557 09a1 0100     		.2byte	0x1
 9558 09a3 50       		.byte	0x50
 9559 09a4 3E040000 		.4byte	.LVL111
 9560 09a8 46040000 		.4byte	.LVL113
 9561 09ac 0100     		.2byte	0x1
 9562 09ae 53       		.byte	0x53
 9563 09af 68040000 		.4byte	.LVL118
 9564 09b3 76040000 		.4byte	.LVL121
 9565 09b7 0100     		.2byte	0x1
 9566 09b9 50       		.byte	0x50
 9567 09ba 76040000 		.4byte	.LVL121
 9568 09be 88050000 		.4byte	.LVL154
 9569 09c2 0300     		.2byte	0x3
 9570 09c4 91       		.byte	0x91
 9571 09c5 A07E     		.sleb128 -224
 9572 09c7 00000000 		.4byte	0
 9573 09cb 00000000 		.4byte	0
 9574              	.LLST58:
 9575 09cf 24040000 		.4byte	.LVL106
 9576 09d3 26040000 		.4byte	.LVL107
 9577 09d7 0100     		.2byte	0x1
 9578 09d9 54       		.byte	0x54
 9579 09da 44040000 		.4byte	.LVL112
 9580 09de 46040000 		.4byte	.LVL113
 9581 09e2 0100     		.2byte	0x1
 9582 09e4 54       		.byte	0x54
 9583 09e5 76040000 		.4byte	.LVL121
 9584 09e9 88050000 		.4byte	.LVL154
 9585 09ed 0100     		.2byte	0x1
 9586 09ef 54       		.byte	0x54
 9587 09f0 00000000 		.4byte	0
 9588 09f4 00000000 		.4byte	0
 9589              	.LLST59:
 9590 09f8 7A040000 		.4byte	.LVL122
 9591 09fc 88050000 		.4byte	.LVL154
 9592 0a00 0100     		.2byte	0x1
 9593 0a02 55       		.byte	0x55
 9594 0a03 00000000 		.4byte	0
 9595 0a07 00000000 		.4byte	0
 9596              	.LLST60:
 9597 0a0b 7C040000 		.4byte	.LVL123
 9598 0a0f 88050000 		.4byte	.LVL154
 9599 0a13 0100     		.2byte	0x1
 9600 0a15 57       		.byte	0x57
 9601 0a16 00000000 		.4byte	0
 9602 0a1a 00000000 		.4byte	0
 9603              	.LLST61:
 9604 0a1e A4040000 		.4byte	.LVL124
 9605 0a22 C6040000 		.4byte	.LVL134
 9606 0a26 0200     		.2byte	0x2
 9607 0a28 32       		.byte	0x32
ARM GAS  C:\Users\strap\AppData\Local\Temp\ccUgAYbc.s 			page 205


 9608 0a29 9F       		.byte	0x9f
 9609 0a2a C6040000 		.4byte	.LVL134
 9610 0a2e F4040000 		.4byte	.LVL145
 9611 0a32 0200     		.2byte	0x2
 9612 0a34 33       		.byte	0x33
 9613 0a35 9F       		.byte	0x9f
 9614 0a36 F4040000 		.4byte	.LVL145
 9615 0a3a 1E050000 		.4byte	.LVL149
 9616 0a3e 0200     		.2byte	0x2
 9617 0a40 30       		.byte	0x30
 9618 0a41 9F       		.byte	0x9f
 9619 0a42 1E050000 		.4byte	.LVL149
 9620 0a46 73050000 		.4byte	.LVL151-1
 9621 0a4a 0100     		.2byte	0x1
 9622 0a4c 52       		.byte	0x52
 9623 0a4d 86050000 		.4byte	.LVL153
 9624 0a51 88050000 		.4byte	.LVL154
 9625 0a55 0100     		.2byte	0x1
 9626 0a57 52       		.byte	0x52
 9627 0a58 00000000 		.4byte	0
 9628 0a5c 00000000 		.4byte	0
 9629              	.LLST62:
 9630 0a60 AC040000 		.4byte	.LVL125
 9631 0a64 B2040000 		.4byte	.LVL128
 9632 0a68 0100     		.2byte	0x1
 9633 0a6a 53       		.byte	0x53
 9634 0a6b B2040000 		.4byte	.LVL128
 9635 0a6f C6040000 		.4byte	.LVL134
 9636 0a73 0300     		.2byte	0x3
 9637 0a75 91       		.byte	0x91
 9638 0a76 D87E     		.sleb128 -168
 9639 0a78 D0040000 		.4byte	.LVL135
 9640 0a7c EC040000 		.4byte	.LVL144
 9641 0a80 0100     		.2byte	0x1
 9642 0a82 53       		.byte	0x53
 9643 0a83 EC040000 		.4byte	.LVL144
 9644 0a87 F4040000 		.4byte	.LVL145
 9645 0a8b 0300     		.2byte	0x3
 9646 0a8d 91       		.byte	0x91
 9647 0a8e D87E     		.sleb128 -168
 9648 0a90 F4040000 		.4byte	.LVL145
 9649 0a94 1E050000 		.4byte	.LVL149
 9650 0a98 0200     		.2byte	0x2
 9651 0a9a 30       		.byte	0x30
 9652 0a9b 9F       		.byte	0x9f
 9653 0a9c 1E050000 		.4byte	.LVL149
 9654 0aa0 76050000 		.4byte	.LVL152
 9655 0aa4 0300     		.2byte	0x3
 9656 0aa6 91       		.byte	0x91
 9657 0aa7 D87E     		.sleb128 -168
 9658 0aa9 86050000 		.4byte	.LVL153
 9659 0aad 88050000 		.4byte	.LVL154
 9660 0ab1 0300     		.2byte	0x3
 9661 0ab3 91       		.byte	0x91
 9662 0ab4 D87E     		.sleb128 -168
 9663 0ab6 00000000 		.4byte	0
 9664 0aba 00000000 		.4byte	0
ARM GAS  C:\Users\strap\AppData\Local\Temp\ccUgAYbc.s 			page 206


 9665              	.LLST63:
 9666 0abe 74050000 		.4byte	.LVL151
 9667 0ac2 76050000 		.4byte	.LVL152
 9668 0ac6 0100     		.2byte	0x1
 9669 0ac8 50       		.byte	0x50
 9670 0ac9 00000000 		.4byte	0
 9671 0acd 00000000 		.4byte	0
 9672              	.LLST64:
 9673 0ad1 AE040000 		.4byte	.LVL126
 9674 0ad5 B4040000 		.4byte	.LVL129
 9675 0ad9 0200     		.2byte	0x2
 9676 0adb 32       		.byte	0x32
 9677 0adc 9F       		.byte	0x9f
 9678 0add B4040000 		.4byte	.LVL129
 9679 0ae1 C6040000 		.4byte	.LVL134
 9680 0ae5 0100     		.2byte	0x1
 9681 0ae7 53       		.byte	0x53
 9682 0ae8 00000000 		.4byte	0
 9683 0aec 00000000 		.4byte	0
 9684              	.LLST65:
 9685 0af0 AE040000 		.4byte	.LVL126
 9686 0af4 B4040000 		.4byte	.LVL129
 9687 0af8 0100     		.2byte	0x1
 9688 0afa 51       		.byte	0x51
 9689 0afb 00000000 		.4byte	0
 9690 0aff 00000000 		.4byte	0
 9691              	.LLST66:
 9692 0b03 AE040000 		.4byte	.LVL126
 9693 0b07 B0040000 		.4byte	.LVL127
 9694 0b0b 0400     		.2byte	0x4
 9695 0b0d 91       		.byte	0x91
 9696 0b0e 987F     		.sleb128 -104
 9697 0b10 9F       		.byte	0x9f
 9698 0b11 B0040000 		.4byte	.LVL127
 9699 0b15 B4040000 		.4byte	.LVL129
 9700 0b19 0100     		.2byte	0x1
 9701 0b1b 52       		.byte	0x52
 9702 0b1c B4040000 		.4byte	.LVL129
 9703 0b20 C6040000 		.4byte	.LVL134
 9704 0b24 0400     		.2byte	0x4
 9705 0b26 91       		.byte	0x91
 9706 0b27 987F     		.sleb128 -104
 9707 0b29 9F       		.byte	0x9f
 9708 0b2a 00000000 		.4byte	0
 9709 0b2e 00000000 		.4byte	0
 9710              	.LLST67:
 9711 0b32 AE040000 		.4byte	.LVL126
 9712 0b36 B0040000 		.4byte	.LVL127
 9713 0b3a 0400     		.2byte	0x4
 9714 0b3c 91       		.byte	0x91
 9715 0b3d 987F     		.sleb128 -104
 9716 0b3f 9F       		.byte	0x9f
 9717 0b40 B0040000 		.4byte	.LVL127
 9718 0b44 C4040000 		.4byte	.LVL133
 9719 0b48 0100     		.2byte	0x1
 9720 0b4a 52       		.byte	0x52
 9721 0b4b 00000000 		.4byte	0
ARM GAS  C:\Users\strap\AppData\Local\Temp\ccUgAYbc.s 			page 207


 9722 0b4f 00000000 		.4byte	0
 9723              	.LLST68:
 9724 0b53 AE040000 		.4byte	.LVL126
 9725 0b57 B8040000 		.4byte	.LVL130
 9726 0b5b 0100     		.2byte	0x1
 9727 0b5d 51       		.byte	0x51
 9728 0b5e B8040000 		.4byte	.LVL130
 9729 0b62 BC040000 		.4byte	.LVL131
 9730 0b66 0300     		.2byte	0x3
 9731 0b68 71       		.byte	0x71
 9732 0b69 7F       		.sleb128 -1
 9733 0b6a 9F       		.byte	0x9f
 9734 0b6b BC040000 		.4byte	.LVL131
 9735 0b6f C6040000 		.4byte	.LVL134
 9736 0b73 0100     		.2byte	0x1
 9737 0b75 51       		.byte	0x51
 9738 0b76 00000000 		.4byte	0
 9739 0b7a 00000000 		.4byte	0
 9740              	.LLST69:
 9741 0b7e D4040000 		.4byte	.LVL136
 9742 0b82 DA040000 		.4byte	.LVL138
 9743 0b86 0200     		.2byte	0x2
 9744 0b88 32       		.byte	0x32
 9745 0b89 9F       		.byte	0x9f
 9746 0b8a DA040000 		.4byte	.LVL138
 9747 0b8e E8040000 		.4byte	.LVL142
 9748 0b92 0100     		.2byte	0x1
 9749 0b94 52       		.byte	0x52
 9750 0b95 00000000 		.4byte	0
 9751 0b99 00000000 		.4byte	0
 9752              	.LLST70:
 9753 0b9d D4040000 		.4byte	.LVL136
 9754 0ba1 DA040000 		.4byte	.LVL138
 9755 0ba5 0100     		.2byte	0x1
 9756 0ba7 5E       		.byte	0x5e
 9757 0ba8 DA040000 		.4byte	.LVL138
 9758 0bac E8040000 		.4byte	.LVL142
 9759 0bb0 0600     		.2byte	0x6
 9760 0bb2 71       		.byte	0x71
 9761 0bb3 00       		.sleb128 0
 9762 0bb4 73       		.byte	0x73
 9763 0bb5 00       		.sleb128 0
 9764 0bb6 22       		.byte	0x22
 9765 0bb7 9F       		.byte	0x9f
 9766 0bb8 00000000 		.4byte	0
 9767 0bbc 00000000 		.4byte	0
 9768              	.LLST71:
 9769 0bc0 D4040000 		.4byte	.LVL136
 9770 0bc4 D6040000 		.4byte	.LVL137
 9771 0bc8 0400     		.2byte	0x4
 9772 0bca 91       		.byte	0x91
 9773 0bcb 987F     		.sleb128 -104
 9774 0bcd 9F       		.byte	0x9f
 9775 0bce D6040000 		.4byte	.LVL137
 9776 0bd2 DA040000 		.4byte	.LVL138
 9777 0bd6 0100     		.2byte	0x1
 9778 0bd8 50       		.byte	0x50
ARM GAS  C:\Users\strap\AppData\Local\Temp\ccUgAYbc.s 			page 208


 9779 0bd9 DA040000 		.4byte	.LVL138
 9780 0bdd E8040000 		.4byte	.LVL142
 9781 0be1 0400     		.2byte	0x4
 9782 0be3 91       		.byte	0x91
 9783 0be4 987F     		.sleb128 -104
 9784 0be6 9F       		.byte	0x9f
 9785 0be7 00000000 		.4byte	0
 9786 0beb 00000000 		.4byte	0
 9787              	.LLST72:
 9788 0bef D4040000 		.4byte	.LVL136
 9789 0bf3 D6040000 		.4byte	.LVL137
 9790 0bf7 0400     		.2byte	0x4
 9791 0bf9 91       		.byte	0x91
 9792 0bfa 987F     		.sleb128 -104
 9793 0bfc 9F       		.byte	0x9f
 9794 0bfd D6040000 		.4byte	.LVL137
 9795 0c01 F4040000 		.4byte	.LVL145
 9796 0c05 0100     		.2byte	0x1
 9797 0c07 50       		.byte	0x50
 9798 0c08 00000000 		.4byte	0
 9799 0c0c 00000000 		.4byte	0
 9800              	.LLST73:
 9801 0c10 D4040000 		.4byte	.LVL136
 9802 0c14 DE040000 		.4byte	.LVL139
 9803 0c18 0100     		.2byte	0x1
 9804 0c1a 5E       		.byte	0x5e
 9805 0c1b DE040000 		.4byte	.LVL139
 9806 0c1f E2040000 		.4byte	.LVL140
 9807 0c23 0300     		.2byte	0x3
 9808 0c25 7E       		.byte	0x7e
 9809 0c26 7F       		.sleb128 -1
 9810 0c27 9F       		.byte	0x9f
 9811 0c28 E2040000 		.4byte	.LVL140
 9812 0c2c F4040000 		.4byte	.LVL145
 9813 0c30 0100     		.2byte	0x1
 9814 0c32 5E       		.byte	0x5e
 9815 0c33 00000000 		.4byte	0
 9816 0c37 00000000 		.4byte	0
 9817              	.LLST74:
 9818 0c3b A8050000 		.4byte	.LVL155
 9819 0c3f B2050000 		.4byte	.LVL156
 9820 0c43 0100     		.2byte	0x1
 9821 0c45 53       		.byte	0x53
 9822 0c46 00000000 		.4byte	0
 9823 0c4a 00000000 		.4byte	0
 9824              	.LLST75:
 9825 0c4e E2050000 		.4byte	.LVL158
 9826 0c52 48060000 		.4byte	.LVL161
 9827 0c56 0300     		.2byte	0x3
 9828 0c58 91       		.byte	0x91
 9829 0c59 AC7E     		.sleb128 -212
 9830 0c5b 00000000 		.4byte	0
 9831 0c5f 00000000 		.4byte	0
 9832              	.LLST76:
 9833 0c63 E2050000 		.4byte	.LVL158
 9834 0c67 48060000 		.4byte	.LVL161
 9835 0c6b 0400     		.2byte	0x4
ARM GAS  C:\Users\strap\AppData\Local\Temp\ccUgAYbc.s 			page 209


 9836 0c6d 91       		.byte	0x91
 9837 0c6e F47E     		.sleb128 -140
 9838 0c70 9F       		.byte	0x9f
 9839 0c71 00000000 		.4byte	0
 9840 0c75 00000000 		.4byte	0
 9841              	.LLST77:
 9842 0c79 B2030000 		.4byte	.LVL96
 9843 0c7d AC070000 		.4byte	.LVL200
 9844 0c81 0100     		.2byte	0x1
 9845 0c83 59       		.byte	0x59
 9846 0c84 00000000 		.4byte	0
 9847 0c88 00000000 		.4byte	0
 9848              	.LLST78:
 9849 0c8c 98060000 		.4byte	.LVL169
 9850 0c90 AA060000 		.4byte	.LVL172
 9851 0c94 0100     		.2byte	0x1
 9852 0c96 50       		.byte	0x50
 9853 0c97 B4060000 		.4byte	.LVL174
 9854 0c9b BA060000 		.4byte	.LVL175
 9855 0c9f 0100     		.2byte	0x1
 9856 0ca1 50       		.byte	0x50
 9857 0ca2 00000000 		.4byte	0
 9858 0ca6 00000000 		.4byte	0
 9859              	.LLST79:
 9860 0caa 84060000 		.4byte	.LVL167
 9861 0cae 8C060000 		.4byte	.LVL168
 9862 0cb2 0300     		.2byte	0x3
 9863 0cb4 91       		.byte	0x91
 9864 0cb5 50       		.sleb128 -48
 9865 0cb6 9F       		.byte	0x9f
 9866 0cb7 00000000 		.4byte	0
 9867 0cbb 00000000 		.4byte	0
 9868              	.LLST80:
 9869 0cbf 9A060000 		.4byte	.LVL170
 9870 0cc3 A6060000 		.4byte	.LVL171
 9871 0cc7 0300     		.2byte	0x3
 9872 0cc9 91       		.byte	0x91
 9873 0cca 50       		.sleb128 -48
 9874 0ccb 9F       		.byte	0x9f
 9875 0ccc 00000000 		.4byte	0
 9876 0cd0 00000000 		.4byte	0
 9877              	.LLST81:
 9878 0cd4 C6060000 		.4byte	.LVL176
 9879 0cd8 D4060000 		.4byte	.LVL178
 9880 0cdc 0300     		.2byte	0x3
 9881 0cde 91       		.byte	0x91
 9882 0cdf 50       		.sleb128 -48
 9883 0ce0 9F       		.byte	0x9f
 9884 0ce1 00000000 		.4byte	0
 9885 0ce5 00000000 		.4byte	0
 9886              	.LLST82:
 9887 0ce9 00000000 		.4byte	.LVL201
 9888 0ced 0C000000 		.4byte	.LVL202
 9889 0cf1 0100     		.2byte	0x1
 9890 0cf3 50       		.byte	0x50
 9891 0cf4 0C000000 		.4byte	.LVL202
 9892 0cf8 3C000000 		.4byte	.LVL207
ARM GAS  C:\Users\strap\AppData\Local\Temp\ccUgAYbc.s 			page 210


 9893 0cfc 0100     		.2byte	0x1
 9894 0cfe 54       		.byte	0x54
 9895 0cff 3C000000 		.4byte	.LVL207
 9896 0d03 40000000 		.4byte	.LFE336
 9897 0d07 0400     		.2byte	0x4
 9898 0d09 F3       		.byte	0xf3
 9899 0d0a 01       		.uleb128 0x1
 9900 0d0b 50       		.byte	0x50
 9901 0d0c 9F       		.byte	0x9f
 9902 0d0d 00000000 		.4byte	0
 9903 0d11 00000000 		.4byte	0
 9904              	.LLST83:
 9905 0d15 00000000 		.4byte	.LVL201
 9906 0d19 0F000000 		.4byte	.LVL203-1
 9907 0d1d 0100     		.2byte	0x1
 9908 0d1f 51       		.byte	0x51
 9909 0d20 0F000000 		.4byte	.LVL203-1
 9910 0d24 3C000000 		.4byte	.LVL207
 9911 0d28 0100     		.2byte	0x1
 9912 0d2a 55       		.byte	0x55
 9913 0d2b 3C000000 		.4byte	.LVL207
 9914 0d2f 40000000 		.4byte	.LFE336
 9915 0d33 0400     		.2byte	0x4
 9916 0d35 F3       		.byte	0xf3
 9917 0d36 01       		.uleb128 0x1
 9918 0d37 51       		.byte	0x51
 9919 0d38 9F       		.byte	0x9f
 9920 0d39 00000000 		.4byte	0
 9921 0d3d 00000000 		.4byte	0
 9922              	.LLST84:
 9923 0d41 00000000 		.4byte	.LVL201
 9924 0d45 0F000000 		.4byte	.LVL203-1
 9925 0d49 0100     		.2byte	0x1
 9926 0d4b 52       		.byte	0x52
 9927 0d4c 0F000000 		.4byte	.LVL203-1
 9928 0d50 3C000000 		.4byte	.LVL207
 9929 0d54 0100     		.2byte	0x1
 9930 0d56 56       		.byte	0x56
 9931 0d57 3C000000 		.4byte	.LVL207
 9932 0d5b 40000000 		.4byte	.LFE336
 9933 0d5f 0400     		.2byte	0x4
 9934 0d61 F3       		.byte	0xf3
 9935 0d62 01       		.uleb128 0x1
 9936 0d63 52       		.byte	0x52
 9937 0d64 9F       		.byte	0x9f
 9938 0d65 00000000 		.4byte	0
 9939 0d69 00000000 		.4byte	0
 9940              	.LLST85:
 9941 0d6d 00000000 		.4byte	.LVL208
 9942 0d71 09000000 		.4byte	.LVL209-1
 9943 0d75 0100     		.2byte	0x1
 9944 0d77 50       		.byte	0x50
 9945 0d78 09000000 		.4byte	.LVL209-1
 9946 0d7c 22000000 		.4byte	.LFE328
 9947 0d80 0100     		.2byte	0x1
 9948 0d82 54       		.byte	0x54
 9949 0d83 00000000 		.4byte	0
ARM GAS  C:\Users\strap\AppData\Local\Temp\ccUgAYbc.s 			page 211


 9950 0d87 00000000 		.4byte	0
 9951              	.LLST86:
 9952 0d8b 00000000 		.4byte	.LVL210
 9953 0d8f 02000000 		.4byte	.LVL211
 9954 0d93 0100     		.2byte	0x1
 9955 0d95 50       		.byte	0x50
 9956 0d96 02000000 		.4byte	.LVL211
 9957 0d9a 32000000 		.4byte	.LFE330
 9958 0d9e 0400     		.2byte	0x4
 9959 0da0 F3       		.byte	0xf3
 9960 0da1 01       		.uleb128 0x1
 9961 0da2 50       		.byte	0x50
 9962 0da3 9F       		.byte	0x9f
 9963 0da4 00000000 		.4byte	0
 9964 0da8 00000000 		.4byte	0
 9965              	.LLST87:
 9966 0dac 00000000 		.4byte	.LVL210
 9967 0db0 1A000000 		.4byte	.LVL212
 9968 0db4 0200     		.2byte	0x2
 9969 0db6 30       		.byte	0x30
 9970 0db7 9F       		.byte	0x9f
 9971 0db8 1A000000 		.4byte	.LVL212
 9972 0dbc 1E000000 		.4byte	.LVL213
 9973 0dc0 0200     		.2byte	0x2
 9974 0dc2 48       		.byte	0x48
 9975 0dc3 9F       		.byte	0x9f
 9976 0dc4 1E000000 		.4byte	.LVL213
 9977 0dc8 22000000 		.4byte	.LVL214
 9978 0dcc 0200     		.2byte	0x2
 9979 0dce 31       		.byte	0x31
 9980 0dcf 9F       		.byte	0x9f
 9981 0dd0 22000000 		.4byte	.LVL214
 9982 0dd4 26000000 		.4byte	.LVL215
 9983 0dd8 0200     		.2byte	0x2
 9984 0dda 32       		.byte	0x32
 9985 0ddb 9F       		.byte	0x9f
 9986 0ddc 26000000 		.4byte	.LVL215
 9987 0de0 2A000000 		.4byte	.LVL216
 9988 0de4 0200     		.2byte	0x2
 9989 0de6 34       		.byte	0x34
 9990 0de7 9F       		.byte	0x9f
 9991 0de8 2A000000 		.4byte	.LVL216
 9992 0dec 2E000000 		.4byte	.LVL217
 9993 0df0 0200     		.2byte	0x2
 9994 0df2 38       		.byte	0x38
 9995 0df3 9F       		.byte	0x9f
 9996 0df4 2E000000 		.4byte	.LVL217
 9997 0df8 30000000 		.4byte	.LVL218
 9998 0dfc 0200     		.2byte	0x2
 9999 0dfe 30       		.byte	0x30
 10000 0dff 9F       		.byte	0x9f
 10001 0e00 30000000 		.4byte	.LVL218
 10002 0e04 32000000 		.4byte	.LFE330
 10003 0e08 0100     		.2byte	0x1
 10004 0e0a 50       		.byte	0x50
 10005 0e0b 00000000 		.4byte	0
 10006 0e0f 00000000 		.4byte	0
ARM GAS  C:\Users\strap\AppData\Local\Temp\ccUgAYbc.s 			page 212


 10007              	.LLST88:
 10008 0e13 00000000 		.4byte	.LVL219
 10009 0e17 08000000 		.4byte	.LVL220
 10010 0e1b 0100     		.2byte	0x1
 10011 0e1d 50       		.byte	0x50
 10012 0e1e 08000000 		.4byte	.LVL220
 10013 0e22 14000000 		.4byte	.LFE331
 10014 0e26 0400     		.2byte	0x4
 10015 0e28 F3       		.byte	0xf3
 10016 0e29 01       		.uleb128 0x1
 10017 0e2a 50       		.byte	0x50
 10018 0e2b 9F       		.byte	0x9f
 10019 0e2c 00000000 		.4byte	0
 10020 0e30 00000000 		.4byte	0
 10021              	.LLST89:
 10022 0e34 00000000 		.4byte	.LVL219
 10023 0e38 12000000 		.4byte	.LVL221
 10024 0e3c 0200     		.2byte	0x2
 10025 0e3e 30       		.byte	0x30
 10026 0e3f 9F       		.byte	0x9f
 10027 0e40 12000000 		.4byte	.LVL221
 10028 0e44 14000000 		.4byte	.LFE331
 10029 0e48 0100     		.2byte	0x1
 10030 0e4a 50       		.byte	0x50
 10031 0e4b 00000000 		.4byte	0
 10032 0e4f 00000000 		.4byte	0
 10033              	.LLST90:
 10034 0e53 00000000 		.4byte	.LVL222
 10035 0e57 02000000 		.4byte	.LVL223
 10036 0e5b 0100     		.2byte	0x1
 10037 0e5d 50       		.byte	0x50
 10038 0e5e 02000000 		.4byte	.LVL223
 10039 0e62 20000000 		.4byte	.LFE332
 10040 0e66 0400     		.2byte	0x4
 10041 0e68 F3       		.byte	0xf3
 10042 0e69 01       		.uleb128 0x1
 10043 0e6a 50       		.byte	0x50
 10044 0e6b 9F       		.byte	0x9f
 10045 0e6c 00000000 		.4byte	0
 10046 0e70 00000000 		.4byte	0
 10047              	.LLST91:
 10048 0e74 00000000 		.4byte	.LVL222
 10049 0e78 1E000000 		.4byte	.LVL224
 10050 0e7c 0200     		.2byte	0x2
 10051 0e7e 30       		.byte	0x30
 10052 0e7f 9F       		.byte	0x9f
 10053 0e80 1E000000 		.4byte	.LVL224
 10054 0e84 20000000 		.4byte	.LFE332
 10055 0e88 0100     		.2byte	0x1
 10056 0e8a 50       		.byte	0x50
 10057 0e8b 00000000 		.4byte	0
 10058 0e8f 00000000 		.4byte	0
 10059              	.LLST92:
 10060 0e93 00000000 		.4byte	.LVL225
 10061 0e97 18000000 		.4byte	.LVL227
 10062 0e9b 0100     		.2byte	0x1
 10063 0e9d 50       		.byte	0x50
ARM GAS  C:\Users\strap\AppData\Local\Temp\ccUgAYbc.s 			page 213


 10064 0e9e 18000000 		.4byte	.LVL227
 10065 0ea2 50010000 		.4byte	.LVL271
 10066 0ea6 0100     		.2byte	0x1
 10067 0ea8 55       		.byte	0x55
 10068 0ea9 50010000 		.4byte	.LVL271
 10069 0ead D2010000 		.4byte	.LVL289
 10070 0eb1 0400     		.2byte	0x4
 10071 0eb3 F3       		.byte	0xf3
 10072 0eb4 01       		.uleb128 0x1
 10073 0eb5 50       		.byte	0x50
 10074 0eb6 9F       		.byte	0x9f
 10075 0eb7 D2010000 		.4byte	.LVL289
 10076 0ebb D6010000 		.4byte	.LVL291
 10077 0ebf 0100     		.2byte	0x1
 10078 0ec1 55       		.byte	0x55
 10079 0ec2 D6010000 		.4byte	.LVL291
 10080 0ec6 D8010000 		.4byte	.LVL292
 10081 0eca 0100     		.2byte	0x1
 10082 0ecc 50       		.byte	0x50
 10083 0ecd D8010000 		.4byte	.LVL292
 10084 0ed1 DA010000 		.4byte	.LVL293
 10085 0ed5 0400     		.2byte	0x4
 10086 0ed7 F3       		.byte	0xf3
 10087 0ed8 01       		.uleb128 0x1
 10088 0ed9 50       		.byte	0x50
 10089 0eda 9F       		.byte	0x9f
 10090 0edb DA010000 		.4byte	.LVL293
 10091 0edf DC010000 		.4byte	.LVL294
 10092 0ee3 0100     		.2byte	0x1
 10093 0ee5 55       		.byte	0x55
 10094 0ee6 DC010000 		.4byte	.LVL294
 10095 0eea E2010000 		.4byte	.LFE334
 10096 0eee 0400     		.2byte	0x4
 10097 0ef0 F3       		.byte	0xf3
 10098 0ef1 01       		.uleb128 0x1
 10099 0ef2 50       		.byte	0x50
 10100 0ef3 9F       		.byte	0x9f
 10101 0ef4 00000000 		.4byte	0
 10102 0ef8 00000000 		.4byte	0
 10103              	.LLST93:
 10104 0efc 00000000 		.4byte	.LVL225
 10105 0f00 16000000 		.4byte	.LVL226
 10106 0f04 0100     		.2byte	0x1
 10107 0f06 51       		.byte	0x51
 10108 0f07 16000000 		.4byte	.LVL226
 10109 0f0b D6010000 		.4byte	.LVL291
 10110 0f0f 0100     		.2byte	0x1
 10111 0f11 56       		.byte	0x56
 10112 0f12 D6010000 		.4byte	.LVL291
 10113 0f16 DA010000 		.4byte	.LVL293
 10114 0f1a 0100     		.2byte	0x1
 10115 0f1c 51       		.byte	0x51
 10116 0f1d DA010000 		.4byte	.LVL293
 10117 0f21 DC010000 		.4byte	.LVL294
 10118 0f25 0100     		.2byte	0x1
 10119 0f27 56       		.byte	0x56
 10120 0f28 DC010000 		.4byte	.LVL294
ARM GAS  C:\Users\strap\AppData\Local\Temp\ccUgAYbc.s 			page 214


 10121 0f2c E2010000 		.4byte	.LFE334
 10122 0f30 0400     		.2byte	0x4
 10123 0f32 F3       		.byte	0xf3
 10124 0f33 01       		.uleb128 0x1
 10125 0f34 51       		.byte	0x51
 10126 0f35 9F       		.byte	0x9f
 10127 0f36 00000000 		.4byte	0
 10128 0f3a 00000000 		.4byte	0
 10129              	.LLST94:
 10130 0f3e 00000000 		.4byte	.LVL225
 10131 0f42 1B000000 		.4byte	.LVL228-1
 10132 0f46 0100     		.2byte	0x1
 10133 0f48 52       		.byte	0x52
 10134 0f49 1B000000 		.4byte	.LVL228-1
 10135 0f4d D6010000 		.4byte	.LVL291
 10136 0f51 0400     		.2byte	0x4
 10137 0f53 F3       		.byte	0xf3
 10138 0f54 01       		.uleb128 0x1
 10139 0f55 52       		.byte	0x52
 10140 0f56 9F       		.byte	0x9f
 10141 0f57 D6010000 		.4byte	.LVL291
 10142 0f5b DA010000 		.4byte	.LVL293
 10143 0f5f 0100     		.2byte	0x1
 10144 0f61 52       		.byte	0x52
 10145 0f62 DA010000 		.4byte	.LVL293
 10146 0f66 E2010000 		.4byte	.LFE334
 10147 0f6a 0400     		.2byte	0x4
 10148 0f6c F3       		.byte	0xf3
 10149 0f6d 01       		.uleb128 0x1
 10150 0f6e 52       		.byte	0x52
 10151 0f6f 9F       		.byte	0x9f
 10152 0f70 00000000 		.4byte	0
 10153 0f74 00000000 		.4byte	0
 10154              	.LLST95:
 10155 0f78 00000000 		.4byte	.LVL225
 10156 0f7c 1B000000 		.4byte	.LVL228-1
 10157 0f80 0100     		.2byte	0x1
 10158 0f82 53       		.byte	0x53
 10159 0f83 1B000000 		.4byte	.LVL228-1
 10160 0f87 5C010000 		.4byte	.LVL274
 10161 0f8b 0100     		.2byte	0x1
 10162 0f8d 54       		.byte	0x54
 10163 0f8e 5C010000 		.4byte	.LVL274
 10164 0f92 D2010000 		.4byte	.LVL289
 10165 0f96 0300     		.2byte	0x3
 10166 0f98 91       		.byte	0x91
 10167 0f99 B87F     		.sleb128 -72
 10168 0f9b D2010000 		.4byte	.LVL289
 10169 0f9f D6010000 		.4byte	.LVL291
 10170 0fa3 0100     		.2byte	0x1
 10171 0fa5 54       		.byte	0x54
 10172 0fa6 D6010000 		.4byte	.LVL291
 10173 0faa DA010000 		.4byte	.LVL293
 10174 0fae 0100     		.2byte	0x1
 10175 0fb0 53       		.byte	0x53
 10176 0fb1 DA010000 		.4byte	.LVL293
 10177 0fb5 DC010000 		.4byte	.LVL294
ARM GAS  C:\Users\strap\AppData\Local\Temp\ccUgAYbc.s 			page 215


 10178 0fb9 0100     		.2byte	0x1
 10179 0fbb 54       		.byte	0x54
 10180 0fbc DC010000 		.4byte	.LVL294
 10181 0fc0 E2010000 		.4byte	.LFE334
 10182 0fc4 0400     		.2byte	0x4
 10183 0fc6 F3       		.byte	0xf3
 10184 0fc7 01       		.uleb128 0x1
 10185 0fc8 53       		.byte	0x53
 10186 0fc9 9F       		.byte	0x9f
 10187 0fca 00000000 		.4byte	0
 10188 0fce 00000000 		.4byte	0
 10189              	.LLST96:
 10190 0fd2 1C000000 		.4byte	.LVL228
 10191 0fd6 2E000000 		.4byte	.LVL229
 10192 0fda 0100     		.2byte	0x1
 10193 0fdc 50       		.byte	0x50
 10194 0fdd 2E000000 		.4byte	.LVL229
 10195 0fe1 58010000 		.4byte	.LVL273
 10196 0fe5 0100     		.2byte	0x1
 10197 0fe7 57       		.byte	0x57
 10198 0fe8 58010000 		.4byte	.LVL273
 10199 0fec D2010000 		.4byte	.LVL289
 10200 0ff0 0300     		.2byte	0x3
 10201 0ff2 91       		.byte	0x91
 10202 0ff3 B07F     		.sleb128 -80
 10203 0ff5 D2010000 		.4byte	.LVL289
 10204 0ff9 D6010000 		.4byte	.LVL291
 10205 0ffd 0100     		.2byte	0x1
 10206 0fff 57       		.byte	0x57
 10207 1000 DA010000 		.4byte	.LVL293
 10208 1004 DC010000 		.4byte	.LVL294
 10209 1008 0100     		.2byte	0x1
 10210 100a 50       		.byte	0x50
 10211 100b 00000000 		.4byte	0
 10212 100f 00000000 		.4byte	0
 10213              	.LLST97:
 10214 1013 34000000 		.4byte	.LVL231
 10215 1017 5E010000 		.4byte	.LVL275
 10216 101b 0100     		.2byte	0x1
 10217 101d 58       		.byte	0x58
 10218 101e D2010000 		.4byte	.LVL289
 10219 1022 D6010000 		.4byte	.LVL291
 10220 1026 0100     		.2byte	0x1
 10221 1028 58       		.byte	0x58
 10222 1029 00000000 		.4byte	0
 10223 102d 00000000 		.4byte	0
 10224              	.LLST98:
 10225 1031 3C000000 		.4byte	.LVL233
 10226 1035 D6010000 		.4byte	.LVL291
 10227 1039 0100     		.2byte	0x1
 10228 103b 59       		.byte	0x59
 10229 103c 00000000 		.4byte	0
 10230 1040 00000000 		.4byte	0
 10231              	.LLST99:
 10232 1044 DA000000 		.4byte	.LVL250
 10233 1048 DE000000 		.4byte	.LVL251
 10234 104c 0100     		.2byte	0x1
ARM GAS  C:\Users\strap\AppData\Local\Temp\ccUgAYbc.s 			page 216


 10235 104e 50       		.byte	0x50
 10236 104f E0000000 		.4byte	.LVL252
 10237 1053 F0000000 		.4byte	.LVL253
 10238 1057 0100     		.2byte	0x1
 10239 1059 50       		.byte	0x50
 10240 105a 00000000 		.4byte	0
 10241 105e 00000000 		.4byte	0
 10242              	.LLST100:
 10243 1062 52000000 		.4byte	.LVL235
 10244 1066 5E000000 		.4byte	.LVL239
 10245 106a 0100     		.2byte	0x1
 10246 106c 53       		.byte	0x53
 10247 106d 64000000 		.4byte	.LVL240
 10248 1071 68000000 		.4byte	.LVL241
 10249 1075 0100     		.2byte	0x1
 10250 1077 53       		.byte	0x53
 10251 1078 00000000 		.4byte	0
 10252 107c 00000000 		.4byte	0
 10253              	.LLST101:
 10254 1080 52000000 		.4byte	.LVL235
 10255 1084 5E000000 		.4byte	.LVL239
 10256 1088 0100     		.2byte	0x1
 10257 108a 52       		.byte	0x52
 10258 108b 64000000 		.4byte	.LVL240
 10259 108f 6E000000 		.4byte	.LVL242
 10260 1093 0100     		.2byte	0x1
 10261 1095 52       		.byte	0x52
 10262 1096 00000000 		.4byte	0
 10263 109a 00000000 		.4byte	0
 10264              	.LLST102:
 10265 109e 52000000 		.4byte	.LVL235
 10266 10a2 56000000 		.4byte	.LVL236
 10267 10a6 0100     		.2byte	0x1
 10268 10a8 51       		.byte	0x51
 10269 10a9 56000000 		.4byte	.LVL236
 10270 10ad 5A000000 		.4byte	.LVL237
 10271 10b1 0300     		.2byte	0x3
 10272 10b3 71       		.byte	0x71
 10273 10b4 7F       		.sleb128 -1
 10274 10b5 9F       		.byte	0x9f
 10275 10b6 5A000000 		.4byte	.LVL237
 10276 10ba 5E000000 		.4byte	.LVL239
 10277 10be 0100     		.2byte	0x1
 10278 10c0 51       		.byte	0x51
 10279 10c1 64000000 		.4byte	.LVL240
 10280 10c5 7C000000 		.4byte	.LVL244
 10281 10c9 0100     		.2byte	0x1
 10282 10cb 51       		.byte	0x51
 10283 10cc 00000000 		.4byte	0
 10284 10d0 00000000 		.4byte	0
 10285              	.LLST103:
 10286 10d4 80000000 		.4byte	.LVL245
 10287 10d8 9A000000 		.4byte	.LVL248
 10288 10dc 0700     		.2byte	0x7
 10289 10de 71       		.byte	0x71
 10290 10df 00       		.sleb128 0
 10291 10e0 40       		.byte	0x40
ARM GAS  C:\Users\strap\AppData\Local\Temp\ccUgAYbc.s 			page 217


 10292 10e1 24       		.byte	0x24
 10293 10e2 40       		.byte	0x40
 10294 10e3 26       		.byte	0x26
 10295 10e4 9F       		.byte	0x9f
 10296 10e5 9A000000 		.4byte	.LVL248
 10297 10e9 9F000000 		.4byte	.LVL249-1
 10298 10ed 0100     		.2byte	0x1
 10299 10ef 51       		.byte	0x51
 10300 10f0 00000000 		.4byte	0
 10301 10f4 00000000 		.4byte	0
 10302              	.LLST104:
 10303 10f8 8C000000 		.4byte	.LVL246
 10304 10fc 98000000 		.4byte	.LVL247
 10305 1100 0700     		.2byte	0x7
 10306 1102 72       		.byte	0x72
 10307 1103 00       		.sleb128 0
 10308 1104 40       		.byte	0x40
 10309 1105 24       		.byte	0x24
 10310 1106 40       		.byte	0x40
 10311 1107 26       		.byte	0x26
 10312 1108 9F       		.byte	0x9f
 10313 1109 98000000 		.4byte	.LVL247
 10314 110d 9F000000 		.4byte	.LVL249-1
 10315 1111 0100     		.2byte	0x1
 10316 1113 52       		.byte	0x52
 10317 1114 00000000 		.4byte	0
 10318 1118 00000000 		.4byte	0
 10319              	.LLST105:
 10320 111c 74000000 		.4byte	.LVL243
 10321 1120 80000000 		.4byte	.LVL245
 10322 1124 0100     		.2byte	0x1
 10323 1126 55       		.byte	0x55
 10324 1127 00000000 		.4byte	0
 10325 112b 00000000 		.4byte	0
 10326              	.LLST106:
 10327 112f 80000000 		.4byte	.LVL245
 10328 1133 8C000000 		.4byte	.LVL246
 10329 1137 0100     		.2byte	0x1
 10330 1139 55       		.byte	0x55
 10331 113a 00000000 		.4byte	0
 10332 113e 00000000 		.4byte	0
 10333              	.LLST107:
 10334 1142 02010000 		.4byte	.LVL255
 10335 1146 1E010000 		.4byte	.LVL258
 10336 114a 0100     		.2byte	0x1
 10337 114c 50       		.byte	0x50
 10338 114d 6A010000 		.4byte	.LVL277
 10339 1151 6E010000 		.4byte	.LVL278
 10340 1155 0100     		.2byte	0x1
 10341 1157 50       		.byte	0x50
 10342 1158 D2010000 		.4byte	.LVL289
 10343 115c D4010000 		.4byte	.LVL290
 10344 1160 0100     		.2byte	0x1
 10345 1162 50       		.byte	0x50
 10346 1163 00000000 		.4byte	0
 10347 1167 00000000 		.4byte	0
 10348              	.LLST108:
ARM GAS  C:\Users\strap\AppData\Local\Temp\ccUgAYbc.s 			page 218


 10349 116b 1A010000 		.4byte	.LVL257
 10350 116f 21010000 		.4byte	.LVL259-1
 10351 1173 0700     		.2byte	0x7
 10352 1175 73       		.byte	0x73
 10353 1176 00       		.sleb128 0
 10354 1177 40       		.byte	0x40
 10355 1178 24       		.byte	0x24
 10356 1179 40       		.byte	0x40
 10357 117a 26       		.byte	0x26
 10358 117b 9F       		.byte	0x9f
 10359 117c 21010000 		.4byte	.LVL259-1
 10360 1180 D2010000 		.4byte	.LVL289
 10361 1184 0A00     		.2byte	0xa
 10362 1186 91       		.byte	0x91
 10363 1187 AC7F     		.sleb128 -84
 10364 1189 94       		.byte	0x94
 10365 118a 02       		.byte	0x2
 10366 118b 40       		.byte	0x40
 10367 118c 24       		.byte	0x24
 10368 118d 40       		.byte	0x40
 10369 118e 26       		.byte	0x26
 10370 118f 9F       		.byte	0x9f
 10371 1190 00000000 		.4byte	0
 10372 1194 00000000 		.4byte	0
 10373              	.LLST109:
 10374 1198 24010000 		.4byte	.LVL260
 10375 119c 3C010000 		.4byte	.LVL267
 10376 11a0 0100     		.2byte	0x1
 10377 11a2 50       		.byte	0x50
 10378 11a3 3C010000 		.4byte	.LVL267
 10379 11a7 D2010000 		.4byte	.LVL289
 10380 11ab 0300     		.2byte	0x3
 10381 11ad 91       		.byte	0x91
 10382 11ae BC7F     		.sleb128 -68
 10383 11b0 00000000 		.4byte	0
 10384 11b4 00000000 		.4byte	0
 10385              	.LLST110:
 10386 11b8 48010000 		.4byte	.LVL269
 10387 11bc 60010000 		.4byte	.LVL276
 10388 11c0 0E00     		.2byte	0xe
 10389 11c2 73       		.byte	0x73
 10390 11c3 00       		.sleb128 0
 10391 11c4 40       		.byte	0x40
 10392 11c5 24       		.byte	0x24
 10393 11c6 40       		.byte	0x40
 10394 11c7 26       		.byte	0x26
 10395 11c8 7B       		.byte	0x7b
 10396 11c9 00       		.sleb128 0
 10397 11ca 40       		.byte	0x40
 10398 11cb 24       		.byte	0x24
 10399 11cc 40       		.byte	0x40
 10400 11cd 26       		.byte	0x26
 10401 11ce 1C       		.byte	0x1c
 10402 11cf 9F       		.byte	0x9f
 10403 11d0 60010000 		.4byte	.LVL276
 10404 11d4 D2010000 		.4byte	.LVL289
 10405 11d8 0E00     		.2byte	0xe
ARM GAS  C:\Users\strap\AppData\Local\Temp\ccUgAYbc.s 			page 219


 10406 11da 78       		.byte	0x78
 10407 11db 00       		.sleb128 0
 10408 11dc 40       		.byte	0x40
 10409 11dd 24       		.byte	0x24
 10410 11de 40       		.byte	0x40
 10411 11df 26       		.byte	0x26
 10412 11e0 7B       		.byte	0x7b
 10413 11e1 00       		.sleb128 0
 10414 11e2 40       		.byte	0x40
 10415 11e3 24       		.byte	0x24
 10416 11e4 40       		.byte	0x40
 10417 11e5 26       		.byte	0x26
 10418 11e6 1C       		.byte	0x1c
 10419 11e7 9F       		.byte	0x9f
 10420 11e8 00000000 		.4byte	0
 10421 11ec 00000000 		.4byte	0
 10422              	.LLST111:
 10423 11f0 54010000 		.4byte	.LVL272
 10424 11f4 D2010000 		.4byte	.LVL289
 10425 11f8 0100     		.2byte	0x1
 10426 11fa 55       		.byte	0x55
 10427 11fb 00000000 		.4byte	0
 10428 11ff 00000000 		.4byte	0
 10429              	.LLST112:
 10430 1203 54010000 		.4byte	.LVL272
 10431 1207 D2010000 		.4byte	.LVL289
 10432 120b 0100     		.2byte	0x1
 10433 120d 5A       		.byte	0x5a
 10434 120e 00000000 		.4byte	0
 10435 1212 00000000 		.4byte	0
 10436              	.LLST113:
 10437 1216 80010000 		.4byte	.LVL279
 10438 121a 86010000 		.4byte	.LVL280
 10439 121e 0100     		.2byte	0x1
 10440 1220 50       		.byte	0x50
 10441 1221 94010000 		.4byte	.LVL283
 10442 1225 A2010000 		.4byte	.LVL284
 10443 1229 0100     		.2byte	0x1
 10444 122b 50       		.byte	0x50
 10445 122c 00000000 		.4byte	0
 10446 1230 00000000 		.4byte	0
 10447              	.LLST114:
 10448 1234 06010000 		.4byte	.LVL256
 10449 1238 1A010000 		.4byte	.LVL257
 10450 123c 0300     		.2byte	0x3
 10451 123e 91       		.byte	0x91
 10452 123f 40       		.sleb128 -64
 10453 1240 9F       		.byte	0x9f
 10454 1241 00000000 		.4byte	0
 10455 1245 00000000 		.4byte	0
 10456              	.LLST115:
 10457 1249 24010000 		.4byte	.LVL260
 10458 124d 38010000 		.4byte	.LVL266
 10459 1251 0300     		.2byte	0x3
 10460 1253 91       		.byte	0x91
 10461 1254 40       		.sleb128 -64
 10462 1255 9F       		.byte	0x9f
ARM GAS  C:\Users\strap\AppData\Local\Temp\ccUgAYbc.s 			page 220


 10463 1256 00000000 		.4byte	0
 10464 125a 00000000 		.4byte	0
 10465              	.LLST116:
 10466 125e 24010000 		.4byte	.LVL260
 10467 1262 26010000 		.4byte	.LVL261
 10468 1266 0300     		.2byte	0x3
 10469 1268 91       		.byte	0x91
 10470 1269 48       		.sleb128 -56
 10471 126a 9F       		.byte	0x9f
 10472 126b 26010000 		.4byte	.LVL261
 10473 126f 2A010000 		.4byte	.LVL262
 10474 1273 0100     		.2byte	0x1
 10475 1275 52       		.byte	0x52
 10476 1276 2A010000 		.4byte	.LVL262
 10477 127a 38010000 		.4byte	.LVL266
 10478 127e 0300     		.2byte	0x3
 10479 1280 91       		.byte	0x91
 10480 1281 48       		.sleb128 -56
 10481 1282 9F       		.byte	0x9f
 10482 1283 00000000 		.4byte	0
 10483 1287 00000000 		.4byte	0
 10484              	.LLST117:
 10485 128b 2A010000 		.4byte	.LVL262
 10486 128f 38010000 		.4byte	.LVL266
 10487 1293 0100     		.2byte	0x1
 10488 1295 53       		.byte	0x53
 10489 1296 00000000 		.4byte	0
 10490 129a 00000000 		.4byte	0
 10491              	.LLST118:
 10492 129e 2A010000 		.4byte	.LVL262
 10493 12a2 3F010000 		.4byte	.LVL268-1
 10494 12a6 0100     		.2byte	0x1
 10495 12a8 52       		.byte	0x52
 10496 12a9 00000000 		.4byte	0
 10497 12ad 00000000 		.4byte	0
 10498              	.LLST119:
 10499 12b1 2A010000 		.4byte	.LVL262
 10500 12b5 2E010000 		.4byte	.LVL263
 10501 12b9 0100     		.2byte	0x1
 10502 12bb 5A       		.byte	0x5a
 10503 12bc 2E010000 		.4byte	.LVL263
 10504 12c0 32010000 		.4byte	.LVL264
 10505 12c4 0300     		.2byte	0x3
 10506 12c6 7A       		.byte	0x7a
 10507 12c7 7F       		.sleb128 -1
 10508 12c8 9F       		.byte	0x9f
 10509 12c9 32010000 		.4byte	.LVL264
 10510 12cd 4C010000 		.4byte	.LVL270
 10511 12d1 0100     		.2byte	0x1
 10512 12d3 5A       		.byte	0x5a
 10513 12d4 00000000 		.4byte	0
 10514 12d8 00000000 		.4byte	0
 10515              	.LLST120:
 10516 12dc 00000000 		.4byte	.LVL295
 10517 12e0 0D000000 		.4byte	.LVL297-1
 10518 12e4 0100     		.2byte	0x1
 10519 12e6 50       		.byte	0x50
ARM GAS  C:\Users\strap\AppData\Local\Temp\ccUgAYbc.s 			page 221


 10520 12e7 0D000000 		.4byte	.LVL297-1
 10521 12eb 10000000 		.4byte	.LVL298
 10522 12ef 0100     		.2byte	0x1
 10523 12f1 54       		.byte	0x54
 10524 12f2 10000000 		.4byte	.LVL298
 10525 12f6 1F000000 		.4byte	.LVL302-1
 10526 12fa 0100     		.2byte	0x1
 10527 12fc 50       		.byte	0x50
 10528 12fd 1F000000 		.4byte	.LVL302-1
 10529 1301 2E000000 		.4byte	.LVL305
 10530 1305 0100     		.2byte	0x1
 10531 1307 54       		.byte	0x54
 10532 1308 2E000000 		.4byte	.LVL305
 10533 130c 34000000 		.4byte	.LFE329
 10534 1310 0400     		.2byte	0x4
 10535 1312 F3       		.byte	0xf3
 10536 1313 01       		.uleb128 0x1
 10537 1314 50       		.byte	0x50
 10538 1315 9F       		.byte	0x9f
 10539 1316 00000000 		.4byte	0
 10540 131a 00000000 		.4byte	0
 10541              	.LLST121:
 10542 131e 00000000 		.4byte	.LVL295
 10543 1322 0D000000 		.4byte	.LVL297-1
 10544 1326 0100     		.2byte	0x1
 10545 1328 51       		.byte	0x51
 10546 1329 0D000000 		.4byte	.LVL297-1
 10547 132d 10000000 		.4byte	.LVL298
 10548 1331 0100     		.2byte	0x1
 10549 1333 55       		.byte	0x55
 10550 1334 10000000 		.4byte	.LVL298
 10551 1338 12000000 		.4byte	.LVL299
 10552 133c 0100     		.2byte	0x1
 10553 133e 51       		.byte	0x51
 10554 133f 12000000 		.4byte	.LVL299
 10555 1343 2E000000 		.4byte	.LVL305
 10556 1347 0100     		.2byte	0x1
 10557 1349 55       		.byte	0x55
 10558 134a 2E000000 		.4byte	.LVL305
 10559 134e 34000000 		.4byte	.LFE329
 10560 1352 0400     		.2byte	0x4
 10561 1354 F3       		.byte	0xf3
 10562 1355 01       		.uleb128 0x1
 10563 1356 51       		.byte	0x51
 10564 1357 9F       		.byte	0x9f
 10565 1358 00000000 		.4byte	0
 10566 135c 00000000 		.4byte	0
 10567              	.LLST122:
 10568 1360 00000000 		.4byte	.LVL295
 10569 1364 0A000000 		.4byte	.LVL296
 10570 1368 0100     		.2byte	0x1
 10571 136a 52       		.byte	0x52
 10572 136b 0A000000 		.4byte	.LVL296
 10573 136f 10000000 		.4byte	.LVL298
 10574 1373 0400     		.2byte	0x4
 10575 1375 F3       		.byte	0xf3
 10576 1376 01       		.uleb128 0x1
ARM GAS  C:\Users\strap\AppData\Local\Temp\ccUgAYbc.s 			page 222


 10577 1377 52       		.byte	0x52
 10578 1378 9F       		.byte	0x9f
 10579 1379 10000000 		.4byte	.LVL298
 10580 137d 14000000 		.4byte	.LVL300
 10581 1381 0100     		.2byte	0x1
 10582 1383 52       		.byte	0x52
 10583 1384 14000000 		.4byte	.LVL300
 10584 1388 1C000000 		.4byte	.LVL301
 10585 138c 0100     		.2byte	0x1
 10586 138e 51       		.byte	0x51
 10587 138f 1C000000 		.4byte	.LVL301
 10588 1393 1F000000 		.4byte	.LVL302-1
 10589 1397 0100     		.2byte	0x1
 10590 1399 52       		.byte	0x52
 10591 139a 1F000000 		.4byte	.LVL302-1
 10592 139e 34000000 		.4byte	.LFE329
 10593 13a2 0400     		.2byte	0x4
 10594 13a4 F3       		.byte	0xf3
 10595 13a5 01       		.uleb128 0x1
 10596 13a6 52       		.byte	0x52
 10597 13a7 9F       		.byte	0x9f
 10598 13a8 00000000 		.4byte	0
 10599 13ac 00000000 		.4byte	0
 10600              	.LLST123:
 10601 13b0 00000000 		.4byte	.LVL295
 10602 13b4 0D000000 		.4byte	.LVL297-1
 10603 13b8 0100     		.2byte	0x1
 10604 13ba 53       		.byte	0x53
 10605 13bb 0D000000 		.4byte	.LVL297-1
 10606 13bf 10000000 		.4byte	.LVL298
 10607 13c3 0400     		.2byte	0x4
 10608 13c5 F3       		.byte	0xf3
 10609 13c6 01       		.uleb128 0x1
 10610 13c7 53       		.byte	0x53
 10611 13c8 9F       		.byte	0x9f
 10612 13c9 10000000 		.4byte	.LVL298
 10613 13cd 1F000000 		.4byte	.LVL302-1
 10614 13d1 0100     		.2byte	0x1
 10615 13d3 53       		.byte	0x53
 10616 13d4 1F000000 		.4byte	.LVL302-1
 10617 13d8 34000000 		.4byte	.LFE329
 10618 13dc 0400     		.2byte	0x4
 10619 13de F3       		.byte	0xf3
 10620 13df 01       		.uleb128 0x1
 10621 13e0 53       		.byte	0x53
 10622 13e1 9F       		.byte	0x9f
 10623 13e2 00000000 		.4byte	0
 10624 13e6 00000000 		.4byte	0
 10625              	.LLST124:
 10626 13ea 20000000 		.4byte	.LVL302
 10627 13ee 28000000 		.4byte	.LVL303
 10628 13f2 0100     		.2byte	0x1
 10629 13f4 50       		.byte	0x50
 10630 13f5 00000000 		.4byte	0
 10631 13f9 00000000 		.4byte	0
 10632              	.LLST125:
 10633 13fd 00000000 		.4byte	.LVL306
ARM GAS  C:\Users\strap\AppData\Local\Temp\ccUgAYbc.s 			page 223


 10634 1401 16000000 		.4byte	.LVL308
 10635 1405 0100     		.2byte	0x1
 10636 1407 50       		.byte	0x50
 10637 1408 16000000 		.4byte	.LVL308
 10638 140c 18000000 		.4byte	.LVL309
 10639 1410 0400     		.2byte	0x4
 10640 1412 F3       		.byte	0xf3
 10641 1413 01       		.uleb128 0x1
 10642 1414 50       		.byte	0x50
 10643 1415 9F       		.byte	0x9f
 10644 1416 18000000 		.4byte	.LVL309
 10645 141a 1A000000 		.4byte	.LVL310
 10646 141e 0100     		.2byte	0x1
 10647 1420 50       		.byte	0x50
 10648 1421 1A000000 		.4byte	.LVL310
 10649 1425 1C000000 		.4byte	.LVL311
 10650 1429 0400     		.2byte	0x4
 10651 142b F3       		.byte	0xf3
 10652 142c 01       		.uleb128 0x1
 10653 142d 50       		.byte	0x50
 10654 142e 9F       		.byte	0x9f
 10655 142f 1C000000 		.4byte	.LVL311
 10656 1433 1E000000 		.4byte	.LVL312
 10657 1437 0100     		.2byte	0x1
 10658 1439 50       		.byte	0x50
 10659 143a 1E000000 		.4byte	.LVL312
 10660 143e 20000000 		.4byte	.LVL313
 10661 1442 0400     		.2byte	0x4
 10662 1444 F3       		.byte	0xf3
 10663 1445 01       		.uleb128 0x1
 10664 1446 50       		.byte	0x50
 10665 1447 9F       		.byte	0x9f
 10666 1448 20000000 		.4byte	.LVL313
 10667 144c 22000000 		.4byte	.LVL314
 10668 1450 0100     		.2byte	0x1
 10669 1452 50       		.byte	0x50
 10670 1453 22000000 		.4byte	.LVL314
 10671 1457 24000000 		.4byte	.LFE333
 10672 145b 0400     		.2byte	0x4
 10673 145d F3       		.byte	0xf3
 10674 145e 01       		.uleb128 0x1
 10675 145f 50       		.byte	0x50
 10676 1460 9F       		.byte	0x9f
 10677 1461 00000000 		.4byte	0
 10678 1465 00000000 		.4byte	0
 10679              	.LLST126:
 10680 1469 02000000 		.4byte	.LVL307
 10681 146d 16000000 		.4byte	.LVL308
 10682 1471 0100     		.2byte	0x1
 10683 1473 50       		.byte	0x50
 10684 1474 16000000 		.4byte	.LVL308
 10685 1478 18000000 		.4byte	.LVL309
 10686 147c 0400     		.2byte	0x4
 10687 147e F3       		.byte	0xf3
 10688 147f 01       		.uleb128 0x1
 10689 1480 50       		.byte	0x50
 10690 1481 9F       		.byte	0x9f
ARM GAS  C:\Users\strap\AppData\Local\Temp\ccUgAYbc.s 			page 224


 10691 1482 1C000000 		.4byte	.LVL311
 10692 1486 1E000000 		.4byte	.LVL312
 10693 148a 0100     		.2byte	0x1
 10694 148c 50       		.byte	0x50
 10695 148d 1E000000 		.4byte	.LVL312
 10696 1491 20000000 		.4byte	.LVL313
 10697 1495 0400     		.2byte	0x4
 10698 1497 F3       		.byte	0xf3
 10699 1498 01       		.uleb128 0x1
 10700 1499 50       		.byte	0x50
 10701 149a 9F       		.byte	0x9f
 10702 149b 20000000 		.4byte	.LVL313
 10703 149f 22000000 		.4byte	.LVL314
 10704 14a3 0100     		.2byte	0x1
 10705 14a5 50       		.byte	0x50
 10706 14a6 22000000 		.4byte	.LVL314
 10707 14aa 24000000 		.4byte	.LFE333
 10708 14ae 0400     		.2byte	0x4
 10709 14b0 F3       		.byte	0xf3
 10710 14b1 01       		.uleb128 0x1
 10711 14b2 50       		.byte	0x50
 10712 14b3 9F       		.byte	0x9f
 10713 14b4 00000000 		.4byte	0
 10714 14b8 00000000 		.4byte	0
 10715              		.section	.debug_aranges,"",%progbits
 10716 0000 5C000000 		.4byte	0x5c
 10717 0004 0200     		.2byte	0x2
 10718 0006 00000000 		.4byte	.Ldebug_info0
 10719 000a 04       		.byte	0x4
 10720 000b 00       		.byte	0
 10721 000c 0000     		.2byte	0
 10722 000e 0000     		.2byte	0
 10723 0010 00000000 		.4byte	.LFB335
 10724 0014 B0070000 		.4byte	.LFE335-.LFB335
 10725 0018 00000000 		.4byte	.LFB336
 10726 001c 40000000 		.4byte	.LFE336-.LFB336
 10727 0020 00000000 		.4byte	.LFB328
 10728 0024 22000000 		.4byte	.LFE328-.LFB328
 10729 0028 00000000 		.4byte	.LFB330
 10730 002c 32000000 		.4byte	.LFE330-.LFB330
 10731 0030 00000000 		.4byte	.LFB331
 10732 0034 14000000 		.4byte	.LFE331-.LFB331
 10733 0038 00000000 		.4byte	.LFB332
 10734 003c 20000000 		.4byte	.LFE332-.LFB332
 10735 0040 00000000 		.4byte	.LFB334
 10736 0044 E2010000 		.4byte	.LFE334-.LFB334
 10737 0048 00000000 		.4byte	.LFB329
 10738 004c 34000000 		.4byte	.LFE329-.LFB329
 10739 0050 00000000 		.4byte	.LFB333
 10740 0054 24000000 		.4byte	.LFE333-.LFB333
 10741 0058 00000000 		.4byte	0
 10742 005c 00000000 		.4byte	0
 10743              		.section	.debug_ranges,"",%progbits
 10744              	.Ldebug_ranges0:
 10745 0000 76010000 		.4byte	.LBB111
 10746 0004 A4010000 		.4byte	.LBE111
 10747 0008 B2010000 		.4byte	.LBB115
ARM GAS  C:\Users\strap\AppData\Local\Temp\ccUgAYbc.s 			page 225


 10748 000c 6E020000 		.4byte	.LBE115
 10749 0010 00000000 		.4byte	0
 10750 0014 00000000 		.4byte	0
 10751 0018 70020000 		.4byte	.LBB116
 10752 001c A8030000 		.4byte	.LBE116
 10753 0020 B0030000 		.4byte	.LBB145
 10754 0024 A6070000 		.4byte	.LBE145
 10755 0028 00000000 		.4byte	0
 10756 002c 00000000 		.4byte	0
 10757 0030 AE040000 		.4byte	.LBB126
 10758 0034 B0040000 		.4byte	.LBE126
 10759 0038 B4040000 		.4byte	.LBB129
 10760 003c C2040000 		.4byte	.LBE129
 10761 0040 00000000 		.4byte	0
 10762 0044 00000000 		.4byte	0
 10763 0048 D4040000 		.4byte	.LBB130
 10764 004c D6040000 		.4byte	.LBE130
 10765 0050 DA040000 		.4byte	.LBB133
 10766 0054 E8040000 		.4byte	.LBE133
 10767 0058 00000000 		.4byte	0
 10768 005c 00000000 		.4byte	0
 10769 0060 52000000 		.4byte	.LBB146
 10770 0064 5E000000 		.4byte	.LBE146
 10771 0068 64000000 		.4byte	.LBB158
 10772 006c F4000000 		.4byte	.LBE158
 10773 0070 00000000 		.4byte	0
 10774 0074 00000000 		.4byte	0
 10775 0078 52000000 		.4byte	.LBB147
 10776 007c 5E000000 		.4byte	.LBE147
 10777 0080 64000000 		.4byte	.LBB152
 10778 0084 68000000 		.4byte	.LBE152
 10779 0088 00000000 		.4byte	0
 10780 008c 00000000 		.4byte	0
 10781 0090 F8000000 		.4byte	.LBB159
 10782 0094 CE010000 		.4byte	.LBE159
 10783 0098 D0010000 		.4byte	.LBB169
 10784 009c D6010000 		.4byte	.LBE169
 10785 00a0 00000000 		.4byte	0
 10786 00a4 00000000 		.4byte	0
 10787 00a8 24010000 		.4byte	.LBB162
 10788 00ac 26010000 		.4byte	.LBE162
 10789 00b0 2A010000 		.4byte	.LBB167
 10790 00b4 38010000 		.4byte	.LBE167
 10791 00b8 00000000 		.4byte	0
 10792 00bc 00000000 		.4byte	0
 10793 00c0 00000000 		.4byte	.LFB335
 10794 00c4 B0070000 		.4byte	.LFE335
 10795 00c8 00000000 		.4byte	.LFB336
 10796 00cc 40000000 		.4byte	.LFE336
 10797 00d0 00000000 		.4byte	.LFB328
 10798 00d4 22000000 		.4byte	.LFE328
 10799 00d8 00000000 		.4byte	.LFB330
 10800 00dc 32000000 		.4byte	.LFE330
 10801 00e0 00000000 		.4byte	.LFB331
 10802 00e4 14000000 		.4byte	.LFE331
 10803 00e8 00000000 		.4byte	.LFB332
 10804 00ec 20000000 		.4byte	.LFE332
ARM GAS  C:\Users\strap\AppData\Local\Temp\ccUgAYbc.s 			page 226


 10805 00f0 00000000 		.4byte	.LFB334
 10806 00f4 E2010000 		.4byte	.LFE334
 10807 00f8 00000000 		.4byte	.LFB329
 10808 00fc 34000000 		.4byte	.LFE329
 10809 0100 00000000 		.4byte	.LFB333
 10810 0104 24000000 		.4byte	.LFE333
 10811 0108 00000000 		.4byte	0
 10812 010c 00000000 		.4byte	0
 10813              		.section	.debug_line,"",%progbits
 10814              	.Ldebug_line0:
 10815 0000 1D080000 		.section	.debug_str,"MS",%progbits,1
 10815      02002204 
 10815      00000201 
 10815      FB0E0D00 
 10815      01010101 
 10816              	.LASF15:
 10817 0000 696E7438 		.ascii	"int8_t\000"
 10817      5F7400
 10818              	.LASF282:
 10819 0007 636F6C6F 		.ascii	"color_chroma_key\000"
 10819      725F6368 
 10819      726F6D61 
 10819      5F6B6579 
 10819      00
 10820              	.LASF134:
 10821 0018 4C565F44 		.ascii	"LV_DRAW_MASK_RES_FULL_COVER\000"
 10821      5241575F 
 10821      4D41534B 
 10821      5F524553 
 10821      5F46554C 
 10822              	.LASF46:
 10823 0034 73697A65 		.ascii	"size_t\000"
 10823      5F7400
 10824              	.LASF118:
 10825 003b 6164765F 		.ascii	"adv_w\000"
 10825      7700
 10826              	.LASF48:
 10827 0041 73697A65 		.ascii	"sizetype\000"
 10827      74797065 
 10827      00
 10828              	.LASF284:
 10829 004a 6C765F64 		.ascii	"lv_disp_t\000"
 10829      6973705F 
 10829      7400
 10830              	.LASF362:
 10831 0054 5F6C765F 		.ascii	"_lv_img_buf_transform\000"
 10831      696D675F 
 10831      6275665F 
 10831      7472616E 
 10831      73666F72 
 10832              	.LASF288:
 10833 006a 62675F6D 		.ascii	"bg_main_color_stop\000"
 10833      61696E5F 
 10833      636F6C6F 
 10833      725F7374 
 10833      6F7000
 10834              	.LASF188:
ARM GAS  C:\Users\strap\AppData\Local\Temp\ccUgAYbc.s 			page 227


 10835 007d 696D675F 		.ascii	"img_data\000"
 10835      64617461 
 10835      00
 10836              	.LASF206:
 10837 0086 7461696C 		.ascii	"tail\000"
 10837      00
 10838              	.LASF221:
 10839 008b 6163745F 		.ascii	"act_scr\000"
 10839      73637200 
 10840              	.LASF45:
 10841 0093 6C765F6F 		.ascii	"lv_opa_t\000"
 10841      70615F74 
 10841      00
 10842              	.LASF19:
 10843 009c 696E7433 		.ascii	"int32_t\000"
 10843      325F7400 
 10844              	.LASF67:
 10845 00a4 4C565F49 		.ascii	"LV_IMG_CF_ALPHA_1BIT\000"
 10845      4D475F43 
 10845      465F414C 
 10845      5048415F 
 10845      31424954 
 10846              	.LASF174:
 10847 00b9 4C565F49 		.ascii	"LV_IMG_SRC_SYMBOL\000"
 10847      4D475F53 
 10847      52435F53 
 10847      594D424F 
 10847      4C00
 10848              	.LASF186:
 10849 00cb 6465636F 		.ascii	"decoder\000"
 10849      64657200 
 10850              	.LASF53:
 10851 00d3 6C765F70 		.ascii	"lv_point_t\000"
 10851      6F696E74 
 10851      5F7400
 10852              	.LASF390:
 10853 00de 7472616E 		.ascii	"trans_dsc\000"
 10853      735F6473 
 10853      6300
 10854              	.LASF406:
 10855 00e8 63647363 		.ascii	"cdsc\000"
 10855      00
 10856              	.LASF91:
 10857 00ed 6C765F69 		.ascii	"lv_img_header_t\000"
 10857      6D675F68 
 10857      65616465 
 10857      725F7400 
 10858              	.LASF285:
 10859 00fd 72616469 		.ascii	"radius\000"
 10859      757300
 10860              	.LASF226:
 10861 0104 62675F63 		.ascii	"bg_color\000"
 10861      6F6C6F72 
 10861      00
 10862              	.LASF126:
 10863 010d 6C696E65 		.ascii	"line_height\000"
 10863      5F686569 
ARM GAS  C:\Users\strap\AppData\Local\Temp\ccUgAYbc.s 			page 228


 10863      67687400 
 10864              	.LASF138:
 10865 0119 6C765F62 		.ascii	"lv_blend_mode_t\000"
 10865      6C656E64 
 10865      5F6D6F64 
 10865      655F7400 
 10866              	.LASF336:
 10867 0129 62696469 		.ascii	"bidi_dir\000"
 10867      5F646972 
 10867      00
 10868              	.LASF244:
 10869 0132 636C6963 		.ascii	"click\000"
 10869      6B00
 10870              	.LASF55:
 10871 0138 6C765F61 		.ascii	"lv_align_t\000"
 10871      6C69676E 
 10871      5F7400
 10872              	.LASF418:
 10873 0143 696D675F 		.ascii	"img_src_type\000"
 10873      7372635F 
 10873      74797065 
 10873      00
 10874              	.LASF431:
 10875 0150 5F6C765F 		.ascii	"_lv_memset_ff\000"
 10875      6D656D73 
 10875      65745F66 
 10875      6600
 10876              	.LASF341:
 10877 015e 6C765F64 		.ascii	"lv_design_res_t\000"
 10877      65736967 
 10877      6E5F7265 
 10877      735F7400 
 10878              	.LASF375:
 10879 016e 6F746865 		.ascii	"other_mask_cnt\000"
 10879      725F6D61 
 10879      736B5F63 
 10879      6E7400
 10880              	.LASF153:
 10881 017d 636C6970 		.ascii	"clip_corner_off\000"
 10881      5F636F72 
 10881      6E65725F 
 10881      6F666600 
 10882              	.LASF343:
 10883 018d 6C765F65 		.ascii	"lv_event_t\000"
 10883      76656E74 
 10883      5F7400
 10884              	.LASF370:
 10885 0198 6368726F 		.ascii	"chroma_key\000"
 10885      6D615F6B 
 10885      657900
 10886              	.LASF257:
 10887 01a3 73746174 		.ascii	"state\000"
 10887      6500
 10888              	.LASF213:
 10889 01a9 72657065 		.ascii	"repeat_count\000"
 10889      61745F63 
 10889      6F756E74 
ARM GAS  C:\Users\strap\AppData\Local\Temp\ccUgAYbc.s 			page 229


 10889      00
 10890              	.LASF63:
 10891 01b6 4C565F49 		.ascii	"LV_IMG_CF_INDEXED_1BIT\000"
 10891      4D475F43 
 10891      465F494E 
 10891      44455845 
 10891      445F3142 
 10892              	.LASF137:
 10893 01cd 6C765F64 		.ascii	"lv_draw_mask_res_t\000"
 10893      7261775F 
 10893      6D61736B 
 10893      5F726573 
 10893      5F7400
 10894              	.LASF447:
 10895 01e0 433A5C55 		.ascii	"C:\\Users\\strap\\Documents\\Creator\\test_lvgl\\il"
 10895      73657273 
 10895      5C737472 
 10895      61705C44 
 10895      6F63756D 
 10896 020d 69393334 		.ascii	"i9341_master.cydsn\000"
 10896      315F6D61 
 10896      73746572 
 10896      2E637964 
 10896      736E00
 10897              	.LASF369:
 10898 0220 64726177 		.ascii	"draw_dsc\000"
 10898      5F647363 
 10898      00
 10899              	.LASF289:
 10900 0229 62675F67 		.ascii	"bg_grad_color_stop\000"
 10900      7261645F 
 10900      636F6C6F 
 10900      725F7374 
 10900      6F7000
 10901              	.LASF50:
 10902 023c 4C565F52 		.ascii	"LV_RES_INV\000"
 10902      45535F49 
 10902      4E5600
 10903              	.LASF23:
 10904 0247 6C765F64 		.ascii	"lv_disp_drv_user_data_t\000"
 10904      6973705F 
 10904      6472765F 
 10904      75736572 
 10904      5F646174 
 10905              	.LASF240:
 10906 025f 6578745F 		.ascii	"ext_attr\000"
 10906      61747472 
 10906      00
 10907              	.LASF109:
 10908 0268 636F736D 		.ascii	"cosma\000"
 10908      6100
 10909              	.LASF330:
 10910 026e 73656C5F 		.ascii	"sel_bg_color\000"
 10910      62675F63 
 10910      6F6C6F72 
 10910      00
 10911              	.LASF155:
ARM GAS  C:\Users\strap\AppData\Local\Temp\ccUgAYbc.s 			page 230


 10912 027b 7061645F 		.ascii	"pad_all_zero\000"
 10912      616C6C5F 
 10912      7A65726F 
 10912      00
 10913              	.LASF214:
 10914 0288 7072696F 		.ascii	"prio\000"
 10914      00
 10915              	.LASF220:
 10916 028d 7363725F 		.ascii	"scr_ll\000"
 10916      6C6C00
 10917              	.LASF293:
 10918 0294 626F7264 		.ascii	"border_side\000"
 10918      65725F73 
 10918      69646500 
 10919              	.LASF1:
 10920 02a0 5F5F7569 		.ascii	"__uint8_t\000"
 10920      6E74385F 
 10920      7400
 10921              	.LASF198:
 10922 02aa 626C656E 		.ascii	"blend_mode\000"
 10922      645F6D6F 
 10922      646500
 10923              	.LASF271:
 10924 02b5 7665725F 		.ascii	"ver_res\000"
 10924      72657300 
 10925              	.LASF392:
 10926 02bd 7265636F 		.ascii	"recolor_opa_inv\000"
 10926      6C6F725F 
 10926      6F70615F 
 10926      696E7600 
 10927              	.LASF179:
 10928 02cd 5F6C765F 		.ascii	"_lv_img_decoder\000"
 10928      696D675F 
 10928      6465636F 
 10928      64657200 
 10929              	.LASF412:
 10930 02dd 72656164 		.ascii	"read_res\000"
 10930      5F726573 
 10930      00
 10931              	.LASF371:
 10932 02e6 616C7068 		.ascii	"alpha_byte\000"
 10932      615F6279 
 10932      746500
 10933              	.LASF248:
 10934 02f1 68696464 		.ascii	"hidden\000"
 10934      656E00
 10935              	.LASF232:
 10936 02f8 6C617374 		.ascii	"last_activity_time\000"
 10936      5F616374 
 10936      69766974 
 10936      795F7469 
 10936      6D6500
 10937              	.LASF9:
 10938 030b 6C6F6E67 		.ascii	"long int\000"
 10938      20696E74 
 10938      00
 10939              	.LASF219:
ARM GAS  C:\Users\strap\AppData\Local\Temp\ccUgAYbc.s 			page 231


 10940 0314 72656672 		.ascii	"refr_task\000"
 10940      5F746173 
 10940      6B00
 10941              	.LASF399:
 10942 031e 73686F77 		.ascii	"show_error\000"
 10942      5F657272 
 10942      6F7200
 10943              	.LASF193:
 10944 0329 6C765F69 		.ascii	"lv_img_decoder_t\000"
 10944      6D675F64 
 10944      65636F64 
 10944      65725F74 
 10944      00
 10945              	.LASF274:
 10946 033a 726F7461 		.ascii	"rotated\000"
 10946      74656400 
 10947              	.LASF228:
 10948 0342 62675F6F 		.ascii	"bg_opa\000"
 10948      706100
 10949              	.LASF185:
 10950 0349 5F6C765F 		.ascii	"_lv_img_decoder_dsc\000"
 10950      696D675F 
 10950      6465636F 
 10950      6465725F 
 10950      64736300 
 10951              	.LASF339:
 10952 035d 6C765F64 		.ascii	"lv_draw_label_dsc_t\000"
 10952      7261775F 
 10952      6C616265 
 10952      6C5F6473 
 10952      635F7400 
 10953              	.LASF354:
 10954 0371 6C765F73 		.ascii	"lv_state_t\000"
 10954      74617465 
 10954      5F7400
 10955              	.LASF322:
 10956 037c 76616C75 		.ascii	"value_letter_space\000"
 10956      655F6C65 
 10956      74746572 
 10956      5F737061 
 10956      636500
 10957              	.LASF372:
 10958 038f 64726177 		.ascii	"draw_area\000"
 10958      5F617265 
 10958      6100
 10959              	.LASF201:
 10960 0399 6C696665 		.ascii	"life\000"
 10960      00
 10961              	.LASF183:
 10962 039e 636C6F73 		.ascii	"close_cb\000"
 10962      655F6362 
 10962      00
 10963              	.LASF358:
 10964 03a7 61726561 		.ascii	"area_p\000"
 10964      5F7000
 10965              	.LASF150:
 10966 03ae 69676E6F 		.ascii	"ignore_cache\000"
ARM GAS  C:\Users\strap\AppData\Local\Temp\ccUgAYbc.s 			page 232


 10966      72655F63 
 10966      61636865 
 10966      00
 10967              	.LASF301:
 10968 03bb 6F75746C 		.ascii	"outline_blend_mode\000"
 10968      696E655F 
 10968      626C656E 
 10968      645F6D6F 
 10968      646500
 10969              	.LASF154:
 10970 03ce 7472616E 		.ascii	"transform_all_zero\000"
 10970      73666F72 
 10970      6D5F616C 
 10970      6C5F7A65 
 10970      726F00
 10971              	.LASF445:
 10972 03e1 474E5520 		.ascii	"GNU C11 5.4.1 20160609 (release) [ARM/embedded-5-br"
 10972      43313120 
 10972      352E342E 
 10972      31203230 
 10972      31363036 
 10973 0414 616E6368 		.ascii	"anch revision 237715] -mcpu=cortex-m3 -mthumb -g -O"
 10973      20726576 
 10973      6973696F 
 10973      6E203233 
 10973      37373135 
 10974 0447 67202D66 		.ascii	"g -ffunction-sections -ffat-lto-objects\000"
 10974      66756E63 
 10974      74696F6E 
 10974      2D736563 
 10974      74696F6E 
 10975              	.LASF420:
 10976 046f 6C765F64 		.ascii	"lv_disp_get_hor_res\000"
 10976      6973705F 
 10976      6765745F 
 10976      686F725F 
 10976      72657300 
 10977              	.LASF143:
 10978 0483 7374796C 		.ascii	"style_list\000"
 10978      655F6C69 
 10978      737400
 10979              	.LASF205:
 10980 048e 68656164 		.ascii	"head\000"
 10980      00
 10981              	.LASF156:
 10982 0493 6D617267 		.ascii	"margin_all_zero\000"
 10982      696E5F61 
 10982      6C6C5F7A 
 10982      65726F00 
 10983              	.LASF314:
 10984 04a3 70617474 		.ascii	"pattern_repeat\000"
 10984      65726E5F 
 10984      72657065 
 10984      617400
 10985              	.LASF266:
 10986 04b2 6C617374 		.ascii	"last_area\000"
 10986      5F617265 
ARM GAS  C:\Users\strap\AppData\Local\Temp\ccUgAYbc.s 			page 233


 10986      6100
 10987              	.LASF444:
 10988 04bc 5F6C765F 		.ascii	"_lv_img_cache_open\000"
 10988      696D675F 
 10988      63616368 
 10988      655F6F70 
 10988      656E00
 10989              	.LASF297:
 10990 04cf 6F75746C 		.ascii	"outline_color\000"
 10990      696E655F 
 10990      636F6C6F 
 10990      7200
 10991              	.LASF142:
 10992 04dd 6C765F73 		.ascii	"lv_style_int_t\000"
 10992      74796C65 
 10992      5F696E74 
 10992      5F7400
 10993              	.LASF144:
 10994 04ec 7374796C 		.ascii	"style_cnt\000"
 10994      655F636E 
 10994      7400
 10995              	.LASF149:
 10996 04f6 76616C69 		.ascii	"valid_cache\000"
 10996      645F6361 
 10996      63686500 
 10997              	.LASF277:
 10998 0502 7365745F 		.ascii	"set_px_cb\000"
 10998      70785F63 
 10998      6200
 10999              	.LASF2:
 11000 050c 7369676E 		.ascii	"signed char\000"
 11000      65642063 
 11000      68617200 
 11001              	.LASF16:
 11002 0518 75696E74 		.ascii	"uint8_t\000"
 11002      385F7400 
 11003              	.LASF270:
 11004 0520 686F725F 		.ascii	"hor_res\000"
 11004      72657300 
 11005              	.LASF381:
 11006 0528 6D61705F 		.ascii	"map_px\000"
 11006      707800
 11007              	.LASF393:
 11008 052f 6D61736B 		.ascii	"mask_res\000"
 11008      5F726573 
 11008      00
 11009              	.LASF181:
 11010 0538 6F70656E 		.ascii	"open_cb\000"
 11010      5F636200 
 11011              	.LASF113:
 11012 0540 7A6F6F6D 		.ascii	"zoom_inv\000"
 11012      5F696E76 
 11012      00
 11013              	.LASF125:
 11014 0549 6765745F 		.ascii	"get_glyph_bitmap\000"
 11014      676C7970 
 11014      685F6269 
ARM GAS  C:\Users\strap\AppData\Local\Temp\ccUgAYbc.s 			page 234


 11014      746D6170 
 11014      00
 11015              	.LASF405:
 11016 055a 6C765F69 		.ascii	"lv_img_cf_has_alpha\000"
 11016      6D675F63 
 11016      665F6861 
 11016      735F616C 
 11016      70686100 
 11017              	.LASF40:
 11018 056e 626C7565 		.ascii	"blue\000"
 11018      00
 11019              	.LASF323:
 11020 0573 76616C75 		.ascii	"value_line_space\000"
 11020      655F6C69 
 11020      6E655F73 
 11020      70616365 
 11020      00
 11021              	.LASF3:
 11022 0584 756E7369 		.ascii	"unsigned char\000"
 11022      676E6564 
 11022      20636861 
 11022      7200
 11023              	.LASF223:
 11024 0592 746F705F 		.ascii	"top_layer\000"
 11024      6C617965 
 11024      7200
 11025              	.LASF189:
 11026 059c 74696D65 		.ascii	"time_to_open\000"
 11026      5F746F5F 
 11026      6F70656E 
 11026      00
 11027              	.LASF443:
 11028 05a9 6C765F61 		.ascii	"lv_area_set_height\000"
 11028      7265615F 
 11028      7365745F 
 11028      68656967 
 11028      687400
 11029              	.LASF253:
 11030 05bc 64726167 		.ascii	"drag_dir\000"
 11030      5F646972 
 11030      00
 11031              	.LASF57:
 11032 05c5 4C565F49 		.ascii	"LV_IMG_CF_RAW\000"
 11032      4D475F43 
 11032      465F5241 
 11032      5700
 11033              	.LASF212:
 11034 05d3 7461736B 		.ascii	"task_cb\000"
 11034      5F636200 
 11035              	.LASF121:
 11036 05db 6F66735F 		.ascii	"ofs_x\000"
 11036      7800
 11037              	.LASF122:
 11038 05e1 6F66735F 		.ascii	"ofs_y\000"
 11038      7900
 11039              	.LASF252:
 11040 05e7 666F6375 		.ascii	"focus_parent\000"
ARM GAS  C:\Users\strap\AppData\Local\Temp\ccUgAYbc.s 			page 235


 11040      735F7061 
 11040      72656E74 
 11040      00
 11041              	.LASF172:
 11042 05f4 4C565F49 		.ascii	"LV_IMG_SRC_VARIABLE\000"
 11042      4D475F53 
 11042      52435F56 
 11042      41524941 
 11042      424C4500 
 11043              	.LASF92:
 11044 0608 68656164 		.ascii	"header\000"
 11044      657200
 11045              	.LASF241:
 11046 060f 6578745F 		.ascii	"ext_click_pad_hor\000"
 11046      636C6963 
 11046      6B5F7061 
 11046      645F686F 
 11046      7200
 11047              	.LASF265:
 11048 0621 666C7573 		.ascii	"flushing_last\000"
 11048      68696E67 
 11048      5F6C6173 
 11048      7400
 11049              	.LASF104:
 11050 062f 5F426F6F 		.ascii	"_Bool\000"
 11050      6C00
 11051              	.LASF421:
 11052 0635 6C765F61 		.ascii	"lv_area_get_size\000"
 11052      7265615F 
 11052      6765745F 
 11052      73697A65 
 11052      00
 11053              	.LASF430:
 11054 0646 5F6C765F 		.ascii	"_lv_memset_00\000"
 11054      6D656D73 
 11054      65745F30 
 11054      3000
 11055              	.LASF346:
 11056 0654 6C765F73 		.ascii	"lv_signal_cb_t\000"
 11056      69676E61 
 11056      6C5F6362 
 11056      5F7400
 11057              	.LASF324:
 11058 0663 76616C75 		.ascii	"value_align\000"
 11058      655F616C 
 11058      69676E00 
 11059              	.LASF230:
 11060 066f 696E765F 		.ascii	"inv_area_joined\000"
 11060      61726561 
 11060      5F6A6F69 
 11060      6E656400 
 11061              	.LASF165:
 11062 067f 73686164 		.ascii	"shadow_width_zero\000"
 11062      6F775F77 
 11062      69647468 
 11062      5F7A6572 
 11062      6F00
ARM GAS  C:\Users\strap\AppData\Local\Temp\ccUgAYbc.s 			page 236


 11063              	.LASF326:
 11064 0691 6C765F64 		.ascii	"lv_draw_rect_dsc_t\000"
 11064      7261775F 
 11064      72656374 
 11064      5F647363 
 11064      5F7400
 11065              	.LASF308:
 11066 06a4 73686164 		.ascii	"shadow_blend_mode\000"
 11066      6F775F62 
 11066      6C656E64 
 11066      5F6D6F64 
 11066      6500
 11067              	.LASF49:
 11068 06b6 63686172 		.ascii	"char\000"
 11068      00
 11069              	.LASF199:
 11070 06bb 6C765F64 		.ascii	"lv_draw_img_dsc_t\000"
 11070      7261775F 
 11070      696D675F 
 11070      6473635F 
 11070      7400
 11071              	.LASF360:
 11072 06cd 6C765F61 		.ascii	"lv_area_copy\000"
 11072      7265615F 
 11072      636F7079 
 11072      00
 11073              	.LASF251:
 11074 06da 67657374 		.ascii	"gesture_parent\000"
 11074      7572655F 
 11074      70617265 
 11074      6E7400
 11075              	.LASF129:
 11076 06e9 756E6465 		.ascii	"underline_position\000"
 11076      726C696E 
 11076      655F706F 
 11076      73697469 
 11076      6F6E00
 11077              	.LASF349:
 11078 06fc 796F6673 		.ascii	"yofs\000"
 11078      00
 11079              	.LASF442:
 11080 0701 6C765F69 		.ascii	"lv_img_decoder_close\000"
 11080      6D675F64 
 11080      65636F64 
 11080      65725F63 
 11080      6C6F7365 
 11081              	.LASF117:
 11082 0716 6C765F69 		.ascii	"lv_img_transform_dsc_t\000"
 11082      6D675F74 
 11082      72616E73 
 11082      666F726D 
 11082      5F647363 
 11083              	.LASF273:
 11084 072d 616E7469 		.ascii	"antialiasing\000"
 11084      616C6961 
 11084      73696E67 
 11084      00
ARM GAS  C:\Users\strap\AppData\Local\Temp\ccUgAYbc.s 			page 237


 11085              	.LASF98:
 11086 073a 7069766F 		.ascii	"pivot_x\000"
 11086      745F7800 
 11087              	.LASF99:
 11088 0742 7069766F 		.ascii	"pivot_y\000"
 11088      745F7900 
 11089              	.LASF6:
 11090 074a 5F5F7569 		.ascii	"__uint16_t\000"
 11090      6E743136 
 11090      5F7400
 11091              	.LASF299:
 11092 0755 6F75746C 		.ascii	"outline_pad\000"
 11092      696E655F 
 11092      70616400 
 11093              	.LASF312:
 11094 0761 70617474 		.ascii	"pattern_opa\000"
 11094      65726E5F 
 11094      6F706100 
 11095              	.LASF291:
 11096 076d 626F7264 		.ascii	"border_color\000"
 11096      65725F63 
 11096      6F6C6F72 
 11096      00
 11097              	.LASF317:
 11098 077a 76616C75 		.ascii	"value_font\000"
 11098      655F666F 
 11098      6E7400
 11099              	.LASF175:
 11100 0785 4C565F49 		.ascii	"LV_IMG_SRC_UNKNOWN\000"
 11100      4D475F53 
 11100      52435F55 
 11100      4E4B4E4F 
 11100      574E00
 11101              	.LASF239:
 11102 0798 64657369 		.ascii	"design_cb\000"
 11102      676E5F63 
 11102      6200
 11103              	.LASF295:
 11104 07a2 626F7264 		.ascii	"border_blend_mode\000"
 11104      65725F62 
 11104      6C656E64 
 11104      5F6D6F64 
 11104      6500
 11105              	.LASF321:
 11106 07b4 76616C75 		.ascii	"value_ofs_y\000"
 11106      655F6F66 
 11106      735F7900 
 11107              	.LASF296:
 11108 07c0 626F7264 		.ascii	"border_post\000"
 11108      65725F70 
 11108      6F737400 
 11109              	.LASF344:
 11110 07cc 6C765F65 		.ascii	"lv_event_cb_t\000"
 11110      76656E74 
 11110      5F63625F 
 11110      7400
 11111              	.LASF264:
ARM GAS  C:\Users\strap\AppData\Local\Temp\ccUgAYbc.s 			page 238


 11112 07da 666C7573 		.ascii	"flushing\000"
 11112      68696E67 
 11112      00
 11113              	.LASF448:
 11114 07e3 6C765F69 		.ascii	"lv_img_draw_core\000"
 11114      6D675F64 
 11114      7261775F 
 11114      636F7265 
 11114      00
 11115              	.LASF161:
 11116 07f4 626F7264 		.ascii	"border_side_full\000"
 11116      65725F73 
 11116      6964655F 
 11116      66756C6C 
 11116      00
 11117              	.LASF255:
 11118 0805 67726F75 		.ascii	"group_p\000"
 11118      705F7000 
 11119              	.LASF319:
 11120 080d 76616C75 		.ascii	"value_color\000"
 11120      655F636F 
 11120      6C6F7200 
 11121              	.LASF383:
 11122 0819 64726177 		.ascii	"draw_area_h\000"
 11122      5F617265 
 11122      615F6800 
 11123              	.LASF246:
 11124 0825 64726167 		.ascii	"drag_throw\000"
 11124      5F746872 
 11124      6F7700
 11125              	.LASF158:
 11126 0830 62675F6F 		.ascii	"bg_opa_transp\000"
 11126      70615F74 
 11126      72616E73 
 11126      7000
 11127              	.LASF384:
 11128 083e 64726177 		.ascii	"draw_area_w\000"
 11128      5F617265 
 11128      615F7700 
 11129              	.LASF327:
 11130 084a 6C765F62 		.ascii	"lv_bidi_dir_t\000"
 11130      6964695F 
 11130      6469725F 
 11130      7400
 11131              	.LASF164:
 11132 0858 70617474 		.ascii	"pattern_img_null\000"
 11132      65726E5F 
 11132      696D675F 
 11132      6E756C6C 
 11132      00
 11133              	.LASF243:
 11134 0869 6578745F 		.ascii	"ext_draw_pad\000"
 11134      64726177 
 11134      5F706164 
 11134      00
 11135              	.LASF54:
 11136 0876 6C765F61 		.ascii	"lv_area_t\000"
ARM GAS  C:\Users\strap\AppData\Local\Temp\ccUgAYbc.s 			page 239


 11136      7265615F 
 11136      7400
 11137              	.LASF437:
 11138 0880 6C765F64 		.ascii	"lv_draw_label_dsc_init\000"
 11138      7261775F 
 11138      6C616265 
 11138      6C5F6473 
 11138      635F696E 
 11139              	.LASF272:
 11140 0897 62756666 		.ascii	"buffer\000"
 11140      657200
 11141              	.LASF71:
 11142 089e 4C565F49 		.ascii	"LV_IMG_CF_RESERVED_15\000"
 11142      4D475F43 
 11142      465F5245 
 11142      53455256 
 11142      45445F31 
 11143              	.LASF72:
 11144 08b4 4C565F49 		.ascii	"LV_IMG_CF_RESERVED_16\000"
 11144      4D475F43 
 11144      465F5245 
 11144      53455256 
 11144      45445F31 
 11145              	.LASF73:
 11146 08ca 4C565F49 		.ascii	"LV_IMG_CF_RESERVED_17\000"
 11146      4D475F43 
 11146      465F5245 
 11146      53455256 
 11146      45445F31 
 11147              	.LASF74:
 11148 08e0 4C565F49 		.ascii	"LV_IMG_CF_RESERVED_18\000"
 11148      4D475F43 
 11148      465F5245 
 11148      53455256 
 11148      45445F31 
 11149              	.LASF75:
 11150 08f6 4C565F49 		.ascii	"LV_IMG_CF_RESERVED_19\000"
 11150      4D475F43 
 11150      465F5245 
 11150      53455256 
 11150      45445F31 
 11151              	.LASF387:
 11152 090c 6D617032 		.ascii	"map2\000"
 11152      00
 11153              	.LASF234:
 11154 0911 70617265 		.ascii	"parent\000"
 11154      6E7400
 11155              	.LASF258:
 11156 0918 7265616C 		.ascii	"realign\000"
 11156      69676E00 
 11157              	.LASF374:
 11158 0920 64697370 		.ascii	"disp_area\000"
 11158      5F617265 
 11158      6100
 11159              	.LASF435:
 11160 092a 6C765F64 		.ascii	"lv_draw_rect_dsc_init\000"
 11160      7261775F 
ARM GAS  C:\Users\strap\AppData\Local\Temp\ccUgAYbc.s 			page 240


 11160      72656374 
 11160      5F647363 
 11160      5F696E69 
 11161              	.LASF426:
 11162 0940 6C765F69 		.ascii	"lv_img_buf_get_px_color\000"
 11162      6D675F62 
 11162      75665F67 
 11162      65745F70 
 11162      785F636F 
 11163              	.LASF116:
 11164 0958 70785F73 		.ascii	"px_size\000"
 11164      697A6500 
 11165              	.LASF105:
 11166 0960 696D675F 		.ascii	"img_dsc\000"
 11166      64736300 
 11167              	.LASF306:
 11168 0968 73686164 		.ascii	"shadow_spread\000"
 11168      6F775F73 
 11168      70726561 
 11168      6400
 11169              	.LASF107:
 11170 0976 7069766F 		.ascii	"pivot_y_256\000"
 11170      745F795F 
 11170      32353600 
 11171              	.LASF39:
 11172 0982 67726565 		.ascii	"green_h\000"
 11172      6E5F6800 
 11173              	.LASF41:
 11174 098a 67726565 		.ascii	"green_l\000"
 11174      6E5F6C00 
 11175              	.LASF263:
 11176 0992 61726561 		.ascii	"area\000"
 11176      00
 11177              	.LASF76:
 11178 0997 4C565F49 		.ascii	"LV_IMG_CF_RESERVED_20\000"
 11178      4D475F43 
 11178      465F5245 
 11178      53455256 
 11178      45445F32 
 11179              	.LASF77:
 11180 09ad 4C565F49 		.ascii	"LV_IMG_CF_RESERVED_21\000"
 11180      4D475F43 
 11180      465F5245 
 11180      53455256 
 11180      45445F32 
 11181              	.LASF78:
 11182 09c3 4C565F49 		.ascii	"LV_IMG_CF_RESERVED_22\000"
 11182      4D475F43 
 11182      465F5245 
 11182      53455256 
 11182      45445F32 
 11183              	.LASF79:
 11184 09d9 4C565F49 		.ascii	"LV_IMG_CF_RESERVED_23\000"
 11184      4D475F43 
 11184      465F5245 
 11184      53455256 
 11184      45445F32 
ARM GAS  C:\Users\strap\AppData\Local\Temp\ccUgAYbc.s 			page 241


 11185              	.LASF160:
 11186 09ef 626F7264 		.ascii	"border_width_zero\000"
 11186      65725F77 
 11186      69647468 
 11186      5F7A6572 
 11186      6F00
 11187              	.LASF141:
 11188 0a01 6C765F73 		.ascii	"lv_style_t\000"
 11188      74796C65 
 11188      5F7400
 11189              	.LASF162:
 11190 0a0c 626F7264 		.ascii	"border_post_off\000"
 11190      65725F70 
 11190      6F73745F 
 11190      6F666600 
 11191              	.LASF250:
 11192 0a1c 6164765F 		.ascii	"adv_hittest\000"
 11192      68697474 
 11192      65737400 
 11193              	.LASF11:
 11194 0a28 6C6F6E67 		.ascii	"long unsigned int\000"
 11194      20756E73 
 11194      69676E65 
 11194      6420696E 
 11194      7400
 11195              	.LASF400:
 11196 0a3a 72656374 		.ascii	"rect_dsc\000"
 11196      5F647363 
 11196      00
 11197              	.LASF88:
 11198 0a43 6C765F69 		.ascii	"lv_img_cf_t\000"
 11198      6D675F63 
 11198      665F7400 
 11199              	.LASF368:
 11200 0a4f 6D61705F 		.ascii	"map_p\000"
 11200      7000
 11201              	.LASF25:
 11202 0a55 6C765F6F 		.ascii	"lv_obj_user_data_t\000"
 11202      626A5F75 
 11202      7365725F 
 11202      64617461 
 11202      5F7400
 11203              	.LASF377:
 11204 0a68 6D61705F 		.ascii	"map_w\000"
 11204      7700
 11205              	.LASF439:
 11206 0a6e 5F6C765F 		.ascii	"_lv_img_buf_get_transformed_area\000"
 11206      696D675F 
 11206      6275665F 
 11206      6765745F 
 11206      7472616E 
 11207              	.LASF267:
 11208 0a8f 6C617374 		.ascii	"last_part\000"
 11208      5F706172 
 11208      7400
 11209              	.LASF135:
 11210 0a99 4C565F44 		.ascii	"LV_DRAW_MASK_RES_CHANGED\000"
ARM GAS  C:\Users\strap\AppData\Local\Temp\ccUgAYbc.s 			page 242


 11210      5241575F 
 11210      4D41534B 
 11210      5F524553 
 11210      5F434841 
 11211              	.LASF401:
 11212 0ab2 6C616265 		.ascii	"label_dsc\000"
 11212      6C5F6473 
 11212      6300
 11213              	.LASF411:
 11214 0abc 6C696E65 		.ascii	"line\000"
 11214      00
 11215              	.LASF408:
 11216 0ac1 6D61736B 		.ascii	"mask_com\000"
 11216      5F636F6D 
 11216      00
 11217              	.LASF311:
 11218 0aca 70617474 		.ascii	"pattern_recolor\000"
 11218      65726E5F 
 11218      7265636F 
 11218      6C6F7200 
 11219              	.LASF389:
 11220 0ada 70785F6F 		.ascii	"px_opa\000"
 11220      706100
 11221              	.LASF202:
 11222 0ae1 6C765F69 		.ascii	"lv_img_cache_entry_t\000"
 11222      6D675F63 
 11222      61636865 
 11222      5F656E74 
 11222      72795F74 
 11223              	.LASF287:
 11224 0af6 62675F67 		.ascii	"bg_grad_dir\000"
 11224      7261645F 
 11224      64697200 
 11225              	.LASF378:
 11226 0b02 6D61705F 		.ascii	"map_buf_tmp\000"
 11226      6275665F 
 11226      746D7000 
 11227              	.LASF27:
 11228 0b0e 4C565F4F 		.ascii	"LV_OPA_0\000"
 11228      50415F30 
 11228      00
 11229              	.LASF101:
 11230 0b17 7A6F6F6D 		.ascii	"zoom\000"
 11230      00
 11231              	.LASF197:
 11232 0b1c 7265636F 		.ascii	"recolor\000"
 11232      6C6F7200 
 11233              	.LASF93:
 11234 0b24 64617461 		.ascii	"data_size\000"
 11234      5F73697A 
 11234      6500
 11235              	.LASF438:
 11236 0b2e 6C765F64 		.ascii	"lv_draw_label\000"
 11236      7261775F 
 11236      6C616265 
 11236      6C00
 11237              	.LASF100:
ARM GAS  C:\Users\strap\AppData\Local\Temp\ccUgAYbc.s 			page 243


 11238 0b3c 616E676C 		.ascii	"angle\000"
 11238      6500
 11239              	.LASF269:
 11240 0b42 5F646973 		.ascii	"_disp_drv_t\000"
 11240      705F6472 
 11240      765F7400 
 11241              	.LASF115:
 11242 0b4e 79735F69 		.ascii	"ys_int\000"
 11242      6E7400
 11243              	.LASF415:
 11244 0b55 6C765F64 		.ascii	"lv_draw_img\000"
 11244      7261775F 
 11244      696D6700 
 11245              	.LASF286:
 11246 0b61 62675F67 		.ascii	"bg_grad_color\000"
 11246      7261645F 
 11246      636F6C6F 
 11246      7200
 11247              	.LASF363:
 11248 0b6f 7372635F 		.ascii	"src_u8\000"
 11248      753800
 11249              	.LASF268:
 11250 0b76 6C765F64 		.ascii	"lv_disp_buf_t\000"
 11250      6973705F 
 11250      6275665F 
 11250      7400
 11251              	.LASF422:
 11252 0b84 5F6C765F 		.ascii	"_lv_mem_buf_get\000"
 11252      6D656D5F 
 11252      6275665F 
 11252      67657400 
 11253              	.LASF356:
 11254 0b94 5F6C765F 		.ascii	"_lv_memcpy_small\000"
 11254      6D656D63 
 11254      70795F73 
 11254      6D616C6C 
 11254      00
 11255              	.LASF190:
 11256 0ba5 6572726F 		.ascii	"error_msg\000"
 11256      725F6D73 
 11256      6700
 11257              	.LASF423:
 11258 0baf 5F6C765F 		.ascii	"_lv_blend_map\000"
 11258      626C656E 
 11258      645F6D61 
 11258      7000
 11259              	.LASF279:
 11260 0bbd 77616974 		.ascii	"wait_cb\000"
 11260      5F636200 
 11261              	.LASF10:
 11262 0bc5 5F5F7569 		.ascii	"__uint32_t\000"
 11262      6E743332 
 11262      5F7400
 11263              	.LASF237:
 11264 0bd0 6576656E 		.ascii	"event_cb\000"
 11264      745F6362 
 11264      00
ARM GAS  C:\Users\strap\AppData\Local\Temp\ccUgAYbc.s 			page 244


 11265              	.LASF140:
 11266 0bd9 6C765F74 		.ascii	"lv_text_decor_t\000"
 11266      6578745F 
 11266      6465636F 
 11266      725F7400 
 11267              	.LASF12:
 11268 0be9 6C6F6E67 		.ascii	"long long int\000"
 11268      206C6F6E 
 11268      6720696E 
 11268      7400
 11269              	.LASF302:
 11270 0bf7 73686164 		.ascii	"shadow_color\000"
 11270      6F775F63 
 11270      6F6C6F72 
 11270      00
 11271              	.LASF170:
 11272 0c04 74657874 		.ascii	"text_font_normal\000"
 11272      5F666F6E 
 11272      745F6E6F 
 11272      726D616C 
 11272      00
 11273              	.LASF410:
 11274 0c15 77696474 		.ascii	"width\000"
 11274      6800
 11275              	.LASF388:
 11276 0c1b 6D61736B 		.ascii	"mask_buf\000"
 11276      5F627566 
 11276      00
 11277              	.LASF309:
 11278 0c24 70617474 		.ascii	"pattern_image\000"
 11278      65726E5F 
 11278      696D6167 
 11278      6500
 11279              	.LASF235:
 11280 0c32 6368696C 		.ascii	"child_ll\000"
 11280      645F6C6C 
 11280      00
 11281              	.LASF256:
 11282 0c3b 70726F74 		.ascii	"protect\000"
 11282      65637400 
 11283              	.LASF259:
 11284 0c43 62756631 		.ascii	"buf1\000"
 11284      00
 11285              	.LASF260:
 11286 0c48 62756632 		.ascii	"buf2\000"
 11286      00
 11287              	.LASF416:
 11288 0c4d 6D61736B 		.ascii	"mask\000"
 11288      00
 11289              	.LASF249:
 11290 0c52 70617265 		.ascii	"parent_event\000"
 11290      6E745F65 
 11290      76656E74 
 11290      00
 11291              	.LASF441:
 11292 0c5f 6C765F69 		.ascii	"lv_img_decoder_read_line\000"
 11292      6D675F64 
ARM GAS  C:\Users\strap\AppData\Local\Temp\ccUgAYbc.s 			page 245


 11292      65636F64 
 11292      65725F72 
 11292      6561645F 
 11293              	.LASF130:
 11294 0c78 756E6465 		.ascii	"underline_thickness\000"
 11294      726C696E 
 11294      655F7468 
 11294      69636B6E 
 11294      65737300 
 11295              	.LASF350:
 11296 0c8c 616C6967 		.ascii	"align\000"
 11296      6E00
 11297              	.LASF26:
 11298 0c92 4C565F4F 		.ascii	"LV_OPA_TRANSP\000"
 11298      50415F54 
 11298      52414E53 
 11298      5000
 11299              	.LASF68:
 11300 0ca0 4C565F49 		.ascii	"LV_IMG_CF_ALPHA_2BIT\000"
 11300      4D475F43 
 11300      465F414C 
 11300      5048415F 
 11300      32424954 
 11301              	.LASF147:
 11302 0cb5 736B6970 		.ascii	"skip_trans\000"
 11302      5F747261 
 11302      6E7300
 11303              	.LASF106:
 11304 0cc0 7069766F 		.ascii	"pivot_x_256\000"
 11304      745F785F 
 11304      32353600 
 11305              	.LASF391:
 11306 0ccc 7265636F 		.ascii	"recolor_premult\000"
 11306      6C6F725F 
 11306      7072656D 
 11306      756C7400 
 11307              	.LASF69:
 11308 0cdc 4C565F49 		.ascii	"LV_IMG_CF_ALPHA_4BIT\000"
 11308      4D475F43 
 11308      465F414C 
 11308      5048415F 
 11308      34424954 
 11309              	.LASF424:
 11310 0cf1 5F6C765F 		.ascii	"_lv_mem_buf_release\000"
 11310      6D656D5F 
 11310      6275665F 
 11310      72656C65 
 11310      61736500 
 11311              	.LASF14:
 11312 0d05 756E7369 		.ascii	"unsigned int\000"
 11312      676E6564 
 11312      20696E74 
 11312      00
 11313              	.LASF328:
 11314 0d12 6C765F74 		.ascii	"lv_txt_flag_t\000"
 11314      78745F66 
 11314      6C61675F 
ARM GAS  C:\Users\strap\AppData\Local\Temp\ccUgAYbc.s 			page 246


 11314      7400
 11315              	.LASF320:
 11316 0d20 76616C75 		.ascii	"value_ofs_x\000"
 11316      655F6F66 
 11316      735F7800 
 11317              	.LASF373:
 11318 0d2c 64697370 		.ascii	"disp\000"
 11318      00
 11319              	.LASF61:
 11320 0d31 4C565F49 		.ascii	"LV_IMG_CF_TRUE_COLOR_ALPHA\000"
 11320      4D475F43 
 11320      465F5452 
 11320      55455F43 
 11320      4F4C4F52 
 11321              	.LASF407:
 11322 0d4c 6D61705F 		.ascii	"map_area_rot\000"
 11322      61726561 
 11322      5F726F74 
 11322      00
 11323              	.LASF402:
 11324 0d59 6C765F69 		.ascii	"lv_img_cf_get_px_size\000"
 11324      6D675F63 
 11324      665F6765 
 11324      745F7078 
 11324      5F73697A 
 11325              	.LASF367:
 11326 0d6f 636C6970 		.ascii	"clip_area\000"
 11326      5F617265 
 11326      6100
 11327              	.LASF70:
 11328 0d79 4C565F49 		.ascii	"LV_IMG_CF_ALPHA_8BIT\000"
 11328      4D475F43 
 11328      465F414C 
 11328      5048415F 
 11328      38424954 
 11329              	.LASF335:
 11330 0d8e 73656C5F 		.ascii	"sel_end\000"
 11330      656E6400 
 11331              	.LASF110:
 11332 0d96 6368726F 		.ascii	"chroma_keyed\000"
 11332      6D615F6B 
 11332      65796564 
 11332      00
 11333              	.LASF325:
 11334 0da3 76616C75 		.ascii	"value_blend_mode\000"
 11334      655F626C 
 11334      656E645F 
 11334      6D6F6465 
 11334      00
 11335              	.LASF64:
 11336 0db4 4C565F49 		.ascii	"LV_IMG_CF_INDEXED_2BIT\000"
 11336      4D475F43 
 11336      465F494E 
 11336      44455845 
 11336      445F3242 
 11337              	.LASF337:
 11338 0dcb 666C6167 		.ascii	"flag\000"
ARM GAS  C:\Users\strap\AppData\Local\Temp\ccUgAYbc.s 			page 247


 11338      00
 11339              	.LASF300:
 11340 0dd0 6F75746C 		.ascii	"outline_opa\000"
 11340      696E655F 
 11340      6F706100 
 11341              	.LASF229:
 11342 0ddc 696E765F 		.ascii	"inv_areas\000"
 11342      61726561 
 11342      7300
 11343              	.LASF194:
 11344 0de6 6C765F69 		.ascii	"lv_img_decoder_dsc_t\000"
 11344      6D675F64 
 11344      65636F64 
 11344      65725F64 
 11344      73635F74 
 11345              	.LASF65:
 11346 0dfb 4C565F49 		.ascii	"LV_IMG_CF_INDEXED_4BIT\000"
 11346      4D475F43 
 11346      465F494E 
 11346      44455845 
 11346      445F3442 
 11347              	.LASF413:
 11348 0e12 6D61736B 		.ascii	"mask_line\000"
 11348      5F6C696E 
 11348      6500
 11349              	.LASF351:
 11350 0e1c 6175746F 		.ascii	"auto_realign\000"
 11350      5F726561 
 11350      6C69676E 
 11350      00
 11351              	.LASF409:
 11352 0e29 756E696F 		.ascii	"union_ok\000"
 11352      6E5F6F6B 
 11352      00
 11353              	.LASF196:
 11354 0e32 7265636F 		.ascii	"recolor_opa\000"
 11354      6C6F725F 
 11354      6F706100 
 11355              	.LASF151:
 11356 0e3e 72616469 		.ascii	"radius_zero\000"
 11356      75735F7A 
 11356      65726F00 
 11357              	.LASF123:
 11358 0e4a 6C765F66 		.ascii	"lv_font_glyph_dsc_t\000"
 11358      6F6E745F 
 11358      676C7970 
 11358      685F6473 
 11358      635F7400 
 11359              	.LASF298:
 11360 0e5e 6F75746C 		.ascii	"outline_width\000"
 11360      696E655F 
 11360      77696474 
 11360      6800
 11361              	.LASF66:
 11362 0e6c 4C565F49 		.ascii	"LV_IMG_CF_INDEXED_8BIT\000"
 11362      4D475F43 
 11362      465F494E 
ARM GAS  C:\Users\strap\AppData\Local\Temp\ccUgAYbc.s 			page 248


 11362      44455845 
 11362      445F3842 
 11363              	.LASF59:
 11364 0e83 4C565F49 		.ascii	"LV_IMG_CF_RAW_CHROMA_KEYED\000"
 11364      4D475F43 
 11364      465F5241 
 11364      575F4348 
 11364      524F4D41 
 11365              	.LASF217:
 11366 0e9e 5F646973 		.ascii	"_disp_t\000"
 11366      705F7400 
 11367              	.LASF62:
 11368 0ea6 4C565F49 		.ascii	"LV_IMG_CF_TRUE_COLOR_CHROMA_KEYED\000"
 11368      4D475F43 
 11368      465F5452 
 11368      55455F43 
 11368      4F4C4F52 
 11369              	.LASF103:
 11370 0ec8 616E7469 		.ascii	"antialias\000"
 11370      616C6961 
 11370      7300
 11371              	.LASF403:
 11372 0ed2 6C765F69 		.ascii	"lv_img_cf_is_chroma_keyed\000"
 11372      6D675F63 
 11372      665F6973 
 11372      5F636872 
 11372      6F6D615F 
 11373              	.LASF37:
 11374 0eec 4C565F4F 		.ascii	"LV_OPA_100\000"
 11374      50415F31 
 11374      303000
 11375              	.LASF169:
 11376 0ef7 74657874 		.ascii	"text_decor_none\000"
 11376      5F646563 
 11376      6F725F6E 
 11376      6F6E6500 
 11377              	.LASF80:
 11378 0f07 4C565F49 		.ascii	"LV_IMG_CF_USER_ENCODED_0\000"
 11378      4D475F43 
 11378      465F5553 
 11378      45525F45 
 11378      4E434F44 
 11379              	.LASF81:
 11380 0f20 4C565F49 		.ascii	"LV_IMG_CF_USER_ENCODED_1\000"
 11380      4D475F43 
 11380      465F5553 
 11380      45525F45 
 11380      4E434F44 
 11381              	.LASF82:
 11382 0f39 4C565F49 		.ascii	"LV_IMG_CF_USER_ENCODED_2\000"
 11382      4D475F43 
 11382      465F5553 
 11382      45525F45 
 11382      4E434F44 
 11383              	.LASF83:
 11384 0f52 4C565F49 		.ascii	"LV_IMG_CF_USER_ENCODED_3\000"
 11384      4D475F43 
ARM GAS  C:\Users\strap\AppData\Local\Temp\ccUgAYbc.s 			page 249


 11384      465F5553 
 11384      45525F45 
 11384      4E434F44 
 11385              	.LASF84:
 11386 0f6b 4C565F49 		.ascii	"LV_IMG_CF_USER_ENCODED_4\000"
 11386      4D475F43 
 11386      465F5553 
 11386      45525F45 
 11386      4E434F44 
 11387              	.LASF85:
 11388 0f84 4C565F49 		.ascii	"LV_IMG_CF_USER_ENCODED_5\000"
 11388      4D475F43 
 11388      465F5553 
 11388      45525F45 
 11388      4E434F44 
 11389              	.LASF86:
 11390 0f9d 4C565F49 		.ascii	"LV_IMG_CF_USER_ENCODED_6\000"
 11390      4D475F43 
 11390      465F5553 
 11390      45525F45 
 11390      4E434F44 
 11391              	.LASF87:
 11392 0fb6 4C565F49 		.ascii	"LV_IMG_CF_USER_ENCODED_7\000"
 11392      4D475F43 
 11392      465F5553 
 11392      45525F45 
 11392      4E434F44 
 11393              	.LASF52:
 11394 0fcf 6C765F72 		.ascii	"lv_res_t\000"
 11394      65735F74 
 11394      00
 11395              	.LASF446:
 11396 0fd8 6C76676C 		.ascii	"lvgl\\src\\lv_draw\\lv_draw_img.c\000"
 11396      5C737263 
 11396      5C6C765F 
 11396      64726177 
 11396      5C6C765F 
 11397              	.LASF261:
 11398 0ff7 6275665F 		.ascii	"buf_act\000"
 11398      61637400 
 11399              	.LASF47:
 11400 0fff 6C6F6E67 		.ascii	"long double\000"
 11400      20646F75 
 11400      626C6500 
 11401              	.LASF216:
 11402 100b 6C765F64 		.ascii	"lv_drag_dir_t\000"
 11402      7261675F 
 11402      6469725F 
 11402      7400
 11403              	.LASF152:
 11404 1019 6F70615F 		.ascii	"opa_scale_cover\000"
 11404      7363616C 
 11404      655F636F 
 11404      76657200 
 11405              	.LASF136:
 11406 1029 4C565F44 		.ascii	"LV_DRAW_MASK_RES_UNKNOWN\000"
 11406      5241575F 
ARM GAS  C:\Users\strap\AppData\Local\Temp\ccUgAYbc.s 			page 250


 11406      4D41534B 
 11406      5F524553 
 11406      5F554E4B 
 11407              	.LASF340:
 11408 1042 6C765F64 		.ascii	"lv_design_mode_t\000"
 11408      65736967 
 11408      6E5F6D6F 
 11408      64655F74 
 11408      00
 11409              	.LASF128:
 11410 1053 73756270 		.ascii	"subpx\000"
 11410      7800
 11411              	.LASF38:
 11412 1059 4C565F4F 		.ascii	"LV_OPA_COVER\000"
 11412      50415F43 
 11412      4F564552 
 11412      00
 11413              	.LASF145:
 11414 1066 6861735F 		.ascii	"has_local\000"
 11414      6C6F6361 
 11414      6C00
 11415              	.LASF191:
 11416 1070 6C765F69 		.ascii	"lv_img_decoder_read_line_f_t\000"
 11416      6D675F64 
 11416      65636F64 
 11416      65725F72 
 11416      6561645F 
 11417              	.LASF436:
 11418 108d 6C765F64 		.ascii	"lv_draw_rect\000"
 11418      7261775F 
 11418      72656374 
 11418      00
 11419              	.LASF376:
 11420 109a 70785F73 		.ascii	"px_size_byte\000"
 11420      697A655F 
 11420      62797465 
 11420      00
 11421              	.LASF428:
 11422 10a7 5F6C765F 		.ascii	"_lv_img_buf_transform_anti_alias\000"
 11422      696D675F 
 11422      6275665F 
 11422      7472616E 
 11422      73666F72 
 11423              	.LASF0:
 11424 10c8 5F5F696E 		.ascii	"__int8_t\000"
 11424      74385F74 
 11424      00
 11425              	.LASF397:
 11426 10d1 6D61736B 		.ascii	"mask_res_sub\000"
 11426      5F726573 
 11426      5F737562 
 11426      00
 11427              	.LASF353:
 11428 10de 6C765F72 		.ascii	"lv_realign_t\000"
 11428      65616C69 
 11428      676E5F74 
 11428      00
ARM GAS  C:\Users\strap\AppData\Local\Temp\ccUgAYbc.s 			page 251


 11429              	.LASF281:
 11430 10eb 6770755F 		.ascii	"gpu_wait_cb\000"
 11430      77616974 
 11430      5F636200 
 11431              	.LASF262:
 11432 10f7 73697A65 		.ascii	"size\000"
 11432      00
 11433              	.LASF157:
 11434 10fc 626C656E 		.ascii	"blend_mode_all_normal\000"
 11434      645F6D6F 
 11434      64655F61 
 11434      6C6C5F6E 
 11434      6F726D61 
 11435              	.LASF13:
 11436 1112 6C6F6E67 		.ascii	"long long unsigned int\000"
 11436      206C6F6E 
 11436      6720756E 
 11436      7369676E 
 11436      65642069 
 11437              	.LASF280:
 11438 1129 636C6561 		.ascii	"clean_dcache_cb\000"
 11438      6E5F6463 
 11438      61636865 
 11438      5F636200 
 11439              	.LASF18:
 11440 1139 75696E74 		.ascii	"uint16_t\000"
 11440      31365F74 
 11440      00
 11441              	.LASF51:
 11442 1142 4C565F52 		.ascii	"LV_RES_OK\000"
 11442      45535F4F 
 11442      4B00
 11443              	.LASF211:
 11444 114c 6C617374 		.ascii	"last_run\000"
 11444      5F72756E 
 11444      00
 11445              	.LASF111:
 11446 1155 6861735F 		.ascii	"has_alpha\000"
 11446      616C7068 
 11446      6100
 11447              	.LASF180:
 11448 115f 696E666F 		.ascii	"info_cb\000"
 11448      5F636200 
 11449              	.LASF44:
 11450 1167 6C765F63 		.ascii	"lv_color_t\000"
 11450      6F6C6F72 
 11450      5F7400
 11451              	.LASF56:
 11452 1172 4C565F49 		.ascii	"LV_IMG_CF_UNKNOWN\000"
 11452      4D475F43 
 11452      465F554E 
 11452      4B4E4F57 
 11452      4E00
 11453              	.LASF215:
 11454 1184 6C765F74 		.ascii	"lv_task_t\000"
 11454      61736B5F 
 11454      7400
ARM GAS  C:\Users\strap\AppData\Local\Temp\ccUgAYbc.s 			page 252


 11455              	.LASF352:
 11456 118e 6D69645F 		.ascii	"mid_align\000"
 11456      616C6967 
 11456      6E00
 11457              	.LASF359:
 11458 1198 6C765F61 		.ascii	"lv_area_get_height\000"
 11458      7265615F 
 11458      6765745F 
 11458      68656967 
 11458      687400
 11459              	.LASF292:
 11460 11ab 626F7264 		.ascii	"border_width\000"
 11460      65725F77 
 11460      69647468 
 11460      00
 11461              	.LASF24:
 11462 11b8 6C765F66 		.ascii	"lv_font_user_data_t\000"
 11462      6F6E745F 
 11462      75736572 
 11462      5F646174 
 11462      615F7400 
 11463              	.LASF168:
 11464 11cc 74657874 		.ascii	"text_space_zero\000"
 11464      5F737061 
 11464      63655F7A 
 11464      65726F00 
 11465              	.LASF310:
 11466 11dc 70617474 		.ascii	"pattern_font\000"
 11466      65726E5F 
 11466      666F6E74 
 11466      00
 11467              	.LASF95:
 11468 11e9 6C765F69 		.ascii	"lv_img_dsc_t\000"
 11468      6D675F64 
 11468      73635F74 
 11468      00
 11469              	.LASF28:
 11470 11f6 4C565F4F 		.ascii	"LV_OPA_10\000"
 11470      50415F31 
 11470      3000
 11471              	.LASF60:
 11472 1200 4C565F49 		.ascii	"LV_IMG_CF_TRUE_COLOR\000"
 11472      4D475F43 
 11472      465F5452 
 11472      55455F43 
 11472      4F4C4F52 
 11473              	.LASF382:
 11474 1215 626C656E 		.ascii	"blend_area\000"
 11474      645F6172 
 11474      656100
 11475              	.LASF364:
 11476 1220 6C765F63 		.ascii	"lv_color_mix_premult\000"
 11476      6F6C6F72 
 11476      5F6D6978 
 11476      5F707265 
 11476      6D756C74 
 11477              	.LASF184:
ARM GAS  C:\Users\strap\AppData\Local\Temp\ccUgAYbc.s 			page 253


 11478 1235 6C765F69 		.ascii	"lv_img_decoder_open_f_t\000"
 11478      6D675F64 
 11478      65636F64 
 11478      65725F6F 
 11478      70656E5F 
 11479              	.LASF210:
 11480 124d 70657269 		.ascii	"period\000"
 11480      6F6400
 11481              	.LASF276:
 11482 1254 726F756E 		.ascii	"rounder_cb\000"
 11482      6465725F 
 11482      636200
 11483              	.LASF338:
 11484 125f 6465636F 		.ascii	"decor\000"
 11484      7200
 11485              	.LASF427:
 11486 1265 6C765F69 		.ascii	"lv_img_buf_get_px_alpha\000"
 11486      6D675F62 
 11486      75665F67 
 11486      65745F70 
 11486      785F616C 
 11487              	.LASF112:
 11488 127d 6E617469 		.ascii	"native_color\000"
 11488      76655F63 
 11488      6F6C6F72 
 11488      00
 11489              	.LASF4:
 11490 128a 5F5F696E 		.ascii	"__int16_t\000"
 11490      7431365F 
 11490      7400
 11491              	.LASF355:
 11492 1294 64657374 		.ascii	"dest\000"
 11492      00
 11493              	.LASF42:
 11494 1299 66756C6C 		.ascii	"full\000"
 11494      00
 11495              	.LASF316:
 11496 129e 76616C75 		.ascii	"value_str\000"
 11496      655F7374 
 11496      7200
 11497              	.LASF29:
 11498 12a8 4C565F4F 		.ascii	"LV_OPA_20\000"
 11498      50415F32 
 11498      3000
 11499              	.LASF102:
 11500 12b2 636F6C6F 		.ascii	"color\000"
 11500      7200
 11501              	.LASF171:
 11502 12b8 6C765F73 		.ascii	"lv_style_list_t\000"
 11502      74796C65 
 11502      5F6C6973 
 11502      745F7400 
 11503              	.LASF385:
 11504 12c8 7472616E 		.ascii	"transform\000"
 11504      73666F72 
 11504      6D00
 11505              	.LASF195:
ARM GAS  C:\Users\strap\AppData\Local\Temp\ccUgAYbc.s 			page 254


 11506 12d2 7069766F 		.ascii	"pivot\000"
 11506      7400
 11507              	.LASF332:
 11508 12d8 6C696E65 		.ascii	"line_space\000"
 11508      5F737061 
 11508      636500
 11509              	.LASF348:
 11510 12e3 786F6673 		.ascii	"xofs\000"
 11510      00
 11511              	.LASF218:
 11512 12e8 64726976 		.ascii	"driver\000"
 11512      657200
 11513              	.LASF182:
 11514 12ef 72656164 		.ascii	"read_line_cb\000"
 11514      5F6C696E 
 11514      655F6362 
 11514      00
 11515              	.LASF97:
 11516 12fc 7372635F 		.ascii	"src_h\000"
 11516      6800
 11517              	.LASF345:
 11518 1302 6C765F73 		.ascii	"lv_signal_t\000"
 11518      69676E61 
 11518      6C5F7400 
 11519              	.LASF245:
 11520 130e 64726167 		.ascii	"drag\000"
 11520      00
 11521              	.LASF96:
 11522 1313 7372635F 		.ascii	"src_w\000"
 11522      7700
 11523              	.LASF242:
 11524 1319 6578745F 		.ascii	"ext_click_pad_ver\000"
 11524      636C6963 
 11524      6B5F7061 
 11524      645F7665 
 11524      7200
 11525              	.LASF233:
 11526 132b 5F6C765F 		.ascii	"_lv_obj_t\000"
 11526      6F626A5F 
 11526      7400
 11527              	.LASF331:
 11528 1335 666F6E74 		.ascii	"font\000"
 11528      00
 11529              	.LASF333:
 11530 133a 6C657474 		.ascii	"letter_space\000"
 11530      65725F73 
 11530      70616365 
 11530      00
 11531              	.LASF30:
 11532 1347 4C565F4F 		.ascii	"LV_OPA_30\000"
 11532      50415F33 
 11532      3000
 11533              	.LASF254:
 11534 1351 62617365 		.ascii	"base_dir\000"
 11534      5F646972 
 11534      00
 11535              	.LASF222:
ARM GAS  C:\Users\strap\AppData\Local\Temp\ccUgAYbc.s 			page 255


 11536 135a 70726576 		.ascii	"prev_scr\000"
 11536      5F736372 
 11536      00
 11537              	.LASF347:
 11538 1363 62617365 		.ascii	"base\000"
 11538      00
 11539              	.LASF414:
 11540 1368 6C765F64 		.ascii	"lv_draw_img_dsc_init\000"
 11540      7261775F 
 11540      696D675F 
 11540      6473635F 
 11540      696E6974 
 11541              	.LASF43:
 11542 137d 6C765F63 		.ascii	"lv_color16_t\000"
 11542      6F6C6F72 
 11542      31365F74 
 11542      00
 11543              	.LASF119:
 11544 138a 626F785F 		.ascii	"box_w\000"
 11544      7700
 11545              	.LASF5:
 11546 1390 73686F72 		.ascii	"short int\000"
 11546      7420696E 
 11546      7400
 11547              	.LASF318:
 11548 139a 76616C75 		.ascii	"value_opa\000"
 11548      655F6F70 
 11548      6100
 11549              	.LASF127:
 11550 13a4 62617365 		.ascii	"base_line\000"
 11550      5F6C696E 
 11550      6500
 11551              	.LASF231:
 11552 13ae 696E765F 		.ascii	"inv_p\000"
 11552      7000
 11553              	.LASF207:
 11554 13b4 6C765F6C 		.ascii	"lv_ll_t\000"
 11554      6C5F7400 
 11555              	.LASF166:
 11556 13bc 76616C75 		.ascii	"value_txt_str\000"
 11556      655F7478 
 11556      745F7374 
 11556      7200
 11557              	.LASF307:
 11558 13ca 73686164 		.ascii	"shadow_opa\000"
 11558      6F775F6F 
 11558      706100
 11559              	.LASF173:
 11560 13d5 4C565F49 		.ascii	"LV_IMG_SRC_FILE\000"
 11560      4D475F53 
 11560      52435F46 
 11560      494C4500 
 11561              	.LASF31:
 11562 13e5 4C565F4F 		.ascii	"LV_OPA_40\000"
 11562      50415F34 
 11562      3000
 11563              	.LASF17:
ARM GAS  C:\Users\strap\AppData\Local\Temp\ccUgAYbc.s 			page 256


 11564 13ef 696E7431 		.ascii	"int16_t\000"
 11564      365F7400 
 11565              	.LASF236:
 11566 13f7 636F6F72 		.ascii	"coords\000"
 11566      647300
 11567              	.LASF159:
 11568 13fe 62675F6F 		.ascii	"bg_opa_cover\000"
 11568      70615F63 
 11568      6F766572 
 11568      00
 11569              	.LASF224:
 11570 140b 7379735F 		.ascii	"sys_layer\000"
 11570      6C617965 
 11570      7200
 11571              	.LASF114:
 11572 1415 78735F69 		.ascii	"xs_int\000"
 11572      6E7400
 11573              	.LASF404:
 11574 141c 69735F63 		.ascii	"is_chroma_keyed\000"
 11574      68726F6D 
 11574      615F6B65 
 11574      79656400 
 11575              	.LASF203:
 11576 142c 6C765F6C 		.ascii	"lv_ll_node_t\000"
 11576      6C5F6E6F 
 11576      64655F74 
 11576      00
 11577              	.LASF225:
 11578 1439 64656C5F 		.ascii	"del_prev\000"
 11578      70726576 
 11578      00
 11579              	.LASF396:
 11580 1442 726F745F 		.ascii	"rot_x\000"
 11580      7800
 11581              	.LASF394:
 11582 1448 726F745F 		.ascii	"rot_y\000"
 11582      7900
 11583              	.LASF227:
 11584 144e 62675F69 		.ascii	"bg_img\000"
 11584      6D6700
 11585              	.LASF425:
 11586 1455 5F6C765F 		.ascii	"_lv_img_buf_transform_init\000"
 11586      696D675F 
 11586      6275665F 
 11586      7472616E 
 11586      73666F72 
 11587              	.LASF200:
 11588 1470 6465635F 		.ascii	"dec_dsc\000"
 11588      64736300 
 11589              	.LASF32:
 11590 1478 4C565F4F 		.ascii	"LV_OPA_50\000"
 11590      50415F35 
 11590      3000
 11591              	.LASF386:
 11592 1482 6D61736B 		.ascii	"mask_buf_size\000"
 11592      5F627566 
 11592      5F73697A 
ARM GAS  C:\Users\strap\AppData\Local\Temp\ccUgAYbc.s 			page 257


 11592      6500
 11593              	.LASF357:
 11594 1490 6C765F61 		.ascii	"lv_area_get_width\000"
 11594      7265615F 
 11594      6765745F 
 11594      77696474 
 11594      6800
 11595              	.LASF163:
 11596 14a2 6F75746C 		.ascii	"outline_width_zero\000"
 11596      696E655F 
 11596      77696474 
 11596      685F7A65 
 11596      726F00
 11597              	.LASF440:
 11598 14b5 5F6C765F 		.ascii	"_lv_area_intersect\000"
 11598      61726561 
 11598      5F696E74 
 11598      65727365 
 11598      637400
 11599              	.LASF247:
 11600 14c8 64726167 		.ascii	"drag_parent\000"
 11600      5F706172 
 11600      656E7400 
 11601              	.LASF294:
 11602 14d4 626F7264 		.ascii	"border_opa\000"
 11602      65725F6F 
 11602      706100
 11603              	.LASF434:
 11604 14df 6C765F64 		.ascii	"lv_draw_mask_get_cnt\000"
 11604      7261775F 
 11604      6D61736B 
 11604      5F676574 
 11604      5F636E74 
 11605              	.LASF365:
 11606 14f4 7072656D 		.ascii	"premult_c1\000"
 11606      756C745F 
 11606      633100
 11607              	.LASF398:
 11608 14ff 6C765F64 		.ascii	"lv_draw_map\000"
 11608      7261775F 
 11608      6D617000 
 11609              	.LASF283:
 11610 150b 6C765F64 		.ascii	"lv_disp_drv_t\000"
 11610      6973705F 
 11610      6472765F 
 11610      7400
 11611              	.LASF58:
 11612 1519 4C565F49 		.ascii	"LV_IMG_CF_RAW_ALPHA\000"
 11612      4D475F43 
 11612      465F5241 
 11612      575F414C 
 11612      50484100 
 11613              	.LASF167:
 11614 152d 696D675F 		.ascii	"img_recolor_opa_transp\000"
 11614      7265636F 
 11614      6C6F725F 
 11614      6F70615F 
ARM GAS  C:\Users\strap\AppData\Local\Temp\ccUgAYbc.s 			page 258


 11614      7472616E 
 11615              	.LASF361:
 11616 1544 6C765F63 		.ascii	"lv_color_premult\000"
 11616      6F6C6F72 
 11616      5F707265 
 11616      6D756C74 
 11616      00
 11617              	.LASF432:
 11618 1555 5F6C765F 		.ascii	"_lv_refr_get_disp_refreshing\000"
 11618      72656672 
 11618      5F676574 
 11618      5F646973 
 11618      705F7265 
 11619              	.LASF209:
 11620 1572 5F6C765F 		.ascii	"_lv_task_t\000"
 11620      7461736B 
 11620      5F7400
 11621              	.LASF238:
 11622 157d 7369676E 		.ascii	"signal_cb\000"
 11622      616C5F63 
 11622      6200
 11623              	.LASF33:
 11624 1587 4C565F4F 		.ascii	"LV_OPA_60\000"
 11624      50415F36 
 11624      3000
 11625              	.LASF395:
 11626 1591 70785F69 		.ascii	"px_i_start\000"
 11626      5F737461 
 11626      727400
 11627              	.LASF433:
 11628 159c 6C765F64 		.ascii	"lv_disp_get_buf\000"
 11628      6973705F 
 11628      6765745F 
 11628      62756600 
 11629              	.LASF176:
 11630 15ac 6C765F69 		.ascii	"lv_img_src_t\000"
 11630      6D675F73 
 11630      72635F74 
 11630      00
 11631              	.LASF366:
 11632 15b9 6D61705F 		.ascii	"map_area\000"
 11632      61726561 
 11632      00
 11633              	.LASF334:
 11634 15c2 73656C5F 		.ascii	"sel_start\000"
 11634      73746172 
 11634      7400
 11635              	.LASF20:
 11636 15cc 75696E74 		.ascii	"uint32_t\000"
 11636      33325F74 
 11636      00
 11637              	.LASF108:
 11638 15d5 73696E6D 		.ascii	"sinma\000"
 11638      6100
 11639              	.LASF429:
 11640 15db 6C765F64 		.ascii	"lv_draw_mask_apply\000"
 11640      7261775F 
ARM GAS  C:\Users\strap\AppData\Local\Temp\ccUgAYbc.s 			page 259


 11640      6D61736B 
 11640      5F617070 
 11640      6C7900
 11641              	.LASF22:
 11642 15ee 6C765F69 		.ascii	"lv_img_decoder_user_data_t\000"
 11642      6D675F64 
 11642      65636F64 
 11642      65725F75 
 11642      7365725F 
 11643              	.LASF303:
 11644 1609 73686164 		.ascii	"shadow_width\000"
 11644      6F775F77 
 11644      69647468 
 11644      00
 11645              	.LASF132:
 11646 1616 6C765F66 		.ascii	"lv_font_t\000"
 11646      6F6E745F 
 11646      7400
 11647              	.LASF90:
 11648 1620 72657365 		.ascii	"reserved\000"
 11648      72766564 
 11648      00
 11649              	.LASF278:
 11650 1629 6D6F6E69 		.ascii	"monitor_cb\000"
 11650      746F725F 
 11650      636200
 11651              	.LASF34:
 11652 1634 4C565F4F 		.ascii	"LV_OPA_70\000"
 11652      50415F37 
 11652      3000
 11653              	.LASF148:
 11654 163e 69676E6F 		.ascii	"ignore_trans\000"
 11654      72655F74 
 11654      72616E73 
 11654      00
 11655              	.LASF7:
 11656 164b 73686F72 		.ascii	"short unsigned int\000"
 11656      7420756E 
 11656      7369676E 
 11656      65642069 
 11656      6E7400
 11657              	.LASF21:
 11658 165e 6C765F63 		.ascii	"lv_coord_t\000"
 11658      6F6F7264 
 11658      5F7400
 11659              	.LASF133:
 11660 1669 4C565F44 		.ascii	"LV_DRAW_MASK_RES_TRANSP\000"
 11660      5241575F 
 11660      4D41534B 
 11660      5F524553 
 11660      5F545241 
 11661              	.LASF419:
 11662 1681 75385F70 		.ascii	"u8_p\000"
 11662      00
 11663              	.LASF120:
 11664 1686 626F785F 		.ascii	"box_h\000"
 11664      6800
ARM GAS  C:\Users\strap\AppData\Local\Temp\ccUgAYbc.s 			page 260


 11665              	.LASF275:
 11666 168c 666C7573 		.ascii	"flush_cb\000"
 11666      685F6362 
 11666      00
 11667              	.LASF131:
 11668 1695 75736572 		.ascii	"user_data\000"
 11668      5F646174 
 11668      6100
 11669              	.LASF89:
 11670 169f 616C7761 		.ascii	"always_zero\000"
 11670      79735F7A 
 11670      65726F00 
 11671              	.LASF379:
 11672 16ab 6368726F 		.ascii	"chroma_keyed_color\000"
 11672      6D615F6B 
 11672      65796564 
 11672      5F636F6C 
 11672      6F7200
 11673              	.LASF124:
 11674 16be 6765745F 		.ascii	"get_glyph_dsc\000"
 11674      676C7970 
 11674      685F6473 
 11674      6300
 11675              	.LASF8:
 11676 16cc 5F5F696E 		.ascii	"__int32_t\000"
 11676      7433325F 
 11676      7400
 11677              	.LASF192:
 11678 16d6 6C765F69 		.ascii	"lv_img_decoder_close_f_t\000"
 11678      6D675F64 
 11678      65636F64 
 11678      65725F63 
 11678      6C6F7365 
 11679              	.LASF139:
 11680 16ef 6C765F67 		.ascii	"lv_grad_dir_t\000"
 11680      7261645F 
 11680      6469725F 
 11680      7400
 11681              	.LASF35:
 11682 16fd 4C565F4F 		.ascii	"LV_OPA_80\000"
 11682      50415F38 
 11682      3000
 11683              	.LASF177:
 11684 1707 6C765F69 		.ascii	"lv_img_decoder_info_f_t\000"
 11684      6D675F64 
 11684      65636F64 
 11684      65725F69 
 11684      6E666F5F 
 11685              	.LASF187:
 11686 171f 7372635F 		.ascii	"src_type\000"
 11686      74797065 
 11686      00
 11687              	.LASF313:
 11688 1728 70617474 		.ascii	"pattern_recolor_opa\000"
 11688      65726E5F 
 11688      7265636F 
 11688      6C6F725F 
ARM GAS  C:\Users\strap\AppData\Local\Temp\ccUgAYbc.s 			page 261


 11688      6F706100 
 11689              	.LASF329:
 11690 173c 73656C5F 		.ascii	"sel_color\000"
 11690      636F6C6F 
 11690      7200
 11691              	.LASF146:
 11692 1746 6861735F 		.ascii	"has_trans\000"
 11692      7472616E 
 11692      7300
 11693              	.LASF315:
 11694 1750 70617474 		.ascii	"pattern_blend_mode\000"
 11694      65726E5F 
 11694      626C656E 
 11694      645F6D6F 
 11694      646500
 11695              	.LASF208:
 11696 1763 6C765F74 		.ascii	"lv_task_cb_t\000"
 11696      61736B5F 
 11696      63625F74 
 11696      00
 11697              	.LASF94:
 11698 1770 64617461 		.ascii	"data\000"
 11698      00
 11699              	.LASF178:
 11700 1775 5F6C765F 		.ascii	"_lv_font_struct\000"
 11700      666F6E74 
 11700      5F737472 
 11700      75637400 
 11701              	.LASF304:
 11702 1785 73686164 		.ascii	"shadow_ofs_x\000"
 11702      6F775F6F 
 11702      66735F78 
 11702      00
 11703              	.LASF305:
 11704 1792 73686164 		.ascii	"shadow_ofs_y\000"
 11704      6F775F6F 
 11704      66735F79 
 11704      00
 11705              	.LASF417:
 11706 179f 6C765F69 		.ascii	"lv_img_src_get_type\000"
 11706      6D675F73 
 11706      72635F67 
 11706      65745F74 
 11706      79706500 
 11707              	.LASF204:
 11708 17b3 6E5F7369 		.ascii	"n_size\000"
 11708      7A6500
 11709              	.LASF290:
 11710 17ba 62675F62 		.ascii	"bg_blend_mode\000"
 11710      6C656E64 
 11710      5F6D6F64 
 11710      6500
 11711              	.LASF380:
 11712 17c8 70785F69 		.ascii	"px_i\000"
 11712      00
 11713              	.LASF342:
 11714 17cd 6C765F64 		.ascii	"lv_design_cb_t\000"
ARM GAS  C:\Users\strap\AppData\Local\Temp\ccUgAYbc.s 			page 262


 11714      65736967 
 11714      6E5F6362 
 11714      5F7400
 11715              	.LASF36:
 11716 17dc 4C565F4F 		.ascii	"LV_OPA_90\000"
 11716      50415F39 
 11716      3000
 11717              		.ident	"GCC: (GNU Tools for ARM Embedded Processors) 5.4.1 20160609 (release) [ARM/embedded-5-bran
