ARM GAS  C:\Users\strap\AppData\Local\Temp\ccUgAYbc.s 			page 1


   1              		.syntax unified
   2              		.cpu cortex-m3
   3              		.fpu softvfp
   4              		.eabi_attribute 20, 1
   5              		.eabi_attribute 21, 1
   6              		.eabi_attribute 23, 3
   7              		.eabi_attribute 24, 1
   8              		.eabi_attribute 25, 1
   9              		.eabi_attribute 26, 1
  10              		.eabi_attribute 30, 1
  11              		.eabi_attribute 34, 1
  12              		.eabi_attribute 18, 4
  13              		.thumb
  14              		.syntax unified
  15              		.file	"lv_draw_img.c"
  16              		.text
  17              	.Ltext0:
  18              		.cfi_sections	.debug_frame
  19              		.section	.text.lv_draw_map,"ax",%progbits
  20              		.align	2
  21              		.thumb
  22              		.thumb_func
  23              		.type	lv_draw_map, %function
  24              	lv_draw_map:
  25              	.LFB335:
  26              		.file 1 "lvgl\\src\\lv_draw\\lv_draw_img.c"
   1:lvgl\src\lv_draw/lv_draw_img.c **** /**
   2:lvgl\src\lv_draw/lv_draw_img.c ****  * @file lv_draw_img.c
   3:lvgl\src\lv_draw/lv_draw_img.c ****  *
   4:lvgl\src\lv_draw/lv_draw_img.c ****  */
   5:lvgl\src\lv_draw/lv_draw_img.c **** 
   6:lvgl\src\lv_draw/lv_draw_img.c **** /*********************
   7:lvgl\src\lv_draw/lv_draw_img.c ****  *      INCLUDES
   8:lvgl\src\lv_draw/lv_draw_img.c ****  *********************/
   9:lvgl\src\lv_draw/lv_draw_img.c **** #include "lv_draw_img.h"
  10:lvgl\src\lv_draw/lv_draw_img.c **** #include "lv_img_cache.h"
  11:lvgl\src\lv_draw/lv_draw_img.c **** #include "../lv_hal/lv_hal_disp.h"
  12:lvgl\src\lv_draw/lv_draw_img.c **** #include "../lv_misc/lv_log.h"
  13:lvgl\src\lv_draw/lv_draw_img.c **** #include "../lv_core/lv_refr.h"
  14:lvgl\src\lv_draw/lv_draw_img.c **** #include "../lv_misc/lv_mem.h"
  15:lvgl\src\lv_draw/lv_draw_img.c **** #include "../lv_misc/lv_math.h"
  16:lvgl\src\lv_draw/lv_draw_img.c **** #if LV_USE_GPU_STM32_DMA2D
  17:lvgl\src\lv_draw/lv_draw_img.c **** #include "../lv_gpu/lv_gpu_stm32_dma2d.h"
  18:lvgl\src\lv_draw/lv_draw_img.c **** #elif LV_USE_GPU_NXP_PXP
  19:lvgl\src\lv_draw/lv_draw_img.c ****     #include "../lv_gpu/lv_gpu_nxp_pxp.h"
  20:lvgl\src\lv_draw/lv_draw_img.c **** #endif
  21:lvgl\src\lv_draw/lv_draw_img.c **** 
  22:lvgl\src\lv_draw/lv_draw_img.c **** /*********************
  23:lvgl\src\lv_draw/lv_draw_img.c ****  *      DEFINES
  24:lvgl\src\lv_draw/lv_draw_img.c ****  *********************/
  25:lvgl\src\lv_draw/lv_draw_img.c **** 
  26:lvgl\src\lv_draw/lv_draw_img.c **** /**********************
  27:lvgl\src\lv_draw/lv_draw_img.c ****  *      TYPEDEFS
  28:lvgl\src\lv_draw/lv_draw_img.c ****  **********************/
  29:lvgl\src\lv_draw/lv_draw_img.c **** 
  30:lvgl\src\lv_draw/lv_draw_img.c **** /**********************
  31:lvgl\src\lv_draw/lv_draw_img.c ****  *  STATIC PROTOTYPES
ARM GAS  C:\Users\strap\AppData\Local\Temp\ccUgAYbc.s 			page 2


  32:lvgl\src\lv_draw/lv_draw_img.c ****  **********************/
  33:lvgl\src\lv_draw/lv_draw_img.c **** LV_ATTRIBUTE_FAST_MEM static lv_res_t lv_img_draw_core(const lv_area_t * coords, const lv_area_t * 
  34:lvgl\src\lv_draw/lv_draw_img.c ****                                                        const void * src,
  35:lvgl\src\lv_draw/lv_draw_img.c ****                                                        const lv_draw_img_dsc_t * draw_dsc);
  36:lvgl\src\lv_draw/lv_draw_img.c **** 
  37:lvgl\src\lv_draw/lv_draw_img.c **** LV_ATTRIBUTE_FAST_MEM static void lv_draw_map(const lv_area_t * map_area, const lv_area_t * clip_ar
  38:lvgl\src\lv_draw/lv_draw_img.c ****                                               const uint8_t * map_p,
  39:lvgl\src\lv_draw/lv_draw_img.c ****                                               const lv_draw_img_dsc_t * draw_dsc,
  40:lvgl\src\lv_draw/lv_draw_img.c ****                                               bool chroma_key, bool alpha_byte);
  41:lvgl\src\lv_draw/lv_draw_img.c **** 
  42:lvgl\src\lv_draw/lv_draw_img.c **** static void show_error(const lv_area_t * coords, const lv_area_t * clip_area, const char * msg);
  43:lvgl\src\lv_draw/lv_draw_img.c **** 
  44:lvgl\src\lv_draw/lv_draw_img.c **** /**********************
  45:lvgl\src\lv_draw/lv_draw_img.c ****  *  STATIC VARIABLES
  46:lvgl\src\lv_draw/lv_draw_img.c ****  **********************/
  47:lvgl\src\lv_draw/lv_draw_img.c **** 
  48:lvgl\src\lv_draw/lv_draw_img.c **** /**********************
  49:lvgl\src\lv_draw/lv_draw_img.c ****  *      MACROS
  50:lvgl\src\lv_draw/lv_draw_img.c ****  **********************/
  51:lvgl\src\lv_draw/lv_draw_img.c **** 
  52:lvgl\src\lv_draw/lv_draw_img.c **** /**********************
  53:lvgl\src\lv_draw/lv_draw_img.c ****  *   GLOBAL FUNCTIONS
  54:lvgl\src\lv_draw/lv_draw_img.c ****  **********************/
  55:lvgl\src\lv_draw/lv_draw_img.c **** 
  56:lvgl\src\lv_draw/lv_draw_img.c **** void lv_draw_img_dsc_init(lv_draw_img_dsc_t * dsc)
  57:lvgl\src\lv_draw/lv_draw_img.c **** {
  58:lvgl\src\lv_draw/lv_draw_img.c ****     _lv_memset_00(dsc, sizeof(lv_draw_img_dsc_t));
  59:lvgl\src\lv_draw/lv_draw_img.c ****     dsc->recolor = LV_COLOR_BLACK;
  60:lvgl\src\lv_draw/lv_draw_img.c ****     dsc->opa = LV_OPA_COVER;
  61:lvgl\src\lv_draw/lv_draw_img.c ****     dsc->zoom = LV_IMG_ZOOM_NONE;
  62:lvgl\src\lv_draw/lv_draw_img.c ****     dsc->antialias = LV_ANTIALIAS;
  63:lvgl\src\lv_draw/lv_draw_img.c **** 
  64:lvgl\src\lv_draw/lv_draw_img.c **** }
  65:lvgl\src\lv_draw/lv_draw_img.c **** 
  66:lvgl\src\lv_draw/lv_draw_img.c **** /**
  67:lvgl\src\lv_draw/lv_draw_img.c ****  * Draw an image
  68:lvgl\src\lv_draw/lv_draw_img.c ****  * @param coords the coordinates of the image
  69:lvgl\src\lv_draw/lv_draw_img.c ****  * @param mask the image will be drawn only in this area
  70:lvgl\src\lv_draw/lv_draw_img.c ****  * @param src pointer to a lv_color_t array which contains the pixels of the image
  71:lvgl\src\lv_draw/lv_draw_img.c ****  * @param dsc pointer to an initialized `lv_draw_img_dsc_t` variable
  72:lvgl\src\lv_draw/lv_draw_img.c ****  */
  73:lvgl\src\lv_draw/lv_draw_img.c **** void lv_draw_img(const lv_area_t * coords, const lv_area_t * mask, const void * src, const lv_draw_
  74:lvgl\src\lv_draw/lv_draw_img.c **** {
  75:lvgl\src\lv_draw/lv_draw_img.c ****     if(src == NULL) {
  76:lvgl\src\lv_draw/lv_draw_img.c ****         LV_LOG_WARN("Image draw: src is NULL");
  77:lvgl\src\lv_draw/lv_draw_img.c ****         show_error(coords, mask, "No\ndata");
  78:lvgl\src\lv_draw/lv_draw_img.c ****         return;
  79:lvgl\src\lv_draw/lv_draw_img.c ****     }
  80:lvgl\src\lv_draw/lv_draw_img.c **** 
  81:lvgl\src\lv_draw/lv_draw_img.c ****     if(dsc->opa <= LV_OPA_MIN) return;
  82:lvgl\src\lv_draw/lv_draw_img.c **** 
  83:lvgl\src\lv_draw/lv_draw_img.c ****     lv_res_t res;
  84:lvgl\src\lv_draw/lv_draw_img.c ****     res = lv_img_draw_core(coords, mask, src, dsc);
  85:lvgl\src\lv_draw/lv_draw_img.c **** 
  86:lvgl\src\lv_draw/lv_draw_img.c ****     if(res == LV_RES_INV) {
  87:lvgl\src\lv_draw/lv_draw_img.c ****         LV_LOG_WARN("Image draw error");
  88:lvgl\src\lv_draw/lv_draw_img.c ****         show_error(coords, mask, "No\ndata");
ARM GAS  C:\Users\strap\AppData\Local\Temp\ccUgAYbc.s 			page 3


  89:lvgl\src\lv_draw/lv_draw_img.c ****         return;
  90:lvgl\src\lv_draw/lv_draw_img.c ****     }
  91:lvgl\src\lv_draw/lv_draw_img.c **** }
  92:lvgl\src\lv_draw/lv_draw_img.c **** 
  93:lvgl\src\lv_draw/lv_draw_img.c **** /**
  94:lvgl\src\lv_draw/lv_draw_img.c ****  * Get the pixel size of a color format in bits
  95:lvgl\src\lv_draw/lv_draw_img.c ****  * @param cf a color format (`LV_IMG_CF_...`)
  96:lvgl\src\lv_draw/lv_draw_img.c ****  * @return the pixel size in bits
  97:lvgl\src\lv_draw/lv_draw_img.c ****  */
  98:lvgl\src\lv_draw/lv_draw_img.c **** uint8_t lv_img_cf_get_px_size(lv_img_cf_t cf)
  99:lvgl\src\lv_draw/lv_draw_img.c **** {
 100:lvgl\src\lv_draw/lv_draw_img.c ****     uint8_t px_size = 0;
 101:lvgl\src\lv_draw/lv_draw_img.c **** 
 102:lvgl\src\lv_draw/lv_draw_img.c ****     switch(cf) {
 103:lvgl\src\lv_draw/lv_draw_img.c ****         case LV_IMG_CF_UNKNOWN:
 104:lvgl\src\lv_draw/lv_draw_img.c ****         case LV_IMG_CF_RAW:
 105:lvgl\src\lv_draw/lv_draw_img.c ****             px_size = 0;
 106:lvgl\src\lv_draw/lv_draw_img.c ****             break;
 107:lvgl\src\lv_draw/lv_draw_img.c ****         case LV_IMG_CF_TRUE_COLOR:
 108:lvgl\src\lv_draw/lv_draw_img.c ****         case LV_IMG_CF_TRUE_COLOR_CHROMA_KEYED:
 109:lvgl\src\lv_draw/lv_draw_img.c ****             px_size = LV_COLOR_SIZE;
 110:lvgl\src\lv_draw/lv_draw_img.c ****             break;
 111:lvgl\src\lv_draw/lv_draw_img.c ****         case LV_IMG_CF_TRUE_COLOR_ALPHA:
 112:lvgl\src\lv_draw/lv_draw_img.c ****             px_size = LV_IMG_PX_SIZE_ALPHA_BYTE << 3;
 113:lvgl\src\lv_draw/lv_draw_img.c ****             break;
 114:lvgl\src\lv_draw/lv_draw_img.c ****         case LV_IMG_CF_INDEXED_1BIT:
 115:lvgl\src\lv_draw/lv_draw_img.c ****         case LV_IMG_CF_ALPHA_1BIT:
 116:lvgl\src\lv_draw/lv_draw_img.c ****             px_size = 1;
 117:lvgl\src\lv_draw/lv_draw_img.c ****             break;
 118:lvgl\src\lv_draw/lv_draw_img.c ****         case LV_IMG_CF_INDEXED_2BIT:
 119:lvgl\src\lv_draw/lv_draw_img.c ****         case LV_IMG_CF_ALPHA_2BIT:
 120:lvgl\src\lv_draw/lv_draw_img.c ****             px_size = 2;
 121:lvgl\src\lv_draw/lv_draw_img.c ****             break;
 122:lvgl\src\lv_draw/lv_draw_img.c ****         case LV_IMG_CF_INDEXED_4BIT:
 123:lvgl\src\lv_draw/lv_draw_img.c ****         case LV_IMG_CF_ALPHA_4BIT:
 124:lvgl\src\lv_draw/lv_draw_img.c ****             px_size = 4;
 125:lvgl\src\lv_draw/lv_draw_img.c ****             break;
 126:lvgl\src\lv_draw/lv_draw_img.c ****         case LV_IMG_CF_INDEXED_8BIT:
 127:lvgl\src\lv_draw/lv_draw_img.c ****         case LV_IMG_CF_ALPHA_8BIT:
 128:lvgl\src\lv_draw/lv_draw_img.c ****             px_size = 8;
 129:lvgl\src\lv_draw/lv_draw_img.c ****             break;
 130:lvgl\src\lv_draw/lv_draw_img.c ****         default:
 131:lvgl\src\lv_draw/lv_draw_img.c ****             px_size = 0;
 132:lvgl\src\lv_draw/lv_draw_img.c ****             break;
 133:lvgl\src\lv_draw/lv_draw_img.c ****     }
 134:lvgl\src\lv_draw/lv_draw_img.c **** 
 135:lvgl\src\lv_draw/lv_draw_img.c ****     return px_size;
 136:lvgl\src\lv_draw/lv_draw_img.c **** }
 137:lvgl\src\lv_draw/lv_draw_img.c **** 
 138:lvgl\src\lv_draw/lv_draw_img.c **** /**
 139:lvgl\src\lv_draw/lv_draw_img.c ****  * Check if a color format is chroma keyed or not
 140:lvgl\src\lv_draw/lv_draw_img.c ****  * @param cf a color format (`LV_IMG_CF_...`)
 141:lvgl\src\lv_draw/lv_draw_img.c ****  * @return true: chroma keyed; false: not chroma keyed
 142:lvgl\src\lv_draw/lv_draw_img.c ****  */
 143:lvgl\src\lv_draw/lv_draw_img.c **** bool lv_img_cf_is_chroma_keyed(lv_img_cf_t cf)
 144:lvgl\src\lv_draw/lv_draw_img.c **** {
 145:lvgl\src\lv_draw/lv_draw_img.c ****     bool is_chroma_keyed = false;
ARM GAS  C:\Users\strap\AppData\Local\Temp\ccUgAYbc.s 			page 4


 146:lvgl\src\lv_draw/lv_draw_img.c **** 
 147:lvgl\src\lv_draw/lv_draw_img.c ****     switch(cf) {
 148:lvgl\src\lv_draw/lv_draw_img.c ****         case LV_IMG_CF_TRUE_COLOR_CHROMA_KEYED:
 149:lvgl\src\lv_draw/lv_draw_img.c ****         case LV_IMG_CF_RAW_CHROMA_KEYED:
 150:lvgl\src\lv_draw/lv_draw_img.c ****         case LV_IMG_CF_INDEXED_1BIT:
 151:lvgl\src\lv_draw/lv_draw_img.c ****         case LV_IMG_CF_INDEXED_2BIT:
 152:lvgl\src\lv_draw/lv_draw_img.c ****         case LV_IMG_CF_INDEXED_4BIT:
 153:lvgl\src\lv_draw/lv_draw_img.c ****         case LV_IMG_CF_INDEXED_8BIT:
 154:lvgl\src\lv_draw/lv_draw_img.c ****             is_chroma_keyed = true;
 155:lvgl\src\lv_draw/lv_draw_img.c ****             break;
 156:lvgl\src\lv_draw/lv_draw_img.c **** 
 157:lvgl\src\lv_draw/lv_draw_img.c ****         default:
 158:lvgl\src\lv_draw/lv_draw_img.c ****             is_chroma_keyed = false;
 159:lvgl\src\lv_draw/lv_draw_img.c ****             break;
 160:lvgl\src\lv_draw/lv_draw_img.c ****     }
 161:lvgl\src\lv_draw/lv_draw_img.c **** 
 162:lvgl\src\lv_draw/lv_draw_img.c ****     return is_chroma_keyed;
 163:lvgl\src\lv_draw/lv_draw_img.c **** }
 164:lvgl\src\lv_draw/lv_draw_img.c **** 
 165:lvgl\src\lv_draw/lv_draw_img.c **** /**
 166:lvgl\src\lv_draw/lv_draw_img.c ****  * Check if a color format has alpha channel or not
 167:lvgl\src\lv_draw/lv_draw_img.c ****  * @param cf a color format (`LV_IMG_CF_...`)
 168:lvgl\src\lv_draw/lv_draw_img.c ****  * @return true: has alpha channel; false: doesn't have alpha channel
 169:lvgl\src\lv_draw/lv_draw_img.c ****  */
 170:lvgl\src\lv_draw/lv_draw_img.c **** bool lv_img_cf_has_alpha(lv_img_cf_t cf)
 171:lvgl\src\lv_draw/lv_draw_img.c **** {
 172:lvgl\src\lv_draw/lv_draw_img.c ****     bool has_alpha = false;
 173:lvgl\src\lv_draw/lv_draw_img.c **** 
 174:lvgl\src\lv_draw/lv_draw_img.c ****     switch(cf) {
 175:lvgl\src\lv_draw/lv_draw_img.c ****         case LV_IMG_CF_TRUE_COLOR_ALPHA:
 176:lvgl\src\lv_draw/lv_draw_img.c ****         case LV_IMG_CF_RAW_ALPHA:
 177:lvgl\src\lv_draw/lv_draw_img.c ****         case LV_IMG_CF_INDEXED_1BIT:
 178:lvgl\src\lv_draw/lv_draw_img.c ****         case LV_IMG_CF_INDEXED_2BIT:
 179:lvgl\src\lv_draw/lv_draw_img.c ****         case LV_IMG_CF_INDEXED_4BIT:
 180:lvgl\src\lv_draw/lv_draw_img.c ****         case LV_IMG_CF_INDEXED_8BIT:
 181:lvgl\src\lv_draw/lv_draw_img.c ****         case LV_IMG_CF_ALPHA_1BIT:
 182:lvgl\src\lv_draw/lv_draw_img.c ****         case LV_IMG_CF_ALPHA_2BIT:
 183:lvgl\src\lv_draw/lv_draw_img.c ****         case LV_IMG_CF_ALPHA_4BIT:
 184:lvgl\src\lv_draw/lv_draw_img.c ****         case LV_IMG_CF_ALPHA_8BIT:
 185:lvgl\src\lv_draw/lv_draw_img.c ****             has_alpha = true;
 186:lvgl\src\lv_draw/lv_draw_img.c ****             break;
 187:lvgl\src\lv_draw/lv_draw_img.c ****         default:
 188:lvgl\src\lv_draw/lv_draw_img.c ****             has_alpha = false;
 189:lvgl\src\lv_draw/lv_draw_img.c ****             break;
 190:lvgl\src\lv_draw/lv_draw_img.c ****     }
 191:lvgl\src\lv_draw/lv_draw_img.c **** 
 192:lvgl\src\lv_draw/lv_draw_img.c ****     return has_alpha;
 193:lvgl\src\lv_draw/lv_draw_img.c **** }
 194:lvgl\src\lv_draw/lv_draw_img.c **** 
 195:lvgl\src\lv_draw/lv_draw_img.c **** /**
 196:lvgl\src\lv_draw/lv_draw_img.c ****  * Get the type of an image source
 197:lvgl\src\lv_draw/lv_draw_img.c ****  * @param src pointer to an image source:
 198:lvgl\src\lv_draw/lv_draw_img.c ****  *  - pointer to an 'lv_img_t' variable (image stored internally and compiled into the code)
 199:lvgl\src\lv_draw/lv_draw_img.c ****  *  - a path to a file (e.g. "S:/folder/image.bin")
 200:lvgl\src\lv_draw/lv_draw_img.c ****  *  - or a symbol (e.g. LV_SYMBOL_CLOSE)
 201:lvgl\src\lv_draw/lv_draw_img.c ****  * @return type of the image source LV_IMG_SRC_VARIABLE/FILE/SYMBOL/UNKNOWN
 202:lvgl\src\lv_draw/lv_draw_img.c ****  */
ARM GAS  C:\Users\strap\AppData\Local\Temp\ccUgAYbc.s 			page 5


 203:lvgl\src\lv_draw/lv_draw_img.c **** lv_img_src_t lv_img_src_get_type(const void * src)
 204:lvgl\src\lv_draw/lv_draw_img.c **** {
 205:lvgl\src\lv_draw/lv_draw_img.c ****     lv_img_src_t img_src_type = LV_IMG_SRC_UNKNOWN;
 206:lvgl\src\lv_draw/lv_draw_img.c **** 
 207:lvgl\src\lv_draw/lv_draw_img.c ****     if(src == NULL) return img_src_type;
 208:lvgl\src\lv_draw/lv_draw_img.c ****     const uint8_t * u8_p = src;
 209:lvgl\src\lv_draw/lv_draw_img.c **** 
 210:lvgl\src\lv_draw/lv_draw_img.c ****     /*The first byte shows the type of the image source*/
 211:lvgl\src\lv_draw/lv_draw_img.c ****     if(u8_p[0] >= 0x20 && u8_p[0] <= 0x7F) {
 212:lvgl\src\lv_draw/lv_draw_img.c ****         img_src_type = LV_IMG_SRC_FILE; /*If it's an ASCII character then it's file name*/
 213:lvgl\src\lv_draw/lv_draw_img.c ****     }
 214:lvgl\src\lv_draw/lv_draw_img.c ****     else if(u8_p[0] >= 0x80) {
 215:lvgl\src\lv_draw/lv_draw_img.c ****         img_src_type = LV_IMG_SRC_SYMBOL; /*Symbols begins after 0x7F*/
 216:lvgl\src\lv_draw/lv_draw_img.c ****     }
 217:lvgl\src\lv_draw/lv_draw_img.c ****     else {
 218:lvgl\src\lv_draw/lv_draw_img.c ****         img_src_type = LV_IMG_SRC_VARIABLE; /*`lv_img_dsc_t` is design to the first byte < 0x20*/
 219:lvgl\src\lv_draw/lv_draw_img.c ****     }
 220:lvgl\src\lv_draw/lv_draw_img.c **** 
 221:lvgl\src\lv_draw/lv_draw_img.c ****     if(LV_IMG_SRC_UNKNOWN == img_src_type) {
 222:lvgl\src\lv_draw/lv_draw_img.c ****         LV_LOG_WARN("lv_img_src_get_type: unknown image type");
 223:lvgl\src\lv_draw/lv_draw_img.c ****     }
 224:lvgl\src\lv_draw/lv_draw_img.c **** 
 225:lvgl\src\lv_draw/lv_draw_img.c ****     return img_src_type;
 226:lvgl\src\lv_draw/lv_draw_img.c **** }
 227:lvgl\src\lv_draw/lv_draw_img.c **** 
 228:lvgl\src\lv_draw/lv_draw_img.c **** /**********************
 229:lvgl\src\lv_draw/lv_draw_img.c ****  *   STATIC FUNCTIONS
 230:lvgl\src\lv_draw/lv_draw_img.c ****  **********************/
 231:lvgl\src\lv_draw/lv_draw_img.c **** 
 232:lvgl\src\lv_draw/lv_draw_img.c **** LV_ATTRIBUTE_FAST_MEM static lv_res_t lv_img_draw_core(const lv_area_t * coords, const lv_area_t * 
 233:lvgl\src\lv_draw/lv_draw_img.c ****                                                        const void * src,
 234:lvgl\src\lv_draw/lv_draw_img.c ****                                                        const lv_draw_img_dsc_t * draw_dsc)
 235:lvgl\src\lv_draw/lv_draw_img.c **** {
 236:lvgl\src\lv_draw/lv_draw_img.c ****     if(draw_dsc->opa <= LV_OPA_MIN) return LV_RES_OK;
 237:lvgl\src\lv_draw/lv_draw_img.c **** 
 238:lvgl\src\lv_draw/lv_draw_img.c ****     lv_img_cache_entry_t * cdsc = _lv_img_cache_open(src, draw_dsc->recolor);
 239:lvgl\src\lv_draw/lv_draw_img.c **** 
 240:lvgl\src\lv_draw/lv_draw_img.c ****     if(cdsc == NULL) return LV_RES_INV;
 241:lvgl\src\lv_draw/lv_draw_img.c **** 
 242:lvgl\src\lv_draw/lv_draw_img.c ****     bool chroma_keyed = lv_img_cf_is_chroma_keyed(cdsc->dec_dsc.header.cf);
 243:lvgl\src\lv_draw/lv_draw_img.c ****     bool alpha_byte   = lv_img_cf_has_alpha(cdsc->dec_dsc.header.cf);
 244:lvgl\src\lv_draw/lv_draw_img.c **** 
 245:lvgl\src\lv_draw/lv_draw_img.c ****     if(cdsc->dec_dsc.error_msg != NULL) {
 246:lvgl\src\lv_draw/lv_draw_img.c ****         LV_LOG_WARN("Image draw error");
 247:lvgl\src\lv_draw/lv_draw_img.c **** 
 248:lvgl\src\lv_draw/lv_draw_img.c ****         show_error(coords, clip_area, cdsc->dec_dsc.error_msg);
 249:lvgl\src\lv_draw/lv_draw_img.c ****     }
 250:lvgl\src\lv_draw/lv_draw_img.c ****     /* The decoder could open the image and gave the entire uncompressed image.
 251:lvgl\src\lv_draw/lv_draw_img.c ****      * Just draw it!*/
 252:lvgl\src\lv_draw/lv_draw_img.c ****     else if(cdsc->dec_dsc.img_data) {
 253:lvgl\src\lv_draw/lv_draw_img.c ****         lv_area_t map_area_rot;
 254:lvgl\src\lv_draw/lv_draw_img.c ****         lv_area_copy(&map_area_rot, coords);
 255:lvgl\src\lv_draw/lv_draw_img.c ****         if(draw_dsc->angle || draw_dsc->zoom != LV_IMG_ZOOM_NONE) {
 256:lvgl\src\lv_draw/lv_draw_img.c ****             int32_t w = lv_area_get_width(coords);
 257:lvgl\src\lv_draw/lv_draw_img.c ****             int32_t h = lv_area_get_height(coords);
 258:lvgl\src\lv_draw/lv_draw_img.c **** 
 259:lvgl\src\lv_draw/lv_draw_img.c ****             _lv_img_buf_get_transformed_area(&map_area_rot, w, h, draw_dsc->angle, draw_dsc->zoom, 
ARM GAS  C:\Users\strap\AppData\Local\Temp\ccUgAYbc.s 			page 6


 260:lvgl\src\lv_draw/lv_draw_img.c **** 
 261:lvgl\src\lv_draw/lv_draw_img.c ****             map_area_rot.x1 += coords->x1;
 262:lvgl\src\lv_draw/lv_draw_img.c ****             map_area_rot.y1 += coords->y1;
 263:lvgl\src\lv_draw/lv_draw_img.c ****             map_area_rot.x2 += coords->x1;
 264:lvgl\src\lv_draw/lv_draw_img.c ****             map_area_rot.y2 += coords->y1;
 265:lvgl\src\lv_draw/lv_draw_img.c ****         }
 266:lvgl\src\lv_draw/lv_draw_img.c **** 
 267:lvgl\src\lv_draw/lv_draw_img.c ****         lv_area_t mask_com; /*Common area of mask and coords*/
 268:lvgl\src\lv_draw/lv_draw_img.c ****         bool union_ok;
 269:lvgl\src\lv_draw/lv_draw_img.c ****         union_ok = _lv_area_intersect(&mask_com, clip_area, &map_area_rot);
 270:lvgl\src\lv_draw/lv_draw_img.c ****         if(union_ok == false) {
 271:lvgl\src\lv_draw/lv_draw_img.c ****             return LV_RES_OK; /*Out of mask. There is nothing to draw so the image is drawn
 272:lvgl\src\lv_draw/lv_draw_img.c ****                                  successfully.*/
 273:lvgl\src\lv_draw/lv_draw_img.c ****         }
 274:lvgl\src\lv_draw/lv_draw_img.c **** 
 275:lvgl\src\lv_draw/lv_draw_img.c ****         lv_draw_map(coords, &mask_com, cdsc->dec_dsc.img_data, draw_dsc, chroma_keyed, alpha_byte);
 276:lvgl\src\lv_draw/lv_draw_img.c ****     }
 277:lvgl\src\lv_draw/lv_draw_img.c ****     /* The whole uncompressed image is not available. Try to read it line-by-line*/
 278:lvgl\src\lv_draw/lv_draw_img.c ****     else {
 279:lvgl\src\lv_draw/lv_draw_img.c ****         lv_area_t mask_com; /*Common area of mask and coords*/
 280:lvgl\src\lv_draw/lv_draw_img.c ****         bool union_ok;
 281:lvgl\src\lv_draw/lv_draw_img.c ****         union_ok = _lv_area_intersect(&mask_com, clip_area, coords);
 282:lvgl\src\lv_draw/lv_draw_img.c ****         if(union_ok == false) {
 283:lvgl\src\lv_draw/lv_draw_img.c ****             return LV_RES_OK; /*Out of mask. There is nothing to draw so the image is drawn
 284:lvgl\src\lv_draw/lv_draw_img.c ****                                  successfully.*/
 285:lvgl\src\lv_draw/lv_draw_img.c ****         }
 286:lvgl\src\lv_draw/lv_draw_img.c **** 
 287:lvgl\src\lv_draw/lv_draw_img.c ****         int32_t width = lv_area_get_width(&mask_com);
 288:lvgl\src\lv_draw/lv_draw_img.c **** 
 289:lvgl\src\lv_draw/lv_draw_img.c ****         uint8_t  * buf = _lv_mem_buf_get(lv_area_get_width(&mask_com) *
 290:lvgl\src\lv_draw/lv_draw_img.c ****                                          LV_IMG_PX_SIZE_ALPHA_BYTE);  /*+1 because of the possible 
 291:lvgl\src\lv_draw/lv_draw_img.c **** 
 292:lvgl\src\lv_draw/lv_draw_img.c ****         lv_area_t line;
 293:lvgl\src\lv_draw/lv_draw_img.c ****         lv_area_copy(&line, &mask_com);
 294:lvgl\src\lv_draw/lv_draw_img.c ****         lv_area_set_height(&line, 1);
 295:lvgl\src\lv_draw/lv_draw_img.c ****         int32_t x = mask_com.x1 - coords->x1;
 296:lvgl\src\lv_draw/lv_draw_img.c ****         int32_t y = mask_com.y1 - coords->y1;
 297:lvgl\src\lv_draw/lv_draw_img.c ****         int32_t row;
 298:lvgl\src\lv_draw/lv_draw_img.c ****         lv_res_t read_res;
 299:lvgl\src\lv_draw/lv_draw_img.c ****         for(row = mask_com.y1; row <= mask_com.y2; row++) {
 300:lvgl\src\lv_draw/lv_draw_img.c ****             lv_area_t mask_line;
 301:lvgl\src\lv_draw/lv_draw_img.c ****             union_ok = _lv_area_intersect(&mask_line, clip_area, &line);
 302:lvgl\src\lv_draw/lv_draw_img.c ****             if(union_ok == false) continue;
 303:lvgl\src\lv_draw/lv_draw_img.c **** 
 304:lvgl\src\lv_draw/lv_draw_img.c ****             read_res = lv_img_decoder_read_line(&cdsc->dec_dsc, x, y, width, buf);
 305:lvgl\src\lv_draw/lv_draw_img.c ****             if(read_res != LV_RES_OK) {
 306:lvgl\src\lv_draw/lv_draw_img.c ****                 lv_img_decoder_close(&cdsc->dec_dsc);
 307:lvgl\src\lv_draw/lv_draw_img.c ****                 LV_LOG_WARN("Image draw can't read the line");
 308:lvgl\src\lv_draw/lv_draw_img.c ****                 _lv_mem_buf_release(buf);
 309:lvgl\src\lv_draw/lv_draw_img.c ****                 return LV_RES_INV;
 310:lvgl\src\lv_draw/lv_draw_img.c ****             }
 311:lvgl\src\lv_draw/lv_draw_img.c **** 
 312:lvgl\src\lv_draw/lv_draw_img.c **** 
 313:lvgl\src\lv_draw/lv_draw_img.c ****             lv_draw_map(&line, &mask_line, buf, draw_dsc, chroma_keyed, alpha_byte);
 314:lvgl\src\lv_draw/lv_draw_img.c ****             line.y1++;
 315:lvgl\src\lv_draw/lv_draw_img.c ****             line.y2++;
 316:lvgl\src\lv_draw/lv_draw_img.c ****             y++;
ARM GAS  C:\Users\strap\AppData\Local\Temp\ccUgAYbc.s 			page 7


 317:lvgl\src\lv_draw/lv_draw_img.c ****         }
 318:lvgl\src\lv_draw/lv_draw_img.c ****         _lv_mem_buf_release(buf);
 319:lvgl\src\lv_draw/lv_draw_img.c ****     }
 320:lvgl\src\lv_draw/lv_draw_img.c **** 
 321:lvgl\src\lv_draw/lv_draw_img.c ****     return LV_RES_OK;
 322:lvgl\src\lv_draw/lv_draw_img.c **** }
 323:lvgl\src\lv_draw/lv_draw_img.c **** 
 324:lvgl\src\lv_draw/lv_draw_img.c **** /**
 325:lvgl\src\lv_draw/lv_draw_img.c ****  * Draw a color map to the display (image)
 326:lvgl\src\lv_draw/lv_draw_img.c ****  * @param cords_p coordinates the color map
 327:lvgl\src\lv_draw/lv_draw_img.c ****  * @param mask_p the map will drawn only on this area  (truncated to VDB area)
 328:lvgl\src\lv_draw/lv_draw_img.c ****  * @param map_p pointer to a lv_color_t array
 329:lvgl\src\lv_draw/lv_draw_img.c ****  * @param draw_dsc pointer to an initialized `lv_draw_img_dsc_t` variable
 330:lvgl\src\lv_draw/lv_draw_img.c ****  * @param chroma_keyed true: enable transparency of LV_IMG_LV_COLOR_TRANSP color pixels
 331:lvgl\src\lv_draw/lv_draw_img.c ****  * @param alpha_byte true: extra alpha byte is inserted for every pixel
 332:lvgl\src\lv_draw/lv_draw_img.c ****  */
 333:lvgl\src\lv_draw/lv_draw_img.c **** LV_ATTRIBUTE_FAST_MEM static void lv_draw_map(const lv_area_t * map_area, const lv_area_t * clip_ar
 334:lvgl\src\lv_draw/lv_draw_img.c ****                                               const uint8_t * map_p,
 335:lvgl\src\lv_draw/lv_draw_img.c ****                                               const lv_draw_img_dsc_t * draw_dsc,
 336:lvgl\src\lv_draw/lv_draw_img.c ****                                               bool chroma_key, bool alpha_byte)
 337:lvgl\src\lv_draw/lv_draw_img.c **** {
  27              		.loc 1 337 0
  28              		.cfi_startproc
  29              		@ args = 8, pretend = 0, frame = 216
  30              		@ frame_needed = 0, uses_anonymous_args = 0
  31              	.LVL0:
  32 0000 2DE9F04F 		push	{r4, r5, r6, r7, r8, r9, r10, fp, lr}
  33              		.cfi_def_cfa_offset 36
  34              		.cfi_offset 4, -36
  35              		.cfi_offset 5, -32
  36              		.cfi_offset 6, -28
  37              		.cfi_offset 7, -24
  38              		.cfi_offset 8, -20
  39              		.cfi_offset 9, -16
  40              		.cfi_offset 10, -12
  41              		.cfi_offset 11, -8
  42              		.cfi_offset 14, -4
  43 0004 BBB0     		sub	sp, sp, #236
  44              		.cfi_def_cfa_offset 272
  45 0006 1590     		str	r0, [sp, #84]
  46 0008 1E91     		str	r1, [sp, #120]
  47 000a 1646     		mov	r6, r2
  48 000c 0993     		str	r3, [sp, #36]
  49 000e 9DF81031 		ldrb	r3, [sp, #272]	@ zero_extendqisi2
  50              	.LVL1:
  51 0012 0D93     		str	r3, [sp, #52]
  52 0014 9DF81431 		ldrb	r3, [sp, #276]	@ zero_extendqisi2
  53 0018 0893     		str	r3, [sp, #32]
  54              	.LVL2:
  55              	.LBB101:
  56              	.LBB102:
  57              	.LBB103:
  58              		.file 2 "lvgl\\src\\lv_draw\\../lv_misc/lv_mem.h"
   1:lvgl\src\lv_draw\../lv_misc/lv_mem.h **** /**
   2:lvgl\src\lv_draw\../lv_misc/lv_mem.h ****  * @file lv_mem.h
   3:lvgl\src\lv_draw\../lv_misc/lv_mem.h ****  *
   4:lvgl\src\lv_draw\../lv_misc/lv_mem.h ****  */
ARM GAS  C:\Users\strap\AppData\Local\Temp\ccUgAYbc.s 			page 8


   5:lvgl\src\lv_draw\../lv_misc/lv_mem.h **** 
   6:lvgl\src\lv_draw\../lv_misc/lv_mem.h **** #ifndef LV_MEM_H
   7:lvgl\src\lv_draw\../lv_misc/lv_mem.h **** #define LV_MEM_H
   8:lvgl\src\lv_draw\../lv_misc/lv_mem.h **** 
   9:lvgl\src\lv_draw\../lv_misc/lv_mem.h **** #ifdef __cplusplus
  10:lvgl\src\lv_draw\../lv_misc/lv_mem.h **** extern "C" {
  11:lvgl\src\lv_draw\../lv_misc/lv_mem.h **** #endif
  12:lvgl\src\lv_draw\../lv_misc/lv_mem.h **** 
  13:lvgl\src\lv_draw\../lv_misc/lv_mem.h **** /*********************
  14:lvgl\src\lv_draw\../lv_misc/lv_mem.h ****  *      INCLUDES
  15:lvgl\src\lv_draw\../lv_misc/lv_mem.h ****  *********************/
  16:lvgl\src\lv_draw\../lv_misc/lv_mem.h **** #include "../lv_conf_internal.h"
  17:lvgl\src\lv_draw\../lv_misc/lv_mem.h **** 
  18:lvgl\src\lv_draw\../lv_misc/lv_mem.h **** #include <stdint.h>
  19:lvgl\src\lv_draw\../lv_misc/lv_mem.h **** #include <stddef.h>
  20:lvgl\src\lv_draw\../lv_misc/lv_mem.h **** #include "lv_log.h"
  21:lvgl\src\lv_draw\../lv_misc/lv_mem.h **** #include "lv_types.h"
  22:lvgl\src\lv_draw\../lv_misc/lv_mem.h **** 
  23:lvgl\src\lv_draw\../lv_misc/lv_mem.h **** #if LV_MEMCPY_MEMSET_STD
  24:lvgl\src\lv_draw\../lv_misc/lv_mem.h **** #include <string.h>
  25:lvgl\src\lv_draw\../lv_misc/lv_mem.h **** #endif
  26:lvgl\src\lv_draw\../lv_misc/lv_mem.h **** 
  27:lvgl\src\lv_draw\../lv_misc/lv_mem.h **** /*********************
  28:lvgl\src\lv_draw\../lv_misc/lv_mem.h ****  *      DEFINES
  29:lvgl\src\lv_draw\../lv_misc/lv_mem.h ****  *********************/
  30:lvgl\src\lv_draw\../lv_misc/lv_mem.h **** 
  31:lvgl\src\lv_draw\../lv_misc/lv_mem.h **** #ifndef LV_MEM_BUF_MAX_NUM
  32:lvgl\src\lv_draw\../lv_misc/lv_mem.h **** #define LV_MEM_BUF_MAX_NUM    16
  33:lvgl\src\lv_draw\../lv_misc/lv_mem.h **** #endif
  34:lvgl\src\lv_draw\../lv_misc/lv_mem.h **** 
  35:lvgl\src\lv_draw\../lv_misc/lv_mem.h **** /**********************
  36:lvgl\src\lv_draw\../lv_misc/lv_mem.h ****  *      TYPEDEFS
  37:lvgl\src\lv_draw\../lv_misc/lv_mem.h ****  **********************/
  38:lvgl\src\lv_draw\../lv_misc/lv_mem.h **** 
  39:lvgl\src\lv_draw\../lv_misc/lv_mem.h **** /**
  40:lvgl\src\lv_draw\../lv_misc/lv_mem.h ****  * Heap information structure.
  41:lvgl\src\lv_draw\../lv_misc/lv_mem.h ****  */
  42:lvgl\src\lv_draw\../lv_misc/lv_mem.h **** typedef struct {
  43:lvgl\src\lv_draw\../lv_misc/lv_mem.h ****     uint32_t total_size; /**< Total heap size */
  44:lvgl\src\lv_draw\../lv_misc/lv_mem.h ****     uint32_t free_cnt;
  45:lvgl\src\lv_draw\../lv_misc/lv_mem.h ****     uint32_t free_size; /**< Size of available memory */
  46:lvgl\src\lv_draw\../lv_misc/lv_mem.h ****     uint32_t free_biggest_size;
  47:lvgl\src\lv_draw\../lv_misc/lv_mem.h ****     uint32_t used_cnt;
  48:lvgl\src\lv_draw\../lv_misc/lv_mem.h ****     uint32_t max_used; /**< Max size of Heap memory used */
  49:lvgl\src\lv_draw\../lv_misc/lv_mem.h ****     uint8_t used_pct; /**< Percentage used */
  50:lvgl\src\lv_draw\../lv_misc/lv_mem.h ****     uint8_t frag_pct; /**< Amount of fragmentation */
  51:lvgl\src\lv_draw\../lv_misc/lv_mem.h **** } lv_mem_monitor_t;
  52:lvgl\src\lv_draw\../lv_misc/lv_mem.h **** 
  53:lvgl\src\lv_draw\../lv_misc/lv_mem.h **** typedef struct {
  54:lvgl\src\lv_draw\../lv_misc/lv_mem.h ****     void * p;
  55:lvgl\src\lv_draw\../lv_misc/lv_mem.h ****     uint16_t size;
  56:lvgl\src\lv_draw\../lv_misc/lv_mem.h ****     uint8_t used    : 1;
  57:lvgl\src\lv_draw\../lv_misc/lv_mem.h **** } lv_mem_buf_t;
  58:lvgl\src\lv_draw\../lv_misc/lv_mem.h **** 
  59:lvgl\src\lv_draw\../lv_misc/lv_mem.h **** typedef lv_mem_buf_t lv_mem_buf_arr_t[LV_MEM_BUF_MAX_NUM];
  60:lvgl\src\lv_draw\../lv_misc/lv_mem.h **** extern lv_mem_buf_arr_t _lv_mem_buf;
  61:lvgl\src\lv_draw\../lv_misc/lv_mem.h **** 
ARM GAS  C:\Users\strap\AppData\Local\Temp\ccUgAYbc.s 			page 9


  62:lvgl\src\lv_draw\../lv_misc/lv_mem.h **** /**********************
  63:lvgl\src\lv_draw\../lv_misc/lv_mem.h ****  * GLOBAL PROTOTYPES
  64:lvgl\src\lv_draw\../lv_misc/lv_mem.h ****  **********************/
  65:lvgl\src\lv_draw\../lv_misc/lv_mem.h **** 
  66:lvgl\src\lv_draw\../lv_misc/lv_mem.h **** /**
  67:lvgl\src\lv_draw\../lv_misc/lv_mem.h ****  * Initialize the dyn_mem module (work memory and other variables)
  68:lvgl\src\lv_draw\../lv_misc/lv_mem.h ****  */
  69:lvgl\src\lv_draw\../lv_misc/lv_mem.h **** void _lv_mem_init(void);
  70:lvgl\src\lv_draw\../lv_misc/lv_mem.h **** 
  71:lvgl\src\lv_draw\../lv_misc/lv_mem.h **** /**
  72:lvgl\src\lv_draw\../lv_misc/lv_mem.h ****  * Clean up the memory buffer which frees all the allocated memories.
  73:lvgl\src\lv_draw\../lv_misc/lv_mem.h ****  * @note It work only if `LV_MEM_CUSTOM == 0`
  74:lvgl\src\lv_draw\../lv_misc/lv_mem.h ****  */
  75:lvgl\src\lv_draw\../lv_misc/lv_mem.h **** void _lv_mem_deinit(void);
  76:lvgl\src\lv_draw\../lv_misc/lv_mem.h **** 
  77:lvgl\src\lv_draw\../lv_misc/lv_mem.h **** /**
  78:lvgl\src\lv_draw\../lv_misc/lv_mem.h ****  * Allocate a memory dynamically
  79:lvgl\src\lv_draw\../lv_misc/lv_mem.h ****  * @param size size of the memory to allocate in bytes
  80:lvgl\src\lv_draw\../lv_misc/lv_mem.h ****  * @return pointer to the allocated memory
  81:lvgl\src\lv_draw\../lv_misc/lv_mem.h ****  */
  82:lvgl\src\lv_draw\../lv_misc/lv_mem.h **** void * lv_mem_alloc(size_t size);
  83:lvgl\src\lv_draw\../lv_misc/lv_mem.h **** 
  84:lvgl\src\lv_draw\../lv_misc/lv_mem.h **** /**
  85:lvgl\src\lv_draw\../lv_misc/lv_mem.h ****  * Free an allocated data
  86:lvgl\src\lv_draw\../lv_misc/lv_mem.h ****  * @param data pointer to an allocated memory
  87:lvgl\src\lv_draw\../lv_misc/lv_mem.h ****  */
  88:lvgl\src\lv_draw\../lv_misc/lv_mem.h **** void lv_mem_free(const void * data);
  89:lvgl\src\lv_draw\../lv_misc/lv_mem.h **** 
  90:lvgl\src\lv_draw\../lv_misc/lv_mem.h **** /**
  91:lvgl\src\lv_draw\../lv_misc/lv_mem.h ****  * Reallocate a memory with a new size. The old content will be kept.
  92:lvgl\src\lv_draw\../lv_misc/lv_mem.h ****  * @param data pointer to an allocated memory.
  93:lvgl\src\lv_draw\../lv_misc/lv_mem.h ****  * Its content will be copied to the new memory block and freed
  94:lvgl\src\lv_draw\../lv_misc/lv_mem.h ****  * @param new_size the desired new size in byte
  95:lvgl\src\lv_draw\../lv_misc/lv_mem.h ****  * @return pointer to the new memory
  96:lvgl\src\lv_draw\../lv_misc/lv_mem.h ****  */
  97:lvgl\src\lv_draw\../lv_misc/lv_mem.h **** void * lv_mem_realloc(void * data_p, size_t new_size);
  98:lvgl\src\lv_draw\../lv_misc/lv_mem.h **** 
  99:lvgl\src\lv_draw\../lv_misc/lv_mem.h **** /**
 100:lvgl\src\lv_draw\../lv_misc/lv_mem.h ****  * Join the adjacent free memory blocks
 101:lvgl\src\lv_draw\../lv_misc/lv_mem.h ****  */
 102:lvgl\src\lv_draw\../lv_misc/lv_mem.h **** void lv_mem_defrag(void);
 103:lvgl\src\lv_draw\../lv_misc/lv_mem.h **** 
 104:lvgl\src\lv_draw\../lv_misc/lv_mem.h **** /**
 105:lvgl\src\lv_draw\../lv_misc/lv_mem.h ****  *
 106:lvgl\src\lv_draw\../lv_misc/lv_mem.h ****  * @return
 107:lvgl\src\lv_draw\../lv_misc/lv_mem.h ****  */
 108:lvgl\src\lv_draw\../lv_misc/lv_mem.h **** lv_res_t lv_mem_test(void);
 109:lvgl\src\lv_draw\../lv_misc/lv_mem.h **** 
 110:lvgl\src\lv_draw\../lv_misc/lv_mem.h **** /**
 111:lvgl\src\lv_draw\../lv_misc/lv_mem.h ****  * Give information about the work memory of dynamic allocation
 112:lvgl\src\lv_draw\../lv_misc/lv_mem.h ****  * @param mon_p pointer to a dm_mon_p variable,
 113:lvgl\src\lv_draw\../lv_misc/lv_mem.h ****  *              the result of the analysis will be stored here
 114:lvgl\src\lv_draw\../lv_misc/lv_mem.h ****  */
 115:lvgl\src\lv_draw\../lv_misc/lv_mem.h **** void lv_mem_monitor(lv_mem_monitor_t * mon_p);
 116:lvgl\src\lv_draw\../lv_misc/lv_mem.h **** 
 117:lvgl\src\lv_draw\../lv_misc/lv_mem.h **** /**
 118:lvgl\src\lv_draw\../lv_misc/lv_mem.h ****  * Give the size of an allocated memory
ARM GAS  C:\Users\strap\AppData\Local\Temp\ccUgAYbc.s 			page 10


 119:lvgl\src\lv_draw\../lv_misc/lv_mem.h ****  * @param data pointer to an allocated memory
 120:lvgl\src\lv_draw\../lv_misc/lv_mem.h ****  * @return the size of data memory in bytes
 121:lvgl\src\lv_draw\../lv_misc/lv_mem.h ****  */
 122:lvgl\src\lv_draw\../lv_misc/lv_mem.h **** uint32_t _lv_mem_get_size(const void * data);
 123:lvgl\src\lv_draw\../lv_misc/lv_mem.h **** 
 124:lvgl\src\lv_draw\../lv_misc/lv_mem.h **** /**
 125:lvgl\src\lv_draw\../lv_misc/lv_mem.h ****  * Get a temporal buffer with the given size.
 126:lvgl\src\lv_draw\../lv_misc/lv_mem.h ****  * @param size the required size
 127:lvgl\src\lv_draw\../lv_misc/lv_mem.h ****  */
 128:lvgl\src\lv_draw\../lv_misc/lv_mem.h **** void * _lv_mem_buf_get(uint32_t size);
 129:lvgl\src\lv_draw\../lv_misc/lv_mem.h **** 
 130:lvgl\src\lv_draw\../lv_misc/lv_mem.h **** /**
 131:lvgl\src\lv_draw\../lv_misc/lv_mem.h ****  * Release a memory buffer
 132:lvgl\src\lv_draw\../lv_misc/lv_mem.h ****  * @param p buffer to release
 133:lvgl\src\lv_draw\../lv_misc/lv_mem.h ****  */
 134:lvgl\src\lv_draw\../lv_misc/lv_mem.h **** void _lv_mem_buf_release(void * p);
 135:lvgl\src\lv_draw\../lv_misc/lv_mem.h **** 
 136:lvgl\src\lv_draw\../lv_misc/lv_mem.h **** /**
 137:lvgl\src\lv_draw\../lv_misc/lv_mem.h ****  * Free all memory buffers
 138:lvgl\src\lv_draw\../lv_misc/lv_mem.h ****  */
 139:lvgl\src\lv_draw\../lv_misc/lv_mem.h **** void _lv_mem_buf_free_all(void);
 140:lvgl\src\lv_draw\../lv_misc/lv_mem.h **** 
 141:lvgl\src\lv_draw\../lv_misc/lv_mem.h **** 
 142:lvgl\src\lv_draw\../lv_misc/lv_mem.h **** //! @cond Doxygen_Suppress
 143:lvgl\src\lv_draw\../lv_misc/lv_mem.h **** 
 144:lvgl\src\lv_draw\../lv_misc/lv_mem.h **** #if LV_MEMCPY_MEMSET_STD
 145:lvgl\src\lv_draw\../lv_misc/lv_mem.h **** 
 146:lvgl\src\lv_draw\../lv_misc/lv_mem.h **** /**
 147:lvgl\src\lv_draw\../lv_misc/lv_mem.h ****  * Wrapper for the standard memcpy
 148:lvgl\src\lv_draw\../lv_misc/lv_mem.h ****  * @param dst pointer to the destination buffer
 149:lvgl\src\lv_draw\../lv_misc/lv_mem.h ****  * @param src pointer to the source buffer
 150:lvgl\src\lv_draw\../lv_misc/lv_mem.h ****  * @param len number of byte to copy
 151:lvgl\src\lv_draw\../lv_misc/lv_mem.h ****  */
 152:lvgl\src\lv_draw\../lv_misc/lv_mem.h **** static inline void * _lv_memcpy(void * dst, const void * src, size_t len)
 153:lvgl\src\lv_draw\../lv_misc/lv_mem.h **** {
 154:lvgl\src\lv_draw\../lv_misc/lv_mem.h ****     return memcpy(dst, src, len);
 155:lvgl\src\lv_draw\../lv_misc/lv_mem.h **** }
 156:lvgl\src\lv_draw\../lv_misc/lv_mem.h **** 
 157:lvgl\src\lv_draw\../lv_misc/lv_mem.h **** /**
 158:lvgl\src\lv_draw\../lv_misc/lv_mem.h ****  * Wrapper for the standard memcpy
 159:lvgl\src\lv_draw\../lv_misc/lv_mem.h ****  * @param dst pointer to the destination buffer
 160:lvgl\src\lv_draw\../lv_misc/lv_mem.h ****  * @param src pointer to the source buffer
 161:lvgl\src\lv_draw\../lv_misc/lv_mem.h ****  * @param len number of byte to copy
 162:lvgl\src\lv_draw\../lv_misc/lv_mem.h ****  */
 163:lvgl\src\lv_draw\../lv_misc/lv_mem.h **** static inline void * _lv_memcpy_small(void * dst, const void * src, size_t len)
 164:lvgl\src\lv_draw\../lv_misc/lv_mem.h **** {
 165:lvgl\src\lv_draw\../lv_misc/lv_mem.h ****     return memcpy(dst, src, len);
 166:lvgl\src\lv_draw\../lv_misc/lv_mem.h **** }
 167:lvgl\src\lv_draw\../lv_misc/lv_mem.h **** 
 168:lvgl\src\lv_draw\../lv_misc/lv_mem.h **** /**
 169:lvgl\src\lv_draw\../lv_misc/lv_mem.h ****  * Wrapper for the standard memset
 170:lvgl\src\lv_draw\../lv_misc/lv_mem.h ****  * @param dst pointer to the destination buffer
 171:lvgl\src\lv_draw\../lv_misc/lv_mem.h ****  * @param v value to set [0..255]
 172:lvgl\src\lv_draw\../lv_misc/lv_mem.h ****  * @param len number of byte to set
 173:lvgl\src\lv_draw\../lv_misc/lv_mem.h ****  */
 174:lvgl\src\lv_draw\../lv_misc/lv_mem.h **** static inline void _lv_memset(void * dst, uint8_t v, size_t len)
 175:lvgl\src\lv_draw\../lv_misc/lv_mem.h **** {
ARM GAS  C:\Users\strap\AppData\Local\Temp\ccUgAYbc.s 			page 11


 176:lvgl\src\lv_draw\../lv_misc/lv_mem.h ****     memset(dst, v, len);
 177:lvgl\src\lv_draw\../lv_misc/lv_mem.h **** }
 178:lvgl\src\lv_draw\../lv_misc/lv_mem.h **** 
 179:lvgl\src\lv_draw\../lv_misc/lv_mem.h **** /**
 180:lvgl\src\lv_draw\../lv_misc/lv_mem.h ****  * Wrapper for the standard memset with fixed 0x00 value
 181:lvgl\src\lv_draw\../lv_misc/lv_mem.h ****  * @param dst pointer to the destination buffer
 182:lvgl\src\lv_draw\../lv_misc/lv_mem.h ****  * @param len number of byte to set
 183:lvgl\src\lv_draw\../lv_misc/lv_mem.h ****  */
 184:lvgl\src\lv_draw\../lv_misc/lv_mem.h **** static inline void _lv_memset_00(void * dst, size_t len)
 185:lvgl\src\lv_draw\../lv_misc/lv_mem.h **** {
 186:lvgl\src\lv_draw\../lv_misc/lv_mem.h ****     memset(dst, 0x00, len);
 187:lvgl\src\lv_draw\../lv_misc/lv_mem.h **** }
 188:lvgl\src\lv_draw\../lv_misc/lv_mem.h **** 
 189:lvgl\src\lv_draw\../lv_misc/lv_mem.h **** /**
 190:lvgl\src\lv_draw\../lv_misc/lv_mem.h ****  * Wrapper for the standard memset with fixed 0xFF value
 191:lvgl\src\lv_draw\../lv_misc/lv_mem.h ****  * @param dst pointer to the destination buffer
 192:lvgl\src\lv_draw\../lv_misc/lv_mem.h ****  * @param len number of byte to set
 193:lvgl\src\lv_draw\../lv_misc/lv_mem.h ****  */
 194:lvgl\src\lv_draw\../lv_misc/lv_mem.h **** static inline void _lv_memset_ff(void * dst, size_t len)
 195:lvgl\src\lv_draw\../lv_misc/lv_mem.h **** {
 196:lvgl\src\lv_draw\../lv_misc/lv_mem.h ****     memset(dst, 0xFF, len);
 197:lvgl\src\lv_draw\../lv_misc/lv_mem.h **** }
 198:lvgl\src\lv_draw\../lv_misc/lv_mem.h **** 
 199:lvgl\src\lv_draw\../lv_misc/lv_mem.h **** #else
 200:lvgl\src\lv_draw\../lv_misc/lv_mem.h **** /**
 201:lvgl\src\lv_draw\../lv_misc/lv_mem.h ****  * Same as `memcpy` but optimized for 4 byte operation.
 202:lvgl\src\lv_draw\../lv_misc/lv_mem.h ****  * @param dst pointer to the destination buffer
 203:lvgl\src\lv_draw\../lv_misc/lv_mem.h ****  * @param src pointer to the source buffer
 204:lvgl\src\lv_draw\../lv_misc/lv_mem.h ****  * @param len number of byte to copy
 205:lvgl\src\lv_draw\../lv_misc/lv_mem.h ****  */
 206:lvgl\src\lv_draw\../lv_misc/lv_mem.h **** LV_ATTRIBUTE_FAST_MEM void * _lv_memcpy(void * dst, const void * src, size_t len);
 207:lvgl\src\lv_draw\../lv_misc/lv_mem.h **** 
 208:lvgl\src\lv_draw\../lv_misc/lv_mem.h **** /**
 209:lvgl\src\lv_draw\../lv_misc/lv_mem.h ****  * Same as `memcpy` but optimized to copy only a few bytes.
 210:lvgl\src\lv_draw\../lv_misc/lv_mem.h ****  * @param dst pointer to the destination buffer
 211:lvgl\src\lv_draw\../lv_misc/lv_mem.h ****  * @param src pointer to the source buffer
 212:lvgl\src\lv_draw\../lv_misc/lv_mem.h ****  * @param len number of byte to copy
 213:lvgl\src\lv_draw\../lv_misc/lv_mem.h ****  */
 214:lvgl\src\lv_draw\../lv_misc/lv_mem.h **** LV_ATTRIBUTE_FAST_MEM static inline void * _lv_memcpy_small(void * dst, const void * src, size_t le
 215:lvgl\src\lv_draw\../lv_misc/lv_mem.h **** {
 216:lvgl\src\lv_draw\../lv_misc/lv_mem.h ****     uint8_t * d8 = (uint8_t *)dst;
  59              		.loc 2 216 0
  60 001a 38AA     		add	r2, sp, #224
  61              	.LVL3:
  62 001c 0823     		movs	r3, #8
  63 001e 04E0     		b	.L2
  64              	.LVL4:
  65              	.L3:
 217:lvgl\src\lv_draw\../lv_misc/lv_mem.h ****     const uint8_t * s8 = (const uint8_t *)src;
 218:lvgl\src\lv_draw\../lv_misc/lv_mem.h **** 
 219:lvgl\src\lv_draw\../lv_misc/lv_mem.h ****     while(len) {
 220:lvgl\src\lv_draw\../lv_misc/lv_mem.h ****         *d8 = *s8;
  66              		.loc 2 220 0
  67 0020 11F8010B 		ldrb	r0, [r1], #1	@ zero_extendqisi2
  68              	.LVL5:
  69 0024 02F8010B 		strb	r0, [r2], #1
  70              	.LVL6:
ARM GAS  C:\Users\strap\AppData\Local\Temp\ccUgAYbc.s 			page 12


 221:lvgl\src\lv_draw\../lv_misc/lv_mem.h ****         d8++;
 222:lvgl\src\lv_draw\../lv_misc/lv_mem.h ****         s8++;
 223:lvgl\src\lv_draw\../lv_misc/lv_mem.h ****         len--;
  71              		.loc 2 223 0
  72 0028 013B     		subs	r3, r3, #1
  73              	.LVL7:
  74              	.L2:
 219:lvgl\src\lv_draw\../lv_misc/lv_mem.h ****         *d8 = *s8;
  75              		.loc 2 219 0
  76 002a 002B     		cmp	r3, #0
  77 002c F8D1     		bne	.L3
  78              	.LVL8:
  79              	.LBE103:
  80              	.LBE102:
  81              	.LBE101:
 338:lvgl\src\lv_draw/lv_draw_img.c ****     /* Use the clip area as draw area*/
 339:lvgl\src\lv_draw/lv_draw_img.c ****     lv_area_t draw_area;
 340:lvgl\src\lv_draw/lv_draw_img.c ****     lv_area_copy(&draw_area, clip_area);
 341:lvgl\src\lv_draw/lv_draw_img.c **** 
 342:lvgl\src\lv_draw/lv_draw_img.c ****     lv_disp_t * disp    = _lv_refr_get_disp_refreshing();
  82              		.loc 1 342 0
  83 002e FFF7FEFF 		bl	_lv_refr_get_disp_refreshing
  84              	.LVL9:
  85 0032 8046     		mov	r8, r0
  86              	.LVL10:
 343:lvgl\src\lv_draw/lv_draw_img.c ****     lv_disp_buf_t * vdb = lv_disp_get_buf(disp);
  87              		.loc 1 343 0
  88 0034 FFF7FEFF 		bl	lv_disp_get_buf
  89              	.LVL11:
  90 0038 1390     		str	r0, [sp, #76]
  91              	.LVL12:
 344:lvgl\src\lv_draw/lv_draw_img.c ****     const lv_area_t * disp_area = &vdb->area;
 345:lvgl\src\lv_draw/lv_draw_img.c **** 
 346:lvgl\src\lv_draw/lv_draw_img.c ****     /* Now `draw_area` has absolute coordinates.
 347:lvgl\src\lv_draw/lv_draw_img.c ****      * Make it relative to `disp_area` to simplify draw to `disp_buf`*/
 348:lvgl\src\lv_draw/lv_draw_img.c ****     draw_area.x1 -= disp_area->x1;
  92              		.loc 1 348 0
  93 003a 058A     		ldrh	r5, [r0, #16]
  94 003c BDF8E030 		ldrh	r3, [sp, #224]
  95 0040 5B1B     		subs	r3, r3, r5
  96 0042 ADF8E030 		strh	r3, [sp, #224]	@ movhi
 349:lvgl\src\lv_draw/lv_draw_img.c ****     draw_area.y1 -= disp_area->y1;
  97              		.loc 1 349 0
  98 0046 408A     		ldrh	r0, [r0, #18]
  99              	.LVL13:
 100 0048 BDF8E210 		ldrh	r1, [sp, #226]
 101 004c 091A     		subs	r1, r1, r0
 102 004e ADF8E210 		strh	r1, [sp, #226]	@ movhi
 350:lvgl\src\lv_draw/lv_draw_img.c ****     draw_area.x2 -= disp_area->x1;
 103              		.loc 1 350 0
 104 0052 BDF8E420 		ldrh	r2, [sp, #228]
 105 0056 521B     		subs	r2, r2, r5
 106 0058 ADF8E420 		strh	r2, [sp, #228]	@ movhi
 351:lvgl\src\lv_draw/lv_draw_img.c ****     draw_area.y2 -= disp_area->y1;
 107              		.loc 1 351 0
 108 005c BDF8E630 		ldrh	r3, [sp, #230]
 109 0060 1B1A     		subs	r3, r3, r0
ARM GAS  C:\Users\strap\AppData\Local\Temp\ccUgAYbc.s 			page 13


 110 0062 ADF8E630 		strh	r3, [sp, #230]	@ movhi
 352:lvgl\src\lv_draw/lv_draw_img.c **** 
 353:lvgl\src\lv_draw/lv_draw_img.c ****     uint8_t other_mask_cnt = lv_draw_mask_get_cnt();
 111              		.loc 1 353 0
 112 0066 FFF7FEFF 		bl	lv_draw_mask_get_cnt
 113              	.LVL14:
 354:lvgl\src\lv_draw/lv_draw_img.c **** 
 355:lvgl\src\lv_draw/lv_draw_img.c ****     /*The simplest case just copy the pixels into the VDB*/
 356:lvgl\src\lv_draw/lv_draw_img.c ****     if(other_mask_cnt == 0 && draw_dsc->angle == 0 && draw_dsc->zoom == LV_IMG_ZOOM_NONE &&
 114              		.loc 1 356 0
 115 006a 1490     		str	r0, [sp, #80]
 116 006c C8B9     		cbnz	r0, .L4
 117              		.loc 1 356 0 is_stmt 0 discriminator 1
 118 006e 099A     		ldr	r2, [sp, #36]
 119 0070 5388     		ldrh	r3, [r2, #2]
 120 0072 B3B9     		cbnz	r3, .L4
 121              		.loc 1 356 0 discriminator 2
 122 0074 1389     		ldrh	r3, [r2, #8]
 123 0076 B3F5807F 		cmp	r3, #256
 124 007a 12D1     		bne	.L4
 125              		.loc 1 356 0 discriminator 3
 126 007c 0D9B     		ldr	r3, [sp, #52]
 127 007e 83B9     		cbnz	r3, .L4
 357:lvgl\src\lv_draw/lv_draw_img.c ****        chroma_key == false && alpha_byte == false && draw_dsc->recolor_opa == LV_OPA_TRANSP) {
 128              		.loc 1 357 0 is_stmt 1
 129 0080 089B     		ldr	r3, [sp, #32]
 130 0082 73B9     		cbnz	r3, .L4
 131              		.loc 1 357 0 is_stmt 0 discriminator 1
 132 0084 937A     		ldrb	r3, [r2, #10]	@ zero_extendqisi2
 133 0086 63B9     		cbnz	r3, .L4
 358:lvgl\src\lv_draw/lv_draw_img.c ****         _lv_blend_map(clip_area, map_area, (lv_color_t *)map_p, NULL, LV_DRAW_MASK_RES_FULL_COVER, 
 134              		.loc 1 358 0 is_stmt 1
 135 0088 937B     		ldrb	r3, [r2, #14]	@ zero_extendqisi2
 136 008a 0293     		str	r3, [sp, #8]
 137 008c 1378     		ldrb	r3, [r2]	@ zero_extendqisi2
 138 008e 0193     		str	r3, [sp, #4]
 139 0090 0123     		movs	r3, #1
 140 0092 0093     		str	r3, [sp]
 141 0094 0023     		movs	r3, #0
 142 0096 3246     		mov	r2, r6
 143 0098 1599     		ldr	r1, [sp, #84]
 144 009a 1E98     		ldr	r0, [sp, #120]
 145              	.LVL15:
 146 009c FFF7FEFF 		bl	_lv_blend_map
 147              	.LVL16:
 148 00a0 81E3     		b	.L1
 149              	.LVL17:
 150              	.L4:
 151              	.LBB104:
 359:lvgl\src\lv_draw/lv_draw_img.c ****                       draw_dsc->blend_mode);
 360:lvgl\src\lv_draw/lv_draw_img.c ****     }
 361:lvgl\src\lv_draw/lv_draw_img.c **** #if LV_USE_GPU_NXP_PXP
 362:lvgl\src\lv_draw/lv_draw_img.c ****     /* Simple case without masking and transformations */
 363:lvgl\src\lv_draw/lv_draw_img.c ****     else if(other_mask_cnt == 0 && draw_dsc->angle == 0 && draw_dsc->zoom == LV_IMG_ZOOM_NONE && al
 364:lvgl\src\lv_draw/lv_draw_img.c ****             chroma_key == true && draw_dsc->recolor_opa == LV_OPA_TRANSP) { /* copy with color keyi
 365:lvgl\src\lv_draw/lv_draw_img.c ****         lv_gpu_nxp_pxp_enable_color_key();
 366:lvgl\src\lv_draw/lv_draw_img.c ****         _lv_blend_map(clip_area, map_area, (lv_color_t *)map_p, NULL, LV_DRAW_MASK_RES_FULL_COVER, 
ARM GAS  C:\Users\strap\AppData\Local\Temp\ccUgAYbc.s 			page 14


 367:lvgl\src\lv_draw/lv_draw_img.c ****                       draw_dsc->blend_mode);
 368:lvgl\src\lv_draw/lv_draw_img.c ****         lv_gpu_nxp_pxp_disable_color_key();
 369:lvgl\src\lv_draw/lv_draw_img.c ****     }
 370:lvgl\src\lv_draw/lv_draw_img.c ****     else if(other_mask_cnt == 0 && draw_dsc->angle == 0 && draw_dsc->zoom == LV_IMG_ZOOM_NONE && al
 371:lvgl\src\lv_draw/lv_draw_img.c ****             chroma_key == false && draw_dsc->recolor_opa != LV_OPA_TRANSP) { /* copy with recolor (
 372:lvgl\src\lv_draw/lv_draw_img.c ****         lv_gpu_nxp_pxp_enable_recolor(draw_dsc->recolor, draw_dsc->recolor_opa);
 373:lvgl\src\lv_draw/lv_draw_img.c ****         _lv_blend_map(clip_area, map_area, (lv_color_t *)map_p, NULL, LV_DRAW_MASK_RES_FULL_COVER, 
 374:lvgl\src\lv_draw/lv_draw_img.c ****                       draw_dsc->blend_mode);
 375:lvgl\src\lv_draw/lv_draw_img.c ****         lv_gpu_nxp_pxp_disable_recolor();
 376:lvgl\src\lv_draw/lv_draw_img.c ****     }
 377:lvgl\src\lv_draw/lv_draw_img.c **** #endif
 378:lvgl\src\lv_draw/lv_draw_img.c ****     /*In the other cases every pixel need to be checked one-by-one*/
 379:lvgl\src\lv_draw/lv_draw_img.c ****     else {
 380:lvgl\src\lv_draw/lv_draw_img.c ****         /*The pixel size in byte is different if an alpha byte is added too*/
 381:lvgl\src\lv_draw/lv_draw_img.c ****         uint8_t px_size_byte = alpha_byte ? LV_IMG_PX_SIZE_ALPHA_BYTE : sizeof(lv_color_t);
 152              		.loc 1 381 0
 153 00a2 089B     		ldr	r3, [sp, #32]
 154 00a4 13B1     		cbz	r3, .L54
 155 00a6 0323     		movs	r3, #3
 156 00a8 0693     		str	r3, [sp, #24]
 157 00aa 01E0     		b	.L6
 158              	.L54:
 159 00ac 0223     		movs	r3, #2
 160 00ae 0693     		str	r3, [sp, #24]
 161              	.L6:
 162              	.LVL18:
 163              	.LBB105:
 164              	.LBB106:
 165              		.file 3 "lvgl\\src\\lv_draw\\../lv_misc/lv_area.h"
   1:lvgl\src\lv_draw\../lv_misc/lv_area.h **** /**
   2:lvgl\src\lv_draw\../lv_misc/lv_area.h ****  * @file lv_area.h
   3:lvgl\src\lv_draw\../lv_misc/lv_area.h ****  *
   4:lvgl\src\lv_draw\../lv_misc/lv_area.h ****  */
   5:lvgl\src\lv_draw\../lv_misc/lv_area.h **** 
   6:lvgl\src\lv_draw\../lv_misc/lv_area.h **** #ifndef LV_AREA_H
   7:lvgl\src\lv_draw\../lv_misc/lv_area.h **** #define LV_AREA_H
   8:lvgl\src\lv_draw\../lv_misc/lv_area.h **** 
   9:lvgl\src\lv_draw\../lv_misc/lv_area.h **** #ifdef __cplusplus
  10:lvgl\src\lv_draw\../lv_misc/lv_area.h **** extern "C" {
  11:lvgl\src\lv_draw\../lv_misc/lv_area.h **** #endif
  12:lvgl\src\lv_draw\../lv_misc/lv_area.h **** 
  13:lvgl\src\lv_draw\../lv_misc/lv_area.h **** /*********************
  14:lvgl\src\lv_draw\../lv_misc/lv_area.h ****  *      INCLUDES
  15:lvgl\src\lv_draw\../lv_misc/lv_area.h ****  *********************/
  16:lvgl\src\lv_draw\../lv_misc/lv_area.h **** #include "../lv_conf_internal.h"
  17:lvgl\src\lv_draw\../lv_misc/lv_area.h **** #include <string.h>
  18:lvgl\src\lv_draw\../lv_misc/lv_area.h **** #include <stdbool.h>
  19:lvgl\src\lv_draw\../lv_misc/lv_area.h **** #include <stdint.h>
  20:lvgl\src\lv_draw\../lv_misc/lv_area.h **** #include "lv_mem.h"
  21:lvgl\src\lv_draw\../lv_misc/lv_area.h **** 
  22:lvgl\src\lv_draw\../lv_misc/lv_area.h **** /*********************
  23:lvgl\src\lv_draw\../lv_misc/lv_area.h ****  *      DEFINES
  24:lvgl\src\lv_draw\../lv_misc/lv_area.h ****  *********************/
  25:lvgl\src\lv_draw\../lv_misc/lv_area.h **** /*To avoid overflow don't let the max ranges (reduce with 1000) */
  26:lvgl\src\lv_draw\../lv_misc/lv_area.h **** #define LV_COORD_MAX ((lv_coord_t)((uint32_t)((uint32_t)1 << (8 * sizeof(lv_coord_t) - 1)) - 1000))
  27:lvgl\src\lv_draw\../lv_misc/lv_area.h **** #define LV_COORD_MIN (-LV_COORD_MAX)
  28:lvgl\src\lv_draw\../lv_misc/lv_area.h **** 
ARM GAS  C:\Users\strap\AppData\Local\Temp\ccUgAYbc.s 			page 15


  29:lvgl\src\lv_draw\../lv_misc/lv_area.h **** LV_EXPORT_CONST_INT(LV_COORD_MAX);
  30:lvgl\src\lv_draw\../lv_misc/lv_area.h **** LV_EXPORT_CONST_INT(LV_COORD_MIN);
  31:lvgl\src\lv_draw\../lv_misc/lv_area.h **** 
  32:lvgl\src\lv_draw\../lv_misc/lv_area.h **** /**********************
  33:lvgl\src\lv_draw\../lv_misc/lv_area.h ****  *      TYPEDEFS
  34:lvgl\src\lv_draw\../lv_misc/lv_area.h ****  **********************/
  35:lvgl\src\lv_draw\../lv_misc/lv_area.h **** 
  36:lvgl\src\lv_draw\../lv_misc/lv_area.h **** /**
  37:lvgl\src\lv_draw\../lv_misc/lv_area.h ****  * Represents a point on the screen.
  38:lvgl\src\lv_draw\../lv_misc/lv_area.h ****  */
  39:lvgl\src\lv_draw\../lv_misc/lv_area.h **** typedef struct {
  40:lvgl\src\lv_draw\../lv_misc/lv_area.h ****     lv_coord_t x;
  41:lvgl\src\lv_draw\../lv_misc/lv_area.h ****     lv_coord_t y;
  42:lvgl\src\lv_draw\../lv_misc/lv_area.h **** } lv_point_t;
  43:lvgl\src\lv_draw\../lv_misc/lv_area.h **** 
  44:lvgl\src\lv_draw\../lv_misc/lv_area.h **** /** Represents an area of the screen. */
  45:lvgl\src\lv_draw\../lv_misc/lv_area.h **** typedef struct {
  46:lvgl\src\lv_draw\../lv_misc/lv_area.h ****     lv_coord_t x1;
  47:lvgl\src\lv_draw\../lv_misc/lv_area.h ****     lv_coord_t y1;
  48:lvgl\src\lv_draw\../lv_misc/lv_area.h ****     lv_coord_t x2;
  49:lvgl\src\lv_draw\../lv_misc/lv_area.h ****     lv_coord_t y2;
  50:lvgl\src\lv_draw\../lv_misc/lv_area.h **** } lv_area_t;
  51:lvgl\src\lv_draw\../lv_misc/lv_area.h **** 
  52:lvgl\src\lv_draw\../lv_misc/lv_area.h **** 
  53:lvgl\src\lv_draw\../lv_misc/lv_area.h **** 
  54:lvgl\src\lv_draw\../lv_misc/lv_area.h **** /** Alignments */
  55:lvgl\src\lv_draw\../lv_misc/lv_area.h **** enum {
  56:lvgl\src\lv_draw\../lv_misc/lv_area.h ****     LV_ALIGN_CENTER = 0,
  57:lvgl\src\lv_draw\../lv_misc/lv_area.h ****     LV_ALIGN_IN_TOP_LEFT,
  58:lvgl\src\lv_draw\../lv_misc/lv_area.h ****     LV_ALIGN_IN_TOP_MID,
  59:lvgl\src\lv_draw\../lv_misc/lv_area.h ****     LV_ALIGN_IN_TOP_RIGHT,
  60:lvgl\src\lv_draw\../lv_misc/lv_area.h ****     LV_ALIGN_IN_BOTTOM_LEFT,
  61:lvgl\src\lv_draw\../lv_misc/lv_area.h ****     LV_ALIGN_IN_BOTTOM_MID,
  62:lvgl\src\lv_draw\../lv_misc/lv_area.h ****     LV_ALIGN_IN_BOTTOM_RIGHT,
  63:lvgl\src\lv_draw\../lv_misc/lv_area.h ****     LV_ALIGN_IN_LEFT_MID,
  64:lvgl\src\lv_draw\../lv_misc/lv_area.h ****     LV_ALIGN_IN_RIGHT_MID,
  65:lvgl\src\lv_draw\../lv_misc/lv_area.h ****     LV_ALIGN_OUT_TOP_LEFT,
  66:lvgl\src\lv_draw\../lv_misc/lv_area.h ****     LV_ALIGN_OUT_TOP_MID,
  67:lvgl\src\lv_draw\../lv_misc/lv_area.h ****     LV_ALIGN_OUT_TOP_RIGHT,
  68:lvgl\src\lv_draw\../lv_misc/lv_area.h ****     LV_ALIGN_OUT_BOTTOM_LEFT,
  69:lvgl\src\lv_draw\../lv_misc/lv_area.h ****     LV_ALIGN_OUT_BOTTOM_MID,
  70:lvgl\src\lv_draw\../lv_misc/lv_area.h ****     LV_ALIGN_OUT_BOTTOM_RIGHT,
  71:lvgl\src\lv_draw\../lv_misc/lv_area.h ****     LV_ALIGN_OUT_LEFT_TOP,
  72:lvgl\src\lv_draw\../lv_misc/lv_area.h ****     LV_ALIGN_OUT_LEFT_MID,
  73:lvgl\src\lv_draw\../lv_misc/lv_area.h ****     LV_ALIGN_OUT_LEFT_BOTTOM,
  74:lvgl\src\lv_draw\../lv_misc/lv_area.h ****     LV_ALIGN_OUT_RIGHT_TOP,
  75:lvgl\src\lv_draw\../lv_misc/lv_area.h ****     LV_ALIGN_OUT_RIGHT_MID,
  76:lvgl\src\lv_draw\../lv_misc/lv_area.h ****     LV_ALIGN_OUT_RIGHT_BOTTOM,
  77:lvgl\src\lv_draw\../lv_misc/lv_area.h **** };
  78:lvgl\src\lv_draw\../lv_misc/lv_area.h **** typedef uint8_t lv_align_t;
  79:lvgl\src\lv_draw\../lv_misc/lv_area.h **** 
  80:lvgl\src\lv_draw\../lv_misc/lv_area.h **** 
  81:lvgl\src\lv_draw\../lv_misc/lv_area.h **** /**********************
  82:lvgl\src\lv_draw\../lv_misc/lv_area.h ****  * GLOBAL PROTOTYPES
  83:lvgl\src\lv_draw\../lv_misc/lv_area.h ****  **********************/
  84:lvgl\src\lv_draw\../lv_misc/lv_area.h **** 
  85:lvgl\src\lv_draw\../lv_misc/lv_area.h **** /**
ARM GAS  C:\Users\strap\AppData\Local\Temp\ccUgAYbc.s 			page 16


  86:lvgl\src\lv_draw\../lv_misc/lv_area.h ****  * Initialize an area
  87:lvgl\src\lv_draw\../lv_misc/lv_area.h ****  * @param area_p pointer to an area
  88:lvgl\src\lv_draw\../lv_misc/lv_area.h ****  * @param x1 left coordinate of the area
  89:lvgl\src\lv_draw\../lv_misc/lv_area.h ****  * @param y1 top coordinate of the area
  90:lvgl\src\lv_draw\../lv_misc/lv_area.h ****  * @param x2 right coordinate of the area
  91:lvgl\src\lv_draw\../lv_misc/lv_area.h ****  * @param y2 bottom coordinate of the area
  92:lvgl\src\lv_draw\../lv_misc/lv_area.h ****  */
  93:lvgl\src\lv_draw\../lv_misc/lv_area.h **** void lv_area_set(lv_area_t * area_p, lv_coord_t x1, lv_coord_t y1, lv_coord_t x2, lv_coord_t y2);
  94:lvgl\src\lv_draw\../lv_misc/lv_area.h **** 
  95:lvgl\src\lv_draw\../lv_misc/lv_area.h **** /**
  96:lvgl\src\lv_draw\../lv_misc/lv_area.h ****  * Copy an area
  97:lvgl\src\lv_draw\../lv_misc/lv_area.h ****  * @param dest pointer to the destination area
  98:lvgl\src\lv_draw\../lv_misc/lv_area.h ****  * @param src pointer to the source area
  99:lvgl\src\lv_draw\../lv_misc/lv_area.h ****  */
 100:lvgl\src\lv_draw\../lv_misc/lv_area.h **** inline static void lv_area_copy(lv_area_t * dest, const lv_area_t * src)
 101:lvgl\src\lv_draw\../lv_misc/lv_area.h **** {
 102:lvgl\src\lv_draw\../lv_misc/lv_area.h ****     _lv_memcpy_small(dest, src, sizeof(lv_area_t));
 103:lvgl\src\lv_draw\../lv_misc/lv_area.h **** }
 104:lvgl\src\lv_draw\../lv_misc/lv_area.h **** 
 105:lvgl\src\lv_draw\../lv_misc/lv_area.h **** /**
 106:lvgl\src\lv_draw\../lv_misc/lv_area.h ****  * Get the width of an area
 107:lvgl\src\lv_draw\../lv_misc/lv_area.h ****  * @param area_p pointer to an area
 108:lvgl\src\lv_draw\../lv_misc/lv_area.h ****  * @return the width of the area (if x1 == x2 -> width = 1)
 109:lvgl\src\lv_draw\../lv_misc/lv_area.h ****  */
 110:lvgl\src\lv_draw\../lv_misc/lv_area.h **** static inline lv_coord_t lv_area_get_width(const lv_area_t * area_p)
 111:lvgl\src\lv_draw\../lv_misc/lv_area.h **** {
 112:lvgl\src\lv_draw\../lv_misc/lv_area.h ****     return (lv_coord_t)(area_p->x2 - area_p->x1 + 1);
 166              		.loc 3 112 0 discriminator 4
 167 00b0 159A     		ldr	r2, [sp, #84]
 168 00b2 1346     		mov	r3, r2
 169 00b4 B2F90450 		ldrsh	r5, [r2, #4]
 170 00b8 B2F90020 		ldrsh	r2, [r2]
 171 00bc AD1A     		subs	r5, r5, r2
 172 00be 0135     		adds	r5, r5, #1
 173 00c0 2DB2     		sxth	r5, r5
 174              	.LVL19:
 175              	.LBE106:
 176              	.LBE105:
 382:lvgl\src\lv_draw/lv_draw_img.c **** 
 383:lvgl\src\lv_draw/lv_draw_img.c ****         /*Go to the first displayed pixel of the map*/
 384:lvgl\src\lv_draw/lv_draw_img.c ****         int32_t map_w = lv_area_get_width(map_area);
 177              		.loc 1 384 0 discriminator 4
 178 00c2 1895     		str	r5, [sp, #96]
 179              	.LVL20:
 385:lvgl\src\lv_draw/lv_draw_img.c ****         const uint8_t * map_buf_tmp = map_p;
 386:lvgl\src\lv_draw/lv_draw_img.c ****         map_buf_tmp += map_w * (draw_area.y1 - (map_area->y1 - disp_area->y1)) * px_size_byte;
 180              		.loc 1 386 0 discriminator 4
 181 00c4 BDF9E200 		ldrsh	r0, [sp, #226]
 182              	.LVL21:
 183 00c8 B3F90230 		ldrsh	r3, [r3, #2]
 184 00cc 139C     		ldr	r4, [sp, #76]
 185 00ce B4F91210 		ldrsh	r1, [r4, #18]
 186 00d2 5B1A     		subs	r3, r3, r1
 187 00d4 C31A     		subs	r3, r0, r3
 188 00d6 03FB05F3 		mul	r3, r3, r5
 189 00da 069F     		ldr	r7, [sp, #24]
 190 00dc 1997     		str	r7, [sp, #100]
ARM GAS  C:\Users\strap\AppData\Local\Temp\ccUgAYbc.s 			page 17


 191              	.LVL22:
 387:lvgl\src\lv_draw/lv_draw_img.c ****         map_buf_tmp += (draw_area.x1 - (map_area->x1 - disp_area->x1)) * px_size_byte;
 192              		.loc 1 387 0 discriminator 4
 193 00de BDF9E0C0 		ldrsh	ip, [sp, #224]
 194 00e2 B4F910E0 		ldrsh	lr, [r4, #16]
 195 00e6 CEEB0202 		rsb	r2, lr, r2
 196 00ea C2EB0C02 		rsb	r2, r2, ip
 197 00ee 02FB07F2 		mul	r2, r2, r7
 198 00f2 07FB0323 		mla	r3, r7, r3, r2
 199              	.LVL23:
 200 00f6 F318     		adds	r3, r6, r3
 201 00f8 1093     		str	r3, [sp, #64]
 202              	.LVL24:
 388:lvgl\src\lv_draw/lv_draw_img.c **** 
 389:lvgl\src\lv_draw/lv_draw_img.c ****         lv_color_t c;
 390:lvgl\src\lv_draw/lv_draw_img.c ****         lv_color_t chroma_keyed_color = LV_COLOR_TRANSP;
 391:lvgl\src\lv_draw/lv_draw_img.c ****         uint32_t px_i = 0;
 392:lvgl\src\lv_draw/lv_draw_img.c **** 
 393:lvgl\src\lv_draw/lv_draw_img.c ****         const uint8_t * map_px;
 394:lvgl\src\lv_draw/lv_draw_img.c **** 
 395:lvgl\src\lv_draw/lv_draw_img.c ****         lv_area_t blend_area;
 396:lvgl\src\lv_draw/lv_draw_img.c ****         blend_area.x1 = draw_area.x1 + disp_area->x1;
 203              		.loc 1 396 0 discriminator 4
 204 00fa 1FFA8CF2 		uxth	r2, ip
 205 00fe 02EB0E03 		add	r3, r2, lr
 206              	.LVL25:
 207 0102 9FB2     		uxth	r7, r3
 208 0104 ADF88C70 		strh	r7, [sp, #140]	@ movhi
 209              	.LVL26:
 210              	.LBB107:
 211              	.LBB108:
 212              		.loc 3 112 0 discriminator 4
 213 0108 BDF9E430 		ldrsh	r3, [sp, #228]
 214 010c 9A1A     		subs	r2, r3, r2
 215 010e 0132     		adds	r2, r2, #1
 216 0110 93B2     		uxth	r3, r2
 217 0112 0FFA83FA 		sxth	r10, r3
 218              	.LVL27:
 219              	.LBE108:
 220              	.LBE107:
 397:lvgl\src\lv_draw/lv_draw_img.c ****         blend_area.x2 = blend_area.x1 + lv_area_get_width(&draw_area) - 1;
 221              		.loc 1 397 0 discriminator 4
 222 0116 3B44     		add	r3, r3, r7
 223 0118 013B     		subs	r3, r3, #1
 224 011a ADF89030 		strh	r3, [sp, #144]	@ movhi
 398:lvgl\src\lv_draw/lv_draw_img.c ****         blend_area.y1 = disp_area->y1 + draw_area.y1;
 225              		.loc 1 398 0 discriminator 4
 226 011e 80B2     		uxth	r0, r0
 227 0120 4318     		adds	r3, r0, r1
 228 0122 1BB2     		sxth	r3, r3
 229 0124 ADF88E30 		strh	r3, [sp, #142]	@ movhi
 399:lvgl\src\lv_draw/lv_draw_img.c ****         blend_area.y2 = blend_area.y1;
 230              		.loc 1 399 0 discriminator 4
 231 0128 ADF89230 		strh	r3, [sp, #146]	@ movhi
 232              	.LVL28:
 233              	.LBB109:
 234              	.LBB110:
ARM GAS  C:\Users\strap\AppData\Local\Temp\ccUgAYbc.s 			page 18


 113:lvgl\src\lv_draw\../lv_misc/lv_area.h **** }
 114:lvgl\src\lv_draw\../lv_misc/lv_area.h **** 
 115:lvgl\src\lv_draw\../lv_misc/lv_area.h **** /**
 116:lvgl\src\lv_draw\../lv_misc/lv_area.h ****  * Get the height of an area
 117:lvgl\src\lv_draw\../lv_misc/lv_area.h ****  * @param area_p pointer to an area
 118:lvgl\src\lv_draw\../lv_misc/lv_area.h ****  * @return the height of the area (if y1 == y2 -> height = 1)
 119:lvgl\src\lv_draw\../lv_misc/lv_area.h ****  */
 120:lvgl\src\lv_draw\../lv_misc/lv_area.h **** static inline lv_coord_t lv_area_get_height(const lv_area_t * area_p)
 121:lvgl\src\lv_draw\../lv_misc/lv_area.h **** {
 122:lvgl\src\lv_draw\../lv_misc/lv_area.h ****     return (lv_coord_t)(area_p->y2 - area_p->y1 + 1);
 235              		.loc 3 122 0 discriminator 4
 236 012c BDF9E630 		ldrsh	r3, [sp, #230]
 237 0130 1B1A     		subs	r3, r3, r0
 238 0132 0133     		adds	r3, r3, #1
 239 0134 1BB2     		sxth	r3, r3
 240 0136 1793     		str	r3, [sp, #92]
 241              	.LVL29:
 242              	.LBE110:
 243              	.LBE109:
 400:lvgl\src\lv_draw/lv_draw_img.c **** 
 401:lvgl\src\lv_draw/lv_draw_img.c ****         lv_coord_t draw_area_h = lv_area_get_height(&draw_area);
 402:lvgl\src\lv_draw/lv_draw_img.c ****         lv_coord_t draw_area_w = lv_area_get_width(&draw_area);
 403:lvgl\src\lv_draw/lv_draw_img.c **** 
 404:lvgl\src\lv_draw/lv_draw_img.c **** #if LV_USE_IMG_TRANSFORM
 405:lvgl\src\lv_draw/lv_draw_img.c ****         bool transform = draw_dsc->angle != 0 || draw_dsc->zoom != LV_IMG_ZOOM_NONE ? true : false;
 244              		.loc 1 405 0 discriminator 4
 245 0138 099A     		ldr	r2, [sp, #36]
 246 013a 5388     		ldrh	r3, [r2, #2]
 247 013c 2BB9     		cbnz	r3, .L55
 248              		.loc 1 405 0 is_stmt 0 discriminator 2
 249 013e 1389     		ldrh	r3, [r2, #8]
 250 0140 B3F5807F 		cmp	r3, #256
 251 0144 03D0     		beq	.L56
 252              		.loc 1 405 0
 253 0146 0123     		movs	r3, #1
 254 0148 02E0     		b	.L7
 255              	.L55:
 256 014a 0123     		movs	r3, #1
 257 014c 00E0     		b	.L7
 258              	.L56:
 259 014e 0023     		movs	r3, #0
 260              	.L7:
 261              		.loc 1 405 0 discriminator 6
 262 0150 0793     		str	r3, [sp, #28]
 263              	.LVL30:
 406:lvgl\src\lv_draw/lv_draw_img.c **** #else
 407:lvgl\src\lv_draw/lv_draw_img.c ****         bool transform = false;
 408:lvgl\src\lv_draw/lv_draw_img.c **** #endif
 409:lvgl\src\lv_draw/lv_draw_img.c ****         /*Simple ARGB image. Handle it as special case because it's very common*/
 410:lvgl\src\lv_draw/lv_draw_img.c ****         if(other_mask_cnt == 0 && !transform && !chroma_key && draw_dsc->recolor_opa == LV_OPA_TRAN
 264              		.loc 1 410 0 is_stmt 1 discriminator 6
 265 0152 149A     		ldr	r2, [sp, #80]
 266 0154 002A     		cmp	r2, #0
 267 0156 40F08B80 		bne	.L8
 268              		.loc 1 410 0 is_stmt 0 discriminator 1
 269 015a 002B     		cmp	r3, #0
 270 015c 40F08880 		bne	.L8
ARM GAS  C:\Users\strap\AppData\Local\Temp\ccUgAYbc.s 			page 19


 271              		.loc 1 410 0 discriminator 2
 272 0160 0D9B     		ldr	r3, [sp, #52]
 273              	.LVL31:
 274 0162 002B     		cmp	r3, #0
 275 0164 40F08480 		bne	.L8
 276              		.loc 1 410 0 discriminator 3
 277 0168 099B     		ldr	r3, [sp, #36]
 278 016a 9B7A     		ldrb	r3, [r3, #10]	@ zero_extendqisi2
 279 016c 002B     		cmp	r3, #0
 280 016e 7FD1     		bne	.L8
 281              		.loc 1 410 0 discriminator 4
 282 0170 089B     		ldr	r3, [sp, #32]
 283 0172 002B     		cmp	r3, #0
 284 0174 7CD0     		beq	.L8
 285              	.LBB111:
 411:lvgl\src\lv_draw/lv_draw_img.c **** #if LV_USE_GPU_STM32_DMA2D && LV_COLOR_DEPTH == 32
 412:lvgl\src\lv_draw/lv_draw_img.c ****             /*Blend ARGB images directly*/
 413:lvgl\src\lv_draw/lv_draw_img.c ****             if(lv_area_get_size(&draw_area) > 240) {
 414:lvgl\src\lv_draw/lv_draw_img.c ****                 int32_t disp_w = lv_area_get_width(disp_area);
 415:lvgl\src\lv_draw/lv_draw_img.c ****                 lv_color_t * disp_buf = vdb->buf_act;
 416:lvgl\src\lv_draw/lv_draw_img.c ****                 lv_color_t * disp_buf_first = disp_buf + disp_w * draw_area.y1 + draw_area.x1;
 417:lvgl\src\lv_draw/lv_draw_img.c ****                 lv_gpu_stm32_dma2d_blend(disp_buf_first, disp_w, (const lv_color_t *)map_buf_tmp, d
 418:lvgl\src\lv_draw/lv_draw_img.c ****                                          draw_area_h);
 419:lvgl\src\lv_draw/lv_draw_img.c ****                 return;
 420:lvgl\src\lv_draw/lv_draw_img.c ****             }
 421:lvgl\src\lv_draw/lv_draw_img.c **** #endif
 422:lvgl\src\lv_draw/lv_draw_img.c ****             uint32_t hor_res = (uint32_t) lv_disp_get_hor_res(disp);
 286              		.loc 1 422 0 is_stmt 1
 287 0176 4046     		mov	r0, r8
 288 0178 FFF7FEFF 		bl	lv_disp_get_hor_res
 289              	.LVL32:
 290 017c 0446     		mov	r4, r0
 291 017e 0746     		mov	r7, r0
 292              	.LVL33:
 423:lvgl\src\lv_draw/lv_draw_img.c ****             uint32_t mask_buf_size = lv_area_get_size(&draw_area) > (uint32_t) hor_res ? hor_res : 
 293              		.loc 1 423 0
 294 0180 38A8     		add	r0, sp, #224
 295              	.LVL34:
 296 0182 FFF7FEFF 		bl	lv_area_get_size
 297              	.LVL35:
 298 0186 8442     		cmp	r4, r0
 299 0188 03D3     		bcc	.L9
 300              		.loc 1 423 0 is_stmt 0 discriminator 1
 301 018a 38A8     		add	r0, sp, #224
 302 018c FFF7FEFF 		bl	lv_area_get_size
 303              	.LVL36:
 304 0190 0746     		mov	r7, r0
 305              	.L9:
 306              	.LVL37:
 424:lvgl\src\lv_draw/lv_draw_img.c ****             lv_color_t * map2 = _lv_mem_buf_get(mask_buf_size * sizeof(lv_color_t));
 307              		.loc 1 424 0 is_stmt 1 discriminator 4
 308 0192 7800     		lsls	r0, r7, #1
 309 0194 FFF7FEFF 		bl	_lv_mem_buf_get
 310              	.LVL38:
 311 0198 0546     		mov	r5, r0
 312              	.LVL39:
 425:lvgl\src\lv_draw/lv_draw_img.c ****             lv_opa_t * mask_buf = _lv_mem_buf_get(mask_buf_size);
ARM GAS  C:\Users\strap\AppData\Local\Temp\ccUgAYbc.s 			page 20


 313              		.loc 1 425 0 discriminator 4
 314 019a 3846     		mov	r0, r7
 315              	.LVL40:
 316 019c FFF7FEFF 		bl	_lv_mem_buf_get
 317              	.LVL41:
 318 01a0 0446     		mov	r4, r0
 319              	.LVL42:
 426:lvgl\src\lv_draw/lv_draw_img.c **** 
 427:lvgl\src\lv_draw/lv_draw_img.c ****             int32_t x;
 428:lvgl\src\lv_draw/lv_draw_img.c ****             int32_t y;
 429:lvgl\src\lv_draw/lv_draw_img.c ****             for(y = 0; y < draw_area_h; y++) {
 320              		.loc 1 429 0 discriminator 4
 321 01a2 0026     		movs	r6, #0
 322              	.LVL43:
 323              	.LBE111:
 391:lvgl\src\lv_draw/lv_draw_img.c **** 
 324              		.loc 1 391 0 discriminator 4
 325 01a4 3246     		mov	r2, r6
 326 01a6 DDF84090 		ldr	r9, [sp, #64]
 327 01aa DDF81880 		ldr	r8, [sp, #24]
 328              	.LVL44:
 329 01ae DDF824B0 		ldr	fp, [sp, #36]
 330              	.LBB115:
 331              		.loc 1 429 0 discriminator 4
 332 01b2 3DE0     		b	.L10
 333              	.LVL45:
 334              	.L12:
 335              	.LBB112:
 430:lvgl\src\lv_draw/lv_draw_img.c ****                 map_px = map_buf_tmp;
 431:lvgl\src\lv_draw/lv_draw_img.c ****                 for(x = 0; x < draw_area_w; x++, map_px += px_size_byte, px_i++) {
 432:lvgl\src\lv_draw/lv_draw_img.c ****                     lv_opa_t px_opa = map_px[LV_IMG_PX_SIZE_ALPHA_BYTE - 1];
 336              		.loc 1 432 0
 337 01b4 9878     		ldrb	r0, [r3, #2]	@ zero_extendqisi2
 338              	.LVL46:
 433:lvgl\src\lv_draw/lv_draw_img.c ****                     mask_buf[px_i] = px_opa;
 339              		.loc 1 433 0
 340 01b6 A054     		strb	r0, [r4, r2]
 434:lvgl\src\lv_draw/lv_draw_img.c ****                     if(px_opa) {
 341              		.loc 1 434 0
 342 01b8 30B1     		cbz	r0, .L11
 435:lvgl\src\lv_draw/lv_draw_img.c **** #if LV_COLOR_DEPTH == 8 || LV_COLOR_DEPTH == 1
 436:lvgl\src\lv_draw/lv_draw_img.c ****                         map2[px_i].full =  map_px[0];
 437:lvgl\src\lv_draw/lv_draw_img.c **** #elif LV_COLOR_DEPTH == 16
 438:lvgl\src\lv_draw/lv_draw_img.c ****                         map2[px_i].full =  map_px[0] + (map_px[1] << 8);
 343              		.loc 1 438 0
 344 01ba 1878     		ldrb	r0, [r3]	@ zero_extendqisi2
 345              	.LVL47:
 346 01bc 93F801E0 		ldrb	lr, [r3, #1]	@ zero_extendqisi2
 347 01c0 00EB0E20 		add	r0, r0, lr, lsl #8
 348 01c4 25F81200 		strh	r0, [r5, r2, lsl #1]	@ movhi
 349              	.LVL48:
 350              	.L11:
 351              	.LBE112:
 431:lvgl\src\lv_draw/lv_draw_img.c ****                     lv_opa_t px_opa = map_px[LV_IMG_PX_SIZE_ALPHA_BYTE - 1];
 352              		.loc 1 431 0 discriminator 2
 353 01c8 0131     		adds	r1, r1, #1
 354              	.LVL49:
ARM GAS  C:\Users\strap\AppData\Local\Temp\ccUgAYbc.s 			page 21


 355 01ca 4344     		add	r3, r3, r8
 356              	.LVL50:
 357 01cc 0132     		adds	r2, r2, #1
 358              	.LVL51:
 359 01ce 01E0     		b	.L15
 360              	.LVL52:
 361              	.L57:
 362 01d0 4B46     		mov	r3, r9
 363 01d2 0021     		movs	r1, #0
 364              	.L15:
 365              	.LVL53:
 431:lvgl\src\lv_draw/lv_draw_img.c ****                     lv_opa_t px_opa = map_px[LV_IMG_PX_SIZE_ALPHA_BYTE - 1];
 366              		.loc 1 431 0 is_stmt 0 discriminator 1
 367 01d4 5145     		cmp	r1, r10
 368 01d6 EDDB     		blt	.L12
 439:lvgl\src\lv_draw/lv_draw_img.c **** #elif LV_COLOR_DEPTH == 32
 440:lvgl\src\lv_draw/lv_draw_img.c ****                         map2[px_i].full =  *((uint32_t *)map_px);
 441:lvgl\src\lv_draw/lv_draw_img.c **** #endif
 442:lvgl\src\lv_draw/lv_draw_img.c ****                     }
 443:lvgl\src\lv_draw/lv_draw_img.c **** #if LV_COLOR_DEPTH == 32
 444:lvgl\src\lv_draw/lv_draw_img.c ****                     map2[px_i].ch.alpha = 0xFF;
 445:lvgl\src\lv_draw/lv_draw_img.c **** #endif
 446:lvgl\src\lv_draw/lv_draw_img.c ****                 }
 447:lvgl\src\lv_draw/lv_draw_img.c **** 
 448:lvgl\src\lv_draw/lv_draw_img.c ****                 map_buf_tmp += map_w * px_size_byte;
 369              		.loc 1 448 0 is_stmt 1
 370 01d8 189B     		ldr	r3, [sp, #96]
 371              	.LVL54:
 372 01da 1999     		ldr	r1, [sp, #100]
 373              	.LVL55:
 374 01dc 01FB0399 		mla	r9, r1, r3, r9
 375              	.LVL56:
 376              	.LBB113:
 377              	.LBB114:
 112:lvgl\src\lv_draw\../lv_misc/lv_area.h **** }
 378              		.loc 3 112 0
 379 01e0 BDF9E430 		ldrsh	r3, [sp, #228]
 380 01e4 BDF9E010 		ldrsh	r1, [sp, #224]
 381 01e8 5B1A     		subs	r3, r3, r1
 382 01ea 0133     		adds	r3, r3, #1
 383 01ec 1BB2     		sxth	r3, r3
 384              	.LVL57:
 385              	.LBE114:
 386              	.LBE113:
 449:lvgl\src\lv_draw/lv_draw_img.c ****                 if(px_i + lv_area_get_width(&draw_area) < mask_buf_size) {
 387              		.loc 1 449 0
 388 01ee 1344     		add	r3, r3, r2
 389 01f0 9F42     		cmp	r7, r3
 390 01f2 05D9     		bls	.L13
 450:lvgl\src\lv_draw/lv_draw_img.c ****                     blend_area.y2 ++;
 391              		.loc 1 450 0
 392 01f4 BDF99230 		ldrsh	r3, [sp, #146]
 393 01f8 0133     		adds	r3, r3, #1
 394 01fa ADF89230 		strh	r3, [sp, #146]	@ movhi
 395 01fe 16E0     		b	.L14
 396              	.L13:
 451:lvgl\src\lv_draw/lv_draw_img.c ****                 }
ARM GAS  C:\Users\strap\AppData\Local\Temp\ccUgAYbc.s 			page 22


 452:lvgl\src\lv_draw/lv_draw_img.c ****                 else {
 453:lvgl\src\lv_draw/lv_draw_img.c ****                     _lv_blend_map(clip_area, &blend_area, map2, mask_buf, LV_DRAW_MASK_RES_CHANGED,
 397              		.loc 1 453 0
 398 0200 9BF80E30 		ldrb	r3, [fp, #14]	@ zero_extendqisi2
 399 0204 0293     		str	r3, [sp, #8]
 400 0206 9BF80030 		ldrb	r3, [fp]	@ zero_extendqisi2
 401 020a 0193     		str	r3, [sp, #4]
 402 020c 0223     		movs	r3, #2
 403 020e 0093     		str	r3, [sp]
 404 0210 2346     		mov	r3, r4
 405 0212 2A46     		mov	r2, r5
 406              	.LVL58:
 407 0214 23A9     		add	r1, sp, #140
 408 0216 1E98     		ldr	r0, [sp, #120]
 409 0218 FFF7FEFF 		bl	_lv_blend_map
 410              	.LVL59:
 454:lvgl\src\lv_draw/lv_draw_img.c **** 
 455:lvgl\src\lv_draw/lv_draw_img.c ****                     blend_area.y1 = blend_area.y2 + 1;
 411              		.loc 1 455 0
 412 021c BDF99230 		ldrsh	r3, [sp, #146]
 413 0220 0133     		adds	r3, r3, #1
 414 0222 1BB2     		sxth	r3, r3
 415 0224 ADF88E30 		strh	r3, [sp, #142]	@ movhi
 456:lvgl\src\lv_draw/lv_draw_img.c ****                     blend_area.y2 = blend_area.y1;
 416              		.loc 1 456 0
 417 0228 ADF89230 		strh	r3, [sp, #146]	@ movhi
 418              	.LVL60:
 457:lvgl\src\lv_draw/lv_draw_img.c **** 
 458:lvgl\src\lv_draw/lv_draw_img.c ****                     px_i = 0;
 419              		.loc 1 458 0
 420 022c 0022     		movs	r2, #0
 421              	.LVL61:
 422              	.L14:
 429:lvgl\src\lv_draw/lv_draw_img.c ****                 map_px = map_buf_tmp;
 423              		.loc 1 429 0 discriminator 2
 424 022e 0136     		adds	r6, r6, #1
 425              	.LVL62:
 426              	.L10:
 429:lvgl\src\lv_draw/lv_draw_img.c ****                 map_px = map_buf_tmp;
 427              		.loc 1 429 0 is_stmt 0 discriminator 1
 428 0230 179B     		ldr	r3, [sp, #92]
 429 0232 9E42     		cmp	r6, r3
 430 0234 CCDB     		blt	.L57
 459:lvgl\src\lv_draw/lv_draw_img.c ****                 }
 460:lvgl\src\lv_draw/lv_draw_img.c ****             }
 461:lvgl\src\lv_draw/lv_draw_img.c ****             /*Flush the last part*/
 462:lvgl\src\lv_draw/lv_draw_img.c ****             if(blend_area.y1 != blend_area.y2) {
 431              		.loc 1 462 0 is_stmt 1
 432 0236 BDF98E20 		ldrsh	r2, [sp, #142]
 433              	.LVL63:
 434 023a BDF99230 		ldrsh	r3, [sp, #146]
 435 023e 9A42     		cmp	r2, r3
 436 0240 0FD0     		beq	.L16
 463:lvgl\src\lv_draw/lv_draw_img.c ****                 blend_area.y2--;
 437              		.loc 1 463 0
 438 0242 013B     		subs	r3, r3, #1
 439 0244 ADF89230 		strh	r3, [sp, #146]	@ movhi
ARM GAS  C:\Users\strap\AppData\Local\Temp\ccUgAYbc.s 			page 23


 464:lvgl\src\lv_draw/lv_draw_img.c ****                 _lv_blend_map(clip_area, &blend_area, map2, mask_buf, LV_DRAW_MASK_RES_CHANGED, dra
 440              		.loc 1 464 0
 441 0248 099A     		ldr	r2, [sp, #36]
 442 024a 937B     		ldrb	r3, [r2, #14]	@ zero_extendqisi2
 443 024c 0293     		str	r3, [sp, #8]
 444 024e 1378     		ldrb	r3, [r2]	@ zero_extendqisi2
 445 0250 0193     		str	r3, [sp, #4]
 446 0252 0223     		movs	r3, #2
 447 0254 0093     		str	r3, [sp]
 448 0256 2346     		mov	r3, r4
 449 0258 2A46     		mov	r2, r5
 450 025a 23A9     		add	r1, sp, #140
 451 025c 1E98     		ldr	r0, [sp, #120]
 452 025e FFF7FEFF 		bl	_lv_blend_map
 453              	.LVL64:
 454              	.L16:
 465:lvgl\src\lv_draw/lv_draw_img.c ****             }
 466:lvgl\src\lv_draw/lv_draw_img.c **** 
 467:lvgl\src\lv_draw/lv_draw_img.c ****             _lv_mem_buf_release(mask_buf);
 455              		.loc 1 467 0
 456 0262 2046     		mov	r0, r4
 457 0264 FFF7FEFF 		bl	_lv_mem_buf_release
 458              	.LVL65:
 468:lvgl\src\lv_draw/lv_draw_img.c ****             _lv_mem_buf_release(map2);
 459              		.loc 1 468 0
 460 0268 2846     		mov	r0, r5
 461 026a FFF7FEFF 		bl	_lv_mem_buf_release
 462              	.LVL66:
 463              	.LBE115:
 410:lvgl\src\lv_draw/lv_draw_img.c **** #if LV_USE_GPU_STM32_DMA2D && LV_COLOR_DEPTH == 32
 464              		.loc 1 410 0
 465 026e 9AE2     		b	.L1
 466              	.LVL67:
 467              	.L8:
 468              	.LBB116:
 469:lvgl\src\lv_draw/lv_draw_img.c ****         }
 470:lvgl\src\lv_draw/lv_draw_img.c ****         /*Most complicated case: transform or other mask or chroma keyed*/
 471:lvgl\src\lv_draw/lv_draw_img.c ****         else {
 472:lvgl\src\lv_draw/lv_draw_img.c ****             /*Build the image and a mask line-by-line*/
 473:lvgl\src\lv_draw/lv_draw_img.c ****             uint32_t hor_res = (uint32_t) lv_disp_get_hor_res(disp);
 469              		.loc 1 473 0
 470 0270 4046     		mov	r0, r8
 471 0272 FFF7FEFF 		bl	lv_disp_get_hor_res
 472              	.LVL68:
 473 0276 0446     		mov	r4, r0
 474 0278 1690     		str	r0, [sp, #88]
 475              	.LVL69:
 474:lvgl\src\lv_draw/lv_draw_img.c ****             uint32_t mask_buf_size = lv_area_get_size(&draw_area) > hor_res ? hor_res : lv_area_get
 476              		.loc 1 474 0
 477 027a 38A8     		add	r0, sp, #224
 478              	.LVL70:
 479 027c FFF7FEFF 		bl	lv_area_get_size
 480              	.LVL71:
 481 0280 8442     		cmp	r4, r0
 482 0282 03D3     		bcc	.L18
 483              		.loc 1 474 0 is_stmt 0 discriminator 1
 484 0284 38A8     		add	r0, sp, #224
ARM GAS  C:\Users\strap\AppData\Local\Temp\ccUgAYbc.s 			page 24


 485 0286 FFF7FEFF 		bl	lv_area_get_size
 486              	.LVL72:
 487 028a 1690     		str	r0, [sp, #88]
 488              	.L18:
 489              	.LVL73:
 475:lvgl\src\lv_draw/lv_draw_img.c ****             lv_color_t * map2 = _lv_mem_buf_get(mask_buf_size * sizeof(lv_color_t));
 490              		.loc 1 475 0 is_stmt 1 discriminator 4
 491 028c 169C     		ldr	r4, [sp, #88]
 492              	.LVL74:
 493 028e 6000     		lsls	r0, r4, #1
 494 0290 FFF7FEFF 		bl	_lv_mem_buf_get
 495              	.LVL75:
 496 0294 0A90     		str	r0, [sp, #40]
 497              	.LVL76:
 476:lvgl\src\lv_draw/lv_draw_img.c ****             lv_opa_t * mask_buf = _lv_mem_buf_get(mask_buf_size);
 498              		.loc 1 476 0 discriminator 4
 499 0296 2046     		mov	r0, r4
 500              	.LVL77:
 501 0298 FFF7FEFF 		bl	_lv_mem_buf_get
 502              	.LVL78:
 503 029c 8346     		mov	fp, r0
 504              	.LVL79:
 477:lvgl\src\lv_draw/lv_draw_img.c **** 
 478:lvgl\src\lv_draw/lv_draw_img.c **** #if LV_USE_IMG_TRANSFORM
 479:lvgl\src\lv_draw/lv_draw_img.c ****             lv_img_transform_dsc_t trans_dsc;
 480:lvgl\src\lv_draw/lv_draw_img.c ****             _lv_memset_00(&trans_dsc, sizeof(lv_img_transform_dsc_t));
 505              		.loc 1 480 0 discriminator 4
 506 029e 4C21     		movs	r1, #76
 507 02a0 25A8     		add	r0, sp, #148
 508              	.LVL80:
 509 02a2 FFF7FEFF 		bl	_lv_memset_00
 510              	.LVL81:
 481:lvgl\src\lv_draw/lv_draw_img.c ****             if(transform) {
 511              		.loc 1 481 0 discriminator 4
 512 02a6 079B     		ldr	r3, [sp, #28]
 513 02a8 83B3     		cbz	r3, .L19
 514              	.LVL82:
 515              	.LBB117:
 482:lvgl\src\lv_draw/lv_draw_img.c ****                 lv_img_cf_t cf = LV_IMG_CF_TRUE_COLOR;
 483:lvgl\src\lv_draw/lv_draw_img.c ****                 if(alpha_byte) cf = LV_IMG_CF_TRUE_COLOR_ALPHA;
 516              		.loc 1 483 0
 517 02aa 089B     		ldr	r3, [sp, #32]
 518 02ac 1BB9     		cbnz	r3, .L58
 484:lvgl\src\lv_draw/lv_draw_img.c ****                 else if(chroma_key) cf = LV_IMG_CF_TRUE_COLOR_CHROMA_KEYED;
 519              		.loc 1 484 0
 520 02ae 0D9B     		ldr	r3, [sp, #52]
 521 02b0 1BB9     		cbnz	r3, .L59
 482:lvgl\src\lv_draw/lv_draw_img.c ****                 lv_img_cf_t cf = LV_IMG_CF_TRUE_COLOR;
 522              		.loc 1 482 0
 523 02b2 0422     		movs	r2, #4
 524 02b4 02E0     		b	.L20
 525              	.L58:
 483:lvgl\src\lv_draw/lv_draw_img.c ****                 else if(chroma_key) cf = LV_IMG_CF_TRUE_COLOR_CHROMA_KEYED;
 526              		.loc 1 483 0
 527 02b6 0522     		movs	r2, #5
 528 02b8 00E0     		b	.L20
 529              	.L59:
ARM GAS  C:\Users\strap\AppData\Local\Temp\ccUgAYbc.s 			page 25


 530              		.loc 1 484 0
 531 02ba 0622     		movs	r2, #6
 532              	.L20:
 533              	.LVL83:
 485:lvgl\src\lv_draw/lv_draw_img.c **** 
 486:lvgl\src\lv_draw/lv_draw_img.c ****                 trans_dsc.cfg.angle = draw_dsc->angle;
 534              		.loc 1 486 0
 535 02bc 0998     		ldr	r0, [sp, #36]
 536 02be 4388     		ldrh	r3, [r0, #2]
 537 02c0 ADF8A030 		strh	r3, [sp, #160]	@ movhi
 487:lvgl\src\lv_draw/lv_draw_img.c ****                 trans_dsc.cfg.zoom = draw_dsc->zoom;
 538              		.loc 1 487 0
 539 02c4 0389     		ldrh	r3, [r0, #8]
 540 02c6 ADF8A230 		strh	r3, [sp, #162]	@ movhi
 488:lvgl\src\lv_draw/lv_draw_img.c ****                 trans_dsc.cfg.src = map_p;
 541              		.loc 1 488 0
 542 02ca 2596     		str	r6, [sp, #148]
 489:lvgl\src\lv_draw/lv_draw_img.c ****                 trans_dsc.cfg.src_w = map_w;
 543              		.loc 1 489 0
 544 02cc ADF89850 		strh	r5, [sp, #152]	@ movhi
 545              	.LVL84:
 546              	.LBB118:
 547              	.LBB119:
 548              		.loc 3 122 0
 549 02d0 1599     		ldr	r1, [sp, #84]
 550 02d2 B1F90630 		ldrsh	r3, [r1, #6]
 551 02d6 B1F90210 		ldrsh	r1, [r1, #2]
 552 02da 5B1A     		subs	r3, r3, r1
 553 02dc 0133     		adds	r3, r3, #1
 554              	.LVL85:
 555              	.LBE119:
 556              	.LBE118:
 490:lvgl\src\lv_draw/lv_draw_img.c ****                 trans_dsc.cfg.src_h = lv_area_get_height(map_area);;
 557              		.loc 1 490 0
 558 02de ADF89A30 		strh	r3, [sp, #154]	@ movhi
 491:lvgl\src\lv_draw/lv_draw_img.c ****                 trans_dsc.cfg.cf = cf;
 559              		.loc 1 491 0
 560 02e2 8DF8A620 		strb	r2, [sp, #166]
 492:lvgl\src\lv_draw/lv_draw_img.c ****                 trans_dsc.cfg.pivot_x = draw_dsc->pivot.x;
 561              		.loc 1 492 0
 562 02e6 B0F90430 		ldrsh	r3, [r0, #4]
 563 02ea ADF89C30 		strh	r3, [sp, #156]	@ movhi
 493:lvgl\src\lv_draw/lv_draw_img.c ****                 trans_dsc.cfg.pivot_y = draw_dsc->pivot.y;
 564              		.loc 1 493 0
 565 02ee B0F90630 		ldrsh	r3, [r0, #6]
 566 02f2 ADF89E30 		strh	r3, [sp, #158]	@ movhi
 494:lvgl\src\lv_draw/lv_draw_img.c ****                 trans_dsc.cfg.color = draw_dsc->recolor;
 567              		.loc 1 494 0
 568 02f6 8389     		ldrh	r3, [r0, #12]
 569 02f8 ADF8A430 		strh	r3, [sp, #164]	@ movhi
 495:lvgl\src\lv_draw/lv_draw_img.c ****                 trans_dsc.cfg.antialias = draw_dsc->antialias;
 570              		.loc 1 495 0
 571 02fc C37B     		ldrb	r3, [r0, #15]	@ zero_extendqisi2
 572 02fe C3F30003 		ubfx	r3, r3, #0, #1
 573 0302 8DF8A730 		strb	r3, [sp, #167]
 496:lvgl\src\lv_draw/lv_draw_img.c **** 
 497:lvgl\src\lv_draw/lv_draw_img.c ****                 _lv_img_buf_transform_init(&trans_dsc);
ARM GAS  C:\Users\strap\AppData\Local\Temp\ccUgAYbc.s 			page 26


 574              		.loc 1 497 0
 575 0306 25A8     		add	r0, sp, #148
 576 0308 FFF7FEFF 		bl	_lv_img_buf_transform_init
 577              	.LVL86:
 578              	.L19:
 579              	.LBE117:
 498:lvgl\src\lv_draw/lv_draw_img.c ****             }
 499:lvgl\src\lv_draw/lv_draw_img.c **** #endif
 500:lvgl\src\lv_draw/lv_draw_img.c ****             uint16_t recolor_premult[3] = {0};
 580              		.loc 1 500 0
 581 030c 0023     		movs	r3, #0
 582 030e 2193     		str	r3, [sp, #132]
 583 0310 ADF88830 		strh	r3, [sp, #136]	@ movhi
 501:lvgl\src\lv_draw/lv_draw_img.c ****             lv_opa_t recolor_opa_inv = 255 - draw_dsc->recolor_opa;
 584              		.loc 1 501 0
 585 0314 0999     		ldr	r1, [sp, #36]
 586 0316 8A7A     		ldrb	r2, [r1, #10]	@ zero_extendqisi2
 587 0318 D343     		mvns	r3, r2
 588 031a DBB2     		uxtb	r3, r3
 589 031c 0F93     		str	r3, [sp, #60]
 590              	.LVL87:
 502:lvgl\src\lv_draw/lv_draw_img.c ****             if(draw_dsc->recolor_opa != 0) {
 591              		.loc 1 502 0
 592 031e BAB1     		cbz	r2, .L21
 593 0320 8B89     		ldrh	r3, [r1, #12]
 594              	.LVL88:
 595              	.LBB120:
 596              	.LBB121:
 597              		.file 4 "lvgl\\src\\lv_draw\\../lv_misc/lv_color.h"
   1:lvgl\src\lv_draw\../lv_misc/lv_color.h **** /**
   2:lvgl\src\lv_draw\../lv_misc/lv_color.h ****  * @file lv_color.h
   3:lvgl\src\lv_draw\../lv_misc/lv_color.h ****  *
   4:lvgl\src\lv_draw\../lv_misc/lv_color.h ****  */
   5:lvgl\src\lv_draw\../lv_misc/lv_color.h **** 
   6:lvgl\src\lv_draw\../lv_misc/lv_color.h **** #ifndef LV_COLOR_H
   7:lvgl\src\lv_draw\../lv_misc/lv_color.h **** #define LV_COLOR_H
   8:lvgl\src\lv_draw\../lv_misc/lv_color.h **** 
   9:lvgl\src\lv_draw\../lv_misc/lv_color.h **** #ifdef __cplusplus
  10:lvgl\src\lv_draw\../lv_misc/lv_color.h **** extern "C" {
  11:lvgl\src\lv_draw\../lv_misc/lv_color.h **** #endif
  12:lvgl\src\lv_draw\../lv_misc/lv_color.h **** 
  13:lvgl\src\lv_draw\../lv_misc/lv_color.h **** /*********************
  14:lvgl\src\lv_draw\../lv_misc/lv_color.h ****  *      INCLUDES
  15:lvgl\src\lv_draw\../lv_misc/lv_color.h ****  *********************/
  16:lvgl\src\lv_draw\../lv_misc/lv_color.h **** #include "../lv_conf_internal.h"
  17:lvgl\src\lv_draw\../lv_misc/lv_color.h **** #include "lv_math.h"
  18:lvgl\src\lv_draw\../lv_misc/lv_color.h **** 
  19:lvgl\src\lv_draw\../lv_misc/lv_color.h **** /*Error checking*/
  20:lvgl\src\lv_draw\../lv_misc/lv_color.h **** #if LV_COLOR_DEPTH == 24
  21:lvgl\src\lv_draw\../lv_misc/lv_color.h **** #error "LV_COLOR_DEPTH  24 is deprecated. Use LV_COLOR_DEPTH  32 instead (lv_conf.h)"
  22:lvgl\src\lv_draw\../lv_misc/lv_color.h **** #endif
  23:lvgl\src\lv_draw\../lv_misc/lv_color.h **** 
  24:lvgl\src\lv_draw\../lv_misc/lv_color.h **** #if LV_COLOR_DEPTH != 32 && LV_COLOR_SCREEN_TRANSP != 0
  25:lvgl\src\lv_draw\../lv_misc/lv_color.h **** #error "LV_COLOR_SCREEN_TRANSP requires LV_COLOR_DEPTH == 32. Set it in lv_conf.h"
  26:lvgl\src\lv_draw\../lv_misc/lv_color.h **** #endif
  27:lvgl\src\lv_draw\../lv_misc/lv_color.h **** 
  28:lvgl\src\lv_draw\../lv_misc/lv_color.h **** #if LV_COLOR_DEPTH != 16 && LV_COLOR_16_SWAP != 0
ARM GAS  C:\Users\strap\AppData\Local\Temp\ccUgAYbc.s 			page 27


  29:lvgl\src\lv_draw\../lv_misc/lv_color.h **** #error "LV_COLOR_16_SWAP requires LV_COLOR_DEPTH == 16. Set it in lv_conf.h"
  30:lvgl\src\lv_draw\../lv_misc/lv_color.h **** #endif
  31:lvgl\src\lv_draw\../lv_misc/lv_color.h **** 
  32:lvgl\src\lv_draw\../lv_misc/lv_color.h **** #include <stdint.h>
  33:lvgl\src\lv_draw\../lv_misc/lv_color.h **** 
  34:lvgl\src\lv_draw\../lv_misc/lv_color.h **** /*********************
  35:lvgl\src\lv_draw\../lv_misc/lv_color.h ****  *      DEFINES
  36:lvgl\src\lv_draw\../lv_misc/lv_color.h ****  *********************/
  37:lvgl\src\lv_draw\../lv_misc/lv_color.h **** #define LV_COLOR_WHITE LV_COLOR_MAKE(0xFF, 0xFF, 0xFF)
  38:lvgl\src\lv_draw\../lv_misc/lv_color.h **** #define LV_COLOR_SILVER LV_COLOR_MAKE(0xC0, 0xC0, 0xC0)
  39:lvgl\src\lv_draw\../lv_misc/lv_color.h **** #define LV_COLOR_GRAY LV_COLOR_MAKE(0x80, 0x80, 0x80)
  40:lvgl\src\lv_draw\../lv_misc/lv_color.h **** #define LV_COLOR_BLACK LV_COLOR_MAKE(0x00, 0x00, 0x00)
  41:lvgl\src\lv_draw\../lv_misc/lv_color.h **** #define LV_COLOR_RED LV_COLOR_MAKE(0xFF, 0x00, 0x00)
  42:lvgl\src\lv_draw\../lv_misc/lv_color.h **** #define LV_COLOR_MAROON LV_COLOR_MAKE(0x80, 0x00, 0x00)
  43:lvgl\src\lv_draw\../lv_misc/lv_color.h **** #define LV_COLOR_YELLOW LV_COLOR_MAKE(0xFF, 0xFF, 0x00)
  44:lvgl\src\lv_draw\../lv_misc/lv_color.h **** #define LV_COLOR_OLIVE LV_COLOR_MAKE(0x80, 0x80, 0x00)
  45:lvgl\src\lv_draw\../lv_misc/lv_color.h **** #define LV_COLOR_LIME LV_COLOR_MAKE(0x00, 0xFF, 0x00)
  46:lvgl\src\lv_draw\../lv_misc/lv_color.h **** #define LV_COLOR_GREEN LV_COLOR_MAKE(0x00, 0x80, 0x00)
  47:lvgl\src\lv_draw\../lv_misc/lv_color.h **** #define LV_COLOR_CYAN LV_COLOR_MAKE(0x00, 0xFF, 0xFF)
  48:lvgl\src\lv_draw\../lv_misc/lv_color.h **** #define LV_COLOR_AQUA LV_COLOR_CYAN
  49:lvgl\src\lv_draw\../lv_misc/lv_color.h **** #define LV_COLOR_TEAL LV_COLOR_MAKE(0x00, 0x80, 0x80)
  50:lvgl\src\lv_draw\../lv_misc/lv_color.h **** #define LV_COLOR_BLUE LV_COLOR_MAKE(0x00, 0x00, 0xFF)
  51:lvgl\src\lv_draw\../lv_misc/lv_color.h **** #define LV_COLOR_NAVY LV_COLOR_MAKE(0x00, 0x00, 0x80)
  52:lvgl\src\lv_draw\../lv_misc/lv_color.h **** #define LV_COLOR_MAGENTA LV_COLOR_MAKE(0xFF, 0x00, 0xFF)
  53:lvgl\src\lv_draw\../lv_misc/lv_color.h **** #define LV_COLOR_PURPLE LV_COLOR_MAKE(0x80, 0x00, 0x80)
  54:lvgl\src\lv_draw\../lv_misc/lv_color.h **** #define LV_COLOR_ORANGE LV_COLOR_MAKE(0xFF, 0xA5, 0x00)
  55:lvgl\src\lv_draw\../lv_misc/lv_color.h **** 
  56:lvgl\src\lv_draw\../lv_misc/lv_color.h **** /**
  57:lvgl\src\lv_draw\../lv_misc/lv_color.h ****  * Opacity percentages.
  58:lvgl\src\lv_draw\../lv_misc/lv_color.h ****  */
  59:lvgl\src\lv_draw\../lv_misc/lv_color.h **** enum {
  60:lvgl\src\lv_draw\../lv_misc/lv_color.h ****     LV_OPA_TRANSP = 0,
  61:lvgl\src\lv_draw\../lv_misc/lv_color.h ****     LV_OPA_0      = 0,
  62:lvgl\src\lv_draw\../lv_misc/lv_color.h ****     LV_OPA_10     = 25,
  63:lvgl\src\lv_draw\../lv_misc/lv_color.h ****     LV_OPA_20     = 51,
  64:lvgl\src\lv_draw\../lv_misc/lv_color.h ****     LV_OPA_30     = 76,
  65:lvgl\src\lv_draw\../lv_misc/lv_color.h ****     LV_OPA_40     = 102,
  66:lvgl\src\lv_draw\../lv_misc/lv_color.h ****     LV_OPA_50     = 127,
  67:lvgl\src\lv_draw\../lv_misc/lv_color.h ****     LV_OPA_60     = 153,
  68:lvgl\src\lv_draw\../lv_misc/lv_color.h ****     LV_OPA_70     = 178,
  69:lvgl\src\lv_draw\../lv_misc/lv_color.h ****     LV_OPA_80     = 204,
  70:lvgl\src\lv_draw\../lv_misc/lv_color.h ****     LV_OPA_90     = 229,
  71:lvgl\src\lv_draw\../lv_misc/lv_color.h ****     LV_OPA_100    = 255,
  72:lvgl\src\lv_draw\../lv_misc/lv_color.h ****     LV_OPA_COVER  = 255,
  73:lvgl\src\lv_draw\../lv_misc/lv_color.h **** };
  74:lvgl\src\lv_draw\../lv_misc/lv_color.h **** 
  75:lvgl\src\lv_draw\../lv_misc/lv_color.h **** #define LV_OPA_MIN 2    /*Opacities below this will be transparent*/
  76:lvgl\src\lv_draw\../lv_misc/lv_color.h **** #define LV_OPA_MAX 253  /*Opacities above this will fully cover*/
  77:lvgl\src\lv_draw\../lv_misc/lv_color.h **** 
  78:lvgl\src\lv_draw\../lv_misc/lv_color.h **** #if LV_COLOR_DEPTH == 1
  79:lvgl\src\lv_draw\../lv_misc/lv_color.h **** #define LV_COLOR_SIZE 8
  80:lvgl\src\lv_draw\../lv_misc/lv_color.h **** #elif LV_COLOR_DEPTH == 8
  81:lvgl\src\lv_draw\../lv_misc/lv_color.h **** #define LV_COLOR_SIZE 8
  82:lvgl\src\lv_draw\../lv_misc/lv_color.h **** #elif LV_COLOR_DEPTH == 16
  83:lvgl\src\lv_draw\../lv_misc/lv_color.h **** #define LV_COLOR_SIZE 16
  84:lvgl\src\lv_draw\../lv_misc/lv_color.h **** #elif LV_COLOR_DEPTH == 32
  85:lvgl\src\lv_draw\../lv_misc/lv_color.h **** #define LV_COLOR_SIZE 32
ARM GAS  C:\Users\strap\AppData\Local\Temp\ccUgAYbc.s 			page 28


  86:lvgl\src\lv_draw\../lv_misc/lv_color.h **** #else
  87:lvgl\src\lv_draw\../lv_misc/lv_color.h **** #error "Invalid LV_COLOR_DEPTH in lv_conf.h! Set it to 1, 8, 16 or 32!"
  88:lvgl\src\lv_draw\../lv_misc/lv_color.h **** #endif
  89:lvgl\src\lv_draw\../lv_misc/lv_color.h **** 
  90:lvgl\src\lv_draw\../lv_misc/lv_color.h **** 
  91:lvgl\src\lv_draw\../lv_misc/lv_color.h **** /* Adjust color mix functions rounding.
  92:lvgl\src\lv_draw\../lv_misc/lv_color.h ****  * GPUs might calculate color mix (blending) differently.
  93:lvgl\src\lv_draw\../lv_misc/lv_color.h ****  * Should be in range of 0..254
  94:lvgl\src\lv_draw\../lv_misc/lv_color.h ****  * 0: no adjustment, get the integer part of the result (round down)
  95:lvgl\src\lv_draw\../lv_misc/lv_color.h ****  * 64: round up from x.75
  96:lvgl\src\lv_draw\../lv_misc/lv_color.h ****  * 128: round up from half
  97:lvgl\src\lv_draw\../lv_misc/lv_color.h ****  * 192: round up from x.25
  98:lvgl\src\lv_draw\../lv_misc/lv_color.h ****  * 254: round up */
  99:lvgl\src\lv_draw\../lv_misc/lv_color.h **** #ifndef LV_COLOR_MIX_ROUND_OFS
 100:lvgl\src\lv_draw\../lv_misc/lv_color.h **** #if LV_COLOR_DEPTH == 32
 101:lvgl\src\lv_draw\../lv_misc/lv_color.h **** #define LV_COLOR_MIX_ROUND_OFS 0
 102:lvgl\src\lv_draw\../lv_misc/lv_color.h **** #else
 103:lvgl\src\lv_draw\../lv_misc/lv_color.h **** #define LV_COLOR_MIX_ROUND_OFS 128
 104:lvgl\src\lv_draw\../lv_misc/lv_color.h **** #endif
 105:lvgl\src\lv_draw\../lv_misc/lv_color.h **** #endif
 106:lvgl\src\lv_draw\../lv_misc/lv_color.h **** 
 107:lvgl\src\lv_draw\../lv_misc/lv_color.h **** /*---------------------------------------
 108:lvgl\src\lv_draw\../lv_misc/lv_color.h ****  * Macros for all existing  color depths
 109:lvgl\src\lv_draw\../lv_misc/lv_color.h ****  * to set/get values of the color channels
 110:lvgl\src\lv_draw\../lv_misc/lv_color.h ****  *------------------------------------------*/
 111:lvgl\src\lv_draw\../lv_misc/lv_color.h **** # define LV_COLOR_SET_R1(c, v) (c).ch.red = (uint8_t)((v) & 0x1);
 112:lvgl\src\lv_draw\../lv_misc/lv_color.h **** # define LV_COLOR_SET_G1(c, v) (c).ch.green = (uint8_t)((v) & 0x1);
 113:lvgl\src\lv_draw\../lv_misc/lv_color.h **** # define LV_COLOR_SET_B1(c, v) (c).ch.blue = (uint8_t)((v) & 0x1);
 114:lvgl\src\lv_draw\../lv_misc/lv_color.h **** # define LV_COLOR_SET_A1(c, v)
 115:lvgl\src\lv_draw\../lv_misc/lv_color.h **** 
 116:lvgl\src\lv_draw\../lv_misc/lv_color.h **** # define LV_COLOR_GET_R1(c) (c).ch.red
 117:lvgl\src\lv_draw\../lv_misc/lv_color.h **** # define LV_COLOR_GET_G1(c) (c).ch.green
 118:lvgl\src\lv_draw\../lv_misc/lv_color.h **** # define LV_COLOR_GET_B1(c) (c).ch.blue
 119:lvgl\src\lv_draw\../lv_misc/lv_color.h **** # define LV_COLOR_GET_A1(c) 1
 120:lvgl\src\lv_draw\../lv_misc/lv_color.h **** 
 121:lvgl\src\lv_draw\../lv_misc/lv_color.h **** # define LV_COLOR_SET_R8(c, v) (c).ch.red = (uint8_t)(v) & 0x7U;
 122:lvgl\src\lv_draw\../lv_misc/lv_color.h **** # define LV_COLOR_SET_G8(c, v) (c).ch.green = (uint8_t)(v) & 0x7U;
 123:lvgl\src\lv_draw\../lv_misc/lv_color.h **** # define LV_COLOR_SET_B8(c, v) (c).ch.blue = (uint8_t)(v) & 0x3U;
 124:lvgl\src\lv_draw\../lv_misc/lv_color.h **** # define LV_COLOR_SET_A8(c, v) do {} while(0)
 125:lvgl\src\lv_draw\../lv_misc/lv_color.h **** 
 126:lvgl\src\lv_draw\../lv_misc/lv_color.h **** # define LV_COLOR_GET_R8(c) (c).ch.red
 127:lvgl\src\lv_draw\../lv_misc/lv_color.h **** # define LV_COLOR_GET_G8(c) (c).ch.green
 128:lvgl\src\lv_draw\../lv_misc/lv_color.h **** # define LV_COLOR_GET_B8(c) (c).ch.blue
 129:lvgl\src\lv_draw\../lv_misc/lv_color.h **** # define LV_COLOR_GET_A8(c) 0xFF
 130:lvgl\src\lv_draw\../lv_misc/lv_color.h **** 
 131:lvgl\src\lv_draw\../lv_misc/lv_color.h **** # define LV_COLOR_SET_R16(c, v) (c).ch.red = (uint8_t)(v) & 0x1FU;
 132:lvgl\src\lv_draw\../lv_misc/lv_color.h **** # define LV_COLOR_SET_G16(c, v) (c).ch.green = (uint8_t)(v) & 0x3FU;
 133:lvgl\src\lv_draw\../lv_misc/lv_color.h **** # define LV_COLOR_SET_G16_SWAP(c, v) {(c).ch.green_h = (uint8_t)(((v) >> 3) & 0x7); (c).ch.green_l 
 134:lvgl\src\lv_draw\../lv_misc/lv_color.h **** # define LV_COLOR_SET_B16(c, v) (c).ch.blue = (uint8_t)(v) & 0x1FU;
 135:lvgl\src\lv_draw\../lv_misc/lv_color.h **** # define LV_COLOR_SET_A16(c, v) do {} while(0)
 136:lvgl\src\lv_draw\../lv_misc/lv_color.h **** 
 137:lvgl\src\lv_draw\../lv_misc/lv_color.h **** # define LV_COLOR_GET_R16(c) (c).ch.red
 138:lvgl\src\lv_draw\../lv_misc/lv_color.h **** # define LV_COLOR_GET_G16(c) (c).ch.green
 139:lvgl\src\lv_draw\../lv_misc/lv_color.h **** # define LV_COLOR_GET_G16_SWAP(c) (((c).ch.green_h << 3) + (c).ch.green_l)
 140:lvgl\src\lv_draw\../lv_misc/lv_color.h **** # define LV_COLOR_GET_B16(c) (c).ch.blue
 141:lvgl\src\lv_draw\../lv_misc/lv_color.h **** # define LV_COLOR_GET_A16(c) 0xFF
 142:lvgl\src\lv_draw\../lv_misc/lv_color.h **** 
ARM GAS  C:\Users\strap\AppData\Local\Temp\ccUgAYbc.s 			page 29


 143:lvgl\src\lv_draw\../lv_misc/lv_color.h **** # define LV_COLOR_SET_R32(c, v) (c).ch.red = (uint32_t)((v) & 0xFF);
 144:lvgl\src\lv_draw\../lv_misc/lv_color.h **** # define LV_COLOR_SET_G32(c, v) (c).ch.green = (uint32_t)((v) & 0xFF);
 145:lvgl\src\lv_draw\../lv_misc/lv_color.h **** # define LV_COLOR_SET_B32(c, v) (c).ch.blue = (uint32_t)((v) & 0xFF);
 146:lvgl\src\lv_draw\../lv_misc/lv_color.h **** # define LV_COLOR_SET_A32(c, v) (c).ch.alpha = (uint32_t)((v) & 0xFF);
 147:lvgl\src\lv_draw\../lv_misc/lv_color.h **** 
 148:lvgl\src\lv_draw\../lv_misc/lv_color.h **** # define LV_COLOR_GET_R32(c) (c).ch.red
 149:lvgl\src\lv_draw\../lv_misc/lv_color.h **** # define LV_COLOR_GET_G32(c) (c).ch.green
 150:lvgl\src\lv_draw\../lv_misc/lv_color.h **** # define LV_COLOR_GET_B32(c) (c).ch.blue
 151:lvgl\src\lv_draw\../lv_misc/lv_color.h **** # define LV_COLOR_GET_A32(c) (c).ch.alpha
 152:lvgl\src\lv_draw\../lv_misc/lv_color.h **** 
 153:lvgl\src\lv_draw\../lv_misc/lv_color.h **** 
 154:lvgl\src\lv_draw\../lv_misc/lv_color.h **** /*---------------------------------------
 155:lvgl\src\lv_draw\../lv_misc/lv_color.h ****  * Macros for the current color depth
 156:lvgl\src\lv_draw\../lv_misc/lv_color.h ****  * to set/get values of the color channels
 157:lvgl\src\lv_draw\../lv_misc/lv_color.h ****  *------------------------------------------*/
 158:lvgl\src\lv_draw\../lv_misc/lv_color.h **** #if LV_COLOR_DEPTH == 1
 159:lvgl\src\lv_draw\../lv_misc/lv_color.h **** # define LV_COLOR_SET_R(c, v) LV_COLOR_SET_R1(c,v)
 160:lvgl\src\lv_draw\../lv_misc/lv_color.h **** # define LV_COLOR_SET_G(c, v) LV_COLOR_SET_G1(c,v)
 161:lvgl\src\lv_draw\../lv_misc/lv_color.h **** # define LV_COLOR_SET_B(c, v) LV_COLOR_SET_B1(c,v)
 162:lvgl\src\lv_draw\../lv_misc/lv_color.h **** # define LV_COLOR_SET_A(c, v) LV_COLOR_SET_A1(c,v)
 163:lvgl\src\lv_draw\../lv_misc/lv_color.h **** 
 164:lvgl\src\lv_draw\../lv_misc/lv_color.h **** # define LV_COLOR_GET_R(c) LV_COLOR_GET_R1(c)
 165:lvgl\src\lv_draw\../lv_misc/lv_color.h **** # define LV_COLOR_GET_G(c) LV_COLOR_GET_G1(c)
 166:lvgl\src\lv_draw\../lv_misc/lv_color.h **** # define LV_COLOR_GET_B(c) LV_COLOR_GET_B1(c)
 167:lvgl\src\lv_draw\../lv_misc/lv_color.h **** # define LV_COLOR_GET_A(c) LV_COLOR_GET_A1(c)
 168:lvgl\src\lv_draw\../lv_misc/lv_color.h **** 
 169:lvgl\src\lv_draw\../lv_misc/lv_color.h **** #elif LV_COLOR_DEPTH == 8
 170:lvgl\src\lv_draw\../lv_misc/lv_color.h **** # define LV_COLOR_SET_R(c, v) LV_COLOR_SET_R8(c,v)
 171:lvgl\src\lv_draw\../lv_misc/lv_color.h **** # define LV_COLOR_SET_G(c, v) LV_COLOR_SET_G8(c,v)
 172:lvgl\src\lv_draw\../lv_misc/lv_color.h **** # define LV_COLOR_SET_B(c, v) LV_COLOR_SET_B8(c,v)
 173:lvgl\src\lv_draw\../lv_misc/lv_color.h **** # define LV_COLOR_SET_A(c, v) LV_COLOR_SET_A8(c,v)
 174:lvgl\src\lv_draw\../lv_misc/lv_color.h **** 
 175:lvgl\src\lv_draw\../lv_misc/lv_color.h **** # define LV_COLOR_GET_R(c) LV_COLOR_GET_R8(c)
 176:lvgl\src\lv_draw\../lv_misc/lv_color.h **** # define LV_COLOR_GET_G(c) LV_COLOR_GET_G8(c)
 177:lvgl\src\lv_draw\../lv_misc/lv_color.h **** # define LV_COLOR_GET_B(c) LV_COLOR_GET_B8(c)
 178:lvgl\src\lv_draw\../lv_misc/lv_color.h **** # define LV_COLOR_GET_A(c) LV_COLOR_GET_A8(c)
 179:lvgl\src\lv_draw\../lv_misc/lv_color.h **** 
 180:lvgl\src\lv_draw\../lv_misc/lv_color.h **** #elif LV_COLOR_DEPTH == 16
 181:lvgl\src\lv_draw\../lv_misc/lv_color.h **** # define LV_COLOR_SET_R(c, v) LV_COLOR_SET_R16(c,v)
 182:lvgl\src\lv_draw\../lv_misc/lv_color.h **** # if LV_COLOR_16_SWAP == 0
 183:lvgl\src\lv_draw\../lv_misc/lv_color.h **** #   define LV_COLOR_SET_G(c, v) LV_COLOR_SET_G16(c,v)
 184:lvgl\src\lv_draw\../lv_misc/lv_color.h **** # else
 185:lvgl\src\lv_draw\../lv_misc/lv_color.h **** #   define LV_COLOR_SET_G(c, v) LV_COLOR_SET_G16_SWAP(c,v)
 186:lvgl\src\lv_draw\../lv_misc/lv_color.h **** # endif
 187:lvgl\src\lv_draw\../lv_misc/lv_color.h **** # define LV_COLOR_SET_B(c, v) LV_COLOR_SET_B16(c,v)
 188:lvgl\src\lv_draw\../lv_misc/lv_color.h **** # define LV_COLOR_SET_A(c, v) LV_COLOR_SET_A16(c,v)
 189:lvgl\src\lv_draw\../lv_misc/lv_color.h **** 
 190:lvgl\src\lv_draw\../lv_misc/lv_color.h **** # define LV_COLOR_GET_R(c) LV_COLOR_GET_R16(c)
 191:lvgl\src\lv_draw\../lv_misc/lv_color.h **** # if LV_COLOR_16_SWAP == 0
 192:lvgl\src\lv_draw\../lv_misc/lv_color.h **** #   define LV_COLOR_GET_G(c) LV_COLOR_GET_G16(c)
 193:lvgl\src\lv_draw\../lv_misc/lv_color.h **** # else
 194:lvgl\src\lv_draw\../lv_misc/lv_color.h **** #   define LV_COLOR_GET_G(c) LV_COLOR_GET_G16_SWAP(c)
 195:lvgl\src\lv_draw\../lv_misc/lv_color.h **** # endif
 196:lvgl\src\lv_draw\../lv_misc/lv_color.h **** # define LV_COLOR_GET_B(c)   LV_COLOR_GET_B16(c)
 197:lvgl\src\lv_draw\../lv_misc/lv_color.h **** # define LV_COLOR_GET_A(c)   LV_COLOR_GET_A16(c)
 198:lvgl\src\lv_draw\../lv_misc/lv_color.h **** 
 199:lvgl\src\lv_draw\../lv_misc/lv_color.h **** #elif LV_COLOR_DEPTH == 32
ARM GAS  C:\Users\strap\AppData\Local\Temp\ccUgAYbc.s 			page 30


 200:lvgl\src\lv_draw\../lv_misc/lv_color.h **** # define LV_COLOR_SET_R(c, v) LV_COLOR_SET_R32(c,v)
 201:lvgl\src\lv_draw\../lv_misc/lv_color.h **** # define LV_COLOR_SET_G(c, v) LV_COLOR_SET_G32(c,v)
 202:lvgl\src\lv_draw\../lv_misc/lv_color.h **** # define LV_COLOR_SET_B(c, v) LV_COLOR_SET_B32(c,v)
 203:lvgl\src\lv_draw\../lv_misc/lv_color.h **** # define LV_COLOR_SET_A(c, v) LV_COLOR_SET_A32(c,v)
 204:lvgl\src\lv_draw\../lv_misc/lv_color.h **** 
 205:lvgl\src\lv_draw\../lv_misc/lv_color.h **** # define LV_COLOR_GET_R(c) LV_COLOR_GET_R32(c)
 206:lvgl\src\lv_draw\../lv_misc/lv_color.h **** # define LV_COLOR_GET_G(c) LV_COLOR_GET_G32(c)
 207:lvgl\src\lv_draw\../lv_misc/lv_color.h **** # define LV_COLOR_GET_B(c) LV_COLOR_GET_B32(c)
 208:lvgl\src\lv_draw\../lv_misc/lv_color.h **** # define LV_COLOR_GET_A(c) LV_COLOR_GET_A32(c)
 209:lvgl\src\lv_draw\../lv_misc/lv_color.h **** #endif
 210:lvgl\src\lv_draw\../lv_misc/lv_color.h **** 
 211:lvgl\src\lv_draw\../lv_misc/lv_color.h **** /**********************
 212:lvgl\src\lv_draw\../lv_misc/lv_color.h ****  *      TYPEDEFS
 213:lvgl\src\lv_draw\../lv_misc/lv_color.h ****  **********************/
 214:lvgl\src\lv_draw\../lv_misc/lv_color.h **** 
 215:lvgl\src\lv_draw\../lv_misc/lv_color.h **** typedef union {
 216:lvgl\src\lv_draw\../lv_misc/lv_color.h ****     uint8_t full; /*must be declared first to set all bits of byte via initializer list */
 217:lvgl\src\lv_draw\../lv_misc/lv_color.h ****     union {
 218:lvgl\src\lv_draw\../lv_misc/lv_color.h ****         uint8_t blue : 1;
 219:lvgl\src\lv_draw\../lv_misc/lv_color.h ****         uint8_t green : 1;
 220:lvgl\src\lv_draw\../lv_misc/lv_color.h ****         uint8_t red : 1;
 221:lvgl\src\lv_draw\../lv_misc/lv_color.h ****     } ch;
 222:lvgl\src\lv_draw\../lv_misc/lv_color.h **** } lv_color1_t;
 223:lvgl\src\lv_draw\../lv_misc/lv_color.h **** 
 224:lvgl\src\lv_draw\../lv_misc/lv_color.h **** typedef union {
 225:lvgl\src\lv_draw\../lv_misc/lv_color.h ****     struct {
 226:lvgl\src\lv_draw\../lv_misc/lv_color.h ****         uint8_t blue : 2;
 227:lvgl\src\lv_draw\../lv_misc/lv_color.h ****         uint8_t green : 3;
 228:lvgl\src\lv_draw\../lv_misc/lv_color.h ****         uint8_t red : 3;
 229:lvgl\src\lv_draw\../lv_misc/lv_color.h ****     } ch;
 230:lvgl\src\lv_draw\../lv_misc/lv_color.h ****     uint8_t full;
 231:lvgl\src\lv_draw\../lv_misc/lv_color.h **** } lv_color8_t;
 232:lvgl\src\lv_draw\../lv_misc/lv_color.h **** 
 233:lvgl\src\lv_draw\../lv_misc/lv_color.h **** typedef union {
 234:lvgl\src\lv_draw\../lv_misc/lv_color.h ****     struct {
 235:lvgl\src\lv_draw\../lv_misc/lv_color.h **** #if LV_COLOR_16_SWAP == 0
 236:lvgl\src\lv_draw\../lv_misc/lv_color.h ****         uint16_t blue : 5;
 237:lvgl\src\lv_draw\../lv_misc/lv_color.h ****         uint16_t green : 6;
 238:lvgl\src\lv_draw\../lv_misc/lv_color.h ****         uint16_t red : 5;
 239:lvgl\src\lv_draw\../lv_misc/lv_color.h **** #else
 240:lvgl\src\lv_draw\../lv_misc/lv_color.h ****         uint16_t green_h : 3;
 241:lvgl\src\lv_draw\../lv_misc/lv_color.h ****         uint16_t red : 5;
 242:lvgl\src\lv_draw\../lv_misc/lv_color.h ****         uint16_t blue : 5;
 243:lvgl\src\lv_draw\../lv_misc/lv_color.h ****         uint16_t green_l : 3;
 244:lvgl\src\lv_draw\../lv_misc/lv_color.h **** #endif
 245:lvgl\src\lv_draw\../lv_misc/lv_color.h ****     } ch;
 246:lvgl\src\lv_draw\../lv_misc/lv_color.h ****     uint16_t full;
 247:lvgl\src\lv_draw\../lv_misc/lv_color.h **** } lv_color16_t;
 248:lvgl\src\lv_draw\../lv_misc/lv_color.h **** 
 249:lvgl\src\lv_draw\../lv_misc/lv_color.h **** typedef union {
 250:lvgl\src\lv_draw\../lv_misc/lv_color.h ****     struct {
 251:lvgl\src\lv_draw\../lv_misc/lv_color.h ****         uint8_t blue;
 252:lvgl\src\lv_draw\../lv_misc/lv_color.h ****         uint8_t green;
 253:lvgl\src\lv_draw\../lv_misc/lv_color.h ****         uint8_t red;
 254:lvgl\src\lv_draw\../lv_misc/lv_color.h ****         uint8_t alpha;
 255:lvgl\src\lv_draw\../lv_misc/lv_color.h ****     } ch;
 256:lvgl\src\lv_draw\../lv_misc/lv_color.h ****     uint32_t full;
ARM GAS  C:\Users\strap\AppData\Local\Temp\ccUgAYbc.s 			page 31


 257:lvgl\src\lv_draw\../lv_misc/lv_color.h **** } lv_color32_t;
 258:lvgl\src\lv_draw\../lv_misc/lv_color.h **** 
 259:lvgl\src\lv_draw\../lv_misc/lv_color.h **** #if LV_COLOR_DEPTH == 1
 260:lvgl\src\lv_draw\../lv_misc/lv_color.h **** typedef uint8_t lv_color_int_t;
 261:lvgl\src\lv_draw\../lv_misc/lv_color.h **** typedef lv_color1_t lv_color_t;
 262:lvgl\src\lv_draw\../lv_misc/lv_color.h **** #define _LV_COLOR_ZERO_INITIALIZER {0x00}
 263:lvgl\src\lv_draw\../lv_misc/lv_color.h **** #elif LV_COLOR_DEPTH == 8
 264:lvgl\src\lv_draw\../lv_misc/lv_color.h **** typedef uint8_t lv_color_int_t;
 265:lvgl\src\lv_draw\../lv_misc/lv_color.h **** typedef lv_color8_t lv_color_t;
 266:lvgl\src\lv_draw\../lv_misc/lv_color.h **** #define _LV_COLOR_ZERO_INITIALIZER {{0x00, 0x00, 0x00}}
 267:lvgl\src\lv_draw\../lv_misc/lv_color.h **** #elif LV_COLOR_DEPTH == 16
 268:lvgl\src\lv_draw\../lv_misc/lv_color.h **** typedef uint16_t lv_color_int_t;
 269:lvgl\src\lv_draw\../lv_misc/lv_color.h **** typedef lv_color16_t lv_color_t;
 270:lvgl\src\lv_draw\../lv_misc/lv_color.h **** #define _LV_COLOR_ZERO_INITIALIZER {{0x00, 0x00, 0x00}}
 271:lvgl\src\lv_draw\../lv_misc/lv_color.h **** #elif LV_COLOR_DEPTH == 32
 272:lvgl\src\lv_draw\../lv_misc/lv_color.h **** typedef uint32_t lv_color_int_t;
 273:lvgl\src\lv_draw\../lv_misc/lv_color.h **** typedef lv_color32_t lv_color_t;
 274:lvgl\src\lv_draw\../lv_misc/lv_color.h **** #define _LV_COLOR_ZERO_INITIALIZER {{0x00, 0x00, 0x00, 0x00}}
 275:lvgl\src\lv_draw\../lv_misc/lv_color.h **** #else
 276:lvgl\src\lv_draw\../lv_misc/lv_color.h **** #error "Invalid LV_COLOR_DEPTH in lv_conf.h! Set it to 1, 8, 16 or 32!"
 277:lvgl\src\lv_draw\../lv_misc/lv_color.h **** #endif
 278:lvgl\src\lv_draw\../lv_misc/lv_color.h **** 
 279:lvgl\src\lv_draw\../lv_misc/lv_color.h **** 
 280:lvgl\src\lv_draw\../lv_misc/lv_color.h **** typedef struct {
 281:lvgl\src\lv_draw\../lv_misc/lv_color.h ****     uint16_t h;
 282:lvgl\src\lv_draw\../lv_misc/lv_color.h ****     uint8_t s;
 283:lvgl\src\lv_draw\../lv_misc/lv_color.h ****     uint8_t v;
 284:lvgl\src\lv_draw\../lv_misc/lv_color.h **** } lv_color_hsv_t;
 285:lvgl\src\lv_draw\../lv_misc/lv_color.h **** 
 286:lvgl\src\lv_draw\../lv_misc/lv_color.h **** //! @cond Doxygen_Suppress
 287:lvgl\src\lv_draw\../lv_misc/lv_color.h **** /*No idea where the guard is required but else throws warnings in the docs*/
 288:lvgl\src\lv_draw\../lv_misc/lv_color.h **** typedef uint8_t lv_opa_t;
 289:lvgl\src\lv_draw\../lv_misc/lv_color.h **** //! @endcond
 290:lvgl\src\lv_draw\../lv_misc/lv_color.h **** 
 291:lvgl\src\lv_draw\../lv_misc/lv_color.h **** /**********************
 292:lvgl\src\lv_draw\../lv_misc/lv_color.h ****  * GLOBAL PROTOTYPES
 293:lvgl\src\lv_draw\../lv_misc/lv_color.h ****  **********************/
 294:lvgl\src\lv_draw\../lv_misc/lv_color.h **** 
 295:lvgl\src\lv_draw\../lv_misc/lv_color.h **** /*In color conversations:
 296:lvgl\src\lv_draw\../lv_misc/lv_color.h ****  * - When converting to bigger color type the LSB weight of 1 LSB is calculated
 297:lvgl\src\lv_draw\../lv_misc/lv_color.h ****  *   E.g. 16 bit Red has 5 bits
 298:lvgl\src\lv_draw\../lv_misc/lv_color.h ****  *         8 bit Red has 2 bits
 299:lvgl\src\lv_draw\../lv_misc/lv_color.h ****  *        ----------------------
 300:lvgl\src\lv_draw\../lv_misc/lv_color.h ****  *        8 bit red LSB = (2^5 - 1) / (2^2 - 1) = 31 / 3 = 10
 301:lvgl\src\lv_draw\../lv_misc/lv_color.h ****  *
 302:lvgl\src\lv_draw\../lv_misc/lv_color.h ****  * - When calculating to smaller color type simply shift out the LSBs
 303:lvgl\src\lv_draw\../lv_misc/lv_color.h ****  *   E.g.  8 bit Red has 2 bits
 304:lvgl\src\lv_draw\../lv_misc/lv_color.h ****  *        16 bit Red has 5 bits
 305:lvgl\src\lv_draw\../lv_misc/lv_color.h ****  *        ----------------------
 306:lvgl\src\lv_draw\../lv_misc/lv_color.h ****  *         Shift right with 5 - 3 = 2
 307:lvgl\src\lv_draw\../lv_misc/lv_color.h ****  */
 308:lvgl\src\lv_draw\../lv_misc/lv_color.h **** static inline uint8_t lv_color_to1(lv_color_t color)
 309:lvgl\src\lv_draw\../lv_misc/lv_color.h **** {
 310:lvgl\src\lv_draw\../lv_misc/lv_color.h **** #if LV_COLOR_DEPTH == 1
 311:lvgl\src\lv_draw\../lv_misc/lv_color.h ****     return color.full;
 312:lvgl\src\lv_draw\../lv_misc/lv_color.h **** #elif LV_COLOR_DEPTH == 8
 313:lvgl\src\lv_draw\../lv_misc/lv_color.h ****     if((LV_COLOR_GET_R(color) & 0x4) || (LV_COLOR_GET_G(color) & 0x4) || (LV_COLOR_GET_B(color) & 0
ARM GAS  C:\Users\strap\AppData\Local\Temp\ccUgAYbc.s 			page 32


 314:lvgl\src\lv_draw\../lv_misc/lv_color.h ****         return 1;
 315:lvgl\src\lv_draw\../lv_misc/lv_color.h ****     }
 316:lvgl\src\lv_draw\../lv_misc/lv_color.h ****     else {
 317:lvgl\src\lv_draw\../lv_misc/lv_color.h ****         return 0;
 318:lvgl\src\lv_draw\../lv_misc/lv_color.h ****     }
 319:lvgl\src\lv_draw\../lv_misc/lv_color.h **** #elif LV_COLOR_DEPTH == 16
 320:lvgl\src\lv_draw\../lv_misc/lv_color.h ****     if((LV_COLOR_GET_R(color) & 0x10) || (LV_COLOR_GET_G(color) & 0x20) || (LV_COLOR_GET_B(color) &
 321:lvgl\src\lv_draw\../lv_misc/lv_color.h ****         return 1;
 322:lvgl\src\lv_draw\../lv_misc/lv_color.h ****     }
 323:lvgl\src\lv_draw\../lv_misc/lv_color.h ****     else {
 324:lvgl\src\lv_draw\../lv_misc/lv_color.h ****         return 0;
 325:lvgl\src\lv_draw\../lv_misc/lv_color.h ****     }
 326:lvgl\src\lv_draw\../lv_misc/lv_color.h **** #elif LV_COLOR_DEPTH == 32
 327:lvgl\src\lv_draw\../lv_misc/lv_color.h ****     if((LV_COLOR_GET_R(color) & 0x80) || (LV_COLOR_GET_G(color) & 0x80) || (LV_COLOR_GET_B(color) &
 328:lvgl\src\lv_draw\../lv_misc/lv_color.h ****         return 1;
 329:lvgl\src\lv_draw\../lv_misc/lv_color.h ****     }
 330:lvgl\src\lv_draw\../lv_misc/lv_color.h ****     else {
 331:lvgl\src\lv_draw\../lv_misc/lv_color.h ****         return 0;
 332:lvgl\src\lv_draw\../lv_misc/lv_color.h ****     }
 333:lvgl\src\lv_draw\../lv_misc/lv_color.h **** #endif
 334:lvgl\src\lv_draw\../lv_misc/lv_color.h **** }
 335:lvgl\src\lv_draw\../lv_misc/lv_color.h **** 
 336:lvgl\src\lv_draw\../lv_misc/lv_color.h **** static inline uint8_t lv_color_to8(lv_color_t color)
 337:lvgl\src\lv_draw\../lv_misc/lv_color.h **** {
 338:lvgl\src\lv_draw\../lv_misc/lv_color.h **** #if LV_COLOR_DEPTH == 1
 339:lvgl\src\lv_draw\../lv_misc/lv_color.h ****     if(color.full == 0)
 340:lvgl\src\lv_draw\../lv_misc/lv_color.h ****         return 0;
 341:lvgl\src\lv_draw\../lv_misc/lv_color.h ****     else
 342:lvgl\src\lv_draw\../lv_misc/lv_color.h ****         return 0xFF;
 343:lvgl\src\lv_draw\../lv_misc/lv_color.h **** #elif LV_COLOR_DEPTH == 8
 344:lvgl\src\lv_draw\../lv_misc/lv_color.h ****     return color.full;
 345:lvgl\src\lv_draw\../lv_misc/lv_color.h **** #elif LV_COLOR_DEPTH == 16
 346:lvgl\src\lv_draw\../lv_misc/lv_color.h ****     lv_color8_t ret;
 347:lvgl\src\lv_draw\../lv_misc/lv_color.h ****     LV_COLOR_SET_R8(ret, LV_COLOR_GET_R(color) >> 2);   /* 5 - 3  = 2*/
 348:lvgl\src\lv_draw\../lv_misc/lv_color.h ****     LV_COLOR_SET_G8(ret, LV_COLOR_GET_G(color) >> 3); /* 6 - 3  = 3*/
 349:lvgl\src\lv_draw\../lv_misc/lv_color.h ****     LV_COLOR_SET_B8(ret, LV_COLOR_GET_B(color) >> 3);  /* 5 - 2  = 3*/
 350:lvgl\src\lv_draw\../lv_misc/lv_color.h ****     return ret.full;
 351:lvgl\src\lv_draw\../lv_misc/lv_color.h **** #elif LV_COLOR_DEPTH == 32
 352:lvgl\src\lv_draw\../lv_misc/lv_color.h ****     lv_color8_t ret;
 353:lvgl\src\lv_draw\../lv_misc/lv_color.h ****     LV_COLOR_SET_R8(ret, LV_COLOR_GET_R(color) >> 5);   /* 8 - 3  = 5*/
 354:lvgl\src\lv_draw\../lv_misc/lv_color.h ****     LV_COLOR_SET_G8(ret, LV_COLOR_GET_G(color) >> 5); /* 8 - 3  = 5*/
 355:lvgl\src\lv_draw\../lv_misc/lv_color.h ****     LV_COLOR_SET_B8(ret, LV_COLOR_GET_B(color) >> 6);  /* 8 - 2  = 6*/
 356:lvgl\src\lv_draw\../lv_misc/lv_color.h ****     return ret.full;
 357:lvgl\src\lv_draw\../lv_misc/lv_color.h **** #endif
 358:lvgl\src\lv_draw\../lv_misc/lv_color.h **** }
 359:lvgl\src\lv_draw\../lv_misc/lv_color.h **** 
 360:lvgl\src\lv_draw\../lv_misc/lv_color.h **** static inline uint16_t lv_color_to16(lv_color_t color)
 361:lvgl\src\lv_draw\../lv_misc/lv_color.h **** {
 362:lvgl\src\lv_draw\../lv_misc/lv_color.h **** #if LV_COLOR_DEPTH == 1
 363:lvgl\src\lv_draw\../lv_misc/lv_color.h ****     if(color.full == 0)
 364:lvgl\src\lv_draw\../lv_misc/lv_color.h ****         return 0;
 365:lvgl\src\lv_draw\../lv_misc/lv_color.h ****     else
 366:lvgl\src\lv_draw\../lv_misc/lv_color.h ****         return 0xFFFF;
 367:lvgl\src\lv_draw\../lv_misc/lv_color.h **** #elif LV_COLOR_DEPTH == 8
 368:lvgl\src\lv_draw\../lv_misc/lv_color.h ****     lv_color16_t ret;
 369:lvgl\src\lv_draw\../lv_misc/lv_color.h ****     LV_COLOR_SET_R16(ret, LV_COLOR_GET_R(color) * 4);     /*(2^5 - 1)/(2^3 - 1) = 31/7 = 4*/
 370:lvgl\src\lv_draw\../lv_misc/lv_color.h **** #if LV_COLOR_16_SWAP == 0
ARM GAS  C:\Users\strap\AppData\Local\Temp\ccUgAYbc.s 			page 33


 371:lvgl\src\lv_draw\../lv_misc/lv_color.h ****     LV_COLOR_SET_G16(ret,  LV_COLOR_GET_G(color) * 9); /*(2^6 - 1)/(2^3 - 1) = 63/7 = 9*/
 372:lvgl\src\lv_draw\../lv_misc/lv_color.h **** #else
 373:lvgl\src\lv_draw\../lv_misc/lv_color.h ****     LV_COLOR_SET_G16_SWAP(ret, (LV_COLOR_GET_G(color) * 9)); /*(2^6 - 1)/(2^3 - 1) = 63/7 = 9*/
 374:lvgl\src\lv_draw\../lv_misc/lv_color.h **** #endif
 375:lvgl\src\lv_draw\../lv_misc/lv_color.h ****     LV_COLOR_SET_B16(ret, LV_COLOR_GET_B(color) * 10);  /*(2^5 - 1)/(2^2 - 1) = 31/3 = 10*/
 376:lvgl\src\lv_draw\../lv_misc/lv_color.h ****     return ret.full;
 377:lvgl\src\lv_draw\../lv_misc/lv_color.h **** #elif LV_COLOR_DEPTH == 16
 378:lvgl\src\lv_draw\../lv_misc/lv_color.h ****     return color.full;
 379:lvgl\src\lv_draw\../lv_misc/lv_color.h **** #elif LV_COLOR_DEPTH == 32
 380:lvgl\src\lv_draw\../lv_misc/lv_color.h ****     lv_color16_t ret;
 381:lvgl\src\lv_draw\../lv_misc/lv_color.h ****     LV_COLOR_SET_R16(ret, LV_COLOR_GET_R(color) >> 3);   /* 8 - 5  = 3*/
 382:lvgl\src\lv_draw\../lv_misc/lv_color.h **** 
 383:lvgl\src\lv_draw\../lv_misc/lv_color.h **** #if LV_COLOR_16_SWAP == 0
 384:lvgl\src\lv_draw\../lv_misc/lv_color.h ****     LV_COLOR_SET_G16(ret, LV_COLOR_GET_G(color) >> 2); /* 8 - 6  = 2*/
 385:lvgl\src\lv_draw\../lv_misc/lv_color.h **** #else
 386:lvgl\src\lv_draw\../lv_misc/lv_color.h ****     LV_COLOR_SET_G16_SWAP(ret, ret.ch.green_h = (LV_COLOR_GET_G(color) >> 2); /*(2^6 - 1)/(2^3 - 1)
 387:lvgl\src\lv_draw\../lv_misc/lv_color.h **** #endif
 388:lvgl\src\lv_draw\../lv_misc/lv_color.h ****     LV_COLOR_SET_B16(ret, LV_COLOR_GET_B(color) >> 3);  /* 8 - 5  = 3*/
 389:lvgl\src\lv_draw\../lv_misc/lv_color.h ****     return ret.full;
 390:lvgl\src\lv_draw\../lv_misc/lv_color.h **** #endif
 391:lvgl\src\lv_draw\../lv_misc/lv_color.h **** }
 392:lvgl\src\lv_draw\../lv_misc/lv_color.h **** 
 393:lvgl\src\lv_draw\../lv_misc/lv_color.h **** static inline uint32_t lv_color_to32(lv_color_t color)
 394:lvgl\src\lv_draw\../lv_misc/lv_color.h **** {
 395:lvgl\src\lv_draw\../lv_misc/lv_color.h **** #if LV_COLOR_DEPTH == 1
 396:lvgl\src\lv_draw\../lv_misc/lv_color.h ****     if(color.full == 0)
 397:lvgl\src\lv_draw\../lv_misc/lv_color.h ****         return 0xFF000000;
 398:lvgl\src\lv_draw\../lv_misc/lv_color.h ****     else
 399:lvgl\src\lv_draw\../lv_misc/lv_color.h ****         return 0xFFFFFFFF;
 400:lvgl\src\lv_draw\../lv_misc/lv_color.h **** #elif LV_COLOR_DEPTH == 8
 401:lvgl\src\lv_draw\../lv_misc/lv_color.h ****     lv_color32_t ret;
 402:lvgl\src\lv_draw\../lv_misc/lv_color.h ****     LV_COLOR_SET_R32(ret, LV_COLOR_GET_R(color) * 36);     /*(2^8 - 1)/(2^3 - 1) = 255/7 = 36*/
 403:lvgl\src\lv_draw\../lv_misc/lv_color.h ****     LV_COLOR_SET_G32(ret, LV_COLOR_GET_G(color) * 36); /*(2^8 - 1)/(2^3 - 1) = 255/7 = 36*/
 404:lvgl\src\lv_draw\../lv_misc/lv_color.h ****     LV_COLOR_SET_B32(ret, LV_COLOR_GET_B(color) * 85);   /*(2^8 - 1)/(2^2 - 1) = 255/3 = 85*/
 405:lvgl\src\lv_draw\../lv_misc/lv_color.h ****     LV_COLOR_SET_A32(ret, 0xFF);
 406:lvgl\src\lv_draw\../lv_misc/lv_color.h ****     return ret.full;
 407:lvgl\src\lv_draw\../lv_misc/lv_color.h **** #elif LV_COLOR_DEPTH == 16
 408:lvgl\src\lv_draw\../lv_misc/lv_color.h ****     /**
 409:lvgl\src\lv_draw\../lv_misc/lv_color.h ****      * The floating point math for conversion is:
 410:lvgl\src\lv_draw\../lv_misc/lv_color.h ****      *  valueto = valuefrom * ( (2^bitsto - 1) / (float)(2^bitsfrom - 1) )
 411:lvgl\src\lv_draw\../lv_misc/lv_color.h ****      * The faster integer math for conversion is:
 412:lvgl\src\lv_draw\../lv_misc/lv_color.h ****      *  valueto = ( valuefrom * multiplier + adder ) >> divisor
 413:lvgl\src\lv_draw\../lv_misc/lv_color.h ****      *   multiplier = FLOOR( ( (2^bitsto - 1) << divisor ) / (float)(2^bitsfrom - 1) )
 414:lvgl\src\lv_draw\../lv_misc/lv_color.h ****      *
 415:lvgl\src\lv_draw\../lv_misc/lv_color.h ****      * Find the first divisor where ( adder >> divisor ) <= 0
 416:lvgl\src\lv_draw\../lv_misc/lv_color.h ****      *
 417:lvgl\src\lv_draw\../lv_misc/lv_color.h ****      * 5-bit to 8-bit: ( 31 * multiplier + adder ) >> divisor = 255
 418:lvgl\src\lv_draw\../lv_misc/lv_color.h ****      * divisor  multiplier  adder  min (0)  max (31)
 419:lvgl\src\lv_draw\../lv_misc/lv_color.h ****      *       0           8      7        7       255
 420:lvgl\src\lv_draw\../lv_misc/lv_color.h ****      *       1          16     14        7       255
 421:lvgl\src\lv_draw\../lv_misc/lv_color.h ****      *       2          32     28        7       255
 422:lvgl\src\lv_draw\../lv_misc/lv_color.h ****      *       3          65     25        3       255
 423:lvgl\src\lv_draw\../lv_misc/lv_color.h ****      *       4         131     19        1       255
 424:lvgl\src\lv_draw\../lv_misc/lv_color.h ****      *       5         263      7        0       255
 425:lvgl\src\lv_draw\../lv_misc/lv_color.h ****      *
 426:lvgl\src\lv_draw\../lv_misc/lv_color.h ****      * 6-bit to 8-bit: 255 = ( 63 * multiplier + adder ) >> divisor
 427:lvgl\src\lv_draw\../lv_misc/lv_color.h ****      * divisor  multiplier  adder  min (0)  max (63)
ARM GAS  C:\Users\strap\AppData\Local\Temp\ccUgAYbc.s 			page 34


 428:lvgl\src\lv_draw\../lv_misc/lv_color.h ****      *       0           4      3        3       255
 429:lvgl\src\lv_draw\../lv_misc/lv_color.h ****      *       1           8      6        3       255
 430:lvgl\src\lv_draw\../lv_misc/lv_color.h ****      *       2          16     12        3       255
 431:lvgl\src\lv_draw\../lv_misc/lv_color.h ****      *       3          32     24        3       255
 432:lvgl\src\lv_draw\../lv_misc/lv_color.h ****      *       4          64     48        3       255
 433:lvgl\src\lv_draw\../lv_misc/lv_color.h ****      *       5         129     33        1       255
 434:lvgl\src\lv_draw\../lv_misc/lv_color.h ****      *       6         259      3        0       255
 435:lvgl\src\lv_draw\../lv_misc/lv_color.h ****      */
 436:lvgl\src\lv_draw\../lv_misc/lv_color.h **** 
 437:lvgl\src\lv_draw\../lv_misc/lv_color.h ****     lv_color32_t ret;
 438:lvgl\src\lv_draw\../lv_misc/lv_color.h ****     LV_COLOR_SET_R32(ret, (LV_COLOR_GET_R(color) * 263 + 7) >> 5);
 439:lvgl\src\lv_draw\../lv_misc/lv_color.h ****     LV_COLOR_SET_G32(ret, (LV_COLOR_GET_G(color) * 259 + 3) >> 6);
 440:lvgl\src\lv_draw\../lv_misc/lv_color.h ****     LV_COLOR_SET_B32(ret, (LV_COLOR_GET_B(color) * 263 + 7) >> 5);
 441:lvgl\src\lv_draw\../lv_misc/lv_color.h ****     LV_COLOR_SET_A32(ret, 0xFF);
 442:lvgl\src\lv_draw\../lv_misc/lv_color.h ****     return ret.full;
 443:lvgl\src\lv_draw\../lv_misc/lv_color.h **** #elif LV_COLOR_DEPTH == 32
 444:lvgl\src\lv_draw\../lv_misc/lv_color.h ****     return color.full;
 445:lvgl\src\lv_draw\../lv_misc/lv_color.h **** #endif
 446:lvgl\src\lv_draw\../lv_misc/lv_color.h **** }
 447:lvgl\src\lv_draw\../lv_misc/lv_color.h **** 
 448:lvgl\src\lv_draw\../lv_misc/lv_color.h **** 
 449:lvgl\src\lv_draw\../lv_misc/lv_color.h **** //! @cond Doxygen_Suppress
 450:lvgl\src\lv_draw\../lv_misc/lv_color.h **** 
 451:lvgl\src\lv_draw\../lv_misc/lv_color.h **** /**
 452:lvgl\src\lv_draw\../lv_misc/lv_color.h ****  * Mix two colors with a given ratio.
 453:lvgl\src\lv_draw\../lv_misc/lv_color.h ****  * @param c1 the first color to mix (usually the foreground)
 454:lvgl\src\lv_draw\../lv_misc/lv_color.h ****  * @param c2 the second color to mix (usually the background)
 455:lvgl\src\lv_draw\../lv_misc/lv_color.h ****  * @param mix The ratio of the colors. 0: full `c2`, 255: full `c1`, 127: half `c1` and half`c2`
 456:lvgl\src\lv_draw\../lv_misc/lv_color.h ****  * @return the mixed color
 457:lvgl\src\lv_draw\../lv_misc/lv_color.h ****  */
 458:lvgl\src\lv_draw\../lv_misc/lv_color.h **** LV_ATTRIBUTE_FAST_MEM static inline lv_color_t lv_color_mix(lv_color_t c1, lv_color_t c2, uint8_t m
 459:lvgl\src\lv_draw\../lv_misc/lv_color.h **** {
 460:lvgl\src\lv_draw\../lv_misc/lv_color.h ****     lv_color_t ret;
 461:lvgl\src\lv_draw\../lv_misc/lv_color.h **** #if LV_COLOR_DEPTH != 1
 462:lvgl\src\lv_draw\../lv_misc/lv_color.h ****     /*LV_COLOR_DEPTH == 8, 16 or 32*/
 463:lvgl\src\lv_draw\../lv_misc/lv_color.h ****     LV_COLOR_SET_R(ret, LV_MATH_UDIV255((uint16_t) LV_COLOR_GET_R(c1) * mix + LV_COLOR_GET_R(c2) *
 464:lvgl\src\lv_draw\../lv_misc/lv_color.h ****                                         (255 - mix) + LV_COLOR_MIX_ROUND_OFS));
 465:lvgl\src\lv_draw\../lv_misc/lv_color.h ****     LV_COLOR_SET_G(ret, LV_MATH_UDIV255((uint16_t) LV_COLOR_GET_G(c1) * mix + LV_COLOR_GET_G(c2) *
 466:lvgl\src\lv_draw\../lv_misc/lv_color.h ****                                         (255 - mix) + LV_COLOR_MIX_ROUND_OFS));
 467:lvgl\src\lv_draw\../lv_misc/lv_color.h ****     LV_COLOR_SET_B(ret, LV_MATH_UDIV255((uint16_t) LV_COLOR_GET_B(c1) * mix + LV_COLOR_GET_B(c2) *
 468:lvgl\src\lv_draw\../lv_misc/lv_color.h ****                                         (255 - mix) + LV_COLOR_MIX_ROUND_OFS));
 469:lvgl\src\lv_draw\../lv_misc/lv_color.h ****     LV_COLOR_SET_A(ret, 0xFF);
 470:lvgl\src\lv_draw\../lv_misc/lv_color.h **** #else
 471:lvgl\src\lv_draw\../lv_misc/lv_color.h ****     /*LV_COLOR_DEPTH == 1*/
 472:lvgl\src\lv_draw\../lv_misc/lv_color.h ****     ret.full = mix > LV_OPA_50 ? c1.full : c2.full;
 473:lvgl\src\lv_draw\../lv_misc/lv_color.h **** #endif
 474:lvgl\src\lv_draw\../lv_misc/lv_color.h **** 
 475:lvgl\src\lv_draw\../lv_misc/lv_color.h ****     return ret;
 476:lvgl\src\lv_draw\../lv_misc/lv_color.h **** }
 477:lvgl\src\lv_draw\../lv_misc/lv_color.h **** 
 478:lvgl\src\lv_draw\../lv_misc/lv_color.h **** LV_ATTRIBUTE_FAST_MEM static inline void lv_color_premult(lv_color_t c, uint8_t mix, uint16_t * out
 479:lvgl\src\lv_draw\../lv_misc/lv_color.h **** {
 480:lvgl\src\lv_draw\../lv_misc/lv_color.h **** #if LV_COLOR_DEPTH != 1
 481:lvgl\src\lv_draw\../lv_misc/lv_color.h ****     out[0] = (uint16_t) LV_COLOR_GET_R(c) * mix;
 598              		.loc 4 481 0
 599 0322 C3F3C401 		ubfx	r1, r3, #3, #5
 600 0326 92B2     		uxth	r2, r2
ARM GAS  C:\Users\strap\AppData\Local\Temp\ccUgAYbc.s 			page 35


 601              	.LVL89:
 602 0328 01FB02F1 		mul	r1, r1, r2
 603 032c ADF88410 		strh	r1, [sp, #132]	@ movhi
 482:lvgl\src\lv_draw\../lv_misc/lv_color.h ****     out[1] = (uint16_t) LV_COLOR_GET_G(c) * mix;
 604              		.loc 4 482 0
 605 0330 03F00700 		and	r0, r3, #7
 606 0334 C3F34231 		ubfx	r1, r3, #13, #3
 607 0338 01EBC001 		add	r1, r1, r0, lsl #3
 608 033c 01FB02F1 		mul	r1, r1, r2
 609 0340 ADF88610 		strh	r1, [sp, #134]	@ movhi
 483:lvgl\src\lv_draw\../lv_misc/lv_color.h ****     out[2] = (uint16_t) LV_COLOR_GET_B(c) * mix;
 610              		.loc 4 483 0
 611 0344 C3F30423 		ubfx	r3, r3, #8, #5
 612              	.LVL90:
 613 0348 03FB02F3 		mul	r3, r3, r2
 614 034c ADF88830 		strh	r3, [sp, #136]	@ movhi
 615              	.LVL91:
 616              	.L21:
 617              	.LBE121:
 618              	.LBE120:
 503:lvgl\src\lv_draw/lv_draw_img.c ****                 lv_color_premult(draw_dsc->recolor, draw_dsc->recolor_opa, recolor_premult);
 504:lvgl\src\lv_draw/lv_draw_img.c ****             }
 505:lvgl\src\lv_draw/lv_draw_img.c **** 
 506:lvgl\src\lv_draw/lv_draw_img.c ****             lv_draw_mask_res_t mask_res;
 507:lvgl\src\lv_draw/lv_draw_img.c ****             mask_res = (alpha_byte || chroma_key || draw_dsc->angle ||
 619              		.loc 1 507 0
 620 0350 089B     		ldr	r3, [sp, #32]
 621 0352 5BB9     		cbnz	r3, .L60
 622              		.loc 1 507 0 is_stmt 0 discriminator 2
 623 0354 0D9B     		ldr	r3, [sp, #52]
 624 0356 63B9     		cbnz	r3, .L61
 625              		.loc 1 507 0 discriminator 4
 626 0358 099A     		ldr	r2, [sp, #36]
 627 035a 5388     		ldrh	r3, [r2, #2]
 628 035c 63B9     		cbnz	r3, .L62
 508:lvgl\src\lv_draw/lv_draw_img.c ****                         draw_dsc->zoom != LV_IMG_ZOOM_NONE) ? LV_DRAW_MASK_RES_CHANGED : LV_DRAW_MA
 629              		.loc 1 508 0 is_stmt 1 discriminator 6
 630 035e 1389     		ldrh	r3, [r2, #8]
 507:lvgl\src\lv_draw/lv_draw_img.c ****                         draw_dsc->zoom != LV_IMG_ZOOM_NONE) ? LV_DRAW_MASK_RES_CHANGED : LV_DRAW_MA
 631              		.loc 1 507 0 discriminator 6
 632 0360 B3F5807F 		cmp	r3, #256
 633 0364 0BD0     		beq	.L63
 507:lvgl\src\lv_draw/lv_draw_img.c ****                         draw_dsc->zoom != LV_IMG_ZOOM_NONE) ? LV_DRAW_MASK_RES_CHANGED : LV_DRAW_MA
 634              		.loc 1 507 0 is_stmt 0
 635 0366 0223     		movs	r3, #2
 636 0368 1B93     		str	r3, [sp, #108]
 637 036a 0AE0     		b	.L22
 638              	.L60:
 639 036c 0223     		movs	r3, #2
 640 036e 1B93     		str	r3, [sp, #108]
 641 0370 07E0     		b	.L22
 642              	.L61:
 643 0372 0223     		movs	r3, #2
 644 0374 1B93     		str	r3, [sp, #108]
 645 0376 04E0     		b	.L22
 646              	.L62:
 647 0378 0223     		movs	r3, #2
ARM GAS  C:\Users\strap\AppData\Local\Temp\ccUgAYbc.s 			page 36


 648 037a 1B93     		str	r3, [sp, #108]
 649 037c 01E0     		b	.L22
 650              	.L63:
 651 037e 0123     		movs	r3, #1
 652 0380 1B93     		str	r3, [sp, #108]
 653              	.L22:
 654              	.LVL92:
 509:lvgl\src\lv_draw/lv_draw_img.c **** 
 510:lvgl\src\lv_draw/lv_draw_img.c **** 
 511:lvgl\src\lv_draw/lv_draw_img.c ****             /*Prepare the `mask_buf`if there are other masks*/
 512:lvgl\src\lv_draw/lv_draw_img.c ****             if(other_mask_cnt) {
 655              		.loc 1 512 0 is_stmt 1 discriminator 10
 656 0382 149B     		ldr	r3, [sp, #80]
 657 0384 1BB1     		cbz	r3, .L23
 513:lvgl\src\lv_draw/lv_draw_img.c ****                 _lv_memset_ff(mask_buf, mask_buf_size);
 658              		.loc 1 513 0
 659 0386 1699     		ldr	r1, [sp, #88]
 660 0388 5846     		mov	r0, fp
 661 038a FFF7FEFF 		bl	_lv_memset_ff
 662              	.LVL93:
 663              	.L23:
 514:lvgl\src\lv_draw/lv_draw_img.c ****             }
 515:lvgl\src\lv_draw/lv_draw_img.c **** 
 516:lvgl\src\lv_draw/lv_draw_img.c ****             int32_t x;
 517:lvgl\src\lv_draw/lv_draw_img.c ****             int32_t y;
 518:lvgl\src\lv_draw/lv_draw_img.c **** #if LV_USE_IMG_TRANSFORM
 519:lvgl\src\lv_draw/lv_draw_img.c ****             int32_t rot_y = disp_area->y1 + draw_area.y1 - map_area->y1;
 664              		.loc 1 519 0
 665 038e 139B     		ldr	r3, [sp, #76]
 666 0390 B3F91220 		ldrsh	r2, [r3, #18]
 667 0394 BDF9E230 		ldrsh	r3, [sp, #226]
 668 0398 1344     		add	r3, r3, r2
 669 039a 159A     		ldr	r2, [sp, #84]
 670 039c B2F90220 		ldrsh	r2, [r2, #2]
 671 03a0 9B1A     		subs	r3, r3, r2
 672 03a2 1193     		str	r3, [sp, #68]
 673              	.LVL94:
 520:lvgl\src\lv_draw/lv_draw_img.c **** #endif
 521:lvgl\src\lv_draw/lv_draw_img.c ****             for(y = 0; y < draw_area_h; y++) {
 674              		.loc 1 521 0
 675 03a4 0023     		movs	r3, #0
 676              	.LVL95:
 677 03a6 0B93     		str	r3, [sp, #44]
 678              	.LBE116:
 391:lvgl\src\lv_draw/lv_draw_img.c **** 
 679              		.loc 1 391 0
 680 03a8 1293     		str	r3, [sp, #72]
 681 03aa CDF814A0 		str	r10, [sp, #20]
 682 03ae DA46     		mov	r10, fp
 683              	.LBB145:
 684              		.loc 1 521 0
 685 03b0 D7E1     		b	.L24
 686              	.LVL96:
 687              	.L52:
 688              	.LBB122:
 522:lvgl\src\lv_draw/lv_draw_img.c ****                 map_px = map_buf_tmp;
 523:lvgl\src\lv_draw/lv_draw_img.c ****                 uint32_t px_i_start = px_i;
ARM GAS  C:\Users\strap\AppData\Local\Temp\ccUgAYbc.s 			page 37


 524:lvgl\src\lv_draw/lv_draw_img.c **** 
 525:lvgl\src\lv_draw/lv_draw_img.c **** #if LV_USE_IMG_TRANSFORM
 526:lvgl\src\lv_draw/lv_draw_img.c ****                 int32_t rot_x = disp_area->x1 + draw_area.x1 - map_area->x1;
 689              		.loc 1 526 0
 690 03b2 139B     		ldr	r3, [sp, #76]
 691              	.LVL97:
 692 03b4 B3F91020 		ldrsh	r2, [r3, #16]
 693 03b8 BDF9E030 		ldrsh	r3, [sp, #224]
 694 03bc 1344     		add	r3, r3, r2
 695 03be 159A     		ldr	r2, [sp, #84]
 696 03c0 B2F90020 		ldrsh	r2, [r2]
 697 03c4 9B1A     		subs	r3, r3, r2
 698 03c6 0E93     		str	r3, [sp, #56]
 699              	.LVL98:
 522:lvgl\src\lv_draw/lv_draw_img.c ****                 map_px = map_buf_tmp;
 700              		.loc 1 522 0
 701 03c8 DDF84080 		ldr	r8, [sp, #64]
 527:lvgl\src\lv_draw/lv_draw_img.c **** #endif
 528:lvgl\src\lv_draw/lv_draw_img.c ****                 for(x = 0; x < draw_area_w; x++, map_px += px_size_byte, px_i++) {
 702              		.loc 1 528 0
 703 03cc DDF848B0 		ldr	fp, [sp, #72]
 704 03d0 0026     		movs	r6, #0
 705 03d2 41E1     		b	.L25
 706              	.LVL99:
 707              	.L46:
 529:lvgl\src\lv_draw/lv_draw_img.c **** 
 530:lvgl\src\lv_draw/lv_draw_img.c **** 
 531:lvgl\src\lv_draw/lv_draw_img.c **** #if LV_USE_IMG_TRANSFORM
 532:lvgl\src\lv_draw/lv_draw_img.c ****                     if(transform) {
 708              		.loc 1 532 0
 709 03d4 079B     		ldr	r3, [sp, #28]
 710 03d6 002B     		cmp	r3, #0
 711 03d8 00F0E280 		beq	.L26
 712              	.LBB123:
 533:lvgl\src\lv_draw/lv_draw_img.c **** 
 534:lvgl\src\lv_draw/lv_draw_img.c ****                         /*Transform*/
 535:lvgl\src\lv_draw/lv_draw_img.c ****                         bool ret;
 536:lvgl\src\lv_draw/lv_draw_img.c ****                         ret = _lv_img_buf_transform(&trans_dsc, rot_x + x, rot_y + y);
 713              		.loc 1 536 0
 714 03dc 0E9B     		ldr	r3, [sp, #56]
 715 03de 3344     		add	r3, r3, r6
 716 03e0 1BB2     		sxth	r3, r3
 717 03e2 119A     		ldr	r2, [sp, #68]
 718 03e4 0B99     		ldr	r1, [sp, #44]
 719 03e6 0A44     		add	r2, r2, r1
 720 03e8 12B2     		sxth	r2, r2
 721              	.LVL100:
 722              	.LBB124:
 723              	.LBB125:
 724              		.file 5 "lvgl\\src\\lv_draw\\lv_img_buf.h"
   1:lvgl\src\lv_draw/lv_img_buf.h **** /**
   2:lvgl\src\lv_draw/lv_img_buf.h ****  * @file lv_img_buf.h
   3:lvgl\src\lv_draw/lv_img_buf.h ****  *
   4:lvgl\src\lv_draw/lv_img_buf.h ****  */
   5:lvgl\src\lv_draw/lv_img_buf.h **** 
   6:lvgl\src\lv_draw/lv_img_buf.h **** #ifndef LV_IMG_BUF_H
   7:lvgl\src\lv_draw/lv_img_buf.h **** #define LV_IMG_BUF_H
ARM GAS  C:\Users\strap\AppData\Local\Temp\ccUgAYbc.s 			page 38


   8:lvgl\src\lv_draw/lv_img_buf.h **** 
   9:lvgl\src\lv_draw/lv_img_buf.h **** #ifdef __cplusplus
  10:lvgl\src\lv_draw/lv_img_buf.h **** extern "C" {
  11:lvgl\src\lv_draw/lv_img_buf.h **** #endif
  12:lvgl\src\lv_draw/lv_img_buf.h **** 
  13:lvgl\src\lv_draw/lv_img_buf.h **** /*********************
  14:lvgl\src\lv_draw/lv_img_buf.h ****  *      INCLUDES
  15:lvgl\src\lv_draw/lv_img_buf.h ****  *********************/
  16:lvgl\src\lv_draw/lv_img_buf.h **** #include <stdbool.h>
  17:lvgl\src\lv_draw/lv_img_buf.h **** #include "../lv_misc/lv_color.h"
  18:lvgl\src\lv_draw/lv_img_buf.h **** #include "../lv_misc/lv_area.h"
  19:lvgl\src\lv_draw/lv_img_buf.h **** 
  20:lvgl\src\lv_draw/lv_img_buf.h **** 
  21:lvgl\src\lv_draw/lv_img_buf.h **** /*********************
  22:lvgl\src\lv_draw/lv_img_buf.h ****  *      DEFINES
  23:lvgl\src\lv_draw/lv_img_buf.h ****  *********************/
  24:lvgl\src\lv_draw/lv_img_buf.h **** /*If image pixels contains alpha we need to know how much byte is a pixel*/
  25:lvgl\src\lv_draw/lv_img_buf.h **** #if LV_COLOR_DEPTH == 1 || LV_COLOR_DEPTH == 8
  26:lvgl\src\lv_draw/lv_img_buf.h **** #define LV_IMG_PX_SIZE_ALPHA_BYTE 2
  27:lvgl\src\lv_draw/lv_img_buf.h **** #elif LV_COLOR_DEPTH == 16
  28:lvgl\src\lv_draw/lv_img_buf.h **** #define LV_IMG_PX_SIZE_ALPHA_BYTE 3
  29:lvgl\src\lv_draw/lv_img_buf.h **** #elif LV_COLOR_DEPTH == 32
  30:lvgl\src\lv_draw/lv_img_buf.h **** #define LV_IMG_PX_SIZE_ALPHA_BYTE 4
  31:lvgl\src\lv_draw/lv_img_buf.h **** #endif
  32:lvgl\src\lv_draw/lv_img_buf.h **** 
  33:lvgl\src\lv_draw/lv_img_buf.h **** #define LV_IMG_BUF_SIZE_TRUE_COLOR(w, h) ((LV_COLOR_SIZE / 8) * w * h)
  34:lvgl\src\lv_draw/lv_img_buf.h **** #define LV_IMG_BUF_SIZE_TRUE_COLOR_CHROMA_KEYED(w, h) ((LV_COLOR_SIZE / 8) * w * h)
  35:lvgl\src\lv_draw/lv_img_buf.h **** #define LV_IMG_BUF_SIZE_TRUE_COLOR_ALPHA(w, h) (LV_IMG_PX_SIZE_ALPHA_BYTE * w * h)
  36:lvgl\src\lv_draw/lv_img_buf.h **** 
  37:lvgl\src\lv_draw/lv_img_buf.h **** /*+ 1: to be sure no fractional row*/
  38:lvgl\src\lv_draw/lv_img_buf.h **** #define LV_IMG_BUF_SIZE_ALPHA_1BIT(w, h) ((((w / 8) + 1) * h))
  39:lvgl\src\lv_draw/lv_img_buf.h **** #define LV_IMG_BUF_SIZE_ALPHA_2BIT(w, h) ((((w / 4) + 1) * h))
  40:lvgl\src\lv_draw/lv_img_buf.h **** #define LV_IMG_BUF_SIZE_ALPHA_4BIT(w, h) ((((w / 2) + 1) * h))
  41:lvgl\src\lv_draw/lv_img_buf.h **** #define LV_IMG_BUF_SIZE_ALPHA_8BIT(w, h) ((w * h))
  42:lvgl\src\lv_draw/lv_img_buf.h **** 
  43:lvgl\src\lv_draw/lv_img_buf.h **** /*4 * X: for palette*/
  44:lvgl\src\lv_draw/lv_img_buf.h **** #define LV_IMG_BUF_SIZE_INDEXED_1BIT(w, h) (LV_IMG_BUF_SIZE_ALPHA_1BIT(w, h) + 4 * 2)
  45:lvgl\src\lv_draw/lv_img_buf.h **** #define LV_IMG_BUF_SIZE_INDEXED_2BIT(w, h) (LV_IMG_BUF_SIZE_ALPHA_2BIT(w, h) + 4 * 4)
  46:lvgl\src\lv_draw/lv_img_buf.h **** #define LV_IMG_BUF_SIZE_INDEXED_4BIT(w, h) (LV_IMG_BUF_SIZE_ALPHA_4BIT(w, h) + 4 * 16)
  47:lvgl\src\lv_draw/lv_img_buf.h **** #define LV_IMG_BUF_SIZE_INDEXED_8BIT(w, h) (LV_IMG_BUF_SIZE_ALPHA_8BIT(w, h) + 4 * 256)
  48:lvgl\src\lv_draw/lv_img_buf.h **** 
  49:lvgl\src\lv_draw/lv_img_buf.h **** #define LV_IMG_ZOOM_NONE   256
  50:lvgl\src\lv_draw/lv_img_buf.h **** 
  51:lvgl\src\lv_draw/lv_img_buf.h **** #define _LV_TRANSFORM_TRIGO_SHIFT 10
  52:lvgl\src\lv_draw/lv_img_buf.h **** #define _LV_ZOOM_INV_UPSCALE 5
  53:lvgl\src\lv_draw/lv_img_buf.h **** 
  54:lvgl\src\lv_draw/lv_img_buf.h **** /**********************
  55:lvgl\src\lv_draw/lv_img_buf.h ****  *      TYPEDEFS
  56:lvgl\src\lv_draw/lv_img_buf.h ****  **********************/
  57:lvgl\src\lv_draw/lv_img_buf.h **** 
  58:lvgl\src\lv_draw/lv_img_buf.h **** /*Image color format*/
  59:lvgl\src\lv_draw/lv_img_buf.h **** enum {
  60:lvgl\src\lv_draw/lv_img_buf.h ****     LV_IMG_CF_UNKNOWN = 0,
  61:lvgl\src\lv_draw/lv_img_buf.h **** 
  62:lvgl\src\lv_draw/lv_img_buf.h ****     LV_IMG_CF_RAW,              /**< Contains the file as it is. Needs custom decoder function*/
  63:lvgl\src\lv_draw/lv_img_buf.h ****     LV_IMG_CF_RAW_ALPHA,        /**< Contains the file as it is. The image has alpha. Needs custom 
  64:lvgl\src\lv_draw/lv_img_buf.h ****                                    function*/
ARM GAS  C:\Users\strap\AppData\Local\Temp\ccUgAYbc.s 			page 39


  65:lvgl\src\lv_draw/lv_img_buf.h ****     LV_IMG_CF_RAW_CHROMA_KEYED, /**< Contains the file as it is. The image is chroma keyed. Needs
  66:lvgl\src\lv_draw/lv_img_buf.h ****                                    custom decoder function*/
  67:lvgl\src\lv_draw/lv_img_buf.h **** 
  68:lvgl\src\lv_draw/lv_img_buf.h ****     LV_IMG_CF_TRUE_COLOR,              /**< Color format and depth should match with LV_COLOR setti
  69:lvgl\src\lv_draw/lv_img_buf.h ****     LV_IMG_CF_TRUE_COLOR_ALPHA,        /**< Same as `LV_IMG_CF_TRUE_COLOR` but every pixel has an a
  70:lvgl\src\lv_draw/lv_img_buf.h ****     LV_IMG_CF_TRUE_COLOR_CHROMA_KEYED, /**< Same as `LV_IMG_CF_TRUE_COLOR` but LV_COLOR_TRANSP pixe
  71:lvgl\src\lv_draw/lv_img_buf.h ****                                           will be transparent*/
  72:lvgl\src\lv_draw/lv_img_buf.h **** 
  73:lvgl\src\lv_draw/lv_img_buf.h ****     LV_IMG_CF_INDEXED_1BIT, /**< Can have 2 different colors in a palette (always chroma keyed)*/
  74:lvgl\src\lv_draw/lv_img_buf.h ****     LV_IMG_CF_INDEXED_2BIT, /**< Can have 4 different colors in a palette (always chroma keyed)*/
  75:lvgl\src\lv_draw/lv_img_buf.h ****     LV_IMG_CF_INDEXED_4BIT, /**< Can have 16 different colors in a palette (always chroma keyed)*/
  76:lvgl\src\lv_draw/lv_img_buf.h ****     LV_IMG_CF_INDEXED_8BIT, /**< Can have 256 different colors in a palette (always chroma keyed)*/
  77:lvgl\src\lv_draw/lv_img_buf.h **** 
  78:lvgl\src\lv_draw/lv_img_buf.h ****     LV_IMG_CF_ALPHA_1BIT, /**< Can have one color and it can be drawn or not*/
  79:lvgl\src\lv_draw/lv_img_buf.h ****     LV_IMG_CF_ALPHA_2BIT, /**< Can have one color but 4 different alpha value*/
  80:lvgl\src\lv_draw/lv_img_buf.h ****     LV_IMG_CF_ALPHA_4BIT, /**< Can have one color but 16 different alpha value*/
  81:lvgl\src\lv_draw/lv_img_buf.h ****     LV_IMG_CF_ALPHA_8BIT, /**< Can have one color but 256 different alpha value*/
  82:lvgl\src\lv_draw/lv_img_buf.h **** 
  83:lvgl\src\lv_draw/lv_img_buf.h ****     LV_IMG_CF_RESERVED_15,              /**< Reserved for further use. */
  84:lvgl\src\lv_draw/lv_img_buf.h ****     LV_IMG_CF_RESERVED_16,              /**< Reserved for further use. */
  85:lvgl\src\lv_draw/lv_img_buf.h ****     LV_IMG_CF_RESERVED_17,              /**< Reserved for further use. */
  86:lvgl\src\lv_draw/lv_img_buf.h ****     LV_IMG_CF_RESERVED_18,              /**< Reserved for further use. */
  87:lvgl\src\lv_draw/lv_img_buf.h ****     LV_IMG_CF_RESERVED_19,              /**< Reserved for further use. */
  88:lvgl\src\lv_draw/lv_img_buf.h ****     LV_IMG_CF_RESERVED_20,              /**< Reserved for further use. */
  89:lvgl\src\lv_draw/lv_img_buf.h ****     LV_IMG_CF_RESERVED_21,              /**< Reserved for further use. */
  90:lvgl\src\lv_draw/lv_img_buf.h ****     LV_IMG_CF_RESERVED_22,              /**< Reserved for further use. */
  91:lvgl\src\lv_draw/lv_img_buf.h ****     LV_IMG_CF_RESERVED_23,              /**< Reserved for further use. */
  92:lvgl\src\lv_draw/lv_img_buf.h **** 
  93:lvgl\src\lv_draw/lv_img_buf.h ****     LV_IMG_CF_USER_ENCODED_0,          /**< User holder encoding format. */
  94:lvgl\src\lv_draw/lv_img_buf.h ****     LV_IMG_CF_USER_ENCODED_1,          /**< User holder encoding format. */
  95:lvgl\src\lv_draw/lv_img_buf.h ****     LV_IMG_CF_USER_ENCODED_2,          /**< User holder encoding format. */
  96:lvgl\src\lv_draw/lv_img_buf.h ****     LV_IMG_CF_USER_ENCODED_3,          /**< User holder encoding format. */
  97:lvgl\src\lv_draw/lv_img_buf.h ****     LV_IMG_CF_USER_ENCODED_4,          /**< User holder encoding format. */
  98:lvgl\src\lv_draw/lv_img_buf.h ****     LV_IMG_CF_USER_ENCODED_5,          /**< User holder encoding format. */
  99:lvgl\src\lv_draw/lv_img_buf.h ****     LV_IMG_CF_USER_ENCODED_6,          /**< User holder encoding format. */
 100:lvgl\src\lv_draw/lv_img_buf.h ****     LV_IMG_CF_USER_ENCODED_7,          /**< User holder encoding format. */
 101:lvgl\src\lv_draw/lv_img_buf.h **** };
 102:lvgl\src\lv_draw/lv_img_buf.h **** typedef uint8_t lv_img_cf_t;
 103:lvgl\src\lv_draw/lv_img_buf.h **** 
 104:lvgl\src\lv_draw/lv_img_buf.h **** 
 105:lvgl\src\lv_draw/lv_img_buf.h **** /**
 106:lvgl\src\lv_draw/lv_img_buf.h ****  * LVGL image header
 107:lvgl\src\lv_draw/lv_img_buf.h ****  */
 108:lvgl\src\lv_draw/lv_img_buf.h **** /* The first 8 bit is very important to distinguish the different source types.
 109:lvgl\src\lv_draw/lv_img_buf.h ****  * For more info see `lv_img_get_src_type()` in lv_img.c
 110:lvgl\src\lv_draw/lv_img_buf.h ****  * On big endian systems the order is reversed so cf and always_zero must be at
 111:lvgl\src\lv_draw/lv_img_buf.h ****  * the end of the struct.
 112:lvgl\src\lv_draw/lv_img_buf.h ****  * */
 113:lvgl\src\lv_draw/lv_img_buf.h **** #if LV_BIG_ENDIAN_SYSTEM
 114:lvgl\src\lv_draw/lv_img_buf.h **** typedef struct {
 115:lvgl\src\lv_draw/lv_img_buf.h **** 
 116:lvgl\src\lv_draw/lv_img_buf.h ****     uint32_t h : 11; /*Height of     the image map*/
 117:lvgl\src\lv_draw/lv_img_buf.h ****     uint32_t w : 11; /*Width of the image map*/
 118:lvgl\src\lv_draw/lv_img_buf.h ****     uint32_t reserved : 2; /*Reserved to be used later*/
 119:lvgl\src\lv_draw/lv_img_buf.h ****     uint32_t always_zero : 3; /*It the upper bits of the first byte. Always zero to look like a
 120:lvgl\src\lv_draw/lv_img_buf.h ****                                  non-printable character*/
 121:lvgl\src\lv_draw/lv_img_buf.h ****     uint32_t cf : 5;          /* Color format: See `lv_img_color_format_t`*/
ARM GAS  C:\Users\strap\AppData\Local\Temp\ccUgAYbc.s 			page 40


 122:lvgl\src\lv_draw/lv_img_buf.h **** 
 123:lvgl\src\lv_draw/lv_img_buf.h **** 
 124:lvgl\src\lv_draw/lv_img_buf.h **** } lv_img_header_t;
 125:lvgl\src\lv_draw/lv_img_buf.h **** #else
 126:lvgl\src\lv_draw/lv_img_buf.h **** typedef struct {
 127:lvgl\src\lv_draw/lv_img_buf.h **** 
 128:lvgl\src\lv_draw/lv_img_buf.h ****     uint32_t cf : 5;          /* Color format: See `lv_img_color_format_t`*/
 129:lvgl\src\lv_draw/lv_img_buf.h ****     uint32_t always_zero : 3; /*It the upper bits of the first byte. Always zero to look like a
 130:lvgl\src\lv_draw/lv_img_buf.h ****                                  non-printable character*/
 131:lvgl\src\lv_draw/lv_img_buf.h **** 
 132:lvgl\src\lv_draw/lv_img_buf.h ****     uint32_t reserved : 2; /*Reserved to be used later*/
 133:lvgl\src\lv_draw/lv_img_buf.h **** 
 134:lvgl\src\lv_draw/lv_img_buf.h ****     uint32_t w : 11; /*Width of the image map*/
 135:lvgl\src\lv_draw/lv_img_buf.h ****     uint32_t h : 11; /*Height of     the image map*/
 136:lvgl\src\lv_draw/lv_img_buf.h **** } lv_img_header_t;
 137:lvgl\src\lv_draw/lv_img_buf.h **** #endif
 138:lvgl\src\lv_draw/lv_img_buf.h **** 
 139:lvgl\src\lv_draw/lv_img_buf.h **** /** Image header it is compatible with
 140:lvgl\src\lv_draw/lv_img_buf.h ****  * the result from image converter utility*/
 141:lvgl\src\lv_draw/lv_img_buf.h **** typedef struct {
 142:lvgl\src\lv_draw/lv_img_buf.h ****     lv_img_header_t header;
 143:lvgl\src\lv_draw/lv_img_buf.h ****     uint32_t data_size;
 144:lvgl\src\lv_draw/lv_img_buf.h ****     const uint8_t * data;
 145:lvgl\src\lv_draw/lv_img_buf.h **** } lv_img_dsc_t;
 146:lvgl\src\lv_draw/lv_img_buf.h **** 
 147:lvgl\src\lv_draw/lv_img_buf.h **** typedef struct {
 148:lvgl\src\lv_draw/lv_img_buf.h ****     struct {
 149:lvgl\src\lv_draw/lv_img_buf.h ****         const void * src;           /*image source (array of pixels)*/
 150:lvgl\src\lv_draw/lv_img_buf.h ****         lv_coord_t src_w;           /*width of the image source*/
 151:lvgl\src\lv_draw/lv_img_buf.h ****         lv_coord_t src_h;           /*height of the image source*/
 152:lvgl\src\lv_draw/lv_img_buf.h ****         lv_coord_t pivot_x;         /*pivot x*/
 153:lvgl\src\lv_draw/lv_img_buf.h ****         lv_coord_t pivot_y;         /* pivot y*/
 154:lvgl\src\lv_draw/lv_img_buf.h ****         int16_t angle;              /*angle to rotate*/
 155:lvgl\src\lv_draw/lv_img_buf.h ****         uint16_t zoom;              /*256 no zoom, 128 half size, 512 double size*/
 156:lvgl\src\lv_draw/lv_img_buf.h ****         lv_color_t color;           /*a color used for `LV_IMG_CF_INDEXED_1/2/4/8BIT` color formats
 157:lvgl\src\lv_draw/lv_img_buf.h ****         lv_img_cf_t cf;             /*color format of the image to rotate*/
 158:lvgl\src\lv_draw/lv_img_buf.h ****         bool antialias;
 159:lvgl\src\lv_draw/lv_img_buf.h ****     } cfg;
 160:lvgl\src\lv_draw/lv_img_buf.h **** 
 161:lvgl\src\lv_draw/lv_img_buf.h ****     struct {
 162:lvgl\src\lv_draw/lv_img_buf.h ****         lv_color_t color;
 163:lvgl\src\lv_draw/lv_img_buf.h ****         lv_opa_t opa;
 164:lvgl\src\lv_draw/lv_img_buf.h ****     } res;
 165:lvgl\src\lv_draw/lv_img_buf.h **** 
 166:lvgl\src\lv_draw/lv_img_buf.h **** 
 167:lvgl\src\lv_draw/lv_img_buf.h ****     struct {
 168:lvgl\src\lv_draw/lv_img_buf.h ****         lv_img_dsc_t img_dsc;
 169:lvgl\src\lv_draw/lv_img_buf.h ****         int32_t pivot_x_256;
 170:lvgl\src\lv_draw/lv_img_buf.h ****         int32_t pivot_y_256;
 171:lvgl\src\lv_draw/lv_img_buf.h ****         int32_t sinma;
 172:lvgl\src\lv_draw/lv_img_buf.h ****         int32_t cosma;
 173:lvgl\src\lv_draw/lv_img_buf.h **** 
 174:lvgl\src\lv_draw/lv_img_buf.h ****         uint8_t chroma_keyed : 1;
 175:lvgl\src\lv_draw/lv_img_buf.h ****         uint8_t has_alpha : 1;
 176:lvgl\src\lv_draw/lv_img_buf.h ****         uint8_t native_color : 1;
 177:lvgl\src\lv_draw/lv_img_buf.h **** 
 178:lvgl\src\lv_draw/lv_img_buf.h ****         uint32_t zoom_inv;
ARM GAS  C:\Users\strap\AppData\Local\Temp\ccUgAYbc.s 			page 41


 179:lvgl\src\lv_draw/lv_img_buf.h **** 
 180:lvgl\src\lv_draw/lv_img_buf.h ****         /*Runtime data*/
 181:lvgl\src\lv_draw/lv_img_buf.h ****         lv_coord_t xs;
 182:lvgl\src\lv_draw/lv_img_buf.h ****         lv_coord_t ys;
 183:lvgl\src\lv_draw/lv_img_buf.h ****         lv_coord_t xs_int;
 184:lvgl\src\lv_draw/lv_img_buf.h ****         lv_coord_t ys_int;
 185:lvgl\src\lv_draw/lv_img_buf.h ****         uint32_t pxi;
 186:lvgl\src\lv_draw/lv_img_buf.h ****         uint8_t px_size;
 187:lvgl\src\lv_draw/lv_img_buf.h ****     } tmp;
 188:lvgl\src\lv_draw/lv_img_buf.h **** } lv_img_transform_dsc_t;
 189:lvgl\src\lv_draw/lv_img_buf.h **** 
 190:lvgl\src\lv_draw/lv_img_buf.h **** /**********************
 191:lvgl\src\lv_draw/lv_img_buf.h ****  * GLOBAL PROTOTYPES
 192:lvgl\src\lv_draw/lv_img_buf.h ****  **********************/
 193:lvgl\src\lv_draw/lv_img_buf.h **** 
 194:lvgl\src\lv_draw/lv_img_buf.h **** /**
 195:lvgl\src\lv_draw/lv_img_buf.h ****  * Allocate an image buffer in RAM
 196:lvgl\src\lv_draw/lv_img_buf.h ****  * @param w width of image
 197:lvgl\src\lv_draw/lv_img_buf.h ****  * @param h height of image
 198:lvgl\src\lv_draw/lv_img_buf.h ****  * @param cf a color format (`LV_IMG_CF_...`)
 199:lvgl\src\lv_draw/lv_img_buf.h ****  * @return an allocated image, or NULL on failure
 200:lvgl\src\lv_draw/lv_img_buf.h ****  */
 201:lvgl\src\lv_draw/lv_img_buf.h **** lv_img_dsc_t * lv_img_buf_alloc(lv_coord_t w, lv_coord_t h, lv_img_cf_t cf);
 202:lvgl\src\lv_draw/lv_img_buf.h **** 
 203:lvgl\src\lv_draw/lv_img_buf.h **** /**
 204:lvgl\src\lv_draw/lv_img_buf.h ****  * Get the color of an image's pixel
 205:lvgl\src\lv_draw/lv_img_buf.h ****  * @param dsc an image descriptor
 206:lvgl\src\lv_draw/lv_img_buf.h ****  * @param x x coordinate of the point to get
 207:lvgl\src\lv_draw/lv_img_buf.h ****  * @param y x coordinate of the point to get
 208:lvgl\src\lv_draw/lv_img_buf.h ****  * @param color the color of the image. In case of `LV_IMG_CF_ALPHA_1/2/4/8` this color is used.
 209:lvgl\src\lv_draw/lv_img_buf.h ****  * Not used in other cases.
 210:lvgl\src\lv_draw/lv_img_buf.h ****  * @param safe true: check out of bounds
 211:lvgl\src\lv_draw/lv_img_buf.h ****  * @return color of the point
 212:lvgl\src\lv_draw/lv_img_buf.h ****  */
 213:lvgl\src\lv_draw/lv_img_buf.h **** lv_color_t lv_img_buf_get_px_color(lv_img_dsc_t * dsc, lv_coord_t x, lv_coord_t y, lv_color_t color
 214:lvgl\src\lv_draw/lv_img_buf.h **** 
 215:lvgl\src\lv_draw/lv_img_buf.h **** /**
 216:lvgl\src\lv_draw/lv_img_buf.h ****  * Get the alpha value of an image's pixel
 217:lvgl\src\lv_draw/lv_img_buf.h ****  * @param dsc pointer to an image descriptor
 218:lvgl\src\lv_draw/lv_img_buf.h ****  * @param x x coordinate of the point to set
 219:lvgl\src\lv_draw/lv_img_buf.h ****  * @param y x coordinate of the point to set
 220:lvgl\src\lv_draw/lv_img_buf.h ****  * @param safe true: check out of bounds
 221:lvgl\src\lv_draw/lv_img_buf.h ****  * @return alpha value of the point
 222:lvgl\src\lv_draw/lv_img_buf.h ****  */
 223:lvgl\src\lv_draw/lv_img_buf.h **** lv_opa_t lv_img_buf_get_px_alpha(lv_img_dsc_t * dsc, lv_coord_t x, lv_coord_t y);
 224:lvgl\src\lv_draw/lv_img_buf.h **** 
 225:lvgl\src\lv_draw/lv_img_buf.h **** /**
 226:lvgl\src\lv_draw/lv_img_buf.h ****  * Set the color of a pixel of an image. The alpha channel won't be affected.
 227:lvgl\src\lv_draw/lv_img_buf.h ****  * @param dsc pointer to an image descriptor
 228:lvgl\src\lv_draw/lv_img_buf.h ****  * @param x x coordinate of the point to set
 229:lvgl\src\lv_draw/lv_img_buf.h ****  * @param y x coordinate of the point to set
 230:lvgl\src\lv_draw/lv_img_buf.h ****  * @param c color of the point
 231:lvgl\src\lv_draw/lv_img_buf.h ****  * @param safe true: check out of bounds
 232:lvgl\src\lv_draw/lv_img_buf.h ****  */
 233:lvgl\src\lv_draw/lv_img_buf.h **** void lv_img_buf_set_px_color(lv_img_dsc_t * dsc, lv_coord_t x, lv_coord_t y, lv_color_t c);
 234:lvgl\src\lv_draw/lv_img_buf.h **** 
 235:lvgl\src\lv_draw/lv_img_buf.h **** /**
ARM GAS  C:\Users\strap\AppData\Local\Temp\ccUgAYbc.s 			page 42


 236:lvgl\src\lv_draw/lv_img_buf.h ****  * Set the alpha value of a pixel of an image. The color won't be affected
 237:lvgl\src\lv_draw/lv_img_buf.h ****  * @param dsc pointer to an image descriptor
 238:lvgl\src\lv_draw/lv_img_buf.h ****  * @param x x coordinate of the point to set
 239:lvgl\src\lv_draw/lv_img_buf.h ****  * @param y x coordinate of the point to set
 240:lvgl\src\lv_draw/lv_img_buf.h ****  * @param opa the desired opacity
 241:lvgl\src\lv_draw/lv_img_buf.h ****  * @param safe true: check out of bounds
 242:lvgl\src\lv_draw/lv_img_buf.h ****  */
 243:lvgl\src\lv_draw/lv_img_buf.h **** void lv_img_buf_set_px_alpha(lv_img_dsc_t * dsc, lv_coord_t x, lv_coord_t y, lv_opa_t opa);
 244:lvgl\src\lv_draw/lv_img_buf.h **** 
 245:lvgl\src\lv_draw/lv_img_buf.h **** /**
 246:lvgl\src\lv_draw/lv_img_buf.h ****  * Set the palette color of an indexed image. Valid only for `LV_IMG_CF_INDEXED1/2/4/8`
 247:lvgl\src\lv_draw/lv_img_buf.h ****  * @param dsc pointer to an image descriptor
 248:lvgl\src\lv_draw/lv_img_buf.h ****  * @param id the palette color to set:
 249:lvgl\src\lv_draw/lv_img_buf.h ****  *   - for `LV_IMG_CF_INDEXED1`: 0..1
 250:lvgl\src\lv_draw/lv_img_buf.h ****  *   - for `LV_IMG_CF_INDEXED2`: 0..3
 251:lvgl\src\lv_draw/lv_img_buf.h ****  *   - for `LV_IMG_CF_INDEXED4`: 0..15
 252:lvgl\src\lv_draw/lv_img_buf.h ****  *   - for `LV_IMG_CF_INDEXED8`: 0..255
 253:lvgl\src\lv_draw/lv_img_buf.h ****  * @param c the color to set
 254:lvgl\src\lv_draw/lv_img_buf.h ****  */
 255:lvgl\src\lv_draw/lv_img_buf.h **** void lv_img_buf_set_palette(lv_img_dsc_t * dsc, uint8_t id, lv_color_t c);
 256:lvgl\src\lv_draw/lv_img_buf.h **** 
 257:lvgl\src\lv_draw/lv_img_buf.h **** /**
 258:lvgl\src\lv_draw/lv_img_buf.h ****  * Free an allocated image buffer
 259:lvgl\src\lv_draw/lv_img_buf.h ****  * @param dsc image buffer to free
 260:lvgl\src\lv_draw/lv_img_buf.h ****  */
 261:lvgl\src\lv_draw/lv_img_buf.h **** void lv_img_buf_free(lv_img_dsc_t * dsc);
 262:lvgl\src\lv_draw/lv_img_buf.h **** 
 263:lvgl\src\lv_draw/lv_img_buf.h **** /**
 264:lvgl\src\lv_draw/lv_img_buf.h ****  * Get the memory consumption of a raw bitmap, given color format and dimensions.
 265:lvgl\src\lv_draw/lv_img_buf.h ****  * @param w width
 266:lvgl\src\lv_draw/lv_img_buf.h ****  * @param h height
 267:lvgl\src\lv_draw/lv_img_buf.h ****  * @param cf color format
 268:lvgl\src\lv_draw/lv_img_buf.h ****  * @return size in bytes
 269:lvgl\src\lv_draw/lv_img_buf.h ****  */
 270:lvgl\src\lv_draw/lv_img_buf.h **** uint32_t lv_img_buf_get_img_size(lv_coord_t w, lv_coord_t h, lv_img_cf_t cf);
 271:lvgl\src\lv_draw/lv_img_buf.h **** 
 272:lvgl\src\lv_draw/lv_img_buf.h **** 
 273:lvgl\src\lv_draw/lv_img_buf.h **** #if LV_USE_IMG_TRANSFORM
 274:lvgl\src\lv_draw/lv_img_buf.h **** /**
 275:lvgl\src\lv_draw/lv_img_buf.h ****  * Initialize a descriptor to rotate an image
 276:lvgl\src\lv_draw/lv_img_buf.h ****  * @param dsc pointer to an `lv_img_transform_dsc_t` variable whose `cfg` field is initialized
 277:lvgl\src\lv_draw/lv_img_buf.h ****  */
 278:lvgl\src\lv_draw/lv_img_buf.h **** void _lv_img_buf_transform_init(lv_img_transform_dsc_t * dsc);
 279:lvgl\src\lv_draw/lv_img_buf.h **** 
 280:lvgl\src\lv_draw/lv_img_buf.h **** /**
 281:lvgl\src\lv_draw/lv_img_buf.h ****  * Continue transformation by taking the neighbors into account
 282:lvgl\src\lv_draw/lv_img_buf.h ****  * @param dsc pointer to the transformation descriptor
 283:lvgl\src\lv_draw/lv_img_buf.h ****  */
 284:lvgl\src\lv_draw/lv_img_buf.h **** bool _lv_img_buf_transform_anti_alias(lv_img_transform_dsc_t * dsc);
 285:lvgl\src\lv_draw/lv_img_buf.h **** 
 286:lvgl\src\lv_draw/lv_img_buf.h **** 
 287:lvgl\src\lv_draw/lv_img_buf.h **** /**
 288:lvgl\src\lv_draw/lv_img_buf.h ****  * Get which color and opa would come to a pixel if it were rotated
 289:lvgl\src\lv_draw/lv_img_buf.h ****  * @param dsc a descriptor initialized by `lv_img_buf_rotate_init`
 290:lvgl\src\lv_draw/lv_img_buf.h ****  * @param x the coordinate which color and opa should be get
 291:lvgl\src\lv_draw/lv_img_buf.h ****  * @param y the coordinate which color and opa should be get
 292:lvgl\src\lv_draw/lv_img_buf.h ****  * @return true: there is valid pixel on these x/y coordinates; false: the rotated pixel was out of
ARM GAS  C:\Users\strap\AppData\Local\Temp\ccUgAYbc.s 			page 43


 293:lvgl\src\lv_draw/lv_img_buf.h ****  * @note the result is written back to `dsc->res_color` and `dsc->res_opa`
 294:lvgl\src\lv_draw/lv_img_buf.h ****  */
 295:lvgl\src\lv_draw/lv_img_buf.h **** static inline bool _lv_img_buf_transform(lv_img_transform_dsc_t * dsc, lv_coord_t x, lv_coord_t y)
 296:lvgl\src\lv_draw/lv_img_buf.h **** {
 297:lvgl\src\lv_draw/lv_img_buf.h ****     const uint8_t * src_u8 = (const uint8_t *)dsc->cfg.src;
 725              		.loc 5 297 0
 726 03ea 2599     		ldr	r1, [sp, #148]
 727              	.LVL101:
 298:lvgl\src\lv_draw/lv_img_buf.h **** 
 299:lvgl\src\lv_draw/lv_img_buf.h ****     /*Get the target point relative coordinates to the pivot*/
 300:lvgl\src\lv_draw/lv_img_buf.h ****     int32_t xt = x - dsc->cfg.pivot_x;
 728              		.loc 5 300 0
 729 03ec BDF99C40 		ldrsh	r4, [sp, #156]
 730 03f0 1B1B     		subs	r3, r3, r4
 731              	.LVL102:
 301:lvgl\src\lv_draw/lv_img_buf.h ****     int32_t yt = y - dsc->cfg.pivot_y;
 732              		.loc 5 301 0
 733 03f2 BDF99E40 		ldrsh	r4, [sp, #158]
 734 03f6 121B     		subs	r2, r2, r4
 735              	.LVL103:
 302:lvgl\src\lv_draw/lv_img_buf.h **** 
 303:lvgl\src\lv_draw/lv_img_buf.h ****     int32_t xs;
 304:lvgl\src\lv_draw/lv_img_buf.h ****     int32_t ys;
 305:lvgl\src\lv_draw/lv_img_buf.h ****     if(dsc->cfg.zoom == LV_IMG_ZOOM_NONE) {
 736              		.loc 5 305 0
 737 03f8 BDF8A200 		ldrh	r0, [sp, #162]
 738 03fc B0F5807F 		cmp	r0, #256
 739 0400 11D1     		bne	.L27
 306:lvgl\src\lv_draw/lv_img_buf.h ****         /*Get the source pixel from the upscaled image*/
 307:lvgl\src\lv_draw/lv_img_buf.h ****         xs = ((dsc->tmp.cosma * xt - dsc->tmp.sinma * yt) >> (_LV_TRANSFORM_TRIGO_SHIFT - 8)) + dsc
 740              		.loc 5 307 0
 741 0402 319C     		ldr	r4, [sp, #196]
 742 0404 04FB03F7 		mul	r7, r4, r3
 743 0408 309D     		ldr	r5, [sp, #192]
 744 040a 05FB1277 		mls	r7, r5, r2, r7
 745 040e 2E98     		ldr	r0, [sp, #184]
 746 0410 00EBA700 		add	r0, r0, r7, asr #2
 747 0414 0C90     		str	r0, [sp, #48]
 748              	.LVL104:
 308:lvgl\src\lv_draw/lv_img_buf.h ****         ys = ((dsc->tmp.sinma * xt + dsc->tmp.cosma * yt) >> (_LV_TRANSFORM_TRIGO_SHIFT - 8)) + dsc
 749              		.loc 5 308 0
 750 0416 04FB02F4 		mul	r4, r4, r2
 751 041a 05FB0343 		mla	r3, r5, r3, r4
 752              	.LVL105:
 753 041e 2F9C     		ldr	r4, [sp, #188]
 754 0420 04EBA304 		add	r4, r4, r3, asr #2
 755              	.LVL106:
 756 0424 27E0     		b	.L28
 757              	.LVL107:
 758              	.L27:
 309:lvgl\src\lv_draw/lv_img_buf.h ****     }
 310:lvgl\src\lv_draw/lv_img_buf.h ****     else if(dsc->cfg.angle == 0) {
 759              		.loc 5 310 0
 760 0426 BDF9A000 		ldrsh	r0, [sp, #160]
 761 042a 60B9     		cbnz	r0, .L29
 311:lvgl\src\lv_draw/lv_img_buf.h ****         xt = (int32_t)((int32_t)xt * dsc->tmp.zoom_inv) >> _LV_ZOOM_INV_UPSCALE;
 762              		.loc 5 311 0
ARM GAS  C:\Users\strap\AppData\Local\Temp\ccUgAYbc.s 			page 44


 763 042c 3398     		ldr	r0, [sp, #204]
 764 042e 00FB03F3 		mul	r3, r0, r3
 765              	.LVL108:
 312:lvgl\src\lv_draw/lv_img_buf.h ****         yt = (int32_t)((int32_t)yt * dsc->tmp.zoom_inv) >> _LV_ZOOM_INV_UPSCALE;
 766              		.loc 5 312 0
 767 0432 00FB02F2 		mul	r2, r0, r2
 768              	.LVL109:
 313:lvgl\src\lv_draw/lv_img_buf.h ****         xs = xt + dsc->tmp.pivot_x_256;
 769              		.loc 5 313 0
 770 0436 2E98     		ldr	r0, [sp, #184]
 771 0438 00EB6313 		add	r3, r0, r3, asr #5
 772              	.LVL110:
 773 043c 0C93     		str	r3, [sp, #48]
 774              	.LVL111:
 314:lvgl\src\lv_draw/lv_img_buf.h ****         ys = yt + dsc->tmp.pivot_y_256;
 775              		.loc 5 314 0
 776 043e 2F9C     		ldr	r4, [sp, #188]
 777 0440 04EB6214 		add	r4, r4, r2, asr #5
 778              	.LVL112:
 779 0444 17E0     		b	.L28
 780              	.LVL113:
 781              	.L29:
 315:lvgl\src\lv_draw/lv_img_buf.h ****     }
 316:lvgl\src\lv_draw/lv_img_buf.h ****     else {
 317:lvgl\src\lv_draw/lv_img_buf.h ****         xt = (int32_t)((int32_t)xt * dsc->tmp.zoom_inv) >> _LV_ZOOM_INV_UPSCALE;
 782              		.loc 5 317 0
 783 0446 3398     		ldr	r0, [sp, #204]
 784 0448 00FB03F3 		mul	r3, r0, r3
 785              	.LVL114:
 786 044c 5B11     		asrs	r3, r3, #5
 787              	.LVL115:
 318:lvgl\src\lv_draw/lv_img_buf.h ****         yt = (int32_t)((int32_t)yt * dsc->tmp.zoom_inv) >> _LV_ZOOM_INV_UPSCALE;
 788              		.loc 5 318 0
 789 044e 00FB02F2 		mul	r2, r0, r2
 790              	.LVL116:
 791 0452 5211     		asrs	r2, r2, #5
 792              	.LVL117:
 319:lvgl\src\lv_draw/lv_img_buf.h ****         xs = ((dsc->tmp.cosma * xt - dsc->tmp.sinma * yt) >> (_LV_TRANSFORM_TRIGO_SHIFT)) + dsc->tm
 793              		.loc 5 319 0
 794 0454 319D     		ldr	r5, [sp, #196]
 795 0456 05FB03F4 		mul	r4, r5, r3
 796 045a 309F     		ldr	r7, [sp, #192]
 797 045c 07FB1244 		mls	r4, r7, r2, r4
 798 0460 2E98     		ldr	r0, [sp, #184]
 799 0462 00EBA420 		add	r0, r0, r4, asr #10
 800 0466 0C90     		str	r0, [sp, #48]
 801              	.LVL118:
 320:lvgl\src\lv_draw/lv_img_buf.h ****         ys = ((dsc->tmp.sinma * xt + dsc->tmp.cosma * yt) >> (_LV_TRANSFORM_TRIGO_SHIFT)) + dsc->tm
 802              		.loc 5 320 0
 803 0468 05FB02F2 		mul	r2, r5, r2
 804              	.LVL119:
 805 046c 07FB0323 		mla	r3, r7, r3, r2
 806              	.LVL120:
 807 0470 2F9C     		ldr	r4, [sp, #188]
 808 0472 04EBA324 		add	r4, r4, r3, asr #10
 809              	.LVL121:
 810              	.L28:
ARM GAS  C:\Users\strap\AppData\Local\Temp\ccUgAYbc.s 			page 45


 321:lvgl\src\lv_draw/lv_img_buf.h ****     }
 322:lvgl\src\lv_draw/lv_img_buf.h **** 
 323:lvgl\src\lv_draw/lv_img_buf.h ****     /*Get the integer part of the source pixel*/
 324:lvgl\src\lv_draw/lv_img_buf.h ****     int32_t xs_int = xs >> 8;
 811              		.loc 5 324 0
 812 0476 0C9B     		ldr	r3, [sp, #48]
 813 0478 1D12     		asrs	r5, r3, #8
 814              	.LVL122:
 325:lvgl\src\lv_draw/lv_img_buf.h ****     int32_t ys_int = ys >> 8;
 815              		.loc 5 325 0
 816 047a 2712     		asrs	r7, r4, #8
 817              	.LVL123:
 326:lvgl\src\lv_draw/lv_img_buf.h **** 
 327:lvgl\src\lv_draw/lv_img_buf.h ****     if(xs_int >= dsc->cfg.src_w) return false;
 818              		.loc 5 327 0
 819 047c BDF99830 		ldrsh	r3, [sp, #152]
 820 0480 9D42     		cmp	r5, r3
 821 0482 78DA     		bge	.L64
 328:lvgl\src\lv_draw/lv_img_buf.h ****     else if(xs_int < 0) return false;
 822              		.loc 5 328 0
 823 0484 002D     		cmp	r5, #0
 824 0486 78DB     		blt	.L65
 329:lvgl\src\lv_draw/lv_img_buf.h **** 
 330:lvgl\src\lv_draw/lv_img_buf.h ****     if(ys_int >= dsc->cfg.src_h) return false;
 825              		.loc 5 330 0
 826 0488 BDF99A20 		ldrsh	r2, [sp, #154]
 827 048c 9742     		cmp	r7, r2
 828 048e 76DA     		bge	.L66
 331:lvgl\src\lv_draw/lv_img_buf.h ****     else if(ys_int < 0) return false;
 829              		.loc 5 331 0
 830 0490 002F     		cmp	r7, #0
 831 0492 76DB     		blt	.L67
 332:lvgl\src\lv_draw/lv_img_buf.h **** 
 333:lvgl\src\lv_draw/lv_img_buf.h ****     uint8_t px_size;
 334:lvgl\src\lv_draw/lv_img_buf.h ****     uint32_t pxi;
 335:lvgl\src\lv_draw/lv_img_buf.h ****     if(dsc->tmp.native_color) {
 832              		.loc 5 335 0
 833 0494 9DF8C820 		ldrb	r2, [sp, #200]	@ zero_extendqisi2
 834 0498 12F0040F 		tst	r2, #4
 835 049c 2AD0     		beq	.L31
 336:lvgl\src\lv_draw/lv_img_buf.h ****         if(dsc->tmp.has_alpha == 0) {
 836              		.loc 5 336 0
 837 049e 12F0020F 		tst	r2, #2
 838 04a2 10D1     		bne	.L32
 839              	.LVL124:
 337:lvgl\src\lv_draw/lv_img_buf.h ****             px_size = LV_COLOR_SIZE >> 3;
 338:lvgl\src\lv_draw/lv_img_buf.h **** 
 339:lvgl\src\lv_draw/lv_img_buf.h ****             pxi     = dsc->cfg.src_w * ys_int * px_size + xs_int * px_size;
 840              		.loc 5 339 0
 841 04a4 03FB0753 		mla	r3, r3, r7, r5
 842 04a8 5B00     		lsls	r3, r3, #1
 843 04aa 1A93     		str	r3, [sp, #104]
 844              	.LVL125:
 340:lvgl\src\lv_draw/lv_img_buf.h ****             _lv_memcpy_small(&dsc->res.color, &src_u8[pxi], px_size);
 845              		.loc 5 340 0
 846 04ac 1944     		add	r1, r1, r3
 847              	.LVL126:
ARM GAS  C:\Users\strap\AppData\Local\Temp\ccUgAYbc.s 			page 46


 848              	.LBB126:
 849              	.LBB127:
 216:lvgl\src\lv_draw\../lv_misc/lv_mem.h ****     const uint8_t * s8 = (const uint8_t *)src;
 850              		.loc 2 216 0
 851 04ae 2AAA     		add	r2, sp, #168
 852              	.LVL127:
 853              	.LBE127:
 854              	.LBE126:
 855              		.loc 5 340 0
 856 04b0 0223     		movs	r3, #2
 857              	.LVL128:
 858 04b2 04E0     		b	.L33
 859              	.LVL129:
 860              	.L34:
 861              	.LBB129:
 862              	.LBB128:
 220:lvgl\src\lv_draw\../lv_misc/lv_mem.h ****         d8++;
 863              		.loc 2 220 0
 864 04b4 11F8010B 		ldrb	r0, [r1], #1	@ zero_extendqisi2
 865              	.LVL130:
 866 04b8 02F8010B 		strb	r0, [r2], #1
 867              	.LVL131:
 868              		.loc 2 223 0
 869 04bc 013B     		subs	r3, r3, #1
 870              	.LVL132:
 871              	.L33:
 219:lvgl\src\lv_draw\../lv_misc/lv_mem.h ****         *d8 = *s8;
 872              		.loc 2 219 0
 873 04be 002B     		cmp	r3, #0
 874 04c0 F8D1     		bne	.L34
 875              	.LBE128:
 876              	.LBE129:
 337:lvgl\src\lv_draw/lv_img_buf.h **** 
 877              		.loc 5 337 0
 878 04c2 0222     		movs	r2, #2
 879              	.LVL133:
 880 04c4 2BE0     		b	.L35
 881              	.LVL134:
 882              	.L32:
 341:lvgl\src\lv_draw/lv_img_buf.h ****         }
 342:lvgl\src\lv_draw/lv_img_buf.h ****         else {
 343:lvgl\src\lv_draw/lv_img_buf.h ****             px_size = LV_IMG_PX_SIZE_ALPHA_BYTE;
 344:lvgl\src\lv_draw/lv_img_buf.h ****             pxi     = dsc->cfg.src_w * ys_int * px_size + xs_int * px_size;
 883              		.loc 5 344 0
 884 04c6 03FB0753 		mla	r3, r3, r7, r5
 885 04ca 03EB4303 		add	r3, r3, r3, lsl #1
 886 04ce 1A93     		str	r3, [sp, #104]
 887              	.LVL135:
 345:lvgl\src\lv_draw/lv_img_buf.h ****             _lv_memcpy_small(&dsc->res.color, &src_u8[pxi], px_size - 1);
 888              		.loc 5 345 0
 889 04d0 01EB030E 		add	lr, r1, r3
 890              	.LVL136:
 891              	.LBB130:
 892              	.LBB131:
 216:lvgl\src\lv_draw\../lv_misc/lv_mem.h ****     const uint8_t * s8 = (const uint8_t *)src;
 893              		.loc 2 216 0
 894 04d4 2AA8     		add	r0, sp, #168
ARM GAS  C:\Users\strap\AppData\Local\Temp\ccUgAYbc.s 			page 47


 895              	.LVL137:
 896              	.LBE131:
 897              	.LBE130:
 898              		.loc 5 345 0
 899 04d6 0222     		movs	r2, #2
 900 04d8 04E0     		b	.L36
 901              	.LVL138:
 902              	.L37:
 903              	.LBB133:
 904              	.LBB132:
 220:lvgl\src\lv_draw\../lv_misc/lv_mem.h ****         d8++;
 905              		.loc 2 220 0
 906 04da 1EF801CB 		ldrb	ip, [lr], #1	@ zero_extendqisi2
 907              	.LVL139:
 908 04de 00F801CB 		strb	ip, [r0], #1
 909              	.LVL140:
 910              		.loc 2 223 0
 911 04e2 013A     		subs	r2, r2, #1
 912              	.LVL141:
 913              	.L36:
 219:lvgl\src\lv_draw\../lv_misc/lv_mem.h ****         *d8 = *s8;
 914              		.loc 2 219 0
 915 04e4 002A     		cmp	r2, #0
 916 04e6 F8D1     		bne	.L37
 917              	.LVL142:
 918              	.LBE132:
 919              	.LBE133:
 346:lvgl\src\lv_draw/lv_img_buf.h ****             dsc->res.opa = src_u8[pxi + px_size - 1];
 920              		.loc 5 346 0
 921 04e8 1944     		add	r1, r1, r3
 922              	.LVL143:
 923 04ea 8B78     		ldrb	r3, [r1, #2]	@ zero_extendqisi2
 924              	.LVL144:
 925 04ec 8DF8AA30 		strb	r3, [sp, #170]
 343:lvgl\src\lv_draw/lv_img_buf.h ****             pxi     = dsc->cfg.src_w * ys_int * px_size + xs_int * px_size;
 926              		.loc 5 343 0
 927 04f0 0322     		movs	r2, #3
 928 04f2 14E0     		b	.L35
 929              	.LVL145:
 930              	.L31:
 347:lvgl\src\lv_draw/lv_img_buf.h ****         }
 348:lvgl\src\lv_draw/lv_img_buf.h ****     }
 349:lvgl\src\lv_draw/lv_img_buf.h ****     else {
 350:lvgl\src\lv_draw/lv_img_buf.h ****         pxi = 0; /*unused*/
 351:lvgl\src\lv_draw/lv_img_buf.h ****         px_size = 0;    /*unused*/
 352:lvgl\src\lv_draw/lv_img_buf.h ****         dsc->res.color = lv_img_buf_get_px_color(&dsc->tmp.img_dsc, xs_int, ys_int, dsc->cfg.color)
 931              		.loc 5 352 0
 932 04f4 29B2     		sxth	r1, r5
 933              	.LVL146:
 934 04f6 3AB2     		sxth	r2, r7
 935 04f8 BDF8A430 		ldrh	r3, [sp, #164]
 936 04fc 1F92     		str	r2, [sp, #124]
 937 04fe 1A91     		str	r1, [sp, #104]
 938 0500 2BA8     		add	r0, sp, #172
 939 0502 FFF7FEFF 		bl	lv_img_buf_get_px_color
 940              	.LVL147:
 941 0506 ADF8A800 		strh	r0, [sp, #168]	@ movhi
ARM GAS  C:\Users\strap\AppData\Local\Temp\ccUgAYbc.s 			page 48


 353:lvgl\src\lv_draw/lv_img_buf.h ****         dsc->res.opa = lv_img_buf_get_px_alpha(&dsc->tmp.img_dsc, xs_int, ys_int);
 942              		.loc 5 353 0
 943 050a 1F9A     		ldr	r2, [sp, #124]
 944 050c 1A99     		ldr	r1, [sp, #104]
 945 050e 2BA8     		add	r0, sp, #172
 946 0510 FFF7FEFF 		bl	lv_img_buf_get_px_alpha
 947              	.LVL148:
 948 0514 8DF8AA00 		strb	r0, [sp, #170]
 350:lvgl\src\lv_draw/lv_img_buf.h ****         px_size = 0;    /*unused*/
 949              		.loc 5 350 0
 950 0518 0023     		movs	r3, #0
 951 051a 1A93     		str	r3, [sp, #104]
 351:lvgl\src\lv_draw/lv_img_buf.h ****         dsc->res.color = lv_img_buf_get_px_color(&dsc->tmp.img_dsc, xs_int, ys_int, dsc->cfg.color)
 952              		.loc 5 351 0
 953 051c 1A46     		mov	r2, r3
 954              	.LVL149:
 955              	.L35:
 354:lvgl\src\lv_draw/lv_img_buf.h ****     }
 355:lvgl\src\lv_draw/lv_img_buf.h **** 
 356:lvgl\src\lv_draw/lv_img_buf.h ****     if(dsc->tmp.chroma_keyed) {
 956              		.loc 5 356 0
 957 051e 9DF8C830 		ldrb	r3, [sp, #200]	@ zero_extendqisi2
 958 0522 13F0010F 		tst	r3, #1
 959 0526 11D0     		beq	.L38
 960              	.LBB134:
 357:lvgl\src\lv_draw/lv_img_buf.h ****         lv_color_t ct = LV_COLOR_TRANSP;
 961              		.loc 5 357 0
 962 0528 1C9B     		ldr	r3, [sp, #112]
 963 052a 43F00703 		orr	r3, r3, #7
 964 052e 6FF3C703 		bfc	r3, #3, #5
 965 0532 6FF30C23 		bfc	r3, #8, #5
 966 0536 43F46043 		orr	r3, r3, #57344
 967 053a ADF87030 		strh	r3, [sp, #112]	@ movhi
 358:lvgl\src\lv_draw/lv_img_buf.h ****         if(dsc->res.color.full == ct.full) return false;
 968              		.loc 5 358 0
 969 053e BDF8A810 		ldrh	r1, [sp, #168]
 970 0542 9BB2     		uxth	r3, r3
 971 0544 9942     		cmp	r1, r3
 972 0546 01D1     		bne	.L38
 973 0548 0020     		movs	r0, #0
 974 054a 1DE0     		b	.L30
 975              	.L38:
 976              	.LBE134:
 359:lvgl\src\lv_draw/lv_img_buf.h ****     }
 360:lvgl\src\lv_draw/lv_img_buf.h **** 
 361:lvgl\src\lv_draw/lv_img_buf.h ****     if(dsc->cfg.antialias == false) return true;
 977              		.loc 5 361 0
 978 054c 9DF8A730 		ldrb	r3, [sp, #167]	@ zero_extendqisi2
 979 0550 CBB1     		cbz	r3, .L68
 362:lvgl\src\lv_draw/lv_img_buf.h **** 
 363:lvgl\src\lv_draw/lv_img_buf.h ****     dsc->tmp.xs = xs;
 980              		.loc 5 363 0
 981 0552 BDF83030 		ldrh	r3, [sp, #48]
 982 0556 ADF8D030 		strh	r3, [sp, #208]	@ movhi
 364:lvgl\src\lv_draw/lv_img_buf.h ****     dsc->tmp.ys = ys;
 983              		.loc 5 364 0
 984 055a ADF8D240 		strh	r4, [sp, #210]	@ movhi
ARM GAS  C:\Users\strap\AppData\Local\Temp\ccUgAYbc.s 			page 49


 365:lvgl\src\lv_draw/lv_img_buf.h ****     dsc->tmp.xs_int = xs_int;
 985              		.loc 5 365 0
 986 055e ADF8D450 		strh	r5, [sp, #212]	@ movhi
 366:lvgl\src\lv_draw/lv_img_buf.h ****     dsc->tmp.ys_int = ys_int;
 987              		.loc 5 366 0
 988 0562 ADF8D670 		strh	r7, [sp, #214]	@ movhi
 367:lvgl\src\lv_draw/lv_img_buf.h ****     dsc->tmp.pxi = pxi;
 989              		.loc 5 367 0
 990 0566 1A9B     		ldr	r3, [sp, #104]
 991 0568 3693     		str	r3, [sp, #216]
 368:lvgl\src\lv_draw/lv_img_buf.h ****     dsc->tmp.px_size = px_size;
 992              		.loc 5 368 0
 993 056a 8DF8DC20 		strb	r2, [sp, #220]
 369:lvgl\src\lv_draw/lv_img_buf.h **** 
 370:lvgl\src\lv_draw/lv_img_buf.h ****     bool ret;
 371:lvgl\src\lv_draw/lv_img_buf.h ****     ret = _lv_img_buf_transform_anti_alias(dsc);
 994              		.loc 5 371 0
 995 056e 25A8     		add	r0, sp, #148
 996              	.LVL150:
 997 0570 FFF7FEFF 		bl	_lv_img_buf_transform_anti_alias
 998              	.LVL151:
 999 0574 08E0     		b	.L30
 1000              	.LVL152:
 1001              	.L64:
 327:lvgl\src\lv_draw/lv_img_buf.h ****     else if(xs_int < 0) return false;
 1002              		.loc 5 327 0
 1003 0576 0020     		movs	r0, #0
 1004 0578 06E0     		b	.L30
 1005              	.L65:
 328:lvgl\src\lv_draw/lv_img_buf.h **** 
 1006              		.loc 5 328 0
 1007 057a 0020     		movs	r0, #0
 1008 057c 04E0     		b	.L30
 1009              	.L66:
 330:lvgl\src\lv_draw/lv_img_buf.h ****     else if(ys_int < 0) return false;
 1010              		.loc 5 330 0
 1011 057e 0020     		movs	r0, #0
 1012 0580 02E0     		b	.L30
 1013              	.L67:
 331:lvgl\src\lv_draw/lv_img_buf.h **** 
 1014              		.loc 5 331 0
 1015 0582 0020     		movs	r0, #0
 1016 0584 00E0     		b	.L30
 1017              	.LVL153:
 1018              	.L68:
 361:lvgl\src\lv_draw/lv_img_buf.h **** 
 1019              		.loc 5 361 0
 1020 0586 0120     		movs	r0, #1
 1021              	.LVL154:
 1022              	.L30:
 1023              	.LBE125:
 1024              	.LBE124:
 537:lvgl\src\lv_draw/lv_draw_img.c ****                         if(ret == false) {
 1025              		.loc 1 537 0
 1026 0588 18B9     		cbnz	r0, .L40
 538:lvgl\src\lv_draw/lv_draw_img.c ****                             mask_buf[px_i] = LV_OPA_TRANSP;
 1027              		.loc 1 538 0
ARM GAS  C:\Users\strap\AppData\Local\Temp\ccUgAYbc.s 			page 50


 1028 058a 0023     		movs	r3, #0
 1029 058c 0AF80B30 		strb	r3, [r10, fp]
 539:lvgl\src\lv_draw/lv_draw_img.c ****                             continue;
 1030              		.loc 1 539 0
 1031 0590 5DE0     		b	.L41
 1032              	.L40:
 540:lvgl\src\lv_draw/lv_draw_img.c ****                         }
 541:lvgl\src\lv_draw/lv_draw_img.c ****                         else {
 542:lvgl\src\lv_draw/lv_draw_img.c ****                             mask_buf[px_i] = trans_dsc.res.opa;
 1033              		.loc 1 542 0
 1034 0592 9DF8AA30 		ldrb	r3, [sp, #170]	@ zero_extendqisi2
 1035 0596 0AF80B30 		strb	r3, [r10, fp]
 543:lvgl\src\lv_draw/lv_draw_img.c ****                             c.full = trans_dsc.res.color.full;
 1036              		.loc 1 543 0
 1037 059a BDF8A830 		ldrh	r3, [sp, #168]
 1038              	.LBE123:
 1039 059e 1DE0     		b	.L42
 1040              	.L26:
 544:lvgl\src\lv_draw/lv_draw_img.c ****                         }
 545:lvgl\src\lv_draw/lv_draw_img.c ****                     }
 546:lvgl\src\lv_draw/lv_draw_img.c ****                     /*No transform*/
 547:lvgl\src\lv_draw/lv_draw_img.c ****                     else
 548:lvgl\src\lv_draw/lv_draw_img.c **** #endif
 549:lvgl\src\lv_draw/lv_draw_img.c ****                     {
 550:lvgl\src\lv_draw/lv_draw_img.c ****                         if(alpha_byte) {
 1041              		.loc 1 550 0
 1042 05a0 089B     		ldr	r3, [sp, #32]
 1043 05a2 33B1     		cbz	r3, .L43
 1044              	.LBB135:
 551:lvgl\src\lv_draw/lv_draw_img.c ****                             lv_opa_t px_opa = map_px[LV_IMG_PX_SIZE_ALPHA_BYTE - 1];
 1045              		.loc 1 551 0
 1046 05a4 98F80230 		ldrb	r3, [r8, #2]	@ zero_extendqisi2
 1047              	.LVL155:
 552:lvgl\src\lv_draw/lv_draw_img.c ****                             mask_buf[px_i] = px_opa;
 1048              		.loc 1 552 0
 1049 05a8 0AF80B30 		strb	r3, [r10, fp]
 553:lvgl\src\lv_draw/lv_draw_img.c ****                             if(px_opa == 0) {
 1050              		.loc 1 553 0
 1051 05ac 002B     		cmp	r3, #0
 1052 05ae 4ED0     		beq	.L41
 1053 05b0 02E0     		b	.L44
 1054              	.LVL156:
 1055              	.L43:
 1056              	.LBE135:
 554:lvgl\src\lv_draw/lv_draw_img.c **** #if  LV_COLOR_DEPTH == 32
 555:lvgl\src\lv_draw/lv_draw_img.c ****                                 map2[px_i].full = 0;
 556:lvgl\src\lv_draw/lv_draw_img.c **** #endif
 557:lvgl\src\lv_draw/lv_draw_img.c ****                                 continue;
 558:lvgl\src\lv_draw/lv_draw_img.c ****                             }
 559:lvgl\src\lv_draw/lv_draw_img.c ****                         }
 560:lvgl\src\lv_draw/lv_draw_img.c ****                         else {
 561:lvgl\src\lv_draw/lv_draw_img.c ****                             mask_buf[px_i] = 0xFF;
 1057              		.loc 1 561 0
 1058 05b2 FF23     		movs	r3, #255
 1059 05b4 0AF80B30 		strb	r3, [r10, fp]
 1060              	.L44:
 562:lvgl\src\lv_draw/lv_draw_img.c ****                         }
ARM GAS  C:\Users\strap\AppData\Local\Temp\ccUgAYbc.s 			page 51


 563:lvgl\src\lv_draw/lv_draw_img.c **** 
 564:lvgl\src\lv_draw/lv_draw_img.c **** #if LV_COLOR_DEPTH == 1
 565:lvgl\src\lv_draw/lv_draw_img.c ****                         c.full = map_px[0];
 566:lvgl\src\lv_draw/lv_draw_img.c **** #elif LV_COLOR_DEPTH == 8
 567:lvgl\src\lv_draw/lv_draw_img.c ****                         c.full =  map_px[0];
 568:lvgl\src\lv_draw/lv_draw_img.c **** #elif LV_COLOR_DEPTH == 16
 569:lvgl\src\lv_draw/lv_draw_img.c ****                         c.full =  map_px[0] + (map_px[1] << 8);
 1061              		.loc 1 569 0
 1062 05b8 98F80030 		ldrb	r3, [r8]	@ zero_extendqisi2
 1063 05bc 98F80120 		ldrb	r2, [r8, #1]	@ zero_extendqisi2
 1064 05c0 03EB0222 		add	r2, r3, r2, lsl #8
 1065 05c4 92B2     		uxth	r2, r2
 1066 05c6 1346     		mov	r3, r2	@ movhi
 1067              	.LVL157:
 570:lvgl\src\lv_draw/lv_draw_img.c **** #elif LV_COLOR_DEPTH == 32
 571:lvgl\src\lv_draw/lv_draw_img.c ****                         c.full =  *((uint32_t *)map_px);
 572:lvgl\src\lv_draw/lv_draw_img.c ****                         c.ch.alpha = 0xFF;
 573:lvgl\src\lv_draw/lv_draw_img.c **** #endif
 574:lvgl\src\lv_draw/lv_draw_img.c ****                         if(chroma_key) {
 1068              		.loc 1 574 0
 1069 05c8 0D99     		ldr	r1, [sp, #52]
 1070 05ca 39B1     		cbz	r1, .L42
 575:lvgl\src\lv_draw/lv_draw_img.c ****                             if(c.full == chroma_keyed_color.full) {
 1071              		.loc 1 575 0
 1072 05cc BFF8DC11 		ldrh	r1, .L76
 1073 05d0 8A42     		cmp	r2, r1
 1074 05d2 03D1     		bne	.L42
 576:lvgl\src\lv_draw/lv_draw_img.c ****                                 mask_buf[px_i] = LV_OPA_TRANSP;
 1075              		.loc 1 576 0
 1076 05d4 0023     		movs	r3, #0
 1077 05d6 0AF80B30 		strb	r3, [r10, fp]
 577:lvgl\src\lv_draw/lv_draw_img.c **** #if  LV_COLOR_DEPTH == 32
 578:lvgl\src\lv_draw/lv_draw_img.c ****                                 map2[px_i].full = 0;
 579:lvgl\src\lv_draw/lv_draw_img.c **** #endif
 580:lvgl\src\lv_draw/lv_draw_img.c ****                                 continue;
 1078              		.loc 1 580 0
 1079 05da 38E0     		b	.L41
 1080              	.L42:
 581:lvgl\src\lv_draw/lv_draw_img.c ****                             }
 582:lvgl\src\lv_draw/lv_draw_img.c ****                         }
 583:lvgl\src\lv_draw/lv_draw_img.c ****                     }
 584:lvgl\src\lv_draw/lv_draw_img.c **** 
 585:lvgl\src\lv_draw/lv_draw_img.c ****                     if(draw_dsc->recolor_opa != 0) {
 1081              		.loc 1 585 0
 1082 05dc 099A     		ldr	r2, [sp, #36]
 1083 05de 927A     		ldrb	r2, [r2, #10]	@ zero_extendqisi2
 1084 05e0 92B3     		cbz	r2, .L45
 1085              	.LVL158:
 1086              	.LBB136:
 1087              	.LBB137:
 484:lvgl\src\lv_draw\../lv_misc/lv_color.h **** #else
 485:lvgl\src\lv_draw\../lv_misc/lv_color.h ****     (void) mix;
 486:lvgl\src\lv_draw\../lv_misc/lv_color.h ****     /*Pre-multiplication can't be used with 1 bpp*/
 487:lvgl\src\lv_draw\../lv_misc/lv_color.h ****     out[0] = LV_COLOR_GET_R(c);
 488:lvgl\src\lv_draw\../lv_misc/lv_color.h ****     out[1] = LV_COLOR_GET_G(c);
 489:lvgl\src\lv_draw\../lv_misc/lv_color.h ****     out[2] = LV_COLOR_GET_B(c);
 490:lvgl\src\lv_draw\../lv_misc/lv_color.h **** #endif
ARM GAS  C:\Users\strap\AppData\Local\Temp\ccUgAYbc.s 			page 52


 491:lvgl\src\lv_draw\../lv_misc/lv_color.h **** 
 492:lvgl\src\lv_draw\../lv_misc/lv_color.h **** }
 493:lvgl\src\lv_draw\../lv_misc/lv_color.h **** 
 494:lvgl\src\lv_draw\../lv_misc/lv_color.h **** 
 495:lvgl\src\lv_draw\../lv_misc/lv_color.h **** /**
 496:lvgl\src\lv_draw\../lv_misc/lv_color.h ****  * Mix two colors with a given ratio. It runs faster then `lv_color_mix` but requires some pre comp
 497:lvgl\src\lv_draw\../lv_misc/lv_color.h ****  * @param c1 The first color. Should be preprocessed with `lv_color_premult(c1)`
 498:lvgl\src\lv_draw\../lv_misc/lv_color.h ****  * @param c2 The second color. As it is no pre computation required on it
 499:lvgl\src\lv_draw\../lv_misc/lv_color.h ****  * @param mix The ratio of the colors. 0: full `c2`, 255: full `c1`, 127: half `c1` and half `c2`.
 500:lvgl\src\lv_draw\../lv_misc/lv_color.h ****  *            Should be modified like mix = `255 - mix`
 501:lvgl\src\lv_draw\../lv_misc/lv_color.h ****  * @return the mixed color
 502:lvgl\src\lv_draw\../lv_misc/lv_color.h ****  * @note 255 won't give clearly `c1`.
 503:lvgl\src\lv_draw\../lv_misc/lv_color.h ****  */
 504:lvgl\src\lv_draw\../lv_misc/lv_color.h **** LV_ATTRIBUTE_FAST_MEM static inline lv_color_t lv_color_mix_premult(uint16_t * premult_c1, lv_color
 505:lvgl\src\lv_draw\../lv_misc/lv_color.h **** {
 506:lvgl\src\lv_draw\../lv_misc/lv_color.h ****     lv_color_t ret;
 507:lvgl\src\lv_draw\../lv_misc/lv_color.h **** #if LV_COLOR_DEPTH != 1
 508:lvgl\src\lv_draw\../lv_misc/lv_color.h ****     /*LV_COLOR_DEPTH == 8, 16 or 32*/
 509:lvgl\src\lv_draw\../lv_misc/lv_color.h ****     LV_COLOR_SET_R(ret, LV_MATH_UDIV255((uint16_t) premult_c1[0] + LV_COLOR_GET_R(c2) * mix + LV_CO
 1088              		.loc 4 509 0
 1089 05e2 BDF88410 		ldrh	r1, [sp, #132]
 1090              	.LVL159:
 1091 05e6 C3F3C402 		ubfx	r2, r3, #3, #5
 1092 05ea 0F9C     		ldr	r4, [sp, #60]
 1093 05ec 04FB0212 		mla	r2, r4, r2, r1
 1094 05f0 8032     		adds	r2, r2, #128
 1095 05f2 02EB0221 		add	r1, r2, r2, lsl #8
 1096 05f6 02EBC112 		add	r2, r2, r1, lsl #7
 1097 05fa D20D     		lsrs	r2, r2, #23
 1098 05fc 62F3C709 		bfi	r9, r2, #3, #5
 510:lvgl\src\lv_draw\../lv_misc/lv_color.h ****     LV_COLOR_SET_G(ret, LV_MATH_UDIV255((uint16_t) premult_c1[1] + LV_COLOR_GET_G(c2) * mix + LV_CO
 1099              		.loc 4 510 0
 1100 0600 BDF88600 		ldrh	r0, [sp, #134]
 1101 0604 03F00702 		and	r2, r3, #7
 1102 0608 C3F34231 		ubfx	r1, r3, #13, #3
 1103 060c 01EBC202 		add	r2, r1, r2, lsl #3
 1104 0610 02FB0402 		mla	r2, r2, r4, r0
 1105 0614 8032     		adds	r2, r2, #128
 1106 0616 02EB0221 		add	r1, r2, r2, lsl #8
 1107 061a 02EBC112 		add	r2, r2, r1, lsl #7
 1108 061e 910E     		lsrs	r1, r2, #26
 1109 0620 61F30209 		bfi	r9, r1, #0, #3
 1110 0624 D20D     		lsrs	r2, r2, #23
 1111 0626 62F34F39 		bfi	r9, r2, #13, #3
 511:lvgl\src\lv_draw\../lv_misc/lv_color.h ****     LV_COLOR_SET_B(ret, LV_MATH_UDIV255((uint16_t) premult_c1[2] + LV_COLOR_GET_B(c2) * mix + LV_CO
 1112              		.loc 4 511 0
 1113 062a BDF88820 		ldrh	r2, [sp, #136]
 1114 062e C3F30423 		ubfx	r3, r3, #8, #5
 1115              	.LVL160:
 1116 0632 04FB0323 		mla	r3, r4, r3, r2
 1117 0636 8033     		adds	r3, r3, #128
 1118 0638 03EB0322 		add	r2, r3, r3, lsl #8
 1119 063c 03EBC213 		add	r3, r3, r2, lsl #7
 1120 0640 DB0D     		lsrs	r3, r3, #23
 1121 0642 63F30C29 		bfi	r9, r3, #8, #5
 1122 0646 4B46     		mov	r3, r9	@ movhi
 1123              	.LVL161:
ARM GAS  C:\Users\strap\AppData\Local\Temp\ccUgAYbc.s 			page 53


 1124              	.L45:
 1125              	.LBE137:
 1126              	.LBE136:
 586:lvgl\src\lv_draw/lv_draw_img.c ****                         c = lv_color_mix_premult(recolor_premult, c, recolor_opa_inv);
 587:lvgl\src\lv_draw/lv_draw_img.c ****                     }
 588:lvgl\src\lv_draw/lv_draw_img.c **** 
 589:lvgl\src\lv_draw/lv_draw_img.c ****                     map2[px_i].full = c.full;
 1127              		.loc 1 589 0
 1128 0648 0A9A     		ldr	r2, [sp, #40]
 1129              	.LVL162:
 1130 064a 22F81B30 		strh	r3, [r2, fp, lsl #1]	@ movhi
 1131              	.L41:
 528:lvgl\src\lv_draw/lv_draw_img.c **** 
 1132              		.loc 1 528 0 discriminator 2
 1133 064e 0136     		adds	r6, r6, #1
 1134              	.LVL163:
 1135 0650 069B     		ldr	r3, [sp, #24]
 1136              	.LVL164:
 1137 0652 9844     		add	r8, r8, r3
 1138              	.LVL165:
 1139 0654 0BF1010B 		add	fp, fp, #1
 1140              	.LVL166:
 1141              	.L25:
 528:lvgl\src\lv_draw/lv_draw_img.c **** 
 1142              		.loc 1 528 0 is_stmt 0 discriminator 1
 1143 0658 059B     		ldr	r3, [sp, #20]
 1144 065a 9E42     		cmp	r6, r3
 1145 065c FFF6BAAE 		blt	.L46
 590:lvgl\src\lv_draw/lv_draw_img.c ****                 }
 591:lvgl\src\lv_draw/lv_draw_img.c **** 
 592:lvgl\src\lv_draw/lv_draw_img.c ****                 /*Apply the masks if any*/
 593:lvgl\src\lv_draw/lv_draw_img.c ****                 if(other_mask_cnt) {
 1146              		.loc 1 593 0 is_stmt 1
 1147 0660 149B     		ldr	r3, [sp, #80]
 1148 0662 53B3     		cbz	r3, .L47
 1149              	.LBB138:
 594:lvgl\src\lv_draw/lv_draw_img.c ****                     lv_draw_mask_res_t mask_res_sub;
 595:lvgl\src\lv_draw/lv_draw_img.c ****                     mask_res_sub = lv_draw_mask_apply(mask_buf + px_i_start, draw_area.x1 + vdb->ar
 1150              		.loc 1 595 0
 1151 0664 129B     		ldr	r3, [sp, #72]
 1152 0666 5344     		add	r3, r3, r10
 1153 0668 1C46     		mov	r4, r3
 1154 066a BDF8E000 		ldrh	r0, [sp, #224]
 1155 066e 139D     		ldr	r5, [sp, #76]
 1156 0670 B5F91010 		ldrsh	r1, [r5, #16]
 1157 0674 0144     		add	r1, r1, r0
 1158 0676 BDF9E220 		ldrsh	r2, [sp, #226]
 1159 067a B5F91230 		ldrsh	r3, [r5, #18]
 1160 067e 0B9D     		ldr	r5, [sp, #44]
 1161 0680 2A44     		add	r2, r2, r5
 1162 0682 1A44     		add	r2, r2, r3
 1163              	.LVL167:
 1164              	.LBB139:
 1165              	.LBB140:
 112:lvgl\src\lv_draw\../lv_misc/lv_area.h **** }
 1166              		.loc 3 112 0
 1167 0684 BDF9E430 		ldrsh	r3, [sp, #228]
ARM GAS  C:\Users\strap\AppData\Local\Temp\ccUgAYbc.s 			page 54


 1168 0688 1B1A     		subs	r3, r3, r0
 1169 068a 0133     		adds	r3, r3, #1
 1170              	.LVL168:
 1171              	.LBE140:
 1172              	.LBE139:
 1173              		.loc 1 595 0
 1174 068c 1BB2     		sxth	r3, r3
 1175 068e 12B2     		sxth	r2, r2
 1176 0690 09B2     		sxth	r1, r1
 1177 0692 2046     		mov	r0, r4
 1178 0694 FFF7FEFF 		bl	lv_draw_mask_apply
 1179              	.LVL169:
 596:lvgl\src\lv_draw/lv_draw_img.c ****                                                       lv_area_get_width(&draw_area));
 597:lvgl\src\lv_draw/lv_draw_img.c ****                     if(mask_res_sub == LV_DRAW_MASK_RES_TRANSP) {
 1180              		.loc 1 597 0
 1181 0698 60B9     		cbnz	r0, .L48
 1182              	.LVL170:
 1183              	.LBB141:
 1184              	.LBB142:
 112:lvgl\src\lv_draw\../lv_misc/lv_area.h **** }
 1185              		.loc 3 112 0
 1186 069a BDF9E430 		ldrsh	r3, [sp, #228]
 1187 069e BDF9E010 		ldrsh	r1, [sp, #224]
 1188 06a2 591A     		subs	r1, r3, r1
 1189 06a4 0131     		adds	r1, r1, #1
 1190              	.LVL171:
 1191              	.LBE142:
 1192              	.LBE141:
 598:lvgl\src\lv_draw/lv_draw_img.c ****                         _lv_memset_00(mask_buf + px_i_start, lv_area_get_width(&draw_area));
 1193              		.loc 1 598 0
 1194 06a6 09B2     		sxth	r1, r1
 1195 06a8 2046     		mov	r0, r4
 1196              	.LVL172:
 1197 06aa FFF7FEFF 		bl	_lv_memset_00
 1198              	.LVL173:
 599:lvgl\src\lv_draw/lv_draw_img.c ****                         mask_res = LV_DRAW_MASK_RES_CHANGED;
 1199              		.loc 1 599 0
 1200 06ae 0223     		movs	r3, #2
 1201 06b0 1B93     		str	r3, [sp, #108]
 1202 06b2 02E0     		b	.L47
 1203              	.LVL174:
 1204              	.L48:
 600:lvgl\src\lv_draw/lv_draw_img.c ****                     }
 601:lvgl\src\lv_draw/lv_draw_img.c ****                     else if(mask_res_sub == LV_DRAW_MASK_RES_CHANGED) {
 1205              		.loc 1 601 0
 1206 06b4 0228     		cmp	r0, #2
 1207 06b6 00D1     		bne	.L47
 602:lvgl\src\lv_draw/lv_draw_img.c ****                         mask_res = LV_DRAW_MASK_RES_CHANGED;
 1208              		.loc 1 602 0
 1209 06b8 1B90     		str	r0, [sp, #108]
 1210              	.LVL175:
 1211              	.L47:
 1212              	.LBE138:
 603:lvgl\src\lv_draw/lv_draw_img.c ****                     }
 604:lvgl\src\lv_draw/lv_draw_img.c ****                 }
 605:lvgl\src\lv_draw/lv_draw_img.c **** 
 606:lvgl\src\lv_draw/lv_draw_img.c ****                 map_buf_tmp += map_w * px_size_byte;
ARM GAS  C:\Users\strap\AppData\Local\Temp\ccUgAYbc.s 			page 55


 1213              		.loc 1 606 0
 1214 06ba 189B     		ldr	r3, [sp, #96]
 1215 06bc 199A     		ldr	r2, [sp, #100]
 1216 06be 1099     		ldr	r1, [sp, #64]
 1217 06c0 02FB0313 		mla	r3, r2, r3, r1
 1218 06c4 1093     		str	r3, [sp, #64]
 1219              	.LVL176:
 1220              	.LBB143:
 1221              	.LBB144:
 112:lvgl\src\lv_draw\../lv_misc/lv_area.h **** }
 1222              		.loc 3 112 0
 1223 06c6 BDF9E430 		ldrsh	r3, [sp, #228]
 1224              	.LVL177:
 1225 06ca BDF9E020 		ldrsh	r2, [sp, #224]
 1226 06ce 9B1A     		subs	r3, r3, r2
 1227 06d0 0133     		adds	r3, r3, #1
 1228 06d2 1BB2     		sxth	r3, r3
 1229              	.LVL178:
 1230              	.LBE144:
 1231              	.LBE143:
 607:lvgl\src\lv_draw/lv_draw_img.c ****                 if(px_i + lv_area_get_width(&draw_area) < mask_buf_size) {
 1232              		.loc 1 607 0
 1233 06d4 5B44     		add	r3, r3, fp
 1234 06d6 169A     		ldr	r2, [sp, #88]
 1235 06d8 9A42     		cmp	r2, r3
 1236 06da 07D9     		bls	.L49
 608:lvgl\src\lv_draw/lv_draw_img.c ****                     blend_area.y2 ++;
 1237              		.loc 1 608 0
 1238 06dc BDF99230 		ldrsh	r3, [sp, #146]
 1239 06e0 0133     		adds	r3, r3, #1
 1240 06e2 ADF89230 		strh	r3, [sp, #146]	@ movhi
 1241 06e6 CDF848B0 		str	fp, [sp, #72]
 1242              	.LVL179:
 1243 06ea 37E0     		b	.L50
 1244              	.LVL180:
 1245              	.L49:
 609:lvgl\src\lv_draw/lv_draw_img.c ****                 }
 610:lvgl\src\lv_draw/lv_draw_img.c ****                 else {
 611:lvgl\src\lv_draw/lv_draw_img.c **** 
 612:lvgl\src\lv_draw/lv_draw_img.c ****                     _lv_blend_map(clip_area, &blend_area, map2, mask_buf, mask_res, draw_dsc->opa, 
 1246              		.loc 1 612 0
 1247 06ec 099C     		ldr	r4, [sp, #36]
 1248 06ee A37B     		ldrb	r3, [r4, #14]	@ zero_extendqisi2
 1249 06f0 0293     		str	r3, [sp, #8]
 1250 06f2 2378     		ldrb	r3, [r4]	@ zero_extendqisi2
 1251 06f4 0193     		str	r3, [sp, #4]
 1252 06f6 1B9B     		ldr	r3, [sp, #108]
 1253 06f8 0093     		str	r3, [sp]
 1254 06fa 5346     		mov	r3, r10
 1255 06fc 0A9A     		ldr	r2, [sp, #40]
 1256 06fe 23A9     		add	r1, sp, #140
 1257 0700 1E98     		ldr	r0, [sp, #120]
 1258 0702 FFF7FEFF 		bl	_lv_blend_map
 1259              	.LVL181:
 613:lvgl\src\lv_draw/lv_draw_img.c **** 
 614:lvgl\src\lv_draw/lv_draw_img.c ****                     blend_area.y1 = blend_area.y2 + 1;
 1260              		.loc 1 614 0
ARM GAS  C:\Users\strap\AppData\Local\Temp\ccUgAYbc.s 			page 56


 1261 0706 BDF99230 		ldrsh	r3, [sp, #146]
 1262 070a 0133     		adds	r3, r3, #1
 1263 070c 1BB2     		sxth	r3, r3
 1264 070e ADF88E30 		strh	r3, [sp, #142]	@ movhi
 615:lvgl\src\lv_draw/lv_draw_img.c ****                     blend_area.y2 = blend_area.y1;
 1265              		.loc 1 615 0
 1266 0712 ADF89230 		strh	r3, [sp, #146]	@ movhi
 1267              	.LVL182:
 616:lvgl\src\lv_draw/lv_draw_img.c **** 
 617:lvgl\src\lv_draw/lv_draw_img.c ****                     px_i = 0;
 618:lvgl\src\lv_draw/lv_draw_img.c ****                     mask_res = (alpha_byte || chroma_key || draw_dsc->angle ||
 1268              		.loc 1 618 0
 1269 0716 089B     		ldr	r3, [sp, #32]
 1270 0718 53B9     		cbnz	r3, .L70
 1271              		.loc 1 618 0 is_stmt 0 discriminator 2
 1272 071a 0D9B     		ldr	r3, [sp, #52]
 1273 071c 5BB9     		cbnz	r3, .L71
 1274              		.loc 1 618 0 discriminator 4
 1275 071e 6388     		ldrh	r3, [r4, #2]
 1276 0720 63B9     		cbnz	r3, .L72
 619:lvgl\src\lv_draw/lv_draw_img.c ****                                 draw_dsc->zoom != LV_IMG_ZOOM_NONE) ? LV_DRAW_MASK_RES_CHANGED : LV
 1277              		.loc 1 619 0 is_stmt 1 discriminator 6
 1278 0722 2389     		ldrh	r3, [r4, #8]
 618:lvgl\src\lv_draw/lv_draw_img.c ****                                 draw_dsc->zoom != LV_IMG_ZOOM_NONE) ? LV_DRAW_MASK_RES_CHANGED : LV
 1279              		.loc 1 618 0 discriminator 6
 1280 0724 B3F5807F 		cmp	r3, #256
 1281 0728 0BD0     		beq	.L73
 618:lvgl\src\lv_draw/lv_draw_img.c ****                                 draw_dsc->zoom != LV_IMG_ZOOM_NONE) ? LV_DRAW_MASK_RES_CHANGED : LV
 1282              		.loc 1 618 0 is_stmt 0
 1283 072a 0223     		movs	r3, #2
 1284 072c 1B93     		str	r3, [sp, #108]
 1285              	.LVL183:
 1286 072e 0AE0     		b	.L51
 1287              	.LVL184:
 1288              	.L70:
 1289 0730 0223     		movs	r3, #2
 1290 0732 1B93     		str	r3, [sp, #108]
 1291              	.LVL185:
 1292 0734 07E0     		b	.L51
 1293              	.LVL186:
 1294              	.L71:
 1295 0736 0223     		movs	r3, #2
 1296 0738 1B93     		str	r3, [sp, #108]
 1297              	.LVL187:
 1298 073a 04E0     		b	.L51
 1299              	.LVL188:
 1300              	.L72:
 1301 073c 0223     		movs	r3, #2
 1302 073e 1B93     		str	r3, [sp, #108]
 1303              	.LVL189:
 1304 0740 01E0     		b	.L51
 1305              	.LVL190:
 1306              	.L73:
 1307 0742 0123     		movs	r3, #1
 1308 0744 1B93     		str	r3, [sp, #108]
 1309              	.LVL191:
 1310              	.L51:
ARM GAS  C:\Users\strap\AppData\Local\Temp\ccUgAYbc.s 			page 57


 620:lvgl\src\lv_draw/lv_draw_img.c **** 
 621:lvgl\src\lv_draw/lv_draw_img.c ****                     /*Prepare the `mask_buf`if there are other masks*/
 622:lvgl\src\lv_draw/lv_draw_img.c ****                     if(other_mask_cnt) {
 1311              		.loc 1 622 0 is_stmt 1 discriminator 10
 1312 0746 149B     		ldr	r3, [sp, #80]
 1313 0748 33B1     		cbz	r3, .L74
 623:lvgl\src\lv_draw/lv_draw_img.c ****                         _lv_memset_ff(mask_buf, mask_buf_size);
 1314              		.loc 1 623 0
 1315 074a 1699     		ldr	r1, [sp, #88]
 1316 074c 5046     		mov	r0, r10
 1317 074e FFF7FEFF 		bl	_lv_memset_ff
 1318              	.LVL192:
 617:lvgl\src\lv_draw/lv_draw_img.c ****                     mask_res = (alpha_byte || chroma_key || draw_dsc->angle ||
 1319              		.loc 1 617 0
 1320 0752 0023     		movs	r3, #0
 1321 0754 1293     		str	r3, [sp, #72]
 1322              	.LVL193:
 1323 0756 01E0     		b	.L50
 1324              	.LVL194:
 1325              	.L74:
 1326 0758 0023     		movs	r3, #0
 1327 075a 1293     		str	r3, [sp, #72]
 1328              	.LVL195:
 1329              	.L50:
 1330              	.LBE122:
 521:lvgl\src\lv_draw/lv_draw_img.c ****                 map_px = map_buf_tmp;
 1331              		.loc 1 521 0 discriminator 2
 1332 075c 0B9B     		ldr	r3, [sp, #44]
 1333 075e 0133     		adds	r3, r3, #1
 1334 0760 0B93     		str	r3, [sp, #44]
 1335              	.LVL196:
 1336              	.L24:
 521:lvgl\src\lv_draw/lv_draw_img.c ****                 map_px = map_buf_tmp;
 1337              		.loc 1 521 0 is_stmt 0 discriminator 1
 1338 0762 0B9B     		ldr	r3, [sp, #44]
 1339 0764 179A     		ldr	r2, [sp, #92]
 1340 0766 9342     		cmp	r3, r2
 1341 0768 FFF623AE 		blt	.L52
 1342 076c D346     		mov	fp, r10
 624:lvgl\src\lv_draw/lv_draw_img.c ****                     }
 625:lvgl\src\lv_draw/lv_draw_img.c ****                 }
 626:lvgl\src\lv_draw/lv_draw_img.c ****             }
 627:lvgl\src\lv_draw/lv_draw_img.c **** 
 628:lvgl\src\lv_draw/lv_draw_img.c ****             /*Flush the last part*/
 629:lvgl\src\lv_draw/lv_draw_img.c ****             if(blend_area.y1 != blend_area.y2) {
 1343              		.loc 1 629 0 is_stmt 1
 1344 076e BDF98E20 		ldrsh	r2, [sp, #142]
 1345 0772 BDF99230 		ldrsh	r3, [sp, #146]
 1346 0776 9A42     		cmp	r2, r3
 1347 0778 0FD0     		beq	.L53
 630:lvgl\src\lv_draw/lv_draw_img.c ****                 blend_area.y2--;
 1348              		.loc 1 630 0
 1349 077a 013B     		subs	r3, r3, #1
 1350 077c ADF89230 		strh	r3, [sp, #146]	@ movhi
 631:lvgl\src\lv_draw/lv_draw_img.c ****                 _lv_blend_map(clip_area, &blend_area, map2, mask_buf, mask_res, draw_dsc->opa, draw
 1351              		.loc 1 631 0
 1352 0780 099A     		ldr	r2, [sp, #36]
ARM GAS  C:\Users\strap\AppData\Local\Temp\ccUgAYbc.s 			page 58


 1353 0782 937B     		ldrb	r3, [r2, #14]	@ zero_extendqisi2
 1354 0784 0293     		str	r3, [sp, #8]
 1355 0786 1378     		ldrb	r3, [r2]	@ zero_extendqisi2
 1356 0788 0193     		str	r3, [sp, #4]
 1357 078a 1B9B     		ldr	r3, [sp, #108]
 1358 078c 0093     		str	r3, [sp]
 1359 078e 5346     		mov	r3, r10
 1360 0790 0A9A     		ldr	r2, [sp, #40]
 1361 0792 23A9     		add	r1, sp, #140
 1362 0794 1E98     		ldr	r0, [sp, #120]
 1363 0796 FFF7FEFF 		bl	_lv_blend_map
 1364              	.LVL197:
 1365              	.L53:
 632:lvgl\src\lv_draw/lv_draw_img.c ****             }
 633:lvgl\src\lv_draw/lv_draw_img.c **** 
 634:lvgl\src\lv_draw/lv_draw_img.c ****             _lv_mem_buf_release(mask_buf);
 1366              		.loc 1 634 0
 1367 079a 5846     		mov	r0, fp
 1368 079c FFF7FEFF 		bl	_lv_mem_buf_release
 1369              	.LVL198:
 635:lvgl\src\lv_draw/lv_draw_img.c ****             _lv_mem_buf_release(map2);
 1370              		.loc 1 635 0
 1371 07a0 0A98     		ldr	r0, [sp, #40]
 1372 07a2 FFF7FEFF 		bl	_lv_mem_buf_release
 1373              	.LVL199:
 1374              	.L1:
 1375              	.LBE145:
 1376              	.LBE104:
 636:lvgl\src\lv_draw/lv_draw_img.c ****         }
 637:lvgl\src\lv_draw/lv_draw_img.c ****     }
 638:lvgl\src\lv_draw/lv_draw_img.c **** }
 1377              		.loc 1 638 0
 1378 07a6 3BB0     		add	sp, sp, #236
 1379              		.cfi_def_cfa_offset 36
 1380              		@ sp needed
 1381 07a8 BDE8F08F 		pop	{r4, r5, r6, r7, r8, r9, r10, fp, pc}
 1382              	.LVL200:
 1383              	.L77:
 1384              		.align	2
 1385              	.L76:
 1386 07ac 07E0     		.short	-8185
 1387 07ae 0000     		.space	2
 1388              		.cfi_endproc
 1389              	.LFE335:
 1390              		.size	lv_draw_map, .-lv_draw_map
 1391              		.section	.text.show_error,"ax",%progbits
 1392              		.align	2
 1393              		.thumb
 1394              		.thumb_func
 1395              		.type	show_error, %function
 1396              	show_error:
 1397              	.LFB336:
 639:lvgl\src\lv_draw/lv_draw_img.c **** 
 640:lvgl\src\lv_draw/lv_draw_img.c **** static void show_error(const lv_area_t * coords, const lv_area_t * clip_area, const char * msg)
 641:lvgl\src\lv_draw/lv_draw_img.c **** {
 1398              		.loc 1 641 0
 1399              		.cfi_startproc
ARM GAS  C:\Users\strap\AppData\Local\Temp\ccUgAYbc.s 			page 59


 1400              		@ args = 0, pretend = 0, frame = 120
 1401              		@ frame_needed = 0, uses_anonymous_args = 0
 1402              	.LVL201:
 1403 0000 70B5     		push	{r4, r5, r6, lr}
 1404              		.cfi_def_cfa_offset 16
 1405              		.cfi_offset 4, -16
 1406              		.cfi_offset 5, -12
 1407              		.cfi_offset 6, -8
 1408              		.cfi_offset 14, -4
 1409 0002 A0B0     		sub	sp, sp, #128
 1410              		.cfi_def_cfa_offset 144
 1411 0004 0446     		mov	r4, r0
 1412 0006 0D46     		mov	r5, r1
 1413 0008 1646     		mov	r6, r2
 642:lvgl\src\lv_draw/lv_draw_img.c ****     lv_draw_rect_dsc_t rect_dsc;
 643:lvgl\src\lv_draw/lv_draw_img.c ****     lv_draw_rect_dsc_init(&rect_dsc);
 1414              		.loc 1 643 0
 1415 000a 0BA8     		add	r0, sp, #44
 1416              	.LVL202:
 1417 000c FFF7FEFF 		bl	lv_draw_rect_dsc_init
 1418              	.LVL203:
 644:lvgl\src\lv_draw/lv_draw_img.c ****     rect_dsc.bg_color = LV_COLOR_WHITE;
 1419              		.loc 1 644 0
 1420 0010 0A4B     		ldr	r3, .L80
 1421 0012 1B88     		ldrh	r3, [r3]
 1422 0014 ADF82E30 		strh	r3, [sp, #46]	@ movhi
 645:lvgl\src\lv_draw/lv_draw_img.c ****     lv_draw_rect(coords, clip_area, &rect_dsc);
 1423              		.loc 1 645 0
 1424 0018 0BAA     		add	r2, sp, #44
 1425 001a 2946     		mov	r1, r5
 1426 001c 2046     		mov	r0, r4
 1427 001e FFF7FEFF 		bl	lv_draw_rect
 1428              	.LVL204:
 646:lvgl\src\lv_draw/lv_draw_img.c **** 
 647:lvgl\src\lv_draw/lv_draw_img.c ****     lv_draw_label_dsc_t label_dsc;
 648:lvgl\src\lv_draw/lv_draw_img.c ****     lv_draw_label_dsc_init(&label_dsc);
 1429              		.loc 1 648 0
 1430 0022 02A8     		add	r0, sp, #8
 1431 0024 FFF7FEFF 		bl	lv_draw_label_dsc_init
 1432              	.LVL205:
 649:lvgl\src\lv_draw/lv_draw_img.c ****     lv_draw_label(coords, clip_area, &label_dsc, msg, NULL);
 1433              		.loc 1 649 0
 1434 0028 0023     		movs	r3, #0
 1435 002a 0093     		str	r3, [sp]
 1436 002c 3346     		mov	r3, r6
 1437 002e 02AA     		add	r2, sp, #8
 1438 0030 2946     		mov	r1, r5
 1439 0032 2046     		mov	r0, r4
 1440 0034 FFF7FEFF 		bl	lv_draw_label
 1441              	.LVL206:
 650:lvgl\src\lv_draw/lv_draw_img.c **** }
 1442              		.loc 1 650 0
 1443 0038 20B0     		add	sp, sp, #128
 1444              		.cfi_def_cfa_offset 16
 1445              		@ sp needed
 1446 003a 70BD     		pop	{r4, r5, r6, pc}
 1447              	.LVL207:
ARM GAS  C:\Users\strap\AppData\Local\Temp\ccUgAYbc.s 			page 60


 1448              	.L81:
 1449              		.align	2
 1450              	.L80:
 1451 003c 00000000 		.word	.LANCHOR0
 1452              		.cfi_endproc
 1453              	.LFE336:
 1454              		.size	show_error, .-show_error
 1455              		.section	.text.lv_draw_img_dsc_init,"ax",%progbits
 1456              		.align	2
 1457              		.global	lv_draw_img_dsc_init
 1458              		.thumb
 1459              		.thumb_func
 1460              		.type	lv_draw_img_dsc_init, %function
 1461              	lv_draw_img_dsc_init:
 1462              	.LFB328:
  57:lvgl\src\lv_draw/lv_draw_img.c ****     _lv_memset_00(dsc, sizeof(lv_draw_img_dsc_t));
 1463              		.loc 1 57 0
 1464              		.cfi_startproc
 1465              		@ args = 0, pretend = 0, frame = 0
 1466              		@ frame_needed = 0, uses_anonymous_args = 0
 1467              	.LVL208:
 1468 0000 10B5     		push	{r4, lr}
 1469              		.cfi_def_cfa_offset 8
 1470              		.cfi_offset 4, -8
 1471              		.cfi_offset 14, -4
 1472 0002 0446     		mov	r4, r0
  58:lvgl\src\lv_draw/lv_draw_img.c ****     dsc->recolor = LV_COLOR_BLACK;
 1473              		.loc 1 58 0
 1474 0004 1021     		movs	r1, #16
 1475 0006 FFF7FEFF 		bl	_lv_memset_00
 1476              	.LVL209:
  59:lvgl\src\lv_draw/lv_draw_img.c ****     dsc->opa = LV_OPA_COVER;
 1477              		.loc 1 59 0
 1478 000a 0023     		movs	r3, #0
 1479 000c A381     		strh	r3, [r4, #12]	@ movhi
  60:lvgl\src\lv_draw/lv_draw_img.c ****     dsc->zoom = LV_IMG_ZOOM_NONE;
 1480              		.loc 1 60 0
 1481 000e FF23     		movs	r3, #255
 1482 0010 2370     		strb	r3, [r4]
  61:lvgl\src\lv_draw/lv_draw_img.c ****     dsc->antialias = LV_ANTIALIAS;
 1483              		.loc 1 61 0
 1484 0012 4FF48073 		mov	r3, #256
 1485 0016 2381     		strh	r3, [r4, #8]	@ movhi
  62:lvgl\src\lv_draw/lv_draw_img.c **** 
 1486              		.loc 1 62 0
 1487 0018 E37B     		ldrb	r3, [r4, #15]	@ zero_extendqisi2
 1488 001a 43F00103 		orr	r3, r3, #1
 1489 001e E373     		strb	r3, [r4, #15]
 1490 0020 10BD     		pop	{r4, pc}
 1491              		.cfi_endproc
 1492              	.LFE328:
 1493              		.size	lv_draw_img_dsc_init, .-lv_draw_img_dsc_init
 1494 0022 00BF     		.section	.text.lv_img_cf_get_px_size,"ax",%progbits
 1495              		.align	2
 1496              		.global	lv_img_cf_get_px_size
 1497              		.thumb
 1498              		.thumb_func
ARM GAS  C:\Users\strap\AppData\Local\Temp\ccUgAYbc.s 			page 61


 1499              		.type	lv_img_cf_get_px_size, %function
 1500              	lv_img_cf_get_px_size:
 1501              	.LFB330:
  99:lvgl\src\lv_draw/lv_draw_img.c ****     uint8_t px_size = 0;
 1502              		.loc 1 99 0
 1503              		.cfi_startproc
 1504              		@ args = 0, pretend = 0, frame = 0
 1505              		@ frame_needed = 0, uses_anonymous_args = 0
 1506              		@ link register save eliminated.
 1507              	.LVL210:
 102:lvgl\src\lv_draw/lv_draw_img.c ****         case LV_IMG_CF_UNKNOWN:
 1508              		.loc 1 102 0
 1509 0000 0438     		subs	r0, r0, #4
 1510              	.LVL211:
 1511 0002 0A28     		cmp	r0, #10
 1512 0004 07D8     		bhi	.L85
 1513 0006 DFE800F0 		tbb	[pc, r0]
 1514              	.L87:
 1515 000a 12       		.byte	(.L93-.L87)/2
 1516 000b 08       		.byte	(.L88-.L87)/2
 1517 000c 12       		.byte	(.L93-.L87)/2
 1518 000d 0A       		.byte	(.L89-.L87)/2
 1519 000e 0C       		.byte	(.L90-.L87)/2
 1520 000f 0E       		.byte	(.L91-.L87)/2
 1521 0010 10       		.byte	(.L92-.L87)/2
 1522 0011 0A       		.byte	(.L89-.L87)/2
 1523 0012 0C       		.byte	(.L90-.L87)/2
 1524 0013 0E       		.byte	(.L91-.L87)/2
 1525 0014 10       		.byte	(.L92-.L87)/2
 1526 0015 00       		.p2align 1
 1527              	.L85:
 105:lvgl\src\lv_draw/lv_draw_img.c ****             break;
 1528              		.loc 1 105 0
 1529 0016 0020     		movs	r0, #0
 1530 0018 7047     		bx	lr
 1531              	.L88:
 1532              	.LVL212:
 112:lvgl\src\lv_draw/lv_draw_img.c ****             break;
 1533              		.loc 1 112 0
 1534 001a 1820     		movs	r0, #24
 113:lvgl\src\lv_draw/lv_draw_img.c ****         case LV_IMG_CF_INDEXED_1BIT:
 1535              		.loc 1 113 0
 1536 001c 7047     		bx	lr
 1537              	.LVL213:
 1538              	.L89:
 116:lvgl\src\lv_draw/lv_draw_img.c ****             break;
 1539              		.loc 1 116 0
 1540 001e 0120     		movs	r0, #1
 117:lvgl\src\lv_draw/lv_draw_img.c ****         case LV_IMG_CF_INDEXED_2BIT:
 1541              		.loc 1 117 0
 1542 0020 7047     		bx	lr
 1543              	.LVL214:
 1544              	.L90:
 120:lvgl\src\lv_draw/lv_draw_img.c ****             break;
 1545              		.loc 1 120 0
 1546 0022 0220     		movs	r0, #2
 121:lvgl\src\lv_draw/lv_draw_img.c ****         case LV_IMG_CF_INDEXED_4BIT:
ARM GAS  C:\Users\strap\AppData\Local\Temp\ccUgAYbc.s 			page 62


 1547              		.loc 1 121 0
 1548 0024 7047     		bx	lr
 1549              	.LVL215:
 1550              	.L91:
 124:lvgl\src\lv_draw/lv_draw_img.c ****             break;
 1551              		.loc 1 124 0
 1552 0026 0420     		movs	r0, #4
 125:lvgl\src\lv_draw/lv_draw_img.c ****         case LV_IMG_CF_INDEXED_8BIT:
 1553              		.loc 1 125 0
 1554 0028 7047     		bx	lr
 1555              	.LVL216:
 1556              	.L92:
 128:lvgl\src\lv_draw/lv_draw_img.c ****             break;
 1557              		.loc 1 128 0
 1558 002a 0820     		movs	r0, #8
 129:lvgl\src\lv_draw/lv_draw_img.c ****         default:
 1559              		.loc 1 129 0
 1560 002c 7047     		bx	lr
 1561              	.LVL217:
 1562              	.L93:
 109:lvgl\src\lv_draw/lv_draw_img.c ****             break;
 1563              		.loc 1 109 0
 1564 002e 1020     		movs	r0, #16
 1565              	.LVL218:
 136:lvgl\src\lv_draw/lv_draw_img.c **** 
 1566              		.loc 1 136 0
 1567 0030 7047     		bx	lr
 1568              		.cfi_endproc
 1569              	.LFE330:
 1570              		.size	lv_img_cf_get_px_size, .-lv_img_cf_get_px_size
 1571 0032 00BF     		.section	.text.lv_img_cf_is_chroma_keyed,"ax",%progbits
 1572              		.align	2
 1573              		.global	lv_img_cf_is_chroma_keyed
 1574              		.thumb
 1575              		.thumb_func
 1576              		.type	lv_img_cf_is_chroma_keyed, %function
 1577              	lv_img_cf_is_chroma_keyed:
 1578              	.LFB331:
 144:lvgl\src\lv_draw/lv_draw_img.c ****     bool is_chroma_keyed = false;
 1579              		.loc 1 144 0
 1580              		.cfi_startproc
 1581              		@ args = 0, pretend = 0, frame = 0
 1582              		@ frame_needed = 0, uses_anonymous_args = 0
 1583              		@ link register save eliminated.
 1584              	.LVL219:
 147:lvgl\src\lv_draw/lv_draw_img.c ****         case LV_IMG_CF_TRUE_COLOR_CHROMA_KEYED:
 1585              		.loc 1 147 0
 1586 0000 0328     		cmp	r0, #3
 1587 0002 03D0     		beq	.L96
 1588 0004 04D3     		bcc	.L97
 1589 0006 0638     		subs	r0, r0, #6
 1590              	.LVL220:
 1591 0008 0428     		cmp	r0, #4
 1592 000a 01D8     		bhi	.L97
 1593              	.L96:
 154:lvgl\src\lv_draw/lv_draw_img.c ****             break;
 1594              		.loc 1 154 0
ARM GAS  C:\Users\strap\AppData\Local\Temp\ccUgAYbc.s 			page 63


 1595 000c 0120     		movs	r0, #1
 1596 000e 7047     		bx	lr
 1597              	.L97:
 158:lvgl\src\lv_draw/lv_draw_img.c ****             break;
 1598              		.loc 1 158 0
 1599 0010 0020     		movs	r0, #0
 1600              	.LVL221:
 163:lvgl\src\lv_draw/lv_draw_img.c **** 
 1601              		.loc 1 163 0
 1602 0012 7047     		bx	lr
 1603              		.cfi_endproc
 1604              	.LFE331:
 1605              		.size	lv_img_cf_is_chroma_keyed, .-lv_img_cf_is_chroma_keyed
 1606              		.section	.text.lv_img_cf_has_alpha,"ax",%progbits
 1607              		.align	2
 1608              		.global	lv_img_cf_has_alpha
 1609              		.thumb
 1610              		.thumb_func
 1611              		.type	lv_img_cf_has_alpha, %function
 1612              	lv_img_cf_has_alpha:
 1613              	.LFB332:
 171:lvgl\src\lv_draw/lv_draw_img.c ****     bool has_alpha = false;
 1614              		.loc 1 171 0
 1615              		.cfi_startproc
 1616              		@ args = 0, pretend = 0, frame = 0
 1617              		@ frame_needed = 0, uses_anonymous_args = 0
 1618              		@ link register save eliminated.
 1619              	.LVL222:
 174:lvgl\src\lv_draw/lv_draw_img.c ****         case LV_IMG_CF_TRUE_COLOR_ALPHA:
 1620              		.loc 1 174 0
 1621 0000 0238     		subs	r0, r0, #2
 1622              	.LVL223:
 1623 0002 0C28     		cmp	r0, #12
 1624 0004 0AD8     		bhi	.L102
 1625 0006 DFE800F0 		tbb	[pc, r0]
 1626              	.L101:
 1627 000a 07       		.byte	(.L100-.L101)/2
 1628 000b 09       		.byte	(.L102-.L101)/2
 1629 000c 09       		.byte	(.L102-.L101)/2
 1630 000d 07       		.byte	(.L100-.L101)/2
 1631 000e 09       		.byte	(.L102-.L101)/2
 1632 000f 07       		.byte	(.L100-.L101)/2
 1633 0010 07       		.byte	(.L100-.L101)/2
 1634 0011 07       		.byte	(.L100-.L101)/2
 1635 0012 07       		.byte	(.L100-.L101)/2
 1636 0013 07       		.byte	(.L100-.L101)/2
 1637 0014 07       		.byte	(.L100-.L101)/2
 1638 0015 07       		.byte	(.L100-.L101)/2
 1639 0016 07       		.byte	(.L100-.L101)/2
 1640 0017 00       		.p2align 1
 1641              	.L100:
 185:lvgl\src\lv_draw/lv_draw_img.c ****             break;
 1642              		.loc 1 185 0
 1643 0018 0120     		movs	r0, #1
 1644 001a 7047     		bx	lr
 1645              	.L102:
 188:lvgl\src\lv_draw/lv_draw_img.c ****             break;
ARM GAS  C:\Users\strap\AppData\Local\Temp\ccUgAYbc.s 			page 64


 1646              		.loc 1 188 0
 1647 001c 0020     		movs	r0, #0
 1648              	.LVL224:
 193:lvgl\src\lv_draw/lv_draw_img.c **** 
 1649              		.loc 1 193 0
 1650 001e 7047     		bx	lr
 1651              		.cfi_endproc
 1652              	.LFE332:
 1653              		.size	lv_img_cf_has_alpha, .-lv_img_cf_has_alpha
 1654              		.section	.text.lv_img_draw_core,"ax",%progbits
 1655              		.align	2
 1656              		.thumb
 1657              		.thumb_func
 1658              		.type	lv_img_draw_core, %function
 1659              	lv_img_draw_core:
 1660              	.LFB334:
 235:lvgl\src\lv_draw/lv_draw_img.c ****     if(draw_dsc->opa <= LV_OPA_MIN) return LV_RES_OK;
 1661              		.loc 1 235 0
 1662              		.cfi_startproc
 1663              		@ args = 0, pretend = 0, frame = 48
 1664              		@ frame_needed = 0, uses_anonymous_args = 0
 1665              	.LVL225:
 1666 0000 2DE9F04F 		push	{r4, r5, r6, r7, r8, r9, r10, fp, lr}
 1667              		.cfi_def_cfa_offset 36
 1668              		.cfi_offset 4, -36
 1669              		.cfi_offset 5, -32
 1670              		.cfi_offset 6, -28
 1671              		.cfi_offset 7, -24
 1672              		.cfi_offset 8, -20
 1673              		.cfi_offset 9, -16
 1674              		.cfi_offset 10, -12
 1675              		.cfi_offset 11, -8
 1676              		.cfi_offset 14, -4
 1677 0004 8FB0     		sub	sp, sp, #60
 1678              		.cfi_def_cfa_offset 96
 236:lvgl\src\lv_draw/lv_draw_img.c **** 
 1679              		.loc 1 236 0
 1680 0006 1C78     		ldrb	r4, [r3]	@ zero_extendqisi2
 1681 0008 022C     		cmp	r4, #2
 1682 000a 40F2E480 		bls	.L120
 1683 000e 1C46     		mov	r4, r3
 1684 0010 0E46     		mov	r6, r1
 1685 0012 0546     		mov	r5, r0
 238:lvgl\src\lv_draw/lv_draw_img.c **** 
 1686              		.loc 1 238 0
 1687 0014 9989     		ldrh	r1, [r3, #12]
 1688              	.LVL226:
 1689 0016 1046     		mov	r0, r2
 1690              	.LVL227:
 1691 0018 FFF7FEFF 		bl	_lv_img_cache_open
 1692              	.LVL228:
 240:lvgl\src\lv_draw/lv_draw_img.c **** 
 1693              		.loc 1 240 0
 1694 001c 0746     		mov	r7, r0
 1695 001e 0028     		cmp	r0, #0
 1696 0020 00F0DB80 		beq	.L121
 242:lvgl\src\lv_draw/lv_draw_img.c ****     bool alpha_byte   = lv_img_cf_has_alpha(cdsc->dec_dsc.header.cf);
ARM GAS  C:\Users\strap\AppData\Local\Temp\ccUgAYbc.s 			page 65


 1697              		.loc 1 242 0
 1698 0024 90F80C90 		ldrb	r9, [r0, #12]	@ zero_extendqisi2
 1699 0028 09F01F09 		and	r9, r9, #31
 1700 002c 4846     		mov	r0, r9
 1701              	.LVL229:
 1702 002e FFF7FEFF 		bl	lv_img_cf_is_chroma_keyed
 1703              	.LVL230:
 1704 0032 8046     		mov	r8, r0
 1705              	.LVL231:
 243:lvgl\src\lv_draw/lv_draw_img.c **** 
 1706              		.loc 1 243 0
 1707 0034 4846     		mov	r0, r9
 1708 0036 FFF7FEFF 		bl	lv_img_cf_has_alpha
 1709              	.LVL232:
 1710 003a 8146     		mov	r9, r0
 1711              	.LVL233:
 245:lvgl\src\lv_draw/lv_draw_img.c ****         LV_LOG_WARN("Image draw error");
 1712              		.loc 1 245 0
 1713 003c BA69     		ldr	r2, [r7, #24]
 1714 003e 2AB1     		cbz	r2, .L105
 248:lvgl\src\lv_draw/lv_draw_img.c ****     }
 1715              		.loc 1 248 0
 1716 0040 3146     		mov	r1, r6
 1717 0042 2846     		mov	r0, r5
 1718 0044 FFF7FEFF 		bl	show_error
 1719              	.LVL234:
 321:lvgl\src\lv_draw/lv_draw_img.c **** }
 1720              		.loc 1 321 0
 1721 0048 0120     		movs	r0, #1
 1722 004a C7E0     		b	.L104
 1723              	.L105:
 252:lvgl\src\lv_draw/lv_draw_img.c ****         lv_area_t map_area_rot;
 1724              		.loc 1 252 0
 1725 004c 3B69     		ldr	r3, [r7, #16]
 1726 004e 33B9     		cbnz	r3, .L122
 1727 0050 52E0     		b	.L124
 1728              	.LVL235:
 1729              	.L108:
 1730              	.LBB146:
 1731              	.LBB147:
 1732              	.LBB148:
 1733              	.LBB149:
 220:lvgl\src\lv_draw\../lv_misc/lv_mem.h ****         d8++;
 1734              		.loc 2 220 0
 1735 0052 11F8010B 		ldrb	r0, [r1], #1	@ zero_extendqisi2
 1736              	.LVL236:
 1737 0056 02F8010B 		strb	r0, [r2], #1
 1738              	.LVL237:
 1739              		.loc 2 223 0
 1740 005a 013B     		subs	r3, r3, #1
 1741              	.LVL238:
 1742 005c 02E0     		b	.L106
 1743              	.LVL239:
 1744              	.L122:
 1745              	.LBE149:
 1746              	.LBE148:
 1747              	.LBE147:
ARM GAS  C:\Users\strap\AppData\Local\Temp\ccUgAYbc.s 			page 66


 1748              	.LBE146:
 1749 005e 2946     		mov	r1, r5
 1750 0060 0AAA     		add	r2, sp, #40
 1751 0062 0823     		movs	r3, #8
 1752              	.L106:
 1753              	.LVL240:
 1754              	.LBB158:
 1755              	.LBB152:
 1756              	.LBB151:
 1757              	.LBB150:
 219:lvgl\src\lv_draw\../lv_misc/lv_mem.h ****         *d8 = *s8;
 1758              		.loc 2 219 0
 1759 0064 002B     		cmp	r3, #0
 1760 0066 F4D1     		bne	.L108
 1761              	.LVL241:
 1762              	.LBE150:
 1763              	.LBE151:
 1764              	.LBE152:
 255:lvgl\src\lv_draw/lv_draw_img.c ****             int32_t w = lv_area_get_width(coords);
 1765              		.loc 1 255 0
 1766 0068 6388     		ldrh	r3, [r4, #2]
 1767 006a 1BB9     		cbnz	r3, .L109
 255:lvgl\src\lv_draw/lv_draw_img.c ****             int32_t w = lv_area_get_width(coords);
 1768              		.loc 1 255 0 is_stmt 0 discriminator 1
 1769 006c 2289     		ldrh	r2, [r4, #8]
 1770              	.LVL242:
 1771 006e B2F5807F 		cmp	r2, #256
 1772 0072 2DD0     		beq	.L110
 1773              	.L109:
 1774              	.LVL243:
 1775              	.LBB153:
 1776              	.LBB154:
 1777              	.LBB155:
 112:lvgl\src\lv_draw\../lv_misc/lv_area.h **** }
 1778              		.loc 3 112 0 is_stmt 1
 1779 0074 B5F90420 		ldrsh	r2, [r5, #4]
 1780 0078 B5F90010 		ldrsh	r1, [r5]
 1781              	.LVL244:
 1782 007c 511A     		subs	r1, r2, r1
 1783 007e 0131     		adds	r1, r1, #1
 1784              	.LVL245:
 1785              	.LBE155:
 1786              	.LBE154:
 1787              	.LBB156:
 1788              	.LBB157:
 1789              		.loc 3 122 0
 1790 0080 B5F90620 		ldrsh	r2, [r5, #6]
 1791 0084 B5F90200 		ldrsh	r0, [r5, #2]
 1792 0088 121A     		subs	r2, r2, r0
 1793 008a 0132     		adds	r2, r2, #1
 1794              	.LVL246:
 1795              	.LBE157:
 1796              	.LBE156:
 259:lvgl\src\lv_draw/lv_draw_img.c **** 
 1797              		.loc 1 259 0
 1798 008c 201D     		adds	r0, r4, #4
 1799 008e 0190     		str	r0, [sp, #4]
ARM GAS  C:\Users\strap\AppData\Local\Temp\ccUgAYbc.s 			page 67


 1800 0090 2089     		ldrh	r0, [r4, #8]
 1801 0092 0090     		str	r0, [sp]
 1802 0094 1BB2     		sxth	r3, r3
 1803 0096 12B2     		sxth	r2, r2
 1804              	.LVL247:
 1805 0098 09B2     		sxth	r1, r1
 1806              	.LVL248:
 1807 009a 0AA8     		add	r0, sp, #40
 1808 009c FFF7FEFF 		bl	_lv_img_buf_get_transformed_area
 1809              	.LVL249:
 261:lvgl\src\lv_draw/lv_draw_img.c ****             map_area_rot.y1 += coords->y1;
 1810              		.loc 1 261 0
 1811 00a0 B5F900E0 		ldrsh	lr, [r5]
 1812 00a4 BDF82830 		ldrh	r3, [sp, #40]
 1813 00a8 7344     		add	r3, r3, lr
 1814 00aa ADF82830 		strh	r3, [sp, #40]	@ movhi
 262:lvgl\src\lv_draw/lv_draw_img.c ****             map_area_rot.x2 += coords->x1;
 1815              		.loc 1 262 0
 1816 00ae B5F90200 		ldrsh	r0, [r5, #2]
 1817 00b2 BDF82A10 		ldrh	r1, [sp, #42]
 1818 00b6 0144     		add	r1, r1, r0
 1819 00b8 ADF82A10 		strh	r1, [sp, #42]	@ movhi
 263:lvgl\src\lv_draw/lv_draw_img.c ****             map_area_rot.y2 += coords->y1;
 1820              		.loc 1 263 0
 1821 00bc BDF82C20 		ldrh	r2, [sp, #44]
 1822 00c0 7244     		add	r2, r2, lr
 1823 00c2 ADF82C20 		strh	r2, [sp, #44]	@ movhi
 264:lvgl\src\lv_draw/lv_draw_img.c ****         }
 1824              		.loc 1 264 0
 1825 00c6 BDF82E30 		ldrh	r3, [sp, #46]
 1826 00ca 0344     		add	r3, r3, r0
 1827 00cc ADF82E30 		strh	r3, [sp, #46]	@ movhi
 1828              	.L110:
 1829              	.LBE153:
 269:lvgl\src\lv_draw/lv_draw_img.c ****         if(union_ok == false) {
 1830              		.loc 1 269 0
 1831 00d0 0AAA     		add	r2, sp, #40
 1832 00d2 3146     		mov	r1, r6
 1833 00d4 0CA8     		add	r0, sp, #48
 1834 00d6 FFF7FEFF 		bl	_lv_area_intersect
 1835              	.LVL250:
 270:lvgl\src\lv_draw/lv_draw_img.c ****             return LV_RES_OK; /*Out of mask. There is nothing to draw so the image is drawn
 1836              		.loc 1 270 0
 1837 00da 08B9     		cbnz	r0, .L111
 271:lvgl\src\lv_draw/lv_draw_img.c ****                                  successfully.*/
 1838              		.loc 1 271 0
 1839 00dc 0120     		movs	r0, #1
 1840              	.LVL251:
 1841 00de 7DE0     		b	.L104
 1842              	.LVL252:
 1843              	.L111:
 275:lvgl\src\lv_draw/lv_draw_img.c ****     }
 1844              		.loc 1 275 0
 1845 00e0 3A69     		ldr	r2, [r7, #16]
 1846 00e2 CDF80490 		str	r9, [sp, #4]
 1847 00e6 CDF80080 		str	r8, [sp]
 1848 00ea 2346     		mov	r3, r4
ARM GAS  C:\Users\strap\AppData\Local\Temp\ccUgAYbc.s 			page 68


 1849 00ec 0CA9     		add	r1, sp, #48
 1850 00ee 2846     		mov	r0, r5
 1851              	.LVL253:
 1852 00f0 FFF7FEFF 		bl	lv_draw_map
 1853              	.LVL254:
 1854              	.LBE158:
 321:lvgl\src\lv_draw/lv_draw_img.c **** }
 1855              		.loc 1 321 0
 1856 00f4 0120     		movs	r0, #1
 1857 00f6 71E0     		b	.L104
 1858              	.L124:
 1859              	.LBB159:
 281:lvgl\src\lv_draw/lv_draw_img.c ****         if(union_ok == false) {
 1860              		.loc 1 281 0
 1861 00f8 2A46     		mov	r2, r5
 1862 00fa 3146     		mov	r1, r6
 1863 00fc 08A8     		add	r0, sp, #32
 1864 00fe FFF7FEFF 		bl	_lv_area_intersect
 1865              	.LVL255:
 282:lvgl\src\lv_draw/lv_draw_img.c ****             return LV_RES_OK; /*Out of mask. There is nothing to draw so the image is drawn
 1866              		.loc 1 282 0
 1867 0102 0028     		cmp	r0, #0
 1868 0104 65D0     		beq	.L123
 1869              	.LVL256:
 1870              	.LBB160:
 1871              	.LBB161:
 112:lvgl\src\lv_draw\../lv_misc/lv_area.h **** }
 1872              		.loc 3 112 0
 1873 0106 BDF92430 		ldrsh	r3, [sp, #36]
 1874 010a 0DF1380A 		add	r10, sp, #56
 1875 010e 3AF9182D 		ldrsh	r2, [r10, #-24]!
 1876 0112 9B1A     		subs	r3, r3, r2
 1877 0114 0133     		adds	r3, r3, #1
 1878 0116 1BB2     		sxth	r3, r3
 1879 0118 0393     		str	r3, [sp, #12]
 1880              	.LVL257:
 1881              	.LBE161:
 1882              	.LBE160:
 289:lvgl\src\lv_draw/lv_draw_img.c ****                                          LV_IMG_PX_SIZE_ALPHA_BYTE);  /*+1 because of the possible 
 1883              		.loc 1 289 0
 1884 011a 03EB4300 		add	r0, r3, r3, lsl #1
 1885              	.LVL258:
 1886 011e FFF7FEFF 		bl	_lv_mem_buf_get
 1887              	.LVL259:
 1888 0122 0790     		str	r0, [sp, #28]
 1889              	.LVL260:
 1890              	.LBB162:
 1891              	.LBB163:
 1892              	.LBB164:
 216:lvgl\src\lv_draw\../lv_misc/lv_mem.h ****     const uint8_t * s8 = (const uint8_t *)src;
 1893              		.loc 2 216 0
 1894 0124 0AAA     		add	r2, sp, #40
 1895              	.LVL261:
 1896              	.LBE164:
 1897              	.LBE163:
 1898              	.LBE162:
 289:lvgl\src\lv_draw/lv_draw_img.c ****                                          LV_IMG_PX_SIZE_ALPHA_BYTE);  /*+1 because of the possible 
ARM GAS  C:\Users\strap\AppData\Local\Temp\ccUgAYbc.s 			page 69


 1899              		.loc 1 289 0
 1900 0126 0823     		movs	r3, #8
 1901 0128 04E0     		b	.L113
 1902              	.LVL262:
 1903              	.L114:
 1904              	.LBB167:
 1905              	.LBB166:
 1906              	.LBB165:
 220:lvgl\src\lv_draw\../lv_misc/lv_mem.h ****         d8++;
 1907              		.loc 2 220 0
 1908 012a 1AF8011B 		ldrb	r1, [r10], #1	@ zero_extendqisi2
 1909              	.LVL263:
 1910 012e 02F8011B 		strb	r1, [r2], #1
 1911              	.LVL264:
 1912              		.loc 2 223 0
 1913 0132 013B     		subs	r3, r3, #1
 1914              	.LVL265:
 1915              	.L113:
 219:lvgl\src\lv_draw\../lv_misc/lv_mem.h ****         *d8 = *s8;
 1916              		.loc 2 219 0
 1917 0134 002B     		cmp	r3, #0
 1918 0136 F8D1     		bne	.L114
 1919              	.LVL266:
 1920              	.LBE165:
 1921              	.LBE166:
 1922              	.LBE167:
 294:lvgl\src\lv_draw/lv_draw_img.c ****         int32_t x = mask_com.x1 - coords->x1;
 1923              		.loc 1 294 0
 1924 0138 0121     		movs	r1, #1
 1925 013a 0AA8     		add	r0, sp, #40
 1926              	.LVL267:
 1927 013c FFF7FEFF 		bl	lv_area_set_height
 1928              	.LVL268:
 295:lvgl\src\lv_draw/lv_draw_img.c ****         int32_t y = mask_com.y1 - coords->y1;
 1929              		.loc 1 295 0
 1930 0140 BDF92030 		ldrsh	r3, [sp, #32]
 1931 0144 B5F900B0 		ldrsh	fp, [r5]
 1932              	.LVL269:
 296:lvgl\src\lv_draw/lv_draw_img.c ****         int32_t row;
 1933              		.loc 1 296 0
 1934 0148 BDF922A0 		ldrsh	r10, [sp, #34]
 1935              	.LVL270:
 1936 014c B5F90250 		ldrsh	r5, [r5, #2]
 1937              	.LVL271:
 1938 0150 C5EB0A05 		rsb	r5, r5, r10
 1939              	.LVL272:
 1940 0154 0497     		str	r7, [sp, #16]
 1941 0156 079F     		ldr	r7, [sp, #28]
 1942              	.LVL273:
 1943 0158 0694     		str	r4, [sp, #24]
 1944 015a 4446     		mov	r4, r8
 1945              	.LVL274:
 1946 015c 9846     		mov	r8, r3
 1947              	.LVL275:
 299:lvgl\src\lv_draw/lv_draw_img.c ****             lv_area_t mask_line;
 1948              		.loc 1 299 0
 1949 015e 2FE0     		b	.L115
ARM GAS  C:\Users\strap\AppData\Local\Temp\ccUgAYbc.s 			page 70


 1950              	.LVL276:
 1951              	.L119:
 1952              	.LBB168:
 301:lvgl\src\lv_draw/lv_draw_img.c ****             if(union_ok == false) continue;
 1953              		.loc 1 301 0
 1954 0160 0AAA     		add	r2, sp, #40
 1955 0162 3146     		mov	r1, r6
 1956 0164 0CA8     		add	r0, sp, #48
 1957 0166 FFF7FEFF 		bl	_lv_area_intersect
 1958              	.LVL277:
 302:lvgl\src\lv_draw/lv_draw_img.c **** 
 1959              		.loc 1 302 0
 1960 016a 38B3     		cbz	r0, .L117
 304:lvgl\src\lv_draw/lv_draw_img.c ****             if(read_res != LV_RES_OK) {
 1961              		.loc 1 304 0
 1962 016c 0498     		ldr	r0, [sp, #16]
 1963              	.LVL278:
 1964 016e 0590     		str	r0, [sp, #20]
 1965 0170 CBEB0801 		rsb	r1, fp, r8
 1966 0174 0097     		str	r7, [sp]
 1967 0176 039B     		ldr	r3, [sp, #12]
 1968 0178 2AB2     		sxth	r2, r5
 1969 017a 09B2     		sxth	r1, r1
 1970 017c FFF7FEFF 		bl	lv_img_decoder_read_line
 1971              	.LVL279:
 305:lvgl\src\lv_draw/lv_draw_img.c ****                 lv_img_decoder_close(&cdsc->dec_dsc);
 1972              		.loc 1 305 0
 1973 0180 0128     		cmp	r0, #1
 1974 0182 07D0     		beq	.L118
 306:lvgl\src\lv_draw/lv_draw_img.c ****                 LV_LOG_WARN("Image draw can't read the line");
 1975              		.loc 1 306 0
 1976 0184 0598     		ldr	r0, [sp, #20]
 1977              	.LVL280:
 1978 0186 FFF7FEFF 		bl	lv_img_decoder_close
 1979              	.LVL281:
 308:lvgl\src\lv_draw/lv_draw_img.c ****                 return LV_RES_INV;
 1980              		.loc 1 308 0
 1981 018a 0798     		ldr	r0, [sp, #28]
 1982 018c FFF7FEFF 		bl	_lv_mem_buf_release
 1983              	.LVL282:
 309:lvgl\src\lv_draw/lv_draw_img.c ****             }
 1984              		.loc 1 309 0
 1985 0190 0020     		movs	r0, #0
 1986 0192 23E0     		b	.L104
 1987              	.LVL283:
 1988              	.L118:
 313:lvgl\src\lv_draw/lv_draw_img.c ****             line.y1++;
 1989              		.loc 1 313 0
 1990 0194 CDF80490 		str	r9, [sp, #4]
 1991 0198 0094     		str	r4, [sp]
 1992 019a 069B     		ldr	r3, [sp, #24]
 1993 019c 3A46     		mov	r2, r7
 1994 019e 0CA9     		add	r1, sp, #48
 1995 01a0 0AA8     		add	r0, sp, #40
 1996              	.LVL284:
 1997 01a2 FFF7FEFF 		bl	lv_draw_map
 1998              	.LVL285:
ARM GAS  C:\Users\strap\AppData\Local\Temp\ccUgAYbc.s 			page 71


 314:lvgl\src\lv_draw/lv_draw_img.c ****             line.y2++;
 1999              		.loc 1 314 0
 2000 01a6 BDF92A30 		ldrsh	r3, [sp, #42]
 2001 01aa 0133     		adds	r3, r3, #1
 2002 01ac ADF82A30 		strh	r3, [sp, #42]	@ movhi
 315:lvgl\src\lv_draw/lv_draw_img.c ****             y++;
 2003              		.loc 1 315 0
 2004 01b0 BDF92E30 		ldrsh	r3, [sp, #46]
 2005 01b4 0133     		adds	r3, r3, #1
 2006 01b6 ADF82E30 		strh	r3, [sp, #46]	@ movhi
 316:lvgl\src\lv_draw/lv_draw_img.c ****         }
 2007              		.loc 1 316 0
 2008 01ba 0135     		adds	r5, r5, #1
 2009              	.LVL286:
 2010              	.L117:
 2011              	.LBE168:
 299:lvgl\src\lv_draw/lv_draw_img.c ****             lv_area_t mask_line;
 2012              		.loc 1 299 0 discriminator 2
 2013 01bc 0AF1010A 		add	r10, r10, #1
 2014              	.LVL287:
 2015              	.L115:
 299:lvgl\src\lv_draw/lv_draw_img.c ****             lv_area_t mask_line;
 2016              		.loc 1 299 0 is_stmt 0 discriminator 1
 2017 01c0 BDF92630 		ldrsh	r3, [sp, #38]
 2018 01c4 9A45     		cmp	r10, r3
 2019 01c6 CBDD     		ble	.L119
 318:lvgl\src\lv_draw/lv_draw_img.c ****     }
 2020              		.loc 1 318 0 is_stmt 1
 2021 01c8 0798     		ldr	r0, [sp, #28]
 2022 01ca FFF7FEFF 		bl	_lv_mem_buf_release
 2023              	.LVL288:
 2024              	.LBE159:
 321:lvgl\src\lv_draw/lv_draw_img.c **** }
 2025              		.loc 1 321 0
 2026 01ce 0120     		movs	r0, #1
 2027              	.LBB169:
 2028 01d0 04E0     		b	.L104
 2029              	.LVL289:
 2030              	.L123:
 283:lvgl\src\lv_draw/lv_draw_img.c ****                                  successfully.*/
 2031              		.loc 1 283 0
 2032 01d2 0120     		movs	r0, #1
 2033              	.LVL290:
 2034 01d4 02E0     		b	.L104
 2035              	.LVL291:
 2036              	.L120:
 2037              	.LBE169:
 236:lvgl\src\lv_draw/lv_draw_img.c **** 
 2038              		.loc 1 236 0
 2039 01d6 0120     		movs	r0, #1
 2040              	.LVL292:
 2041 01d8 00E0     		b	.L104
 2042              	.LVL293:
 2043              	.L121:
 240:lvgl\src\lv_draw/lv_draw_img.c **** 
 2044              		.loc 1 240 0
 2045 01da 0020     		movs	r0, #0
ARM GAS  C:\Users\strap\AppData\Local\Temp\ccUgAYbc.s 			page 72


 2046              	.LVL294:
 2047              	.L104:
 322:lvgl\src\lv_draw/lv_draw_img.c **** 
 2048              		.loc 1 322 0
 2049 01dc 0FB0     		add	sp, sp, #60
 2050              		.cfi_def_cfa_offset 36
 2051              		@ sp needed
 2052 01de BDE8F08F 		pop	{r4, r5, r6, r7, r8, r9, r10, fp, pc}
 2053              		.cfi_endproc
 2054              	.LFE334:
 2055              		.size	lv_img_draw_core, .-lv_img_draw_core
 2056 01e2 00BF     		.section	.text.lv_draw_img,"ax",%progbits
 2057              		.align	2
 2058              		.global	lv_draw_img
 2059              		.thumb
 2060              		.thumb_func
 2061              		.type	lv_draw_img, %function
 2062              	lv_draw_img:
 2063              	.LFB329:
  74:lvgl\src\lv_draw/lv_draw_img.c ****     if(src == NULL) {
 2064              		.loc 1 74 0
 2065              		.cfi_startproc
 2066              		@ args = 0, pretend = 0, frame = 0
 2067              		@ frame_needed = 0, uses_anonymous_args = 0
 2068              	.LVL295:
 2069 0000 38B5     		push	{r3, r4, r5, lr}
 2070              		.cfi_def_cfa_offset 16
 2071              		.cfi_offset 3, -16
 2072              		.cfi_offset 4, -12
 2073              		.cfi_offset 5, -8
 2074              		.cfi_offset 14, -4
 2075 0002 0446     		mov	r4, r0
 2076 0004 0D46     		mov	r5, r1
  75:lvgl\src\lv_draw/lv_draw_img.c ****         LV_LOG_WARN("Image draw: src is NULL");
 2077              		.loc 1 75 0
 2078 0006 1AB9     		cbnz	r2, .L127
  77:lvgl\src\lv_draw/lv_draw_img.c ****         return;
 2079              		.loc 1 77 0
 2080 0008 094A     		ldr	r2, .L130
 2081              	.LVL296:
 2082 000a FFF7FEFF 		bl	show_error
 2083              	.LVL297:
  78:lvgl\src\lv_draw/lv_draw_img.c ****     }
 2084              		.loc 1 78 0
 2085 000e 38BD     		pop	{r3, r4, r5, pc}
 2086              	.LVL298:
 2087              	.L127:
 2088 0010 1146     		mov	r1, r2
 2089              	.LVL299:
  81:lvgl\src\lv_draw/lv_draw_img.c **** 
 2090              		.loc 1 81 0
 2091 0012 1A78     		ldrb	r2, [r3]	@ zero_extendqisi2
 2092              	.LVL300:
 2093 0014 022A     		cmp	r2, #2
 2094 0016 09D9     		bls	.L126
  84:lvgl\src\lv_draw/lv_draw_img.c **** 
 2095              		.loc 1 84 0
ARM GAS  C:\Users\strap\AppData\Local\Temp\ccUgAYbc.s 			page 73


 2096 0018 0A46     		mov	r2, r1
 2097 001a 2946     		mov	r1, r5
 2098              	.LVL301:
 2099 001c FFF7FEFF 		bl	lv_img_draw_core
 2100              	.LVL302:
  86:lvgl\src\lv_draw/lv_draw_img.c ****         LV_LOG_WARN("Image draw error");
 2101              		.loc 1 86 0
 2102 0020 20B9     		cbnz	r0, .L126
  88:lvgl\src\lv_draw/lv_draw_img.c ****         return;
 2103              		.loc 1 88 0
 2104 0022 034A     		ldr	r2, .L130
 2105 0024 2946     		mov	r1, r5
 2106 0026 2046     		mov	r0, r4
 2107              	.LVL303:
 2108 0028 FFF7FEFF 		bl	show_error
 2109              	.LVL304:
 2110              	.L126:
 2111 002c 38BD     		pop	{r3, r4, r5, pc}
 2112              	.LVL305:
 2113              	.L131:
 2114 002e 00BF     		.align	2
 2115              	.L130:
 2116 0030 00000000 		.word	.LC2
 2117              		.cfi_endproc
 2118              	.LFE329:
 2119              		.size	lv_draw_img, .-lv_draw_img
 2120              		.section	.text.lv_img_src_get_type,"ax",%progbits
 2121              		.align	2
 2122              		.global	lv_img_src_get_type
 2123              		.thumb
 2124              		.thumb_func
 2125              		.type	lv_img_src_get_type, %function
 2126              	lv_img_src_get_type:
 2127              	.LFB333:
 204:lvgl\src\lv_draw/lv_draw_img.c ****     lv_img_src_t img_src_type = LV_IMG_SRC_UNKNOWN;
 2128              		.loc 1 204 0
 2129              		.cfi_startproc
 2130              		@ args = 0, pretend = 0, frame = 0
 2131              		@ frame_needed = 0, uses_anonymous_args = 0
 2132              		@ link register save eliminated.
 2133              	.LVL306:
 207:lvgl\src\lv_draw/lv_draw_img.c ****     const uint8_t * u8_p = src;
 2134              		.loc 1 207 0
 2135 0000 50B1     		cbz	r0, .L134
 2136              	.LVL307:
 211:lvgl\src\lv_draw/lv_draw_img.c ****         img_src_type = LV_IMG_SRC_FILE; /*If it's an ASCII character then it's file name*/
 2137              		.loc 1 211 0
 2138 0002 0278     		ldrb	r2, [r0]	@ zero_extendqisi2
 2139 0004 A2F12003 		sub	r3, r2, #32
 2140 0008 DBB2     		uxtb	r3, r3
 2141 000a 5F2B     		cmp	r3, #95
 2142 000c 06D9     		bls	.L135
 214:lvgl\src\lv_draw/lv_draw_img.c ****         img_src_type = LV_IMG_SRC_SYMBOL; /*Symbols begins after 0x7F*/
 2143              		.loc 1 214 0
 2144 000e 12F0800F 		tst	r2, #128
 2145 0012 05D0     		beq	.L136
 215:lvgl\src\lv_draw/lv_draw_img.c ****     }
ARM GAS  C:\Users\strap\AppData\Local\Temp\ccUgAYbc.s 			page 74


 2146              		.loc 1 215 0
 2147 0014 0220     		movs	r0, #2
 2148              	.LVL308:
 2149 0016 7047     		bx	lr
 2150              	.LVL309:
 2151              	.L134:
 207:lvgl\src\lv_draw/lv_draw_img.c ****     const uint8_t * u8_p = src;
 2152              		.loc 1 207 0
 2153 0018 0320     		movs	r0, #3
 2154              	.LVL310:
 2155 001a 7047     		bx	lr
 2156              	.LVL311:
 2157              	.L135:
 212:lvgl\src\lv_draw/lv_draw_img.c ****     }
 2158              		.loc 1 212 0
 2159 001c 0120     		movs	r0, #1
 2160              	.LVL312:
 2161 001e 7047     		bx	lr
 2162              	.LVL313:
 2163              	.L136:
 218:lvgl\src\lv_draw/lv_draw_img.c ****     }
 2164              		.loc 1 218 0
 2165 0020 0020     		movs	r0, #0
 2166              	.LVL314:
 226:lvgl\src\lv_draw/lv_draw_img.c **** 
 2167              		.loc 1 226 0
 2168 0022 7047     		bx	lr
 2169              		.cfi_endproc
 2170              	.LFE333:
 2171              		.size	lv_img_src_get_type, .-lv_img_src_get_type
 2172              		.section	.rodata
 2173              		.align	2
 2174              		.set	.LANCHOR0,. + 0
 2175              	.LC0:
 2176 0000 FF       		.byte	255
 2177 0001 FF       		.byte	255
 2178              		.section	.rodata.str1.4,"aMS",%progbits,1
 2179              		.align	2
 2180              	.LC2:
 2181 0000 4E6F0A64 		.ascii	"No\012data\000"
 2181      61746100 
 2182              		.text
 2183              	.Letext0:
 2184              		.file 6 "c:\\program files (x86)\\cypress\\psoc creator\\4.4\\psoc creator\\import\\gnu\\arm\\5.4.
 2185              		.file 7 "c:\\program files (x86)\\cypress\\psoc creator\\4.4\\psoc creator\\import\\gnu\\arm\\5.4.
 2186              		.file 8 "lvgl\\src\\lv_draw\\../../../lv_conf.h"
 2187              		.file 9 "c:\\program files (x86)\\cypress\\psoc creator\\4.4\\psoc creator\\import\\gnu\\arm\\5.4.
 2188              		.file 10 "lvgl\\src\\lv_draw\\../lv_misc/lv_types.h"
 2189              		.file 11 "lvgl\\src\\lv_draw\\../lv_core/../lv_font/lv_font.h"
 2190              		.file 12 "lvgl\\src\\lv_draw\\../lv_core/../lv_draw/lv_draw_mask.h"
 2191              		.file 13 "lvgl\\src\\lv_draw\\../lv_core/../lv_draw/lv_draw_blend.h"
 2192              		.file 14 "lvgl\\src\\lv_draw\\../lv_core/lv_style.h"
 2193              		.file 15 "lvgl\\src\\lv_draw\\lv_img_decoder.h"
 2194              		.file 16 "lvgl\\src\\lv_draw\\lv_draw_img.h"
 2195              		.file 17 "lvgl\\src\\lv_draw\\lv_img_cache.h"
 2196              		.file 18 "lvgl\\src\\lv_draw\\../lv_hal/../lv_misc/lv_ll.h"
 2197              		.file 19 "lvgl\\src\\lv_draw\\../lv_hal/../lv_misc/lv_task.h"
ARM GAS  C:\Users\strap\AppData\Local\Temp\ccUgAYbc.s 			page 75


 2198              		.file 20 "lvgl\\src\\lv_draw\\../lv_hal/lv_hal_indev.h"
 2199              		.file 21 "lvgl\\src\\lv_draw\\../lv_hal/lv_hal_disp.h"
 2200              		.file 22 "lvgl\\src\\lv_draw\\../lv_core/lv_obj.h"
 2201              		.file 23 "lvgl\\src\\lv_draw\\../lv_core/../lv_draw/lv_draw_rect.h"
 2202              		.file 24 "lvgl\\src\\lv_draw\\../lv_core/../lv_draw/../lv_misc/lv_bidi.h"
 2203              		.file 25 "lvgl\\src\\lv_draw\\../lv_core/../lv_draw/../lv_misc/lv_txt.h"
 2204              		.file 26 "lvgl\\src\\lv_draw\\../lv_core/../lv_draw/lv_draw_label.h"
 2205              		.file 27 "lvgl\\src\\lv_draw\\../lv_core/lv_refr.h"