ARM GAS  C:\Users\strap\AppData\Local\Temp\ccWx6dMX.s 			page 1


   1              		.syntax unified
   2              		.cpu cortex-m3
   3              		.fpu softvfp
   4              		.eabi_attribute 20, 1
   5              		.eabi_attribute 21, 1
   6              		.eabi_attribute 23, 3
   7              		.eabi_attribute 24, 1
   8              		.eabi_attribute 25, 1
   9              		.eabi_attribute 26, 1
  10              		.eabi_attribute 30, 1
  11              		.eabi_attribute 34, 1
  12              		.eabi_attribute 18, 4
  13              		.thumb
  14              		.syntax unified
  15              		.file	"lv_debug.c"
  16              		.text
  17              	.Ltext0:
  18              		.cfi_sections	.debug_frame
  19              		.section	.text.lv_debug_check_null,"ax",%progbits
  20              		.align	2
  21              		.global	lv_debug_check_null
  22              		.thumb
  23              		.thumb_func
  24              		.type	lv_debug_check_null, %function
  25              	lv_debug_check_null:
  26              	.LFB1:
  27              		.file 1 "lvgl\\src\\lv_misc\\lv_debug.c"
   1:lvgl\src\lv_misc/lv_debug.c **** /**
   2:lvgl\src\lv_misc/lv_debug.c ****  * @file lv_debug.c
   3:lvgl\src\lv_misc/lv_debug.c ****  *
   4:lvgl\src\lv_misc/lv_debug.c ****  */
   5:lvgl\src\lv_misc/lv_debug.c **** 
   6:lvgl\src\lv_misc/lv_debug.c **** /*********************
   7:lvgl\src\lv_misc/lv_debug.c ****  *      INCLUDES
   8:lvgl\src\lv_misc/lv_debug.c ****  *********************/
   9:lvgl\src\lv_misc/lv_debug.c **** #include "lv_debug.h"
  10:lvgl\src\lv_misc/lv_debug.c **** 
  11:lvgl\src\lv_misc/lv_debug.c **** #if LV_USE_DEBUG
  12:lvgl\src\lv_misc/lv_debug.c **** 
  13:lvgl\src\lv_misc/lv_debug.c **** #include "lv_mem.h"
  14:lvgl\src\lv_misc/lv_debug.c **** #include <string.h>
  15:lvgl\src\lv_misc/lv_debug.c **** 
  16:lvgl\src\lv_misc/lv_debug.c **** /*********************
  17:lvgl\src\lv_misc/lv_debug.c ****  *      DEFINES
  18:lvgl\src\lv_misc/lv_debug.c ****  *********************/
  19:lvgl\src\lv_misc/lv_debug.c **** #ifndef LV_DEBUG_STR_MAX_LENGTH
  20:lvgl\src\lv_misc/lv_debug.c ****     #define LV_DEBUG_STR_MAX_LENGTH  (1024 * 8)
  21:lvgl\src\lv_misc/lv_debug.c **** #endif
  22:lvgl\src\lv_misc/lv_debug.c **** 
  23:lvgl\src\lv_misc/lv_debug.c **** #ifndef LV_DEBUG_STR_MAX_REPEAT
  24:lvgl\src\lv_misc/lv_debug.c ****     #define LV_DEBUG_STR_MAX_REPEAT  8
  25:lvgl\src\lv_misc/lv_debug.c **** #endif
  26:lvgl\src\lv_misc/lv_debug.c **** /**********************
  27:lvgl\src\lv_misc/lv_debug.c ****  *      TYPEDEFS
  28:lvgl\src\lv_misc/lv_debug.c ****  **********************/
  29:lvgl\src\lv_misc/lv_debug.c **** 
  30:lvgl\src\lv_misc/lv_debug.c **** /**********************
ARM GAS  C:\Users\strap\AppData\Local\Temp\ccWx6dMX.s 			page 2


  31:lvgl\src\lv_misc/lv_debug.c ****  *  STATIC PROTOTYPES
  32:lvgl\src\lv_misc/lv_debug.c ****  **********************/
  33:lvgl\src\lv_misc/lv_debug.c **** 
  34:lvgl\src\lv_misc/lv_debug.c **** /**********************
  35:lvgl\src\lv_misc/lv_debug.c ****  *  STATIC VARIABLES
  36:lvgl\src\lv_misc/lv_debug.c ****  **********************/
  37:lvgl\src\lv_misc/lv_debug.c **** 
  38:lvgl\src\lv_misc/lv_debug.c **** /**********************
  39:lvgl\src\lv_misc/lv_debug.c ****  *      MACROS
  40:lvgl\src\lv_misc/lv_debug.c ****  **********************/
  41:lvgl\src\lv_misc/lv_debug.c **** 
  42:lvgl\src\lv_misc/lv_debug.c **** /**********************
  43:lvgl\src\lv_misc/lv_debug.c ****  *   GLOBAL FUNCTIONS
  44:lvgl\src\lv_misc/lv_debug.c ****  **********************/
  45:lvgl\src\lv_misc/lv_debug.c **** 
  46:lvgl\src\lv_misc/lv_debug.c **** bool lv_debug_check_null(const void * p)
  47:lvgl\src\lv_misc/lv_debug.c **** {
  28              		.loc 1 47 0
  29              		.cfi_startproc
  30              		@ args = 0, pretend = 0, frame = 0
  31              		@ frame_needed = 0, uses_anonymous_args = 0
  32              		@ link register save eliminated.
  33              	.LVL0:
  48:lvgl\src\lv_misc/lv_debug.c ****     if(p) return true;
  34              		.loc 1 48 0
  35 0000 08B1     		cbz	r0, .L3
  36 0002 0120     		movs	r0, #1
  37              	.LVL1:
  38 0004 7047     		bx	lr
  39              	.LVL2:
  40              	.L3:
  49:lvgl\src\lv_misc/lv_debug.c **** 
  50:lvgl\src\lv_misc/lv_debug.c ****     return false;
  41              		.loc 1 50 0
  42 0006 0020     		movs	r0, #0
  43              	.LVL3:
  51:lvgl\src\lv_misc/lv_debug.c **** }
  44              		.loc 1 51 0
  45 0008 7047     		bx	lr
  46              		.cfi_endproc
  47              	.LFE1:
  48              		.size	lv_debug_check_null, .-lv_debug_check_null
  49 000a 00BF     		.section	.text.lv_debug_check_mem_integrity,"ax",%progbits
  50              		.align	2
  51              		.global	lv_debug_check_mem_integrity
  52              		.thumb
  53              		.thumb_func
  54              		.type	lv_debug_check_mem_integrity, %function
  55              	lv_debug_check_mem_integrity:
  56              	.LFB2:
  52:lvgl\src\lv_misc/lv_debug.c **** 
  53:lvgl\src\lv_misc/lv_debug.c **** bool lv_debug_check_mem_integrity(void)
  54:lvgl\src\lv_misc/lv_debug.c **** {
  57              		.loc 1 54 0
  58              		.cfi_startproc
  59              		@ args = 0, pretend = 0, frame = 0
  60              		@ frame_needed = 0, uses_anonymous_args = 0
ARM GAS  C:\Users\strap\AppData\Local\Temp\ccWx6dMX.s 			page 3


  61 0000 08B5     		push	{r3, lr}
  62              		.cfi_def_cfa_offset 8
  63              		.cfi_offset 3, -8
  64              		.cfi_offset 14, -4
  55:lvgl\src\lv_misc/lv_debug.c ****     return lv_mem_test() == LV_RES_OK ? true : false;
  65              		.loc 1 55 0
  66 0002 FFF7FEFF 		bl	lv_mem_test
  67              	.LVL4:
  56:lvgl\src\lv_misc/lv_debug.c **** }
  68              		.loc 1 56 0
  69 0006 0128     		cmp	r0, #1
  70 0008 14BF     		ite	ne
  71 000a 0020     		movne	r0, #0
  72 000c 0120     		moveq	r0, #1
  73 000e 08BD     		pop	{r3, pc}
  74              		.cfi_endproc
  75              	.LFE2:
  76              		.size	lv_debug_check_mem_integrity, .-lv_debug_check_mem_integrity
  77              		.section	.text.lv_debug_check_str,"ax",%progbits
  78              		.align	2
  79              		.global	lv_debug_check_str
  80              		.thumb
  81              		.thumb_func
  82              		.type	lv_debug_check_str, %function
  83              	lv_debug_check_str:
  84              	.LFB3:
  57:lvgl\src\lv_misc/lv_debug.c **** 
  58:lvgl\src\lv_misc/lv_debug.c **** bool lv_debug_check_str(const void * str)
  59:lvgl\src\lv_misc/lv_debug.c **** {
  85              		.loc 1 59 0
  86              		.cfi_startproc
  87              		@ args = 0, pretend = 0, frame = 0
  88              		@ frame_needed = 0, uses_anonymous_args = 0
  89              		@ link register save eliminated.
  90              	.LVL5:
  91 0000 10B4     		push	{r4}
  92              		.cfi_def_cfa_offset 4
  93              		.cfi_offset 4, -4
  94              	.LVL6:
  60:lvgl\src\lv_misc/lv_debug.c ****     const uint8_t * s = (const uint8_t *)str;
  61:lvgl\src\lv_misc/lv_debug.c ****     uint8_t last_byte = 0;
  62:lvgl\src\lv_misc/lv_debug.c ****     uint32_t rep = 0;
  63:lvgl\src\lv_misc/lv_debug.c ****     uint32_t i;
  64:lvgl\src\lv_misc/lv_debug.c **** 
  65:lvgl\src\lv_misc/lv_debug.c ****     for(i = 0; i < LV_DEBUG_STR_MAX_LENGTH && s[i] != '\0'; i++) {
  95              		.loc 1 65 0
  96 0002 0022     		movs	r2, #0
  62:lvgl\src\lv_misc/lv_debug.c ****     uint32_t i;
  97              		.loc 1 62 0
  98 0004 1446     		mov	r4, r2
  61:lvgl\src\lv_misc/lv_debug.c ****     uint32_t rep = 0;
  99              		.loc 1 61 0
 100 0006 1146     		mov	r1, r2
 101              		.loc 1 65 0
 102 0008 0DE0     		b	.L7
 103              	.LVL7:
 104              	.L11:
ARM GAS  C:\Users\strap\AppData\Local\Temp\ccWx6dMX.s 			page 4


  66:lvgl\src\lv_misc/lv_debug.c ****         if(s[i] != last_byte) {
 105              		.loc 1 66 0
 106 000a 9942     		cmp	r1, r3
 107 000c 06D1     		bne	.L12
  67:lvgl\src\lv_misc/lv_debug.c ****             last_byte = s[i];
  68:lvgl\src\lv_misc/lv_debug.c ****             rep = 1;
  69:lvgl\src\lv_misc/lv_debug.c ****         }
  70:lvgl\src\lv_misc/lv_debug.c ****         else if(s[i] > 0x7F) {
 108              		.loc 1 70 0
 109 000e 13F0800F 		tst	r3, #128
 110 0012 05D0     		beq	.L8
  71:lvgl\src\lv_misc/lv_debug.c ****             rep++;
 111              		.loc 1 71 0
 112 0014 0134     		adds	r4, r4, #1
 113              	.LVL8:
  72:lvgl\src\lv_misc/lv_debug.c ****             if(rep > LV_DEBUG_STR_MAX_REPEAT) {
 114              		.loc 1 72 0
 115 0016 082C     		cmp	r4, #8
 116 0018 02D9     		bls	.L8
 117 001a 0EE0     		b	.L13
 118              	.L12:
  67:lvgl\src\lv_misc/lv_debug.c ****             last_byte = s[i];
 119              		.loc 1 67 0
 120 001c 1946     		mov	r1, r3
 121              	.LVL9:
  68:lvgl\src\lv_misc/lv_debug.c ****         }
 122              		.loc 1 68 0
 123 001e 0124     		movs	r4, #1
 124              	.LVL10:
 125              	.L8:
  73:lvgl\src\lv_misc/lv_debug.c ****                 LV_LOG_WARN("lv_debug_check_str: a non-ASCII char has repeated more than LV_DEBUG_S
  74:lvgl\src\lv_misc/lv_debug.c ****                 return false;
  75:lvgl\src\lv_misc/lv_debug.c ****             }
  76:lvgl\src\lv_misc/lv_debug.c ****         }
  77:lvgl\src\lv_misc/lv_debug.c **** 
  78:lvgl\src\lv_misc/lv_debug.c ****         if(s[i] < 10) {
 126              		.loc 1 78 0
 127 0020 092B     		cmp	r3, #9
 128 0022 0CD9     		bls	.L14
  65:lvgl\src\lv_misc/lv_debug.c ****         if(s[i] != last_byte) {
 129              		.loc 1 65 0 discriminator 2
 130 0024 0132     		adds	r2, r2, #1
 131              	.LVL11:
 132              	.L7:
  65:lvgl\src\lv_misc/lv_debug.c ****         if(s[i] != last_byte) {
 133              		.loc 1 65 0 is_stmt 0 discriminator 1
 134 0026 B2F5005F 		cmp	r2, #8192
 135 002a 02D2     		bcs	.L10
  65:lvgl\src\lv_misc/lv_debug.c ****         if(s[i] != last_byte) {
 136              		.loc 1 65 0 discriminator 3
 137 002c 835C     		ldrb	r3, [r0, r2]	@ zero_extendqisi2
 138 002e 002B     		cmp	r3, #0
 139 0030 EBD1     		bne	.L11
 140              	.L10:
  79:lvgl\src\lv_misc/lv_debug.c ****             LV_LOG_WARN("lv_debug_check_str: invalid char in the string (< 10 value)");
  80:lvgl\src\lv_misc/lv_debug.c ****             return false;   /*Shouldn't occur in strings*/
  81:lvgl\src\lv_misc/lv_debug.c ****         }
ARM GAS  C:\Users\strap\AppData\Local\Temp\ccWx6dMX.s 			page 5


  82:lvgl\src\lv_misc/lv_debug.c ****     }
  83:lvgl\src\lv_misc/lv_debug.c **** 
  84:lvgl\src\lv_misc/lv_debug.c ****     if(s[i] == '\0') return true;
 141              		.loc 1 84 0 is_stmt 1
 142 0032 835C     		ldrb	r3, [r0, r2]	@ zero_extendqisi2
 143 0034 2BB9     		cbnz	r3, .L15
 144 0036 0120     		movs	r0, #1
 145              	.LVL12:
 146 0038 04E0     		b	.L9
 147              	.LVL13:
 148              	.L13:
  74:lvgl\src\lv_misc/lv_debug.c ****             }
 149              		.loc 1 74 0
 150 003a 0020     		movs	r0, #0
 151              	.LVL14:
 152 003c 02E0     		b	.L9
 153              	.LVL15:
 154              	.L14:
  80:lvgl\src\lv_misc/lv_debug.c ****         }
 155              		.loc 1 80 0
 156 003e 0020     		movs	r0, #0
 157              	.LVL16:
 158 0040 00E0     		b	.L9
 159              	.LVL17:
 160              	.L15:
  85:lvgl\src\lv_misc/lv_debug.c **** 
  86:lvgl\src\lv_misc/lv_debug.c ****     LV_LOG_WARN("lv_debug_check_str: string is longer than LV_DEBUG_STR_MAX_LENGTH");
  87:lvgl\src\lv_misc/lv_debug.c ****     return false;
 161              		.loc 1 87 0
 162 0042 0020     		movs	r0, #0
 163              	.LVL18:
 164              	.L9:
  88:lvgl\src\lv_misc/lv_debug.c **** }
 165              		.loc 1 88 0
 166 0044 10BC     		pop	{r4}
 167              		.cfi_restore 4
 168              		.cfi_def_cfa_offset 0
 169              	.LVL19:
 170 0046 7047     		bx	lr
 171              		.cfi_endproc
 172              	.LFE3:
 173              		.size	lv_debug_check_str, .-lv_debug_check_str
 174              		.section	.text.lv_debug_log_error,"ax",%progbits
 175              		.align	2
 176              		.global	lv_debug_log_error
 177              		.thumb
 178              		.thumb_func
 179              		.type	lv_debug_log_error, %function
 180              	lv_debug_log_error:
 181              	.LFB4:
  89:lvgl\src\lv_misc/lv_debug.c **** 
  90:lvgl\src\lv_misc/lv_debug.c **** void lv_debug_log_error(const char * msg, uint64_t value)
  91:lvgl\src\lv_misc/lv_debug.c **** {
 182              		.loc 1 91 0
 183              		.cfi_startproc
 184              		@ args = 0, pretend = 0, frame = 256
 185              		@ frame_needed = 0, uses_anonymous_args = 0
ARM GAS  C:\Users\strap\AppData\Local\Temp\ccWx6dMX.s 			page 6


 186              	.LVL20:
 187 0000 70B5     		push	{r4, r5, r6, lr}
 188              		.cfi_def_cfa_offset 16
 189              		.cfi_offset 4, -16
 190              		.cfi_offset 5, -12
 191              		.cfi_offset 6, -8
 192              		.cfi_offset 14, -4
 193 0002 C0B0     		sub	sp, sp, #256
 194              		.cfi_def_cfa_offset 272
 195 0004 0646     		mov	r6, r0
 196 0006 1446     		mov	r4, r2
  92:lvgl\src\lv_misc/lv_debug.c ****     static const char hex[] = "0123456789ABCDEF";
  93:lvgl\src\lv_misc/lv_debug.c **** 
  94:lvgl\src\lv_misc/lv_debug.c ****     size_t msg_len = strlen(msg);
 197              		.loc 1 94 0
 198 0008 FFF7FEFF 		bl	strlen
 199              	.LVL21:
  95:lvgl\src\lv_misc/lv_debug.c ****     uint32_t value_len = sizeof(unsigned long int);
  96:lvgl\src\lv_misc/lv_debug.c **** 
  97:lvgl\src\lv_misc/lv_debug.c ****     if(msg_len < 230) {
 200              		.loc 1 97 0
 201 000c E528     		cmp	r0, #229
 202 000e 24D8     		bhi	.L17
 203 0010 0546     		mov	r5, r0
 204              	.LVL22:
 205              	.LBB2:
  98:lvgl\src\lv_misc/lv_debug.c ****         char buf[255];
  99:lvgl\src\lv_misc/lv_debug.c ****         char * bufp = buf;
 100:lvgl\src\lv_misc/lv_debug.c **** 
 101:lvgl\src\lv_misc/lv_debug.c ****         /*Add the function name*/
 102:lvgl\src\lv_misc/lv_debug.c ****         _lv_memcpy(bufp, msg, msg_len);
 206              		.loc 1 102 0
 207 0012 0246     		mov	r2, r0
 208 0014 3146     		mov	r1, r6
 209 0016 6846     		mov	r0, sp
 210              	.LVL23:
 211 0018 FFF7FEFF 		bl	_lv_memcpy
 212              	.LVL24:
 103:lvgl\src\lv_misc/lv_debug.c ****         bufp += msg_len;
 213              		.loc 1 103 0
 214 001c 0DEB0501 		add	r1, sp, r5
 215              	.LVL25:
 104:lvgl\src\lv_misc/lv_debug.c **** 
 105:lvgl\src\lv_misc/lv_debug.c ****         /*Add value in hey*/
 106:lvgl\src\lv_misc/lv_debug.c ****         *bufp = ' ';
 216              		.loc 1 106 0
 217 0020 2023     		movs	r3, #32
 218 0022 0DF80530 		strb	r3, [sp, r5]
 219              	.LVL26:
 107:lvgl\src\lv_misc/lv_debug.c ****         bufp ++;
 108:lvgl\src\lv_misc/lv_debug.c ****         *bufp = '(';
 220              		.loc 1 108 0
 221 0026 2823     		movs	r3, #40
 222 0028 4B70     		strb	r3, [r1, #1]
 223              	.LVL27:
 109:lvgl\src\lv_misc/lv_debug.c ****         bufp ++;
 110:lvgl\src\lv_misc/lv_debug.c ****         *bufp = '0';
ARM GAS  C:\Users\strap\AppData\Local\Temp\ccWx6dMX.s 			page 7


 224              		.loc 1 110 0
 225 002a 3023     		movs	r3, #48
 226 002c 8B70     		strb	r3, [r1, #2]
 227              	.LVL28:
 111:lvgl\src\lv_misc/lv_debug.c ****         bufp ++;
 112:lvgl\src\lv_misc/lv_debug.c ****         *bufp = 'x';
 228              		.loc 1 112 0
 229 002e 7823     		movs	r3, #120
 230 0030 CB70     		strb	r3, [r1, #3]
 113:lvgl\src\lv_misc/lv_debug.c ****         bufp ++;
 231              		.loc 1 113 0
 232 0032 0431     		adds	r1, r1, #4
 233              	.LVL29:
 114:lvgl\src\lv_misc/lv_debug.c **** 
 115:lvgl\src\lv_misc/lv_debug.c ****         int8_t i;
 116:lvgl\src\lv_misc/lv_debug.c ****         for(i = value_len * 2 - 1; i >= 0; i--) {
 234              		.loc 1 116 0
 235 0034 0723     		movs	r3, #7
 236 0036 0AE0     		b	.L19
 237              	.LVL30:
 238              	.L20:
 239              	.LBB3:
 117:lvgl\src\lv_misc/lv_debug.c ****             uint8_t x = (unsigned long int)((unsigned long int)value >> (i * 4)) & 0xF;
 240              		.loc 1 117 0 discriminator 3
 241 0038 9A00     		lsls	r2, r3, #2
 242 003a 24FA02F2 		lsr	r2, r4, r2
 243 003e 02F00F02 		and	r2, r2, #15
 244              	.LVL31:
 118:lvgl\src\lv_misc/lv_debug.c **** 
 119:lvgl\src\lv_misc/lv_debug.c ****             *bufp = hex[x];
 245              		.loc 1 119 0 discriminator 3
 246 0042 0748     		ldr	r0, .L22
 247 0044 825C     		ldrb	r2, [r0, r2]	@ zero_extendqisi2
 248              	.LVL32:
 249 0046 01F8012B 		strb	r2, [r1], #1
 250              	.LVL33:
 251              	.LBE3:
 116:lvgl\src\lv_misc/lv_debug.c ****             uint8_t x = (unsigned long int)((unsigned long int)value >> (i * 4)) & 0xF;
 252              		.loc 1 116 0 discriminator 3
 253 004a 013B     		subs	r3, r3, #1
 254              	.LVL34:
 255 004c 5BB2     		sxtb	r3, r3
 256              	.LVL35:
 257              	.L19:
 116:lvgl\src\lv_misc/lv_debug.c ****             uint8_t x = (unsigned long int)((unsigned long int)value >> (i * 4)) & 0xF;
 258              		.loc 1 116 0 is_stmt 0 discriminator 1
 259 004e 002B     		cmp	r3, #0
 260 0050 F2DA     		bge	.L20
 120:lvgl\src\lv_misc/lv_debug.c ****             bufp++;
 121:lvgl\src\lv_misc/lv_debug.c ****         }
 122:lvgl\src\lv_misc/lv_debug.c **** 
 123:lvgl\src\lv_misc/lv_debug.c ****         *bufp = ')';
 261              		.loc 1 123 0 is_stmt 1
 262 0052 2923     		movs	r3, #41
 263              	.LVL36:
 264 0054 0B70     		strb	r3, [r1]
 265              	.LVL37:
ARM GAS  C:\Users\strap\AppData\Local\Temp\ccWx6dMX.s 			page 8


 124:lvgl\src\lv_misc/lv_debug.c ****         bufp ++;
 125:lvgl\src\lv_misc/lv_debug.c **** 
 126:lvgl\src\lv_misc/lv_debug.c ****         *bufp = '\0';
 266              		.loc 1 126 0
 267 0056 0023     		movs	r3, #0
 268 0058 4B70     		strb	r3, [r1, #1]
 269              	.LVL38:
 270              	.L17:
 271              	.LBE2:
 127:lvgl\src\lv_misc/lv_debug.c ****         LV_LOG_ERROR(buf);
 128:lvgl\src\lv_misc/lv_debug.c ****     }
 129:lvgl\src\lv_misc/lv_debug.c ****     else {
 130:lvgl\src\lv_misc/lv_debug.c ****         LV_LOG_ERROR(msg);
 131:lvgl\src\lv_misc/lv_debug.c ****     }
 132:lvgl\src\lv_misc/lv_debug.c **** }
 272              		.loc 1 132 0
 273 005a 40B0     		add	sp, sp, #256
 274              		.cfi_def_cfa_offset 16
 275              		@ sp needed
 276 005c 70BD     		pop	{r4, r5, r6, pc}
 277              	.LVL39:
 278              	.L23:
 279 005e 00BF     		.align	2
 280              	.L22:
 281 0060 00000000 		.word	.LANCHOR0
 282              		.cfi_endproc
 283              	.LFE4:
 284              		.size	lv_debug_log_error, .-lv_debug_log_error
 285              		.section	.rodata
 286              		.align	2
 287              		.set	.LANCHOR0,. + 0
 288              		.type	hex.4671, %object
 289              		.size	hex.4671, 17
 290              	hex.4671:
 291 0000 30313233 		.ascii	"0123456789ABCDEF\000"
 291      34353637 
 291      38394142 
 291      43444546 
 291      00
 292              		.text
 293              	.Letext0:
 294              		.file 2 "c:\\program files (x86)\\cypress\\psoc creator\\4.4\\psoc creator\\import\\gnu\\arm\\5.4.
 295              		.file 3 "c:\\program files (x86)\\cypress\\psoc creator\\4.4\\psoc creator\\import\\gnu\\arm\\5.4.
 296              		.file 4 "c:\\program files (x86)\\cypress\\psoc creator\\4.4\\psoc creator\\import\\gnu\\arm\\5.4.
 297              		.file 5 "lvgl\\src\\lv_misc\\lv_mem.h"
 298              		.file 6 "c:\\program files (x86)\\cypress\\psoc creator\\4.4\\psoc creator\\import\\gnu\\arm\\5.4.
 299              		.file 7 "lvgl\\src\\lv_misc\\lv_types.h"