ARM GAS  C:\Users\strap\AppData\Local\Temp\ccQGFe6s.s 			page 1


   1              		.syntax unified
   2              		.cpu cortex-m3
   3              		.fpu softvfp
   4              		.eabi_attribute 20, 1
   5              		.eabi_attribute 21, 1
   6              		.eabi_attribute 23, 3
   7              		.eabi_attribute 24, 1
   8              		.eabi_attribute 25, 1
   9              		.eabi_attribute 26, 1
  10              		.eabi_attribute 30, 1
  11              		.eabi_attribute 34, 1
  12              		.eabi_attribute 18, 4
  13              		.thumb
  14              		.syntax unified
  15              		.file	"lv_draw_arc.c"
  16              		.text
  17              	.Ltext0:
  18              		.cfi_sections	.debug_frame
  19              		.section	.text.get_rounded_area,"ax",%progbits
  20              		.align	2
  21              		.thumb
  22              		.thumb_func
  23              		.type	get_rounded_area, %function
  24              	get_rounded_area:
  25              	.LFB41:
  26              		.file 1 "lvgl\\src\\lv_draw\\lv_draw_arc.c"
   1:lvgl\src\lv_draw/lv_draw_arc.c **** /**
   2:lvgl\src\lv_draw/lv_draw_arc.c ****  * @file lv_draw_arc.c
   3:lvgl\src\lv_draw/lv_draw_arc.c ****  *
   4:lvgl\src\lv_draw/lv_draw_arc.c ****  */
   5:lvgl\src\lv_draw/lv_draw_arc.c **** 
   6:lvgl\src\lv_draw/lv_draw_arc.c **** /*********************
   7:lvgl\src\lv_draw/lv_draw_arc.c ****  *      INCLUDES
   8:lvgl\src\lv_draw/lv_draw_arc.c ****  *********************/
   9:lvgl\src\lv_draw/lv_draw_arc.c **** #include "lv_draw_arc.h"
  10:lvgl\src\lv_draw/lv_draw_arc.c **** #include "lv_draw_rect.h"
  11:lvgl\src\lv_draw/lv_draw_arc.c **** #include "lv_draw_mask.h"
  12:lvgl\src\lv_draw/lv_draw_arc.c **** #include "../lv_misc/lv_math.h"
  13:lvgl\src\lv_draw/lv_draw_arc.c **** 
  14:lvgl\src\lv_draw/lv_draw_arc.c **** /*********************
  15:lvgl\src\lv_draw/lv_draw_arc.c ****  *      DEFINES
  16:lvgl\src\lv_draw/lv_draw_arc.c ****  *********************/
  17:lvgl\src\lv_draw/lv_draw_arc.c **** #define SPLIT_RADIUS_LIMIT 10  /*With radius greater then this the arc will drawn in quarters. A qu
  18:lvgl\src\lv_draw/lv_draw_arc.c **** #define SPLIT_ANGLE_GAP_LIMIT 60  /*With small gaps in the arc don't bother with splitting because 
  19:lvgl\src\lv_draw/lv_draw_arc.c **** 
  20:lvgl\src\lv_draw/lv_draw_arc.c **** /**********************
  21:lvgl\src\lv_draw/lv_draw_arc.c ****  *      TYPEDEFS
  22:lvgl\src\lv_draw/lv_draw_arc.c ****  **********************/
  23:lvgl\src\lv_draw/lv_draw_arc.c **** typedef struct {
  24:lvgl\src\lv_draw/lv_draw_arc.c ****     lv_coord_t center_x;
  25:lvgl\src\lv_draw/lv_draw_arc.c ****     lv_coord_t center_y;
  26:lvgl\src\lv_draw/lv_draw_arc.c ****     lv_coord_t radius;
  27:lvgl\src\lv_draw/lv_draw_arc.c ****     uint16_t start_angle;
  28:lvgl\src\lv_draw/lv_draw_arc.c ****     uint16_t end_angle;
  29:lvgl\src\lv_draw/lv_draw_arc.c ****     uint16_t start_quarter;
  30:lvgl\src\lv_draw/lv_draw_arc.c ****     uint16_t end_quarter;
  31:lvgl\src\lv_draw/lv_draw_arc.c ****     lv_coord_t width;
ARM GAS  C:\Users\strap\AppData\Local\Temp\ccQGFe6s.s 			page 2


  32:lvgl\src\lv_draw/lv_draw_arc.c ****     lv_draw_rect_dsc_t * draw_dsc;
  33:lvgl\src\lv_draw/lv_draw_arc.c ****     const lv_area_t * draw_area;
  34:lvgl\src\lv_draw/lv_draw_arc.c ****     const lv_area_t * clip_area;
  35:lvgl\src\lv_draw/lv_draw_arc.c **** } quarter_draw_dsc_t;
  36:lvgl\src\lv_draw/lv_draw_arc.c **** 
  37:lvgl\src\lv_draw/lv_draw_arc.c **** 
  38:lvgl\src\lv_draw/lv_draw_arc.c **** /**********************
  39:lvgl\src\lv_draw/lv_draw_arc.c ****  *  STATIC PROTOTYPES
  40:lvgl\src\lv_draw/lv_draw_arc.c ****  **********************/
  41:lvgl\src\lv_draw/lv_draw_arc.c **** static void draw_quarter_0(quarter_draw_dsc_t * q);
  42:lvgl\src\lv_draw/lv_draw_arc.c **** static void draw_quarter_1(quarter_draw_dsc_t * q);
  43:lvgl\src\lv_draw/lv_draw_arc.c **** static void draw_quarter_2(quarter_draw_dsc_t * q);
  44:lvgl\src\lv_draw/lv_draw_arc.c **** static void draw_quarter_3(quarter_draw_dsc_t * q);
  45:lvgl\src\lv_draw/lv_draw_arc.c **** static void get_rounded_area(int16_t angle, lv_coord_t radius, uint8_t tickness, lv_area_t * res_ar
  46:lvgl\src\lv_draw/lv_draw_arc.c **** 
  47:lvgl\src\lv_draw/lv_draw_arc.c **** 
  48:lvgl\src\lv_draw/lv_draw_arc.c **** /**********************
  49:lvgl\src\lv_draw/lv_draw_arc.c ****  *  STATIC VARIABLES
  50:lvgl\src\lv_draw/lv_draw_arc.c ****  **********************/
  51:lvgl\src\lv_draw/lv_draw_arc.c **** 
  52:lvgl\src\lv_draw/lv_draw_arc.c **** /**********************
  53:lvgl\src\lv_draw/lv_draw_arc.c ****  *      MACROS
  54:lvgl\src\lv_draw/lv_draw_arc.c ****  **********************/
  55:lvgl\src\lv_draw/lv_draw_arc.c **** 
  56:lvgl\src\lv_draw/lv_draw_arc.c **** /**********************
  57:lvgl\src\lv_draw/lv_draw_arc.c ****  *   GLOBAL FUNCTIONS
  58:lvgl\src\lv_draw/lv_draw_arc.c ****  **********************/
  59:lvgl\src\lv_draw/lv_draw_arc.c **** 
  60:lvgl\src\lv_draw/lv_draw_arc.c **** /**
  61:lvgl\src\lv_draw/lv_draw_arc.c ****  * Draw an arc. (Can draw pie too with great thickness.)
  62:lvgl\src\lv_draw/lv_draw_arc.c ****  * @param center_x the x coordinate of the center of the arc
  63:lvgl\src\lv_draw/lv_draw_arc.c ****  * @param center_y the y coordinate of the center of the arc
  64:lvgl\src\lv_draw/lv_draw_arc.c ****  * @param radius the radius of the arc
  65:lvgl\src\lv_draw/lv_draw_arc.c ****  * @param mask the arc will be drawn only in this mask
  66:lvgl\src\lv_draw/lv_draw_arc.c ****  * @param start_angle the start angle of the arc (0 deg on the bottom, 90 deg on the right)
  67:lvgl\src\lv_draw/lv_draw_arc.c ****  * @param end_angle the end angle of the arc
  68:lvgl\src\lv_draw/lv_draw_arc.c ****  * @param clip_area the arc will be drawn only in this area
  69:lvgl\src\lv_draw/lv_draw_arc.c ****  * @param dsc pointer to an initialized `lv_draw_line_dsc_t` variable
  70:lvgl\src\lv_draw/lv_draw_arc.c ****  */
  71:lvgl\src\lv_draw/lv_draw_arc.c **** void lv_draw_arc(lv_coord_t center_x, lv_coord_t center_y, uint16_t radius,  uint16_t start_angle, 
  72:lvgl\src\lv_draw/lv_draw_arc.c ****                  const lv_area_t * clip_area, const lv_draw_line_dsc_t * dsc)
  73:lvgl\src\lv_draw/lv_draw_arc.c **** {
  74:lvgl\src\lv_draw/lv_draw_arc.c ****     if(dsc->opa <= LV_OPA_MIN) return;
  75:lvgl\src\lv_draw/lv_draw_arc.c ****     if(dsc->width == 0) return;
  76:lvgl\src\lv_draw/lv_draw_arc.c ****     if(start_angle == end_angle) return;
  77:lvgl\src\lv_draw/lv_draw_arc.c **** 
  78:lvgl\src\lv_draw/lv_draw_arc.c ****     lv_style_int_t width = dsc->width;
  79:lvgl\src\lv_draw/lv_draw_arc.c ****     if(width > radius) width = radius;
  80:lvgl\src\lv_draw/lv_draw_arc.c **** 
  81:lvgl\src\lv_draw/lv_draw_arc.c ****     lv_draw_rect_dsc_t cir_dsc;
  82:lvgl\src\lv_draw/lv_draw_arc.c ****     lv_draw_rect_dsc_init(&cir_dsc);
  83:lvgl\src\lv_draw/lv_draw_arc.c ****     cir_dsc.radius = LV_RADIUS_CIRCLE;
  84:lvgl\src\lv_draw/lv_draw_arc.c ****     cir_dsc.bg_opa = LV_OPA_TRANSP;
  85:lvgl\src\lv_draw/lv_draw_arc.c ****     cir_dsc.border_opa = dsc->opa;
  86:lvgl\src\lv_draw/lv_draw_arc.c ****     cir_dsc.border_color = dsc->color;
  87:lvgl\src\lv_draw/lv_draw_arc.c ****     cir_dsc.border_width = width;
  88:lvgl\src\lv_draw/lv_draw_arc.c ****     cir_dsc.border_blend_mode = dsc->blend_mode;
ARM GAS  C:\Users\strap\AppData\Local\Temp\ccQGFe6s.s 			page 3


  89:lvgl\src\lv_draw/lv_draw_arc.c **** 
  90:lvgl\src\lv_draw/lv_draw_arc.c ****     lv_area_t area;
  91:lvgl\src\lv_draw/lv_draw_arc.c ****     area.x1 = center_x - radius;
  92:lvgl\src\lv_draw/lv_draw_arc.c ****     area.y1 = center_y - radius;
  93:lvgl\src\lv_draw/lv_draw_arc.c ****     area.x2 = center_x + radius - 1;  /*-1 because the center already belongs to the left/bottom pa
  94:lvgl\src\lv_draw/lv_draw_arc.c ****     area.y2 = center_y + radius - 1;
  95:lvgl\src\lv_draw/lv_draw_arc.c **** 
  96:lvgl\src\lv_draw/lv_draw_arc.c ****     /*Draw a full ring*/
  97:lvgl\src\lv_draw/lv_draw_arc.c ****     if(start_angle + 360 == end_angle || start_angle == end_angle + 360) {
  98:lvgl\src\lv_draw/lv_draw_arc.c ****         lv_draw_rect(&area, clip_area, &cir_dsc);
  99:lvgl\src\lv_draw/lv_draw_arc.c ****         return;
 100:lvgl\src\lv_draw/lv_draw_arc.c ****     }
 101:lvgl\src\lv_draw/lv_draw_arc.c **** 
 102:lvgl\src\lv_draw/lv_draw_arc.c ****     if(start_angle >= 360) start_angle -= 360;
 103:lvgl\src\lv_draw/lv_draw_arc.c ****     if(end_angle >= 360) end_angle -= 360;
 104:lvgl\src\lv_draw/lv_draw_arc.c **** 
 105:lvgl\src\lv_draw/lv_draw_arc.c ****     lv_draw_mask_angle_param_t mask_angle_param;
 106:lvgl\src\lv_draw/lv_draw_arc.c ****     lv_draw_mask_angle_init(&mask_angle_param, center_x, center_y, start_angle, end_angle);
 107:lvgl\src\lv_draw/lv_draw_arc.c **** 
 108:lvgl\src\lv_draw/lv_draw_arc.c ****     int16_t mask_angle_id = lv_draw_mask_add(&mask_angle_param, NULL);
 109:lvgl\src\lv_draw/lv_draw_arc.c **** 
 110:lvgl\src\lv_draw/lv_draw_arc.c ****     int32_t angle_gap;
 111:lvgl\src\lv_draw/lv_draw_arc.c ****     if(end_angle > start_angle) {
 112:lvgl\src\lv_draw/lv_draw_arc.c ****         angle_gap = 360 - (end_angle - start_angle);
 113:lvgl\src\lv_draw/lv_draw_arc.c ****     }
 114:lvgl\src\lv_draw/lv_draw_arc.c ****     else {
 115:lvgl\src\lv_draw/lv_draw_arc.c ****         angle_gap = start_angle - end_angle;
 116:lvgl\src\lv_draw/lv_draw_arc.c ****     }
 117:lvgl\src\lv_draw/lv_draw_arc.c ****     if(angle_gap > SPLIT_ANGLE_GAP_LIMIT && radius > SPLIT_RADIUS_LIMIT) {
 118:lvgl\src\lv_draw/lv_draw_arc.c ****         /*Handle each quarter individually and skip which is empty*/
 119:lvgl\src\lv_draw/lv_draw_arc.c ****         quarter_draw_dsc_t q_dsc;
 120:lvgl\src\lv_draw/lv_draw_arc.c ****         q_dsc.center_x = center_x;
 121:lvgl\src\lv_draw/lv_draw_arc.c ****         q_dsc.center_y = center_y;
 122:lvgl\src\lv_draw/lv_draw_arc.c ****         q_dsc.radius = radius;
 123:lvgl\src\lv_draw/lv_draw_arc.c ****         q_dsc.start_angle = start_angle;
 124:lvgl\src\lv_draw/lv_draw_arc.c ****         q_dsc.end_angle = end_angle;
 125:lvgl\src\lv_draw/lv_draw_arc.c ****         q_dsc.start_quarter = (start_angle / 90) & 0x3;
 126:lvgl\src\lv_draw/lv_draw_arc.c ****         q_dsc.end_quarter = (end_angle / 90) & 0x3;
 127:lvgl\src\lv_draw/lv_draw_arc.c ****         q_dsc.width = width;
 128:lvgl\src\lv_draw/lv_draw_arc.c ****         q_dsc.draw_dsc =  &cir_dsc;
 129:lvgl\src\lv_draw/lv_draw_arc.c ****         q_dsc.draw_area = &area;
 130:lvgl\src\lv_draw/lv_draw_arc.c ****         q_dsc.clip_area = clip_area;
 131:lvgl\src\lv_draw/lv_draw_arc.c **** 
 132:lvgl\src\lv_draw/lv_draw_arc.c ****         draw_quarter_0(&q_dsc);
 133:lvgl\src\lv_draw/lv_draw_arc.c ****         draw_quarter_1(&q_dsc);
 134:lvgl\src\lv_draw/lv_draw_arc.c ****         draw_quarter_2(&q_dsc);
 135:lvgl\src\lv_draw/lv_draw_arc.c ****         draw_quarter_3(&q_dsc);
 136:lvgl\src\lv_draw/lv_draw_arc.c ****     }
 137:lvgl\src\lv_draw/lv_draw_arc.c ****     else {
 138:lvgl\src\lv_draw/lv_draw_arc.c ****         lv_draw_rect(&area, clip_area, &cir_dsc);
 139:lvgl\src\lv_draw/lv_draw_arc.c ****     }
 140:lvgl\src\lv_draw/lv_draw_arc.c ****     lv_draw_mask_remove_id(mask_angle_id);
 141:lvgl\src\lv_draw/lv_draw_arc.c **** 
 142:lvgl\src\lv_draw/lv_draw_arc.c ****     if(dsc->round_start || dsc->round_end) {
 143:lvgl\src\lv_draw/lv_draw_arc.c ****         cir_dsc.bg_color        = dsc->color;
 144:lvgl\src\lv_draw/lv_draw_arc.c ****         cir_dsc.bg_opa        = dsc->opa;
 145:lvgl\src\lv_draw/lv_draw_arc.c ****         cir_dsc.bg_blend_mode = dsc->blend_mode;
ARM GAS  C:\Users\strap\AppData\Local\Temp\ccQGFe6s.s 			page 4


 146:lvgl\src\lv_draw/lv_draw_arc.c ****         cir_dsc.border_width = 0;
 147:lvgl\src\lv_draw/lv_draw_arc.c **** 
 148:lvgl\src\lv_draw/lv_draw_arc.c ****         lv_area_t round_area;
 149:lvgl\src\lv_draw/lv_draw_arc.c ****         if(dsc->round_start) {
 150:lvgl\src\lv_draw/lv_draw_arc.c ****             get_rounded_area(start_angle, radius, width, &round_area);
 151:lvgl\src\lv_draw/lv_draw_arc.c ****             round_area.x1 += center_x;
 152:lvgl\src\lv_draw/lv_draw_arc.c ****             round_area.x2 += center_x;
 153:lvgl\src\lv_draw/lv_draw_arc.c ****             round_area.y1 += center_y;
 154:lvgl\src\lv_draw/lv_draw_arc.c ****             round_area.y2 += center_y;
 155:lvgl\src\lv_draw/lv_draw_arc.c **** 
 156:lvgl\src\lv_draw/lv_draw_arc.c ****             lv_draw_rect(&round_area, clip_area, &cir_dsc);
 157:lvgl\src\lv_draw/lv_draw_arc.c ****         }
 158:lvgl\src\lv_draw/lv_draw_arc.c **** 
 159:lvgl\src\lv_draw/lv_draw_arc.c ****         if(dsc->round_end) {
 160:lvgl\src\lv_draw/lv_draw_arc.c ****             get_rounded_area(end_angle, radius, width, &round_area);
 161:lvgl\src\lv_draw/lv_draw_arc.c ****             round_area.x1 += center_x;
 162:lvgl\src\lv_draw/lv_draw_arc.c ****             round_area.x2 += center_x;
 163:lvgl\src\lv_draw/lv_draw_arc.c ****             round_area.y1 += center_y;
 164:lvgl\src\lv_draw/lv_draw_arc.c ****             round_area.y2 += center_y;
 165:lvgl\src\lv_draw/lv_draw_arc.c **** 
 166:lvgl\src\lv_draw/lv_draw_arc.c ****             lv_draw_rect(&round_area, clip_area, &cir_dsc);
 167:lvgl\src\lv_draw/lv_draw_arc.c ****         }
 168:lvgl\src\lv_draw/lv_draw_arc.c ****     }
 169:lvgl\src\lv_draw/lv_draw_arc.c **** }
 170:lvgl\src\lv_draw/lv_draw_arc.c **** 
 171:lvgl\src\lv_draw/lv_draw_arc.c **** /**********************
 172:lvgl\src\lv_draw/lv_draw_arc.c ****  *   STATIC FUNCTIONS
 173:lvgl\src\lv_draw/lv_draw_arc.c ****  **********************/
 174:lvgl\src\lv_draw/lv_draw_arc.c **** 
 175:lvgl\src\lv_draw/lv_draw_arc.c **** static void draw_quarter_0(quarter_draw_dsc_t * q)
 176:lvgl\src\lv_draw/lv_draw_arc.c **** {
 177:lvgl\src\lv_draw/lv_draw_arc.c ****     lv_area_t quarter_area;
 178:lvgl\src\lv_draw/lv_draw_arc.c **** 
 179:lvgl\src\lv_draw/lv_draw_arc.c ****     if(q->start_quarter == 0 && q->end_quarter == 0 && q->start_angle < q->end_angle) {
 180:lvgl\src\lv_draw/lv_draw_arc.c ****         /*Small arc here*/
 181:lvgl\src\lv_draw/lv_draw_arc.c ****         quarter_area.y1 = q->center_y + ((_lv_trigo_sin(q->start_angle) * (q->radius - q->width)) >
 182:lvgl\src\lv_draw/lv_draw_arc.c ****         quarter_area.x2 = q->center_x + ((_lv_trigo_sin(q->start_angle + 90) * (q->radius)) >> LV_T
 183:lvgl\src\lv_draw/lv_draw_arc.c **** 
 184:lvgl\src\lv_draw/lv_draw_arc.c ****         quarter_area.y2 = q->center_y + ((_lv_trigo_sin(q->end_angle) * q->radius) >> LV_TRIGO_SHIF
 185:lvgl\src\lv_draw/lv_draw_arc.c ****         quarter_area.x1 = q->center_x + ((_lv_trigo_sin(q->end_angle + 90) * (q->radius - q->width)
 186:lvgl\src\lv_draw/lv_draw_arc.c **** 
 187:lvgl\src\lv_draw/lv_draw_arc.c ****         bool ok = _lv_area_intersect(&quarter_area, &quarter_area, q->clip_area);
 188:lvgl\src\lv_draw/lv_draw_arc.c ****         if(ok) lv_draw_rect(q->draw_area, &quarter_area, q->draw_dsc);
 189:lvgl\src\lv_draw/lv_draw_arc.c ****     }
 190:lvgl\src\lv_draw/lv_draw_arc.c ****     else if(q->start_quarter == 0 || q->end_quarter == 0) {
 191:lvgl\src\lv_draw/lv_draw_arc.c ****         /*Start and/or end arcs here*/
 192:lvgl\src\lv_draw/lv_draw_arc.c ****         if(q->start_quarter == 0) {
 193:lvgl\src\lv_draw/lv_draw_arc.c ****             quarter_area.x1 = q->center_x;
 194:lvgl\src\lv_draw/lv_draw_arc.c ****             quarter_area.y2 = q->center_y + q->radius;
 195:lvgl\src\lv_draw/lv_draw_arc.c **** 
 196:lvgl\src\lv_draw/lv_draw_arc.c ****             quarter_area.y1 = q->center_y + ((_lv_trigo_sin(q->start_angle) * (q->radius - q->width
 197:lvgl\src\lv_draw/lv_draw_arc.c ****             quarter_area.x2 = q->center_x + ((_lv_trigo_sin(q->start_angle + 90) * (q->radius)) >> 
 198:lvgl\src\lv_draw/lv_draw_arc.c **** 
 199:lvgl\src\lv_draw/lv_draw_arc.c ****             bool ok = _lv_area_intersect(&quarter_area, &quarter_area, q->clip_area);
 200:lvgl\src\lv_draw/lv_draw_arc.c ****             if(ok) lv_draw_rect(q->draw_area, &quarter_area, q->draw_dsc);
 201:lvgl\src\lv_draw/lv_draw_arc.c ****         }
 202:lvgl\src\lv_draw/lv_draw_arc.c ****         if(q->end_quarter == 0) {
ARM GAS  C:\Users\strap\AppData\Local\Temp\ccQGFe6s.s 			page 5


 203:lvgl\src\lv_draw/lv_draw_arc.c ****             quarter_area.x2 = q->center_x + q->radius;
 204:lvgl\src\lv_draw/lv_draw_arc.c ****             quarter_area.y1 = q->center_y;
 205:lvgl\src\lv_draw/lv_draw_arc.c **** 
 206:lvgl\src\lv_draw/lv_draw_arc.c ****             quarter_area.y2 = q->center_y + ((_lv_trigo_sin(q->end_angle) * q->radius) >> LV_TRIGO_
 207:lvgl\src\lv_draw/lv_draw_arc.c ****             quarter_area.x1 = q->center_x + ((_lv_trigo_sin(q->end_angle + 90) * (q->radius - q->wi
 208:lvgl\src\lv_draw/lv_draw_arc.c **** 
 209:lvgl\src\lv_draw/lv_draw_arc.c ****             bool ok = _lv_area_intersect(&quarter_area, &quarter_area, q->clip_area);
 210:lvgl\src\lv_draw/lv_draw_arc.c ****             if(ok) lv_draw_rect(q->draw_area, &quarter_area, q->draw_dsc);
 211:lvgl\src\lv_draw/lv_draw_arc.c ****         }
 212:lvgl\src\lv_draw/lv_draw_arc.c ****     }
 213:lvgl\src\lv_draw/lv_draw_arc.c ****     else if((q->start_quarter == q->end_quarter && q->start_quarter != 0 && q->end_angle < q->start
 214:lvgl\src\lv_draw/lv_draw_arc.c ****             (q->start_quarter == 2 && q->end_quarter == 1) ||
 215:lvgl\src\lv_draw/lv_draw_arc.c ****             (q->start_quarter == 3 && q->end_quarter == 2) ||
 216:lvgl\src\lv_draw/lv_draw_arc.c ****             (q->start_quarter == 3 && q->end_quarter == 1)) {
 217:lvgl\src\lv_draw/lv_draw_arc.c ****         /*Arc crosses here*/
 218:lvgl\src\lv_draw/lv_draw_arc.c ****         quarter_area.x1 = q->center_x;
 219:lvgl\src\lv_draw/lv_draw_arc.c ****         quarter_area.y1 = q->center_y;
 220:lvgl\src\lv_draw/lv_draw_arc.c ****         quarter_area.x2 = q->center_x + q->radius;
 221:lvgl\src\lv_draw/lv_draw_arc.c ****         quarter_area.y2 = q->center_y + q->radius;
 222:lvgl\src\lv_draw/lv_draw_arc.c **** 
 223:lvgl\src\lv_draw/lv_draw_arc.c ****         bool ok = _lv_area_intersect(&quarter_area, &quarter_area, q->clip_area);
 224:lvgl\src\lv_draw/lv_draw_arc.c ****         if(ok) lv_draw_rect(q->draw_area, &quarter_area, q->draw_dsc);
 225:lvgl\src\lv_draw/lv_draw_arc.c ****     }
 226:lvgl\src\lv_draw/lv_draw_arc.c **** }
 227:lvgl\src\lv_draw/lv_draw_arc.c **** 
 228:lvgl\src\lv_draw/lv_draw_arc.c **** static void draw_quarter_1(quarter_draw_dsc_t * q)
 229:lvgl\src\lv_draw/lv_draw_arc.c **** {
 230:lvgl\src\lv_draw/lv_draw_arc.c ****     lv_area_t quarter_area;
 231:lvgl\src\lv_draw/lv_draw_arc.c **** 
 232:lvgl\src\lv_draw/lv_draw_arc.c ****     if(q->start_quarter == 1 && q->end_quarter == 1 && q->start_angle < q->end_angle) {
 233:lvgl\src\lv_draw/lv_draw_arc.c ****         /*Small arc here*/
 234:lvgl\src\lv_draw/lv_draw_arc.c ****         quarter_area.y2 = q->center_y + ((_lv_trigo_sin(q->start_angle) * (q->radius)) >> LV_TRIGO_
 235:lvgl\src\lv_draw/lv_draw_arc.c ****         quarter_area.x2 = q->center_x + ((_lv_trigo_sin(q->start_angle + 90) * (q->radius - q->widt
 236:lvgl\src\lv_draw/lv_draw_arc.c **** 
 237:lvgl\src\lv_draw/lv_draw_arc.c ****         quarter_area.y1 = q->center_y + ((_lv_trigo_sin(q->end_angle) * (q->radius - q->width)) >> 
 238:lvgl\src\lv_draw/lv_draw_arc.c ****         quarter_area.x1 = q->center_x + ((_lv_trigo_sin(q->end_angle + 90) * (q->radius)) >> LV_TRI
 239:lvgl\src\lv_draw/lv_draw_arc.c **** 
 240:lvgl\src\lv_draw/lv_draw_arc.c ****         bool ok = _lv_area_intersect(&quarter_area, &quarter_area, q->clip_area);
 241:lvgl\src\lv_draw/lv_draw_arc.c ****         if(ok) lv_draw_rect(q->draw_area, &quarter_area, q->draw_dsc);
 242:lvgl\src\lv_draw/lv_draw_arc.c ****     }
 243:lvgl\src\lv_draw/lv_draw_arc.c ****     else if(q->start_quarter == 1 || q->end_quarter == 1) {
 244:lvgl\src\lv_draw/lv_draw_arc.c ****         /*Start and/or end arcs here*/
 245:lvgl\src\lv_draw/lv_draw_arc.c ****         if(q->start_quarter == 1) {
 246:lvgl\src\lv_draw/lv_draw_arc.c ****             quarter_area.x1 = q->center_x - q->radius;
 247:lvgl\src\lv_draw/lv_draw_arc.c ****             quarter_area.y1 = q->center_y;
 248:lvgl\src\lv_draw/lv_draw_arc.c **** 
 249:lvgl\src\lv_draw/lv_draw_arc.c ****             quarter_area.y2 = q->center_y + ((_lv_trigo_sin(q->start_angle) * (q->radius)) >> LV_TR
 250:lvgl\src\lv_draw/lv_draw_arc.c ****             quarter_area.x2 = q->center_x + ((_lv_trigo_sin(q->start_angle + 90) * (q->radius - q->
 251:lvgl\src\lv_draw/lv_draw_arc.c **** 
 252:lvgl\src\lv_draw/lv_draw_arc.c ****             bool ok = _lv_area_intersect(&quarter_area, &quarter_area, q->clip_area);
 253:lvgl\src\lv_draw/lv_draw_arc.c ****             if(ok) lv_draw_rect(q->draw_area, &quarter_area, q->draw_dsc);
 254:lvgl\src\lv_draw/lv_draw_arc.c ****         }
 255:lvgl\src\lv_draw/lv_draw_arc.c ****         if(q->end_quarter == 1) {
 256:lvgl\src\lv_draw/lv_draw_arc.c ****             quarter_area.x2 = q->center_x - 1;
 257:lvgl\src\lv_draw/lv_draw_arc.c ****             quarter_area.y2 = q->center_y + q->radius;
 258:lvgl\src\lv_draw/lv_draw_arc.c **** 
 259:lvgl\src\lv_draw/lv_draw_arc.c ****             quarter_area.y1 = q->center_y + ((_lv_trigo_sin(q->end_angle) * (q->radius - q->width))
ARM GAS  C:\Users\strap\AppData\Local\Temp\ccQGFe6s.s 			page 6


 260:lvgl\src\lv_draw/lv_draw_arc.c ****             quarter_area.x1 = q->center_x + ((_lv_trigo_sin(q->end_angle + 90) * (q->radius)) >> LV
 261:lvgl\src\lv_draw/lv_draw_arc.c **** 
 262:lvgl\src\lv_draw/lv_draw_arc.c ****             bool ok = _lv_area_intersect(&quarter_area, &quarter_area, q->clip_area);
 263:lvgl\src\lv_draw/lv_draw_arc.c ****             if(ok) lv_draw_rect(q->draw_area, &quarter_area, q->draw_dsc);
 264:lvgl\src\lv_draw/lv_draw_arc.c ****         }
 265:lvgl\src\lv_draw/lv_draw_arc.c ****     }
 266:lvgl\src\lv_draw/lv_draw_arc.c ****     else if((q->start_quarter == q->end_quarter && q->start_quarter != 1 && q->end_angle < q->start
 267:lvgl\src\lv_draw/lv_draw_arc.c ****             (q->start_quarter == 0 && q->end_quarter == 2) ||
 268:lvgl\src\lv_draw/lv_draw_arc.c ****             (q->start_quarter == 0 && q->end_quarter == 3) ||
 269:lvgl\src\lv_draw/lv_draw_arc.c ****             (q->start_quarter == 3 && q->end_quarter == 2)) {
 270:lvgl\src\lv_draw/lv_draw_arc.c ****         /*Arc crosses here*/
 271:lvgl\src\lv_draw/lv_draw_arc.c ****         quarter_area.x1 = q->center_x - q->radius;
 272:lvgl\src\lv_draw/lv_draw_arc.c ****         quarter_area.y1 = q->center_y;
 273:lvgl\src\lv_draw/lv_draw_arc.c ****         quarter_area.x2 = q->center_x - 1;
 274:lvgl\src\lv_draw/lv_draw_arc.c ****         quarter_area.y2 = q->center_y + q->radius;
 275:lvgl\src\lv_draw/lv_draw_arc.c **** 
 276:lvgl\src\lv_draw/lv_draw_arc.c ****         bool ok = _lv_area_intersect(&quarter_area, &quarter_area, q->clip_area);
 277:lvgl\src\lv_draw/lv_draw_arc.c ****         if(ok) lv_draw_rect(q->draw_area, &quarter_area, q->draw_dsc);
 278:lvgl\src\lv_draw/lv_draw_arc.c ****     }
 279:lvgl\src\lv_draw/lv_draw_arc.c **** }
 280:lvgl\src\lv_draw/lv_draw_arc.c **** 
 281:lvgl\src\lv_draw/lv_draw_arc.c **** static void draw_quarter_2(quarter_draw_dsc_t * q)
 282:lvgl\src\lv_draw/lv_draw_arc.c **** {
 283:lvgl\src\lv_draw/lv_draw_arc.c ****     lv_area_t quarter_area;
 284:lvgl\src\lv_draw/lv_draw_arc.c **** 
 285:lvgl\src\lv_draw/lv_draw_arc.c ****     if(q->start_quarter == 2 && q->end_quarter == 2 && q->start_angle < q->end_angle) {
 286:lvgl\src\lv_draw/lv_draw_arc.c ****         /*Small arc here*/
 287:lvgl\src\lv_draw/lv_draw_arc.c ****         quarter_area.x1 = q->center_x + ((_lv_trigo_sin(q->start_angle + 90) * (q->radius)) >> LV_T
 288:lvgl\src\lv_draw/lv_draw_arc.c ****         quarter_area.y2 = q->center_y + ((_lv_trigo_sin(q->start_angle) * (q->radius - q->width)) >
 289:lvgl\src\lv_draw/lv_draw_arc.c **** 
 290:lvgl\src\lv_draw/lv_draw_arc.c ****         quarter_area.y1 = q->center_y + ((_lv_trigo_sin(q->end_angle) * q->radius) >> LV_TRIGO_SHIF
 291:lvgl\src\lv_draw/lv_draw_arc.c ****         quarter_area.x2 = q->center_x + ((_lv_trigo_sin(q->end_angle + 90) * (q->radius - q->width)
 292:lvgl\src\lv_draw/lv_draw_arc.c **** 
 293:lvgl\src\lv_draw/lv_draw_arc.c ****         bool ok = _lv_area_intersect(&quarter_area, &quarter_area, q->clip_area);
 294:lvgl\src\lv_draw/lv_draw_arc.c ****         if(ok) lv_draw_rect(q->draw_area, &quarter_area, q->draw_dsc);
 295:lvgl\src\lv_draw/lv_draw_arc.c ****     }
 296:lvgl\src\lv_draw/lv_draw_arc.c ****     else if(q->start_quarter == 2 || q->end_quarter == 2) {
 297:lvgl\src\lv_draw/lv_draw_arc.c ****         /*Start and/or end arcs here*/
 298:lvgl\src\lv_draw/lv_draw_arc.c ****         if(q->start_quarter == 2) {
 299:lvgl\src\lv_draw/lv_draw_arc.c ****             quarter_area.x2 = q->center_x - 1;
 300:lvgl\src\lv_draw/lv_draw_arc.c ****             quarter_area.y1 = q->center_y - q->radius;
 301:lvgl\src\lv_draw/lv_draw_arc.c **** 
 302:lvgl\src\lv_draw/lv_draw_arc.c ****             quarter_area.x1 = q->center_x + ((_lv_trigo_sin(q->start_angle + 90) * (q->radius)) >> 
 303:lvgl\src\lv_draw/lv_draw_arc.c ****             quarter_area.y2 = q->center_y + ((_lv_trigo_sin(q->start_angle) * (q->radius - q->width
 304:lvgl\src\lv_draw/lv_draw_arc.c **** 
 305:lvgl\src\lv_draw/lv_draw_arc.c ****             bool ok = _lv_area_intersect(&quarter_area, &quarter_area, q->clip_area);
 306:lvgl\src\lv_draw/lv_draw_arc.c ****             if(ok) lv_draw_rect(q->draw_area, &quarter_area, q->draw_dsc);
 307:lvgl\src\lv_draw/lv_draw_arc.c ****         }
 308:lvgl\src\lv_draw/lv_draw_arc.c ****         if(q->end_quarter == 2) {
 309:lvgl\src\lv_draw/lv_draw_arc.c ****             quarter_area.x1 = q->center_x - q->radius;
 310:lvgl\src\lv_draw/lv_draw_arc.c ****             quarter_area.y2 = q->center_y - 1;
 311:lvgl\src\lv_draw/lv_draw_arc.c **** 
 312:lvgl\src\lv_draw/lv_draw_arc.c ****             quarter_area.x2 = q->center_x + ((_lv_trigo_sin(q->end_angle + 90) * (q->radius - q->wi
 313:lvgl\src\lv_draw/lv_draw_arc.c ****             quarter_area.y1 = q->center_y + ((_lv_trigo_sin(q->end_angle) * (q->radius)) >> LV_TRIG
 314:lvgl\src\lv_draw/lv_draw_arc.c **** 
 315:lvgl\src\lv_draw/lv_draw_arc.c ****             bool ok = _lv_area_intersect(&quarter_area, &quarter_area, q->clip_area);
 316:lvgl\src\lv_draw/lv_draw_arc.c ****             if(ok) lv_draw_rect(q->draw_area, &quarter_area, q->draw_dsc);
ARM GAS  C:\Users\strap\AppData\Local\Temp\ccQGFe6s.s 			page 7


 317:lvgl\src\lv_draw/lv_draw_arc.c ****         }
 318:lvgl\src\lv_draw/lv_draw_arc.c ****     }
 319:lvgl\src\lv_draw/lv_draw_arc.c ****     else if((q->start_quarter == q->end_quarter && q->start_quarter != 2 && q->end_angle < q->start
 320:lvgl\src\lv_draw/lv_draw_arc.c ****             (q->start_quarter == 0 && q->end_quarter == 3) ||
 321:lvgl\src\lv_draw/lv_draw_arc.c ****             (q->start_quarter == 1 && q->end_quarter == 3) ||
 322:lvgl\src\lv_draw/lv_draw_arc.c ****             (q->start_quarter == 1 && q->end_quarter == 0)) {
 323:lvgl\src\lv_draw/lv_draw_arc.c ****         /*Arc crosses here*/
 324:lvgl\src\lv_draw/lv_draw_arc.c ****         quarter_area.x1 = q->center_x - q->radius;
 325:lvgl\src\lv_draw/lv_draw_arc.c ****         quarter_area.y1 = q->center_y - q->radius;
 326:lvgl\src\lv_draw/lv_draw_arc.c ****         quarter_area.x2 = q->center_x - 1;
 327:lvgl\src\lv_draw/lv_draw_arc.c ****         quarter_area.y2 = q->center_y - 1;
 328:lvgl\src\lv_draw/lv_draw_arc.c **** 
 329:lvgl\src\lv_draw/lv_draw_arc.c ****         bool ok = _lv_area_intersect(&quarter_area, &quarter_area, q->clip_area);
 330:lvgl\src\lv_draw/lv_draw_arc.c ****         if(ok) lv_draw_rect(q->draw_area, &quarter_area, q->draw_dsc);
 331:lvgl\src\lv_draw/lv_draw_arc.c ****     }
 332:lvgl\src\lv_draw/lv_draw_arc.c **** }
 333:lvgl\src\lv_draw/lv_draw_arc.c **** 
 334:lvgl\src\lv_draw/lv_draw_arc.c **** 
 335:lvgl\src\lv_draw/lv_draw_arc.c **** static void draw_quarter_3(quarter_draw_dsc_t * q)
 336:lvgl\src\lv_draw/lv_draw_arc.c **** {
 337:lvgl\src\lv_draw/lv_draw_arc.c ****     lv_area_t quarter_area;
 338:lvgl\src\lv_draw/lv_draw_arc.c **** 
 339:lvgl\src\lv_draw/lv_draw_arc.c ****     if(q->start_quarter == 3 && q->end_quarter == 3 && q->start_angle < q->end_angle) {
 340:lvgl\src\lv_draw/lv_draw_arc.c ****         /*Small arc here*/
 341:lvgl\src\lv_draw/lv_draw_arc.c ****         quarter_area.x1 = q->center_x + ((_lv_trigo_sin(q->start_angle + 90) * (q->radius - q->widt
 342:lvgl\src\lv_draw/lv_draw_arc.c ****         quarter_area.y1 = q->center_y + ((_lv_trigo_sin(q->start_angle) * (q->radius)) >> LV_TRIGO_
 343:lvgl\src\lv_draw/lv_draw_arc.c **** 
 344:lvgl\src\lv_draw/lv_draw_arc.c ****         quarter_area.x2 = q->center_x + ((_lv_trigo_sin(q->end_angle + 90) * (q->radius)) >> LV_TRI
 345:lvgl\src\lv_draw/lv_draw_arc.c ****         quarter_area.y2 = q->center_y + ((_lv_trigo_sin(q->end_angle) * (q->radius - q->width)) >> 
 346:lvgl\src\lv_draw/lv_draw_arc.c **** 
 347:lvgl\src\lv_draw/lv_draw_arc.c ****         bool ok = _lv_area_intersect(&quarter_area, &quarter_area, q->clip_area);
 348:lvgl\src\lv_draw/lv_draw_arc.c ****         if(ok) lv_draw_rect(q->draw_area, &quarter_area, q->draw_dsc);
 349:lvgl\src\lv_draw/lv_draw_arc.c ****     }
 350:lvgl\src\lv_draw/lv_draw_arc.c ****     else if(q->start_quarter == 3 || q->end_quarter == 3) {
 351:lvgl\src\lv_draw/lv_draw_arc.c ****         /*Start and/or end arcs here*/
 352:lvgl\src\lv_draw/lv_draw_arc.c ****         if(q->start_quarter == 3) {
 353:lvgl\src\lv_draw/lv_draw_arc.c ****             quarter_area.x2 = q->center_x + q->radius;
 354:lvgl\src\lv_draw/lv_draw_arc.c ****             quarter_area.y2 = q->center_y - 1;
 355:lvgl\src\lv_draw/lv_draw_arc.c **** 
 356:lvgl\src\lv_draw/lv_draw_arc.c ****             quarter_area.x1 = q->center_x + ((_lv_trigo_sin(q->start_angle + 90) * (q->radius - q->
 357:lvgl\src\lv_draw/lv_draw_arc.c ****             quarter_area.y1 = q->center_y + ((_lv_trigo_sin(q->start_angle) * (q->radius)) >> LV_TR
 358:lvgl\src\lv_draw/lv_draw_arc.c **** 
 359:lvgl\src\lv_draw/lv_draw_arc.c ****             bool ok = _lv_area_intersect(&quarter_area, &quarter_area, q->clip_area);
 360:lvgl\src\lv_draw/lv_draw_arc.c ****             if(ok) lv_draw_rect(q->draw_area, &quarter_area, q->draw_dsc);
 361:lvgl\src\lv_draw/lv_draw_arc.c ****         }
 362:lvgl\src\lv_draw/lv_draw_arc.c ****         if(q->end_quarter == 3) {
 363:lvgl\src\lv_draw/lv_draw_arc.c ****             quarter_area.x1 = q->center_x;
 364:lvgl\src\lv_draw/lv_draw_arc.c ****             quarter_area.y1 = q->center_y - q->radius;
 365:lvgl\src\lv_draw/lv_draw_arc.c **** 
 366:lvgl\src\lv_draw/lv_draw_arc.c ****             quarter_area.x2 = q->center_x + ((_lv_trigo_sin(q->end_angle + 90) * (q->radius)) >> LV
 367:lvgl\src\lv_draw/lv_draw_arc.c ****             quarter_area.y2 = q->center_y + ((_lv_trigo_sin(q->end_angle) * (q->radius - q->width))
 368:lvgl\src\lv_draw/lv_draw_arc.c **** 
 369:lvgl\src\lv_draw/lv_draw_arc.c ****             bool ok = _lv_area_intersect(&quarter_area, &quarter_area, q->clip_area);
 370:lvgl\src\lv_draw/lv_draw_arc.c ****             if(ok) lv_draw_rect(q->draw_area, &quarter_area, q->draw_dsc);
 371:lvgl\src\lv_draw/lv_draw_arc.c ****         }
 372:lvgl\src\lv_draw/lv_draw_arc.c ****     }
 373:lvgl\src\lv_draw/lv_draw_arc.c ****     else if((q->start_quarter == q->end_quarter && q->start_quarter != 3 && q->end_angle < q->start
ARM GAS  C:\Users\strap\AppData\Local\Temp\ccQGFe6s.s 			page 8


 374:lvgl\src\lv_draw/lv_draw_arc.c ****             (q->start_quarter == 2 && q->end_quarter == 0) ||
 375:lvgl\src\lv_draw/lv_draw_arc.c ****             (q->start_quarter == 1 && q->end_quarter == 0) ||
 376:lvgl\src\lv_draw/lv_draw_arc.c ****             (q->start_quarter == 2 && q->end_quarter == 1)) {
 377:lvgl\src\lv_draw/lv_draw_arc.c ****         /*Arc crosses here*/
 378:lvgl\src\lv_draw/lv_draw_arc.c ****         quarter_area.x1 = q->center_x;
 379:lvgl\src\lv_draw/lv_draw_arc.c ****         quarter_area.y1 = q->center_y - q->radius;
 380:lvgl\src\lv_draw/lv_draw_arc.c ****         quarter_area.x2 = q->center_x + q->radius;
 381:lvgl\src\lv_draw/lv_draw_arc.c ****         quarter_area.y2 = q->center_y - 1;
 382:lvgl\src\lv_draw/lv_draw_arc.c **** 
 383:lvgl\src\lv_draw/lv_draw_arc.c ****         bool ok = _lv_area_intersect(&quarter_area, &quarter_area, q->clip_area);
 384:lvgl\src\lv_draw/lv_draw_arc.c ****         if(ok) lv_draw_rect(q->draw_area, &quarter_area, q->draw_dsc);
 385:lvgl\src\lv_draw/lv_draw_arc.c ****     }
 386:lvgl\src\lv_draw/lv_draw_arc.c **** }
 387:lvgl\src\lv_draw/lv_draw_arc.c **** 
 388:lvgl\src\lv_draw/lv_draw_arc.c **** 
 389:lvgl\src\lv_draw/lv_draw_arc.c **** static void get_rounded_area(int16_t angle, lv_coord_t radius, uint8_t tickness, lv_area_t * res_ar
 390:lvgl\src\lv_draw/lv_draw_arc.c **** {
  27              		.loc 1 390 0
  28              		.cfi_startproc
  29              		@ args = 0, pretend = 0, frame = 0
  30              		@ frame_needed = 0, uses_anonymous_args = 0
  31              	.LVL0:
  32 0000 2DE9F843 		push	{r3, r4, r5, r6, r7, r8, r9, lr}
  33              		.cfi_def_cfa_offset 32
  34              		.cfi_offset 3, -32
  35              		.cfi_offset 4, -28
  36              		.cfi_offset 5, -24
  37              		.cfi_offset 6, -20
  38              		.cfi_offset 7, -16
  39              		.cfi_offset 8, -12
  40              		.cfi_offset 9, -8
  41              		.cfi_offset 14, -4
  42 0004 8146     		mov	r9, r0
  43 0006 9846     		mov	r8, r3
  44              	.LVL1:
 391:lvgl\src\lv_draw/lv_draw_arc.c ****     const uint8_t ps = 8;
 392:lvgl\src\lv_draw/lv_draw_arc.c ****     const uint8_t pa = 127;
 393:lvgl\src\lv_draw/lv_draw_arc.c **** 
 394:lvgl\src\lv_draw/lv_draw_arc.c ****     int32_t thick_half = tickness / 2;
  45              		.loc 1 394 0
  46 0008 5608     		lsrs	r6, r2, #1
  47              	.LVL2:
 395:lvgl\src\lv_draw/lv_draw_arc.c ****     uint8_t thick_corr = (tickness & 0x01) ? 0 : 1;
  48              		.loc 1 395 0
  49 000a 82F00102 		eor	r2, r2, #1
  50              	.LVL3:
  51 000e 02F00107 		and	r7, r2, #1
  52              	.LVL4:
 396:lvgl\src\lv_draw/lv_draw_arc.c **** 
 397:lvgl\src\lv_draw/lv_draw_arc.c ****     int32_t rx_corr;
 398:lvgl\src\lv_draw/lv_draw_arc.c ****     int32_t ry_corr;
 399:lvgl\src\lv_draw/lv_draw_arc.c **** 
 400:lvgl\src\lv_draw/lv_draw_arc.c ****     if(angle > 90 && angle < 270) rx_corr = 0;
  53              		.loc 1 400 0
  54 0012 80B2     		uxth	r0, r0
  55              	.LVL5:
 401:lvgl\src\lv_draw/lv_draw_arc.c ****     else  rx_corr = 0;
ARM GAS  C:\Users\strap\AppData\Local\Temp\ccQGFe6s.s 			page 9


 402:lvgl\src\lv_draw/lv_draw_arc.c **** 
 403:lvgl\src\lv_draw/lv_draw_arc.c ****     if(angle > 0 && angle < 180) ry_corr = 0;
 404:lvgl\src\lv_draw/lv_draw_arc.c ****     else  ry_corr = 0;
 405:lvgl\src\lv_draw/lv_draw_arc.c **** 
 406:lvgl\src\lv_draw/lv_draw_arc.c ****     int32_t cir_x;
 407:lvgl\src\lv_draw/lv_draw_arc.c ****     int32_t cir_y;
 408:lvgl\src\lv_draw/lv_draw_arc.c **** 
 409:lvgl\src\lv_draw/lv_draw_arc.c ****     cir_x = ((radius - rx_corr - thick_half) * _lv_trigo_sin(90 - angle)) >> (LV_TRIGO_SHIFT - ps);
  56              		.loc 1 409 0
  57 0014 8C1B     		subs	r4, r1, r6
  58 0016 C0F15A00 		rsb	r0, r0, #90
  59              	.LVL6:
  60 001a 00B2     		sxth	r0, r0
  61 001c FFF7FEFF 		bl	_lv_trigo_sin
  62              	.LVL7:
  63 0020 04FB00F0 		mul	r0, r4, r0
  64 0024 C511     		asrs	r5, r0, #7
  65              	.LVL8:
 410:lvgl\src\lv_draw/lv_draw_arc.c ****     cir_y = ((radius - ry_corr - thick_half) * _lv_trigo_sin(angle)) >> (LV_TRIGO_SHIFT - ps);
  66              		.loc 1 410 0
  67 0026 4846     		mov	r0, r9
  68 0028 FFF7FEFF 		bl	_lv_trigo_sin
  69              	.LVL9:
  70 002c 04FB00F0 		mul	r0, r4, r0
  71 0030 C411     		asrs	r4, r0, #7
  72              	.LVL10:
 411:lvgl\src\lv_draw/lv_draw_arc.c **** 
 412:lvgl\src\lv_draw/lv_draw_arc.c ****     /* Actually the center of the pixel need to be calculated so apply 1/2 px offset*/
 413:lvgl\src\lv_draw/lv_draw_arc.c ****     if(cir_x > 0) {
  73              		.loc 1 413 0
  74 0032 002D     		cmp	r5, #0
  75 0034 0BDD     		ble	.L2
 414:lvgl\src\lv_draw/lv_draw_arc.c ****         cir_x = (cir_x - pa) >> ps;
  76              		.loc 1 414 0
  77 0036 7F3D     		subs	r5, r5, #127
  78              	.LVL11:
 415:lvgl\src\lv_draw/lv_draw_arc.c ****         res_area->x1 = cir_x - thick_half + thick_corr;
  79              		.loc 1 415 0
  80 0038 C5F30F25 		ubfx	r5, r5, #8, #16
  81              	.LVL12:
  82 003c B3B2     		uxth	r3, r6
  83 003e EA1A     		subs	r2, r5, r3
  84 0040 3A44     		add	r2, r2, r7
  85 0042 A8F80020 		strh	r2, [r8]	@ movhi
 416:lvgl\src\lv_draw/lv_draw_arc.c ****         res_area->x2 = cir_x + thick_half;
  86              		.loc 1 416 0
  87 0046 1D44     		add	r5, r5, r3
  88 0048 A8F80450 		strh	r5, [r8, #4]	@ movhi
  89 004c 0AE0     		b	.L3
  90              	.LVL13:
  91              	.L2:
 417:lvgl\src\lv_draw/lv_draw_arc.c ****     }
 418:lvgl\src\lv_draw/lv_draw_arc.c ****     else {
 419:lvgl\src\lv_draw/lv_draw_arc.c ****         cir_x = (cir_x + pa) >> ps;
  92              		.loc 1 419 0
  93 004e 7F35     		adds	r5, r5, #127
  94              	.LVL14:
ARM GAS  C:\Users\strap\AppData\Local\Temp\ccQGFe6s.s 			page 10


 420:lvgl\src\lv_draw/lv_draw_arc.c ****         res_area->x1 = cir_x - thick_half;
  95              		.loc 1 420 0
  96 0050 C5F30F25 		ubfx	r5, r5, #8, #16
  97              	.LVL15:
  98 0054 B3B2     		uxth	r3, r6
  99 0056 EA1A     		subs	r2, r5, r3
 100 0058 A8F80020 		strh	r2, [r8]	@ movhi
 421:lvgl\src\lv_draw/lv_draw_arc.c ****         res_area->x2 = cir_x + thick_half - thick_corr;
 101              		.loc 1 421 0
 102 005c 1D44     		add	r5, r5, r3
 103 005e ED1B     		subs	r5, r5, r7
 104 0060 A8F80450 		strh	r5, [r8, #4]	@ movhi
 105              	.L3:
 422:lvgl\src\lv_draw/lv_draw_arc.c ****     }
 423:lvgl\src\lv_draw/lv_draw_arc.c **** 
 424:lvgl\src\lv_draw/lv_draw_arc.c ****     if(cir_y > 0) {
 106              		.loc 1 424 0
 107 0064 002C     		cmp	r4, #0
 108 0066 0CDD     		ble	.L4
 425:lvgl\src\lv_draw/lv_draw_arc.c ****         cir_y = (cir_y - pa) >> ps;
 109              		.loc 1 425 0
 110 0068 7F3C     		subs	r4, r4, #127
 111              	.LVL16:
 426:lvgl\src\lv_draw/lv_draw_arc.c ****         res_area->y1 = cir_y - thick_half + thick_corr;
 112              		.loc 1 426 0
 113 006a C4F30F24 		ubfx	r4, r4, #8, #16
 114              	.LVL17:
 115 006e B6B2     		uxth	r6, r6
 116              	.LVL18:
 117 0070 A21B     		subs	r2, r4, r6
 118 0072 1744     		add	r7, r7, r2
 119              	.LVL19:
 120 0074 A8F80270 		strh	r7, [r8, #2]	@ movhi
 427:lvgl\src\lv_draw/lv_draw_arc.c ****         res_area->y2 = cir_y + thick_half;
 121              		.loc 1 427 0
 122 0078 2644     		add	r6, r6, r4
 123 007a A8F80660 		strh	r6, [r8, #6]	@ movhi
 124 007e BDE8F883 		pop	{r3, r4, r5, r6, r7, r8, r9, pc}
 125              	.LVL20:
 126              	.L4:
 428:lvgl\src\lv_draw/lv_draw_arc.c ****     }
 429:lvgl\src\lv_draw/lv_draw_arc.c ****     else {
 430:lvgl\src\lv_draw/lv_draw_arc.c ****         cir_y = (cir_y + pa) >> ps;
 127              		.loc 1 430 0
 128 0082 7F34     		adds	r4, r4, #127
 129              	.LVL21:
 431:lvgl\src\lv_draw/lv_draw_arc.c ****         res_area->y1 = cir_y - thick_half;
 130              		.loc 1 431 0
 131 0084 C4F30F24 		ubfx	r4, r4, #8, #16
 132              	.LVL22:
 133 0088 B6B2     		uxth	r6, r6
 134              	.LVL23:
 135 008a A31B     		subs	r3, r4, r6
 136 008c A8F80230 		strh	r3, [r8, #2]	@ movhi
 432:lvgl\src\lv_draw/lv_draw_arc.c ****         res_area->y2 = cir_y + thick_half - thick_corr;
 137              		.loc 1 432 0
 138 0090 2644     		add	r6, r6, r4
ARM GAS  C:\Users\strap\AppData\Local\Temp\ccQGFe6s.s 			page 11


 139 0092 F71B     		subs	r7, r6, r7
 140              	.LVL24:
 141 0094 A8F80670 		strh	r7, [r8, #6]	@ movhi
 142 0098 BDE8F883 		pop	{r3, r4, r5, r6, r7, r8, r9, pc}
 143              		.cfi_endproc
 144              	.LFE41:
 145              		.size	get_rounded_area, .-get_rounded_area
 146              		.section	.text.draw_quarter_0,"ax",%progbits
 147              		.align	2
 148              		.thumb
 149              		.thumb_func
 150              		.type	draw_quarter_0, %function
 151              	draw_quarter_0:
 152              	.LFB37:
 176:lvgl\src\lv_draw/lv_draw_arc.c ****     lv_area_t quarter_area;
 153              		.loc 1 176 0
 154              		.cfi_startproc
 155              		@ args = 0, pretend = 0, frame = 8
 156              		@ frame_needed = 0, uses_anonymous_args = 0
 157              	.LVL25:
 158 0000 30B5     		push	{r4, r5, lr}
 159              		.cfi_def_cfa_offset 12
 160              		.cfi_offset 4, -12
 161              		.cfi_offset 5, -8
 162              		.cfi_offset 14, -4
 163 0002 83B0     		sub	sp, sp, #12
 164              		.cfi_def_cfa_offset 24
 165 0004 0446     		mov	r4, r0
 179:lvgl\src\lv_draw/lv_draw_arc.c ****         /*Small arc here*/
 166              		.loc 1 179 0
 167 0006 4389     		ldrh	r3, [r0, #10]
 168 0008 002B     		cmp	r3, #0
 169 000a 53D1     		bne	.L8
 179:lvgl\src\lv_draw/lv_draw_arc.c ****         /*Small arc here*/
 170              		.loc 1 179 0 is_stmt 0 discriminator 1
 171 000c 8289     		ldrh	r2, [r0, #12]
 172 000e 002A     		cmp	r2, #0
 173 0010 50D1     		bne	.L8
 179:lvgl\src\lv_draw/lv_draw_arc.c ****         /*Small arc here*/
 174              		.loc 1 179 0 discriminator 2
 175 0012 C088     		ldrh	r0, [r0, #6]
 176              	.LVL26:
 177 0014 2289     		ldrh	r2, [r4, #8]
 178 0016 9042     		cmp	r0, r2
 179 0018 4CD2     		bcs	.L8
 180              	.LBB2:
 181:lvgl\src\lv_draw/lv_draw_arc.c ****         quarter_area.x2 = q->center_x + ((_lv_trigo_sin(q->start_angle + 90) * (q->radius)) >> LV_T
 181              		.loc 1 181 0 is_stmt 1
 182 001a B4F90250 		ldrsh	r5, [r4, #2]
 183 001e 00B2     		sxth	r0, r0
 184 0020 FFF7FEFF 		bl	_lv_trigo_sin
 185              	.LVL27:
 186 0024 B4F90430 		ldrsh	r3, [r4, #4]
 187 0028 B4F90E20 		ldrsh	r2, [r4, #14]
 188 002c 9B1A     		subs	r3, r3, r2
 189 002e 03FB00F0 		mul	r0, r3, r0
 190 0032 05EBE030 		add	r0, r5, r0, asr #15
ARM GAS  C:\Users\strap\AppData\Local\Temp\ccQGFe6s.s 			page 12


 191 0036 ADF80200 		strh	r0, [sp, #2]	@ movhi
 182:lvgl\src\lv_draw/lv_draw_arc.c **** 
 192              		.loc 1 182 0
 193 003a B4F90050 		ldrsh	r5, [r4]
 194 003e E088     		ldrh	r0, [r4, #6]
 195 0040 5A30     		adds	r0, r0, #90
 196 0042 00B2     		sxth	r0, r0
 197 0044 FFF7FEFF 		bl	_lv_trigo_sin
 198              	.LVL28:
 199 0048 B4F90430 		ldrsh	r3, [r4, #4]
 200 004c 03FB00F0 		mul	r0, r3, r0
 201 0050 05EBE035 		add	r5, r5, r0, asr #15
 202 0054 ADF80450 		strh	r5, [sp, #4]	@ movhi
 184:lvgl\src\lv_draw/lv_draw_arc.c ****         quarter_area.x1 = q->center_x + ((_lv_trigo_sin(q->end_angle + 90) * (q->radius - q->width)
 203              		.loc 1 184 0
 204 0058 B4F90250 		ldrsh	r5, [r4, #2]
 205 005c B4F90800 		ldrsh	r0, [r4, #8]
 206 0060 FFF7FEFF 		bl	_lv_trigo_sin
 207              	.LVL29:
 208 0064 B4F90430 		ldrsh	r3, [r4, #4]
 209 0068 03FB00F0 		mul	r0, r3, r0
 210 006c 05EBE035 		add	r5, r5, r0, asr #15
 211 0070 ADF80650 		strh	r5, [sp, #6]	@ movhi
 185:lvgl\src\lv_draw/lv_draw_arc.c **** 
 212              		.loc 1 185 0
 213 0074 B4F90050 		ldrsh	r5, [r4]
 214 0078 2089     		ldrh	r0, [r4, #8]
 215 007a 5A30     		adds	r0, r0, #90
 216 007c 00B2     		sxth	r0, r0
 217 007e FFF7FEFF 		bl	_lv_trigo_sin
 218              	.LVL30:
 219 0082 B4F90430 		ldrsh	r3, [r4, #4]
 220 0086 B4F90E20 		ldrsh	r2, [r4, #14]
 221 008a 9B1A     		subs	r3, r3, r2
 222 008c 03FB00F0 		mul	r0, r3, r0
 223 0090 05EBE033 		add	r3, r5, r0, asr #15
 224 0094 02A8     		add	r0, sp, #8
 225 0096 20F8083D 		strh	r3, [r0, #-8]!	@ movhi
 187:lvgl\src\lv_draw/lv_draw_arc.c ****         if(ok) lv_draw_rect(q->draw_area, &quarter_area, q->draw_dsc);
 226              		.loc 1 187 0
 227 009a A269     		ldr	r2, [r4, #24]
 228 009c 0146     		mov	r1, r0
 229 009e FFF7FEFF 		bl	_lv_area_intersect
 230              	.LVL31:
 188:lvgl\src\lv_draw/lv_draw_arc.c ****     }
 231              		.loc 1 188 0
 232 00a2 0028     		cmp	r0, #0
 233 00a4 00F0A580 		beq	.L7
 188:lvgl\src\lv_draw/lv_draw_arc.c ****     }
 234              		.loc 1 188 0 is_stmt 0 discriminator 1
 235 00a8 2269     		ldr	r2, [r4, #16]
 236 00aa 6946     		mov	r1, sp
 237 00ac 6069     		ldr	r0, [r4, #20]
 238              	.LVL32:
 239 00ae FFF7FEFF 		bl	lv_draw_rect
 240              	.LVL33:
 241 00b2 9EE0     		b	.L7
ARM GAS  C:\Users\strap\AppData\Local\Temp\ccQGFe6s.s 			page 13


 242              	.L8:
 243              	.LBE2:
 190:lvgl\src\lv_draw/lv_draw_arc.c ****         /*Start and/or end arcs here*/
 244              		.loc 1 190 0 is_stmt 1
 245 00b4 13B1     		cbz	r3, .L10
 190:lvgl\src\lv_draw/lv_draw_arc.c ****         /*Start and/or end arcs here*/
 246              		.loc 1 190 0 is_stmt 0 discriminator 1
 247 00b6 A289     		ldrh	r2, [r4, #12]
 248 00b8 002A     		cmp	r2, #0
 249 00ba 6CD1     		bne	.L11
 250              	.L10:
 192:lvgl\src\lv_draw/lv_draw_arc.c ****             quarter_area.x1 = q->center_x;
 251              		.loc 1 192 0 is_stmt 1
 252 00bc 9BBB     		cbnz	r3, .L12
 253              	.LBB3:
 193:lvgl\src\lv_draw/lv_draw_arc.c ****             quarter_area.y2 = q->center_y + q->radius;
 254              		.loc 1 193 0
 255 00be B4F90030 		ldrsh	r3, [r4]
 256 00c2 ADF80030 		strh	r3, [sp]	@ movhi
 194:lvgl\src\lv_draw/lv_draw_arc.c **** 
 257              		.loc 1 194 0
 258 00c6 B4F90250 		ldrsh	r5, [r4, #2]
 259 00ca B4F90430 		ldrsh	r3, [r4, #4]
 260 00ce 2B44     		add	r3, r3, r5
 261 00d0 ADF80630 		strh	r3, [sp, #6]	@ movhi
 196:lvgl\src\lv_draw/lv_draw_arc.c ****             quarter_area.x2 = q->center_x + ((_lv_trigo_sin(q->start_angle + 90) * (q->radius)) >> 
 262              		.loc 1 196 0
 263 00d4 B4F90600 		ldrsh	r0, [r4, #6]
 264 00d8 FFF7FEFF 		bl	_lv_trigo_sin
 265              	.LVL34:
 266 00dc B4F90430 		ldrsh	r3, [r4, #4]
 267 00e0 B4F90E20 		ldrsh	r2, [r4, #14]
 268 00e4 9B1A     		subs	r3, r3, r2
 269 00e6 03FB00F0 		mul	r0, r3, r0
 270 00ea 05EBE030 		add	r0, r5, r0, asr #15
 271 00ee ADF80200 		strh	r0, [sp, #2]	@ movhi
 197:lvgl\src\lv_draw/lv_draw_arc.c **** 
 272              		.loc 1 197 0
 273 00f2 B4F90050 		ldrsh	r5, [r4]
 274 00f6 E088     		ldrh	r0, [r4, #6]
 275 00f8 5A30     		adds	r0, r0, #90
 276 00fa 00B2     		sxth	r0, r0
 277 00fc FFF7FEFF 		bl	_lv_trigo_sin
 278              	.LVL35:
 279 0100 B4F90430 		ldrsh	r3, [r4, #4]
 280 0104 03FB00F0 		mul	r0, r3, r0
 281 0108 05EBE035 		add	r5, r5, r0, asr #15
 282 010c ADF80450 		strh	r5, [sp, #4]	@ movhi
 199:lvgl\src\lv_draw/lv_draw_arc.c ****             if(ok) lv_draw_rect(q->draw_area, &quarter_area, q->draw_dsc);
 283              		.loc 1 199 0
 284 0110 A269     		ldr	r2, [r4, #24]
 285 0112 6946     		mov	r1, sp
 286 0114 6846     		mov	r0, sp
 287 0116 FFF7FEFF 		bl	_lv_area_intersect
 288              	.LVL36:
 200:lvgl\src\lv_draw/lv_draw_arc.c ****         }
 289              		.loc 1 200 0
ARM GAS  C:\Users\strap\AppData\Local\Temp\ccQGFe6s.s 			page 14


 290 011a 20B1     		cbz	r0, .L12
 200:lvgl\src\lv_draw/lv_draw_arc.c ****         }
 291              		.loc 1 200 0 is_stmt 0 discriminator 1
 292 011c 2269     		ldr	r2, [r4, #16]
 293 011e 6946     		mov	r1, sp
 294 0120 6069     		ldr	r0, [r4, #20]
 295              	.LVL37:
 296 0122 FFF7FEFF 		bl	lv_draw_rect
 297              	.LVL38:
 298              	.L12:
 299              	.LBE3:
 202:lvgl\src\lv_draw/lv_draw_arc.c ****             quarter_area.x2 = q->center_x + q->radius;
 300              		.loc 1 202 0 is_stmt 1
 301 0126 A389     		ldrh	r3, [r4, #12]
 302 0128 002B     		cmp	r3, #0
 303 012a 62D1     		bne	.L7
 304              	.LBB4:
 203:lvgl\src\lv_draw/lv_draw_arc.c ****             quarter_area.y1 = q->center_y;
 305              		.loc 1 203 0
 306 012c B4F90020 		ldrsh	r2, [r4]
 307 0130 B4F90430 		ldrsh	r3, [r4, #4]
 308 0134 1344     		add	r3, r3, r2
 309 0136 ADF80430 		strh	r3, [sp, #4]	@ movhi
 204:lvgl\src\lv_draw/lv_draw_arc.c **** 
 310              		.loc 1 204 0
 311 013a B4F90250 		ldrsh	r5, [r4, #2]
 312 013e ADF80250 		strh	r5, [sp, #2]	@ movhi
 206:lvgl\src\lv_draw/lv_draw_arc.c ****             quarter_area.x1 = q->center_x + ((_lv_trigo_sin(q->end_angle + 90) * (q->radius - q->wi
 313              		.loc 1 206 0
 314 0142 B4F90800 		ldrsh	r0, [r4, #8]
 315 0146 FFF7FEFF 		bl	_lv_trigo_sin
 316              	.LVL39:
 317 014a B4F90430 		ldrsh	r3, [r4, #4]
 318 014e 03FB00F0 		mul	r0, r3, r0
 319 0152 05EBE035 		add	r5, r5, r0, asr #15
 320 0156 ADF80650 		strh	r5, [sp, #6]	@ movhi
 207:lvgl\src\lv_draw/lv_draw_arc.c **** 
 321              		.loc 1 207 0
 322 015a B4F90050 		ldrsh	r5, [r4]
 323 015e 2089     		ldrh	r0, [r4, #8]
 324 0160 5A30     		adds	r0, r0, #90
 325 0162 00B2     		sxth	r0, r0
 326 0164 FFF7FEFF 		bl	_lv_trigo_sin
 327              	.LVL40:
 328 0168 B4F90430 		ldrsh	r3, [r4, #4]
 329 016c B4F90E20 		ldrsh	r2, [r4, #14]
 330 0170 9B1A     		subs	r3, r3, r2
 331 0172 03FB00F0 		mul	r0, r3, r0
 332 0176 05EBE033 		add	r3, r5, r0, asr #15
 333 017a 02A8     		add	r0, sp, #8
 334 017c 20F8083D 		strh	r3, [r0, #-8]!	@ movhi
 209:lvgl\src\lv_draw/lv_draw_arc.c ****             if(ok) lv_draw_rect(q->draw_area, &quarter_area, q->draw_dsc);
 335              		.loc 1 209 0
 336 0180 A269     		ldr	r2, [r4, #24]
 337 0182 0146     		mov	r1, r0
 338 0184 FFF7FEFF 		bl	_lv_area_intersect
 339              	.LVL41:
ARM GAS  C:\Users\strap\AppData\Local\Temp\ccQGFe6s.s 			page 15


 210:lvgl\src\lv_draw/lv_draw_arc.c ****         }
 340              		.loc 1 210 0
 341 0188 98B3     		cbz	r0, .L7
 210:lvgl\src\lv_draw/lv_draw_arc.c ****         }
 342              		.loc 1 210 0 is_stmt 0 discriminator 1
 343 018a 2269     		ldr	r2, [r4, #16]
 344 018c 6946     		mov	r1, sp
 345 018e 6069     		ldr	r0, [r4, #20]
 346              	.LVL42:
 347 0190 FFF7FEFF 		bl	lv_draw_rect
 348              	.LVL43:
 349 0194 2DE0     		b	.L7
 350              	.L11:
 351              	.LBE4:
 213:lvgl\src\lv_draw/lv_draw_arc.c ****             (q->start_quarter == 2 && q->end_quarter == 1) ||
 352              		.loc 1 213 0 is_stmt 1
 353 0196 9342     		cmp	r3, r2
 354 0198 04D1     		bne	.L13
 213:lvgl\src\lv_draw/lv_draw_arc.c ****             (q->start_quarter == 2 && q->end_quarter == 1) ||
 355              		.loc 1 213 0 is_stmt 0 discriminator 1
 356 019a 1BB1     		cbz	r3, .L13
 213:lvgl\src\lv_draw/lv_draw_arc.c ****             (q->start_quarter == 2 && q->end_quarter == 1) ||
 357              		.loc 1 213 0 discriminator 3
 358 019c 2089     		ldrh	r0, [r4, #8]
 359 019e E188     		ldrh	r1, [r4, #6]
 360 01a0 8842     		cmp	r0, r1
 361 01a2 0BD3     		bcc	.L14
 362              	.L13:
 213:lvgl\src\lv_draw/lv_draw_arc.c ****             (q->start_quarter == 2 && q->end_quarter == 1) ||
 363              		.loc 1 213 0 discriminator 5
 364 01a4 022B     		cmp	r3, #2
 365 01a6 01D1     		bne	.L15
 214:lvgl\src\lv_draw/lv_draw_arc.c ****             (q->start_quarter == 3 && q->end_quarter == 2) ||
 366              		.loc 1 214 0 is_stmt 1
 367 01a8 012A     		cmp	r2, #1
 368 01aa 07D0     		beq	.L14
 369              	.L15:
 214:lvgl\src\lv_draw/lv_draw_arc.c ****             (q->start_quarter == 3 && q->end_quarter == 2) ||
 370              		.loc 1 214 0 is_stmt 0 discriminator 1
 371 01ac 032B     		cmp	r3, #3
 372 01ae 01D1     		bne	.L16
 215:lvgl\src\lv_draw/lv_draw_arc.c ****             (q->start_quarter == 3 && q->end_quarter == 1)) {
 373              		.loc 1 215 0 is_stmt 1
 374 01b0 022A     		cmp	r2, #2
 375 01b2 03D0     		beq	.L14
 376              	.L16:
 215:lvgl\src\lv_draw/lv_draw_arc.c ****             (q->start_quarter == 3 && q->end_quarter == 1)) {
 377              		.loc 1 215 0 is_stmt 0 discriminator 1
 378 01b4 032B     		cmp	r3, #3
 379 01b6 1CD1     		bne	.L7
 216:lvgl\src\lv_draw/lv_draw_arc.c ****         /*Arc crosses here*/
 380              		.loc 1 216 0 is_stmt 1
 381 01b8 012A     		cmp	r2, #1
 382 01ba 1AD1     		bne	.L7
 383              	.L14:
 384              	.LBB5:
 218:lvgl\src\lv_draw/lv_draw_arc.c ****         quarter_area.y1 = q->center_y;
ARM GAS  C:\Users\strap\AppData\Local\Temp\ccQGFe6s.s 			page 16


 385              		.loc 1 218 0
 386 01bc B4F90020 		ldrsh	r2, [r4]
 387 01c0 ADF80020 		strh	r2, [sp]	@ movhi
 219:lvgl\src\lv_draw/lv_draw_arc.c ****         quarter_area.x2 = q->center_x + q->radius;
 388              		.loc 1 219 0
 389 01c4 B4F90210 		ldrsh	r1, [r4, #2]
 390 01c8 ADF80210 		strh	r1, [sp, #2]	@ movhi
 220:lvgl\src\lv_draw/lv_draw_arc.c ****         quarter_area.y2 = q->center_y + q->radius;
 391              		.loc 1 220 0
 392 01cc B4F90430 		ldrsh	r3, [r4, #4]
 393 01d0 1A44     		add	r2, r2, r3
 394 01d2 ADF80420 		strh	r2, [sp, #4]	@ movhi
 221:lvgl\src\lv_draw/lv_draw_arc.c **** 
 395              		.loc 1 221 0
 396 01d6 0B44     		add	r3, r3, r1
 397 01d8 ADF80630 		strh	r3, [sp, #6]	@ movhi
 223:lvgl\src\lv_draw/lv_draw_arc.c ****         if(ok) lv_draw_rect(q->draw_area, &quarter_area, q->draw_dsc);
 398              		.loc 1 223 0
 399 01dc A269     		ldr	r2, [r4, #24]
 400 01de 6946     		mov	r1, sp
 401 01e0 6846     		mov	r0, sp
 402 01e2 FFF7FEFF 		bl	_lv_area_intersect
 403              	.LVL44:
 224:lvgl\src\lv_draw/lv_draw_arc.c ****     }
 404              		.loc 1 224 0
 405 01e6 20B1     		cbz	r0, .L7
 224:lvgl\src\lv_draw/lv_draw_arc.c ****     }
 406              		.loc 1 224 0 is_stmt 0 discriminator 1
 407 01e8 2269     		ldr	r2, [r4, #16]
 408 01ea 6946     		mov	r1, sp
 409 01ec 6069     		ldr	r0, [r4, #20]
 410              	.LVL45:
 411 01ee FFF7FEFF 		bl	lv_draw_rect
 412              	.LVL46:
 413              	.L7:
 414              	.LBE5:
 226:lvgl\src\lv_draw/lv_draw_arc.c **** 
 415              		.loc 1 226 0 is_stmt 1
 416 01f2 03B0     		add	sp, sp, #12
 417              		.cfi_def_cfa_offset 12
 418              		@ sp needed
 419 01f4 30BD     		pop	{r4, r5, pc}
 420              		.cfi_endproc
 421              	.LFE37:
 422              		.size	draw_quarter_0, .-draw_quarter_0
 423 01f6 00BF     		.section	.text.draw_quarter_1,"ax",%progbits
 424              		.align	2
 425              		.thumb
 426              		.thumb_func
 427              		.type	draw_quarter_1, %function
 428              	draw_quarter_1:
 429              	.LFB38:
 229:lvgl\src\lv_draw/lv_draw_arc.c ****     lv_area_t quarter_area;
 430              		.loc 1 229 0
 431              		.cfi_startproc
 432              		@ args = 0, pretend = 0, frame = 8
 433              		@ frame_needed = 0, uses_anonymous_args = 0
ARM GAS  C:\Users\strap\AppData\Local\Temp\ccQGFe6s.s 			page 17


 434              	.LVL47:
 435 0000 30B5     		push	{r4, r5, lr}
 436              		.cfi_def_cfa_offset 12
 437              		.cfi_offset 4, -12
 438              		.cfi_offset 5, -8
 439              		.cfi_offset 14, -4
 440 0002 83B0     		sub	sp, sp, #12
 441              		.cfi_def_cfa_offset 24
 442 0004 0446     		mov	r4, r0
 232:lvgl\src\lv_draw/lv_draw_arc.c ****         /*Small arc here*/
 443              		.loc 1 232 0
 444 0006 4389     		ldrh	r3, [r0, #10]
 445 0008 012B     		cmp	r3, #1
 446 000a 53D1     		bne	.L19
 232:lvgl\src\lv_draw/lv_draw_arc.c ****         /*Small arc here*/
 447              		.loc 1 232 0 is_stmt 0 discriminator 1
 448 000c 8289     		ldrh	r2, [r0, #12]
 449 000e 012A     		cmp	r2, #1
 450 0010 50D1     		bne	.L19
 232:lvgl\src\lv_draw/lv_draw_arc.c ****         /*Small arc here*/
 451              		.loc 1 232 0 discriminator 2
 452 0012 C088     		ldrh	r0, [r0, #6]
 453              	.LVL48:
 454 0014 2289     		ldrh	r2, [r4, #8]
 455 0016 9042     		cmp	r0, r2
 456 0018 4CD2     		bcs	.L19
 457              	.LBB6:
 234:lvgl\src\lv_draw/lv_draw_arc.c ****         quarter_area.x2 = q->center_x + ((_lv_trigo_sin(q->start_angle + 90) * (q->radius - q->widt
 458              		.loc 1 234 0 is_stmt 1
 459 001a B4F90250 		ldrsh	r5, [r4, #2]
 460 001e 00B2     		sxth	r0, r0
 461 0020 FFF7FEFF 		bl	_lv_trigo_sin
 462              	.LVL49:
 463 0024 B4F90430 		ldrsh	r3, [r4, #4]
 464 0028 03FB00F0 		mul	r0, r3, r0
 465 002c 05EBE035 		add	r5, r5, r0, asr #15
 466 0030 ADF80650 		strh	r5, [sp, #6]	@ movhi
 235:lvgl\src\lv_draw/lv_draw_arc.c **** 
 467              		.loc 1 235 0
 468 0034 B4F90050 		ldrsh	r5, [r4]
 469 0038 E088     		ldrh	r0, [r4, #6]
 470 003a 5A30     		adds	r0, r0, #90
 471 003c 00B2     		sxth	r0, r0
 472 003e FFF7FEFF 		bl	_lv_trigo_sin
 473              	.LVL50:
 474 0042 B4F90430 		ldrsh	r3, [r4, #4]
 475 0046 B4F90E20 		ldrsh	r2, [r4, #14]
 476 004a 9B1A     		subs	r3, r3, r2
 477 004c 03FB00F0 		mul	r0, r3, r0
 478 0050 05EBE030 		add	r0, r5, r0, asr #15
 479 0054 ADF80400 		strh	r0, [sp, #4]	@ movhi
 237:lvgl\src\lv_draw/lv_draw_arc.c ****         quarter_area.x1 = q->center_x + ((_lv_trigo_sin(q->end_angle + 90) * (q->radius)) >> LV_TRI
 480              		.loc 1 237 0
 481 0058 B4F90250 		ldrsh	r5, [r4, #2]
 482 005c B4F90800 		ldrsh	r0, [r4, #8]
 483 0060 FFF7FEFF 		bl	_lv_trigo_sin
 484              	.LVL51:
ARM GAS  C:\Users\strap\AppData\Local\Temp\ccQGFe6s.s 			page 18


 485 0064 B4F90430 		ldrsh	r3, [r4, #4]
 486 0068 B4F90E20 		ldrsh	r2, [r4, #14]
 487 006c 9B1A     		subs	r3, r3, r2
 488 006e 03FB00F0 		mul	r0, r3, r0
 489 0072 05EBE030 		add	r0, r5, r0, asr #15
 490 0076 ADF80200 		strh	r0, [sp, #2]	@ movhi
 238:lvgl\src\lv_draw/lv_draw_arc.c **** 
 491              		.loc 1 238 0
 492 007a B4F90050 		ldrsh	r5, [r4]
 493 007e 2089     		ldrh	r0, [r4, #8]
 494 0080 5A30     		adds	r0, r0, #90
 495 0082 00B2     		sxth	r0, r0
 496 0084 FFF7FEFF 		bl	_lv_trigo_sin
 497              	.LVL52:
 498 0088 B4F90430 		ldrsh	r3, [r4, #4]
 499 008c 03FB00F0 		mul	r0, r3, r0
 500 0090 05EBE035 		add	r5, r5, r0, asr #15
 501 0094 02A8     		add	r0, sp, #8
 502 0096 20F8085D 		strh	r5, [r0, #-8]!	@ movhi
 240:lvgl\src\lv_draw/lv_draw_arc.c ****         if(ok) lv_draw_rect(q->draw_area, &quarter_area, q->draw_dsc);
 503              		.loc 1 240 0
 504 009a A269     		ldr	r2, [r4, #24]
 505 009c 0146     		mov	r1, r0
 506 009e FFF7FEFF 		bl	_lv_area_intersect
 507              	.LVL53:
 241:lvgl\src\lv_draw/lv_draw_arc.c ****     }
 508              		.loc 1 241 0
 509 00a2 0028     		cmp	r0, #0
 510 00a4 00F0A880 		beq	.L18
 241:lvgl\src\lv_draw/lv_draw_arc.c ****     }
 511              		.loc 1 241 0 is_stmt 0 discriminator 1
 512 00a8 2269     		ldr	r2, [r4, #16]
 513 00aa 6946     		mov	r1, sp
 514 00ac 6069     		ldr	r0, [r4, #20]
 515              	.LVL54:
 516 00ae FFF7FEFF 		bl	lv_draw_rect
 517              	.LVL55:
 518 00b2 A1E0     		b	.L18
 519              	.L19:
 520              	.LBE6:
 243:lvgl\src\lv_draw/lv_draw_arc.c ****         /*Start and/or end arcs here*/
 521              		.loc 1 243 0 is_stmt 1
 522 00b4 012B     		cmp	r3, #1
 523 00b6 02D0     		beq	.L21
 243:lvgl\src\lv_draw/lv_draw_arc.c ****         /*Start and/or end arcs here*/
 524              		.loc 1 243 0 is_stmt 0 discriminator 1
 525 00b8 A289     		ldrh	r2, [r4, #12]
 526 00ba 012A     		cmp	r2, #1
 527 00bc 6ED1     		bne	.L22
 528              	.L21:
 245:lvgl\src\lv_draw/lv_draw_arc.c ****             quarter_area.x1 = q->center_x - q->radius;
 529              		.loc 1 245 0 is_stmt 1
 530 00be 012B     		cmp	r3, #1
 531 00c0 33D1     		bne	.L23
 532              	.LBB7:
 246:lvgl\src\lv_draw/lv_draw_arc.c ****             quarter_area.y1 = q->center_y;
 533              		.loc 1 246 0
ARM GAS  C:\Users\strap\AppData\Local\Temp\ccQGFe6s.s 			page 19


 534 00c2 B4F90030 		ldrsh	r3, [r4]
 535 00c6 B4F90420 		ldrsh	r2, [r4, #4]
 536 00ca 9B1A     		subs	r3, r3, r2
 537 00cc ADF80030 		strh	r3, [sp]	@ movhi
 247:lvgl\src\lv_draw/lv_draw_arc.c **** 
 538              		.loc 1 247 0
 539 00d0 B4F90250 		ldrsh	r5, [r4, #2]
 540 00d4 ADF80250 		strh	r5, [sp, #2]	@ movhi
 249:lvgl\src\lv_draw/lv_draw_arc.c ****             quarter_area.x2 = q->center_x + ((_lv_trigo_sin(q->start_angle + 90) * (q->radius - q->
 541              		.loc 1 249 0
 542 00d8 B4F90600 		ldrsh	r0, [r4, #6]
 543 00dc FFF7FEFF 		bl	_lv_trigo_sin
 544              	.LVL56:
 545 00e0 B4F90430 		ldrsh	r3, [r4, #4]
 546 00e4 03FB00F0 		mul	r0, r3, r0
 547 00e8 05EBE035 		add	r5, r5, r0, asr #15
 548 00ec ADF80650 		strh	r5, [sp, #6]	@ movhi
 250:lvgl\src\lv_draw/lv_draw_arc.c **** 
 549              		.loc 1 250 0
 550 00f0 B4F90050 		ldrsh	r5, [r4]
 551 00f4 E088     		ldrh	r0, [r4, #6]
 552 00f6 5A30     		adds	r0, r0, #90
 553 00f8 00B2     		sxth	r0, r0
 554 00fa FFF7FEFF 		bl	_lv_trigo_sin
 555              	.LVL57:
 556 00fe B4F90430 		ldrsh	r3, [r4, #4]
 557 0102 B4F90E20 		ldrsh	r2, [r4, #14]
 558 0106 9B1A     		subs	r3, r3, r2
 559 0108 03FB00F0 		mul	r0, r3, r0
 560 010c 05EBE030 		add	r0, r5, r0, asr #15
 561 0110 ADF80400 		strh	r0, [sp, #4]	@ movhi
 252:lvgl\src\lv_draw/lv_draw_arc.c ****             if(ok) lv_draw_rect(q->draw_area, &quarter_area, q->draw_dsc);
 562              		.loc 1 252 0
 563 0114 A269     		ldr	r2, [r4, #24]
 564 0116 6946     		mov	r1, sp
 565 0118 6846     		mov	r0, sp
 566 011a FFF7FEFF 		bl	_lv_area_intersect
 567              	.LVL58:
 253:lvgl\src\lv_draw/lv_draw_arc.c ****         }
 568              		.loc 1 253 0
 569 011e 20B1     		cbz	r0, .L23
 253:lvgl\src\lv_draw/lv_draw_arc.c ****         }
 570              		.loc 1 253 0 is_stmt 0 discriminator 1
 571 0120 2269     		ldr	r2, [r4, #16]
 572 0122 6946     		mov	r1, sp
 573 0124 6069     		ldr	r0, [r4, #20]
 574              	.LVL59:
 575 0126 FFF7FEFF 		bl	lv_draw_rect
 576              	.LVL60:
 577              	.L23:
 578              	.LBE7:
 255:lvgl\src\lv_draw/lv_draw_arc.c ****             quarter_area.x2 = q->center_x - 1;
 579              		.loc 1 255 0 is_stmt 1
 580 012a A389     		ldrh	r3, [r4, #12]
 581 012c 012B     		cmp	r3, #1
 582 012e 63D1     		bne	.L18
 583              	.LBB8:
ARM GAS  C:\Users\strap\AppData\Local\Temp\ccQGFe6s.s 			page 20


 256:lvgl\src\lv_draw/lv_draw_arc.c ****             quarter_area.y2 = q->center_y + q->radius;
 584              		.loc 1 256 0
 585 0130 B4F90030 		ldrsh	r3, [r4]
 586 0134 013B     		subs	r3, r3, #1
 587 0136 ADF80430 		strh	r3, [sp, #4]	@ movhi
 257:lvgl\src\lv_draw/lv_draw_arc.c **** 
 588              		.loc 1 257 0
 589 013a B4F90250 		ldrsh	r5, [r4, #2]
 590 013e B4F90430 		ldrsh	r3, [r4, #4]
 591 0142 2B44     		add	r3, r3, r5
 592 0144 ADF80630 		strh	r3, [sp, #6]	@ movhi
 259:lvgl\src\lv_draw/lv_draw_arc.c ****             quarter_area.x1 = q->center_x + ((_lv_trigo_sin(q->end_angle + 90) * (q->radius)) >> LV
 593              		.loc 1 259 0
 594 0148 B4F90800 		ldrsh	r0, [r4, #8]
 595 014c FFF7FEFF 		bl	_lv_trigo_sin
 596              	.LVL61:
 597 0150 B4F90430 		ldrsh	r3, [r4, #4]
 598 0154 B4F90E20 		ldrsh	r2, [r4, #14]
 599 0158 9B1A     		subs	r3, r3, r2
 600 015a 03FB00F0 		mul	r0, r3, r0
 601 015e 05EBE030 		add	r0, r5, r0, asr #15
 602 0162 ADF80200 		strh	r0, [sp, #2]	@ movhi
 260:lvgl\src\lv_draw/lv_draw_arc.c **** 
 603              		.loc 1 260 0
 604 0166 B4F90050 		ldrsh	r5, [r4]
 605 016a 2089     		ldrh	r0, [r4, #8]
 606 016c 5A30     		adds	r0, r0, #90
 607 016e 00B2     		sxth	r0, r0
 608 0170 FFF7FEFF 		bl	_lv_trigo_sin
 609              	.LVL62:
 610 0174 B4F90430 		ldrsh	r3, [r4, #4]
 611 0178 03FB00F0 		mul	r0, r3, r0
 612 017c 05EBE035 		add	r5, r5, r0, asr #15
 613 0180 02A8     		add	r0, sp, #8
 614 0182 20F8085D 		strh	r5, [r0, #-8]!	@ movhi
 262:lvgl\src\lv_draw/lv_draw_arc.c ****             if(ok) lv_draw_rect(q->draw_area, &quarter_area, q->draw_dsc);
 615              		.loc 1 262 0
 616 0186 A269     		ldr	r2, [r4, #24]
 617 0188 0146     		mov	r1, r0
 618 018a FFF7FEFF 		bl	_lv_area_intersect
 619              	.LVL63:
 263:lvgl\src\lv_draw/lv_draw_arc.c ****         }
 620              		.loc 1 263 0
 621 018e 98B3     		cbz	r0, .L18
 263:lvgl\src\lv_draw/lv_draw_arc.c ****         }
 622              		.loc 1 263 0 is_stmt 0 discriminator 1
 623 0190 2269     		ldr	r2, [r4, #16]
 624 0192 6946     		mov	r1, sp
 625 0194 6069     		ldr	r0, [r4, #20]
 626              	.LVL64:
 627 0196 FFF7FEFF 		bl	lv_draw_rect
 628              	.LVL65:
 629 019a 2DE0     		b	.L18
 630              	.L22:
 631              	.LBE8:
 266:lvgl\src\lv_draw/lv_draw_arc.c ****             (q->start_quarter == 0 && q->end_quarter == 2) ||
 632              		.loc 1 266 0 is_stmt 1
ARM GAS  C:\Users\strap\AppData\Local\Temp\ccQGFe6s.s 			page 21


 633 019c 9342     		cmp	r3, r2
 634 019e 05D1     		bne	.L24
 266:lvgl\src\lv_draw/lv_draw_arc.c ****             (q->start_quarter == 0 && q->end_quarter == 2) ||
 635              		.loc 1 266 0 is_stmt 0 discriminator 1
 636 01a0 012B     		cmp	r3, #1
 637 01a2 03D0     		beq	.L24
 266:lvgl\src\lv_draw/lv_draw_arc.c ****             (q->start_quarter == 0 && q->end_quarter == 2) ||
 638              		.loc 1 266 0 discriminator 3
 639 01a4 2089     		ldrh	r0, [r4, #8]
 640 01a6 E188     		ldrh	r1, [r4, #6]
 641 01a8 8842     		cmp	r0, r1
 642 01aa 09D3     		bcc	.L25
 643              	.L24:
 266:lvgl\src\lv_draw/lv_draw_arc.c ****             (q->start_quarter == 0 && q->end_quarter == 2) ||
 644              		.loc 1 266 0 discriminator 5
 645 01ac 0BB9     		cbnz	r3, .L26
 267:lvgl\src\lv_draw/lv_draw_arc.c ****             (q->start_quarter == 0 && q->end_quarter == 3) ||
 646              		.loc 1 267 0 is_stmt 1
 647 01ae 022A     		cmp	r2, #2
 648 01b0 06D0     		beq	.L25
 649              	.L26:
 267:lvgl\src\lv_draw/lv_draw_arc.c ****             (q->start_quarter == 0 && q->end_quarter == 3) ||
 650              		.loc 1 267 0 is_stmt 0 discriminator 1
 651 01b2 0BB9     		cbnz	r3, .L27
 268:lvgl\src\lv_draw/lv_draw_arc.c ****             (q->start_quarter == 3 && q->end_quarter == 2)) {
 652              		.loc 1 268 0 is_stmt 1
 653 01b4 032A     		cmp	r2, #3
 654 01b6 03D0     		beq	.L25
 655              	.L27:
 268:lvgl\src\lv_draw/lv_draw_arc.c ****             (q->start_quarter == 3 && q->end_quarter == 2)) {
 656              		.loc 1 268 0 is_stmt 0 discriminator 1
 657 01b8 032B     		cmp	r3, #3
 658 01ba 1DD1     		bne	.L18
 269:lvgl\src\lv_draw/lv_draw_arc.c ****         /*Arc crosses here*/
 659              		.loc 1 269 0 is_stmt 1
 660 01bc 022A     		cmp	r2, #2
 661 01be 1BD1     		bne	.L18
 662              	.L25:
 663              	.LBB9:
 271:lvgl\src\lv_draw/lv_draw_arc.c ****         quarter_area.y1 = q->center_y;
 664              		.loc 1 271 0
 665 01c0 B4F90020 		ldrsh	r2, [r4]
 666 01c4 B4F90410 		ldrsh	r1, [r4, #4]
 667 01c8 531A     		subs	r3, r2, r1
 668 01ca ADF80030 		strh	r3, [sp]	@ movhi
 272:lvgl\src\lv_draw/lv_draw_arc.c ****         quarter_area.x2 = q->center_x - 1;
 669              		.loc 1 272 0
 670 01ce B4F90230 		ldrsh	r3, [r4, #2]
 671 01d2 ADF80230 		strh	r3, [sp, #2]	@ movhi
 273:lvgl\src\lv_draw/lv_draw_arc.c ****         quarter_area.y2 = q->center_y + q->radius;
 672              		.loc 1 273 0
 673 01d6 013A     		subs	r2, r2, #1
 674 01d8 ADF80420 		strh	r2, [sp, #4]	@ movhi
 274:lvgl\src\lv_draw/lv_draw_arc.c **** 
 675              		.loc 1 274 0
 676 01dc 0B44     		add	r3, r3, r1
 677 01de ADF80630 		strh	r3, [sp, #6]	@ movhi
ARM GAS  C:\Users\strap\AppData\Local\Temp\ccQGFe6s.s 			page 22


 276:lvgl\src\lv_draw/lv_draw_arc.c ****         if(ok) lv_draw_rect(q->draw_area, &quarter_area, q->draw_dsc);
 678              		.loc 1 276 0
 679 01e2 A269     		ldr	r2, [r4, #24]
 680 01e4 6946     		mov	r1, sp
 681 01e6 6846     		mov	r0, sp
 682 01e8 FFF7FEFF 		bl	_lv_area_intersect
 683              	.LVL66:
 277:lvgl\src\lv_draw/lv_draw_arc.c ****     }
 684              		.loc 1 277 0
 685 01ec 20B1     		cbz	r0, .L18
 277:lvgl\src\lv_draw/lv_draw_arc.c ****     }
 686              		.loc 1 277 0 is_stmt 0 discriminator 1
 687 01ee 2269     		ldr	r2, [r4, #16]
 688 01f0 6946     		mov	r1, sp
 689 01f2 6069     		ldr	r0, [r4, #20]
 690              	.LVL67:
 691 01f4 FFF7FEFF 		bl	lv_draw_rect
 692              	.LVL68:
 693              	.L18:
 694              	.LBE9:
 279:lvgl\src\lv_draw/lv_draw_arc.c **** 
 695              		.loc 1 279 0 is_stmt 1
 696 01f8 03B0     		add	sp, sp, #12
 697              		.cfi_def_cfa_offset 12
 698              		@ sp needed
 699 01fa 30BD     		pop	{r4, r5, pc}
 700              		.cfi_endproc
 701              	.LFE38:
 702              		.size	draw_quarter_1, .-draw_quarter_1
 703              		.section	.text.draw_quarter_2,"ax",%progbits
 704              		.align	2
 705              		.thumb
 706              		.thumb_func
 707              		.type	draw_quarter_2, %function
 708              	draw_quarter_2:
 709              	.LFB39:
 282:lvgl\src\lv_draw/lv_draw_arc.c ****     lv_area_t quarter_area;
 710              		.loc 1 282 0
 711              		.cfi_startproc
 712              		@ args = 0, pretend = 0, frame = 8
 713              		@ frame_needed = 0, uses_anonymous_args = 0
 714              	.LVL69:
 715 0000 30B5     		push	{r4, r5, lr}
 716              		.cfi_def_cfa_offset 12
 717              		.cfi_offset 4, -12
 718              		.cfi_offset 5, -8
 719              		.cfi_offset 14, -4
 720 0002 83B0     		sub	sp, sp, #12
 721              		.cfi_def_cfa_offset 24
 722 0004 0446     		mov	r4, r0
 285:lvgl\src\lv_draw/lv_draw_arc.c ****         /*Small arc here*/
 723              		.loc 1 285 0
 724 0006 4389     		ldrh	r3, [r0, #10]
 725 0008 022B     		cmp	r3, #2
 726 000a 53D1     		bne	.L30
 285:lvgl\src\lv_draw/lv_draw_arc.c ****         /*Small arc here*/
 727              		.loc 1 285 0 is_stmt 0 discriminator 1
ARM GAS  C:\Users\strap\AppData\Local\Temp\ccQGFe6s.s 			page 23


 728 000c 8289     		ldrh	r2, [r0, #12]
 729 000e 022A     		cmp	r2, #2
 730 0010 50D1     		bne	.L30
 285:lvgl\src\lv_draw/lv_draw_arc.c ****         /*Small arc here*/
 731              		.loc 1 285 0 discriminator 2
 732 0012 C088     		ldrh	r0, [r0, #6]
 733              	.LVL70:
 734 0014 2289     		ldrh	r2, [r4, #8]
 735 0016 9042     		cmp	r0, r2
 736 0018 4CD2     		bcs	.L30
 737              	.LBB10:
 287:lvgl\src\lv_draw/lv_draw_arc.c ****         quarter_area.y2 = q->center_y + ((_lv_trigo_sin(q->start_angle) * (q->radius - q->width)) >
 738              		.loc 1 287 0 is_stmt 1
 739 001a B4F90050 		ldrsh	r5, [r4]
 740 001e 5A30     		adds	r0, r0, #90
 741 0020 00B2     		sxth	r0, r0
 742 0022 FFF7FEFF 		bl	_lv_trigo_sin
 743              	.LVL71:
 744 0026 B4F90430 		ldrsh	r3, [r4, #4]
 745 002a 03FB00F0 		mul	r0, r3, r0
 746 002e 05EBE035 		add	r5, r5, r0, asr #15
 747 0032 ADF80050 		strh	r5, [sp]	@ movhi
 288:lvgl\src\lv_draw/lv_draw_arc.c **** 
 748              		.loc 1 288 0
 749 0036 B4F90250 		ldrsh	r5, [r4, #2]
 750 003a B4F90600 		ldrsh	r0, [r4, #6]
 751 003e FFF7FEFF 		bl	_lv_trigo_sin
 752              	.LVL72:
 753 0042 B4F90430 		ldrsh	r3, [r4, #4]
 754 0046 B4F90E20 		ldrsh	r2, [r4, #14]
 755 004a 9B1A     		subs	r3, r3, r2
 756 004c 03FB00F0 		mul	r0, r3, r0
 757 0050 05EBE030 		add	r0, r5, r0, asr #15
 758 0054 ADF80600 		strh	r0, [sp, #6]	@ movhi
 290:lvgl\src\lv_draw/lv_draw_arc.c ****         quarter_area.x2 = q->center_x + ((_lv_trigo_sin(q->end_angle + 90) * (q->radius - q->width)
 759              		.loc 1 290 0
 760 0058 B4F90250 		ldrsh	r5, [r4, #2]
 761 005c B4F90800 		ldrsh	r0, [r4, #8]
 762 0060 FFF7FEFF 		bl	_lv_trigo_sin
 763              	.LVL73:
 764 0064 B4F90430 		ldrsh	r3, [r4, #4]
 765 0068 03FB00F0 		mul	r0, r3, r0
 766 006c 05EBE035 		add	r5, r5, r0, asr #15
 767 0070 ADF80250 		strh	r5, [sp, #2]	@ movhi
 291:lvgl\src\lv_draw/lv_draw_arc.c **** 
 768              		.loc 1 291 0
 769 0074 B4F90050 		ldrsh	r5, [r4]
 770 0078 2089     		ldrh	r0, [r4, #8]
 771 007a 5A30     		adds	r0, r0, #90
 772 007c 00B2     		sxth	r0, r0
 773 007e FFF7FEFF 		bl	_lv_trigo_sin
 774              	.LVL74:
 775 0082 B4F90430 		ldrsh	r3, [r4, #4]
 776 0086 B4F90E20 		ldrsh	r2, [r4, #14]
 777 008a 9B1A     		subs	r3, r3, r2
 778 008c 03FB00F0 		mul	r0, r3, r0
 779 0090 05EBE030 		add	r0, r5, r0, asr #15
ARM GAS  C:\Users\strap\AppData\Local\Temp\ccQGFe6s.s 			page 24


 780 0094 ADF80400 		strh	r0, [sp, #4]	@ movhi
 293:lvgl\src\lv_draw/lv_draw_arc.c ****         if(ok) lv_draw_rect(q->draw_area, &quarter_area, q->draw_dsc);
 781              		.loc 1 293 0
 782 0098 A269     		ldr	r2, [r4, #24]
 783 009a 6946     		mov	r1, sp
 784 009c 6846     		mov	r0, sp
 785 009e FFF7FEFF 		bl	_lv_area_intersect
 786              	.LVL75:
 294:lvgl\src\lv_draw/lv_draw_arc.c ****     }
 787              		.loc 1 294 0
 788 00a2 0028     		cmp	r0, #0
 789 00a4 00F0A980 		beq	.L29
 294:lvgl\src\lv_draw/lv_draw_arc.c ****     }
 790              		.loc 1 294 0 is_stmt 0 discriminator 1
 791 00a8 2269     		ldr	r2, [r4, #16]
 792 00aa 6946     		mov	r1, sp
 793 00ac 6069     		ldr	r0, [r4, #20]
 794              	.LVL76:
 795 00ae FFF7FEFF 		bl	lv_draw_rect
 796              	.LVL77:
 797 00b2 A2E0     		b	.L29
 798              	.L30:
 799              	.LBE10:
 296:lvgl\src\lv_draw/lv_draw_arc.c ****         /*Start and/or end arcs here*/
 800              		.loc 1 296 0 is_stmt 1
 801 00b4 022B     		cmp	r3, #2
 802 00b6 02D0     		beq	.L32
 296:lvgl\src\lv_draw/lv_draw_arc.c ****         /*Start and/or end arcs here*/
 803              		.loc 1 296 0 is_stmt 0 discriminator 1
 804 00b8 A289     		ldrh	r2, [r4, #12]
 805 00ba 022A     		cmp	r2, #2
 806 00bc 6FD1     		bne	.L33
 807              	.L32:
 298:lvgl\src\lv_draw/lv_draw_arc.c ****             quarter_area.x2 = q->center_x - 1;
 808              		.loc 1 298 0 is_stmt 1
 809 00be 022B     		cmp	r3, #2
 810 00c0 34D1     		bne	.L34
 811              	.LBB11:
 299:lvgl\src\lv_draw/lv_draw_arc.c ****             quarter_area.y1 = q->center_y - q->radius;
 812              		.loc 1 299 0
 813 00c2 B4F90050 		ldrsh	r5, [r4]
 814 00c6 6B1E     		subs	r3, r5, #1
 815 00c8 ADF80430 		strh	r3, [sp, #4]	@ movhi
 300:lvgl\src\lv_draw/lv_draw_arc.c **** 
 816              		.loc 1 300 0
 817 00cc B4F90230 		ldrsh	r3, [r4, #2]
 818 00d0 B4F90420 		ldrsh	r2, [r4, #4]
 819 00d4 9B1A     		subs	r3, r3, r2
 820 00d6 ADF80230 		strh	r3, [sp, #2]	@ movhi
 302:lvgl\src\lv_draw/lv_draw_arc.c ****             quarter_area.y2 = q->center_y + ((_lv_trigo_sin(q->start_angle) * (q->radius - q->width
 821              		.loc 1 302 0
 822 00da E088     		ldrh	r0, [r4, #6]
 823 00dc 5A30     		adds	r0, r0, #90
 824 00de 00B2     		sxth	r0, r0
 825 00e0 FFF7FEFF 		bl	_lv_trigo_sin
 826              	.LVL78:
 827 00e4 B4F90430 		ldrsh	r3, [r4, #4]
ARM GAS  C:\Users\strap\AppData\Local\Temp\ccQGFe6s.s 			page 25


 828 00e8 03FB00F0 		mul	r0, r3, r0
 829 00ec 05EBE035 		add	r5, r5, r0, asr #15
 830 00f0 ADF80050 		strh	r5, [sp]	@ movhi
 303:lvgl\src\lv_draw/lv_draw_arc.c **** 
 831              		.loc 1 303 0
 832 00f4 B4F90250 		ldrsh	r5, [r4, #2]
 833 00f8 B4F90600 		ldrsh	r0, [r4, #6]
 834 00fc FFF7FEFF 		bl	_lv_trigo_sin
 835              	.LVL79:
 836 0100 B4F90430 		ldrsh	r3, [r4, #4]
 837 0104 B4F90E20 		ldrsh	r2, [r4, #14]
 838 0108 9B1A     		subs	r3, r3, r2
 839 010a 03FB00F0 		mul	r0, r3, r0
 840 010e 05EBE030 		add	r0, r5, r0, asr #15
 841 0112 ADF80600 		strh	r0, [sp, #6]	@ movhi
 305:lvgl\src\lv_draw/lv_draw_arc.c ****             if(ok) lv_draw_rect(q->draw_area, &quarter_area, q->draw_dsc);
 842              		.loc 1 305 0
 843 0116 A269     		ldr	r2, [r4, #24]
 844 0118 6946     		mov	r1, sp
 845 011a 6846     		mov	r0, sp
 846 011c FFF7FEFF 		bl	_lv_area_intersect
 847              	.LVL80:
 306:lvgl\src\lv_draw/lv_draw_arc.c ****         }
 848              		.loc 1 306 0
 849 0120 20B1     		cbz	r0, .L34
 306:lvgl\src\lv_draw/lv_draw_arc.c ****         }
 850              		.loc 1 306 0 is_stmt 0 discriminator 1
 851 0122 2269     		ldr	r2, [r4, #16]
 852 0124 6946     		mov	r1, sp
 853 0126 6069     		ldr	r0, [r4, #20]
 854              	.LVL81:
 855 0128 FFF7FEFF 		bl	lv_draw_rect
 856              	.LVL82:
 857              	.L34:
 858              	.LBE11:
 308:lvgl\src\lv_draw/lv_draw_arc.c ****             quarter_area.x1 = q->center_x - q->radius;
 859              		.loc 1 308 0 is_stmt 1
 860 012c A389     		ldrh	r3, [r4, #12]
 861 012e 022B     		cmp	r3, #2
 862 0130 63D1     		bne	.L29
 863              	.LBB12:
 309:lvgl\src\lv_draw/lv_draw_arc.c ****             quarter_area.y2 = q->center_y - 1;
 864              		.loc 1 309 0
 865 0132 B4F90050 		ldrsh	r5, [r4]
 866 0136 B4F90430 		ldrsh	r3, [r4, #4]
 867 013a EB1A     		subs	r3, r5, r3
 868 013c ADF80030 		strh	r3, [sp]	@ movhi
 310:lvgl\src\lv_draw/lv_draw_arc.c **** 
 869              		.loc 1 310 0
 870 0140 B4F90230 		ldrsh	r3, [r4, #2]
 871 0144 013B     		subs	r3, r3, #1
 872 0146 ADF80630 		strh	r3, [sp, #6]	@ movhi
 312:lvgl\src\lv_draw/lv_draw_arc.c ****             quarter_area.y1 = q->center_y + ((_lv_trigo_sin(q->end_angle) * (q->radius)) >> LV_TRIG
 873              		.loc 1 312 0
 874 014a 2089     		ldrh	r0, [r4, #8]
 875 014c 5A30     		adds	r0, r0, #90
 876 014e 00B2     		sxth	r0, r0
ARM GAS  C:\Users\strap\AppData\Local\Temp\ccQGFe6s.s 			page 26


 877 0150 FFF7FEFF 		bl	_lv_trigo_sin
 878              	.LVL83:
 879 0154 B4F90430 		ldrsh	r3, [r4, #4]
 880 0158 B4F90E20 		ldrsh	r2, [r4, #14]
 881 015c 9B1A     		subs	r3, r3, r2
 882 015e 03FB00F0 		mul	r0, r3, r0
 883 0162 05EBE030 		add	r0, r5, r0, asr #15
 884 0166 ADF80400 		strh	r0, [sp, #4]	@ movhi
 313:lvgl\src\lv_draw/lv_draw_arc.c **** 
 885              		.loc 1 313 0
 886 016a B4F90250 		ldrsh	r5, [r4, #2]
 887 016e B4F90800 		ldrsh	r0, [r4, #8]
 888 0172 FFF7FEFF 		bl	_lv_trigo_sin
 889              	.LVL84:
 890 0176 B4F90430 		ldrsh	r3, [r4, #4]
 891 017a 03FB00F0 		mul	r0, r3, r0
 892 017e 05EBE035 		add	r5, r5, r0, asr #15
 893 0182 ADF80250 		strh	r5, [sp, #2]	@ movhi
 315:lvgl\src\lv_draw/lv_draw_arc.c ****             if(ok) lv_draw_rect(q->draw_area, &quarter_area, q->draw_dsc);
 894              		.loc 1 315 0
 895 0186 A269     		ldr	r2, [r4, #24]
 896 0188 6946     		mov	r1, sp
 897 018a 6846     		mov	r0, sp
 898 018c FFF7FEFF 		bl	_lv_area_intersect
 899              	.LVL85:
 316:lvgl\src\lv_draw/lv_draw_arc.c ****         }
 900              		.loc 1 316 0
 901 0190 98B3     		cbz	r0, .L29
 316:lvgl\src\lv_draw/lv_draw_arc.c ****         }
 902              		.loc 1 316 0 is_stmt 0 discriminator 1
 903 0192 2269     		ldr	r2, [r4, #16]
 904 0194 6946     		mov	r1, sp
 905 0196 6069     		ldr	r0, [r4, #20]
 906              	.LVL86:
 907 0198 FFF7FEFF 		bl	lv_draw_rect
 908              	.LVL87:
 909 019c 2DE0     		b	.L29
 910              	.L33:
 911              	.LBE12:
 319:lvgl\src\lv_draw/lv_draw_arc.c ****             (q->start_quarter == 0 && q->end_quarter == 3) ||
 912              		.loc 1 319 0 is_stmt 1
 913 019e 9342     		cmp	r3, r2
 914 01a0 05D1     		bne	.L35
 319:lvgl\src\lv_draw/lv_draw_arc.c ****             (q->start_quarter == 0 && q->end_quarter == 3) ||
 915              		.loc 1 319 0 is_stmt 0 discriminator 1
 916 01a2 022B     		cmp	r3, #2
 917 01a4 03D0     		beq	.L35
 319:lvgl\src\lv_draw/lv_draw_arc.c ****             (q->start_quarter == 0 && q->end_quarter == 3) ||
 918              		.loc 1 319 0 discriminator 3
 919 01a6 2089     		ldrh	r0, [r4, #8]
 920 01a8 E188     		ldrh	r1, [r4, #6]
 921 01aa 8842     		cmp	r0, r1
 922 01ac 09D3     		bcc	.L36
 923              	.L35:
 319:lvgl\src\lv_draw/lv_draw_arc.c ****             (q->start_quarter == 0 && q->end_quarter == 3) ||
 924              		.loc 1 319 0 discriminator 5
 925 01ae 0BB9     		cbnz	r3, .L37
ARM GAS  C:\Users\strap\AppData\Local\Temp\ccQGFe6s.s 			page 27


 320:lvgl\src\lv_draw/lv_draw_arc.c ****             (q->start_quarter == 1 && q->end_quarter == 3) ||
 926              		.loc 1 320 0 is_stmt 1
 927 01b0 032A     		cmp	r2, #3
 928 01b2 06D0     		beq	.L36
 929              	.L37:
 320:lvgl\src\lv_draw/lv_draw_arc.c ****             (q->start_quarter == 1 && q->end_quarter == 3) ||
 930              		.loc 1 320 0 is_stmt 0 discriminator 1
 931 01b4 012B     		cmp	r3, #1
 932 01b6 01D1     		bne	.L38
 321:lvgl\src\lv_draw/lv_draw_arc.c ****             (q->start_quarter == 1 && q->end_quarter == 0)) {
 933              		.loc 1 321 0 is_stmt 1
 934 01b8 032A     		cmp	r2, #3
 935 01ba 02D0     		beq	.L36
 936              	.L38:
 321:lvgl\src\lv_draw/lv_draw_arc.c ****             (q->start_quarter == 1 && q->end_quarter == 0)) {
 937              		.loc 1 321 0 is_stmt 0 discriminator 1
 938 01bc 012B     		cmp	r3, #1
 939 01be 1CD1     		bne	.L29
 322:lvgl\src\lv_draw/lv_draw_arc.c ****         /*Arc crosses here*/
 940              		.loc 1 322 0 is_stmt 1
 941 01c0 DAB9     		cbnz	r2, .L29
 942              	.L36:
 943              	.LBB13:
 324:lvgl\src\lv_draw/lv_draw_arc.c ****         quarter_area.y1 = q->center_y - q->radius;
 944              		.loc 1 324 0
 945 01c2 B4F90020 		ldrsh	r2, [r4]
 946 01c6 A188     		ldrh	r1, [r4, #4]
 947 01c8 531A     		subs	r3, r2, r1
 948 01ca ADF80030 		strh	r3, [sp]	@ movhi
 325:lvgl\src\lv_draw/lv_draw_arc.c ****         quarter_area.x2 = q->center_x - 1;
 949              		.loc 1 325 0
 950 01ce B4F90230 		ldrsh	r3, [r4, #2]
 951 01d2 591A     		subs	r1, r3, r1
 952 01d4 ADF80210 		strh	r1, [sp, #2]	@ movhi
 326:lvgl\src\lv_draw/lv_draw_arc.c ****         quarter_area.y2 = q->center_y - 1;
 953              		.loc 1 326 0
 954 01d8 013A     		subs	r2, r2, #1
 955 01da ADF80420 		strh	r2, [sp, #4]	@ movhi
 327:lvgl\src\lv_draw/lv_draw_arc.c **** 
 956              		.loc 1 327 0
 957 01de 013B     		subs	r3, r3, #1
 958 01e0 ADF80630 		strh	r3, [sp, #6]	@ movhi
 329:lvgl\src\lv_draw/lv_draw_arc.c ****         if(ok) lv_draw_rect(q->draw_area, &quarter_area, q->draw_dsc);
 959              		.loc 1 329 0
 960 01e4 A269     		ldr	r2, [r4, #24]
 961 01e6 6946     		mov	r1, sp
 962 01e8 6846     		mov	r0, sp
 963 01ea FFF7FEFF 		bl	_lv_area_intersect
 964              	.LVL88:
 330:lvgl\src\lv_draw/lv_draw_arc.c ****     }
 965              		.loc 1 330 0
 966 01ee 20B1     		cbz	r0, .L29
 330:lvgl\src\lv_draw/lv_draw_arc.c ****     }
 967              		.loc 1 330 0 is_stmt 0 discriminator 1
 968 01f0 2269     		ldr	r2, [r4, #16]
 969 01f2 6946     		mov	r1, sp
 970 01f4 6069     		ldr	r0, [r4, #20]
ARM GAS  C:\Users\strap\AppData\Local\Temp\ccQGFe6s.s 			page 28


 971              	.LVL89:
 972 01f6 FFF7FEFF 		bl	lv_draw_rect
 973              	.LVL90:
 974              	.L29:
 975              	.LBE13:
 332:lvgl\src\lv_draw/lv_draw_arc.c **** 
 976              		.loc 1 332 0 is_stmt 1
 977 01fa 03B0     		add	sp, sp, #12
 978              		.cfi_def_cfa_offset 12
 979              		@ sp needed
 980 01fc 30BD     		pop	{r4, r5, pc}
 981              		.cfi_endproc
 982              	.LFE39:
 983              		.size	draw_quarter_2, .-draw_quarter_2
 984 01fe 00BF     		.section	.text.draw_quarter_3,"ax",%progbits
 985              		.align	2
 986              		.thumb
 987              		.thumb_func
 988              		.type	draw_quarter_3, %function
 989              	draw_quarter_3:
 990              	.LFB40:
 336:lvgl\src\lv_draw/lv_draw_arc.c ****     lv_area_t quarter_area;
 991              		.loc 1 336 0
 992              		.cfi_startproc
 993              		@ args = 0, pretend = 0, frame = 8
 994              		@ frame_needed = 0, uses_anonymous_args = 0
 995              	.LVL91:
 996 0000 30B5     		push	{r4, r5, lr}
 997              		.cfi_def_cfa_offset 12
 998              		.cfi_offset 4, -12
 999              		.cfi_offset 5, -8
 1000              		.cfi_offset 14, -4
 1001 0002 83B0     		sub	sp, sp, #12
 1002              		.cfi_def_cfa_offset 24
 1003 0004 0446     		mov	r4, r0
 339:lvgl\src\lv_draw/lv_draw_arc.c ****         /*Small arc here*/
 1004              		.loc 1 339 0
 1005 0006 4389     		ldrh	r3, [r0, #10]
 1006 0008 032B     		cmp	r3, #3
 1007 000a 53D1     		bne	.L41
 339:lvgl\src\lv_draw/lv_draw_arc.c ****         /*Small arc here*/
 1008              		.loc 1 339 0 is_stmt 0 discriminator 1
 1009 000c 8289     		ldrh	r2, [r0, #12]
 1010 000e 032A     		cmp	r2, #3
 1011 0010 50D1     		bne	.L41
 339:lvgl\src\lv_draw/lv_draw_arc.c ****         /*Small arc here*/
 1012              		.loc 1 339 0 discriminator 2
 1013 0012 C088     		ldrh	r0, [r0, #6]
 1014              	.LVL92:
 1015 0014 2289     		ldrh	r2, [r4, #8]
 1016 0016 9042     		cmp	r0, r2
 1017 0018 4CD2     		bcs	.L41
 1018              	.LBB14:
 341:lvgl\src\lv_draw/lv_draw_arc.c ****         quarter_area.y1 = q->center_y + ((_lv_trigo_sin(q->start_angle) * (q->radius)) >> LV_TRIGO_
 1019              		.loc 1 341 0 is_stmt 1
 1020 001a B4F90050 		ldrsh	r5, [r4]
 1021 001e 5A30     		adds	r0, r0, #90
ARM GAS  C:\Users\strap\AppData\Local\Temp\ccQGFe6s.s 			page 29


 1022 0020 00B2     		sxth	r0, r0
 1023 0022 FFF7FEFF 		bl	_lv_trigo_sin
 1024              	.LVL93:
 1025 0026 B4F90430 		ldrsh	r3, [r4, #4]
 1026 002a B4F90E20 		ldrsh	r2, [r4, #14]
 1027 002e 9B1A     		subs	r3, r3, r2
 1028 0030 03FB00F0 		mul	r0, r3, r0
 1029 0034 05EBE030 		add	r0, r5, r0, asr #15
 1030 0038 ADF80000 		strh	r0, [sp]	@ movhi
 342:lvgl\src\lv_draw/lv_draw_arc.c **** 
 1031              		.loc 1 342 0
 1032 003c B4F90250 		ldrsh	r5, [r4, #2]
 1033 0040 B4F90600 		ldrsh	r0, [r4, #6]
 1034 0044 FFF7FEFF 		bl	_lv_trigo_sin
 1035              	.LVL94:
 1036 0048 B4F90430 		ldrsh	r3, [r4, #4]
 1037 004c 03FB00F0 		mul	r0, r3, r0
 1038 0050 05EBE035 		add	r5, r5, r0, asr #15
 1039 0054 ADF80250 		strh	r5, [sp, #2]	@ movhi
 344:lvgl\src\lv_draw/lv_draw_arc.c ****         quarter_area.y2 = q->center_y + ((_lv_trigo_sin(q->end_angle) * (q->radius - q->width)) >> 
 1040              		.loc 1 344 0
 1041 0058 B4F90050 		ldrsh	r5, [r4]
 1042 005c 2089     		ldrh	r0, [r4, #8]
 1043 005e 5A30     		adds	r0, r0, #90
 1044 0060 00B2     		sxth	r0, r0
 1045 0062 FFF7FEFF 		bl	_lv_trigo_sin
 1046              	.LVL95:
 1047 0066 B4F90430 		ldrsh	r3, [r4, #4]
 1048 006a 03FB00F0 		mul	r0, r3, r0
 1049 006e 05EBE035 		add	r5, r5, r0, asr #15
 1050 0072 ADF80450 		strh	r5, [sp, #4]	@ movhi
 345:lvgl\src\lv_draw/lv_draw_arc.c **** 
 1051              		.loc 1 345 0
 1052 0076 B4F90250 		ldrsh	r5, [r4, #2]
 1053 007a B4F90800 		ldrsh	r0, [r4, #8]
 1054 007e FFF7FEFF 		bl	_lv_trigo_sin
 1055              	.LVL96:
 1056 0082 B4F90430 		ldrsh	r3, [r4, #4]
 1057 0086 B4F90E20 		ldrsh	r2, [r4, #14]
 1058 008a 9B1A     		subs	r3, r3, r2
 1059 008c 03FB00F0 		mul	r0, r3, r0
 1060 0090 05EBE030 		add	r0, r5, r0, asr #15
 1061 0094 ADF80600 		strh	r0, [sp, #6]	@ movhi
 347:lvgl\src\lv_draw/lv_draw_arc.c ****         if(ok) lv_draw_rect(q->draw_area, &quarter_area, q->draw_dsc);
 1062              		.loc 1 347 0
 1063 0098 A269     		ldr	r2, [r4, #24]
 1064 009a 6946     		mov	r1, sp
 1065 009c 6846     		mov	r0, sp
 1066 009e FFF7FEFF 		bl	_lv_area_intersect
 1067              	.LVL97:
 348:lvgl\src\lv_draw/lv_draw_arc.c ****     }
 1068              		.loc 1 348 0
 1069 00a2 0028     		cmp	r0, #0
 1070 00a4 00F0A780 		beq	.L40
 348:lvgl\src\lv_draw/lv_draw_arc.c ****     }
 1071              		.loc 1 348 0 is_stmt 0 discriminator 1
 1072 00a8 2269     		ldr	r2, [r4, #16]
ARM GAS  C:\Users\strap\AppData\Local\Temp\ccQGFe6s.s 			page 30


 1073 00aa 6946     		mov	r1, sp
 1074 00ac 6069     		ldr	r0, [r4, #20]
 1075              	.LVL98:
 1076 00ae FFF7FEFF 		bl	lv_draw_rect
 1077              	.LVL99:
 1078 00b2 A0E0     		b	.L40
 1079              	.L41:
 1080              	.LBE14:
 350:lvgl\src\lv_draw/lv_draw_arc.c ****         /*Start and/or end arcs here*/
 1081              		.loc 1 350 0 is_stmt 1
 1082 00b4 032B     		cmp	r3, #3
 1083 00b6 02D0     		beq	.L43
 350:lvgl\src\lv_draw/lv_draw_arc.c ****         /*Start and/or end arcs here*/
 1084              		.loc 1 350 0 is_stmt 0 discriminator 1
 1085 00b8 A289     		ldrh	r2, [r4, #12]
 1086 00ba 032A     		cmp	r2, #3
 1087 00bc 6ED1     		bne	.L44
 1088              	.L43:
 352:lvgl\src\lv_draw/lv_draw_arc.c ****             quarter_area.x2 = q->center_x + q->radius;
 1089              		.loc 1 352 0 is_stmt 1
 1090 00be 032B     		cmp	r3, #3
 1091 00c0 34D1     		bne	.L45
 1092              	.LBB15:
 353:lvgl\src\lv_draw/lv_draw_arc.c ****             quarter_area.y2 = q->center_y - 1;
 1093              		.loc 1 353 0
 1094 00c2 B4F90050 		ldrsh	r5, [r4]
 1095 00c6 B4F90430 		ldrsh	r3, [r4, #4]
 1096 00ca 2B44     		add	r3, r3, r5
 1097 00cc ADF80430 		strh	r3, [sp, #4]	@ movhi
 354:lvgl\src\lv_draw/lv_draw_arc.c **** 
 1098              		.loc 1 354 0
 1099 00d0 B4F90230 		ldrsh	r3, [r4, #2]
 1100 00d4 013B     		subs	r3, r3, #1
 1101 00d6 ADF80630 		strh	r3, [sp, #6]	@ movhi
 356:lvgl\src\lv_draw/lv_draw_arc.c ****             quarter_area.y1 = q->center_y + ((_lv_trigo_sin(q->start_angle) * (q->radius)) >> LV_TR
 1102              		.loc 1 356 0
 1103 00da E088     		ldrh	r0, [r4, #6]
 1104 00dc 5A30     		adds	r0, r0, #90
 1105 00de 00B2     		sxth	r0, r0
 1106 00e0 FFF7FEFF 		bl	_lv_trigo_sin
 1107              	.LVL100:
 1108 00e4 B4F90430 		ldrsh	r3, [r4, #4]
 1109 00e8 B4F90E20 		ldrsh	r2, [r4, #14]
 1110 00ec 9B1A     		subs	r3, r3, r2
 1111 00ee 03FB00F0 		mul	r0, r3, r0
 1112 00f2 05EBE030 		add	r0, r5, r0, asr #15
 1113 00f6 ADF80000 		strh	r0, [sp]	@ movhi
 357:lvgl\src\lv_draw/lv_draw_arc.c **** 
 1114              		.loc 1 357 0
 1115 00fa B4F90250 		ldrsh	r5, [r4, #2]
 1116 00fe B4F90600 		ldrsh	r0, [r4, #6]
 1117 0102 FFF7FEFF 		bl	_lv_trigo_sin
 1118              	.LVL101:
 1119 0106 B4F90430 		ldrsh	r3, [r4, #4]
 1120 010a 03FB00F0 		mul	r0, r3, r0
 1121 010e 05EBE035 		add	r5, r5, r0, asr #15
 1122 0112 ADF80250 		strh	r5, [sp, #2]	@ movhi
ARM GAS  C:\Users\strap\AppData\Local\Temp\ccQGFe6s.s 			page 31


 359:lvgl\src\lv_draw/lv_draw_arc.c ****             if(ok) lv_draw_rect(q->draw_area, &quarter_area, q->draw_dsc);
 1123              		.loc 1 359 0
 1124 0116 A269     		ldr	r2, [r4, #24]
 1125 0118 6946     		mov	r1, sp
 1126 011a 6846     		mov	r0, sp
 1127 011c FFF7FEFF 		bl	_lv_area_intersect
 1128              	.LVL102:
 360:lvgl\src\lv_draw/lv_draw_arc.c ****         }
 1129              		.loc 1 360 0
 1130 0120 20B1     		cbz	r0, .L45
 360:lvgl\src\lv_draw/lv_draw_arc.c ****         }
 1131              		.loc 1 360 0 is_stmt 0 discriminator 1
 1132 0122 2269     		ldr	r2, [r4, #16]
 1133 0124 6946     		mov	r1, sp
 1134 0126 6069     		ldr	r0, [r4, #20]
 1135              	.LVL103:
 1136 0128 FFF7FEFF 		bl	lv_draw_rect
 1137              	.LVL104:
 1138              	.L45:
 1139              	.LBE15:
 362:lvgl\src\lv_draw/lv_draw_arc.c ****             quarter_area.x1 = q->center_x;
 1140              		.loc 1 362 0 is_stmt 1
 1141 012c A389     		ldrh	r3, [r4, #12]
 1142 012e 032B     		cmp	r3, #3
 1143 0130 61D1     		bne	.L40
 1144              	.LBB16:
 363:lvgl\src\lv_draw/lv_draw_arc.c ****             quarter_area.y1 = q->center_y - q->radius;
 1145              		.loc 1 363 0
 1146 0132 B4F90050 		ldrsh	r5, [r4]
 1147 0136 ADF80050 		strh	r5, [sp]	@ movhi
 364:lvgl\src\lv_draw/lv_draw_arc.c **** 
 1148              		.loc 1 364 0
 1149 013a B4F90230 		ldrsh	r3, [r4, #2]
 1150 013e B4F90420 		ldrsh	r2, [r4, #4]
 1151 0142 9B1A     		subs	r3, r3, r2
 1152 0144 ADF80230 		strh	r3, [sp, #2]	@ movhi
 366:lvgl\src\lv_draw/lv_draw_arc.c ****             quarter_area.y2 = q->center_y + ((_lv_trigo_sin(q->end_angle) * (q->radius - q->width))
 1153              		.loc 1 366 0
 1154 0148 2089     		ldrh	r0, [r4, #8]
 1155 014a 5A30     		adds	r0, r0, #90
 1156 014c 00B2     		sxth	r0, r0
 1157 014e FFF7FEFF 		bl	_lv_trigo_sin
 1158              	.LVL105:
 1159 0152 B4F90430 		ldrsh	r3, [r4, #4]
 1160 0156 03FB00F0 		mul	r0, r3, r0
 1161 015a 05EBE035 		add	r5, r5, r0, asr #15
 1162 015e ADF80450 		strh	r5, [sp, #4]	@ movhi
 367:lvgl\src\lv_draw/lv_draw_arc.c **** 
 1163              		.loc 1 367 0
 1164 0162 B4F90250 		ldrsh	r5, [r4, #2]
 1165 0166 B4F90800 		ldrsh	r0, [r4, #8]
 1166 016a FFF7FEFF 		bl	_lv_trigo_sin
 1167              	.LVL106:
 1168 016e B4F90430 		ldrsh	r3, [r4, #4]
 1169 0172 B4F90E20 		ldrsh	r2, [r4, #14]
 1170 0176 9B1A     		subs	r3, r3, r2
 1171 0178 03FB00F0 		mul	r0, r3, r0
ARM GAS  C:\Users\strap\AppData\Local\Temp\ccQGFe6s.s 			page 32


 1172 017c 05EBE030 		add	r0, r5, r0, asr #15
 1173 0180 ADF80600 		strh	r0, [sp, #6]	@ movhi
 369:lvgl\src\lv_draw/lv_draw_arc.c ****             if(ok) lv_draw_rect(q->draw_area, &quarter_area, q->draw_dsc);
 1174              		.loc 1 369 0
 1175 0184 A269     		ldr	r2, [r4, #24]
 1176 0186 6946     		mov	r1, sp
 1177 0188 6846     		mov	r0, sp
 1178 018a FFF7FEFF 		bl	_lv_area_intersect
 1179              	.LVL107:
 370:lvgl\src\lv_draw/lv_draw_arc.c ****         }
 1180              		.loc 1 370 0
 1181 018e 90B3     		cbz	r0, .L40
 370:lvgl\src\lv_draw/lv_draw_arc.c ****         }
 1182              		.loc 1 370 0 is_stmt 0 discriminator 1
 1183 0190 2269     		ldr	r2, [r4, #16]
 1184 0192 6946     		mov	r1, sp
 1185 0194 6069     		ldr	r0, [r4, #20]
 1186              	.LVL108:
 1187 0196 FFF7FEFF 		bl	lv_draw_rect
 1188              	.LVL109:
 1189 019a 2CE0     		b	.L40
 1190              	.L44:
 1191              	.LBE16:
 373:lvgl\src\lv_draw/lv_draw_arc.c ****             (q->start_quarter == 2 && q->end_quarter == 0) ||
 1192              		.loc 1 373 0 is_stmt 1
 1193 019c 9342     		cmp	r3, r2
 1194 019e 05D1     		bne	.L46
 373:lvgl\src\lv_draw/lv_draw_arc.c ****             (q->start_quarter == 2 && q->end_quarter == 0) ||
 1195              		.loc 1 373 0 is_stmt 0 discriminator 1
 1196 01a0 032B     		cmp	r3, #3
 1197 01a2 03D0     		beq	.L46
 373:lvgl\src\lv_draw/lv_draw_arc.c ****             (q->start_quarter == 2 && q->end_quarter == 0) ||
 1198              		.loc 1 373 0 discriminator 3
 1199 01a4 2089     		ldrh	r0, [r4, #8]
 1200 01a6 E188     		ldrh	r1, [r4, #6]
 1201 01a8 8842     		cmp	r0, r1
 1202 01aa 09D3     		bcc	.L47
 1203              	.L46:
 373:lvgl\src\lv_draw/lv_draw_arc.c ****             (q->start_quarter == 2 && q->end_quarter == 0) ||
 1204              		.loc 1 373 0 discriminator 5
 1205 01ac 022B     		cmp	r3, #2
 1206 01ae 00D1     		bne	.L48
 374:lvgl\src\lv_draw/lv_draw_arc.c ****             (q->start_quarter == 1 && q->end_quarter == 0) ||
 1207              		.loc 1 374 0 is_stmt 1
 1208 01b0 32B1     		cbz	r2, .L47
 1209              	.L48:
 374:lvgl\src\lv_draw/lv_draw_arc.c ****             (q->start_quarter == 1 && q->end_quarter == 0) ||
 1210              		.loc 1 374 0 is_stmt 0 discriminator 1
 1211 01b2 012B     		cmp	r3, #1
 1212 01b4 00D1     		bne	.L49
 375:lvgl\src\lv_draw/lv_draw_arc.c ****             (q->start_quarter == 2 && q->end_quarter == 1)) {
 1213              		.loc 1 375 0 is_stmt 1
 1214 01b6 1AB1     		cbz	r2, .L47
 1215              	.L49:
 375:lvgl\src\lv_draw/lv_draw_arc.c ****             (q->start_quarter == 2 && q->end_quarter == 1)) {
 1216              		.loc 1 375 0 is_stmt 0 discriminator 1
 1217 01b8 022B     		cmp	r3, #2
ARM GAS  C:\Users\strap\AppData\Local\Temp\ccQGFe6s.s 			page 33


 1218 01ba 1CD1     		bne	.L40
 376:lvgl\src\lv_draw/lv_draw_arc.c ****         /*Arc crosses here*/
 1219              		.loc 1 376 0 is_stmt 1
 1220 01bc 012A     		cmp	r2, #1
 1221 01be 1AD1     		bne	.L40
 1222              	.L47:
 1223              	.LBB17:
 378:lvgl\src\lv_draw/lv_draw_arc.c ****         quarter_area.y1 = q->center_y - q->radius;
 1224              		.loc 1 378 0
 1225 01c0 B4F90020 		ldrsh	r2, [r4]
 1226 01c4 ADF80020 		strh	r2, [sp]	@ movhi
 379:lvgl\src\lv_draw/lv_draw_arc.c ****         quarter_area.x2 = q->center_x + q->radius;
 1227              		.loc 1 379 0
 1228 01c8 B4F90230 		ldrsh	r3, [r4, #2]
 1229 01cc A188     		ldrh	r1, [r4, #4]
 1230 01ce 581A     		subs	r0, r3, r1
 1231 01d0 ADF80200 		strh	r0, [sp, #2]	@ movhi
 380:lvgl\src\lv_draw/lv_draw_arc.c ****         quarter_area.y2 = q->center_y - 1;
 1232              		.loc 1 380 0
 1233 01d4 0A44     		add	r2, r2, r1
 1234 01d6 ADF80420 		strh	r2, [sp, #4]	@ movhi
 381:lvgl\src\lv_draw/lv_draw_arc.c **** 
 1235              		.loc 1 381 0
 1236 01da 013B     		subs	r3, r3, #1
 1237 01dc ADF80630 		strh	r3, [sp, #6]	@ movhi
 383:lvgl\src\lv_draw/lv_draw_arc.c ****         if(ok) lv_draw_rect(q->draw_area, &quarter_area, q->draw_dsc);
 1238              		.loc 1 383 0
 1239 01e0 A269     		ldr	r2, [r4, #24]
 1240 01e2 6946     		mov	r1, sp
 1241 01e4 6846     		mov	r0, sp
 1242 01e6 FFF7FEFF 		bl	_lv_area_intersect
 1243              	.LVL110:
 384:lvgl\src\lv_draw/lv_draw_arc.c ****     }
 1244              		.loc 1 384 0
 1245 01ea 20B1     		cbz	r0, .L40
 384:lvgl\src\lv_draw/lv_draw_arc.c ****     }
 1246              		.loc 1 384 0 is_stmt 0 discriminator 1
 1247 01ec 2269     		ldr	r2, [r4, #16]
 1248 01ee 6946     		mov	r1, sp
 1249 01f0 6069     		ldr	r0, [r4, #20]
 1250              	.LVL111:
 1251 01f2 FFF7FEFF 		bl	lv_draw_rect
 1252              	.LVL112:
 1253              	.L40:
 1254              	.LBE17:
 386:lvgl\src\lv_draw/lv_draw_arc.c **** 
 1255              		.loc 1 386 0 is_stmt 1
 1256 01f6 03B0     		add	sp, sp, #12
 1257              		.cfi_def_cfa_offset 12
 1258              		@ sp needed
 1259 01f8 30BD     		pop	{r4, r5, pc}
 1260              		.cfi_endproc
 1261              	.LFE40:
 1262              		.size	draw_quarter_3, .-draw_quarter_3
 1263 01fa 00BF     		.section	.text.lv_draw_arc,"ax",%progbits
 1264              		.align	2
 1265              		.global	lv_draw_arc
ARM GAS  C:\Users\strap\AppData\Local\Temp\ccQGFe6s.s 			page 34


 1266              		.thumb
 1267              		.thumb_func
 1268              		.type	lv_draw_arc, %function
 1269              	lv_draw_arc:
 1270              	.LFB36:
  73:lvgl\src\lv_draw/lv_draw_arc.c ****     if(dsc->opa <= LV_OPA_MIN) return;
 1271              		.loc 1 73 0
 1272              		.cfi_startproc
 1273              		@ args = 12, pretend = 0, frame = 248
 1274              		@ frame_needed = 0, uses_anonymous_args = 0
 1275              	.LVL113:
 1276 0000 2DE9F04F 		push	{r4, r5, r6, r7, r8, r9, r10, fp, lr}
 1277              		.cfi_def_cfa_offset 36
 1278              		.cfi_offset 4, -36
 1279              		.cfi_offset 5, -32
 1280              		.cfi_offset 6, -28
 1281              		.cfi_offset 7, -24
 1282              		.cfi_offset 8, -20
 1283              		.cfi_offset 9, -16
 1284              		.cfi_offset 10, -12
 1285              		.cfi_offset 11, -8
 1286              		.cfi_offset 14, -4
 1287 0004 C1B0     		sub	sp, sp, #260
 1288              		.cfi_def_cfa_offset 296
 1289 0006 0290     		str	r0, [sp, #8]
 1290 0008 0391     		str	r1, [sp, #12]
 1291 000a 1E46     		mov	r6, r3
 1292 000c BDF82851 		ldrh	r5, [sp, #296]
 1293 0010 4C9C     		ldr	r4, [sp, #304]
  74:lvgl\src\lv_draw/lv_draw_arc.c ****     if(dsc->width == 0) return;
 1294              		.loc 1 74 0
 1295 0012 237A     		ldrb	r3, [r4, #8]	@ zero_extendqisi2
 1296              	.LVL114:
 1297 0014 022B     		cmp	r3, #2
 1298 0016 40F20381 		bls	.L51
 1299 001a 1746     		mov	r7, r2
  75:lvgl\src\lv_draw/lv_draw_arc.c ****     if(start_angle == end_angle) return;
 1300              		.loc 1 75 0
 1301 001c B4F90280 		ldrsh	r8, [r4, #2]
 1302 0020 B8F1000F 		cmp	r8, #0
 1303 0024 00F0FC80 		beq	.L51
  76:lvgl\src\lv_draw/lv_draw_arc.c **** 
 1304              		.loc 1 76 0
 1305 0028 AE42     		cmp	r6, r5
 1306 002a 00F0F980 		beq	.L51
 1307              	.LVL115:
  79:lvgl\src\lv_draw/lv_draw_arc.c **** 
 1308              		.loc 1 79 0
 1309 002e 9045     		cmp	r8, r2
 1310 0030 01DD     		ble	.L53
  79:lvgl\src\lv_draw/lv_draw_arc.c **** 
 1311              		.loc 1 79 0 is_stmt 0 discriminator 1
 1312 0032 0FFA82F8 		sxth	r8, r2
 1313              	.LVL116:
 1314              	.L53:
  82:lvgl\src\lv_draw/lv_draw_arc.c ****     cir_dsc.radius = LV_RADIUS_CIRCLE;
 1315              		.loc 1 82 0 is_stmt 1
ARM GAS  C:\Users\strap\AppData\Local\Temp\ccQGFe6s.s 			page 35


 1316 0036 2BA8     		add	r0, sp, #172
 1317              	.LVL117:
 1318 0038 FFF7FEFF 		bl	lv_draw_rect_dsc_init
 1319              	.LVL118:
  83:lvgl\src\lv_draw/lv_draw_arc.c ****     cir_dsc.bg_opa = LV_OPA_TRANSP;
 1320              		.loc 1 83 0
 1321 003c 47F6FF73 		movw	r3, #32767
 1322 0040 ADF8AC30 		strh	r3, [sp, #172]	@ movhi
  84:lvgl\src\lv_draw/lv_draw_arc.c ****     cir_dsc.border_opa = dsc->opa;
 1323              		.loc 1 84 0
 1324 0044 0023     		movs	r3, #0
 1325 0046 8DF8B830 		strb	r3, [sp, #184]
  85:lvgl\src\lv_draw/lv_draw_arc.c ****     cir_dsc.border_color = dsc->color;
 1326              		.loc 1 85 0
 1327 004a 237A     		ldrb	r3, [r4, #8]	@ zero_extendqisi2
 1328 004c 8DF8C030 		strb	r3, [sp, #192]
  86:lvgl\src\lv_draw/lv_draw_arc.c ****     cir_dsc.border_width = width;
 1329              		.loc 1 86 0
 1330 0050 2388     		ldrh	r3, [r4]
 1331 0052 ADF8BA30 		strh	r3, [sp, #186]	@ movhi
  87:lvgl\src\lv_draw/lv_draw_arc.c ****     cir_dsc.border_blend_mode = dsc->blend_mode;
 1332              		.loc 1 87 0
 1333 0056 ADF8BC80 		strh	r8, [sp, #188]	@ movhi
  88:lvgl\src\lv_draw/lv_draw_arc.c **** 
 1334              		.loc 1 88 0
 1335 005a 637A     		ldrb	r3, [r4, #9]	@ zero_extendqisi2
 1336 005c C3F30103 		ubfx	r3, r3, #0, #2
 1337 0060 8DF8C130 		strb	r3, [sp, #193]
  91:lvgl\src\lv_draw/lv_draw_arc.c ****     area.y1 = center_y - radius;
 1338              		.loc 1 91 0
 1339 0064 BDF808B0 		ldrh	fp, [sp, #8]
 1340 0068 C7EB0B03 		rsb	r3, r7, fp
 1341 006c ADF8A430 		strh	r3, [sp, #164]	@ movhi
  92:lvgl\src\lv_draw/lv_draw_arc.c ****     area.x2 = center_x + radius - 1;  /*-1 because the center already belongs to the left/bottom pa
 1342              		.loc 1 92 0
 1343 0070 BDF80CA0 		ldrh	r10, [sp, #12]
 1344 0074 C7EB0A03 		rsb	r3, r7, r10
 1345 0078 ADF8A630 		strh	r3, [sp, #166]	@ movhi
  93:lvgl\src\lv_draw/lv_draw_arc.c ****     area.y2 = center_y + radius - 1;
 1346              		.loc 1 93 0
 1347 007c 07EB0B03 		add	r3, r7, fp
 1348 0080 013B     		subs	r3, r3, #1
 1349 0082 ADF8A830 		strh	r3, [sp, #168]	@ movhi
  94:lvgl\src\lv_draw/lv_draw_arc.c **** 
 1350              		.loc 1 94 0
 1351 0086 07EB0A03 		add	r3, r7, r10
 1352 008a 013B     		subs	r3, r3, #1
 1353 008c ADF8AA30 		strh	r3, [sp, #170]	@ movhi
  97:lvgl\src\lv_draw/lv_draw_arc.c ****         lv_draw_rect(&area, clip_area, &cir_dsc);
 1354              		.loc 1 97 0
 1355 0090 06F5B473 		add	r3, r6, #360
 1356 0094 AB42     		cmp	r3, r5
 1357 0096 03D0     		beq	.L54
  97:lvgl\src\lv_draw/lv_draw_arc.c ****         lv_draw_rect(&area, clip_area, &cir_dsc);
 1358              		.loc 1 97 0 is_stmt 0 discriminator 1
 1359 0098 05F5B473 		add	r3, r5, #360
 1360 009c 9E42     		cmp	r6, r3
ARM GAS  C:\Users\strap\AppData\Local\Temp\ccQGFe6s.s 			page 36


 1361 009e 05D1     		bne	.L55
 1362              	.L54:
  98:lvgl\src\lv_draw/lv_draw_arc.c ****         return;
 1363              		.loc 1 98 0 is_stmt 1
 1364 00a0 2BAA     		add	r2, sp, #172
 1365 00a2 4B99     		ldr	r1, [sp, #300]
 1366 00a4 29A8     		add	r0, sp, #164
 1367 00a6 FFF7FEFF 		bl	lv_draw_rect
 1368              	.LVL119:
  99:lvgl\src\lv_draw/lv_draw_arc.c ****     }
 1369              		.loc 1 99 0
 1370 00aa B9E0     		b	.L51
 1371              	.L55:
 102:lvgl\src\lv_draw/lv_draw_arc.c ****     if(end_angle >= 360) end_angle -= 360;
 1372              		.loc 1 102 0
 1373 00ac B6F5B47F 		cmp	r6, #360
 1374 00b0 02D3     		bcc	.L56
 102:lvgl\src\lv_draw/lv_draw_arc.c ****     if(end_angle >= 360) end_angle -= 360;
 1375              		.loc 1 102 0 is_stmt 0 discriminator 1
 1376 00b2 A6F5B476 		sub	r6, r6, #360
 1377 00b6 B6B2     		uxth	r6, r6
 1378              	.LVL120:
 1379              	.L56:
 103:lvgl\src\lv_draw/lv_draw_arc.c **** 
 1380              		.loc 1 103 0 is_stmt 1
 1381 00b8 B5F5B47F 		cmp	r5, #360
 1382 00bc 02D3     		bcc	.L57
 103:lvgl\src\lv_draw/lv_draw_arc.c **** 
 1383              		.loc 1 103 0 is_stmt 0 discriminator 1
 1384 00be A5F5B475 		sub	r5, r5, #360
 1385 00c2 ADB2     		uxth	r5, r5
 1386              	.LVL121:
 1387              	.L57:
 106:lvgl\src\lv_draw/lv_draw_arc.c **** 
 1388              		.loc 1 106 0 is_stmt 1
 1389 00c4 33B2     		sxth	r3, r6
 1390 00c6 0593     		str	r3, [sp, #20]
 1391 00c8 0FFA85F9 		sxth	r9, r5
 1392 00cc CDF80090 		str	r9, [sp]
 1393 00d0 039A     		ldr	r2, [sp, #12]
 1394 00d2 0299     		ldr	r1, [sp, #8]
 1395 00d4 0EA8     		add	r0, sp, #56
 1396 00d6 FFF7FEFF 		bl	lv_draw_mask_angle_init
 1397              	.LVL122:
 108:lvgl\src\lv_draw/lv_draw_arc.c **** 
 1398              		.loc 1 108 0
 1399 00da 0021     		movs	r1, #0
 1400 00dc 0EA8     		add	r0, sp, #56
 1401 00de FFF7FEFF 		bl	lv_draw_mask_add
 1402              	.LVL123:
 1403 00e2 0490     		str	r0, [sp, #16]
 1404              	.LVL124:
 111:lvgl\src\lv_draw/lv_draw_arc.c ****         angle_gap = 360 - (end_angle - start_angle);
 1405              		.loc 1 111 0
 1406 00e4 AE42     		cmp	r6, r5
 1407 00e6 03D2     		bcs	.L58
 112:lvgl\src\lv_draw/lv_draw_arc.c ****     }
ARM GAS  C:\Users\strap\AppData\Local\Temp\ccQGFe6s.s 			page 37


 1408              		.loc 1 112 0
 1409 00e8 AB1B     		subs	r3, r5, r6
 1410 00ea C3F5B473 		rsb	r3, r3, #360
 1411              	.LVL125:
 1412 00ee 00E0     		b	.L59
 1413              	.LVL126:
 1414              	.L58:
 115:lvgl\src\lv_draw/lv_draw_arc.c ****     }
 1415              		.loc 1 115 0
 1416 00f0 731B     		subs	r3, r6, r5
 1417              	.LVL127:
 1418              	.L59:
 117:lvgl\src\lv_draw/lv_draw_arc.c ****         /*Handle each quarter individually and skip which is empty*/
 1419              		.loc 1 117 0
 1420 00f2 3C2B     		cmp	r3, #60
 1421 00f4 33DD     		ble	.L60
 117:lvgl\src\lv_draw/lv_draw_arc.c ****         /*Handle each quarter individually and skip which is empty*/
 1422              		.loc 1 117 0 is_stmt 0 discriminator 1
 1423 00f6 0A2F     		cmp	r7, #10
 1424 00f8 31D9     		bls	.L60
 1425              	.LBB18:
 120:lvgl\src\lv_draw/lv_draw_arc.c ****         q_dsc.center_y = center_y;
 1426              		.loc 1 120 0 is_stmt 1
 1427 00fa BDF80830 		ldrh	r3, [sp, #8]
 1428              	.LVL128:
 1429 00fe ADF81C30 		strh	r3, [sp, #28]	@ movhi
 121:lvgl\src\lv_draw/lv_draw_arc.c ****         q_dsc.radius = radius;
 1430              		.loc 1 121 0
 1431 0102 BDF80C30 		ldrh	r3, [sp, #12]
 1432 0106 ADF81E30 		strh	r3, [sp, #30]	@ movhi
 122:lvgl\src\lv_draw/lv_draw_arc.c ****         q_dsc.start_angle = start_angle;
 1433              		.loc 1 122 0
 1434 010a ADF82070 		strh	r7, [sp, #32]	@ movhi
 123:lvgl\src\lv_draw/lv_draw_arc.c ****         q_dsc.end_angle = end_angle;
 1435              		.loc 1 123 0
 1436 010e ADF82260 		strh	r6, [sp, #34]	@ movhi
 124:lvgl\src\lv_draw/lv_draw_arc.c ****         q_dsc.start_quarter = (start_angle / 90) & 0x3;
 1437              		.loc 1 124 0
 1438 0112 ADF82450 		strh	r5, [sp, #36]	@ movhi
 125:lvgl\src\lv_draw/lv_draw_arc.c ****         q_dsc.end_quarter = (end_angle / 90) & 0x3;
 1439              		.loc 1 125 0
 1440 0116 7208     		lsrs	r2, r6, #1
 1441 0118 434B     		ldr	r3, .L67
 1442 011a A3FB0212 		umull	r1, r2, r3, r2
 1443 011e C2F34112 		ubfx	r2, r2, #5, #2
 1444 0122 ADF82620 		strh	r2, [sp, #38]	@ movhi
 126:lvgl\src\lv_draw/lv_draw_arc.c ****         q_dsc.width = width;
 1445              		.loc 1 126 0
 1446 0126 6D08     		lsrs	r5, r5, #1
 1447              	.LVL129:
 1448 0128 A3FB0523 		umull	r2, r3, r3, r5
 1449 012c C3F34113 		ubfx	r3, r3, #5, #2
 1450 0130 ADF82830 		strh	r3, [sp, #40]	@ movhi
 127:lvgl\src\lv_draw/lv_draw_arc.c ****         q_dsc.draw_dsc =  &cir_dsc;
 1451              		.loc 1 127 0
 1452 0134 ADF82A80 		strh	r8, [sp, #42]	@ movhi
 128:lvgl\src\lv_draw/lv_draw_arc.c ****         q_dsc.draw_area = &area;
ARM GAS  C:\Users\strap\AppData\Local\Temp\ccQGFe6s.s 			page 38


 1453              		.loc 1 128 0
 1454 0138 2BAB     		add	r3, sp, #172
 1455 013a 0B93     		str	r3, [sp, #44]
 129:lvgl\src\lv_draw/lv_draw_arc.c ****         q_dsc.clip_area = clip_area;
 1456              		.loc 1 129 0
 1457 013c 29AB     		add	r3, sp, #164
 1458 013e 0C93     		str	r3, [sp, #48]
 130:lvgl\src\lv_draw/lv_draw_arc.c **** 
 1459              		.loc 1 130 0
 1460 0140 4B9B     		ldr	r3, [sp, #300]
 1461 0142 0D93     		str	r3, [sp, #52]
 132:lvgl\src\lv_draw/lv_draw_arc.c ****         draw_quarter_1(&q_dsc);
 1462              		.loc 1 132 0
 1463 0144 07A8     		add	r0, sp, #28
 1464 0146 FFF7FEFF 		bl	draw_quarter_0
 1465              	.LVL130:
 133:lvgl\src\lv_draw/lv_draw_arc.c ****         draw_quarter_2(&q_dsc);
 1466              		.loc 1 133 0
 1467 014a 07A8     		add	r0, sp, #28
 1468 014c FFF7FEFF 		bl	draw_quarter_1
 1469              	.LVL131:
 134:lvgl\src\lv_draw/lv_draw_arc.c ****         draw_quarter_3(&q_dsc);
 1470              		.loc 1 134 0
 1471 0150 07A8     		add	r0, sp, #28
 1472 0152 FFF7FEFF 		bl	draw_quarter_2
 1473              	.LVL132:
 135:lvgl\src\lv_draw/lv_draw_arc.c ****     }
 1474              		.loc 1 135 0
 1475 0156 07A8     		add	r0, sp, #28
 1476 0158 FFF7FEFF 		bl	draw_quarter_3
 1477              	.LVL133:
 1478              	.LBE18:
 117:lvgl\src\lv_draw/lv_draw_arc.c ****         /*Handle each quarter individually and skip which is empty*/
 1479              		.loc 1 117 0
 1480 015c 04E0     		b	.L61
 1481              	.LVL134:
 1482              	.L60:
 138:lvgl\src\lv_draw/lv_draw_arc.c ****     }
 1483              		.loc 1 138 0
 1484 015e 2BAA     		add	r2, sp, #172
 1485 0160 4B99     		ldr	r1, [sp, #300]
 1486 0162 29A8     		add	r0, sp, #164
 1487 0164 FFF7FEFF 		bl	lv_draw_rect
 1488              	.LVL135:
 1489              	.L61:
 140:lvgl\src\lv_draw/lv_draw_arc.c **** 
 1490              		.loc 1 140 0
 1491 0168 0498     		ldr	r0, [sp, #16]
 1492 016a FFF7FEFF 		bl	lv_draw_mask_remove_id
 1493              	.LVL136:
 142:lvgl\src\lv_draw/lv_draw_arc.c ****         cir_dsc.bg_color        = dsc->color;
 1494              		.loc 1 142 0
 1495 016e 637A     		ldrb	r3, [r4, #9]	@ zero_extendqisi2
 1496 0170 13F00C0F 		tst	r3, #12
 1497 0174 54D0     		beq	.L51
 1498              	.LBB19:
 143:lvgl\src\lv_draw/lv_draw_arc.c ****         cir_dsc.bg_opa        = dsc->opa;
ARM GAS  C:\Users\strap\AppData\Local\Temp\ccQGFe6s.s 			page 39


 1499              		.loc 1 143 0
 1500 0176 2388     		ldrh	r3, [r4]
 1501 0178 ADF8AE30 		strh	r3, [sp, #174]	@ movhi
 144:lvgl\src\lv_draw/lv_draw_arc.c ****         cir_dsc.bg_blend_mode = dsc->blend_mode;
 1502              		.loc 1 144 0
 1503 017c 237A     		ldrb	r3, [r4, #8]	@ zero_extendqisi2
 1504 017e 8DF8B830 		strb	r3, [sp, #184]
 145:lvgl\src\lv_draw/lv_draw_arc.c ****         cir_dsc.border_width = 0;
 1505              		.loc 1 145 0
 1506 0182 637A     		ldrb	r3, [r4, #9]	@ zero_extendqisi2
 1507 0184 C3F30102 		ubfx	r2, r3, #0, #2
 1508 0188 8DF8B920 		strb	r2, [sp, #185]
 146:lvgl\src\lv_draw/lv_draw_arc.c **** 
 1509              		.loc 1 146 0
 1510 018c 0022     		movs	r2, #0
 1511 018e ADF8BC20 		strh	r2, [sp, #188]	@ movhi
 149:lvgl\src\lv_draw/lv_draw_arc.c ****             get_rounded_area(start_angle, radius, width, &round_area);
 1512              		.loc 1 149 0
 1513 0192 13F0040F 		tst	r3, #4
 1514 0196 1FD0     		beq	.L63
 150:lvgl\src\lv_draw/lv_draw_arc.c ****             round_area.x1 += center_x;
 1515              		.loc 1 150 0
 1516 0198 07AB     		add	r3, sp, #28
 1517 019a 5FFA88F2 		uxtb	r2, r8
 1518 019e 39B2     		sxth	r1, r7
 1519 01a0 0598     		ldr	r0, [sp, #20]
 1520 01a2 FFF7FEFF 		bl	get_rounded_area
 1521              	.LVL137:
 151:lvgl\src\lv_draw/lv_draw_arc.c ****             round_area.x2 += center_x;
 1522              		.loc 1 151 0
 1523 01a6 BDF81C30 		ldrh	r3, [sp, #28]
 1524 01aa 5B44     		add	r3, r3, fp
 1525 01ac ADF81C30 		strh	r3, [sp, #28]	@ movhi
 152:lvgl\src\lv_draw/lv_draw_arc.c ****             round_area.y1 += center_y;
 1526              		.loc 1 152 0
 1527 01b0 BDF82030 		ldrh	r3, [sp, #32]
 1528 01b4 5B44     		add	r3, r3, fp
 1529 01b6 ADF82030 		strh	r3, [sp, #32]	@ movhi
 153:lvgl\src\lv_draw/lv_draw_arc.c ****             round_area.y2 += center_y;
 1530              		.loc 1 153 0
 1531 01ba BDF81E30 		ldrh	r3, [sp, #30]
 1532 01be 5344     		add	r3, r3, r10
 1533 01c0 ADF81E30 		strh	r3, [sp, #30]	@ movhi
 154:lvgl\src\lv_draw/lv_draw_arc.c **** 
 1534              		.loc 1 154 0
 1535 01c4 BDF82230 		ldrh	r3, [sp, #34]
 1536 01c8 5344     		add	r3, r3, r10
 1537 01ca ADF82230 		strh	r3, [sp, #34]	@ movhi
 156:lvgl\src\lv_draw/lv_draw_arc.c ****         }
 1538              		.loc 1 156 0
 1539 01ce 2BAA     		add	r2, sp, #172
 1540 01d0 4B99     		ldr	r1, [sp, #300]
 1541 01d2 07A8     		add	r0, sp, #28
 1542 01d4 FFF7FEFF 		bl	lv_draw_rect
 1543              	.LVL138:
 1544              	.L63:
 159:lvgl\src\lv_draw/lv_draw_arc.c ****             get_rounded_area(end_angle, radius, width, &round_area);
ARM GAS  C:\Users\strap\AppData\Local\Temp\ccQGFe6s.s 			page 40


 1545              		.loc 1 159 0
 1546 01d8 637A     		ldrb	r3, [r4, #9]	@ zero_extendqisi2
 1547 01da 13F0080F 		tst	r3, #8
 1548 01de 1FD0     		beq	.L51
 160:lvgl\src\lv_draw/lv_draw_arc.c ****             round_area.x1 += center_x;
 1549              		.loc 1 160 0
 1550 01e0 07AB     		add	r3, sp, #28
 1551 01e2 5FFA88F2 		uxtb	r2, r8
 1552 01e6 39B2     		sxth	r1, r7
 1553 01e8 4846     		mov	r0, r9
 1554 01ea FFF7FEFF 		bl	get_rounded_area
 1555              	.LVL139:
 161:lvgl\src\lv_draw/lv_draw_arc.c ****             round_area.x2 += center_x;
 1556              		.loc 1 161 0
 1557 01ee BDF81C30 		ldrh	r3, [sp, #28]
 1558 01f2 5B44     		add	r3, r3, fp
 1559 01f4 ADF81C30 		strh	r3, [sp, #28]	@ movhi
 162:lvgl\src\lv_draw/lv_draw_arc.c ****             round_area.y1 += center_y;
 1560              		.loc 1 162 0
 1561 01f8 BDF82030 		ldrh	r3, [sp, #32]
 1562 01fc 9B44     		add	fp, fp, r3
 1563 01fe ADF820B0 		strh	fp, [sp, #32]	@ movhi
 163:lvgl\src\lv_draw/lv_draw_arc.c ****             round_area.y2 += center_y;
 1564              		.loc 1 163 0
 1565 0202 BDF81E30 		ldrh	r3, [sp, #30]
 1566 0206 5344     		add	r3, r3, r10
 1567 0208 ADF81E30 		strh	r3, [sp, #30]	@ movhi
 164:lvgl\src\lv_draw/lv_draw_arc.c **** 
 1568              		.loc 1 164 0
 1569 020c BDF82230 		ldrh	r3, [sp, #34]
 1570 0210 9A44     		add	r10, r10, r3
 1571 0212 ADF822A0 		strh	r10, [sp, #34]	@ movhi
 166:lvgl\src\lv_draw/lv_draw_arc.c ****         }
 1572              		.loc 1 166 0
 1573 0216 2BAA     		add	r2, sp, #172
 1574 0218 4B99     		ldr	r1, [sp, #300]
 1575 021a 07A8     		add	r0, sp, #28
 1576 021c FFF7FEFF 		bl	lv_draw_rect
 1577              	.LVL140:
 1578              	.L51:
 1579              	.LBE19:
 169:lvgl\src\lv_draw/lv_draw_arc.c **** 
 1580              		.loc 1 169 0
 1581 0220 41B0     		add	sp, sp, #260
 1582              		.cfi_def_cfa_offset 36
 1583              		@ sp needed
 1584 0222 BDE8F08F 		pop	{r4, r5, r6, r7, r8, r9, r10, fp, pc}
 1585              	.LVL141:
 1586              	.L68:
 1587 0226 00BF     		.align	2
 1588              	.L67:
 1589 0228 B7600BB6 		.word	-1240768329
 1590              		.cfi_endproc
 1591              	.LFE36:
 1592              		.size	lv_draw_arc, .-lv_draw_arc
 1593              		.text
 1594              	.Letext0:
ARM GAS  C:\Users\strap\AppData\Local\Temp\ccQGFe6s.s 			page 41


 1595              		.file 2 "c:\\program files (x86)\\cypress\\psoc creator\\4.4\\psoc creator\\import\\gnu\\arm\\5.4.
 1596              		.file 3 "c:\\program files (x86)\\cypress\\psoc creator\\4.4\\psoc creator\\import\\gnu\\arm\\5.4.
 1597              		.file 4 "lvgl\\src\\lv_draw\\../lv_core/../lv_font/../../../lv_conf.h"
 1598              		.file 5 "lvgl\\src\\lv_draw\\../lv_core/../lv_font/../lv_misc/lv_area.h"
 1599              		.file 6 "lvgl\\src\\lv_draw\\../lv_core/../lv_font/lv_font.h"
 1600              		.file 7 "lvgl\\src\\lv_draw\\../lv_core/../lv_misc/lv_color.h"
 1601              		.file 8 "lvgl\\src\\lv_draw\\../lv_core/../lv_draw/lv_draw_mask.h"
 1602              		.file 9 "lvgl\\src\\lv_draw\\../lv_core/../lv_draw/lv_draw_blend.h"
 1603              		.file 10 "lvgl\\src\\lv_draw\\../lv_core/lv_style.h"
 1604              		.file 11 "lvgl\\src\\lv_draw\\lv_draw_line.h"
 1605              		.file 12 "lvgl\\src\\lv_draw\\lv_draw_rect.h"
 1606              		.file 13 "lvgl\\src\\lv_draw\\../lv_core/../lv_misc/lv_math.h"