ARM GAS  C:\Users\strap\AppData\Local\Temp\ccf5xETM.s 			page 1


   1              		.syntax unified
   2              		.cpu cortex-m3
   3              		.fpu softvfp
   4              		.eabi_attribute 20, 1
   5              		.eabi_attribute 21, 1
   6              		.eabi_attribute 23, 3
   7              		.eabi_attribute 24, 1
   8              		.eabi_attribute 25, 1
   9              		.eabi_attribute 26, 1
  10              		.eabi_attribute 30, 1
  11              		.eabi_attribute 34, 1
  12              		.eabi_attribute 18, 4
  13              		.thumb
  14              		.syntax unified
  15              		.file	"lv_dropdown.c"
  16              		.text
  17              	.Ltext0:
  18              		.cfi_sections	.debug_frame
  19              		.section	.text.lv_dropdown_get_style,"ax",%progbits
  20              		.align	2
  21              		.thumb
  22              		.thumb_func
  23              		.type	lv_dropdown_get_style, %function
  24              	lv_dropdown_get_style:
  25              	.LFB375:
  26              		.file 1 "lvgl\\src\\lv_widgets\\lv_dropdown.c"
   1:lvgl\src\lv_widgets/lv_dropdown.c **** /**
   2:lvgl\src\lv_widgets/lv_dropdown.c ****  * @file lv_ddlist.c
   3:lvgl\src\lv_widgets/lv_dropdown.c ****  *
   4:lvgl\src\lv_widgets/lv_dropdown.c ****  */
   5:lvgl\src\lv_widgets/lv_dropdown.c **** 
   6:lvgl\src\lv_widgets/lv_dropdown.c **** /*********************
   7:lvgl\src\lv_widgets/lv_dropdown.c ****  *      INCLUDES
   8:lvgl\src\lv_widgets/lv_dropdown.c ****  *********************/
   9:lvgl\src\lv_widgets/lv_dropdown.c **** #include "lv_dropdown.h"
  10:lvgl\src\lv_widgets/lv_dropdown.c **** #if LV_USE_DROPDOWN != 0
  11:lvgl\src\lv_widgets/lv_dropdown.c **** 
  12:lvgl\src\lv_widgets/lv_dropdown.c **** #include "../lv_misc/lv_debug.h"
  13:lvgl\src\lv_widgets/lv_dropdown.c **** #include "../lv_draw/lv_draw.h"
  14:lvgl\src\lv_widgets/lv_dropdown.c **** #include "../lv_core/lv_group.h"
  15:lvgl\src\lv_widgets/lv_dropdown.c **** #include "../lv_core/lv_indev.h"
  16:lvgl\src\lv_widgets/lv_dropdown.c **** #include "../lv_core/lv_disp.h"
  17:lvgl\src\lv_widgets/lv_dropdown.c **** #include "../lv_themes/lv_theme.h"
  18:lvgl\src\lv_widgets/lv_dropdown.c **** #include "../lv_font/lv_symbol_def.h"
  19:lvgl\src\lv_widgets/lv_dropdown.c **** #include "../lv_misc/lv_anim.h"
  20:lvgl\src\lv_widgets/lv_dropdown.c **** #include "../lv_misc/lv_math.h"
  21:lvgl\src\lv_widgets/lv_dropdown.c **** #include <string.h>
  22:lvgl\src\lv_widgets/lv_dropdown.c **** 
  23:lvgl\src\lv_widgets/lv_dropdown.c **** /*********************
  24:lvgl\src\lv_widgets/lv_dropdown.c ****  *      DEFINES
  25:lvgl\src\lv_widgets/lv_dropdown.c ****  *********************/
  26:lvgl\src\lv_widgets/lv_dropdown.c **** #define LV_OBJX_NAME "lv_dropdown"
  27:lvgl\src\lv_widgets/lv_dropdown.c **** 
  28:lvgl\src\lv_widgets/lv_dropdown.c **** #if LV_USE_ANIMATION == 0
  29:lvgl\src\lv_widgets/lv_dropdown.c ****     #undef LV_DROPDOWN_DEF_ANIM_TIME
  30:lvgl\src\lv_widgets/lv_dropdown.c ****     #define LV_DROPDOWN_DEF_ANIM_TIME 0 /*No animation*/
  31:lvgl\src\lv_widgets/lv_dropdown.c **** #endif
ARM GAS  C:\Users\strap\AppData\Local\Temp\ccf5xETM.s 			page 2


  32:lvgl\src\lv_widgets/lv_dropdown.c **** 
  33:lvgl\src\lv_widgets/lv_dropdown.c **** #define LV_DROPDOWN_PR_NONE 0xFFFF
  34:lvgl\src\lv_widgets/lv_dropdown.c **** 
  35:lvgl\src\lv_widgets/lv_dropdown.c **** /**********************
  36:lvgl\src\lv_widgets/lv_dropdown.c ****  *      TYPEDEFS
  37:lvgl\src\lv_widgets/lv_dropdown.c ****  **********************/
  38:lvgl\src\lv_widgets/lv_dropdown.c **** typedef struct {
  39:lvgl\src\lv_widgets/lv_dropdown.c ****     lv_page_ext_t page;
  40:lvgl\src\lv_widgets/lv_dropdown.c ****     lv_obj_t * ddlist;      /*Pointer to the ddlist where the page belongs*/
  41:lvgl\src\lv_widgets/lv_dropdown.c **** } lv_dropdown_page_ext_t;
  42:lvgl\src\lv_widgets/lv_dropdown.c **** 
  43:lvgl\src\lv_widgets/lv_dropdown.c **** /**********************
  44:lvgl\src\lv_widgets/lv_dropdown.c ****  *  STATIC PROTOTYPES
  45:lvgl\src\lv_widgets/lv_dropdown.c ****  **********************/
  46:lvgl\src\lv_widgets/lv_dropdown.c **** static lv_design_res_t lv_dropdown_design(lv_obj_t * ddlist, const lv_area_t * clip_area, lv_design
  47:lvgl\src\lv_widgets/lv_dropdown.c **** static lv_design_res_t lv_dropdown_page_design(lv_obj_t * ddlist, const lv_area_t * clip_area, lv_d
  48:lvgl\src\lv_widgets/lv_dropdown.c **** static lv_res_t lv_dropdown_signal(lv_obj_t * ddlist, lv_signal_t sign, void * param);
  49:lvgl\src\lv_widgets/lv_dropdown.c **** static lv_res_t lv_dropdown_page_signal(lv_obj_t * page, lv_signal_t sign, void * param);
  50:lvgl\src\lv_widgets/lv_dropdown.c **** static lv_res_t lv_dropdown_page_scrl_signal(lv_obj_t * scrl, lv_signal_t sign, void * param);
  51:lvgl\src\lv_widgets/lv_dropdown.c **** static lv_style_list_t * lv_dropdown_get_style(lv_obj_t * ddlist, uint8_t part);
  52:lvgl\src\lv_widgets/lv_dropdown.c **** static void draw_box(lv_obj_t * ddlist, const lv_area_t * clip_area, uint16_t id, lv_state_t state)
  53:lvgl\src\lv_widgets/lv_dropdown.c **** static void draw_box_label(lv_obj_t * ddlist, const lv_area_t * clip_area, uint16_t id, lv_state_t 
  54:lvgl\src\lv_widgets/lv_dropdown.c **** static lv_res_t page_release_handler(lv_obj_t * page);
  55:lvgl\src\lv_widgets/lv_dropdown.c **** static void page_press_handler(lv_obj_t * page);
  56:lvgl\src\lv_widgets/lv_dropdown.c **** static uint16_t get_id_on_point(lv_obj_t * ddlist, lv_coord_t y);
  57:lvgl\src\lv_widgets/lv_dropdown.c **** static void position_to_selected(lv_obj_t * ddlist);
  58:lvgl\src\lv_widgets/lv_dropdown.c **** static lv_obj_t * get_label(const lv_obj_t * ddlist);
  59:lvgl\src\lv_widgets/lv_dropdown.c **** 
  60:lvgl\src\lv_widgets/lv_dropdown.c **** /**********************
  61:lvgl\src\lv_widgets/lv_dropdown.c ****  *  STATIC VARIABLES
  62:lvgl\src\lv_widgets/lv_dropdown.c ****  **********************/
  63:lvgl\src\lv_widgets/lv_dropdown.c **** static lv_signal_cb_t ancestor_signal;
  64:lvgl\src\lv_widgets/lv_dropdown.c **** static lv_signal_cb_t ancestor_page_signal;
  65:lvgl\src\lv_widgets/lv_dropdown.c **** static lv_signal_cb_t ancestor_page_scrl_signal;
  66:lvgl\src\lv_widgets/lv_dropdown.c **** static lv_design_cb_t ancestor_design;
  67:lvgl\src\lv_widgets/lv_dropdown.c **** static lv_design_cb_t ancestor_page_design;
  68:lvgl\src\lv_widgets/lv_dropdown.c **** 
  69:lvgl\src\lv_widgets/lv_dropdown.c **** /**********************
  70:lvgl\src\lv_widgets/lv_dropdown.c ****  *      MACROS
  71:lvgl\src\lv_widgets/lv_dropdown.c ****  **********************/
  72:lvgl\src\lv_widgets/lv_dropdown.c **** 
  73:lvgl\src\lv_widgets/lv_dropdown.c **** /**********************
  74:lvgl\src\lv_widgets/lv_dropdown.c ****  *   GLOBAL FUNCTIONS
  75:lvgl\src\lv_widgets/lv_dropdown.c ****  **********************/
  76:lvgl\src\lv_widgets/lv_dropdown.c **** 
  77:lvgl\src\lv_widgets/lv_dropdown.c **** /**
  78:lvgl\src\lv_widgets/lv_dropdown.c ****  * Create a drop down list objects
  79:lvgl\src\lv_widgets/lv_dropdown.c ****  * @param par pointer to an object, it will be the parent of the new drop down list
  80:lvgl\src\lv_widgets/lv_dropdown.c ****  * @param copy pointer to a drop down list object, if not NULL then the new object will be copied
  81:lvgl\src\lv_widgets/lv_dropdown.c ****  * from it
  82:lvgl\src\lv_widgets/lv_dropdown.c ****  * @return pointer to the created drop down list
  83:lvgl\src\lv_widgets/lv_dropdown.c ****  */
  84:lvgl\src\lv_widgets/lv_dropdown.c **** lv_obj_t * lv_dropdown_create(lv_obj_t * par, const lv_obj_t * copy)
  85:lvgl\src\lv_widgets/lv_dropdown.c **** {
  86:lvgl\src\lv_widgets/lv_dropdown.c ****     LV_LOG_TRACE("drop down list create started");
  87:lvgl\src\lv_widgets/lv_dropdown.c **** 
  88:lvgl\src\lv_widgets/lv_dropdown.c ****     /*Create the ancestor drop down list*/
ARM GAS  C:\Users\strap\AppData\Local\Temp\ccf5xETM.s 			page 3


  89:lvgl\src\lv_widgets/lv_dropdown.c ****     lv_obj_t * ddlist = lv_obj_create(par, copy);
  90:lvgl\src\lv_widgets/lv_dropdown.c ****     LV_ASSERT_MEM(ddlist);
  91:lvgl\src\lv_widgets/lv_dropdown.c ****     if(ddlist == NULL) return NULL;
  92:lvgl\src\lv_widgets/lv_dropdown.c **** 
  93:lvgl\src\lv_widgets/lv_dropdown.c ****     if(ancestor_signal == NULL) ancestor_signal = lv_obj_get_signal_cb(ddlist);
  94:lvgl\src\lv_widgets/lv_dropdown.c ****     if(ancestor_design == NULL) ancestor_design = lv_obj_get_design_cb(ddlist);
  95:lvgl\src\lv_widgets/lv_dropdown.c **** 
  96:lvgl\src\lv_widgets/lv_dropdown.c ****     /*Allocate the drop down list type specific extended data*/
  97:lvgl\src\lv_widgets/lv_dropdown.c ****     lv_dropdown_ext_t * ext = lv_obj_allocate_ext_attr(ddlist, sizeof(lv_dropdown_ext_t));
  98:lvgl\src\lv_widgets/lv_dropdown.c ****     LV_ASSERT_MEM(ext);
  99:lvgl\src\lv_widgets/lv_dropdown.c ****     if(ext == NULL) {
 100:lvgl\src\lv_widgets/lv_dropdown.c ****         lv_obj_del(ddlist);
 101:lvgl\src\lv_widgets/lv_dropdown.c ****         return NULL;
 102:lvgl\src\lv_widgets/lv_dropdown.c ****     }
 103:lvgl\src\lv_widgets/lv_dropdown.c **** 
 104:lvgl\src\lv_widgets/lv_dropdown.c ****     /*Initialize the allocated 'ext' */
 105:lvgl\src\lv_widgets/lv_dropdown.c ****     ext->page          = NULL;
 106:lvgl\src\lv_widgets/lv_dropdown.c ****     ext->options     = NULL;
 107:lvgl\src\lv_widgets/lv_dropdown.c ****     ext->symbol         = LV_SYMBOL_DOWN;
 108:lvgl\src\lv_widgets/lv_dropdown.c ****     ext->text         = "Select";
 109:lvgl\src\lv_widgets/lv_dropdown.c ****     ext->static_txt = 1;
 110:lvgl\src\lv_widgets/lv_dropdown.c ****     ext->show_selected   = 1;
 111:lvgl\src\lv_widgets/lv_dropdown.c ****     ext->sel_opt_id      = 0;
 112:lvgl\src\lv_widgets/lv_dropdown.c ****     ext->sel_opt_id_orig = 0;
 113:lvgl\src\lv_widgets/lv_dropdown.c ****     ext->pr_opt_id = LV_DROPDOWN_PR_NONE;
 114:lvgl\src\lv_widgets/lv_dropdown.c ****     ext->option_cnt      = 0;
 115:lvgl\src\lv_widgets/lv_dropdown.c ****     ext->dir = LV_DROPDOWN_DIR_DOWN;
 116:lvgl\src\lv_widgets/lv_dropdown.c ****     ext->max_height = (3 * lv_disp_get_ver_res(NULL)) / 4;
 117:lvgl\src\lv_widgets/lv_dropdown.c ****     lv_style_list_init(&ext->style_page);
 118:lvgl\src\lv_widgets/lv_dropdown.c ****     lv_style_list_init(&ext->style_scrlbar);
 119:lvgl\src\lv_widgets/lv_dropdown.c ****     lv_style_list_init(&ext->style_selected);
 120:lvgl\src\lv_widgets/lv_dropdown.c **** 
 121:lvgl\src\lv_widgets/lv_dropdown.c ****     /*The signal and design functions are not copied so set them here*/
 122:lvgl\src\lv_widgets/lv_dropdown.c ****     lv_obj_set_signal_cb(ddlist, lv_dropdown_signal);
 123:lvgl\src\lv_widgets/lv_dropdown.c ****     lv_obj_set_design_cb(ddlist, lv_dropdown_design);
 124:lvgl\src\lv_widgets/lv_dropdown.c **** 
 125:lvgl\src\lv_widgets/lv_dropdown.c ****     /*Init the new drop down list drop down list*/
 126:lvgl\src\lv_widgets/lv_dropdown.c ****     if(copy == NULL) {
 127:lvgl\src\lv_widgets/lv_dropdown.c ****         lv_obj_set_width(ddlist, LV_DPX(150));
 128:lvgl\src\lv_widgets/lv_dropdown.c ****         lv_dropdown_set_options_static(ddlist, "Option 1\nOption 2\nOption 3");
 129:lvgl\src\lv_widgets/lv_dropdown.c ****         lv_theme_apply(ddlist, LV_THEME_DROPDOWN);
 130:lvgl\src\lv_widgets/lv_dropdown.c ****     }
 131:lvgl\src\lv_widgets/lv_dropdown.c ****     /*Copy an existing drop down list*/
 132:lvgl\src\lv_widgets/lv_dropdown.c ****     else {
 133:lvgl\src\lv_widgets/lv_dropdown.c ****         lv_dropdown_ext_t * copy_ext = lv_obj_get_ext_attr(copy);
 134:lvgl\src\lv_widgets/lv_dropdown.c ****         if(copy_ext->static_txt == 0)
 135:lvgl\src\lv_widgets/lv_dropdown.c ****             lv_dropdown_set_options(ddlist, lv_dropdown_get_options(copy));
 136:lvgl\src\lv_widgets/lv_dropdown.c ****         else
 137:lvgl\src\lv_widgets/lv_dropdown.c ****             lv_dropdown_set_options_static(ddlist, lv_dropdown_get_options(copy));
 138:lvgl\src\lv_widgets/lv_dropdown.c ****         ext->option_cnt        = copy_ext->option_cnt;
 139:lvgl\src\lv_widgets/lv_dropdown.c ****         ext->sel_opt_id     = copy_ext->sel_opt_id;
 140:lvgl\src\lv_widgets/lv_dropdown.c ****         ext->sel_opt_id_orig = copy_ext->sel_opt_id;
 141:lvgl\src\lv_widgets/lv_dropdown.c ****         ext->symbol           = copy_ext->symbol;
 142:lvgl\src\lv_widgets/lv_dropdown.c ****         ext->max_height      = copy_ext->max_height;
 143:lvgl\src\lv_widgets/lv_dropdown.c ****         ext->text      = copy_ext->text;
 144:lvgl\src\lv_widgets/lv_dropdown.c ****         ext->dir      = copy_ext->dir;
 145:lvgl\src\lv_widgets/lv_dropdown.c ****         ext->show_selected      = copy_ext->show_selected;
ARM GAS  C:\Users\strap\AppData\Local\Temp\ccf5xETM.s 			page 4


 146:lvgl\src\lv_widgets/lv_dropdown.c ****         lv_style_list_copy(&ext->style_page, &copy_ext->style_page);
 147:lvgl\src\lv_widgets/lv_dropdown.c ****         lv_style_list_copy(&ext->style_selected, &copy_ext->style_selected);
 148:lvgl\src\lv_widgets/lv_dropdown.c ****         lv_style_list_copy(&ext->style_scrlbar, &copy_ext->style_scrlbar);
 149:lvgl\src\lv_widgets/lv_dropdown.c ****     }
 150:lvgl\src\lv_widgets/lv_dropdown.c **** 
 151:lvgl\src\lv_widgets/lv_dropdown.c ****     LV_LOG_INFO("drop down list created");
 152:lvgl\src\lv_widgets/lv_dropdown.c **** 
 153:lvgl\src\lv_widgets/lv_dropdown.c ****     return ddlist;
 154:lvgl\src\lv_widgets/lv_dropdown.c **** }
 155:lvgl\src\lv_widgets/lv_dropdown.c **** 
 156:lvgl\src\lv_widgets/lv_dropdown.c **** /*=====================
 157:lvgl\src\lv_widgets/lv_dropdown.c ****  * Setter functions
 158:lvgl\src\lv_widgets/lv_dropdown.c ****  *====================*/
 159:lvgl\src\lv_widgets/lv_dropdown.c **** 
 160:lvgl\src\lv_widgets/lv_dropdown.c **** /**
 161:lvgl\src\lv_widgets/lv_dropdown.c ****  * Set text of the ddlist (Displayed on the button if `show_selected = false`)
 162:lvgl\src\lv_widgets/lv_dropdown.c ****  * @param ddlist pointer to a drop down list object
 163:lvgl\src\lv_widgets/lv_dropdown.c ****  * @param txt the text as a string (Only it's pointer is saved)
 164:lvgl\src\lv_widgets/lv_dropdown.c ****  */
 165:lvgl\src\lv_widgets/lv_dropdown.c **** void lv_dropdown_set_text(lv_obj_t * ddlist, const char * txt)
 166:lvgl\src\lv_widgets/lv_dropdown.c **** {
 167:lvgl\src\lv_widgets/lv_dropdown.c ****     LV_ASSERT_OBJ(ddlist, LV_OBJX_NAME);
 168:lvgl\src\lv_widgets/lv_dropdown.c ****     lv_dropdown_ext_t * ext = lv_obj_get_ext_attr(ddlist);
 169:lvgl\src\lv_widgets/lv_dropdown.c ****     if(ext->text == txt) return;
 170:lvgl\src\lv_widgets/lv_dropdown.c **** 
 171:lvgl\src\lv_widgets/lv_dropdown.c ****     ext->text = txt;
 172:lvgl\src\lv_widgets/lv_dropdown.c **** 
 173:lvgl\src\lv_widgets/lv_dropdown.c ****     lv_obj_invalidate(ddlist);
 174:lvgl\src\lv_widgets/lv_dropdown.c **** }
 175:lvgl\src\lv_widgets/lv_dropdown.c **** 
 176:lvgl\src\lv_widgets/lv_dropdown.c **** /**
 177:lvgl\src\lv_widgets/lv_dropdown.c ****  * Clear any options in a drop down list.  Static or dynamic.
 178:lvgl\src\lv_widgets/lv_dropdown.c ****  * @param ddlist pointer to drop down list object
 179:lvgl\src\lv_widgets/lv_dropdown.c ****  */
 180:lvgl\src\lv_widgets/lv_dropdown.c **** void lv_dropdown_clear_options(lv_obj_t * ddlist)
 181:lvgl\src\lv_widgets/lv_dropdown.c **** {
 182:lvgl\src\lv_widgets/lv_dropdown.c ****     LV_ASSERT_OBJ(ddlist, LV_OBJX_NAME);
 183:lvgl\src\lv_widgets/lv_dropdown.c ****     lv_dropdown_ext_t * ext = lv_obj_get_ext_attr(ddlist);
 184:lvgl\src\lv_widgets/lv_dropdown.c ****     if(ext->options == NULL) return;
 185:lvgl\src\lv_widgets/lv_dropdown.c **** 
 186:lvgl\src\lv_widgets/lv_dropdown.c ****     if(ext->static_txt == 0)
 187:lvgl\src\lv_widgets/lv_dropdown.c ****         lv_mem_free(ext->options);
 188:lvgl\src\lv_widgets/lv_dropdown.c **** 
 189:lvgl\src\lv_widgets/lv_dropdown.c ****     ext->options = NULL;
 190:lvgl\src\lv_widgets/lv_dropdown.c ****     ext->static_txt = 0;
 191:lvgl\src\lv_widgets/lv_dropdown.c ****     ext->option_cnt = 0;
 192:lvgl\src\lv_widgets/lv_dropdown.c **** 
 193:lvgl\src\lv_widgets/lv_dropdown.c ****     lv_obj_invalidate(ddlist);
 194:lvgl\src\lv_widgets/lv_dropdown.c **** }
 195:lvgl\src\lv_widgets/lv_dropdown.c **** 
 196:lvgl\src\lv_widgets/lv_dropdown.c **** /**
 197:lvgl\src\lv_widgets/lv_dropdown.c ****  * Set the options in a drop down list from a string
 198:lvgl\src\lv_widgets/lv_dropdown.c ****  * @param ddlist pointer to drop down list object
 199:lvgl\src\lv_widgets/lv_dropdown.c ****  * @param options a string with '\n' separated options. E.g. "One\nTwo\nThree"
 200:lvgl\src\lv_widgets/lv_dropdown.c ****  * The options string can be destroyed after calling this function
 201:lvgl\src\lv_widgets/lv_dropdown.c ****  */
 202:lvgl\src\lv_widgets/lv_dropdown.c **** void lv_dropdown_set_options(lv_obj_t * ddlist, const char * options)
ARM GAS  C:\Users\strap\AppData\Local\Temp\ccf5xETM.s 			page 5


 203:lvgl\src\lv_widgets/lv_dropdown.c **** {
 204:lvgl\src\lv_widgets/lv_dropdown.c ****     LV_ASSERT_OBJ(ddlist, LV_OBJX_NAME);
 205:lvgl\src\lv_widgets/lv_dropdown.c ****     LV_ASSERT_STR(options);
 206:lvgl\src\lv_widgets/lv_dropdown.c **** 
 207:lvgl\src\lv_widgets/lv_dropdown.c ****     lv_dropdown_ext_t * ext = lv_obj_get_ext_attr(ddlist);
 208:lvgl\src\lv_widgets/lv_dropdown.c **** 
 209:lvgl\src\lv_widgets/lv_dropdown.c ****     /*Count the '\n'-s to determine the number of options*/
 210:lvgl\src\lv_widgets/lv_dropdown.c ****     ext->option_cnt = 0;
 211:lvgl\src\lv_widgets/lv_dropdown.c ****     uint32_t i;
 212:lvgl\src\lv_widgets/lv_dropdown.c ****     for(i = 0; options[i] != '\0'; i++) {
 213:lvgl\src\lv_widgets/lv_dropdown.c ****         if(options[i] == '\n') ext->option_cnt++;
 214:lvgl\src\lv_widgets/lv_dropdown.c ****     }
 215:lvgl\src\lv_widgets/lv_dropdown.c ****     ext->option_cnt++;   /*Last option has no `\n`*/
 216:lvgl\src\lv_widgets/lv_dropdown.c ****     ext->sel_opt_id      = 0;
 217:lvgl\src\lv_widgets/lv_dropdown.c ****     ext->sel_opt_id_orig = 0;
 218:lvgl\src\lv_widgets/lv_dropdown.c **** 
 219:lvgl\src\lv_widgets/lv_dropdown.c ****     /*Allocate space for the new text*/
 220:lvgl\src\lv_widgets/lv_dropdown.c ****     size_t len = strlen(options) + 1;
 221:lvgl\src\lv_widgets/lv_dropdown.c ****     if(ext->options != NULL && ext->static_txt == 0) {
 222:lvgl\src\lv_widgets/lv_dropdown.c ****         lv_mem_free(ext->options);
 223:lvgl\src\lv_widgets/lv_dropdown.c ****         ext->options = NULL;
 224:lvgl\src\lv_widgets/lv_dropdown.c ****     }
 225:lvgl\src\lv_widgets/lv_dropdown.c **** 
 226:lvgl\src\lv_widgets/lv_dropdown.c ****     ext->options = lv_mem_alloc(len);
 227:lvgl\src\lv_widgets/lv_dropdown.c **** 
 228:lvgl\src\lv_widgets/lv_dropdown.c ****     LV_ASSERT_MEM(ext->options);
 229:lvgl\src\lv_widgets/lv_dropdown.c ****     if(ext->options == NULL) return;
 230:lvgl\src\lv_widgets/lv_dropdown.c **** 
 231:lvgl\src\lv_widgets/lv_dropdown.c ****     strcpy(ext->options, options);
 232:lvgl\src\lv_widgets/lv_dropdown.c **** 
 233:lvgl\src\lv_widgets/lv_dropdown.c ****     /*Now the text is dynamically allocated*/
 234:lvgl\src\lv_widgets/lv_dropdown.c ****     ext->static_txt = 0;
 235:lvgl\src\lv_widgets/lv_dropdown.c **** }
 236:lvgl\src\lv_widgets/lv_dropdown.c **** 
 237:lvgl\src\lv_widgets/lv_dropdown.c **** /**
 238:lvgl\src\lv_widgets/lv_dropdown.c ****  * Set the options in a drop down list from a string
 239:lvgl\src\lv_widgets/lv_dropdown.c ****  * @param ddlist pointer to drop down list object
 240:lvgl\src\lv_widgets/lv_dropdown.c ****  * @param options a static string with '\n' separated options. E.g. "One\nTwo\nThree"
 241:lvgl\src\lv_widgets/lv_dropdown.c ****  */
 242:lvgl\src\lv_widgets/lv_dropdown.c **** void lv_dropdown_set_options_static(lv_obj_t * ddlist, const char * options)
 243:lvgl\src\lv_widgets/lv_dropdown.c **** {
 244:lvgl\src\lv_widgets/lv_dropdown.c ****     LV_ASSERT_OBJ(ddlist, LV_OBJX_NAME);
 245:lvgl\src\lv_widgets/lv_dropdown.c ****     LV_ASSERT_STR(options);
 246:lvgl\src\lv_widgets/lv_dropdown.c **** 
 247:lvgl\src\lv_widgets/lv_dropdown.c ****     lv_dropdown_ext_t * ext = lv_obj_get_ext_attr(ddlist);
 248:lvgl\src\lv_widgets/lv_dropdown.c **** 
 249:lvgl\src\lv_widgets/lv_dropdown.c ****     /*Count the '\n'-s to determine the number of options*/
 250:lvgl\src\lv_widgets/lv_dropdown.c ****     ext->option_cnt = 0;
 251:lvgl\src\lv_widgets/lv_dropdown.c ****     uint32_t i;
 252:lvgl\src\lv_widgets/lv_dropdown.c ****     for(i = 0; options[i] != '\0'; i++) {
 253:lvgl\src\lv_widgets/lv_dropdown.c ****         if(options[i] == '\n') ext->option_cnt++;
 254:lvgl\src\lv_widgets/lv_dropdown.c ****     }
 255:lvgl\src\lv_widgets/lv_dropdown.c ****     ext->option_cnt++;   /*Last option has no `\n`*/
 256:lvgl\src\lv_widgets/lv_dropdown.c ****     ext->sel_opt_id      = 0;
 257:lvgl\src\lv_widgets/lv_dropdown.c ****     ext->sel_opt_id_orig = 0;
 258:lvgl\src\lv_widgets/lv_dropdown.c **** 
 259:lvgl\src\lv_widgets/lv_dropdown.c ****     if(ext->static_txt == 0 && ext->options != NULL) {
ARM GAS  C:\Users\strap\AppData\Local\Temp\ccf5xETM.s 			page 6


 260:lvgl\src\lv_widgets/lv_dropdown.c ****         lv_mem_free(ext->options);
 261:lvgl\src\lv_widgets/lv_dropdown.c ****         ext->options = NULL;
 262:lvgl\src\lv_widgets/lv_dropdown.c ****     }
 263:lvgl\src\lv_widgets/lv_dropdown.c **** 
 264:lvgl\src\lv_widgets/lv_dropdown.c ****     ext->static_txt = 1;
 265:lvgl\src\lv_widgets/lv_dropdown.c ****     ext->options = (char *)options;
 266:lvgl\src\lv_widgets/lv_dropdown.c **** }
 267:lvgl\src\lv_widgets/lv_dropdown.c **** 
 268:lvgl\src\lv_widgets/lv_dropdown.c **** /**
 269:lvgl\src\lv_widgets/lv_dropdown.c ****  * Add an options to a drop down list from a string.  Only works for dynamic options.
 270:lvgl\src\lv_widgets/lv_dropdown.c ****  * @param ddlist pointer to drop down list object
 271:lvgl\src\lv_widgets/lv_dropdown.c ****  * @param option a string without '\n'. E.g. "Four"
 272:lvgl\src\lv_widgets/lv_dropdown.c ****  * @param pos the insert position, indexed from 0, LV_DROPDOWN_POS_LAST = end of string
 273:lvgl\src\lv_widgets/lv_dropdown.c ****  */
 274:lvgl\src\lv_widgets/lv_dropdown.c **** void lv_dropdown_add_option(lv_obj_t * ddlist, const char * option, uint32_t pos)
 275:lvgl\src\lv_widgets/lv_dropdown.c **** {
 276:lvgl\src\lv_widgets/lv_dropdown.c ****     LV_ASSERT_OBJ(ddlist, LV_OBJX_NAME);
 277:lvgl\src\lv_widgets/lv_dropdown.c ****     LV_ASSERT_STR(option);
 278:lvgl\src\lv_widgets/lv_dropdown.c **** 
 279:lvgl\src\lv_widgets/lv_dropdown.c ****     lv_dropdown_ext_t * ext = lv_obj_get_ext_attr(ddlist);
 280:lvgl\src\lv_widgets/lv_dropdown.c **** 
 281:lvgl\src\lv_widgets/lv_dropdown.c ****     /*Convert static options to dynamic*/
 282:lvgl\src\lv_widgets/lv_dropdown.c ****     if(ext->static_txt != 0) {
 283:lvgl\src\lv_widgets/lv_dropdown.c ****         char * static_options = ext->options;
 284:lvgl\src\lv_widgets/lv_dropdown.c ****         size_t len = strlen(static_options) + 1;
 285:lvgl\src\lv_widgets/lv_dropdown.c **** 
 286:lvgl\src\lv_widgets/lv_dropdown.c ****         ext->options = lv_mem_alloc(len);
 287:lvgl\src\lv_widgets/lv_dropdown.c ****         LV_ASSERT_MEM(ext->options);
 288:lvgl\src\lv_widgets/lv_dropdown.c ****         if(ext->options == NULL) return;
 289:lvgl\src\lv_widgets/lv_dropdown.c **** 
 290:lvgl\src\lv_widgets/lv_dropdown.c ****         strcpy(ext->options, static_options);
 291:lvgl\src\lv_widgets/lv_dropdown.c ****         ext->static_txt = 0;
 292:lvgl\src\lv_widgets/lv_dropdown.c ****     }
 293:lvgl\src\lv_widgets/lv_dropdown.c **** 
 294:lvgl\src\lv_widgets/lv_dropdown.c ****     /*Allocate space for the new option*/
 295:lvgl\src\lv_widgets/lv_dropdown.c ****     size_t old_len = (ext->options == NULL) ? 0 : strlen(ext->options);
 296:lvgl\src\lv_widgets/lv_dropdown.c ****     size_t ins_len = strlen(option);
 297:lvgl\src\lv_widgets/lv_dropdown.c ****     size_t new_len = ins_len + old_len + 2; /* +2 for terminating NULL and possible \n */
 298:lvgl\src\lv_widgets/lv_dropdown.c ****     ext->options        = lv_mem_realloc(ext->options, new_len + 1);
 299:lvgl\src\lv_widgets/lv_dropdown.c ****     LV_ASSERT_MEM(ext->options);
 300:lvgl\src\lv_widgets/lv_dropdown.c ****     if(ext->options == NULL) return;
 301:lvgl\src\lv_widgets/lv_dropdown.c **** 
 302:lvgl\src\lv_widgets/lv_dropdown.c ****     ext->options[old_len] = 0;
 303:lvgl\src\lv_widgets/lv_dropdown.c **** 
 304:lvgl\src\lv_widgets/lv_dropdown.c ****     /*Find the insert character position*/
 305:lvgl\src\lv_widgets/lv_dropdown.c ****     uint32_t insert_pos = old_len;
 306:lvgl\src\lv_widgets/lv_dropdown.c ****     if(pos != LV_DROPDOWN_POS_LAST) {
 307:lvgl\src\lv_widgets/lv_dropdown.c ****         uint32_t opcnt = 0;
 308:lvgl\src\lv_widgets/lv_dropdown.c ****         for(insert_pos = 0; ext->options[insert_pos] != 0; insert_pos++) {
 309:lvgl\src\lv_widgets/lv_dropdown.c ****             if(opcnt == pos)
 310:lvgl\src\lv_widgets/lv_dropdown.c ****                 break;
 311:lvgl\src\lv_widgets/lv_dropdown.c ****             if(ext->options[insert_pos] == '\n')
 312:lvgl\src\lv_widgets/lv_dropdown.c ****                 opcnt++;
 313:lvgl\src\lv_widgets/lv_dropdown.c ****         }
 314:lvgl\src\lv_widgets/lv_dropdown.c ****     }
 315:lvgl\src\lv_widgets/lv_dropdown.c **** 
 316:lvgl\src\lv_widgets/lv_dropdown.c ****     /*Add delimiter to existing options*/
ARM GAS  C:\Users\strap\AppData\Local\Temp\ccf5xETM.s 			page 7


 317:lvgl\src\lv_widgets/lv_dropdown.c ****     if((insert_pos > 0) && (pos >= ext->option_cnt))
 318:lvgl\src\lv_widgets/lv_dropdown.c ****         _lv_txt_ins(ext->options, _lv_txt_encoded_get_char_id(ext->options, insert_pos++), "\n");
 319:lvgl\src\lv_widgets/lv_dropdown.c **** 
 320:lvgl\src\lv_widgets/lv_dropdown.c ****     /*Insert the new option, adding \n if necessary*/
 321:lvgl\src\lv_widgets/lv_dropdown.c ****     char * ins_buf = _lv_mem_buf_get(ins_len + 2); /* + 2 for terminating NULL and possible \n */
 322:lvgl\src\lv_widgets/lv_dropdown.c ****     LV_ASSERT_MEM(ins_buf);
 323:lvgl\src\lv_widgets/lv_dropdown.c ****     if(ins_buf == NULL) return;
 324:lvgl\src\lv_widgets/lv_dropdown.c ****     strcpy(ins_buf, option);
 325:lvgl\src\lv_widgets/lv_dropdown.c ****     if(pos < ext->option_cnt)
 326:lvgl\src\lv_widgets/lv_dropdown.c ****         strcat(ins_buf, "\n");
 327:lvgl\src\lv_widgets/lv_dropdown.c ****     _lv_txt_ins(ext->options, _lv_txt_encoded_get_char_id(ext->options, insert_pos), ins_buf);
 328:lvgl\src\lv_widgets/lv_dropdown.c ****     _lv_mem_buf_release(ins_buf);
 329:lvgl\src\lv_widgets/lv_dropdown.c **** 
 330:lvgl\src\lv_widgets/lv_dropdown.c ****     ext->option_cnt++;
 331:lvgl\src\lv_widgets/lv_dropdown.c **** 
 332:lvgl\src\lv_widgets/lv_dropdown.c ****     lv_obj_invalidate(ddlist);
 333:lvgl\src\lv_widgets/lv_dropdown.c **** }
 334:lvgl\src\lv_widgets/lv_dropdown.c **** 
 335:lvgl\src\lv_widgets/lv_dropdown.c **** /**
 336:lvgl\src\lv_widgets/lv_dropdown.c ****  * Set the selected option
 337:lvgl\src\lv_widgets/lv_dropdown.c ****  * @param ddlist pointer to drop down list object
 338:lvgl\src\lv_widgets/lv_dropdown.c ****  * @param sel_opt id of the selected option (0 ... number of option - 1);
 339:lvgl\src\lv_widgets/lv_dropdown.c ****  */
 340:lvgl\src\lv_widgets/lv_dropdown.c **** void lv_dropdown_set_selected(lv_obj_t * ddlist, uint16_t sel_opt)
 341:lvgl\src\lv_widgets/lv_dropdown.c **** {
 342:lvgl\src\lv_widgets/lv_dropdown.c ****     LV_ASSERT_OBJ(ddlist, LV_OBJX_NAME);
 343:lvgl\src\lv_widgets/lv_dropdown.c **** 
 344:lvgl\src\lv_widgets/lv_dropdown.c ****     lv_dropdown_ext_t * ext = lv_obj_get_ext_attr(ddlist);
 345:lvgl\src\lv_widgets/lv_dropdown.c ****     if(ext->sel_opt_id == sel_opt) return;
 346:lvgl\src\lv_widgets/lv_dropdown.c **** 
 347:lvgl\src\lv_widgets/lv_dropdown.c ****     ext->sel_opt_id      = sel_opt < ext->option_cnt ? sel_opt : ext->option_cnt - 1;
 348:lvgl\src\lv_widgets/lv_dropdown.c ****     ext->sel_opt_id_orig = ext->sel_opt_id;
 349:lvgl\src\lv_widgets/lv_dropdown.c ****     /*Move the list to show the current option*/
 350:lvgl\src\lv_widgets/lv_dropdown.c ****     if(ext->page != NULL) {
 351:lvgl\src\lv_widgets/lv_dropdown.c ****         lv_obj_invalidate(ddlist);
 352:lvgl\src\lv_widgets/lv_dropdown.c ****     }
 353:lvgl\src\lv_widgets/lv_dropdown.c **** }
 354:lvgl\src\lv_widgets/lv_dropdown.c **** 
 355:lvgl\src\lv_widgets/lv_dropdown.c **** /**
 356:lvgl\src\lv_widgets/lv_dropdown.c ****  * Set the direction of the a drop down list
 357:lvgl\src\lv_widgets/lv_dropdown.c ****  * @param ddlist pointer to a drop down list object
 358:lvgl\src\lv_widgets/lv_dropdown.c ****  * @param dir LV_DROPDOWN_DIR_LEF/RIGHT/TOP/BOTTOM
 359:lvgl\src\lv_widgets/lv_dropdown.c ****  */
 360:lvgl\src\lv_widgets/lv_dropdown.c **** void lv_dropdown_set_dir(lv_obj_t * ddlist, lv_dropdown_dir_t dir)
 361:lvgl\src\lv_widgets/lv_dropdown.c **** {
 362:lvgl\src\lv_widgets/lv_dropdown.c ****     LV_ASSERT_OBJ(ddlist, LV_OBJX_NAME);
 363:lvgl\src\lv_widgets/lv_dropdown.c **** 
 364:lvgl\src\lv_widgets/lv_dropdown.c ****     lv_dropdown_ext_t * ext = lv_obj_get_ext_attr(ddlist);
 365:lvgl\src\lv_widgets/lv_dropdown.c ****     if(ext->dir == dir) return;
 366:lvgl\src\lv_widgets/lv_dropdown.c **** 
 367:lvgl\src\lv_widgets/lv_dropdown.c ****     ext->dir = dir;
 368:lvgl\src\lv_widgets/lv_dropdown.c **** 
 369:lvgl\src\lv_widgets/lv_dropdown.c ****     lv_obj_invalidate(ddlist);
 370:lvgl\src\lv_widgets/lv_dropdown.c **** }
 371:lvgl\src\lv_widgets/lv_dropdown.c **** 
 372:lvgl\src\lv_widgets/lv_dropdown.c **** /**
 373:lvgl\src\lv_widgets/lv_dropdown.c ****  * Set the maximal height for the drop down list
ARM GAS  C:\Users\strap\AppData\Local\Temp\ccf5xETM.s 			page 8


 374:lvgl\src\lv_widgets/lv_dropdown.c ****  * @param ddlist pointer to a drop down list
 375:lvgl\src\lv_widgets/lv_dropdown.c ****  * @param h the maximal height
 376:lvgl\src\lv_widgets/lv_dropdown.c ****  */
 377:lvgl\src\lv_widgets/lv_dropdown.c **** void lv_dropdown_set_max_height(lv_obj_t * ddlist, lv_coord_t h)
 378:lvgl\src\lv_widgets/lv_dropdown.c **** {
 379:lvgl\src\lv_widgets/lv_dropdown.c ****     LV_ASSERT_OBJ(ddlist, LV_OBJX_NAME);
 380:lvgl\src\lv_widgets/lv_dropdown.c **** 
 381:lvgl\src\lv_widgets/lv_dropdown.c ****     lv_dropdown_ext_t * ext = lv_obj_get_ext_attr(ddlist);
 382:lvgl\src\lv_widgets/lv_dropdown.c ****     if(ext->max_height == h) return;
 383:lvgl\src\lv_widgets/lv_dropdown.c **** 
 384:lvgl\src\lv_widgets/lv_dropdown.c ****     ext->max_height = h;
 385:lvgl\src\lv_widgets/lv_dropdown.c **** 
 386:lvgl\src\lv_widgets/lv_dropdown.c ****     if(ext->page) {
 387:lvgl\src\lv_widgets/lv_dropdown.c ****         if(h == 0) {
 388:lvgl\src\lv_widgets/lv_dropdown.c ****             lv_cont_set_fit(ext->page, LV_FIT_TIGHT);
 389:lvgl\src\lv_widgets/lv_dropdown.c ****         }
 390:lvgl\src\lv_widgets/lv_dropdown.c ****         else {
 391:lvgl\src\lv_widgets/lv_dropdown.c ****             lv_cont_set_fit2(ext->page, LV_FIT_TIGHT, LV_FIT_NONE);
 392:lvgl\src\lv_widgets/lv_dropdown.c ****             lv_obj_set_height(ext->page, h);
 393:lvgl\src\lv_widgets/lv_dropdown.c ****         }
 394:lvgl\src\lv_widgets/lv_dropdown.c ****     }
 395:lvgl\src\lv_widgets/lv_dropdown.c **** }
 396:lvgl\src\lv_widgets/lv_dropdown.c **** 
 397:lvgl\src\lv_widgets/lv_dropdown.c **** /**
 398:lvgl\src\lv_widgets/lv_dropdown.c ****  * Set an arrow or other symbol to display when the drop-down list is closed.
 399:lvgl\src\lv_widgets/lv_dropdown.c ****  * @param ddlist pointer to drop down list object
 400:lvgl\src\lv_widgets/lv_dropdown.c ****  * @param symbol a text like `LV_SYMBOL_DOWN` or NULL to not draw icon
 401:lvgl\src\lv_widgets/lv_dropdown.c ****  */
 402:lvgl\src\lv_widgets/lv_dropdown.c **** void lv_dropdown_set_symbol(lv_obj_t * ddlist, const char * symbol)
 403:lvgl\src\lv_widgets/lv_dropdown.c **** {
 404:lvgl\src\lv_widgets/lv_dropdown.c ****     LV_ASSERT_OBJ(ddlist, LV_OBJX_NAME);
 405:lvgl\src\lv_widgets/lv_dropdown.c **** 
 406:lvgl\src\lv_widgets/lv_dropdown.c ****     lv_dropdown_ext_t * ext = lv_obj_get_ext_attr(ddlist);
 407:lvgl\src\lv_widgets/lv_dropdown.c ****     ext->symbol = symbol;
 408:lvgl\src\lv_widgets/lv_dropdown.c ****     lv_obj_invalidate(ddlist);
 409:lvgl\src\lv_widgets/lv_dropdown.c **** }
 410:lvgl\src\lv_widgets/lv_dropdown.c **** 
 411:lvgl\src\lv_widgets/lv_dropdown.c **** /**
 412:lvgl\src\lv_widgets/lv_dropdown.c ****  * Set whether the ddlist highlight the last selected option and display its text or not
 413:lvgl\src\lv_widgets/lv_dropdown.c ****  * @param ddlist pointer to a drop down list object
 414:lvgl\src\lv_widgets/lv_dropdown.c ****  * @param show true/false
 415:lvgl\src\lv_widgets/lv_dropdown.c ****  */
 416:lvgl\src\lv_widgets/lv_dropdown.c **** void lv_dropdown_set_show_selected(lv_obj_t * ddlist, bool show)
 417:lvgl\src\lv_widgets/lv_dropdown.c **** {
 418:lvgl\src\lv_widgets/lv_dropdown.c ****     LV_ASSERT_OBJ(ddlist, LV_OBJX_NAME);
 419:lvgl\src\lv_widgets/lv_dropdown.c **** 
 420:lvgl\src\lv_widgets/lv_dropdown.c ****     lv_dropdown_ext_t * ext = lv_obj_get_ext_attr(ddlist);
 421:lvgl\src\lv_widgets/lv_dropdown.c ****     if(ext->show_selected == show) return;
 422:lvgl\src\lv_widgets/lv_dropdown.c **** 
 423:lvgl\src\lv_widgets/lv_dropdown.c ****     ext->show_selected = show;
 424:lvgl\src\lv_widgets/lv_dropdown.c **** 
 425:lvgl\src\lv_widgets/lv_dropdown.c ****     lv_obj_invalidate(ddlist);
 426:lvgl\src\lv_widgets/lv_dropdown.c **** }
 427:lvgl\src\lv_widgets/lv_dropdown.c **** 
 428:lvgl\src\lv_widgets/lv_dropdown.c **** /*=====================
 429:lvgl\src\lv_widgets/lv_dropdown.c ****  * Getter functions
 430:lvgl\src\lv_widgets/lv_dropdown.c ****  *====================*/
ARM GAS  C:\Users\strap\AppData\Local\Temp\ccf5xETM.s 			page 9


 431:lvgl\src\lv_widgets/lv_dropdown.c **** 
 432:lvgl\src\lv_widgets/lv_dropdown.c **** /**
 433:lvgl\src\lv_widgets/lv_dropdown.c ****  * Get text of the ddlist (Displayed on the button if `show_selected = false`)
 434:lvgl\src\lv_widgets/lv_dropdown.c ****  * @param ddlist pointer to a drop down list object
 435:lvgl\src\lv_widgets/lv_dropdown.c ****  * @return the text string
 436:lvgl\src\lv_widgets/lv_dropdown.c ****  */
 437:lvgl\src\lv_widgets/lv_dropdown.c **** const char * lv_dropdown_get_text(lv_obj_t * ddlist)
 438:lvgl\src\lv_widgets/lv_dropdown.c **** {
 439:lvgl\src\lv_widgets/lv_dropdown.c ****     LV_ASSERT_OBJ(ddlist, LV_OBJX_NAME);
 440:lvgl\src\lv_widgets/lv_dropdown.c ****     lv_dropdown_ext_t * ext = lv_obj_get_ext_attr(ddlist);
 441:lvgl\src\lv_widgets/lv_dropdown.c **** 
 442:lvgl\src\lv_widgets/lv_dropdown.c ****     return ext->text;
 443:lvgl\src\lv_widgets/lv_dropdown.c **** }
 444:lvgl\src\lv_widgets/lv_dropdown.c **** 
 445:lvgl\src\lv_widgets/lv_dropdown.c **** /**
 446:lvgl\src\lv_widgets/lv_dropdown.c ****  * Get the options of a drop down list
 447:lvgl\src\lv_widgets/lv_dropdown.c ****  * @param ddlist pointer to drop down list object
 448:lvgl\src\lv_widgets/lv_dropdown.c ****  * @return the options separated by '\n'-s (E.g. "Option1\nOption2\nOption3")
 449:lvgl\src\lv_widgets/lv_dropdown.c ****  */
 450:lvgl\src\lv_widgets/lv_dropdown.c **** const char * lv_dropdown_get_options(const lv_obj_t * ddlist)
 451:lvgl\src\lv_widgets/lv_dropdown.c **** {
 452:lvgl\src\lv_widgets/lv_dropdown.c ****     LV_ASSERT_OBJ(ddlist, LV_OBJX_NAME);
 453:lvgl\src\lv_widgets/lv_dropdown.c **** 
 454:lvgl\src\lv_widgets/lv_dropdown.c ****     lv_dropdown_ext_t * ext = lv_obj_get_ext_attr(ddlist);
 455:lvgl\src\lv_widgets/lv_dropdown.c ****     return ext->options;
 456:lvgl\src\lv_widgets/lv_dropdown.c **** }
 457:lvgl\src\lv_widgets/lv_dropdown.c **** 
 458:lvgl\src\lv_widgets/lv_dropdown.c **** /**
 459:lvgl\src\lv_widgets/lv_dropdown.c ****  * Get the selected option
 460:lvgl\src\lv_widgets/lv_dropdown.c ****  * @param ddlist pointer to drop down list object
 461:lvgl\src\lv_widgets/lv_dropdown.c ****  * @return id of the selected option (0 ... number of option - 1);
 462:lvgl\src\lv_widgets/lv_dropdown.c ****  */
 463:lvgl\src\lv_widgets/lv_dropdown.c **** uint16_t lv_dropdown_get_selected(const lv_obj_t * ddlist)
 464:lvgl\src\lv_widgets/lv_dropdown.c **** {
 465:lvgl\src\lv_widgets/lv_dropdown.c ****     LV_ASSERT_OBJ(ddlist, LV_OBJX_NAME);
 466:lvgl\src\lv_widgets/lv_dropdown.c **** 
 467:lvgl\src\lv_widgets/lv_dropdown.c ****     lv_dropdown_ext_t * ext = lv_obj_get_ext_attr(ddlist);
 468:lvgl\src\lv_widgets/lv_dropdown.c **** 
 469:lvgl\src\lv_widgets/lv_dropdown.c ****     return ext->sel_opt_id;
 470:lvgl\src\lv_widgets/lv_dropdown.c **** }
 471:lvgl\src\lv_widgets/lv_dropdown.c **** 
 472:lvgl\src\lv_widgets/lv_dropdown.c **** /**
 473:lvgl\src\lv_widgets/lv_dropdown.c ****  * Get the total number of options
 474:lvgl\src\lv_widgets/lv_dropdown.c ****  * @param ddlist pointer to drop down list object
 475:lvgl\src\lv_widgets/lv_dropdown.c ****  * @return the total number of options in the list
 476:lvgl\src\lv_widgets/lv_dropdown.c ****  */
 477:lvgl\src\lv_widgets/lv_dropdown.c **** uint16_t lv_dropdown_get_option_cnt(const lv_obj_t * ddlist)
 478:lvgl\src\lv_widgets/lv_dropdown.c **** {
 479:lvgl\src\lv_widgets/lv_dropdown.c ****     LV_ASSERT_OBJ(ddlist, LV_OBJX_NAME);
 480:lvgl\src\lv_widgets/lv_dropdown.c **** 
 481:lvgl\src\lv_widgets/lv_dropdown.c ****     lv_dropdown_ext_t * ext = lv_obj_get_ext_attr(ddlist);
 482:lvgl\src\lv_widgets/lv_dropdown.c **** 
 483:lvgl\src\lv_widgets/lv_dropdown.c ****     return ext->option_cnt;
 484:lvgl\src\lv_widgets/lv_dropdown.c **** }
 485:lvgl\src\lv_widgets/lv_dropdown.c **** 
 486:lvgl\src\lv_widgets/lv_dropdown.c **** /**
 487:lvgl\src\lv_widgets/lv_dropdown.c ****  * Get the current selected option as a string
ARM GAS  C:\Users\strap\AppData\Local\Temp\ccf5xETM.s 			page 10


 488:lvgl\src\lv_widgets/lv_dropdown.c ****  * @param ddlist pointer to ddlist object
 489:lvgl\src\lv_widgets/lv_dropdown.c ****  * @param buf pointer to an array to store the string
 490:lvgl\src\lv_widgets/lv_dropdown.c ****  * @param buf_size size of `buf` in bytes. 0: to ignore it.
 491:lvgl\src\lv_widgets/lv_dropdown.c ****  */
 492:lvgl\src\lv_widgets/lv_dropdown.c **** void lv_dropdown_get_selected_str(const lv_obj_t * ddlist, char * buf, uint32_t buf_size)
 493:lvgl\src\lv_widgets/lv_dropdown.c **** {
 494:lvgl\src\lv_widgets/lv_dropdown.c ****     LV_ASSERT_OBJ(ddlist, LV_OBJX_NAME);
 495:lvgl\src\lv_widgets/lv_dropdown.c **** 
 496:lvgl\src\lv_widgets/lv_dropdown.c ****     lv_dropdown_ext_t * ext = lv_obj_get_ext_attr(ddlist);
 497:lvgl\src\lv_widgets/lv_dropdown.c **** 
 498:lvgl\src\lv_widgets/lv_dropdown.c ****     uint32_t i;
 499:lvgl\src\lv_widgets/lv_dropdown.c ****     uint32_t line        = 0;
 500:lvgl\src\lv_widgets/lv_dropdown.c ****     size_t txt_len     = strlen(ext->options);
 501:lvgl\src\lv_widgets/lv_dropdown.c **** 
 502:lvgl\src\lv_widgets/lv_dropdown.c ****     for(i = 0; i < txt_len && line != ext->sel_opt_id_orig; i++) {
 503:lvgl\src\lv_widgets/lv_dropdown.c ****         if(ext->options[i] == '\n') line++;
 504:lvgl\src\lv_widgets/lv_dropdown.c ****     }
 505:lvgl\src\lv_widgets/lv_dropdown.c **** 
 506:lvgl\src\lv_widgets/lv_dropdown.c ****     uint32_t c;
 507:lvgl\src\lv_widgets/lv_dropdown.c ****     for(c = 0; i < txt_len && ext->options[i] != '\n'; c++, i++) {
 508:lvgl\src\lv_widgets/lv_dropdown.c ****         if(buf_size && c >= buf_size - 1) {
 509:lvgl\src\lv_widgets/lv_dropdown.c ****             LV_LOG_WARN("lv_dropdown_get_selected_str: the buffer was too small")
 510:lvgl\src\lv_widgets/lv_dropdown.c ****             break;
 511:lvgl\src\lv_widgets/lv_dropdown.c ****         }
 512:lvgl\src\lv_widgets/lv_dropdown.c ****         buf[c] = ext->options[i];
 513:lvgl\src\lv_widgets/lv_dropdown.c ****     }
 514:lvgl\src\lv_widgets/lv_dropdown.c **** 
 515:lvgl\src\lv_widgets/lv_dropdown.c ****     buf[c] = '\0';
 516:lvgl\src\lv_widgets/lv_dropdown.c **** }
 517:lvgl\src\lv_widgets/lv_dropdown.c **** 
 518:lvgl\src\lv_widgets/lv_dropdown.c **** /**
 519:lvgl\src\lv_widgets/lv_dropdown.c ****  * Get the fix height value.
 520:lvgl\src\lv_widgets/lv_dropdown.c ****  * @param ddlist pointer to a drop down list object
 521:lvgl\src\lv_widgets/lv_dropdown.c ****  * @return the height if the ddlist is opened (0: auto size)
 522:lvgl\src\lv_widgets/lv_dropdown.c ****  */
 523:lvgl\src\lv_widgets/lv_dropdown.c **** lv_coord_t lv_dropdown_get_max_height(const lv_obj_t * ddlist)
 524:lvgl\src\lv_widgets/lv_dropdown.c **** {
 525:lvgl\src\lv_widgets/lv_dropdown.c ****     LV_ASSERT_OBJ(ddlist, LV_OBJX_NAME);
 526:lvgl\src\lv_widgets/lv_dropdown.c **** 
 527:lvgl\src\lv_widgets/lv_dropdown.c ****     lv_dropdown_ext_t * ext = lv_obj_get_ext_attr(ddlist);
 528:lvgl\src\lv_widgets/lv_dropdown.c ****     return ext->max_height;
 529:lvgl\src\lv_widgets/lv_dropdown.c **** }
 530:lvgl\src\lv_widgets/lv_dropdown.c **** 
 531:lvgl\src\lv_widgets/lv_dropdown.c **** /**
 532:lvgl\src\lv_widgets/lv_dropdown.c ****  * Get the symbol to draw when the drop-down list is closed
 533:lvgl\src\lv_widgets/lv_dropdown.c ****  * @param ddlist pointer to drop down list object
 534:lvgl\src\lv_widgets/lv_dropdown.c ****  * @return the symbol or NULL if not enabled
 535:lvgl\src\lv_widgets/lv_dropdown.c ****  */
 536:lvgl\src\lv_widgets/lv_dropdown.c **** const char * lv_dropdown_get_symbol(lv_obj_t * ddlist)
 537:lvgl\src\lv_widgets/lv_dropdown.c **** {
 538:lvgl\src\lv_widgets/lv_dropdown.c ****     LV_ASSERT_OBJ(ddlist, LV_OBJX_NAME);
 539:lvgl\src\lv_widgets/lv_dropdown.c **** 
 540:lvgl\src\lv_widgets/lv_dropdown.c ****     lv_dropdown_ext_t * ext = lv_obj_get_ext_attr(ddlist);
 541:lvgl\src\lv_widgets/lv_dropdown.c **** 
 542:lvgl\src\lv_widgets/lv_dropdown.c ****     return ext->symbol;
 543:lvgl\src\lv_widgets/lv_dropdown.c **** }
 544:lvgl\src\lv_widgets/lv_dropdown.c **** 
ARM GAS  C:\Users\strap\AppData\Local\Temp\ccf5xETM.s 			page 11


 545:lvgl\src\lv_widgets/lv_dropdown.c **** /**
 546:lvgl\src\lv_widgets/lv_dropdown.c ****  * Get the direction of the drop down list
 547:lvgl\src\lv_widgets/lv_dropdown.c ****  * @param ddlist pointer to a drop down list object
 548:lvgl\src\lv_widgets/lv_dropdown.c ****  * @return LV_DROPDOWN_DIR_LEF/RIGHT/TOP/BOTTOM
 549:lvgl\src\lv_widgets/lv_dropdown.c ****  */
 550:lvgl\src\lv_widgets/lv_dropdown.c **** lv_dropdown_dir_t lv_dropdown_get_dir(const lv_obj_t * ddlist)
 551:lvgl\src\lv_widgets/lv_dropdown.c **** {
 552:lvgl\src\lv_widgets/lv_dropdown.c ****     LV_ASSERT_OBJ(ddlist, LV_OBJX_NAME);
 553:lvgl\src\lv_widgets/lv_dropdown.c **** 
 554:lvgl\src\lv_widgets/lv_dropdown.c ****     lv_dropdown_ext_t * ext = lv_obj_get_ext_attr(ddlist);
 555:lvgl\src\lv_widgets/lv_dropdown.c **** 
 556:lvgl\src\lv_widgets/lv_dropdown.c ****     return ext->dir;
 557:lvgl\src\lv_widgets/lv_dropdown.c **** }
 558:lvgl\src\lv_widgets/lv_dropdown.c **** 
 559:lvgl\src\lv_widgets/lv_dropdown.c **** /**
 560:lvgl\src\lv_widgets/lv_dropdown.c ****  * Get whether the ddlist highlight the last selected option and display its text or not
 561:lvgl\src\lv_widgets/lv_dropdown.c ****  * @param ddlist pointer to a drop down list object
 562:lvgl\src\lv_widgets/lv_dropdown.c ****  * @return true/false
 563:lvgl\src\lv_widgets/lv_dropdown.c ****  */
 564:lvgl\src\lv_widgets/lv_dropdown.c **** bool lv_dropdown_get_show_selected(lv_obj_t * ddlist)
 565:lvgl\src\lv_widgets/lv_dropdown.c **** {
 566:lvgl\src\lv_widgets/lv_dropdown.c ****     LV_ASSERT_OBJ(ddlist, LV_OBJX_NAME);
 567:lvgl\src\lv_widgets/lv_dropdown.c **** 
 568:lvgl\src\lv_widgets/lv_dropdown.c ****     lv_dropdown_ext_t * ext = lv_obj_get_ext_attr(ddlist);
 569:lvgl\src\lv_widgets/lv_dropdown.c **** 
 570:lvgl\src\lv_widgets/lv_dropdown.c ****     return ext->show_selected ? true : false;
 571:lvgl\src\lv_widgets/lv_dropdown.c **** 
 572:lvgl\src\lv_widgets/lv_dropdown.c **** }
 573:lvgl\src\lv_widgets/lv_dropdown.c **** 
 574:lvgl\src\lv_widgets/lv_dropdown.c **** /*=====================
 575:lvgl\src\lv_widgets/lv_dropdown.c ****  * Other functions
 576:lvgl\src\lv_widgets/lv_dropdown.c ****  *====================*/
 577:lvgl\src\lv_widgets/lv_dropdown.c **** 
 578:lvgl\src\lv_widgets/lv_dropdown.c **** /**
 579:lvgl\src\lv_widgets/lv_dropdown.c ****  * Open the drop down list with or without animation
 580:lvgl\src\lv_widgets/lv_dropdown.c ****  * @param ddlist pointer to drop down list object
 581:lvgl\src\lv_widgets/lv_dropdown.c ****  */
 582:lvgl\src\lv_widgets/lv_dropdown.c **** void lv_dropdown_open(lv_obj_t * ddlist)
 583:lvgl\src\lv_widgets/lv_dropdown.c **** {
 584:lvgl\src\lv_widgets/lv_dropdown.c ****     lv_dropdown_ext_t * ext = lv_obj_get_ext_attr(ddlist);
 585:lvgl\src\lv_widgets/lv_dropdown.c ****     if(ext->page) return;
 586:lvgl\src\lv_widgets/lv_dropdown.c **** 
 587:lvgl\src\lv_widgets/lv_dropdown.c ****     ext->page = lv_page_create(lv_obj_get_screen(ddlist), NULL);
 588:lvgl\src\lv_widgets/lv_dropdown.c ****     lv_obj_add_protect(ext->page, LV_PROTECT_POS | LV_PROTECT_CLICK_FOCUS);
 589:lvgl\src\lv_widgets/lv_dropdown.c ****     lv_obj_add_protect(lv_page_get_scrollable(ext->page), LV_PROTECT_CLICK_FOCUS);
 590:lvgl\src\lv_widgets/lv_dropdown.c **** 
 591:lvgl\src\lv_widgets/lv_dropdown.c ****     lv_obj_set_base_dir(ext->page, lv_obj_get_base_dir(ddlist));
 592:lvgl\src\lv_widgets/lv_dropdown.c **** 
 593:lvgl\src\lv_widgets/lv_dropdown.c ****     if(ancestor_page_signal == NULL) ancestor_page_signal = lv_obj_get_signal_cb(ext->page);
 594:lvgl\src\lv_widgets/lv_dropdown.c ****     if(ancestor_page_scrl_signal == NULL) ancestor_page_scrl_signal = lv_obj_get_signal_cb(lv_page_
 595:lvgl\src\lv_widgets/lv_dropdown.c ****                                                                                                    
 596:lvgl\src\lv_widgets/lv_dropdown.c ****     if(ancestor_page_design == NULL) ancestor_page_design = lv_obj_get_design_cb(ext->page);
 597:lvgl\src\lv_widgets/lv_dropdown.c **** 
 598:lvgl\src\lv_widgets/lv_dropdown.c ****     lv_dropdown_page_ext_t * page_ext = lv_obj_allocate_ext_attr(ext->page, sizeof(lv_dropdown_page
 599:lvgl\src\lv_widgets/lv_dropdown.c ****     LV_ASSERT_MEM(page_ext);
 600:lvgl\src\lv_widgets/lv_dropdown.c ****     if(page_ext == NULL) {
 601:lvgl\src\lv_widgets/lv_dropdown.c ****         lv_obj_del(ext->page);
ARM GAS  C:\Users\strap\AppData\Local\Temp\ccf5xETM.s 			page 12


 602:lvgl\src\lv_widgets/lv_dropdown.c ****         ext->page = NULL;
 603:lvgl\src\lv_widgets/lv_dropdown.c ****         return;
 604:lvgl\src\lv_widgets/lv_dropdown.c ****     }
 605:lvgl\src\lv_widgets/lv_dropdown.c ****     page_ext->ddlist = ddlist;
 606:lvgl\src\lv_widgets/lv_dropdown.c **** 
 607:lvgl\src\lv_widgets/lv_dropdown.c ****     lv_obj_set_design_cb(ext->page, lv_dropdown_page_design);
 608:lvgl\src\lv_widgets/lv_dropdown.c ****     lv_obj_set_signal_cb(ext->page, lv_dropdown_page_signal);
 609:lvgl\src\lv_widgets/lv_dropdown.c ****     lv_obj_set_signal_cb(lv_page_get_scrollable(ext->page), lv_dropdown_page_scrl_signal);
 610:lvgl\src\lv_widgets/lv_dropdown.c **** 
 611:lvgl\src\lv_widgets/lv_dropdown.c ****     lv_style_list_copy(lv_obj_get_style_list(ext->page, LV_PAGE_PART_BG), &ext->style_page);
 612:lvgl\src\lv_widgets/lv_dropdown.c ****     lv_style_list_copy(lv_obj_get_style_list(ext->page, LV_PAGE_PART_SCROLLBAR), &ext->style_scrlba
 613:lvgl\src\lv_widgets/lv_dropdown.c ****     lv_obj_clean_style_list(ext->page, LV_PAGE_PART_SCROLLABLE);
 614:lvgl\src\lv_widgets/lv_dropdown.c ****     lv_obj_refresh_style(ext->page, LV_OBJ_PART_ALL, LV_STYLE_PROP_ALL);
 615:lvgl\src\lv_widgets/lv_dropdown.c **** 
 616:lvgl\src\lv_widgets/lv_dropdown.c ****     lv_obj_t * label = lv_label_create(ext->page, NULL);
 617:lvgl\src\lv_widgets/lv_dropdown.c ****     lv_label_set_text_static(label, ext->options);
 618:lvgl\src\lv_widgets/lv_dropdown.c **** 
 619:lvgl\src\lv_widgets/lv_dropdown.c ****     lv_cont_set_fit2(ext->page, LV_FIT_TIGHT, LV_FIT_NONE);
 620:lvgl\src\lv_widgets/lv_dropdown.c ****     /*Set small width to the width of the button*/
 621:lvgl\src\lv_widgets/lv_dropdown.c ****     if(lv_obj_get_width(ext->page) < lv_obj_get_width(ddlist) &&
 622:lvgl\src\lv_widgets/lv_dropdown.c ****        (ext->dir == LV_DROPDOWN_DIR_UP || ext->dir == LV_DROPDOWN_DIR_DOWN)) {
 623:lvgl\src\lv_widgets/lv_dropdown.c ****         lv_cont_set_fit2(ext->page, LV_FIT_NONE, LV_FIT_NONE);
 624:lvgl\src\lv_widgets/lv_dropdown.c ****         lv_obj_set_width(ext->page, lv_obj_get_width(ddlist));
 625:lvgl\src\lv_widgets/lv_dropdown.c ****     }
 626:lvgl\src\lv_widgets/lv_dropdown.c **** 
 627:lvgl\src\lv_widgets/lv_dropdown.c ****     lv_coord_t label_h = lv_obj_get_height(label);
 628:lvgl\src\lv_widgets/lv_dropdown.c ****     lv_style_int_t top = lv_obj_get_style_pad_top(ddlist, LV_DROPDOWN_PART_LIST);
 629:lvgl\src\lv_widgets/lv_dropdown.c ****     lv_style_int_t bottom = lv_obj_get_style_pad_bottom(ddlist, LV_DROPDOWN_PART_LIST);
 630:lvgl\src\lv_widgets/lv_dropdown.c **** 
 631:lvgl\src\lv_widgets/lv_dropdown.c ****     lv_coord_t list_fit_h = label_h + top + bottom;
 632:lvgl\src\lv_widgets/lv_dropdown.c ****     lv_coord_t list_h = list_fit_h;
 633:lvgl\src\lv_widgets/lv_dropdown.c ****     if(list_h > ext->max_height) list_h = ext->max_height;
 634:lvgl\src\lv_widgets/lv_dropdown.c **** 
 635:lvgl\src\lv_widgets/lv_dropdown.c ****     lv_dropdown_dir_t dir = ext->dir;
 636:lvgl\src\lv_widgets/lv_dropdown.c ****     /*No place on the bottom? See if top is better.*/
 637:lvgl\src\lv_widgets/lv_dropdown.c ****     if(ext->dir == LV_DROPDOWN_DIR_DOWN) {
 638:lvgl\src\lv_widgets/lv_dropdown.c ****         if(ddlist->coords.y2 + list_h > LV_VER_RES) {
 639:lvgl\src\lv_widgets/lv_dropdown.c ****             if(ddlist->coords.y1 > LV_VER_RES - ddlist->coords.y2) {
 640:lvgl\src\lv_widgets/lv_dropdown.c ****                 /*There is more space on the top, so make it drop up*/
 641:lvgl\src\lv_widgets/lv_dropdown.c ****                 dir = LV_DROPDOWN_DIR_UP;
 642:lvgl\src\lv_widgets/lv_dropdown.c ****                 list_h = ddlist->coords.y1;
 643:lvgl\src\lv_widgets/lv_dropdown.c ****             }
 644:lvgl\src\lv_widgets/lv_dropdown.c ****             else {
 645:lvgl\src\lv_widgets/lv_dropdown.c ****                 list_h = LV_VER_RES - ddlist->coords.y2;
 646:lvgl\src\lv_widgets/lv_dropdown.c ****             }
 647:lvgl\src\lv_widgets/lv_dropdown.c ****         }
 648:lvgl\src\lv_widgets/lv_dropdown.c ****     }
 649:lvgl\src\lv_widgets/lv_dropdown.c ****     /*No place on the top? See if bottom is better.*/
 650:lvgl\src\lv_widgets/lv_dropdown.c ****     else if(ext->dir == LV_DROPDOWN_DIR_UP) {
 651:lvgl\src\lv_widgets/lv_dropdown.c ****         if(ddlist->coords.y1 - list_h < 0) {
 652:lvgl\src\lv_widgets/lv_dropdown.c ****             if(ddlist->coords.y1 < LV_VER_RES - ddlist->coords.y2) {
 653:lvgl\src\lv_widgets/lv_dropdown.c ****                 /*There is more space on the top, so make it drop up*/
 654:lvgl\src\lv_widgets/lv_dropdown.c ****                 dir = LV_DROPDOWN_DIR_DOWN;
 655:lvgl\src\lv_widgets/lv_dropdown.c ****                 list_h = LV_VER_RES - ddlist->coords.y2;
 656:lvgl\src\lv_widgets/lv_dropdown.c ****             }
 657:lvgl\src\lv_widgets/lv_dropdown.c ****             else {
 658:lvgl\src\lv_widgets/lv_dropdown.c ****                 list_h = ddlist->coords.y1;
ARM GAS  C:\Users\strap\AppData\Local\Temp\ccf5xETM.s 			page 13


 659:lvgl\src\lv_widgets/lv_dropdown.c ****             }
 660:lvgl\src\lv_widgets/lv_dropdown.c ****         }
 661:lvgl\src\lv_widgets/lv_dropdown.c ****     }
 662:lvgl\src\lv_widgets/lv_dropdown.c **** 
 663:lvgl\src\lv_widgets/lv_dropdown.c ****     if(list_h > list_fit_h) list_h = list_fit_h;
 664:lvgl\src\lv_widgets/lv_dropdown.c ****     if(list_h > ext->max_height) list_h = ext->max_height;
 665:lvgl\src\lv_widgets/lv_dropdown.c **** 
 666:lvgl\src\lv_widgets/lv_dropdown.c ****     lv_obj_set_height(ext->page, list_h);
 667:lvgl\src\lv_widgets/lv_dropdown.c **** 
 668:lvgl\src\lv_widgets/lv_dropdown.c ****     position_to_selected(ddlist);
 669:lvgl\src\lv_widgets/lv_dropdown.c **** 
 670:lvgl\src\lv_widgets/lv_dropdown.c ****     if(dir == LV_DROPDOWN_DIR_DOWN)      lv_obj_align(ext->page, ddlist, LV_ALIGN_OUT_BOTTOM_LEFT, 
 671:lvgl\src\lv_widgets/lv_dropdown.c ****     else if(dir == LV_DROPDOWN_DIR_UP)   lv_obj_align(ext->page, ddlist, LV_ALIGN_OUT_TOP_LEFT, 0, 
 672:lvgl\src\lv_widgets/lv_dropdown.c ****     else if(dir == LV_DROPDOWN_DIR_LEFT) lv_obj_align(ext->page, ddlist, LV_ALIGN_OUT_LEFT_TOP, 0, 
 673:lvgl\src\lv_widgets/lv_dropdown.c ****     else if(dir == LV_DROPDOWN_DIR_RIGHT)lv_obj_align(ext->page, ddlist, LV_ALIGN_OUT_RIGHT_TOP, 0,
 674:lvgl\src\lv_widgets/lv_dropdown.c **** 
 675:lvgl\src\lv_widgets/lv_dropdown.c ****     if(ext->dir == LV_DROPDOWN_DIR_LEFT || ext->dir == LV_DROPDOWN_DIR_RIGHT) {
 676:lvgl\src\lv_widgets/lv_dropdown.c ****         if(ext->page->coords.y2 > LV_VER_RES) {
 677:lvgl\src\lv_widgets/lv_dropdown.c ****             lv_obj_set_y(ext->page, lv_obj_get_y(ext->page) - (ext->page->coords.y2 - LV_VER_RES));
 678:lvgl\src\lv_widgets/lv_dropdown.c ****         }
 679:lvgl\src\lv_widgets/lv_dropdown.c ****     }
 680:lvgl\src\lv_widgets/lv_dropdown.c **** 
 681:lvgl\src\lv_widgets/lv_dropdown.c ****     if(lv_label_get_align(label) == LV_LABEL_ALIGN_RIGHT) {
 682:lvgl\src\lv_widgets/lv_dropdown.c ****         lv_obj_set_x(label, lv_obj_get_width_fit(ext->page) - lv_obj_get_width(label));
 683:lvgl\src\lv_widgets/lv_dropdown.c ****     }
 684:lvgl\src\lv_widgets/lv_dropdown.c **** }
 685:lvgl\src\lv_widgets/lv_dropdown.c **** 
 686:lvgl\src\lv_widgets/lv_dropdown.c **** /**
 687:lvgl\src\lv_widgets/lv_dropdown.c ****  * Close (Collapse) the drop down list
 688:lvgl\src\lv_widgets/lv_dropdown.c ****  * @param ddlist pointer to drop down list object
 689:lvgl\src\lv_widgets/lv_dropdown.c ****  */
 690:lvgl\src\lv_widgets/lv_dropdown.c **** void lv_dropdown_close(lv_obj_t * ddlist)
 691:lvgl\src\lv_widgets/lv_dropdown.c **** {
 692:lvgl\src\lv_widgets/lv_dropdown.c ****     lv_dropdown_ext_t * ext = lv_obj_get_ext_attr(ddlist);
 693:lvgl\src\lv_widgets/lv_dropdown.c ****     if(ext->page == NULL) return;
 694:lvgl\src\lv_widgets/lv_dropdown.c **** 
 695:lvgl\src\lv_widgets/lv_dropdown.c ****     ext->pr_opt_id = LV_DROPDOWN_PR_NONE;
 696:lvgl\src\lv_widgets/lv_dropdown.c ****     lv_obj_del(ext->page);
 697:lvgl\src\lv_widgets/lv_dropdown.c ****     ext->page = NULL;
 698:lvgl\src\lv_widgets/lv_dropdown.c **** }
 699:lvgl\src\lv_widgets/lv_dropdown.c **** 
 700:lvgl\src\lv_widgets/lv_dropdown.c **** /**********************
 701:lvgl\src\lv_widgets/lv_dropdown.c ****  *   STATIC FUNCTIONS
 702:lvgl\src\lv_widgets/lv_dropdown.c ****  **********************/
 703:lvgl\src\lv_widgets/lv_dropdown.c **** 
 704:lvgl\src\lv_widgets/lv_dropdown.c **** /**
 705:lvgl\src\lv_widgets/lv_dropdown.c ****  * Handle the drawing related tasks of the drop down list
 706:lvgl\src\lv_widgets/lv_dropdown.c ****  * @param ddlist pointer to an object
 707:lvgl\src\lv_widgets/lv_dropdown.c ****  * @param clip_area the object will be drawn only in this area
 708:lvgl\src\lv_widgets/lv_dropdown.c ****  * @param mode LV_DESIGN_COVER_CHK: only check if the object fully covers the 'mask_p' area
 709:lvgl\src\lv_widgets/lv_dropdown.c ****  *                                  (return 'true' if yes)
 710:lvgl\src\lv_widgets/lv_dropdown.c ****  *             LV_DESIGN_DRAW: draw the object (always return 'true')
 711:lvgl\src\lv_widgets/lv_dropdown.c ****  *             LV_DESIGN_DRAW_POST: drawing after every children are drawn
 712:lvgl\src\lv_widgets/lv_dropdown.c ****  * @param return an element of `lv_design_res_t`
 713:lvgl\src\lv_widgets/lv_dropdown.c ****  */
 714:lvgl\src\lv_widgets/lv_dropdown.c **** static lv_design_res_t lv_dropdown_design(lv_obj_t * ddlist, const lv_area_t * clip_area, lv_design
 715:lvgl\src\lv_widgets/lv_dropdown.c **** {
ARM GAS  C:\Users\strap\AppData\Local\Temp\ccf5xETM.s 			page 14


 716:lvgl\src\lv_widgets/lv_dropdown.c ****     /*Return false if the object is not covers the mask_p area*/
 717:lvgl\src\lv_widgets/lv_dropdown.c ****     if(mode == LV_DESIGN_COVER_CHK) {
 718:lvgl\src\lv_widgets/lv_dropdown.c ****         return ancestor_design(ddlist, clip_area, mode);
 719:lvgl\src\lv_widgets/lv_dropdown.c ****     }
 720:lvgl\src\lv_widgets/lv_dropdown.c ****     /*Draw the object*/
 721:lvgl\src\lv_widgets/lv_dropdown.c ****     else if(mode == LV_DESIGN_DRAW_MAIN) {
 722:lvgl\src\lv_widgets/lv_dropdown.c ****         ancestor_design(ddlist, clip_area, mode);
 723:lvgl\src\lv_widgets/lv_dropdown.c **** 
 724:lvgl\src\lv_widgets/lv_dropdown.c ****         lv_dropdown_ext_t * ext = lv_obj_get_ext_attr(ddlist);
 725:lvgl\src\lv_widgets/lv_dropdown.c **** 
 726:lvgl\src\lv_widgets/lv_dropdown.c ****         lv_style_int_t left = lv_obj_get_style_pad_left(ddlist, LV_DROPDOWN_PART_MAIN);
 727:lvgl\src\lv_widgets/lv_dropdown.c ****         lv_style_int_t right = lv_obj_get_style_pad_right(ddlist, LV_DROPDOWN_PART_MAIN);
 728:lvgl\src\lv_widgets/lv_dropdown.c ****         lv_style_int_t top = lv_obj_get_style_pad_top(ddlist, LV_DROPDOWN_PART_MAIN);
 729:lvgl\src\lv_widgets/lv_dropdown.c **** 
 730:lvgl\src\lv_widgets/lv_dropdown.c ****         lv_draw_label_dsc_t label_dsc;
 731:lvgl\src\lv_widgets/lv_dropdown.c ****         lv_draw_label_dsc_init(&label_dsc);
 732:lvgl\src\lv_widgets/lv_dropdown.c ****         lv_obj_init_draw_label_dsc(ddlist, LV_DROPDOWN_PART_MAIN, &label_dsc);
 733:lvgl\src\lv_widgets/lv_dropdown.c **** 
 734:lvgl\src\lv_widgets/lv_dropdown.c ****         lv_area_t txt_area;
 735:lvgl\src\lv_widgets/lv_dropdown.c ****         lv_point_t txt_size;
 736:lvgl\src\lv_widgets/lv_dropdown.c **** 
 737:lvgl\src\lv_widgets/lv_dropdown.c ****         const char * opt_txt = ext->text;
 738:lvgl\src\lv_widgets/lv_dropdown.c ****         if(ext->show_selected) {
 739:lvgl\src\lv_widgets/lv_dropdown.c ****             char * buf = _lv_mem_buf_get(128);
 740:lvgl\src\lv_widgets/lv_dropdown.c ****             lv_dropdown_get_selected_str(ddlist, buf, 128);
 741:lvgl\src\lv_widgets/lv_dropdown.c ****             opt_txt = buf;
 742:lvgl\src\lv_widgets/lv_dropdown.c ****         }
 743:lvgl\src\lv_widgets/lv_dropdown.c **** 
 744:lvgl\src\lv_widgets/lv_dropdown.c ****         const char * txt;
 745:lvgl\src\lv_widgets/lv_dropdown.c **** 
 746:lvgl\src\lv_widgets/lv_dropdown.c ****         bool rev = false;
 747:lvgl\src\lv_widgets/lv_dropdown.c ****         if(ext->dir == LV_DROPDOWN_DIR_LEFT) rev = true;
 748:lvgl\src\lv_widgets/lv_dropdown.c ****         if(lv_obj_get_base_dir(ddlist) == LV_BIDI_DIR_RTL) rev = true;
 749:lvgl\src\lv_widgets/lv_dropdown.c **** 
 750:lvgl\src\lv_widgets/lv_dropdown.c ****         txt = rev ? ext->symbol : opt_txt;
 751:lvgl\src\lv_widgets/lv_dropdown.c ****         if(txt) {
 752:lvgl\src\lv_widgets/lv_dropdown.c ****             _lv_txt_get_size(&txt_size, txt, label_dsc.font, label_dsc.letter_space, label_dsc.line
 753:lvgl\src\lv_widgets/lv_dropdown.c ****                              label_dsc.flag);
 754:lvgl\src\lv_widgets/lv_dropdown.c **** 
 755:lvgl\src\lv_widgets/lv_dropdown.c ****             txt_area.y1 = ddlist->coords.y1 + top;
 756:lvgl\src\lv_widgets/lv_dropdown.c ****             txt_area.y2 = txt_area.y1 + txt_size.y;
 757:lvgl\src\lv_widgets/lv_dropdown.c **** 
 758:lvgl\src\lv_widgets/lv_dropdown.c ****             /*Center align the text if no symbol*/
 759:lvgl\src\lv_widgets/lv_dropdown.c ****             if(ext->symbol == NULL && txt == opt_txt) {
 760:lvgl\src\lv_widgets/lv_dropdown.c ****                 txt_area.x1 = ddlist->coords.x1 + (lv_obj_get_width(ddlist) - txt_size.x) / 2;
 761:lvgl\src\lv_widgets/lv_dropdown.c ****                 txt_area.x2 = txt_area.x1 + txt_size.x;
 762:lvgl\src\lv_widgets/lv_dropdown.c ****             }
 763:lvgl\src\lv_widgets/lv_dropdown.c ****             else {
 764:lvgl\src\lv_widgets/lv_dropdown.c ****                 txt_area.x1 = ddlist->coords.x1 + left;
 765:lvgl\src\lv_widgets/lv_dropdown.c ****                 txt_area.x2 = txt_area.x1 + txt_size.x;
 766:lvgl\src\lv_widgets/lv_dropdown.c ****             }
 767:lvgl\src\lv_widgets/lv_dropdown.c ****             lv_draw_label(&txt_area, clip_area, &label_dsc, txt, NULL);
 768:lvgl\src\lv_widgets/lv_dropdown.c ****         }
 769:lvgl\src\lv_widgets/lv_dropdown.c **** 
 770:lvgl\src\lv_widgets/lv_dropdown.c ****         txt = rev ? opt_txt : ext->symbol;
 771:lvgl\src\lv_widgets/lv_dropdown.c ****         if(txt) {
 772:lvgl\src\lv_widgets/lv_dropdown.c ****             _lv_txt_get_size(&txt_size, txt, label_dsc.font, label_dsc.letter_space, label_dsc.line
ARM GAS  C:\Users\strap\AppData\Local\Temp\ccf5xETM.s 			page 15


 773:lvgl\src\lv_widgets/lv_dropdown.c ****                              label_dsc.flag);
 774:lvgl\src\lv_widgets/lv_dropdown.c ****             txt_area.y1 = ddlist->coords.y1 + top;
 775:lvgl\src\lv_widgets/lv_dropdown.c ****             txt_area.y2 = txt_area.y1 + txt_size.y;
 776:lvgl\src\lv_widgets/lv_dropdown.c **** 
 777:lvgl\src\lv_widgets/lv_dropdown.c ****             /*Center align the text if no symbol*/
 778:lvgl\src\lv_widgets/lv_dropdown.c ****             if(ext->symbol == NULL && txt == opt_txt) {
 779:lvgl\src\lv_widgets/lv_dropdown.c ****                 txt_area.x1 = ddlist->coords.x1 + (lv_obj_get_width(ddlist) - txt_size.x) / 2;
 780:lvgl\src\lv_widgets/lv_dropdown.c ****                 txt_area.x2 = txt_area.x1 + txt_size.x;
 781:lvgl\src\lv_widgets/lv_dropdown.c ****             }
 782:lvgl\src\lv_widgets/lv_dropdown.c ****             else {
 783:lvgl\src\lv_widgets/lv_dropdown.c ****                 txt_area.x1 = ddlist->coords.x2 - right - txt_size.x;
 784:lvgl\src\lv_widgets/lv_dropdown.c ****                 txt_area.x2 = txt_area.x1 + txt_size.x;
 785:lvgl\src\lv_widgets/lv_dropdown.c ****             }
 786:lvgl\src\lv_widgets/lv_dropdown.c **** 
 787:lvgl\src\lv_widgets/lv_dropdown.c ****             lv_draw_label(&txt_area, clip_area, &label_dsc, txt, NULL);
 788:lvgl\src\lv_widgets/lv_dropdown.c ****         }
 789:lvgl\src\lv_widgets/lv_dropdown.c **** 
 790:lvgl\src\lv_widgets/lv_dropdown.c ****         if(ext->show_selected) {
 791:lvgl\src\lv_widgets/lv_dropdown.c ****             _lv_mem_buf_release((char *)opt_txt);
 792:lvgl\src\lv_widgets/lv_dropdown.c ****         }
 793:lvgl\src\lv_widgets/lv_dropdown.c **** 
 794:lvgl\src\lv_widgets/lv_dropdown.c ****     }
 795:lvgl\src\lv_widgets/lv_dropdown.c ****     else if(mode == LV_DESIGN_DRAW_POST) {
 796:lvgl\src\lv_widgets/lv_dropdown.c ****         ancestor_design(ddlist, clip_area, mode);
 797:lvgl\src\lv_widgets/lv_dropdown.c ****     }
 798:lvgl\src\lv_widgets/lv_dropdown.c **** 
 799:lvgl\src\lv_widgets/lv_dropdown.c ****     return LV_DESIGN_RES_OK;
 800:lvgl\src\lv_widgets/lv_dropdown.c **** }
 801:lvgl\src\lv_widgets/lv_dropdown.c **** 
 802:lvgl\src\lv_widgets/lv_dropdown.c **** /**
 803:lvgl\src\lv_widgets/lv_dropdown.c ****  * Handle the drawing related tasks of the drop down list's page
 804:lvgl\src\lv_widgets/lv_dropdown.c ****  * @param page pointer to an object
 805:lvgl\src\lv_widgets/lv_dropdown.c ****  * @param clip_area the object will be drawn only in this area
 806:lvgl\src\lv_widgets/lv_dropdown.c ****  * @param mode LV_DESIGN_COVER_CHK: only check if the object fully covers the 'mask_p' area
 807:lvgl\src\lv_widgets/lv_dropdown.c ****  *                                  (return 'true' if yes)
 808:lvgl\src\lv_widgets/lv_dropdown.c ****  *             LV_DESIGN_DRAW: draw the object (always return 'true')
 809:lvgl\src\lv_widgets/lv_dropdown.c ****  *             LV_DESIGN_DRAW_POST: drawing after every children are drawn
 810:lvgl\src\lv_widgets/lv_dropdown.c ****  * @param return an element of `lv_design_res_t`
 811:lvgl\src\lv_widgets/lv_dropdown.c ****  */
 812:lvgl\src\lv_widgets/lv_dropdown.c **** static lv_design_res_t lv_dropdown_page_design(lv_obj_t * page, const lv_area_t * clip_area, lv_des
 813:lvgl\src\lv_widgets/lv_dropdown.c **** {
 814:lvgl\src\lv_widgets/lv_dropdown.c ****     /*Return false if the object is not covers the mask_p area*/
 815:lvgl\src\lv_widgets/lv_dropdown.c ****     if(mode == LV_DESIGN_COVER_CHK) {
 816:lvgl\src\lv_widgets/lv_dropdown.c ****         return ancestor_page_design(page, clip_area, mode);
 817:lvgl\src\lv_widgets/lv_dropdown.c ****     }
 818:lvgl\src\lv_widgets/lv_dropdown.c ****     /*Draw the object*/
 819:lvgl\src\lv_widgets/lv_dropdown.c ****     else if(mode == LV_DESIGN_DRAW_MAIN) {
 820:lvgl\src\lv_widgets/lv_dropdown.c ****         ancestor_page_design(page, clip_area, mode);
 821:lvgl\src\lv_widgets/lv_dropdown.c **** 
 822:lvgl\src\lv_widgets/lv_dropdown.c ****         lv_dropdown_page_ext_t * page_ext = lv_obj_get_ext_attr(page);
 823:lvgl\src\lv_widgets/lv_dropdown.c ****         lv_obj_t * ddlist = page_ext->ddlist;
 824:lvgl\src\lv_widgets/lv_dropdown.c ****         lv_dropdown_ext_t * ext = lv_obj_get_ext_attr(ddlist);
 825:lvgl\src\lv_widgets/lv_dropdown.c **** 
 826:lvgl\src\lv_widgets/lv_dropdown.c ****         /*Draw the boxes if the page is not being deleted*/
 827:lvgl\src\lv_widgets/lv_dropdown.c ****         if(ext->page) {
 828:lvgl\src\lv_widgets/lv_dropdown.c ****             /* Clip area might be too large too to shadow but
 829:lvgl\src\lv_widgets/lv_dropdown.c ****              * the selected option can be drawn on only the background*/
ARM GAS  C:\Users\strap\AppData\Local\Temp\ccf5xETM.s 			page 16


 830:lvgl\src\lv_widgets/lv_dropdown.c ****             lv_area_t clip_area_core;
 831:lvgl\src\lv_widgets/lv_dropdown.c ****             bool has_common;
 832:lvgl\src\lv_widgets/lv_dropdown.c ****             has_common = _lv_area_intersect(&clip_area_core, clip_area, &ext->page->coords);
 833:lvgl\src\lv_widgets/lv_dropdown.c ****             if(has_common) {
 834:lvgl\src\lv_widgets/lv_dropdown.c ****                 if(ext->pr_opt_id != LV_DROPDOWN_PR_NONE) {
 835:lvgl\src\lv_widgets/lv_dropdown.c ****                     draw_box(ddlist, &clip_area_core, ext->pr_opt_id, LV_STATE_PRESSED);
 836:lvgl\src\lv_widgets/lv_dropdown.c ****                 }
 837:lvgl\src\lv_widgets/lv_dropdown.c **** 
 838:lvgl\src\lv_widgets/lv_dropdown.c ****                 draw_box(ddlist, &clip_area_core, ext->sel_opt_id, LV_STATE_DEFAULT);
 839:lvgl\src\lv_widgets/lv_dropdown.c ****             }
 840:lvgl\src\lv_widgets/lv_dropdown.c ****         }
 841:lvgl\src\lv_widgets/lv_dropdown.c ****     }
 842:lvgl\src\lv_widgets/lv_dropdown.c ****     /*Post draw when the children are drawn*/
 843:lvgl\src\lv_widgets/lv_dropdown.c ****     else if(mode == LV_DESIGN_DRAW_POST) {
 844:lvgl\src\lv_widgets/lv_dropdown.c ****         /*Draw the scrollbar in the ancestor page design function*/
 845:lvgl\src\lv_widgets/lv_dropdown.c ****         ancestor_page_design(page, clip_area, mode);
 846:lvgl\src\lv_widgets/lv_dropdown.c **** 
 847:lvgl\src\lv_widgets/lv_dropdown.c ****         /*Redraw the text on the selected area with a different color*/
 848:lvgl\src\lv_widgets/lv_dropdown.c ****         lv_dropdown_page_ext_t * page_ext = lv_obj_get_ext_attr(page);
 849:lvgl\src\lv_widgets/lv_dropdown.c ****         lv_obj_t * ddlist = page_ext->ddlist;
 850:lvgl\src\lv_widgets/lv_dropdown.c ****         lv_dropdown_ext_t * ext = lv_obj_get_ext_attr(ddlist);
 851:lvgl\src\lv_widgets/lv_dropdown.c **** 
 852:lvgl\src\lv_widgets/lv_dropdown.c ****         /*Draw the box labels if the page is not being deleted*/
 853:lvgl\src\lv_widgets/lv_dropdown.c ****         if(ext->page) {
 854:lvgl\src\lv_widgets/lv_dropdown.c ****             /* Clip area might be too large too to shadow but
 855:lvgl\src\lv_widgets/lv_dropdown.c ****              * the selected option can be drawn on only the background*/
 856:lvgl\src\lv_widgets/lv_dropdown.c ****             lv_area_t clip_area_core;
 857:lvgl\src\lv_widgets/lv_dropdown.c ****             bool has_common;
 858:lvgl\src\lv_widgets/lv_dropdown.c ****             has_common = _lv_area_intersect(&clip_area_core, clip_area, &ext->page->coords);
 859:lvgl\src\lv_widgets/lv_dropdown.c ****             if(has_common) {
 860:lvgl\src\lv_widgets/lv_dropdown.c ****                 if(ext->pr_opt_id != LV_DROPDOWN_PR_NONE) {
 861:lvgl\src\lv_widgets/lv_dropdown.c ****                     draw_box_label(ddlist, &clip_area_core, ext->pr_opt_id, LV_STATE_PRESSED);
 862:lvgl\src\lv_widgets/lv_dropdown.c ****                 }
 863:lvgl\src\lv_widgets/lv_dropdown.c **** 
 864:lvgl\src\lv_widgets/lv_dropdown.c ****                 draw_box_label(ddlist, &clip_area_core, ext->sel_opt_id, LV_STATE_DEFAULT);
 865:lvgl\src\lv_widgets/lv_dropdown.c ****             }
 866:lvgl\src\lv_widgets/lv_dropdown.c ****         }
 867:lvgl\src\lv_widgets/lv_dropdown.c ****     }
 868:lvgl\src\lv_widgets/lv_dropdown.c **** 
 869:lvgl\src\lv_widgets/lv_dropdown.c ****     return LV_DESIGN_RES_OK;
 870:lvgl\src\lv_widgets/lv_dropdown.c **** }
 871:lvgl\src\lv_widgets/lv_dropdown.c **** 
 872:lvgl\src\lv_widgets/lv_dropdown.c **** /**
 873:lvgl\src\lv_widgets/lv_dropdown.c ****  * Signal function of the drop down list
 874:lvgl\src\lv_widgets/lv_dropdown.c ****  * @param ddlist pointer to a drop down list object
 875:lvgl\src\lv_widgets/lv_dropdown.c ****  * @param sign a signal type from lv_signal_t enum
 876:lvgl\src\lv_widgets/lv_dropdown.c ****  * @param param pointer to a signal specific variable
 877:lvgl\src\lv_widgets/lv_dropdown.c ****  * @return LV_RES_OK: the object is not deleted in the function; LV_RES_INV: the object is deleted
 878:lvgl\src\lv_widgets/lv_dropdown.c ****  */
 879:lvgl\src\lv_widgets/lv_dropdown.c **** static lv_res_t lv_dropdown_signal(lv_obj_t * ddlist, lv_signal_t sign, void * param)
 880:lvgl\src\lv_widgets/lv_dropdown.c **** {
 881:lvgl\src\lv_widgets/lv_dropdown.c ****     lv_res_t res;
 882:lvgl\src\lv_widgets/lv_dropdown.c **** 
 883:lvgl\src\lv_widgets/lv_dropdown.c ****     /* Include the ancient signal function */
 884:lvgl\src\lv_widgets/lv_dropdown.c ****     res = ancestor_signal(ddlist, sign, param);
 885:lvgl\src\lv_widgets/lv_dropdown.c ****     if(res != LV_RES_OK) return res;
 886:lvgl\src\lv_widgets/lv_dropdown.c ****     if(sign == LV_SIGNAL_GET_TYPE) return lv_obj_handle_get_type_signal(param, LV_OBJX_NAME);
ARM GAS  C:\Users\strap\AppData\Local\Temp\ccf5xETM.s 			page 17


 887:lvgl\src\lv_widgets/lv_dropdown.c **** 
 888:lvgl\src\lv_widgets/lv_dropdown.c ****     lv_dropdown_ext_t * ext = lv_obj_get_ext_attr(ddlist);
 889:lvgl\src\lv_widgets/lv_dropdown.c **** 
 890:lvgl\src\lv_widgets/lv_dropdown.c ****     if(sign == LV_SIGNAL_GET_STYLE) {
 891:lvgl\src\lv_widgets/lv_dropdown.c ****         lv_get_style_info_t * info = param;
 892:lvgl\src\lv_widgets/lv_dropdown.c ****         info->result = lv_dropdown_get_style(ddlist, info->part);
 893:lvgl\src\lv_widgets/lv_dropdown.c ****         if(info->result != NULL) return LV_RES_OK;
 894:lvgl\src\lv_widgets/lv_dropdown.c ****         return LV_RES_OK;
 895:lvgl\src\lv_widgets/lv_dropdown.c ****     }
 896:lvgl\src\lv_widgets/lv_dropdown.c ****     else if(sign == LV_SIGNAL_GET_STATE_DSC) {
 897:lvgl\src\lv_widgets/lv_dropdown.c ****         lv_get_state_info_t * info = param;
 898:lvgl\src\lv_widgets/lv_dropdown.c ****         if(info->part == LV_DROPDOWN_PART_LIST ||
 899:lvgl\src\lv_widgets/lv_dropdown.c ****            info->part == LV_DROPDOWN_PART_SCROLLBAR ||
 900:lvgl\src\lv_widgets/lv_dropdown.c ****            info->part == LV_DROPDOWN_PART_SELECTED) {
 901:lvgl\src\lv_widgets/lv_dropdown.c ****             info->result = lv_obj_get_state(ext->page, LV_PAGE_PART_BG);
 902:lvgl\src\lv_widgets/lv_dropdown.c ****         }
 903:lvgl\src\lv_widgets/lv_dropdown.c ****     }
 904:lvgl\src\lv_widgets/lv_dropdown.c ****     else if(sign == LV_SIGNAL_CLEANUP) {
 905:lvgl\src\lv_widgets/lv_dropdown.c ****         lv_dropdown_close(ddlist);
 906:lvgl\src\lv_widgets/lv_dropdown.c ****         if(ext->static_txt == 0) {
 907:lvgl\src\lv_widgets/lv_dropdown.c ****             lv_mem_free(ext->options);
 908:lvgl\src\lv_widgets/lv_dropdown.c ****             ext->options = NULL;
 909:lvgl\src\lv_widgets/lv_dropdown.c ****         }
 910:lvgl\src\lv_widgets/lv_dropdown.c **** 
 911:lvgl\src\lv_widgets/lv_dropdown.c ****         /*`lv_obj_clean_style_list` is not required because these styles are only copied to the pag
 912:lvgl\src\lv_widgets/lv_dropdown.c ****          * so they can have transitions or other object related things. */
 913:lvgl\src\lv_widgets/lv_dropdown.c ****         _lv_style_list_reset(&ext->style_page);
 914:lvgl\src\lv_widgets/lv_dropdown.c ****         _lv_style_list_reset(&ext->style_scrlbar);
 915:lvgl\src\lv_widgets/lv_dropdown.c ****         _lv_style_list_reset(&ext->style_selected);
 916:lvgl\src\lv_widgets/lv_dropdown.c **** 
 917:lvgl\src\lv_widgets/lv_dropdown.c ****     }
 918:lvgl\src\lv_widgets/lv_dropdown.c ****     else if(sign == LV_SIGNAL_FOCUS) {
 919:lvgl\src\lv_widgets/lv_dropdown.c **** #if LV_USE_GROUP
 920:lvgl\src\lv_widgets/lv_dropdown.c ****         lv_group_t * g             = lv_obj_get_group(ddlist);
 921:lvgl\src\lv_widgets/lv_dropdown.c ****         bool editing               = lv_group_get_editing(g);
 922:lvgl\src\lv_widgets/lv_dropdown.c ****         lv_indev_type_t indev_type = lv_indev_get_type(lv_indev_get_act());
 923:lvgl\src\lv_widgets/lv_dropdown.c **** 
 924:lvgl\src\lv_widgets/lv_dropdown.c ****         /*Encoders need special handling*/
 925:lvgl\src\lv_widgets/lv_dropdown.c ****         if(indev_type == LV_INDEV_TYPE_ENCODER) {
 926:lvgl\src\lv_widgets/lv_dropdown.c ****             /*Open the list if editing*/
 927:lvgl\src\lv_widgets/lv_dropdown.c ****             if(editing) lv_dropdown_open(ddlist);
 928:lvgl\src\lv_widgets/lv_dropdown.c ****             /*Close the list if navigating*/
 929:lvgl\src\lv_widgets/lv_dropdown.c ****             else
 930:lvgl\src\lv_widgets/lv_dropdown.c ****                 lv_dropdown_close(ddlist);
 931:lvgl\src\lv_widgets/lv_dropdown.c ****         }
 932:lvgl\src\lv_widgets/lv_dropdown.c **** #endif
 933:lvgl\src\lv_widgets/lv_dropdown.c ****     }
 934:lvgl\src\lv_widgets/lv_dropdown.c ****     else if(sign == LV_SIGNAL_DEFOCUS || sign == LV_SIGNAL_LEAVE) {
 935:lvgl\src\lv_widgets/lv_dropdown.c ****         lv_dropdown_close(ddlist);
 936:lvgl\src\lv_widgets/lv_dropdown.c ****     }
 937:lvgl\src\lv_widgets/lv_dropdown.c ****     else if(sign == LV_SIGNAL_RELEASED) {
 938:lvgl\src\lv_widgets/lv_dropdown.c ****         lv_indev_t * indev = lv_indev_get_act();
 939:lvgl\src\lv_widgets/lv_dropdown.c ****         if(lv_indev_is_dragging(indev) == false) {
 940:lvgl\src\lv_widgets/lv_dropdown.c ****             if(ext->page) {
 941:lvgl\src\lv_widgets/lv_dropdown.c ****                 lv_dropdown_close(ddlist);
 942:lvgl\src\lv_widgets/lv_dropdown.c ****                 if(ext->sel_opt_id_orig != ext->sel_opt_id) {
 943:lvgl\src\lv_widgets/lv_dropdown.c ****                     ext->sel_opt_id_orig = ext->sel_opt_id;
ARM GAS  C:\Users\strap\AppData\Local\Temp\ccf5xETM.s 			page 18


 944:lvgl\src\lv_widgets/lv_dropdown.c ****                     uint32_t id  = ext->sel_opt_id; /*Just to use uint32_t in event data*/
 945:lvgl\src\lv_widgets/lv_dropdown.c ****                     res = lv_event_send(ddlist, LV_EVENT_VALUE_CHANGED, &id);
 946:lvgl\src\lv_widgets/lv_dropdown.c ****                     if(res != LV_RES_OK) return res;
 947:lvgl\src\lv_widgets/lv_dropdown.c ****                     lv_obj_invalidate(ddlist);
 948:lvgl\src\lv_widgets/lv_dropdown.c ****                 }
 949:lvgl\src\lv_widgets/lv_dropdown.c **** #if LV_USE_GROUP
 950:lvgl\src\lv_widgets/lv_dropdown.c ****                 lv_indev_type_t indev_type = lv_indev_get_type(indev);
 951:lvgl\src\lv_widgets/lv_dropdown.c ****                 if(indev_type == LV_INDEV_TYPE_ENCODER) {
 952:lvgl\src\lv_widgets/lv_dropdown.c ****                     lv_group_set_editing(lv_obj_get_group(ddlist), false);
 953:lvgl\src\lv_widgets/lv_dropdown.c ****                 }
 954:lvgl\src\lv_widgets/lv_dropdown.c **** #endif
 955:lvgl\src\lv_widgets/lv_dropdown.c ****             }
 956:lvgl\src\lv_widgets/lv_dropdown.c ****             else {
 957:lvgl\src\lv_widgets/lv_dropdown.c ****                 lv_dropdown_open(ddlist);
 958:lvgl\src\lv_widgets/lv_dropdown.c ****             }
 959:lvgl\src\lv_widgets/lv_dropdown.c ****         }
 960:lvgl\src\lv_widgets/lv_dropdown.c ****         else {
 961:lvgl\src\lv_widgets/lv_dropdown.c ****             ext->sel_opt_id = ext->sel_opt_id_orig;
 962:lvgl\src\lv_widgets/lv_dropdown.c ****             lv_obj_invalidate(ddlist);
 963:lvgl\src\lv_widgets/lv_dropdown.c ****         }
 964:lvgl\src\lv_widgets/lv_dropdown.c ****     }
 965:lvgl\src\lv_widgets/lv_dropdown.c ****     else if(sign == LV_SIGNAL_COORD_CHG) {
 966:lvgl\src\lv_widgets/lv_dropdown.c ****         if(ext->page) lv_dropdown_close(ddlist);
 967:lvgl\src\lv_widgets/lv_dropdown.c ****     }
 968:lvgl\src\lv_widgets/lv_dropdown.c ****     else if(sign == LV_SIGNAL_STYLE_CHG) {
 969:lvgl\src\lv_widgets/lv_dropdown.c ****         lv_style_int_t top = lv_obj_get_style_pad_top(ddlist, LV_DROPDOWN_PART_MAIN);
 970:lvgl\src\lv_widgets/lv_dropdown.c ****         lv_style_int_t bottom = lv_obj_get_style_pad_bottom(ddlist, LV_DROPDOWN_PART_MAIN);
 971:lvgl\src\lv_widgets/lv_dropdown.c ****         const lv_font_t * font = lv_obj_get_style_text_font(ddlist, LV_DROPDOWN_PART_MAIN);
 972:lvgl\src\lv_widgets/lv_dropdown.c ****         lv_obj_set_height(ddlist, top + bottom + lv_font_get_line_height(font));
 973:lvgl\src\lv_widgets/lv_dropdown.c **** 
 974:lvgl\src\lv_widgets/lv_dropdown.c ****         if(ext->page) lv_obj_refresh_style(ext->page, LV_OBJ_PART_ALL, LV_STYLE_PROP_ALL);
 975:lvgl\src\lv_widgets/lv_dropdown.c ****     }
 976:lvgl\src\lv_widgets/lv_dropdown.c ****     else if(sign == LV_SIGNAL_CONTROL) {
 977:lvgl\src\lv_widgets/lv_dropdown.c **** #if LV_USE_GROUP
 978:lvgl\src\lv_widgets/lv_dropdown.c ****         char c = *((char *)param);
 979:lvgl\src\lv_widgets/lv_dropdown.c ****         if(c == LV_KEY_RIGHT || c == LV_KEY_DOWN) {
 980:lvgl\src\lv_widgets/lv_dropdown.c ****             if(ext->page == NULL) {
 981:lvgl\src\lv_widgets/lv_dropdown.c ****                 lv_dropdown_open(ddlist);
 982:lvgl\src\lv_widgets/lv_dropdown.c ****             }
 983:lvgl\src\lv_widgets/lv_dropdown.c ****             else if(ext->sel_opt_id + 1 < ext->option_cnt) {
 984:lvgl\src\lv_widgets/lv_dropdown.c ****                 ext->sel_opt_id++;
 985:lvgl\src\lv_widgets/lv_dropdown.c ****                 position_to_selected(ddlist);
 986:lvgl\src\lv_widgets/lv_dropdown.c ****             }
 987:lvgl\src\lv_widgets/lv_dropdown.c ****         }
 988:lvgl\src\lv_widgets/lv_dropdown.c ****         else if(c == LV_KEY_LEFT || c == LV_KEY_UP) {
 989:lvgl\src\lv_widgets/lv_dropdown.c **** 
 990:lvgl\src\lv_widgets/lv_dropdown.c ****             if(ext->page == NULL) {
 991:lvgl\src\lv_widgets/lv_dropdown.c ****                 lv_dropdown_open(ddlist);
 992:lvgl\src\lv_widgets/lv_dropdown.c ****             }
 993:lvgl\src\lv_widgets/lv_dropdown.c ****             else if(ext->sel_opt_id > 0) {
 994:lvgl\src\lv_widgets/lv_dropdown.c ****                 ext->sel_opt_id--;
 995:lvgl\src\lv_widgets/lv_dropdown.c ****                 position_to_selected(ddlist);
 996:lvgl\src\lv_widgets/lv_dropdown.c ****             }
 997:lvgl\src\lv_widgets/lv_dropdown.c ****         }
 998:lvgl\src\lv_widgets/lv_dropdown.c ****         else if(c == LV_KEY_ESC) {
 999:lvgl\src\lv_widgets/lv_dropdown.c ****             ext->sel_opt_id = ext->sel_opt_id_orig;
1000:lvgl\src\lv_widgets/lv_dropdown.c ****             lv_dropdown_close(ddlist);
ARM GAS  C:\Users\strap\AppData\Local\Temp\ccf5xETM.s 			page 19


1001:lvgl\src\lv_widgets/lv_dropdown.c ****         }
1002:lvgl\src\lv_widgets/lv_dropdown.c **** #endif
1003:lvgl\src\lv_widgets/lv_dropdown.c ****     }
1004:lvgl\src\lv_widgets/lv_dropdown.c ****     else if(sign == LV_SIGNAL_GET_EDITABLE) {
1005:lvgl\src\lv_widgets/lv_dropdown.c **** #if LV_USE_GROUP
1006:lvgl\src\lv_widgets/lv_dropdown.c ****         bool * editable = (bool *)param;
1007:lvgl\src\lv_widgets/lv_dropdown.c ****         *editable       = true;
1008:lvgl\src\lv_widgets/lv_dropdown.c **** #endif
1009:lvgl\src\lv_widgets/lv_dropdown.c ****     }
1010:lvgl\src\lv_widgets/lv_dropdown.c **** 
1011:lvgl\src\lv_widgets/lv_dropdown.c ****     return res;
1012:lvgl\src\lv_widgets/lv_dropdown.c **** }
1013:lvgl\src\lv_widgets/lv_dropdown.c **** 
1014:lvgl\src\lv_widgets/lv_dropdown.c **** /**
1015:lvgl\src\lv_widgets/lv_dropdown.c ****  * Signal function of the drop down list's scrollable part
1016:lvgl\src\lv_widgets/lv_dropdown.c ****  * @param scrl pointer to a drop down list's scrollable part
1017:lvgl\src\lv_widgets/lv_dropdown.c ****  * @param sign a signal type from lv_signal_t enum
1018:lvgl\src\lv_widgets/lv_dropdown.c ****  * @param param pointer to a signal specific variable
1019:lvgl\src\lv_widgets/lv_dropdown.c ****  * @return LV_RES_OK: the object is not deleted in the function; LV_RES_INV: the object is deleted
1020:lvgl\src\lv_widgets/lv_dropdown.c ****  */
1021:lvgl\src\lv_widgets/lv_dropdown.c **** static lv_res_t lv_dropdown_page_signal(lv_obj_t * page, lv_signal_t sign, void * param)
1022:lvgl\src\lv_widgets/lv_dropdown.c **** {
1023:lvgl\src\lv_widgets/lv_dropdown.c ****     lv_res_t res;
1024:lvgl\src\lv_widgets/lv_dropdown.c **** 
1025:lvgl\src\lv_widgets/lv_dropdown.c ****     /* Include the ancient signal function */
1026:lvgl\src\lv_widgets/lv_dropdown.c ****     res = ancestor_page_signal(page, sign, param);
1027:lvgl\src\lv_widgets/lv_dropdown.c ****     if(res != LV_RES_OK) return res;
1028:lvgl\src\lv_widgets/lv_dropdown.c ****     if(sign == LV_SIGNAL_GET_TYPE) return lv_obj_handle_get_type_signal(param, "");
1029:lvgl\src\lv_widgets/lv_dropdown.c **** 
1030:lvgl\src\lv_widgets/lv_dropdown.c ****     lv_dropdown_page_ext_t * page_ext = lv_obj_get_ext_attr(page);
1031:lvgl\src\lv_widgets/lv_dropdown.c ****     lv_obj_t * ddlist = page_ext->ddlist;
1032:lvgl\src\lv_widgets/lv_dropdown.c **** 
1033:lvgl\src\lv_widgets/lv_dropdown.c ****     if(sign == LV_SIGNAL_REFR_EXT_DRAW_PAD) {
1034:lvgl\src\lv_widgets/lv_dropdown.c ****         /* Make possible to draw on the full width of the background to redraw the selected rectang
1035:lvgl\src\lv_widgets/lv_dropdown.c ****          * when the ddlist is scrolled in fix height mode.
1036:lvgl\src\lv_widgets/lv_dropdown.c ****          * (The scrollable is scrolled then "select rectangle" is drawn on the bg too)*/
1037:lvgl\src\lv_widgets/lv_dropdown.c ****         lv_style_int_t left = lv_obj_get_style_pad_left(ddlist, LV_DROPDOWN_PART_LIST);
1038:lvgl\src\lv_widgets/lv_dropdown.c ****         lv_style_int_t right = lv_obj_get_style_pad_right(ddlist, LV_DROPDOWN_PART_LIST);
1039:lvgl\src\lv_widgets/lv_dropdown.c ****         lv_obj_t * scrl = lv_page_get_scrollable(page);
1040:lvgl\src\lv_widgets/lv_dropdown.c ****         scrl->ext_draw_pad = LV_MATH_MAX3(scrl->ext_draw_pad, left, right);
1041:lvgl\src\lv_widgets/lv_dropdown.c ****     }
1042:lvgl\src\lv_widgets/lv_dropdown.c ****     else if(sign == LV_SIGNAL_RELEASED) {
1043:lvgl\src\lv_widgets/lv_dropdown.c ****         if(lv_indev_is_dragging(lv_indev_get_act()) == false) {
1044:lvgl\src\lv_widgets/lv_dropdown.c ****             page_release_handler(page);
1045:lvgl\src\lv_widgets/lv_dropdown.c ****         }
1046:lvgl\src\lv_widgets/lv_dropdown.c ****     }
1047:lvgl\src\lv_widgets/lv_dropdown.c ****     else if(sign == LV_SIGNAL_PRESSED) {
1048:lvgl\src\lv_widgets/lv_dropdown.c ****         page_press_handler(page);
1049:lvgl\src\lv_widgets/lv_dropdown.c ****     }
1050:lvgl\src\lv_widgets/lv_dropdown.c ****     else if(sign == LV_SIGNAL_CLEANUP) {
1051:lvgl\src\lv_widgets/lv_dropdown.c ****         lv_dropdown_ext_t * ext = lv_obj_get_ext_attr(ddlist);
1052:lvgl\src\lv_widgets/lv_dropdown.c ****         ext->page  = NULL; /*The page is just being deleted*/
1053:lvgl\src\lv_widgets/lv_dropdown.c ****     }
1054:lvgl\src\lv_widgets/lv_dropdown.c **** 
1055:lvgl\src\lv_widgets/lv_dropdown.c ****     return res;
1056:lvgl\src\lv_widgets/lv_dropdown.c **** }
1057:lvgl\src\lv_widgets/lv_dropdown.c **** 
ARM GAS  C:\Users\strap\AppData\Local\Temp\ccf5xETM.s 			page 20


1058:lvgl\src\lv_widgets/lv_dropdown.c **** /**
1059:lvgl\src\lv_widgets/lv_dropdown.c ****  * Signal function of the drop down list's scrollable part
1060:lvgl\src\lv_widgets/lv_dropdown.c ****  * @param scrl pointer to a drop down list's scrollable part
1061:lvgl\src\lv_widgets/lv_dropdown.c ****  * @param sign a signal type from lv_signal_t enum
1062:lvgl\src\lv_widgets/lv_dropdown.c ****  * @param param pointer to a signal specific variable
1063:lvgl\src\lv_widgets/lv_dropdown.c ****  * @return LV_RES_OK: the object is not deleted in the function; LV_RES_INV: the object is deleted
1064:lvgl\src\lv_widgets/lv_dropdown.c ****  */
1065:lvgl\src\lv_widgets/lv_dropdown.c **** static lv_res_t lv_dropdown_page_scrl_signal(lv_obj_t * scrl, lv_signal_t sign, void * param)
1066:lvgl\src\lv_widgets/lv_dropdown.c **** {
1067:lvgl\src\lv_widgets/lv_dropdown.c ****     lv_res_t res;
1068:lvgl\src\lv_widgets/lv_dropdown.c **** 
1069:lvgl\src\lv_widgets/lv_dropdown.c ****     /* Include the ancient signal function */
1070:lvgl\src\lv_widgets/lv_dropdown.c ****     res = ancestor_page_scrl_signal(scrl, sign, param);
1071:lvgl\src\lv_widgets/lv_dropdown.c ****     if(res != LV_RES_OK) return res;
1072:lvgl\src\lv_widgets/lv_dropdown.c ****     if(sign == LV_SIGNAL_GET_TYPE) return lv_obj_handle_get_type_signal(param, "");
1073:lvgl\src\lv_widgets/lv_dropdown.c **** 
1074:lvgl\src\lv_widgets/lv_dropdown.c ****     lv_obj_t * page = lv_obj_get_parent(scrl);
1075:lvgl\src\lv_widgets/lv_dropdown.c ****     lv_dropdown_page_ext_t * page_ext = lv_obj_get_ext_attr(page);
1076:lvgl\src\lv_widgets/lv_dropdown.c ****     lv_obj_t * ddlist = page_ext->ddlist;
1077:lvgl\src\lv_widgets/lv_dropdown.c ****     lv_dropdown_ext_t * ext = lv_obj_get_ext_attr(ddlist);
1078:lvgl\src\lv_widgets/lv_dropdown.c **** 
1079:lvgl\src\lv_widgets/lv_dropdown.c ****     if(sign == LV_SIGNAL_RELEASED) {
1080:lvgl\src\lv_widgets/lv_dropdown.c ****         if(lv_indev_is_dragging(lv_indev_get_act()) == false) {
1081:lvgl\src\lv_widgets/lv_dropdown.c ****             page_release_handler(page);
1082:lvgl\src\lv_widgets/lv_dropdown.c ****         }
1083:lvgl\src\lv_widgets/lv_dropdown.c ****     }
1084:lvgl\src\lv_widgets/lv_dropdown.c ****     else if(sign == LV_SIGNAL_PRESSED) {
1085:lvgl\src\lv_widgets/lv_dropdown.c ****         page_press_handler(page);
1086:lvgl\src\lv_widgets/lv_dropdown.c ****     }
1087:lvgl\src\lv_widgets/lv_dropdown.c ****     else if(sign == LV_SIGNAL_DRAG_BEGIN) {
1088:lvgl\src\lv_widgets/lv_dropdown.c ****         ext->pr_opt_id = LV_DROPDOWN_PR_NONE;
1089:lvgl\src\lv_widgets/lv_dropdown.c ****         lv_obj_invalidate(page);
1090:lvgl\src\lv_widgets/lv_dropdown.c ****     }
1091:lvgl\src\lv_widgets/lv_dropdown.c ****     else  if(sign == LV_SIGNAL_REFR_EXT_DRAW_PAD) {
1092:lvgl\src\lv_widgets/lv_dropdown.c ****         /* Make possible to draw on the full width of the background to redraw the selected rectang
1093:lvgl\src\lv_widgets/lv_dropdown.c ****          * when the ddlist is scrolled in fix height mode.
1094:lvgl\src\lv_widgets/lv_dropdown.c ****          * (The scrollable is scrolled then "select rectangle" is drawn on the bg too)*/
1095:lvgl\src\lv_widgets/lv_dropdown.c ****         lv_style_int_t left = lv_obj_get_style_pad_left(ddlist, LV_DROPDOWN_PART_LIST);
1096:lvgl\src\lv_widgets/lv_dropdown.c ****         lv_style_int_t right = lv_obj_get_style_pad_right(ddlist, LV_DROPDOWN_PART_LIST);
1097:lvgl\src\lv_widgets/lv_dropdown.c ****         scrl->ext_draw_pad = LV_MATH_MAX3(scrl->ext_draw_pad, left, right);
1098:lvgl\src\lv_widgets/lv_dropdown.c ****     }
1099:lvgl\src\lv_widgets/lv_dropdown.c **** 
1100:lvgl\src\lv_widgets/lv_dropdown.c ****     return res;
1101:lvgl\src\lv_widgets/lv_dropdown.c **** }
1102:lvgl\src\lv_widgets/lv_dropdown.c **** 
1103:lvgl\src\lv_widgets/lv_dropdown.c **** 
1104:lvgl\src\lv_widgets/lv_dropdown.c **** /**
1105:lvgl\src\lv_widgets/lv_dropdown.c ****  * Get the style descriptor of a part of the object
1106:lvgl\src\lv_widgets/lv_dropdown.c ****  * @param page pointer the object
1107:lvgl\src\lv_widgets/lv_dropdown.c ****  * @param part the part from `lv_dropdown_part_t`. (LV_DROPDOWN_PART_...)
1108:lvgl\src\lv_widgets/lv_dropdown.c ****  * @return pointer to the style descriptor of the specified part
1109:lvgl\src\lv_widgets/lv_dropdown.c ****  */
1110:lvgl\src\lv_widgets/lv_dropdown.c **** static lv_style_list_t * lv_dropdown_get_style(lv_obj_t * ddlist, uint8_t part)
1111:lvgl\src\lv_widgets/lv_dropdown.c **** {
  27              		.loc 1 1111 0
  28              		.cfi_startproc
  29              		@ args = 0, pretend = 0, frame = 0
ARM GAS  C:\Users\strap\AppData\Local\Temp\ccf5xETM.s 			page 21


  30              		@ frame_needed = 0, uses_anonymous_args = 0
  31              	.LVL0:
  32 0000 38B5     		push	{r3, r4, r5, lr}
  33              		.cfi_def_cfa_offset 16
  34              		.cfi_offset 3, -16
  35              		.cfi_offset 4, -12
  36              		.cfi_offset 5, -8
  37              		.cfi_offset 14, -4
  38 0002 0546     		mov	r5, r0
  39 0004 0C46     		mov	r4, r1
1112:lvgl\src\lv_widgets/lv_dropdown.c ****     LV_ASSERT_OBJ(ddlist, LV_OBJX_NAME);
  40              		.loc 1 1112 0
  41 0006 FFF7FEFF 		bl	lv_debug_check_null
  42              	.LVL1:
  43 000a 28B9     		cbnz	r0, .L2
  44              		.loc 1 1112 0 is_stmt 0 discriminator 1
  45 000c 2A46     		mov	r2, r5
  46 000e 0023     		movs	r3, #0
  47 0010 0D48     		ldr	r0, .L12
  48 0012 FFF7FEFF 		bl	lv_debug_log_error
  49              	.LVL2:
  50              	.L3:
  51 0016 FEE7     		b	.L3
  52              	.L2:
1113:lvgl\src\lv_widgets/lv_dropdown.c **** 
1114:lvgl\src\lv_widgets/lv_dropdown.c ****     lv_dropdown_ext_t * ext = lv_obj_get_ext_attr(ddlist);
  53              		.loc 1 1114 0 is_stmt 1
  54 0018 2846     		mov	r0, r5
  55 001a FFF7FEFF 		bl	lv_obj_get_ext_attr
  56              	.LVL3:
1115:lvgl\src\lv_widgets/lv_dropdown.c ****     lv_style_list_t * style_dsc_p;
1116:lvgl\src\lv_widgets/lv_dropdown.c **** 
1117:lvgl\src\lv_widgets/lv_dropdown.c ****     switch(part) {
  57              		.loc 1 1117 0
  58 001e 402C     		cmp	r4, #64
  59 0020 0AD0     		beq	.L5
  60 0022 01D8     		bhi	.L6
  61 0024 2CB1     		cbz	r4, .L7
  62 0026 0DE0     		b	.L10
  63              	.L6:
  64 0028 412C     		cmp	r4, #65
  65 002a 07D0     		beq	.L8
  66 002c 422C     		cmp	r4, #66
  67 002e 07D0     		beq	.L9
  68 0030 08E0     		b	.L10
  69              	.L7:
1118:lvgl\src\lv_widgets/lv_dropdown.c ****         case LV_DROPDOWN_PART_MAIN:
1119:lvgl\src\lv_widgets/lv_dropdown.c ****             style_dsc_p = &ddlist->style_list;
  70              		.loc 1 1119 0
  71 0032 05F12800 		add	r0, r5, #40
  72              	.LVL4:
1120:lvgl\src\lv_widgets/lv_dropdown.c ****             break;
  73              		.loc 1 1120 0
  74 0036 38BD     		pop	{r3, r4, r5, pc}
  75              	.LVL5:
  76              	.L5:
1121:lvgl\src\lv_widgets/lv_dropdown.c ****         case LV_DROPDOWN_PART_LIST:
ARM GAS  C:\Users\strap\AppData\Local\Temp\ccf5xETM.s 			page 22


1122:lvgl\src\lv_widgets/lv_dropdown.c ****             style_dsc_p = &ext->style_page;
  77              		.loc 1 1122 0
  78 0038 1830     		adds	r0, r0, #24
  79              	.LVL6:
1123:lvgl\src\lv_widgets/lv_dropdown.c ****             break;
  80              		.loc 1 1123 0
  81 003a 38BD     		pop	{r3, r4, r5, pc}
  82              	.LVL7:
  83              	.L8:
1124:lvgl\src\lv_widgets/lv_dropdown.c ****         case LV_DROPDOWN_PART_SCROLLBAR:
1125:lvgl\src\lv_widgets/lv_dropdown.c ****             style_dsc_p = &ext->style_scrlbar;
  84              		.loc 1 1125 0
  85 003c 2030     		adds	r0, r0, #32
  86              	.LVL8:
1126:lvgl\src\lv_widgets/lv_dropdown.c ****             break;
  87              		.loc 1 1126 0
  88 003e 38BD     		pop	{r3, r4, r5, pc}
  89              	.LVL9:
  90              	.L9:
1127:lvgl\src\lv_widgets/lv_dropdown.c ****         case LV_DROPDOWN_PART_SELECTED:
1128:lvgl\src\lv_widgets/lv_dropdown.c ****             style_dsc_p = &ext->style_selected;
  91              		.loc 1 1128 0
  92 0040 1030     		adds	r0, r0, #16
  93              	.LVL10:
1129:lvgl\src\lv_widgets/lv_dropdown.c ****             break;
  94              		.loc 1 1129 0
  95 0042 38BD     		pop	{r3, r4, r5, pc}
  96              	.LVL11:
  97              	.L10:
1130:lvgl\src\lv_widgets/lv_dropdown.c ****         default:
1131:lvgl\src\lv_widgets/lv_dropdown.c ****             style_dsc_p = NULL;
  98              		.loc 1 1131 0
  99 0044 0020     		movs	r0, #0
 100              	.LVL12:
1132:lvgl\src\lv_widgets/lv_dropdown.c ****     }
1133:lvgl\src\lv_widgets/lv_dropdown.c **** 
1134:lvgl\src\lv_widgets/lv_dropdown.c ****     return style_dsc_p;
1135:lvgl\src\lv_widgets/lv_dropdown.c **** }
 101              		.loc 1 1135 0
 102 0046 38BD     		pop	{r3, r4, r5, pc}
 103              	.LVL13:
 104              	.L13:
 105              		.align	2
 106              	.L12:
 107 0048 00000000 		.word	.LC0
 108              		.cfi_endproc
 109              	.LFE375:
 110              		.size	lv_dropdown_get_style, .-lv_dropdown_get_style
 111              		.section	.text.get_label,"ax",%progbits
 112              		.align	2
 113              		.thumb
 114              		.thumb_func
 115              		.type	get_label, %function
 116              	get_label:
 117              	.LFB382:
1136:lvgl\src\lv_widgets/lv_dropdown.c **** 
1137:lvgl\src\lv_widgets/lv_dropdown.c **** static void draw_box(lv_obj_t * ddlist, const lv_area_t * clip_area, uint16_t id, lv_state_t state)
ARM GAS  C:\Users\strap\AppData\Local\Temp\ccf5xETM.s 			page 23


1138:lvgl\src\lv_widgets/lv_dropdown.c **** {
1139:lvgl\src\lv_widgets/lv_dropdown.c ****     lv_dropdown_ext_t * ext = lv_obj_get_ext_attr(ddlist);
1140:lvgl\src\lv_widgets/lv_dropdown.c ****     lv_obj_t * page = ext->page;
1141:lvgl\src\lv_widgets/lv_dropdown.c ****     lv_state_t state_orig = page->state;
1142:lvgl\src\lv_widgets/lv_dropdown.c **** 
1143:lvgl\src\lv_widgets/lv_dropdown.c ****     if(state != page->state) {
1144:lvgl\src\lv_widgets/lv_dropdown.c ****         _lv_obj_disable_style_caching(ddlist, true);
1145:lvgl\src\lv_widgets/lv_dropdown.c ****         page->state = state;
1146:lvgl\src\lv_widgets/lv_dropdown.c ****     }
1147:lvgl\src\lv_widgets/lv_dropdown.c **** 
1148:lvgl\src\lv_widgets/lv_dropdown.c ****     /*Draw a rectangle under the selected item*/
1149:lvgl\src\lv_widgets/lv_dropdown.c ****     const lv_font_t * font    = lv_obj_get_style_text_font(ddlist, LV_DROPDOWN_PART_LIST);
1150:lvgl\src\lv_widgets/lv_dropdown.c ****     lv_style_int_t line_space = lv_obj_get_style_text_line_space(ddlist, LV_DROPDOWN_PART_LIST);
1151:lvgl\src\lv_widgets/lv_dropdown.c ****     lv_coord_t font_h         = lv_font_get_line_height(font);
1152:lvgl\src\lv_widgets/lv_dropdown.c **** 
1153:lvgl\src\lv_widgets/lv_dropdown.c ****     /*Draw the selected*/
1154:lvgl\src\lv_widgets/lv_dropdown.c ****     lv_obj_t * label = get_label(ddlist);
1155:lvgl\src\lv_widgets/lv_dropdown.c ****     lv_area_t rect_area;
1156:lvgl\src\lv_widgets/lv_dropdown.c ****     rect_area.y1 = label->coords.y1;
1157:lvgl\src\lv_widgets/lv_dropdown.c ****     rect_area.y1 += id * (font_h + line_space);
1158:lvgl\src\lv_widgets/lv_dropdown.c ****     rect_area.y1 -= line_space / 2;
1159:lvgl\src\lv_widgets/lv_dropdown.c **** 
1160:lvgl\src\lv_widgets/lv_dropdown.c ****     rect_area.y2 = rect_area.y1 + font_h + line_space - 1;
1161:lvgl\src\lv_widgets/lv_dropdown.c ****     rect_area.x1 = ext->page->coords.x1;
1162:lvgl\src\lv_widgets/lv_dropdown.c ****     rect_area.x2 = ext->page->coords.x2;
1163:lvgl\src\lv_widgets/lv_dropdown.c **** 
1164:lvgl\src\lv_widgets/lv_dropdown.c ****     lv_draw_rect_dsc_t sel_rect;
1165:lvgl\src\lv_widgets/lv_dropdown.c ****     lv_draw_rect_dsc_init(&sel_rect);
1166:lvgl\src\lv_widgets/lv_dropdown.c ****     lv_obj_init_draw_rect_dsc(ddlist, LV_DROPDOWN_PART_SELECTED, &sel_rect);
1167:lvgl\src\lv_widgets/lv_dropdown.c ****     lv_draw_rect(&rect_area, clip_area, &sel_rect);
1168:lvgl\src\lv_widgets/lv_dropdown.c **** 
1169:lvgl\src\lv_widgets/lv_dropdown.c ****     page->state = state_orig;
1170:lvgl\src\lv_widgets/lv_dropdown.c ****     _lv_obj_disable_style_caching(ddlist, false);
1171:lvgl\src\lv_widgets/lv_dropdown.c **** }
1172:lvgl\src\lv_widgets/lv_dropdown.c **** 
1173:lvgl\src\lv_widgets/lv_dropdown.c **** 
1174:lvgl\src\lv_widgets/lv_dropdown.c **** 
1175:lvgl\src\lv_widgets/lv_dropdown.c **** static void draw_box_label(lv_obj_t * ddlist, const lv_area_t * clip_area, uint16_t id, lv_state_t 
1176:lvgl\src\lv_widgets/lv_dropdown.c **** {
1177:lvgl\src\lv_widgets/lv_dropdown.c ****     lv_dropdown_ext_t * ext = lv_obj_get_ext_attr(ddlist);
1178:lvgl\src\lv_widgets/lv_dropdown.c ****     lv_obj_t * page = ext->page;
1179:lvgl\src\lv_widgets/lv_dropdown.c ****     lv_state_t state_orig = page->state;
1180:lvgl\src\lv_widgets/lv_dropdown.c **** 
1181:lvgl\src\lv_widgets/lv_dropdown.c ****     if(state != page->state) {
1182:lvgl\src\lv_widgets/lv_dropdown.c ****         page->state =  state;
1183:lvgl\src\lv_widgets/lv_dropdown.c ****         _lv_obj_disable_style_caching(ddlist, true);
1184:lvgl\src\lv_widgets/lv_dropdown.c ****     }
1185:lvgl\src\lv_widgets/lv_dropdown.c **** 
1186:lvgl\src\lv_widgets/lv_dropdown.c ****     lv_draw_label_dsc_t label_dsc;
1187:lvgl\src\lv_widgets/lv_dropdown.c ****     lv_draw_label_dsc_init(&label_dsc);
1188:lvgl\src\lv_widgets/lv_dropdown.c ****     lv_obj_init_draw_label_dsc(ddlist, LV_DROPDOWN_PART_SELECTED, &label_dsc);
1189:lvgl\src\lv_widgets/lv_dropdown.c **** 
1190:lvgl\src\lv_widgets/lv_dropdown.c ****     label_dsc.line_space = lv_obj_get_style_text_line_space(ddlist,
1191:lvgl\src\lv_widgets/lv_dropdown.c ****                                                             LV_DROPDOWN_PART_LIST);  /*Line space s
1192:lvgl\src\lv_widgets/lv_dropdown.c **** 
1193:lvgl\src\lv_widgets/lv_dropdown.c ****     lv_obj_t * label = get_label(ddlist);
1194:lvgl\src\lv_widgets/lv_dropdown.c ****     if(label == NULL) return;
ARM GAS  C:\Users\strap\AppData\Local\Temp\ccf5xETM.s 			page 24


1195:lvgl\src\lv_widgets/lv_dropdown.c **** 
1196:lvgl\src\lv_widgets/lv_dropdown.c ****     lv_label_align_t align = lv_label_get_align(label);
1197:lvgl\src\lv_widgets/lv_dropdown.c **** 
1198:lvgl\src\lv_widgets/lv_dropdown.c ****     if(align == LV_LABEL_ALIGN_CENTER) label_dsc.flag |= LV_TXT_FLAG_CENTER;
1199:lvgl\src\lv_widgets/lv_dropdown.c ****     else if(align == LV_LABEL_ALIGN_RIGHT) label_dsc.flag |= LV_TXT_FLAG_RIGHT;
1200:lvgl\src\lv_widgets/lv_dropdown.c **** 
1201:lvgl\src\lv_widgets/lv_dropdown.c ****     lv_coord_t font_h        = lv_font_get_line_height(label_dsc.font);
1202:lvgl\src\lv_widgets/lv_dropdown.c **** 
1203:lvgl\src\lv_widgets/lv_dropdown.c ****     lv_area_t area_sel;
1204:lvgl\src\lv_widgets/lv_dropdown.c ****     area_sel.y1 = label->coords.y1;
1205:lvgl\src\lv_widgets/lv_dropdown.c ****     area_sel.y1 += id * (font_h + label_dsc.line_space);
1206:lvgl\src\lv_widgets/lv_dropdown.c ****     area_sel.y1 -= label_dsc.line_space / 2;
1207:lvgl\src\lv_widgets/lv_dropdown.c **** 
1208:lvgl\src\lv_widgets/lv_dropdown.c ****     area_sel.y2 = area_sel.y1 + font_h + label_dsc.line_space - 1;
1209:lvgl\src\lv_widgets/lv_dropdown.c ****     area_sel.x1 = page->coords.x1;
1210:lvgl\src\lv_widgets/lv_dropdown.c ****     area_sel.x2 = page->coords.x2;
1211:lvgl\src\lv_widgets/lv_dropdown.c ****     lv_area_t mask_sel;
1212:lvgl\src\lv_widgets/lv_dropdown.c ****     bool area_ok;
1213:lvgl\src\lv_widgets/lv_dropdown.c ****     area_ok = _lv_area_intersect(&mask_sel, clip_area, &area_sel);
1214:lvgl\src\lv_widgets/lv_dropdown.c ****     if(area_ok) {
1215:lvgl\src\lv_widgets/lv_dropdown.c ****         lv_draw_label(&label->coords, &mask_sel, &label_dsc, lv_label_get_text(label), NULL);
1216:lvgl\src\lv_widgets/lv_dropdown.c ****     }
1217:lvgl\src\lv_widgets/lv_dropdown.c ****     page->state = state_orig;
1218:lvgl\src\lv_widgets/lv_dropdown.c ****     _lv_obj_disable_style_caching(ddlist, false);
1219:lvgl\src\lv_widgets/lv_dropdown.c **** }
1220:lvgl\src\lv_widgets/lv_dropdown.c **** 
1221:lvgl\src\lv_widgets/lv_dropdown.c **** /**
1222:lvgl\src\lv_widgets/lv_dropdown.c ****  * Called when a drop down list is released to open it or set new option
1223:lvgl\src\lv_widgets/lv_dropdown.c ****  * @param page pointer to the drop down list's page
1224:lvgl\src\lv_widgets/lv_dropdown.c ****  * @return LV_RES_INV if the page is not being deleted in the user callback. Else LV_RES_OK
1225:lvgl\src\lv_widgets/lv_dropdown.c ****  */
1226:lvgl\src\lv_widgets/lv_dropdown.c **** static lv_res_t page_release_handler(lv_obj_t * page)
1227:lvgl\src\lv_widgets/lv_dropdown.c **** {
1228:lvgl\src\lv_widgets/lv_dropdown.c ****     lv_dropdown_page_ext_t * page_ext = lv_obj_get_ext_attr(page);
1229:lvgl\src\lv_widgets/lv_dropdown.c ****     lv_obj_t * ddlist = page_ext->ddlist;
1230:lvgl\src\lv_widgets/lv_dropdown.c **** 
1231:lvgl\src\lv_widgets/lv_dropdown.c ****     lv_dropdown_ext_t * ext = lv_obj_get_ext_attr(ddlist);
1232:lvgl\src\lv_widgets/lv_dropdown.c **** 
1233:lvgl\src\lv_widgets/lv_dropdown.c ****     lv_indev_t * indev = lv_indev_get_act();
1234:lvgl\src\lv_widgets/lv_dropdown.c **** #if LV_USE_GROUP
1235:lvgl\src\lv_widgets/lv_dropdown.c ****     /*Leave edit mode once a new item is selected*/
1236:lvgl\src\lv_widgets/lv_dropdown.c ****     if(lv_indev_get_type(indev) == LV_INDEV_TYPE_ENCODER) {
1237:lvgl\src\lv_widgets/lv_dropdown.c ****         ext->sel_opt_id_orig = ext->sel_opt_id;
1238:lvgl\src\lv_widgets/lv_dropdown.c ****         lv_group_t * g      = lv_obj_get_group(ddlist);
1239:lvgl\src\lv_widgets/lv_dropdown.c ****         if(lv_group_get_editing(g)) {
1240:lvgl\src\lv_widgets/lv_dropdown.c ****             lv_group_set_editing(g, false);
1241:lvgl\src\lv_widgets/lv_dropdown.c ****         }
1242:lvgl\src\lv_widgets/lv_dropdown.c ****     }
1243:lvgl\src\lv_widgets/lv_dropdown.c **** #endif
1244:lvgl\src\lv_widgets/lv_dropdown.c **** 
1245:lvgl\src\lv_widgets/lv_dropdown.c ****     /*Search the clicked option (For KEYPAD and ENCODER the new value should be already set)*/
1246:lvgl\src\lv_widgets/lv_dropdown.c ****     if(lv_indev_get_type(indev) == LV_INDEV_TYPE_POINTER || lv_indev_get_type(indev) == LV_INDEV_TY
1247:lvgl\src\lv_widgets/lv_dropdown.c ****         lv_point_t p;
1248:lvgl\src\lv_widgets/lv_dropdown.c ****         lv_indev_get_point(indev, &p);
1249:lvgl\src\lv_widgets/lv_dropdown.c ****         ext->sel_opt_id     = get_id_on_point(ddlist, p.y);
1250:lvgl\src\lv_widgets/lv_dropdown.c ****         ext->sel_opt_id_orig = ext->sel_opt_id;
1251:lvgl\src\lv_widgets/lv_dropdown.c ****     }
ARM GAS  C:\Users\strap\AppData\Local\Temp\ccf5xETM.s 			page 25


1252:lvgl\src\lv_widgets/lv_dropdown.c **** 
1253:lvgl\src\lv_widgets/lv_dropdown.c ****     lv_dropdown_close(ddlist);
1254:lvgl\src\lv_widgets/lv_dropdown.c **** 
1255:lvgl\src\lv_widgets/lv_dropdown.c ****     /*Invalidate to refresh the text*/
1256:lvgl\src\lv_widgets/lv_dropdown.c ****     if(ext->show_selected) lv_obj_invalidate(ddlist);
1257:lvgl\src\lv_widgets/lv_dropdown.c **** 
1258:lvgl\src\lv_widgets/lv_dropdown.c ****     uint32_t id  = ext->sel_opt_id; /*Just to use uint32_t in event data*/
1259:lvgl\src\lv_widgets/lv_dropdown.c ****     lv_res_t res = lv_event_send(ddlist, LV_EVENT_VALUE_CHANGED, &id);
1260:lvgl\src\lv_widgets/lv_dropdown.c ****     if(res != LV_RES_OK) return res;
1261:lvgl\src\lv_widgets/lv_dropdown.c ****     if(ext->page == NULL) return LV_RES_INV;
1262:lvgl\src\lv_widgets/lv_dropdown.c **** 
1263:lvgl\src\lv_widgets/lv_dropdown.c ****     return LV_RES_OK;
1264:lvgl\src\lv_widgets/lv_dropdown.c **** }
1265:lvgl\src\lv_widgets/lv_dropdown.c **** 
1266:lvgl\src\lv_widgets/lv_dropdown.c **** static void page_press_handler(lv_obj_t * page)
1267:lvgl\src\lv_widgets/lv_dropdown.c **** {
1268:lvgl\src\lv_widgets/lv_dropdown.c ****     lv_dropdown_page_ext_t * page_ext = lv_obj_get_ext_attr(page);
1269:lvgl\src\lv_widgets/lv_dropdown.c ****     lv_obj_t * ddlist = page_ext->ddlist;
1270:lvgl\src\lv_widgets/lv_dropdown.c **** 
1271:lvgl\src\lv_widgets/lv_dropdown.c ****     lv_dropdown_ext_t * ext = lv_obj_get_ext_attr(ddlist);
1272:lvgl\src\lv_widgets/lv_dropdown.c **** 
1273:lvgl\src\lv_widgets/lv_dropdown.c ****     lv_indev_t * indev = lv_indev_get_act();
1274:lvgl\src\lv_widgets/lv_dropdown.c ****     if(indev && (lv_indev_get_type(indev) == LV_INDEV_TYPE_POINTER || lv_indev_get_type(indev) == L
1275:lvgl\src\lv_widgets/lv_dropdown.c ****         lv_point_t p;
1276:lvgl\src\lv_widgets/lv_dropdown.c ****         lv_indev_get_point(indev, &p);
1277:lvgl\src\lv_widgets/lv_dropdown.c ****         ext->pr_opt_id = get_id_on_point(ddlist, p.y);
1278:lvgl\src\lv_widgets/lv_dropdown.c ****         lv_obj_invalidate(page);
1279:lvgl\src\lv_widgets/lv_dropdown.c ****     }
1280:lvgl\src\lv_widgets/lv_dropdown.c **** }
1281:lvgl\src\lv_widgets/lv_dropdown.c **** 
1282:lvgl\src\lv_widgets/lv_dropdown.c **** static uint16_t get_id_on_point(lv_obj_t * ddlist, lv_coord_t y)
1283:lvgl\src\lv_widgets/lv_dropdown.c **** {
1284:lvgl\src\lv_widgets/lv_dropdown.c ****     lv_obj_t * label = get_label(ddlist);
1285:lvgl\src\lv_widgets/lv_dropdown.c ****     if(label == NULL) return 0;
1286:lvgl\src\lv_widgets/lv_dropdown.c ****     y -= label->coords.y1;
1287:lvgl\src\lv_widgets/lv_dropdown.c **** 
1288:lvgl\src\lv_widgets/lv_dropdown.c ****     const lv_font_t * font         = lv_obj_get_style_text_font(label, LV_LABEL_PART_MAIN);
1289:lvgl\src\lv_widgets/lv_dropdown.c ****     lv_coord_t font_h              = lv_font_get_line_height(font);
1290:lvgl\src\lv_widgets/lv_dropdown.c ****     lv_style_int_t line_space = lv_obj_get_style_text_line_space(label, LV_LABEL_PART_MAIN);
1291:lvgl\src\lv_widgets/lv_dropdown.c **** 
1292:lvgl\src\lv_widgets/lv_dropdown.c ****     y += line_space / 2;
1293:lvgl\src\lv_widgets/lv_dropdown.c ****     lv_coord_t h = font_h + line_space;
1294:lvgl\src\lv_widgets/lv_dropdown.c **** 
1295:lvgl\src\lv_widgets/lv_dropdown.c ****     uint16_t opt = y / h;
1296:lvgl\src\lv_widgets/lv_dropdown.c **** 
1297:lvgl\src\lv_widgets/lv_dropdown.c ****     return opt;
1298:lvgl\src\lv_widgets/lv_dropdown.c **** }
1299:lvgl\src\lv_widgets/lv_dropdown.c **** 
1300:lvgl\src\lv_widgets/lv_dropdown.c **** /**
1301:lvgl\src\lv_widgets/lv_dropdown.c ****  * Set the position of list when it is closed to show the selected item
1302:lvgl\src\lv_widgets/lv_dropdown.c ****  * @param ddlist pointer to a drop down list
1303:lvgl\src\lv_widgets/lv_dropdown.c ****  */
1304:lvgl\src\lv_widgets/lv_dropdown.c **** static void position_to_selected(lv_obj_t * ddlist)
1305:lvgl\src\lv_widgets/lv_dropdown.c **** {
1306:lvgl\src\lv_widgets/lv_dropdown.c ****     lv_dropdown_ext_t * ext          = lv_obj_get_ext_attr(ddlist);
1307:lvgl\src\lv_widgets/lv_dropdown.c **** 
1308:lvgl\src\lv_widgets/lv_dropdown.c ****     const lv_font_t * font         = lv_obj_get_style_text_font(ddlist, LV_DROPDOWN_PART_LIST);
ARM GAS  C:\Users\strap\AppData\Local\Temp\ccf5xETM.s 			page 26


1309:lvgl\src\lv_widgets/lv_dropdown.c ****     lv_coord_t font_h              = lv_font_get_line_height(font);
1310:lvgl\src\lv_widgets/lv_dropdown.c ****     lv_obj_t * scrl                = lv_page_get_scrollable(ext->page);
1311:lvgl\src\lv_widgets/lv_dropdown.c ****     lv_obj_t * label = get_label(ddlist);
1312:lvgl\src\lv_widgets/lv_dropdown.c ****     if(label == NULL) return;
1313:lvgl\src\lv_widgets/lv_dropdown.c **** 
1314:lvgl\src\lv_widgets/lv_dropdown.c ****     lv_coord_t h = lv_obj_get_height(ext->page);
1315:lvgl\src\lv_widgets/lv_dropdown.c ****     lv_style_int_t line_space = lv_obj_get_style_text_line_space(ddlist, LV_DROPDOWN_PART_LIST);
1316:lvgl\src\lv_widgets/lv_dropdown.c **** 
1317:lvgl\src\lv_widgets/lv_dropdown.c ****     lv_coord_t line_y1 = ext->sel_opt_id * (font_h + line_space) + label->coords.y1 - scrl->coords.
1318:lvgl\src\lv_widgets/lv_dropdown.c **** 
1319:lvgl\src\lv_widgets/lv_dropdown.c ****     lv_obj_set_y(scrl, -line_y1 + (h - font_h) / 2);
1320:lvgl\src\lv_widgets/lv_dropdown.c ****     lv_obj_invalidate(ext->page);
1321:lvgl\src\lv_widgets/lv_dropdown.c **** }
1322:lvgl\src\lv_widgets/lv_dropdown.c **** 
1323:lvgl\src\lv_widgets/lv_dropdown.c **** 
1324:lvgl\src\lv_widgets/lv_dropdown.c **** 
1325:lvgl\src\lv_widgets/lv_dropdown.c **** static lv_obj_t * get_label(const lv_obj_t * ddlist)
1326:lvgl\src\lv_widgets/lv_dropdown.c **** {
 118              		.loc 1 1326 0
 119              		.cfi_startproc
 120              		@ args = 0, pretend = 0, frame = 0
 121              		@ frame_needed = 0, uses_anonymous_args = 0
 122              	.LVL14:
 123 0000 08B5     		push	{r3, lr}
 124              		.cfi_def_cfa_offset 8
 125              		.cfi_offset 3, -8
 126              		.cfi_offset 14, -4
1327:lvgl\src\lv_widgets/lv_dropdown.c ****     lv_dropdown_ext_t * ext = lv_obj_get_ext_attr(ddlist);
 127              		.loc 1 1327 0
 128 0002 FFF7FEFF 		bl	lv_obj_get_ext_attr
 129              	.LVL15:
1328:lvgl\src\lv_widgets/lv_dropdown.c ****     if(ext->page == NULL) return NULL;
 130              		.loc 1 1328 0
 131 0006 0068     		ldr	r0, [r0]
 132              	.LVL16:
 133 0008 20B1     		cbz	r0, .L15
1329:lvgl\src\lv_widgets/lv_dropdown.c **** 
1330:lvgl\src\lv_widgets/lv_dropdown.c ****     return lv_obj_get_child(lv_page_get_scrollable(ext->page), NULL);
 134              		.loc 1 1330 0
 135 000a FFF7FEFF 		bl	lv_page_get_scrollable
 136              	.LVL17:
 137 000e 0021     		movs	r1, #0
 138 0010 FFF7FEFF 		bl	lv_obj_get_child
 139              	.LVL18:
 140              	.L15:
1331:lvgl\src\lv_widgets/lv_dropdown.c **** }
 141              		.loc 1 1331 0
 142 0014 08BD     		pop	{r3, pc}
 143              		.cfi_endproc
 144              	.LFE382:
 145              		.size	get_label, .-get_label
 146 0016 00BF     		.section	.text.position_to_selected,"ax",%progbits
 147              		.align	2
 148              		.thumb
 149              		.thumb_func
 150              		.type	position_to_selected, %function
 151              	position_to_selected:
ARM GAS  C:\Users\strap\AppData\Local\Temp\ccf5xETM.s 			page 27


 152              	.LFB381:
1305:lvgl\src\lv_widgets/lv_dropdown.c ****     lv_dropdown_ext_t * ext          = lv_obj_get_ext_attr(ddlist);
 153              		.loc 1 1305 0
 154              		.cfi_startproc
 155              		@ args = 0, pretend = 0, frame = 0
 156              		@ frame_needed = 0, uses_anonymous_args = 0
 157              	.LVL19:
 158 0000 2DE9F843 		push	{r3, r4, r5, r6, r7, r8, r9, lr}
 159              		.cfi_def_cfa_offset 32
 160              		.cfi_offset 3, -32
 161              		.cfi_offset 4, -28
 162              		.cfi_offset 5, -24
 163              		.cfi_offset 6, -20
 164              		.cfi_offset 7, -16
 165              		.cfi_offset 8, -12
 166              		.cfi_offset 9, -8
 167              		.cfi_offset 14, -4
 168 0004 8046     		mov	r8, r0
1306:lvgl\src\lv_widgets/lv_dropdown.c **** 
 169              		.loc 1 1306 0
 170 0006 FFF7FEFF 		bl	lv_obj_get_ext_attr
 171              	.LVL20:
 172 000a 0446     		mov	r4, r0
 173              	.LVL21:
 174              	.LBB72:
 175              	.LBB73:
 176              		.file 2 "lvgl\\src\\lv_widgets\\../lv_widgets/../lv_core/lv_obj_style_dec.h"
   1:lvgl\src\lv_widgets\../lv_widgets/../lv_core/lv_obj_style_dec.h **** 
   2:lvgl\src\lv_widgets\../lv_widgets/../lv_core/lv_obj_style_dec.h **** /**
   3:lvgl\src\lv_widgets\../lv_widgets/../lv_core/lv_obj_style_dec.h ****  * @file lv_obj_style_dec.h
   4:lvgl\src\lv_widgets\../lv_widgets/../lv_core/lv_obj_style_dec.h ****  *
   5:lvgl\src\lv_widgets\../lv_widgets/../lv_core/lv_obj_style_dec.h ****  */
   6:lvgl\src\lv_widgets\../lv_widgets/../lv_core/lv_obj_style_dec.h **** 
   7:lvgl\src\lv_widgets\../lv_widgets/../lv_core/lv_obj_style_dec.h **** #ifndef LV_OBJ_STYLE_DEC_H
   8:lvgl\src\lv_widgets\../lv_widgets/../lv_core/lv_obj_style_dec.h **** #define LV_OBJ_STYLE_DEC_H
   9:lvgl\src\lv_widgets\../lv_widgets/../lv_core/lv_obj_style_dec.h **** 
  10:lvgl\src\lv_widgets\../lv_widgets/../lv_core/lv_obj_style_dec.h **** #ifdef __cplusplus
  11:lvgl\src\lv_widgets\../lv_widgets/../lv_core/lv_obj_style_dec.h **** extern "C" {
  12:lvgl\src\lv_widgets\../lv_widgets/../lv_core/lv_obj_style_dec.h **** #endif
  13:lvgl\src\lv_widgets\../lv_widgets/../lv_core/lv_obj_style_dec.h **** 
  14:lvgl\src\lv_widgets\../lv_widgets/../lv_core/lv_obj_style_dec.h **** /*********************
  15:lvgl\src\lv_widgets\../lv_widgets/../lv_core/lv_obj_style_dec.h ****  *      DEFINES
  16:lvgl\src\lv_widgets\../lv_widgets/../lv_core/lv_obj_style_dec.h ****  *********************/
  17:lvgl\src\lv_widgets\../lv_widgets/../lv_core/lv_obj_style_dec.h **** 
  18:lvgl\src\lv_widgets\../lv_widgets/../lv_core/lv_obj_style_dec.h **** /**
  19:lvgl\src\lv_widgets\../lv_widgets/../lv_core/lv_obj_style_dec.h ****  * Macro to declare the most important style set/get API functions.
  20:lvgl\src\lv_widgets\../lv_widgets/../lv_core/lv_obj_style_dec.h ****  *
  21:lvgl\src\lv_widgets\../lv_widgets/../lv_core/lv_obj_style_dec.h ****  * Get the value of a style property from an object in the object's current state
  22:lvgl\src\lv_widgets\../lv_widgets/../lv_core/lv_obj_style_dec.h ****  * -----------------------------------------------------------------------------
  23:lvgl\src\lv_widgets\../lv_widgets/../lv_core/lv_obj_style_dec.h ****  *  - Get the value of a style property from an object in the object's current state.
  24:lvgl\src\lv_widgets\../lv_widgets/../lv_core/lv_obj_style_dec.h ****  *  - Transition animation is taken into account.
  25:lvgl\src\lv_widgets\../lv_widgets/../lv_core/lv_obj_style_dec.h ****  *  - If the property is not set in the object's styles check the parent(s) if the property can be 
  26:lvgl\src\lv_widgets\../lv_widgets/../lv_core/lv_obj_style_dec.h ****  *  - If still not found return a default value.
  27:lvgl\src\lv_widgets\../lv_widgets/../lv_core/lv_obj_style_dec.h ****  *  - For example:
  28:lvgl\src\lv_widgets\../lv_widgets/../lv_core/lv_obj_style_dec.h ****  *      `lv_style_int_t w = lv_obj_get_style_border_width(btn1, LV_BTN_PART_MAIN);`
  29:lvgl\src\lv_widgets\../lv_widgets/../lv_core/lv_obj_style_dec.h ****  *
  30:lvgl\src\lv_widgets\../lv_widgets/../lv_core/lv_obj_style_dec.h ****  * Set a local style property for an object in a given state
ARM GAS  C:\Users\strap\AppData\Local\Temp\ccf5xETM.s 			page 28


  31:lvgl\src\lv_widgets\../lv_widgets/../lv_core/lv_obj_style_dec.h ****  * ---------------------------------------------------------
  32:lvgl\src\lv_widgets\../lv_widgets/../lv_core/lv_obj_style_dec.h ****  *  - For example:
  33:lvgl\src\lv_widgets\../lv_widgets/../lv_core/lv_obj_style_dec.h ****  *      `lv_obj_set_style_local_border_width(btn1, LV_BTN_PART_MAIN, LV_STATE_PRESSED, 2);`
  34:lvgl\src\lv_widgets\../lv_widgets/../lv_core/lv_obj_style_dec.h ****  *
  35:lvgl\src\lv_widgets\../lv_widgets/../lv_core/lv_obj_style_dec.h ****  * Get a local style property's value of an object in a given state
  36:lvgl\src\lv_widgets\../lv_widgets/../lv_core/lv_obj_style_dec.h ****  * ----------------------------------------------------------------
  37:lvgl\src\lv_widgets\../lv_widgets/../lv_core/lv_obj_style_dec.h ****  *  - Return the best matching property in the given state.
  38:lvgl\src\lv_widgets\../lv_widgets/../lv_core/lv_obj_style_dec.h ****  *  - E.g. if `state` parameter is LV_STATE_PRESSED | LV_STATE_CHECKED` but the property defined on
  39:lvgl\src\lv_widgets\../lv_widgets/../lv_core/lv_obj_style_dec.h ****  *    `LV_STATE_PRESSED` and `LV_STATE_DEFAULT` the best matching state is `LV_STATE_PRESSED`
  40:lvgl\src\lv_widgets\../lv_widgets/../lv_core/lv_obj_style_dec.h ****  *    (because it has higher precedence) and it will be returned.
  41:lvgl\src\lv_widgets\../lv_widgets/../lv_core/lv_obj_style_dec.h ****  *  - If the property is not found even in `LV_STATE_DEFAULT` `-1` is returned.
  42:lvgl\src\lv_widgets\../lv_widgets/../lv_core/lv_obj_style_dec.h ****  *  - For example:
  43:lvgl\src\lv_widgets\../lv_widgets/../lv_core/lv_obj_style_dec.h ****  *      `//Type of result should be lv_style_int_t/lv_opa_t/lv_color_t/const void * according to th
  44:lvgl\src\lv_widgets\../lv_widgets/../lv_core/lv_obj_style_dec.h ****  *      `lv_style_int_t result;`
  45:lvgl\src\lv_widgets\../lv_widgets/../lv_core/lv_obj_style_dec.h ****  *      `lv_obj_get_style_local_border_width(btn1, LV_BTN_PART_MAIN, LV_STATE_PRESSED, &result);`
  46:lvgl\src\lv_widgets\../lv_widgets/../lv_core/lv_obj_style_dec.h ****  *      `if(weight > 0) ...the property is found and loaded into result...`
  47:lvgl\src\lv_widgets\../lv_widgets/../lv_core/lv_obj_style_dec.h ****  *
  48:lvgl\src\lv_widgets\../lv_widgets/../lv_core/lv_obj_style_dec.h ****  * Get the value from a style in a given state
  49:lvgl\src\lv_widgets\../lv_widgets/../lv_core/lv_obj_style_dec.h ****  * -------------------------------------------
  50:lvgl\src\lv_widgets\../lv_widgets/../lv_core/lv_obj_style_dec.h ****  * - The same rules applies to the return value then for "lv_obj_get_style_local_...()" above
  51:lvgl\src\lv_widgets\../lv_widgets/../lv_core/lv_obj_style_dec.h ****  * - For example
  52:lvgl\src\lv_widgets\../lv_widgets/../lv_core/lv_obj_style_dec.h ****  *      `int16_t weight = lv_style_get_border_width(&style1, LV_STATE_PRESSED, &result);`
  53:lvgl\src\lv_widgets\../lv_widgets/../lv_core/lv_obj_style_dec.h ****  *      `if(weight > 0) ...the property is found and loaded into result...`
  54:lvgl\src\lv_widgets\../lv_widgets/../lv_core/lv_obj_style_dec.h **** 
  55:lvgl\src\lv_widgets\../lv_widgets/../lv_core/lv_obj_style_dec.h ****  * Set a value in a style in a given state
  56:lvgl\src\lv_widgets\../lv_widgets/../lv_core/lv_obj_style_dec.h ****  * ---------------------------------------
  57:lvgl\src\lv_widgets\../lv_widgets/../lv_core/lv_obj_style_dec.h ****  * - For example
  58:lvgl\src\lv_widgets\../lv_widgets/../lv_core/lv_obj_style_dec.h ****  *      `lv_style_set_border_width(&style1, LV_STATE_PRESSED, 2);`
  59:lvgl\src\lv_widgets\../lv_widgets/../lv_core/lv_obj_style_dec.h ****  */
  60:lvgl\src\lv_widgets\../lv_widgets/../lv_core/lv_obj_style_dec.h **** 
  61:lvgl\src\lv_widgets\../lv_widgets/../lv_core/lv_obj_style_dec.h **** #define _OBJ_GET_STYLE_scalar(prop_name, func_name, value_type, style_type)                        
  62:lvgl\src\lv_widgets\../lv_widgets/../lv_core/lv_obj_style_dec.h ****     static inline value_type lv_obj_get_style_##func_name (const lv_obj_t * obj, uint8_t part)     
  63:lvgl\src\lv_widgets\../lv_widgets/../lv_core/lv_obj_style_dec.h ****     {                                                                                              
  64:lvgl\src\lv_widgets\../lv_widgets/../lv_core/lv_obj_style_dec.h ****         return (value_type) _lv_obj_get_style##style_type (obj, part, LV_STYLE_##prop_name);       
  65:lvgl\src\lv_widgets\../lv_widgets/../lv_core/lv_obj_style_dec.h ****     }
  66:lvgl\src\lv_widgets\../lv_widgets/../lv_core/lv_obj_style_dec.h **** 
  67:lvgl\src\lv_widgets\../lv_widgets/../lv_core/lv_obj_style_dec.h **** #define _OBJ_GET_STYLE_nonscalar(prop_name, func_name, value_type, style_type)                     
  68:lvgl\src\lv_widgets\../lv_widgets/../lv_core/lv_obj_style_dec.h ****     static inline value_type lv_obj_get_style_##func_name (const lv_obj_t * obj, uint8_t part)     
  69:lvgl\src\lv_widgets\../lv_widgets/../lv_core/lv_obj_style_dec.h ****     {                                                                                              
  70:lvgl\src\lv_widgets\../lv_widgets/../lv_core/lv_obj_style_dec.h ****         return _lv_obj_get_style##style_type (obj, part, LV_STYLE_##prop_name);                    
  71:lvgl\src\lv_widgets\../lv_widgets/../lv_core/lv_obj_style_dec.h ****     }
  72:lvgl\src\lv_widgets\../lv_widgets/../lv_core/lv_obj_style_dec.h **** 
  73:lvgl\src\lv_widgets\../lv_widgets/../lv_core/lv_obj_style_dec.h **** #define _OBJ_SET_STYLE_LOCAL_scalar(prop_name, func_name, value_type, style_type)                  
  74:lvgl\src\lv_widgets\../lv_widgets/../lv_core/lv_obj_style_dec.h ****     static inline void lv_obj_set_style_local_##func_name (lv_obj_t * obj, uint8_t part, lv_state_t
  75:lvgl\src\lv_widgets\../lv_widgets/../lv_core/lv_obj_style_dec.h ****     {                                                                                              
  76:lvgl\src\lv_widgets\../lv_widgets/../lv_core/lv_obj_style_dec.h ****         _lv_obj_set_style_local##style_type (obj, part, LV_STYLE_##prop_name | (state << LV_STYLE_S
  77:lvgl\src\lv_widgets\../lv_widgets/../lv_core/lv_obj_style_dec.h ****     }
  78:lvgl\src\lv_widgets\../lv_widgets/../lv_core/lv_obj_style_dec.h **** 
  79:lvgl\src\lv_widgets\../lv_widgets/../lv_core/lv_obj_style_dec.h **** #define _OBJ_SET_STYLE_LOCAL_nonscalar(prop_name, func_name, value_type, style_type)               
  80:lvgl\src\lv_widgets\../lv_widgets/../lv_core/lv_obj_style_dec.h ****     static inline void lv_obj_set_style_local_##func_name (lv_obj_t * obj, uint8_t part, lv_state_t
  81:lvgl\src\lv_widgets\../lv_widgets/../lv_core/lv_obj_style_dec.h ****     {                                                                                              
  82:lvgl\src\lv_widgets\../lv_widgets/../lv_core/lv_obj_style_dec.h ****         _lv_obj_set_style_local##style_type (obj, part, LV_STYLE_##prop_name | (state << LV_STYLE_S
  83:lvgl\src\lv_widgets\../lv_widgets/../lv_core/lv_obj_style_dec.h ****     }
  84:lvgl\src\lv_widgets\../lv_widgets/../lv_core/lv_obj_style_dec.h **** 
  85:lvgl\src\lv_widgets\../lv_widgets/../lv_core/lv_obj_style_dec.h **** #define _OBJ_SET_STYLE_scalar(prop_name, func_name, value_type, style_type)                        
  86:lvgl\src\lv_widgets\../lv_widgets/../lv_core/lv_obj_style_dec.h ****     static inline void lv_style_set_##func_name (lv_style_t * style, lv_state_t state, value_type v
  87:lvgl\src\lv_widgets\../lv_widgets/../lv_core/lv_obj_style_dec.h ****     {                                                                                              
ARM GAS  C:\Users\strap\AppData\Local\Temp\ccf5xETM.s 			page 29


  88:lvgl\src\lv_widgets\../lv_widgets/../lv_core/lv_obj_style_dec.h ****         _lv_style_set##style_type (style, LV_STYLE_##prop_name | (state << LV_STYLE_STATE_POS), val
  89:lvgl\src\lv_widgets\../lv_widgets/../lv_core/lv_obj_style_dec.h ****     }
  90:lvgl\src\lv_widgets\../lv_widgets/../lv_core/lv_obj_style_dec.h **** 
  91:lvgl\src\lv_widgets\../lv_widgets/../lv_core/lv_obj_style_dec.h **** #define _OBJ_SET_STYLE_nonscalar(prop_name, func_name, value_type, style_type)                     
  92:lvgl\src\lv_widgets\../lv_widgets/../lv_core/lv_obj_style_dec.h ****     static inline void lv_style_set_##func_name (lv_style_t * style, lv_state_t state, value_type v
  93:lvgl\src\lv_widgets\../lv_widgets/../lv_core/lv_obj_style_dec.h ****     {                                                                                              
  94:lvgl\src\lv_widgets\../lv_widgets/../lv_core/lv_obj_style_dec.h ****         _lv_style_set##style_type (style, LV_STYLE_##prop_name | (state << LV_STYLE_STATE_POS), val
  95:lvgl\src\lv_widgets\../lv_widgets/../lv_core/lv_obj_style_dec.h ****     }
  96:lvgl\src\lv_widgets\../lv_widgets/../lv_core/lv_obj_style_dec.h **** 
  97:lvgl\src\lv_widgets\../lv_widgets/../lv_core/lv_obj_style_dec.h **** #define _LV_OBJ_STYLE_SET_GET_DECLARE(prop_name, func_name, value_type, style_type, scalar)        
  98:lvgl\src\lv_widgets\../lv_widgets/../lv_core/lv_obj_style_dec.h ****     _OBJ_GET_STYLE_##scalar(prop_name, func_name, value_type, style_type)                          
  99:lvgl\src\lv_widgets\../lv_widgets/../lv_core/lv_obj_style_dec.h ****     _OBJ_SET_STYLE_LOCAL_##scalar(prop_name, func_name, value_type, style_type)                    
 100:lvgl\src\lv_widgets\../lv_widgets/../lv_core/lv_obj_style_dec.h ****     _OBJ_SET_STYLE_##scalar(prop_name, func_name, value_type, style_type)
 101:lvgl\src\lv_widgets\../lv_widgets/../lv_core/lv_obj_style_dec.h **** 
 102:lvgl\src\lv_widgets\../lv_widgets/../lv_core/lv_obj_style_dec.h **** _LV_OBJ_STYLE_SET_GET_DECLARE(RADIUS, radius, lv_style_int_t, _int, scalar)
 103:lvgl\src\lv_widgets\../lv_widgets/../lv_core/lv_obj_style_dec.h **** _LV_OBJ_STYLE_SET_GET_DECLARE(CLIP_CORNER, clip_corner, bool, _int, scalar)
 104:lvgl\src\lv_widgets\../lv_widgets/../lv_core/lv_obj_style_dec.h **** _LV_OBJ_STYLE_SET_GET_DECLARE(SIZE, size, lv_style_int_t, _int, scalar)
 105:lvgl\src\lv_widgets\../lv_widgets/../lv_core/lv_obj_style_dec.h **** _LV_OBJ_STYLE_SET_GET_DECLARE(TRANSFORM_WIDTH, transform_width, lv_style_int_t, _int, scalar)
 106:lvgl\src\lv_widgets\../lv_widgets/../lv_core/lv_obj_style_dec.h **** _LV_OBJ_STYLE_SET_GET_DECLARE(TRANSFORM_HEIGHT, transform_height, lv_style_int_t, _int, scalar)
 107:lvgl\src\lv_widgets\../lv_widgets/../lv_core/lv_obj_style_dec.h **** _LV_OBJ_STYLE_SET_GET_DECLARE(TRANSFORM_ANGLE, transform_angle, lv_style_int_t, _int, scalar)
 108:lvgl\src\lv_widgets\../lv_widgets/../lv_core/lv_obj_style_dec.h **** _LV_OBJ_STYLE_SET_GET_DECLARE(TRANSFORM_ZOOM, transform_zoom, lv_style_int_t, _int, scalar)
 109:lvgl\src\lv_widgets\../lv_widgets/../lv_core/lv_obj_style_dec.h **** _LV_OBJ_STYLE_SET_GET_DECLARE(OPA_SCALE, opa_scale, lv_opa_t, _opa, scalar)
 110:lvgl\src\lv_widgets\../lv_widgets/../lv_core/lv_obj_style_dec.h **** _LV_OBJ_STYLE_SET_GET_DECLARE(PAD_TOP, pad_top, lv_style_int_t, _int, scalar)
 111:lvgl\src\lv_widgets\../lv_widgets/../lv_core/lv_obj_style_dec.h **** _LV_OBJ_STYLE_SET_GET_DECLARE(PAD_BOTTOM, pad_bottom, lv_style_int_t, _int, scalar)
 112:lvgl\src\lv_widgets\../lv_widgets/../lv_core/lv_obj_style_dec.h **** _LV_OBJ_STYLE_SET_GET_DECLARE(PAD_LEFT, pad_left, lv_style_int_t, _int, scalar)
 113:lvgl\src\lv_widgets\../lv_widgets/../lv_core/lv_obj_style_dec.h **** _LV_OBJ_STYLE_SET_GET_DECLARE(PAD_RIGHT, pad_right, lv_style_int_t, _int, scalar)
 114:lvgl\src\lv_widgets\../lv_widgets/../lv_core/lv_obj_style_dec.h **** _LV_OBJ_STYLE_SET_GET_DECLARE(PAD_INNER, pad_inner, lv_style_int_t, _int, scalar)
 115:lvgl\src\lv_widgets\../lv_widgets/../lv_core/lv_obj_style_dec.h **** _LV_OBJ_STYLE_SET_GET_DECLARE(MARGIN_TOP, margin_top, lv_style_int_t, _int, scalar)
 116:lvgl\src\lv_widgets\../lv_widgets/../lv_core/lv_obj_style_dec.h **** _LV_OBJ_STYLE_SET_GET_DECLARE(MARGIN_BOTTOM, margin_bottom, lv_style_int_t, _int, scalar)
 117:lvgl\src\lv_widgets\../lv_widgets/../lv_core/lv_obj_style_dec.h **** _LV_OBJ_STYLE_SET_GET_DECLARE(MARGIN_LEFT, margin_left, lv_style_int_t, _int, scalar)
 118:lvgl\src\lv_widgets\../lv_widgets/../lv_core/lv_obj_style_dec.h **** _LV_OBJ_STYLE_SET_GET_DECLARE(MARGIN_RIGHT, margin_right, lv_style_int_t, _int, scalar)
 119:lvgl\src\lv_widgets\../lv_widgets/../lv_core/lv_obj_style_dec.h **** _LV_OBJ_STYLE_SET_GET_DECLARE(BG_BLEND_MODE, bg_blend_mode, lv_blend_mode_t, _int, scalar)
 120:lvgl\src\lv_widgets\../lv_widgets/../lv_core/lv_obj_style_dec.h **** _LV_OBJ_STYLE_SET_GET_DECLARE(BG_MAIN_STOP, bg_main_stop, lv_style_int_t, _int, scalar)
 121:lvgl\src\lv_widgets\../lv_widgets/../lv_core/lv_obj_style_dec.h **** _LV_OBJ_STYLE_SET_GET_DECLARE(BG_GRAD_STOP, bg_grad_stop, lv_style_int_t, _int, scalar)
 122:lvgl\src\lv_widgets\../lv_widgets/../lv_core/lv_obj_style_dec.h **** _LV_OBJ_STYLE_SET_GET_DECLARE(BG_GRAD_DIR, bg_grad_dir, lv_grad_dir_t, _int, scalar)
 123:lvgl\src\lv_widgets\../lv_widgets/../lv_core/lv_obj_style_dec.h **** _LV_OBJ_STYLE_SET_GET_DECLARE(BG_COLOR, bg_color, lv_color_t, _color, nonscalar)
 124:lvgl\src\lv_widgets\../lv_widgets/../lv_core/lv_obj_style_dec.h **** _LV_OBJ_STYLE_SET_GET_DECLARE(BG_GRAD_COLOR, bg_grad_color, lv_color_t, _color, nonscalar)
 125:lvgl\src\lv_widgets\../lv_widgets/../lv_core/lv_obj_style_dec.h **** _LV_OBJ_STYLE_SET_GET_DECLARE(BG_OPA, bg_opa, lv_opa_t, _opa, scalar)
 126:lvgl\src\lv_widgets\../lv_widgets/../lv_core/lv_obj_style_dec.h **** _LV_OBJ_STYLE_SET_GET_DECLARE(BORDER_WIDTH, border_width, lv_style_int_t, _int, scalar)
 127:lvgl\src\lv_widgets\../lv_widgets/../lv_core/lv_obj_style_dec.h **** _LV_OBJ_STYLE_SET_GET_DECLARE(BORDER_SIDE, border_side, lv_border_side_t, _int, scalar)
 128:lvgl\src\lv_widgets\../lv_widgets/../lv_core/lv_obj_style_dec.h **** _LV_OBJ_STYLE_SET_GET_DECLARE(BORDER_BLEND_MODE, border_blend_mode, lv_blend_mode_t, _int, scalar)
 129:lvgl\src\lv_widgets\../lv_widgets/../lv_core/lv_obj_style_dec.h **** _LV_OBJ_STYLE_SET_GET_DECLARE(BORDER_POST, border_post, bool, _int, scalar)
 130:lvgl\src\lv_widgets\../lv_widgets/../lv_core/lv_obj_style_dec.h **** _LV_OBJ_STYLE_SET_GET_DECLARE(BORDER_COLOR, border_color, lv_color_t, _color, nonscalar)
 131:lvgl\src\lv_widgets\../lv_widgets/../lv_core/lv_obj_style_dec.h **** _LV_OBJ_STYLE_SET_GET_DECLARE(BORDER_OPA, border_opa, lv_opa_t, _opa, scalar)
 132:lvgl\src\lv_widgets\../lv_widgets/../lv_core/lv_obj_style_dec.h **** _LV_OBJ_STYLE_SET_GET_DECLARE(OUTLINE_WIDTH, outline_width, lv_style_int_t, _int, scalar)
 133:lvgl\src\lv_widgets\../lv_widgets/../lv_core/lv_obj_style_dec.h **** _LV_OBJ_STYLE_SET_GET_DECLARE(OUTLINE_PAD, outline_pad, lv_style_int_t, _int, scalar)
 134:lvgl\src\lv_widgets\../lv_widgets/../lv_core/lv_obj_style_dec.h **** _LV_OBJ_STYLE_SET_GET_DECLARE(OUTLINE_BLEND_MODE, outline_blend_mode, lv_blend_mode_t, _int, scalar
 135:lvgl\src\lv_widgets\../lv_widgets/../lv_core/lv_obj_style_dec.h **** _LV_OBJ_STYLE_SET_GET_DECLARE(OUTLINE_COLOR, outline_color, lv_color_t, _color, nonscalar)
 136:lvgl\src\lv_widgets\../lv_widgets/../lv_core/lv_obj_style_dec.h **** _LV_OBJ_STYLE_SET_GET_DECLARE(OUTLINE_OPA, outline_opa, lv_opa_t, _opa, scalar)
 137:lvgl\src\lv_widgets\../lv_widgets/../lv_core/lv_obj_style_dec.h **** _LV_OBJ_STYLE_SET_GET_DECLARE(SHADOW_WIDTH, shadow_width, lv_style_int_t, _int, scalar)
 138:lvgl\src\lv_widgets\../lv_widgets/../lv_core/lv_obj_style_dec.h **** _LV_OBJ_STYLE_SET_GET_DECLARE(SHADOW_OFS_X, shadow_ofs_x, lv_style_int_t, _int, scalar)
 139:lvgl\src\lv_widgets\../lv_widgets/../lv_core/lv_obj_style_dec.h **** _LV_OBJ_STYLE_SET_GET_DECLARE(SHADOW_OFS_Y, shadow_ofs_y, lv_style_int_t, _int, scalar)
 140:lvgl\src\lv_widgets\../lv_widgets/../lv_core/lv_obj_style_dec.h **** _LV_OBJ_STYLE_SET_GET_DECLARE(SHADOW_SPREAD, shadow_spread, lv_style_int_t, _int, scalar)
 141:lvgl\src\lv_widgets\../lv_widgets/../lv_core/lv_obj_style_dec.h **** _LV_OBJ_STYLE_SET_GET_DECLARE(SHADOW_BLEND_MODE, shadow_blend_mode, lv_blend_mode_t, _int, scalar)
 142:lvgl\src\lv_widgets\../lv_widgets/../lv_core/lv_obj_style_dec.h **** _LV_OBJ_STYLE_SET_GET_DECLARE(SHADOW_COLOR, shadow_color, lv_color_t, _color, nonscalar)
 143:lvgl\src\lv_widgets\../lv_widgets/../lv_core/lv_obj_style_dec.h **** _LV_OBJ_STYLE_SET_GET_DECLARE(SHADOW_OPA, shadow_opa, lv_opa_t, _opa, scalar)
 144:lvgl\src\lv_widgets\../lv_widgets/../lv_core/lv_obj_style_dec.h **** _LV_OBJ_STYLE_SET_GET_DECLARE(PATTERN_REPEAT, pattern_repeat, bool, _int, scalar)
ARM GAS  C:\Users\strap\AppData\Local\Temp\ccf5xETM.s 			page 30


 145:lvgl\src\lv_widgets\../lv_widgets/../lv_core/lv_obj_style_dec.h **** _LV_OBJ_STYLE_SET_GET_DECLARE(PATTERN_BLEND_MODE, pattern_blend_mode, lv_blend_mode_t, _int, scalar
 146:lvgl\src\lv_widgets\../lv_widgets/../lv_core/lv_obj_style_dec.h **** _LV_OBJ_STYLE_SET_GET_DECLARE(PATTERN_RECOLOR, pattern_recolor, lv_color_t, _color, nonscalar)
 147:lvgl\src\lv_widgets\../lv_widgets/../lv_core/lv_obj_style_dec.h **** _LV_OBJ_STYLE_SET_GET_DECLARE(PATTERN_OPA, pattern_opa, lv_opa_t, _opa, scalar)
 148:lvgl\src\lv_widgets\../lv_widgets/../lv_core/lv_obj_style_dec.h **** _LV_OBJ_STYLE_SET_GET_DECLARE(PATTERN_RECOLOR_OPA, pattern_recolor_opa, lv_opa_t, _opa, scalar)
 149:lvgl\src\lv_widgets\../lv_widgets/../lv_core/lv_obj_style_dec.h **** _LV_OBJ_STYLE_SET_GET_DECLARE(PATTERN_IMAGE, pattern_image, const void *, _ptr, scalar)
 150:lvgl\src\lv_widgets\../lv_widgets/../lv_core/lv_obj_style_dec.h **** _LV_OBJ_STYLE_SET_GET_DECLARE(VALUE_LETTER_SPACE, value_letter_space, lv_style_int_t, _int, scalar)
 151:lvgl\src\lv_widgets\../lv_widgets/../lv_core/lv_obj_style_dec.h **** _LV_OBJ_STYLE_SET_GET_DECLARE(VALUE_LINE_SPACE, value_line_space, lv_style_int_t, _int, scalar)
 152:lvgl\src\lv_widgets\../lv_widgets/../lv_core/lv_obj_style_dec.h **** _LV_OBJ_STYLE_SET_GET_DECLARE(VALUE_BLEND_MODE, value_blend_mode, lv_blend_mode_t, _int, scalar)
 153:lvgl\src\lv_widgets\../lv_widgets/../lv_core/lv_obj_style_dec.h **** _LV_OBJ_STYLE_SET_GET_DECLARE(VALUE_OFS_X, value_ofs_x, lv_style_int_t, _int, scalar)
 154:lvgl\src\lv_widgets\../lv_widgets/../lv_core/lv_obj_style_dec.h **** _LV_OBJ_STYLE_SET_GET_DECLARE(VALUE_OFS_Y, value_ofs_y, lv_style_int_t, _int, scalar)
 155:lvgl\src\lv_widgets\../lv_widgets/../lv_core/lv_obj_style_dec.h **** _LV_OBJ_STYLE_SET_GET_DECLARE(VALUE_ALIGN, value_align, lv_align_t, _int, scalar)
 156:lvgl\src\lv_widgets\../lv_widgets/../lv_core/lv_obj_style_dec.h **** _LV_OBJ_STYLE_SET_GET_DECLARE(VALUE_COLOR, value_color, lv_color_t, _color, nonscalar)
 157:lvgl\src\lv_widgets\../lv_widgets/../lv_core/lv_obj_style_dec.h **** _LV_OBJ_STYLE_SET_GET_DECLARE(VALUE_OPA, value_opa, lv_opa_t, _opa, scalar)
 158:lvgl\src\lv_widgets\../lv_widgets/../lv_core/lv_obj_style_dec.h **** _LV_OBJ_STYLE_SET_GET_DECLARE(VALUE_FONT, value_font, const lv_font_t *, _ptr, scalar)
 159:lvgl\src\lv_widgets\../lv_widgets/../lv_core/lv_obj_style_dec.h **** _LV_OBJ_STYLE_SET_GET_DECLARE(VALUE_STR, value_str, const char *, _ptr, scalar)
 160:lvgl\src\lv_widgets\../lv_widgets/../lv_core/lv_obj_style_dec.h **** _LV_OBJ_STYLE_SET_GET_DECLARE(TEXT_LETTER_SPACE, text_letter_space, lv_style_int_t, _int, scalar)
 161:lvgl\src\lv_widgets\../lv_widgets/../lv_core/lv_obj_style_dec.h **** _LV_OBJ_STYLE_SET_GET_DECLARE(TEXT_LINE_SPACE, text_line_space, lv_style_int_t, _int, scalar)
 162:lvgl\src\lv_widgets\../lv_widgets/../lv_core/lv_obj_style_dec.h **** _LV_OBJ_STYLE_SET_GET_DECLARE(TEXT_DECOR, text_decor, lv_text_decor_t, _int, scalar)
 163:lvgl\src\lv_widgets\../lv_widgets/../lv_core/lv_obj_style_dec.h **** _LV_OBJ_STYLE_SET_GET_DECLARE(TEXT_BLEND_MODE, text_blend_mode, lv_blend_mode_t, _int, scalar)
 164:lvgl\src\lv_widgets\../lv_widgets/../lv_core/lv_obj_style_dec.h **** _LV_OBJ_STYLE_SET_GET_DECLARE(TEXT_COLOR, text_color, lv_color_t, _color, nonscalar)
 165:lvgl\src\lv_widgets\../lv_widgets/../lv_core/lv_obj_style_dec.h **** _LV_OBJ_STYLE_SET_GET_DECLARE(TEXT_SEL_COLOR, text_sel_color, lv_color_t, _color, nonscalar)
 166:lvgl\src\lv_widgets\../lv_widgets/../lv_core/lv_obj_style_dec.h **** _LV_OBJ_STYLE_SET_GET_DECLARE(TEXT_SEL_BG_COLOR, text_sel_bg_color, lv_color_t, _color, nonscalar)
 167:lvgl\src\lv_widgets\../lv_widgets/../lv_core/lv_obj_style_dec.h **** _LV_OBJ_STYLE_SET_GET_DECLARE(TEXT_OPA, text_opa, lv_opa_t, _opa, scalar)
 168:lvgl\src\lv_widgets\../lv_widgets/../lv_core/lv_obj_style_dec.h **** _LV_OBJ_STYLE_SET_GET_DECLARE(TEXT_FONT, text_font, const lv_font_t *, _ptr, scalar)
 177              		.loc 2 168 0
 178 000c 48F28E02 		movw	r2, #32910
 179 0010 4021     		movs	r1, #64
 180 0012 4046     		mov	r0, r8
 181              	.LVL22:
 182 0014 FFF7FEFF 		bl	_lv_obj_get_style_ptr
 183              	.LVL23:
 184              	.LBE73:
 185              	.LBE72:
 186              	.LBB74:
 187              	.LBB75:
 188              		.file 3 "lvgl\\src\\lv_widgets\\../lv_widgets/../lv_core/../lv_font/lv_font.h"
   1:lvgl\src\lv_widgets\../lv_widgets/../lv_core/../lv_font/lv_font.h **** /**
   2:lvgl\src\lv_widgets\../lv_widgets/../lv_core/../lv_font/lv_font.h ****  * @file lv_font.h
   3:lvgl\src\lv_widgets\../lv_widgets/../lv_core/../lv_font/lv_font.h ****  *
   4:lvgl\src\lv_widgets\../lv_widgets/../lv_core/../lv_font/lv_font.h ****  */
   5:lvgl\src\lv_widgets\../lv_widgets/../lv_core/../lv_font/lv_font.h **** 
   6:lvgl\src\lv_widgets\../lv_widgets/../lv_core/../lv_font/lv_font.h **** #ifndef LV_FONT_H
   7:lvgl\src\lv_widgets\../lv_widgets/../lv_core/../lv_font/lv_font.h **** #define LV_FONT_H
   8:lvgl\src\lv_widgets\../lv_widgets/../lv_core/../lv_font/lv_font.h **** 
   9:lvgl\src\lv_widgets\../lv_widgets/../lv_core/../lv_font/lv_font.h **** #ifdef __cplusplus
  10:lvgl\src\lv_widgets\../lv_widgets/../lv_core/../lv_font/lv_font.h **** extern "C" {
  11:lvgl\src\lv_widgets\../lv_widgets/../lv_core/../lv_font/lv_font.h **** #endif
  12:lvgl\src\lv_widgets\../lv_widgets/../lv_core/../lv_font/lv_font.h **** 
  13:lvgl\src\lv_widgets\../lv_widgets/../lv_core/../lv_font/lv_font.h **** /*********************
  14:lvgl\src\lv_widgets\../lv_widgets/../lv_core/../lv_font/lv_font.h ****  *      INCLUDES
  15:lvgl\src\lv_widgets\../lv_widgets/../lv_core/../lv_font/lv_font.h ****  *********************/
  16:lvgl\src\lv_widgets\../lv_widgets/../lv_core/../lv_font/lv_font.h **** #include "../lv_conf_internal.h"
  17:lvgl\src\lv_widgets\../lv_widgets/../lv_core/../lv_font/lv_font.h **** #include <stdint.h>
  18:lvgl\src\lv_widgets\../lv_widgets/../lv_core/../lv_font/lv_font.h **** #include <stddef.h>
  19:lvgl\src\lv_widgets\../lv_widgets/../lv_core/../lv_font/lv_font.h **** #include <stdbool.h>
  20:lvgl\src\lv_widgets\../lv_widgets/../lv_core/../lv_font/lv_font.h **** 
  21:lvgl\src\lv_widgets\../lv_widgets/../lv_core/../lv_font/lv_font.h **** #include "lv_symbol_def.h"
ARM GAS  C:\Users\strap\AppData\Local\Temp\ccf5xETM.s 			page 31


  22:lvgl\src\lv_widgets\../lv_widgets/../lv_core/../lv_font/lv_font.h **** #include "../lv_misc/lv_area.h"
  23:lvgl\src\lv_widgets\../lv_widgets/../lv_core/../lv_font/lv_font.h **** 
  24:lvgl\src\lv_widgets\../lv_widgets/../lv_core/../lv_font/lv_font.h **** /*********************
  25:lvgl\src\lv_widgets\../lv_widgets/../lv_core/../lv_font/lv_font.h ****  *      DEFINES
  26:lvgl\src\lv_widgets\../lv_widgets/../lv_core/../lv_font/lv_font.h ****  *********************/
  27:lvgl\src\lv_widgets\../lv_widgets/../lv_core/../lv_font/lv_font.h **** /*Number of fractional digits in the advanced width (`adv_w`) field of `lv_font_glyph_dsc_t`*/
  28:lvgl\src\lv_widgets\../lv_widgets/../lv_core/../lv_font/lv_font.h **** #define LV_FONT_WIDTH_FRACT_DIGIT       4
  29:lvgl\src\lv_widgets\../lv_widgets/../lv_core/../lv_font/lv_font.h **** 
  30:lvgl\src\lv_widgets\../lv_widgets/../lv_core/../lv_font/lv_font.h **** #define LV_FONT_KERN_POSITIVE        0
  31:lvgl\src\lv_widgets\../lv_widgets/../lv_core/../lv_font/lv_font.h **** #define LV_FONT_KERN_NEGATIVE        1
  32:lvgl\src\lv_widgets\../lv_widgets/../lv_core/../lv_font/lv_font.h **** 
  33:lvgl\src\lv_widgets\../lv_widgets/../lv_core/../lv_font/lv_font.h **** /**********************
  34:lvgl\src\lv_widgets\../lv_widgets/../lv_core/../lv_font/lv_font.h ****  *      TYPEDEFS
  35:lvgl\src\lv_widgets\../lv_widgets/../lv_core/../lv_font/lv_font.h ****  **********************/
  36:lvgl\src\lv_widgets\../lv_widgets/../lv_core/../lv_font/lv_font.h **** 
  37:lvgl\src\lv_widgets\../lv_widgets/../lv_core/../lv_font/lv_font.h **** /*------------------
  38:lvgl\src\lv_widgets\../lv_widgets/../lv_core/../lv_font/lv_font.h ****  * General types
  39:lvgl\src\lv_widgets\../lv_widgets/../lv_core/../lv_font/lv_font.h ****  *-----------------*/
  40:lvgl\src\lv_widgets\../lv_widgets/../lv_core/../lv_font/lv_font.h **** 
  41:lvgl\src\lv_widgets\../lv_widgets/../lv_core/../lv_font/lv_font.h **** /** Describes the properties of a glyph. */
  42:lvgl\src\lv_widgets\../lv_widgets/../lv_core/../lv_font/lv_font.h **** typedef struct {
  43:lvgl\src\lv_widgets\../lv_widgets/../lv_core/../lv_font/lv_font.h ****     uint16_t adv_w; /**< The glyph needs this space. Draw the next glyph after this width. 8 bit in
  44:lvgl\src\lv_widgets\../lv_widgets/../lv_core/../lv_font/lv_font.h ****     uint16_t box_w;  /**< Width of the glyph's bounding box*/
  45:lvgl\src\lv_widgets\../lv_widgets/../lv_core/../lv_font/lv_font.h ****     uint16_t box_h;  /**< Height of the glyph's bounding box*/
  46:lvgl\src\lv_widgets\../lv_widgets/../lv_core/../lv_font/lv_font.h ****     int16_t ofs_x;   /**< x offset of the bounding box*/
  47:lvgl\src\lv_widgets\../lv_widgets/../lv_core/../lv_font/lv_font.h ****     int16_t ofs_y;  /**< y offset of the bounding box*/
  48:lvgl\src\lv_widgets\../lv_widgets/../lv_core/../lv_font/lv_font.h ****     uint8_t bpp;   /**< Bit-per-pixel: 1, 2, 4, 8*/
  49:lvgl\src\lv_widgets\../lv_widgets/../lv_core/../lv_font/lv_font.h **** } lv_font_glyph_dsc_t;
  50:lvgl\src\lv_widgets\../lv_widgets/../lv_core/../lv_font/lv_font.h **** 
  51:lvgl\src\lv_widgets\../lv_widgets/../lv_core/../lv_font/lv_font.h **** 
  52:lvgl\src\lv_widgets\../lv_widgets/../lv_core/../lv_font/lv_font.h **** /** The bitmaps might be upscaled by 3 to achieve subpixel rendering. */
  53:lvgl\src\lv_widgets\../lv_widgets/../lv_core/../lv_font/lv_font.h **** enum {
  54:lvgl\src\lv_widgets\../lv_widgets/../lv_core/../lv_font/lv_font.h ****     LV_FONT_SUBPX_NONE,
  55:lvgl\src\lv_widgets\../lv_widgets/../lv_core/../lv_font/lv_font.h ****     LV_FONT_SUBPX_HOR,
  56:lvgl\src\lv_widgets\../lv_widgets/../lv_core/../lv_font/lv_font.h ****     LV_FONT_SUBPX_VER,
  57:lvgl\src\lv_widgets\../lv_widgets/../lv_core/../lv_font/lv_font.h ****     LV_FONT_SUBPX_BOTH,
  58:lvgl\src\lv_widgets\../lv_widgets/../lv_core/../lv_font/lv_font.h **** };
  59:lvgl\src\lv_widgets\../lv_widgets/../lv_core/../lv_font/lv_font.h **** 
  60:lvgl\src\lv_widgets\../lv_widgets/../lv_core/../lv_font/lv_font.h **** typedef uint8_t lv_font_subpx_t;
  61:lvgl\src\lv_widgets\../lv_widgets/../lv_core/../lv_font/lv_font.h **** 
  62:lvgl\src\lv_widgets\../lv_widgets/../lv_core/../lv_font/lv_font.h **** /** Describe the properties of a font*/
  63:lvgl\src\lv_widgets\../lv_widgets/../lv_core/../lv_font/lv_font.h **** typedef struct _lv_font_struct {
  64:lvgl\src\lv_widgets\../lv_widgets/../lv_core/../lv_font/lv_font.h ****     /** Get a glyph's  descriptor from a font*/
  65:lvgl\src\lv_widgets\../lv_widgets/../lv_core/../lv_font/lv_font.h ****     bool (*get_glyph_dsc)(const struct _lv_font_struct *, lv_font_glyph_dsc_t *, uint32_t letter, u
  66:lvgl\src\lv_widgets\../lv_widgets/../lv_core/../lv_font/lv_font.h **** 
  67:lvgl\src\lv_widgets\../lv_widgets/../lv_core/../lv_font/lv_font.h ****     /** Get a glyph's bitmap from a font*/
  68:lvgl\src\lv_widgets\../lv_widgets/../lv_core/../lv_font/lv_font.h ****     const uint8_t * (*get_glyph_bitmap)(const struct _lv_font_struct *, uint32_t);
  69:lvgl\src\lv_widgets\../lv_widgets/../lv_core/../lv_font/lv_font.h **** 
  70:lvgl\src\lv_widgets\../lv_widgets/../lv_core/../lv_font/lv_font.h ****     /*Pointer to the font in a font pack (must have the same line height)*/
  71:lvgl\src\lv_widgets\../lv_widgets/../lv_core/../lv_font/lv_font.h ****     lv_coord_t line_height;         /**< The real line height where any text fits*/
  72:lvgl\src\lv_widgets\../lv_widgets/../lv_core/../lv_font/lv_font.h ****     lv_coord_t base_line;           /**< Base line measured from the top of the line_height*/
  73:lvgl\src\lv_widgets\../lv_widgets/../lv_core/../lv_font/lv_font.h ****     uint8_t subpx  : 2;             /**< An element of `lv_font_subpx_t`*/
  74:lvgl\src\lv_widgets\../lv_widgets/../lv_core/../lv_font/lv_font.h **** 
  75:lvgl\src\lv_widgets\../lv_widgets/../lv_core/../lv_font/lv_font.h ****     int8_t underline_position;      /**< Distance between the top of the underline and base line (<
  76:lvgl\src\lv_widgets\../lv_widgets/../lv_core/../lv_font/lv_font.h ****     int8_t  underline_thickness;     /**< Thickness of the underline*/
  77:lvgl\src\lv_widgets\../lv_widgets/../lv_core/../lv_font/lv_font.h **** 
  78:lvgl\src\lv_widgets\../lv_widgets/../lv_core/../lv_font/lv_font.h ****     void * dsc;                     /**< Store implementation specific or run_time data or caching 
ARM GAS  C:\Users\strap\AppData\Local\Temp\ccf5xETM.s 			page 32


  79:lvgl\src\lv_widgets\../lv_widgets/../lv_core/../lv_font/lv_font.h **** #if LV_USE_USER_DATA
  80:lvgl\src\lv_widgets\../lv_widgets/../lv_core/../lv_font/lv_font.h ****     lv_font_user_data_t user_data;  /**< Custom user data for font. */
  81:lvgl\src\lv_widgets\../lv_widgets/../lv_core/../lv_font/lv_font.h **** #endif
  82:lvgl\src\lv_widgets\../lv_widgets/../lv_core/../lv_font/lv_font.h **** 
  83:lvgl\src\lv_widgets\../lv_widgets/../lv_core/../lv_font/lv_font.h **** 
  84:lvgl\src\lv_widgets\../lv_widgets/../lv_core/../lv_font/lv_font.h **** } lv_font_t;
  85:lvgl\src\lv_widgets\../lv_widgets/../lv_core/../lv_font/lv_font.h **** 
  86:lvgl\src\lv_widgets\../lv_widgets/../lv_core/../lv_font/lv_font.h **** /**********************
  87:lvgl\src\lv_widgets\../lv_widgets/../lv_core/../lv_font/lv_font.h ****  * GLOBAL PROTOTYPES
  88:lvgl\src\lv_widgets\../lv_widgets/../lv_core/../lv_font/lv_font.h ****  **********************/
  89:lvgl\src\lv_widgets\../lv_widgets/../lv_core/../lv_font/lv_font.h **** 
  90:lvgl\src\lv_widgets\../lv_widgets/../lv_core/../lv_font/lv_font.h **** /**
  91:lvgl\src\lv_widgets\../lv_widgets/../lv_core/../lv_font/lv_font.h ****  * Return with the bitmap of a font.
  92:lvgl\src\lv_widgets\../lv_widgets/../lv_core/../lv_font/lv_font.h ****  * @param font_p pointer to a font
  93:lvgl\src\lv_widgets\../lv_widgets/../lv_core/../lv_font/lv_font.h ****  * @param letter an UNICODE character code
  94:lvgl\src\lv_widgets\../lv_widgets/../lv_core/../lv_font/lv_font.h ****  * @return  pointer to the bitmap of the letter
  95:lvgl\src\lv_widgets\../lv_widgets/../lv_core/../lv_font/lv_font.h ****  */
  96:lvgl\src\lv_widgets\../lv_widgets/../lv_core/../lv_font/lv_font.h **** const uint8_t * lv_font_get_glyph_bitmap(const lv_font_t * font_p, uint32_t letter);
  97:lvgl\src\lv_widgets\../lv_widgets/../lv_core/../lv_font/lv_font.h **** 
  98:lvgl\src\lv_widgets\../lv_widgets/../lv_core/../lv_font/lv_font.h **** /**
  99:lvgl\src\lv_widgets\../lv_widgets/../lv_core/../lv_font/lv_font.h ****  * Get the descriptor of a glyph
 100:lvgl\src\lv_widgets\../lv_widgets/../lv_core/../lv_font/lv_font.h ****  * @param font_p pointer to font
 101:lvgl\src\lv_widgets\../lv_widgets/../lv_core/../lv_font/lv_font.h ****  * @param dsc_out store the result descriptor here
 102:lvgl\src\lv_widgets\../lv_widgets/../lv_core/../lv_font/lv_font.h ****  * @param letter an UNICODE letter code
 103:lvgl\src\lv_widgets\../lv_widgets/../lv_core/../lv_font/lv_font.h ****  * @return true: descriptor is successfully loaded into `dsc_out`.
 104:lvgl\src\lv_widgets\../lv_widgets/../lv_core/../lv_font/lv_font.h ****  *         false: the letter was not found, no data is loaded to `dsc_out`
 105:lvgl\src\lv_widgets\../lv_widgets/../lv_core/../lv_font/lv_font.h ****  */
 106:lvgl\src\lv_widgets\../lv_widgets/../lv_core/../lv_font/lv_font.h **** bool lv_font_get_glyph_dsc(const lv_font_t * font_p, lv_font_glyph_dsc_t * dsc_out, uint32_t letter
 107:lvgl\src\lv_widgets\../lv_widgets/../lv_core/../lv_font/lv_font.h ****                            uint32_t letter_next);
 108:lvgl\src\lv_widgets\../lv_widgets/../lv_core/../lv_font/lv_font.h **** 
 109:lvgl\src\lv_widgets\../lv_widgets/../lv_core/../lv_font/lv_font.h **** /**
 110:lvgl\src\lv_widgets\../lv_widgets/../lv_core/../lv_font/lv_font.h ****  * Get the width of a glyph with kerning
 111:lvgl\src\lv_widgets\../lv_widgets/../lv_core/../lv_font/lv_font.h ****  * @param font pointer to a font
 112:lvgl\src\lv_widgets\../lv_widgets/../lv_core/../lv_font/lv_font.h ****  * @param letter an UNICODE letter
 113:lvgl\src\lv_widgets\../lv_widgets/../lv_core/../lv_font/lv_font.h ****  * @param letter_next the next letter after `letter`. Used for kerning
 114:lvgl\src\lv_widgets\../lv_widgets/../lv_core/../lv_font/lv_font.h ****  * @return the width of the glyph
 115:lvgl\src\lv_widgets\../lv_widgets/../lv_core/../lv_font/lv_font.h ****  */
 116:lvgl\src\lv_widgets\../lv_widgets/../lv_core/../lv_font/lv_font.h **** uint16_t lv_font_get_glyph_width(const lv_font_t * font, uint32_t letter, uint32_t letter_next);
 117:lvgl\src\lv_widgets\../lv_widgets/../lv_core/../lv_font/lv_font.h **** 
 118:lvgl\src\lv_widgets\../lv_widgets/../lv_core/../lv_font/lv_font.h **** /**
 119:lvgl\src\lv_widgets\../lv_widgets/../lv_core/../lv_font/lv_font.h ****  * Get the line height of a font. All characters fit into this height
 120:lvgl\src\lv_widgets\../lv_widgets/../lv_core/../lv_font/lv_font.h ****  * @param font_p pointer to a font
 121:lvgl\src\lv_widgets\../lv_widgets/../lv_core/../lv_font/lv_font.h ****  * @return the height of a font
 122:lvgl\src\lv_widgets\../lv_widgets/../lv_core/../lv_font/lv_font.h ****  */
 123:lvgl\src\lv_widgets\../lv_widgets/../lv_core/../lv_font/lv_font.h **** static inline lv_coord_t lv_font_get_line_height(const lv_font_t * font_p)
 124:lvgl\src\lv_widgets\../lv_widgets/../lv_core/../lv_font/lv_font.h **** {
 125:lvgl\src\lv_widgets\../lv_widgets/../lv_core/../lv_font/lv_font.h ****     return font_p->line_height;
 189              		.loc 3 125 0
 190 0018 B0F90870 		ldrsh	r7, [r0, #8]
 191              	.LBE75:
 192              	.LBE74:
1310:lvgl\src\lv_widgets/lv_dropdown.c ****     lv_obj_t * label = get_label(ddlist);
 193              		.loc 1 1310 0
 194 001c 2068     		ldr	r0, [r4]
 195 001e FFF7FEFF 		bl	lv_page_get_scrollable
 196              	.LVL24:
 197 0022 0546     		mov	r5, r0
ARM GAS  C:\Users\strap\AppData\Local\Temp\ccf5xETM.s 			page 33


 198              	.LVL25:
1311:lvgl\src\lv_widgets/lv_dropdown.c ****     if(label == NULL) return;
 199              		.loc 1 1311 0
 200 0024 4046     		mov	r0, r8
 201              	.LVL26:
 202 0026 FFF7FEFF 		bl	get_label
 203              	.LVL27:
1312:lvgl\src\lv_widgets/lv_dropdown.c **** 
 204              		.loc 1 1312 0
 205 002a 00B3     		cbz	r0, .L17
 206 002c 8146     		mov	r9, r0
1314:lvgl\src\lv_widgets/lv_dropdown.c ****     lv_style_int_t line_space = lv_obj_get_style_text_line_space(ddlist, LV_DROPDOWN_PART_LIST);
 207              		.loc 1 1314 0
 208 002e 2068     		ldr	r0, [r4]
 209              	.LVL28:
 210 0030 FFF7FEFF 		bl	lv_obj_get_height
 211              	.LVL29:
 212 0034 0646     		mov	r6, r0
 213              	.LVL30:
 214              	.LBB76:
 215              	.LBB77:
 161:lvgl\src\lv_widgets\../lv_widgets/../lv_core/lv_obj_style_dec.h **** _LV_OBJ_STYLE_SET_GET_DECLARE(TEXT_DECOR, text_decor, lv_text_decor_t, _int, scalar)
 216              		.loc 2 161 0
 217 0036 48F28102 		movw	r2, #32897
 218 003a 4021     		movs	r1, #64
 219 003c 4046     		mov	r0, r8
 220 003e FFF7FEFF 		bl	_lv_obj_get_style_int
 221              	.LVL31:
 222              	.LBE77:
 223              	.LBE76:
1317:lvgl\src\lv_widgets/lv_dropdown.c **** 
 224              		.loc 1 1317 0
 225 0042 A38D     		ldrh	r3, [r4, #44]
 226 0044 3844     		add	r0, r0, r7
 227 0046 B9F91210 		ldrsh	r1, [r9, #18]
 228 004a B5F91220 		ldrsh	r2, [r5, #18]
 229 004e 00FB0313 		mla	r3, r0, r3, r1
 230 0052 991A     		subs	r1, r3, r2
 231 0054 8BB2     		uxth	r3, r1
 232              	.LVL32:
1319:lvgl\src\lv_widgets/lv_dropdown.c ****     lv_obj_invalidate(ext->page);
 233              		.loc 1 1319 0
 234 0056 F11B     		subs	r1, r6, r7
 235 0058 01EBD171 		add	r1, r1, r1, lsr #31
 236 005c C3EB6101 		rsb	r1, r3, r1, asr #1
 237 0060 09B2     		sxth	r1, r1
 238 0062 2846     		mov	r0, r5
 239 0064 FFF7FEFF 		bl	lv_obj_set_y
 240              	.LVL33:
1320:lvgl\src\lv_widgets/lv_dropdown.c **** }
 241              		.loc 1 1320 0
 242 0068 2068     		ldr	r0, [r4]
 243 006a FFF7FEFF 		bl	lv_obj_invalidate
 244              	.LVL34:
 245              	.L17:
 246 006e BDE8F883 		pop	{r3, r4, r5, r6, r7, r8, r9, pc}
 247              		.cfi_endproc
ARM GAS  C:\Users\strap\AppData\Local\Temp\ccf5xETM.s 			page 34


 248              	.LFE381:
 249              		.size	position_to_selected, .-position_to_selected
 250 0072 00BF     		.section	.text.get_id_on_point,"ax",%progbits
 251              		.align	2
 252              		.thumb
 253              		.thumb_func
 254              		.type	get_id_on_point, %function
 255              	get_id_on_point:
 256              	.LFB380:
1283:lvgl\src\lv_widgets/lv_dropdown.c ****     lv_obj_t * label = get_label(ddlist);
 257              		.loc 1 1283 0
 258              		.cfi_startproc
 259              		@ args = 0, pretend = 0, frame = 0
 260              		@ frame_needed = 0, uses_anonymous_args = 0
 261              	.LVL35:
 262 0000 70B5     		push	{r4, r5, r6, lr}
 263              		.cfi_def_cfa_offset 16
 264              		.cfi_offset 4, -16
 265              		.cfi_offset 5, -12
 266              		.cfi_offset 6, -8
 267              		.cfi_offset 14, -4
 268 0002 0C46     		mov	r4, r1
1284:lvgl\src\lv_widgets/lv_dropdown.c ****     if(label == NULL) return 0;
 269              		.loc 1 1284 0
 270 0004 FFF7FEFF 		bl	get_label
 271              	.LVL36:
1285:lvgl\src\lv_widgets/lv_dropdown.c ****     y -= label->coords.y1;
 272              		.loc 1 1285 0
 273 0008 E0B1     		cbz	r0, .L22
 274 000a 0546     		mov	r5, r0
1286:lvgl\src\lv_widgets/lv_dropdown.c **** 
 275              		.loc 1 1286 0
 276 000c B0F91230 		ldrsh	r3, [r0, #18]
 277 0010 E41A     		subs	r4, r4, r3
 278 0012 A4B2     		uxth	r4, r4
 279              	.LVL37:
 280              	.LBB78:
 281              	.LBB79:
 282              		.loc 2 168 0
 283 0014 48F28E02 		movw	r2, #32910
 284 0018 0021     		movs	r1, #0
 285 001a FFF7FEFF 		bl	_lv_obj_get_style_ptr
 286              	.LVL38:
 287              	.LBE79:
 288              	.LBE78:
 289              	.LBB80:
 290              	.LBB81:
 291              		.loc 3 125 0
 292 001e B0F90860 		ldrsh	r6, [r0, #8]
 293              	.LVL39:
 294              	.LBE81:
 295              	.LBE80:
 296              	.LBB82:
 297              	.LBB83:
 161:lvgl\src\lv_widgets\../lv_widgets/../lv_core/lv_obj_style_dec.h **** _LV_OBJ_STYLE_SET_GET_DECLARE(TEXT_DECOR, text_decor, lv_text_decor_t, _int, scalar)
 298              		.loc 2 161 0
 299 0022 48F28102 		movw	r2, #32897
ARM GAS  C:\Users\strap\AppData\Local\Temp\ccf5xETM.s 			page 35


 300 0026 0021     		movs	r1, #0
 301 0028 2846     		mov	r0, r5
 302 002a FFF7FEFF 		bl	_lv_obj_get_style_int
 303              	.LVL40:
 304              	.LBE83:
 305              	.LBE82:
1292:lvgl\src\lv_widgets/lv_dropdown.c ****     lv_coord_t h = font_h + line_space;
 306              		.loc 1 1292 0
 307 002e 00EBD073 		add	r3, r0, r0, lsr #31
 308 0032 04EB6304 		add	r4, r4, r3, asr #1
 309              	.LVL41:
 310 0036 24B2     		sxth	r4, r4
 311              	.LVL42:
1293:lvgl\src\lv_widgets/lv_dropdown.c **** 
 312              		.loc 1 1293 0
 313 0038 3044     		add	r0, r0, r6
 314 003a 00B2     		sxth	r0, r0
 315              	.LVL43:
1295:lvgl\src\lv_widgets/lv_dropdown.c **** 
 316              		.loc 1 1295 0
 317 003c 94FBF0F0 		sdiv	r0, r4, r0
 318              	.LVL44:
 319 0040 80B2     		uxth	r0, r0
1297:lvgl\src\lv_widgets/lv_dropdown.c **** }
 320              		.loc 1 1297 0
 321 0042 70BD     		pop	{r4, r5, r6, pc}
 322              	.LVL45:
 323              	.L22:
1285:lvgl\src\lv_widgets/lv_dropdown.c ****     y -= label->coords.y1;
 324              		.loc 1 1285 0
 325 0044 0020     		movs	r0, #0
 326              	.LVL46:
1298:lvgl\src\lv_widgets/lv_dropdown.c **** 
 327              		.loc 1 1298 0
 328 0046 70BD     		pop	{r4, r5, r6, pc}
 329              		.cfi_endproc
 330              	.LFE380:
 331              		.size	get_id_on_point, .-get_id_on_point
 332              		.section	.text.page_press_handler,"ax",%progbits
 333              		.align	2
 334              		.thumb
 335              		.thumb_func
 336              		.type	page_press_handler, %function
 337              	page_press_handler:
 338              	.LFB379:
1267:lvgl\src\lv_widgets/lv_dropdown.c ****     lv_dropdown_page_ext_t * page_ext = lv_obj_get_ext_attr(page);
 339              		.loc 1 1267 0
 340              		.cfi_startproc
 341              		@ args = 0, pretend = 0, frame = 8
 342              		@ frame_needed = 0, uses_anonymous_args = 0
 343              	.LVL47:
 344 0000 F0B5     		push	{r4, r5, r6, r7, lr}
 345              		.cfi_def_cfa_offset 20
 346              		.cfi_offset 4, -20
 347              		.cfi_offset 5, -16
 348              		.cfi_offset 6, -12
 349              		.cfi_offset 7, -8
ARM GAS  C:\Users\strap\AppData\Local\Temp\ccf5xETM.s 			page 36


 350              		.cfi_offset 14, -4
 351 0002 83B0     		sub	sp, sp, #12
 352              		.cfi_def_cfa_offset 32
 353 0004 0646     		mov	r6, r0
1268:lvgl\src\lv_widgets/lv_dropdown.c ****     lv_obj_t * ddlist = page_ext->ddlist;
 354              		.loc 1 1268 0
 355 0006 FFF7FEFF 		bl	lv_obj_get_ext_attr
 356              	.LVL48:
1269:lvgl\src\lv_widgets/lv_dropdown.c **** 
 357              		.loc 1 1269 0
 358 000a 056C     		ldr	r5, [r0, #64]
 359              	.LVL49:
1271:lvgl\src\lv_widgets/lv_dropdown.c **** 
 360              		.loc 1 1271 0
 361 000c 2846     		mov	r0, r5
 362              	.LVL50:
 363 000e FFF7FEFF 		bl	lv_obj_get_ext_attr
 364              	.LVL51:
 365 0012 0746     		mov	r7, r0
 366              	.LVL52:
1273:lvgl\src\lv_widgets/lv_dropdown.c ****     if(indev && (lv_indev_get_type(indev) == LV_INDEV_TYPE_POINTER || lv_indev_get_type(indev) == L
 367              		.loc 1 1273 0
 368 0014 FFF7FEFF 		bl	lv_indev_get_act
 369              	.LVL53:
1274:lvgl\src\lv_widgets/lv_dropdown.c ****         lv_point_t p;
 370              		.loc 1 1274 0
 371 0018 B0B1     		cbz	r0, .L24
 372 001a 0446     		mov	r4, r0
1274:lvgl\src\lv_widgets/lv_dropdown.c ****         lv_point_t p;
 373              		.loc 1 1274 0 is_stmt 0 discriminator 1
 374 001c FFF7FEFF 		bl	lv_indev_get_type
 375              	.LVL54:
 376 0020 0128     		cmp	r0, #1
 377 0022 04D0     		beq	.L26
1274:lvgl\src\lv_widgets/lv_dropdown.c ****         lv_point_t p;
 378              		.loc 1 1274 0 discriminator 2
 379 0024 2046     		mov	r0, r4
 380 0026 FFF7FEFF 		bl	lv_indev_get_type
 381              	.LVL55:
 382 002a 0328     		cmp	r0, #3
 383 002c 0CD1     		bne	.L24
 384              	.L26:
 385              	.LBB84:
1276:lvgl\src\lv_widgets/lv_dropdown.c ****         ext->pr_opt_id = get_id_on_point(ddlist, p.y);
 386              		.loc 1 1276 0 is_stmt 1
 387 002e 01A9     		add	r1, sp, #4
 388 0030 2046     		mov	r0, r4
 389 0032 FFF7FEFF 		bl	lv_indev_get_point
 390              	.LVL56:
1277:lvgl\src\lv_widgets/lv_dropdown.c ****         lv_obj_invalidate(page);
 391              		.loc 1 1277 0
 392 0036 BDF90610 		ldrsh	r1, [sp, #6]
 393 003a 2846     		mov	r0, r5
 394 003c FFF7FEFF 		bl	get_id_on_point
 395              	.LVL57:
 396 0040 3886     		strh	r0, [r7, #48]	@ movhi
1278:lvgl\src\lv_widgets/lv_dropdown.c ****     }
ARM GAS  C:\Users\strap\AppData\Local\Temp\ccf5xETM.s 			page 37


 397              		.loc 1 1278 0
 398 0042 3046     		mov	r0, r6
 399 0044 FFF7FEFF 		bl	lv_obj_invalidate
 400              	.LVL58:
 401              	.L24:
 402              	.LBE84:
1280:lvgl\src\lv_widgets/lv_dropdown.c **** 
 403              		.loc 1 1280 0
 404 0048 03B0     		add	sp, sp, #12
 405              		.cfi_def_cfa_offset 20
 406              		@ sp needed
 407 004a F0BD     		pop	{r4, r5, r6, r7, pc}
 408              		.cfi_endproc
 409              	.LFE379:
 410              		.size	page_press_handler, .-page_press_handler
 411              		.section	.text.draw_box,"ax",%progbits
 412              		.align	2
 413              		.thumb
 414              		.thumb_func
 415              		.type	draw_box, %function
 416              	draw_box:
 417              	.LFB376:
1138:lvgl\src\lv_widgets/lv_dropdown.c ****     lv_dropdown_ext_t * ext = lv_obj_get_ext_attr(ddlist);
 418              		.loc 1 1138 0
 419              		.cfi_startproc
 420              		@ args = 0, pretend = 0, frame = 96
 421              		@ frame_needed = 0, uses_anonymous_args = 0
 422              	.LVL59:
 423 0000 2DE9F04F 		push	{r4, r5, r6, r7, r8, r9, r10, fp, lr}
 424              		.cfi_def_cfa_offset 36
 425              		.cfi_offset 4, -36
 426              		.cfi_offset 5, -32
 427              		.cfi_offset 6, -28
 428              		.cfi_offset 7, -24
 429              		.cfi_offset 8, -20
 430              		.cfi_offset 9, -16
 431              		.cfi_offset 10, -12
 432              		.cfi_offset 11, -8
 433              		.cfi_offset 14, -4
 434 0004 99B0     		sub	sp, sp, #100
 435              		.cfi_def_cfa_offset 136
 436 0006 0546     		mov	r5, r0
 437 0008 8A46     		mov	r10, r1
 438 000a 9346     		mov	fp, r2
 439 000c 1C46     		mov	r4, r3
1139:lvgl\src\lv_widgets/lv_dropdown.c ****     lv_obj_t * page = ext->page;
 440              		.loc 1 1139 0
 441 000e FFF7FEFF 		bl	lv_obj_get_ext_attr
 442              	.LVL60:
 443 0012 0746     		mov	r7, r0
 444              	.LVL61:
1140:lvgl\src\lv_widgets/lv_dropdown.c ****     lv_state_t state_orig = page->state;
 445              		.loc 1 1140 0
 446 0014 D0F80080 		ldr	r8, [r0]
 447              	.LVL62:
1141:lvgl\src\lv_widgets/lv_dropdown.c **** 
 448              		.loc 1 1141 0
ARM GAS  C:\Users\strap\AppData\Local\Temp\ccf5xETM.s 			page 38


 449 0018 98F83D90 		ldrb	r9, [r8, #61]	@ zero_extendqisi2
 450              	.LVL63:
1143:lvgl\src\lv_widgets/lv_dropdown.c ****         _lv_obj_disable_style_caching(ddlist, true);
 451              		.loc 1 1143 0
 452 001c A145     		cmp	r9, r4
 453 001e 05D0     		beq	.L29
1144:lvgl\src\lv_widgets/lv_dropdown.c ****         page->state = state;
 454              		.loc 1 1144 0
 455 0020 0121     		movs	r1, #1
 456 0022 2846     		mov	r0, r5
 457              	.LVL64:
 458 0024 FFF7FEFF 		bl	_lv_obj_disable_style_caching
 459              	.LVL65:
1145:lvgl\src\lv_widgets/lv_dropdown.c ****     }
 460              		.loc 1 1145 0
 461 0028 88F83D40 		strb	r4, [r8, #61]
 462              	.L29:
 463              	.LVL66:
 464              	.LBB85:
 465              	.LBB86:
 466              		.loc 2 168 0
 467 002c 48F28E02 		movw	r2, #32910
 468 0030 4021     		movs	r1, #64
 469 0032 2846     		mov	r0, r5
 470 0034 FFF7FEFF 		bl	_lv_obj_get_style_ptr
 471              	.LVL67:
 472 0038 0646     		mov	r6, r0
 473              	.LVL68:
 474              	.LBE86:
 475              	.LBE85:
 476              	.LBB87:
 477              	.LBB88:
 161:lvgl\src\lv_widgets\../lv_widgets/../lv_core/lv_obj_style_dec.h **** _LV_OBJ_STYLE_SET_GET_DECLARE(TEXT_DECOR, text_decor, lv_text_decor_t, _int, scalar)
 478              		.loc 2 161 0
 479 003a 48F28102 		movw	r2, #32897
 480 003e 4021     		movs	r1, #64
 481 0040 2846     		mov	r0, r5
 482 0042 FFF7FEFF 		bl	_lv_obj_get_style_int
 483              	.LVL69:
 484 0046 0446     		mov	r4, r0
 485              	.LVL70:
 486              	.LBE88:
 487              	.LBE87:
 488              	.LBB89:
 489              	.LBB90:
 490              		.loc 3 125 0
 491 0048 B6F90860 		ldrsh	r6, [r6, #8]
 492              	.LBE90:
 493              	.LBE89:
1154:lvgl\src\lv_widgets/lv_dropdown.c ****     lv_area_t rect_area;
 494              		.loc 1 1154 0
 495 004c 2846     		mov	r0, r5
 496 004e FFF7FEFF 		bl	get_label
 497              	.LVL71:
1156:lvgl\src\lv_widgets/lv_dropdown.c ****     rect_area.y1 += id * (font_h + line_space);
 498              		.loc 1 1156 0
 499 0052 B0F91230 		ldrsh	r3, [r0, #18]
ARM GAS  C:\Users\strap\AppData\Local\Temp\ccf5xETM.s 			page 39


1157:lvgl\src\lv_widgets/lv_dropdown.c ****     rect_area.y1 -= line_space / 2;
 500              		.loc 1 1157 0
 501 0056 3019     		adds	r0, r6, r4
 502              	.LVL72:
 503 0058 00FB0B3B 		mla	fp, r0, fp, r3
 504 005c 1FFA8BFB 		uxth	fp, fp
1158:lvgl\src\lv_widgets/lv_dropdown.c **** 
 505              		.loc 1 1158 0
 506 0060 04EBD470 		add	r0, r4, r4, lsr #31
 507 0064 ABEB6000 		sub	r0, fp, r0, asr #1
 508 0068 80B2     		uxth	r0, r0
 509 006a ADF85A00 		strh	r0, [sp, #90]	@ movhi
1160:lvgl\src\lv_widgets/lv_dropdown.c ****     rect_area.x1 = ext->page->coords.x1;
 510              		.loc 1 1160 0
 511 006e 3044     		add	r0, r0, r6
 512 0070 0444     		add	r4, r4, r0
 513 0072 013C     		subs	r4, r4, #1
 514 0074 ADF85E40 		strh	r4, [sp, #94]	@ movhi
1161:lvgl\src\lv_widgets/lv_dropdown.c ****     rect_area.x2 = ext->page->coords.x2;
 515              		.loc 1 1161 0
 516 0078 3B68     		ldr	r3, [r7]
 517 007a B3F91030 		ldrsh	r3, [r3, #16]
 518 007e ADF85830 		strh	r3, [sp, #88]	@ movhi
1162:lvgl\src\lv_widgets/lv_dropdown.c **** 
 519              		.loc 1 1162 0
 520 0082 3B68     		ldr	r3, [r7]
 521 0084 B3F91430 		ldrsh	r3, [r3, #20]
 522 0088 ADF85C30 		strh	r3, [sp, #92]	@ movhi
1165:lvgl\src\lv_widgets/lv_dropdown.c ****     lv_obj_init_draw_rect_dsc(ddlist, LV_DROPDOWN_PART_SELECTED, &sel_rect);
 523              		.loc 1 1165 0
 524 008c 01A8     		add	r0, sp, #4
 525 008e FFF7FEFF 		bl	lv_draw_rect_dsc_init
 526              	.LVL73:
1166:lvgl\src\lv_widgets/lv_dropdown.c ****     lv_draw_rect(&rect_area, clip_area, &sel_rect);
 527              		.loc 1 1166 0
 528 0092 01AA     		add	r2, sp, #4
 529 0094 4221     		movs	r1, #66
 530 0096 2846     		mov	r0, r5
 531 0098 FFF7FEFF 		bl	lv_obj_init_draw_rect_dsc
 532              	.LVL74:
1167:lvgl\src\lv_widgets/lv_dropdown.c **** 
 533              		.loc 1 1167 0
 534 009c 01AA     		add	r2, sp, #4
 535 009e 5146     		mov	r1, r10
 536 00a0 16A8     		add	r0, sp, #88
 537 00a2 FFF7FEFF 		bl	lv_draw_rect
 538              	.LVL75:
1169:lvgl\src\lv_widgets/lv_dropdown.c ****     _lv_obj_disable_style_caching(ddlist, false);
 539              		.loc 1 1169 0
 540 00a6 88F83D90 		strb	r9, [r8, #61]
1170:lvgl\src\lv_widgets/lv_dropdown.c **** }
 541              		.loc 1 1170 0
 542 00aa 0021     		movs	r1, #0
 543 00ac 2846     		mov	r0, r5
 544 00ae FFF7FEFF 		bl	_lv_obj_disable_style_caching
 545              	.LVL76:
1171:lvgl\src\lv_widgets/lv_dropdown.c **** 
ARM GAS  C:\Users\strap\AppData\Local\Temp\ccf5xETM.s 			page 40


 546              		.loc 1 1171 0
 547 00b2 19B0     		add	sp, sp, #100
 548              		.cfi_def_cfa_offset 36
 549              		@ sp needed
 550 00b4 BDE8F08F 		pop	{r4, r5, r6, r7, r8, r9, r10, fp, pc}
 551              		.cfi_endproc
 552              	.LFE376:
 553              		.size	draw_box, .-draw_box
 554              		.section	.text.draw_box_label,"ax",%progbits
 555              		.align	2
 556              		.thumb
 557              		.thumb_func
 558              		.type	draw_box_label, %function
 559              	draw_box_label:
 560              	.LFB377:
1176:lvgl\src\lv_widgets/lv_dropdown.c ****     lv_dropdown_ext_t * ext = lv_obj_get_ext_attr(ddlist);
 561              		.loc 1 1176 0
 562              		.cfi_startproc
 563              		@ args = 0, pretend = 0, frame = 56
 564              		@ frame_needed = 0, uses_anonymous_args = 0
 565              	.LVL77:
 566 0000 2DE9F043 		push	{r4, r5, r6, r7, r8, r9, lr}
 567              		.cfi_def_cfa_offset 28
 568              		.cfi_offset 4, -28
 569              		.cfi_offset 5, -24
 570              		.cfi_offset 6, -20
 571              		.cfi_offset 7, -16
 572              		.cfi_offset 8, -12
 573              		.cfi_offset 9, -8
 574              		.cfi_offset 14, -4
 575 0004 91B0     		sub	sp, sp, #68
 576              		.cfi_def_cfa_offset 96
 577 0006 0546     		mov	r5, r0
 578 0008 8946     		mov	r9, r1
 579 000a 1446     		mov	r4, r2
 580 000c 1F46     		mov	r7, r3
1177:lvgl\src\lv_widgets/lv_dropdown.c ****     lv_obj_t * page = ext->page;
 581              		.loc 1 1177 0
 582 000e FFF7FEFF 		bl	lv_obj_get_ext_attr
 583              	.LVL78:
1178:lvgl\src\lv_widgets/lv_dropdown.c ****     lv_state_t state_orig = page->state;
 584              		.loc 1 1178 0
 585 0012 0668     		ldr	r6, [r0]
 586              	.LVL79:
1179:lvgl\src\lv_widgets/lv_dropdown.c **** 
 587              		.loc 1 1179 0
 588 0014 96F83D80 		ldrb	r8, [r6, #61]	@ zero_extendqisi2
 589              	.LVL80:
1181:lvgl\src\lv_widgets/lv_dropdown.c ****         page->state =  state;
 590              		.loc 1 1181 0
 591 0018 B845     		cmp	r8, r7
 592 001a 05D0     		beq	.L32
1182:lvgl\src\lv_widgets/lv_dropdown.c ****         _lv_obj_disable_style_caching(ddlist, true);
 593              		.loc 1 1182 0
 594 001c 86F83D70 		strb	r7, [r6, #61]
1183:lvgl\src\lv_widgets/lv_dropdown.c ****     }
 595              		.loc 1 1183 0
ARM GAS  C:\Users\strap\AppData\Local\Temp\ccf5xETM.s 			page 41


 596 0020 0121     		movs	r1, #1
 597 0022 2846     		mov	r0, r5
 598              	.LVL81:
 599 0024 FFF7FEFF 		bl	_lv_obj_disable_style_caching
 600              	.LVL82:
 601              	.L32:
1187:lvgl\src\lv_widgets/lv_dropdown.c ****     lv_obj_init_draw_label_dsc(ddlist, LV_DROPDOWN_PART_SELECTED, &label_dsc);
 602              		.loc 1 1187 0
 603 0028 07A8     		add	r0, sp, #28
 604 002a FFF7FEFF 		bl	lv_draw_label_dsc_init
 605              	.LVL83:
1188:lvgl\src\lv_widgets/lv_dropdown.c **** 
 606              		.loc 1 1188 0
 607 002e 07AA     		add	r2, sp, #28
 608 0030 4221     		movs	r1, #66
 609 0032 2846     		mov	r0, r5
 610 0034 FFF7FEFF 		bl	lv_obj_init_draw_label_dsc
 611              	.LVL84:
 612              	.LBB91:
 613              	.LBB92:
 161:lvgl\src\lv_widgets\../lv_widgets/../lv_core/lv_obj_style_dec.h **** _LV_OBJ_STYLE_SET_GET_DECLARE(TEXT_DECOR, text_decor, lv_text_decor_t, _int, scalar)
 614              		.loc 2 161 0
 615 0038 48F28102 		movw	r2, #32897
 616 003c 4021     		movs	r1, #64
 617 003e 2846     		mov	r0, r5
 618 0040 FFF7FEFF 		bl	_lv_obj_get_style_int
 619              	.LVL85:
 620              	.LBE92:
 621              	.LBE91:
1190:lvgl\src\lv_widgets/lv_dropdown.c ****                                                             LV_DROPDOWN_PART_LIST);  /*Line space s
 622              		.loc 1 1190 0
 623 0044 ADF82A00 		strh	r0, [sp, #42]	@ movhi
1193:lvgl\src\lv_widgets/lv_dropdown.c ****     if(label == NULL) return;
 624              		.loc 1 1193 0
 625 0048 2846     		mov	r0, r5
 626 004a FFF7FEFF 		bl	get_label
 627              	.LVL86:
1194:lvgl\src\lv_widgets/lv_dropdown.c **** 
 628              		.loc 1 1194 0
 629 004e 0746     		mov	r7, r0
 630 0050 0028     		cmp	r0, #0
 631 0052 4AD0     		beq	.L31
1196:lvgl\src\lv_widgets/lv_dropdown.c **** 
 632              		.loc 1 1196 0
 633 0054 FFF7FEFF 		bl	lv_label_get_align
 634              	.LVL87:
1198:lvgl\src\lv_widgets/lv_dropdown.c ****     else if(align == LV_LABEL_ALIGN_RIGHT) label_dsc.flag |= LV_TXT_FLAG_RIGHT;
 635              		.loc 1 1198 0
 636 0058 0128     		cmp	r0, #1
 637 005a 06D1     		bne	.L34
1198:lvgl\src\lv_widgets/lv_dropdown.c ****     else if(align == LV_LABEL_ALIGN_RIGHT) label_dsc.flag |= LV_TXT_FLAG_RIGHT;
 638              		.loc 1 1198 0 is_stmt 0 discriminator 1
 639 005c 9DF83D30 		ldrb	r3, [sp, #61]	@ zero_extendqisi2
 640 0060 43F00403 		orr	r3, r3, #4
 641 0064 8DF83D30 		strb	r3, [sp, #61]
 642 0068 07E0     		b	.L35
 643              	.L34:
ARM GAS  C:\Users\strap\AppData\Local\Temp\ccf5xETM.s 			page 42


1199:lvgl\src\lv_widgets/lv_dropdown.c **** 
 644              		.loc 1 1199 0 is_stmt 1
 645 006a 0228     		cmp	r0, #2
 646 006c 05D1     		bne	.L35
1199:lvgl\src\lv_widgets/lv_dropdown.c **** 
 647              		.loc 1 1199 0 is_stmt 0 discriminator 1
 648 006e 9DF83D30 		ldrb	r3, [sp, #61]	@ zero_extendqisi2
 649 0072 43F00803 		orr	r3, r3, #8
 650 0076 8DF83D30 		strb	r3, [sp, #61]
 651              	.L35:
1201:lvgl\src\lv_widgets/lv_dropdown.c **** 
 652              		.loc 1 1201 0 is_stmt 1
 653 007a 099B     		ldr	r3, [sp, #36]
 654              	.LVL88:
 655              	.LBB93:
 656              	.LBB94:
 657              		.loc 3 125 0
 658 007c B3F90810 		ldrsh	r1, [r3, #8]
 659              	.LVL89:
 660              	.LBE94:
 661              	.LBE93:
1204:lvgl\src\lv_widgets/lv_dropdown.c ****     area_sel.y1 += id * (font_h + label_dsc.line_space);
 662              		.loc 1 1204 0
 663 0080 B7F91230 		ldrsh	r3, [r7, #18]
1205:lvgl\src\lv_widgets/lv_dropdown.c ****     area_sel.y1 -= label_dsc.line_space / 2;
 664              		.loc 1 1205 0
 665 0084 BDF92A20 		ldrsh	r2, [sp, #42]
 666 0088 8818     		adds	r0, r1, r2
 667              	.LVL90:
 668 008a 00FB0434 		mla	r4, r0, r4, r3
 669 008e A4B2     		uxth	r4, r4
1206:lvgl\src\lv_widgets/lv_dropdown.c **** 
 670              		.loc 1 1206 0
 671 0090 02EBD273 		add	r3, r2, r2, lsr #31
 672 0094 A4EB6303 		sub	r3, r4, r3, asr #1
 673 0098 9BB2     		uxth	r3, r3
 674 009a ADF81630 		strh	r3, [sp, #22]	@ movhi
1208:lvgl\src\lv_widgets/lv_dropdown.c ****     area_sel.x1 = page->coords.x1;
 675              		.loc 1 1208 0
 676 009e 0B44     		add	r3, r3, r1
 677 00a0 1A44     		add	r2, r2, r3
 678 00a2 013A     		subs	r2, r2, #1
 679 00a4 ADF81A20 		strh	r2, [sp, #26]	@ movhi
1209:lvgl\src\lv_widgets/lv_dropdown.c ****     area_sel.x2 = page->coords.x2;
 680              		.loc 1 1209 0
 681 00a8 B6F91030 		ldrsh	r3, [r6, #16]
 682 00ac ADF81430 		strh	r3, [sp, #20]	@ movhi
1210:lvgl\src\lv_widgets/lv_dropdown.c ****     lv_area_t mask_sel;
 683              		.loc 1 1210 0
 684 00b0 B6F91430 		ldrsh	r3, [r6, #20]
 685 00b4 ADF81830 		strh	r3, [sp, #24]	@ movhi
1213:lvgl\src\lv_widgets/lv_dropdown.c ****     if(area_ok) {
 686              		.loc 1 1213 0
 687 00b8 05AA     		add	r2, sp, #20
 688 00ba 4946     		mov	r1, r9
 689 00bc 03A8     		add	r0, sp, #12
 690 00be FFF7FEFF 		bl	_lv_area_intersect
ARM GAS  C:\Users\strap\AppData\Local\Temp\ccf5xETM.s 			page 43


 691              	.LVL91:
1214:lvgl\src\lv_widgets/lv_dropdown.c ****         lv_draw_label(&label->coords, &mask_sel, &label_dsc, lv_label_get_text(label), NULL);
 692              		.loc 1 1214 0
 693 00c2 60B1     		cbz	r0, .L36
1215:lvgl\src\lv_widgets/lv_dropdown.c ****     }
 694              		.loc 1 1215 0
 695 00c4 07F11004 		add	r4, r7, #16
 696 00c8 3846     		mov	r0, r7
 697              	.LVL92:
 698 00ca FFF7FEFF 		bl	lv_label_get_text
 699              	.LVL93:
 700 00ce 0023     		movs	r3, #0
 701 00d0 0093     		str	r3, [sp]
 702 00d2 0346     		mov	r3, r0
 703 00d4 07AA     		add	r2, sp, #28
 704 00d6 03A9     		add	r1, sp, #12
 705 00d8 2046     		mov	r0, r4
 706 00da FFF7FEFF 		bl	lv_draw_label
 707              	.LVL94:
 708              	.L36:
1217:lvgl\src\lv_widgets/lv_dropdown.c ****     _lv_obj_disable_style_caching(ddlist, false);
 709              		.loc 1 1217 0
 710 00de 86F83D80 		strb	r8, [r6, #61]
1218:lvgl\src\lv_widgets/lv_dropdown.c **** }
 711              		.loc 1 1218 0
 712 00e2 0021     		movs	r1, #0
 713 00e4 2846     		mov	r0, r5
 714 00e6 FFF7FEFF 		bl	_lv_obj_disable_style_caching
 715              	.LVL95:
 716              	.L31:
1219:lvgl\src\lv_widgets/lv_dropdown.c **** 
 717              		.loc 1 1219 0
 718 00ea 11B0     		add	sp, sp, #68
 719              		.cfi_def_cfa_offset 28
 720              		@ sp needed
 721 00ec BDE8F083 		pop	{r4, r5, r6, r7, r8, r9, pc}
 722              		.cfi_endproc
 723              	.LFE377:
 724              		.size	draw_box_label, .-draw_box_label
 725              		.section	.text.lv_dropdown_page_design,"ax",%progbits
 726              		.align	2
 727              		.thumb
 728              		.thumb_func
 729              		.type	lv_dropdown_page_design, %function
 730              	lv_dropdown_page_design:
 731              	.LFB371:
 813:lvgl\src\lv_widgets/lv_dropdown.c ****     /*Return false if the object is not covers the mask_p area*/
 732              		.loc 1 813 0
 733              		.cfi_startproc
 734              		@ args = 0, pretend = 0, frame = 8
 735              		@ frame_needed = 0, uses_anonymous_args = 0
 736              	.LVL96:
 737 0000 70B5     		push	{r4, r5, r6, lr}
 738              		.cfi_def_cfa_offset 16
 739              		.cfi_offset 4, -16
 740              		.cfi_offset 5, -12
 741              		.cfi_offset 6, -8
ARM GAS  C:\Users\strap\AppData\Local\Temp\ccf5xETM.s 			page 44


 742              		.cfi_offset 14, -4
 743 0002 82B0     		sub	sp, sp, #8
 744              		.cfi_def_cfa_offset 24
 745 0004 0446     		mov	r4, r0
 746 0006 0D46     		mov	r5, r1
 815:lvgl\src\lv_widgets/lv_dropdown.c ****         return ancestor_page_design(page, clip_area, mode);
 747              		.loc 1 815 0
 748 0008 022A     		cmp	r2, #2
 749 000a 03D1     		bne	.L40
 816:lvgl\src\lv_widgets/lv_dropdown.c ****     }
 750              		.loc 1 816 0
 751 000c 2C4B     		ldr	r3, .L51
 752 000e 1B68     		ldr	r3, [r3]
 753 0010 9847     		blx	r3
 754              	.LVL97:
 755 0012 52E0     		b	.L41
 756              	.LVL98:
 757              	.L40:
 819:lvgl\src\lv_widgets/lv_dropdown.c ****         ancestor_page_design(page, clip_area, mode);
 758              		.loc 1 819 0
 759 0014 2ABB     		cbnz	r2, .L42
 760              	.LBB95:
 820:lvgl\src\lv_widgets/lv_dropdown.c **** 
 761              		.loc 1 820 0
 762 0016 2A4B     		ldr	r3, .L51
 763 0018 1B68     		ldr	r3, [r3]
 764 001a 9847     		blx	r3
 765              	.LVL99:
 822:lvgl\src\lv_widgets/lv_dropdown.c ****         lv_obj_t * ddlist = page_ext->ddlist;
 766              		.loc 1 822 0
 767 001c 2046     		mov	r0, r4
 768 001e FFF7FEFF 		bl	lv_obj_get_ext_attr
 769              	.LVL100:
 823:lvgl\src\lv_widgets/lv_dropdown.c ****         lv_dropdown_ext_t * ext = lv_obj_get_ext_attr(ddlist);
 770              		.loc 1 823 0
 771 0022 066C     		ldr	r6, [r0, #64]
 772              	.LVL101:
 824:lvgl\src\lv_widgets/lv_dropdown.c **** 
 773              		.loc 1 824 0
 774 0024 3046     		mov	r0, r6
 775              	.LVL102:
 776 0026 FFF7FEFF 		bl	lv_obj_get_ext_attr
 777              	.LVL103:
 778 002a 0446     		mov	r4, r0
 779              	.LVL104:
 827:lvgl\src\lv_widgets/lv_dropdown.c ****             /* Clip area might be too large too to shadow but
 780              		.loc 1 827 0
 781 002c 0268     		ldr	r2, [r0]
 782 002e 002A     		cmp	r2, #0
 783 0030 3ED0     		beq	.L47
 784              	.LBB96:
 832:lvgl\src\lv_widgets/lv_dropdown.c ****             if(has_common) {
 785              		.loc 1 832 0
 786 0032 1032     		adds	r2, r2, #16
 787 0034 2946     		mov	r1, r5
 788 0036 6846     		mov	r0, sp
 789              	.LVL105:
ARM GAS  C:\Users\strap\AppData\Local\Temp\ccf5xETM.s 			page 45


 790 0038 FFF7FEFF 		bl	_lv_area_intersect
 791              	.LVL106:
 833:lvgl\src\lv_widgets/lv_dropdown.c ****                 if(ext->pr_opt_id != LV_DROPDOWN_PR_NONE) {
 792              		.loc 1 833 0
 793 003c 78B1     		cbz	r0, .L43
 834:lvgl\src\lv_widgets/lv_dropdown.c ****                     draw_box(ddlist, &clip_area_core, ext->pr_opt_id, LV_STATE_PRESSED);
 794              		.loc 1 834 0
 795 003e 228E     		ldrh	r2, [r4, #48]
 796 0040 4FF6FF73 		movw	r3, #65535
 797 0044 9A42     		cmp	r2, r3
 798 0046 04D0     		beq	.L44
 835:lvgl\src\lv_widgets/lv_dropdown.c ****                 }
 799              		.loc 1 835 0
 800 0048 1023     		movs	r3, #16
 801 004a 6946     		mov	r1, sp
 802 004c 3046     		mov	r0, r6
 803              	.LVL107:
 804 004e FFF7FEFF 		bl	draw_box
 805              	.LVL108:
 806              	.L44:
 838:lvgl\src\lv_widgets/lv_dropdown.c ****             }
 807              		.loc 1 838 0
 808 0052 0023     		movs	r3, #0
 809 0054 A28D     		ldrh	r2, [r4, #44]
 810 0056 6946     		mov	r1, sp
 811 0058 3046     		mov	r0, r6
 812 005a FFF7FEFF 		bl	draw_box
 813              	.LVL109:
 814              	.L43:
 815              	.LBE96:
 816              	.LBE95:
 869:lvgl\src\lv_widgets/lv_dropdown.c **** }
 817              		.loc 1 869 0
 818 005e 0020     		movs	r0, #0
 819 0060 2BE0     		b	.L41
 820              	.LVL110:
 821              	.L42:
 843:lvgl\src\lv_widgets/lv_dropdown.c ****         /*Draw the scrollbar in the ancestor page design function*/
 822              		.loc 1 843 0
 823 0062 012A     		cmp	r2, #1
 824 0064 26D1     		bne	.L48
 825              	.LBB97:
 845:lvgl\src\lv_widgets/lv_dropdown.c **** 
 826              		.loc 1 845 0
 827 0066 164B     		ldr	r3, .L51
 828 0068 1B68     		ldr	r3, [r3]
 829 006a 9847     		blx	r3
 830              	.LVL111:
 848:lvgl\src\lv_widgets/lv_dropdown.c ****         lv_obj_t * ddlist = page_ext->ddlist;
 831              		.loc 1 848 0
 832 006c 2046     		mov	r0, r4
 833 006e FFF7FEFF 		bl	lv_obj_get_ext_attr
 834              	.LVL112:
 849:lvgl\src\lv_widgets/lv_dropdown.c ****         lv_dropdown_ext_t * ext = lv_obj_get_ext_attr(ddlist);
 835              		.loc 1 849 0
 836 0072 066C     		ldr	r6, [r0, #64]
 837              	.LVL113:
ARM GAS  C:\Users\strap\AppData\Local\Temp\ccf5xETM.s 			page 46


 850:lvgl\src\lv_widgets/lv_dropdown.c **** 
 838              		.loc 1 850 0
 839 0074 3046     		mov	r0, r6
 840              	.LVL114:
 841 0076 FFF7FEFF 		bl	lv_obj_get_ext_attr
 842              	.LVL115:
 843 007a 0446     		mov	r4, r0
 844              	.LVL116:
 853:lvgl\src\lv_widgets/lv_dropdown.c ****             /* Clip area might be too large too to shadow but
 845              		.loc 1 853 0
 846 007c 0268     		ldr	r2, [r0]
 847 007e DAB1     		cbz	r2, .L49
 848              	.LBB98:
 858:lvgl\src\lv_widgets/lv_dropdown.c ****             if(has_common) {
 849              		.loc 1 858 0
 850 0080 1032     		adds	r2, r2, #16
 851 0082 2946     		mov	r1, r5
 852 0084 6846     		mov	r0, sp
 853              	.LVL117:
 854 0086 FFF7FEFF 		bl	_lv_area_intersect
 855              	.LVL118:
 859:lvgl\src\lv_widgets/lv_dropdown.c ****                 if(ext->pr_opt_id != LV_DROPDOWN_PR_NONE) {
 856              		.loc 1 859 0
 857 008a 78B1     		cbz	r0, .L45
 860:lvgl\src\lv_widgets/lv_dropdown.c ****                     draw_box_label(ddlist, &clip_area_core, ext->pr_opt_id, LV_STATE_PRESSED);
 858              		.loc 1 860 0
 859 008c 228E     		ldrh	r2, [r4, #48]
 860 008e 4FF6FF73 		movw	r3, #65535
 861 0092 9A42     		cmp	r2, r3
 862 0094 04D0     		beq	.L46
 861:lvgl\src\lv_widgets/lv_dropdown.c ****                 }
 863              		.loc 1 861 0
 864 0096 1023     		movs	r3, #16
 865 0098 6946     		mov	r1, sp
 866 009a 3046     		mov	r0, r6
 867              	.LVL119:
 868 009c FFF7FEFF 		bl	draw_box_label
 869              	.LVL120:
 870              	.L46:
 864:lvgl\src\lv_widgets/lv_dropdown.c ****             }
 871              		.loc 1 864 0
 872 00a0 0023     		movs	r3, #0
 873 00a2 A28D     		ldrh	r2, [r4, #44]
 874 00a4 6946     		mov	r1, sp
 875 00a6 3046     		mov	r0, r6
 876 00a8 FFF7FEFF 		bl	draw_box_label
 877              	.LVL121:
 878              	.L45:
 879              	.LBE98:
 880              	.LBE97:
 869:lvgl\src\lv_widgets/lv_dropdown.c **** }
 881              		.loc 1 869 0
 882 00ac 0020     		movs	r0, #0
 883 00ae 04E0     		b	.L41
 884              	.LVL122:
 885              	.L47:
 886 00b0 0020     		movs	r0, #0
ARM GAS  C:\Users\strap\AppData\Local\Temp\ccf5xETM.s 			page 47


 887              	.LVL123:
 888 00b2 02E0     		b	.L41
 889              	.LVL124:
 890              	.L48:
 891 00b4 0020     		movs	r0, #0
 892              	.LVL125:
 893 00b6 00E0     		b	.L41
 894              	.LVL126:
 895              	.L49:
 896 00b8 0020     		movs	r0, #0
 897              	.LVL127:
 898              	.L41:
 870:lvgl\src\lv_widgets/lv_dropdown.c **** 
 899              		.loc 1 870 0
 900 00ba 02B0     		add	sp, sp, #8
 901              		.cfi_def_cfa_offset 16
 902              		@ sp needed
 903 00bc 70BD     		pop	{r4, r5, r6, pc}
 904              	.LVL128:
 905              	.L52:
 906 00be 00BF     		.align	2
 907              	.L51:
 908 00c0 00000000 		.word	.LANCHOR0
 909              		.cfi_endproc
 910              	.LFE371:
 911              		.size	lv_dropdown_page_design, .-lv_dropdown_page_design
 912              		.section	.text.lv_dropdown_set_text,"ax",%progbits
 913              		.align	2
 914              		.global	lv_dropdown_set_text
 915              		.thumb
 916              		.thumb_func
 917              		.type	lv_dropdown_set_text, %function
 918              	lv_dropdown_set_text:
 919              	.LFB349:
 166:lvgl\src\lv_widgets/lv_dropdown.c ****     LV_ASSERT_OBJ(ddlist, LV_OBJX_NAME);
 920              		.loc 1 166 0
 921              		.cfi_startproc
 922              		@ args = 0, pretend = 0, frame = 0
 923              		@ frame_needed = 0, uses_anonymous_args = 0
 924              	.LVL129:
 925 0000 38B5     		push	{r3, r4, r5, lr}
 926              		.cfi_def_cfa_offset 16
 927              		.cfi_offset 3, -16
 928              		.cfi_offset 4, -12
 929              		.cfi_offset 5, -8
 930              		.cfi_offset 14, -4
 931 0002 0446     		mov	r4, r0
 932 0004 0D46     		mov	r5, r1
 167:lvgl\src\lv_widgets/lv_dropdown.c ****     lv_dropdown_ext_t * ext = lv_obj_get_ext_attr(ddlist);
 933              		.loc 1 167 0
 934 0006 FFF7FEFF 		bl	lv_debug_check_null
 935              	.LVL130:
 936 000a 28B9     		cbnz	r0, .L54
 167:lvgl\src\lv_widgets/lv_dropdown.c ****     lv_dropdown_ext_t * ext = lv_obj_get_ext_attr(ddlist);
 937              		.loc 1 167 0 is_stmt 0 discriminator 1
 938 000c 2246     		mov	r2, r4
 939 000e 0023     		movs	r3, #0
ARM GAS  C:\Users\strap\AppData\Local\Temp\ccf5xETM.s 			page 48


 940 0010 0748     		ldr	r0, .L58
 941 0012 FFF7FEFF 		bl	lv_debug_log_error
 942              	.LVL131:
 943              	.L55:
 944 0016 FEE7     		b	.L55
 945              	.L54:
 168:lvgl\src\lv_widgets/lv_dropdown.c ****     if(ext->text == txt) return;
 946              		.loc 1 168 0 is_stmt 1
 947 0018 2046     		mov	r0, r4
 948 001a FFF7FEFF 		bl	lv_obj_get_ext_attr
 949              	.LVL132:
 169:lvgl\src\lv_widgets/lv_dropdown.c **** 
 950              		.loc 1 169 0
 951 001e 4368     		ldr	r3, [r0, #4]
 952 0020 AB42     		cmp	r3, r5
 953 0022 03D0     		beq	.L53
 171:lvgl\src\lv_widgets/lv_dropdown.c **** 
 954              		.loc 1 171 0
 955 0024 4560     		str	r5, [r0, #4]
 173:lvgl\src\lv_widgets/lv_dropdown.c **** }
 956              		.loc 1 173 0
 957 0026 2046     		mov	r0, r4
 958              	.LVL133:
 959 0028 FFF7FEFF 		bl	lv_obj_invalidate
 960              	.LVL134:
 961              	.L53:
 962 002c 38BD     		pop	{r3, r4, r5, pc}
 963              	.LVL135:
 964              	.L59:
 965 002e 00BF     		.align	2
 966              	.L58:
 967 0030 00000000 		.word	.LC0
 968              		.cfi_endproc
 969              	.LFE349:
 970              		.size	lv_dropdown_set_text, .-lv_dropdown_set_text
 971              		.section	.text.lv_dropdown_clear_options,"ax",%progbits
 972              		.align	2
 973              		.global	lv_dropdown_clear_options
 974              		.thumb
 975              		.thumb_func
 976              		.type	lv_dropdown_clear_options, %function
 977              	lv_dropdown_clear_options:
 978              	.LFB350:
 181:lvgl\src\lv_widgets/lv_dropdown.c ****     LV_ASSERT_OBJ(ddlist, LV_OBJX_NAME);
 979              		.loc 1 181 0
 980              		.cfi_startproc
 981              		@ args = 0, pretend = 0, frame = 0
 982              		@ frame_needed = 0, uses_anonymous_args = 0
 983              	.LVL136:
 984 0000 38B5     		push	{r3, r4, r5, lr}
 985              		.cfi_def_cfa_offset 16
 986              		.cfi_offset 3, -16
 987              		.cfi_offset 4, -12
 988              		.cfi_offset 5, -8
 989              		.cfi_offset 14, -4
 990 0002 0546     		mov	r5, r0
 182:lvgl\src\lv_widgets/lv_dropdown.c ****     lv_dropdown_ext_t * ext = lv_obj_get_ext_attr(ddlist);
ARM GAS  C:\Users\strap\AppData\Local\Temp\ccf5xETM.s 			page 49


 991              		.loc 1 182 0
 992 0004 FFF7FEFF 		bl	lv_debug_check_null
 993              	.LVL137:
 994 0008 28B9     		cbnz	r0, .L61
 182:lvgl\src\lv_widgets/lv_dropdown.c ****     lv_dropdown_ext_t * ext = lv_obj_get_ext_attr(ddlist);
 995              		.loc 1 182 0 is_stmt 0 discriminator 1
 996 000a 2A46     		mov	r2, r5
 997 000c 0023     		movs	r3, #0
 998 000e 0F48     		ldr	r0, .L66
 999 0010 FFF7FEFF 		bl	lv_debug_log_error
 1000              	.LVL138:
 1001              	.L62:
 1002 0014 FEE7     		b	.L62
 1003              	.L61:
 183:lvgl\src\lv_widgets/lv_dropdown.c ****     if(ext->options == NULL) return;
 1004              		.loc 1 183 0 is_stmt 1
 1005 0016 2846     		mov	r0, r5
 1006 0018 FFF7FEFF 		bl	lv_obj_get_ext_attr
 1007              	.LVL139:
 1008 001c 0446     		mov	r4, r0
 1009              	.LVL140:
 184:lvgl\src\lv_widgets/lv_dropdown.c **** 
 1010              		.loc 1 184 0
 1011 001e C068     		ldr	r0, [r0, #12]
 1012              	.LVL141:
 1013 0020 90B1     		cbz	r0, .L60
 186:lvgl\src\lv_widgets/lv_dropdown.c ****         lv_mem_free(ext->options);
 1014              		.loc 1 186 0
 1015 0022 94F83230 		ldrb	r3, [r4, #50]	@ zero_extendqisi2
 1016 0026 13F0080F 		tst	r3, #8
 1017 002a 01D1     		bne	.L64
 187:lvgl\src\lv_widgets/lv_dropdown.c **** 
 1018              		.loc 1 187 0
 1019 002c FFF7FEFF 		bl	lv_mem_free
 1020              	.LVL142:
 1021              	.L64:
 189:lvgl\src\lv_widgets/lv_dropdown.c ****     ext->static_txt = 0;
 1022              		.loc 1 189 0
 1023 0030 0023     		movs	r3, #0
 1024 0032 E360     		str	r3, [r4, #12]
 190:lvgl\src\lv_widgets/lv_dropdown.c ****     ext->option_cnt = 0;
 1025              		.loc 1 190 0
 1026 0034 94F83220 		ldrb	r2, [r4, #50]	@ zero_extendqisi2
 1027 0038 63F3C302 		bfi	r2, r3, #3, #1
 1028 003c 84F83220 		strb	r2, [r4, #50]
 191:lvgl\src\lv_widgets/lv_dropdown.c **** 
 1029              		.loc 1 191 0
 1030 0040 6385     		strh	r3, [r4, #42]	@ movhi
 193:lvgl\src\lv_widgets/lv_dropdown.c **** }
 1031              		.loc 1 193 0
 1032 0042 2846     		mov	r0, r5
 1033 0044 FFF7FEFF 		bl	lv_obj_invalidate
 1034              	.LVL143:
 1035              	.L60:
 1036 0048 38BD     		pop	{r3, r4, r5, pc}
 1037              	.LVL144:
 1038              	.L67:
ARM GAS  C:\Users\strap\AppData\Local\Temp\ccf5xETM.s 			page 50


 1039 004a 00BF     		.align	2
 1040              	.L66:
 1041 004c 00000000 		.word	.LC0
 1042              		.cfi_endproc
 1043              	.LFE350:
 1044              		.size	lv_dropdown_clear_options, .-lv_dropdown_clear_options
 1045              		.section	.text.lv_dropdown_set_options,"ax",%progbits
 1046              		.align	2
 1047              		.global	lv_dropdown_set_options
 1048              		.thumb
 1049              		.thumb_func
 1050              		.type	lv_dropdown_set_options, %function
 1051              	lv_dropdown_set_options:
 1052              	.LFB351:
 203:lvgl\src\lv_widgets/lv_dropdown.c ****     LV_ASSERT_OBJ(ddlist, LV_OBJX_NAME);
 1053              		.loc 1 203 0
 1054              		.cfi_startproc
 1055              		@ args = 0, pretend = 0, frame = 0
 1056              		@ frame_needed = 0, uses_anonymous_args = 0
 1057              	.LVL145:
 1058 0000 70B5     		push	{r4, r5, r6, lr}
 1059              		.cfi_def_cfa_offset 16
 1060              		.cfi_offset 4, -16
 1061              		.cfi_offset 5, -12
 1062              		.cfi_offset 6, -8
 1063              		.cfi_offset 14, -4
 1064 0002 0446     		mov	r4, r0
 1065 0004 0D46     		mov	r5, r1
 204:lvgl\src\lv_widgets/lv_dropdown.c ****     LV_ASSERT_STR(options);
 1066              		.loc 1 204 0
 1067 0006 FFF7FEFF 		bl	lv_debug_check_null
 1068              	.LVL146:
 1069 000a 28B9     		cbnz	r0, .L69
 204:lvgl\src\lv_widgets/lv_dropdown.c ****     LV_ASSERT_STR(options);
 1070              		.loc 1 204 0 is_stmt 0 discriminator 1
 1071 000c 2246     		mov	r2, r4
 1072 000e 0023     		movs	r3, #0
 1073 0010 2548     		ldr	r0, .L81
 1074 0012 FFF7FEFF 		bl	lv_debug_log_error
 1075              	.LVL147:
 1076              	.L70:
 1077 0016 FEE7     		b	.L70
 1078              	.L69:
 205:lvgl\src\lv_widgets/lv_dropdown.c **** 
 1079              		.loc 1 205 0 is_stmt 1
 1080 0018 2846     		mov	r0, r5
 1081 001a FFF7FEFF 		bl	lv_debug_check_null
 1082              	.LVL148:
 1083 001e 28B9     		cbnz	r0, .L71
 205:lvgl\src\lv_widgets/lv_dropdown.c **** 
 1084              		.loc 1 205 0 is_stmt 0 discriminator 1
 1085 0020 2A46     		mov	r2, r5
 1086 0022 0023     		movs	r3, #0
 1087 0024 2048     		ldr	r0, .L81
 1088 0026 FFF7FEFF 		bl	lv_debug_log_error
 1089              	.LVL149:
 1090              	.L72:
ARM GAS  C:\Users\strap\AppData\Local\Temp\ccf5xETM.s 			page 51


 1091 002a FEE7     		b	.L72
 1092              	.L71:
 207:lvgl\src\lv_widgets/lv_dropdown.c **** 
 1093              		.loc 1 207 0 is_stmt 1
 1094 002c 2046     		mov	r0, r4
 1095 002e FFF7FEFF 		bl	lv_obj_get_ext_attr
 1096              	.LVL150:
 1097 0032 0446     		mov	r4, r0
 1098              	.LVL151:
 210:lvgl\src\lv_widgets/lv_dropdown.c ****     uint32_t i;
 1099              		.loc 1 210 0
 1100 0034 0023     		movs	r3, #0
 1101 0036 4385     		strh	r3, [r0, #42]	@ movhi
 1102              	.LVL152:
 212:lvgl\src\lv_widgets/lv_dropdown.c ****         if(options[i] == '\n') ext->option_cnt++;
 1103              		.loc 1 212 0
 1104 0038 05E0     		b	.L73
 1105              	.LVL153:
 1106              	.L75:
 213:lvgl\src\lv_widgets/lv_dropdown.c ****     }
 1107              		.loc 1 213 0
 1108 003a 0A2A     		cmp	r2, #10
 1109 003c 02D1     		bne	.L74
 213:lvgl\src\lv_widgets/lv_dropdown.c ****     }
 1110              		.loc 1 213 0 is_stmt 0 discriminator 1
 1111 003e 628D     		ldrh	r2, [r4, #42]
 1112 0040 0132     		adds	r2, r2, #1
 1113 0042 6285     		strh	r2, [r4, #42]	@ movhi
 1114              	.L74:
 212:lvgl\src\lv_widgets/lv_dropdown.c ****         if(options[i] == '\n') ext->option_cnt++;
 1115              		.loc 1 212 0 is_stmt 1 discriminator 2
 1116 0044 0133     		adds	r3, r3, #1
 1117              	.LVL154:
 1118              	.L73:
 212:lvgl\src\lv_widgets/lv_dropdown.c ****         if(options[i] == '\n') ext->option_cnt++;
 1119              		.loc 1 212 0 is_stmt 0 discriminator 1
 1120 0046 EA5C     		ldrb	r2, [r5, r3]	@ zero_extendqisi2
 1121 0048 002A     		cmp	r2, #0
 1122 004a F6D1     		bne	.L75
 215:lvgl\src\lv_widgets/lv_dropdown.c ****     ext->sel_opt_id      = 0;
 1123              		.loc 1 215 0 is_stmt 1
 1124 004c 638D     		ldrh	r3, [r4, #42]
 1125              	.LVL155:
 1126 004e 0133     		adds	r3, r3, #1
 1127 0050 6385     		strh	r3, [r4, #42]	@ movhi
 216:lvgl\src\lv_widgets/lv_dropdown.c ****     ext->sel_opt_id_orig = 0;
 1128              		.loc 1 216 0
 1129 0052 0023     		movs	r3, #0
 1130 0054 A385     		strh	r3, [r4, #44]	@ movhi
 217:lvgl\src\lv_widgets/lv_dropdown.c **** 
 1131              		.loc 1 217 0
 1132 0056 E385     		strh	r3, [r4, #46]	@ movhi
 220:lvgl\src\lv_widgets/lv_dropdown.c ****     if(ext->options != NULL && ext->static_txt == 0) {
 1133              		.loc 1 220 0
 1134 0058 2846     		mov	r0, r5
 1135              	.LVL156:
 1136 005a FFF7FEFF 		bl	strlen
ARM GAS  C:\Users\strap\AppData\Local\Temp\ccf5xETM.s 			page 52


 1137              	.LVL157:
 1138 005e 461C     		adds	r6, r0, #1
 1139              	.LVL158:
 221:lvgl\src\lv_widgets/lv_dropdown.c ****         lv_mem_free(ext->options);
 1140              		.loc 1 221 0
 1141 0060 E068     		ldr	r0, [r4, #12]
 1142 0062 40B1     		cbz	r0, .L76
 221:lvgl\src\lv_widgets/lv_dropdown.c ****         lv_mem_free(ext->options);
 1143              		.loc 1 221 0 is_stmt 0 discriminator 1
 1144 0064 94F83230 		ldrb	r3, [r4, #50]	@ zero_extendqisi2
 1145 0068 13F0080F 		tst	r3, #8
 1146 006c 03D1     		bne	.L76
 222:lvgl\src\lv_widgets/lv_dropdown.c ****         ext->options = NULL;
 1147              		.loc 1 222 0 is_stmt 1
 1148 006e FFF7FEFF 		bl	lv_mem_free
 1149              	.LVL159:
 223:lvgl\src\lv_widgets/lv_dropdown.c ****     }
 1150              		.loc 1 223 0
 1151 0072 0023     		movs	r3, #0
 1152 0074 E360     		str	r3, [r4, #12]
 1153              	.L76:
 226:lvgl\src\lv_widgets/lv_dropdown.c **** 
 1154              		.loc 1 226 0
 1155 0076 3046     		mov	r0, r6
 1156 0078 FFF7FEFF 		bl	lv_mem_alloc
 1157              	.LVL160:
 1158 007c E060     		str	r0, [r4, #12]
 228:lvgl\src\lv_widgets/lv_dropdown.c ****     if(ext->options == NULL) return;
 1159              		.loc 1 228 0
 1160 007e FFF7FEFF 		bl	lv_debug_check_null
 1161              	.LVL161:
 1162 0082 28B9     		cbnz	r0, .L77
 228:lvgl\src\lv_widgets/lv_dropdown.c ****     if(ext->options == NULL) return;
 1163              		.loc 1 228 0 is_stmt 0 discriminator 1
 1164 0084 E268     		ldr	r2, [r4, #12]
 1165 0086 0023     		movs	r3, #0
 1166 0088 0848     		ldr	r0, .L81+4
 1167 008a FFF7FEFF 		bl	lv_debug_log_error
 1168              	.LVL162:
 1169              	.L78:
 1170 008e FEE7     		b	.L78
 1171              	.L77:
 229:lvgl\src\lv_widgets/lv_dropdown.c **** 
 1172              		.loc 1 229 0 is_stmt 1
 1173 0090 E068     		ldr	r0, [r4, #12]
 1174 0092 40B1     		cbz	r0, .L68
 231:lvgl\src\lv_widgets/lv_dropdown.c **** 
 1175              		.loc 1 231 0
 1176 0094 2946     		mov	r1, r5
 1177 0096 FFF7FEFF 		bl	strcpy
 1178              	.LVL163:
 234:lvgl\src\lv_widgets/lv_dropdown.c **** }
 1179              		.loc 1 234 0
 1180 009a 94F83230 		ldrb	r3, [r4, #50]	@ zero_extendqisi2
 1181 009e 6FF3C303 		bfc	r3, #3, #1
 1182 00a2 84F83230 		strb	r3, [r4, #50]
 1183              	.L68:
ARM GAS  C:\Users\strap\AppData\Local\Temp\ccf5xETM.s 			page 53


 1184 00a6 70BD     		pop	{r4, r5, r6, pc}
 1185              	.LVL164:
 1186              	.L82:
 1187              		.align	2
 1188              	.L81:
 1189 00a8 00000000 		.word	.LC0
 1190 00ac 10000000 		.word	.LC1
 1191              		.cfi_endproc
 1192              	.LFE351:
 1193              		.size	lv_dropdown_set_options, .-lv_dropdown_set_options
 1194              		.section	.text.lv_dropdown_set_options_static,"ax",%progbits
 1195              		.align	2
 1196              		.global	lv_dropdown_set_options_static
 1197              		.thumb
 1198              		.thumb_func
 1199              		.type	lv_dropdown_set_options_static, %function
 1200              	lv_dropdown_set_options_static:
 1201              	.LFB352:
 243:lvgl\src\lv_widgets/lv_dropdown.c ****     LV_ASSERT_OBJ(ddlist, LV_OBJX_NAME);
 1202              		.loc 1 243 0
 1203              		.cfi_startproc
 1204              		@ args = 0, pretend = 0, frame = 0
 1205              		@ frame_needed = 0, uses_anonymous_args = 0
 1206              	.LVL165:
 1207 0000 38B5     		push	{r3, r4, r5, lr}
 1208              		.cfi_def_cfa_offset 16
 1209              		.cfi_offset 3, -16
 1210              		.cfi_offset 4, -12
 1211              		.cfi_offset 5, -8
 1212              		.cfi_offset 14, -4
 1213 0002 0446     		mov	r4, r0
 1214 0004 0D46     		mov	r5, r1
 244:lvgl\src\lv_widgets/lv_dropdown.c ****     LV_ASSERT_STR(options);
 1215              		.loc 1 244 0
 1216 0006 FFF7FEFF 		bl	lv_debug_check_null
 1217              	.LVL166:
 1218 000a 28B9     		cbnz	r0, .L84
 244:lvgl\src\lv_widgets/lv_dropdown.c ****     LV_ASSERT_STR(options);
 1219              		.loc 1 244 0 is_stmt 0 discriminator 1
 1220 000c 2246     		mov	r2, r4
 1221 000e 0023     		movs	r3, #0
 1222 0010 1B48     		ldr	r0, .L93
 1223 0012 FFF7FEFF 		bl	lv_debug_log_error
 1224              	.LVL167:
 1225              	.L85:
 1226 0016 FEE7     		b	.L85
 1227              	.L84:
 245:lvgl\src\lv_widgets/lv_dropdown.c **** 
 1228              		.loc 1 245 0 is_stmt 1
 1229 0018 2846     		mov	r0, r5
 1230 001a FFF7FEFF 		bl	lv_debug_check_null
 1231              	.LVL168:
 1232 001e 28B9     		cbnz	r0, .L86
 245:lvgl\src\lv_widgets/lv_dropdown.c **** 
 1233              		.loc 1 245 0 is_stmt 0 discriminator 1
 1234 0020 2A46     		mov	r2, r5
 1235 0022 0023     		movs	r3, #0
ARM GAS  C:\Users\strap\AppData\Local\Temp\ccf5xETM.s 			page 54


 1236 0024 1648     		ldr	r0, .L93
 1237 0026 FFF7FEFF 		bl	lv_debug_log_error
 1238              	.LVL169:
 1239              	.L87:
 1240 002a FEE7     		b	.L87
 1241              	.L86:
 247:lvgl\src\lv_widgets/lv_dropdown.c **** 
 1242              		.loc 1 247 0 is_stmt 1
 1243 002c 2046     		mov	r0, r4
 1244 002e FFF7FEFF 		bl	lv_obj_get_ext_attr
 1245              	.LVL170:
 1246 0032 0446     		mov	r4, r0
 1247              	.LVL171:
 250:lvgl\src\lv_widgets/lv_dropdown.c ****     uint32_t i;
 1248              		.loc 1 250 0
 1249 0034 0023     		movs	r3, #0
 1250 0036 4385     		strh	r3, [r0, #42]	@ movhi
 1251              	.LVL172:
 252:lvgl\src\lv_widgets/lv_dropdown.c ****         if(options[i] == '\n') ext->option_cnt++;
 1252              		.loc 1 252 0
 1253 0038 05E0     		b	.L88
 1254              	.LVL173:
 1255              	.L90:
 253:lvgl\src\lv_widgets/lv_dropdown.c ****     }
 1256              		.loc 1 253 0
 1257 003a 0A2A     		cmp	r2, #10
 1258 003c 02D1     		bne	.L89
 253:lvgl\src\lv_widgets/lv_dropdown.c ****     }
 1259              		.loc 1 253 0 is_stmt 0 discriminator 1
 1260 003e 628D     		ldrh	r2, [r4, #42]
 1261 0040 0132     		adds	r2, r2, #1
 1262 0042 6285     		strh	r2, [r4, #42]	@ movhi
 1263              	.L89:
 252:lvgl\src\lv_widgets/lv_dropdown.c ****         if(options[i] == '\n') ext->option_cnt++;
 1264              		.loc 1 252 0 is_stmt 1 discriminator 2
 1265 0044 0133     		adds	r3, r3, #1
 1266              	.LVL174:
 1267              	.L88:
 252:lvgl\src\lv_widgets/lv_dropdown.c ****         if(options[i] == '\n') ext->option_cnt++;
 1268              		.loc 1 252 0 is_stmt 0 discriminator 1
 1269 0046 EA5C     		ldrb	r2, [r5, r3]	@ zero_extendqisi2
 1270 0048 002A     		cmp	r2, #0
 1271 004a F6D1     		bne	.L90
 255:lvgl\src\lv_widgets/lv_dropdown.c ****     ext->sel_opt_id      = 0;
 1272              		.loc 1 255 0 is_stmt 1
 1273 004c 638D     		ldrh	r3, [r4, #42]
 1274              	.LVL175:
 1275 004e 0133     		adds	r3, r3, #1
 1276 0050 6385     		strh	r3, [r4, #42]	@ movhi
 256:lvgl\src\lv_widgets/lv_dropdown.c ****     ext->sel_opt_id_orig = 0;
 1277              		.loc 1 256 0
 1278 0052 0023     		movs	r3, #0
 1279 0054 A385     		strh	r3, [r4, #44]	@ movhi
 257:lvgl\src\lv_widgets/lv_dropdown.c **** 
 1280              		.loc 1 257 0
 1281 0056 E385     		strh	r3, [r4, #46]	@ movhi
 259:lvgl\src\lv_widgets/lv_dropdown.c ****         lv_mem_free(ext->options);
ARM GAS  C:\Users\strap\AppData\Local\Temp\ccf5xETM.s 			page 55


 1282              		.loc 1 259 0
 1283 0058 94F83230 		ldrb	r3, [r4, #50]	@ zero_extendqisi2
 1284 005c 13F0080F 		tst	r3, #8
 1285 0060 05D1     		bne	.L91
 259:lvgl\src\lv_widgets/lv_dropdown.c ****         lv_mem_free(ext->options);
 1286              		.loc 1 259 0 is_stmt 0 discriminator 1
 1287 0062 E068     		ldr	r0, [r4, #12]
 1288              	.LVL176:
 1289 0064 18B1     		cbz	r0, .L91
 260:lvgl\src\lv_widgets/lv_dropdown.c ****         ext->options = NULL;
 1290              		.loc 1 260 0 is_stmt 1
 1291 0066 FFF7FEFF 		bl	lv_mem_free
 1292              	.LVL177:
 261:lvgl\src\lv_widgets/lv_dropdown.c ****     }
 1293              		.loc 1 261 0
 1294 006a 0023     		movs	r3, #0
 1295 006c E360     		str	r3, [r4, #12]
 1296              	.L91:
 264:lvgl\src\lv_widgets/lv_dropdown.c ****     ext->options = (char *)options;
 1297              		.loc 1 264 0
 1298 006e 94F83230 		ldrb	r3, [r4, #50]	@ zero_extendqisi2
 1299 0072 43F00803 		orr	r3, r3, #8
 1300 0076 84F83230 		strb	r3, [r4, #50]
 265:lvgl\src\lv_widgets/lv_dropdown.c **** }
 1301              		.loc 1 265 0
 1302 007a E560     		str	r5, [r4, #12]
 1303 007c 38BD     		pop	{r3, r4, r5, pc}
 1304              	.LVL178:
 1305              	.L94:
 1306 007e 00BF     		.align	2
 1307              	.L93:
 1308 0080 00000000 		.word	.LC0
 1309              		.cfi_endproc
 1310              	.LFE352:
 1311              		.size	lv_dropdown_set_options_static, .-lv_dropdown_set_options_static
 1312              		.section	.text.lv_dropdown_add_option,"ax",%progbits
 1313              		.align	2
 1314              		.global	lv_dropdown_add_option
 1315              		.thumb
 1316              		.thumb_func
 1317              		.type	lv_dropdown_add_option, %function
 1318              	lv_dropdown_add_option:
 1319              	.LFB353:
 275:lvgl\src\lv_widgets/lv_dropdown.c ****     LV_ASSERT_OBJ(ddlist, LV_OBJX_NAME);
 1320              		.loc 1 275 0
 1321              		.cfi_startproc
 1322              		@ args = 0, pretend = 0, frame = 0
 1323              		@ frame_needed = 0, uses_anonymous_args = 0
 1324              	.LVL179:
 1325 0000 2DE9F84F 		push	{r3, r4, r5, r6, r7, r8, r9, r10, fp, lr}
 1326              		.cfi_def_cfa_offset 40
 1327              		.cfi_offset 3, -40
 1328              		.cfi_offset 4, -36
 1329              		.cfi_offset 5, -32
 1330              		.cfi_offset 6, -28
 1331              		.cfi_offset 7, -24
 1332              		.cfi_offset 8, -20
ARM GAS  C:\Users\strap\AppData\Local\Temp\ccf5xETM.s 			page 56


 1333              		.cfi_offset 9, -16
 1334              		.cfi_offset 10, -12
 1335              		.cfi_offset 11, -8
 1336              		.cfi_offset 14, -4
 1337 0004 8146     		mov	r9, r0
 1338 0006 8846     		mov	r8, r1
 1339 0008 1746     		mov	r7, r2
 276:lvgl\src\lv_widgets/lv_dropdown.c ****     LV_ASSERT_STR(option);
 1340              		.loc 1 276 0
 1341 000a FFF7FEFF 		bl	lv_debug_check_null
 1342              	.LVL180:
 1343 000e 28B9     		cbnz	r0, .L96
 276:lvgl\src\lv_widgets/lv_dropdown.c ****     LV_ASSERT_STR(option);
 1344              		.loc 1 276 0 is_stmt 0 discriminator 1
 1345 0010 4A46     		mov	r2, r9
 1346 0012 0023     		movs	r3, #0
 1347 0014 5448     		ldr	r0, .L118
 1348 0016 FFF7FEFF 		bl	lv_debug_log_error
 1349              	.LVL181:
 1350              	.L97:
 1351 001a FEE7     		b	.L97
 1352              	.L96:
 277:lvgl\src\lv_widgets/lv_dropdown.c **** 
 1353              		.loc 1 277 0 is_stmt 1
 1354 001c 4046     		mov	r0, r8
 1355 001e FFF7FEFF 		bl	lv_debug_check_null
 1356              	.LVL182:
 1357 0022 28B9     		cbnz	r0, .L98
 277:lvgl\src\lv_widgets/lv_dropdown.c **** 
 1358              		.loc 1 277 0 is_stmt 0 discriminator 1
 1359 0024 4246     		mov	r2, r8
 1360 0026 0023     		movs	r3, #0
 1361 0028 4F48     		ldr	r0, .L118
 1362 002a FFF7FEFF 		bl	lv_debug_log_error
 1363              	.LVL183:
 1364              	.L99:
 1365 002e FEE7     		b	.L99
 1366              	.L98:
 279:lvgl\src\lv_widgets/lv_dropdown.c **** 
 1367              		.loc 1 279 0 is_stmt 1
 1368 0030 4846     		mov	r0, r9
 1369 0032 FFF7FEFF 		bl	lv_obj_get_ext_attr
 1370              	.LVL184:
 1371 0036 0446     		mov	r4, r0
 1372              	.LVL185:
 282:lvgl\src\lv_widgets/lv_dropdown.c ****         char * static_options = ext->options;
 1373              		.loc 1 282 0
 1374 0038 90F83230 		ldrb	r3, [r0, #50]	@ zero_extendqisi2
 1375 003c 13F0080F 		tst	r3, #8
 1376 0040 1CD0     		beq	.L100
 1377              	.LBB99:
 283:lvgl\src\lv_widgets/lv_dropdown.c ****         size_t len = strlen(static_options) + 1;
 1378              		.loc 1 283 0
 1379 0042 C568     		ldr	r5, [r0, #12]
 1380              	.LVL186:
 284:lvgl\src\lv_widgets/lv_dropdown.c **** 
 1381              		.loc 1 284 0
ARM GAS  C:\Users\strap\AppData\Local\Temp\ccf5xETM.s 			page 57


 1382 0044 2846     		mov	r0, r5
 1383              	.LVL187:
 1384 0046 FFF7FEFF 		bl	strlen
 1385              	.LVL188:
 286:lvgl\src\lv_widgets/lv_dropdown.c ****         LV_ASSERT_MEM(ext->options);
 1386              		.loc 1 286 0
 1387 004a 0130     		adds	r0, r0, #1
 1388              	.LVL189:
 1389 004c FFF7FEFF 		bl	lv_mem_alloc
 1390              	.LVL190:
 1391 0050 E060     		str	r0, [r4, #12]
 287:lvgl\src\lv_widgets/lv_dropdown.c ****         if(ext->options == NULL) return;
 1392              		.loc 1 287 0
 1393 0052 FFF7FEFF 		bl	lv_debug_check_null
 1394              	.LVL191:
 1395 0056 28B9     		cbnz	r0, .L101
 287:lvgl\src\lv_widgets/lv_dropdown.c ****         if(ext->options == NULL) return;
 1396              		.loc 1 287 0 is_stmt 0 discriminator 1
 1397 0058 E268     		ldr	r2, [r4, #12]
 1398 005a 0023     		movs	r3, #0
 1399 005c 4348     		ldr	r0, .L118+4
 1400 005e FFF7FEFF 		bl	lv_debug_log_error
 1401              	.LVL192:
 1402              	.L102:
 1403 0062 FEE7     		b	.L102
 1404              	.L101:
 288:lvgl\src\lv_widgets/lv_dropdown.c **** 
 1405              		.loc 1 288 0 is_stmt 1
 1406 0064 E068     		ldr	r0, [r4, #12]
 1407 0066 0028     		cmp	r0, #0
 1408 0068 7CD0     		beq	.L95
 290:lvgl\src\lv_widgets/lv_dropdown.c ****         ext->static_txt = 0;
 1409              		.loc 1 290 0
 1410 006a 2946     		mov	r1, r5
 1411 006c FFF7FEFF 		bl	strcpy
 1412              	.LVL193:
 291:lvgl\src\lv_widgets/lv_dropdown.c ****     }
 1413              		.loc 1 291 0
 1414 0070 94F83230 		ldrb	r3, [r4, #50]	@ zero_extendqisi2
 1415 0074 6FF3C303 		bfc	r3, #3, #1
 1416 0078 84F83230 		strb	r3, [r4, #50]
 1417              	.LVL194:
 1418              	.L100:
 1419              	.LBE99:
 295:lvgl\src\lv_widgets/lv_dropdown.c ****     size_t ins_len = strlen(option);
 1420              		.loc 1 295 0
 1421 007c E668     		ldr	r6, [r4, #12]
 1422 007e 26B1     		cbz	r6, .L115
 295:lvgl\src\lv_widgets/lv_dropdown.c ****     size_t ins_len = strlen(option);
 1423              		.loc 1 295 0 is_stmt 0 discriminator 1
 1424 0080 3046     		mov	r0, r6
 1425 0082 FFF7FEFF 		bl	strlen
 1426              	.LVL195:
 1427 0086 0546     		mov	r5, r0
 1428 0088 00E0     		b	.L104
 1429              	.L115:
 295:lvgl\src\lv_widgets/lv_dropdown.c ****     size_t ins_len = strlen(option);
ARM GAS  C:\Users\strap\AppData\Local\Temp\ccf5xETM.s 			page 58


 1430              		.loc 1 295 0
 1431 008a 0025     		movs	r5, #0
 1432              	.L104:
 1433              	.LVL196:
 296:lvgl\src\lv_widgets/lv_dropdown.c ****     size_t new_len = ins_len + old_len + 2; /* +2 for terminating NULL and possible \n */
 1434              		.loc 1 296 0 is_stmt 1 discriminator 4
 1435 008c 4046     		mov	r0, r8
 1436 008e FFF7FEFF 		bl	strlen
 1437              	.LVL197:
 1438 0092 8246     		mov	r10, r0
 1439              	.LVL198:
 297:lvgl\src\lv_widgets/lv_dropdown.c ****     ext->options        = lv_mem_realloc(ext->options, new_len + 1);
 1440              		.loc 1 297 0 discriminator 4
 1441 0094 2918     		adds	r1, r5, r0
 1442              	.LVL199:
 298:lvgl\src\lv_widgets/lv_dropdown.c ****     LV_ASSERT_MEM(ext->options);
 1443              		.loc 1 298 0 discriminator 4
 1444 0096 0331     		adds	r1, r1, #3
 1445              	.LVL200:
 1446 0098 3046     		mov	r0, r6
 1447              	.LVL201:
 1448 009a FFF7FEFF 		bl	lv_mem_realloc
 1449              	.LVL202:
 1450 009e E060     		str	r0, [r4, #12]
 299:lvgl\src\lv_widgets/lv_dropdown.c ****     if(ext->options == NULL) return;
 1451              		.loc 1 299 0 discriminator 4
 1452 00a0 FFF7FEFF 		bl	lv_debug_check_null
 1453              	.LVL203:
 1454 00a4 28B9     		cbnz	r0, .L105
 299:lvgl\src\lv_widgets/lv_dropdown.c ****     if(ext->options == NULL) return;
 1455              		.loc 1 299 0 is_stmt 0 discriminator 1
 1456 00a6 E268     		ldr	r2, [r4, #12]
 1457 00a8 0023     		movs	r3, #0
 1458 00aa 3048     		ldr	r0, .L118+4
 1459 00ac FFF7FEFF 		bl	lv_debug_log_error
 1460              	.LVL204:
 1461              	.L106:
 1462 00b0 FEE7     		b	.L106
 1463              	.L105:
 300:lvgl\src\lv_widgets/lv_dropdown.c **** 
 1464              		.loc 1 300 0 is_stmt 1
 1465 00b2 E368     		ldr	r3, [r4, #12]
 1466 00b4 002B     		cmp	r3, #0
 1467 00b6 55D0     		beq	.L95
 302:lvgl\src\lv_widgets/lv_dropdown.c **** 
 1468              		.loc 1 302 0
 1469 00b8 0022     		movs	r2, #0
 1470 00ba 5A55     		strb	r2, [r3, r5]
 1471              	.LVL205:
 306:lvgl\src\lv_widgets/lv_dropdown.c ****         uint32_t opcnt = 0;
 1472              		.loc 1 306 0
 1473 00bc 4FF6FF73 		movw	r3, #65535
 1474 00c0 9F42     		cmp	r7, r3
 1475 00c2 07D1     		bne	.L116
 1476              	.LBB100:
 1477 00c4 0CE0     		b	.L108
 1478              	.LVL206:
ARM GAS  C:\Users\strap\AppData\Local\Temp\ccf5xETM.s 			page 59


 1479              	.L110:
 309:lvgl\src\lv_widgets/lv_dropdown.c ****                 break;
 1480              		.loc 1 309 0
 1481 00c6 BB42     		cmp	r3, r7
 1482 00c8 0AD0     		beq	.L108
 311:lvgl\src\lv_widgets/lv_dropdown.c ****                 opcnt++;
 1483              		.loc 1 311 0
 1484 00ca 0A2A     		cmp	r2, #10
 1485 00cc 00D1     		bne	.L109
 312:lvgl\src\lv_widgets/lv_dropdown.c ****         }
 1486              		.loc 1 312 0
 1487 00ce 0133     		adds	r3, r3, #1
 1488              	.LVL207:
 1489              	.L109:
 308:lvgl\src\lv_widgets/lv_dropdown.c ****             if(opcnt == pos)
 1490              		.loc 1 308 0 discriminator 2
 1491 00d0 0135     		adds	r5, r5, #1
 1492              	.LVL208:
 1493 00d2 01E0     		b	.L107
 1494              	.LVL209:
 1495              	.L116:
 1496              	.LBE100:
 1497 00d4 0023     		movs	r3, #0
 1498 00d6 1D46     		mov	r5, r3
 1499              	.LVL210:
 1500              	.L107:
 1501              	.LBB101:
 308:lvgl\src\lv_widgets/lv_dropdown.c ****             if(opcnt == pos)
 1502              		.loc 1 308 0 is_stmt 0 discriminator 1
 1503 00d8 E268     		ldr	r2, [r4, #12]
 1504 00da 525D     		ldrb	r2, [r2, r5]	@ zero_extendqisi2
 1505 00dc 002A     		cmp	r2, #0
 1506 00de F2D1     		bne	.L110
 1507              	.LVL211:
 1508              	.L108:
 1509              	.LBE101:
 317:lvgl\src\lv_widgets/lv_dropdown.c ****         _lv_txt_ins(ext->options, _lv_txt_encoded_get_char_id(ext->options, insert_pos++), "\n");
 1510              		.loc 1 317 0 is_stmt 1
 1511 00e0 85B1     		cbz	r5, .L111
 317:lvgl\src\lv_widgets/lv_dropdown.c ****         _lv_txt_ins(ext->options, _lv_txt_encoded_get_char_id(ext->options, insert_pos++), "\n");
 1512              		.loc 1 317 0 is_stmt 0 discriminator 1
 1513 00e2 638D     		ldrh	r3, [r4, #42]
 1514 00e4 9F42     		cmp	r7, r3
 1515 00e6 0DD3     		bcc	.L111
 318:lvgl\src\lv_widgets/lv_dropdown.c **** 
 1516              		.loc 1 318 0 is_stmt 1
 1517 00e8 E668     		ldr	r6, [r4, #12]
 1518 00ea 05F1010B 		add	fp, r5, #1
 1519              	.LVL212:
 1520 00ee 204B     		ldr	r3, .L118+8
 1521 00f0 1B68     		ldr	r3, [r3]
 1522 00f2 2946     		mov	r1, r5
 1523 00f4 3046     		mov	r0, r6
 1524 00f6 9847     		blx	r3
 1525              	.LVL213:
 1526 00f8 1E4A     		ldr	r2, .L118+12
 1527 00fa 0146     		mov	r1, r0
ARM GAS  C:\Users\strap\AppData\Local\Temp\ccf5xETM.s 			page 60


 1528 00fc 3046     		mov	r0, r6
 1529 00fe FFF7FEFF 		bl	_lv_txt_ins
 1530              	.LVL214:
 1531 0102 5D46     		mov	r5, fp
 1532              	.LVL215:
 1533              	.L111:
 321:lvgl\src\lv_widgets/lv_dropdown.c ****     LV_ASSERT_MEM(ins_buf);
 1534              		.loc 1 321 0
 1535 0104 0AF10200 		add	r0, r10, #2
 1536 0108 FFF7FEFF 		bl	_lv_mem_buf_get
 1537              	.LVL216:
 1538 010c 0646     		mov	r6, r0
 1539              	.LVL217:
 322:lvgl\src\lv_widgets/lv_dropdown.c ****     if(ins_buf == NULL) return;
 1540              		.loc 1 322 0
 1541 010e FFF7FEFF 		bl	lv_debug_check_null
 1542              	.LVL218:
 1543 0112 28B9     		cbnz	r0, .L112
 322:lvgl\src\lv_widgets/lv_dropdown.c ****     if(ins_buf == NULL) return;
 1544              		.loc 1 322 0 is_stmt 0 discriminator 1
 1545 0114 3246     		mov	r2, r6
 1546 0116 0023     		movs	r3, #0
 1547 0118 1448     		ldr	r0, .L118+4
 1548 011a FFF7FEFF 		bl	lv_debug_log_error
 1549              	.LVL219:
 1550              	.L113:
 1551 011e FEE7     		b	.L113
 1552              	.L112:
 323:lvgl\src\lv_widgets/lv_dropdown.c ****     strcpy(ins_buf, option);
 1553              		.loc 1 323 0 is_stmt 1
 1554 0120 06B3     		cbz	r6, .L95
 324:lvgl\src\lv_widgets/lv_dropdown.c ****     if(pos < ext->option_cnt)
 1555              		.loc 1 324 0
 1556 0122 4146     		mov	r1, r8
 1557 0124 3046     		mov	r0, r6
 1558 0126 FFF7FEFF 		bl	strcpy
 1559              	.LVL220:
 325:lvgl\src\lv_widgets/lv_dropdown.c ****         strcat(ins_buf, "\n");
 1560              		.loc 1 325 0
 1561 012a 638D     		ldrh	r3, [r4, #42]
 1562 012c 9F42     		cmp	r7, r3
 1563 012e 05D2     		bcs	.L114
 326:lvgl\src\lv_widgets/lv_dropdown.c ****     _lv_txt_ins(ext->options, _lv_txt_encoded_get_char_id(ext->options, insert_pos), ins_buf);
 1564              		.loc 1 326 0
 1565 0130 3046     		mov	r0, r6
 1566 0132 FFF7FEFF 		bl	strlen
 1567              	.LVL221:
 1568 0136 0F4B     		ldr	r3, .L118+12
 1569 0138 1B88     		ldrh	r3, [r3]	@ unaligned
 1570 013a 3352     		strh	r3, [r6, r0]	@ unaligned
 1571              	.L114:
 327:lvgl\src\lv_widgets/lv_dropdown.c ****     _lv_mem_buf_release(ins_buf);
 1572              		.loc 1 327 0
 1573 013c E768     		ldr	r7, [r4, #12]
 1574              	.LVL222:
 1575 013e 0C4B     		ldr	r3, .L118+8
 1576 0140 1B68     		ldr	r3, [r3]
ARM GAS  C:\Users\strap\AppData\Local\Temp\ccf5xETM.s 			page 61


 1577 0142 2946     		mov	r1, r5
 1578 0144 3846     		mov	r0, r7
 1579 0146 9847     		blx	r3
 1580              	.LVL223:
 1581 0148 3246     		mov	r2, r6
 1582 014a 0146     		mov	r1, r0
 1583 014c 3846     		mov	r0, r7
 1584 014e FFF7FEFF 		bl	_lv_txt_ins
 1585              	.LVL224:
 328:lvgl\src\lv_widgets/lv_dropdown.c **** 
 1586              		.loc 1 328 0
 1587 0152 3046     		mov	r0, r6
 1588 0154 FFF7FEFF 		bl	_lv_mem_buf_release
 1589              	.LVL225:
 330:lvgl\src\lv_widgets/lv_dropdown.c **** 
 1590              		.loc 1 330 0
 1591 0158 638D     		ldrh	r3, [r4, #42]
 1592 015a 0133     		adds	r3, r3, #1
 1593 015c 6385     		strh	r3, [r4, #42]	@ movhi
 332:lvgl\src\lv_widgets/lv_dropdown.c **** }
 1594              		.loc 1 332 0
 1595 015e 4846     		mov	r0, r9
 1596 0160 FFF7FEFF 		bl	lv_obj_invalidate
 1597              	.LVL226:
 1598              	.L95:
 1599 0164 BDE8F88F 		pop	{r3, r4, r5, r6, r7, r8, r9, r10, fp, pc}
 1600              	.LVL227:
 1601              	.L119:
 1602              		.align	2
 1603              	.L118:
 1604 0168 00000000 		.word	.LC0
 1605 016c 10000000 		.word	.LC1
 1606 0170 00000000 		.word	_lv_txt_encoded_get_char_id
 1607 0174 20000000 		.word	.LC2
 1608              		.cfi_endproc
 1609              	.LFE353:
 1610              		.size	lv_dropdown_add_option, .-lv_dropdown_add_option
 1611              		.section	.text.lv_dropdown_set_selected,"ax",%progbits
 1612              		.align	2
 1613              		.global	lv_dropdown_set_selected
 1614              		.thumb
 1615              		.thumb_func
 1616              		.type	lv_dropdown_set_selected, %function
 1617              	lv_dropdown_set_selected:
 1618              	.LFB354:
 341:lvgl\src\lv_widgets/lv_dropdown.c ****     LV_ASSERT_OBJ(ddlist, LV_OBJX_NAME);
 1619              		.loc 1 341 0
 1620              		.cfi_startproc
 1621              		@ args = 0, pretend = 0, frame = 0
 1622              		@ frame_needed = 0, uses_anonymous_args = 0
 1623              	.LVL228:
 1624 0000 38B5     		push	{r3, r4, r5, lr}
 1625              		.cfi_def_cfa_offset 16
 1626              		.cfi_offset 3, -16
 1627              		.cfi_offset 4, -12
 1628              		.cfi_offset 5, -8
 1629              		.cfi_offset 14, -4
ARM GAS  C:\Users\strap\AppData\Local\Temp\ccf5xETM.s 			page 62


 1630 0002 0546     		mov	r5, r0
 1631 0004 0C46     		mov	r4, r1
 342:lvgl\src\lv_widgets/lv_dropdown.c **** 
 1632              		.loc 1 342 0
 1633 0006 FFF7FEFF 		bl	lv_debug_check_null
 1634              	.LVL229:
 1635 000a 28B9     		cbnz	r0, .L121
 342:lvgl\src\lv_widgets/lv_dropdown.c **** 
 1636              		.loc 1 342 0 is_stmt 0 discriminator 1
 1637 000c 2A46     		mov	r2, r5
 1638 000e 0023     		movs	r3, #0
 1639 0010 0B48     		ldr	r0, .L127
 1640 0012 FFF7FEFF 		bl	lv_debug_log_error
 1641              	.LVL230:
 1642              	.L122:
 1643 0016 FEE7     		b	.L122
 1644              	.L121:
 344:lvgl\src\lv_widgets/lv_dropdown.c ****     if(ext->sel_opt_id == sel_opt) return;
 1645              		.loc 1 344 0 is_stmt 1
 1646 0018 2846     		mov	r0, r5
 1647 001a FFF7FEFF 		bl	lv_obj_get_ext_attr
 1648              	.LVL231:
 345:lvgl\src\lv_widgets/lv_dropdown.c **** 
 1649              		.loc 1 345 0
 1650 001e 838D     		ldrh	r3, [r0, #44]
 1651 0020 A342     		cmp	r3, r4
 1652 0022 0BD0     		beq	.L120
 347:lvgl\src\lv_widgets/lv_dropdown.c ****     ext->sel_opt_id_orig = ext->sel_opt_id;
 1653              		.loc 1 347 0
 1654 0024 438D     		ldrh	r3, [r0, #42]
 1655 0026 9C42     		cmp	r4, r3
 1656 0028 01D3     		bcc	.L124
 347:lvgl\src\lv_widgets/lv_dropdown.c ****     ext->sel_opt_id_orig = ext->sel_opt_id;
 1657              		.loc 1 347 0 is_stmt 0 discriminator 1
 1658 002a 5C1E     		subs	r4, r3, #1
 1659 002c A4B2     		uxth	r4, r4
 1660              	.L124:
 347:lvgl\src\lv_widgets/lv_dropdown.c ****     ext->sel_opt_id_orig = ext->sel_opt_id;
 1661              		.loc 1 347 0 discriminator 4
 1662 002e 8485     		strh	r4, [r0, #44]	@ movhi
 348:lvgl\src\lv_widgets/lv_dropdown.c ****     /*Move the list to show the current option*/
 1663              		.loc 1 348 0 is_stmt 1 discriminator 4
 1664 0030 C485     		strh	r4, [r0, #46]	@ movhi
 350:lvgl\src\lv_widgets/lv_dropdown.c ****         lv_obj_invalidate(ddlist);
 1665              		.loc 1 350 0 discriminator 4
 1666 0032 0368     		ldr	r3, [r0]
 1667 0034 13B1     		cbz	r3, .L120
 351:lvgl\src\lv_widgets/lv_dropdown.c ****     }
 1668              		.loc 1 351 0
 1669 0036 2846     		mov	r0, r5
 1670              	.LVL232:
 1671 0038 FFF7FEFF 		bl	lv_obj_invalidate
 1672              	.LVL233:
 1673              	.L120:
 1674 003c 38BD     		pop	{r3, r4, r5, pc}
 1675              	.LVL234:
 1676              	.L128:
ARM GAS  C:\Users\strap\AppData\Local\Temp\ccf5xETM.s 			page 63


 1677 003e 00BF     		.align	2
 1678              	.L127:
 1679 0040 00000000 		.word	.LC0
 1680              		.cfi_endproc
 1681              	.LFE354:
 1682              		.size	lv_dropdown_set_selected, .-lv_dropdown_set_selected
 1683              		.section	.text.lv_dropdown_set_dir,"ax",%progbits
 1684              		.align	2
 1685              		.global	lv_dropdown_set_dir
 1686              		.thumb
 1687              		.thumb_func
 1688              		.type	lv_dropdown_set_dir, %function
 1689              	lv_dropdown_set_dir:
 1690              	.LFB355:
 361:lvgl\src\lv_widgets/lv_dropdown.c ****     LV_ASSERT_OBJ(ddlist, LV_OBJX_NAME);
 1691              		.loc 1 361 0
 1692              		.cfi_startproc
 1693              		@ args = 0, pretend = 0, frame = 0
 1694              		@ frame_needed = 0, uses_anonymous_args = 0
 1695              	.LVL235:
 1696 0000 38B5     		push	{r3, r4, r5, lr}
 1697              		.cfi_def_cfa_offset 16
 1698              		.cfi_offset 3, -16
 1699              		.cfi_offset 4, -12
 1700              		.cfi_offset 5, -8
 1701              		.cfi_offset 14, -4
 1702 0002 0446     		mov	r4, r0
 1703 0004 0D46     		mov	r5, r1
 362:lvgl\src\lv_widgets/lv_dropdown.c **** 
 1704              		.loc 1 362 0
 1705 0006 FFF7FEFF 		bl	lv_debug_check_null
 1706              	.LVL236:
 1707 000a 28B9     		cbnz	r0, .L130
 362:lvgl\src\lv_widgets/lv_dropdown.c **** 
 1708              		.loc 1 362 0 is_stmt 0 discriminator 1
 1709 000c 2246     		mov	r2, r4
 1710 000e 0023     		movs	r3, #0
 1711 0010 0B48     		ldr	r0, .L134
 1712 0012 FFF7FEFF 		bl	lv_debug_log_error
 1713              	.LVL237:
 1714              	.L131:
 1715 0016 FEE7     		b	.L131
 1716              	.L130:
 364:lvgl\src\lv_widgets/lv_dropdown.c ****     if(ext->dir == dir) return;
 1717              		.loc 1 364 0 is_stmt 1
 1718 0018 2046     		mov	r0, r4
 1719 001a FFF7FEFF 		bl	lv_obj_get_ext_attr
 1720              	.LVL238:
 365:lvgl\src\lv_widgets/lv_dropdown.c **** 
 1721              		.loc 1 365 0
 1722 001e 90F83230 		ldrb	r3, [r0, #50]	@ zero_extendqisi2
 1723 0022 03F00303 		and	r3, r3, #3
 1724 0026 AB42     		cmp	r3, r5
 1725 0028 08D0     		beq	.L129
 367:lvgl\src\lv_widgets/lv_dropdown.c **** 
 1726              		.loc 1 367 0
 1727 002a 90F83230 		ldrb	r3, [r0, #50]	@ zero_extendqisi2
ARM GAS  C:\Users\strap\AppData\Local\Temp\ccf5xETM.s 			page 64


 1728 002e 65F30103 		bfi	r3, r5, #0, #2
 1729 0032 80F83230 		strb	r3, [r0, #50]
 369:lvgl\src\lv_widgets/lv_dropdown.c **** }
 1730              		.loc 1 369 0
 1731 0036 2046     		mov	r0, r4
 1732              	.LVL239:
 1733 0038 FFF7FEFF 		bl	lv_obj_invalidate
 1734              	.LVL240:
 1735              	.L129:
 1736 003c 38BD     		pop	{r3, r4, r5, pc}
 1737              	.LVL241:
 1738              	.L135:
 1739 003e 00BF     		.align	2
 1740              	.L134:
 1741 0040 00000000 		.word	.LC0
 1742              		.cfi_endproc
 1743              	.LFE355:
 1744              		.size	lv_dropdown_set_dir, .-lv_dropdown_set_dir
 1745              		.section	.text.lv_dropdown_set_max_height,"ax",%progbits
 1746              		.align	2
 1747              		.global	lv_dropdown_set_max_height
 1748              		.thumb
 1749              		.thumb_func
 1750              		.type	lv_dropdown_set_max_height, %function
 1751              	lv_dropdown_set_max_height:
 1752              	.LFB356:
 378:lvgl\src\lv_widgets/lv_dropdown.c ****     LV_ASSERT_OBJ(ddlist, LV_OBJX_NAME);
 1753              		.loc 1 378 0
 1754              		.cfi_startproc
 1755              		@ args = 0, pretend = 0, frame = 0
 1756              		@ frame_needed = 0, uses_anonymous_args = 0
 1757              	.LVL242:
 1758 0000 30B5     		push	{r4, r5, lr}
 1759              		.cfi_def_cfa_offset 12
 1760              		.cfi_offset 4, -12
 1761              		.cfi_offset 5, -8
 1762              		.cfi_offset 14, -4
 1763 0002 83B0     		sub	sp, sp, #12
 1764              		.cfi_def_cfa_offset 24
 1765 0004 0446     		mov	r4, r0
 1766 0006 0D46     		mov	r5, r1
 379:lvgl\src\lv_widgets/lv_dropdown.c **** 
 1767              		.loc 1 379 0
 1768 0008 FFF7FEFF 		bl	lv_debug_check_null
 1769              	.LVL243:
 1770 000c 28B9     		cbnz	r0, .L137
 379:lvgl\src\lv_widgets/lv_dropdown.c **** 
 1771              		.loc 1 379 0 is_stmt 0 discriminator 1
 1772 000e 2246     		mov	r2, r4
 1773 0010 0023     		movs	r3, #0
 1774 0012 1148     		ldr	r0, .L142
 1775 0014 FFF7FEFF 		bl	lv_debug_log_error
 1776              	.LVL244:
 1777              	.L138:
 1778 0018 FEE7     		b	.L138
 1779              	.L137:
 381:lvgl\src\lv_widgets/lv_dropdown.c ****     if(ext->max_height == h) return;
ARM GAS  C:\Users\strap\AppData\Local\Temp\ccf5xETM.s 			page 65


 1780              		.loc 1 381 0 is_stmt 1
 1781 001a 2046     		mov	r0, r4
 1782 001c FFF7FEFF 		bl	lv_obj_get_ext_attr
 1783              	.LVL245:
 1784 0020 0446     		mov	r4, r0
 1785              	.LVL246:
 382:lvgl\src\lv_widgets/lv_dropdown.c **** 
 1786              		.loc 1 382 0
 1787 0022 B0F92830 		ldrsh	r3, [r0, #40]
 1788 0026 AB42     		cmp	r3, r5
 1789 0028 14D0     		beq	.L136
 384:lvgl\src\lv_widgets/lv_dropdown.c **** 
 1790              		.loc 1 384 0
 1791 002a 0585     		strh	r5, [r0, #40]	@ movhi
 386:lvgl\src\lv_widgets/lv_dropdown.c ****         if(h == 0) {
 1792              		.loc 1 386 0
 1793 002c 0068     		ldr	r0, [r0]
 1794              	.LVL247:
 1795 002e 88B1     		cbz	r0, .L136
 387:lvgl\src\lv_widgets/lv_dropdown.c ****             lv_cont_set_fit(ext->page, LV_FIT_TIGHT);
 1796              		.loc 1 387 0
 1797 0030 35B9     		cbnz	r5, .L140
 1798              	.LVL248:
 1799              	.LBB102:
 1800              	.LBB103:
 1801              		.file 4 "lvgl\\src\\lv_widgets\\../lv_widgets/lv_cont.h"
   1:lvgl\src\lv_widgets\../lv_widgets/lv_cont.h **** /**
   2:lvgl\src\lv_widgets\../lv_widgets/lv_cont.h ****  * @file lv_cont.h
   3:lvgl\src\lv_widgets\../lv_widgets/lv_cont.h ****  *
   4:lvgl\src\lv_widgets\../lv_widgets/lv_cont.h ****  */
   5:lvgl\src\lv_widgets\../lv_widgets/lv_cont.h **** 
   6:lvgl\src\lv_widgets\../lv_widgets/lv_cont.h **** #ifndef LV_CONT_H
   7:lvgl\src\lv_widgets\../lv_widgets/lv_cont.h **** #define LV_CONT_H
   8:lvgl\src\lv_widgets\../lv_widgets/lv_cont.h **** 
   9:lvgl\src\lv_widgets\../lv_widgets/lv_cont.h **** #ifdef __cplusplus
  10:lvgl\src\lv_widgets\../lv_widgets/lv_cont.h **** extern "C" {
  11:lvgl\src\lv_widgets\../lv_widgets/lv_cont.h **** #endif
  12:lvgl\src\lv_widgets\../lv_widgets/lv_cont.h **** 
  13:lvgl\src\lv_widgets\../lv_widgets/lv_cont.h **** /*********************
  14:lvgl\src\lv_widgets\../lv_widgets/lv_cont.h ****  *      INCLUDES
  15:lvgl\src\lv_widgets\../lv_widgets/lv_cont.h ****  *********************/
  16:lvgl\src\lv_widgets\../lv_widgets/lv_cont.h **** #include "../lv_conf_internal.h"
  17:lvgl\src\lv_widgets\../lv_widgets/lv_cont.h **** 
  18:lvgl\src\lv_widgets\../lv_widgets/lv_cont.h **** #if LV_USE_CONT != 0
  19:lvgl\src\lv_widgets\../lv_widgets/lv_cont.h **** 
  20:lvgl\src\lv_widgets\../lv_widgets/lv_cont.h **** #include "../lv_core/lv_obj.h"
  21:lvgl\src\lv_widgets\../lv_widgets/lv_cont.h **** 
  22:lvgl\src\lv_widgets\../lv_widgets/lv_cont.h **** /*********************
  23:lvgl\src\lv_widgets\../lv_widgets/lv_cont.h ****  *      DEFINES
  24:lvgl\src\lv_widgets\../lv_widgets/lv_cont.h ****  *********************/
  25:lvgl\src\lv_widgets\../lv_widgets/lv_cont.h **** 
  26:lvgl\src\lv_widgets\../lv_widgets/lv_cont.h **** /**********************
  27:lvgl\src\lv_widgets\../lv_widgets/lv_cont.h ****  *      TYPEDEFS
  28:lvgl\src\lv_widgets\../lv_widgets/lv_cont.h ****  **********************/
  29:lvgl\src\lv_widgets\../lv_widgets/lv_cont.h **** 
  30:lvgl\src\lv_widgets\../lv_widgets/lv_cont.h **** /** Container layout options*/
  31:lvgl\src\lv_widgets\../lv_widgets/lv_cont.h **** enum {
ARM GAS  C:\Users\strap\AppData\Local\Temp\ccf5xETM.s 			page 66


  32:lvgl\src\lv_widgets\../lv_widgets/lv_cont.h ****     LV_LAYOUT_OFF = 0, /**< No layout */
  33:lvgl\src\lv_widgets\../lv_widgets/lv_cont.h ****     LV_LAYOUT_CENTER, /**< Center objects */
  34:lvgl\src\lv_widgets\../lv_widgets/lv_cont.h **** 
  35:lvgl\src\lv_widgets\../lv_widgets/lv_cont.h ****     /**
  36:lvgl\src\lv_widgets\../lv_widgets/lv_cont.h ****      * COULMN:
  37:lvgl\src\lv_widgets\../lv_widgets/lv_cont.h ****      * - Place the object below each other
  38:lvgl\src\lv_widgets\../lv_widgets/lv_cont.h ****      * - Keep `pad_top` space on the top
  39:lvgl\src\lv_widgets\../lv_widgets/lv_cont.h ****      * - Keep `pad_inner` space between the objects
  40:lvgl\src\lv_widgets\../lv_widgets/lv_cont.h ****      */
  41:lvgl\src\lv_widgets\../lv_widgets/lv_cont.h ****     LV_LAYOUT_COLUMN_LEFT,      /**< Column left align*/
  42:lvgl\src\lv_widgets\../lv_widgets/lv_cont.h ****     LV_LAYOUT_COLUMN_MID,       /**< Column middle align*/
  43:lvgl\src\lv_widgets\../lv_widgets/lv_cont.h ****     LV_LAYOUT_COLUMN_RIGHT,     /**< Column right align*/
  44:lvgl\src\lv_widgets\../lv_widgets/lv_cont.h **** 
  45:lvgl\src\lv_widgets\../lv_widgets/lv_cont.h ****     /**
  46:lvgl\src\lv_widgets\../lv_widgets/lv_cont.h ****      * ROW:
  47:lvgl\src\lv_widgets\../lv_widgets/lv_cont.h ****      * - Place the object next to each other
  48:lvgl\src\lv_widgets\../lv_widgets/lv_cont.h ****      * - Keep `pad_left` space on the left
  49:lvgl\src\lv_widgets\../lv_widgets/lv_cont.h ****      * - Keep `pad_inner` space between the objects
  50:lvgl\src\lv_widgets\../lv_widgets/lv_cont.h ****      * - If the object which applies the layout has `base_dir == LV_BIDI_DIR_RTL`
  51:lvgl\src\lv_widgets\../lv_widgets/lv_cont.h ****      *   the row will start from the right applying `pad.right` space
  52:lvgl\src\lv_widgets\../lv_widgets/lv_cont.h ****      */
  53:lvgl\src\lv_widgets\../lv_widgets/lv_cont.h ****     LV_LAYOUT_ROW_TOP,          /**< Row top align*/
  54:lvgl\src\lv_widgets\../lv_widgets/lv_cont.h ****     LV_LAYOUT_ROW_MID,          /**< Row middle align*/
  55:lvgl\src\lv_widgets\../lv_widgets/lv_cont.h ****     LV_LAYOUT_ROW_BOTTOM,       /**< Row bottom align*/
  56:lvgl\src\lv_widgets\../lv_widgets/lv_cont.h **** 
  57:lvgl\src\lv_widgets\../lv_widgets/lv_cont.h **** 
  58:lvgl\src\lv_widgets\../lv_widgets/lv_cont.h ****     /**
  59:lvgl\src\lv_widgets\../lv_widgets/lv_cont.h ****      * PRETTY:
  60:lvgl\src\lv_widgets\../lv_widgets/lv_cont.h ****      * - Place the object next to each other
  61:lvgl\src\lv_widgets\../lv_widgets/lv_cont.h ****      * - If there is no more space start a new row
  62:lvgl\src\lv_widgets\../lv_widgets/lv_cont.h ****      * - Respect `pad_left` and `pad_right` when determining the available space in a row
  63:lvgl\src\lv_widgets\../lv_widgets/lv_cont.h ****      * - Keep `pad_inner` space between the objects in the same row
  64:lvgl\src\lv_widgets\../lv_widgets/lv_cont.h ****      * - Keep `pad_inner` space between the objects in rows
  65:lvgl\src\lv_widgets\../lv_widgets/lv_cont.h ****      * - Divide the remaining horizontal space equally
  66:lvgl\src\lv_widgets\../lv_widgets/lv_cont.h ****      */
  67:lvgl\src\lv_widgets\../lv_widgets/lv_cont.h ****     LV_LAYOUT_PRETTY_TOP,       /**< Row top align*/
  68:lvgl\src\lv_widgets\../lv_widgets/lv_cont.h ****     LV_LAYOUT_PRETTY_MID,       /**< Row middle align*/
  69:lvgl\src\lv_widgets\../lv_widgets/lv_cont.h ****     LV_LAYOUT_PRETTY_BOTTOM,    /**< Row bottom align*/
  70:lvgl\src\lv_widgets\../lv_widgets/lv_cont.h **** 
  71:lvgl\src\lv_widgets\../lv_widgets/lv_cont.h ****     /**
  72:lvgl\src\lv_widgets\../lv_widgets/lv_cont.h ****      * GRID
  73:lvgl\src\lv_widgets\../lv_widgets/lv_cont.h ****      * - Place the object next to each other
  74:lvgl\src\lv_widgets\../lv_widgets/lv_cont.h ****      * - If there is no more space start a new row
  75:lvgl\src\lv_widgets\../lv_widgets/lv_cont.h ****      * - Respect `pad_left` and `pad_right` when determining the available space in a row
  76:lvgl\src\lv_widgets\../lv_widgets/lv_cont.h ****      * - Keep `pad_inner` space between the objects in the same row
  77:lvgl\src\lv_widgets\../lv_widgets/lv_cont.h ****      * - Keep `pad_inner` space between the objects in rows
  78:lvgl\src\lv_widgets\../lv_widgets/lv_cont.h ****      * - Unlike `PRETTY`, `GRID` always keep `pad_inner` space horizontally between objects
  79:lvgl\src\lv_widgets\../lv_widgets/lv_cont.h ****      *   so it doesn't divide the remaining horizontal space equally
  80:lvgl\src\lv_widgets\../lv_widgets/lv_cont.h ****      */
  81:lvgl\src\lv_widgets\../lv_widgets/lv_cont.h ****     LV_LAYOUT_GRID,   /**< Align same-sized object into a grid*/
  82:lvgl\src\lv_widgets\../lv_widgets/lv_cont.h **** 
  83:lvgl\src\lv_widgets\../lv_widgets/lv_cont.h ****     _LV_LAYOUT_LAST
  84:lvgl\src\lv_widgets\../lv_widgets/lv_cont.h **** };
  85:lvgl\src\lv_widgets\../lv_widgets/lv_cont.h **** typedef uint8_t lv_layout_t;
  86:lvgl\src\lv_widgets\../lv_widgets/lv_cont.h **** 
  87:lvgl\src\lv_widgets\../lv_widgets/lv_cont.h **** /**
  88:lvgl\src\lv_widgets\../lv_widgets/lv_cont.h ****  * How to resize the container around the children.
ARM GAS  C:\Users\strap\AppData\Local\Temp\ccf5xETM.s 			page 67


  89:lvgl\src\lv_widgets\../lv_widgets/lv_cont.h ****  */
  90:lvgl\src\lv_widgets\../lv_widgets/lv_cont.h **** enum {
  91:lvgl\src\lv_widgets\../lv_widgets/lv_cont.h ****     LV_FIT_NONE,  /**< Do not change the size automatically*/
  92:lvgl\src\lv_widgets\../lv_widgets/lv_cont.h ****     LV_FIT_TIGHT, /**< Shrink wrap around the children */
  93:lvgl\src\lv_widgets\../lv_widgets/lv_cont.h ****     LV_FIT_PARENT, /**< Align the size to the parent's edge*/
  94:lvgl\src\lv_widgets\../lv_widgets/lv_cont.h ****     LV_FIT_MAX,  /**< Align the size to the parent's edge first but if there is an object out of it
  95:lvgl\src\lv_widgets\../lv_widgets/lv_cont.h ****                      then get larger */
  96:lvgl\src\lv_widgets\../lv_widgets/lv_cont.h ****     _LV_FIT_LAST
  97:lvgl\src\lv_widgets\../lv_widgets/lv_cont.h **** };
  98:lvgl\src\lv_widgets\../lv_widgets/lv_cont.h **** typedef uint8_t lv_fit_t;
  99:lvgl\src\lv_widgets\../lv_widgets/lv_cont.h **** 
 100:lvgl\src\lv_widgets\../lv_widgets/lv_cont.h **** typedef struct {
 101:lvgl\src\lv_widgets\../lv_widgets/lv_cont.h ****     /*Inherited from 'base_obj' so no inherited ext. */ /*Ext. of ancestor*/
 102:lvgl\src\lv_widgets\../lv_widgets/lv_cont.h ****     /*New data for this type */
 103:lvgl\src\lv_widgets\../lv_widgets/lv_cont.h ****     lv_layout_t layout : 4;     /*A layout from 'lv_layout_t' enum*/
 104:lvgl\src\lv_widgets\../lv_widgets/lv_cont.h ****     lv_fit_t fit_left : 2;   /*A fit type from `lv_fit_t` enum */
 105:lvgl\src\lv_widgets\../lv_widgets/lv_cont.h ****     lv_fit_t fit_right : 2;  /*A fit type from `lv_fit_t` enum */
 106:lvgl\src\lv_widgets\../lv_widgets/lv_cont.h ****     lv_fit_t fit_top : 2;    /*A fit type from `lv_fit_t` enum */
 107:lvgl\src\lv_widgets\../lv_widgets/lv_cont.h ****     lv_fit_t fit_bottom : 2; /*A fit type from `lv_fit_t` enum */
 108:lvgl\src\lv_widgets\../lv_widgets/lv_cont.h **** } lv_cont_ext_t;
 109:lvgl\src\lv_widgets\../lv_widgets/lv_cont.h **** 
 110:lvgl\src\lv_widgets\../lv_widgets/lv_cont.h **** /*Part of the container*/
 111:lvgl\src\lv_widgets\../lv_widgets/lv_cont.h **** enum {
 112:lvgl\src\lv_widgets\../lv_widgets/lv_cont.h ****     LV_CONT_PART_MAIN = LV_OBJ_PART_MAIN,
 113:lvgl\src\lv_widgets\../lv_widgets/lv_cont.h ****     _LV_CONT_PART_VIRTUAL_LAST = _LV_OBJ_PART_VIRTUAL_LAST,
 114:lvgl\src\lv_widgets\../lv_widgets/lv_cont.h ****     _LV_CONT_PART_REAL_LAST = _LV_OBJ_PART_REAL_LAST,
 115:lvgl\src\lv_widgets\../lv_widgets/lv_cont.h **** };
 116:lvgl\src\lv_widgets\../lv_widgets/lv_cont.h **** 
 117:lvgl\src\lv_widgets\../lv_widgets/lv_cont.h **** /**********************
 118:lvgl\src\lv_widgets\../lv_widgets/lv_cont.h ****  * GLOBAL PROTOTYPES
 119:lvgl\src\lv_widgets\../lv_widgets/lv_cont.h ****  **********************/
 120:lvgl\src\lv_widgets\../lv_widgets/lv_cont.h **** 
 121:lvgl\src\lv_widgets\../lv_widgets/lv_cont.h **** /**
 122:lvgl\src\lv_widgets\../lv_widgets/lv_cont.h ****  * Create a container objects
 123:lvgl\src\lv_widgets\../lv_widgets/lv_cont.h ****  * @param par pointer to an object, it will be the parent of the new container
 124:lvgl\src\lv_widgets\../lv_widgets/lv_cont.h ****  * @param copy pointer to a container object, if not NULL then the new object will be copied from i
 125:lvgl\src\lv_widgets\../lv_widgets/lv_cont.h ****  * @return pointer to the created container
 126:lvgl\src\lv_widgets\../lv_widgets/lv_cont.h ****  */
 127:lvgl\src\lv_widgets\../lv_widgets/lv_cont.h **** lv_obj_t * lv_cont_create(lv_obj_t * par, const lv_obj_t * copy);
 128:lvgl\src\lv_widgets\../lv_widgets/lv_cont.h **** 
 129:lvgl\src\lv_widgets\../lv_widgets/lv_cont.h **** /*=====================
 130:lvgl\src\lv_widgets\../lv_widgets/lv_cont.h ****  * Setter functions
 131:lvgl\src\lv_widgets\../lv_widgets/lv_cont.h ****  *====================*/
 132:lvgl\src\lv_widgets\../lv_widgets/lv_cont.h **** 
 133:lvgl\src\lv_widgets\../lv_widgets/lv_cont.h **** /**
 134:lvgl\src\lv_widgets\../lv_widgets/lv_cont.h ****  * Set a layout on a container
 135:lvgl\src\lv_widgets\../lv_widgets/lv_cont.h ****  * @param cont pointer to a container object
 136:lvgl\src\lv_widgets\../lv_widgets/lv_cont.h ****  * @param layout a layout from 'lv_cont_layout_t'
 137:lvgl\src\lv_widgets\../lv_widgets/lv_cont.h ****  */
 138:lvgl\src\lv_widgets\../lv_widgets/lv_cont.h **** void lv_cont_set_layout(lv_obj_t * cont, lv_layout_t layout);
 139:lvgl\src\lv_widgets\../lv_widgets/lv_cont.h **** 
 140:lvgl\src\lv_widgets\../lv_widgets/lv_cont.h **** /**
 141:lvgl\src\lv_widgets\../lv_widgets/lv_cont.h ****  * Set the fit policy in all 4 directions separately.
 142:lvgl\src\lv_widgets\../lv_widgets/lv_cont.h ****  * It tell how to change the container's size automatically.
 143:lvgl\src\lv_widgets\../lv_widgets/lv_cont.h ****  * @param cont pointer to a container object
 144:lvgl\src\lv_widgets\../lv_widgets/lv_cont.h ****  * @param left left fit policy from `lv_fit_t`
 145:lvgl\src\lv_widgets\../lv_widgets/lv_cont.h ****  * @param right right fit policy from `lv_fit_t`
ARM GAS  C:\Users\strap\AppData\Local\Temp\ccf5xETM.s 			page 68


 146:lvgl\src\lv_widgets\../lv_widgets/lv_cont.h ****  * @param top top fit policy from `lv_fit_t`
 147:lvgl\src\lv_widgets\../lv_widgets/lv_cont.h ****  * @param bottom bottom fit policy from `lv_fit_t`
 148:lvgl\src\lv_widgets\../lv_widgets/lv_cont.h ****  */
 149:lvgl\src\lv_widgets\../lv_widgets/lv_cont.h **** void lv_cont_set_fit4(lv_obj_t * cont, lv_fit_t left, lv_fit_t right, lv_fit_t top, lv_fit_t bottom
 150:lvgl\src\lv_widgets\../lv_widgets/lv_cont.h **** 
 151:lvgl\src\lv_widgets\../lv_widgets/lv_cont.h **** /**
 152:lvgl\src\lv_widgets\../lv_widgets/lv_cont.h ****  * Set the fit policy horizontally and vertically separately.
 153:lvgl\src\lv_widgets\../lv_widgets/lv_cont.h ****  * It tells how to change the container's size automatically.
 154:lvgl\src\lv_widgets\../lv_widgets/lv_cont.h ****  * @param cont pointer to a container object
 155:lvgl\src\lv_widgets\../lv_widgets/lv_cont.h ****  * @param hor horizontal fit policy from `lv_fit_t`
 156:lvgl\src\lv_widgets\../lv_widgets/lv_cont.h ****  * @param ver vertical fit policy from `lv_fit_t`
 157:lvgl\src\lv_widgets\../lv_widgets/lv_cont.h ****  */
 158:lvgl\src\lv_widgets\../lv_widgets/lv_cont.h **** static inline void lv_cont_set_fit2(lv_obj_t * cont, lv_fit_t hor, lv_fit_t ver)
 159:lvgl\src\lv_widgets\../lv_widgets/lv_cont.h **** {
 160:lvgl\src\lv_widgets\../lv_widgets/lv_cont.h ****     lv_cont_set_fit4(cont, hor, hor, ver, ver);
 161:lvgl\src\lv_widgets\../lv_widgets/lv_cont.h **** }
 162:lvgl\src\lv_widgets\../lv_widgets/lv_cont.h **** 
 163:lvgl\src\lv_widgets\../lv_widgets/lv_cont.h **** /**
 164:lvgl\src\lv_widgets\../lv_widgets/lv_cont.h ****  * Set the fit policy in all 4 direction at once.
 165:lvgl\src\lv_widgets\../lv_widgets/lv_cont.h ****  * It tells how to change the container's size automatically.
 166:lvgl\src\lv_widgets\../lv_widgets/lv_cont.h ****  * @param cont pointer to a container object
 167:lvgl\src\lv_widgets\../lv_widgets/lv_cont.h ****  * @param fit fit policy from `lv_fit_t`
 168:lvgl\src\lv_widgets\../lv_widgets/lv_cont.h ****  */
 169:lvgl\src\lv_widgets\../lv_widgets/lv_cont.h **** static inline void lv_cont_set_fit(lv_obj_t * cont, lv_fit_t fit)
 170:lvgl\src\lv_widgets\../lv_widgets/lv_cont.h **** {
 171:lvgl\src\lv_widgets\../lv_widgets/lv_cont.h ****     lv_cont_set_fit4(cont, fit, fit, fit, fit);
 1802              		.loc 4 171 0
 1803 0032 0121     		movs	r1, #1
 1804 0034 0091     		str	r1, [sp]
 1805 0036 0B46     		mov	r3, r1
 1806 0038 0A46     		mov	r2, r1
 1807 003a FFF7FEFF 		bl	lv_cont_set_fit4
 1808              	.LVL249:
 1809 003e 09E0     		b	.L136
 1810              	.LVL250:
 1811              	.L140:
 1812              	.LBE103:
 1813              	.LBE102:
 1814              	.LBB104:
 1815              	.LBB105:
 160:lvgl\src\lv_widgets\../lv_widgets/lv_cont.h **** }
 1816              		.loc 4 160 0
 1817 0040 0023     		movs	r3, #0
 1818 0042 0093     		str	r3, [sp]
 1819 0044 0122     		movs	r2, #1
 1820 0046 1146     		mov	r1, r2
 1821 0048 FFF7FEFF 		bl	lv_cont_set_fit4
 1822              	.LVL251:
 1823              	.LBE105:
 1824              	.LBE104:
 392:lvgl\src\lv_widgets/lv_dropdown.c ****         }
 1825              		.loc 1 392 0
 1826 004c 2946     		mov	r1, r5
 1827 004e 2068     		ldr	r0, [r4]
 1828 0050 FFF7FEFF 		bl	lv_obj_set_height
 1829              	.LVL252:
 1830              	.L136:
ARM GAS  C:\Users\strap\AppData\Local\Temp\ccf5xETM.s 			page 69


 395:lvgl\src\lv_widgets/lv_dropdown.c **** 
 1831              		.loc 1 395 0
 1832 0054 03B0     		add	sp, sp, #12
 1833              		.cfi_def_cfa_offset 12
 1834              		@ sp needed
 1835 0056 30BD     		pop	{r4, r5, pc}
 1836              	.LVL253:
 1837              	.L143:
 1838              		.align	2
 1839              	.L142:
 1840 0058 00000000 		.word	.LC0
 1841              		.cfi_endproc
 1842              	.LFE356:
 1843              		.size	lv_dropdown_set_max_height, .-lv_dropdown_set_max_height
 1844              		.section	.text.lv_dropdown_set_symbol,"ax",%progbits
 1845              		.align	2
 1846              		.global	lv_dropdown_set_symbol
 1847              		.thumb
 1848              		.thumb_func
 1849              		.type	lv_dropdown_set_symbol, %function
 1850              	lv_dropdown_set_symbol:
 1851              	.LFB357:
 403:lvgl\src\lv_widgets/lv_dropdown.c ****     LV_ASSERT_OBJ(ddlist, LV_OBJX_NAME);
 1852              		.loc 1 403 0
 1853              		.cfi_startproc
 1854              		@ args = 0, pretend = 0, frame = 0
 1855              		@ frame_needed = 0, uses_anonymous_args = 0
 1856              	.LVL254:
 1857 0000 38B5     		push	{r3, r4, r5, lr}
 1858              		.cfi_def_cfa_offset 16
 1859              		.cfi_offset 3, -16
 1860              		.cfi_offset 4, -12
 1861              		.cfi_offset 5, -8
 1862              		.cfi_offset 14, -4
 1863 0002 0446     		mov	r4, r0
 1864 0004 0D46     		mov	r5, r1
 404:lvgl\src\lv_widgets/lv_dropdown.c **** 
 1865              		.loc 1 404 0
 1866 0006 FFF7FEFF 		bl	lv_debug_check_null
 1867              	.LVL255:
 1868 000a 28B9     		cbnz	r0, .L145
 404:lvgl\src\lv_widgets/lv_dropdown.c **** 
 1869              		.loc 1 404 0 is_stmt 0 discriminator 1
 1870 000c 2246     		mov	r2, r4
 1871 000e 0023     		movs	r3, #0
 1872 0010 0548     		ldr	r0, .L148
 1873 0012 FFF7FEFF 		bl	lv_debug_log_error
 1874              	.LVL256:
 1875              	.L146:
 1876 0016 FEE7     		b	.L146
 1877              	.L145:
 406:lvgl\src\lv_widgets/lv_dropdown.c ****     ext->symbol = symbol;
 1878              		.loc 1 406 0 is_stmt 1
 1879 0018 2046     		mov	r0, r4
 1880 001a FFF7FEFF 		bl	lv_obj_get_ext_attr
 1881              	.LVL257:
 407:lvgl\src\lv_widgets/lv_dropdown.c ****     lv_obj_invalidate(ddlist);
ARM GAS  C:\Users\strap\AppData\Local\Temp\ccf5xETM.s 			page 70


 1882              		.loc 1 407 0
 1883 001e 8560     		str	r5, [r0, #8]
 408:lvgl\src\lv_widgets/lv_dropdown.c **** }
 1884              		.loc 1 408 0
 1885 0020 2046     		mov	r0, r4
 1886              	.LVL258:
 1887 0022 FFF7FEFF 		bl	lv_obj_invalidate
 1888              	.LVL259:
 1889 0026 38BD     		pop	{r3, r4, r5, pc}
 1890              	.LVL260:
 1891              	.L149:
 1892              		.align	2
 1893              	.L148:
 1894 0028 00000000 		.word	.LC0
 1895              		.cfi_endproc
 1896              	.LFE357:
 1897              		.size	lv_dropdown_set_symbol, .-lv_dropdown_set_symbol
 1898              		.section	.text.lv_dropdown_set_show_selected,"ax",%progbits
 1899              		.align	2
 1900              		.global	lv_dropdown_set_show_selected
 1901              		.thumb
 1902              		.thumb_func
 1903              		.type	lv_dropdown_set_show_selected, %function
 1904              	lv_dropdown_set_show_selected:
 1905              	.LFB358:
 417:lvgl\src\lv_widgets/lv_dropdown.c ****     LV_ASSERT_OBJ(ddlist, LV_OBJX_NAME);
 1906              		.loc 1 417 0
 1907              		.cfi_startproc
 1908              		@ args = 0, pretend = 0, frame = 0
 1909              		@ frame_needed = 0, uses_anonymous_args = 0
 1910              	.LVL261:
 1911 0000 38B5     		push	{r3, r4, r5, lr}
 1912              		.cfi_def_cfa_offset 16
 1913              		.cfi_offset 3, -16
 1914              		.cfi_offset 4, -12
 1915              		.cfi_offset 5, -8
 1916              		.cfi_offset 14, -4
 1917 0002 0446     		mov	r4, r0
 1918 0004 0D46     		mov	r5, r1
 418:lvgl\src\lv_widgets/lv_dropdown.c **** 
 1919              		.loc 1 418 0
 1920 0006 FFF7FEFF 		bl	lv_debug_check_null
 1921              	.LVL262:
 1922 000a 28B9     		cbnz	r0, .L151
 418:lvgl\src\lv_widgets/lv_dropdown.c **** 
 1923              		.loc 1 418 0 is_stmt 0 discriminator 1
 1924 000c 2246     		mov	r2, r4
 1925 000e 0023     		movs	r3, #0
 1926 0010 0B48     		ldr	r0, .L155
 1927 0012 FFF7FEFF 		bl	lv_debug_log_error
 1928              	.LVL263:
 1929              	.L152:
 1930 0016 FEE7     		b	.L152
 1931              	.L151:
 420:lvgl\src\lv_widgets/lv_dropdown.c ****     if(ext->show_selected == show) return;
 1932              		.loc 1 420 0 is_stmt 1
 1933 0018 2046     		mov	r0, r4
