ARM GAS  C:\Users\strap\AppData\Local\Temp\ccKJQbxb.s 			page 1


   1              		.syntax unified
   2              		.cpu cortex-m3
   3              		.fpu softvfp
   4              		.eabi_attribute 20, 1
   5              		.eabi_attribute 21, 1
   6              		.eabi_attribute 23, 3
   7              		.eabi_attribute 24, 1
   8              		.eabi_attribute 25, 1
   9              		.eabi_attribute 26, 1
  10              		.eabi_attribute 30, 1
  11              		.eabi_attribute 34, 1
  12              		.eabi_attribute 18, 4
  13              		.thumb
  14              		.syntax unified
  15              		.file	"lv_font_fmt_txt.c"
  16              		.text
  17              	.Ltext0:
  18              		.cfi_sections	.debug_frame
  19              		.section	.text.kern_pair_8_compare,"ax",%progbits
  20              		.align	2
  21              		.thumb
  22              		.thumb_func
  23              		.type	kern_pair_8_compare, %function
  24              	kern_pair_8_compare:
  25              	.LFB42:
  26              		.file 1 "lvgl\\src\\lv_font\\lv_font_fmt_txt.c"
   1:lvgl\src\lv_font/lv_font_fmt_txt.c **** /**
   2:lvgl\src\lv_font/lv_font_fmt_txt.c ****  * @file lv_font.c
   3:lvgl\src\lv_font/lv_font_fmt_txt.c ****  *
   4:lvgl\src\lv_font/lv_font_fmt_txt.c ****  */
   5:lvgl\src\lv_font/lv_font_fmt_txt.c **** 
   6:lvgl\src\lv_font/lv_font_fmt_txt.c **** /*********************
   7:lvgl\src\lv_font/lv_font_fmt_txt.c ****  *      INCLUDES
   8:lvgl\src\lv_font/lv_font_fmt_txt.c ****  *********************/
   9:lvgl\src\lv_font/lv_font_fmt_txt.c **** #include "lv_font.h"
  10:lvgl\src\lv_font/lv_font_fmt_txt.c **** #include "lv_font_fmt_txt.h"
  11:lvgl\src\lv_font/lv_font_fmt_txt.c **** #include "../lv_misc/lv_debug.h"
  12:lvgl\src\lv_font/lv_font_fmt_txt.c **** #include "../lv_draw/lv_draw.h"
  13:lvgl\src\lv_font/lv_font_fmt_txt.c **** #include "../lv_misc/lv_types.h"
  14:lvgl\src\lv_font/lv_font_fmt_txt.c **** #include "../lv_misc/lv_gc.h"
  15:lvgl\src\lv_font/lv_font_fmt_txt.c **** #include "../lv_misc/lv_log.h"
  16:lvgl\src\lv_font/lv_font_fmt_txt.c **** #include "../lv_misc/lv_utils.h"
  17:lvgl\src\lv_font/lv_font_fmt_txt.c **** #include "../lv_misc/lv_mem.h"
  18:lvgl\src\lv_font/lv_font_fmt_txt.c **** 
  19:lvgl\src\lv_font/lv_font_fmt_txt.c **** #if defined(LV_GC_INCLUDE)
  20:lvgl\src\lv_font/lv_font_fmt_txt.c ****     #include LV_GC_INCLUDE
  21:lvgl\src\lv_font/lv_font_fmt_txt.c **** #endif /* LV_ENABLE_GC */
  22:lvgl\src\lv_font/lv_font_fmt_txt.c **** 
  23:lvgl\src\lv_font/lv_font_fmt_txt.c **** /*********************
  24:lvgl\src\lv_font/lv_font_fmt_txt.c ****  *      DEFINES
  25:lvgl\src\lv_font/lv_font_fmt_txt.c ****  *********************/
  26:lvgl\src\lv_font/lv_font_fmt_txt.c **** 
  27:lvgl\src\lv_font/lv_font_fmt_txt.c **** /**********************
  28:lvgl\src\lv_font/lv_font_fmt_txt.c ****  *      TYPEDEFS
  29:lvgl\src\lv_font/lv_font_fmt_txt.c ****  **********************/
  30:lvgl\src\lv_font/lv_font_fmt_txt.c **** typedef enum {
  31:lvgl\src\lv_font/lv_font_fmt_txt.c ****     RLE_STATE_SINGLE = 0,
ARM GAS  C:\Users\strap\AppData\Local\Temp\ccKJQbxb.s 			page 2


  32:lvgl\src\lv_font/lv_font_fmt_txt.c ****     RLE_STATE_REPEATE,
  33:lvgl\src\lv_font/lv_font_fmt_txt.c ****     RLE_STATE_COUNTER,
  34:lvgl\src\lv_font/lv_font_fmt_txt.c **** } rle_state_t;
  35:lvgl\src\lv_font/lv_font_fmt_txt.c **** 
  36:lvgl\src\lv_font/lv_font_fmt_txt.c **** /**********************
  37:lvgl\src\lv_font/lv_font_fmt_txt.c ****  *  STATIC PROTOTYPES
  38:lvgl\src\lv_font/lv_font_fmt_txt.c ****  **********************/
  39:lvgl\src\lv_font/lv_font_fmt_txt.c **** static uint32_t get_glyph_dsc_id(const lv_font_t * font, uint32_t letter);
  40:lvgl\src\lv_font/lv_font_fmt_txt.c **** static int8_t get_kern_value(const lv_font_t * font, uint32_t gid_left, uint32_t gid_right);
  41:lvgl\src\lv_font/lv_font_fmt_txt.c **** static int32_t unicode_list_compare(const void * ref, const void * element);
  42:lvgl\src\lv_font/lv_font_fmt_txt.c **** static int32_t kern_pair_8_compare(const void * ref, const void * element);
  43:lvgl\src\lv_font/lv_font_fmt_txt.c **** static int32_t kern_pair_16_compare(const void * ref, const void * element);
  44:lvgl\src\lv_font/lv_font_fmt_txt.c **** 
  45:lvgl\src\lv_font/lv_font_fmt_txt.c **** static void decompress(const uint8_t * in, uint8_t * out, lv_coord_t w, lv_coord_t h, uint8_t bpp, 
  46:lvgl\src\lv_font/lv_font_fmt_txt.c **** static inline void decompress_line(uint8_t * out, lv_coord_t w);
  47:lvgl\src\lv_font/lv_font_fmt_txt.c **** static inline uint8_t get_bits(const uint8_t * in, uint32_t bit_pos, uint8_t len);
  48:lvgl\src\lv_font/lv_font_fmt_txt.c **** static inline void bits_write(uint8_t * out, uint32_t bit_pos, uint8_t val, uint8_t len);
  49:lvgl\src\lv_font/lv_font_fmt_txt.c **** static inline void rle_init(const uint8_t * in,  uint8_t bpp);
  50:lvgl\src\lv_font/lv_font_fmt_txt.c **** static inline uint8_t rle_next(void);
  51:lvgl\src\lv_font/lv_font_fmt_txt.c **** 
  52:lvgl\src\lv_font/lv_font_fmt_txt.c **** /**********************
  53:lvgl\src\lv_font/lv_font_fmt_txt.c ****  *  STATIC VARIABLES
  54:lvgl\src\lv_font/lv_font_fmt_txt.c ****  **********************/
  55:lvgl\src\lv_font/lv_font_fmt_txt.c **** static uint32_t rle_rdp;
  56:lvgl\src\lv_font/lv_font_fmt_txt.c **** static const uint8_t * rle_in;
  57:lvgl\src\lv_font/lv_font_fmt_txt.c **** static uint8_t rle_bpp;
  58:lvgl\src\lv_font/lv_font_fmt_txt.c **** static uint8_t rle_prev_v;
  59:lvgl\src\lv_font/lv_font_fmt_txt.c **** static uint8_t rle_cnt;
  60:lvgl\src\lv_font/lv_font_fmt_txt.c **** static rle_state_t rle_state;
  61:lvgl\src\lv_font/lv_font_fmt_txt.c **** 
  62:lvgl\src\lv_font/lv_font_fmt_txt.c **** /**********************
  63:lvgl\src\lv_font/lv_font_fmt_txt.c ****  * GLOBAL PROTOTYPES
  64:lvgl\src\lv_font/lv_font_fmt_txt.c ****  **********************/
  65:lvgl\src\lv_font/lv_font_fmt_txt.c **** 
  66:lvgl\src\lv_font/lv_font_fmt_txt.c **** /**********************
  67:lvgl\src\lv_font/lv_font_fmt_txt.c ****  *      MACROS
  68:lvgl\src\lv_font/lv_font_fmt_txt.c ****  **********************/
  69:lvgl\src\lv_font/lv_font_fmt_txt.c **** 
  70:lvgl\src\lv_font/lv_font_fmt_txt.c **** /**********************
  71:lvgl\src\lv_font/lv_font_fmt_txt.c ****  *   GLOBAL FUNCTIONS
  72:lvgl\src\lv_font/lv_font_fmt_txt.c ****  **********************/
  73:lvgl\src\lv_font/lv_font_fmt_txt.c **** 
  74:lvgl\src\lv_font/lv_font_fmt_txt.c **** /**
  75:lvgl\src\lv_font/lv_font_fmt_txt.c ****  * Used as `get_glyph_bitmap` callback in LittelvGL's native font format if the font is uncompresse
  76:lvgl\src\lv_font/lv_font_fmt_txt.c ****  * @param font pointer to font
  77:lvgl\src\lv_font/lv_font_fmt_txt.c ****  * @param unicode_letter an unicode letter which bitmap should be get
  78:lvgl\src\lv_font/lv_font_fmt_txt.c ****  * @return pointer to the bitmap or NULL if not found
  79:lvgl\src\lv_font/lv_font_fmt_txt.c ****  */
  80:lvgl\src\lv_font/lv_font_fmt_txt.c **** const uint8_t * lv_font_get_bitmap_fmt_txt(const lv_font_t * font, uint32_t unicode_letter)
  81:lvgl\src\lv_font/lv_font_fmt_txt.c **** {
  82:lvgl\src\lv_font/lv_font_fmt_txt.c ****     if(unicode_letter == '\t') unicode_letter = ' ';
  83:lvgl\src\lv_font/lv_font_fmt_txt.c **** 
  84:lvgl\src\lv_font/lv_font_fmt_txt.c ****     lv_font_fmt_txt_dsc_t * fdsc = (lv_font_fmt_txt_dsc_t *) font->dsc;
  85:lvgl\src\lv_font/lv_font_fmt_txt.c ****     uint32_t gid = get_glyph_dsc_id(font, unicode_letter);
  86:lvgl\src\lv_font/lv_font_fmt_txt.c ****     if(!gid) return NULL;
  87:lvgl\src\lv_font/lv_font_fmt_txt.c **** 
  88:lvgl\src\lv_font/lv_font_fmt_txt.c ****     const lv_font_fmt_txt_glyph_dsc_t * gdsc = &fdsc->glyph_dsc[gid];
ARM GAS  C:\Users\strap\AppData\Local\Temp\ccKJQbxb.s 			page 3


  89:lvgl\src\lv_font/lv_font_fmt_txt.c **** 
  90:lvgl\src\lv_font/lv_font_fmt_txt.c ****     if(fdsc->bitmap_format == LV_FONT_FMT_TXT_PLAIN) {
  91:lvgl\src\lv_font/lv_font_fmt_txt.c ****         if(gdsc) return &fdsc->glyph_bitmap[gdsc->bitmap_index];
  92:lvgl\src\lv_font/lv_font_fmt_txt.c ****     }
  93:lvgl\src\lv_font/lv_font_fmt_txt.c ****     /*Handle compressed bitmap*/
  94:lvgl\src\lv_font/lv_font_fmt_txt.c ****     else {
  95:lvgl\src\lv_font/lv_font_fmt_txt.c **** #if LV_USE_FONT_COMPRESSED
  96:lvgl\src\lv_font/lv_font_fmt_txt.c ****         uint32_t gsize = gdsc->box_w * gdsc->box_h;
  97:lvgl\src\lv_font/lv_font_fmt_txt.c ****         if(gsize == 0) return NULL;
  98:lvgl\src\lv_font/lv_font_fmt_txt.c **** 
  99:lvgl\src\lv_font/lv_font_fmt_txt.c ****         uint32_t buf_size = gsize;
 100:lvgl\src\lv_font/lv_font_fmt_txt.c ****         /*Compute memory size needed to hold decompressed glyph, rounding up*/
 101:lvgl\src\lv_font/lv_font_fmt_txt.c ****         switch(fdsc->bpp) {
 102:lvgl\src\lv_font/lv_font_fmt_txt.c ****             case 1:
 103:lvgl\src\lv_font/lv_font_fmt_txt.c ****                 buf_size = (gsize + 7) >> 3;
 104:lvgl\src\lv_font/lv_font_fmt_txt.c ****                 break;
 105:lvgl\src\lv_font/lv_font_fmt_txt.c ****             case 2:
 106:lvgl\src\lv_font/lv_font_fmt_txt.c ****                 buf_size = (gsize + 3) >> 2;
 107:lvgl\src\lv_font/lv_font_fmt_txt.c ****                 break;
 108:lvgl\src\lv_font/lv_font_fmt_txt.c ****             case 3:
 109:lvgl\src\lv_font/lv_font_fmt_txt.c ****                 buf_size = (gsize + 1) >> 1;
 110:lvgl\src\lv_font/lv_font_fmt_txt.c ****                 break;
 111:lvgl\src\lv_font/lv_font_fmt_txt.c ****             case 4:
 112:lvgl\src\lv_font/lv_font_fmt_txt.c ****                 buf_size = (gsize + 1) >> 1;
 113:lvgl\src\lv_font/lv_font_fmt_txt.c ****                 break;
 114:lvgl\src\lv_font/lv_font_fmt_txt.c ****         }
 115:lvgl\src\lv_font/lv_font_fmt_txt.c **** 
 116:lvgl\src\lv_font/lv_font_fmt_txt.c ****         if(_lv_mem_get_size(LV_GC_ROOT(_lv_font_decompr_buf)) < buf_size) {
 117:lvgl\src\lv_font/lv_font_fmt_txt.c ****             LV_GC_ROOT(_lv_font_decompr_buf) = lv_mem_realloc(LV_GC_ROOT(_lv_font_decompr_buf), buf
 118:lvgl\src\lv_font/lv_font_fmt_txt.c ****             LV_ASSERT_MEM(LV_GC_ROOT(_lv_font_decompr_buf));
 119:lvgl\src\lv_font/lv_font_fmt_txt.c ****             if(LV_GC_ROOT(_lv_font_decompr_buf) == NULL) return NULL;
 120:lvgl\src\lv_font/lv_font_fmt_txt.c ****         }
 121:lvgl\src\lv_font/lv_font_fmt_txt.c **** 
 122:lvgl\src\lv_font/lv_font_fmt_txt.c ****         bool prefilter = fdsc->bitmap_format == LV_FONT_FMT_TXT_COMPRESSED ? true : false;
 123:lvgl\src\lv_font/lv_font_fmt_txt.c ****         decompress(&fdsc->glyph_bitmap[gdsc->bitmap_index], LV_GC_ROOT(_lv_font_decompr_buf), gdsc-
 124:lvgl\src\lv_font/lv_font_fmt_txt.c ****                    (uint8_t)fdsc->bpp,
 125:lvgl\src\lv_font/lv_font_fmt_txt.c ****                    prefilter);
 126:lvgl\src\lv_font/lv_font_fmt_txt.c ****         return LV_GC_ROOT(_lv_font_decompr_buf);
 127:lvgl\src\lv_font/lv_font_fmt_txt.c **** #else /* !LV_USE_FONT_COMPRESSED */
 128:lvgl\src\lv_font/lv_font_fmt_txt.c ****         return NULL;
 129:lvgl\src\lv_font/lv_font_fmt_txt.c **** #endif
 130:lvgl\src\lv_font/lv_font_fmt_txt.c ****     }
 131:lvgl\src\lv_font/lv_font_fmt_txt.c **** 
 132:lvgl\src\lv_font/lv_font_fmt_txt.c ****     /*If not returned earlier then the letter is not found in this font*/
 133:lvgl\src\lv_font/lv_font_fmt_txt.c ****     return NULL;
 134:lvgl\src\lv_font/lv_font_fmt_txt.c **** }
 135:lvgl\src\lv_font/lv_font_fmt_txt.c **** 
 136:lvgl\src\lv_font/lv_font_fmt_txt.c **** /**
 137:lvgl\src\lv_font/lv_font_fmt_txt.c ****  * Used as `get_glyph_dsc` callback in LittelvGL's native font format if the font is uncompressed.
 138:lvgl\src\lv_font/lv_font_fmt_txt.c ****  * @param font_p pointer to font
 139:lvgl\src\lv_font/lv_font_fmt_txt.c ****  * @param dsc_out store the result descriptor here
 140:lvgl\src\lv_font/lv_font_fmt_txt.c ****  * @param letter an UNICODE letter code
 141:lvgl\src\lv_font/lv_font_fmt_txt.c ****  * @return true: descriptor is successfully loaded into `dsc_out`.
 142:lvgl\src\lv_font/lv_font_fmt_txt.c ****  *         false: the letter was not found, no data is loaded to `dsc_out`
 143:lvgl\src\lv_font/lv_font_fmt_txt.c ****  */
 144:lvgl\src\lv_font/lv_font_fmt_txt.c **** bool lv_font_get_glyph_dsc_fmt_txt(const lv_font_t * font, lv_font_glyph_dsc_t * dsc_out, uint32_t 
 145:lvgl\src\lv_font/lv_font_fmt_txt.c ****                                    uint32_t unicode_letter_next)
ARM GAS  C:\Users\strap\AppData\Local\Temp\ccKJQbxb.s 			page 4


 146:lvgl\src\lv_font/lv_font_fmt_txt.c **** {
 147:lvgl\src\lv_font/lv_font_fmt_txt.c ****     bool is_tab = false;
 148:lvgl\src\lv_font/lv_font_fmt_txt.c ****     if(unicode_letter == '\t') {
 149:lvgl\src\lv_font/lv_font_fmt_txt.c ****         unicode_letter = ' ';
 150:lvgl\src\lv_font/lv_font_fmt_txt.c ****         is_tab = true;
 151:lvgl\src\lv_font/lv_font_fmt_txt.c ****     }
 152:lvgl\src\lv_font/lv_font_fmt_txt.c ****     lv_font_fmt_txt_dsc_t * fdsc = (lv_font_fmt_txt_dsc_t *) font->dsc;
 153:lvgl\src\lv_font/lv_font_fmt_txt.c ****     uint32_t gid = get_glyph_dsc_id(font, unicode_letter);
 154:lvgl\src\lv_font/lv_font_fmt_txt.c ****     if(!gid) return false;
 155:lvgl\src\lv_font/lv_font_fmt_txt.c **** 
 156:lvgl\src\lv_font/lv_font_fmt_txt.c ****     int8_t kvalue = 0;
 157:lvgl\src\lv_font/lv_font_fmt_txt.c ****     if(fdsc->kern_dsc) {
 158:lvgl\src\lv_font/lv_font_fmt_txt.c ****         uint32_t gid_next = get_glyph_dsc_id(font, unicode_letter_next);
 159:lvgl\src\lv_font/lv_font_fmt_txt.c ****         if(gid_next) {
 160:lvgl\src\lv_font/lv_font_fmt_txt.c ****             kvalue = get_kern_value(font, gid, gid_next);
 161:lvgl\src\lv_font/lv_font_fmt_txt.c ****         }
 162:lvgl\src\lv_font/lv_font_fmt_txt.c ****     }
 163:lvgl\src\lv_font/lv_font_fmt_txt.c **** 
 164:lvgl\src\lv_font/lv_font_fmt_txt.c ****     /*Put together a glyph dsc*/
 165:lvgl\src\lv_font/lv_font_fmt_txt.c ****     const lv_font_fmt_txt_glyph_dsc_t * gdsc = &fdsc->glyph_dsc[gid];
 166:lvgl\src\lv_font/lv_font_fmt_txt.c **** 
 167:lvgl\src\lv_font/lv_font_fmt_txt.c ****     int32_t kv = ((int32_t)((int32_t)kvalue * fdsc->kern_scale) >> 4);
 168:lvgl\src\lv_font/lv_font_fmt_txt.c **** 
 169:lvgl\src\lv_font/lv_font_fmt_txt.c ****     uint32_t adv_w = gdsc->adv_w;
 170:lvgl\src\lv_font/lv_font_fmt_txt.c ****     if(is_tab) adv_w *= 2;
 171:lvgl\src\lv_font/lv_font_fmt_txt.c **** 
 172:lvgl\src\lv_font/lv_font_fmt_txt.c ****     adv_w += kv;
 173:lvgl\src\lv_font/lv_font_fmt_txt.c ****     adv_w  = (adv_w + (1 << 3)) >> 4;
 174:lvgl\src\lv_font/lv_font_fmt_txt.c **** 
 175:lvgl\src\lv_font/lv_font_fmt_txt.c ****     dsc_out->adv_w = adv_w;
 176:lvgl\src\lv_font/lv_font_fmt_txt.c ****     dsc_out->box_h = gdsc->box_h;
 177:lvgl\src\lv_font/lv_font_fmt_txt.c ****     dsc_out->box_w = gdsc->box_w;
 178:lvgl\src\lv_font/lv_font_fmt_txt.c ****     dsc_out->ofs_x = gdsc->ofs_x;
 179:lvgl\src\lv_font/lv_font_fmt_txt.c ****     dsc_out->ofs_y = gdsc->ofs_y;
 180:lvgl\src\lv_font/lv_font_fmt_txt.c ****     dsc_out->bpp   = (uint8_t)fdsc->bpp;
 181:lvgl\src\lv_font/lv_font_fmt_txt.c **** 
 182:lvgl\src\lv_font/lv_font_fmt_txt.c ****     if(is_tab) dsc_out->box_w = dsc_out->box_w * 2;
 183:lvgl\src\lv_font/lv_font_fmt_txt.c **** 
 184:lvgl\src\lv_font/lv_font_fmt_txt.c ****     return true;
 185:lvgl\src\lv_font/lv_font_fmt_txt.c **** }
 186:lvgl\src\lv_font/lv_font_fmt_txt.c **** 
 187:lvgl\src\lv_font/lv_font_fmt_txt.c **** /**
 188:lvgl\src\lv_font/lv_font_fmt_txt.c ****  * Free the allocated memories.
 189:lvgl\src\lv_font/lv_font_fmt_txt.c ****  */
 190:lvgl\src\lv_font/lv_font_fmt_txt.c **** void _lv_font_clean_up_fmt_txt(void)
 191:lvgl\src\lv_font/lv_font_fmt_txt.c **** {
 192:lvgl\src\lv_font/lv_font_fmt_txt.c ****     if(LV_GC_ROOT(_lv_font_decompr_buf)) {
 193:lvgl\src\lv_font/lv_font_fmt_txt.c ****         lv_mem_free(LV_GC_ROOT(_lv_font_decompr_buf));
 194:lvgl\src\lv_font/lv_font_fmt_txt.c ****         LV_GC_ROOT(_lv_font_decompr_buf) = NULL;
 195:lvgl\src\lv_font/lv_font_fmt_txt.c ****     }
 196:lvgl\src\lv_font/lv_font_fmt_txt.c **** }
 197:lvgl\src\lv_font/lv_font_fmt_txt.c **** 
 198:lvgl\src\lv_font/lv_font_fmt_txt.c **** 
 199:lvgl\src\lv_font/lv_font_fmt_txt.c **** /**********************
 200:lvgl\src\lv_font/lv_font_fmt_txt.c ****  *   STATIC FUNCTIONS
 201:lvgl\src\lv_font/lv_font_fmt_txt.c ****  **********************/
 202:lvgl\src\lv_font/lv_font_fmt_txt.c **** 
ARM GAS  C:\Users\strap\AppData\Local\Temp\ccKJQbxb.s 			page 5


 203:lvgl\src\lv_font/lv_font_fmt_txt.c **** static uint32_t get_glyph_dsc_id(const lv_font_t * font, uint32_t letter)
 204:lvgl\src\lv_font/lv_font_fmt_txt.c **** {
 205:lvgl\src\lv_font/lv_font_fmt_txt.c ****     if(letter == '\0') return 0;
 206:lvgl\src\lv_font/lv_font_fmt_txt.c **** 
 207:lvgl\src\lv_font/lv_font_fmt_txt.c ****     lv_font_fmt_txt_dsc_t * fdsc = (lv_font_fmt_txt_dsc_t *) font->dsc;
 208:lvgl\src\lv_font/lv_font_fmt_txt.c **** 
 209:lvgl\src\lv_font/lv_font_fmt_txt.c ****     /*Check the cache first*/
 210:lvgl\src\lv_font/lv_font_fmt_txt.c ****     if(letter == fdsc->last_letter) return fdsc->last_glyph_id;
 211:lvgl\src\lv_font/lv_font_fmt_txt.c **** 
 212:lvgl\src\lv_font/lv_font_fmt_txt.c ****     uint16_t i;
 213:lvgl\src\lv_font/lv_font_fmt_txt.c ****     for(i = 0; i < fdsc->cmap_num; i++) {
 214:lvgl\src\lv_font/lv_font_fmt_txt.c **** 
 215:lvgl\src\lv_font/lv_font_fmt_txt.c ****         /*Relative code point*/
 216:lvgl\src\lv_font/lv_font_fmt_txt.c ****         uint32_t rcp = letter - fdsc->cmaps[i].range_start;
 217:lvgl\src\lv_font/lv_font_fmt_txt.c ****         if(rcp > fdsc->cmaps[i].range_length) continue;
 218:lvgl\src\lv_font/lv_font_fmt_txt.c ****         uint32_t glyph_id = 0;
 219:lvgl\src\lv_font/lv_font_fmt_txt.c ****         if(fdsc->cmaps[i].type == LV_FONT_FMT_TXT_CMAP_FORMAT0_TINY) {
 220:lvgl\src\lv_font/lv_font_fmt_txt.c ****             glyph_id = fdsc->cmaps[i].glyph_id_start + rcp;
 221:lvgl\src\lv_font/lv_font_fmt_txt.c ****         }
 222:lvgl\src\lv_font/lv_font_fmt_txt.c ****         else if(fdsc->cmaps[i].type == LV_FONT_FMT_TXT_CMAP_FORMAT0_FULL) {
 223:lvgl\src\lv_font/lv_font_fmt_txt.c ****             const uint8_t * gid_ofs_8 = fdsc->cmaps[i].glyph_id_ofs_list;
 224:lvgl\src\lv_font/lv_font_fmt_txt.c ****             glyph_id = fdsc->cmaps[i].glyph_id_start + gid_ofs_8[rcp];
 225:lvgl\src\lv_font/lv_font_fmt_txt.c ****         }
 226:lvgl\src\lv_font/lv_font_fmt_txt.c ****         else if(fdsc->cmaps[i].type == LV_FONT_FMT_TXT_CMAP_SPARSE_TINY) {
 227:lvgl\src\lv_font/lv_font_fmt_txt.c ****             uint16_t key = rcp;
 228:lvgl\src\lv_font/lv_font_fmt_txt.c ****             uint8_t * p = _lv_utils_bsearch(&key, fdsc->cmaps[i].unicode_list, fdsc->cmaps[i].list_
 229:lvgl\src\lv_font/lv_font_fmt_txt.c ****                                             sizeof(fdsc->cmaps[i].unicode_list[0]), unicode_list_co
 230:lvgl\src\lv_font/lv_font_fmt_txt.c **** 
 231:lvgl\src\lv_font/lv_font_fmt_txt.c ****             if(p) {
 232:lvgl\src\lv_font/lv_font_fmt_txt.c ****                 lv_uintptr_t ofs = (lv_uintptr_t)(p - (uint8_t *) fdsc->cmaps[i].unicode_list);
 233:lvgl\src\lv_font/lv_font_fmt_txt.c ****                 ofs = ofs >> 1;     /*The list stores `uint16_t` so the get the index divide by 2*/
 234:lvgl\src\lv_font/lv_font_fmt_txt.c ****                 glyph_id = fdsc->cmaps[i].glyph_id_start + ofs;
 235:lvgl\src\lv_font/lv_font_fmt_txt.c ****             }
 236:lvgl\src\lv_font/lv_font_fmt_txt.c ****         }
 237:lvgl\src\lv_font/lv_font_fmt_txt.c ****         else if(fdsc->cmaps[i].type == LV_FONT_FMT_TXT_CMAP_SPARSE_FULL) {
 238:lvgl\src\lv_font/lv_font_fmt_txt.c ****             uint16_t key = rcp;
 239:lvgl\src\lv_font/lv_font_fmt_txt.c ****             uint8_t * p = _lv_utils_bsearch(&key, fdsc->cmaps[i].unicode_list, fdsc->cmaps[i].list_
 240:lvgl\src\lv_font/lv_font_fmt_txt.c ****                                             sizeof(fdsc->cmaps[i].unicode_list[0]), unicode_list_co
 241:lvgl\src\lv_font/lv_font_fmt_txt.c **** 
 242:lvgl\src\lv_font/lv_font_fmt_txt.c ****             if(p) {
 243:lvgl\src\lv_font/lv_font_fmt_txt.c ****                 lv_uintptr_t ofs = (lv_uintptr_t)(p - (uint8_t *) fdsc->cmaps[i].unicode_list);
 244:lvgl\src\lv_font/lv_font_fmt_txt.c ****                 ofs = ofs >> 1;     /*The list stores `uint16_t` so the get the index divide by 2*/
 245:lvgl\src\lv_font/lv_font_fmt_txt.c ****                 const uint8_t * gid_ofs_16 = fdsc->cmaps[i].glyph_id_ofs_list;
 246:lvgl\src\lv_font/lv_font_fmt_txt.c ****                 glyph_id = fdsc->cmaps[i].glyph_id_start + gid_ofs_16[ofs];
 247:lvgl\src\lv_font/lv_font_fmt_txt.c ****             }
 248:lvgl\src\lv_font/lv_font_fmt_txt.c ****         }
 249:lvgl\src\lv_font/lv_font_fmt_txt.c **** 
 250:lvgl\src\lv_font/lv_font_fmt_txt.c ****         /*Update the cache*/
 251:lvgl\src\lv_font/lv_font_fmt_txt.c ****         fdsc->last_letter = letter;
 252:lvgl\src\lv_font/lv_font_fmt_txt.c ****         fdsc->last_glyph_id = glyph_id;
 253:lvgl\src\lv_font/lv_font_fmt_txt.c ****         return glyph_id;
 254:lvgl\src\lv_font/lv_font_fmt_txt.c ****     }
 255:lvgl\src\lv_font/lv_font_fmt_txt.c **** 
 256:lvgl\src\lv_font/lv_font_fmt_txt.c ****     fdsc->last_letter = letter;
 257:lvgl\src\lv_font/lv_font_fmt_txt.c ****     fdsc->last_glyph_id = 0;
 258:lvgl\src\lv_font/lv_font_fmt_txt.c ****     return 0;
 259:lvgl\src\lv_font/lv_font_fmt_txt.c **** 
ARM GAS  C:\Users\strap\AppData\Local\Temp\ccKJQbxb.s 			page 6


 260:lvgl\src\lv_font/lv_font_fmt_txt.c **** }
 261:lvgl\src\lv_font/lv_font_fmt_txt.c **** 
 262:lvgl\src\lv_font/lv_font_fmt_txt.c **** static int8_t get_kern_value(const lv_font_t * font, uint32_t gid_left, uint32_t gid_right)
 263:lvgl\src\lv_font/lv_font_fmt_txt.c **** {
 264:lvgl\src\lv_font/lv_font_fmt_txt.c ****     lv_font_fmt_txt_dsc_t * fdsc = (lv_font_fmt_txt_dsc_t *) font->dsc;
 265:lvgl\src\lv_font/lv_font_fmt_txt.c **** 
 266:lvgl\src\lv_font/lv_font_fmt_txt.c ****     int8_t value = 0;
 267:lvgl\src\lv_font/lv_font_fmt_txt.c **** 
 268:lvgl\src\lv_font/lv_font_fmt_txt.c ****     if(fdsc->kern_classes == 0) {
 269:lvgl\src\lv_font/lv_font_fmt_txt.c ****         /*Kern pairs*/
 270:lvgl\src\lv_font/lv_font_fmt_txt.c ****         const lv_font_fmt_txt_kern_pair_t * kdsc = fdsc->kern_dsc;
 271:lvgl\src\lv_font/lv_font_fmt_txt.c ****         if(kdsc->glyph_ids_size == 0) {
 272:lvgl\src\lv_font/lv_font_fmt_txt.c ****             /* Use binary search to find the kern value.
 273:lvgl\src\lv_font/lv_font_fmt_txt.c ****              * The pairs are ordered left_id first, then right_id secondly. */
 274:lvgl\src\lv_font/lv_font_fmt_txt.c ****             const uint8_t * g_ids = kdsc->glyph_ids;
 275:lvgl\src\lv_font/lv_font_fmt_txt.c ****             uint16_t g_id_both = (gid_right << 8) + gid_left; /*Create one number from the ids*/
 276:lvgl\src\lv_font/lv_font_fmt_txt.c ****             uint8_t * kid_p = _lv_utils_bsearch(&g_id_both, g_ids, kdsc->pair_cnt, 2, kern_pair_8_c
 277:lvgl\src\lv_font/lv_font_fmt_txt.c **** 
 278:lvgl\src\lv_font/lv_font_fmt_txt.c ****             /*If the `g_id_both` were found get its index from the pointer*/
 279:lvgl\src\lv_font/lv_font_fmt_txt.c ****             if(kid_p) {
 280:lvgl\src\lv_font/lv_font_fmt_txt.c ****                 lv_uintptr_t ofs = (lv_uintptr_t)(kid_p - g_ids);
 281:lvgl\src\lv_font/lv_font_fmt_txt.c ****                 ofs = ofs >> 1;     /*ofs is for pair, divide by 2 to refer as a single value*/
 282:lvgl\src\lv_font/lv_font_fmt_txt.c ****                 value = kdsc->values[ofs];
 283:lvgl\src\lv_font/lv_font_fmt_txt.c ****             }
 284:lvgl\src\lv_font/lv_font_fmt_txt.c ****         }
 285:lvgl\src\lv_font/lv_font_fmt_txt.c ****         else if(kdsc->glyph_ids_size == 1) {
 286:lvgl\src\lv_font/lv_font_fmt_txt.c ****             /* Use binary search to find the kern value.
 287:lvgl\src\lv_font/lv_font_fmt_txt.c ****              * The pairs are ordered left_id first, then right_id secondly. */
 288:lvgl\src\lv_font/lv_font_fmt_txt.c ****             const uint16_t * g_ids = kdsc->glyph_ids;
 289:lvgl\src\lv_font/lv_font_fmt_txt.c ****             lv_uintptr_t g_id_both = (uint32_t)((uint32_t)gid_right << 8) + gid_left; /*Create one 
 290:lvgl\src\lv_font/lv_font_fmt_txt.c ****             uint8_t * kid_p = _lv_utils_bsearch(&g_id_both, g_ids, kdsc->pair_cnt, 4, kern_pair_16_
 291:lvgl\src\lv_font/lv_font_fmt_txt.c **** 
 292:lvgl\src\lv_font/lv_font_fmt_txt.c ****             /*If the `g_id_both` were found get its index from the pointer*/
 293:lvgl\src\lv_font/lv_font_fmt_txt.c ****             if(kid_p) {
 294:lvgl\src\lv_font/lv_font_fmt_txt.c ****                 lv_uintptr_t ofs = (lv_uintptr_t)(kid_p - (const uint8_t *)g_ids);
 295:lvgl\src\lv_font/lv_font_fmt_txt.c ****                 ofs = ofs >> 4;     /*ofs is 4 byte pairs, divide by 4 to refer as a single value*/
 296:lvgl\src\lv_font/lv_font_fmt_txt.c ****                 value = kdsc->values[ofs];
 297:lvgl\src\lv_font/lv_font_fmt_txt.c ****             }
 298:lvgl\src\lv_font/lv_font_fmt_txt.c **** 
 299:lvgl\src\lv_font/lv_font_fmt_txt.c ****         }
 300:lvgl\src\lv_font/lv_font_fmt_txt.c ****         else {
 301:lvgl\src\lv_font/lv_font_fmt_txt.c ****             /*Invalid value*/
 302:lvgl\src\lv_font/lv_font_fmt_txt.c ****         }
 303:lvgl\src\lv_font/lv_font_fmt_txt.c ****     }
 304:lvgl\src\lv_font/lv_font_fmt_txt.c ****     else {
 305:lvgl\src\lv_font/lv_font_fmt_txt.c ****         /*Kern classes*/
 306:lvgl\src\lv_font/lv_font_fmt_txt.c ****         const lv_font_fmt_txt_kern_classes_t * kdsc = fdsc->kern_dsc;
 307:lvgl\src\lv_font/lv_font_fmt_txt.c ****         uint8_t left_class = kdsc->left_class_mapping[gid_left];
 308:lvgl\src\lv_font/lv_font_fmt_txt.c ****         uint8_t right_class = kdsc->right_class_mapping[gid_right];
 309:lvgl\src\lv_font/lv_font_fmt_txt.c **** 
 310:lvgl\src\lv_font/lv_font_fmt_txt.c ****         /* If class = 0, kerning not exist for that glyph
 311:lvgl\src\lv_font/lv_font_fmt_txt.c ****          * else got the value form `class_pair_values` 2D array*/
 312:lvgl\src\lv_font/lv_font_fmt_txt.c ****         if(left_class > 0 && right_class > 0) {
 313:lvgl\src\lv_font/lv_font_fmt_txt.c ****             value = kdsc->class_pair_values[(left_class - 1) * kdsc->right_class_cnt + (right_class
 314:lvgl\src\lv_font/lv_font_fmt_txt.c ****         }
 315:lvgl\src\lv_font/lv_font_fmt_txt.c **** 
 316:lvgl\src\lv_font/lv_font_fmt_txt.c ****     }
ARM GAS  C:\Users\strap\AppData\Local\Temp\ccKJQbxb.s 			page 7


 317:lvgl\src\lv_font/lv_font_fmt_txt.c ****     return value;
 318:lvgl\src\lv_font/lv_font_fmt_txt.c **** }
 319:lvgl\src\lv_font/lv_font_fmt_txt.c **** 
 320:lvgl\src\lv_font/lv_font_fmt_txt.c **** static int32_t kern_pair_8_compare(const void * ref, const void * element)
 321:lvgl\src\lv_font/lv_font_fmt_txt.c **** {
  27              		.loc 1 321 0
  28              		.cfi_startproc
  29              		@ args = 0, pretend = 0, frame = 0
  30              		@ frame_needed = 0, uses_anonymous_args = 0
  31              		@ link register save eliminated.
  32              	.LVL0:
 322:lvgl\src\lv_font/lv_font_fmt_txt.c ****     const uint8_t * ref8_p = ref;
 323:lvgl\src\lv_font/lv_font_fmt_txt.c ****     const uint8_t * element8_p = element;
 324:lvgl\src\lv_font/lv_font_fmt_txt.c **** 
 325:lvgl\src\lv_font/lv_font_fmt_txt.c ****     /*If the MSB is different it will matter. If not return the diff. of the LSB*/
 326:lvgl\src\lv_font/lv_font_fmt_txt.c ****     if(ref8_p[0] != element8_p[0]) return (int32_t)ref8_p[0] - element8_p[0];
  33              		.loc 1 326 0
  34 0000 0378     		ldrb	r3, [r0]	@ zero_extendqisi2
  35 0002 0A78     		ldrb	r2, [r1]	@ zero_extendqisi2
  36 0004 9342     		cmp	r3, r2
  37 0006 01D0     		beq	.L2
  38              		.loc 1 326 0 is_stmt 0 discriminator 1
  39 0008 981A     		subs	r0, r3, r2
  40              	.LVL1:
  41 000a 7047     		bx	lr
  42              	.LVL2:
  43              	.L2:
 327:lvgl\src\lv_font/lv_font_fmt_txt.c ****     else return (int32_t) ref8_p[1] - element8_p[1];
  44              		.loc 1 327 0 is_stmt 1
  45 000c 4378     		ldrb	r3, [r0, #1]	@ zero_extendqisi2
  46 000e 4878     		ldrb	r0, [r1, #1]	@ zero_extendqisi2
  47              	.LVL3:
  48 0010 181A     		subs	r0, r3, r0
 328:lvgl\src\lv_font/lv_font_fmt_txt.c **** 
 329:lvgl\src\lv_font/lv_font_fmt_txt.c **** }
  49              		.loc 1 329 0
  50 0012 7047     		bx	lr
  51              		.cfi_endproc
  52              	.LFE42:
  53              		.size	kern_pair_8_compare, .-kern_pair_8_compare
  54              		.section	.text.kern_pair_16_compare,"ax",%progbits
  55              		.align	2
  56              		.thumb
  57              		.thumb_func
  58              		.type	kern_pair_16_compare, %function
  59              	kern_pair_16_compare:
  60              	.LFB43:
 330:lvgl\src\lv_font/lv_font_fmt_txt.c **** 
 331:lvgl\src\lv_font/lv_font_fmt_txt.c **** static int32_t kern_pair_16_compare(const void * ref, const void * element)
 332:lvgl\src\lv_font/lv_font_fmt_txt.c **** {
  61              		.loc 1 332 0
  62              		.cfi_startproc
  63              		@ args = 0, pretend = 0, frame = 0
  64              		@ frame_needed = 0, uses_anonymous_args = 0
  65              		@ link register save eliminated.
  66              	.LVL4:
 333:lvgl\src\lv_font/lv_font_fmt_txt.c ****     const uint16_t * ref16_p = ref;
ARM GAS  C:\Users\strap\AppData\Local\Temp\ccKJQbxb.s 			page 8


 334:lvgl\src\lv_font/lv_font_fmt_txt.c ****     const uint16_t * element16_p = element;
 335:lvgl\src\lv_font/lv_font_fmt_txt.c **** 
 336:lvgl\src\lv_font/lv_font_fmt_txt.c ****     /*If the MSB is different it will matter. If not return the diff. of the LSB*/
 337:lvgl\src\lv_font/lv_font_fmt_txt.c ****     if(ref16_p[0] != element16_p[0]) return (int32_t)ref16_p[0] - element16_p[0];
  67              		.loc 1 337 0
  68 0000 0388     		ldrh	r3, [r0]
  69 0002 0A88     		ldrh	r2, [r1]
  70 0004 9342     		cmp	r3, r2
  71 0006 01D0     		beq	.L5
  72              		.loc 1 337 0 is_stmt 0 discriminator 1
  73 0008 981A     		subs	r0, r3, r2
  74              	.LVL5:
  75 000a 7047     		bx	lr
  76              	.LVL6:
  77              	.L5:
 338:lvgl\src\lv_font/lv_font_fmt_txt.c ****     else return (int32_t) ref16_p[1] - element16_p[1];
  78              		.loc 1 338 0 is_stmt 1
  79 000c 4388     		ldrh	r3, [r0, #2]
  80 000e 4888     		ldrh	r0, [r1, #2]
  81              	.LVL7:
  82 0010 181A     		subs	r0, r3, r0
 339:lvgl\src\lv_font/lv_font_fmt_txt.c **** }
  83              		.loc 1 339 0
  84 0012 7047     		bx	lr
  85              		.cfi_endproc
  86              	.LFE43:
  87              		.size	kern_pair_16_compare, .-kern_pair_16_compare
  88              		.section	.text.unicode_list_compare,"ax",%progbits
  89              		.align	2
  90              		.thumb
  91              		.thumb_func
  92              		.type	unicode_list_compare, %function
  93              	unicode_list_compare:
  94              	.LFB50:
 340:lvgl\src\lv_font/lv_font_fmt_txt.c **** 
 341:lvgl\src\lv_font/lv_font_fmt_txt.c **** /**
 342:lvgl\src\lv_font/lv_font_fmt_txt.c ****  * The compress a glyph's bitmap
 343:lvgl\src\lv_font/lv_font_fmt_txt.c ****  * @param in the compressed bitmap
 344:lvgl\src\lv_font/lv_font_fmt_txt.c ****  * @param out buffer to store the result
 345:lvgl\src\lv_font/lv_font_fmt_txt.c ****  * @param px_num number of pixels in the glyph (width * height)
 346:lvgl\src\lv_font/lv_font_fmt_txt.c ****  * @param bpp bit per pixel (bpp = 3 will be converted to bpp = 4)
 347:lvgl\src\lv_font/lv_font_fmt_txt.c ****  * @param prefilter true: the lines are XORed
 348:lvgl\src\lv_font/lv_font_fmt_txt.c ****  */
 349:lvgl\src\lv_font/lv_font_fmt_txt.c **** static void decompress(const uint8_t * in, uint8_t * out, lv_coord_t w, lv_coord_t h, uint8_t bpp, 
 350:lvgl\src\lv_font/lv_font_fmt_txt.c **** {
 351:lvgl\src\lv_font/lv_font_fmt_txt.c ****     uint32_t wrp = 0;
 352:lvgl\src\lv_font/lv_font_fmt_txt.c ****     uint8_t wr_size = bpp;
 353:lvgl\src\lv_font/lv_font_fmt_txt.c ****     if(bpp == 3) wr_size = 4;
 354:lvgl\src\lv_font/lv_font_fmt_txt.c **** 
 355:lvgl\src\lv_font/lv_font_fmt_txt.c ****     rle_init(in, bpp);
 356:lvgl\src\lv_font/lv_font_fmt_txt.c **** 
 357:lvgl\src\lv_font/lv_font_fmt_txt.c ****     uint8_t * line_buf1 = _lv_mem_buf_get(w);
 358:lvgl\src\lv_font/lv_font_fmt_txt.c **** 
 359:lvgl\src\lv_font/lv_font_fmt_txt.c ****     uint8_t * line_buf2 = NULL;
 360:lvgl\src\lv_font/lv_font_fmt_txt.c **** 
 361:lvgl\src\lv_font/lv_font_fmt_txt.c ****     if(prefilter) {
 362:lvgl\src\lv_font/lv_font_fmt_txt.c ****         line_buf2 = _lv_mem_buf_get(w);
ARM GAS  C:\Users\strap\AppData\Local\Temp\ccKJQbxb.s 			page 9


 363:lvgl\src\lv_font/lv_font_fmt_txt.c ****     }
 364:lvgl\src\lv_font/lv_font_fmt_txt.c **** 
 365:lvgl\src\lv_font/lv_font_fmt_txt.c ****     decompress_line(line_buf1, w);
 366:lvgl\src\lv_font/lv_font_fmt_txt.c **** 
 367:lvgl\src\lv_font/lv_font_fmt_txt.c ****     lv_coord_t y;
 368:lvgl\src\lv_font/lv_font_fmt_txt.c ****     lv_coord_t x;
 369:lvgl\src\lv_font/lv_font_fmt_txt.c **** 
 370:lvgl\src\lv_font/lv_font_fmt_txt.c ****     for(x = 0; x < w; x++) {
 371:lvgl\src\lv_font/lv_font_fmt_txt.c ****         bits_write(out, wrp, line_buf1[x], bpp);
 372:lvgl\src\lv_font/lv_font_fmt_txt.c ****         wrp += wr_size;
 373:lvgl\src\lv_font/lv_font_fmt_txt.c ****     }
 374:lvgl\src\lv_font/lv_font_fmt_txt.c **** 
 375:lvgl\src\lv_font/lv_font_fmt_txt.c ****     for(y = 1; y < h; y++) {
 376:lvgl\src\lv_font/lv_font_fmt_txt.c ****         if(prefilter) {
 377:lvgl\src\lv_font/lv_font_fmt_txt.c ****             decompress_line(line_buf2, w);
 378:lvgl\src\lv_font/lv_font_fmt_txt.c **** 
 379:lvgl\src\lv_font/lv_font_fmt_txt.c ****             for(x = 0; x < w; x++) {
 380:lvgl\src\lv_font/lv_font_fmt_txt.c ****                 line_buf1[x] = line_buf2[x] ^ line_buf1[x];
 381:lvgl\src\lv_font/lv_font_fmt_txt.c ****                 bits_write(out, wrp, line_buf1[x], bpp);
 382:lvgl\src\lv_font/lv_font_fmt_txt.c ****                 wrp += wr_size;
 383:lvgl\src\lv_font/lv_font_fmt_txt.c ****             }
 384:lvgl\src\lv_font/lv_font_fmt_txt.c ****         }
 385:lvgl\src\lv_font/lv_font_fmt_txt.c ****         else {
 386:lvgl\src\lv_font/lv_font_fmt_txt.c ****             decompress_line(line_buf1, w);
 387:lvgl\src\lv_font/lv_font_fmt_txt.c **** 
 388:lvgl\src\lv_font/lv_font_fmt_txt.c ****             for(x = 0; x < w; x++) {
 389:lvgl\src\lv_font/lv_font_fmt_txt.c ****                 bits_write(out, wrp, line_buf1[x], bpp);
 390:lvgl\src\lv_font/lv_font_fmt_txt.c ****                 wrp += wr_size;
 391:lvgl\src\lv_font/lv_font_fmt_txt.c ****             }
 392:lvgl\src\lv_font/lv_font_fmt_txt.c ****         }
 393:lvgl\src\lv_font/lv_font_fmt_txt.c ****     }
 394:lvgl\src\lv_font/lv_font_fmt_txt.c **** 
 395:lvgl\src\lv_font/lv_font_fmt_txt.c ****     _lv_mem_buf_release(line_buf1);
 396:lvgl\src\lv_font/lv_font_fmt_txt.c ****     _lv_mem_buf_release(line_buf2);
 397:lvgl\src\lv_font/lv_font_fmt_txt.c **** }
 398:lvgl\src\lv_font/lv_font_fmt_txt.c **** 
 399:lvgl\src\lv_font/lv_font_fmt_txt.c **** /**
 400:lvgl\src\lv_font/lv_font_fmt_txt.c ****  * Decompress one line. Store one pixel per byte
 401:lvgl\src\lv_font/lv_font_fmt_txt.c ****  * @param out output buffer
 402:lvgl\src\lv_font/lv_font_fmt_txt.c ****  * @param w width of the line in pixel count
 403:lvgl\src\lv_font/lv_font_fmt_txt.c ****  */
 404:lvgl\src\lv_font/lv_font_fmt_txt.c **** static inline void decompress_line(uint8_t * out, lv_coord_t w)
 405:lvgl\src\lv_font/lv_font_fmt_txt.c **** {
 406:lvgl\src\lv_font/lv_font_fmt_txt.c ****     lv_coord_t i;
 407:lvgl\src\lv_font/lv_font_fmt_txt.c ****     for(i = 0; i < w; i++) {
 408:lvgl\src\lv_font/lv_font_fmt_txt.c ****         out[i] = rle_next();
 409:lvgl\src\lv_font/lv_font_fmt_txt.c ****     }
 410:lvgl\src\lv_font/lv_font_fmt_txt.c **** }
 411:lvgl\src\lv_font/lv_font_fmt_txt.c **** 
 412:lvgl\src\lv_font/lv_font_fmt_txt.c **** /**
 413:lvgl\src\lv_font/lv_font_fmt_txt.c ****  * Read bits from an input buffer. The read can cross byte boundary.
 414:lvgl\src\lv_font/lv_font_fmt_txt.c ****  * @param in the input buffer to read from.
 415:lvgl\src\lv_font/lv_font_fmt_txt.c ****  * @param bit_pos index of the first bit to read.
 416:lvgl\src\lv_font/lv_font_fmt_txt.c ****  * @param len number of bits to read (must be <= 8).
 417:lvgl\src\lv_font/lv_font_fmt_txt.c ****  * @return the read bits
 418:lvgl\src\lv_font/lv_font_fmt_txt.c ****  */
 419:lvgl\src\lv_font/lv_font_fmt_txt.c **** static inline uint8_t get_bits(const uint8_t * in, uint32_t bit_pos, uint8_t len)
ARM GAS  C:\Users\strap\AppData\Local\Temp\ccKJQbxb.s 			page 10


 420:lvgl\src\lv_font/lv_font_fmt_txt.c **** {
 421:lvgl\src\lv_font/lv_font_fmt_txt.c ****     uint8_t bit_mask;
 422:lvgl\src\lv_font/lv_font_fmt_txt.c ****     switch(len) {
 423:lvgl\src\lv_font/lv_font_fmt_txt.c ****         case 1:
 424:lvgl\src\lv_font/lv_font_fmt_txt.c ****             bit_mask = 0x1;
 425:lvgl\src\lv_font/lv_font_fmt_txt.c ****             break;
 426:lvgl\src\lv_font/lv_font_fmt_txt.c ****         case 2:
 427:lvgl\src\lv_font/lv_font_fmt_txt.c ****             bit_mask = 0x3;
 428:lvgl\src\lv_font/lv_font_fmt_txt.c ****             break;
 429:lvgl\src\lv_font/lv_font_fmt_txt.c ****         case 3:
 430:lvgl\src\lv_font/lv_font_fmt_txt.c ****             bit_mask = 0x7;
 431:lvgl\src\lv_font/lv_font_fmt_txt.c ****             break;
 432:lvgl\src\lv_font/lv_font_fmt_txt.c ****         case 4:
 433:lvgl\src\lv_font/lv_font_fmt_txt.c ****             bit_mask = 0xF;
 434:lvgl\src\lv_font/lv_font_fmt_txt.c ****             break;
 435:lvgl\src\lv_font/lv_font_fmt_txt.c ****         case 8:
 436:lvgl\src\lv_font/lv_font_fmt_txt.c ****             bit_mask = 0xFF;
 437:lvgl\src\lv_font/lv_font_fmt_txt.c ****             break;
 438:lvgl\src\lv_font/lv_font_fmt_txt.c ****         default:
 439:lvgl\src\lv_font/lv_font_fmt_txt.c ****             bit_mask = (uint16_t)((uint16_t) 1 << len) - 1;
 440:lvgl\src\lv_font/lv_font_fmt_txt.c ****     }
 441:lvgl\src\lv_font/lv_font_fmt_txt.c **** 
 442:lvgl\src\lv_font/lv_font_fmt_txt.c ****     uint32_t byte_pos = bit_pos >> 3;
 443:lvgl\src\lv_font/lv_font_fmt_txt.c ****     bit_pos = bit_pos & 0x7;
 444:lvgl\src\lv_font/lv_font_fmt_txt.c **** 
 445:lvgl\src\lv_font/lv_font_fmt_txt.c ****     if(bit_pos + len >= 8) {
 446:lvgl\src\lv_font/lv_font_fmt_txt.c ****         uint16_t in16 = (in[byte_pos] << 8) + in[byte_pos + 1];
 447:lvgl\src\lv_font/lv_font_fmt_txt.c ****         return (in16 >> (16 - bit_pos - len)) & bit_mask;
 448:lvgl\src\lv_font/lv_font_fmt_txt.c ****     }
 449:lvgl\src\lv_font/lv_font_fmt_txt.c ****     else {
 450:lvgl\src\lv_font/lv_font_fmt_txt.c ****         return (in[byte_pos] >> (8 - bit_pos - len)) & bit_mask;
 451:lvgl\src\lv_font/lv_font_fmt_txt.c ****     }
 452:lvgl\src\lv_font/lv_font_fmt_txt.c **** }
 453:lvgl\src\lv_font/lv_font_fmt_txt.c **** 
 454:lvgl\src\lv_font/lv_font_fmt_txt.c **** /**
 455:lvgl\src\lv_font/lv_font_fmt_txt.c ****  * Write `val` data to `bit_pos` position of `out`. The write can NOT cross byte boundary.
 456:lvgl\src\lv_font/lv_font_fmt_txt.c ****  * @param out buffer where to write
 457:lvgl\src\lv_font/lv_font_fmt_txt.c ****  * @param bit_pos bit index to write
 458:lvgl\src\lv_font/lv_font_fmt_txt.c ****  * @param val value to write
 459:lvgl\src\lv_font/lv_font_fmt_txt.c ****  * @param len length of bits to write from `val`. (Counted from the LSB).
 460:lvgl\src\lv_font/lv_font_fmt_txt.c ****  * @note `len == 3` will be converted to `len = 4` and `val` will be upscaled too
 461:lvgl\src\lv_font/lv_font_fmt_txt.c ****  */
 462:lvgl\src\lv_font/lv_font_fmt_txt.c **** static inline void bits_write(uint8_t * out, uint32_t bit_pos, uint8_t val, uint8_t len)
 463:lvgl\src\lv_font/lv_font_fmt_txt.c **** {
 464:lvgl\src\lv_font/lv_font_fmt_txt.c ****     if(len == 3) {
 465:lvgl\src\lv_font/lv_font_fmt_txt.c ****         len = 4;
 466:lvgl\src\lv_font/lv_font_fmt_txt.c ****         switch(val) {
 467:lvgl\src\lv_font/lv_font_fmt_txt.c ****             case 0:
 468:lvgl\src\lv_font/lv_font_fmt_txt.c ****                 val = 0;
 469:lvgl\src\lv_font/lv_font_fmt_txt.c ****                 break;
 470:lvgl\src\lv_font/lv_font_fmt_txt.c ****             case 1:
 471:lvgl\src\lv_font/lv_font_fmt_txt.c ****                 val = 2;
 472:lvgl\src\lv_font/lv_font_fmt_txt.c ****                 break;
 473:lvgl\src\lv_font/lv_font_fmt_txt.c ****             case 2:
 474:lvgl\src\lv_font/lv_font_fmt_txt.c ****                 val = 4;
 475:lvgl\src\lv_font/lv_font_fmt_txt.c ****                 break;
 476:lvgl\src\lv_font/lv_font_fmt_txt.c ****             case 3:
ARM GAS  C:\Users\strap\AppData\Local\Temp\ccKJQbxb.s 			page 11


 477:lvgl\src\lv_font/lv_font_fmt_txt.c ****                 val = 6;
 478:lvgl\src\lv_font/lv_font_fmt_txt.c ****                 break;
 479:lvgl\src\lv_font/lv_font_fmt_txt.c ****             case 4:
 480:lvgl\src\lv_font/lv_font_fmt_txt.c ****                 val = 9;
 481:lvgl\src\lv_font/lv_font_fmt_txt.c ****                 break;
 482:lvgl\src\lv_font/lv_font_fmt_txt.c ****             case 5:
 483:lvgl\src\lv_font/lv_font_fmt_txt.c ****                 val = 11;
 484:lvgl\src\lv_font/lv_font_fmt_txt.c ****                 break;
 485:lvgl\src\lv_font/lv_font_fmt_txt.c ****             case 6:
 486:lvgl\src\lv_font/lv_font_fmt_txt.c ****                 val = 13;
 487:lvgl\src\lv_font/lv_font_fmt_txt.c ****                 break;
 488:lvgl\src\lv_font/lv_font_fmt_txt.c ****             case 7:
 489:lvgl\src\lv_font/lv_font_fmt_txt.c ****                 val = 15;
 490:lvgl\src\lv_font/lv_font_fmt_txt.c ****                 break;
 491:lvgl\src\lv_font/lv_font_fmt_txt.c ****         }
 492:lvgl\src\lv_font/lv_font_fmt_txt.c ****     }
 493:lvgl\src\lv_font/lv_font_fmt_txt.c **** 
 494:lvgl\src\lv_font/lv_font_fmt_txt.c ****     uint16_t byte_pos = bit_pos >> 3;
 495:lvgl\src\lv_font/lv_font_fmt_txt.c ****     bit_pos = bit_pos & 0x7;
 496:lvgl\src\lv_font/lv_font_fmt_txt.c ****     bit_pos = 8 - bit_pos - len;
 497:lvgl\src\lv_font/lv_font_fmt_txt.c **** 
 498:lvgl\src\lv_font/lv_font_fmt_txt.c ****     uint8_t bit_mask = (uint16_t)((uint16_t) 1 << len) - 1;
 499:lvgl\src\lv_font/lv_font_fmt_txt.c ****     out[byte_pos] &= ((~bit_mask) << bit_pos);
 500:lvgl\src\lv_font/lv_font_fmt_txt.c ****     out[byte_pos] |= (val << bit_pos);
 501:lvgl\src\lv_font/lv_font_fmt_txt.c **** }
 502:lvgl\src\lv_font/lv_font_fmt_txt.c **** 
 503:lvgl\src\lv_font/lv_font_fmt_txt.c **** static inline void rle_init(const uint8_t * in,  uint8_t bpp)
 504:lvgl\src\lv_font/lv_font_fmt_txt.c **** {
 505:lvgl\src\lv_font/lv_font_fmt_txt.c ****     rle_in = in;
 506:lvgl\src\lv_font/lv_font_fmt_txt.c ****     rle_bpp = bpp;
 507:lvgl\src\lv_font/lv_font_fmt_txt.c ****     rle_state = RLE_STATE_SINGLE;
 508:lvgl\src\lv_font/lv_font_fmt_txt.c ****     rle_rdp = 0;
 509:lvgl\src\lv_font/lv_font_fmt_txt.c ****     rle_prev_v = 0;
 510:lvgl\src\lv_font/lv_font_fmt_txt.c ****     rle_cnt = 0;
 511:lvgl\src\lv_font/lv_font_fmt_txt.c **** }
 512:lvgl\src\lv_font/lv_font_fmt_txt.c **** 
 513:lvgl\src\lv_font/lv_font_fmt_txt.c **** static inline uint8_t rle_next(void)
 514:lvgl\src\lv_font/lv_font_fmt_txt.c **** {
 515:lvgl\src\lv_font/lv_font_fmt_txt.c ****     uint8_t v = 0;
 516:lvgl\src\lv_font/lv_font_fmt_txt.c ****     uint8_t ret = 0;
 517:lvgl\src\lv_font/lv_font_fmt_txt.c **** 
 518:lvgl\src\lv_font/lv_font_fmt_txt.c ****     if(rle_state == RLE_STATE_SINGLE) {
 519:lvgl\src\lv_font/lv_font_fmt_txt.c ****         ret = get_bits(rle_in, rle_rdp, rle_bpp);
 520:lvgl\src\lv_font/lv_font_fmt_txt.c ****         if(rle_rdp != 0 && rle_prev_v == ret) {
 521:lvgl\src\lv_font/lv_font_fmt_txt.c ****             rle_cnt = 0;
 522:lvgl\src\lv_font/lv_font_fmt_txt.c ****             rle_state = RLE_STATE_REPEATE;
 523:lvgl\src\lv_font/lv_font_fmt_txt.c ****         }
 524:lvgl\src\lv_font/lv_font_fmt_txt.c **** 
 525:lvgl\src\lv_font/lv_font_fmt_txt.c ****         rle_prev_v = ret;
 526:lvgl\src\lv_font/lv_font_fmt_txt.c ****         rle_rdp += rle_bpp;
 527:lvgl\src\lv_font/lv_font_fmt_txt.c ****     }
 528:lvgl\src\lv_font/lv_font_fmt_txt.c ****     else if(rle_state == RLE_STATE_REPEATE) {
 529:lvgl\src\lv_font/lv_font_fmt_txt.c ****         v = get_bits(rle_in, rle_rdp, 1);
 530:lvgl\src\lv_font/lv_font_fmt_txt.c ****         rle_cnt++;
 531:lvgl\src\lv_font/lv_font_fmt_txt.c ****         rle_rdp += 1;
 532:lvgl\src\lv_font/lv_font_fmt_txt.c ****         if(v == 1) {
 533:lvgl\src\lv_font/lv_font_fmt_txt.c ****             ret = rle_prev_v;
ARM GAS  C:\Users\strap\AppData\Local\Temp\ccKJQbxb.s 			page 12


 534:lvgl\src\lv_font/lv_font_fmt_txt.c ****             if(rle_cnt == 11) {
 535:lvgl\src\lv_font/lv_font_fmt_txt.c ****                 rle_cnt = get_bits(rle_in, rle_rdp, 6);
 536:lvgl\src\lv_font/lv_font_fmt_txt.c ****                 rle_rdp += 6;
 537:lvgl\src\lv_font/lv_font_fmt_txt.c ****                 if(rle_cnt != 0) {
 538:lvgl\src\lv_font/lv_font_fmt_txt.c ****                     rle_state = RLE_STATE_COUNTER;
 539:lvgl\src\lv_font/lv_font_fmt_txt.c ****                 }
 540:lvgl\src\lv_font/lv_font_fmt_txt.c ****                 else {
 541:lvgl\src\lv_font/lv_font_fmt_txt.c ****                     ret = get_bits(rle_in, rle_rdp, rle_bpp);
 542:lvgl\src\lv_font/lv_font_fmt_txt.c ****                     rle_prev_v = ret;
 543:lvgl\src\lv_font/lv_font_fmt_txt.c ****                     rle_rdp += rle_bpp;
 544:lvgl\src\lv_font/lv_font_fmt_txt.c ****                     rle_state = RLE_STATE_SINGLE;
 545:lvgl\src\lv_font/lv_font_fmt_txt.c ****                 }
 546:lvgl\src\lv_font/lv_font_fmt_txt.c ****             }
 547:lvgl\src\lv_font/lv_font_fmt_txt.c ****         }
 548:lvgl\src\lv_font/lv_font_fmt_txt.c ****         else {
 549:lvgl\src\lv_font/lv_font_fmt_txt.c ****             ret = get_bits(rle_in, rle_rdp, rle_bpp);
 550:lvgl\src\lv_font/lv_font_fmt_txt.c ****             rle_prev_v = ret;
 551:lvgl\src\lv_font/lv_font_fmt_txt.c ****             rle_rdp += rle_bpp;
 552:lvgl\src\lv_font/lv_font_fmt_txt.c ****             rle_state = RLE_STATE_SINGLE;
 553:lvgl\src\lv_font/lv_font_fmt_txt.c ****         }
 554:lvgl\src\lv_font/lv_font_fmt_txt.c **** 
 555:lvgl\src\lv_font/lv_font_fmt_txt.c **** 
 556:lvgl\src\lv_font/lv_font_fmt_txt.c ****     }
 557:lvgl\src\lv_font/lv_font_fmt_txt.c ****     else if(rle_state == RLE_STATE_COUNTER) {
 558:lvgl\src\lv_font/lv_font_fmt_txt.c ****         ret = rle_prev_v;
 559:lvgl\src\lv_font/lv_font_fmt_txt.c ****         rle_cnt--;
 560:lvgl\src\lv_font/lv_font_fmt_txt.c ****         if(rle_cnt == 0) {
 561:lvgl\src\lv_font/lv_font_fmt_txt.c ****             ret = get_bits(rle_in, rle_rdp, rle_bpp);
 562:lvgl\src\lv_font/lv_font_fmt_txt.c ****             rle_prev_v = ret;
 563:lvgl\src\lv_font/lv_font_fmt_txt.c ****             rle_rdp += rle_bpp;
 564:lvgl\src\lv_font/lv_font_fmt_txt.c ****             rle_state = RLE_STATE_SINGLE;
 565:lvgl\src\lv_font/lv_font_fmt_txt.c ****         }
 566:lvgl\src\lv_font/lv_font_fmt_txt.c ****     }
 567:lvgl\src\lv_font/lv_font_fmt_txt.c **** 
 568:lvgl\src\lv_font/lv_font_fmt_txt.c ****     return ret;
 569:lvgl\src\lv_font/lv_font_fmt_txt.c **** }
 570:lvgl\src\lv_font/lv_font_fmt_txt.c **** 
 571:lvgl\src\lv_font/lv_font_fmt_txt.c **** /** Code Comparator.
 572:lvgl\src\lv_font/lv_font_fmt_txt.c ****  *
 573:lvgl\src\lv_font/lv_font_fmt_txt.c ****  *  Compares the value of both input arguments.
 574:lvgl\src\lv_font/lv_font_fmt_txt.c ****  *
 575:lvgl\src\lv_font/lv_font_fmt_txt.c ****  *  @param[in]  pRef        Pointer to the reference.
 576:lvgl\src\lv_font/lv_font_fmt_txt.c ****  *  @param[in]  pElement    Pointer to the element to compare.
 577:lvgl\src\lv_font/lv_font_fmt_txt.c ****  *
 578:lvgl\src\lv_font/lv_font_fmt_txt.c ****  *  @return Result of comparison.
 579:lvgl\src\lv_font/lv_font_fmt_txt.c ****  *  @retval < 0   Reference is greater than element.
 580:lvgl\src\lv_font/lv_font_fmt_txt.c ****  *  @retval = 0   Reference is equal to element.
 581:lvgl\src\lv_font/lv_font_fmt_txt.c ****  *  @retval > 0   Reference is less than element.
 582:lvgl\src\lv_font/lv_font_fmt_txt.c ****  *
 583:lvgl\src\lv_font/lv_font_fmt_txt.c ****  */
 584:lvgl\src\lv_font/lv_font_fmt_txt.c **** static int32_t unicode_list_compare(const void * ref, const void * element)
 585:lvgl\src\lv_font/lv_font_fmt_txt.c **** {
  95              		.loc 1 585 0
  96              		.cfi_startproc
  97              		@ args = 0, pretend = 0, frame = 0
  98              		@ frame_needed = 0, uses_anonymous_args = 0
  99              		@ link register save eliminated.
ARM GAS  C:\Users\strap\AppData\Local\Temp\ccKJQbxb.s 			page 13


 100              	.LVL8:
 586:lvgl\src\lv_font/lv_font_fmt_txt.c ****     return ((int32_t)(*(uint16_t *)ref)) - ((int32_t)(*(uint16_t *)element));
 101              		.loc 1 586 0
 102 0000 0088     		ldrh	r0, [r0]
 103              	.LVL9:
 104 0002 0B88     		ldrh	r3, [r1]
 587:lvgl\src\lv_font/lv_font_fmt_txt.c **** }
 105              		.loc 1 587 0
 106 0004 C01A     		subs	r0, r0, r3
 107 0006 7047     		bx	lr
 108              		.cfi_endproc
 109              	.LFE50:
 110              		.size	unicode_list_compare, .-unicode_list_compare
 111              		.section	.text.get_glyph_dsc_id,"ax",%progbits
 112              		.align	2
 113              		.thumb
 114              		.thumb_func
 115              		.type	get_glyph_dsc_id, %function
 116              	get_glyph_dsc_id:
 117              	.LFB40:
 204:lvgl\src\lv_font/lv_font_fmt_txt.c ****     if(letter == '\0') return 0;
 118              		.loc 1 204 0
 119              		.cfi_startproc
 120              		@ args = 0, pretend = 0, frame = 8
 121              		@ frame_needed = 0, uses_anonymous_args = 0
 122              	.LVL10:
 205:lvgl\src\lv_font/lv_font_fmt_txt.c **** 
 123              		.loc 1 205 0
 124 0000 0029     		cmp	r1, #0
 125 0002 61D0     		beq	.L19
 204:lvgl\src\lv_font/lv_font_fmt_txt.c ****     if(letter == '\0') return 0;
 126              		.loc 1 204 0
 127 0004 F0B5     		push	{r4, r5, r6, r7, lr}
 128              		.cfi_def_cfa_offset 20
 129              		.cfi_offset 4, -20
 130              		.cfi_offset 5, -16
 131              		.cfi_offset 6, -12
 132              		.cfi_offset 7, -8
 133              		.cfi_offset 14, -4
 134 0006 85B0     		sub	sp, sp, #20
 135              		.cfi_def_cfa_offset 40
 136 0008 0D46     		mov	r5, r1
 207:lvgl\src\lv_font/lv_font_fmt_txt.c **** 
 137              		.loc 1 207 0
 138 000a 0469     		ldr	r4, [r0, #16]
 139              	.LVL11:
 210:lvgl\src\lv_font/lv_font_fmt_txt.c **** 
 140              		.loc 1 210 0
 141 000c A369     		ldr	r3, [r4, #24]
 142 000e 9942     		cmp	r1, r3
 143 0010 50D1     		bne	.L20
 210:lvgl\src\lv_font/lv_font_fmt_txt.c **** 
 144              		.loc 1 210 0 is_stmt 0 discriminator 1
 145 0012 E069     		ldr	r0, [r4, #28]
 146              	.LVL12:
 147 0014 5AE0     		b	.L9
 148              	.LVL13:
ARM GAS  C:\Users\strap\AppData\Local\Temp\ccKJQbxb.s 			page 14


 149              	.L18:
 150              	.LBB10:
 216:lvgl\src\lv_font/lv_font_fmt_txt.c ****         if(rcp > fdsc->cmaps[i].range_length) continue;
 151              		.loc 1 216 0 is_stmt 1
 152 0016 A168     		ldr	r1, [r4, #8]
 153 0018 03EB8300 		add	r0, r3, r3, lsl #2
 154 001c 8200     		lsls	r2, r0, #2
 155 001e 1646     		mov	r6, r2
 156 0020 8F18     		adds	r7, r1, r2
 157 0022 8858     		ldr	r0, [r1, r2]
 158 0024 2A1A     		subs	r2, r5, r0
 159              	.LVL14:
 217:lvgl\src\lv_font/lv_font_fmt_txt.c ****         uint32_t glyph_id = 0;
 160              		.loc 1 217 0
 161 0026 B988     		ldrh	r1, [r7, #4]
 162 0028 8A42     		cmp	r2, r1
 163 002a 02D9     		bls	.L11
 164              	.LBE10:
 213:lvgl\src\lv_font/lv_font_fmt_txt.c **** 
 165              		.loc 1 213 0 discriminator 1
 166 002c 0133     		adds	r3, r3, #1
 167              	.LVL15:
 168 002e 9BB2     		uxth	r3, r3
 169              	.LVL16:
 170 0030 41E0     		b	.L10
 171              	.L11:
 172              	.LVL17:
 173              	.LBB16:
 219:lvgl\src\lv_font/lv_font_fmt_txt.c ****             glyph_id = fdsc->cmaps[i].glyph_id_start + rcp;
 174              		.loc 1 219 0
 175 0032 BB7C     		ldrb	r3, [r7, #18]	@ zero_extendqisi2
 176              	.LVL18:
 177 0034 13B9     		cbnz	r3, .L12
 220:lvgl\src\lv_font/lv_font_fmt_txt.c ****         }
 178              		.loc 1 220 0
 179 0036 FB88     		ldrh	r3, [r7, #6]
 180 0038 D018     		adds	r0, r2, r3
 181              	.LVL19:
 182 003a 38E0     		b	.L13
 183              	.LVL20:
 184              	.L12:
 222:lvgl\src\lv_font/lv_font_fmt_txt.c ****             const uint8_t * gid_ofs_8 = fdsc->cmaps[i].glyph_id_ofs_list;
 185              		.loc 1 222 0
 186 003c 012B     		cmp	r3, #1
 187 003e 04D1     		bne	.L14
 188              	.LBB11:
 223:lvgl\src\lv_font/lv_font_fmt_txt.c ****             glyph_id = fdsc->cmaps[i].glyph_id_start + gid_ofs_8[rcp];
 189              		.loc 1 223 0
 190 0040 FB68     		ldr	r3, [r7, #12]
 191              	.LVL21:
 224:lvgl\src\lv_font/lv_font_fmt_txt.c ****         }
 192              		.loc 1 224 0
 193 0042 F888     		ldrh	r0, [r7, #6]
 194 0044 9B5C     		ldrb	r3, [r3, r2]	@ zero_extendqisi2
 195              	.LVL22:
 196 0046 1844     		add	r0, r0, r3
 197              	.LVL23:
ARM GAS  C:\Users\strap\AppData\Local\Temp\ccKJQbxb.s 			page 15


 198              	.LBE11:
 199 0048 31E0     		b	.L13
 200              	.LVL24:
 201              	.L14:
 226:lvgl\src\lv_font/lv_font_fmt_txt.c ****             uint16_t key = rcp;
 202              		.loc 1 226 0
 203 004a 022B     		cmp	r3, #2
 204 004c 15D1     		bne	.L15
 205              	.LBB12:
 227:lvgl\src\lv_font/lv_font_fmt_txt.c ****             uint8_t * p = _lv_utils_bsearch(&key, fdsc->cmaps[i].unicode_list, fdsc->cmaps[i].list_
 206              		.loc 1 227 0
 207 004e 04A8     		add	r0, sp, #16
 208 0050 20F8022D 		strh	r2, [r0, #-2]!	@ movhi
 228:lvgl\src\lv_font/lv_font_fmt_txt.c ****                                             sizeof(fdsc->cmaps[i].unicode_list[0]), unicode_list_co
 209              		.loc 1 228 0
 210 0054 B968     		ldr	r1, [r7, #8]
 211 0056 3A8A     		ldrh	r2, [r7, #16]
 212              	.LVL25:
 213 0058 1D4B     		ldr	r3, .L26
 214 005a 0093     		str	r3, [sp]
 215 005c 0223     		movs	r3, #2
 216 005e FFF7FEFF 		bl	_lv_utils_bsearch
 217              	.LVL26:
 231:lvgl\src\lv_font/lv_font_fmt_txt.c ****                 lv_uintptr_t ofs = (lv_uintptr_t)(p - (uint8_t *) fdsc->cmaps[i].unicode_list);
 218              		.loc 1 231 0
 219 0062 0246     		mov	r2, r0
 220 0064 38B1     		cbz	r0, .L21
 221              	.LBB13:
 232:lvgl\src\lv_font/lv_font_fmt_txt.c ****                 ofs = ofs >> 1;     /*The list stores `uint16_t` so the get the index divide by 2*/
 222              		.loc 1 232 0
 223 0066 A368     		ldr	r3, [r4, #8]
 224 0068 1E44     		add	r6, r6, r3
 225 006a B068     		ldr	r0, [r6, #8]
 226              	.LVL27:
 227 006c 101A     		subs	r0, r2, r0
 228              	.LVL28:
 234:lvgl\src\lv_font/lv_font_fmt_txt.c ****             }
 229              		.loc 1 234 0
 230 006e F388     		ldrh	r3, [r6, #6]
 231 0070 03EB5000 		add	r0, r3, r0, lsr #1
 232              	.LVL29:
 233 0074 1BE0     		b	.L13
 234              	.LVL30:
 235              	.L21:
 236              	.LBE13:
 237              	.LBE12:
 218:lvgl\src\lv_font/lv_font_fmt_txt.c ****         if(fdsc->cmaps[i].type == LV_FONT_FMT_TXT_CMAP_FORMAT0_TINY) {
 238              		.loc 1 218 0
 239 0076 0020     		movs	r0, #0
 240              	.LVL31:
 241 0078 19E0     		b	.L13
 242              	.LVL32:
 243              	.L15:
 237:lvgl\src\lv_font/lv_font_fmt_txt.c ****             uint16_t key = rcp;
 244              		.loc 1 237 0
 245 007a 032B     		cmp	r3, #3
 246 007c 16D1     		bne	.L22
ARM GAS  C:\Users\strap\AppData\Local\Temp\ccKJQbxb.s 			page 16


 247              	.LBB14:
 238:lvgl\src\lv_font/lv_font_fmt_txt.c ****             uint8_t * p = _lv_utils_bsearch(&key, fdsc->cmaps[i].unicode_list, fdsc->cmaps[i].list_
 248              		.loc 1 238 0
 249 007e 04A8     		add	r0, sp, #16
 250 0080 20F8022D 		strh	r2, [r0, #-2]!	@ movhi
 239:lvgl\src\lv_font/lv_font_fmt_txt.c ****                                             sizeof(fdsc->cmaps[i].unicode_list[0]), unicode_list_co
 251              		.loc 1 239 0
 252 0084 B968     		ldr	r1, [r7, #8]
 253 0086 3A8A     		ldrh	r2, [r7, #16]
 254              	.LVL33:
 255 0088 114B     		ldr	r3, .L26
 256 008a 0093     		str	r3, [sp]
 257 008c 0223     		movs	r3, #2
 258 008e FFF7FEFF 		bl	_lv_utils_bsearch
 259              	.LVL34:
 242:lvgl\src\lv_font/lv_font_fmt_txt.c ****                 lv_uintptr_t ofs = (lv_uintptr_t)(p - (uint8_t *) fdsc->cmaps[i].unicode_list);
 260              		.loc 1 242 0
 261 0092 48B1     		cbz	r0, .L23
 262              	.LBB15:
 243:lvgl\src\lv_font/lv_font_fmt_txt.c ****                 ofs = ofs >> 1;     /*The list stores `uint16_t` so the get the index divide by 2*/
 263              		.loc 1 243 0
 264 0094 A268     		ldr	r2, [r4, #8]
 265 0096 1644     		add	r6, r6, r2
 266 0098 B268     		ldr	r2, [r6, #8]
 267 009a 831A     		subs	r3, r0, r2
 268              	.LVL35:
 244:lvgl\src\lv_font/lv_font_fmt_txt.c ****                 const uint8_t * gid_ofs_16 = fdsc->cmaps[i].glyph_id_ofs_list;
 269              		.loc 1 244 0
 270 009c 5B08     		lsrs	r3, r3, #1
 271              	.LVL36:
 245:lvgl\src\lv_font/lv_font_fmt_txt.c ****                 glyph_id = fdsc->cmaps[i].glyph_id_start + gid_ofs_16[ofs];
 272              		.loc 1 245 0
 273 009e F268     		ldr	r2, [r6, #12]
 274              	.LVL37:
 246:lvgl\src\lv_font/lv_font_fmt_txt.c ****             }
 275              		.loc 1 246 0
 276 00a0 F088     		ldrh	r0, [r6, #6]
 277              	.LVL38:
 278 00a2 D35C     		ldrb	r3, [r2, r3]	@ zero_extendqisi2
 279              	.LVL39:
 280 00a4 1844     		add	r0, r0, r3
 281              	.LVL40:
 282 00a6 02E0     		b	.L13
 283              	.LVL41:
 284              	.L23:
 285              	.LBE15:
 286              	.LBE14:
 218:lvgl\src\lv_font/lv_font_fmt_txt.c ****         if(fdsc->cmaps[i].type == LV_FONT_FMT_TXT_CMAP_FORMAT0_TINY) {
 287              		.loc 1 218 0
 288 00a8 0020     		movs	r0, #0
 289              	.LVL42:
 290 00aa 00E0     		b	.L13
 291              	.LVL43:
 292              	.L22:
 293 00ac 0020     		movs	r0, #0
 294              	.LVL44:
 295              	.L13:
ARM GAS  C:\Users\strap\AppData\Local\Temp\ccKJQbxb.s 			page 17


 251:lvgl\src\lv_font/lv_font_fmt_txt.c ****         fdsc->last_glyph_id = glyph_id;
 296              		.loc 1 251 0
 297 00ae A561     		str	r5, [r4, #24]
 252:lvgl\src\lv_font/lv_font_fmt_txt.c ****         return glyph_id;
 298              		.loc 1 252 0
 299 00b0 E061     		str	r0, [r4, #28]
 253:lvgl\src\lv_font/lv_font_fmt_txt.c ****     }
 300              		.loc 1 253 0
 301 00b2 0BE0     		b	.L9
 302              	.LVL45:
 303              	.L20:
 304              	.LBE16:
 305 00b4 0023     		movs	r3, #0
 306              	.LVL46:
 307              	.L10:
 213:lvgl\src\lv_font/lv_font_fmt_txt.c **** 
 308              		.loc 1 213 0 discriminator 1
 309 00b6 628A     		ldrh	r2, [r4, #18]
 310 00b8 C2F30902 		ubfx	r2, r2, #0, #10
 311 00bc 9342     		cmp	r3, r2
 312 00be AADB     		blt	.L18
 256:lvgl\src\lv_font/lv_font_fmt_txt.c ****     fdsc->last_glyph_id = 0;
 313              		.loc 1 256 0
 314 00c0 A561     		str	r5, [r4, #24]
 257:lvgl\src\lv_font/lv_font_fmt_txt.c ****     return 0;
 315              		.loc 1 257 0
 316 00c2 0020     		movs	r0, #0
 317 00c4 E061     		str	r0, [r4, #28]
 258:lvgl\src\lv_font/lv_font_fmt_txt.c **** 
 318              		.loc 1 258 0
 319 00c6 01E0     		b	.L9
 320              	.LVL47:
 321              	.L19:
 322              		.cfi_def_cfa_offset 0
 323              		.cfi_restore 4
 324              		.cfi_restore 5
 325              		.cfi_restore 6
 326              		.cfi_restore 7
 327              		.cfi_restore 14
 205:lvgl\src\lv_font/lv_font_fmt_txt.c **** 
 328              		.loc 1 205 0
 329 00c8 0020     		movs	r0, #0
 330              	.LVL48:
 331 00ca 7047     		bx	lr
 332              	.LVL49:
 333              	.L9:
 334              		.cfi_def_cfa_offset 40
 335              		.cfi_offset 4, -20
 336              		.cfi_offset 5, -16
 337              		.cfi_offset 6, -12
 338              		.cfi_offset 7, -8
 339              		.cfi_offset 14, -4
 260:lvgl\src\lv_font/lv_font_fmt_txt.c **** 
 340              		.loc 1 260 0
 341 00cc 05B0     		add	sp, sp, #20
 342              		.cfi_def_cfa_offset 20
 343              		@ sp needed
ARM GAS  C:\Users\strap\AppData\Local\Temp\ccKJQbxb.s 			page 18


 344 00ce F0BD     		pop	{r4, r5, r6, r7, pc}
 345              	.LVL50:
 346              	.L27:
 347              		.align	2
 348              	.L26:
 349 00d0 00000000 		.word	unicode_list_compare
 350              		.cfi_endproc
 351              	.LFE40:
 352              		.size	get_glyph_dsc_id, .-get_glyph_dsc_id
 353              		.section	.text.get_kern_value,"ax",%progbits
 354              		.align	2
 355              		.thumb
 356              		.thumb_func
 357              		.type	get_kern_value, %function
 358              	get_kern_value:
 359              	.LFB41:
 263:lvgl\src\lv_font/lv_font_fmt_txt.c ****     lv_font_fmt_txt_dsc_t * fdsc = (lv_font_fmt_txt_dsc_t *) font->dsc;
 360              		.loc 1 263 0
 361              		.cfi_startproc
 362              		@ args = 0, pretend = 0, frame = 8
 363              		@ frame_needed = 0, uses_anonymous_args = 0
 364              	.LVL51:
 264:lvgl\src\lv_font/lv_font_fmt_txt.c **** 
 365              		.loc 1 264 0
 366 0000 0369     		ldr	r3, [r0, #16]
 367              	.LVL52:
 268:lvgl\src\lv_font/lv_font_fmt_txt.c ****         /*Kern pairs*/
 368              		.loc 1 268 0
 369 0002 D87C     		ldrb	r0, [r3, #19]	@ zero_extendqisi2
 370              	.LVL53:
 371 0004 10F0400F 		tst	r0, #64
 372 0008 36D1     		bne	.L29
 263:lvgl\src\lv_font/lv_font_fmt_txt.c ****     lv_font_fmt_txt_dsc_t * fdsc = (lv_font_fmt_txt_dsc_t *) font->dsc;
 373              		.loc 1 263 0
 374 000a 30B5     		push	{r4, r5, lr}
 375              		.cfi_def_cfa_offset 12
 376              		.cfi_offset 4, -12
 377              		.cfi_offset 5, -8
 378              		.cfi_offset 14, -4
 379 000c 85B0     		sub	sp, sp, #20
 380              		.cfi_def_cfa_offset 32
 381              	.LBB17:
 270:lvgl\src\lv_font/lv_font_fmt_txt.c ****         if(kdsc->glyph_ids_size == 0) {
 382              		.loc 1 270 0
 383 000e DC68     		ldr	r4, [r3, #12]
 384              	.LVL54:
 271:lvgl\src\lv_font/lv_font_fmt_txt.c ****             /* Use binary search to find the kern value.
 385              		.loc 1 271 0
 386 0010 E37A     		ldrb	r3, [r4, #11]	@ zero_extendqisi2
 387              	.LVL55:
 388 0012 13F00303 		ands	r3, r3, #3
 389 0016 16D1     		bne	.L30
 390              	.LBB18:
 274:lvgl\src\lv_font/lv_font_fmt_txt.c ****             uint16_t g_id_both = (gid_right << 8) + gid_left; /*Create one number from the ids*/
 391              		.loc 1 274 0
 392 0018 2568     		ldr	r5, [r4]
 393              	.LVL56:
ARM GAS  C:\Users\strap\AppData\Local\Temp\ccKJQbxb.s 			page 19


 275:lvgl\src\lv_font/lv_font_fmt_txt.c ****             uint8_t * kid_p = _lv_utils_bsearch(&g_id_both, g_ids, kdsc->pair_cnt, 2, kern_pair_8_c
 394              		.loc 1 275 0
 395 001a 01EB0221 		add	r1, r1, r2, lsl #8
 396              	.LVL57:
 397 001e 04A8     		add	r0, sp, #16
 398 0020 20F8041D 		strh	r1, [r0, #-4]!	@ movhi
 399              	.LVL58:
 276:lvgl\src\lv_font/lv_font_fmt_txt.c **** 
 400              		.loc 1 276 0
 401 0024 A268     		ldr	r2, [r4, #8]
 402              	.LVL59:
 403 0026 204B     		ldr	r3, .L41
 404 0028 0093     		str	r3, [sp]
 405 002a 0223     		movs	r3, #2
 406 002c 22F07F42 		bic	r2, r2, #-16777216
 407 0030 2946     		mov	r1, r5
 408 0032 FFF7FEFF 		bl	_lv_utils_bsearch
 409              	.LVL60:
 279:lvgl\src\lv_font/lv_font_fmt_txt.c ****                 lv_uintptr_t ofs = (lv_uintptr_t)(kid_p - g_ids);
 410              		.loc 1 279 0
 411 0036 20B1     		cbz	r0, .L34
 412              	.LBB19:
 280:lvgl\src\lv_font/lv_font_fmt_txt.c ****                 ofs = ofs >> 1;     /*ofs is for pair, divide by 2 to refer as a single value*/
 413              		.loc 1 280 0
 414 0038 431B     		subs	r3, r0, r5
 415              	.LVL61:
 281:lvgl\src\lv_font/lv_font_fmt_txt.c ****                 value = kdsc->values[ofs];
 416              		.loc 1 281 0
 417 003a 5B08     		lsrs	r3, r3, #1
 418              	.LVL62:
 282:lvgl\src\lv_font/lv_font_fmt_txt.c ****             }
 419              		.loc 1 282 0
 420 003c 6268     		ldr	r2, [r4, #4]
 421 003e D056     		ldrsb	r0, [r2, r3]
 422              	.LVL63:
 423 0040 2FE0     		b	.L32
 424              	.LVL64:
 425              	.L34:
 426              	.LBE19:
 427              	.LBE18:
 428              	.LBE17:
 266:lvgl\src\lv_font/lv_font_fmt_txt.c **** 
 429              		.loc 1 266 0
 430 0042 0020     		movs	r0, #0
 431              	.LVL65:
 432 0044 2DE0     		b	.L32
 433              	.LVL66:
 434              	.L30:
 435              	.LBB22:
 285:lvgl\src\lv_font/lv_font_fmt_txt.c ****             /* Use binary search to find the kern value.
 436              		.loc 1 285 0
 437 0046 012B     		cmp	r3, #1
 438 0048 25D1     		bne	.L35
 439              	.LBB20:
 288:lvgl\src\lv_font/lv_font_fmt_txt.c ****             lv_uintptr_t g_id_both = (uint32_t)((uint32_t)gid_right << 8) + gid_left; /*Create one 
 440              		.loc 1 288 0
 441 004a 2568     		ldr	r5, [r4]
ARM GAS  C:\Users\strap\AppData\Local\Temp\ccKJQbxb.s 			page 20


 442              	.LVL67:
 289:lvgl\src\lv_font/lv_font_fmt_txt.c ****             uint8_t * kid_p = _lv_utils_bsearch(&g_id_both, g_ids, kdsc->pair_cnt, 4, kern_pair_16_
 443              		.loc 1 289 0
 444 004c 01EB0221 		add	r1, r1, r2, lsl #8
 445              	.LVL68:
 446 0050 04A8     		add	r0, sp, #16
 447 0052 40F8041D 		str	r1, [r0, #-4]!
 448              	.LVL69:
 290:lvgl\src\lv_font/lv_font_fmt_txt.c **** 
 449              		.loc 1 290 0
 450 0056 A268     		ldr	r2, [r4, #8]
 451              	.LVL70:
 452 0058 144B     		ldr	r3, .L41+4
 453 005a 0093     		str	r3, [sp]
 454 005c 0423     		movs	r3, #4
 455 005e 22F07F42 		bic	r2, r2, #-16777216
 456 0062 2946     		mov	r1, r5
 457 0064 FFF7FEFF 		bl	_lv_utils_bsearch
 458              	.LVL71:
 293:lvgl\src\lv_font/lv_font_fmt_txt.c ****                 lv_uintptr_t ofs = (lv_uintptr_t)(kid_p - (const uint8_t *)g_ids);
 459              		.loc 1 293 0
 460 0068 20B1     		cbz	r0, .L36
 461              	.LBB21:
 294:lvgl\src\lv_font/lv_font_fmt_txt.c ****                 ofs = ofs >> 4;     /*ofs is 4 byte pairs, divide by 4 to refer as a single value*/
 462              		.loc 1 294 0
 463 006a 431B     		subs	r3, r0, r5
 464              	.LVL72:
 295:lvgl\src\lv_font/lv_font_fmt_txt.c ****                 value = kdsc->values[ofs];
 465              		.loc 1 295 0
 466 006c 1B09     		lsrs	r3, r3, #4
 467              	.LVL73:
 296:lvgl\src\lv_font/lv_font_fmt_txt.c ****             }
 468              		.loc 1 296 0
 469 006e 6268     		ldr	r2, [r4, #4]
 470 0070 D056     		ldrsb	r0, [r2, r3]
 471              	.LVL74:
 472 0072 16E0     		b	.L32
 473              	.LVL75:
 474              	.L36:
 475              	.LBE21:
 476              	.LBE20:
 477              	.LBE22:
 266:lvgl\src\lv_font/lv_font_fmt_txt.c **** 
 478              		.loc 1 266 0
 479 0074 0020     		movs	r0, #0
 480              	.LVL76:
 481 0076 14E0     		b	.L32
 482              	.LVL77:
 483              	.L29:
 484              		.cfi_def_cfa_offset 0
 485              		.cfi_restore 4
 486              		.cfi_restore 5
 487              		.cfi_restore 14
 488              	.LBB23:
 306:lvgl\src\lv_font/lv_font_fmt_txt.c ****         uint8_t left_class = kdsc->left_class_mapping[gid_left];
 489              		.loc 1 306 0
 490 0078 DB68     		ldr	r3, [r3, #12]
ARM GAS  C:\Users\strap\AppData\Local\Temp\ccKJQbxb.s 			page 21


 491              	.LVL78:
 307:lvgl\src\lv_font/lv_font_fmt_txt.c ****         uint8_t right_class = kdsc->right_class_mapping[gid_right];
 492              		.loc 1 307 0
 493 007a 5868     		ldr	r0, [r3, #4]
 494 007c 415C     		ldrb	r1, [r0, r1]	@ zero_extendqisi2
 495              	.LVL79:
 308:lvgl\src\lv_font/lv_font_fmt_txt.c **** 
 496              		.loc 1 308 0
 497 007e 9868     		ldr	r0, [r3, #8]
 498 0080 825C     		ldrb	r2, [r0, r2]	@ zero_extendqisi2
 499              	.LVL80:
 312:lvgl\src\lv_font/lv_font_fmt_txt.c ****             value = kdsc->class_pair_values[(left_class - 1) * kdsc->right_class_cnt + (right_class
 500              		.loc 1 312 0
 501 0082 51B1     		cbz	r1, .L37
 312:lvgl\src\lv_font/lv_font_fmt_txt.c ****             value = kdsc->class_pair_values[(left_class - 1) * kdsc->right_class_cnt + (right_class
 502              		.loc 1 312 0 is_stmt 0 discriminator 1
 503 0084 5AB1     		cbz	r2, .L38
 313:lvgl\src\lv_font/lv_font_fmt_txt.c ****         }
 504              		.loc 1 313 0 is_stmt 1
 505 0086 1868     		ldr	r0, [r3]
 506 0088 0139     		subs	r1, r1, #1
 507              	.LVL81:
 508 008a 5B7B     		ldrb	r3, [r3, #13]	@ zero_extendqisi2
 509              	.LVL82:
 510 008c 013A     		subs	r2, r2, #1
 511              	.LVL83:
 512 008e 01FB0321 		mla	r1, r1, r3, r2
 513              	.LVL84:
 514 0092 4056     		ldrsb	r0, [r0, r1]
 515              	.LVL85:
 516              	.LBE23:
 318:lvgl\src\lv_font/lv_font_fmt_txt.c **** 
 517              		.loc 1 318 0
 518 0094 7047     		bx	lr
 519              	.LVL86:
 520              	.L35:
 521              		.cfi_def_cfa_offset 32
 522              		.cfi_offset 4, -12
 523              		.cfi_offset 5, -8
 524              		.cfi_offset 14, -4
 266:lvgl\src\lv_font/lv_font_fmt_txt.c **** 
 525              		.loc 1 266 0
 526 0096 0020     		movs	r0, #0
 527 0098 03E0     		b	.L32
 528              	.LVL87:
 529              	.L37:
 530              		.cfi_def_cfa_offset 0
 531              		.cfi_restore 4
 532              		.cfi_restore 5
 533              		.cfi_restore 14
 534 009a 0020     		movs	r0, #0
 535 009c 7047     		bx	lr
 536              	.L38:
 537 009e 0020     		movs	r0, #0
 538 00a0 7047     		bx	lr
 539              	.LVL88:
 540              	.L32:
ARM GAS  C:\Users\strap\AppData\Local\Temp\ccKJQbxb.s 			page 22


 541              		.cfi_def_cfa_offset 32
 542              		.cfi_offset 4, -12
 543              		.cfi_offset 5, -8
 544              		.cfi_offset 14, -4
 318:lvgl\src\lv_font/lv_font_fmt_txt.c **** 
 545              		.loc 1 318 0
 546 00a2 05B0     		add	sp, sp, #20
 547              		.cfi_def_cfa_offset 12
 548              		@ sp needed
 549 00a4 30BD     		pop	{r4, r5, pc}
 550              	.LVL89:
 551              	.L42:
 552 00a6 00BF     		.align	2
 553              	.L41:
 554 00a8 00000000 		.word	kern_pair_8_compare
 555 00ac 00000000 		.word	kern_pair_16_compare
 556              		.cfi_endproc
 557              	.LFE41:
 558              		.size	get_kern_value, .-get_kern_value
 559              		.section	.text.decompress,"ax",%progbits
 560              		.align	2
 561              		.thumb
 562              		.thumb_func
 563              		.type	decompress, %function
 564              	decompress:
 565              	.LFB44:
 350:lvgl\src\lv_font/lv_font_fmt_txt.c ****     uint32_t wrp = 0;
 566              		.loc 1 350 0
 567              		.cfi_startproc
 568              		@ args = 8, pretend = 0, frame = 24
 569              		@ frame_needed = 0, uses_anonymous_args = 0
 570              	.LVL90:
 571 0000 2DE9F04F 		push	{r4, r5, r6, r7, r8, r9, r10, fp, lr}
 572              		.cfi_def_cfa_offset 36
 573              		.cfi_offset 4, -36
 574              		.cfi_offset 5, -32
 575              		.cfi_offset 6, -28
 576              		.cfi_offset 7, -24
 577              		.cfi_offset 8, -20
 578              		.cfi_offset 9, -16
 579              		.cfi_offset 10, -12
 580              		.cfi_offset 11, -8
 581              		.cfi_offset 14, -4
 582 0004 87B0     		sub	sp, sp, #28
 583              		.cfi_def_cfa_offset 64
 584 0006 0E46     		mov	r6, r1
 585 0008 1446     		mov	r4, r2
 586 000a 0193     		str	r3, [sp, #4]
 587 000c 9DF84070 		ldrb	r7, [sp, #64]	@ zero_extendqisi2
 588 0010 9DF84430 		ldrb	r3, [sp, #68]	@ zero_extendqisi2
 589              	.LVL91:
 590 0014 0493     		str	r3, [sp, #16]
 591              	.LVL92:
 353:lvgl\src\lv_font/lv_font_fmt_txt.c **** 
 592              		.loc 1 353 0
 593 0016 032F     		cmp	r7, #3
 594 0018 01D0     		beq	.L226
ARM GAS  C:\Users\strap\AppData\Local\Temp\ccKJQbxb.s 			page 23


 352:lvgl\src\lv_font/lv_font_fmt_txt.c ****     if(bpp == 3) wr_size = 4;
 595              		.loc 1 352 0
 596 001a 0297     		str	r7, [sp, #8]
 597 001c 01E0     		b	.L44
 598              	.L226:
 353:lvgl\src\lv_font/lv_font_fmt_txt.c **** 
 599              		.loc 1 353 0
 600 001e 0423     		movs	r3, #4
 601 0020 0293     		str	r3, [sp, #8]
 602              	.L44:
 603              	.LVL93:
 604              	.LBB98:
 605              	.LBB99:
 505:lvgl\src\lv_font/lv_font_fmt_txt.c ****     rle_bpp = bpp;
 606              		.loc 1 505 0
 607 0022 B44B     		ldr	r3, .L251
 608 0024 1860     		str	r0, [r3]
 506:lvgl\src\lv_font/lv_font_fmt_txt.c ****     rle_state = RLE_STATE_SINGLE;
 609              		.loc 1 506 0
 610 0026 1F71     		strb	r7, [r3, #4]
 507:lvgl\src\lv_font/lv_font_fmt_txt.c ****     rle_rdp = 0;
 611              		.loc 1 507 0
 612 0028 0022     		movs	r2, #0
 613              	.LVL94:
 614 002a 5A71     		strb	r2, [r3, #5]
 508:lvgl\src\lv_font/lv_font_fmt_txt.c ****     rle_prev_v = 0;
 615              		.loc 1 508 0
 616 002c 9A60     		str	r2, [r3, #8]
 509:lvgl\src\lv_font/lv_font_fmt_txt.c ****     rle_cnt = 0;
 617              		.loc 1 509 0
 618 002e 1A73     		strb	r2, [r3, #12]
 510:lvgl\src\lv_font/lv_font_fmt_txt.c **** }
 619              		.loc 1 510 0
 620 0030 5A73     		strb	r2, [r3, #13]
 621              	.LVL95:
 622              	.LBE99:
 623              	.LBE98:
 357:lvgl\src\lv_font/lv_font_fmt_txt.c **** 
 624              		.loc 1 357 0
 625 0032 2046     		mov	r0, r4
 626              	.LVL96:
 627 0034 FFF7FEFF 		bl	_lv_mem_buf_get
 628              	.LVL97:
 629 0038 0546     		mov	r5, r0
 630              	.LVL98:
 361:lvgl\src\lv_font/lv_font_fmt_txt.c ****         line_buf2 = _lv_mem_buf_get(w);
 631              		.loc 1 361 0
 632 003a 049B     		ldr	r3, [sp, #16]
 633 003c 23B1     		cbz	r3, .L227
 362:lvgl\src\lv_font/lv_font_fmt_txt.c ****     }
 634              		.loc 1 362 0
 635 003e 2046     		mov	r0, r4
 636              	.LVL99:
 637 0040 FFF7FEFF 		bl	_lv_mem_buf_get
 638              	.LVL100:
 639 0044 0390     		str	r0, [sp, #12]
 640              	.LVL101:
ARM GAS  C:\Users\strap\AppData\Local\Temp\ccKJQbxb.s 			page 24


 641 0046 01E0     		b	.L45
 642              	.LVL102:
 643              	.L227:
 359:lvgl\src\lv_font/lv_font_fmt_txt.c **** 
 644              		.loc 1 359 0
 645 0048 0023     		movs	r3, #0
 646 004a 0393     		str	r3, [sp, #12]
 647              	.LVL103:
 648              	.L45:
 649              	.LBB100:
 650              	.LBB101:
 407:lvgl\src\lv_font/lv_font_fmt_txt.c ****         out[i] = rle_next();
 651              		.loc 1 407 0
 652 004c 0020     		movs	r0, #0
 653 004e ABE1     		b	.L46
 654              	.LVL104:
 655              	.L93:
 408:lvgl\src\lv_font/lv_font_fmt_txt.c ****     }
 656              		.loc 1 408 0
 657 0050 05EB000C 		add	ip, r5, r0
 658              	.LVL105:
 659              	.LBB102:
 660              	.LBB103:
 518:lvgl\src\lv_font/lv_font_fmt_txt.c ****         ret = get_bits(rle_in, rle_rdp, rle_bpp);
 661              		.loc 1 518 0
 662 0054 A74B     		ldr	r3, .L251
 663 0056 5B79     		ldrb	r3, [r3, #5]	@ zero_extendqisi2
 664 0058 002B     		cmp	r3, #0
 665 005a 5AD1     		bne	.L47
 519:lvgl\src\lv_font/lv_font_fmt_txt.c ****         if(rle_rdp != 0 && rle_prev_v == ret) {
 666              		.loc 1 519 0
 667 005c A54B     		ldr	r3, .L251
 668 005e D3F800B0 		ldr	fp, [r3]
 669 0062 9A68     		ldr	r2, [r3, #8]
 670 0064 93F804E0 		ldrb	lr, [r3, #4]	@ zero_extendqisi2
 671              	.LVL106:
 672              	.LBB104:
 673              	.LBB105:
 422:lvgl\src\lv_font/lv_font_fmt_txt.c ****         case 1:
 674              		.loc 1 422 0
 675 0068 0EF1FF33 		add	r3, lr, #-1
 676 006c 072B     		cmp	r3, #7
 677 006e 11D8     		bhi	.L48
 678 0070 DFE803F0 		tbb	[pc, r3]
 679              	.L50:
 680 0074 04       		.byte	(.L49-.L50)/2
 681 0075 17       		.byte	(.L228-.L50)/2
 682 0076 07       		.byte	(.L52-.L50)/2
 683 0077 0A       		.byte	(.L53-.L50)/2
 684 0078 10       		.byte	(.L48-.L50)/2
 685 0079 10       		.byte	(.L48-.L50)/2
 686 007a 10       		.byte	(.L48-.L50)/2
 687 007b 0D       		.byte	(.L54-.L50)/2
 688              		.p2align 1
 689              	.L49:
 424:lvgl\src\lv_font/lv_font_fmt_txt.c ****             break;
 690              		.loc 1 424 0
ARM GAS  C:\Users\strap\AppData\Local\Temp\ccKJQbxb.s 			page 25


 691 007c 4FF00109 		mov	r9, #1
 692 0080 11E0     		b	.L51
 693              	.L52:
 694              	.LVL107:
 430:lvgl\src\lv_font/lv_font_fmt_txt.c ****             break;
 695              		.loc 1 430 0
 696 0082 4FF00709 		mov	r9, #7
 697 0086 0EE0     		b	.L51
 698              	.LVL108:
 699              	.L53:
 433:lvgl\src\lv_font/lv_font_fmt_txt.c ****             break;
 700              		.loc 1 433 0
 701 0088 4FF00F09 		mov	r9, #15
 702 008c 0BE0     		b	.L51
 703              	.LVL109:
 704              	.L54:
 436:lvgl\src\lv_font/lv_font_fmt_txt.c ****             break;
 705              		.loc 1 436 0
 706 008e 4FF0FF09 		mov	r9, #255
 707 0092 08E0     		b	.L51
 708              	.LVL110:
 709              	.L48:
 439:lvgl\src\lv_font/lv_font_fmt_txt.c ****     }
 710              		.loc 1 439 0
 711 0094 0123     		movs	r3, #1
 712 0096 03FA0EF3 		lsl	r3, r3, lr
 713 009a 013B     		subs	r3, r3, #1
 714 009c 5FFA83F9 		uxtb	r9, r3
 715              	.LVL111:
 716 00a0 01E0     		b	.L51
 717              	.LVL112:
 718              	.L228:
 427:lvgl\src\lv_font/lv_font_fmt_txt.c ****             break;
 719              		.loc 1 427 0
 720 00a2 4FF00309 		mov	r9, #3
 721              	.L51:
 722              	.LVL113:
 442:lvgl\src\lv_font/lv_font_fmt_txt.c ****     bit_pos = bit_pos & 0x7;
 723              		.loc 1 442 0
 724 00a6 4FEAD208 		lsr	r8, r2, #3
 725              	.LVL114:
 443:lvgl\src\lv_font/lv_font_fmt_txt.c **** 
 726              		.loc 1 443 0
 727 00aa 02F00701 		and	r1, r2, #7
 728              	.LVL115:
 445:lvgl\src\lv_font/lv_font_fmt_txt.c ****         uint16_t in16 = (in[byte_pos] << 8) + in[byte_pos + 1];
 729              		.loc 1 445 0
 730 00ae 01EB0E03 		add	r3, r1, lr
 731 00b2 072B     		cmp	r3, #7
 732 00b4 11D9     		bls	.L55
 733              	.LBB106:
 446:lvgl\src\lv_font/lv_font_fmt_txt.c ****         return (in16 >> (16 - bit_pos - len)) & bit_mask;
 734              		.loc 1 446 0
 735 00b6 1BF808A0 		ldrb	r10, [fp, r8]	@ zero_extendqisi2
 736 00ba D844     		add	r8, r8, fp
 737              	.LVL116:
 738 00bc 98F80130 		ldrb	r3, [r8, #1]	@ zero_extendqisi2
ARM GAS  C:\Users\strap\AppData\Local\Temp\ccKJQbxb.s 			page 26


 739 00c0 03EB0A23 		add	r3, r3, r10, lsl #8
 740 00c4 1FFA83F8 		uxth	r8, r3
 741              	.LVL117:
 447:lvgl\src\lv_font/lv_font_fmt_txt.c ****     }
 742              		.loc 1 447 0
 743 00c8 4942     		negs	r1, r1
 744              	.LVL118:
 745 00ca CEEB0103 		rsb	r3, lr, r1
 746 00ce 1033     		adds	r3, r3, #16
 747 00d0 48FA03F3 		asr	r3, r8, r3
 748 00d4 03EA0903 		and	r3, r3, r9
 749 00d8 08E0     		b	.L56
 750              	.LVL119:
 751              	.L55:
 752              	.LBE106:
 450:lvgl\src\lv_font/lv_font_fmt_txt.c ****     }
 753              		.loc 1 450 0
 754 00da 1BF80830 		ldrb	r3, [fp, r8]	@ zero_extendqisi2
 755 00de 4942     		negs	r1, r1
 756              	.LVL120:
 757 00e0 CEEB0101 		rsb	r1, lr, r1
 758              	.LVL121:
 759 00e4 0831     		adds	r1, r1, #8
 760 00e6 0B41     		asrs	r3, r3, r1
 761 00e8 03EA0903 		and	r3, r3, r9
 762              	.LVL122:
 763              	.L56:
 764              	.LBE105:
 765              	.LBE104:
 520:lvgl\src\lv_font/lv_font_fmt_txt.c ****             rle_cnt = 0;
 766              		.loc 1 520 0
 767 00ec 62B1     		cbz	r2, .L57
 768 00ee 8149     		ldr	r1, .L251
 769 00f0 097B     		ldrb	r1, [r1, #12]	@ zero_extendqisi2
 770 00f2 9942     		cmp	r1, r3
 771 00f4 08D1     		bne	.L57
 521:lvgl\src\lv_font/lv_font_fmt_txt.c ****             rle_state = RLE_STATE_REPEATE;
 772              		.loc 1 521 0
 773 00f6 7F49     		ldr	r1, .L251
 774 00f8 4FF00008 		mov	r8, #0
 775 00fc 81F80D80 		strb	r8, [r1, #13]
 522:lvgl\src\lv_font/lv_font_fmt_txt.c ****         }
 776              		.loc 1 522 0
 777 0100 4FF00108 		mov	r8, #1
 778 0104 81F80580 		strb	r8, [r1, #5]
 779              	.L57:
 525:lvgl\src\lv_font/lv_font_fmt_txt.c ****         rle_rdp += rle_bpp;
 780              		.loc 1 525 0
 781 0108 7A49     		ldr	r1, .L251
 782 010a 0B73     		strb	r3, [r1, #12]
 526:lvgl\src\lv_font/lv_font_fmt_txt.c ****     }
 783              		.loc 1 526 0
 784 010c 7244     		add	r2, r2, lr
 785 010e 8A60     		str	r2, [r1, #8]
 786 0110 46E1     		b	.L58
 787              	.LVL123:
 788              	.L47:
ARM GAS  C:\Users\strap\AppData\Local\Temp\ccKJQbxb.s 			page 27


 528:lvgl\src\lv_font/lv_font_fmt_txt.c ****         v = get_bits(rle_in, rle_rdp, 1);
 789              		.loc 1 528 0
 790 0112 012B     		cmp	r3, #1
 791 0114 40F0F080 		bne	.L59
 529:lvgl\src\lv_font/lv_font_fmt_txt.c ****         rle_cnt++;
 792              		.loc 1 529 0
 793 0118 764B     		ldr	r3, .L251
 794 011a 1968     		ldr	r1, [r3]
 795 011c 9B68     		ldr	r3, [r3, #8]
 796              	.LVL124:
 797              	.LBB107:
 798              	.LBB108:
 442:lvgl\src\lv_font/lv_font_fmt_txt.c ****     bit_pos = bit_pos & 0x7;
 799              		.loc 1 442 0
 800 011e 4FEAD308 		lsr	r8, r3, #3
 801              	.LVL125:
 443:lvgl\src\lv_font/lv_font_fmt_txt.c **** 
 802              		.loc 1 443 0
 803 0122 03F0070E 		and	lr, r3, #7
 804              	.LVL126:
 445:lvgl\src\lv_font/lv_font_fmt_txt.c ****         uint16_t in16 = (in[byte_pos] << 8) + in[byte_pos + 1];
 805              		.loc 1 445 0
 806 0126 0EF10102 		add	r2, lr, #1
 807 012a 072A     		cmp	r2, #7
 808 012c 0ED9     		bls	.L60
 809              	.LBB109:
 446:lvgl\src\lv_font/lv_font_fmt_txt.c ****         return (in16 >> (16 - bit_pos - len)) & bit_mask;
 810              		.loc 1 446 0
 811 012e 11F80890 		ldrb	r9, [r1, r8]	@ zero_extendqisi2
 812 0132 8844     		add	r8, r8, r1
 813              	.LVL127:
 814 0134 98F80120 		ldrb	r2, [r8, #1]	@ zero_extendqisi2
 815 0138 02EB0922 		add	r2, r2, r9, lsl #8
 816 013c 92B2     		uxth	r2, r2
 817              	.LVL128:
 447:lvgl\src\lv_font/lv_font_fmt_txt.c ****     }
 818              		.loc 1 447 0
 819 013e CEF10F0E 		rsb	lr, lr, #15
 820              	.LVL129:
 821 0142 42FA0EF2 		asr	r2, r2, lr
 822              	.LVL130:
 823 0146 02F00102 		and	r2, r2, #1
 824 014a 07E0     		b	.L61
 825              	.LVL131:
 826              	.L60:
 827              	.LBE109:
 450:lvgl\src\lv_font/lv_font_fmt_txt.c ****     }
 828              		.loc 1 450 0
 829 014c 11F80820 		ldrb	r2, [r1, r8]	@ zero_extendqisi2
 830 0150 CEF1070E 		rsb	lr, lr, #7
 831              	.LVL132:
 832 0154 42FA0EF2 		asr	r2, r2, lr
 833 0158 02F00102 		and	r2, r2, #1
 834              	.LVL133:
 835              	.L61:
 836              	.LBE108:
 837              	.LBE107:
ARM GAS  C:\Users\strap\AppData\Local\Temp\ccKJQbxb.s 			page 28


 530:lvgl\src\lv_font/lv_font_fmt_txt.c ****         rle_rdp += 1;
 838              		.loc 1 530 0
 839 015c DFF89491 		ldr	r9, .L251
 840 0160 99F80DE0 		ldrb	lr, [r9, #13]	@ zero_extendqisi2
 841 0164 0EF1010E 		add	lr, lr, #1
 842 0168 5FFA8EFE 		uxtb	lr, lr
 843 016c 89F80DE0 		strb	lr, [r9, #13]
 531:lvgl\src\lv_font/lv_font_fmt_txt.c ****         if(v == 1) {
 844              		.loc 1 531 0
 845 0170 03F10108 		add	r8, r3, #1
 846 0174 C9F80880 		str	r8, [r9, #8]
 532:lvgl\src\lv_font/lv_font_fmt_txt.c ****             ret = rle_prev_v;
 847              		.loc 1 532 0
 848 0178 002A     		cmp	r2, #0
 849 017a 76D0     		beq	.L62
 533:lvgl\src\lv_font/lv_font_fmt_txt.c ****             if(rle_cnt == 11) {
 850              		.loc 1 533 0
 851 017c 99F80C30 		ldrb	r3, [r9, #12]	@ zero_extendqisi2
 852              	.LVL134:
 534:lvgl\src\lv_font/lv_font_fmt_txt.c ****                 rle_cnt = get_bits(rle_in, rle_rdp, 6);
 853              		.loc 1 534 0
 854 0180 BEF10B0F 		cmp	lr, #11
 855 0184 40F00C81 		bne	.L58
 856              	.LVL135:
 857              	.LBB110:
 858              	.LBB111:
 442:lvgl\src\lv_font/lv_font_fmt_txt.c ****     bit_pos = bit_pos & 0x7;
 859              		.loc 1 442 0
 860 0188 4FEAD809 		lsr	r9, r8, #3
 861              	.LVL136:
 443:lvgl\src\lv_font/lv_font_fmt_txt.c **** 
 862              		.loc 1 443 0
 863 018c 08F0070E 		and	lr, r8, #7
 864              	.LVL137:
 445:lvgl\src\lv_font/lv_font_fmt_txt.c ****         uint16_t in16 = (in[byte_pos] << 8) + in[byte_pos + 1];
 865              		.loc 1 445 0
 866 0190 0EF10602 		add	r2, lr, #6
 867 0194 072A     		cmp	r2, #7
 868 0196 0ED9     		bls	.L63
 869              	.LBB112:
 446:lvgl\src\lv_font/lv_font_fmt_txt.c ****         return (in16 >> (16 - bit_pos - len)) & bit_mask;
 870              		.loc 1 446 0
 871 0198 11F809A0 		ldrb	r10, [r1, r9]	@ zero_extendqisi2
 872 019c 8944     		add	r9, r9, r1
 873              	.LVL138:
 874 019e 99F80120 		ldrb	r2, [r9, #1]	@ zero_extendqisi2
 875 01a2 02EB0A22 		add	r2, r2, r10, lsl #8
 876 01a6 92B2     		uxth	r2, r2
 877              	.LVL139:
 447:lvgl\src\lv_font/lv_font_fmt_txt.c ****     }
 878              		.loc 1 447 0
 879 01a8 CEF10A0E 		rsb	lr, lr, #10
 880              	.LVL140:
 881 01ac 42FA0EF2 		asr	r2, r2, lr
 882              	.LVL141:
 883 01b0 02F03F02 		and	r2, r2, #63
 884 01b4 07E0     		b	.L64
ARM GAS  C:\Users\strap\AppData\Local\Temp\ccKJQbxb.s 			page 29


 885              	.LVL142:
 886              	.L63:
 887              	.LBE112:
 450:lvgl\src\lv_font/lv_font_fmt_txt.c ****     }
 888              		.loc 1 450 0
 889 01b6 11F80920 		ldrb	r2, [r1, r9]	@ zero_extendqisi2
 890 01ba CEF1020E 		rsb	lr, lr, #2
 891              	.LVL143:
 892 01be 42FA0EF2 		asr	r2, r2, lr
 893 01c2 02F03F02 		and	r2, r2, #63
 894              	.LVL144:
 895              	.L64:
 896              	.LBE111:
 897              	.LBE110:
 535:lvgl\src\lv_font/lv_font_fmt_txt.c ****                 rle_rdp += 6;
 898              		.loc 1 535 0
 899 01c6 DFF82CE1 		ldr	lr, .L251
 900 01ca 8EF80D20 		strb	r2, [lr, #13]
 536:lvgl\src\lv_font/lv_font_fmt_txt.c ****                 if(rle_cnt != 0) {
 901              		.loc 1 536 0
 902 01ce 08F10608 		add	r8, r8, #6
 903 01d2 CEF80880 		str	r8, [lr, #8]
 537:lvgl\src\lv_font/lv_font_fmt_txt.c ****                     rle_state = RLE_STATE_COUNTER;
 904              		.loc 1 537 0
 905 01d6 1AB1     		cbz	r2, .L65
 538:lvgl\src\lv_font/lv_font_fmt_txt.c ****                 }
 906              		.loc 1 538 0
 907 01d8 0221     		movs	r1, #2
 908 01da 8EF80510 		strb	r1, [lr, #5]
 909 01de DFE0     		b	.L58
 910              	.L65:
 541:lvgl\src\lv_font/lv_font_fmt_txt.c ****                     rle_prev_v = ret;
 911              		.loc 1 541 0
 912 01e0 444B     		ldr	r3, .L251
 913              	.LVL145:
 914 01e2 93F804E0 		ldrb	lr, [r3, #4]	@ zero_extendqisi2
 915              	.LVL146:
 916              	.LBB113:
 917              	.LBB114:
 422:lvgl\src\lv_font/lv_font_fmt_txt.c ****         case 1:
 918              		.loc 1 422 0
 919 01e6 0EF1FF33 		add	r3, lr, #-1
 920 01ea 072B     		cmp	r3, #7
 921 01ec 0DD8     		bhi	.L66
 922 01ee DFE803F0 		tbb	[pc, r3]
 923              	.L68:
 924 01f2 04       		.byte	(.L67-.L68)/2
 925 01f3 12       		.byte	(.L229-.L68)/2
 926 01f4 06       		.byte	(.L70-.L68)/2
 927 01f5 08       		.byte	(.L71-.L68)/2
 928 01f6 0C       		.byte	(.L66-.L68)/2
 929 01f7 0C       		.byte	(.L66-.L68)/2
 930 01f8 0C       		.byte	(.L66-.L68)/2
 931 01f9 0A       		.byte	(.L72-.L68)/2
 932              		.p2align 1
 933              	.L67:
 424:lvgl\src\lv_font/lv_font_fmt_txt.c ****             break;
ARM GAS  C:\Users\strap\AppData\Local\Temp\ccKJQbxb.s 			page 30


 934              		.loc 1 424 0
 935 01fa 0123     		movs	r3, #1
 936 01fc 0CE0     		b	.L69
 937              	.L70:
 938              	.LVL147:
 430:lvgl\src\lv_font/lv_font_fmt_txt.c ****             break;
 939              		.loc 1 430 0
 940 01fe 0723     		movs	r3, #7
 941 0200 0AE0     		b	.L69
 942              	.LVL148:
 943              	.L71:
 433:lvgl\src\lv_font/lv_font_fmt_txt.c ****             break;
 944              		.loc 1 433 0
 945 0202 0F23     		movs	r3, #15
 946 0204 08E0     		b	.L69
 947              	.LVL149:
 948              	.L72:
 436:lvgl\src\lv_font/lv_font_fmt_txt.c ****             break;
 949              		.loc 1 436 0
 950 0206 FF23     		movs	r3, #255
 951 0208 06E0     		b	.L69
 952              	.LVL150:
 953              	.L66:
 439:lvgl\src\lv_font/lv_font_fmt_txt.c ****     }
 954              		.loc 1 439 0
 955 020a 0123     		movs	r3, #1
 956 020c 03FA0EF3 		lsl	r3, r3, lr
 957 0210 013B     		subs	r3, r3, #1
 958 0212 DBB2     		uxtb	r3, r3
 959              	.LVL151:
 960 0214 00E0     		b	.L69
 961              	.LVL152:
 962              	.L229:
 427:lvgl\src\lv_font/lv_font_fmt_txt.c ****             break;
 963              		.loc 1 427 0
 964 0216 0323     		movs	r3, #3
 965              	.L69:
 966              	.LVL153:
 442:lvgl\src\lv_font/lv_font_fmt_txt.c ****     bit_pos = bit_pos & 0x7;
 967              		.loc 1 442 0
 968 0218 4FEAD809 		lsr	r9, r8, #3
 969              	.LVL154:
 443:lvgl\src\lv_font/lv_font_fmt_txt.c **** 
 970              		.loc 1 443 0
 971 021c 08F00702 		and	r2, r8, #7
 972              	.LVL155:
 445:lvgl\src\lv_font/lv_font_fmt_txt.c ****         uint16_t in16 = (in[byte_pos] << 8) + in[byte_pos + 1];
 973              		.loc 1 445 0
 974 0220 02EB0E0A 		add	r10, r2, lr
 975 0224 BAF1070F 		cmp	r10, #7
 976 0228 0ED9     		bls	.L73
 977              	.LBB115:
 446:lvgl\src\lv_font/lv_font_fmt_txt.c ****         return (in16 >> (16 - bit_pos - len)) & bit_mask;
 978              		.loc 1 446 0
 979 022a 11F809A0 		ldrb	r10, [r1, r9]	@ zero_extendqisi2
 980 022e 4944     		add	r1, r1, r9
 981              	.LVL156:
ARM GAS  C:\Users\strap\AppData\Local\Temp\ccKJQbxb.s 			page 31


 982 0230 4978     		ldrb	r1, [r1, #1]	@ zero_extendqisi2
 983 0232 01EB0A21 		add	r1, r1, r10, lsl #8
 984 0236 89B2     		uxth	r1, r1
 985              	.LVL157:
 447:lvgl\src\lv_font/lv_font_fmt_txt.c ****     }
 986              		.loc 1 447 0
 987 0238 5242     		negs	r2, r2
 988              	.LVL158:
 989 023a CEEB0202 		rsb	r2, lr, r2
 990              	.LVL159:
 991 023e 1032     		adds	r2, r2, #16
 992 0240 41FA02F2 		asr	r2, r1, r2
 993 0244 1340     		ands	r3, r3, r2
 994              	.LVL160:
 995 0246 08E0     		b	.L74
 996              	.LVL161:
 997              	.L73:
 998              	.LBE115:
 450:lvgl\src\lv_font/lv_font_fmt_txt.c ****     }
 999              		.loc 1 450 0
 1000 0248 11F80990 		ldrb	r9, [r1, r9]	@ zero_extendqisi2
 1001              	.LVL162:
 1002 024c 5142     		negs	r1, r2
 1003              	.LVL163:
 1004 024e CEEB0101 		rsb	r1, lr, r1
 1005 0252 0831     		adds	r1, r1, #8
 1006 0254 49FA01F1 		asr	r1, r9, r1
 1007 0258 0B40     		ands	r3, r3, r1
 1008              	.LVL164:
 1009              	.L74:
 1010              	.LBE114:
 1011              	.LBE113:
 542:lvgl\src\lv_font/lv_font_fmt_txt.c ****                     rle_rdp += rle_bpp;
 1012              		.loc 1 542 0
 1013 025a 2649     		ldr	r1, .L251
 1014 025c 0B73     		strb	r3, [r1, #12]
 543:lvgl\src\lv_font/lv_font_fmt_txt.c ****                     rle_state = RLE_STATE_SINGLE;
 1015              		.loc 1 543 0
 1016 025e 0EEB0802 		add	r2, lr, r8
 1017 0262 8A60     		str	r2, [r1, #8]
 544:lvgl\src\lv_font/lv_font_fmt_txt.c ****                 }
 1018              		.loc 1 544 0
 1019 0264 0022     		movs	r2, #0
 1020 0266 4A71     		strb	r2, [r1, #5]
 1021 0268 9AE0     		b	.L58
 1022              	.LVL165:
 1023              	.L62:
 549:lvgl\src\lv_font/lv_font_fmt_txt.c ****             rle_prev_v = ret;
 1024              		.loc 1 549 0
 1025 026a 224B     		ldr	r3, .L251
 1026 026c 93F804E0 		ldrb	lr, [r3, #4]	@ zero_extendqisi2
 1027              	.LVL166:
 1028              	.LBB116:
 1029              	.LBB117:
 422:lvgl\src\lv_font/lv_font_fmt_txt.c ****         case 1:
 1030              		.loc 1 422 0
 1031 0270 0EF1FF33 		add	r3, lr, #-1
ARM GAS  C:\Users\strap\AppData\Local\Temp\ccKJQbxb.s 			page 32


 1032 0274 072B     		cmp	r3, #7
 1033 0276 0DD8     		bhi	.L75
 1034 0278 DFE803F0 		tbb	[pc, r3]
 1035              	.L77:
 1036 027c 04       		.byte	(.L76-.L77)/2
 1037 027d 12       		.byte	(.L230-.L77)/2
 1038 027e 06       		.byte	(.L79-.L77)/2
 1039 027f 08       		.byte	(.L80-.L77)/2
 1040 0280 0C       		.byte	(.L75-.L77)/2
 1041 0281 0C       		.byte	(.L75-.L77)/2
 1042 0282 0C       		.byte	(.L75-.L77)/2
 1043 0283 0A       		.byte	(.L81-.L77)/2
 1044              		.p2align 1
 1045              	.L76:
 424:lvgl\src\lv_font/lv_font_fmt_txt.c ****             break;
 1046              		.loc 1 424 0
 1047 0284 0123     		movs	r3, #1
 1048 0286 0CE0     		b	.L78
 1049              	.L79:
 1050              	.LVL167:
 430:lvgl\src\lv_font/lv_font_fmt_txt.c ****             break;
 1051              		.loc 1 430 0
 1052 0288 0723     		movs	r3, #7
 1053 028a 0AE0     		b	.L78
 1054              	.LVL168:
 1055              	.L80:
 433:lvgl\src\lv_font/lv_font_fmt_txt.c ****             break;
 1056              		.loc 1 433 0
 1057 028c 0F23     		movs	r3, #15
 1058 028e 08E0     		b	.L78
 1059              	.LVL169:
 1060              	.L81:
 436:lvgl\src\lv_font/lv_font_fmt_txt.c ****             break;
 1061              		.loc 1 436 0
 1062 0290 FF23     		movs	r3, #255
 1063 0292 06E0     		b	.L78
 1064              	.LVL170:
 1065              	.L75:
 439:lvgl\src\lv_font/lv_font_fmt_txt.c ****     }
 1066              		.loc 1 439 0
 1067 0294 0123     		movs	r3, #1
 1068 0296 03FA0EF3 		lsl	r3, r3, lr
 1069 029a 013B     		subs	r3, r3, #1
 1070 029c DBB2     		uxtb	r3, r3
 1071              	.LVL171:
 1072 029e 00E0     		b	.L78
 1073              	.LVL172:
 1074              	.L230:
 427:lvgl\src\lv_font/lv_font_fmt_txt.c ****             break;
 1075              		.loc 1 427 0
 1076 02a0 0323     		movs	r3, #3
 1077              	.L78:
 1078              	.LVL173:
 442:lvgl\src\lv_font/lv_font_fmt_txt.c ****     bit_pos = bit_pos & 0x7;
 1079              		.loc 1 442 0
 1080 02a2 4FEAD809 		lsr	r9, r8, #3
 1081              	.LVL174:
ARM GAS  C:\Users\strap\AppData\Local\Temp\ccKJQbxb.s 			page 33


 443:lvgl\src\lv_font/lv_font_fmt_txt.c **** 
 1082              		.loc 1 443 0
 1083 02a6 08F00702 		and	r2, r8, #7
 1084              	.LVL175:
 445:lvgl\src\lv_font/lv_font_fmt_txt.c ****         uint16_t in16 = (in[byte_pos] << 8) + in[byte_pos + 1];
 1085              		.loc 1 445 0
 1086 02aa 02EB0E0A 		add	r10, r2, lr
 1087 02ae BAF1070F 		cmp	r10, #7
 1088 02b2 0ED9     		bls	.L82
 1089              	.LBB118:
 446:lvgl\src\lv_font/lv_font_fmt_txt.c ****         return (in16 >> (16 - bit_pos - len)) & bit_mask;
 1090              		.loc 1 446 0
 1091 02b4 11F809A0 		ldrb	r10, [r1, r9]	@ zero_extendqisi2
 1092 02b8 4944     		add	r1, r1, r9
 1093              	.LVL176:
 1094 02ba 4978     		ldrb	r1, [r1, #1]	@ zero_extendqisi2
 1095 02bc 01EB0A21 		add	r1, r1, r10, lsl #8
 1096 02c0 89B2     		uxth	r1, r1
 1097              	.LVL177:
 447:lvgl\src\lv_font/lv_font_fmt_txt.c ****     }
 1098              		.loc 1 447 0
 1099 02c2 5242     		negs	r2, r2
 1100              	.LVL178:
 1101 02c4 CEEB0202 		rsb	r2, lr, r2
 1102              	.LVL179:
 1103 02c8 1032     		adds	r2, r2, #16
 1104 02ca 41FA02F2 		asr	r2, r1, r2
 1105 02ce 1340     		ands	r3, r3, r2
 1106              	.LVL180:
 1107 02d0 08E0     		b	.L83
 1108              	.LVL181:
 1109              	.L82:
 1110              	.LBE118:
 450:lvgl\src\lv_font/lv_font_fmt_txt.c ****     }
 1111              		.loc 1 450 0
 1112 02d2 11F80990 		ldrb	r9, [r1, r9]	@ zero_extendqisi2
 1113              	.LVL182:
 1114 02d6 5142     		negs	r1, r2
 1115              	.LVL183:
 1116 02d8 CEEB0101 		rsb	r1, lr, r1
 1117 02dc 0831     		adds	r1, r1, #8
 1118 02de 49FA01F1 		asr	r1, r9, r1
 1119 02e2 0B40     		ands	r3, r3, r1
 1120              	.LVL184:
 1121              	.L83:
 1122              	.LBE117:
 1123              	.LBE116:
 550:lvgl\src\lv_font/lv_font_fmt_txt.c ****             rle_rdp += rle_bpp;
 1124              		.loc 1 550 0
 1125 02e4 0349     		ldr	r1, .L251
 1126 02e6 0B73     		strb	r3, [r1, #12]
 551:lvgl\src\lv_font/lv_font_fmt_txt.c ****             rle_state = RLE_STATE_SINGLE;
 1127              		.loc 1 551 0
 1128 02e8 0EEB0802 		add	r2, lr, r8
 1129 02ec 8A60     		str	r2, [r1, #8]
 552:lvgl\src\lv_font/lv_font_fmt_txt.c ****         }
 1130              		.loc 1 552 0
ARM GAS  C:\Users\strap\AppData\Local\Temp\ccKJQbxb.s 			page 34


 1131 02ee 0022     		movs	r2, #0
 1132 02f0 4A71     		strb	r2, [r1, #5]
 1133 02f2 55E0     		b	.L58
 1134              	.L252:
 1135              		.align	2
 1136              	.L251:
 1137 02f4 00000000 		.word	.LANCHOR0
 1138              	.LVL185:
 1139              	.L59:
 557:lvgl\src\lv_font/lv_font_fmt_txt.c ****         ret = rle_prev_v;
 1140              		.loc 1 557 0
 1141 02f8 022B     		cmp	r3, #2
 1142 02fa 50D1     		bne	.L231
 558:lvgl\src\lv_font/lv_font_fmt_txt.c ****         rle_cnt--;
 1143              		.loc 1 558 0
 1144 02fc AA49     		ldr	r1, .L253
 1145 02fe 0B7B     		ldrb	r3, [r1, #12]	@ zero_extendqisi2
 1146              	.LVL186:
 559:lvgl\src\lv_font/lv_font_fmt_txt.c ****         if(rle_cnt == 0) {
 1147              		.loc 1 559 0
 1148 0300 4A7B     		ldrb	r2, [r1, #13]	@ zero_extendqisi2
 1149 0302 013A     		subs	r2, r2, #1
 1150 0304 D2B2     		uxtb	r2, r2
 1151 0306 4A73     		strb	r2, [r1, #13]
 560:lvgl\src\lv_font/lv_font_fmt_txt.c ****             ret = get_bits(rle_in, rle_rdp, rle_bpp);
 1152              		.loc 1 560 0
 1153 0308 002A     		cmp	r2, #0
 1154 030a 49D1     		bne	.L58
 561:lvgl\src\lv_font/lv_font_fmt_txt.c ****             rle_prev_v = ret;
 1155              		.loc 1 561 0
 1156 030c 0B46     		mov	r3, r1
 1157              	.LVL187:
 1158 030e D1F80090 		ldr	r9, [r1]
 1159 0312 8968     		ldr	r1, [r1, #8]
 1160 0314 93F804E0 		ldrb	lr, [r3, #4]	@ zero_extendqisi2
 1161              	.LVL188:
 1162              	.LBB119:
 1163              	.LBB120:
 422:lvgl\src\lv_font/lv_font_fmt_txt.c ****         case 1:
 1164              		.loc 1 422 0
 1165 0318 0EF1FF33 		add	r3, lr, #-1
 1166 031c 072B     		cmp	r3, #7
 1167 031e 0DD8     		bhi	.L84
 1168 0320 DFE803F0 		tbb	[pc, r3]
 1169              	.L86:
 1170 0324 04       		.byte	(.L85-.L86)/2
 1171 0325 12       		.byte	(.L232-.L86)/2
 1172 0326 06       		.byte	(.L88-.L86)/2
 1173 0327 08       		.byte	(.L89-.L86)/2
 1174 0328 0C       		.byte	(.L84-.L86)/2
 1175 0329 0C       		.byte	(.L84-.L86)/2
 1176 032a 0C       		.byte	(.L84-.L86)/2
 1177 032b 0A       		.byte	(.L90-.L86)/2
 1178              		.p2align 1
 1179              	.L85:
 424:lvgl\src\lv_font/lv_font_fmt_txt.c ****             break;
 1180              		.loc 1 424 0
ARM GAS  C:\Users\strap\AppData\Local\Temp\ccKJQbxb.s 			page 35


 1181 032c 0123     		movs	r3, #1
 1182 032e 0CE0     		b	.L87
 1183              	.L88:
 1184              	.LVL189:
 430:lvgl\src\lv_font/lv_font_fmt_txt.c ****             break;
 1185              		.loc 1 430 0
 1186 0330 0723     		movs	r3, #7
 1187 0332 0AE0     		b	.L87
 1188              	.LVL190:
 1189              	.L89:
 433:lvgl\src\lv_font/lv_font_fmt_txt.c ****             break;
 1190              		.loc 1 433 0
 1191 0334 0F23     		movs	r3, #15
 1192 0336 08E0     		b	.L87
 1193              	.LVL191:
 1194              	.L90:
 436:lvgl\src\lv_font/lv_font_fmt_txt.c ****             break;
 1195              		.loc 1 436 0
 1196 0338 FF23     		movs	r3, #255
 1197 033a 06E0     		b	.L87
 1198              	.LVL192:
 1199              	.L84:
 439:lvgl\src\lv_font/lv_font_fmt_txt.c ****     }
 1200              		.loc 1 439 0
 1201 033c 0123     		movs	r3, #1
 1202 033e 03FA0EF3 		lsl	r3, r3, lr
 1203 0342 013B     		subs	r3, r3, #1
 1204 0344 DBB2     		uxtb	r3, r3
 1205              	.LVL193:
 1206 0346 00E0     		b	.L87
 1207              	.LVL194:
 1208              	.L232:
 427:lvgl\src\lv_font/lv_font_fmt_txt.c ****             break;
 1209              		.loc 1 427 0
 1210 0348 0323     		movs	r3, #3
 1211              	.L87:
 1212              	.LVL195:
 442:lvgl\src\lv_font/lv_font_fmt_txt.c ****     bit_pos = bit_pos & 0x7;
 1213              		.loc 1 442 0
 1214 034a 4FEAD108 		lsr	r8, r1, #3
 1215              	.LVL196:
 443:lvgl\src\lv_font/lv_font_fmt_txt.c **** 
 1216              		.loc 1 443 0
 1217 034e 01F00702 		and	r2, r1, #7
 1218              	.LVL197:
 445:lvgl\src\lv_font/lv_font_fmt_txt.c ****         uint16_t in16 = (in[byte_pos] << 8) + in[byte_pos + 1];
 1219              		.loc 1 445 0
 1220 0352 02EB0E0A 		add	r10, r2, lr
 1221 0356 BAF1070F 		cmp	r10, #7
 1222 035a 10D9     		bls	.L91
 1223              	.LBB121:
 446:lvgl\src\lv_font/lv_font_fmt_txt.c ****         return (in16 >> (16 - bit_pos - len)) & bit_mask;
 1224              		.loc 1 446 0
 1225 035c 19F808A0 		ldrb	r10, [r9, r8]	@ zero_extendqisi2
 1226 0360 C844     		add	r8, r8, r9
 1227              	.LVL198:
 1228 0362 98F80180 		ldrb	r8, [r8, #1]	@ zero_extendqisi2
ARM GAS  C:\Users\strap\AppData\Local\Temp\ccKJQbxb.s 			page 36


 1229 0366 08EB0A28 		add	r8, r8, r10, lsl #8
 1230 036a 1FFA88F8 		uxth	r8, r8
 1231              	.LVL199:
 447:lvgl\src\lv_font/lv_font_fmt_txt.c ****     }
 1232              		.loc 1 447 0
 1233 036e 5242     		negs	r2, r2
 1234              	.LVL200:
 1235 0370 CEEB0202 		rsb	r2, lr, r2
 1236              	.LVL201:
 1237 0374 1032     		adds	r2, r2, #16
 1238 0376 48FA02F2 		asr	r2, r8, r2
 1239 037a 1340     		ands	r3, r3, r2
 1240              	.LVL202:
 1241 037c 08E0     		b	.L92
 1242              	.LVL203:
 1243              	.L91:
 1244              	.LBE121:
 450:lvgl\src\lv_font/lv_font_fmt_txt.c ****     }
 1245              		.loc 1 450 0
 1246 037e 19F80880 		ldrb	r8, [r9, r8]	@ zero_extendqisi2
 1247              	.LVL204:
 1248 0382 5242     		negs	r2, r2
 1249              	.LVL205:
 1250 0384 CEEB0202 		rsb	r2, lr, r2
 1251              	.LVL206:
 1252 0388 0832     		adds	r2, r2, #8
 1253 038a 48FA02F2 		asr	r2, r8, r2
 1254 038e 1340     		ands	r3, r3, r2
 1255              	.LVL207:
 1256              	.L92:
 1257              	.LBE120:
 1258              	.LBE119:
 562:lvgl\src\lv_font/lv_font_fmt_txt.c ****             rle_rdp += rle_bpp;
 1259              		.loc 1 562 0
 1260 0390 854A     		ldr	r2, .L253
 1261 0392 1373     		strb	r3, [r2, #12]
 563:lvgl\src\lv_font/lv_font_fmt_txt.c ****             rle_state = RLE_STATE_SINGLE;
 1262              		.loc 1 563 0
 1263 0394 7144     		add	r1, r1, lr
 1264 0396 9160     		str	r1, [r2, #8]
 564:lvgl\src\lv_font/lv_font_fmt_txt.c ****         }
 1265              		.loc 1 564 0
 1266 0398 0021     		movs	r1, #0
 1267 039a 5171     		strb	r1, [r2, #5]
 1268 039c 00E0     		b	.L58
 1269              	.LVL208:
 1270              	.L231:
 516:lvgl\src\lv_font/lv_font_fmt_txt.c **** 
 1271              		.loc 1 516 0
 1272 039e 0023     		movs	r3, #0
 1273              	.LVL209:
 1274              	.L58:
 1275              	.LBE103:
 1276              	.LBE102:
 408:lvgl\src\lv_font/lv_font_fmt_txt.c ****     }
 1277              		.loc 1 408 0
 1278 03a0 8CF80030 		strb	r3, [ip]
ARM GAS  C:\Users\strap\AppData\Local\Temp\ccKJQbxb.s 			page 37


 407:lvgl\src\lv_font/lv_font_fmt_txt.c ****         out[i] = rle_next();
 1279              		.loc 1 407 0
 1280 03a4 0130     		adds	r0, r0, #1
 1281              	.LVL210:
 1282 03a6 00B2     		sxth	r0, r0
 1283              	.LVL211:
 1284              	.L46:
 1285 03a8 A042     		cmp	r0, r4
 1286 03aa FFF651AE 		blt	.L93
 1287 03ae 4FF0000C 		mov	ip, #0
 1288 03b2 6046     		mov	r0, ip
 1289              	.LVL212:
 1290 03b4 DDF80890 		ldr	r9, [sp, #8]
 1291 03b8 47E0     		b	.L94
 1292              	.LVL213:
 1293              	.L104:
 1294              	.LBE101:
 1295              	.LBE100:
 371:lvgl\src\lv_font/lv_font_fmt_txt.c ****         wrp += wr_size;
 1296              		.loc 1 371 0 discriminator 3
 1297 03ba 15F80CE0 		ldrb	lr, [r5, ip]	@ zero_extendqisi2
 1298              	.LVL214:
 1299              	.LBB122:
 1300              	.LBB123:
 464:lvgl\src\lv_font/lv_font_fmt_txt.c ****         len = 4;
 1301              		.loc 1 464 0 discriminator 3
 1302 03be 032F     		cmp	r7, #3
 1303 03c0 24D1     		bne	.L233
 1304              	.LVL215:
 466:lvgl\src\lv_font/lv_font_fmt_txt.c ****             case 0:
 1305              		.loc 1 466 0
 1306 03c2 0EF1FF33 		add	r3, lr, #-1
 1307 03c6 062B     		cmp	r3, #6
 1308 03c8 22D8     		bhi	.L234
 1309 03ca DFE803F0 		tbb	[pc, r3]
 1310              	.L97:
 1311 03ce 04       		.byte	(.L96-.L97)/2
 1312 03cf 08       		.byte	(.L98-.L97)/2
 1313 03d0 0B       		.byte	(.L99-.L97)/2
 1314 03d1 0F       		.byte	(.L100-.L97)/2
 1315 03d2 13       		.byte	(.L101-.L97)/2
 1316 03d3 17       		.byte	(.L102-.L97)/2
 1317 03d4 1B       		.byte	(.L103-.L97)/2
 1318 03d5 00       		.p2align 1
 1319              	.L96:
 1320              	.LVL216:
 465:lvgl\src\lv_font/lv_font_fmt_txt.c ****         switch(val) {
 1321              		.loc 1 465 0
 1322 03d6 0422     		movs	r2, #4
 471:lvgl\src\lv_font/lv_font_fmt_txt.c ****                 break;
 1323              		.loc 1 471 0
 1324 03d8 4FF0020E 		mov	lr, #2
 1325 03dc 19E0     		b	.L95
 1326              	.LVL217:
 1327              	.L98:
 465:lvgl\src\lv_font/lv_font_fmt_txt.c ****         switch(val) {
 1328              		.loc 1 465 0
ARM GAS  C:\Users\strap\AppData\Local\Temp\ccKJQbxb.s 			page 38


 1329 03de 0422     		movs	r2, #4
 474:lvgl\src\lv_font/lv_font_fmt_txt.c ****                 break;
 1330              		.loc 1 474 0
 1331 03e0 9646     		mov	lr, r2
 1332 03e2 16E0     		b	.L95
 1333              	.LVL218:
 1334              	.L99:
 465:lvgl\src\lv_font/lv_font_fmt_txt.c ****         switch(val) {
 1335              		.loc 1 465 0
 1336 03e4 0422     		movs	r2, #4
 477:lvgl\src\lv_font/lv_font_fmt_txt.c ****                 break;
 1337              		.loc 1 477 0
 1338 03e6 4FF0060E 		mov	lr, #6
 1339 03ea 12E0     		b	.L95
 1340              	.LVL219:
 1341              	.L100:
 465:lvgl\src\lv_font/lv_font_fmt_txt.c ****         switch(val) {
 1342              		.loc 1 465 0
 1343 03ec 0422     		movs	r2, #4
 480:lvgl\src\lv_font/lv_font_fmt_txt.c ****                 break;
 1344              		.loc 1 480 0
 1345 03ee 4FF0090E 		mov	lr, #9
 1346 03f2 0EE0     		b	.L95
 1347              	.LVL220:
 1348              	.L101:
 465:lvgl\src\lv_font/lv_font_fmt_txt.c ****         switch(val) {
 1349              		.loc 1 465 0
 1350 03f4 0422     		movs	r2, #4
 483:lvgl\src\lv_font/lv_font_fmt_txt.c ****                 break;
 1351              		.loc 1 483 0
 1352 03f6 4FF00B0E 		mov	lr, #11
 1353 03fa 0AE0     		b	.L95
 1354              	.LVL221:
 1355              	.L102:
 465:lvgl\src\lv_font/lv_font_fmt_txt.c ****         switch(val) {
 1356              		.loc 1 465 0
 1357 03fc 0422     		movs	r2, #4
 486:lvgl\src\lv_font/lv_font_fmt_txt.c ****                 break;
 1358              		.loc 1 486 0
 1359 03fe 4FF00D0E 		mov	lr, #13
 1360 0402 06E0     		b	.L95
 1361              	.LVL222:
 1362              	.L103:
 465:lvgl\src\lv_font/lv_font_fmt_txt.c ****         switch(val) {
 1363              		.loc 1 465 0
 1364 0404 0422     		movs	r2, #4
 489:lvgl\src\lv_font/lv_font_fmt_txt.c ****                 break;
 1365              		.loc 1 489 0
 1366 0406 4FF00F0E 		mov	lr, #15
 1367 040a 02E0     		b	.L95
 1368              	.LVL223:
 1369              	.L233:
 464:lvgl\src\lv_font/lv_font_fmt_txt.c ****         len = 4;
 1370              		.loc 1 464 0
 1371 040c 3A46     		mov	r2, r7
 1372 040e 00E0     		b	.L95
 1373              	.LVL224:
ARM GAS  C:\Users\strap\AppData\Local\Temp\ccKJQbxb.s 			page 39


 1374              	.L234:
 465:lvgl\src\lv_font/lv_font_fmt_txt.c ****         switch(val) {
 1375              		.loc 1 465 0
 1376 0410 0422     		movs	r2, #4
 1377              	.LVL225:
 1378              	.L95:
 495:lvgl\src\lv_font/lv_font_fmt_txt.c ****     bit_pos = 8 - bit_pos - len;
 1379              		.loc 1 495 0
 1380 0412 00F00701 		and	r1, r0, #7
 1381              	.LVL226:
 496:lvgl\src\lv_font/lv_font_fmt_txt.c **** 
 1382              		.loc 1 496 0
 1383 0416 4942     		negs	r1, r1
 1384              	.LVL227:
 1385 0418 891A     		subs	r1, r1, r2
 1386              	.LVL228:
 1387 041a 0831     		adds	r1, r1, #8
 1388              	.LVL229:
 498:lvgl\src\lv_font/lv_font_fmt_txt.c ****     out[byte_pos] &= ((~bit_mask) << bit_pos);
 1389              		.loc 1 498 0
 1390 041c 0123     		movs	r3, #1
 1391 041e 9340     		lsls	r3, r3, r2
 1392 0420 013B     		subs	r3, r3, #1
 1393 0422 DBB2     		uxtb	r3, r3
 1394              	.LVL230:
 499:lvgl\src\lv_font/lv_font_fmt_txt.c ****     out[byte_pos] |= (val << bit_pos);
 1395              		.loc 1 499 0
 1396 0424 C0F3CF08 		ubfx	r8, r0, #3, #16
 1397 0428 DB43     		mvns	r3, r3
 1398              	.LVL231:
 1399 042a 03FA01F2 		lsl	r2, r3, r1
 1400              	.LVL232:
 1401 042e 16F80830 		ldrb	r3, [r6, r8]	@ zero_extendqisi2
 1402              	.LVL233:
 1403 0432 1340     		ands	r3, r3, r2
 1404 0434 5BB2     		sxtb	r3, r3
 500:lvgl\src\lv_font/lv_font_fmt_txt.c **** }
 1405              		.loc 1 500 0
 1406 0436 0EFA01F1 		lsl	r1, lr, r1
 1407              	.LVL234:
 1408 043a 0B43     		orrs	r3, r3, r1
 1409 043c 06F80830 		strb	r3, [r6, r8]
 1410              	.LVL235:
 1411              	.LBE123:
 1412              	.LBE122:
 372:lvgl\src\lv_font/lv_font_fmt_txt.c ****     }
 1413              		.loc 1 372 0
 1414 0440 4844     		add	r0, r0, r9
 1415              	.LVL236:
 370:lvgl\src\lv_font/lv_font_fmt_txt.c ****         bits_write(out, wrp, line_buf1[x], bpp);
 1416              		.loc 1 370 0
 1417 0442 0CF1010C 		add	ip, ip, #1
 1418              	.LVL237:
 1419 0446 0FFA8CFC 		sxth	ip, ip
 1420              	.LVL238:
 1421              	.L94:
 370:lvgl\src\lv_font/lv_font_fmt_txt.c ****         bits_write(out, wrp, line_buf1[x], bpp);
ARM GAS  C:\Users\strap\AppData\Local\Temp\ccKJQbxb.s 			page 40


 1422              		.loc 1 370 0 is_stmt 0 discriminator 1
 1423 044a A445     		cmp	ip, r4
 1424 044c B5DB     		blt	.L104
 1425 044e 0123     		movs	r3, #1
 1426 0450 0093     		str	r3, [sp]
 1427 0452 FBE3     		b	.L105
 1428              	.LVL239:
 1429              	.L225:
 376:lvgl\src\lv_font/lv_font_fmt_txt.c ****             decompress_line(line_buf2, w);
 1430              		.loc 1 376 0 is_stmt 1
 1431 0454 049B     		ldr	r3, [sp, #16]
 1432 0456 002B     		cmp	r3, #0
 1433 0458 40F08E81 		bne	.L235
 1434 045c 4FF0000E 		mov	lr, #0
 1435 0460 9BE3     		b	.L107
 1436              	.LVL240:
 1437              	.L154:
 1438              	.LBB124:
 1439              	.LBB125:
 408:lvgl\src\lv_font/lv_font_fmt_txt.c ****     }
 1440              		.loc 1 408 0
 1441 0462 0AEB0E08 		add	r8, r10, lr
 1442              	.LVL241:
 1443              	.LBB126:
 1444              	.LBB127:
 518:lvgl\src\lv_font/lv_font_fmt_txt.c ****         ret = get_bits(rle_in, rle_rdp, rle_bpp);
 1445              		.loc 1 518 0
 1446 0466 504B     		ldr	r3, .L253
 1447 0468 5B79     		ldrb	r3, [r3, #5]	@ zero_extendqisi2
 1448 046a 002B     		cmp	r3, #0
 1449 046c 4CD1     		bne	.L108
 519:lvgl\src\lv_font/lv_font_fmt_txt.c ****         if(rle_rdp != 0 && rle_prev_v == ret) {
 1450              		.loc 1 519 0
 1451 046e 4E4A     		ldr	r2, .L253
 1452 0470 1368     		ldr	r3, [r2]
 1453 0472 9468     		ldr	r4, [r2, #8]
 1454 0474 92F804C0 		ldrb	ip, [r2, #4]	@ zero_extendqisi2
 1455              	.LVL242:
 1456              	.LBB128:
 1457              	.LBB129:
 422:lvgl\src\lv_font/lv_font_fmt_txt.c ****         case 1:
 1458              		.loc 1 422 0
 1459 0478 0CF1FF32 		add	r2, ip, #-1
 1460 047c 072A     		cmp	r2, #7
 1461 047e 0DD8     		bhi	.L109
 1462 0480 DFE802F0 		tbb	[pc, r2]
 1463              	.L111:
 1464 0484 04       		.byte	(.L110-.L111)/2
 1465 0485 12       		.byte	(.L236-.L111)/2
 1466 0486 06       		.byte	(.L113-.L111)/2
 1467 0487 08       		.byte	(.L114-.L111)/2
 1468 0488 0C       		.byte	(.L109-.L111)/2
 1469 0489 0C       		.byte	(.L109-.L111)/2
 1470 048a 0C       		.byte	(.L109-.L111)/2
 1471 048b 0A       		.byte	(.L115-.L111)/2
 1472              		.p2align 1
 1473              	.L110:
ARM GAS  C:\Users\strap\AppData\Local\Temp\ccKJQbxb.s 			page 41


 424:lvgl\src\lv_font/lv_font_fmt_txt.c ****             break;
 1474              		.loc 1 424 0
 1475 048c 0120     		movs	r0, #1
 1476 048e 0CE0     		b	.L112
 1477              	.L113:
 1478              	.LVL243:
 430:lvgl\src\lv_font/lv_font_fmt_txt.c ****             break;
 1479              		.loc 1 430 0
 1480 0490 0720     		movs	r0, #7
 1481 0492 0AE0     		b	.L112
 1482              	.LVL244:
 1483              	.L114:
 433:lvgl\src\lv_font/lv_font_fmt_txt.c ****             break;
 1484              		.loc 1 433 0
 1485 0494 0F20     		movs	r0, #15
 1486 0496 08E0     		b	.L112
 1487              	.LVL245:
 1488              	.L115:
 436:lvgl\src\lv_font/lv_font_fmt_txt.c ****             break;
 1489              		.loc 1 436 0
 1490 0498 FF20     		movs	r0, #255
 1491 049a 06E0     		b	.L112
 1492              	.LVL246:
 1493              	.L109:
 439:lvgl\src\lv_font/lv_font_fmt_txt.c ****     }
 1494              		.loc 1 439 0
 1495 049c 0120     		movs	r0, #1
 1496 049e 00FA0CF0 		lsl	r0, r0, ip
 1497 04a2 0138     		subs	r0, r0, #1
 1498 04a4 C0B2     		uxtb	r0, r0
 1499              	.LVL247:
 1500 04a6 00E0     		b	.L112
 1501              	.LVL248:
 1502              	.L236:
 427:lvgl\src\lv_font/lv_font_fmt_txt.c ****             break;
 1503              		.loc 1 427 0
 1504 04a8 0320     		movs	r0, #3
 1505              	.L112:
 1506              	.LVL249:
 442:lvgl\src\lv_font/lv_font_fmt_txt.c ****     bit_pos = bit_pos & 0x7;
 1507              		.loc 1 442 0
 1508 04aa E108     		lsrs	r1, r4, #3
 1509              	.LVL250:
 443:lvgl\src\lv_font/lv_font_fmt_txt.c **** 
 1510              		.loc 1 443 0
 1511 04ac 04F00702 		and	r2, r4, #7
 1512              	.LVL251:
 445:lvgl\src\lv_font/lv_font_fmt_txt.c ****         uint16_t in16 = (in[byte_pos] << 8) + in[byte_pos + 1];
 1513              		.loc 1 445 0
 1514 04b0 02EB0C0B 		add	fp, r2, ip
 1515 04b4 BBF1070F 		cmp	fp, #7
 1516 04b8 0FD9     		bls	.L116
 1517              	.LBB130:
 446:lvgl\src\lv_font/lv_font_fmt_txt.c ****         return (in16 >> (16 - bit_pos - len)) & bit_mask;
 1518              		.loc 1 446 0
 1519 04ba 13F801B0 		ldrb	fp, [r3, r1]	@ zero_extendqisi2
 1520 04be 1944     		add	r1, r1, r3
ARM GAS  C:\Users\strap\AppData\Local\Temp\ccKJQbxb.s 			page 42


 1521              	.LVL252:
 1522 04c0 4B78     		ldrb	r3, [r1, #1]	@ zero_extendqisi2
 1523              	.LVL253:
 1524 04c2 03EB0B2B 		add	fp, r3, fp, lsl #8
 1525 04c6 1FFA8BFB 		uxth	fp, fp
 1526              	.LVL254:
 447:lvgl\src\lv_font/lv_font_fmt_txt.c ****     }
 1527              		.loc 1 447 0
 1528 04ca 5342     		negs	r3, r2
 1529 04cc CCEB0303 		rsb	r3, ip, r3
 1530 04d0 1033     		adds	r3, r3, #16
 1531 04d2 4BFA03F3 		asr	r3, fp, r3
 1532 04d6 0340     		ands	r3, r3, r0
 1533 04d8 07E0     		b	.L117
 1534              	.LVL255:
 1535              	.L116:
 1536              	.LBE130:
 450:lvgl\src\lv_font/lv_font_fmt_txt.c ****     }
 1537              		.loc 1 450 0
 1538 04da 595C     		ldrb	r1, [r3, r1]	@ zero_extendqisi2
 1539              	.LVL256:
 1540 04dc 5242     		negs	r2, r2
 1541              	.LVL257:
 1542 04de CCEB0202 		rsb	r2, ip, r2
 1543              	.LVL258:
 1544 04e2 0832     		adds	r2, r2, #8
 1545 04e4 41FA02F3 		asr	r3, r1, r2
 1546              	.LVL259:
 1547 04e8 0340     		ands	r3, r3, r0
 1548              	.L117:
 1549              	.LVL260:
 1550              	.LBE129:
 1551              	.LBE128:
 520:lvgl\src\lv_font/lv_font_fmt_txt.c ****             rle_cnt = 0;
 1552              		.loc 1 520 0
 1553 04ea 44B1     		cbz	r4, .L118
 1554 04ec 2E4A     		ldr	r2, .L253
 1555 04ee 127B     		ldrb	r2, [r2, #12]	@ zero_extendqisi2
 1556 04f0 9A42     		cmp	r2, r3
 1557 04f2 04D1     		bne	.L118
 521:lvgl\src\lv_font/lv_font_fmt_txt.c ****             rle_state = RLE_STATE_REPEATE;
 1558              		.loc 1 521 0
 1559 04f4 2C4A     		ldr	r2, .L253
 1560 04f6 0021     		movs	r1, #0
 1561 04f8 5173     		strb	r1, [r2, #13]
 522:lvgl\src\lv_font/lv_font_fmt_txt.c ****         }
 1562              		.loc 1 522 0
 1563 04fa 0121     		movs	r1, #1
 1564 04fc 5171     		strb	r1, [r2, #5]
 1565              	.L118:
 525:lvgl\src\lv_font/lv_font_fmt_txt.c ****         rle_rdp += rle_bpp;
 1566              		.loc 1 525 0
 1567 04fe 2A4A     		ldr	r2, .L253
 1568 0500 1373     		strb	r3, [r2, #12]
 526:lvgl\src\lv_font/lv_font_fmt_txt.c ****     }
 1569              		.loc 1 526 0
 1570 0502 6444     		add	r4, r4, ip
ARM GAS  C:\Users\strap\AppData\Local\Temp\ccKJQbxb.s 			page 43


 1571 0504 9460     		str	r4, [r2, #8]
 1572 0506 30E1     		b	.L119
 1573              	.LVL261:
 1574              	.L108:
 528:lvgl\src\lv_font/lv_font_fmt_txt.c ****         v = get_bits(rle_in, rle_rdp, 1);
 1575              		.loc 1 528 0
 1576 0508 012B     		cmp	r3, #1
 1577 050a 40F0D880 		bne	.L120
 529:lvgl\src\lv_font/lv_font_fmt_txt.c ****         rle_cnt++;
 1578              		.loc 1 529 0
 1579 050e 264B     		ldr	r3, .L253
 1580 0510 1868     		ldr	r0, [r3]
 1581 0512 9A68     		ldr	r2, [r3, #8]
 1582              	.LVL262:
 1583              	.LBB131:
 1584              	.LBB132:
 442:lvgl\src\lv_font/lv_font_fmt_txt.c ****     bit_pos = bit_pos & 0x7;
 1585              		.loc 1 442 0
 1586 0514 D308     		lsrs	r3, r2, #3
 1587              	.LVL263:
 443:lvgl\src\lv_font/lv_font_fmt_txt.c **** 
 1588              		.loc 1 443 0
 1589 0516 02F00701 		and	r1, r2, #7
 1590              	.LVL264:
 445:lvgl\src\lv_font/lv_font_fmt_txt.c ****         uint16_t in16 = (in[byte_pos] << 8) + in[byte_pos + 1];
 1591              		.loc 1 445 0
 1592 051a 4C1C     		adds	r4, r1, #1
 1593 051c 072C     		cmp	r4, #7
 1594 051e 0BD9     		bls	.L121
 1595              	.LBB133:
 446:lvgl\src\lv_font/lv_font_fmt_txt.c ****         return (in16 >> (16 - bit_pos - len)) & bit_mask;
 1596              		.loc 1 446 0
 1597 0520 C45C     		ldrb	r4, [r0, r3]	@ zero_extendqisi2
 1598 0522 0344     		add	r3, r3, r0
 1599              	.LVL265:
 1600 0524 5B78     		ldrb	r3, [r3, #1]	@ zero_extendqisi2
 1601 0526 03EB0423 		add	r3, r3, r4, lsl #8
 1602 052a 9BB2     		uxth	r3, r3
 1603              	.LVL266:
 447:lvgl\src\lv_font/lv_font_fmt_txt.c ****     }
 1604              		.loc 1 447 0
 1605 052c C1F10F01 		rsb	r1, r1, #15
 1606              	.LVL267:
 1607 0530 0B41     		asrs	r3, r3, r1
 1608              	.LVL268:
 1609 0532 03F00103 		and	r3, r3, #1
 1610 0536 06E0     		b	.L122
 1611              	.LVL269:
 1612              	.L121:
 1613              	.LBE133:
 450:lvgl\src\lv_font/lv_font_fmt_txt.c ****     }
 1614              		.loc 1 450 0
 1615 0538 C35C     		ldrb	r3, [r0, r3]	@ zero_extendqisi2
 1616              	.LVL270:
 1617 053a C1F10701 		rsb	r1, r1, #7
 1618              	.LVL271:
 1619 053e 43FA01F1 		asr	r1, r3, r1
ARM GAS  C:\Users\strap\AppData\Local\Temp\ccKJQbxb.s 			page 44


 1620 0542 01F00103 		and	r3, r1, #1
 1621              	.LVL272:
 1622              	.L122:
 1623              	.LBE132:
 1624              	.LBE131:
 530:lvgl\src\lv_font/lv_font_fmt_txt.c ****         rle_rdp += 1;
 1625              		.loc 1 530 0
 1626 0546 184C     		ldr	r4, .L253
 1627 0548 617B     		ldrb	r1, [r4, #13]	@ zero_extendqisi2
 1628 054a 0131     		adds	r1, r1, #1
 1629 054c C9B2     		uxtb	r1, r1
 1630 054e 6173     		strb	r1, [r4, #13]
 531:lvgl\src\lv_font/lv_font_fmt_txt.c ****         if(v == 1) {
 1631              		.loc 1 531 0
 1632 0550 0132     		adds	r2, r2, #1
 1633 0552 A260     		str	r2, [r4, #8]
 532:lvgl\src\lv_font/lv_font_fmt_txt.c ****             ret = rle_prev_v;
 1634              		.loc 1 532 0
 1635 0554 002B     		cmp	r3, #0
 1636 0556 6ED0     		beq	.L123
 533:lvgl\src\lv_font/lv_font_fmt_txt.c ****             if(rle_cnt == 11) {
 1637              		.loc 1 533 0
 1638 0558 237B     		ldrb	r3, [r4, #12]	@ zero_extendqisi2
 1639              	.LVL273:
 534:lvgl\src\lv_font/lv_font_fmt_txt.c ****                 rle_cnt = get_bits(rle_in, rle_rdp, 6);
 1640              		.loc 1 534 0
 1641 055a 0B29     		cmp	r1, #11
 1642 055c 40F00581 		bne	.L119
 1643              	.LVL274:
 1644              	.LBB134:
 1645              	.LBB135:
 442:lvgl\src\lv_font/lv_font_fmt_txt.c ****     bit_pos = bit_pos & 0x7;
 1646              		.loc 1 442 0
 1647 0560 D108     		lsrs	r1, r2, #3
 1648              	.LVL275:
 443:lvgl\src\lv_font/lv_font_fmt_txt.c **** 
 1649              		.loc 1 443 0
 1650 0562 02F00704 		and	r4, r2, #7
 1651              	.LVL276:
 445:lvgl\src\lv_font/lv_font_fmt_txt.c ****         uint16_t in16 = (in[byte_pos] << 8) + in[byte_pos + 1];
 1652              		.loc 1 445 0
 1653 0566 04F1060C 		add	ip, r4, #6
 1654 056a BCF1070F 		cmp	ip, #7
 1655 056e 0CD9     		bls	.L124
 1656              	.LBB136:
 446:lvgl\src\lv_font/lv_font_fmt_txt.c ****         return (in16 >> (16 - bit_pos - len)) & bit_mask;
 1657              		.loc 1 446 0
 1658 0570 10F801C0 		ldrb	ip, [r0, r1]	@ zero_extendqisi2
 1659 0574 0144     		add	r1, r1, r0
 1660              	.LVL277:
 1661 0576 4978     		ldrb	r1, [r1, #1]	@ zero_extendqisi2
 1662 0578 01EB0C21 		add	r1, r1, ip, lsl #8
 1663 057c 89B2     		uxth	r1, r1
 1664              	.LVL278:
 447:lvgl\src\lv_font/lv_font_fmt_txt.c ****     }
 1665              		.loc 1 447 0
 1666 057e C4F10A04 		rsb	r4, r4, #10
ARM GAS  C:\Users\strap\AppData\Local\Temp\ccKJQbxb.s 			page 45


 1667              	.LVL279:
 1668 0582 2141     		asrs	r1, r1, r4
 1669              	.LVL280:
 1670 0584 01F03F01 		and	r1, r1, #63
 1671 0588 05E0     		b	.L125
 1672              	.LVL281:
 1673              	.L124:
 1674              	.LBE136:
 450:lvgl\src\lv_font/lv_font_fmt_txt.c ****     }
 1675              		.loc 1 450 0
 1676 058a 415C     		ldrb	r1, [r0, r1]	@ zero_extendqisi2
 1677              	.LVL282:
 1678 058c C4F10204 		rsb	r4, r4, #2
 1679              	.LVL283:
 1680 0590 2141     		asrs	r1, r1, r4
 1681 0592 01F03F01 		and	r1, r1, #63
 1682              	.LVL284:
 1683              	.L125:
 1684              	.LBE135:
 1685              	.LBE134:
 535:lvgl\src\lv_font/lv_font_fmt_txt.c ****                 rle_rdp += 6;
 1686              		.loc 1 535 0
 1687 0596 044C     		ldr	r4, .L253
 1688 0598 6173     		strb	r1, [r4, #13]
 536:lvgl\src\lv_font/lv_font_fmt_txt.c ****                 if(rle_cnt != 0) {
 1689              		.loc 1 536 0
 1690 059a 0632     		adds	r2, r2, #6
 1691 059c A260     		str	r2, [r4, #8]
 537:lvgl\src\lv_font/lv_font_fmt_txt.c ****                     rle_state = RLE_STATE_COUNTER;
 1692              		.loc 1 537 0
 1693 059e 29B1     		cbz	r1, .L126
 538:lvgl\src\lv_font/lv_font_fmt_txt.c ****                 }
 1694              		.loc 1 538 0
 1695 05a0 0221     		movs	r1, #2
 1696 05a2 6171     		strb	r1, [r4, #5]
 1697 05a4 E1E0     		b	.L119
 1698              	.L254:
 1699 05a6 00BF     		.align	2
 1700              	.L253:
 1701 05a8 00000000 		.word	.LANCHOR0
 1702              	.L126:
 541:lvgl\src\lv_font/lv_font_fmt_txt.c ****                     rle_prev_v = ret;
 1703              		.loc 1 541 0
 1704 05ac AD4B     		ldr	r3, .L255
 1705              	.LVL285:
 1706 05ae 1979     		ldrb	r1, [r3, #4]	@ zero_extendqisi2
 1707              	.LVL286:
 1708              	.LBB137:
 1709              	.LBB138:
 422:lvgl\src\lv_font/lv_font_fmt_txt.c ****         case 1:
 1710              		.loc 1 422 0
 1711 05b0 4B1E     		subs	r3, r1, #1
 1712 05b2 072B     		cmp	r3, #7
 1713 05b4 11D8     		bhi	.L127
 1714 05b6 DFE803F0 		tbb	[pc, r3]
 1715              	.L129:
 1716 05ba 04       		.byte	(.L128-.L129)/2
ARM GAS  C:\Users\strap\AppData\Local\Temp\ccKJQbxb.s 			page 46


 1717 05bb 16       		.byte	(.L237-.L129)/2
 1718 05bc 07       		.byte	(.L131-.L129)/2
 1719 05bd 0A       		.byte	(.L132-.L129)/2
 1720 05be 10       		.byte	(.L127-.L129)/2
 1721 05bf 10       		.byte	(.L127-.L129)/2
 1722 05c0 10       		.byte	(.L127-.L129)/2
 1723 05c1 0D       		.byte	(.L133-.L129)/2
 1724              		.p2align 1
 1725              	.L128:
 424:lvgl\src\lv_font/lv_font_fmt_txt.c ****             break;
 1726              		.loc 1 424 0
 1727 05c2 4FF0010B 		mov	fp, #1
 1728 05c6 10E0     		b	.L130
 1729              	.L131:
 1730              	.LVL287:
 430:lvgl\src\lv_font/lv_font_fmt_txt.c ****             break;
 1731              		.loc 1 430 0
 1732 05c8 4FF0070B 		mov	fp, #7
 1733 05cc 0DE0     		b	.L130
 1734              	.LVL288:
 1735              	.L132:
 433:lvgl\src\lv_font/lv_font_fmt_txt.c ****             break;
 1736              		.loc 1 433 0
 1737 05ce 4FF00F0B 		mov	fp, #15
 1738 05d2 0AE0     		b	.L130
 1739              	.LVL289:
 1740              	.L133:
 436:lvgl\src\lv_font/lv_font_fmt_txt.c ****             break;
 1741              		.loc 1 436 0
 1742 05d4 4FF0FF0B 		mov	fp, #255
 1743 05d8 07E0     		b	.L130
 1744              	.LVL290:
 1745              	.L127:
 439:lvgl\src\lv_font/lv_font_fmt_txt.c ****     }
 1746              		.loc 1 439 0
 1747 05da 0123     		movs	r3, #1
 1748 05dc 8B40     		lsls	r3, r3, r1
 1749 05de 013B     		subs	r3, r3, #1
 1750 05e0 5FFA83FB 		uxtb	fp, r3
 1751              	.LVL291:
 1752 05e4 01E0     		b	.L130
 1753              	.LVL292:
 1754              	.L237:
 427:lvgl\src\lv_font/lv_font_fmt_txt.c ****             break;
 1755              		.loc 1 427 0
 1756 05e6 4FF0030B 		mov	fp, #3
 1757              	.L130:
 1758              	.LVL293:
 442:lvgl\src\lv_font/lv_font_fmt_txt.c ****     bit_pos = bit_pos & 0x7;
 1759              		.loc 1 442 0
 1760 05ea D408     		lsrs	r4, r2, #3
 1761              	.LVL294:
 443:lvgl\src\lv_font/lv_font_fmt_txt.c **** 
 1762              		.loc 1 443 0
 1763 05ec 02F00703 		and	r3, r2, #7
 1764              	.LVL295:
 445:lvgl\src\lv_font/lv_font_fmt_txt.c ****         uint16_t in16 = (in[byte_pos] << 8) + in[byte_pos + 1];
ARM GAS  C:\Users\strap\AppData\Local\Temp\ccKJQbxb.s 			page 47


 1765              		.loc 1 445 0
 1766 05f0 03EB010C 		add	ip, r3, r1
 1767 05f4 BCF1070F 		cmp	ip, #7
 1768 05f8 0ED9     		bls	.L134
 1769              	.LBB139:
 446:lvgl\src\lv_font/lv_font_fmt_txt.c ****         return (in16 >> (16 - bit_pos - len)) & bit_mask;
 1770              		.loc 1 446 0
 1771 05fa 10F804C0 		ldrb	ip, [r0, r4]	@ zero_extendqisi2
 1772 05fe 2044     		add	r0, r0, r4
 1773              	.LVL296:
 1774 0600 4078     		ldrb	r0, [r0, #1]	@ zero_extendqisi2
 1775 0602 00EB0C20 		add	r0, r0, ip, lsl #8
 1776 0606 80B2     		uxth	r0, r0
 1777              	.LVL297:
 447:lvgl\src\lv_font/lv_font_fmt_txt.c ****     }
 1778              		.loc 1 447 0
 1779 0608 5B42     		negs	r3, r3
 1780              	.LVL298:
 1781 060a 5B1A     		subs	r3, r3, r1
 1782              	.LVL299:
 1783 060c 1033     		adds	r3, r3, #16
 1784 060e 40FA03F3 		asr	r3, r0, r3
 1785 0612 03EA0B03 		and	r3, r3, fp
 1786 0616 07E0     		b	.L135
 1787              	.LVL300:
 1788              	.L134:
 1789              	.LBE139:
 450:lvgl\src\lv_font/lv_font_fmt_txt.c ****     }
 1790              		.loc 1 450 0
 1791 0618 005D     		ldrb	r0, [r0, r4]	@ zero_extendqisi2
 1792              	.LVL301:
 1793 061a 5B42     		negs	r3, r3
 1794              	.LVL302:
 1795 061c 5B1A     		subs	r3, r3, r1
 1796              	.LVL303:
 1797 061e 0833     		adds	r3, r3, #8
 1798 0620 40FA03F3 		asr	r3, r0, r3
 1799 0624 03EA0B03 		and	r3, r3, fp
 1800              	.L135:
 1801              	.LVL304:
 1802              	.LBE138:
 1803              	.LBE137:
 542:lvgl\src\lv_font/lv_font_fmt_txt.c ****                     rle_rdp += rle_bpp;
 1804              		.loc 1 542 0
 1805 0628 8E48     		ldr	r0, .L255
 1806 062a 0373     		strb	r3, [r0, #12]
 543:lvgl\src\lv_font/lv_font_fmt_txt.c ****                     rle_state = RLE_STATE_SINGLE;
 1807              		.loc 1 543 0
 1808 062c 0A44     		add	r2, r2, r1
 1809 062e 8260     		str	r2, [r0, #8]
 544:lvgl\src\lv_font/lv_font_fmt_txt.c ****                 }
 1810              		.loc 1 544 0
 1811 0630 0022     		movs	r2, #0
 1812 0632 4271     		strb	r2, [r0, #5]
 1813 0634 99E0     		b	.L119
 1814              	.LVL305:
 1815              	.L123:
ARM GAS  C:\Users\strap\AppData\Local\Temp\ccKJQbxb.s 			page 48


 549:lvgl\src\lv_font/lv_font_fmt_txt.c ****             rle_prev_v = ret;
 1816              		.loc 1 549 0
 1817 0636 8B4B     		ldr	r3, .L255
 1818 0638 1C79     		ldrb	r4, [r3, #4]	@ zero_extendqisi2
 1819              	.LVL306:
 1820              	.LBB140:
 1821              	.LBB141:
 422:lvgl\src\lv_font/lv_font_fmt_txt.c ****         case 1:
 1822              		.loc 1 422 0
 1823 063a 631E     		subs	r3, r4, #1
 1824 063c 072B     		cmp	r3, #7
 1825 063e 11D8     		bhi	.L136
 1826 0640 DFE803F0 		tbb	[pc, r3]
 1827              	.L138:
 1828 0644 04       		.byte	(.L137-.L138)/2
 1829 0645 16       		.byte	(.L238-.L138)/2
 1830 0646 07       		.byte	(.L140-.L138)/2
 1831 0647 0A       		.byte	(.L141-.L138)/2
 1832 0648 10       		.byte	(.L136-.L138)/2
 1833 0649 10       		.byte	(.L136-.L138)/2
 1834 064a 10       		.byte	(.L136-.L138)/2
 1835 064b 0D       		.byte	(.L142-.L138)/2
 1836              		.p2align 1
 1837              	.L137:
 424:lvgl\src\lv_font/lv_font_fmt_txt.c ****             break;
 1838              		.loc 1 424 0
 1839 064c 4FF0010B 		mov	fp, #1
 1840 0650 10E0     		b	.L139
 1841              	.L140:
 1842              	.LVL307:
 430:lvgl\src\lv_font/lv_font_fmt_txt.c ****             break;
 1843              		.loc 1 430 0
 1844 0652 4FF0070B 		mov	fp, #7
 1845 0656 0DE0     		b	.L139
 1846              	.LVL308:
 1847              	.L141:
 433:lvgl\src\lv_font/lv_font_fmt_txt.c ****             break;
 1848              		.loc 1 433 0
 1849 0658 4FF00F0B 		mov	fp, #15
 1850 065c 0AE0     		b	.L139
 1851              	.LVL309:
 1852              	.L142:
 436:lvgl\src\lv_font/lv_font_fmt_txt.c ****             break;
 1853              		.loc 1 436 0
 1854 065e 4FF0FF0B 		mov	fp, #255
 1855 0662 07E0     		b	.L139
 1856              	.LVL310:
 1857              	.L136:
 439:lvgl\src\lv_font/lv_font_fmt_txt.c ****     }
 1858              		.loc 1 439 0
 1859 0664 0123     		movs	r3, #1
 1860 0666 A340     		lsls	r3, r3, r4
 1861 0668 013B     		subs	r3, r3, #1
 1862 066a 5FFA83FB 		uxtb	fp, r3
 1863              	.LVL311:
 1864 066e 01E0     		b	.L139
 1865              	.LVL312:
ARM GAS  C:\Users\strap\AppData\Local\Temp\ccKJQbxb.s 			page 49


 1866              	.L238:
 427:lvgl\src\lv_font/lv_font_fmt_txt.c ****             break;
 1867              		.loc 1 427 0
 1868 0670 4FF0030B 		mov	fp, #3
 1869              	.L139:
 1870              	.LVL313:
 442:lvgl\src\lv_font/lv_font_fmt_txt.c ****     bit_pos = bit_pos & 0x7;
 1871              		.loc 1 442 0
 1872 0674 4FEAD20C 		lsr	ip, r2, #3
 1873              	.LVL314:
 443:lvgl\src\lv_font/lv_font_fmt_txt.c **** 
 1874              		.loc 1 443 0
 1875 0678 02F00701 		and	r1, r2, #7
 1876              	.LVL315:
 445:lvgl\src\lv_font/lv_font_fmt_txt.c ****         uint16_t in16 = (in[byte_pos] << 8) + in[byte_pos + 1];
 1877              		.loc 1 445 0
 1878 067c 0B19     		adds	r3, r1, r4
 1879 067e 072B     		cmp	r3, #7
 1880 0680 0DD9     		bls	.L143
 1881              	.LBB142:
 446:lvgl\src\lv_font/lv_font_fmt_txt.c ****         return (in16 >> (16 - bit_pos - len)) & bit_mask;
 1882              		.loc 1 446 0
 1883 0682 10F80C30 		ldrb	r3, [r0, ip]	@ zero_extendqisi2
 1884 0686 6044     		add	r0, r0, ip
 1885              	.LVL316:
 1886 0688 4078     		ldrb	r0, [r0, #1]	@ zero_extendqisi2
 1887 068a 00EB0323 		add	r3, r0, r3, lsl #8
 1888 068e 9BB2     		uxth	r3, r3
 1889              	.LVL317:
 447:lvgl\src\lv_font/lv_font_fmt_txt.c ****     }
 1890              		.loc 1 447 0
 1891 0690 4942     		negs	r1, r1
 1892              	.LVL318:
 1893 0692 091B     		subs	r1, r1, r4
 1894              	.LVL319:
 1895 0694 1031     		adds	r1, r1, #16
 1896 0696 0B41     		asrs	r3, r3, r1
 1897              	.LVL320:
 1898 0698 03EA0B03 		and	r3, r3, fp
 1899 069c 08E0     		b	.L144
 1900              	.LVL321:
 1901              	.L143:
 1902              	.LBE142:
 450:lvgl\src\lv_font/lv_font_fmt_txt.c ****     }
 1903              		.loc 1 450 0
 1904 069e 10F80C00 		ldrb	r0, [r0, ip]	@ zero_extendqisi2
 1905              	.LVL322:
 1906 06a2 4B42     		negs	r3, r1
 1907 06a4 1B1B     		subs	r3, r3, r4
 1908 06a6 0833     		adds	r3, r3, #8
 1909 06a8 40FA03F3 		asr	r3, r0, r3
 1910 06ac 03EA0B03 		and	r3, r3, fp
 1911              	.LVL323:
 1912              	.L144:
 1913              	.LBE141:
 1914              	.LBE140:
 550:lvgl\src\lv_font/lv_font_fmt_txt.c ****             rle_rdp += rle_bpp;
ARM GAS  C:\Users\strap\AppData\Local\Temp\ccKJQbxb.s 			page 50


 1915              		.loc 1 550 0
 1916 06b0 6C49     		ldr	r1, .L255
 1917 06b2 0B73     		strb	r3, [r1, #12]
 551:lvgl\src\lv_font/lv_font_fmt_txt.c ****             rle_state = RLE_STATE_SINGLE;
 1918              		.loc 1 551 0
 1919 06b4 2244     		add	r2, r2, r4
 1920 06b6 8A60     		str	r2, [r1, #8]
 552:lvgl\src\lv_font/lv_font_fmt_txt.c ****         }
 1921              		.loc 1 552 0
 1922 06b8 0022     		movs	r2, #0
 1923 06ba 4A71     		strb	r2, [r1, #5]
 1924 06bc 55E0     		b	.L119
 1925              	.LVL324:
 1926              	.L120:
 557:lvgl\src\lv_font/lv_font_fmt_txt.c ****         ret = rle_prev_v;
 1927              		.loc 1 557 0
 1928 06be 022B     		cmp	r3, #2
 1929 06c0 52D1     		bne	.L239
 558:lvgl\src\lv_font/lv_font_fmt_txt.c ****         rle_cnt--;
 1930              		.loc 1 558 0
 1931 06c2 6849     		ldr	r1, .L255
 1932 06c4 0B7B     		ldrb	r3, [r1, #12]	@ zero_extendqisi2
 1933              	.LVL325:
 559:lvgl\src\lv_font/lv_font_fmt_txt.c ****         if(rle_cnt == 0) {
 1934              		.loc 1 559 0
 1935 06c6 4A7B     		ldrb	r2, [r1, #13]	@ zero_extendqisi2
 1936 06c8 013A     		subs	r2, r2, #1
 1937 06ca D2B2     		uxtb	r2, r2
 1938 06cc 4A73     		strb	r2, [r1, #13]
 560:lvgl\src\lv_font/lv_font_fmt_txt.c ****             ret = get_bits(rle_in, rle_rdp, rle_bpp);
 1939              		.loc 1 560 0
 1940 06ce 002A     		cmp	r2, #0
 1941 06d0 4BD1     		bne	.L119
 561:lvgl\src\lv_font/lv_font_fmt_txt.c ****             rle_prev_v = ret;
 1942              		.loc 1 561 0
 1943 06d2 0A46     		mov	r2, r1
 1944 06d4 0B68     		ldr	r3, [r1]
 1945              	.LVL326:
 1946 06d6 8968     		ldr	r1, [r1, #8]
 1947 06d8 1079     		ldrb	r0, [r2, #4]	@ zero_extendqisi2
 1948              	.LVL327:
 1949              	.LBB143:
 1950              	.LBB144:
 422:lvgl\src\lv_font/lv_font_fmt_txt.c ****         case 1:
 1951              		.loc 1 422 0
 1952 06da 421E     		subs	r2, r0, #1
 1953 06dc 072A     		cmp	r2, #7
 1954 06de 11D8     		bhi	.L145
 1955 06e0 DFE802F0 		tbb	[pc, r2]
 1956              	.L147:
 1957 06e4 04       		.byte	(.L146-.L147)/2
 1958 06e5 19       		.byte	(.L240-.L147)/2
 1959 06e6 07       		.byte	(.L149-.L147)/2
 1960 06e7 0A       		.byte	(.L150-.L147)/2
 1961 06e8 10       		.byte	(.L145-.L147)/2
 1962 06e9 10       		.byte	(.L145-.L147)/2
 1963 06ea 10       		.byte	(.L145-.L147)/2
ARM GAS  C:\Users\strap\AppData\Local\Temp\ccKJQbxb.s 			page 51


 1964 06eb 0D       		.byte	(.L151-.L147)/2
 1965              		.p2align 1
 1966              	.L146:
 424:lvgl\src\lv_font/lv_font_fmt_txt.c ****             break;
 1967              		.loc 1 424 0
 1968 06ec 4FF0010C 		mov	ip, #1
 1969 06f0 13E0     		b	.L148
 1970              	.L149:
 1971              	.LVL328:
 430:lvgl\src\lv_font/lv_font_fmt_txt.c ****             break;
 1972              		.loc 1 430 0
 1973 06f2 4FF0070C 		mov	ip, #7
 1974 06f6 10E0     		b	.L148
 1975              	.LVL329:
 1976              	.L150:
 433:lvgl\src\lv_font/lv_font_fmt_txt.c ****             break;
 1977              		.loc 1 433 0
 1978 06f8 4FF00F0C 		mov	ip, #15
 1979 06fc 0DE0     		b	.L148
 1980              	.LVL330:
 1981              	.L151:
 436:lvgl\src\lv_font/lv_font_fmt_txt.c ****             break;
 1982              		.loc 1 436 0
 1983 06fe 4FF0FF0C 		mov	ip, #255
 1984 0702 0AE0     		b	.L148
 1985              	.LVL331:
 1986              	.L145:
 439:lvgl\src\lv_font/lv_font_fmt_txt.c ****     }
 1987              		.loc 1 439 0
 1988 0704 4FF0010C 		mov	ip, #1
 1989 0708 0CFA00FC 		lsl	ip, ip, r0
 1990 070c 0CF1FF3C 		add	ip, ip, #-1
 1991 0710 5FFA8CFC 		uxtb	ip, ip
 1992              	.LVL332:
 1993 0714 01E0     		b	.L148
 1994              	.LVL333:
 1995              	.L240:
 427:lvgl\src\lv_font/lv_font_fmt_txt.c ****             break;
 1996              		.loc 1 427 0
 1997 0716 4FF0030C 		mov	ip, #3
 1998              	.L148:
 1999              	.LVL334:
 442:lvgl\src\lv_font/lv_font_fmt_txt.c ****     bit_pos = bit_pos & 0x7;
 2000              		.loc 1 442 0
 2001 071a CC08     		lsrs	r4, r1, #3
 2002              	.LVL335:
 443:lvgl\src\lv_font/lv_font_fmt_txt.c **** 
 2003              		.loc 1 443 0
 2004 071c 01F00702 		and	r2, r1, #7
 2005              	.LVL336:
 445:lvgl\src\lv_font/lv_font_fmt_txt.c ****         uint16_t in16 = (in[byte_pos] << 8) + in[byte_pos + 1];
 2006              		.loc 1 445 0
 2007 0720 02EB000B 		add	fp, r2, r0
 2008 0724 BBF1070F 		cmp	fp, #7
 2009 0728 0FD9     		bls	.L152
 2010              	.LBB145:
 446:lvgl\src\lv_font/lv_font_fmt_txt.c ****         return (in16 >> (16 - bit_pos - len)) & bit_mask;
ARM GAS  C:\Users\strap\AppData\Local\Temp\ccKJQbxb.s 			page 52


 2011              		.loc 1 446 0
 2012 072a 13F804B0 		ldrb	fp, [r3, r4]	@ zero_extendqisi2
 2013 072e 1C44     		add	r4, r4, r3
 2014              	.LVL337:
 2015 0730 6378     		ldrb	r3, [r4, #1]	@ zero_extendqisi2
 2016              	.LVL338:
 2017 0732 03EB0B2B 		add	fp, r3, fp, lsl #8
 2018 0736 1FFA8BFB 		uxth	fp, fp
 2019              	.LVL339:
 447:lvgl\src\lv_font/lv_font_fmt_txt.c ****     }
 2020              		.loc 1 447 0
 2021 073a 5342     		negs	r3, r2
 2022 073c 1B1A     		subs	r3, r3, r0
 2023 073e 1033     		adds	r3, r3, #16
 2024 0740 4BFA03F3 		asr	r3, fp, r3
 2025 0744 03EA0C03 		and	r3, r3, ip
 2026 0748 07E0     		b	.L153
 2027              	.LVL340:
 2028              	.L152:
 2029              	.LBE145:
 450:lvgl\src\lv_font/lv_font_fmt_txt.c ****     }
 2030              		.loc 1 450 0
 2031 074a 1C5D     		ldrb	r4, [r3, r4]	@ zero_extendqisi2
 2032              	.LVL341:
 2033 074c 5342     		negs	r3, r2
 2034              	.LVL342:
 2035 074e 1B1A     		subs	r3, r3, r0
 2036 0750 0833     		adds	r3, r3, #8
 2037 0752 44FA03F3 		asr	r3, r4, r3
 2038 0756 03EA0C03 		and	r3, r3, ip
 2039              	.L153:
 2040              	.LVL343:
 2041              	.LBE144:
 2042              	.LBE143:
 562:lvgl\src\lv_font/lv_font_fmt_txt.c ****             rle_rdp += rle_bpp;
 2043              		.loc 1 562 0
 2044 075a 424A     		ldr	r2, .L255
 2045 075c 1373     		strb	r3, [r2, #12]
 563:lvgl\src\lv_font/lv_font_fmt_txt.c ****             rle_state = RLE_STATE_SINGLE;
 2046              		.loc 1 563 0
 2047 075e 0144     		add	r1, r1, r0
 2048 0760 9160     		str	r1, [r2, #8]
 564:lvgl\src\lv_font/lv_font_fmt_txt.c ****         }
 2049              		.loc 1 564 0
 2050 0762 0021     		movs	r1, #0
 2051 0764 5171     		strb	r1, [r2, #5]
 2052 0766 00E0     		b	.L119
 2053              	.LVL344:
 2054              	.L239:
 516:lvgl\src\lv_font/lv_font_fmt_txt.c **** 
 2055              		.loc 1 516 0
 2056 0768 0023     		movs	r3, #0
 2057              	.LVL345:
 2058              	.L119:
 2059              	.LBE127:
 2060              	.LBE126:
 408:lvgl\src\lv_font/lv_font_fmt_txt.c ****     }
ARM GAS  C:\Users\strap\AppData\Local\Temp\ccKJQbxb.s 			page 53


 2061              		.loc 1 408 0
 2062 076a 88F80030 		strb	r3, [r8]
 407:lvgl\src\lv_font/lv_font_fmt_txt.c ****         out[i] = rle_next();
 2063              		.loc 1 407 0
 2064 076e 0EF1010E 		add	lr, lr, #1
 2065              	.LVL346:
 2066 0772 0FFA8EFE 		sxth	lr, lr
 2067              	.LVL347:
 2068 0776 05E0     		b	.L106
 2069              	.LVL348:
 2070              	.L235:
 2071              	.LBE125:
 2072              	.LBE124:
 2073 0778 4FF0000E 		mov	lr, #0
 2074 077c 0590     		str	r0, [sp, #20]
 2075 077e DDF80CA0 		ldr	r10, [sp, #12]
 2076 0782 A146     		mov	r9, r4
 2077              	.LVL349:
 2078              	.L106:
 2079              	.LBB147:
 2080              	.LBB146:
 2081 0784 F145     		cmp	r9, lr
 2082 0786 3FF76CAE 		bgt	.L154
 2083 078a 0598     		ldr	r0, [sp, #20]
 2084 078c 4C46     		mov	r4, r9
 2085 078e 4FF0000C 		mov	ip, #0
 2086 0792 DDF80890 		ldr	r9, [sp, #8]
 2087 0796 DDF80CA0 		ldr	r10, [sp, #12]
 2088 079a 48E0     		b	.L155
 2089              	.LVL350:
 2090              	.L165:
 2091              	.LBE146:
 2092              	.LBE147:
 380:lvgl\src\lv_font/lv_font_fmt_txt.c ****                 bits_write(out, wrp, line_buf1[x], bpp);
 2093              		.loc 1 380 0 discriminator 3
 2094 079c 1AF80C10 		ldrb	r1, [r10, ip]	@ zero_extendqisi2
 2095 07a0 15F80C30 		ldrb	r3, [r5, ip]	@ zero_extendqisi2
 2096 07a4 5940     		eors	r1, r1, r3
 2097 07a6 05F80C10 		strb	r1, [r5, ip]
 2098              	.LVL351:
 2099              	.LBB148:
 2100              	.LBB149:
 464:lvgl\src\lv_font/lv_font_fmt_txt.c ****         len = 4;
 2101              		.loc 1 464 0 discriminator 3
 2102 07aa 032F     		cmp	r7, #3
 2103 07ac 1DD1     		bne	.L241
 2104              	.LVL352:
 466:lvgl\src\lv_font/lv_font_fmt_txt.c ****             case 0:
 2105              		.loc 1 466 0
 2106 07ae 4B1E     		subs	r3, r1, #1
 2107 07b0 062B     		cmp	r3, #6
 2108 07b2 1CD8     		bhi	.L242
 2109 07b4 DFE803F0 		tbb	[pc, r3]
 2110              	.L158:
 2111 07b8 04       		.byte	(.L157-.L158)/2
 2112 07b9 07       		.byte	(.L159-.L158)/2
 2113 07ba 0A       		.byte	(.L160-.L158)/2
ARM GAS  C:\Users\strap\AppData\Local\Temp\ccKJQbxb.s 			page 54


 2114 07bb 0D       		.byte	(.L161-.L158)/2
 2115 07bc 10       		.byte	(.L162-.L158)/2
 2116 07bd 13       		.byte	(.L163-.L158)/2
 2117 07be 16       		.byte	(.L164-.L158)/2
 2118 07bf 00       		.p2align 1
 2119              	.L157:
 2120              	.LVL353:
 465:lvgl\src\lv_font/lv_font_fmt_txt.c ****         switch(val) {
 2121              		.loc 1 465 0
 2122 07c0 0422     		movs	r2, #4
 471:lvgl\src\lv_font/lv_font_fmt_txt.c ****                 break;
 2123              		.loc 1 471 0
 2124 07c2 0221     		movs	r1, #2
 2125 07c4 14E0     		b	.L156
 2126              	.LVL354:
 2127              	.L159:
 465:lvgl\src\lv_font/lv_font_fmt_txt.c ****         switch(val) {
 2128              		.loc 1 465 0
 2129 07c6 0422     		movs	r2, #4
 474:lvgl\src\lv_font/lv_font_fmt_txt.c ****                 break;
 2130              		.loc 1 474 0
 2131 07c8 1146     		mov	r1, r2
 2132 07ca 11E0     		b	.L156
 2133              	.LVL355:
 2134              	.L160:
 465:lvgl\src\lv_font/lv_font_fmt_txt.c ****         switch(val) {
 2135              		.loc 1 465 0
 2136 07cc 0422     		movs	r2, #4
 477:lvgl\src\lv_font/lv_font_fmt_txt.c ****                 break;
 2137              		.loc 1 477 0
 2138 07ce 0621     		movs	r1, #6
 2139 07d0 0EE0     		b	.L156
 2140              	.LVL356:
 2141              	.L161:
 465:lvgl\src\lv_font/lv_font_fmt_txt.c ****         switch(val) {
 2142              		.loc 1 465 0
 2143 07d2 0422     		movs	r2, #4
 480:lvgl\src\lv_font/lv_font_fmt_txt.c ****                 break;
 2144              		.loc 1 480 0
 2145 07d4 0921     		movs	r1, #9
 2146 07d6 0BE0     		b	.L156
 2147              	.LVL357:
 2148              	.L162:
 465:lvgl\src\lv_font/lv_font_fmt_txt.c ****         switch(val) {
 2149              		.loc 1 465 0
 2150 07d8 0422     		movs	r2, #4
 483:lvgl\src\lv_font/lv_font_fmt_txt.c ****                 break;
 2151              		.loc 1 483 0
 2152 07da 0B21     		movs	r1, #11
 2153 07dc 08E0     		b	.L156
 2154              	.LVL358:
 2155              	.L163:
 465:lvgl\src\lv_font/lv_font_fmt_txt.c ****         switch(val) {
 2156              		.loc 1 465 0
 2157 07de 0422     		movs	r2, #4
 486:lvgl\src\lv_font/lv_font_fmt_txt.c ****                 break;
 2158              		.loc 1 486 0
ARM GAS  C:\Users\strap\AppData\Local\Temp\ccKJQbxb.s 			page 55


 2159 07e0 0D21     		movs	r1, #13
 2160 07e2 05E0     		b	.L156
 2161              	.LVL359:
 2162              	.L164:
 465:lvgl\src\lv_font/lv_font_fmt_txt.c ****         switch(val) {
 2163              		.loc 1 465 0
 2164 07e4 0422     		movs	r2, #4
 489:lvgl\src\lv_font/lv_font_fmt_txt.c ****                 break;
 2165              		.loc 1 489 0
 2166 07e6 0F21     		movs	r1, #15
 2167 07e8 02E0     		b	.L156
 2168              	.LVL360:
 2169              	.L241:
 464:lvgl\src\lv_font/lv_font_fmt_txt.c ****         len = 4;
 2170              		.loc 1 464 0
 2171 07ea 3A46     		mov	r2, r7
 2172 07ec 00E0     		b	.L156
 2173              	.LVL361:
 2174              	.L242:
 465:lvgl\src\lv_font/lv_font_fmt_txt.c ****         switch(val) {
 2175              		.loc 1 465 0
 2176 07ee 0422     		movs	r2, #4
 2177              	.LVL362:
 2178              	.L156:
 495:lvgl\src\lv_font/lv_font_fmt_txt.c ****     bit_pos = 8 - bit_pos - len;
 2179              		.loc 1 495 0
 2180 07f0 00F0070E 		and	lr, r0, #7
 2181              	.LVL363:
 496:lvgl\src\lv_font/lv_font_fmt_txt.c **** 
 2182              		.loc 1 496 0
 2183 07f4 CEF1000E 		rsb	lr, lr, #0
 2184              	.LVL364:
 2185 07f8 C2EB0E0E 		rsb	lr, r2, lr
 2186              	.LVL365:
 2187 07fc 0EF1080E 		add	lr, lr, #8
 2188              	.LVL366:
 498:lvgl\src\lv_font/lv_font_fmt_txt.c ****     out[byte_pos] &= ((~bit_mask) << bit_pos);
 2189              		.loc 1 498 0
 2190 0800 0123     		movs	r3, #1
 2191 0802 9340     		lsls	r3, r3, r2
 2192 0804 013B     		subs	r3, r3, #1
 2193 0806 DBB2     		uxtb	r3, r3
 2194              	.LVL367:
 499:lvgl\src\lv_font/lv_font_fmt_txt.c ****     out[byte_pos] |= (val << bit_pos);
 2195              		.loc 1 499 0
 2196 0808 C0F3CF08 		ubfx	r8, r0, #3, #16
 2197 080c DB43     		mvns	r3, r3
 2198              	.LVL368:
 2199 080e 03FA0EF2 		lsl	r2, r3, lr
 2200              	.LVL369:
 2201 0812 16F80830 		ldrb	r3, [r6, r8]	@ zero_extendqisi2
 2202              	.LVL370:
 2203 0816 1340     		ands	r3, r3, r2
 2204 0818 5BB2     		sxtb	r3, r3
 500:lvgl\src\lv_font/lv_font_fmt_txt.c **** }
 2205              		.loc 1 500 0
 2206 081a 01FA0EF1 		lsl	r1, r1, lr
ARM GAS  C:\Users\strap\AppData\Local\Temp\ccKJQbxb.s 			page 56


 2207              	.LVL371:
 2208 081e 0B43     		orrs	r3, r3, r1
 2209 0820 06F80830 		strb	r3, [r6, r8]
 2210              	.LVL372:
 2211              	.LBE149:
 2212              	.LBE148:
 382:lvgl\src\lv_font/lv_font_fmt_txt.c ****             }
 2213              		.loc 1 382 0
 2214 0824 4844     		add	r0, r0, r9
 2215              	.LVL373:
 379:lvgl\src\lv_font/lv_font_fmt_txt.c ****                 line_buf1[x] = line_buf2[x] ^ line_buf1[x];
 2216              		.loc 1 379 0
 2217 0826 0CF1010C 		add	ip, ip, #1
 2218              	.LVL374:
 2219 082a 0FFA8CFC 		sxth	ip, ip
 2220              	.LVL375:
 2221              	.L155:
 379:lvgl\src\lv_font/lv_font_fmt_txt.c ****                 line_buf1[x] = line_buf2[x] ^ line_buf1[x];
 2222              		.loc 1 379 0 is_stmt 0 discriminator 1
 2223 082e A445     		cmp	ip, r4
 2224 0830 B4DB     		blt	.L165
 2225 0832 07E2     		b	.L166
 2226              	.LVL376:
 2227              	.L213:
 2228              	.LBB150:
 2229              	.LBB151:
 408:lvgl\src\lv_font/lv_font_fmt_txt.c ****     }
 2230              		.loc 1 408 0 is_stmt 1
 2231 0834 05EB0E0C 		add	ip, r5, lr
 2232              	.LVL377:
 2233              	.LBB152:
 2234              	.LBB153:
 518:lvgl\src\lv_font/lv_font_fmt_txt.c ****         ret = get_bits(rle_in, rle_rdp, rle_bpp);
 2235              		.loc 1 518 0
 2236 0838 0A4B     		ldr	r3, .L255
 2237 083a 5B79     		ldrb	r3, [r3, #5]	@ zero_extendqisi2
 2238 083c 002B     		cmp	r3, #0
 2239 083e 5DD1     		bne	.L167
 519:lvgl\src\lv_font/lv_font_fmt_txt.c ****         if(rle_rdp != 0 && rle_prev_v == ret) {
 2240              		.loc 1 519 0
 2241 0840 084B     		ldr	r3, .L255
 2242 0842 1968     		ldr	r1, [r3]
 2243 0844 9A68     		ldr	r2, [r3, #8]
 2244 0846 93F80480 		ldrb	r8, [r3, #4]	@ zero_extendqisi2
 2245              	.LVL378:
 2246              	.LBB154:
 2247              	.LBB155:
 422:lvgl\src\lv_font/lv_font_fmt_txt.c ****         case 1:
 2248              		.loc 1 422 0
 2249 084a 08F1FF33 		add	r3, r8, #-1
 2250 084e 072B     		cmp	r3, #7
 2251 0850 13D8     		bhi	.L168
 2252 0852 DFE803F0 		tbb	[pc, r3]
 2253              	.L170:
 2254 0856 04       		.byte	(.L169-.L170)/2
 2255 0857 19       		.byte	(.L243-.L170)/2
 2256 0858 09       		.byte	(.L172-.L170)/2
ARM GAS  C:\Users\strap\AppData\Local\Temp\ccKJQbxb.s 			page 57


 2257 0859 0C       		.byte	(.L173-.L170)/2
 2258 085a 12       		.byte	(.L168-.L170)/2
 2259 085b 12       		.byte	(.L168-.L170)/2
 2260 085c 12       		.byte	(.L168-.L170)/2
 2261 085d 0F       		.byte	(.L174-.L170)/2
 2262              		.p2align 1
 2263              	.L169:
 424:lvgl\src\lv_font/lv_font_fmt_txt.c ****             break;
 2264              		.loc 1 424 0
 2265 085e 4FF0010A 		mov	r10, #1
 2266 0862 13E0     		b	.L171
 2267              	.L256:
 2268              		.align	2
 2269              	.L255:
 2270 0864 00000000 		.word	.LANCHOR0
 2271              	.L172:
 2272              	.LVL379:
 430:lvgl\src\lv_font/lv_font_fmt_txt.c ****             break;
 2273              		.loc 1 430 0
 2274 0868 4FF0070A 		mov	r10, #7
 2275 086c 0EE0     		b	.L171
 2276              	.LVL380:
 2277              	.L173:
 433:lvgl\src\lv_font/lv_font_fmt_txt.c ****             break;
 2278              		.loc 1 433 0
 2279 086e 4FF00F0A 		mov	r10, #15
 2280 0872 0BE0     		b	.L171
 2281              	.LVL381:
 2282              	.L174:
 436:lvgl\src\lv_font/lv_font_fmt_txt.c ****             break;
 2283              		.loc 1 436 0
 2284 0874 4FF0FF0A 		mov	r10, #255
 2285 0878 08E0     		b	.L171
 2286              	.LVL382:
 2287              	.L168:
 439:lvgl\src\lv_font/lv_font_fmt_txt.c ****     }
 2288              		.loc 1 439 0
 2289 087a 0123     		movs	r3, #1
 2290 087c 03FA08F3 		lsl	r3, r3, r8
 2291 0880 013B     		subs	r3, r3, #1
 2292 0882 5FFA83FA 		uxtb	r10, r3
 2293              	.LVL383:
 2294 0886 01E0     		b	.L171
 2295              	.LVL384:
 2296              	.L243:
 427:lvgl\src\lv_font/lv_font_fmt_txt.c ****             break;
 2297              		.loc 1 427 0
 2298 0888 4FF0030A 		mov	r10, #3
 2299              	.L171:
 2300              	.LVL385:
 442:lvgl\src\lv_font/lv_font_fmt_txt.c ****     bit_pos = bit_pos & 0x7;
 2301              		.loc 1 442 0
 2302 088c 4FEAD209 		lsr	r9, r2, #3
 2303              	.LVL386:
 443:lvgl\src\lv_font/lv_font_fmt_txt.c **** 
 2304              		.loc 1 443 0
 2305 0890 02F0070B 		and	fp, r2, #7
ARM GAS  C:\Users\strap\AppData\Local\Temp\ccKJQbxb.s 			page 58


 2306              	.LVL387:
 445:lvgl\src\lv_font/lv_font_fmt_txt.c ****         uint16_t in16 = (in[byte_pos] << 8) + in[byte_pos + 1];
 2307              		.loc 1 445 0
 2308 0894 0BEB0803 		add	r3, fp, r8
 2309 0898 072B     		cmp	r3, #7
 2310 089a 12D9     		bls	.L175
 2311              	.LBB156:
 446:lvgl\src\lv_font/lv_font_fmt_txt.c ****         return (in16 >> (16 - bit_pos - len)) & bit_mask;
 2312              		.loc 1 446 0
 2313 089c 11F80930 		ldrb	r3, [r1, r9]	@ zero_extendqisi2
 2314 08a0 8944     		add	r9, r9, r1
 2315              	.LVL388:
 2316 08a2 99F80190 		ldrb	r9, [r9, #1]	@ zero_extendqisi2
 2317 08a6 09EB0329 		add	r9, r9, r3, lsl #8
 2318 08aa 1FFA89F9 		uxth	r9, r9
 2319              	.LVL389:
 447:lvgl\src\lv_font/lv_font_fmt_txt.c ****     }
 2320              		.loc 1 447 0
 2321 08ae CBF10003 		rsb	r3, fp, #0
 2322 08b2 C8EB0303 		rsb	r3, r8, r3
 2323 08b6 1033     		adds	r3, r3, #16
 2324 08b8 49FA03F3 		asr	r3, r9, r3
 2325 08bc 03EA0A03 		and	r3, r3, r10
 2326 08c0 09E0     		b	.L176
 2327              	.LVL390:
 2328              	.L175:
 2329              	.LBE156:
 450:lvgl\src\lv_font/lv_font_fmt_txt.c ****     }
 2330              		.loc 1 450 0
 2331 08c2 11F80930 		ldrb	r3, [r1, r9]	@ zero_extendqisi2
 2332 08c6 CBF10001 		rsb	r1, fp, #0
 2333              	.LVL391:
 2334 08ca C8EB0101 		rsb	r1, r8, r1
 2335 08ce 0831     		adds	r1, r1, #8
 2336 08d0 0B41     		asrs	r3, r3, r1
 2337 08d2 03EA0A03 		and	r3, r3, r10
 2338              	.LVL392:
 2339              	.L176:
 2340              	.LBE155:
 2341              	.LBE154:
 520:lvgl\src\lv_font/lv_font_fmt_txt.c ****             rle_cnt = 0;
 2342              		.loc 1 520 0
 2343 08d6 62B1     		cbz	r2, .L177
 2344 08d8 B449     		ldr	r1, .L257
 2345 08da 097B     		ldrb	r1, [r1, #12]	@ zero_extendqisi2
 2346 08dc 9942     		cmp	r1, r3
 2347 08de 08D1     		bne	.L177
 521:lvgl\src\lv_font/lv_font_fmt_txt.c ****             rle_state = RLE_STATE_REPEATE;
 2348              		.loc 1 521 0
 2349 08e0 B249     		ldr	r1, .L257
 2350 08e2 4FF00009 		mov	r9, #0
 2351 08e6 81F80D90 		strb	r9, [r1, #13]
 522:lvgl\src\lv_font/lv_font_fmt_txt.c ****         }
 2352              		.loc 1 522 0
 2353 08ea 4FF00109 		mov	r9, #1
 2354 08ee 81F80590 		strb	r9, [r1, #5]
 2355              	.L177:
ARM GAS  C:\Users\strap\AppData\Local\Temp\ccKJQbxb.s 			page 59


 525:lvgl\src\lv_font/lv_font_fmt_txt.c ****         rle_rdp += rle_bpp;
 2356              		.loc 1 525 0
 2357 08f2 AE49     		ldr	r1, .L257
 2358 08f4 0B73     		strb	r3, [r1, #12]
 526:lvgl\src\lv_font/lv_font_fmt_txt.c ****     }
 2359              		.loc 1 526 0
 2360 08f6 4244     		add	r2, r2, r8
 2361 08f8 8A60     		str	r2, [r1, #8]
 2362 08fa 48E1     		b	.L178
 2363              	.LVL393:
 2364              	.L167:
 528:lvgl\src\lv_font/lv_font_fmt_txt.c ****         v = get_bits(rle_in, rle_rdp, 1);
 2365              		.loc 1 528 0
 2366 08fc 012B     		cmp	r3, #1
 2367 08fe 40F0EF80 		bne	.L179
 529:lvgl\src\lv_font/lv_font_fmt_txt.c ****         rle_cnt++;
 2368              		.loc 1 529 0
 2369 0902 AA4B     		ldr	r3, .L257
 2370 0904 D3F80080 		ldr	r8, [r3]
 2371 0908 9A68     		ldr	r2, [r3, #8]
 2372              	.LVL394:
 2373              	.LBB157:
 2374              	.LBB158:
 442:lvgl\src\lv_font/lv_font_fmt_txt.c ****     bit_pos = bit_pos & 0x7;
 2375              		.loc 1 442 0
 2376 090a D108     		lsrs	r1, r2, #3
 2377              	.LVL395:
 443:lvgl\src\lv_font/lv_font_fmt_txt.c **** 
 2378              		.loc 1 443 0
 2379 090c 02F00703 		and	r3, r2, #7
 2380              	.LVL396:
 445:lvgl\src\lv_font/lv_font_fmt_txt.c ****         uint16_t in16 = (in[byte_pos] << 8) + in[byte_pos + 1];
 2381              		.loc 1 445 0
 2382 0910 03F10109 		add	r9, r3, #1
 2383 0914 B9F1070F 		cmp	r9, #7
 2384 0918 0DD9     		bls	.L180
 2385              	.LBB159:
 446:lvgl\src\lv_font/lv_font_fmt_txt.c ****         return (in16 >> (16 - bit_pos - len)) & bit_mask;
 2386              		.loc 1 446 0
 2387 091a 18F80190 		ldrb	r9, [r8, r1]	@ zero_extendqisi2
 2388 091e 4144     		add	r1, r1, r8
 2389              	.LVL397:
 2390 0920 4978     		ldrb	r1, [r1, #1]	@ zero_extendqisi2
 2391 0922 01EB0921 		add	r1, r1, r9, lsl #8
 2392 0926 89B2     		uxth	r1, r1
 2393              	.LVL398:
 447:lvgl\src\lv_font/lv_font_fmt_txt.c ****     }
 2394              		.loc 1 447 0
 2395 0928 C3F10F03 		rsb	r3, r3, #15
 2396              	.LVL399:
 2397 092c 41FA03F3 		asr	r3, r1, r3
 2398 0930 03F00103 		and	r3, r3, #1
 2399 0934 07E0     		b	.L181
 2400              	.LVL400:
 2401              	.L180:
 2402              	.LBE159:
 450:lvgl\src\lv_font/lv_font_fmt_txt.c ****     }
ARM GAS  C:\Users\strap\AppData\Local\Temp\ccKJQbxb.s 			page 60


 2403              		.loc 1 450 0
 2404 0936 18F80110 		ldrb	r1, [r8, r1]	@ zero_extendqisi2
 2405              	.LVL401:
 2406 093a C3F10703 		rsb	r3, r3, #7
 2407              	.LVL402:
 2408 093e 41FA03F3 		asr	r3, r1, r3
 2409 0942 03F00103 		and	r3, r3, #1
 2410              	.LVL403:
 2411              	.L181:
 2412              	.LBE158:
 2413              	.LBE157:
 530:lvgl\src\lv_font/lv_font_fmt_txt.c ****         rle_rdp += 1;
 2414              		.loc 1 530 0
 2415 0946 DFF86492 		ldr	r9, .L257
 2416 094a 99F80D10 		ldrb	r1, [r9, #13]	@ zero_extendqisi2
 2417 094e 0131     		adds	r1, r1, #1
 2418 0950 C9B2     		uxtb	r1, r1
 2419 0952 89F80D10 		strb	r1, [r9, #13]
 531:lvgl\src\lv_font/lv_font_fmt_txt.c ****         if(v == 1) {
 2420              		.loc 1 531 0
 2421 0956 0132     		adds	r2, r2, #1
 2422 0958 C9F80820 		str	r2, [r9, #8]
 532:lvgl\src\lv_font/lv_font_fmt_txt.c ****             ret = rle_prev_v;
 2423              		.loc 1 532 0
 2424 095c 002B     		cmp	r3, #0
 2425 095e 75D0     		beq	.L182
 533:lvgl\src\lv_font/lv_font_fmt_txt.c ****             if(rle_cnt == 11) {
 2426              		.loc 1 533 0
 2427 0960 99F80C30 		ldrb	r3, [r9, #12]	@ zero_extendqisi2
 2428              	.LVL404:
 534:lvgl\src\lv_font/lv_font_fmt_txt.c ****                 rle_cnt = get_bits(rle_in, rle_rdp, 6);
 2429              		.loc 1 534 0
 2430 0964 0B29     		cmp	r1, #11
 2431 0966 40F01281 		bne	.L178
 2432              	.LVL405:
 2433              	.LBB160:
 2434              	.LBB161:
 442:lvgl\src\lv_font/lv_font_fmt_txt.c ****     bit_pos = bit_pos & 0x7;
 2435              		.loc 1 442 0
 2436 096a 4FEAD20A 		lsr	r10, r2, #3
 2437              	.LVL406:
 443:lvgl\src\lv_font/lv_font_fmt_txt.c **** 
 2438              		.loc 1 443 0
 2439 096e 02F00709 		and	r9, r2, #7
 2440              	.LVL407:
 445:lvgl\src\lv_font/lv_font_fmt_txt.c ****         uint16_t in16 = (in[byte_pos] << 8) + in[byte_pos + 1];
 2441              		.loc 1 445 0
 2442 0972 09F10601 		add	r1, r9, #6
 2443 0976 0729     		cmp	r1, #7
 2444 0978 0ED9     		bls	.L183
 2445              	.LBB162:
 446:lvgl\src\lv_font/lv_font_fmt_txt.c ****         return (in16 >> (16 - bit_pos - len)) & bit_mask;
 2446              		.loc 1 446 0
 2447 097a 18F80AB0 		ldrb	fp, [r8, r10]	@ zero_extendqisi2
 2448 097e C244     		add	r10, r10, r8
 2449              	.LVL408:
 2450 0980 9AF80110 		ldrb	r1, [r10, #1]	@ zero_extendqisi2
ARM GAS  C:\Users\strap\AppData\Local\Temp\ccKJQbxb.s 			page 61


 2451 0984 01EB0B21 		add	r1, r1, fp, lsl #8
 2452 0988 89B2     		uxth	r1, r1
 2453              	.LVL409:
 447:lvgl\src\lv_font/lv_font_fmt_txt.c ****     }
 2454              		.loc 1 447 0
 2455 098a C9F10A09 		rsb	r9, r9, #10
 2456              	.LVL410:
 2457 098e 41FA09F1 		asr	r1, r1, r9
 2458              	.LVL411:
 2459 0992 01F03F01 		and	r1, r1, #63
 2460 0996 07E0     		b	.L184
 2461              	.LVL412:
 2462              	.L183:
 2463              	.LBE162:
 450:lvgl\src\lv_font/lv_font_fmt_txt.c ****     }
 2464              		.loc 1 450 0
 2465 0998 18F80A10 		ldrb	r1, [r8, r10]	@ zero_extendqisi2
 2466 099c C9F10209 		rsb	r9, r9, #2
 2467              	.LVL413:
 2468 09a0 41FA09F1 		asr	r1, r1, r9
 2469 09a4 01F03F01 		and	r1, r1, #63
 2470              	.LVL414:
 2471              	.L184:
 2472              	.LBE161:
 2473              	.LBE160:
 535:lvgl\src\lv_font/lv_font_fmt_txt.c ****                 rle_rdp += 6;
 2474              		.loc 1 535 0
 2475 09a8 DFF80092 		ldr	r9, .L257
 2476 09ac 89F80D10 		strb	r1, [r9, #13]
 536:lvgl\src\lv_font/lv_font_fmt_txt.c ****                 if(rle_cnt != 0) {
 2477              		.loc 1 536 0
 2478 09b0 0632     		adds	r2, r2, #6
 2479 09b2 C9F80820 		str	r2, [r9, #8]
 537:lvgl\src\lv_font/lv_font_fmt_txt.c ****                     rle_state = RLE_STATE_COUNTER;
 2480              		.loc 1 537 0
 2481 09b6 19B1     		cbz	r1, .L185
 538:lvgl\src\lv_font/lv_font_fmt_txt.c ****                 }
 2482              		.loc 1 538 0
 2483 09b8 0221     		movs	r1, #2
 2484 09ba 89F80510 		strb	r1, [r9, #5]
 2485 09be E6E0     		b	.L178
 2486              	.L185:
 541:lvgl\src\lv_font/lv_font_fmt_txt.c ****                     rle_prev_v = ret;
 2487              		.loc 1 541 0
 2488 09c0 7A4B     		ldr	r3, .L257
 2489              	.LVL415:
 2490 09c2 93F80490 		ldrb	r9, [r3, #4]	@ zero_extendqisi2
 2491              	.LVL416:
 2492              	.LBB163:
 2493              	.LBB164:
 422:lvgl\src\lv_font/lv_font_fmt_txt.c ****         case 1:
 2494              		.loc 1 422 0
 2495 09c6 09F1FF33 		add	r3, r9, #-1
 2496 09ca 072B     		cmp	r3, #7
 2497 09cc 0DD8     		bhi	.L186
 2498 09ce DFE803F0 		tbb	[pc, r3]
 2499              	.L188:
ARM GAS  C:\Users\strap\AppData\Local\Temp\ccKJQbxb.s 			page 62


 2500 09d2 04       		.byte	(.L187-.L188)/2
 2501 09d3 12       		.byte	(.L244-.L188)/2
 2502 09d4 06       		.byte	(.L190-.L188)/2
 2503 09d5 08       		.byte	(.L191-.L188)/2
 2504 09d6 0C       		.byte	(.L186-.L188)/2
 2505 09d7 0C       		.byte	(.L186-.L188)/2
 2506 09d8 0C       		.byte	(.L186-.L188)/2
 2507 09d9 0A       		.byte	(.L192-.L188)/2
 2508              		.p2align 1
 2509              	.L187:
 424:lvgl\src\lv_font/lv_font_fmt_txt.c ****             break;
 2510              		.loc 1 424 0
 2511 09da 0123     		movs	r3, #1
 2512 09dc 0CE0     		b	.L189
 2513              	.L190:
 2514              	.LVL417:
 430:lvgl\src\lv_font/lv_font_fmt_txt.c ****             break;
 2515              		.loc 1 430 0
 2516 09de 0723     		movs	r3, #7
 2517 09e0 0AE0     		b	.L189
 2518              	.LVL418:
 2519              	.L191:
 433:lvgl\src\lv_font/lv_font_fmt_txt.c ****             break;
 2520              		.loc 1 433 0
 2521 09e2 0F23     		movs	r3, #15
 2522 09e4 08E0     		b	.L189
 2523              	.LVL419:
 2524              	.L192:
 436:lvgl\src\lv_font/lv_font_fmt_txt.c ****             break;
 2525              		.loc 1 436 0
 2526 09e6 FF23     		movs	r3, #255
 2527 09e8 06E0     		b	.L189
 2528              	.LVL420:
 2529              	.L186:
 439:lvgl\src\lv_font/lv_font_fmt_txt.c ****     }
 2530              		.loc 1 439 0
 2531 09ea 0123     		movs	r3, #1
 2532 09ec 03FA09F3 		lsl	r3, r3, r9
 2533 09f0 013B     		subs	r3, r3, #1
 2534 09f2 DBB2     		uxtb	r3, r3
 2535              	.LVL421:
 2536 09f4 00E0     		b	.L189
 2537              	.LVL422:
 2538              	.L244:
 427:lvgl\src\lv_font/lv_font_fmt_txt.c ****             break;
 2539              		.loc 1 427 0
 2540 09f6 0323     		movs	r3, #3
 2541              	.L189:
 2542              	.LVL423:
 442:lvgl\src\lv_font/lv_font_fmt_txt.c ****     bit_pos = bit_pos & 0x7;
 2543              		.loc 1 442 0
 2544 09f8 4FEAD20A 		lsr	r10, r2, #3
 2545              	.LVL424:
 443:lvgl\src\lv_font/lv_font_fmt_txt.c **** 
 2546              		.loc 1 443 0
 2547 09fc 02F00701 		and	r1, r2, #7
 2548              	.LVL425:
ARM GAS  C:\Users\strap\AppData\Local\Temp\ccKJQbxb.s 			page 63


 445:lvgl\src\lv_font/lv_font_fmt_txt.c ****         uint16_t in16 = (in[byte_pos] << 8) + in[byte_pos + 1];
 2549              		.loc 1 445 0
 2550 0a00 01EB090B 		add	fp, r1, r9
 2551 0a04 BBF1070F 		cmp	fp, #7
 2552 0a08 10D9     		bls	.L193
 2553              	.LBB165:
 446:lvgl\src\lv_font/lv_font_fmt_txt.c ****         return (in16 >> (16 - bit_pos - len)) & bit_mask;
 2554              		.loc 1 446 0
 2555 0a0a 18F80AB0 		ldrb	fp, [r8, r10]	@ zero_extendqisi2
 2556 0a0e D044     		add	r8, r8, r10
 2557              	.LVL426:
 2558 0a10 98F80180 		ldrb	r8, [r8, #1]	@ zero_extendqisi2
 2559 0a14 08EB0B28 		add	r8, r8, fp, lsl #8
 2560 0a18 1FFA88F8 		uxth	r8, r8
 2561              	.LVL427:
 447:lvgl\src\lv_font/lv_font_fmt_txt.c ****     }
 2562              		.loc 1 447 0
 2563 0a1c 4942     		negs	r1, r1
 2564              	.LVL428:
 2565 0a1e C9EB0101 		rsb	r1, r9, r1
 2566              	.LVL429:
 2567 0a22 1031     		adds	r1, r1, #16
 2568 0a24 48FA01F1 		asr	r1, r8, r1
 2569 0a28 0B40     		ands	r3, r3, r1
 2570              	.LVL430:
 2571 0a2a 08E0     		b	.L194
 2572              	.LVL431:
 2573              	.L193:
 2574              	.LBE165:
 450:lvgl\src\lv_font/lv_font_fmt_txt.c ****     }
 2575              		.loc 1 450 0
 2576 0a2c 18F80A80 		ldrb	r8, [r8, r10]	@ zero_extendqisi2
 2577              	.LVL432:
 2578 0a30 4942     		negs	r1, r1
 2579              	.LVL433:
 2580 0a32 C9EB0101 		rsb	r1, r9, r1
 2581              	.LVL434:
 2582 0a36 0831     		adds	r1, r1, #8
 2583 0a38 48FA01F1 		asr	r1, r8, r1
 2584 0a3c 0B40     		ands	r3, r3, r1
 2585              	.LVL435:
 2586              	.L194:
 2587              	.LBE164:
 2588              	.LBE163:
 542:lvgl\src\lv_font/lv_font_fmt_txt.c ****                     rle_rdp += rle_bpp;
 2589              		.loc 1 542 0
 2590 0a3e 5B49     		ldr	r1, .L257
 2591 0a40 0B73     		strb	r3, [r1, #12]
 543:lvgl\src\lv_font/lv_font_fmt_txt.c ****                     rle_state = RLE_STATE_SINGLE;
 2592              		.loc 1 543 0
 2593 0a42 4A44     		add	r2, r2, r9
 2594 0a44 8A60     		str	r2, [r1, #8]
 544:lvgl\src\lv_font/lv_font_fmt_txt.c ****                 }
 2595              		.loc 1 544 0
 2596 0a46 0022     		movs	r2, #0
 2597 0a48 4A71     		strb	r2, [r1, #5]
 2598 0a4a A0E0     		b	.L178
ARM GAS  C:\Users\strap\AppData\Local\Temp\ccKJQbxb.s 			page 64


 2599              	.LVL436:
 2600              	.L182:
 549:lvgl\src\lv_font/lv_font_fmt_txt.c ****             rle_prev_v = ret;
 2601              		.loc 1 549 0
 2602 0a4c 574B     		ldr	r3, .L257
 2603 0a4e 93F80490 		ldrb	r9, [r3, #4]	@ zero_extendqisi2
 2604              	.LVL437:
 2605              	.LBB166:
 2606              	.LBB167:
 422:lvgl\src\lv_font/lv_font_fmt_txt.c ****         case 1:
 2607              		.loc 1 422 0
 2608 0a52 09F1FF33 		add	r3, r9, #-1
 2609 0a56 072B     		cmp	r3, #7
 2610 0a58 11D8     		bhi	.L195
 2611 0a5a DFE803F0 		tbb	[pc, r3]
 2612              	.L197:
 2613 0a5e 04       		.byte	(.L196-.L197)/2
 2614 0a5f 17       		.byte	(.L245-.L197)/2
 2615 0a60 07       		.byte	(.L199-.L197)/2
 2616 0a61 0A       		.byte	(.L200-.L197)/2
 2617 0a62 10       		.byte	(.L195-.L197)/2
 2618 0a63 10       		.byte	(.L195-.L197)/2
 2619 0a64 10       		.byte	(.L195-.L197)/2
 2620 0a65 0D       		.byte	(.L201-.L197)/2
 2621              		.p2align 1
 2622              	.L196:
 424:lvgl\src\lv_font/lv_font_fmt_txt.c ****             break;
 2623              		.loc 1 424 0
 2624 0a66 4FF0010A 		mov	r10, #1
 2625 0a6a 11E0     		b	.L198
 2626              	.L199:
 2627              	.LVL438:
 430:lvgl\src\lv_font/lv_font_fmt_txt.c ****             break;
 2628              		.loc 1 430 0
 2629 0a6c 4FF0070A 		mov	r10, #7
 2630 0a70 0EE0     		b	.L198
 2631              	.LVL439:
 2632              	.L200:
 433:lvgl\src\lv_font/lv_font_fmt_txt.c ****             break;
 2633              		.loc 1 433 0
 2634 0a72 4FF00F0A 		mov	r10, #15
 2635 0a76 0BE0     		b	.L198
 2636              	.LVL440:
 2637              	.L201:
 436:lvgl\src\lv_font/lv_font_fmt_txt.c ****             break;
 2638              		.loc 1 436 0
 2639 0a78 4FF0FF0A 		mov	r10, #255
 2640 0a7c 08E0     		b	.L198
 2641              	.LVL441:
 2642              	.L195:
 439:lvgl\src\lv_font/lv_font_fmt_txt.c ****     }
 2643              		.loc 1 439 0
 2644 0a7e 0123     		movs	r3, #1
 2645 0a80 03FA09F3 		lsl	r3, r3, r9
 2646 0a84 013B     		subs	r3, r3, #1
 2647 0a86 5FFA83FA 		uxtb	r10, r3
 2648              	.LVL442:
ARM GAS  C:\Users\strap\AppData\Local\Temp\ccKJQbxb.s 			page 65


 2649 0a8a 01E0     		b	.L198
 2650              	.LVL443:
 2651              	.L245:
 427:lvgl\src\lv_font/lv_font_fmt_txt.c ****             break;
 2652              		.loc 1 427 0
 2653 0a8c 4FF0030A 		mov	r10, #3
 2654              	.L198:
 2655              	.LVL444:
 442:lvgl\src\lv_font/lv_font_fmt_txt.c ****     bit_pos = bit_pos & 0x7;
 2656              		.loc 1 442 0
 2657 0a90 D308     		lsrs	r3, r2, #3
 2658              	.LVL445:
 443:lvgl\src\lv_font/lv_font_fmt_txt.c **** 
 2659              		.loc 1 443 0
 2660 0a92 02F00701 		and	r1, r2, #7
 2661              	.LVL446:
 445:lvgl\src\lv_font/lv_font_fmt_txt.c ****         uint16_t in16 = (in[byte_pos] << 8) + in[byte_pos + 1];
 2662              		.loc 1 445 0
 2663 0a96 01EB090B 		add	fp, r1, r9
 2664 0a9a BBF1070F 		cmp	fp, #7
 2665 0a9e 0FD9     		bls	.L202
 2666              	.LBB168:
 446:lvgl\src\lv_font/lv_font_fmt_txt.c ****         return (in16 >> (16 - bit_pos - len)) & bit_mask;
 2667              		.loc 1 446 0
 2668 0aa0 18F803B0 		ldrb	fp, [r8, r3]	@ zero_extendqisi2
 2669 0aa4 9844     		add	r8, r8, r3
 2670              	.LVL447:
 2671 0aa6 98F80130 		ldrb	r3, [r8, #1]	@ zero_extendqisi2
 2672              	.LVL448:
 2673 0aaa 03EB0B23 		add	r3, r3, fp, lsl #8
 2674 0aae 9BB2     		uxth	r3, r3
 2675              	.LVL449:
 447:lvgl\src\lv_font/lv_font_fmt_txt.c ****     }
 2676              		.loc 1 447 0
 2677 0ab0 4942     		negs	r1, r1
 2678              	.LVL450:
 2679 0ab2 C9EB0101 		rsb	r1, r9, r1
 2680              	.LVL451:
 2681 0ab6 1031     		adds	r1, r1, #16
 2682 0ab8 0B41     		asrs	r3, r3, r1
 2683              	.LVL452:
 2684 0aba 03EA0A03 		and	r3, r3, r10
 2685 0abe 08E0     		b	.L203
 2686              	.LVL453:
 2687              	.L202:
 2688              	.LBE168:
 450:lvgl\src\lv_font/lv_font_fmt_txt.c ****     }
 2689              		.loc 1 450 0
 2690 0ac0 18F80330 		ldrb	r3, [r8, r3]	@ zero_extendqisi2
 2691              	.LVL454:
 2692 0ac4 4942     		negs	r1, r1
 2693              	.LVL455:
 2694 0ac6 C9EB0101 		rsb	r1, r9, r1
 2695              	.LVL456:
 2696 0aca 0831     		adds	r1, r1, #8
 2697 0acc 0B41     		asrs	r3, r3, r1
 2698 0ace 03EA0A03 		and	r3, r3, r10
ARM GAS  C:\Users\strap\AppData\Local\Temp\ccKJQbxb.s 			page 66


 2699              	.LVL457:
 2700              	.L203:
 2701              	.LBE167:
 2702              	.LBE166:
 550:lvgl\src\lv_font/lv_font_fmt_txt.c ****             rle_rdp += rle_bpp;
 2703              		.loc 1 550 0
 2704 0ad2 3649     		ldr	r1, .L257
 2705 0ad4 0B73     		strb	r3, [r1, #12]
 551:lvgl\src\lv_font/lv_font_fmt_txt.c ****             rle_state = RLE_STATE_SINGLE;
 2706              		.loc 1 551 0
 2707 0ad6 4A44     		add	r2, r2, r9
 2708 0ad8 8A60     		str	r2, [r1, #8]
 552:lvgl\src\lv_font/lv_font_fmt_txt.c ****         }
 2709              		.loc 1 552 0
 2710 0ada 0022     		movs	r2, #0
 2711 0adc 4A71     		strb	r2, [r1, #5]
 2712 0ade 56E0     		b	.L178
 2713              	.LVL458:
 2714              	.L179:
 557:lvgl\src\lv_font/lv_font_fmt_txt.c ****         ret = rle_prev_v;
 2715              		.loc 1 557 0
 2716 0ae0 022B     		cmp	r3, #2
 2717 0ae2 53D1     		bne	.L246
 558:lvgl\src\lv_font/lv_font_fmt_txt.c ****         rle_cnt--;
 2718              		.loc 1 558 0
 2719 0ae4 3149     		ldr	r1, .L257
 2720 0ae6 0B7B     		ldrb	r3, [r1, #12]	@ zero_extendqisi2
 2721              	.LVL459:
 559:lvgl\src\lv_font/lv_font_fmt_txt.c ****         if(rle_cnt == 0) {
 2722              		.loc 1 559 0
 2723 0ae8 4A7B     		ldrb	r2, [r1, #13]	@ zero_extendqisi2
 2724 0aea 013A     		subs	r2, r2, #1
 2725 0aec D2B2     		uxtb	r2, r2
 2726 0aee 4A73     		strb	r2, [r1, #13]
 560:lvgl\src\lv_font/lv_font_fmt_txt.c ****             ret = get_bits(rle_in, rle_rdp, rle_bpp);
 2727              		.loc 1 560 0
 2728 0af0 002A     		cmp	r2, #0
 2729 0af2 4CD1     		bne	.L178
 561:lvgl\src\lv_font/lv_font_fmt_txt.c ****             rle_prev_v = ret;
 2730              		.loc 1 561 0
 2731 0af4 0B46     		mov	r3, r1
 2732              	.LVL460:
 2733 0af6 D1F800A0 		ldr	r10, [r1]
 2734 0afa 8968     		ldr	r1, [r1, #8]
 2735 0afc 93F80480 		ldrb	r8, [r3, #4]	@ zero_extendqisi2
 2736              	.LVL461:
 2737              	.LBB169:
 2738              	.LBB170:
 422:lvgl\src\lv_font/lv_font_fmt_txt.c ****         case 1:
 2739              		.loc 1 422 0
 2740 0b00 08F1FF33 		add	r3, r8, #-1
 2741 0b04 072B     		cmp	r3, #7
 2742 0b06 11D8     		bhi	.L204
 2743 0b08 DFE803F0 		tbb	[pc, r3]
 2744              	.L206:
 2745 0b0c 04       		.byte	(.L205-.L206)/2
 2746 0b0d 17       		.byte	(.L247-.L206)/2
ARM GAS  C:\Users\strap\AppData\Local\Temp\ccKJQbxb.s 			page 67


 2747 0b0e 07       		.byte	(.L208-.L206)/2
 2748 0b0f 0A       		.byte	(.L209-.L206)/2
 2749 0b10 10       		.byte	(.L204-.L206)/2
 2750 0b11 10       		.byte	(.L204-.L206)/2
 2751 0b12 10       		.byte	(.L204-.L206)/2
 2752 0b13 0D       		.byte	(.L210-.L206)/2
 2753              		.p2align 1
 2754              	.L205:
 424:lvgl\src\lv_font/lv_font_fmt_txt.c ****             break;
 2755              		.loc 1 424 0
 2756 0b14 4FF00109 		mov	r9, #1
 2757 0b18 11E0     		b	.L207
 2758              	.L208:
 2759              	.LVL462:
 430:lvgl\src\lv_font/lv_font_fmt_txt.c ****             break;
 2760              		.loc 1 430 0
 2761 0b1a 4FF00709 		mov	r9, #7
 2762 0b1e 0EE0     		b	.L207
 2763              	.LVL463:
 2764              	.L209:
 433:lvgl\src\lv_font/lv_font_fmt_txt.c ****             break;
 2765              		.loc 1 433 0
 2766 0b20 4FF00F09 		mov	r9, #15
 2767 0b24 0BE0     		b	.L207
 2768              	.LVL464:
 2769              	.L210:
 436:lvgl\src\lv_font/lv_font_fmt_txt.c ****             break;
 2770              		.loc 1 436 0
 2771 0b26 4FF0FF09 		mov	r9, #255
 2772 0b2a 08E0     		b	.L207
 2773              	.LVL465:
 2774              	.L204:
 439:lvgl\src\lv_font/lv_font_fmt_txt.c ****     }
 2775              		.loc 1 439 0
 2776 0b2c 0123     		movs	r3, #1
 2777 0b2e 03FA08F3 		lsl	r3, r3, r8
 2778 0b32 013B     		subs	r3, r3, #1
 2779 0b34 5FFA83F9 		uxtb	r9, r3
 2780              	.LVL466:
 2781 0b38 01E0     		b	.L207
 2782              	.LVL467:
 2783              	.L247:
 427:lvgl\src\lv_font/lv_font_fmt_txt.c ****             break;
 2784              		.loc 1 427 0
 2785 0b3a 4FF00309 		mov	r9, #3
 2786              	.L207:
 2787              	.LVL468:
 442:lvgl\src\lv_font/lv_font_fmt_txt.c ****     bit_pos = bit_pos & 0x7;
 2788              		.loc 1 442 0
 2789 0b3e CB08     		lsrs	r3, r1, #3
 2790              	.LVL469:
 443:lvgl\src\lv_font/lv_font_fmt_txt.c **** 
 2791              		.loc 1 443 0
 2792 0b40 01F00702 		and	r2, r1, #7
 2793              	.LVL470:
 445:lvgl\src\lv_font/lv_font_fmt_txt.c ****         uint16_t in16 = (in[byte_pos] << 8) + in[byte_pos + 1];
 2794              		.loc 1 445 0
ARM GAS  C:\Users\strap\AppData\Local\Temp\ccKJQbxb.s 			page 68


 2795 0b44 02EB080B 		add	fp, r2, r8
 2796 0b48 BBF1070F 		cmp	fp, #7
 2797 0b4c 0ED9     		bls	.L211
 2798              	.LBB171:
 446:lvgl\src\lv_font/lv_font_fmt_txt.c ****         return (in16 >> (16 - bit_pos - len)) & bit_mask;
 2799              		.loc 1 446 0
 2800 0b4e 1AF803B0 		ldrb	fp, [r10, r3]	@ zero_extendqisi2
 2801 0b52 5344     		add	r3, r3, r10
 2802              	.LVL471:
 2803 0b54 5B78     		ldrb	r3, [r3, #1]	@ zero_extendqisi2
 2804 0b56 03EB0B23 		add	r3, r3, fp, lsl #8
 2805 0b5a 9BB2     		uxth	r3, r3
 2806              	.LVL472:
 447:lvgl\src\lv_font/lv_font_fmt_txt.c ****     }
 2807              		.loc 1 447 0
 2808 0b5c 5242     		negs	r2, r2
 2809              	.LVL473:
 2810 0b5e C8EB0202 		rsb	r2, r8, r2
 2811              	.LVL474:
 2812 0b62 1032     		adds	r2, r2, #16
 2813 0b64 1341     		asrs	r3, r3, r2
 2814              	.LVL475:
 2815 0b66 03EA0903 		and	r3, r3, r9
 2816 0b6a 08E0     		b	.L212
 2817              	.LVL476:
 2818              	.L211:
 2819              	.LBE171:
 450:lvgl\src\lv_font/lv_font_fmt_txt.c ****     }
 2820              		.loc 1 450 0
 2821 0b6c 1AF80330 		ldrb	r3, [r10, r3]	@ zero_extendqisi2
 2822              	.LVL477:
 2823 0b70 5242     		negs	r2, r2
 2824              	.LVL478:
 2825 0b72 C8EB0202 		rsb	r2, r8, r2
 2826              	.LVL479:
 2827 0b76 0832     		adds	r2, r2, #8
 2828 0b78 1341     		asrs	r3, r3, r2
 2829 0b7a 03EA0903 		and	r3, r3, r9
 2830              	.L212:
 2831              	.LVL480:
 2832              	.LBE170:
 2833              	.LBE169:
 562:lvgl\src\lv_font/lv_font_fmt_txt.c ****             rle_rdp += rle_bpp;
 2834              		.loc 1 562 0
 2835 0b7e 0B4A     		ldr	r2, .L257
 2836 0b80 1373     		strb	r3, [r2, #12]
 563:lvgl\src\lv_font/lv_font_fmt_txt.c ****             rle_state = RLE_STATE_SINGLE;
 2837              		.loc 1 563 0
 2838 0b82 4144     		add	r1, r1, r8
 2839 0b84 9160     		str	r1, [r2, #8]
 564:lvgl\src\lv_font/lv_font_fmt_txt.c ****         }
 2840              		.loc 1 564 0
 2841 0b86 0021     		movs	r1, #0
 2842 0b88 5171     		strb	r1, [r2, #5]
 2843 0b8a 00E0     		b	.L178
 2844              	.LVL481:
 2845              	.L246:
ARM GAS  C:\Users\strap\AppData\Local\Temp\ccKJQbxb.s 			page 69


 516:lvgl\src\lv_font/lv_font_fmt_txt.c **** 
 2846              		.loc 1 516 0
 2847 0b8c 0023     		movs	r3, #0
 2848              	.LVL482:
 2849              	.L178:
 2850              	.LBE153:
 2851              	.LBE152:
 408:lvgl\src\lv_font/lv_font_fmt_txt.c ****     }
 2852              		.loc 1 408 0
 2853 0b8e 8CF80030 		strb	r3, [ip]
 407:lvgl\src\lv_font/lv_font_fmt_txt.c ****         out[i] = rle_next();
 2854              		.loc 1 407 0
 2855 0b92 0EF1010E 		add	lr, lr, #1
 2856              	.LVL483:
 2857 0b96 0FFA8EFE 		sxth	lr, lr
 2858              	.LVL484:
 2859              	.L107:
 2860 0b9a 7445     		cmp	r4, lr
 2861 0b9c 3FF74AAE 		bgt	.L213
 2862 0ba0 4FF0000C 		mov	ip, #0
 2863 0ba4 DDF80890 		ldr	r9, [sp, #8]
 2864 0ba8 4AE0     		b	.L214
 2865              	.L258:
 2866 0baa 00BF     		.align	2
 2867              	.L257:
 2868 0bac 00000000 		.word	.LANCHOR0
 2869              	.LVL485:
 2870              	.L224:
 2871              	.LBE151:
 2872              	.LBE150:
 389:lvgl\src\lv_font/lv_font_fmt_txt.c ****                 wrp += wr_size;
 2873              		.loc 1 389 0 discriminator 3
 2874 0bb0 15F80CE0 		ldrb	lr, [r5, ip]	@ zero_extendqisi2
 2875              	.LVL486:
 2876              	.LBB172:
 2877              	.LBB173:
 464:lvgl\src\lv_font/lv_font_fmt_txt.c ****         len = 4;
 2878              		.loc 1 464 0 discriminator 3
 2879 0bb4 032F     		cmp	r7, #3
 2880 0bb6 24D1     		bne	.L248
 2881              	.LVL487:
 466:lvgl\src\lv_font/lv_font_fmt_txt.c ****             case 0:
 2882              		.loc 1 466 0
 2883 0bb8 0EF1FF33 		add	r3, lr, #-1
 2884 0bbc 062B     		cmp	r3, #6
 2885 0bbe 22D8     		bhi	.L249
 2886 0bc0 DFE803F0 		tbb	[pc, r3]
 2887              	.L217:
 2888 0bc4 04       		.byte	(.L216-.L217)/2
 2889 0bc5 08       		.byte	(.L218-.L217)/2
 2890 0bc6 0B       		.byte	(.L219-.L217)/2
 2891 0bc7 0F       		.byte	(.L220-.L217)/2
 2892 0bc8 13       		.byte	(.L221-.L217)/2
 2893 0bc9 17       		.byte	(.L222-.L217)/2
 2894 0bca 1B       		.byte	(.L223-.L217)/2
 2895 0bcb 00       		.p2align 1
 2896              	.L216:
ARM GAS  C:\Users\strap\AppData\Local\Temp\ccKJQbxb.s 			page 70


 2897              	.LVL488:
 465:lvgl\src\lv_font/lv_font_fmt_txt.c ****         switch(val) {
 2898              		.loc 1 465 0
 2899 0bcc 0422     		movs	r2, #4
 471:lvgl\src\lv_font/lv_font_fmt_txt.c ****                 break;
 2900              		.loc 1 471 0
 2901 0bce 4FF0020E 		mov	lr, #2
 2902 0bd2 19E0     		b	.L215
 2903              	.LVL489:
 2904              	.L218:
 465:lvgl\src\lv_font/lv_font_fmt_txt.c ****         switch(val) {
 2905              		.loc 1 465 0
 2906 0bd4 0422     		movs	r2, #4
 474:lvgl\src\lv_font/lv_font_fmt_txt.c ****                 break;
 2907              		.loc 1 474 0
 2908 0bd6 9646     		mov	lr, r2
 2909 0bd8 16E0     		b	.L215
 2910              	.LVL490:
 2911              	.L219:
 465:lvgl\src\lv_font/lv_font_fmt_txt.c ****         switch(val) {
 2912              		.loc 1 465 0
 2913 0bda 0422     		movs	r2, #4
 477:lvgl\src\lv_font/lv_font_fmt_txt.c ****                 break;
 2914              		.loc 1 477 0
 2915 0bdc 4FF0060E 		mov	lr, #6
 2916 0be0 12E0     		b	.L215
 2917              	.LVL491:
 2918              	.L220:
 465:lvgl\src\lv_font/lv_font_fmt_txt.c ****         switch(val) {
 2919              		.loc 1 465 0
 2920 0be2 0422     		movs	r2, #4
 480:lvgl\src\lv_font/lv_font_fmt_txt.c ****                 break;
 2921              		.loc 1 480 0
 2922 0be4 4FF0090E 		mov	lr, #9
 2923 0be8 0EE0     		b	.L215
 2924              	.LVL492:
 2925              	.L221:
 465:lvgl\src\lv_font/lv_font_fmt_txt.c ****         switch(val) {
 2926              		.loc 1 465 0
 2927 0bea 0422     		movs	r2, #4
 483:lvgl\src\lv_font/lv_font_fmt_txt.c ****                 break;
 2928              		.loc 1 483 0
 2929 0bec 4FF00B0E 		mov	lr, #11
 2930 0bf0 0AE0     		b	.L215
 2931              	.LVL493:
 2932              	.L222:
 465:lvgl\src\lv_font/lv_font_fmt_txt.c ****         switch(val) {
 2933              		.loc 1 465 0
 2934 0bf2 0422     		movs	r2, #4
 486:lvgl\src\lv_font/lv_font_fmt_txt.c ****                 break;
 2935              		.loc 1 486 0
 2936 0bf4 4FF00D0E 		mov	lr, #13
 2937 0bf8 06E0     		b	.L215
 2938              	.LVL494:
 2939              	.L223:
 465:lvgl\src\lv_font/lv_font_fmt_txt.c ****         switch(val) {
 2940              		.loc 1 465 0
ARM GAS  C:\Users\strap\AppData\Local\Temp\ccKJQbxb.s 			page 71


 2941 0bfa 0422     		movs	r2, #4
 489:lvgl\src\lv_font/lv_font_fmt_txt.c ****                 break;
 2942              		.loc 1 489 0
 2943 0bfc 4FF00F0E 		mov	lr, #15
 2944 0c00 02E0     		b	.L215
 2945              	.LVL495:
 2946              	.L248:
 464:lvgl\src\lv_font/lv_font_fmt_txt.c ****         len = 4;
 2947              		.loc 1 464 0
 2948 0c02 3A46     		mov	r2, r7
 2949 0c04 00E0     		b	.L215
 2950              	.LVL496:
 2951              	.L249:
 465:lvgl\src\lv_font/lv_font_fmt_txt.c ****         switch(val) {
 2952              		.loc 1 465 0
 2953 0c06 0422     		movs	r2, #4
 2954              	.LVL497:
 2955              	.L215:
 495:lvgl\src\lv_font/lv_font_fmt_txt.c ****     bit_pos = 8 - bit_pos - len;
 2956              		.loc 1 495 0
 2957 0c08 00F00701 		and	r1, r0, #7
 2958              	.LVL498:
 496:lvgl\src\lv_font/lv_font_fmt_txt.c **** 
 2959              		.loc 1 496 0
 2960 0c0c 4942     		negs	r1, r1
 2961              	.LVL499:
 2962 0c0e 891A     		subs	r1, r1, r2
 2963              	.LVL500:
 2964 0c10 0831     		adds	r1, r1, #8
 2965              	.LVL501:
 498:lvgl\src\lv_font/lv_font_fmt_txt.c ****     out[byte_pos] &= ((~bit_mask) << bit_pos);
 2966              		.loc 1 498 0
 2967 0c12 0123     		movs	r3, #1
 2968 0c14 9340     		lsls	r3, r3, r2
 2969 0c16 013B     		subs	r3, r3, #1
 2970 0c18 DBB2     		uxtb	r3, r3
 2971              	.LVL502:
 499:lvgl\src\lv_font/lv_font_fmt_txt.c ****     out[byte_pos] |= (val << bit_pos);
 2972              		.loc 1 499 0
 2973 0c1a C0F3CF08 		ubfx	r8, r0, #3, #16
 2974 0c1e DB43     		mvns	r3, r3
 2975              	.LVL503:
 2976 0c20 03FA01F2 		lsl	r2, r3, r1
 2977              	.LVL504:
 2978 0c24 16F80830 		ldrb	r3, [r6, r8]	@ zero_extendqisi2
 2979              	.LVL505:
 2980 0c28 1340     		ands	r3, r3, r2
 2981 0c2a 5BB2     		sxtb	r3, r3
 500:lvgl\src\lv_font/lv_font_fmt_txt.c **** }
 2982              		.loc 1 500 0
 2983 0c2c 0EFA01F1 		lsl	r1, lr, r1
 2984              	.LVL506:
 2985 0c30 0B43     		orrs	r3, r3, r1
 2986 0c32 06F80830 		strb	r3, [r6, r8]
 2987              	.LVL507:
 2988              	.LBE173:
 2989              	.LBE172:
ARM GAS  C:\Users\strap\AppData\Local\Temp\ccKJQbxb.s 			page 72


 390:lvgl\src\lv_font/lv_font_fmt_txt.c ****             }
 2990              		.loc 1 390 0
 2991 0c36 4844     		add	r0, r0, r9
 2992              	.LVL508:
 388:lvgl\src\lv_font/lv_font_fmt_txt.c ****                 bits_write(out, wrp, line_buf1[x], bpp);
 2993              		.loc 1 388 0
 2994 0c38 0CF1010C 		add	ip, ip, #1
 2995              	.LVL509:
 2996 0c3c 0FFA8CFC 		sxth	ip, ip
 2997              	.LVL510:
 2998              	.L214:
 388:lvgl\src\lv_font/lv_font_fmt_txt.c ****                 bits_write(out, wrp, line_buf1[x], bpp);
 2999              		.loc 1 388 0 is_stmt 0 discriminator 1
 3000 0c40 A445     		cmp	ip, r4
 3001 0c42 B5DB     		blt	.L224
 3002              	.L166:
 375:lvgl\src\lv_font/lv_font_fmt_txt.c ****         if(prefilter) {
 3003              		.loc 1 375 0 is_stmt 1 discriminator 2
 3004 0c44 009B     		ldr	r3, [sp]
 3005 0c46 0133     		adds	r3, r3, #1
 3006 0c48 1BB2     		sxth	r3, r3
 3007 0c4a 0093     		str	r3, [sp]
 3008              	.LVL511:
 3009              	.L105:
 375:lvgl\src\lv_font/lv_font_fmt_txt.c ****         if(prefilter) {
 3010              		.loc 1 375 0 is_stmt 0 discriminator 1
 3011 0c4c 009B     		ldr	r3, [sp]
 3012 0c4e 019A     		ldr	r2, [sp, #4]
 3013 0c50 9342     		cmp	r3, r2
 3014 0c52 FFF6FFAB 		blt	.L225
 395:lvgl\src\lv_font/lv_font_fmt_txt.c ****     _lv_mem_buf_release(line_buf2);
 3015              		.loc 1 395 0 is_stmt 1
 3016 0c56 2846     		mov	r0, r5
 3017              	.LVL512:
 3018 0c58 FFF7FEFF 		bl	_lv_mem_buf_release
 3019              	.LVL513:
 396:lvgl\src\lv_font/lv_font_fmt_txt.c **** }
 3020              		.loc 1 396 0
 3021 0c5c 0398     		ldr	r0, [sp, #12]
 3022 0c5e FFF7FEFF 		bl	_lv_mem_buf_release
 3023              	.LVL514:
 397:lvgl\src\lv_font/lv_font_fmt_txt.c **** 
 3024              		.loc 1 397 0
 3025 0c62 07B0     		add	sp, sp, #28
 3026              		.cfi_def_cfa_offset 36
 3027              	.LVL515:
 3028              		@ sp needed
 3029 0c64 BDE8F08F 		pop	{r4, r5, r6, r7, r8, r9, r10, fp, pc}
 3030              		.cfi_endproc
 3031              	.LFE44:
 3032              		.size	decompress, .-decompress
 3033              		.section	.text.lv_font_get_bitmap_fmt_txt,"ax",%progbits
 3034              		.align	2
 3035              		.global	lv_font_get_bitmap_fmt_txt
 3036              		.thumb
 3037              		.thumb_func
 3038              		.type	lv_font_get_bitmap_fmt_txt, %function
ARM GAS  C:\Users\strap\AppData\Local\Temp\ccKJQbxb.s 			page 73


 3039              	lv_font_get_bitmap_fmt_txt:
 3040              	.LFB37:
  81:lvgl\src\lv_font/lv_font_fmt_txt.c ****     if(unicode_letter == '\t') unicode_letter = ' ';
 3041              		.loc 1 81 0
 3042              		.cfi_startproc
 3043              		@ args = 0, pretend = 0, frame = 0
 3044              		@ frame_needed = 0, uses_anonymous_args = 0
 3045              	.LVL516:
 3046 0000 2DE9F043 		push	{r4, r5, r6, r7, r8, r9, lr}
 3047              		.cfi_def_cfa_offset 28
 3048              		.cfi_offset 4, -28
 3049              		.cfi_offset 5, -24
 3050              		.cfi_offset 6, -20
 3051              		.cfi_offset 7, -16
 3052              		.cfi_offset 8, -12
 3053              		.cfi_offset 9, -8
 3054              		.cfi_offset 14, -4
 3055 0004 83B0     		sub	sp, sp, #12
 3056              		.cfi_def_cfa_offset 40
  82:lvgl\src\lv_font/lv_font_fmt_txt.c **** 
 3057              		.loc 1 82 0
 3058 0006 0929     		cmp	r1, #9
 3059 0008 00D1     		bne	.L260
 3060 000a 2021     		movs	r1, #32
 3061              	.LVL517:
 3062              	.L260:
  84:lvgl\src\lv_font/lv_font_fmt_txt.c ****     uint32_t gid = get_glyph_dsc_id(font, unicode_letter);
 3063              		.loc 1 84 0
 3064 000c 0569     		ldr	r5, [r0, #16]
 3065              	.LVL518:
  85:lvgl\src\lv_font/lv_font_fmt_txt.c ****     if(!gid) return NULL;
 3066              		.loc 1 85 0
 3067 000e FFF7FEFF 		bl	get_glyph_dsc_id
 3068              	.LVL519:
  86:lvgl\src\lv_font/lv_font_fmt_txt.c **** 
 3069              		.loc 1 86 0
 3070 0012 8046     		mov	r8, r0
 3071 0014 0028     		cmp	r0, #0
 3072 0016 61D0     		beq	.L273
  88:lvgl\src\lv_font/lv_font_fmt_txt.c **** 
 3073              		.loc 1 88 0
 3074 0018 6F68     		ldr	r7, [r5, #4]
 3075 001a 07EBC006 		add	r6, r7, r0, lsl #3
 3076              	.LVL520:
  90:lvgl\src\lv_font/lv_font_fmt_txt.c ****         if(gdsc) return &fdsc->glyph_bitmap[gdsc->bitmap_index];
 3077              		.loc 1 90 0
 3078 001e 2B7D     		ldrb	r3, [r5, #20]	@ zero_extendqisi2
 3079 0020 13F0030F 		tst	r3, #3
 3080 0024 08D1     		bne	.L262
  91:lvgl\src\lv_font/lv_font_fmt_txt.c ****     }
 3081              		.loc 1 91 0
 3082 0026 002E     		cmp	r6, #0
 3083 0028 5AD0     		beq	.L274
  91:lvgl\src\lv_font/lv_font_fmt_txt.c ****     }
 3084              		.loc 1 91 0 is_stmt 0 discriminator 1
 3085 002a 2868     		ldr	r0, [r5]
 3086              	.LVL521:
ARM GAS  C:\Users\strap\AppData\Local\Temp\ccKJQbxb.s 			page 74


 3087 002c 57F83830 		ldr	r3, [r7, r8, lsl #3]
 3088 0030 C3F31303 		ubfx	r3, r3, #0, #20
 3089 0034 1844     		add	r0, r0, r3
 3090 0036 58E0     		b	.L261
 3091              	.LVL522:
 3092              	.L262:
 3093              	.LBB174:
  96:lvgl\src\lv_font/lv_font_fmt_txt.c ****         if(gsize == 0) return NULL;
 3094              		.loc 1 96 0 is_stmt 1
 3095 0038 3379     		ldrb	r3, [r6, #4]	@ zero_extendqisi2
 3096 003a 7479     		ldrb	r4, [r6, #5]	@ zero_extendqisi2
 3097 003c 04FB03F4 		mul	r4, r4, r3
 3098              	.LVL523:
  97:lvgl\src\lv_font/lv_font_fmt_txt.c **** 
 3099              		.loc 1 97 0
 3100 0040 002C     		cmp	r4, #0
 3101 0042 4FD0     		beq	.L275
 3102              	.LVL524:
 101:lvgl\src\lv_font/lv_font_fmt_txt.c ****             case 1:
 3103              		.loc 1 101 0
 3104 0044 EB7C     		ldrb	r3, [r5, #19]	@ zero_extendqisi2
 3105 0046 C3F38303 		ubfx	r3, r3, #2, #4
 3106 004a 013B     		subs	r3, r3, #1
 3107 004c 032B     		cmp	r3, #3
 3108 004e 0ED8     		bhi	.L263
 3109 0050 DFE803F0 		tbb	[pc, r3]
 3110              	.L265:
 3111 0054 02       		.byte	(.L264-.L265)/2
 3112 0055 05       		.byte	(.L266-.L265)/2
 3113 0056 08       		.byte	(.L267-.L265)/2
 3114 0057 0B       		.byte	(.L268-.L265)/2
 3115              		.p2align 1
 3116              	.L264:
 103:lvgl\src\lv_font/lv_font_fmt_txt.c ****                 break;
 3117              		.loc 1 103 0
 3118 0058 0734     		adds	r4, r4, #7
 3119              	.LVL525:
 3120 005a E408     		lsrs	r4, r4, #3
 3121              	.LVL526:
 104:lvgl\src\lv_font/lv_font_fmt_txt.c ****             case 2:
 3122              		.loc 1 104 0
 3123 005c 07E0     		b	.L263
 3124              	.LVL527:
 3125              	.L266:
 106:lvgl\src\lv_font/lv_font_fmt_txt.c ****                 break;
 3126              		.loc 1 106 0
 3127 005e 0334     		adds	r4, r4, #3
 3128              	.LVL528:
 3129 0060 A408     		lsrs	r4, r4, #2
 3130              	.LVL529:
 107:lvgl\src\lv_font/lv_font_fmt_txt.c ****             case 3:
 3131              		.loc 1 107 0
 3132 0062 04E0     		b	.L263
 3133              	.LVL530:
 3134              	.L267:
 109:lvgl\src\lv_font/lv_font_fmt_txt.c ****                 break;
 3135              		.loc 1 109 0
ARM GAS  C:\Users\strap\AppData\Local\Temp\ccKJQbxb.s 			page 75


 3136 0064 0134     		adds	r4, r4, #1
 3137              	.LVL531:
 3138 0066 6408     		lsrs	r4, r4, #1
 3139              	.LVL532:
 110:lvgl\src\lv_font/lv_font_fmt_txt.c ****             case 4:
 3140              		.loc 1 110 0
 3141 0068 01E0     		b	.L263
 3142              	.LVL533:
 3143              	.L268:
 112:lvgl\src\lv_font/lv_font_fmt_txt.c ****                 break;
 3144              		.loc 1 112 0
 3145 006a 0134     		adds	r4, r4, #1
 3146              	.LVL534:
 3147 006c 6408     		lsrs	r4, r4, #1
 3148              	.LVL535:
 3149              	.L263:
 116:lvgl\src\lv_font/lv_font_fmt_txt.c ****             LV_GC_ROOT(_lv_font_decompr_buf) = lv_mem_realloc(LV_GC_ROOT(_lv_font_decompr_buf), buf
 3150              		.loc 1 116 0
 3151 006e 204B     		ldr	r3, .L278
 3152 0070 1868     		ldr	r0, [r3]
 3153              	.LVL536:
 3154 0072 FFF7FEFF 		bl	_lv_mem_get_size
 3155              	.LVL537:
 3156 0076 8442     		cmp	r4, r0
 3157 0078 15D9     		bls	.L269
 117:lvgl\src\lv_font/lv_font_fmt_txt.c ****             LV_ASSERT_MEM(LV_GC_ROOT(_lv_font_decompr_buf));
 3158              		.loc 1 117 0
 3159 007a DFF87490 		ldr	r9, .L278
 3160 007e 2146     		mov	r1, r4
 3161 0080 D9F80000 		ldr	r0, [r9]
 3162 0084 FFF7FEFF 		bl	lv_mem_realloc
 3163              	.LVL538:
 3164 0088 C9F80000 		str	r0, [r9]
 118:lvgl\src\lv_font/lv_font_fmt_txt.c ****             if(LV_GC_ROOT(_lv_font_decompr_buf) == NULL) return NULL;
 3165              		.loc 1 118 0
 3166 008c FFF7FEFF 		bl	lv_debug_check_null
 3167              	.LVL539:
 3168 0090 30B9     		cbnz	r0, .L270
 118:lvgl\src\lv_font/lv_font_fmt_txt.c ****             if(LV_GC_ROOT(_lv_font_decompr_buf) == NULL) return NULL;
 3169              		.loc 1 118 0 is_stmt 0 discriminator 1
 3170 0092 D9F80020 		ldr	r2, [r9]
 3171 0096 0023     		movs	r3, #0
 3172 0098 1648     		ldr	r0, .L278+4
 3173 009a FFF7FEFF 		bl	lv_debug_log_error
 3174              	.LVL540:
 3175              	.L271:
 3176 009e FEE7     		b	.L271
 3177              	.L270:
 119:lvgl\src\lv_font/lv_font_fmt_txt.c ****         }
 3178              		.loc 1 119 0 is_stmt 1
 3179 00a0 134B     		ldr	r3, .L278
 3180 00a2 1B68     		ldr	r3, [r3]
 3181 00a4 03B3     		cbz	r3, .L276
 3182              	.L269:
 122:lvgl\src\lv_font/lv_font_fmt_txt.c ****         decompress(&fdsc->glyph_bitmap[gdsc->bitmap_index], LV_GC_ROOT(_lv_font_decompr_buf), gdsc-
 3183              		.loc 1 122 0
 3184 00a6 297D     		ldrb	r1, [r5, #20]	@ zero_extendqisi2
ARM GAS  C:\Users\strap\AppData\Local\Temp\ccKJQbxb.s 			page 76


 3185 00a8 01F00301 		and	r1, r1, #3
 3186 00ac 0129     		cmp	r1, #1
 3187 00ae 14BF     		ite	ne
 3188 00b0 0021     		movne	r1, #0
 3189 00b2 0121     		moveq	r1, #1
 3190              	.LVL541:
 123:lvgl\src\lv_font/lv_font_fmt_txt.c ****                    (uint8_t)fdsc->bpp,
 3191              		.loc 1 123 0
 3192 00b4 D5F800E0 		ldr	lr, [r5]
 3193 00b8 57F83830 		ldr	r3, [r7, r8, lsl #3]
 3194 00bc C3F31300 		ubfx	r0, r3, #0, #20
 124:lvgl\src\lv_font/lv_font_fmt_txt.c ****                    prefilter);
 3195              		.loc 1 124 0
 3196 00c0 EC7C     		ldrb	r4, [r5, #19]	@ zero_extendqisi2
 3197              	.LVL542:
 3198 00c2 C4F38304 		ubfx	r4, r4, #2, #4
 123:lvgl\src\lv_font/lv_font_fmt_txt.c ****                    (uint8_t)fdsc->bpp,
 3199              		.loc 1 123 0
 3200 00c6 7379     		ldrb	r3, [r6, #5]	@ zero_extendqisi2
 3201 00c8 3279     		ldrb	r2, [r6, #4]	@ zero_extendqisi2
 3202 00ca 094D     		ldr	r5, .L278
 3203              	.LVL543:
 3204 00cc 0191     		str	r1, [sp, #4]
 3205 00ce 0094     		str	r4, [sp]
 3206 00d0 2968     		ldr	r1, [r5]
 3207              	.LVL544:
 3208 00d2 7044     		add	r0, r0, lr
 3209 00d4 FFF7FEFF 		bl	decompress
 3210              	.LVL545:
 126:lvgl\src\lv_font/lv_font_fmt_txt.c **** #else /* !LV_USE_FONT_COMPRESSED */
 3211              		.loc 1 126 0
 3212 00d8 2868     		ldr	r0, [r5]
 3213 00da 06E0     		b	.L261
 3214              	.LVL546:
 3215              	.L273:
 3216              	.LBE174:
  86:lvgl\src\lv_font/lv_font_fmt_txt.c **** 
 3217              		.loc 1 86 0
 3218 00dc 0020     		movs	r0, #0
 3219              	.LVL547:
 3220 00de 04E0     		b	.L261
 3221              	.LVL548:
 3222              	.L274:
 133:lvgl\src\lv_font/lv_font_fmt_txt.c **** }
 3223              		.loc 1 133 0
 3224 00e0 0020     		movs	r0, #0
 3225              	.LVL549:
 3226 00e2 02E0     		b	.L261
 3227              	.LVL550:
 3228              	.L275:
 3229              	.LBB175:
  97:lvgl\src\lv_font/lv_font_fmt_txt.c **** 
 3230              		.loc 1 97 0
 3231 00e4 0020     		movs	r0, #0
 3232              	.LVL551:
 3233 00e6 00E0     		b	.L261
 3234              	.LVL552:
ARM GAS  C:\Users\strap\AppData\Local\Temp\ccKJQbxb.s 			page 77


 3235              	.L276:
 119:lvgl\src\lv_font/lv_font_fmt_txt.c ****         }
 3236              		.loc 1 119 0
 3237 00e8 0020     		movs	r0, #0
 3238              	.LVL553:
 3239              	.L261:
 3240              	.LBE175:
 134:lvgl\src\lv_font/lv_font_fmt_txt.c **** 
 3241              		.loc 1 134 0
 3242 00ea 03B0     		add	sp, sp, #12
 3243              		.cfi_def_cfa_offset 28
 3244              		@ sp needed
 3245 00ec BDE8F083 		pop	{r4, r5, r6, r7, r8, r9, pc}
 3246              	.LVL554:
 3247              	.L279:
 3248              		.align	2
 3249              	.L278:
 3250 00f0 00000000 		.word	_lv_font_decompr_buf
 3251 00f4 00000000 		.word	.LC0
 3252              		.cfi_endproc
 3253              	.LFE37:
 3254              		.size	lv_font_get_bitmap_fmt_txt, .-lv_font_get_bitmap_fmt_txt
 3255              		.section	.text.lv_font_get_glyph_dsc_fmt_txt,"ax",%progbits
 3256              		.align	2
 3257              		.global	lv_font_get_glyph_dsc_fmt_txt
 3258              		.thumb
 3259              		.thumb_func
 3260              		.type	lv_font_get_glyph_dsc_fmt_txt, %function
 3261              	lv_font_get_glyph_dsc_fmt_txt:
 3262              	.LFB38:
 146:lvgl\src\lv_font/lv_font_fmt_txt.c ****     bool is_tab = false;
 3263              		.loc 1 146 0
 3264              		.cfi_startproc
 3265              		@ args = 0, pretend = 0, frame = 0
 3266              		@ frame_needed = 0, uses_anonymous_args = 0
 3267              	.LVL555:
 3268 0000 2DE9F843 		push	{r3, r4, r5, r6, r7, r8, r9, lr}
 3269              		.cfi_def_cfa_offset 32
 3270              		.cfi_offset 3, -32
 3271              		.cfi_offset 4, -28
 3272              		.cfi_offset 5, -24
 3273              		.cfi_offset 6, -20
 3274              		.cfi_offset 7, -16
 3275              		.cfi_offset 8, -12
 3276              		.cfi_offset 9, -8
 3277              		.cfi_offset 14, -4
 3278 0004 0746     		mov	r7, r0
 3279 0006 0C46     		mov	r4, r1
 3280 0008 9946     		mov	r9, r3
 3281              	.LVL556:
 148:lvgl\src\lv_font/lv_font_fmt_txt.c ****         unicode_letter = ' ';
 3282              		.loc 1 148 0
 3283 000a 092A     		cmp	r2, #9
 3284 000c 01D0     		beq	.L285
 147:lvgl\src\lv_font/lv_font_fmt_txt.c ****     if(unicode_letter == '\t') {
 3285              		.loc 1 147 0
 3286 000e 0026     		movs	r6, #0
ARM GAS  C:\Users\strap\AppData\Local\Temp\ccKJQbxb.s 			page 78


 3287 0010 01E0     		b	.L281
 3288              	.L285:
 150:lvgl\src\lv_font/lv_font_fmt_txt.c ****     }
 3289              		.loc 1 150 0
 3290 0012 0126     		movs	r6, #1
 149:lvgl\src\lv_font/lv_font_fmt_txt.c ****         is_tab = true;
 3291              		.loc 1 149 0
 3292 0014 2022     		movs	r2, #32
 3293              	.LVL557:
 3294              	.L281:
 152:lvgl\src\lv_font/lv_font_fmt_txt.c ****     uint32_t gid = get_glyph_dsc_id(font, unicode_letter);
 3295              		.loc 1 152 0
 3296 0016 3D69     		ldr	r5, [r7, #16]
 3297              	.LVL558:
 153:lvgl\src\lv_font/lv_font_fmt_txt.c ****     if(!gid) return false;
 3298              		.loc 1 153 0
 3299 0018 1146     		mov	r1, r2
 3300              	.LVL559:
 3301 001a 3846     		mov	r0, r7
 3302              	.LVL560:
 3303 001c FFF7FEFF 		bl	get_glyph_dsc_id
 3304              	.LVL561:
 154:lvgl\src\lv_font/lv_font_fmt_txt.c **** 
 3305              		.loc 1 154 0
 3306 0020 8046     		mov	r8, r0
 3307 0022 0028     		cmp	r0, #0
 3308 0024 33D0     		beq	.L286
 3309              	.LVL562:
 157:lvgl\src\lv_font/lv_font_fmt_txt.c ****         uint32_t gid_next = get_glyph_dsc_id(font, unicode_letter_next);
 3310              		.loc 1 157 0
 3311 0026 EB68     		ldr	r3, [r5, #12]
 3312 0028 53B1     		cbz	r3, .L287
 3313              	.LBB176:
 158:lvgl\src\lv_font/lv_font_fmt_txt.c ****         if(gid_next) {
 3314              		.loc 1 158 0
 3315 002a 4946     		mov	r1, r9
 3316 002c 3846     		mov	r0, r7
 3317              	.LVL563:
 3318 002e FFF7FEFF 		bl	get_glyph_dsc_id
 3319              	.LVL564:
 159:lvgl\src\lv_font/lv_font_fmt_txt.c ****             kvalue = get_kern_value(font, gid, gid_next);
 3320              		.loc 1 159 0
 3321 0032 0246     		mov	r2, r0
 3322 0034 30B1     		cbz	r0, .L288
 160:lvgl\src\lv_font/lv_font_fmt_txt.c ****         }
 3323              		.loc 1 160 0
 3324 0036 4146     		mov	r1, r8
 3325 0038 3846     		mov	r0, r7
 3326              	.LVL565:
 3327 003a FFF7FEFF 		bl	get_kern_value
 3328              	.LVL566:
 3329 003e 02E0     		b	.L283
 3330              	.LVL567:
 3331              	.L287:
 3332              	.LBE176:
 156:lvgl\src\lv_font/lv_font_fmt_txt.c ****     if(fdsc->kern_dsc) {
 3333              		.loc 1 156 0
ARM GAS  C:\Users\strap\AppData\Local\Temp\ccKJQbxb.s 			page 79


 3334 0040 0020     		movs	r0, #0
 3335              	.LVL568:
 3336 0042 00E0     		b	.L283
 3337              	.LVL569:
 3338              	.L288:
 3339 0044 0020     		movs	r0, #0
 3340              	.LVL570:
 3341              	.L283:
 165:lvgl\src\lv_font/lv_font_fmt_txt.c **** 
 3342              		.loc 1 165 0
 3343 0046 6968     		ldr	r1, [r5, #4]
 3344 0048 01EBC801 		add	r1, r1, r8, lsl #3
 3345              	.LVL571:
 167:lvgl\src\lv_font/lv_font_fmt_txt.c **** 
 3346              		.loc 1 167 0
 3347 004c 2B8A     		ldrh	r3, [r5, #16]
 3348 004e 00FB03F3 		mul	r3, r0, r3
 3349 0052 1811     		asrs	r0, r3, #4
 3350              	.LVL572:
 169:lvgl\src\lv_font/lv_font_fmt_txt.c ****     if(is_tab) adv_w *= 2;
 3351              		.loc 1 169 0
 3352 0054 4A88     		ldrh	r2, [r1, #2]
 3353 0056 C2F30B13 		ubfx	r3, r2, #4, #12
 3354              	.LVL573:
 170:lvgl\src\lv_font/lv_font_fmt_txt.c **** 
 3355              		.loc 1 170 0
 3356 005a 06B1     		cbz	r6, .L284
 170:lvgl\src\lv_font/lv_font_fmt_txt.c **** 
 3357              		.loc 1 170 0 is_stmt 0 discriminator 1
 3358 005c 5B00     		lsls	r3, r3, #1
 3359              	.LVL574:
 3360              	.L284:
 172:lvgl\src\lv_font/lv_font_fmt_txt.c ****     adv_w  = (adv_w + (1 << 3)) >> 4;
 3361              		.loc 1 172 0 is_stmt 1
 3362 005e 0344     		add	r3, r3, r0
 3363              	.LVL575:
 173:lvgl\src\lv_font/lv_font_fmt_txt.c **** 
 3364              		.loc 1 173 0
 3365 0060 0833     		adds	r3, r3, #8
 3366              	.LVL576:
 3367 0062 1B09     		lsrs	r3, r3, #4
 3368              	.LVL577:
 175:lvgl\src\lv_font/lv_font_fmt_txt.c ****     dsc_out->box_h = gdsc->box_h;
 3369              		.loc 1 175 0
 3370 0064 2380     		strh	r3, [r4]	@ movhi
 176:lvgl\src\lv_font/lv_font_fmt_txt.c ****     dsc_out->box_w = gdsc->box_w;
 3371              		.loc 1 176 0
 3372 0066 4B79     		ldrb	r3, [r1, #5]	@ zero_extendqisi2
 3373              	.LVL578:
 3374 0068 A380     		strh	r3, [r4, #4]	@ movhi
 177:lvgl\src\lv_font/lv_font_fmt_txt.c ****     dsc_out->ofs_x = gdsc->ofs_x;
 3375              		.loc 1 177 0
 3376 006a 0A79     		ldrb	r2, [r1, #4]	@ zero_extendqisi2
 3377 006c 6280     		strh	r2, [r4, #2]	@ movhi
 178:lvgl\src\lv_font/lv_font_fmt_txt.c ****     dsc_out->ofs_y = gdsc->ofs_y;
 3378              		.loc 1 178 0
 3379 006e 91F90630 		ldrsb	r3, [r1, #6]
ARM GAS  C:\Users\strap\AppData\Local\Temp\ccKJQbxb.s 			page 80


 3380 0072 E380     		strh	r3, [r4, #6]	@ movhi
 179:lvgl\src\lv_font/lv_font_fmt_txt.c ****     dsc_out->bpp   = (uint8_t)fdsc->bpp;
 3381              		.loc 1 179 0
 3382 0074 91F90730 		ldrsb	r3, [r1, #7]
 3383 0078 2381     		strh	r3, [r4, #8]	@ movhi
 180:lvgl\src\lv_font/lv_font_fmt_txt.c **** 
 3384              		.loc 1 180 0
 3385 007a EB7C     		ldrb	r3, [r5, #19]	@ zero_extendqisi2
 3386 007c C3F38303 		ubfx	r3, r3, #2, #4
 3387 0080 A372     		strb	r3, [r4, #10]
 182:lvgl\src\lv_font/lv_font_fmt_txt.c **** 
 3388              		.loc 1 182 0
 3389 0082 3EB1     		cbz	r6, .L289
 182:lvgl\src\lv_font/lv_font_fmt_txt.c **** 
 3390              		.loc 1 182 0 is_stmt 0 discriminator 1
 3391 0084 5200     		lsls	r2, r2, #1
 3392 0086 6280     		strh	r2, [r4, #2]	@ movhi
 184:lvgl\src\lv_font/lv_font_fmt_txt.c **** }
 3393              		.loc 1 184 0 is_stmt 1 discriminator 1
 3394 0088 0120     		movs	r0, #1
 3395              	.LVL579:
 3396 008a BDE8F883 		pop	{r3, r4, r5, r6, r7, r8, r9, pc}
 3397              	.LVL580:
 3398              	.L286:
 154:lvgl\src\lv_font/lv_font_fmt_txt.c **** 
 3399              		.loc 1 154 0
 3400 008e 0020     		movs	r0, #0
 3401              	.LVL581:
 3402 0090 BDE8F883 		pop	{r3, r4, r5, r6, r7, r8, r9, pc}
 3403              	.LVL582:
 3404              	.L289:
 184:lvgl\src\lv_font/lv_font_fmt_txt.c **** }
 3405              		.loc 1 184 0
 3406 0094 0120     		movs	r0, #1
 3407              	.LVL583:
 185:lvgl\src\lv_font/lv_font_fmt_txt.c **** 
 3408              		.loc 1 185 0
 3409 0096 BDE8F883 		pop	{r3, r4, r5, r6, r7, r8, r9, pc}
 3410              		.cfi_endproc
 3411              	.LFE38:
 3412              		.size	lv_font_get_glyph_dsc_fmt_txt, .-lv_font_get_glyph_dsc_fmt_txt
 3413 009a 00BF     		.section	.text._lv_font_clean_up_fmt_txt,"ax",%progbits
 3414              		.align	2
 3415              		.global	_lv_font_clean_up_fmt_txt
 3416              		.thumb
 3417              		.thumb_func
 3418              		.type	_lv_font_clean_up_fmt_txt, %function
 3419              	_lv_font_clean_up_fmt_txt:
 3420              	.LFB39:
 191:lvgl\src\lv_font/lv_font_fmt_txt.c ****     if(LV_GC_ROOT(_lv_font_decompr_buf)) {
 3421              		.loc 1 191 0
 3422              		.cfi_startproc
 3423              		@ args = 0, pretend = 0, frame = 0
 3424              		@ frame_needed = 0, uses_anonymous_args = 0
 3425 0000 08B5     		push	{r3, lr}
 3426              		.cfi_def_cfa_offset 8
 3427              		.cfi_offset 3, -8
ARM GAS  C:\Users\strap\AppData\Local\Temp\ccKJQbxb.s 			page 81


 3428              		.cfi_offset 14, -4
 192:lvgl\src\lv_font/lv_font_fmt_txt.c ****         lv_mem_free(LV_GC_ROOT(_lv_font_decompr_buf));
 3429              		.loc 1 192 0
 3430 0002 044B     		ldr	r3, .L294
 3431 0004 1868     		ldr	r0, [r3]
 3432 0006 20B1     		cbz	r0, .L291
 193:lvgl\src\lv_font/lv_font_fmt_txt.c ****         LV_GC_ROOT(_lv_font_decompr_buf) = NULL;
 3433              		.loc 1 193 0
 3434 0008 FFF7FEFF 		bl	lv_mem_free
 3435              	.LVL584:
 194:lvgl\src\lv_font/lv_font_fmt_txt.c ****     }
 3436              		.loc 1 194 0
 3437 000c 0022     		movs	r2, #0
 3438 000e 014B     		ldr	r3, .L294
 3439 0010 1A60     		str	r2, [r3]
 3440              	.L291:
 3441 0012 08BD     		pop	{r3, pc}
 3442              	.L295:
 3443              		.align	2
 3444              	.L294:
 3445 0014 00000000 		.word	_lv_font_decompr_buf
 3446              		.cfi_endproc
 3447              	.LFE39:
 3448              		.size	_lv_font_clean_up_fmt_txt, .-_lv_font_clean_up_fmt_txt
 3449              		.section	.rodata.str1.4,"aMS",%progbits,1
 3450              		.align	2
 3451              	.LC0:
 3452 0000 4F757420 		.ascii	"Out of memory\000"
 3452      6F66206D 
 3452      656D6F72 
 3452      7900
 3453              		.bss
 3454              		.align	2
 3455              		.set	.LANCHOR0,. + 0
 3456              		.type	rle_in, %object
 3457              		.size	rle_in, 4
 3458              	rle_in:
 3459 0000 00000000 		.space	4
 3460              		.type	rle_bpp, %object
 3461              		.size	rle_bpp, 1
 3462              	rle_bpp:
 3463 0004 00       		.space	1
 3464              		.type	rle_state, %object
 3465              		.size	rle_state, 1
 3466              	rle_state:
 3467 0005 00       		.space	1
 3468 0006 0000     		.space	2
 3469              		.type	rle_rdp, %object
 3470              		.size	rle_rdp, 4
 3471              	rle_rdp:
 3472 0008 00000000 		.space	4
 3473              		.type	rle_prev_v, %object
 3474              		.size	rle_prev_v, 1
 3475              	rle_prev_v:
 3476 000c 00       		.space	1
 3477              		.type	rle_cnt, %object
 3478              		.size	rle_cnt, 1
ARM GAS  C:\Users\strap\AppData\Local\Temp\ccKJQbxb.s 			page 82


 3479              	rle_cnt:
 3480 000d 00       		.space	1
 3481              		.text
 3482              	.Letext0:
 3483              		.file 2 "c:\\program files (x86)\\cypress\\psoc creator\\4.4\\psoc creator\\import\\gnu\\arm\\5.4.
 3484              		.file 3 "c:\\program files (x86)\\cypress\\psoc creator\\4.4\\psoc creator\\import\\gnu\\arm\\5.4.
 3485              		.file 4 "lvgl\\src\\lv_font\\../../../lv_conf.h"
 3486              		.file 5 "lvgl\\src\\lv_font\\../lv_misc/lv_types.h"
 3487              		.file 6 "lvgl\\src\\lv_font\\lv_font.h"
 3488              		.file 7 "lvgl\\src\\lv_font\\lv_font_fmt_txt.h"
 3489              		.file 8 "lvgl\\src\\lv_font\\../lv_misc/lv_utils.h"
 3490              		.file 9 "lvgl\\src\\lv_font\\../lv_misc/lv_mem.h"
 3491              		.file 10 "lvgl\\src\\lv_font\\../lv_misc/lv_debug.h"
 3492              		.file 11 "lvgl\\src\\lv_font\\../lv_misc/lv_gc.h"