ARM GAS  C:\Users\strap\AppData\Local\Temp\ccZbKdR4.s 			page 1


   1              		.syntax unified
   2              		.cpu cortex-m3
   3              		.fpu softvfp
   4              		.eabi_attribute 20, 1
   5              		.eabi_attribute 21, 1
   6              		.eabi_attribute 23, 3
   7              		.eabi_attribute 24, 1
   8              		.eabi_attribute 25, 1
   9              		.eabi_attribute 26, 1
  10              		.eabi_attribute 30, 1
  11              		.eabi_attribute 34, 1
  12              		.eabi_attribute 18, 4
  13              		.thumb
  14              		.syntax unified
  15              		.file	"lv_font.c"
  16              		.text
  17              	.Ltext0:
  18              		.cfi_sections	.debug_frame
  19              		.section	.text.lv_font_get_glyph_bitmap,"ax",%progbits
  20              		.align	2
  21              		.global	lv_font_get_glyph_bitmap
  22              		.thumb
  23              		.thumb_func
  24              		.type	lv_font_get_glyph_bitmap, %function
  25              	lv_font_get_glyph_bitmap:
  26              	.LFB5:
  27              		.file 1 "lvgl\\src\\lv_font\\lv_font.c"
   1:lvgl\src\lv_font/lv_font.c **** /**
   2:lvgl\src\lv_font/lv_font.c ****  * @file lv_font.c
   3:lvgl\src\lv_font/lv_font.c ****  *
   4:lvgl\src\lv_font/lv_font.c ****  */
   5:lvgl\src\lv_font/lv_font.c **** 
   6:lvgl\src\lv_font/lv_font.c **** /*********************
   7:lvgl\src\lv_font/lv_font.c ****  *      INCLUDES
   8:lvgl\src\lv_font/lv_font.c ****  *********************/
   9:lvgl\src\lv_font/lv_font.c **** 
  10:lvgl\src\lv_font/lv_font.c **** #include "lv_font.h"
  11:lvgl\src\lv_font/lv_font.c **** #include "../lv_misc/lv_utils.h"
  12:lvgl\src\lv_font/lv_font.c **** #include "../lv_misc/lv_log.h"
  13:lvgl\src\lv_font/lv_font.c **** 
  14:lvgl\src\lv_font/lv_font.c **** /*********************
  15:lvgl\src\lv_font/lv_font.c ****  *      DEFINES
  16:lvgl\src\lv_font/lv_font.c ****  *********************/
  17:lvgl\src\lv_font/lv_font.c **** 
  18:lvgl\src\lv_font/lv_font.c **** /**********************
  19:lvgl\src\lv_font/lv_font.c ****  *      TYPEDEFS
  20:lvgl\src\lv_font/lv_font.c ****  **********************/
  21:lvgl\src\lv_font/lv_font.c **** 
  22:lvgl\src\lv_font/lv_font.c **** /**********************
  23:lvgl\src\lv_font/lv_font.c ****  *  STATIC PROTOTYPES
  24:lvgl\src\lv_font/lv_font.c ****  **********************/
  25:lvgl\src\lv_font/lv_font.c **** 
  26:lvgl\src\lv_font/lv_font.c **** /**********************
  27:lvgl\src\lv_font/lv_font.c ****  *  STATIC VARIABLES
  28:lvgl\src\lv_font/lv_font.c ****  **********************/
  29:lvgl\src\lv_font/lv_font.c **** 
  30:lvgl\src\lv_font/lv_font.c **** /**********************
ARM GAS  C:\Users\strap\AppData\Local\Temp\ccZbKdR4.s 			page 2


  31:lvgl\src\lv_font/lv_font.c ****  * GLOBAL PROTOTYPES
  32:lvgl\src\lv_font/lv_font.c ****  **********************/
  33:lvgl\src\lv_font/lv_font.c **** 
  34:lvgl\src\lv_font/lv_font.c **** /**********************
  35:lvgl\src\lv_font/lv_font.c ****  *      MACROS
  36:lvgl\src\lv_font/lv_font.c ****  **********************/
  37:lvgl\src\lv_font/lv_font.c **** 
  38:lvgl\src\lv_font/lv_font.c **** /**********************
  39:lvgl\src\lv_font/lv_font.c ****  *   GLOBAL FUNCTIONS
  40:lvgl\src\lv_font/lv_font.c ****  **********************/
  41:lvgl\src\lv_font/lv_font.c **** 
  42:lvgl\src\lv_font/lv_font.c **** /**
  43:lvgl\src\lv_font/lv_font.c ****  * Return with the bitmap of a font.
  44:lvgl\src\lv_font/lv_font.c ****  * @param font_p pointer to a font
  45:lvgl\src\lv_font/lv_font.c ****  * @param letter an UNICODE character code
  46:lvgl\src\lv_font/lv_font.c ****  * @return  pointer to the bitmap of the letter
  47:lvgl\src\lv_font/lv_font.c ****  */
  48:lvgl\src\lv_font/lv_font.c **** const uint8_t * lv_font_get_glyph_bitmap(const lv_font_t * font_p, uint32_t letter)
  49:lvgl\src\lv_font/lv_font.c **** {
  28              		.loc 1 49 0
  29              		.cfi_startproc
  30              		@ args = 0, pretend = 0, frame = 0
  31              		@ frame_needed = 0, uses_anonymous_args = 0
  32              	.LVL0:
  33 0000 08B5     		push	{r3, lr}
  34              		.cfi_def_cfa_offset 8
  35              		.cfi_offset 3, -8
  36              		.cfi_offset 14, -4
  50:lvgl\src\lv_font/lv_font.c ****     return font_p->get_glyph_bitmap(font_p, letter);
  37              		.loc 1 50 0
  38 0002 4368     		ldr	r3, [r0, #4]
  39 0004 9847     		blx	r3
  40              	.LVL1:
  51:lvgl\src\lv_font/lv_font.c **** }
  41              		.loc 1 51 0
  42 0006 08BD     		pop	{r3, pc}
  43              		.cfi_endproc
  44              	.LFE5:
  45              		.size	lv_font_get_glyph_bitmap, .-lv_font_get_glyph_bitmap
  46              		.section	.text.lv_font_get_glyph_dsc,"ax",%progbits
  47              		.align	2
  48              		.global	lv_font_get_glyph_dsc
  49              		.thumb
  50              		.thumb_func
  51              		.type	lv_font_get_glyph_dsc, %function
  52              	lv_font_get_glyph_dsc:
  53              	.LFB6:
  52:lvgl\src\lv_font/lv_font.c **** 
  53:lvgl\src\lv_font/lv_font.c **** /**
  54:lvgl\src\lv_font/lv_font.c ****  * Get the descriptor of a glyph
  55:lvgl\src\lv_font/lv_font.c ****  * @param font_p pointer to font
  56:lvgl\src\lv_font/lv_font.c ****  * @param dsc_out store the result descriptor here
  57:lvgl\src\lv_font/lv_font.c ****  * @param letter an UNICODE letter code
  58:lvgl\src\lv_font/lv_font.c ****  * @return true: descriptor is successfully loaded into `dsc_out`.
  59:lvgl\src\lv_font/lv_font.c ****  *         false: the letter was not found, no data is loaded to `dsc_out`
  60:lvgl\src\lv_font/lv_font.c ****  */
  61:lvgl\src\lv_font/lv_font.c **** bool lv_font_get_glyph_dsc(const lv_font_t * font_p, lv_font_glyph_dsc_t * dsc_out, uint32_t letter
ARM GAS  C:\Users\strap\AppData\Local\Temp\ccZbKdR4.s 			page 3


  62:lvgl\src\lv_font/lv_font.c ****                            uint32_t letter_next)
  63:lvgl\src\lv_font/lv_font.c **** {
  54              		.loc 1 63 0
  55              		.cfi_startproc
  56              		@ args = 0, pretend = 0, frame = 0
  57              		@ frame_needed = 0, uses_anonymous_args = 0
  58              	.LVL2:
  59 0000 10B5     		push	{r4, lr}
  60              		.cfi_def_cfa_offset 8
  61              		.cfi_offset 4, -8
  62              		.cfi_offset 14, -4
  64:lvgl\src\lv_font/lv_font.c ****     return font_p->get_glyph_dsc(font_p, dsc_out, letter, letter_next);
  63              		.loc 1 64 0
  64 0002 0468     		ldr	r4, [r0]
  65 0004 A047     		blx	r4
  66              	.LVL3:
  65:lvgl\src\lv_font/lv_font.c **** }
  67              		.loc 1 65 0
  68 0006 10BD     		pop	{r4, pc}
  69              		.cfi_endproc
  70              	.LFE6:
  71              		.size	lv_font_get_glyph_dsc, .-lv_font_get_glyph_dsc
  72              		.section	.text.lv_font_get_glyph_width,"ax",%progbits
  73              		.align	2
  74              		.global	lv_font_get_glyph_width
  75              		.thumb
  76              		.thumb_func
  77              		.type	lv_font_get_glyph_width, %function
  78              	lv_font_get_glyph_width:
  79              	.LFB7:
  66:lvgl\src\lv_font/lv_font.c **** 
  67:lvgl\src\lv_font/lv_font.c **** /**
  68:lvgl\src\lv_font/lv_font.c ****  * Get the width of a glyph with kerning
  69:lvgl\src\lv_font/lv_font.c ****  * @param font pointer to a font
  70:lvgl\src\lv_font/lv_font.c ****  * @param letter an UNICODE letter
  71:lvgl\src\lv_font/lv_font.c ****  * @param letter_next the next letter after `letter`. Used for kerning
  72:lvgl\src\lv_font/lv_font.c ****  * @return the width of the glyph
  73:lvgl\src\lv_font/lv_font.c ****  */
  74:lvgl\src\lv_font/lv_font.c **** uint16_t lv_font_get_glyph_width(const lv_font_t * font, uint32_t letter, uint32_t letter_next)
  75:lvgl\src\lv_font/lv_font.c **** {
  80              		.loc 1 75 0
  81              		.cfi_startproc
  82              		@ args = 0, pretend = 0, frame = 16
  83              		@ frame_needed = 0, uses_anonymous_args = 0
  84              	.LVL4:
  85 0000 00B5     		push	{lr}
  86              		.cfi_def_cfa_offset 4
  87              		.cfi_offset 14, -4
  88 0002 85B0     		sub	sp, sp, #20
  89              		.cfi_def_cfa_offset 24
  76:lvgl\src\lv_font/lv_font.c ****     lv_font_glyph_dsc_t g;
  77:lvgl\src\lv_font/lv_font.c ****     bool ret;
  78:lvgl\src\lv_font/lv_font.c ****     ret = lv_font_get_glyph_dsc(font, &g, letter, letter_next);
  90              		.loc 1 78 0
  91 0004 1346     		mov	r3, r2
  92 0006 0A46     		mov	r2, r1
  93              	.LVL5:
ARM GAS  C:\Users\strap\AppData\Local\Temp\ccZbKdR4.s 			page 4


  94 0008 01A9     		add	r1, sp, #4
  95              	.LVL6:
  96 000a FFF7FEFF 		bl	lv_font_get_glyph_dsc
  97              	.LVL7:
  79:lvgl\src\lv_font/lv_font.c ****     if(ret) return g.adv_w;
  98              		.loc 1 79 0
  99 000e 10B1     		cbz	r0, .L7
 100              		.loc 1 79 0 is_stmt 0 discriminator 1
 101 0010 BDF80400 		ldrh	r0, [sp, #4]
 102              	.LVL8:
 103 0014 00E0     		b	.L6
 104              	.LVL9:
 105              	.L7:
  80:lvgl\src\lv_font/lv_font.c ****     else return 0;
 106              		.loc 1 80 0 is_stmt 1
 107 0016 0020     		movs	r0, #0
 108              	.LVL10:
 109              	.L6:
  81:lvgl\src\lv_font/lv_font.c **** }
 110              		.loc 1 81 0
 111 0018 05B0     		add	sp, sp, #20
 112              		.cfi_def_cfa_offset 4
 113              		@ sp needed
 114 001a 5DF804FB 		ldr	pc, [sp], #4
 115              		.cfi_endproc
 116              	.LFE7:
 117              		.size	lv_font_get_glyph_width, .-lv_font_get_glyph_width
 118 001e 00BF     		.text
 119              	.Letext0:
 120              		.file 2 "c:\\program files (x86)\\cypress\\psoc creator\\4.4\\psoc creator\\import\\gnu\\arm\\5.4.
 121              		.file 3 "c:\\program files (x86)\\cypress\\psoc creator\\4.4\\psoc creator\\import\\gnu\\arm\\5.4.
 122              		.file 4 "lvgl\\src\\lv_font\\../../../lv_conf.h"
 123              		.file 5 "lvgl\\src\\lv_font\\lv_font.h"