ARM GAS  C:\Users\strap\AppData\Local\Temp\ccKJQbxb.s 			page 1


   1              		.syntax unified
   2              		.cpu cortex-m3
   3              		.fpu softvfp
   4              		.eabi_attribute 20, 1
   5              		.eabi_attribute 21, 1
   6              		.eabi_attribute 23, 3
   7              		.eabi_attribute 24, 1
   8              		.eabi_attribute 25, 1
   9              		.eabi_attribute 26, 1
  10              		.eabi_attribute 30, 1
  11              		.eabi_attribute 34, 1
  12              		.eabi_attribute 18, 4
  13              		.thumb
  14              		.syntax unified
  15              		.file	"lv_font_fmt_txt.c"
  16              		.text
  17              	.Ltext0:
  18              		.cfi_sections	.debug_frame
  19              		.section	.text.kern_pair_8_compare,"ax",%progbits
  20              		.align	2
  21              		.thumb
  22              		.thumb_func
  23              		.type	kern_pair_8_compare, %function
  24              	kern_pair_8_compare:
  25              	.LFB42:
  26              		.file 1 "lvgl\\src\\lv_font\\lv_font_fmt_txt.c"
   1:lvgl\src\lv_font/lv_font_fmt_txt.c **** /**
   2:lvgl\src\lv_font/lv_font_fmt_txt.c ****  * @file lv_font.c
   3:lvgl\src\lv_font/lv_font_fmt_txt.c ****  *
   4:lvgl\src\lv_font/lv_font_fmt_txt.c ****  */
   5:lvgl\src\lv_font/lv_font_fmt_txt.c **** 
   6:lvgl\src\lv_font/lv_font_fmt_txt.c **** /*********************
   7:lvgl\src\lv_font/lv_font_fmt_txt.c ****  *      INCLUDES
   8:lvgl\src\lv_font/lv_font_fmt_txt.c ****  *********************/
   9:lvgl\src\lv_font/lv_font_fmt_txt.c **** #include "lv_font.h"
  10:lvgl\src\lv_font/lv_font_fmt_txt.c **** #include "lv_font_fmt_txt.h"
  11:lvgl\src\lv_font/lv_font_fmt_txt.c **** #include "../lv_misc/lv_debug.h"
  12:lvgl\src\lv_font/lv_font_fmt_txt.c **** #include "../lv_draw/lv_draw.h"
  13:lvgl\src\lv_font/lv_font_fmt_txt.c **** #include "../lv_misc/lv_types.h"
  14:lvgl\src\lv_font/lv_font_fmt_txt.c **** #include "../lv_misc/lv_gc.h"
  15:lvgl\src\lv_font/lv_font_fmt_txt.c **** #include "../lv_misc/lv_log.h"
  16:lvgl\src\lv_font/lv_font_fmt_txt.c **** #include "../lv_misc/lv_utils.h"
  17:lvgl\src\lv_font/lv_font_fmt_txt.c **** #include "../lv_misc/lv_mem.h"
  18:lvgl\src\lv_font/lv_font_fmt_txt.c **** 
  19:lvgl\src\lv_font/lv_font_fmt_txt.c **** #if defined(LV_GC_INCLUDE)
  20:lvgl\src\lv_font/lv_font_fmt_txt.c ****     #include LV_GC_INCLUDE
  21:lvgl\src\lv_font/lv_font_fmt_txt.c **** #endif /* LV_ENABLE_GC */
  22:lvgl\src\lv_font/lv_font_fmt_txt.c **** 
  23:lvgl\src\lv_font/lv_font_fmt_txt.c **** /*********************
  24:lvgl\src\lv_font/lv_font_fmt_txt.c ****  *      DEFINES
  25:lvgl\src\lv_font/lv_font_fmt_txt.c ****  *********************/
  26:lvgl\src\lv_font/lv_font_fmt_txt.c **** 
  27:lvgl\src\lv_font/lv_font_fmt_txt.c **** /**********************
  28:lvgl\src\lv_font/lv_font_fmt_txt.c ****  *      TYPEDEFS
  29:lvgl\src\lv_font/lv_font_fmt_txt.c ****  **********************/
  30:lvgl\src\lv_font/lv_font_fmt_txt.c **** typedef enum {
  31:lvgl\src\lv_font/lv_font_fmt_txt.c ****     RLE_STATE_SINGLE = 0,
ARM GAS  C:\Users\strap\AppData\Local\Temp\ccKJQbxb.s 			page 2


  32:lvgl\src\lv_font/lv_font_fmt_txt.c ****     RLE_STATE_REPEATE,
  33:lvgl\src\lv_font/lv_font_fmt_txt.c ****     RLE_STATE_COUNTER,
  34:lvgl\src\lv_font/lv_font_fmt_txt.c **** } rle_state_t;
  35:lvgl\src\lv_font/lv_font_fmt_txt.c **** 
  36:lvgl\src\lv_font/lv_font_fmt_txt.c **** /**********************
  37:lvgl\src\lv_font/lv_font_fmt_txt.c ****  *  STATIC PROTOTYPES
  38:lvgl\src\lv_font/lv_font_fmt_txt.c ****  **********************/
  39:lvgl\src\lv_font/lv_font_fmt_txt.c **** static uint32_t get_glyph_dsc_id(const lv_font_t * font, uint32_t letter);
  40:lvgl\src\lv_font/lv_font_fmt_txt.c **** static int8_t get_kern_value(const lv_font_t * font, uint32_t gid_left, uint32_t gid_right);
  41:lvgl\src\lv_font/lv_font_fmt_txt.c **** static int32_t unicode_list_compare(const void * ref, const void * element);
  42:lvgl\src\lv_font/lv_font_fmt_txt.c **** static int32_t kern_pair_8_compare(const void * ref, const void * element);
  43:lvgl\src\lv_font/lv_font_fmt_txt.c **** static int32_t kern_pair_16_compare(const void * ref, const void * element);
  44:lvgl\src\lv_font/lv_font_fmt_txt.c **** 
  45:lvgl\src\lv_font/lv_font_fmt_txt.c **** static void decompress(const uint8_t * in, uint8_t * out, lv_coord_t w, lv_coord_t h, uint8_t bpp, 
  46:lvgl\src\lv_font/lv_font_fmt_txt.c **** static inline void decompress_line(uint8_t * out, lv_coord_t w);
  47:lvgl\src\lv_font/lv_font_fmt_txt.c **** static inline uint8_t get_bits(const uint8_t * in, uint32_t bit_pos, uint8_t len);
  48:lvgl\src\lv_font/lv_font_fmt_txt.c **** static inline void bits_write(uint8_t * out, uint32_t bit_pos, uint8_t val, uint8_t len);
  49:lvgl\src\lv_font/lv_font_fmt_txt.c **** static inline void rle_init(const uint8_t * in,  uint8_t bpp);
  50:lvgl\src\lv_font/lv_font_fmt_txt.c **** static inline uint8_t rle_next(void);
  51:lvgl\src\lv_font/lv_font_fmt_txt.c **** 
  52:lvgl\src\lv_font/lv_font_fmt_txt.c **** /**********************
  53:lvgl\src\lv_font/lv_font_fmt_txt.c ****  *  STATIC VARIABLES
  54:lvgl\src\lv_font/lv_font_fmt_txt.c ****  **********************/
  55:lvgl\src\lv_font/lv_font_fmt_txt.c **** static uint32_t rle_rdp;
  56:lvgl\src\lv_font/lv_font_fmt_txt.c **** static const uint8_t * rle_in;
  57:lvgl\src\lv_font/lv_font_fmt_txt.c **** static uint8_t rle_bpp;
  58:lvgl\src\lv_font/lv_font_fmt_txt.c **** static uint8_t rle_prev_v;
  59:lvgl\src\lv_font/lv_font_fmt_txt.c **** static uint8_t rle_cnt;
  60:lvgl\src\lv_font/lv_font_fmt_txt.c **** static rle_state_t rle_state;
  61:lvgl\src\lv_font/lv_font_fmt_txt.c **** 
  62:lvgl\src\lv_font/lv_font_fmt_txt.c **** /**********************
  63:lvgl\src\lv_font/lv_font_fmt_txt.c ****  * GLOBAL PROTOTYPES
  64:lvgl\src\lv_font/lv_font_fmt_txt.c ****  **********************/
  65:lvgl\src\lv_font/lv_font_fmt_txt.c **** 
  66:lvgl\src\lv_font/lv_font_fmt_txt.c **** /**********************
  67:lvgl\src\lv_font/lv_font_fmt_txt.c ****  *      MACROS
  68:lvgl\src\lv_font/lv_font_fmt_txt.c ****  **********************/
  69:lvgl\src\lv_font/lv_font_fmt_txt.c **** 
  70:lvgl\src\lv_font/lv_font_fmt_txt.c **** /**********************
  71:lvgl\src\lv_font/lv_font_fmt_txt.c ****  *   GLOBAL FUNCTIONS
  72:lvgl\src\lv_font/lv_font_fmt_txt.c ****  **********************/
  73:lvgl\src\lv_font/lv_font_fmt_txt.c **** 
  74:lvgl\src\lv_font/lv_font_fmt_txt.c **** /**
  75:lvgl\src\lv_font/lv_font_fmt_txt.c ****  * Used as `get_glyph_bitmap` callback in LittelvGL's native font format if the font is uncompresse
  76:lvgl\src\lv_font/lv_font_fmt_txt.c ****  * @param font pointer to font
  77:lvgl\src\lv_font/lv_font_fmt_txt.c ****  * @param unicode_letter an unicode letter which bitmap should be get
  78:lvgl\src\lv_font/lv_font_fmt_txt.c ****  * @return pointer to the bitmap or NULL if not found
  79:lvgl\src\lv_font/lv_font_fmt_txt.c ****  */
  80:lvgl\src\lv_font/lv_font_fmt_txt.c **** const uint8_t * lv_font_get_bitmap_fmt_txt(const lv_font_t * font, uint32_t unicode_letter)
  81:lvgl\src\lv_font/lv_font_fmt_txt.c **** {
  82:lvgl\src\lv_font/lv_font_fmt_txt.c ****     if(unicode_letter == '\t') unicode_letter = ' ';
  83:lvgl\src\lv_font/lv_font_fmt_txt.c **** 
  84:lvgl\src\lv_font/lv_font_fmt_txt.c ****     lv_font_fmt_txt_dsc_t * fdsc = (lv_font_fmt_txt_dsc_t *) font->dsc;
  85:lvgl\src\lv_font/lv_font_fmt_txt.c ****     uint32_t gid = get_glyph_dsc_id(font, unicode_letter);
  86:lvgl\src\lv_font/lv_font_fmt_txt.c ****     if(!gid) return NULL;
  87:lvgl\src\lv_font/lv_font_fmt_txt.c **** 
  88:lvgl\src\lv_font/lv_font_fmt_txt.c ****     const lv_font_fmt_txt_glyph_dsc_t * gdsc = &fdsc->glyph_dsc[gid];
ARM GAS  C:\Users\strap\AppData\Local\Temp\ccKJQbxb.s 			page 3


  89:lvgl\src\lv_font/lv_font_fmt_txt.c **** 
  90:lvgl\src\lv_font/lv_font_fmt_txt.c ****     if(fdsc->bitmap_format == LV_FONT_FMT_TXT_PLAIN) {
  91:lvgl\src\lv_font/lv_font_fmt_txt.c ****         if(gdsc) return &fdsc->glyph_bitmap[gdsc->bitmap_index];
  92:lvgl\src\lv_font/lv_font_fmt_txt.c ****     }
  93:lvgl\src\lv_font/lv_font_fmt_txt.c ****     /*Handle compressed bitmap*/
  94:lvgl\src\lv_font/lv_font_fmt_txt.c ****     else {
  95:lvgl\src\lv_font/lv_font_fmt_txt.c **** #if LV_USE_FONT_COMPRESSED
  96:lvgl\src\lv_font/lv_font_fmt_txt.c ****         uint32_t gsize = gdsc->box_w * gdsc->box_h;
  97:lvgl\src\lv_font/lv_font_fmt_txt.c ****         if(gsize == 0) return NULL;
  98:lvgl\src\lv_font/lv_font_fmt_txt.c **** 
  99:lvgl\src\lv_font/lv_font_fmt_txt.c ****         uint32_t buf_size = gsize;
 100:lvgl\src\lv_font/lv_font_fmt_txt.c ****         /*Compute memory size needed to hold decompressed glyph, rounding up*/
 101:lvgl\src\lv_font/lv_font_fmt_txt.c ****         switch(fdsc->bpp) {
 102:lvgl\src\lv_font/lv_font_fmt_txt.c ****             case 1:
 103:lvgl\src\lv_font/lv_font_fmt_txt.c ****                 buf_size = (gsize + 7) >> 3;
 104:lvgl\src\lv_font/lv_font_fmt_txt.c ****                 break;
 105:lvgl\src\lv_font/lv_font_fmt_txt.c ****             case 2:
 106:lvgl\src\lv_font/lv_font_fmt_txt.c ****                 buf_size = (gsize + 3) >> 2;
 107:lvgl\src\lv_font/lv_font_fmt_txt.c ****                 break;
 108:lvgl\src\lv_font/lv_font_fmt_txt.c ****             case 3:
 109:lvgl\src\lv_font/lv_font_fmt_txt.c ****                 buf_size = (gsize + 1) >> 1;
 110:lvgl\src\lv_font/lv_font_fmt_txt.c ****                 break;
 111:lvgl\src\lv_font/lv_font_fmt_txt.c ****             case 4:
 112:lvgl\src\lv_font/lv_font_fmt_txt.c ****                 buf_size = (gsize + 1) >> 1;
 113:lvgl\src\lv_font/lv_font_fmt_txt.c ****                 break;
 114:lvgl\src\lv_font/lv_font_fmt_txt.c ****         }
 115:lvgl\src\lv_font/lv_font_fmt_txt.c **** 
 116:lvgl\src\lv_font/lv_font_fmt_txt.c ****         if(_lv_mem_get_size(LV_GC_ROOT(_lv_font_decompr_buf)) < buf_size) {
 117:lvgl\src\lv_font/lv_font_fmt_txt.c ****             LV_GC_ROOT(_lv_font_decompr_buf) = lv_mem_realloc(LV_GC_ROOT(_lv_font_decompr_buf), buf
 118:lvgl\src\lv_font/lv_font_fmt_txt.c ****             LV_ASSERT_MEM(LV_GC_ROOT(_lv_font_decompr_buf));
 119:lvgl\src\lv_font/lv_font_fmt_txt.c ****             if(LV_GC_ROOT(_lv_font_decompr_buf) == NULL) return NULL;
 120:lvgl\src\lv_font/lv_font_fmt_txt.c ****         }
 121:lvgl\src\lv_font/lv_font_fmt_txt.c **** 
 122:lvgl\src\lv_font/lv_font_fmt_txt.c ****         bool prefilter = fdsc->bitmap_format == LV_FONT_FMT_TXT_COMPRESSED ? true : false;
 123:lvgl\src\lv_font/lv_font_fmt_txt.c ****         decompress(&fdsc->glyph_bitmap[gdsc->bitmap_index], LV_GC_ROOT(_lv_font_decompr_buf), gdsc-
 124:lvgl\src\lv_font/lv_font_fmt_txt.c ****                    (uint8_t)fdsc->bpp,
 125:lvgl\src\lv_font/lv_font_fmt_txt.c ****                    prefilter);
 126:lvgl\src\lv_font/lv_font_fmt_txt.c ****         return LV_GC_ROOT(_lv_font_decompr_buf);
 127:lvgl\src\lv_font/lv_font_fmt_txt.c **** #else /* !LV_USE_FONT_COMPRESSED */
 128:lvgl\src\lv_font/lv_font_fmt_txt.c ****         return NULL;
 129:lvgl\src\lv_font/lv_font_fmt_txt.c **** #endif
 130:lvgl\src\lv_font/lv_font_fmt_txt.c ****     }
 131:lvgl\src\lv_font/lv_font_fmt_txt.c **** 
 132:lvgl\src\lv_font/lv_font_fmt_txt.c ****     /*If not returned earlier then the letter is not found in this font*/
 133:lvgl\src\lv_font/lv_font_fmt_txt.c ****     return NULL;
 134:lvgl\src\lv_font/lv_font_fmt_txt.c **** }
 135:lvgl\src\lv_font/lv_font_fmt_txt.c **** 
 136:lvgl\src\lv_font/lv_font_fmt_txt.c **** /**
 137:lvgl\src\lv_font/lv_font_fmt_txt.c ****  * Used as `get_glyph_dsc` callback in LittelvGL's native font format if the font is uncompressed.
 138:lvgl\src\lv_font/lv_font_fmt_txt.c ****  * @param font_p pointer to font
 139:lvgl\src\lv_font/lv_font_fmt_txt.c ****  * @param dsc_out store the result descriptor here
 140:lvgl\src\lv_font/lv_font_fmt_txt.c ****  * @param letter an UNICODE letter code
 141:lvgl\src\lv_font/lv_font_fmt_txt.c ****  * @return true: descriptor is successfully loaded into `dsc_out`.
 142:lvgl\src\lv_font/lv_font_fmt_txt.c ****  *         false: the letter was not found, no data is loaded to `dsc_out`
 143:lvgl\src\lv_font/lv_font_fmt_txt.c ****  */
 144:lvgl\src\lv_font/lv_font_fmt_txt.c **** bool lv_font_get_glyph_dsc_fmt_txt(const lv_font_t * font, lv_font_glyph_dsc_t * dsc_out, uint32_t 
 145:lvgl\src\lv_font/lv_font_fmt_txt.c ****                                    uint32_t unicode_letter_next)
ARM GAS  C:\Users\strap\AppData\Local\Temp\ccKJQbxb.s 			page 4


 146:lvgl\src\lv_font/lv_font_fmt_txt.c **** {
 147:lvgl\src\lv_font/lv_font_fmt_txt.c ****     bool is_tab = false;
 148:lvgl\src\lv_font/lv_font_fmt_txt.c ****     if(unicode_letter == '\t') {
 149:lvgl\src\lv_font/lv_font_fmt_txt.c ****         unicode_letter = ' ';
 150:lvgl\src\lv_font/lv_font_fmt_txt.c ****         is_tab = true;
 151:lvgl\src\lv_font/lv_font_fmt_txt.c ****     }
 152:lvgl\src\lv_font/lv_font_fmt_txt.c ****     lv_font_fmt_txt_dsc_t * fdsc = (lv_font_fmt_txt_dsc_t *) font->dsc;
 153:lvgl\src\lv_font/lv_font_fmt_txt.c ****     uint32_t gid = get_glyph_dsc_id(font, unicode_letter);
 154:lvgl\src\lv_font/lv_font_fmt_txt.c ****     if(!gid) return false;
 155:lvgl\src\lv_font/lv_font_fmt_txt.c **** 
 156:lvgl\src\lv_font/lv_font_fmt_txt.c ****     int8_t kvalue = 0;
 157:lvgl\src\lv_font/lv_font_fmt_txt.c ****     if(fdsc->kern_dsc) {
 158:lvgl\src\lv_font/lv_font_fmt_txt.c ****         uint32_t gid_next = get_glyph_dsc_id(font, unicode_letter_next);
 159:lvgl\src\lv_font/lv_font_fmt_txt.c ****         if(gid_next) {
 160:lvgl\src\lv_font/lv_font_fmt_txt.c ****             kvalue = get_kern_value(font, gid, gid_next);
 161:lvgl\src\lv_font/lv_font_fmt_txt.c ****         }
 162:lvgl\src\lv_font/lv_font_fmt_txt.c ****     }
 163:lvgl\src\lv_font/lv_font_fmt_txt.c **** 
 164:lvgl\src\lv_font/lv_font_fmt_txt.c ****     /*Put together a glyph dsc*/
 165:lvgl\src\lv_font/lv_font_fmt_txt.c ****     const lv_font_fmt_txt_glyph_dsc_t * gdsc = &fdsc->glyph_dsc[gid];
 166:lvgl\src\lv_font/lv_font_fmt_txt.c **** 
 167:lvgl\src\lv_font/lv_font_fmt_txt.c ****     int32_t kv = ((int32_t)((int32_t)kvalue * fdsc->kern_scale) >> 4);
 168:lvgl\src\lv_font/lv_font_fmt_txt.c **** 
 169:lvgl\src\lv_font/lv_font_fmt_txt.c ****     uint32_t adv_w = gdsc->adv_w;
 170:lvgl\src\lv_font/lv_font_fmt_txt.c ****     if(is_tab) adv_w *= 2;
 171:lvgl\src\lv_font/lv_font_fmt_txt.c **** 
 172:lvgl\src\lv_font/lv_font_fmt_txt.c ****     adv_w += kv;
 173:lvgl\src\lv_font/lv_font_fmt_txt.c ****     adv_w  = (adv_w + (1 << 3)) >> 4;
 174:lvgl\src\lv_font/lv_font_fmt_txt.c **** 
 175:lvgl\src\lv_font/lv_font_fmt_txt.c ****     dsc_out->adv_w = adv_w;
 176:lvgl\src\lv_font/lv_font_fmt_txt.c ****     dsc_out->box_h = gdsc->box_h;
 177:lvgl\src\lv_font/lv_font_fmt_txt.c ****     dsc_out->box_w = gdsc->box_w;
 178:lvgl\src\lv_font/lv_font_fmt_txt.c ****     dsc_out->ofs_x = gdsc->ofs_x;
 179:lvgl\src\lv_font/lv_font_fmt_txt.c ****     dsc_out->ofs_y = gdsc->ofs_y;
 180:lvgl\src\lv_font/lv_font_fmt_txt.c ****     dsc_out->bpp   = (uint8_t)fdsc->bpp;
 181:lvgl\src\lv_font/lv_font_fmt_txt.c **** 
 182:lvgl\src\lv_font/lv_font_fmt_txt.c ****     if(is_tab) dsc_out->box_w = dsc_out->box_w * 2;
 183:lvgl\src\lv_font/lv_font_fmt_txt.c **** 
 184:lvgl\src\lv_font/lv_font_fmt_txt.c ****     return true;
 185:lvgl\src\lv_font/lv_font_fmt_txt.c **** }
 186:lvgl\src\lv_font/lv_font_fmt_txt.c **** 
 187:lvgl\src\lv_font/lv_font_fmt_txt.c **** /**
 188:lvgl\src\lv_font/lv_font_fmt_txt.c ****  * Free the allocated memories.
 189:lvgl\src\lv_font/lv_font_fmt_txt.c ****  */
 190:lvgl\src\lv_font/lv_font_fmt_txt.c **** void _lv_font_clean_up_fmt_txt(void)
 191:lvgl\src\lv_font/lv_font_fmt_txt.c **** {
 192:lvgl\src\lv_font/lv_font_fmt_txt.c ****     if(LV_GC_ROOT(_lv_font_decompr_buf)) {
 193:lvgl\src\lv_font/lv_font_fmt_txt.c ****         lv_mem_free(LV_GC_ROOT(_lv_font_decompr_buf));
 194:lvgl\src\lv_font/lv_font_fmt_txt.c ****         LV_GC_ROOT(_lv_font_decompr_buf) = NULL;
 195:lvgl\src\lv_font/lv_font_fmt_txt.c ****     }
 196:lvgl\src\lv_font/lv_font_fmt_txt.c **** }
 197:lvgl\src\lv_font/lv_font_fmt_txt.c **** 
 198:lvgl\src\lv_font/lv_font_fmt_txt.c **** 
 199:lvgl\src\lv_font/lv_font_fmt_txt.c **** /**********************
 200:lvgl\src\lv_font/lv_font_fmt_txt.c ****  *   STATIC FUNCTIONS
 201:lvgl\src\lv_font/lv_font_fmt_txt.c ****  **********************/
 202:lvgl\src\lv_font/lv_font_fmt_txt.c **** 
ARM GAS  C:\Users\strap\AppData\Local\Temp\ccKJQbxb.s 			page 5


 203:lvgl\src\lv_font/lv_font_fmt_txt.c **** static uint32_t get_glyph_dsc_id(const lv_font_t * font, uint32_t letter)
 204:lvgl\src\lv_font/lv_font_fmt_txt.c **** {
 205:lvgl\src\lv_font/lv_font_fmt_txt.c ****     if(letter == '\0') return 0;
 206:lvgl\src\lv_font/lv_font_fmt_txt.c **** 
 207:lvgl\src\lv_font/lv_font_fmt_txt.c ****     lv_font_fmt_txt_dsc_t * fdsc = (lv_font_fmt_txt_dsc_t *) font->dsc;
 208:lvgl\src\lv_font/lv_font_fmt_txt.c **** 
 209:lvgl\src\lv_font/lv_font_fmt_txt.c ****     /*Check the cache first*/
 210:lvgl\src\lv_font/lv_font_fmt_txt.c ****     if(letter == fdsc->last_letter) return fdsc->last_glyph_id;
 211:lvgl\src\lv_font/lv_font_fmt_txt.c **** 
 212:lvgl\src\lv_font/lv_font_fmt_txt.c ****     uint16_t i;
 213:lvgl\src\lv_font/lv_font_fmt_txt.c ****     for(i = 0; i < fdsc->cmap_num; i++) {
 214:lvgl\src\lv_font/lv_font_fmt_txt.c **** 
 215:lvgl\src\lv_font/lv_font_fmt_txt.c ****         /*Relative code point*/
 216:lvgl\src\lv_font/lv_font_fmt_txt.c ****         uint32_t rcp = letter - fdsc->cmaps[i].range_start;
 217:lvgl\src\lv_font/lv_font_fmt_txt.c ****         if(rcp > fdsc->cmaps[i].range_length) continue;
 218:lvgl\src\lv_font/lv_font_fmt_txt.c ****         uint32_t glyph_id = 0;
 219:lvgl\src\lv_font/lv_font_fmt_txt.c ****         if(fdsc->cmaps[i].type == LV_FONT_FMT_TXT_CMAP_FORMAT0_TINY) {
 220:lvgl\src\lv_font/lv_font_fmt_txt.c ****             glyph_id = fdsc->cmaps[i].glyph_id_start + rcp;
 221:lvgl\src\lv_font/lv_font_fmt_txt.c ****         }
 222:lvgl\src\lv_font/lv_font_fmt_txt.c ****         else if(fdsc->cmaps[i].type == LV_FONT_FMT_TXT_CMAP_FORMAT0_FULL) {
 223:lvgl\src\lv_font/lv_font_fmt_txt.c ****             const uint8_t * gid_ofs_8 = fdsc->cmaps[i].glyph_id_ofs_list;
 224:lvgl\src\lv_font/lv_font_fmt_txt.c ****             glyph_id = fdsc->cmaps[i].glyph_id_start + gid_ofs_8[rcp];
 225:lvgl\src\lv_font/lv_font_fmt_txt.c ****         }
 226:lvgl\src\lv_font/lv_font_fmt_txt.c ****         else if(fdsc->cmaps[i].type == LV_FONT_FMT_TXT_CMAP_SPARSE_TINY) {
 227:lvgl\src\lv_font/lv_font_fmt_txt.c ****             uint16_t key = rcp;
 228:lvgl\src\lv_font/lv_font_fmt_txt.c ****             uint8_t * p = _lv_utils_bsearch(&key, fdsc->cmaps[i].unicode_list, fdsc->cmaps[i].list_
 229:lvgl\src\lv_font/lv_font_fmt_txt.c ****                                             sizeof(fdsc->cmaps[i].unicode_list[0]), unicode_list_co
 230:lvgl\src\lv_font/lv_font_fmt_txt.c **** 
 231:lvgl\src\lv_font/lv_font_fmt_txt.c ****             if(p) {
 232:lvgl\src\lv_font/lv_font_fmt_txt.c ****                 lv_uintptr_t ofs = (lv_uintptr_t)(p - (uint8_t *) fdsc->cmaps[i].unicode_list);
 233:lvgl\src\lv_font/lv_font_fmt_txt.c ****                 ofs = ofs >> 1;     /*The list stores `uint16_t` so the get the index divide by 2*/
 234:lvgl\src\lv_font/lv_font_fmt_txt.c ****                 glyph_id = fdsc->cmaps[i].glyph_id_start + ofs;
 235:lvgl\src\lv_font/lv_font_fmt_txt.c ****             }
 236:lvgl\src\lv_font/lv_font_fmt_txt.c ****         }
 237:lvgl\src\lv_font/lv_font_fmt_txt.c ****         else if(fdsc->cmaps[i].type == LV_FONT_FMT_TXT_CMAP_SPARSE_FULL) {
 238:lvgl\src\lv_font/lv_font_fmt_txt.c ****             uint16_t key = rcp;
 239:lvgl\src\lv_font/lv_font_fmt_txt.c ****             uint8_t * p = _lv_utils_bsearch(&key, fdsc->cmaps[i].unicode_list, fdsc->cmaps[i].list_
 240:lvgl\src\lv_font/lv_font_fmt_txt.c ****                                             sizeof(fdsc->cmaps[i].unicode_list[0]), unicode_list_co
 241:lvgl\src\lv_font/lv_font_fmt_txt.c **** 
 242:lvgl\src\lv_font/lv_font_fmt_txt.c ****             if(p) {
 243:lvgl\src\lv_font/lv_font_fmt_txt.c ****                 lv_uintptr_t ofs = (lv_uintptr_t)(p - (uint8_t *) fdsc->cmaps[i].unicode_list);
 244:lvgl\src\lv_font/lv_font_fmt_txt.c ****                 ofs = ofs >> 1;     /*The list stores `uint16_t` so the get the index divide by 2*/
 245:lvgl\src\lv_font/lv_font_fmt_txt.c ****                 const uint8_t * gid_ofs_16 = fdsc->cmaps[i].glyph_id_ofs_list;
 246:lvgl\src\lv_font/lv_font_fmt_txt.c ****                 glyph_id = fdsc->cmaps[i].glyph_id_start + gid_ofs_16[ofs];
 247:lvgl\src\lv_font/lv_font_fmt_txt.c ****             }
 248:lvgl\src\lv_font/lv_font_fmt_txt.c ****         }
 249:lvgl\src\lv_font/lv_font_fmt_txt.c **** 
 250:lvgl\src\lv_font/lv_font_fmt_txt.c ****         /*Update the cache*/
 251:lvgl\src\lv_font/lv_font_fmt_txt.c ****         fdsc->last_letter = letter;
 252:lvgl\src\lv_font/lv_font_fmt_txt.c ****         fdsc->last_glyph_id = glyph_id;
 253:lvgl\src\lv_font/lv_font_fmt_txt.c ****         return glyph_id;
 254:lvgl\src\lv_font/lv_font_fmt_txt.c ****     }
 255:lvgl\src\lv_font/lv_font_fmt_txt.c **** 
 256:lvgl\src\lv_font/lv_font_fmt_txt.c ****     fdsc->last_letter = letter;
 257:lvgl\src\lv_font/lv_font_fmt_txt.c ****     fdsc->last_glyph_id = 0;
 258:lvgl\src\lv_font/lv_font_fmt_txt.c ****     return 0;
 259:lvgl\src\lv_font/lv_font_fmt_txt.c **** 
ARM GAS  C:\Users\strap\AppData\Local\Temp\ccKJQbxb.s 			page 6


 260:lvgl\src\lv_font/lv_font_fmt_txt.c **** }
 261:lvgl\src\lv_font/lv_font_fmt_txt.c **** 
 262:lvgl\src\lv_font/lv_font_fmt_txt.c **** static int8_t get_kern_value(const lv_font_t * font, uint32_t gid_left, uint32_t gid_right)
 263:lvgl\src\lv_font/lv_font_fmt_txt.c **** {
 264:lvgl\src\lv_font/lv_font_fmt_txt.c ****     lv_font_fmt_txt_dsc_t * fdsc = (lv_font_fmt_txt_dsc_t *) font->dsc;
 265:lvgl\src\lv_font/lv_font_fmt_txt.c **** 
 266:lvgl\src\lv_font/lv_font_fmt_txt.c ****     int8_t value = 0;
 267:lvgl\src\lv_font/lv_font_fmt_txt.c **** 
 268:lvgl\src\lv_font/lv_font_fmt_txt.c ****     if(fdsc->kern_classes == 0) {
 269:lvgl\src\lv_font/lv_font_fmt_txt.c ****         /*Kern pairs*/
 270:lvgl\src\lv_font/lv_font_fmt_txt.c ****         const lv_font_fmt_txt_kern_pair_t * kdsc = fdsc->kern_dsc;
 271:lvgl\src\lv_font/lv_font_fmt_txt.c ****         if(kdsc->glyph_ids_size == 0) {
 272:lvgl\src\lv_font/lv_font_fmt_txt.c ****             /* Use binary search to find the kern value.
 273:lvgl\src\lv_font/lv_font_fmt_txt.c ****              * The pairs are ordered left_id first, then right_id secondly. */
 274:lvgl\src\lv_font/lv_font_fmt_txt.c ****             const uint8_t * g_ids = kdsc->glyph_ids;
 275:lvgl\src\lv_font/lv_font_fmt_txt.c ****             uint16_t g_id_both = (gid_right << 8) + gid_left; /*Create one number from the ids*/
 276:lvgl\src\lv_font/lv_font_fmt_txt.c ****             uint8_t * kid_p = _lv_utils_bsearch(&g_id_both, g_ids, kdsc->pair_cnt, 2, kern_pair_8_c
 277:lvgl\src\lv_font/lv_font_fmt_txt.c **** 
 278:lvgl\src\lv_font/lv_font_fmt_txt.c ****             /*If the `g_id_both` were found get its index from the pointer*/
 279:lvgl\src\lv_font/lv_font_fmt_txt.c ****             if(kid_p) {
 280:lvgl\src\lv_font/lv_font_fmt_txt.c ****                 lv_uintptr_t ofs = (lv_uintptr_t)(kid_p - g_ids);
 281:lvgl\src\lv_font/lv_font_fmt_txt.c ****                 ofs = ofs >> 1;     /*ofs is for pair, divide by 2 to refer as a single value*/
 282:lvgl\src\lv_font/lv_font_fmt_txt.c ****                 value = kdsc->values[ofs];
 283:lvgl\src\lv_font/lv_font_fmt_txt.c ****             }
 284:lvgl\src\lv_font/lv_font_fmt_txt.c ****         }
 285:lvgl\src\lv_font/lv_font_fmt_txt.c ****         else if(kdsc->glyph_ids_size == 1) {
 286:lvgl\src\lv_font/lv_font_fmt_txt.c ****             /* Use binary search to find the kern value.
 287:lvgl\src\lv_font/lv_font_fmt_txt.c ****              * The pairs are ordered left_id first, then right_id secondly. */
 288:lvgl\src\lv_font/lv_font_fmt_txt.c ****             const uint16_t * g_ids = kdsc->glyph_ids;
 289:lvgl\src\lv_font/lv_font_fmt_txt.c ****             lv_uintptr_t g_id_both = (uint32_t)((uint32_t)gid_right << 8) + gid_left; /*Create one 
 290:lvgl\src\lv_font/lv_font_fmt_txt.c ****             uint8_t * kid_p = _lv_utils_bsearch(&g_id_both, g_ids, kdsc->pair_cnt, 4, kern_pair_16_
 291:lvgl\src\lv_font/lv_font_fmt_txt.c **** 
 292:lvgl\src\lv_font/lv_font_fmt_txt.c ****             /*If the `g_id_both` were found get its index from the pointer*/
 293:lvgl\src\lv_font/lv_font_fmt_txt.c ****             if(kid_p) {
 294:lvgl\src\lv_font/lv_font_fmt_txt.c ****                 lv_uintptr_t ofs = (lv_uintptr_t)(kid_p - (const uint8_t *)g_ids);
 295:lvgl\src\lv_font/lv_font_fmt_txt.c ****                 ofs = ofs >> 4;     /*ofs is 4 byte pairs, divide by 4 to refer as a single value*/
 296:lvgl\src\lv_font/lv_font_fmt_txt.c ****                 value = kdsc->values[ofs];
 297:lvgl\src\lv_font/lv_font_fmt_txt.c ****             }
 298:lvgl\src\lv_font/lv_font_fmt_txt.c **** 
 299:lvgl\src\lv_font/lv_font_fmt_txt.c ****         }
 300:lvgl\src\lv_font/lv_font_fmt_txt.c ****         else {
 301:lvgl\src\lv_font/lv_font_fmt_txt.c ****             /*Invalid value*/
 302:lvgl\src\lv_font/lv_font_fmt_txt.c ****         }
 303:lvgl\src\lv_font/lv_font_fmt_txt.c ****     }
 304:lvgl\src\lv_font/lv_font_fmt_txt.c ****     else {
 305:lvgl\src\lv_font/lv_font_fmt_txt.c ****         /*Kern classes*/
 306:lvgl\src\lv_font/lv_font_fmt_txt.c ****         const lv_font_fmt_txt_kern_classes_t * kdsc = fdsc->kern_dsc;
 307:lvgl\src\lv_font/lv_font_fmt_txt.c ****         uint8_t left_class = kdsc->left_class_mapping[gid_left];
 308:lvgl\src\lv_font/lv_font_fmt_txt.c ****         uint8_t right_class = kdsc->right_class_mapping[gid_right];
 309:lvgl\src\lv_font/lv_font_fmt_txt.c **** 
 310:lvgl\src\lv_font/lv_font_fmt_txt.c ****         /* If class = 0, kerning not exist for that glyph
 311:lvgl\src\lv_font/lv_font_fmt_txt.c ****          * else got the value form `class_pair_values` 2D array*/
 312:lvgl\src\lv_font/lv_font_fmt_txt.c ****         if(left_class > 0 && right_class > 0) {
 313:lvgl\src\lv_font/lv_font_fmt_txt.c ****             value = kdsc->class_pair_values[(left_class - 1) * kdsc->right_class_cnt + (right_class
 314:lvgl\src\lv_font/lv_font_fmt_txt.c ****         }
 315:lvgl\src\lv_font/lv_font_fmt_txt.c **** 
 316:lvgl\src\lv_font/lv_font_fmt_txt.c ****     }
ARM GAS  C:\Users\strap\AppData\Local\Temp\ccKJQbxb.s 			page 7


 317:lvgl\src\lv_font/lv_font_fmt_txt.c ****     return value;
 318:lvgl\src\lv_font/lv_font_fmt_txt.c **** }
 319:lvgl\src\lv_font/lv_font_fmt_txt.c **** 
 320:lvgl\src\lv_font/lv_font_fmt_txt.c **** static int32_t kern_pair_8_compare(const void * ref, const void * element)
 321:lvgl\src\lv_font/lv_font_fmt_txt.c **** {
  27              		.loc 1 321 0
  28              		.cfi_startproc
  29              		@ args = 0, pretend = 0, frame = 0
  30              		@ frame_needed = 0, uses_anonymous_args = 0
  31              		@ link register save eliminated.
  32              	.LVL0:
 322:lvgl\src\lv_font/lv_font_fmt_txt.c ****     const uint8_t * ref8_p = ref;
 323:lvgl\src\lv_font/lv_font_fmt_txt.c ****     const uint8_t * element8_p = element;
 324:lvgl\src\lv_font/lv_font_fmt_txt.c **** 
 325:lvgl\src\lv_font/lv_font_fmt_txt.c ****     /*If the MSB is different it will matter. If not return the diff. of the LSB*/
 326:lvgl\src\lv_font/lv_font_fmt_txt.c ****     if(ref8_p[0] != element8_p[0]) return (int32_t)ref8_p[0] - element8_p[0];
  33              		.loc 1 326 0
  34 0000 0378     		ldrb	r3, [r0]	@ zero_extendqisi2
  35 0002 0A78     		ldrb	r2, [r1]	@ zero_extendqisi2
  36 0004 9342     		cmp	r3, r2
  37 0006 01D0     		beq	.L2
  38              		.loc 1 326 0 is_stmt 0 discriminator 1
  39 0008 981A     		subs	r0, r3, r2
  40              	.LVL1:
  41 000a 7047     		bx	lr
  42              	.LVL2:
  43              	.L2:
 327:lvgl\src\lv_font/lv_font_fmt_txt.c ****     else return (int32_t) ref8_p[1] - element8_p[1];
  44              		.loc 1 327 0 is_stmt 1
  45 000c 4378     		ldrb	r3, [r0, #1]	@ zero_extendqisi2
  46 000e 4878     		ldrb	r0, [r1, #1]	@ zero_extendqisi2
  47              	.LVL3:
  48 0010 181A     		subs	r0, r3, r0
 328:lvgl\src\lv_font/lv_font_fmt_txt.c **** 
 329:lvgl\src\lv_font/lv_font_fmt_txt.c **** }
  49              		.loc 1 329 0
  50 0012 7047     		bx	lr
  51              		.cfi_endproc
  52              	.LFE42:
  53              		.size	kern_pair_8_compare, .-kern_pair_8_compare
  54              		.section	.text.kern_pair_16_compare,"ax",%progbits
  55              		.align	2
  56              		.thumb
  57              		.thumb_func
  58              		.type	kern_pair_16_compare, %function
  59              	kern_pair_16_compare:
  60              	.LFB43:
 330:lvgl\src\lv_font/lv_font_fmt_txt.c **** 
 331:lvgl\src\lv_font/lv_font_fmt_txt.c **** static int32_t kern_pair_16_compare(const void * ref, const void * element)
 332:lvgl\src\lv_font/lv_font_fmt_txt.c **** {
  61              		.loc 1 332 0
  62              		.cfi_startproc
  63              		@ args = 0, pretend = 0, frame = 0
  64              		@ frame_needed = 0, uses_anonymous_args = 0
  65              		@ link register save eliminated.
  66              	.LVL4:
 333:lvgl\src\lv_font/lv_font_fmt_txt.c ****     const uint16_t * ref16_p = ref;
ARM GAS  C:\Users\strap\AppData\Local\Temp\ccKJQbxb.s 			page 8


 334:lvgl\src\lv_font/lv_font_fmt_txt.c ****     const uint16_t * element16_p = element;
 335:lvgl\src\lv_font/lv_font_fmt_txt.c **** 
 336:lvgl\src\lv_font/lv_font_fmt_txt.c ****     /*If the MSB is different it will matter. If not return the diff. of the LSB*/
 337:lvgl\src\lv_font/lv_font_fmt_txt.c ****     if(ref16_p[0] != element16_p[0]) return (int32_t)ref16_p[0] - element16_p[0];
  67              		.loc 1 337 0
  68 0000 0388     		ldrh	r3, [r0]
  69 0002 0A88     		ldrh	r2, [r1]
  70 0004 9342     		cmp	r3, r2
  71 0006 01D0     		beq	.L5
  72              		.loc 1 337 0 is_stmt 0 discriminator 1
  73 0008 981A     		subs	r0, r3, r2
  74              	.LVL5:
  75 000a 7047     		bx	lr
  76              	.LVL6:
  77              	.L5:
 338:lvgl\src\lv_font/lv_font_fmt_txt.c ****     else return (int32_t) ref16_p[1] - element16_p[1];
  78              		.loc 1 338 0 is_stmt 1
  79 000c 4388     		ldrh	r3, [r0, #2]
  80 000e 4888     		ldrh	r0, [r1, #2]
  81              	.LVL7:
  82 0010 181A     		subs	r0, r3, r0
 339:lvgl\src\lv_font/lv_font_fmt_txt.c **** }
  83              		.loc 1 339 0
  84 0012 7047     		bx	lr
  85              		.cfi_endproc
  86              	.LFE43:
  87              		.size	kern_pair_16_compare, .-kern_pair_16_compare
  88              		.section	.text.unicode_list_compare,"ax",%progbits
  89              		.align	2
  90              		.thumb
  91              		.thumb_func
  92              		.type	unicode_list_compare, %function
  93              	unicode_list_compare:
  94              	.LFB50:
 340:lvgl\src\lv_font/lv_font_fmt_txt.c **** 
 341:lvgl\src\lv_font/lv_font_fmt_txt.c **** /**
 342:lvgl\src\lv_font/lv_font_fmt_txt.c ****  * The compress a glyph's bitmap
 343:lvgl\src\lv_font/lv_font_fmt_txt.c ****  * @param in the compressed bitmap
 344:lvgl\src\lv_font/lv_font_fmt_txt.c ****  * @param out buffer to store the result
 345:lvgl\src\lv_font/lv_font_fmt_txt.c ****  * @param px_num number of pixels in the glyph (width * height)
 346:lvgl\src\lv_font/lv_font_fmt_txt.c ****  * @param bpp bit per pixel (bpp = 3 will be converted to bpp = 4)
 347:lvgl\src\lv_font/lv_font_fmt_txt.c ****  * @param prefilter true: the lines are XORed
 348:lvgl\src\lv_font/lv_font_fmt_txt.c ****  */
 349:lvgl\src\lv_font/lv_font_fmt_txt.c **** static void decompress(const uint8_t * in, uint8_t * out, lv_coord_t w, lv_coord_t h, uint8_t bpp, 
 350:lvgl\src\lv_font/lv_font_fmt_txt.c **** {
 351:lvgl\src\lv_font/lv_font_fmt_txt.c ****     uint32_t wrp = 0;
 352:lvgl\src\lv_font/lv_font_fmt_txt.c ****     uint8_t wr_size = bpp;
 353:lvgl\src\lv_font/lv_font_fmt_txt.c ****     if(bpp == 3) wr_size = 4;
 354:lvgl\src\lv_font/lv_font_fmt_txt.c **** 
 355:lvgl\src\lv_font/lv_font_fmt_txt.c ****     rle_init(in, bpp);
 356:lvgl\src\lv_font/lv_font_fmt_txt.c **** 
 357:lvgl\src\lv_font/lv_font_fmt_txt.c ****     uint8_t * line_buf1 = _lv_mem_buf_get(w);
 358:lvgl\src\lv_font/lv_font_fmt_txt.c **** 
 359:lvgl\src\lv_font/lv_font_fmt_txt.c ****     uint8_t * line_buf2 = NULL;
 360:lvgl\src\lv_font/lv_font_fmt_txt.c **** 
 361:lvgl\src\lv_font/lv_font_fmt_txt.c ****     if(prefilter) {
 362:lvgl\src\lv_font/lv_font_fmt_txt.c ****         line_buf2 = _lv_mem_buf_get(w);
ARM GAS  C:\Users\strap\AppData\Local\Temp\ccKJQbxb.s 			page 9


 363:lvgl\src\lv_font/lv_font_fmt_txt.c ****     }
 364:lvgl\src\lv_font/lv_font_fmt_txt.c **** 
 365:lvgl\src\lv_font/lv_font_fmt_txt.c ****     decompress_line(line_buf1, w);
 366:lvgl\src\lv_font/lv_font_fmt_txt.c **** 
 367:lvgl\src\lv_font/lv_font_fmt_txt.c ****     lv_coord_t y;
 368:lvgl\src\lv_font/lv_font_fmt_txt.c ****     lv_coord_t x;
 369:lvgl\src\lv_font/lv_font_fmt_txt.c **** 
 370:lvgl\src\lv_font/lv_font_fmt_txt.c ****     for(x = 0; x < w; x++) {
 371:lvgl\src\lv_font/lv_font_fmt_txt.c ****         bits_write(out, wrp, line_buf1[x], bpp);
 372:lvgl\src\lv_font/lv_font_fmt_txt.c ****         wrp += wr_size;
 373:lvgl\src\lv_font/lv_font_fmt_txt.c ****     }
 374:lvgl\src\lv_font/lv_font_fmt_txt.c **** 
 375:lvgl\src\lv_font/lv_font_fmt_txt.c ****     for(y = 1; y < h; y++) {
 376:lvgl\src\lv_font/lv_font_fmt_txt.c ****         if(prefilter) {
 377:lvgl\src\lv_font/lv_font_fmt_txt.c ****             decompress_line(line_buf2, w);
 378:lvgl\src\lv_font/lv_font_fmt_txt.c **** 
 379:lvgl\src\lv_font/lv_font_fmt_txt.c ****             for(x = 0; x < w; x++) {
 380:lvgl\src\lv_font/lv_font_fmt_txt.c ****                 line_buf1[x] = line_buf2[x] ^ line_buf1[x];
 381:lvgl\src\lv_font/lv_font_fmt_txt.c ****                 bits_write(out, wrp, line_buf1[x], bpp);
 382:lvgl\src\lv_font/lv_font_fmt_txt.c ****                 wrp += wr_size;
 383:lvgl\src\lv_font/lv_font_fmt_txt.c ****             }
 384:lvgl\src\lv_font/lv_font_fmt_txt.c ****         }
 385:lvgl\src\lv_font/lv_font_fmt_txt.c ****         else {
 386:lvgl\src\lv_font/lv_font_fmt_txt.c ****             decompress_line(line_buf1, w);
 387:lvgl\src\lv_font/lv_font_fmt_txt.c **** 
 388:lvgl\src\lv_font/lv_font_fmt_txt.c ****             for(x = 0; x < w; x++) {
 389:lvgl\src\lv_font/lv_font_fmt_txt.c ****                 bits_write(out, wrp, line_buf1[x], bpp);
 390:lvgl\src\lv_font/lv_font_fmt_txt.c ****                 wrp += wr_size;
 391:lvgl\src\lv_font/lv_font_fmt_txt.c ****             }
 392:lvgl\src\lv_font/lv_font_fmt_txt.c ****         }
 393:lvgl\src\lv_font/lv_font_fmt_txt.c ****     }
 394:lvgl\src\lv_font/lv_font_fmt_txt.c **** 
 395:lvgl\src\lv_font/lv_font_fmt_txt.c ****     _lv_mem_buf_release(line_buf1);
 396:lvgl\src\lv_font/lv_font_fmt_txt.c ****     _lv_mem_buf_release(line_buf2);
 397:lvgl\src\lv_font/lv_font_fmt_txt.c **** }
 398:lvgl\src\lv_font/lv_font_fmt_txt.c **** 
 399:lvgl\src\lv_font/lv_font_fmt_txt.c **** /**
 400:lvgl\src\lv_font/lv_font_fmt_txt.c ****  * Decompress one line. Store one pixel per byte
 401:lvgl\src\lv_font/lv_font_fmt_txt.c ****  * @param out output buffer
 402:lvgl\src\lv_font/lv_font_fmt_txt.c ****  * @param w width of the line in pixel count
 403:lvgl\src\lv_font/lv_font_fmt_txt.c ****  */
 404:lvgl\src\lv_font/lv_font_fmt_txt.c **** static inline void decompress_line(uint8_t * out, lv_coord_t w)
 405:lvgl\src\lv_font/lv_font_fmt_txt.c **** {
 406:lvgl\src\lv_font/lv_font_fmt_txt.c ****     lv_coord_t i;
 407:lvgl\src\lv_font/lv_font_fmt_txt.c ****     for(i = 0; i < w; i++) {
 408:lvgl\src\lv_font/lv_font_fmt_txt.c ****         out[i] = rle_next();
 409:lvgl\src\lv_font/lv_font_fmt_txt.c ****     }
 410:lvgl\src\lv_font/lv_font_fmt_txt.c **** }
 411:lvgl\src\lv_font/lv_font_fmt_txt.c **** 
 412:lvgl\src\lv_font/lv_font_fmt_txt.c **** /**
 413:lvgl\src\lv_font/lv_font_fmt_txt.c ****  * Read bits from an input buffer. The read can cross byte boundary.
 414:lvgl\src\lv_font/lv_font_fmt_txt.c ****  * @param in the input buffer to read from.
 415:lvgl\src\lv_font/lv_font_fmt_txt.c ****  * @param bit_pos index of the first bit to read.
 416:lvgl\src\lv_font/lv_font_fmt_txt.c ****  * @param len number of bits to read (must be <= 8).
 417:lvgl\src\lv_font/lv_font_fmt_txt.c ****  * @return the read bits
 418:lvgl\src\lv_font/lv_font_fmt_txt.c ****  */
 419:lvgl\src\lv_font/lv_font_fmt_txt.c **** static inline uint8_t get_bits(const uint8_t * in, uint32_t bit_pos, uint8_t len)
ARM GAS  C:\Users\strap\AppData\Local\Temp\ccKJQbxb.s 			page 10


 420:lvgl\src\lv_font/lv_font_fmt_txt.c **** {
 421:lvgl\src\lv_font/lv_font_fmt_txt.c ****     uint8_t bit_mask;
 422:lvgl\src\lv_font/lv_font_fmt_txt.c ****     switch(len) {
 423:lvgl\src\lv_font/lv_font_fmt_txt.c ****         case 1:
 424:lvgl\src\lv_font/lv_font_fmt_txt.c ****             bit_mask = 0x1;
 425:lvgl\src\lv_font/lv_font_fmt_txt.c ****             break;
 426:lvgl\src\lv_font/lv_font_fmt_txt.c ****         case 2:
 427:lvgl\src\lv_font/lv_font_fmt_txt.c ****             bit_mask = 0x3;
 428:lvgl\src\lv_font/lv_font_fmt_txt.c ****             break;
 429:lvgl\src\lv_font/lv_font_fmt_txt.c ****         case 3:
 430:lvgl\src\lv_font/lv_font_fmt_txt.c ****             bit_mask = 0x7;
 431:lvgl\src\lv_font/lv_font_fmt_txt.c ****             break;
 432:lvgl\src\lv_font/lv_font_fmt_txt.c ****         case 4:
 433:lvgl\src\lv_font/lv_font_fmt_txt.c ****             bit_mask = 0xF;
 434:lvgl\src\lv_font/lv_font_fmt_txt.c ****             break;
 435:lvgl\src\lv_font/lv_font_fmt_txt.c ****         case 8:
 436:lvgl\src\lv_font/lv_font_fmt_txt.c ****             bit_mask = 0xFF;
 437:lvgl\src\lv_font/lv_font_fmt_txt.c ****             break;
 438:lvgl\src\lv_font/lv_font_fmt_txt.c ****         default:
 439:lvgl\src\lv_font/lv_font_fmt_txt.c ****             bit_mask = (uint16_t)((uint16_t) 1 << len) - 1;
 440:lvgl\src\lv_font/lv_font_fmt_txt.c ****     }
 441:lvgl\src\lv_font/lv_font_fmt_txt.c **** 
 442:lvgl\src\lv_font/lv_font_fmt_txt.c ****     uint32_t byte_pos = bit_pos >> 3;
 443:lvgl\src\lv_font/lv_font_fmt_txt.c ****     bit_pos = bit_pos & 0x7;
 444:lvgl\src\lv_font/lv_font_fmt_txt.c **** 
 445:lvgl\src\lv_font/lv_font_fmt_txt.c ****     if(bit_pos + len >= 8) {
 446:lvgl\src\lv_font/lv_font_fmt_txt.c ****         uint16_t in16 = (in[byte_pos] << 8) + in[byte_pos + 1];
 447:lvgl\src\lv_font/lv_font_fmt_txt.c ****         return (in16 >> (16 - bit_pos - len)) & bit_mask;
 448:lvgl\src\lv_font/lv_font_fmt_txt.c ****     }
 449:lvgl\src\lv_font/lv_font_fmt_txt.c ****     else {
 450:lvgl\src\lv_font/lv_font_fmt_txt.c ****         return (in[byte_pos] >> (8 - bit_pos - len)) & bit_mask;
 451:lvgl\src\lv_font/lv_font_fmt_txt.c ****     }
 452:lvgl\src\lv_font/lv_font_fmt_txt.c **** }
 453:lvgl\src\lv_font/lv_font_fmt_txt.c **** 
 454:lvgl\src\lv_font/lv_font_fmt_txt.c **** /**
 455:lvgl\src\lv_font/lv_font_fmt_txt.c ****  * Write `val` data to `bit_pos` position of `out`. The write can NOT cross byte boundary.
 456:lvgl\src\lv_font/lv_font_fmt_txt.c ****  * @param out buffer where to write
 457:lvgl\src\lv_font/lv_font_fmt_txt.c ****  * @param bit_pos bit index to write
 458:lvgl\src\lv_font/lv_font_fmt_txt.c ****  * @param val value to write
 459:lvgl\src\lv_font/lv_font_fmt_txt.c ****  * @param len length of bits to write from `val`. (Counted from the LSB).
 460:lvgl\src\lv_font/lv_font_fmt_txt.c ****  * @note `len == 3` will be converted to `len = 4` and `val` will be upscaled too
 461:lvgl\src\lv_font/lv_font_fmt_txt.c ****  */
 462:lvgl\src\lv_font/lv_font_fmt_txt.c **** static inline void bits_write(uint8_t * out, uint32_t bit_pos, uint8_t val, uint8_t len)
 463:lvgl\src\lv_font/lv_font_fmt_txt.c **** {
 464:lvgl\src\lv_font/lv_font_fmt_txt.c ****     if(len == 3) {
 465:lvgl\src\lv_font/lv_font_fmt_txt.c ****         len = 4;
 466:lvgl\src\lv_font/lv_font_fmt_txt.c ****         switch(val) {
 467:lvgl\src\lv_font/lv_font_fmt_txt.c ****             case 0:
 468:lvgl\src\lv_font/lv_font_fmt_txt.c ****                 val = 0;
 469:lvgl\src\lv_font/lv_font_fmt_txt.c ****                 break;
 470:lvgl\src\lv_font/lv_font_fmt_txt.c ****             case 1:
 471:lvgl\src\lv_font/lv_font_fmt_txt.c ****                 val = 2;
 472:lvgl\src\lv_font/lv_font_fmt_txt.c ****                 break;
 473:lvgl\src\lv_font/lv_font_fmt_txt.c ****             case 2:
 474:lvgl\src\lv_font/lv_font_fmt_txt.c ****                 val = 4;
 475:lvgl\src\lv_font/lv_font_fmt_txt.c ****                 break;
 476:lvgl\src\lv_font/lv_font_fmt_txt.c ****             case 3:
ARM GAS  C:\Users\strap\AppData\Local\Temp\ccKJQbxb.s 			page 11


 477:lvgl\src\lv_font/lv_font_fmt_txt.c ****                 val = 6;
 478:lvgl\src\lv_font/lv_font_fmt_txt.c ****                 break;
 479:lvgl\src\lv_font/lv_font_fmt_txt.c ****             case 4:
 480:lvgl\src\lv_font/lv_font_fmt_txt.c ****                 val = 9;
 481:lvgl\src\lv_font/lv_font_fmt_txt.c ****                 break;
 482:lvgl\src\lv_font/lv_font_fmt_txt.c ****             case 5:
 483:lvgl\src\lv_font/lv_font_fmt_txt.c ****                 val = 11;
 484:lvgl\src\lv_font/lv_font_fmt_txt.c ****                 break;
 485:lvgl\src\lv_font/lv_font_fmt_txt.c ****             case 6:
 486:lvgl\src\lv_font/lv_font_fmt_txt.c ****                 val = 13;
 487:lvgl\src\lv_font/lv_font_fmt_txt.c ****                 break;
 488:lvgl\src\lv_font/lv_font_fmt_txt.c ****             case 7:
 489:lvgl\src\lv_font/lv_font_fmt_txt.c ****                 val = 15;
 490:lvgl\src\lv_font/lv_font_fmt_txt.c ****                 break;
 491:lvgl\src\lv_font/lv_font_fmt_txt.c ****         }
 492:lvgl\src\lv_font/lv_font_fmt_txt.c ****     }
 493:lvgl\src\lv_font/lv_font_fmt_txt.c **** 
 494:lvgl\src\lv_font/lv_font_fmt_txt.c ****     uint16_t byte_pos = bit_pos >> 3;
 495:lvgl\src\lv_font/lv_font_fmt_txt.c ****     bit_pos = bit_pos & 0x7;
 496:lvgl\src\lv_font/lv_font_fmt_txt.c ****     bit_pos = 8 - bit_pos - len;
 497:lvgl\src\lv_font/lv_font_fmt_txt.c **** 
 498:lvgl\src\lv_font/lv_font_fmt_txt.c ****     uint8_t bit_mask = (uint16_t)((uint16_t) 1 << len) - 1;
 499:lvgl\src\lv_font/lv_font_fmt_txt.c ****     out[byte_pos] &= ((~bit_mask) << bit_pos);
 500:lvgl\src\lv_font/lv_font_fmt_txt.c ****     out[byte_pos] |= (val << bit_pos);
 501:lvgl\src\lv_font/lv_font_fmt_txt.c **** }
 502:lvgl\src\lv_font/lv_font_fmt_txt.c **** 
 503:lvgl\src\lv_font/lv_font_fmt_txt.c **** static inline void rle_init(const uint8_t * in,  uint8_t bpp)
 504:lvgl\src\lv_font/lv_font_fmt_txt.c **** {
 505:lvgl\src\lv_font/lv_font_fmt_txt.c ****     rle_in = in;
 506:lvgl\src\lv_font/lv_font_fmt_txt.c ****     rle_bpp = bpp;
 507:lvgl\src\lv_font/lv_font_fmt_txt.c ****     rle_state = RLE_STATE_SINGLE;
 508:lvgl\src\lv_font/lv_font_fmt_txt.c ****     rle_rdp = 0;
 509:lvgl\src\lv_font/lv_font_fmt_txt.c ****     rle_prev_v = 0;
 510:lvgl\src\lv_font/lv_font_fmt_txt.c ****     rle_cnt = 0;
 511:lvgl\src\lv_font/lv_font_fmt_txt.c **** }
 512:lvgl\src\lv_font/lv_font_fmt_txt.c **** 
 513:lvgl\src\lv_font/lv_font_fmt_txt.c **** static inline uint8_t rle_next(void)
 514:lvgl\src\lv_font/lv_font_fmt_txt.c **** {
 515:lvgl\src\lv_font/lv_font_fmt_txt.c ****     uint8_t v = 0;
 516:lvgl\src\lv_font/lv_font_fmt_txt.c ****     uint8_t ret = 0;
 517:lvgl\src\lv_font/lv_font_fmt_txt.c **** 
 518:lvgl\src\lv_font/lv_font_fmt_txt.c ****     if(rle_state == RLE_STATE_SINGLE) {
 519:lvgl\src\lv_font/lv_font_fmt_txt.c ****         ret = get_bits(rle_in, rle_rdp, rle_bpp);
 520:lvgl\src\lv_font/lv_font_fmt_txt.c ****         if(rle_rdp != 0 && rle_prev_v == ret) {
 521:lvgl\src\lv_font/lv_font_fmt_txt.c ****             rle_cnt = 0;
 522:lvgl\src\lv_font/lv_font_fmt_txt.c ****             rle_state = RLE_STATE_REPEATE;
 523:lvgl\src\lv_font/lv_font_fmt_txt.c ****         }
 524:lvgl\src\lv_font/lv_font_fmt_txt.c **** 
 525:lvgl\src\lv_font/lv_font_fmt_txt.c ****         rle_prev_v = ret;
 526:lvgl\src\lv_font/lv_font_fmt_txt.c ****         rle_rdp += rle_bpp;
 527:lvgl\src\lv_font/lv_font_fmt_txt.c ****     }
 528:lvgl\src\lv_font/lv_font_fmt_txt.c ****     else if(rle_state == RLE_STATE_REPEATE) {
 529:lvgl\src\lv_font/lv_font_fmt_txt.c ****         v = get_bits(rle_in, rle_rdp, 1);
 530:lvgl\src\lv_font/lv_font_fmt_txt.c ****         rle_cnt++;
 531:lvgl\src\lv_font/lv_font_fmt_txt.c ****         rle_rdp += 1;
 532:lvgl\src\lv_font/lv_font_fmt_txt.c ****         if(v == 1) {
 533:lvgl\src\lv_font/lv_font_fmt_txt.c ****             ret = rle_prev_v;
ARM GAS  C:\Users\strap\AppData\Local\Temp\ccKJQbxb.s 			page 12


 534:lvgl\src\lv_font/lv_font_fmt_txt.c ****             if(rle_cnt == 11) {
 535:lvgl\src\lv_font/lv_font_fmt_txt.c ****                 rle_cnt = get_bits(rle_in, rle_rdp, 6);
 536:lvgl\src\lv_font/lv_font_fmt_txt.c ****                 rle_rdp += 6;
 537:lvgl\src\lv_font/lv_font_fmt_txt.c ****                 if(rle_cnt != 0) {
 538:lvgl\src\lv_font/lv_font_fmt_txt.c ****                     rle_state = RLE_STATE_COUNTER;
 539:lvgl\src\lv_font/lv_font_fmt_txt.c ****                 }
 540:lvgl\src\lv_font/lv_font_fmt_txt.c ****                 else {
 541:lvgl\src\lv_font/lv_font_fmt_txt.c ****                     ret = get_bits(rle_in, rle_rdp, rle_bpp);
 542:lvgl\src\lv_font/lv_font_fmt_txt.c ****                     rle_prev_v = ret;
 543:lvgl\src\lv_font/lv_font_fmt_txt.c ****                     rle_rdp += rle_bpp;
 544:lvgl\src\lv_font/lv_font_fmt_txt.c ****                     rle_state = RLE_STATE_SINGLE;
 545:lvgl\src\lv_font/lv_font_fmt_txt.c ****                 }
 546:lvgl\src\lv_font/lv_font_fmt_txt.c ****             }
 547:lvgl\src\lv_font/lv_font_fmt_txt.c ****         }
 548:lvgl\src\lv_font/lv_font_fmt_txt.c ****         else {
 549:lvgl\src\lv_font/lv_font_fmt_txt.c ****             ret = get_bits(rle_in, rle_rdp, rle_bpp);
 550:lvgl\src\lv_font/lv_font_fmt_txt.c ****             rle_prev_v = ret;
 551:lvgl\src\lv_font/lv_font_fmt_txt.c ****             rle_rdp += rle_bpp;
 552:lvgl\src\lv_font/lv_font_fmt_txt.c ****             rle_state = RLE_STATE_SINGLE;
 553:lvgl\src\lv_font/lv_font_fmt_txt.c ****         }
 554:lvgl\src\lv_font/lv_font_fmt_txt.c **** 
 555:lvgl\src\lv_font/lv_font_fmt_txt.c **** 
 556:lvgl\src\lv_font/lv_font_fmt_txt.c ****     }
 557:lvgl\src\lv_font/lv_font_fmt_txt.c ****     else if(rle_state == RLE_STATE_COUNTER) {
 558:lvgl\src\lv_font/lv_font_fmt_txt.c ****         ret = rle_prev_v;
 559:lvgl\src\lv_font/lv_font_fmt_txt.c ****         rle_cnt--;
 560:lvgl\src\lv_font/lv_font_fmt_txt.c ****         if(rle_cnt == 0) {
 561:lvgl\src\lv_font/lv_font_fmt_txt.c ****             ret = get_bits(rle_in, rle_rdp, rle_bpp);
 562:lvgl\src\lv_font/lv_font_fmt_txt.c ****             rle_prev_v = ret;
 563:lvgl\src\lv_font/lv_font_fmt_txt.c ****             rle_rdp += rle_bpp;
 564:lvgl\src\lv_font/lv_font_fmt_txt.c ****             rle_state = RLE_STATE_SINGLE;
 565:lvgl\src\lv_font/lv_font_fmt_txt.c ****         }
 566:lvgl\src\lv_font/lv_font_fmt_txt.c ****     }
 567:lvgl\src\lv_font/lv_font_fmt_txt.c **** 
 568:lvgl\src\lv_font/lv_font_fmt_txt.c ****     return ret;
 569:lvgl\src\lv_font/lv_font_fmt_txt.c **** }
 570:lvgl\src\lv_font/lv_font_fmt_txt.c **** 
 571:lvgl\src\lv_font/lv_font_fmt_txt.c **** /** Code Comparator.
 572:lvgl\src\lv_font/lv_font_fmt_txt.c ****  *
 573:lvgl\src\lv_font/lv_font_fmt_txt.c ****  *  Compares the value of both input arguments.
 574:lvgl\src\lv_font/lv_font_fmt_txt.c ****  *
 575:lvgl\src\lv_font/lv_font_fmt_txt.c ****  *  @param[in]  pRef        Pointer to the reference.
 576:lvgl\src\lv_font/lv_font_fmt_txt.c ****  *  @param[in]  pElement    Pointer to the element to compare.
 577:lvgl\src\lv_font/lv_font_fmt_txt.c ****  *
 578:lvgl\src\lv_font/lv_font_fmt_txt.c ****  *  @return Result of comparison.
 579:lvgl\src\lv_font/lv_font_fmt_txt.c ****  *  @retval < 0   Reference is greater than element.
 580:lvgl\src\lv_font/lv_font_fmt_txt.c ****  *  @retval = 0   Reference is equal to element.
 581:lvgl\src\lv_font/lv_font_fmt_txt.c ****  *  @retval > 0   Reference is less than element.
 582:lvgl\src\lv_font/lv_font_fmt_txt.c ****  *
 583:lvgl\src\lv_font/lv_font_fmt_txt.c ****  */
 584:lvgl\src\lv_font/lv_font_fmt_txt.c **** static int32_t unicode_list_compare(const void * ref, const void * element)
 585:lvgl\src\lv_font/lv_font_fmt_txt.c **** {
  95              		.loc 1 585 0
  96              		.cfi_startproc
  97              		@ args = 0, pretend = 0, frame = 0
  98              		@ frame_needed = 0, uses_anonymous_args = 0
  99              		@ link register save eliminated.
ARM GAS  C:\Users\strap\AppData\Local\Temp\ccKJQbxb.s 			page 13


 100              	.LVL8:
 586:lvgl\src\lv_font/lv_font_fmt_txt.c ****     return ((int32_t)(*(uint16_t *)ref)) - ((int32_t)(*(uint16_t *)element));
 101              		.loc 1 586 0
 102 0000 0088     		ldrh	r0, [r0]
 103              	.LVL9:
 104 0002 0B88     		ldrh	r3, [r1]
 587:lvgl\src\lv_font/lv_font_fmt_txt.c **** }
 105              		.loc 1 587 0
 106 0004 C01A     		subs	r0, r0, r3
 107 0006 7047     		bx	lr
 108              		.cfi_endproc
 109              	.LFE50:
 110              		.size	unicode_list_compare, .-unicode_list_compare
 111              		.section	.text.get_glyph_dsc_id,"ax",%progbits
 112              		.align	2
 113              		.thumb
 114              		.thumb_func
 115              		.type	get_glyph_dsc_id, %function
 116              	get_glyph_dsc_id:
 117              	.LFB40:
 204:lvgl\src\lv_font/lv_font_fmt_txt.c ****     if(letter == '\0') return 0;
 118              		.loc 1 204 0
 119              		.cfi_startproc
 120              		@ args = 0, pretend = 0, frame = 8
 121              		@ frame_needed = 0, uses_anonymous_args = 0
 122              	.LVL10:
 205:lvgl\src\lv_font/lv_font_fmt_txt.c **** 
 123              		.loc 1 205 0
 124 0000 0029     		cmp	r1, #0
 125 0002 61D0     		beq	.L19
 204:lvgl\src\lv_font/lv_font_fmt_txt.c ****     if(letter == '\0') return 0;
 126              		.loc 1 204 0
 127 0004 F0B5     		push	{r4, r5, r6, r7, lr}
 128              		.cfi_def_cfa_offset 20
 129              		.cfi_offset 4, -20
 130              		.cfi_offset 5, -16
 131              		.cfi_offset 6, -12
 132              		.cfi_offset 7, -8
 133              		.cfi_offset 14, -4
 134 0006 85B0     		sub	sp, sp, #20
 135              		.cfi_def_cfa_offset 40
 136 0008 0D46     		mov	r5, r1
 207:lvgl\src\lv_font/lv_font_fmt_txt.c **** 
 137              		.loc 1 207 0
 138 000a 0469     		ldr	r4, [r0, #16]
 139              	.LVL11:
 210:lvgl\src\lv_font/lv_font_fmt_txt.c **** 
 140              		.loc 1 210 0
 141 000c A369     		ldr	r3, [r4, #24]
 142 000e 9942     		cmp	r1, r3
 143 0010 50D1     		bne	.L20
 210:lvgl\src\lv_font/lv_font_fmt_txt.c **** 
 144              		.loc 1 210 0 is_stmt 0 discriminator 1
 145 0012 E069     		ldr	r0, [r4, #28]
 146              	.LVL12:
 147 0014 5AE0     		b	.L9
 148              	.LVL13:
ARM GAS  C:\Users\strap\AppData\Local\Temp\ccKJQbxb.s 			page 14


 149              	.L18:
 150              	.LBB10:
 216:lvgl\src\lv_font/lv_font_fmt_txt.c ****         if(rcp > fdsc->cmaps[i].range_length) continue;
 151              		.loc 1 216 0 is_stmt 1
 152 0016 A168     		ldr	r1, [r4, #8]
 153 0018 03EB8300 		add	r0, r3, r3, lsl #2
 154 001c 8200     		lsls	r2, r0, #2
 155 001e 1646     		mov	r6, r2
 156 0020 8F18     		adds	r7, r1, r2
 157 0022 8858     		ldr	r0, [r1, r2]
 158 0024 2A1A     		subs	r2, r5, r0
 159              	.LVL14:
 217:lvgl\src\lv_font/lv_font_fmt_txt.c ****         uint32_t glyph_id = 0;
 160              		.loc 1 217 0
 161 0026 B988     		ldrh	r1, [r7, #4]
 162 0028 8A42     		cmp	r2, r1
 163 002a 02D9     		bls	.L11
 164              	.LBE10:
 213:lvgl\src\lv_font/lv_font_fmt_txt.c **** 
 165              		.loc 1 213 0 discriminator 1
 166 002c 0133     		adds	r3, r3, #1
 167              	.LVL15:
 168 002e 9BB2     		uxth	r3, r3
 169              	.LVL16:
 170 0030 41E0     		b	.L10
 171              	.L11:
 172              	.LVL17:
 173              	.LBB16:
 219:lvgl\src\lv_font/lv_font_fmt_txt.c ****             glyph_id = fdsc->cmaps[i].glyph_id_start + rcp;
 174              		.loc 1 219 0
 175 0032 BB7C     		ldrb	r3, [r7, #18]	@ zero_extendqisi2
 176              	.LVL18:
 177 0034 13B9     		cbnz	r3, .L12
 220:lvgl\src\lv_font/lv_font_fmt_txt.c ****         }
 178              		.loc 1 220 0
 179 0036 FB88     		ldrh	r3, [r7, #6]
 180 0038 D018     		adds	r0, r2, r3
 181              	.LVL19:
 182 003a 38E0     		b	.L13
 183              	.LVL20:
 184              	.L12:
 222:lvgl\src\lv_font/lv_font_fmt_txt.c ****             const uint8_t * gid_ofs_8 = fdsc->cmaps[i].glyph_id_ofs_list;
 185              		.loc 1 222 0
 186 003c 012B     		cmp	r3, #1
 187 003e 04D1     		bne	.L14
 188              	.LBB11:
 223:lvgl\src\lv_font/lv_font_fmt_txt.c ****             glyph_id = fdsc->cmaps[i].glyph_id_start + gid_ofs_8[rcp];
 189              		.loc 1 223 0
 190 0040 FB68     		ldr	r3, [r7, #12]
 191              	.LVL21:
 224:lvgl\src\lv_font/lv_font_fmt_txt.c ****         }
 192              		.loc 1 224 0
 193 0042 F888     		ldrh	r0, [r7, #6]
 194 0044 9B5C     		ldrb	r3, [r3, r2]	@ zero_extendqisi2
 195              	.LVL22:
 196 0046 1844     		add	r0, r0, r3
 197              	.LVL23:
ARM GAS  C:\Users\strap\AppData\Local\Temp\ccKJQbxb.s 			page 15


 198              	.LBE11:
 199 0048 31E0     		b	.L13
 200              	.LVL24:
 201              	.L14:
 226:lvgl\src\lv_font/lv_font_fmt_txt.c ****             uint16_t key = rcp;
 202              		.loc 1 226 0
 203 004a 022B     		cmp	r3, #2
 204 004c 15D1     		bne	.L15
 205              	.LBB12:
 227:lvgl\src\lv_font/lv_font_fmt_txt.c ****             uint8_t * p = _lv_utils_bsearch(&key, fdsc->cmaps[i].unicode_list, fdsc->cmaps[i].list_
 206              		.loc 1 227 0
 207 004e 04A8     		add	r0, sp, #16
 208 0050 20F8022D 		strh	r2, [r0, #-2]!	@ movhi
 228:lvgl\src\lv_font/lv_font_fmt_txt.c ****                                             sizeof(fdsc->cmaps[i].unicode_list[0]), unicode_list_co
 209              		.loc 1 228 0
 210 0054 B968     		ldr	r1, [r7, #8]
 211 0056 3A8A     		ldrh	r2, [r7, #16]
 212              	.LVL25:
 213 0058 1D4B     		ldr	r3, .L26
 214 005a 0093     		str	r3, [sp]
 215 005c 0223     		movs	r3, #2
 216 005e FFF7FEFF 		bl	_lv_utils_bsearch
 217              	.LVL26:
 231:lvgl\src\lv_font/lv_font_fmt_txt.c ****                 lv_uintptr_t ofs = (lv_uintptr_t)(p - (uint8_t *) fdsc->cmaps[i].unicode_list);
 218              		.loc 1 231 0
 219 0062 0246     		mov	r2, r0
 220 0064 38B1     		cbz	r0, .L21
 221              	.LBB13:
 232:lvgl\src\lv_font/lv_font_fmt_txt.c ****                 ofs = ofs >> 1;     /*The list stores `uint16_t` so the get the index divide by 2*/
 222              		.loc 1 232 0
 223 0066 A368     		ldr	r3, [r4, #8]
 224 0068 1E44     		add	r6, r6, r3
 225 006a B068     		ldr	r0, [r6, #8]
 226              	.LVL27:
 227 006c 101A     		subs	r0, r2, r0
 228              	.LVL28:
 234:lvgl\src\lv_font/lv_font_fmt_txt.c ****             }
 229              		.loc 1 234 0
 230 006e F388     		ldrh	r3, [r6, #6]
 231 0070 03EB5000 		add	r0, r3, r0, lsr #1
 232              	.LVL29:
 233 0074 1BE0     		b	.L13
 234              	.LVL30:
 235              	.L21:
 236              	.LBE13:
 237              	.LBE12:
 218:lvgl\src\lv_font/lv_font_fmt_txt.c ****         if(fdsc->cmaps[i].type == LV_FONT_FMT_TXT_CMAP_FORMAT0_TINY) {
 238              		.loc 1 218 0
 239 0076 0020     		movs	r0, #0
 240              	.LVL31:
 241 0078 19E0     		b	.L13
 242              	.LVL32:
 243              	.L15:
 237:lvgl\src\lv_font/lv_font_fmt_txt.c ****             uint16_t key = rcp;
 244              		.loc 1 237 0
 245 007a 032B     		cmp	r3, #3
 246 007c 16D1     		bne	.L22
ARM GAS  C:\Users\strap\AppData\Local\Temp\ccKJQbxb.s 			page 16


 247              	.LBB14:
 238:lvgl\src\lv_font/lv_font_fmt_txt.c ****             uint8_t * p = _lv_utils_bsearch(&key, fdsc->cmaps[i].unicode_list, fdsc->cmaps[i].list_
 248              		.loc 1 238 0
 249 007e 04A8     		add	r0, sp, #16
 250 0080 20F8022D 		strh	r2, [r0, #-2]!	@ movhi
 239:lvgl\src\lv_font/lv_font_fmt_txt.c ****                                             sizeof(fdsc->cmaps[i].unicode_list[0]), unicode_list_co
 251              		.loc 1 239 0
 252 0084 B968     		ldr	r1, [r7, #8]
 253 0086 3A8A     		ldrh	r2, [r7, #16]
 254              	.LVL33:
 255 0088 114B     		ldr	r3, .L26
 256 008a 0093     		str	r3, [sp]
 257 008c 0223     		movs	r3, #2
 258 008e FFF7FEFF 		bl	_lv_utils_bsearch
 259              	.LVL34:
 242:lvgl\src\lv_font/lv_font_fmt_txt.c ****                 lv_uintptr_t ofs = (lv_uintptr_t)(p - (uint8_t *) fdsc->cmaps[i].unicode_list);
 260              		.loc 1 242 0
 261 0092 48B1     		cbz	r0, .L23
 262              	.LBB15:
 243:lvgl\src\lv_font/lv_font_fmt_txt.c ****                 ofs = ofs >> 1;     /*The list stores `uint16_t` so the get the index divide by 2*/
 263              		.loc 1 243 0
 264 0094 A268     		ldr	r2, [r4, #8]
 265 0096 1644     		add	r6, r6, r2
 266 0098 B268     		ldr	r2, [r6, #8]
 267 009a 831A     		subs	r3, r0, r2
 268              	.LVL35:
 244:lvgl\src\lv_font/lv_font_fmt_txt.c ****                 const uint8_t * gid_ofs_16 = fdsc->cmaps[i].glyph_id_ofs_list;
 269              		.loc 1 244 0
 270 009c 5B08     		lsrs	r3, r3, #1
 271              	.LVL36:
 245:lvgl\src\lv_font/lv_font_fmt_txt.c ****                 glyph_id = fdsc->cmaps[i].glyph_id_start + gid_ofs_16[ofs];
 272              		.loc 1 245 0
 273 009e F268     		ldr	r2, [r6, #12]
 274              	.LVL37:
 246:lvgl\src\lv_font/lv_font_fmt_txt.c ****             }
 275              		.loc 1 246 0
 276 00a0 F088     		ldrh	r0, [r6, #6]
 277              	.LVL38:
 278 00a2 D35C     		ldrb	r3, [r2, r3]	@ zero_extendqisi2
 279              	.LVL39:
 280 00a4 1844     		add	r0, r0, r3
 281              	.LVL40:
 282 00a6 02E0     		b	.L13
 283              	.LVL41:
 284              	.L23:
 285              	.LBE15:
 286              	.LBE14:
 218:lvgl\src\lv_font/lv_font_fmt_txt.c ****         if(fdsc->cmaps[i].type == LV_FONT_FMT_TXT_CMAP_FORMAT0_TINY) {
 287              		.loc 1 218 0
 288 00a8 0020     		movs	r0, #0
 289              	.LVL42:
 290 00aa 00E0     		b	.L13
 291              	.LVL43:
 292              	.L22:
 293 00ac 0020     		movs	r0, #0
 294              	.LVL44:
 295              	.L13:
ARM GAS  C:\Users\strap\AppData\Local\Temp\ccKJQbxb.s 			page 17


 251:lvgl\src\lv_font/lv_font_fmt_txt.c ****         fdsc->last_glyph_id = glyph_id;
 296              		.loc 1 251 0
 297 00ae A561     		str	r5, [r4, #24]
 252:lvgl\src\lv_font/lv_font_fmt_txt.c ****         return glyph_id;
 298              		.loc 1 252 0
 299 00b0 E061     		str	r0, [r4, #28]
 253:lvgl\src\lv_font/lv_font_fmt_txt.c ****     }
 300              		.loc 1 253 0
 301 00b2 0BE0     		b	.L9
 302              	.LVL45:
 303              	.L20:
 304              	.LBE16:
 305 00b4 0023     		movs	r3, #0
 306              	.LVL46:
 307              	.L10:
 213:lvgl\src\lv_font/lv_font_fmt_txt.c **** 
 308              		.loc 1 213 0 discriminator 1
 309 00b6 628A     		ldrh	r2, [r4, #18]
 310 00b8 C2F30902 		ubfx	r2, r2, #0, #10
 311 00bc 9342     		cmp	r3, r2
 312 00be AADB     		blt	.L18
 256:lvgl\src\lv_font/lv_font_fmt_txt.c ****     fdsc->last_glyph_id = 0;
 313              		.loc 1 256 0
 314 00c0 A561     		str	r5, [r4, #24]
 257:lvgl\src\lv_font/lv_font_fmt_txt.c ****     return 0;
 315              		.loc 1 257 0
 316 00c2 0020     		movs	r0, #0
 317 00c4 E061     		str	r0, [r4, #28]
 258:lvgl\src\lv_font/lv_font_fmt_txt.c **** 
 318              		.loc 1 258 0
 319 00c6 01E0     		b	.L9
 320              	.LVL47:
 321              	.L19:
 322              		.cfi_def_cfa_offset 0
 323              		.cfi_restore 4
 324              		.cfi_restore 5
 325              		.cfi_restore 6
 326              		.cfi_restore 7
 327              		.cfi_restore 14
 205:lvgl\src\lv_font/lv_font_fmt_txt.c **** 
 328              		.loc 1 205 0
 329 00c8 0020     		movs	r0, #0
 330              	.LVL48:
 331 00ca 7047     		bx	lr
 332              	.LVL49:
 333              	.L9:
 334              		.cfi_def_cfa_offset 40
 335              		.cfi_offset 4, -20
 336              		.cfi_offset 5, -16
 337              		.cfi_offset 6, -12
 338              		.cfi_offset 7, -8
 339              		.cfi_offset 14, -4
 260:lvgl\src\lv_font/lv_font_fmt_txt.c **** 
 340              		.loc 1 260 0
 341 00cc 05B0     		add	sp, sp, #20
 342              		.cfi_def_cfa_offset 20
 343              		@ sp needed
ARM GAS  C:\Users\strap\AppData\Local\Temp\ccKJQbxb.s 			page 18


 344 00ce F0BD     		pop	{r4, r5, r6, r7, pc}
 345              	.LVL50:
 346              	.L27:
 347              		.align	2
 348              	.L26:
 349 00d0 00000000 		.word	unicode_list_compare
 350              		.cfi_endproc
 351              	.LFE40:
 352              		.size	get_glyph_dsc_id, .-get_glyph_dsc_id
 353              		.section	.text.get_kern_value,"ax",%progbits
 354              		.align	2
 355              		.thumb
 356              		.thumb_func
 357              		.type	get_kern_value, %function
 358              	get_kern_value:
 359              	.LFB41:
 263:lvgl\src\lv_font/lv_font_fmt_txt.c ****     lv_font_fmt_txt_dsc_t * fdsc = (lv_font_fmt_txt_dsc_t *) font->dsc;
 360              		.loc 1 263 0
 361              		.cfi_startproc
 362              		@ args = 0, pretend = 0, frame = 8
 363              		@ frame_needed = 0, uses_anonymous_args = 0
 364              	.LVL51:
 264:lvgl\src\lv_font/lv_font_fmt_txt.c **** 
 365              		.loc 1 264 0
 366 0000 0369     		ldr	r3, [r0, #16]
 367              	.LVL52:
 268:lvgl\src\lv_font/lv_font_fmt_txt.c ****         /*Kern pairs*/
 368              		.loc 1 268 0
 369 0002 D87C     		ldrb	r0, [r3, #19]	@ zero_extendqisi2
 370              	.LVL53:
 371 0004 10F0400F 		tst	r0, #64
 372 0008 36D1     		bne	.L29
 263:lvgl\src\lv_font/lv_font_fmt_txt.c ****     lv_font_fmt_txt_dsc_t * fdsc = (lv_font_fmt_txt_dsc_t *) font->dsc;
 373              		.loc 1 263 0
 374 000a 30B5     		push	{r4, r5, lr}
 375              		.cfi_def_cfa_offset 12
 376              		.cfi_offset 4, -12
 377              		.cfi_offset 5, -8
 378              		.cfi_offset 14, -4
 379 000c 85B0     		sub	sp, sp, #20
 380              		.cfi_def_cfa_offset 32
 381              	.LBB17:
 270:lvgl\src\lv_font/lv_font_fmt_txt.c ****         if(kdsc->glyph_ids_size == 0) {
 382              		.loc 1 270 0
 383 000e DC68     		ldr	r4, [r3, #12]
 384              	.LVL54:
 271:lvgl\src\lv_font/lv_font_fmt_txt.c ****             /* Use binary search to find the kern value.
 385              		.loc 1 271 0
 386 0010 E37A     		ldrb	r3, [r4, #11]	@ zero_extendqisi2
 387              	.LVL55:
 388 0012 13F00303 		ands	r3, r3, #3
 389 0016 16D1     		bne	.L30
 390              	.LBB18:
 274:lvgl\src\lv_font/lv_font_fmt_txt.c ****             uint16_t g_id_both = (gid_right << 8) + gid_left; /*Create one number from the ids*/
 391              		.loc 1 274 0
 392 0018 2568     		ldr	r5, [r4]
 393              	.LVL56:
ARM GAS  C:\Users\strap\AppData\Local\Temp\ccKJQbxb.s 			page 19


 275:lvgl\src\lv_font/lv_font_fmt_txt.c ****             uint8_t * kid_p = _lv_utils_bsearch(&g_id_both, g_ids, kdsc->pair_cnt, 2, kern_pair_8_c
 394              		.loc 1 275 0
 395 001a 01EB0221 		add	r1, r1, r2, lsl #8
 396              	.LVL57:
 397 001e 04A8     		add	r0, sp, #16
 398 0020 20F8041D 		strh	r1, [r0, #-4]!	@ movhi
 399              	.LVL58:
 276:lvgl\src\lv_font/lv_font_fmt_txt.c **** 
 400              		.loc 1 276 0
 401 0024 A268     		ldr	r2, [r4, #8]
 402              	.LVL59:
 403 0026 204B     		ldr	r3, .L41
 404 0028 0093     		str	r3, [sp]
 405 002a 0223     		movs	r3, #2
 406 002c 22F07F42 		bic	r2, r2, #-16777216
 407 0030 2946     		mov	r1, r5
 408 0032 FFF7FEFF 		bl	_lv_utils_bsearch
 409              	.LVL60:
 279:lvgl\src\lv_font/lv_font_fmt_txt.c ****                 lv_uintptr_t ofs = (lv_uintptr_t)(kid_p - g_ids);
 410              		.loc 1 279 0
 411 0036 20B1     		cbz	r0, .L34
 412              	.LBB19:
 280:lvgl\src\lv_font/lv_font_fmt_txt.c ****                 ofs = ofs >> 1;     /*ofs is for pair, divide by 2 to refer as a single value*/
 413              		.loc 1 280 0
 414 0038 431B     		subs	r3, r0, r5
 415              	.LVL61:
 281:lvgl\src\lv_font/lv_font_fmt_txt.c ****                 value = kdsc->values[ofs];
 416              		.loc 1 281 0
 417 003a 5B08     		lsrs	r3, r3, #1
 418              	.LVL62:
 282:lvgl\src\lv_font/lv_font_fmt_txt.c ****             }
 419              		.loc 1 282 0
 420 003c 6268     		ldr	r2, [r4, #4]
 421 003e D056     		ldrsb	r0, [r2, r3]
 422              	.LVL63:
 423 0040 2FE0     		b	.L32
 424              	.LVL64:
 425              	.L34:
 426              	.LBE19:
 427              	.LBE18:
 428              	.LBE17:
 266:lvgl\src\lv_font/lv_font_fmt_txt.c **** 
 429              		.loc 1 266 0
 430 0042 0020     		movs	r0, #0
 431              	.LVL65:
 432 0044 2DE0     		b	.L32
 433              	.LVL66:
 434              	.L30:
 435              	.LBB22:
 285:lvgl\src\lv_font/lv_font_fmt_txt.c ****             /* Use binary search to find the kern value.
 436              		.loc 1 285 0
 437 0046 012B     		cmp	r3, #1
 438 0048 25D1     		bne	.L35
 439              	.LBB20:
 288:lvgl\src\lv_font/lv_font_fmt_txt.c ****             lv_uintptr_t g_id_both = (uint32_t)((uint32_t)gid_right << 8) + gid_left; /*Create one 
 440              		.loc 1 288 0
 441 004a 2568     		ldr	r5, [r4]
ARM GAS  C:\Users\strap\AppData\Local\Temp\ccKJQbxb.s 			page 20


 442              	.LVL67:
 289:lvgl\src\lv_font/lv_font_fmt_txt.c ****             uint8_t * kid_p = _lv_utils_bsearch(&g_id_both, g_ids, kdsc->pair_cnt, 4, kern_pair_16_
 443              		.loc 1 289 0
 444 004c 01EB0221 		add	r1, r1, r2, lsl #8
 445              	.LVL68:
 446 0050 04A8     		add	r0, sp, #16
 447 0052 40F8041D 		str	r1, [r0, #-4]!
 448              	.LVL69:
 290:lvgl\src\lv_font/lv_font_fmt_txt.c **** 
 449              		.loc 1 290 0
 450 0056 A268     		ldr	r2, [r4, #8]
 451              	.LVL70:
 452 0058 144B     		ldr	r3, .L41+4
 453 005a 0093     		str	r3, [sp]
 454 005c 0423     		movs	r3, #4
 455 005e 22F07F42 		bic	r2, r2, #-16777216
 456 0062 2946     		mov	r1, r5
 457 0064 FFF7FEFF 		bl	_lv_utils_bsearch
 458              	.LVL71:
 293:lvgl\src\lv_font/lv_font_fmt_txt.c ****                 lv_uintptr_t ofs = (lv_uintptr_t)(kid_p - (const uint8_t *)g_ids);
 459              		.loc 1 293 0
 460 0068 20B1     		cbz	r0, .L36
 461              	.LBB21:
 294:lvgl\src\lv_font/lv_font_fmt_txt.c ****                 ofs = ofs >> 4;     /*ofs is 4 byte pairs, divide by 4 to refer as a single value*/
 462              		.loc 1 294 0
 463 006a 431B     		subs	r3, r0, r5
 464              	.LVL72:
 295:lvgl\src\lv_font/lv_font_fmt_txt.c ****                 value = kdsc->values[ofs];
 465              		.loc 1 295 0
 466 006c 1B09     		lsrs	r3, r3, #4
 467              	.LVL73:
 296:lvgl\src\lv_font/lv_font_fmt_txt.c ****             }
 468              		.loc 1 296 0
 469 006e 6268     		ldr	r2, [r4, #4]
 470 0070 D056     		ldrsb	r0, [r2, r3]
 471              	.LVL74:
 472 0072 16E0     		b	.L32
 473              	.LVL75:
 474              	.L36:
 475              	.LBE21:
 476              	.LBE20:
 477              	.LBE22:
 266:lvgl\src\lv_font/lv_font_fmt_txt.c **** 
 478              		.loc 1 266 0
 479 0074 0020     		movs	r0, #0
 480              	.LVL76:
 481 0076 14E0     		b	.L32
 482              	.LVL77:
 483              	.L29:
 484              		.cfi_def_cfa_offset 0
 485              		.cfi_restore 4
 486              		.cfi_restore 5
 487              		.cfi_restore 14
 488              	.LBB23:
 306:lvgl\src\lv_font/lv_font_fmt_txt.c ****         uint8_t left_class = kdsc->left_class_mapping[gid_left];
 489              		.loc 1 306 0
 490 0078 DB68     		ldr	r3, [r3, #12]
ARM GAS  C:\Users\strap\AppData\Local\Temp\ccKJQbxb.s 			page 21


 491              	.LVL78:
 307:lvgl\src\lv_font/lv_font_fmt_txt.c ****         uint8_t right_class = kdsc->right_class_mapping[gid_right];
 492              		.loc 1 307 0
 493 007a 5868     		ldr	r0, [r3, #4]
 494 007c 415C     		ldrb	r1, [r0, r1]	@ zero_extendqisi2
 495              	.LVL79:
 308:lvgl\src\lv_font/lv_font_fmt_txt.c **** 
 496              		.loc 1 308 0
 497 007e 9868     		ldr	r0, [r3, #8]
 498 0080 825C     		ldrb	r2, [r0, r2]	@ zero_extendqisi2
 499              	.LVL80:
 312:lvgl\src\lv_font/lv_font_fmt_txt.c ****             value = kdsc->class_pair_values[(left_class - 1) * kdsc->right_class_cnt + (right_class
 500              		.loc 1 312 0
 501 0082 51B1     		cbz	r1, .L37
 312:lvgl\src\lv_font/lv_font_fmt_txt.c ****             value = kdsc->class_pair_values[(left_class - 1) * kdsc->right_class_cnt + (right_class
 502              		.loc 1 312 0 is_stmt 0 discriminator 1
 503 0084 5AB1     		cbz	r2, .L38
 313:lvgl\src\lv_font/lv_font_fmt_txt.c ****         }
 504              		.loc 1 313 0 is_stmt 1
 505 0086 1868     		ldr	r0, [r3]
 506 0088 0139     		subs	r1, r1, #1
 507              	.LVL81:
 508 008a 5B7B     		ldrb	r3, [r3, #13]	@ zero_extendqisi2
 509              	.LVL82:
 510 008c 013A     		subs	r2, r2, #1
 511              	.LVL83:
 512 008e 01FB0321 		mla	r1, r1, r3, r2
 513              	.LVL84:
 514 0092 4056     		ldrsb	r0, [r0, r1]
 515              	.LVL85:
 516              	.LBE23:
 318:lvgl\src\lv_font/lv_font_fmt_txt.c **** 
 517              		.loc 1 318 0
 518 0094 7047     		bx	lr
 519              	.LVL86:
 520              	.L35:
 521              		.cfi_def_cfa_offset 32
 522              		.cfi_offset 4, -12
 523              		.cfi_offset 5, -8
 524              		.cfi_offset 14, -4
 266:lvgl\src\lv_font/lv_font_fmt_txt.c **** 
 525              		.loc 1 266 0
 526 0096 0020     		movs	r0, #0
 527 0098 03E0     		b	.L32
 528              	.LVL87:
 529              	.L37:
 530              		.cfi_def_cfa_offset 0
 531              		.cfi_restore 4
 532              		.cfi_restore 5
 533              		.cfi_restore 14
 534 009a 0020     		movs	r0, #0
 535 009c 7047     		bx	lr
 536              	.L38:
 537 009e 0020     		movs	r0, #0
 538 00a0 7047     		bx	lr
 539              	.LVL88:
 540              	.L32:
ARM GAS  C:\Users\strap\AppData\Local\Temp\ccKJQbxb.s 			page 22


 541              		.cfi_def_cfa_offset 32
 542              		.cfi_offset 4, -12
 543              		.cfi_offset 5, -8
 544              		.cfi_offset 14, -4
 318:lvgl\src\lv_font/lv_font_fmt_txt.c **** 
 545              		.loc 1 318 0
 546 00a2 05B0     		add	sp, sp, #20
 547              		.cfi_def_cfa_offset 12
 548              		@ sp needed
 549 00a4 30BD     		pop	{r4, r5, pc}
 550              	.LVL89:
 551              	.L42:
 552 00a6 00BF     		.align	2
 553              	.L41:
 554 00a8 00000000 		.word	kern_pair_8_compare
 555 00ac 00000000 		.word	kern_pair_16_compare
 556              		.cfi_endproc
 557              	.LFE41:
 558              		.size	get_kern_value, .-get_kern_value
 559              		.section	.text.decompress,"ax",%progbits
 560              		.align	2
 561              		.thumb
 562              		.thumb_func
 563              		.type	decompress, %function
 564              	decompress:
 565              	.LFB44:
 350:lvgl\src\lv_font/lv_font_fmt_txt.c ****     uint32_t wrp = 0;
 566              		.loc 1 350 0
 567              		.cfi_startproc
 568              		@ args = 8, pretend = 0, frame = 24
 569              		@ frame_needed = 0, uses_anonymous_args = 0
 570              	.LVL90:
 571 0000 2DE9F04F 		push	{r4, r5, r6, r7, r8, r9, r10, fp, lr}
 572              		.cfi_def_cfa_offset 36
 573              		.cfi_offset 4, -36
 574              		.cfi_offset 5, -32
 575              		.cfi_offset 6, -28
 576              		.cfi_offset 7, -24
 577              		.cfi_offset 8, -20
 578              		.cfi_offset 9, -16
 579              		.cfi_offset 10, -12
 580              		.cfi_offset 11, -8
 581              		.cfi_offset 14, -4
 582 0004 87B0     		sub	sp, sp, #28
 583              		.cfi_def_cfa_offset 64
 584 0006 0E46     		mov	r6, r1
 585 0008 1446     		mov	r4, r2
 586 000a 0193     		str	r3, [sp, #4]
 587 000c 9DF84070 		ldrb	r7, [sp, #64]	@ zero_extendqisi2
 588 0010 9DF84430 		ldrb	r3, [sp, #68]	@ zero_extendqisi2
 589              	.LVL91:
 590 0014 0493     		str	r3, [sp, #16]
 591              	.LVL92:
 353:lvgl\src\lv_font/lv_font_fmt_txt.c **** 
 592              		.loc 1 353 0
 593 0016 032F     		cmp	r7, #3
 594 0018 01D0     		beq	.L226
ARM GAS  C:\Users\strap\AppData\Local\Temp\ccKJQbxb.s 			page 23


 352:lvgl\src\lv_font/lv_font_fmt_txt.c ****     if(bpp == 3) wr_size = 4;
 595              		.loc 1 352 0
 596 001a 0297     		str	r7, [sp, #8]
 597 001c 01E0     		b	.L44
 598              	.L226:
 353:lvgl\src\lv_font/lv_font_fmt_txt.c **** 
 599              		.loc 1 353 0
 600 001e 0423     		movs	r3, #4
 601 0020 0293     		str	r3, [sp, #8]
 602              	.L44:
 603              	.LVL93:
 604              	.LBB98:
 605              	.LBB99:
 505:lvgl\src\lv_font/lv_font_fmt_txt.c ****     rle_bpp = bpp;
 606              		.loc 1 505 0
 607 0022 B44B     		ldr	r3, .L251
 608 0024 1860     		str	r0, [r3]
 506:lvgl\src\lv_font/lv_font_fmt_txt.c ****     rle_state = RLE_STATE_SINGLE;
 609              		.loc 1 506 0
 610 0026 1F71     		strb	r7, [r3, #4]
 507:lvgl\src\lv_font/lv_font_fmt_txt.c ****     rle_rdp = 0;
 611              		.loc 1 507 0
 612 0028 0022     		movs	r2, #0
 613              	.LVL94:
 614 002a 5A71     		strb	r2, [r3, #5]
 508:lvgl\src\lv_font/lv_font_fmt_txt.c ****     rle_prev_v = 0;
 615              		.loc 1 508 0
 616 002c 9A60     		str	r2, [r3, #8]
 509:lvgl\src\lv_font/lv_font_fmt_txt.c ****     rle_cnt = 0;
 617              		.loc 1 509 0
 618 002e 1A73     		strb	r2, [r3, #12]
 510:lvgl\src\lv_font/lv_font_fmt_txt.c **** }
 619              		.loc 1 510 0
 620 0030 5A73     		strb	r2, [r3, #13]
 621              	.LVL95:
 622              	.LBE99:
 623              	.LBE98:
 357:lvgl\src\lv_font/lv_font_fmt_txt.c **** 
 624              		.loc 1 357 0
 625 0032 2046     		mov	r0, r4
 626              	.LVL96:
 627 0034 FFF7FEFF 		bl	_lv_mem_buf_get
 628              	.LVL97:
 629 0038 0546     		mov	r5, r0
 630              	.LVL98:
 361:lvgl\src\lv_font/lv_font_fmt_txt.c ****         line_buf2 = _lv_mem_buf_get(w);
 631              		.loc 1 361 0
 632 003a 049B     		ldr	r3, [sp, #16]
 633 003c 23B1     		cbz	r3, .L227
 362:lvgl\src\lv_font/lv_font_fmt_txt.c ****     }
 634              		.loc 1 362 0
 635 003e 2046     		mov	r0, r4
 636              	.LVL99:
 637 0040 FFF7FEFF 		bl	_lv_mem_buf_get
 638              	.LVL100:
 639 0044 0390     		str	r0, [sp, #12]
 640              	.LVL101:
ARM GAS  C:\Users\strap\AppData\Local\Temp\ccKJQbxb.s 			page 24


 641 0046 01E0     		b	.L45
 642              	.LVL102:
 643              	.L227:
 359:lvgl\src\lv_font/lv_font_fmt_txt.c **** 
 644              		.loc 1 359 0
 645 0048 0023     		movs	r3, #0
 646 004a 0393     		str	r3, [sp, #12]
 647              	.LVL103:
 648              	.L45:
 649              	.LBB100:
 650              	.LBB101:
 407:lvgl\src\lv_font/lv_font_fmt_txt.c ****         out[i] = rle_next();
 651              		.loc 1 407 0
 652 004c 0020     		movs	r0, #0
 653 004e ABE1     		b	.L46
 654              	.LVL104:
 655              	.L93:
 408:lvgl\src\lv_font/lv_font_fmt_txt.c ****     }
 656              		.loc 1 408 0
 657 0050 05EB000C 		add	ip, r5, r0
 658              	.LVL105:
 659              	.LBB102:
 660              	.LBB103:
 518:lvgl\src\lv_font/lv_font_fmt_txt.c ****         ret = get_bits(rle_in, rle_rdp, rle_bpp);
 661              		.loc 1 518 0
 662 0054 A74B     		ldr	r3, .L251
 663 0056 5B79     		ldrb	r3, [r3, #5]	@ zero_extendqisi2
 664 0058 002B     		cmp	r3, #0
 665 005a 5AD1     		bne	.L47
 519:lvgl\src\lv_font/lv_font_fmt_txt.c ****         if(rle_rdp != 0 && rle_prev_v == ret) {
 666              		.loc 1 519 0
 667 005c A54B     		ldr	r3, .L251
 668 005e D3F800B0 		ldr	fp, [r3]
 669 0062 9A68     		ldr	r2, [r3, #8]
 670 0064 93F804E0 		ldrb	lr, [r3, #4]	@ zero_extendqisi2
 671              	.LVL106:
 672              	.LBB104:
 673              	.LBB105:
 422:lvgl\src\lv_font/lv_font_fmt_txt.c ****         case 1:
 674              		.loc 1 422 0
 675 0068 0EF1FF33 		add	r3, lr, #-1
 676 006c 072B     		cmp	r3, #7
 677 006e 11D8     		bhi	.L48
 678 0070 DFE803F0 		tbb	[pc, r3]
 679              	.L50:
 680 0074 04       		.byte	(.L49-.L50)/2
 681 0075 17       		.byte	(.L228-.L50)/2
 682 0076 07       		.byte	(.L52-.L50)/2
 683 0077 0A       		.byte	(.L53-.L50)/2
 684 0078 10       		.byte	(.L48-.L50)/2
 685 0079 10       		.byte	(.L48-.L50)/2
 686 007a 10       		.byte	(.L48-.L50)/2
 687 007b 0D       		.byte	(.L54-.L50)/2
 688              		.p2align 1
 689              	.L49:
 424:lvgl\src\lv_font/lv_font_fmt_txt.c ****             break;
 690              		.loc 1 424 0
ARM GAS  C:\Users\strap\AppData\Local\Temp\ccKJQbxb.s 			page 25


 691 007c 4FF00109 		mov	r9, #1
 692 0080 11E0     		b	.L51
 693              	.L52:
 694              	.LVL107:
 430:lvgl\src\lv_font/lv_font_fmt_txt.c ****             break;
 695              		.loc 1 430 0
 696 0082 4FF00709 		mov	r9, #7
 697 0086 0EE0     		b	.L51
 698              	.LVL108:
 699              	.L53:
 433:lvgl\src\lv_font/lv_font_fmt_txt.c ****             break;
 700              		.loc 1 433 0
 701 0088 4FF00F09 		mov	r9, #15
 702 008c 0BE0     		b	.L51
 703              	.LVL109:
 704              	.L54:
 436:lvgl\src\lv_font/lv_font_fmt_txt.c ****             break;
 705              		.loc 1 436 0
 706 008e 4FF0FF09 		mov	r9, #255
 707 0092 08E0     		b	.L51
 708              	.LVL110:
 709              	.L48:
 439:lvgl\src\lv_font/lv_font_fmt_txt.c ****     }
 710              		.loc 1 439 0
 711 0094 0123     		movs	r3, #1
 712 0096 03FA0EF3 		lsl	r3, r3, lr
 713 009a 013B     		subs	r3, r3, #1
 714 009c 5FFA83F9 		uxtb	r9, r3
 715              	.LVL111:
 716 00a0 01E0     		b	.L51
 717              	.LVL112:
 718              	.L228:
 427:lvgl\src\lv_font/lv_font_fmt_txt.c ****             break;
 719              		.loc 1 427 0
 720 00a2 4FF00309 		mov	r9, #3
 721              	.L51:
 722              	.LVL113:
 442:lvgl\src\lv_font/lv_font_fmt_txt.c ****     bit_pos = bit_pos & 0x7;
 723              		.loc 1 442 0
 724 00a6 4FEAD208 		lsr	r8, r2, #3
 725              	.LVL114:
 443:lvgl\src\lv_font/lv_font_fmt_txt.c **** 
 726              		.loc 1 443 0
 727 00aa 02F00701 		and	r1, r2, #7
 728              	.LVL115:
 445:lvgl\src\lv_font/lv_font_fmt_txt.c ****         uint16_t in16 = (in[byte_pos] << 8) + in[byte_pos + 1];
 729              		.loc 1 445 0
 730 00ae 01EB0E03 		add	r3, r1, lr
 731 00b2 072B     		cmp	r3, #7
 732 00b4 11D9     		bls	.L55
 733              	.LBB106:
 446:lvgl\src\lv_font/lv_font_fmt_txt.c ****         return (in16 >> (16 - bit_pos - len)) & bit_mask;
 734              		.loc 1 446 0
 735 00b6 1BF808A0 		ldrb	r10, [fp, r8]	@ zero_extendqisi2
 736 00ba D844     		add	r8, r8, fp
 737              	.LVL116:
 738 00bc 98F80130 		ldrb	r3, [r8, #1]	@ zero_extendqisi2
ARM GAS  C:\Users\strap\AppData\Local\Temp\ccKJQbxb.s 			page 26


 739 00c0 03EB0A23 		add	r3, r3, r10, lsl #8
 740 00c4 1FFA83F8 		uxth	r8, r3
 741              	.LVL117:
 447:lvgl\src\lv_font/lv_font_fmt_txt.c ****     }
 742              		.loc 1 447 0
 743 00c8 4942     		negs	r1, r1
 744              	.LVL118:
 745 00ca CEEB0103 		rsb	r3, lr, r1
 746 00ce 1033     		adds	r3, r3, #16
 747 00d0 48FA03F3 		asr	r3, r8, r3
 748 00d4 03EA0903 		and	r3, r3, r9
 749 00d8 08E0     		b	.L56
 750              	.LVL119:
 751              	.L55:
 752              	.LBE106:
 450:lvgl\src\lv_font/lv_font_fmt_txt.c ****     }
 753              		.loc 1 450 0
 754 00da 1BF80830 		ldrb	r3, [fp, r8]	@ zero_extendqisi2
 755 00de 4942     		negs	r1, r1
 756              	.LVL120:
 757 00e0 CEEB0101 		rsb	r1, lr, r1
 758              	.LVL121:
 759 00e4 0831     		adds	r1, r1, #8
 760 00e6 0B41     		asrs	r3, r3, r1
 761 00e8 03EA0903 		and	r3, r3, r9
 762              	.LVL122:
 763              	.L56:
 764              	.LBE105:
 765              	.LBE104:
 520:lvgl\src\lv_font/lv_font_fmt_txt.c ****             rle_cnt = 0;
 766              		.loc 1 520 0
 767 00ec 62B1     		cbz	r2, .L57
 768 00ee 8149     		ldr	r1, .L251
 769 00f0 097B     		ldrb	r1, [r1, #12]	@ zero_extendqisi2
 770 00f2 9942     		cmp	r1, r3
 771 00f4 08D1     		bne	.L57
 521:lvgl\src\lv_font/lv_font_fmt_txt.c ****             rle_state = RLE_STATE_REPEATE;
 772              		.loc 1 521 0
 773 00f6 7F49     		ldr	r1, .L251
 774 00f8 4FF00008 		mov	r8, #0
 775 00fc 81F80D80 		strb	r8, [r1, #13]
 522:lvgl\src\lv_font/lv_font_fmt_txt.c ****         }
 776              		.loc 1 522 0
 777 0100 4FF00108 		mov	r8, #1
 778 0104 81F80580 		strb	r8, [r1, #5]
 779              	.L57:
 525:lvgl\src\lv_font/lv_font_fmt_txt.c ****         rle_rdp += rle_bpp;
 780              		.loc 1 525 0
 781 0108 7A49     		ldr	r1, .L251
 782 010a 0B73     		strb	r3, [r1, #12]
 526:lvgl\src\lv_font/lv_font_fmt_txt.c ****     }
 783              		.loc 1 526 0
 784 010c 7244     		add	r2, r2, lr
 785 010e 8A60     		str	r2, [r1, #8]
 786 0110 46E1     		b	.L58
 787              	.LVL123:
 788              	.L47:
ARM GAS  C:\Users\strap\AppData\Local\Temp\ccKJQbxb.s 			page 27


 528:lvgl\src\lv_font/lv_font_fmt_txt.c ****         v = get_bits(rle_in, rle_rdp, 1);
 789              		.loc 1 528 0
 790 0112 012B     		cmp	r3, #1
 791 0114 40F0F080 		bne	.L59
 529:lvgl\src\lv_font/lv_font_fmt_txt.c ****         rle_cnt++;
 792              		.loc 1 529 0
 793 0118 764B     		ldr	r3, .L251
 794 011a 1968     		ldr	r1, [r3]
 795 011c 9B68     		ldr	r3, [r3, #8]
 796              	.LVL124:
 797              	.LBB107:
 798              	.LBB108:
 442:lvgl\src\lv_font/lv_font_fmt_txt.c ****     bit_pos = bit_pos & 0x7;
 799              		.loc 1 442 0
 800 011e 4FEAD308 		lsr	r8, r3, #3
 801              	.LVL125:
 443:lvgl\src\lv_font/lv_font_fmt_txt.c **** 
 802              		.loc 1 443 0
 803 0122 03F0070E 		and	lr, r3, #7
 804              	.LVL126:
 445:lvgl\src\lv_font/lv_font_fmt_txt.c ****         uint16_t in16 = (in[byte_pos] << 8) + in[byte_pos + 1];
 805              		.loc 1 445 0
 806 0126 0EF10102 		add	r2, lr, #1
 807 012a 072A     		cmp	r2, #7
 808 012c 0ED9     		bls	.L60
 809              	.LBB109:
 446:lvgl\src\lv_font/lv_font_fmt_txt.c ****         return (in16 >> (16 - bit_pos - len)) & bit_mask;
 810              		.loc 1 446 0
 811 012e 11F80890 		ldrb	r9, [r1, r8]	@ zero_extendqisi2
 812 0132 8844     		add	r8, r8, r1
 813              	.LVL127:
 814 0134 98F80120 		ldrb	r2, [r8, #1]	@ zero_extendqisi2
 815 0138 02EB0922 		add	r2, r2, r9, lsl #8
 816 013c 92B2     		uxth	r2, r2
 817              	.LVL128:
 447:lvgl\src\lv_font/lv_font_fmt_txt.c ****     }
 818              		.loc 1 447 0
 819 013e CEF10F0E 		rsb	lr, lr, #15
 820              	.LVL129:
 821 0142 42FA0EF2 		asr	r2, r2, lr
 822              	.LVL130:
 823 0146 02F00102 		and	r2, r2, #1
 824 014a 07E0     		b	.L61
 825              	.LVL131:
 826              	.L60:
 827              	.LBE109:
 450:lvgl\src\lv_font/lv_font_fmt_txt.c ****     }
 828              		.loc 1 450 0
 829 014c 11F80820 		ldrb	r2, [r1, r8]	@ zero_extendqisi2
 830 0150 CEF1070E 		rsb	lr, lr, #7
 831              	.LVL132:
 832 0154 42FA0EF2 		asr	r2, r2, lr
 833 0158 02F00102 		and	r2, r2, #1
 834              	.LVL133:
 835              	.L61:
 836              	.LBE108:
 837              	.LBE107:
ARM GAS  C:\Users\strap\AppData\Local\Temp\ccKJQbxb.s 			page 28


 530:lvgl\src\lv_font/lv_font_fmt_txt.c ****         rle_rdp += 1;
 838              		.loc 1 530 0
 839 015c DFF89491 		ldr	r9, .L251
 840 0160 99F80DE0 		ldrb	lr, [r9, #13]	@ zero_extendqisi2
 841 0164 0EF1010E 		add	lr, lr, #1
 842 0168 5FFA8EFE 		uxtb	lr, lr
 843 016c 89F80DE0 		strb	lr, [r9, #13]
 531:lvgl\src\lv_font/lv_font_fmt_txt.c ****         if(v == 1) {
 844              		.loc 1 531 0
 845 0170 03F10108 		add	r8, r3, #1
 846 0174 C9F80880 		str	r8, [r9, #8]
 532:lvgl\src\lv_font/lv_font_fmt_txt.c ****             ret = rle_prev_v;
 847              		.loc 1 532 0
 848 0178 002A     		cmp	r2, #0
 849 017a 76D0     		beq	.L62
 533:lvgl\src\lv_font/lv_font_fmt_txt.c ****             if(rle_cnt == 11) {
 850              		.loc 1 533 0
 851 017c 99F80C30 		ldrb	r3, [r9, #12]	@ zero_extendqisi2
 852              	.LVL134:
 534:lvgl\src\lv_font/lv_font_fmt_txt.c ****                 rle_cnt = get_bits(rle_in, rle_rdp, 6);
 853              		.loc 1 534 0
 854 0180 BEF10B0F 		cmp	lr, #11
 855 0184 40F00C81 		bne	.L58
 856              	.LVL135:
 857              	.LBB110:
 858              	.LBB111:
 442:lvgl\src\lv_font/lv_font_fmt_txt.c ****     bit_pos = bit_pos & 0x7;
 859              		.loc 1 442 0
 860 0188 4FEAD809 		lsr	r9, r8, #3
 861              	.LVL136:
 443:lvgl\src\lv_font/lv_font_fmt_txt.c **** 
 862              		.loc 1 443 0
 863 018c 08F0070E 		and	lr, r8, #7
 864              	.LVL137:
 445:lvgl\src\lv_font/lv_font_fmt_txt.c ****         uint16_t in16 = (in[byte_pos] << 8) + in[byte_pos + 1];
 865              		.loc 1 445 0
 866 0190 0EF10602 		add	r2, lr, #6
 867 0194 072A     		cmp	r2, #7
 868 0196 0ED9     		bls	.L63
 869              	.LBB112:
 446:lvgl\src\lv_font/lv_font_fmt_txt.c ****         return (in16 >> (16 - bit_pos - len)) & bit_mask;
 870              		.loc 1 446 0
 871 0198 11F809A0 		ldrb	r10, [r1, r9]	@ zero_extendqisi2
 872 019c 8944     		add	r9, r9, r1
 873              	.LVL138:
 874 019e 99F80120 		ldrb	r2, [r9, #1]	@ zero_extendqisi2
 875 01a2 02EB0A22 		add	r2, r2, r10, lsl #8
 876 01a6 92B2     		uxth	r2, r2
 877              	.LVL139:
 447:lvgl\src\lv_font/lv_font_fmt_txt.c ****     }
 878              		.loc 1 447 0
 879 01a8 CEF10A0E 		rsb	lr, lr, #10
 880              	.LVL140:
 881 01ac 42FA0EF2 		asr	r2, r2, lr
 882              	.LVL141:
 883 01b0 02F03F02 		and	r2, r2, #63
 884 01b4 07E0     		b	.L64
ARM GAS  C:\Users\strap\AppData\Local\Temp\ccKJQbxb.s 			page 29


 885              	.LVL142:
 886              	.L63:
 887              	.LBE112:
 450:lvgl\src\lv_font/lv_font_fmt_txt.c ****     }
 888              		.loc 1 450 0
 889 01b6 11F80920 		ldrb	r2, [r1, r9]	@ zero_extendqisi2
 890 01ba CEF1020E 		rsb	lr, lr, #2
 891              	.LVL143:
 892 01be 42FA0EF2 		asr	r2, r2, lr
 893 01c2 02F03F02 		and	r2, r2, #63
 894              	.LVL144:
 895              	.L64:
 896              	.LBE111:
 897              	.LBE110:
 535:lvgl\src\lv_font/lv_font_fmt_txt.c ****                 rle_rdp += 6;
 898              		.loc 1 535 0
 899 01c6 DFF82CE1 		ldr	lr, .L251
 900 01ca 8EF80D20 		strb	r2, [lr, #13]
 536:lvgl\src\lv_font/lv_font_fmt_txt.c ****                 if(rle_cnt != 0) {
 901              		.loc 1 536 0
 902 01ce 08F10608 		add	r8, r8, #6
 903 01d2 CEF80880 		str	r8, [lr, #8]
 537:lvgl\src\lv_font/lv_font_fmt_txt.c ****                     rle_state = RLE_STATE_COUNTER;
 904              		.loc 1 537 0
 905 01d6 1AB1     		cbz	r2, .L65
 538:lvgl\src\lv_font/lv_font_fmt_txt.c ****                 }
 906              		.loc 1 538 0
 907 01d8 0221     		movs	r1, #2
 908 01da 8EF80510 		strb	r1, [lr, #5]
 909 01de DFE0     		b	.L58
 910              	.L65:
 541:lvgl\src\lv_font/lv_font_fmt_txt.c ****                     rle_prev_v = ret;
 911              		.loc 1 541 0
 912 01e0 444B     		ldr	r3, .L251
 913              	.LVL145:
 914 01e2 93F804E0 		ldrb	lr, [r3, #4]	@ zero_extendqisi2
 915              	.LVL146:
 916              	.LBB113:
 917              	.LBB114:
 422:lvgl\src\lv_font/lv_font_fmt_txt.c ****         case 1:
 918              		.loc 1 422 0
 919 01e6 0EF1FF33 		add	r3, lr, #-1
 920 01ea 072B     		cmp	r3, #7
 921 01ec 0DD8     		bhi	.L66
 922 01ee DFE803F0 		tbb	[pc, r3]
 923              	.L68:
 924 01f2 04       		.byte	(.L67-.L68)/2
 925 01f3 12       		.byte	(.L229-.L68)/2
 926 01f4 06       		.byte	(.L70-.L68)/2
 927 01f5 08       		.byte	(.L71-.L68)/2
 928 01f6 0C       		.byte	(.L66-.L68)/2
 929 01f7 0C       		.byte	(.L66-.L68)/2
 930 01f8 0C       		.byte	(.L66-.L68)/2
 931 01f9 0A       		.byte	(.L72-.L68)/2
 932              		.p2align 1
 933              	.L67:
 424:lvgl\src\lv_font/lv_font_fmt_txt.c ****             break;
ARM GAS  C:\Users\strap\AppData\Local\Temp\ccKJQbxb.s 			page 30


 934              		.loc 1 424 0
 935 01fa 0123     		movs	r3, #1
 936 01fc 0CE0     		b	.L69
 937              	.L70:
 938              	.LVL147:
 430:lvgl\src\lv_font/lv_font_fmt_txt.c ****             break;
 939              		.loc 1 430 0
 940 01fe 0723     		movs	r3, #7
 941 0200 0AE0     		b	.L69
 942              	.LVL148:
 943              	.L71:
 433:lvgl\src\lv_font/lv_font_fmt_txt.c ****             break;
 944              		.loc 1 433 0
 945 0202 0F23     		movs	r3, #15
 946 0204 08E0     		b	.L69
 947              	.LVL149:
 948              	.L72:
 436:lvgl\src\lv_font/lv_font_fmt_txt.c ****             break;
 949              		.loc 1 436 0
 950 0206 FF23     		movs	r3, #255
 951 0208 06E0     		b	.L69
 952              	.LVL150:
 953              	.L66:
 439:lvgl\src\lv_font/lv_font_fmt_txt.c ****     }
 954              		.loc 1 439 0
 955 020a 0123     		movs	r3, #1
 956 020c 03FA0EF3 		lsl	r3, r3, lr
 957 0210 013B     		subs	r3, r3, #1
 958 0212 DBB2     		uxtb	r3, r3
 959              	.LVL151:
 960 0214 00E0     		b	.L69
 961              	.LVL152:
 962              	.L229:
 427:lvgl\src\lv_font/lv_font_fmt_txt.c ****             break;
 963              		.loc 1 427 0
 964 0216 0323     		movs	r3, #3
 965              	.L69:
 966              	.LVL153:
 442:lvgl\src\lv_font/lv_font_fmt_txt.c ****     bit_pos = bit_pos & 0x7;
 967              		.loc 1 442 0
 968 0218 4FEAD809 		lsr	r9, r8, #3
 969              	.LVL154:
 443:lvgl\src\lv_font/lv_font_fmt_txt.c **** 
 970              		.loc 1 443 0
 971 021c 08F00702 		and	r2, r8, #7
 972              	.LVL155:
 445:lvgl\src\lv_font/lv_font_fmt_txt.c ****         uint16_t in16 = (in[byte_pos] << 8) + in[byte_pos + 1];
 973              		.loc 1 445 0
 974 0220 02EB0E0A 		add	r10, r2, lr
 975 0224 BAF1070F 		cmp	r10, #7
 976 0228 0ED9     		bls	.L73
 977              	.LBB115:
 446:lvgl\src\lv_font/lv_font_fmt_txt.c ****         return (in16 >> (16 - bit_pos - len)) & bit_mask;
 978              		.loc 1 446 0
 979 022a 11F809A0 		ldrb	r10, [r1, r9]	@ zero_extendqisi2
 980 022e 4944     		add	r1, r1, r9
 981              	.LVL156:
ARM GAS  C:\Users\strap\AppData\Local\Temp\ccKJQbxb.s 			page 31


 982 0230 4978     		ldrb	r1, [r1, #1]	@ zero_extendqisi2
 983 0232 01EB0A21 		add	r1, r1, r10, lsl #8
 984 0236 89B2     		uxth	r1, r1
 985              	.LVL157:
 447:lvgl\src\lv_font/lv_font_fmt_txt.c ****     }
 986              		.loc 1 447 0
 987 0238 5242     		negs	r2, r2
 988              	.LVL158:
 989 023a CEEB0202 		rsb	r2, lr, r2
 990              	.LVL159:
 991 023e 1032     		adds	r2, r2, #16
 992 0240 41FA02F2 		asr	r2, r1, r2
 993 0244 1340     		ands	r3, r3, r2
 994              	.LVL160:
 995 0246 08E0     		b	.L74
 996              	.LVL161:
 997              	.L73:
 998              	.LBE115:
 450:lvgl\src\lv_font/lv_font_fmt_txt.c ****     }
 999              		.loc 1 450 0
 1000 0248 11F80990 		ldrb	r9, [r1, r9]	@ zero_extendqisi2
 1001              	.LVL162:
 1002 024c 5142     		negs	r1, r2
 1003              	.LVL163:
 1004 024e CEEB0101 		rsb	r1, lr, r1
 1005 0252 0831     		adds	r1, r1, #8
 1006 0254 49FA01F1 		asr	r1, r9, r1
 1007 0258 0B40     		ands	r3, r3, r1
 1008              	.LVL164:
 1009              	.L74:
 1010              	.LBE114:
 1011              	.LBE113:
 542:lvgl\src\lv_font/lv_font_fmt_txt.c ****                     rle_rdp += rle_bpp;
 1012              		.loc 1 542 0
 1013 025a 2649     		ldr	r1, .L251
 1014 025c 0B73     		strb	r3, [r1, #12]
 543:lvgl\src\lv_font/lv_font_fmt_txt.c ****                     rle_state = RLE_STATE_SINGLE;
 1015              		.loc 1 543 0
 1016 025e 0EEB0802 		add	r2, lr, r8
 1017 0262 8A60     		str	r2, [r1, #8]
 544:lvgl\src\lv_font/lv_font_fmt_txt.c ****                 }
 1018              		.loc 1 544 0
 1019 0264 0022     		movs	r2, #0
 1020 0266 4A71     		strb	r2, [r1, #5]
 1021 0268 9AE0     		b	.L58
 1022              	.LVL165:
 1023              	.L62:
 549:lvgl\src\lv_font/lv_font_fmt_txt.c ****             rle_prev_v = ret;
 1024              		.loc 1 549 0
 1025 026a 224B     		ldr	r3, .L251
 1026 026c 93F804E0 		ldrb	lr, [r3, #4]	@ zero_extendqisi2
 1027              	.LVL166:
 1028              	.LBB116:
 1029              	.LBB117:
 422:lvgl\src\lv_font/lv_font_fmt_txt.c ****         case 1:
 1030              		.loc 1 422 0
 1031 0270 0EF1FF33 		add	r3, lr, #-1
ARM GAS  C:\Users\strap\AppData\Local\Temp\ccKJQbxb.s 			page 32


 1032 0274 072B     		cmp	r3, #7
 1033 0276 0DD8     		bhi	.L75
 1034 0278 DFE803F0 		tbb	[pc, r3]
 1035              	.L77:
 1036 027c 04       		.byte	(.L76-.L77)/2
 1037 027d 12       		.byte	(.L230-.L77)/2
 1038 027e 06       		.byte	(.L79-.L77)/2
 1039 027f 08       		.byte	(.L80-.L77)/2
 1040 0280 0C       		.byte	(.L75-.L77)/2
 1041 0281 0C       		.byte	(.L75-.L77)/2
 1042 0282 0C       		.byte	(.L75-.L77)/2
 1043 0283 0A       		.byte	(.L81-.L77)/2
 1044              		.p2align 1
 1045              	.L76:
 424:lvgl\src\lv_font/lv_font_fmt_txt.c ****             break;
 1046              		.loc 1 424 0
 1047 0284 0123     		movs	r3, #1
 1048 0286 0CE0     		b	.L78
 1049              	.L79:
 1050              	.LVL167:
 430:lvgl\src\lv_font/lv_font_fmt_txt.c ****             break;
 1051              		.loc 1 430 0
 1052 0288 0723     		movs	r3, #7
 1053 028a 0AE0     		b	.L78
 1054              	.LVL168:
 1055              	.L80:
 433:lvgl\src\lv_font/lv_font_fmt_txt.c ****             break;
 1056              		.loc 1 433 0
 1057 028c 0F23     		movs	r3, #15
 1058 028e 08E0     		b	.L78
 1059              	.LVL169:
 1060              	.L81:
 436:lvgl\src\lv_font/lv_font_fmt_txt.c ****             break;
 1061              		.loc 1 436 0
 1062 0290 FF23     		movs	r3, #255
 1063 0292 06E0     		b	.L78
 1064              	.LVL170:
 1065              	.L75:
 439:lvgl\src\lv_font/lv_font_fmt_txt.c ****     }
 1066              		.loc 1 439 0
 1067 0294 0123     		movs	r3, #1
 1068 0296 03FA0EF3 		lsl	r3, r3, lr
 1069 029a 013B     		subs	r3, r3, #1
 1070 029c DBB2     		uxtb	r3, r3
 1071              	.LVL171:
 1072 029e 00E0     		b	.L78
 1073              	.LVL172:
 1074              	.L230:
 427:lvgl\src\lv_font/lv_font_fmt_txt.c ****             break;
 1075              		.loc 1 427 0
 1076 02a0 0323     		movs	r3, #3
 1077              	.L78:
 1078              	.LVL173:
 442:lvgl\src\lv_font/lv_font_fmt_txt.c ****     bit_pos = bit_pos & 0x7;
 1079              		.loc 1 442 0
 1080 02a2 4FEAD809 		lsr	r9, r8, #3
 1081              	.LVL174:
ARM GAS  C:\Users\strap\AppData\Local\Temp\ccKJQbxb.s 			page 33


 443:lvgl\src\lv_font/lv_font_fmt_txt.c **** 
 1082              		.loc 1 443 0
 1083 02a6 08F00702 		and	r2, r8, #7
 1084              	.LVL175:
 445:lvgl\src\lv_font/lv_font_fmt_txt.c ****         uint16_t in16 = (in[byte_pos] << 8) + in[byte_pos + 1];
 1085              		.loc 1 445 0
 1086 02aa 02EB0E0A 		add	r10, r2, lr
 1087 02ae BAF1070F 		cmp	r10, #7
 1088 02b2 0ED9     		bls	.L82
 1089              	.LBB118:
 446:lvgl\src\lv_font/lv_font_fmt_txt.c ****         return (in16 >> (16 - bit_pos - len)) & bit_mask;
 1090              		.loc 1 446 0
 1091 02b4 11F809A0 		ldrb	r10, [r1, r9]	@ zero_extendqisi2
 1092 02b8 4944     		add	r1, r1, r9
 1093              	.LVL176:
 1094 02ba 4978     		ldrb	r1, [r1, #1]	@ zero_extendqisi2
 1095 02bc 01EB0A21 		add	r1, r1, r10, lsl #8
 1096 02c0 89B2     		uxth	r1, r1
 1097              	.LVL177:
 447:lvgl\src\lv_font/lv_font_fmt_txt.c ****     }
 1098              		.loc 1 447 0
 1099 02c2 5242     		negs	r2, r2
 1100              	.LVL178:
 1101 02c4 CEEB0202 		rsb	r2, lr, r2
 1102              	.LVL179:
 1103 02c8 1032     		adds	r2, r2, #16
 1104 02ca 41FA02F2 		asr	r2, r1, r2
 1105 02ce 1340     		ands	r3, r3, r2
 1106              	.LVL180:
 1107 02d0 08E0     		b	.L83
 1108              	.LVL181:
 1109              	.L82:
 1110              	.LBE118:
 450:lvgl\src\lv_font/lv_font_fmt_txt.c ****     }
 1111              		.loc 1 450 0
 1112 02d2 11F80990 		ldrb	r9, [r1, r9]	@ zero_extendqisi2
 1113              	.LVL182:
 1114 02d6 5142     		negs	r1, r2
 1115              	.LVL183:
 1116 02d8 CEEB0101 		rsb	r1, lr, r1
 1117 02dc 0831     		adds	r1, r1, #8
 1118 02de 49FA01F1 		asr	r1, r9, r1
 1119 02e2 0B40     		ands	r3, r3, r1
 1120              	.LVL184:
 1121              	.L83:
 1122              	.LBE117:
 1123              	.LBE116:
 550:lvgl\src\lv_font/lv_font_fmt_txt.c ****             rle_rdp += rle_bpp;
 1124              		.loc 1 550 0
 1125 02e4 0349     		ldr	r1, .L251
 1126 02e6 0B73     		strb	r3, [r1, #12]
 551:lvgl\src\lv_font/lv_font_fmt_txt.c ****             rle_state = RLE_STATE_SINGLE;
 1127              		.loc 1 551 0
 1128 02e8 0EEB0802 		add	r2, lr, r8
 1129 02ec 8A60     		str	r2, [r1, #8]
 552:lvgl\src\lv_font/lv_font_fmt_txt.c ****         }
 1130              		.loc 1 552 0
ARM GAS  C:\Users\strap\AppData\Local\Temp\ccKJQbxb.s 			page 34


 1131 02ee 0022     		movs	r2, #0
 1132 02f0 4A71     		strb	r2, [r1, #5]
 1133 02f2 55E0     		b	.L58
 1134              	.L252:
 1135              		.align	2
 1136              	.L251:
 1137 02f4 00000000 		.word	.LANCHOR0
 1138              	.LVL185:
 1139              	.L59:
 557:lvgl\src\lv_font/lv_font_fmt_txt.c ****         ret = rle_prev_v;
 1140              		.loc 1 557 0
 1141 02f8 022B     		cmp	r3, #2
 1142 02fa 50D1     		bne	.L231
 558:lvgl\src\lv_font/lv_font_fmt_txt.c ****         rle_cnt--;
 1143              		.loc 1 558 0
 1144 02fc AA49     		ldr	r1, .L253
 1145 02fe 0B7B     		ldrb	r3, [r1, #12]	@ zero_extendqisi2
 1146              	.LVL186:
 559:lvgl\src\lv_font/lv_font_fmt_txt.c ****         if(rle_cnt == 0) {
 1147              		.loc 1 559 0
 1148 0300 4A7B     		ldrb	r2, [r1, #13]	@ zero_extendqisi2
 1149 0302 013A     		subs	r2, r2, #1
 1150 0304 D2B2     		uxtb	r2, r2
 1151 0306 4A73     		strb	r2, [r1, #13]
 560:lvgl\src\lv_font/lv_font_fmt_txt.c ****             ret = get_bits(rle_in, rle_rdp, rle_bpp);
 1152              		.loc 1 560 0
 1153 0308 002A     		cmp	r2, #0
 1154 030a 49D1     		bne	.L58
 561:lvgl\src\lv_font/lv_font_fmt_txt.c ****             rle_prev_v = ret;
 1155              		.loc 1 561 0
 1156 030c 0B46     		mov	r3, r1
 1157              	.LVL187:
 1158 030e D1F80090 		ldr	r9, [r1]
 1159 0312 8968     		ldr	r1, [r1, #8]
 1160 0314 93F804E0 		ldrb	lr, [r3, #4]	@ zero_extendqisi2
 1161              	.LVL188:
 1162              	.LBB119:
 1163              	.LBB120:
 422:lvgl\src\lv_font/lv_font_fmt_txt.c ****         case 1:
 1164              		.loc 1 422 0
 1165 0318 0EF1FF33 		add	r3, lr, #-1
 1166 031c 072B     		cmp	r3, #7
 1167 031e 0DD8     		bhi	.L84
 1168 0320 DFE803F0 		tbb	[pc, r3]
 1169              	.L86:
 1170 0324 04       		.byte	(.L85-.L86)/2
 1171 0325 12       		.byte	(.L232-.L86)/2
 1172 0326 06       		.byte	(.L88-.L86)/2
 1173 0327 08       		.byte	(.L89-.L86)/2
 1174 0328 0C       		.byte	(.L84-.L86)/2
 1175 0329 0C       		.byte	(.L84-.L86)/2
 1176 032a 0C       		.byte	(.L84-.L86)/2
 1177 032b 0A       		.byte	(.L90-.L86)/2
 1178              		.p2align 1
 1179              	.L85:
 424:lvgl\src\lv_font/lv_font_fmt_txt.c ****             break;
 1180              		.loc 1 424 0
ARM GAS  C:\Users\strap\AppData\Local\Temp\ccKJQbxb.s 			page 35


 1181 032c 0123     		movs	r3, #1
 1182 032e 0CE0     		b	.L87
 1183              	.L88:
 1184              	.LVL189:
 430:lvgl\src\lv_font/lv_font_fmt_txt.c ****             break;
 1185              		.loc 1 430 0
 1186 0330 0723     		movs	r3, #7
 1187 0332 0AE0     		b	.L87
 1188              	.LVL190:
 1189              	.L89:
 433:lvgl\src\lv_font/lv_font_fmt_txt.c ****             break;
 1190              		.loc 1 433 0
 1191 0334 0F23     		movs	r3, #15
 1192 0336 08E0     		b	.L87
 1193              	.LVL191:
 1194              	.L90:
 436:lvgl\src\lv_font/lv_font_fmt_txt.c ****             break;
 1195              		.loc 1 436 0
 1196 0338 FF23     		movs	r3, #255
 1197 033a 06E0     		b	.L87
 1198              	.LVL192:
 1199              	.L84:
 439:lvgl\src\lv_font/lv_font_fmt_txt.c ****     }
 1200              		.loc 1 439 0
 1201 033c 0123     		movs	r3, #1
 1202 033e 03FA0EF3 		lsl	r3, r3, lr
 1203 0342 013B     		subs	r3, r3, #1
 1204 0344 DBB2     		uxtb	r3, r3
 1205              	.LVL193:
 1206 0346 00E0     		b	.L87
 1207              	.LVL194:
 1208              	.L232:
 427:lvgl\src\lv_font/lv_font_fmt_txt.c ****             break;
 1209              		.loc 1 427 0
 1210 0348 0323     		movs	r3, #3
 1211              	.L87:
 1212              	.LVL195:
 442:lvgl\src\lv_font/lv_font_fmt_txt.c ****     bit_pos = bit_pos & 0x7;
 1213              		.loc 1 442 0
 1214 034a 4FEAD108 		lsr	r8, r1, #3
 1215              	.LVL196:
 443:lvgl\src\lv_font/lv_font_fmt_txt.c **** 
 1216              		.loc 1 443 0
 1217 034e 01F00702 		and	r2, r1, #7
 1218              	.LVL197:
 445:lvgl\src\lv_font/lv_font_fmt_txt.c ****         uint16_t in16 = (in[byte_pos] << 8) + in[byte_pos + 1];
 1219              		.loc 1 445 0
 1220 0352 02EB0E0A 		add	r10, r2, lr
 1221 0356 BAF1070F 		cmp	r10, #7
 1222 035a 10D9     		bls	.L91
 1223              	.LBB121:
 446:lvgl\src\lv_font/lv_font_fmt_txt.c ****         return (in16 >> (16 - bit_pos - len)) & bit_mask;
 1224              		.loc 1 446 0
 1225 035c 19F808A0 		ldrb	r10, [r9, r8]	@ zero_extendqisi2
 1226 0360 C844     		add	r8, r8, r9
 1227              	.LVL198:
 1228 0362 98F80180 		ldrb	r8, [r8, #1]	@ zero_extendqisi2
ARM GAS  C:\Users\strap\AppData\Local\Temp\ccKJQbxb.s 			page 36


 1229 0366 08EB0A28 		add	r8, r8, r10, lsl #8
 1230 036a 1FFA88F8 		uxth	r8, r8
 1231              	.LVL199:
 447:lvgl\src\lv_font/lv_font_fmt_txt.c ****     }
 1232              		.loc 1 447 0
 1233 036e 5242     		negs	r2, r2
 1234              	.LVL200:
 1235 0370 CEEB0202 		rsb	r2, lr, r2
 1236              	.LVL201:
 1237 0374 1032     		adds	r2, r2, #16
 1238 0376 48FA02F2 		asr	r2, r8, r2
 1239 037a 1340     		ands	r3, r3, r2
 1240              	.LVL202:
 1241 037c 08E0     		b	.L92
 1242              	.LVL203:
 1243              	.L91:
 1244              	.LBE121:
 450:lvgl\src\lv_font/lv_font_fmt_txt.c ****     }
 1245              		.loc 1 450 0
 1246 037e 19F80880 		ldrb	r8, [r9, r8]	@ zero_extendqisi2
 1247              	.LVL204:
 1248 0382 5242     		negs	r2, r2
 1249              	.LVL205:
 1250 0384 CEEB0202 		rsb	r2, lr, r2
 1251              	.LVL206:
 1252 0388 0832     		adds	r2, r2, #8
 1253 038a 48FA02F2 		asr	r2, r8, r2
 1254 038e 1340     		ands	r3, r3, r2
 1255              	.LVL207:
 1256              	.L92:
 1257              	.LBE120:
 1258              	.LBE119:
 562:lvgl\src\lv_font/lv_font_fmt_txt.c ****             rle_rdp += rle_bpp;
 1259              		.loc 1 562 0
 1260 0390 854A     		ldr	r2, .L253
 1261 0392 1373     		strb	r3, [r2, #12]
 563:lvgl\src\lv_font/lv_font_fmt_txt.c ****             rle_state = RLE_STATE_SINGLE;
 1262              		.loc 1 563 0
 1263 0394 7144     		add	r1, r1, lr
 1264 0396 9160     		str	r1, [r2, #8]
 564:lvgl\src\lv_font/lv_font_fmt_txt.c ****         }
 1265              		.loc 1 564 0
 1266 0398 0021     		movs	r1, #0
 1267 039a 5171     		strb	r1, [r2, #5]
 1268 039c 00E0     		b	.L58
 1269              	.LVL208:
 1270              	.L231:
 516:lvgl\src\lv_font/lv_font_fmt_txt.c **** 
 1271              		.loc 1 516 0
 1272 039e 0023     		movs	r3, #0
 1273              	.LVL209:
 1274              	.L58:
 1275              	.LBE103:
 1276              	.LBE102:
 408:lvgl\src\lv_font/lv_font_fmt_txt.c ****     }
 1277              		.loc 1 408 0
 1278 03a0 8CF80030 		strb	r3, [ip]
ARM GAS  C:\Users\strap\AppData\Local\Temp\ccKJQbxb.s 			page 37


 407:lvgl\src\lv_font/lv_font_fmt_txt.c ****         out[i] = rle_next();
 1279              		.loc 1 407 0
 1280 03a4 0130     		adds	r0, r0, #1
 1281              	.LVL210:
 1282 03a6 00B2     		sxth	r0, r0
 1283              	.LVL211:
 1284              	.L46:
 1285 03a8 A042     		cmp	r0, r4
 1286 03aa FFF651AE 		blt	.L93
 1287 03ae 4FF0000C 		mov	ip, #0
 1288 03b2 6046     		mov	r0, ip
 1289              	.LVL212:
 1290 03b4 DDF80890 		ldr	r9, [sp, #8]
 1291 03b8 47E0     		b	.L94
 1292              	.LVL213:
 1293              	.L104:
 1294              	.LBE101:
 1295              	.LBE100:
 371:lvgl\src\lv_font/lv_font_fmt_txt.c ****         wrp += wr_size;
 1296              		.loc 1 371 0 discriminator 3
 1297 03ba 15F80CE0 		ldrb	lr, [r5, ip]	@ zero_extendqisi2
 1298              	.LVL214:
 1299              	.LBB122:
 1300              	.LBB123:
 464:lvgl\src\lv_font/lv_font_fmt_txt.c ****         len = 4;
 1301              		.loc 1 464 0 discriminator 3
 1302 03be 032F     		cmp	r7, #3
 1303 03c0 24D1     		bne	.L233
 1304              	.LVL215:
 466:lvgl\src\lv_font/lv_font_fmt_txt.c ****             case 0:
 1305              		.loc 1 466 0
 1306 03c2 0EF1FF33 		add	r3, lr, #-1
 1307 03c6 062B     		cmp	r3, #6
 1308 03c8 22D8     		bhi	.L234
 1309 03ca DFE803F0 		tbb	[pc, r3]
 1310              	.L97:
 1311 03ce 04       		.byte	(.L96-.L97)/2
 1312 03cf 08       		.byte	(.L98-.L97)/2
 1313 03d0 0B       		.byte	(.L99-.L97)/2
 1314 03d1 0F       		.byte	(.L100-.L97)/2
 1315 03d2 13       		.byte	(.L101-.L97)/2
 1316 03d3 17       		.byte	(.L102-.L97)/2
 1317 03d4 1B       		.byte	(.L103-.L97)/2
 1318 03d5 00       		.p2align 1
 1319              	.L96:
 1320              	.LVL216:
 465:lvgl\src\lv_font/lv_font_fmt_txt.c ****         switch(val) {
 1321              		.loc 1 465 0
 1322 03d6 0422     		movs	r2, #4
 471:lvgl\src\lv_font/lv_font_fmt_txt.c ****                 break;
 1323              		.loc 1 471 0
 1324 03d8 4FF0020E 		mov	lr, #2
 1325 03dc 19E0     		b	.L95
 1326              	.LVL217:
 1327              	.L98:
 465:lvgl\src\lv_font/lv_font_fmt_txt.c ****         switch(val) {
 1328              		.loc 1 465 0
ARM GAS  C:\Users\strap\AppData\Local\Temp\ccKJQbxb.s 			page 38


 1329 03de 0422     		movs	r2, #4
 474:lvgl\src\lv_font/lv_font_fmt_txt.c ****                 break;
 1330              		.loc 1 474 0
 1331 03e0 9646     		mov	lr, r2
 1332 03e2 16E0     		b	.L95
 1333              	.LVL218:
 1334              	.L99:
 465:lvgl\src\lv_font/lv_font_fmt_txt.c ****         switch(val) {
 1335              		.loc 1 465 0
 1336 03e4 0422     		movs	r2, #4
 477:lvgl\src\lv_font/lv_font_fmt_txt.c ****                 break;
 1337              		.loc 1 477 0
 1338 03e6 4FF0060E 		mov	lr, #6
 1339 03ea 12E0     		b	.L95
 1340              	.LVL219:
 1341              	.L100:
 465:lvgl\src\lv_font/lv_font_fmt_txt.c ****         switch(val) {
 1342              		.loc 1 465 0
 1343 03ec 0422     		movs	r2, #4
 480:lvgl\src\lv_font/lv_font_fmt_txt.c ****                 break;
 1344              		.loc 1 480 0
 1345 03ee 4FF0090E 		mov	lr, #9
 1346 03f2 0EE0     		b	.L95
 1347              	.LVL220:
 1348              	.L101:
 465:lvgl\src\lv_font/lv_font_fmt_txt.c ****         switch(val) {
 1349              		.loc 1 465 0
 1350 03f4 0422     		movs	r2, #4
 483:lvgl\src\lv_font/lv_font_fmt_txt.c ****                 break;
 1351              		.loc 1 483 0
 1352 03f6 4FF00B0E 		mov	lr, #11
 1353 03fa 0AE0     		b	.L95
 1354              	.LVL221:
 1355              	.L102:
 465:lvgl\src\lv_font/lv_font_fmt_txt.c ****         switch(val) {
 1356              		.loc 1 465 0
 1357 03fc 0422     		movs	r2, #4
 486:lvgl\src\lv_font/lv_font_fmt_txt.c ****                 break;
 1358              		.loc 1 486 0
 1359 03fe 4FF00D0E 		mov	lr, #13
 1360 0402 06E0     		b	.L95
 1361              	.LVL222:
 1362              	.L103:
 465:lvgl\src\lv_font/lv_font_fmt_txt.c ****         switch(val) {
 1363              		.loc 1 465 0
 1364 0404 0422     		movs	r2, #4
 489:lvgl\src\lv_font/lv_font_fmt_txt.c ****                 break;
 1365              		.loc 1 489 0
 1366 0406 4FF00F0E 		mov	lr, #15
 1367 040a 02E0     		b	.L95
 1368              	.LVL223:
 1369              	.L233:
 464:lvgl\src\lv_font/lv_font_fmt_txt.c ****         len = 4;
 1370              		.loc 1 464 0
 1371 040c 3A46     		mov	r2, r7
 1372 040e 00E0     		b	.L95
 1373              	.LVL224:
ARM GAS  C:\Users\strap\AppData\Local\Temp\ccKJQbxb.s 			page 39


 1374              	.L234:
 465:lvgl\src\lv_font/lv_font_fmt_txt.c ****         switch(val) {
 1375              		.loc 1 465 0
 1376 0410 0422     		movs	r2, #4
 1377              	.LVL225:
 1378              	.L95:
 495:lvgl\src\lv_font/lv_font_fmt_txt.c ****     bit_pos = 8 - bit_pos - len;
 1379              		.loc 1 495 0
 1380 0412 00F00701 		and	r1, r0, #7
 1381              	.LVL226:
 496:lvgl\src\lv_font/lv_font_fmt_txt.c **** 
 1382              		.loc 1 496 0
 1383 0416 4942     		negs	r1, r1
 1384              	.LVL227:
 1385 0418 891A     		subs	r1, r1, r2
 1386              	.LVL228:
 1387 041a 0831     		adds	r1, r1, #8
 1388              	.LVL229:
 498:lvgl\src\lv_font/lv_font_fmt_txt.c ****     out[byte_pos] &= ((~bit_mask) << bit_pos);
 1389              		.loc 1 498 0
 1390 041c 0123     		movs	r3, #1
 1391 041e 9340     		lsls	r3, r3, r2
 1392 0420 013B     		subs	r3, r3, #1
 1393 0422 DBB2     		uxtb	r3, r3
 1394              	.LVL230:
 499:lvgl\src\lv_font/lv_font_fmt_txt.c ****     out[byte_pos] |= (val << bit_pos);
 1395              		.loc 1 499 0
 1396 0424 C0F3CF08 		ubfx	r8, r0, #3, #16
 1397 0428 DB43     		mvns	r3, r3
 1398              	.LVL231:
 1399 042a 03FA01F2 		lsl	r2, r3, r1
 1400              	.LVL232:
 1401 042e 16F80830 		ldrb	r3, [r6, r8]	@ zero_extendqisi2
 1402              	.LVL233:
 1403 0432 1340     		ands	r3, r3, r2
 1404 0434 5BB2     		sxtb	r3, r3
 500:lvgl\src\lv_font/lv_font_fmt_txt.c **** }
 1405              		.loc 1 500 0
 1406 0436 0EFA01F1 		lsl	r1, lr, r1
 1407              	.LVL234:
 1408 043a 0B43     		orrs	r3, r3, r1
 1409 043c 06F80830 		strb	r3, [r6, r8]
 1410              	.LVL235:
 1411              	.LBE123:
 1412              	.LBE122:
 372:lvgl\src\lv_font/lv_font_fmt_txt.c ****     }
 1413              		.loc 1 372 0
 1414 0440 4844     		add	r0, r0, r9
 1415              	.LVL236:
 370:lvgl\src\lv_font/lv_font_fmt_txt.c ****         bits_write(out, wrp, line_buf1[x], bpp);
 1416              		.loc 1 370 0
 1417 0442 0CF1010C 		add	ip, ip, #1
 1418              	.LVL237:
 1419 0446 0FFA8CFC 		sxth	ip, ip
 1420              	.LVL238:
 1421              	.L94:
 370:lvgl\src\lv_font/lv_font_fmt_txt.c ****         bits_write(out, wrp, line_buf1[x], bpp);
ARM GAS  C:\Users\strap\AppData\Local\Temp\ccKJQbxb.s 			page 40


 1422              		.loc 1 370 0 is_stmt 0 discriminator 1
 1423 044a A445     		cmp	ip, r4
 1424 044c B5DB     		blt	.L104
 1425 044e 0123     		movs	r3, #1
 1426 0450 0093     		str	r3, [sp]
 1427 0452 FBE3     		b	.L105
 1428              	.LVL239:
 1429              	.L225:
 376:lvgl\src\lv_font/lv_font_fmt_txt.c ****             decompress_line(line_buf2, w);
 1430              		.loc 1 376 0 is_stmt 1
 1431 0454 049B     		ldr	r3, [sp, #16]
 1432 0456 002B     		cmp	r3, #0
 1433 0458 40F08E81 		bne	.L235
 1434 045c 4FF0000E 		mov	lr, #0
 1435 0460 9BE3     		b	.L107
 1436              	.LVL240:
 1437              	.L154:
 1438              	.LBB124:
 1439              	.LBB125:
 408:lvgl\src\lv_font/lv_font_fmt_txt.c ****     }
 1440              		.loc 1 408 0
 1441 0462 0AEB0E08 		add	r8, r10, lr
 1442              	.LVL241:
 1443              	.LBB126:
 1444              	.LBB127:
 518:lvgl\src\lv_font/lv_font_fmt_txt.c ****         ret = get_bits(rle_in, rle_rdp, rle_bpp);
 1445              		.loc 1 518 0
 1446 0466 504B     		ldr	r3, .L253
 1447 0468 5B79     		ldrb	r3, [r3, #5]	@ zero_extendqisi2
 1448 046a 002B     		cmp	r3, #0
 1449 046c 4CD1     		bne	.L108
 519:lvgl\src\lv_font/lv_font_fmt_txt.c ****         if(rle_rdp != 0 && rle_prev_v == ret) {
 1450              		.loc 1 519 0
 1451 046e 4E4A     		ldr	r2, .L253
 1452 0470 1368     		ldr	r3, [r2]
 1453 0472 9468     		ldr	r4, [r2, #8]
 1454 0474 92F804C0 		ldrb	ip, [r2, #4]	@ zero_extendqisi2
 1455              	.LVL242:
 1456              	.LBB128:
 1457              	.LBB129:
 422:lvgl\src\lv_font/lv_font_fmt_txt.c ****         case 1:
 1458              		.loc 1 422 0
 1459 0478 0CF1FF32 		add	r2, ip, #-1
 1460 047c 072A     		cmp	r2, #7
 1461 047e 0DD8     		bhi	.L109
 1462 0480 DFE802F0 		tbb	[pc, r2]
 1463              	.L111:
 1464 0484 04       		.byte	(.L110-.L111)/2
 1465 0485 12       		.byte	(.L236-.L111)/2
 1466 0486 06       		.byte	(.L113-.L111)/2
 1467 0487 08       		.byte	(.L114-.L111)/2
 1468 0488 0C       		.byte	(.L109-.L111)/2
 1469 0489 0C       		.byte	(.L109-.L111)/2
 1470 048a 0C       		.byte	(.L109-.L111)/2
 1471 048b 0A       		.byte	(.L115-.L111)/2
 1472              		.p2align 1
 1473              	.L110:
ARM GAS  C:\Users\strap\AppData\Local\Temp\ccKJQbxb.s 			page 41


 424:lvgl\src\lv_font/lv_font_fmt_txt.c ****             break;
 1474              		.loc 1 424 0
 1475 048c 0120     		movs	r0, #1
 1476 048e 0CE0     		b	.L112
 1477              	.L113:
 1478              	.LVL243:
 430:lvgl\src\lv_font/lv_font_fmt_txt.c ****             break;
 1479              		.loc 1 430 0
 1480 0490 0720     		movs	r0, #7
 1481 0492 0AE0     		b	.L112
 1482              	.LVL244:
 1483              	.L114:
 433:lvgl\src\lv_font/lv_font_fmt_txt.c ****             break;
 1484              		.loc 1 433 0
 1485 0494 0F20     		movs	r0, #15
 1486 0496 08E0     		b	.L112
 1487              	.LVL245:
 1488              	.L115:
 436:lvgl\src\lv_font/lv_font_fmt_txt.c ****             break;
 1489              		.loc 1 436 0
 1490 0498 FF20     		movs	r0, #255
 1491 049a 06E0     		b	.L112
 1492              	.LVL246:
 1493              	.L109:
 439:lvgl\src\lv_font/lv_font_fmt_txt.c ****     }
 1494              		.loc 1 439 0
 1495 049c 0120     		movs	r0, #1
 1496 049e 00FA0CF0 		lsl	r0, r0, ip
 1497 04a2 0138     		subs	r0, r0, #1
 1498 04a4 C0B2     		uxtb	r0, r0
 1499              	.LVL247:
 1500 04a6 00E0     		b	.L112
 1501              	.LVL248:
 1502              	.L236:
 427:lvgl\src\lv_font/lv_font_fmt_txt.c ****             break;
 1503              		.loc 1 427 0
 1504 04a8 0320     		movs	r0, #3
 1505              	.L112:
 1506              	.LVL249:
 442:lvgl\src\lv_font/lv_font_fmt_txt.c ****     bit_pos = bit_pos & 0x7;
 1507              		.loc 1 442 0
 1508 04aa E108     		lsrs	r1, r4, #3
 1509              	.LVL250:
 443:lvgl\src\lv_font/lv_font_fmt_txt.c **** 
 1510              		.loc 1 443 0
 1511 04ac 04F00702 		and	r2, r4, #7
 1512              	.LVL251:
 445:lvgl\src\lv_font/lv_font_fmt_txt.c ****         uint16_t in16 = (in[byte_pos] << 8) + in[byte_pos + 1];
 1513              		.loc 1 445 0
 1514 04b0 02EB0C0B 		add	fp, r2, ip
 1515 04b4 BBF1070F 		cmp	fp, #7
 1516 04b8 0FD9     		bls	.L116
 1517              	.LBB130:
 446:lvgl\src\lv_font/lv_font_fmt_txt.c ****         return (in16 >> (16 - bit_pos - len)) & bit_mask;
 1518              		.loc 1 446 0
 1519 04ba 13F801B0 		ldrb	fp, [r3, r1]	@ zero_extendqisi2
 1520 04be 1944     		add	r1, r1, r3
ARM GAS  C:\Users\strap\AppData\Local\Temp\ccKJQbxb.s 			page 42


 1521              	.LVL252:
 1522 04c0 4B78     		ldrb	r3, [r1, #1]	@ zero_extendqisi2
 1523              	.LVL253:
 1524 04c2 03EB0B2B 		add	fp, r3, fp, lsl #8
 1525 04c6 1FFA8BFB 		uxth	fp, fp
 1526              	.LVL254:
 447:lvgl\src\lv_font/lv_font_fmt_txt.c ****     }
 1527              		.loc 1 447 0
 1528 04ca 5342     		negs	r3, r2
 1529 04cc CCEB0303 		rsb	r3, ip, r3
 1530 04d0 1033     		adds	r3, r3, #16
 1531 04d2 4BFA03F3 		asr	r3, fp, r3
 1532 04d6 0340     		ands	r3, r3, r0
 1533 04d8 07E0     		b	.L117
 1534              	.LVL255:
 1535              	.L116:
 1536              	.LBE130:
 450:lvgl\src\lv_font/lv_font_fmt_txt.c ****     }
 1537              		.loc 1 450 0
 1538 04da 595C     		ldrb	r1, [r3, r1]	@ zero_extendqisi2
 1539              	.LVL256:
 1540 04dc 5242     		negs	r2, r2
 1541              	.LVL257:
 1542 04de CCEB0202 		rsb	r2, ip, r2
 1543              	.LVL258:
 1544 04e2 0832     		adds	r2, r2, #8
 1545 04e4 41FA02F3 		asr	r3, r1, r2
 1546              	.LVL259:
 1547 04e8 0340     		ands	r3, r3, r0
 1548              	.L117:
 1549              	.LVL260:
 1550              	.LBE129:
 1551              	.LBE128:
 520:lvgl\src\lv_font/lv_font_fmt_txt.c ****             rle_cnt = 0;
 1552              		.loc 1 520 0
 1553 04ea 44B1     		cbz	r4, .L118
 1554 04ec 2E4A     		ldr	r2, .L253
 1555 04ee 127B     		ldrb	r2, [r2, #12]	@ zero_extendqisi2
 1556 04f0 9A42     		cmp	r2, r3
 1557 04f2 04D1     		bne	.L118
 521:lvgl\src\lv_font/lv_font_fmt_txt.c ****             rle_state = RLE_STATE_REPEATE;
 1558              		.loc 1 521 0
 1559 04f4 2C4A     		ldr	r2, .L253
 1560 04f6 0021     		movs	r1, #0
 1561 04f8 5173     		strb	r1, [r2, #13]
 522:lvgl\src\lv_font/lv_font_fmt_txt.c ****         }
 1562              		.loc 1 522 0
 1563 04fa 0121     		movs	r1, #1
 1564 04fc 5171     		strb	r1, [r2, #5]
 1565              	.L118:
 525:lvgl\src\lv_font/lv_font_fmt_txt.c ****         rle_rdp += rle_bpp;
 1566              		.loc 1 525 0
 1567 04fe 2A4A     		ldr	r2, .L253
 1568 0500 1373     		strb	r3, [r2, #12]
 526:lvgl\src\lv_font/lv_font_fmt_txt.c ****     }
 1569              		.loc 1 526 0
 1570 0502 6444     		add	r4, r4, ip
ARM GAS  C:\Users\strap\AppData\Local\Temp\ccKJQbxb.s 			page 43


 1571 0504 9460     		str	r4, [r2, #8]
 1572 0506 30E1     		b	.L119
 1573              	.LVL261:
 1574              	.L108:
 528:lvgl\src\lv_font/lv_font_fmt_txt.c ****         v = get_bits(rle_in, rle_rdp, 1);
 1575              		.loc 1 528 0
 1576 0508 012B     		cmp	r3, #1
 1577 050a 40F0D880 		bne	.L120
 529:lvgl\src\lv_font/lv_font_fmt_txt.c ****         rle_cnt++;
 1578              		.loc 1 529 0
 1579 050e 264B     		ldr	r3, .L253
 1580 0510 1868     		ldr	r0, [r3]
 1581 0512 9A68     		ldr	r2, [r3, #8]
 1582              	.LVL262:
 1583              	.LBB131:
 1584              	.LBB132:
 442:lvgl\src\lv_font/lv_font_fmt_txt.c ****     bit_pos = bit_pos & 0x7;
 1585              		.loc 1 442 0
 1586 0514 D308     		lsrs	r3, r2, #3
 1587              	.LVL263:
 443:lvgl\src\lv_font/lv_font_fmt_txt.c **** 
 1588              		.loc 1 443 0
 1589 0516 02F00701 		and	r1, r2, #7
 1590              	.LVL264:
 445:lvgl\src\lv_font/lv_font_fmt_txt.c ****         uint16_t in16 = (in[byte_pos] << 8) + in[byte_pos + 1];
 1591              		.loc 1 445 0
 1592 051a 4C1C     		adds	r4, r1, #1
 1593 051c 072C     		cmp	r4, #7
 1594 051e 0BD9     		bls	.L121
 1595              	.LBB133:
 446:lvgl\src\lv_font/lv_font_fmt_txt.c ****         return (in16 >> (16 - bit_pos - len)) & bit_mask;
 1596              		.loc 1 446 0
 1597 0520 C45C     		ldrb	r4, [r0, r3]	@ zero_extendqisi2
 1598 0522 0344     		add	r3, r3, r0
 1599              	.LVL265:
 1600 0524 5B78     		ldrb	r3, [r3, #1]	@ zero_extendqisi2
 1601 0526 03EB0423 		add	r3, r3, r4, lsl #8
 1602 052a 9BB2     		uxth	r3, r3
 1603              	.LVL266:
 447:lvgl\src\lv_font/lv_font_fmt_txt.c ****     }
 1604              		.loc 1 447 0
 1605 052c C1F10F01 		rsb	r1, r1, #15
 1606              	.LVL267:
 1607 0530 0B41     		asrs	r3, r3, r1
 1608              	.LVL268:
 1609 0532 03F00103 		and	r3, r3, #1
 1610 0536 06E0     		b	.L122
 1611              	.LVL269:
 1612              	.L121:
 1613              	.LBE133:
 450:lvgl\src\lv_font/lv_font_fmt_txt.c ****     }
 1614              		.loc 1 450 0
 1615 0538 C35C     		ldrb	r3, [r0, r3]	@ zero_extendqisi2
 1616              	.LVL270:
 1617 053a C1F10701 		rsb	r1, r1, #7
 1618              	.LVL271:
 1619 053e 43FA01F1 		asr	r1, r3, r1
ARM GAS  C:\Users\strap\AppData\Local\Temp\ccKJQbxb.s 			page 44


 1620 0542 01F00103 		and	r3, r1, #1
 1621              	.LVL272:
 1622              	.L122:
 1623              	.LBE132:
 1624              	.LBE131:
 530:lvgl\src\lv_font/lv_font_fmt_txt.c ****         rle_rdp += 1;
 1625              		.loc 1 530 0
 1626 0546 184C     		ldr	r4, .L253
 1627 0548 617B     		ldrb	r1, [r4, #13]	@ zero_extendqisi2
 1628 054a 0131     		adds	r1, r1, #1
 1629 054c C9B2     		uxtb	r1, r1
 1630 054e 6173     		strb	r1, [r4, #13]
 531:lvgl\src\lv_font/lv_font_fmt_txt.c ****         if(v == 1) {
 1631              		.loc 1 531 0
 1632 0550 0132     		adds	r2, r2, #1
 1633 0552 A260     		str	r2, [r4, #8]
 532:lvgl\src\lv_font/lv_font_fmt_txt.c ****             ret = rle_prev_v;
 1634              		.loc 1 532 0
 1635 0554 002B     		cmp	r3, #0
 1636 0556 6ED0     		beq	.L123
 533:lvgl\src\lv_font/lv_font_fmt_txt.c ****             if(rle_cnt == 11) {
 1637              		.loc 1 533 0
 1638 0558 237B     		ldrb	r3, [r4, #12]	@ zero_extendqisi2
 1639              	.LVL273:
 534:lvgl\src\lv_font/lv_font_fmt_txt.c ****                 rle_cnt = get_bits(rle_in, rle_rdp, 6);
 1640              		.loc 1 534 0
 1641 055a 0B29     		cmp	r1, #11
 1642 055c 40F00581 		bne	.L119
 1643              	.LVL274:
 1644              	.LBB134:
 1645              	.LBB135:
 442:lvgl\src\lv_font/lv_font_fmt_txt.c ****     bit_pos = bit_pos & 0x7;
 1646              		.loc 1 442 0
 1647 0560 D108     		lsrs	r1, r2, #3
 1648              	.LVL275:
 443:lvgl\src\lv_font/lv_font_fmt_txt.c **** 
 1649              		.loc 1 443 0
 1650 0562 02F00704 		and	r4, r2, #7
 1651              	.LVL276:
 445:lvgl\src\lv_font/lv_font_fmt_txt.c ****         uint16_t in16 = (in[byte_pos] << 8) + in[byte_pos + 1];
 1652              		.loc 1 445 0
 1653 0566 04F1060C 		add	ip, r4, #6
 1654 056a BCF1070F 		cmp	ip, #7
 1655 056e 0CD9     		bls	.L124
 1656              	.LBB136:
 446:lvgl\src\lv_font/lv_font_fmt_txt.c ****         return (in16 >> (16 - bit_pos - len)) & bit_mask;
 1657              		.loc 1 446 0
 1658 0570 10F801C0 		ldrb	ip, [r0, r1]	@ zero_extendqisi2
 1659 0574 0144     		add	r1, r1, r0
 1660              	.LVL277:
 1661 0576 4978     		ldrb	r1, [r1, #1]	@ zero_extendqisi2
 1662 0578 01EB0C21 		add	r1, r1, ip, lsl #8
 1663 057c 89B2     		uxth	r1, r1
 1664              	.LVL278:
 447:lvgl\src\lv_font/lv_font_fmt_txt.c ****     }
 1665              		.loc 1 447 0
 1666 057e C4F10A04 		rsb	r4, r4, #10
ARM GAS  C:\Users\strap\AppData\Local\Temp\ccKJQbxb.s 			page 45


 1667              	.LVL279:
 1668 0582 2141     		asrs	r1, r1, r4
 1669              	.LVL280:
 1670 0584 01F03F01 		and	r1, r1, #63
 1671 0588 05E0     		b	.L125
 1672              	.LVL281:
 1673              	.L124:
 1674              	.LBE136:
 450:lvgl\src\lv_font/lv_font_fmt_txt.c ****     }
 1675              		.loc 1 450 0
 1676 058a 415C     		ldrb	r1, [r0, r1]	@ zero_extendqisi2
 1677              	.LVL282:
 1678 058c C4F10204 		rsb	r4, r4, #2
 1679              	.LVL283:
 1680 0590 2141     		asrs	r1, r1, r4
 1681 0592 01F03F01 		and	r1, r1, #63
 1682              	.LVL284:
 1683              	.L125:
 1684              	.LBE135:
 1685              	.LBE134:
 535:lvgl\src\lv_font/lv_font_fmt_txt.c ****                 rle_rdp += 6;
 1686              		.loc 1 535 0
 1687 0596 044C     		ldr	r4, .L253
 1688 0598 6173     		strb	r1, [r4, #13]
 536:lvgl\src\lv_font/lv_font_fmt_txt.c ****                 if(rle_cnt != 0) {
 1689              		.loc 1 536 0
 1690 059a 0632     		adds	r2, r2, #6
 1691 059c A260     		str	r2, [r4, #8]
 537:lvgl\src\lv_font/lv_font_fmt_txt.c ****                     rle_state = RLE_STATE_COUNTER;
 1692              		.loc 1 537 0
 1693 059e 29B1     		cbz	r1, .L126
 538:lvgl\src\lv_font/lv_font_fmt_txt.c ****                 }
 1694              		.loc 1 538 0
 1695 05a0 0221     		movs	r1, #2
 1696 05a2 6171     		strb	r1, [r4, #5]
 1697 05a4 E1E0     		b	.L119
 1698              	.L254:
 1699 05a6 00BF     		.align	2
 1700              	.L253:
 1701 05a8 00000000 		.word	.LANCHOR0
 1702              	.L126:
 541:lvgl\src\lv_font/lv_font_fmt_txt.c ****                     rle_prev_v = ret;
 1703              		.loc 1 541 0
 1704 05ac AD4B     		ldr	r3, .L255
 1705              	.LVL285:
 1706 05ae 1979     		ldrb	r1, [r3, #4]	@ zero_extendqisi2
 1707              	.LVL286:
 1708              	.LBB137:
 1709              	.LBB138:
 422:lvgl\src\lv_font/lv_font_fmt_txt.c ****         case 1:
 1710              		.loc 1 422 0
 1711 05b0 4B1E     		subs	r3, r1, #1
 1712 05b2 072B     		cmp	r3, #7
 1713 05b4 11D8     		bhi	.L127
 1714 05b6 DFE803F0 		tbb	[pc, r3]
 1715              	.L129:
 1716 05ba 04       		.byte	(.L128-.L129)/2
ARM GAS  C:\Users\strap\AppData\Local\Temp\ccKJQbxb.s 			page 46


 1717 05bb 16       		.byte	(.L237-.L129)/2
 1718 05bc 07       		.byte	(.L131-.L129)/2
 1719 05bd 0A       		.byte	(.L132-.L129)/2
 1720 05be 10       		.byte	(.L127-.L129)/2
 1721 05bf 10       		.byte	(.L127-.L129)/2
 1722 05c0 10       		.byte	(.L127-.L129)/2
 1723 05c1 0D       		.byte	(.L133-.L129)/2
 1724              		.p2align 1
 1725              	.L128:
 424:lvgl\src\lv_font/lv_font_fmt_txt.c ****             break;
 1726              		.loc 1 424 0
 1727 05c2 4FF0010B 		mov	fp, #1
 1728 05c6 10E0     		b	.L130
 1729              	.L131:
 1730              	.LVL287:
 430:lvgl\src\lv_font/lv_font_fmt_txt.c ****             break;
 1731              		.loc 1 430 0
 1732 05c8 4FF0070B 		mov	fp, #7
 1733 05cc 0DE0     		b	.L130
 1734              	.LVL288:
 1735              	.L132:
 433:lvgl\src\lv_font/lv_font_fmt_txt.c ****             break;
 1736              		.loc 1 433 0
 1737 05ce 4FF00F0B 		mov	fp, #15
 1738 05d2 0AE0     		b	.L130
 1739              	.LVL289:
 1740              	.L133:
 436:lvgl\src\lv_font/lv_font_fmt_txt.c ****             break;
 1741              		.loc 1 436 0
 1742 05d4 4FF0FF0B 		mov	fp, #255
 1743 05d8 07E0     		b	.L130
 1744              	.LVL290:
 1745              	.L127:
 439:lvgl\src\lv_font/lv_font_fmt_txt.c ****     }
 1746              		.loc 1 439 0
 1747 05da 0123     		movs	r3, #1
 1748 05dc 8B40     		lsls	r3, r3, r1
 1749 05de 013B     		subs	r3, r3, #1
 1750 05e0 5FFA83FB 		uxtb	fp, r3
 1751              	.LVL291:
 1752 05e4 01E0     		b	.L130
 1753              	.LVL292:
 1754              	.L237:
 427:lvgl\src\lv_font/lv_font_fmt_txt.c ****             break;
 1755              		.loc 1 427 0
 1756 05e6 4FF0030B 		mov	fp, #3
 1757              	.L130:
 1758              	.LVL293:
 442:lvgl\src\lv_font/lv_font_fmt_txt.c ****     bit_pos = bit_pos & 0x7;
 1759              		.loc 1 442 0
 1760 05ea D408     		lsrs	r4, r2, #3
 1761              	.LVL294:
 443:lvgl\src\lv_font/lv_font_fmt_txt.c **** 
 1762              		.loc 1 443 0
 1763 05ec 02F00703 		and	r3, r2, #7
 1764              	.LVL295:
 445:lvgl\src\lv_font/lv_font_fmt_txt.c ****         uint16_t in16 = (in[byte_pos] << 8) + in[byte_pos + 1];
ARM GAS  C:\Users\strap\AppData\Local\Temp\ccKJQbxb.s 			page 47


 1765              		.loc 1 445 0
 1766 05f0 03EB010C 		add	ip, r3, r1
 1767 05f4 BCF1070F 		cmp	ip, #7
 1768 05f8 0ED9     		bls	.L134
 1769              	.LBB139:
 446:lvgl\src\lv_font/lv_font_fmt_txt.c ****         return (in16 >> (16 - bit_pos - len)) & bit_mask;
 1770              		.loc 1 446 0
 1771 05fa 10F804C0 		ldrb	ip, [r0, r4]	@ zero_extendqisi2
 1772 05fe 2044     		add	r0, r0, r4
 1773              	.LVL296:
 1774 0600 4078     		ldrb	r0, [r0, #1]	@ zero_extendqisi2
 1775 0602 00EB0C20 		add	r0, r0, ip, lsl #8
 1776 0606 80B2     		uxth	r0, r0
 1777              	.LVL297:
 447:lvgl\src\lv_font/lv_font_fmt_txt.c ****     }
 1778              		.loc 1 447 0
 1779 0608 5B42     		negs	r3, r3
 1780              	.LVL298:
 1781 060a 5B1A     		subs	r3, r3, r1
 1782              	.LVL299:
 1783 060c 1033     		adds	r3, r3, #16
 1784 060e 40FA03F3 		asr	r3, r0, r3
 1785 0612 03EA0B03 		and	r3, r3, fp
 1786 0616 07E0     		b	.L135
 1787              	.LVL300:
 1788              	.L134:
 1789              	.LBE139:
 450:lvgl\src\lv_font/lv_font_fmt_txt.c ****     }
 1790              		.loc 1 450 0
 1791 0618 005D     		ldrb	r0, [r0, r4]	@ zero_extendqisi2
 1792              	.LVL301:
 1793 061a 5B42     		negs	r3, r3
 1794              	.LVL302:
 1795 061c 5B1A     		subs	r3, r3, r1
 1796              	.LVL303:
 1797 061e 0833     		adds	r3, r3, #8
 1798 0620 40FA03F3 		asr	r3, r0, r3
 1799 0624 03EA0B03 		and	r3, r3, fp
 1800              	.L135:
 1801              	.LVL304:
 1802              	.LBE138:
 1803              	.LBE137:
 542:lvgl\src\lv_font/lv_font_fmt_txt.c ****                     rle_rdp += rle_bpp;
 1804              		.loc 1 542 0
 1805 0628 8E48     		ldr	r0, .L255
 1806 062a 0373     		strb	r3, [r0, #12]
 543:lvgl\src\lv_font/lv_font_fmt_txt.c ****                     rle_state = RLE_STATE_SINGLE;
 1807              		.loc 1 543 0
 1808 062c 0A44     		add	r2, r2, r1
 1809 062e 8260     		str	r2, [r0, #8]
 544:lvgl\src\lv_font/lv_font_fmt_txt.c ****                 }
 1810              		.loc 1 544 0
 1811 0630 0022     		movs	r2, #0
 1812 0632 4271     		strb	r2, [r0, #5]
 1813 0634 99E0     		b	.L119
 1814              	.LVL305:
 1815              	.L123:
ARM GAS  C:\Users\strap\AppData\Local\Temp\ccKJQbxb.s 			page 48


 549:lvgl\src\lv_font/lv_font_fmt_txt.c ****             rle_prev_v = ret;
 1816              		.loc 1 549 0
 1817 0636 8B4B     		ldr	r3, .L255
 1818 0638 1C79     		ldrb	r4, [r3, #4]	@ zero_extendqisi2
 1819              	.LVL306:
 1820              	.LBB140:
 1821              	.LBB141:
 422:lvgl\src\lv_font/lv_font_fmt_txt.c ****         case 1:
 1822              		.loc 1 422 0
 1823 063a 631E     		subs	r3, r4, #1
 1824 063c 072B     		cmp	r3, #7
 1825 063e 11D8     		bhi	.L136
 1826 0640 DFE803F0 		tbb	[pc, r3]
 1827              	.L138:
 1828 0644 04       		.byte	(.L137-.L138)/2
 1829 0645 16       		.byte	(.L238-.L138)/2
 1830 0646 07       		.byte	(.L140-.L138)/2
 1831 0647 0A       		.byte	(.L141-.L138)/2
 1832 0648 10       		.byte	(.L136-.L138)/2
 1833 0649 10       		.byte	(.L136-.L138)/2
 1834 064a 10       		.byte	(.L136-.L138)/2
 1835 064b 0D       		.byte	(.L142-.L138)/2
 1836              		.p2align 1
 1837              	.L137:
 424:lvgl\src\lv_font/lv_font_fmt_txt.c ****             break;
 1838              		.loc 1 424 0
 1839 064c 4FF0010B 		mov	fp, #1
 1840 0650 10E0     		b	.L139
 1841              	.L140:
 1842              	.LVL307:
 430:lvgl\src\lv_font/lv_font_fmt_txt.c ****             break;
 1843              		.loc 1 430 0
 1844 0652 4FF0070B 		mov	fp, #7
 1845 0656 0DE0     		b	.L139
 1846              	.LVL308:
 1847              	.L141:
 433:lvgl\src\lv_font/lv_font_fmt_txt.c ****             break;
 1848              		.loc 1 433 0
 1849 0658 4FF00F0B 		mov	fp, #15
 1850 065c 0AE0     		b	.L139
 1851              	.LVL309:
 1852              	.L142:
 436:lvgl\src\lv_font/lv_font_fmt_txt.c ****             break;
 1853              		.loc 1 436 0
 1854 065e 4FF0FF0B 		mov	fp, #255
 1855 0662 07E0     		b	.L139
 1856              	.LVL310:
 1857              	.L136:
 439:lvgl\src\lv_font/lv_font_fmt_txt.c ****     }
 1858              		.loc 1 439 0
 1859 0664 0123     		movs	r3, #1
 1860 0666 A340     		lsls	r3, r3, r4
 1861 0668 013B     		subs	r3, r3, #1
 1862 066a 5FFA83FB 		uxtb	fp, r3
 1863              	.LVL311:
 1864 066e 01E0     		b	.L139
 1865              	.LVL312:
ARM GAS  C:\Users\strap\AppData\Local\Temp\ccKJQbxb.s 			page 49


 1866              	.L238:
 427:lvgl\src\lv_font/lv_font_fmt_txt.c ****             break;
 1867              		.loc 1 427 0
 1868 0670 4FF0030B 		mov	fp, #3
 1869              	.L139:
 1870              	.LVL313:
 442:lvgl\src\lv_font/lv_font_fmt_txt.c ****     bit_pos = bit_pos & 0x7;
 1871              		.loc 1 442 0
 1872 0674 4FEAD20C 		lsr	ip, r2, #3
 1873              	.LVL314:
 443:lvgl\src\lv_font/lv_font_fmt_txt.c **** 
 1874              		.loc 1 443 0
 1875 0678 02F00701 		and	r1, r2, #7
 1876              	.LVL315:
 445:lvgl\src\lv_font/lv_font_fmt_txt.c ****         uint16_t in16 = (in[byte_pos] << 8) + in[byte_pos + 1];
 1877              		.loc 1 445 0
 1878 067c 0B19     		adds	r3, r1, r4
 1879 067e 072B     		cmp	r3, #7
 1880 0680 0DD9     		bls	.L143
 1881              	.LBB142:
 446:lvgl\src\lv_font/lv_font_fmt_txt.c ****         return (in16 >> (16 - bit_pos - len)) & bit_mask;
 1882              		.loc 1 446 0
 1883 0682 10F80C30 		ldrb	r3, [r0, ip]	@ zero_extendqisi2
 1884 0686 6044     		add	r0, r0, ip
 1885              	.LVL316:
 1886 0688 4078     		ldrb	r0, [r0, #1]	@ zero_extendqisi2
 1887 068a 00EB0323 		add	r3, r0, r3, lsl #8
 1888 068e 9BB2     		uxth	r3, r3
 1889              	.LVL317:
 447:lvgl\src\lv_font/lv_font_fmt_txt.c ****     }
 1890              		.loc 1 447 0
 1891 0690 4942     		negs	r1, r1
 1892              	.LVL318:
 1893 0692 091B     		subs	r1, r1, r4
 1894              	.LVL319:
 1895 0694 1031     		adds	r1, r1, #16
 1896 0696 0B41     		asrs	r3, r3, r1
 1897              	.LVL320:
 1898 0698 03EA0B03 		and	r3, r3, fp
 1899 069c 08E0     		b	.L144
 1900              	.LVL321:
 1901              	.L143:
 1902              	.LBE142:
 450:lvgl\src\lv_font/lv_font_fmt_txt.c ****     }
 1903              		.loc 1 450 0
 1904 069e 10F80C00 		ldrb	r0, [r0, ip]	@ zero_extendqisi2
 1905              	.LVL322:
 1906 06a2 4B42     		negs	r3, r1
 1907 06a4 1B1B     		subs	r3, r3, r4
 1908 06a6 0833     		adds	r3, r3, #8
 1909 06a8 40FA03F3 		asr	r3, r0, r3
 1910 06ac 03EA0B03 		and	r3, r3, fp
 1911              	.LVL323:
 1912              	.L144:
 1913              	.LBE141:
 1914              	.LBE140:
 550:lvgl\src\lv_font/lv_font_fmt_txt.c ****             rle_rdp += rle_bpp;
ARM GAS  C:\Users\strap\AppData\Local\Temp\ccKJQbxb.s 			page 50


 1915              		.loc 1 550 0
 1916 06b0 6C49     		ldr	r1, .L255
 1917 06b2 0B73     		strb	r3, [r1, #12]
 551:lvgl\src\lv_font/lv_font_fmt_txt.c ****             rle_state = RLE_STATE_SINGLE;
 1918              		.loc 1 551 0
 1919 06b4 2244     		add	r2, r2, r4
 1920 06b6 8A60     		str	r2, [r1, #8]
 552:lvgl\src\lv_font/lv_font_fmt_txt.c ****         }
 1921              		.loc 1 552 0
 1922 06b8 0022     		movs	r2, #0
 1923 06ba 4A71     		strb	r2, [r1, #5]
 1924 06bc 55E0     		b	.L119
 1925              	.LVL324:
 1926              	.L120:
 557:lvgl\src\lv_font/lv_font_fmt_txt.c ****         ret = rle_prev_v;
 1927              		.loc 1 557 0
 1928 06be 022B     		cmp	r3, #2
 1929 06c0 52D1     		bne	.L239
 558:lvgl\src\lv_font/lv_font_fmt_txt.c ****         rle_cnt--;
 1930              		.loc 1 558 0
 1931 06c2 6849     		ldr	r1, .L255
 1932 06c4 0B7B     		ldrb	r3, [r1, #12]	@ zero_extendqisi2
 1933              	.LVL325:
 559:lvgl\src\lv_font/lv_font_fmt_txt.c ****         if(rle_cnt == 0) {
 1934              		.loc 1 559 0
 1935 06c6 4A7B     		ldrb	r2, [r1, #13]	@ zero_extendqisi2
 1936 06c8 013A     		subs	r2, r2, #1
 1937 06ca D2B2     		uxtb	r2, r2
 1938 06cc 4A73     		strb	r2, [r1, #13]
 560:lvgl\src\lv_font/lv_font_fmt_txt.c ****             ret = get_bits(rle_in, rle_rdp, rle_bpp);
 1939              		.loc 1 560 0
 1940 06ce 002A     		cmp	r2, #0
 1941 06d0 4BD1     		bne	.L119
 561:lvgl\src\lv_font/lv_font_fmt_txt.c ****             rle_prev_v = ret;
 1942              		.loc 1 561 0
 1943 06d2 0A46     		mov	r2, r1
 1944 06d4 0B68     		ldr	r3, [r1]
 1945              	.LVL326:
 1946 06d6 8968     		ldr	r1, [r1, #8]
 1947 06d8 1079     		ldrb	r0, [r2, #4]	@ zero_extendqisi2
 1948              	.LVL327:
 1949              	.LBB143:
 1950              	.LBB144:
 422:lvgl\src\lv_font/lv_font_fmt_txt.c ****         case 1:
 1951              		.loc 1 422 0
 1952 06da 421E     		subs	r2, r0, #1
 1953 06dc 072A     		cmp	r2, #7
 1954 06de 11D8     		bhi	.L145
 1955 06e0 DFE802F0 		tbb	[pc, r2]
 1956              	.L147:
 1957 06e4 04       		.byte	(.L146-.L147)/2
 1958 06e5 19       		.byte	(.L240-.L147)/2
 1959 06e6 07       		.byte	(.L149-.L147)/2
 1960 06e7 0A       		.byte	(.L150-.L147)/2
 1961 06e8 10       		.byte	(.L145-.L147)/2
 1962 06e9 10       		.byte	(.L145-.L147)/2
 1963 06ea 10       		.byte	(.L145-.L147)/2
ARM GAS  C:\Users\strap\AppData\Local\Temp\ccKJQbxb.s 			page 51


 1964 06eb 0D       		.byte	(.L151-.L147)/2
 1965              		.p2align 1
 1966              	.L146:
 424:lvgl\src\lv_font/lv_font_fmt_txt.c ****             break;
 1967              		.loc 1 424 0
 1968 06ec 4FF0010C 		mov	ip, #1
 1969 06f0 13E0     		b	.L148
 1970              	.L149:
 1971              	.LVL328:
 430:lvgl\src\lv_font/lv_font_fmt_txt.c ****             break;
 1972              		.loc 1 430 0
 1973 06f2 4FF0070C 		mov	ip, #7
 1974 06f6 10E0     		b	.L148
 1975              	.LVL329:
 1976              	.L150:
 433:lvgl\src\lv_font/lv_font_fmt_txt.c ****             break;
 1977              		.loc 1 433 0
 1978 06f8 4FF00F0C 		mov	ip, #15
 1979 06fc 0DE0     		b	.L148
 1980              	.LVL330:
 1981              	.L151:
 436:lvgl\src\lv_font/lv_font_fmt_txt.c ****             break;
 1982              		.loc 1 436 0
 1983 06fe 4FF0FF0C 		mov	ip, #255
 1984 0702 0AE0     		b	.L148
 1985              	.LVL331:
 1986              	.L145:
 439:lvgl\src\lv_font/lv_font_fmt_txt.c ****     }
 1987              		.loc 1 439 0
 1988 0704 4FF0010C 		mov	ip, #1
 1989 0708 0CFA00FC 		lsl	ip, ip, r0
 1990 070c 0CF1FF3C 		add	ip, ip, #-1
 1991 0710 5FFA8CFC 		uxtb	ip, ip
 1992              	.LVL332:
 1993 0714 01E0     		b	.L148
 1994              	.LVL333:
 1995              	.L240:
 427:lvgl\src\lv_font/lv_font_fmt_txt.c ****             break;
 1996              		.loc 1 427 0
 1997 0716 4FF0030C 		mov	ip, #3
 1998              	.L148:
 1999              	.LVL334:
 442:lvgl\src\lv_font/lv_font_fmt_txt.c ****     bit_pos = bit_pos & 0x7;
 2000              		.loc 1 442 0
 2001 071a CC08     		lsrs	r4, r1, #3
 2002              	.LVL335:
 443:lvgl\src\lv_font/lv_font_fmt_txt.c **** 
 2003              		.loc 1 443 0
 2004 071c 01F00702 		and	r2, r1, #7
 2005              	.LVL336:
 445:lvgl\src\lv_font/lv_font_fmt_txt.c ****         uint16_t in16 = (in[byte_pos] << 8) + in[byte_pos + 1];
 2006              		.loc 1 445 0
 2007 0720 02EB000B 		add	fp, r2, r0
 2008 0724 BBF1070F 		cmp	fp, #7
 2009 0728 0FD9     		bls	.L152
 2010              	.LBB145:
 446:lvgl\src\lv_font/lv_font_fmt_txt.c ****         return (in16 >> (16 - bit_pos - len)) & bit_mask;
ARM GAS  C:\Users\strap\AppData\Local\Temp\ccKJQbxb.s 			page 52


 2011              		.loc 1 446 0
 2012 072a 13F804B0 		ldrb	fp, [r3, r4]	@ zero_extendqisi2
 2013 072e 1C44     		add	r4, r4, r3
 2014              	.LVL337:
 2015 0730 6378     		ldrb	r3, [r4, #1]	@ zero_extendqisi2
 2016              	.LVL338:
 2017 0732 03EB0B2B 		add	fp, r3, fp, lsl #8
 2018 0736 1FFA8BFB 		uxth	fp, fp
 2019              	.LVL339:
 447:lvgl\src\lv_font/lv_font_fmt_txt.c ****     }
 2020              		.loc 1 447 0
 2021 073a 5342     		negs	r3, r2
 2022 073c 1B1A     		subs	r3, r3, r0
 2023 073e 1033     		adds	r3, r3, #16
 2024 0740 4BFA03F3 		asr	r3, fp, r3
 2025 0744 03EA0C03 		and	r3, r3, ip
 2026 0748 07E0     		b	.L153
 2027              	.LVL340:
 2028              	.L152:
 2029              	.LBE145:
 450:lvgl\src\lv_font/lv_font_fmt_txt.c ****     }
 2030              		.loc 1 450 0
 2031 074a 1C5D     		ldrb	r4, [r3, r4]	@ zero_extendqisi2
 2032              	.LVL341:
 2033 074c 5342     		negs	r3, r2
 2034              	.LVL342:
 2035 074e 1B1A     		subs	r3, r3, r0
 2036 0750 0833     		adds	r3, r3, #8
 2037 0752 44FA03F3 		asr	r3, r4, r3
 2038 0756 03EA0C03 		and	r3, r3, ip
 2039              	.L153:
 2040              	.LVL343:
 2041              	.LBE144:
 2042              	.LBE143:
 562:lvgl\src\lv_font/lv_font_fmt_txt.c ****             rle_rdp += rle_bpp;
 2043              		.loc 1 562 0
 2044 075a 424A     		ldr	r2, .L255
 2045 075c 1373     		strb	r3, [r2, #12]
 563:lvgl\src\lv_font/lv_font_fmt_txt.c ****             rle_state = RLE_STATE_SINGLE;
 2046              		.loc 1 563 0
 2047 075e 0144     		add	r1, r1, r0
 2048 0760 9160     		str	r1, [r2, #8]
 564:lvgl\src\lv_font/lv_font_fmt_txt.c ****         }
 2049              		.loc 1 564 0
 2050 0762 0021     		movs	r1, #0
 2051 0764 5171     		strb	r1, [r2, #5]
 2052 0766 00E0     		b	.L119
 2053              	.LVL344:
 2054              	.L239:
 516:lvgl\src\lv_font/lv_font_fmt_txt.c **** 
 2055              		.loc 1 516 0
 2056 0768 0023     		movs	r3, #0
 2057              	.LVL345:
 2058              	.L119:
 2059              	.LBE127:
 2060              	.LBE126:
 408:lvgl\src\lv_font/lv_font_fmt_txt.c ****     }
ARM GAS  C:\Users\strap\AppData\Local\Temp\ccKJQbxb.s 			page 53


 2061              		.loc 1 408 0
 2062 076a 88F80030 		strb	r3, [r8]
 407:lvgl\src\lv_font/lv_font_fmt_txt.c ****         out[i] = rle_next();
 2063              		.loc 1 407 0
 2064 076e 0EF1010E 		add	lr, lr, #1
 2065              	.LVL346:
 2066 0772 0FFA8EFE 		sxth	lr, lr
 2067              	.LVL347:
 2068 0776 05E0     		b	.L106
 2069              	.LVL348:
 2070              	.L235:
 2071              	.LBE125:
 2072              	.LBE124:
 2073 0778 4FF0000E 		mov	lr, #0
 2074 077c 0590     		str	r0, [sp, #20]
 2075 077e DDF80CA0 		ldr	r10, [sp, #12]
 2076 0782 A146     		mov	r9, r4
 2077              	.LVL349:
 2078              	.L106:
 2079              	.LBB147:
 2080              	.LBB146:
 2081 0784 F145     		cmp	r9, lr
 2082 0786 3FF76CAE 		bgt	.L154
 2083 078a 0598     		ldr	r0, [sp, #20]
 2084 078c 4C46     		mov	r4, r9
 2085 078e 4FF0000C 		mov	ip, #0
 2086 0792 DDF80890 		ldr	r9, [sp, #8]
 2087 0796 DDF80CA0 		ldr	r10, [sp, #12]
 2088 079a 48E0     		b	.L155
 2089              	.LVL350:
 2090              	.L165:
 2091              	.LBE146:
 2092              	.LBE147:
 380:lvgl\src\lv_font/lv_font_fmt_txt.c ****                 bits_write(out, wrp, line_buf1[x], bpp);
 2093              		.loc 1 380 0 discriminator 3
 2094 079c 1AF80C10 		ldrb	r1, [r10, ip]	@ zero_extendqisi2
 2095 07a0 15F80C30 		ldrb	r3, [r5, ip]	@ zero_extendqisi2
 2096 07a4 5940     		eors	r1, r1, r3
 2097 07a6 05F80C10 		strb	r1, [r5, ip]
 2098              	.LVL351:
 2099              	.LBB148:
 2100              	.LBB149:
 464:lvgl\src\lv_font/lv_font_fmt_txt.c ****         len = 4;
 2101              		.loc 1 464 0 discriminator 3
 2102 07aa 032F     		cmp	r7, #3
 2103 07ac 1DD1     		bne	.L241
 2104              	.LVL352:
 466:lvgl\src\lv_font/lv_font_fmt_txt.c ****             case 0:
 2105              		.loc 1 466 0
 2106 07ae 4B1E     		subs	r3, r1, #1
 2107 07b0 062B     		cmp	r3, #6
 2108 07b2 1CD8     		bhi	.L242
 2109 07b4 DFE803F0 		tbb	[pc, r3]
 2110              	.L158:
 2111 07b8 04       		.byte	(.L157-.L158)/2
 2112 07b9 07       		.byte	(.L159-.L158)/2
 2113 07ba 0A       		.byte	(.L160-.L158)/2
ARM GAS  C:\Users\strap\AppData\Local\Temp\ccKJQbxb.s 			page 54


 2114 07bb 0D       		.byte	(.L161-.L158)/2
 2115 07bc 10       		.byte	(.L162-.L158)/2
 2116 07bd 13       		.byte	(.L163-.L158)/2
 2117 07be 16       		.byte	(.L164-.L158)/2
 2118 07bf 00       		.p2align 1
 2119              	.L157:
 2120              	.LVL353:
 465:lvgl\src\lv_font/lv_font_fmt_txt.c ****         switch(val) {
 2121              		.loc 1 465 0
 2122 07c0 0422     		movs	r2, #4
 471:lvgl\src\lv_font/lv_font_fmt_txt.c ****                 break;
 2123              		.loc 1 471 0
 2124 07c2 0221     		movs	r1, #2
 2125 07c4 14E0     		b	.L156
 2126              	.LVL354:
 2127              	.L159:
 465:lvgl\src\lv_font/lv_font_fmt_txt.c ****         switch(val) {
 2128              		.loc 1 465 0
 2129 07c6 0422     		movs	r2, #4
 474:lvgl\src\lv_font/lv_font_fmt_txt.c ****                 break;
 2130              		.loc 1 474 0
 2131 07c8 1146     		mov	r1, r2
 2132 07ca 11E0     		b	.L156
 2133              	.LVL355:
 2134              	.L160:
 465:lvgl\src\lv_font/lv_font_fmt_txt.c ****         switch(val) {
 2135              		.loc 1 465 0
 2136 07cc 0422     		movs	r2, #4
 477:lvgl\src\lv_font/lv_font_fmt_txt.c ****                 break;
 2137              		.loc 1 477 0
 2138 07ce 0621     		movs	r1, #6
 2139 07d0 0EE0     		b	.L156
 2140              	.LVL356:
 2141              	.L161:
 465:lvgl\src\lv_font/lv_font_fmt_txt.c ****         switch(val) {
 2142              		.loc 1 465 0
 2143 07d2 0422     		movs	r2, #4
 480:lvgl\src\lv_font/lv_font_fmt_txt.c ****                 break;
 2144              		.loc 1 480 0
 2145 07d4 0921     		movs	r1, #9
 2146 07d6 0BE0     		b	.L156
 2147              	.LVL357:
 2148              	.L162:
 465:lvgl\src\lv_font/lv_font_fmt_txt.c ****         switch(val) {
 2149              		.loc 1 465 0
 2150 07d8 0422     		movs	r2, #4
 483:lvgl\src\lv_font/lv_font_fmt_txt.c ****                 break;
 2151              		.loc 1 483 0
 2152 07da 0B21     		movs	r1, #11
 2153 07dc 08E0     		b	.L156
 2154              	.LVL358:
 2155              	.L163:
 465:lvgl\src\lv_font/lv_font_fmt_txt.c ****         switch(val) {
 2156              		.loc 1 465 0
 2157 07de 0422     		movs	r2, #4
 486:lvgl\src\lv_font/lv_font_fmt_txt.c ****                 break;
 2158              		.loc 1 486 0
ARM GAS  C:\Users\strap\AppData\Local\Temp\ccKJQbxb.s 			page 55


 2159 07e0 0D21     		movs	r1, #13
 2160 07e2 05E0     		b	.L156
 2161              	.LVL359:
 2162              	.L164:
 465:lvgl\src\lv_font/lv_font_fmt_txt.c ****         switch(val) {
 2163              		.loc 1 465 0
 2164 07e4 0422     		movs	r2, #4
 489:lvgl\src\lv_font/lv_font_fmt_txt.c ****                 break;
 2165              		.loc 1 489 0
 2166 07e6 0F21     		movs	r1, #15
 2167 07e8 02E0     		b	.L156
 2168              	.LVL360:
 2169              	.L241:
 464:lvgl\src\lv_font/lv_font_fmt_txt.c ****         len = 4;
 2170              		.loc 1 464 0
 2171 07ea 3A46     		mov	r2, r7
 2172 07ec 00E0     		b	.L156
 2173              	.LVL361:
 2174              	.L242:
 465:lvgl\src\lv_font/lv_font_fmt_txt.c ****         switch(val) {
 2175              		.loc 1 465 0
 2176 07ee 0422     		movs	r2, #4
 2177              	.LVL362:
 2178              	.L156:
 495:lvgl\src\lv_font/lv_font_fmt_txt.c ****     bit_pos = 8 - bit_pos - len;
 2179              		.loc 1 495 0
 2180 07f0 00F0070E 		and	lr, r0, #7
 2181              	.LVL363:
 496:lvgl\src\lv_font/lv_font_fmt_txt.c **** 
 2182              		.loc 1 496 0
 2183 07f4 CEF1000E 		rsb	lr, lr, #0
 2184              	.LVL364:
 2185 07f8 C2EB0E0E 		rsb	lr, r2, lr
 2186              	.LVL365:
 2187 07fc 0EF1080E 		add	lr, lr, #8
 2188              	.LVL366:
 498:lvgl\src\lv_font/lv_font_fmt_txt.c ****     out[byte_pos] &= ((~bit_mask) << bit_pos);
 2189              		.loc 1 498 0
 2190 0800 0123     		movs	r3, #1
 2191 0802 9340     		lsls	r3, r3, r2
 2192 0804 013B     		subs	r3, r3, #1
 2193 0806 DBB2     		uxtb	r3, r3
 2194              	.LVL367:
 499:lvgl\src\lv_font/lv_font_fmt_txt.c ****     out[byte_pos] |= (val << bit_pos);
 2195              		.loc 1 499 0
 2196 0808 C0F3CF08 		ubfx	r8, r0, #3, #16
 2197 080c DB43     		mvns	r3, r3
 2198              	.LVL368:
 2199 080e 03FA0EF2 		lsl	r2, r3, lr
 2200              	.LVL369:
 2201 0812 16F80830 		ldrb	r3, [r6, r8]	@ zero_extendqisi2
 2202              	.LVL370:
 2203 0816 1340     		ands	r3, r3, r2
 2204 0818 5BB2     		sxtb	r3, r3
 500:lvgl\src\lv_font/lv_font_fmt_txt.c **** }
 2205              		.loc 1 500 0
 2206 081a 01FA0EF1 		lsl	r1, r1, lr
ARM GAS  C:\Users\strap\AppData\Local\Temp\ccKJQbxb.s 			page 56


 2207              	.LVL371:
 2208 081e 0B43     		orrs	r3, r3, r1
 2209 0820 06F80830 		strb	r3, [r6, r8]
 2210              	.LVL372:
 2211              	.LBE149:
 2212              	.LBE148:
 382:lvgl\src\lv_font/lv_font_fmt_txt.c ****             }
 2213              		.loc 1 382 0
 2214 0824 4844     		add	r0, r0, r9
 2215              	.LVL373:
 379:lvgl\src\lv_font/lv_font_fmt_txt.c ****                 line_buf1[x] = line_buf2[x] ^ line_buf1[x];
 2216              		.loc 1 379 0
 2217 0826 0CF1010C 		add	ip, ip, #1
 2218              	.LVL374:
 2219 082a 0FFA8CFC 		sxth	ip, ip
 2220              	.LVL375:
 2221              	.L155:
 379:lvgl\src\lv_font/lv_font_fmt_txt.c ****                 line_buf1[x] = line_buf2[x] ^ line_buf1[x];
 2222              		.loc 1 379 0 is_stmt 0 discriminator 1
 2223 082e A445     		cmp	ip, r4
 2224 0830 B4DB     		blt	.L165
 2225 0832 07E2     		b	.L166
 2226              	.LVL376:
 2227              	.L213:
 2228              	.LBB150:
 2229              	.LBB151:
 408:lvgl\src\lv_font/lv_font_fmt_txt.c ****     }
 2230              		.loc 1 408 0 is_stmt 1
 2231 0834 05EB0E0C 		add	ip, r5, lr
 2232              	.LVL377:
 2233              	.LBB152:
 2234              	.LBB153:
 518:lvgl\src\lv_font/lv_font_fmt_txt.c ****         ret = get_bits(rle_in, rle_rdp, rle_bpp);
 2235              		.loc 1 518 0
 2236 0838 0A4B     		ldr	r3, .L255
 2237 083a 5B79     		ldrb	r3, [r3, #5]	@ zero_extendqisi2
 2238 083c 002B     		cmp	r3, #0
 2239 083e 5DD1     		bne	.L167
 519:lvgl\src\lv_font/lv_font_fmt_txt.c ****         if(rle_rdp != 0 && rle_prev_v == ret) {
 2240              		.loc 1 519 0
 2241 0840 084B     		ldr	r3, .L255
 2242 0842 1968     		ldr	r1, [r3]
 2243 0844 9A68     		ldr	r2, [r3, #8]
 2244 0846 93F80480 		ldrb	r8, [r3, #4]	@ zero_extendqisi2
 2245              	.LVL378:
 2246              	.LBB154:
 2247              	.LBB155:
 422:lvgl\src\lv_font/lv_font_fmt_txt.c ****         case 1:
 2248              		.loc 1 422 0
 2249 084a 08F1FF33 		add	r3, r8, #-1
 2250 084e 072B     		cmp	r3, #7
 2251 0850 13D8     		bhi	.L168
 2252 0852 DFE803F0 		tbb	[pc, r3]
 2253              	.L170:
 2254 0856 04       		.byte	(.L169-.L170)/2
 2255 0857 19       		.byte	(.L243-.L170)/2
 2256 0858 09       		.byte	(.L172-.L170)/2
ARM GAS  C:\Users\strap\AppData\Local\Temp\ccKJQbxb.s 			page 57


 2257 0859 0C       		.byte	(.L173-.L170)/2
 2258 085a 12       		.byte	(.L168-.L170)/2
 2259 085b 12       		.byte	(.L168-.L170)/2
 2260 085c 12       		.byte	(.L168-.L170)/2
 2261 085d 0F       		.byte	(.L174-.L170)/2
 2262              		.p2align 1
 2263              	.L169:
 424:lvgl\src\lv_font/lv_font_fmt_txt.c ****             break;
 2264              		.loc 1 424 0
 2265 085e 4FF0010A 		mov	r10, #1
 2266 0862 13E0     		b	.L171
 2267              	.L256:
 2268              		.align	2
 2269              	.L255:
 2270 0864 00000000 		.word	.LANCHOR0
 2271              	.L172:
 2272              	.LVL379:
 430:lvgl\src\lv_font/lv_font_fmt_txt.c ****             break;
 2273              		.loc 1 430 0
 2274 0868 4FF0070A 		mov	r10, #7
 2275 086c 0EE0     		b	.L171
 2276              	.LVL380:
 2277              	.L173:
 433:lvgl\src\lv_font/lv_font_fmt_txt.c ****             break;
 2278              		.loc 1 433 0
 2279 086e 4FF00F0A 		mov	r10, #15
 2280 0872 0BE0     		b	.L171
 2281              	.LVL381:
 2282              	.L174:
 436:lvgl\src\lv_font/lv_font_fmt_txt.c ****             break;
 2283              		.loc 1 436 0
 2284 0874 4FF0FF0A 		mov	r10, #255
 2285 0878 08E0     		b	.L171
 2286              	.LVL382:
 2287              	.L168:
 439:lvgl\src\lv_font/lv_font_fmt_txt.c ****     }
 2288              		.loc 1 439 0
 2289 087a 0123     		movs	r3, #1
 2290 087c 03FA08F3 		lsl	r3, r3, r8
 2291 0880 013B     		subs	r3, r3, #1
 2292 0882 5FFA83FA 		uxtb	r10, r3
 2293              	.LVL383:
 2294 0886 01E0     		b	.L171
 2295              	.LVL384:
 2296              	.L243:
 427:lvgl\src\lv_font/lv_font_fmt_txt.c ****             break;
 2297              		.loc 1 427 0
 2298 0888 4FF0030A 		mov	r10, #3
 2299              	.L171:
 2300              	.LVL385:
 442:lvgl\src\lv_font/lv_font_fmt_txt.c ****     bit_pos = bit_pos & 0x7;
 2301              		.loc 1 442 0
 2302 088c 4FEAD209 		lsr	r9, r2, #3
 2303              	.LVL386:
 443:lvgl\src\lv_font/lv_font_fmt_txt.c **** 
 2304              		.loc 1 443 0
 2305 0890 02F0070B 		and	fp, r2, #7
ARM GAS  C:\Users\strap\AppData\Local\Temp\ccKJQbxb.s 			page 58


 2306              	.LVL387:
 445:lvgl\src\lv_font/lv_font_fmt_txt.c ****         uint16_t in16 = (in[byte_pos] << 8) + in[byte_pos + 1];
 2307              		.loc 1 445 0
 2308 0894 0BEB0803 		add	r3, fp, r8
 2309 0898 072B     		cmp	r3, #7
 2310 089a 12D9     		bls	.L175
 2311              	.LBB156:
 446:lvgl\src\lv_font/lv_font_fmt_txt.c ****         return (in16 >> (16 - bit_pos - len)) & bit_mask;
 2312              		.loc 1 446 0
 2313 089c 11F80930 		ldrb	r3, [r1, r9]	@ zero_extendqisi2
 2314 08a0 8944     		add	r9, r9, r1
 2315              	.LVL388:
 2316 08a2 99F80190 		ldrb	r9, [r9, #1]	@ zero_extendqisi2
 2317 08a6 09EB0329 		add	r9, r9, r3, lsl #8
 2318 08aa 1FFA89F9 		uxth	r9, r9
 2319              	.LVL389:
 447:lvgl\src\lv_font/lv_font_fmt_txt.c ****     }
 2320              		.loc 1 447 0
 2321 08ae CBF10003 		rsb	r3, fp, #0
 2322 08b2 C8EB0303 		rsb	r3, r8, r3
 2323 08b6 1033     		adds	r3, r3, #16
 2324 08b8 49FA03F3 		asr	r3, r9, r3
 2325 08bc 03EA0A03 		and	r3, r3, r10
 2326 08c0 09E0     		b	.L176
 2327              	.LVL390:
 2328              	.L175:
 2329              	.LBE156:
 450:lvgl\src\lv_font/lv_font_fmt_txt.c ****     }
 2330              		.loc 1 450 0
 2331 08c2 11F80930 		ldrb	r3, [r1, r9]	@ zero_extendqisi2
 2332 08c6 CBF10001 		rsb	r1, fp, #0
 2333              	.LVL391:
 2334 08ca C8EB0101 		rsb	r1, r8, r1
 2335 08ce 0831     		adds	r1, r1, #8
 2336 08d0 0B41     		asrs	r3, r3, r1
 2337 08d2 03EA0A03 		and	r3, r3, r10
 2338              	.LVL392:
 2339              	.L176:
 2340              	.LBE155:
 2341              	.LBE154:
 520:lvgl\src\lv_font/lv_font_fmt_txt.c ****             rle_cnt = 0;
 2342              		.loc 1 520 0
 2343 08d6 62B1     		cbz	r2, .L177
 2344 08d8 B449     		ldr	r1, .L257
 2345 08da 097B     		ldrb	r1, [r1, #12]	@ zero_extendqisi2
 2346 08dc 9942     		cmp	r1, r3
 2347 08de 08D1     		bne	.L177
 521:lvgl\src\lv_font/lv_font_fmt_txt.c ****             rle_state = RLE_STATE_REPEATE;
 2348              		.loc 1 521 0
 2349 08e0 B249     		ldr	r1, .L257
 2350 08e2 4FF00009 		mov	r9, #0
 2351 08e6 81F80D90 		strb	r9, [r1, #13]
 522:lvgl\src\lv_font/lv_font_fmt_txt.c ****         }
 2352              		.loc 1 522 0
 2353 08ea 4FF00109 		mov	r9, #1
 2354 08ee 81F80590 		strb	r9, [r1, #5]
 2355              	.L177:
ARM GAS  C:\Users\strap\AppData\Local\Temp\ccKJQbxb.s 			page 59


 525:lvgl\src\lv_font/lv_font_fmt_txt.c ****         rle_rdp += rle_bpp;
 2356              		.loc 1 525 0
 2357 08f2 AE49     		ldr	r1, .L257
 2358 08f4 0B73     		strb	r3, [r1, #12]
 526:lvgl\src\lv_font/lv_font_fmt_txt.c ****     }
 2359              		.loc 1 526 0
 2360 08f6 4244     		add	r2, r2, r8
 2361 08f8 8A60     		str	r2, [r1, #8]
 2362 08fa 48E1     		b	.L178
 2363              	.LVL393:
 2364              	.L167:
 528:lvgl\src\lv_font/lv_font_fmt_txt.c ****         v = get_bits(rle_in, rle_rdp, 1);
 2365              		.loc 1 528 0
 2366 08fc 012B     		cmp	r3, #1
 2367 08fe 40F0EF80 		bne	.L179
 529:lvgl\src\lv_font/lv_font_fmt_txt.c ****         rle_cnt++;
 2368              		.loc 1 529 0
 2369 0902 AA4B     		ldr	r3, .L257
 2370 0904 D3F80080 		ldr	r8, [r3]
 2371 0908 9A68     		ldr	r2, [r3, #8]
 2372              	.LVL394:
 2373              	.LBB157:
 2374              	.LBB158:
 442:lvgl\src\lv_font/lv_font_fmt_txt.c ****     bit_pos = bit_pos & 0x7;
 2375              		.loc 1 442 0
 2376 090a D108     		lsrs	r1, r2, #3
 2377              	.LVL395:
 443:lvgl\src\lv_font/lv_font_fmt_txt.c **** 
 2378              		.loc 1 443 0
 2379 090c 02F00703 		and	r3, r2, #7
 2380              	.LVL396:
 445:lvgl\src\lv_font/lv_font_fmt_txt.c ****         uint16_t in16 = (in[byte_pos] << 8) + in[byte_pos + 1];
 2381              		.loc 1 445 0
 2382 0910 03F10109 		add	r9, r3, #1
 2383 0914 B9F1070F 		cmp	r9, #7
 2384 0918 0DD9     		bls	.L180
 2385              	.LBB159:
 446:lvgl\src\lv_font/lv_font_fmt_txt.c ****         return (in16 >> (16 - bit_pos - len)) & bit_mask;
 2386              		.loc 1 446 0
 2387 091a 18F80190 		ldrb	r9, [r8, r1]	@ zero_extendqisi2
 2388 091e 4144     		add	r1, r1, r8
 2389              	.LVL397:
 2390 0920 4978     		ldrb	r1, [r1, #1]	@ zero_extendqisi2
 2391 0922 01EB0921 		add	r1, r1, r9, lsl #8
 2392 0926 89B2     		uxth	r1, r1
 2393              	.LVL398:
 447:lvgl\src\lv_font/lv_font_fmt_txt.c ****     }
 2394              		.loc 1 447 0
 2395 0928 C3F10F03 		rsb	r3, r3, #15
 2396              	.LVL399:
 2397 092c 41FA03F3 		asr	r3, r1, r3
 2398 0930 03F00103 		and	r3, r3, #1
 2399 0934 07E0     		b	.L181
 2400              	.LVL400:
 2401              	.L180:
 2402              	.LBE159:
 450:lvgl\src\lv_font/lv_font_fmt_txt.c ****     }
ARM GAS  C:\Users\strap\AppData\Local\Temp\ccKJQbxb.s 			page 60


 2403              		.loc 1 450 0
 2404 0936 18F80110 		ldrb	r1, [r8, r1]	@ zero_extendqisi2
 2405              	.LVL401:
 2406 093a C3F10703 		rsb	r3, r3, #7
 2407              	.LVL402:
 2408 093e 41FA03F3 		asr	r3, r1, r3
 2409 0942 03F00103 		and	r3, r3, #1
 2410              	.LVL403:
 2411              	.L181:
 2412              	.LBE158:
 2413              	.LBE157:
 530:lvgl\src\lv_font/lv_font_fmt_txt.c ****         rle_rdp += 1;
 2414              		.loc 1 530 0
 2415 0946 DFF86492 		ldr	r9, .L257
 2416 094a 99F80D10 		ldrb	r1, [r9, #13]	@ zero_extendqisi2
 2417 094e 0131     		adds	r1, r1, #1
 2418 0950 C9B2     		uxtb	r1, r1
 2419 0952 89F80D10 		strb	r1, [r9, #13]
 531:lvgl\src\lv_font/lv_font_fmt_txt.c ****         if(v == 1) {
 2420              		.loc 1 531 0
 2421 0956 0132     		adds	r2, r2, #1
 2422 0958 C9F80820 		str	r2, [r9, #8]
 532:lvgl\src\lv_font/lv_font_fmt_txt.c ****             ret = rle_prev_v;
 2423              		.loc 1 532 0
 2424 095c 002B     		cmp	r3, #0
 2425 095e 75D0     		beq	.L182
 533:lvgl\src\lv_font/lv_font_fmt_txt.c ****             if(rle_cnt == 11) {
 2426              		.loc 1 533 0
 2427 0960 99F80C30 		ldrb	r3, [r9, #12]	@ zero_extendqisi2
 2428              	.LVL404:
 534:lvgl\src\lv_font/lv_font_fmt_txt.c ****                 rle_cnt = get_bits(rle_in, rle_rdp, 6);
 2429              		.loc 1 534 0
 2430 0964 0B29     		cmp	r1, #11
 2431 0966 40F01281 		bne	.L178
 2432              	.LVL405:
 2433              	.LBB160:
 2434              	.LBB161:
 442:lvgl\src\lv_font/lv_font_fmt_txt.c ****     bit_pos = bit_pos & 0x7;
 2435              		.loc 1 442 0
 2436 096a 4FEAD20A 		lsr	r10, r2, #3
 2437              	.LVL406:
 443:lvgl\src\lv_font/lv_font_fmt_txt.c **** 
 2438              		.loc 1 443 0
 2439 096e 02F00709 		and	r9, r2, #7
 2440              	.LVL407:
 445:lvgl\src\lv_font/lv_font_fmt_txt.c ****         uint16_t in16 = (in[byte_pos] << 8) + in[byte_pos + 1];
 2441              		.loc 1 445 0
 2442 0972 09F10601 		add	r1, r9, #6
 2443 0976 0729     		cmp	r1, #7
 2444 0978 0ED9     		bls	.L183
 2445              	.LBB162:
 446:lvgl\src\lv_font/lv_font_fmt_txt.c ****         return (in16 >> (16 - bit_pos - len)) & bit_mask;
 2446              		.loc 1 446 0
 2447 097a 18F80AB0 		ldrb	fp, [r8, r10]	@ zero_extendqisi2
 2448 097e C244     		add	r10, r10, r8
 2449              	.LVL408:
 2450 0980 9AF80110 		ldrb	r1, [r10, #1]	@ zero_extendqisi2
ARM GAS  C:\Users\strap\AppData\Local\Temp\ccKJQbxb.s 			page 61


 2451 0984 01EB0B21 		add	r1, r1, fp, lsl #8
 2452 0988 89B2     		uxth	r1, r1
 2453              	.LVL409:
 447:lvgl\src\lv_font/lv_font_fmt_txt.c ****     }
 2454              		.loc 1 447 0
 2455 098a C9F10A09 		rsb	r9, r9, #10
 2456              	.LVL410:
 2457 098e 41FA09F1 		asr	r1, r1, r9
 2458              	.LVL411:
 2459 0992 01F03F01 		and	r1, r1, #63
 2460 0996 07E0     		b	.L184
 2461              	.LVL412:
 2462              	.L183:
 2463              	.LBE162:
 450:lvgl\src\lv_font/lv_font_fmt_txt.c ****     }
 2464              		.loc 1 450 0
 2465 0998 18F80A10 		ldrb	r1, [r8, r10]	@ zero_extendqisi2
 2466 099c C9F10209 		rsb	r9, r9, #2
 2467              	.LVL413:
 2468 09a0 41FA09F1 		asr	r1, r1, r9
 2469 09a4 01F03F01 		and	r1, r1, #63
 2470              	.LVL414:
 2471              	.L184:
 2472              	.LBE161:
 2473              	.LBE160:
 535:lvgl\src\lv_font/lv_font_fmt_txt.c ****                 rle_rdp += 6;
 2474              		.loc 1 535 0
 2475 09a8 DFF80092 		ldr	r9, .L257
 2476 09ac 89F80D10 		strb	r1, [r9, #13]
 536:lvgl\src\lv_font/lv_font_fmt_txt.c ****                 if(rle_cnt != 0) {
 2477              		.loc 1 536 0
 2478 09b0 0632     		adds	r2, r2, #6
 2479 09b2 C9F80820 		str	r2, [r9, #8]
 537:lvgl\src\lv_font/lv_font_fmt_txt.c ****                     rle_state = RLE_STATE_COUNTER;
 2480              		.loc 1 537 0
 2481 09b6 19B1     		cbz	r1, .L185
 538:lvgl\src\lv_font/lv_font_fmt_txt.c ****                 }
 2482              		.loc 1 538 0
 2483 09b8 0221     		movs	r1, #2
 2484 09ba 89F80510 		strb	r1, [r9, #5]
 2485 09be E6E0     		b	.L178
 2486              	.L185:
 541:lvgl\src\lv_font/lv_font_fmt_txt.c ****                     rle_prev_v = ret;
 2487              		.loc 1 541 0
 2488 09c0 7A4B     		ldr	r3, .L257
 2489              	.LVL415:
 2490 09c2 93F80490 		ldrb	r9, [r3, #4]	@ zero_extendqisi2
 2491              	.LVL416:
 2492              	.LBB163:
 2493              	.LBB164:
 422:lvgl\src\lv_font/lv_font_fmt_txt.c ****         case 1:
 2494              		.loc 1 422 0
 2495 09c6 09F1FF33 		add	r3, r9, #-1
 2496 09ca 072B     		cmp	r3, #7
 2497 09cc 0DD8     		bhi	.L186
 2498 09ce DFE803F0 		tbb	[pc, r3]
 2499              	.L188:
ARM GAS  C:\Users\strap\AppData\Local\Temp\ccKJQbxb.s 			page 62


 2500 09d2 04       		.byte	(.L187-.L188)/2
 2501 09d3 12       		.byte	(.L244-.L188)/2
 2502 09d4 06       		.byte	(.L190-.L188)/2
 2503 09d5 08       		.byte	(.L191-.L188)/2
 2504 09d6 0C       		.byte	(.L186-.L188)/2
 2505 09d7 0C       		.byte	(.L186-.L188)/2
 2506 09d8 0C       		.byte	(.L186-.L188)/2
 2507 09d9 0A       		.byte	(.L192-.L188)/2
 2508              		.p2align 1
 2509              	.L187:
 424:lvgl\src\lv_font/lv_font_fmt_txt.c ****             break;
 2510              		.loc 1 424 0
 2511 09da 0123     		movs	r3, #1
 2512 09dc 0CE0     		b	.L189
 2513              	.L190:
 2514              	.LVL417:
 430:lvgl\src\lv_font/lv_font_fmt_txt.c ****             break;
 2515              		.loc 1 430 0
 2516 09de 0723     		movs	r3, #7
 2517 09e0 0AE0     		b	.L189
 2518              	.LVL418:
 2519              	.L191:
 433:lvgl\src\lv_font/lv_font_fmt_txt.c ****             break;
 2520              		.loc 1 433 0
 2521 09e2 0F23     		movs	r3, #15
 2522 09e4 08E0     		b	.L189
 2523              	.LVL419:
 2524              	.L192:
 436:lvgl\src\lv_font/lv_font_fmt_txt.c ****             break;
 2525              		.loc 1 436 0
 2526 09e6 FF23     		movs	r3, #255
 2527 09e8 06E0     		b	.L189
 2528              	.LVL420:
 2529              	.L186:
 439:lvgl\src\lv_font/lv_font_fmt_txt.c ****     }
 2530              		.loc 1 439 0
 2531 09ea 0123     		movs	r3, #1
 2532 09ec 03FA09F3 		lsl	r3, r3, r9
 2533 09f0 013B     		subs	r3, r3, #1
 2534 09f2 DBB2     		uxtb	r3, r3
 2535              	.LVL421:
 2536 09f4 00E0     		b	.L189
 2537              	.LVL422:
 2538              	.L244:
 427:lvgl\src\lv_font/lv_font_fmt_txt.c ****             break;
 2539              		.loc 1 427 0
 2540 09f6 0323     		movs	r3, #3
 2541              	.L189:
 2542              	.LVL423:
 442:lvgl\src\lv_font/lv_font_fmt_txt.c ****     bit_pos = bit_pos & 0x7;
 2543              		.loc 1 442 0
 2544 09f8 4FEAD20A 		lsr	r10, r2, #3
 2545              	.LVL424:
 443:lvgl\src\lv_font/lv_font_fmt_txt.c **** 
 2546              		.loc 1 443 0
 2547 09fc 02F00701 		and	r1, r2, #7
 2548              	.LVL425:
ARM GAS  C:\Users\strap\AppData\Local\Temp\ccKJQbxb.s 			page 63


 445:lvgl\src\lv_font/lv_font_fmt_txt.c ****         uint16_t in16 = (in[byte_pos] << 8) + in[byte_pos + 1];
 2549              		.loc 1 445 0
 2550 0a00 01EB090B 		add	fp, r1, r9
 2551 0a04 BBF1070F 		cmp	fp, #7
 2552 0a08 10D9     		bls	.L193
 2553              	.LBB165:
 446:lvgl\src\lv_font/lv_font_fmt_txt.c ****         return (in16 >> (16 - bit_pos - len)) & bit_mask;
 2554              		.loc 1 446 0
 2555 0a0a 18F80AB0 		ldrb	fp, [r8, r10]	@ zero_extendqisi2
 2556 0a0e D044     		add	r8, r8, r10
 2557              	.LVL426:
 2558 0a10 98F80180 		ldrb	r8, [r8, #1]	@ zero_extendqisi2
 2559 0a14 08EB0B28 		add	r8, r8, fp, lsl #8
 2560 0a18 1FFA88F8 		uxth	r8, r8
 2561              	.LVL427:
 447:lvgl\src\lv_font/lv_font_fmt_txt.c ****     }
 2562              		.loc 1 447 0
 2563 0a1c 4942     		negs	r1, r1
 2564              	.LVL428:
 2565 0a1e C9EB0101 		rsb	r1, r9, r1
 2566              	.LVL429:
 2567 0a22 1031     		adds	r1, r1, #16
 2568 0a24 48FA01F1 		asr	r1, r8, r1
 2569 0a28 0B40     		ands	r3, r3, r1
 2570              	.LVL430:
 2571 0a2a 08E0     		b	.L194
 2572              	.LVL431:
 2573              	.L193:
 2574              	.LBE165:
 450:lvgl\src\lv_font/lv_font_fmt_txt.c ****     }
 2575              		.loc 1 450 0
 2576 0a2c 18F80A80 		ldrb	r8, [r8, r10]	@ zero_extendqisi2
 2577              	.LVL432:
 2578 0a30 4942     		negs	r1, r1
 2579              	.LVL433:
 2580 0a32 C9EB0101 		rsb	r1, r9, r1
 2581              	.LVL434:
 2582 0a36 0831     		adds	r1, r1, #8
 2583 0a38 48FA01F1 		asr	r1, r8, r1
 2584 0a3c 0B40     		ands	r3, r3, r1
 2585              	.LVL435:
 2586              	.L194:
 2587              	.LBE164:
 2588              	.LBE163:
 542:lvgl\src\lv_font/lv_font_fmt_txt.c ****                     rle_rdp += rle_bpp;
 2589              		.loc 1 542 0
 2590 0a3e 5B49     		ldr	r1, .L257
 2591 0a40 0B73     		strb	r3, [r1, #12]
 543:lvgl\src\lv_font/lv_font_fmt_txt.c ****                     rle_state = RLE_STATE_SINGLE;
 2592              		.loc 1 543 0
 2593 0a42 4A44     		add	r2, r2, r9
 2594 0a44 8A60     		str	r2, [r1, #8]
 544:lvgl\src\lv_font/lv_font_fmt_txt.c ****                 }
 2595              		.loc 1 544 0
 2596 0a46 0022     		movs	r2, #0
 2597 0a48 4A71     		strb	r2, [r1, #5]
 2598 0a4a A0E0     		b	.L178
ARM GAS  C:\Users\strap\AppData\Local\Temp\ccKJQbxb.s 			page 64


 2599              	.LVL436:
 2600              	.L182:
 549:lvgl\src\lv_font/lv_font_fmt_txt.c ****             rle_prev_v = ret;
 2601              		.loc 1 549 0
 2602 0a4c 574B     		ldr	r3, .L257
 2603 0a4e 93F80490 		ldrb	r9, [r3, #4]	@ zero_extendqisi2
 2604              	.LVL437:
 2605              	.LBB166:
 2606              	.LBB167:
 422:lvgl\src\lv_font/lv_font_fmt_txt.c ****         case 1:
 2607              		.loc 1 422 0
 2608 0a52 09F1FF33 		add	r3, r9, #-1
 2609 0a56 072B     		cmp	r3, #7
 2610 0a58 11D8     		bhi	.L195
 2611 0a5a DFE803F0 		tbb	[pc, r3]
 2612              	.L197:
 2613 0a5e 04       		.byte	(.L196-.L197)/2
 2614 0a5f 17       		.byte	(.L245-.L197)/2
 2615 0a60 07       		.byte	(.L199-.L197)/2
 2616 0a61 0A       		.byte	(.L200-.L197)/2
 2617 0a62 10       		.byte	(.L195-.L197)/2
 2618 0a63 10       		.byte	(.L195-.L197)/2
 2619 0a64 10       		.byte	(.L195-.L197)/2
 2620 0a65 0D       		.byte	(.L201-.L197)/2
 2621              		.p2align 1
 2622              	.L196:
 424:lvgl\src\lv_font/lv_font_fmt_txt.c ****             break;
 2623              		.loc 1 424 0
 2624 0a66 4FF0010A 		mov	r10, #1
 2625 0a6a 11E0     		b	.L198
 2626              	.L199:
 2627              	.LVL438:
 430:lvgl\src\lv_font/lv_font_fmt_txt.c ****             break;
 2628              		.loc 1 430 0
 2629 0a6c 4FF0070A 		mov	r10, #7
 2630 0a70 0EE0     		b	.L198
 2631              	.LVL439:
 2632              	.L200:
 433:lvgl\src\lv_font/lv_font_fmt_txt.c ****             break;
 2633              		.loc 1 433 0
 2634 0a72 4FF00F0A 		mov	r10, #15
 2635 0a76 0BE0     		b	.L198
 2636              	.LVL440:
 2637              	.L201:
 436:lvgl\src\lv_font/lv_font_fmt_txt.c ****             break;
 2638              		.loc 1 436 0
 2639 0a78 4FF0FF0A 		mov	r10, #255
 2640 0a7c 08E0     		b	.L198
 2641              	.LVL441:
 2642              	.L195:
 439:lvgl\src\lv_font/lv_font_fmt_txt.c ****     }
 2643              		.loc 1 439 0
 2644 0a7e 0123     		movs	r3, #1
 2645 0a80 03FA09F3 		lsl	r3, r3, r9
 2646 0a84 013B     		subs	r3, r3, #1
 2647 0a86 5FFA83FA 		uxtb	r10, r3
 2648              	.LVL442:
ARM GAS  C:\Users\strap\AppData\Local\Temp\ccKJQbxb.s 			page 65


 2649 0a8a 01E0     		b	.L198
 2650              	.LVL443:
 2651              	.L245:
 427:lvgl\src\lv_font/lv_font_fmt_txt.c ****             break;
 2652              		.loc 1 427 0
 2653 0a8c 4FF0030A 		mov	r10, #3
 2654              	.L198:
 2655              	.LVL444:
 442:lvgl\src\lv_font/lv_font_fmt_txt.c ****     bit_pos = bit_pos & 0x7;
 2656              		.loc 1 442 0
 2657 0a90 D308     		lsrs	r3, r2, #3
 2658              	.LVL445:
 443:lvgl\src\lv_font/lv_font_fmt_txt.c **** 
 2659              		.loc 1 443 0
 2660 0a92 02F00701 		and	r1, r2, #7
 2661              	.LVL446:
 445:lvgl\src\lv_font/lv_font_fmt_txt.c ****         uint16_t in16 = (in[byte_pos] << 8) + in[byte_pos + 1];
 2662              		.loc 1 445 0
 2663 0a96 01EB090B 		add	fp, r1, r9
 2664 0a9a BBF1070F 		cmp	fp, #7
 2665 0a9e 0FD9     		bls	.L202
 2666              	.LBB168:
 446:lvgl\src\lv_font/lv_font_fmt_txt.c ****         return (in16 >> (16 - bit_pos - len)) & bit_mask;
 2667              		.loc 1 446 0
 2668 0aa0 18F803B0 		ldrb	fp, [r8, r3]	@ zero_extendqisi2
 2669 0aa4 9844     		add	r8, r8, r3
 2670              	.LVL447:
 2671 0aa6 98F80130 		ldrb	r3, [r8, #1]	@ zero_extendqisi2
 2672              	.LVL448:
 2673 0aaa 03EB0B23 		add	r3, r3, fp, lsl #8
 2674 0aae 9BB2     		uxth	r3, r3
 2675              	.LVL449:
 447:lvgl\src\lv_font/lv_font_fmt_txt.c ****     }
 2676              		.loc 1 447 0
 2677 0ab0 4942     		negs	r1, r1
 2678              	.LVL450:
 2679 0ab2 C9EB0101 		rsb	r1, r9, r1
 2680              	.LVL451:
 2681 0ab6 1031     		adds	r1, r1, #16
 2682 0ab8 0B41     		asrs	r3, r3, r1
 2683              	.LVL452:
 2684 0aba 03EA0A03 		and	r3, r3, r10
 2685 0abe 08E0     		b	.L203
 2686              	.LVL453:
 2687              	.L202:
 2688              	.LBE168:
 450:lvgl\src\lv_font/lv_font_fmt_txt.c ****     }
 2689              		.loc 1 450 0
 2690 0ac0 18F80330 		ldrb	r3, [r8, r3]	@ zero_extendqisi2
 2691              	.LVL454:
 2692 0ac4 4942     		negs	r1, r1
 2693              	.LVL455:
 2694 0ac6 C9EB0101 		rsb	r1, r9, r1
 2695              	.LVL456:
 2696 0aca 0831     		adds	r1, r1, #8
 2697 0acc 0B41     		asrs	r3, r3, r1
 2698 0ace 03EA0A03 		and	r3, r3, r10
ARM GAS  C:\Users\strap\AppData\Local\Temp\ccKJQbxb.s 			page 66


 2699              	.LVL457:
 2700              	.L203:
 2701              	.LBE167:
 2702              	.LBE166:
 550:lvgl\src\lv_font/lv_font_fmt_txt.c ****             rle_rdp += rle_bpp;
 2703              		.loc 1 550 0
 2704 0ad2 3649     		ldr	r1, .L257
 2705 0ad4 0B73     		strb	r3, [r1, #12]
 551:lvgl\src\lv_font/lv_font_fmt_txt.c ****             rle_state = RLE_STATE_SINGLE;
 2706              		.loc 1 551 0
 2707 0ad6 4A44     		add	r2, r2, r9
 2708 0ad8 8A60     		str	r2, [r1, #8]
 552:lvgl\src\lv_font/lv_font_fmt_txt.c ****         }
 2709              		.loc 1 552 0
 2710 0ada 0022     		movs	r2, #0
 2711 0adc 4A71     		strb	r2, [r1, #5]
 2712 0ade 56E0     		b	.L178
 2713              	.LVL458:
 2714              	.L179:
 557:lvgl\src\lv_font/lv_font_fmt_txt.c ****         ret = rle_prev_v;
 2715              		.loc 1 557 0
 2716 0ae0 022B     		cmp	r3, #2
 2717 0ae2 53D1     		bne	.L246
 558:lvgl\src\lv_font/lv_font_fmt_txt.c ****         rle_cnt--;
 2718              		.loc 1 558 0
 2719 0ae4 3149     		ldr	r1, .L257
 2720 0ae6 0B7B     		ldrb	r3, [r1, #12]	@ zero_extendqisi2
 2721              	.LVL459:
 559:lvgl\src\lv_font/lv_font_fmt_txt.c ****         if(rle_cnt == 0) {
 2722              		.loc 1 559 0
 2723 0ae8 4A7B     		ldrb	r2, [r1, #13]	@ zero_extendqisi2
 2724 0aea 013A     		subs	r2, r2, #1
 2725 0aec D2B2     		uxtb	r2, r2
 2726 0aee 4A73     		strb	r2, [r1, #13]
 560:lvgl\src\lv_font/lv_font_fmt_txt.c ****             ret = get_bits(rle_in, rle_rdp, rle_bpp);
 2727              		.loc 1 560 0
 2728 0af0 002A     		cmp	r2, #0
 2729 0af2 4CD1     		bne	.L178
 561:lvgl\src\lv_font/lv_font_fmt_txt.c ****             rle_prev_v = ret;
 2730              		.loc 1 561 0
 2731 0af4 0B46     		mov	r3, r1
 2732              	.LVL460:
 2733 0af6 D1F800A0 		ldr	r10, [r1]
 2734 0afa 8968     		ldr	r1, [r1, #8]
 2735 0afc 93F80480 		ldrb	r8, [r3, #4]	@ zero_extendqisi2
 2736              	.LVL461:
 2737              	.LBB169:
 2738              	.LBB170:
 422:lvgl\src\lv_font/lv_font_fmt_txt.c ****         case 1:
 2739              		.loc 1 422 0
 2740 0b00 08F1FF33 		add	r3, r8, #-1
 2741 0b04 072B     		cmp	r3, #7
 2742 0b06 11D8     		bhi	.L204
 2743 0b08 DFE803F0 		tbb	[pc, r3]
 2744              	.L206:
 2745 0b0c 04       		.byte	(.L205-.L206)/2
 2746 0b0d 17       		.byte	(.L247-.L206)/2
ARM GAS  C:\Users\strap\AppData\Local\Temp\ccKJQbxb.s 			page 67


 2747 0b0e 07       		.byte	(.L208-.L206)/2
 2748 0b0f 0A       		.byte	(.L209-.L206)/2
 2749 0b10 10       		.byte	(.L204-.L206)/2
 2750 0b11 10       		.byte	(.L204-.L206)/2
 2751 0b12 10       		.byte	(.L204-.L206)/2
 2752 0b13 0D       		.byte	(.L210-.L206)/2
 2753              		.p2align 1
 2754              	.L205:
 424:lvgl\src\lv_font/lv_font_fmt_txt.c ****             break;
 2755              		.loc 1 424 0
 2756 0b14 4FF00109 		mov	r9, #1
 2757 0b18 11E0     		b	.L207
 2758              	.L208:
 2759              	.LVL462:
 430:lvgl\src\lv_font/lv_font_fmt_txt.c ****             break;
 2760              		.loc 1 430 0
 2761 0b1a 4FF00709 		mov	r9, #7
 2762 0b1e 0EE0     		b	.L207
 2763              	.LVL463:
 2764              	.L209:
 433:lvgl\src\lv_font/lv_font_fmt_txt.c ****             break;
 2765              		.loc 1 433 0
 2766 0b20 4FF00F09 		mov	r9, #15
 2767 0b24 0BE0     		b	.L207
 2768              	.LVL464:
 2769              	.L210:
 436:lvgl\src\lv_font/lv_font_fmt_txt.c ****             break;
 2770              		.loc 1 436 0
 2771 0b26 4FF0FF09 		mov	r9, #255
 2772 0b2a 08E0     		b	.L207
 2773              	.LVL465:
 2774              	.L204:
 439:lvgl\src\lv_font/lv_font_fmt_txt.c ****     }
 2775              		.loc 1 439 0
 2776 0b2c 0123     		movs	r3, #1
 2777 0b2e 03FA08F3 		lsl	r3, r3, r8
 2778 0b32 013B     		subs	r3, r3, #1
 2779 0b34 5FFA83F9 		uxtb	r9, r3
 2780              	.LVL466:
 2781 0b38 01E0     		b	.L207
 2782              	.LVL467:
 2783              	.L247:
 427:lvgl\src\lv_font/lv_font_fmt_txt.c ****             break;
 2784              		.loc 1 427 0
 2785 0b3a 4FF00309 		mov	r9, #3
 2786              	.L207:
 2787              	.LVL468:
 442:lvgl\src\lv_font/lv_font_fmt_txt.c ****     bit_pos = bit_pos & 0x7;
 2788              		.loc 1 442 0
 2789 0b3e CB08     		lsrs	r3, r1, #3
 2790              	.LVL469:
 443:lvgl\src\lv_font/lv_font_fmt_txt.c **** 
 2791              		.loc 1 443 0
 2792 0b40 01F00702 		and	r2, r1, #7
 2793              	.LVL470:
 445:lvgl\src\lv_font/lv_font_fmt_txt.c ****         uint16_t in16 = (in[byte_pos] << 8) + in[byte_pos + 1];
 2794              		.loc 1 445 0
ARM GAS  C:\Users\strap\AppData\Local\Temp\ccKJQbxb.s 			page 68


 2795 0b44 02EB080B 		add	fp, r2, r8
 2796 0b48 BBF1070F 		cmp	fp, #7
 2797 0b4c 0ED9     		bls	.L211
 2798              	.LBB171:
 446:lvgl\src\lv_font/lv_font_fmt_txt.c ****         return (in16 >> (16 - bit_pos - len)) & bit_mask;
 2799              		.loc 1 446 0
 2800 0b4e 1AF803B0 		ldrb	fp, [r10, r3]	@ zero_extendqisi2
 2801 0b52 5344     		add	r3, r3, r10
 2802              	.LVL471:
 2803 0b54 5B78     		ldrb	r3, [r3, #1]	@ zero_extendqisi2
 2804 0b56 03EB0B23 		add	r3, r3, fp, lsl #8
 2805 0b5a 9BB2     		uxth	r3, r3
 2806              	.LVL472:
 447:lvgl\src\lv_font/lv_font_fmt_txt.c ****     }
 2807              		.loc 1 447 0
 2808 0b5c 5242     		negs	r2, r2
 2809              	.LVL473:
 2810 0b5e C8EB0202 		rsb	r2, r8, r2
 2811              	.LVL474:
 2812 0b62 1032     		adds	r2, r2, #16
 2813 0b64 1341     		asrs	r3, r3, r2
 2814              	.LVL475:
 2815 0b66 03EA0903 		and	r3, r3, r9
 2816 0b6a 08E0     		b	.L212
 2817              	.LVL476:
 2818              	.L211:
 2819              	.LBE171:
 450:lvgl\src\lv_font/lv_font_fmt_txt.c ****     }
 2820              		.loc 1 450 0
 2821 0b6c 1AF80330 		ldrb	r3, [r10, r3]	@ zero_extendqisi2
 2822              	.LVL477:
 2823 0b70 5242     		negs	r2, r2
 2824              	.LVL478:
 2825 0b72 C8EB0202 		rsb	r2, r8, r2
 2826              	.LVL479:
 2827 0b76 0832     		adds	r2, r2, #8
 2828 0b78 1341     		asrs	r3, r3, r2
 2829 0b7a 03EA0903 		and	r3, r3, r9
 2830              	.L212:
 2831              	.LVL480:
 2832              	.LBE170:
 2833              	.LBE169:
 562:lvgl\src\lv_font/lv_font_fmt_txt.c ****             rle_rdp += rle_bpp;
 2834              		.loc 1 562 0
 2835 0b7e 0B4A     		ldr	r2, .L257
 2836 0b80 1373     		strb	r3, [r2, #12]
 563:lvgl\src\lv_font/lv_font_fmt_txt.c ****             rle_state = RLE_STATE_SINGLE;
 2837              		.loc 1 563 0
 2838 0b82 4144     		add	r1, r1, r8
 2839 0b84 9160     		str	r1, [r2, #8]
 564:lvgl\src\lv_font/lv_font_fmt_txt.c ****         }
 2840              		.loc 1 564 0
 2841 0b86 0021     		movs	r1, #0
 2842 0b88 5171     		strb	r1, [r2, #5]
 2843 0b8a 00E0     		b	.L178
 2844              	.LVL481:
 2845              	.L246:
ARM GAS  C:\Users\strap\AppData\Local\Temp\ccKJQbxb.s 			page 69


 516:lvgl\src\lv_font/lv_font_fmt_txt.c **** 
 2846              		.loc 1 516 0
 2847 0b8c 0023     		movs	r3, #0
 2848              	.LVL482:
 2849              	.L178:
 2850              	.LBE153:
 2851              	.LBE152:
 408:lvgl\src\lv_font/lv_font_fmt_txt.c ****     }
 2852              		.loc 1 408 0
 2853 0b8e 8CF80030 		strb	r3, [ip]
 407:lvgl\src\lv_font/lv_font_fmt_txt.c ****         out[i] = rle_next();
 2854              		.loc 1 407 0
 2855 0b92 0EF1010E 		add	lr, lr, #1
 2856              	.LVL483:
 2857 0b96 0FFA8EFE 		sxth	lr, lr
 2858              	.LVL484:
 2859              	.L107:
 2860 0b9a 7445     		cmp	r4, lr
 2861 0b9c 3FF74AAE 		bgt	.L213
 2862 0ba0 4FF0000C 		mov	ip, #0
 2863 0ba4 DDF80890 		ldr	r9, [sp, #8]
 2864 0ba8 4AE0     		b	.L214
 2865              	.L258:
 2866 0baa 00BF     		.align	2
 2867              	.L257:
 2868 0bac 00000000 		.word	.LANCHOR0
 2869              	.LVL485:
 2870              	.L224:
 2871              	.LBE151:
 2872              	.LBE150:
 389:lvgl\src\lv_font/lv_font_fmt_txt.c ****                 wrp += wr_size;
 2873              		.loc 1 389 0 discriminator 3
 2874 0bb0 15F80CE0 		ldrb	lr, [r5, ip]	@ zero_extendqisi2
 2875              	.LVL486:
 2876              	.LBB172:
 2877              	.LBB173:
 464:lvgl\src\lv_font/lv_font_fmt_txt.c ****         len = 4;
 2878              		.loc 1 464 0 discriminator 3
 2879 0bb4 032F     		cmp	r7, #3
 2880 0bb6 24D1     		bne	.L248
 2881              	.LVL487:
 466:lvgl\src\lv_font/lv_font_fmt_txt.c ****             case 0:
 2882              		.loc 1 466 0
 2883 0bb8 0EF1FF33 		add	r3, lr, #-1
 2884 0bbc 062B     		cmp	r3, #6
 2885 0bbe 22D8     		bhi	.L249
 2886 0bc0 DFE803F0 		tbb	[pc, r3]
 2887              	.L217:
 2888 0bc4 04       		.byte	(.L216-.L217)/2
 2889 0bc5 08       		.byte	(.L218-.L217)/2
 2890 0bc6 0B       		.byte	(.L219-.L217)/2
 2891 0bc7 0F       		.byte	(.L220-.L217)/2
 2892 0bc8 13       		.byte	(.L221-.L217)/2
 2893 0bc9 17       		.byte	(.L222-.L217)/2
 2894 0bca 1B       		.byte	(.L223-.L217)/2
 2895 0bcb 00       		.p2align 1
 2896              	.L216:
ARM GAS  C:\Users\strap\AppData\Local\Temp\ccKJQbxb.s 			page 70


 2897              	.LVL488:
 465:lvgl\src\lv_font/lv_font_fmt_txt.c ****         switch(val) {
 2898              		.loc 1 465 0
 2899 0bcc 0422     		movs	r2, #4
 471:lvgl\src\lv_font/lv_font_fmt_txt.c ****                 break;
 2900              		.loc 1 471 0
 2901 0bce 4FF0020E 		mov	lr, #2
 2902 0bd2 19E0     		b	.L215
 2903              	.LVL489:
 2904              	.L218:
 465:lvgl\src\lv_font/lv_font_fmt_txt.c ****         switch(val) {
 2905              		.loc 1 465 0
 2906 0bd4 0422     		movs	r2, #4
 474:lvgl\src\lv_font/lv_font_fmt_txt.c ****                 break;
 2907              		.loc 1 474 0
 2908 0bd6 9646     		mov	lr, r2
 2909 0bd8 16E0     		b	.L215
 2910              	.LVL490:
 2911              	.L219:
 465:lvgl\src\lv_font/lv_font_fmt_txt.c ****         switch(val) {
 2912              		.loc 1 465 0
 2913 0bda 0422     		movs	r2, #4
 477:lvgl\src\lv_font/lv_font_fmt_txt.c ****                 break;
 2914              		.loc 1 477 0
 2915 0bdc 4FF0060E 		mov	lr, #6
 2916 0be0 12E0     		b	.L215
 2917              	.LVL491:
 2918              	.L220:
 465:lvgl\src\lv_font/lv_font_fmt_txt.c ****         switch(val) {
 2919              		.loc 1 465 0
 2920 0be2 0422     		movs	r2, #4
 480:lvgl\src\lv_font/lv_font_fmt_txt.c ****                 break;
 2921              		.loc 1 480 0
 2922 0be4 4FF0090E 		mov	lr, #9
 2923 0be8 0EE0     		b	.L215
 2924              	.LVL492:
 2925              	.L221:
 465:lvgl\src\lv_font/lv_font_fmt_txt.c ****         switch(val) {
 2926              		.loc 1 465 0
 2927 0bea 0422     		movs	r2, #4
 483:lvgl\src\lv_font/lv_font_fmt_txt.c ****                 break;
 2928              		.loc 1 483 0
 2929 0bec 4FF00B0E 		mov	lr, #11
 2930 0bf0 0AE0     		b	.L215
 2931              	.LVL493:
 2932              	.L222:
 465:lvgl\src\lv_font/lv_font_fmt_txt.c ****         switch(val) {
 2933              		.loc 1 465 0
 2934 0bf2 0422     		movs	r2, #4
 486:lvgl\src\lv_font/lv_font_fmt_txt.c ****                 break;
 2935              		.loc 1 486 0
 2936 0bf4 4FF00D0E 		mov	lr, #13
 2937 0bf8 06E0     		b	.L215
 2938              	.LVL494:
 2939              	.L223:
 465:lvgl\src\lv_font/lv_font_fmt_txt.c ****         switch(val) {
 2940              		.loc 1 465 0
ARM GAS  C:\Users\strap\AppData\Local\Temp\ccKJQbxb.s 			page 71


 2941 0bfa 0422     		movs	r2, #4
 489:lvgl\src\lv_font/lv_font_fmt_txt.c ****                 break;
 2942              		.loc 1 489 0
 2943 0bfc 4FF00F0E 		mov	lr, #15
 2944 0c00 02E0     		b	.L215
 2945              	.LVL495:
 2946              	.L248:
 464:lvgl\src\lv_font/lv_font_fmt_txt.c ****         len = 4;
 2947              		.loc 1 464 0
 2948 0c02 3A46     		mov	r2, r7
 2949 0c04 00E0     		b	.L215
 2950              	.LVL496:
 2951              	.L249:
 465:lvgl\src\lv_font/lv_font_fmt_txt.c ****         switch(val) {
 2952              		.loc 1 465 0
 2953 0c06 0422     		movs	r2, #4
 2954              	.LVL497:
 2955              	.L215:
 495:lvgl\src\lv_font/lv_font_fmt_txt.c ****     bit_pos = 8 - bit_pos - len;
 2956              		.loc 1 495 0
 2957 0c08 00F00701 		and	r1, r0, #7
 2958              	.LVL498:
 496:lvgl\src\lv_font/lv_font_fmt_txt.c **** 
 2959              		.loc 1 496 0
 2960 0c0c 4942     		negs	r1, r1
 2961              	.LVL499:
 2962 0c0e 891A     		subs	r1, r1, r2
 2963              	.LVL500:
 2964 0c10 0831     		adds	r1, r1, #8
 2965              	.LVL501:
 498:lvgl\src\lv_font/lv_font_fmt_txt.c ****     out[byte_pos] &= ((~bit_mask) << bit_pos);
 2966              		.loc 1 498 0
 2967 0c12 0123     		movs	r3, #1
 2968 0c14 9340     		lsls	r3, r3, r2
 2969 0c16 013B     		subs	r3, r3, #1
 2970 0c18 DBB2     		uxtb	r3, r3
 2971              	.LVL502:
 499:lvgl\src\lv_font/lv_font_fmt_txt.c ****     out[byte_pos] |= (val << bit_pos);
 2972              		.loc 1 499 0
 2973 0c1a C0F3CF08 		ubfx	r8, r0, #3, #16
 2974 0c1e DB43     		mvns	r3, r3
 2975              	.LVL503:
 2976 0c20 03FA01F2 		lsl	r2, r3, r1
 2977              	.LVL504:
 2978 0c24 16F80830 		ldrb	r3, [r6, r8]	@ zero_extendqisi2
 2979              	.LVL505:
 2980 0c28 1340     		ands	r3, r3, r2
 2981 0c2a 5BB2     		sxtb	r3, r3
 500:lvgl\src\lv_font/lv_font_fmt_txt.c **** }
 2982              		.loc 1 500 0
 2983 0c2c 0EFA01F1 		lsl	r1, lr, r1
 2984              	.LVL506:
 2985 0c30 0B43     		orrs	r3, r3, r1
 2986 0c32 06F80830 		strb	r3, [r6, r8]
 2987              	.LVL507:
 2988              	.LBE173:
 2989              	.LBE172:
ARM GAS  C:\Users\strap\AppData\Local\Temp\ccKJQbxb.s 			page 72


 390:lvgl\src\lv_font/lv_font_fmt_txt.c ****             }
 2990              		.loc 1 390 0
 2991 0c36 4844     		add	r0, r0, r9
 2992              	.LVL508:
 388:lvgl\src\lv_font/lv_font_fmt_txt.c ****                 bits_write(out, wrp, line_buf1[x], bpp);
 2993              		.loc 1 388 0
 2994 0c38 0CF1010C 		add	ip, ip, #1
 2995              	.LVL509:
 2996 0c3c 0FFA8CFC 		sxth	ip, ip
 2997              	.LVL510:
 2998              	.L214:
 388:lvgl\src\lv_font/lv_font_fmt_txt.c ****                 bits_write(out, wrp, line_buf1[x], bpp);
 2999              		.loc 1 388 0 is_stmt 0 discriminator 1
 3000 0c40 A445     		cmp	ip, r4
 3001 0c42 B5DB     		blt	.L224
 3002              	.L166:
 375:lvgl\src\lv_font/lv_font_fmt_txt.c ****         if(prefilter) {
 3003              		.loc 1 375 0 is_stmt 1 discriminator 2
 3004 0c44 009B     		ldr	r3, [sp]
 3005 0c46 0133     		adds	r3, r3, #1
 3006 0c48 1BB2     		sxth	r3, r3
 3007 0c4a 0093     		str	r3, [sp]
 3008              	.LVL511:
 3009              	.L105:
 375:lvgl\src\lv_font/lv_font_fmt_txt.c ****         if(prefilter) {
 3010              		.loc 1 375 0 is_stmt 0 discriminator 1
 3011 0c4c 009B     		ldr	r3, [sp]
 3012 0c4e 019A     		ldr	r2, [sp, #4]
 3013 0c50 9342     		cmp	r3, r2
 3014 0c52 FFF6FFAB 		blt	.L225
 395:lvgl\src\lv_font/lv_font_fmt_txt.c ****     _lv_mem_buf_release(line_buf2);
 3015              		.loc 1 395 0 is_stmt 1
 3016 0c56 2846     		mov	r0, r5
 3017              	.LVL512:
 3018 0c58 FFF7FEFF 		bl	_lv_mem_buf_release
 3019              	.LVL513:
 396:lvgl\src\lv_font/lv_font_fmt_txt.c **** }
 3020              		.loc 1 396 0
 3021 0c5c 0398     		ldr	r0, [sp, #12]
 3022 0c5e FFF7FEFF 		bl	_lv_mem_buf_release
 3023              	.LVL514:
 397:lvgl\src\lv_font/lv_font_fmt_txt.c **** 
 3024              		.loc 1 397 0
 3025 0c62 07B0     		add	sp, sp, #28
 3026              		.cfi_def_cfa_offset 36
 3027              	.LVL515:
 3028              		@ sp needed
 3029 0c64 BDE8F08F 		pop	{r4, r5, r6, r7, r8, r9, r10, fp, pc}
 3030              		.cfi_endproc
 3031              	.LFE44:
 3032              		.size	decompress, .-decompress
 3033              		.section	.text.lv_font_get_bitmap_fmt_txt,"ax",%progbits
 3034              		.align	2
 3035              		.global	lv_font_get_bitmap_fmt_txt
 3036              		.thumb
 3037              		.thumb_func
 3038              		.type	lv_font_get_bitmap_fmt_txt, %function
ARM GAS  C:\Users\strap\AppData\Local\Temp\ccKJQbxb.s 			page 73


 3039              	lv_font_get_bitmap_fmt_txt:
 3040              	.LFB37:
  81:lvgl\src\lv_font/lv_font_fmt_txt.c ****     if(unicode_letter == '\t') unicode_letter = ' ';
 3041              		.loc 1 81 0
 3042              		.cfi_startproc
 3043              		@ args = 0, pretend = 0, frame = 0
 3044              		@ frame_needed = 0, uses_anonymous_args = 0
 3045              	.LVL516:
 3046 0000 2DE9F043 		push	{r4, r5, r6, r7, r8, r9, lr}
 3047              		.cfi_def_cfa_offset 28
 3048              		.cfi_offset 4, -28
 3049              		.cfi_offset 5, -24
 3050              		.cfi_offset 6, -20
 3051              		.cfi_offset 7, -16
 3052              		.cfi_offset 8, -12
 3053              		.cfi_offset 9, -8
 3054              		.cfi_offset 14, -4
 3055 0004 83B0     		sub	sp, sp, #12
 3056              		.cfi_def_cfa_offset 40
  82:lvgl\src\lv_font/lv_font_fmt_txt.c **** 
 3057              		.loc 1 82 0
 3058 0006 0929     		cmp	r1, #9
 3059 0008 00D1     		bne	.L260
 3060 000a 2021     		movs	r1, #32
 3061              	.LVL517:
 3062              	.L260:
  84:lvgl\src\lv_font/lv_font_fmt_txt.c ****     uint32_t gid = get_glyph_dsc_id(font, unicode_letter);
 3063              		.loc 1 84 0
 3064 000c 0569     		ldr	r5, [r0, #16]
 3065              	.LVL518:
  85:lvgl\src\lv_font/lv_font_fmt_txt.c ****     if(!gid) return NULL;
 3066              		.loc 1 85 0
 3067 000e FFF7FEFF 		bl	get_glyph_dsc_id
 3068              	.LVL519:
  86:lvgl\src\lv_font/lv_font_fmt_txt.c **** 
 3069              		.loc 1 86 0
 3070 0012 8046     		mov	r8, r0
 3071 0014 0028     		cmp	r0, #0
 3072 0016 61D0     		beq	.L273
  88:lvgl\src\lv_font/lv_font_fmt_txt.c **** 
 3073              		.loc 1 88 0
 3074 0018 6F68     		ldr	r7, [r5, #4]
 3075 001a 07EBC006 		add	r6, r7, r0, lsl #3
 3076              	.LVL520:
  90:lvgl\src\lv_font/lv_font_fmt_txt.c ****         if(gdsc) return &fdsc->glyph_bitmap[gdsc->bitmap_index];
 3077              		.loc 1 90 0
 3078 001e 2B7D     		ldrb	r3, [r5, #20]	@ zero_extendqisi2
 3079 0020 13F0030F 		tst	r3, #3
 3080 0024 08D1     		bne	.L262
  91:lvgl\src\lv_font/lv_font_fmt_txt.c ****     }
 3081              		.loc 1 91 0
 3082 0026 002E     		cmp	r6, #0
 3083 0028 5AD0     		beq	.L274
  91:lvgl\src\lv_font/lv_font_fmt_txt.c ****     }
 3084              		.loc 1 91 0 is_stmt 0 discriminator 1
 3085 002a 2868     		ldr	r0, [r5]
 3086              	.LVL521:
ARM GAS  C:\Users\strap\AppData\Local\Temp\ccKJQbxb.s 			page 74


 3087 002c 57F83830 		ldr	r3, [r7, r8, lsl #3]
 3088 0030 C3F31303 		ubfx	r3, r3, #0, #20
 3089 0034 1844     		add	r0, r0, r3
 3090 0036 58E0     		b	.L261
 3091              	.LVL522:
 3092              	.L262:
 3093              	.LBB174:
  96:lvgl\src\lv_font/lv_font_fmt_txt.c ****         if(gsize == 0) return NULL;
 3094              		.loc 1 96 0 is_stmt 1
 3095 0038 3379     		ldrb	r3, [r6, #4]	@ zero_extendqisi2
 3096 003a 7479     		ldrb	r4, [r6, #5]	@ zero_extendqisi2
 3097 003c 04FB03F4 		mul	r4, r4, r3
 3098              	.LVL523:
  97:lvgl\src\lv_font/lv_font_fmt_txt.c **** 
 3099              		.loc 1 97 0
 3100 0040 002C     		cmp	r4, #0
 3101 0042 4FD0     		beq	.L275
 3102              	.LVL524:
 101:lvgl\src\lv_font/lv_font_fmt_txt.c ****             case 1:
 3103              		.loc 1 101 0
 3104 0044 EB7C     		ldrb	r3, [r5, #19]	@ zero_extendqisi2
 3105 0046 C3F38303 		ubfx	r3, r3, #2, #4
 3106 004a 013B     		subs	r3, r3, #1
 3107 004c 032B     		cmp	r3, #3
 3108 004e 0ED8     		bhi	.L263
 3109 0050 DFE803F0 		tbb	[pc, r3]
 3110              	.L265:
 3111 0054 02       		.byte	(.L264-.L265)/2
 3112 0055 05       		.byte	(.L266-.L265)/2
 3113 0056 08       		.byte	(.L267-.L265)/2
 3114 0057 0B       		.byte	(.L268-.L265)/2
 3115              		.p2align 1
 3116              	.L264:
 103:lvgl\src\lv_font/lv_font_fmt_txt.c ****                 break;
 3117              		.loc 1 103 0
 3118 0058 0734     		adds	r4, r4, #7
 3119              	.LVL525:
 3120 005a E408     		lsrs	r4, r4, #3
 3121              	.LVL526:
 104:lvgl\src\lv_font/lv_font_fmt_txt.c ****             case 2:
 3122              		.loc 1 104 0
 3123 005c 07E0     		b	.L263
 3124              	.LVL527:
 3125              	.L266:
 106:lvgl\src\lv_font/lv_font_fmt_txt.c ****                 break;
 3126              		.loc 1 106 0
 3127 005e 0334     		adds	r4, r4, #3
 3128              	.LVL528:
 3129 0060 A408     		lsrs	r4, r4, #2
 3130              	.LVL529:
 107:lvgl\src\lv_font/lv_font_fmt_txt.c ****             case 3:
 3131              		.loc 1 107 0
 3132 0062 04E0     		b	.L263
 3133              	.LVL530:
 3134              	.L267:
 109:lvgl\src\lv_font/lv_font_fmt_txt.c ****                 break;
 3135              		.loc 1 109 0
ARM GAS  C:\Users\strap\AppData\Local\Temp\ccKJQbxb.s 			page 75


 3136 0064 0134     		adds	r4, r4, #1
 3137              	.LVL531:
 3138 0066 6408     		lsrs	r4, r4, #1
 3139              	.LVL532:
 110:lvgl\src\lv_font/lv_font_fmt_txt.c ****             case 4:
 3140              		.loc 1 110 0
 3141 0068 01E0     		b	.L263
 3142              	.LVL533:
 3143              	.L268:
 112:lvgl\src\lv_font/lv_font_fmt_txt.c ****                 break;
 3144              		.loc 1 112 0
 3145 006a 0134     		adds	r4, r4, #1
 3146              	.LVL534:
 3147 006c 6408     		lsrs	r4, r4, #1
 3148              	.LVL535:
 3149              	.L263:
 116:lvgl\src\lv_font/lv_font_fmt_txt.c ****             LV_GC_ROOT(_lv_font_decompr_buf) = lv_mem_realloc(LV_GC_ROOT(_lv_font_decompr_buf), buf
 3150              		.loc 1 116 0
 3151 006e 204B     		ldr	r3, .L278
 3152 0070 1868     		ldr	r0, [r3]
 3153              	.LVL536:
 3154 0072 FFF7FEFF 		bl	_lv_mem_get_size
 3155              	.LVL537:
 3156 0076 8442     		cmp	r4, r0
 3157 0078 15D9     		bls	.L269
 117:lvgl\src\lv_font/lv_font_fmt_txt.c ****             LV_ASSERT_MEM(LV_GC_ROOT(_lv_font_decompr_buf));
 3158              		.loc 1 117 0
 3159 007a DFF87490 		ldr	r9, .L278
 3160 007e 2146     		mov	r1, r4
 3161 0080 D9F80000 		ldr	r0, [r9]
 3162 0084 FFF7FEFF 		bl	lv_mem_realloc
 3163              	.LVL538:
 3164 0088 C9F80000 		str	r0, [r9]
 118:lvgl\src\lv_font/lv_font_fmt_txt.c ****             if(LV_GC_ROOT(_lv_font_decompr_buf) == NULL) return NULL;
 3165              		.loc 1 118 0
 3166 008c FFF7FEFF 		bl	lv_debug_check_null
 3167              	.LVL539:
 3168 0090 30B9     		cbnz	r0, .L270
 118:lvgl\src\lv_font/lv_font_fmt_txt.c ****             if(LV_GC_ROOT(_lv_font_decompr_buf) == NULL) return NULL;
 3169              		.loc 1 118 0 is_stmt 0 discriminator 1
 3170 0092 D9F80020 		ldr	r2, [r9]
 3171 0096 0023     		movs	r3, #0
 3172 0098 1648     		ldr	r0, .L278+4
 3173 009a FFF7FEFF 		bl	lv_debug_log_error
 3174              	.LVL540:
 3175              	.L271:
 3176 009e FEE7     		b	.L271
 3177              	.L270:
 119:lvgl\src\lv_font/lv_font_fmt_txt.c ****         }
 3178              		.loc 1 119 0 is_stmt 1
 3179 00a0 134B     		ldr	r3, .L278
 3180 00a2 1B68     		ldr	r3, [r3]
 3181 00a4 03B3     		cbz	r3, .L276
 3182              	.L269:
 122:lvgl\src\lv_font/lv_font_fmt_txt.c ****         decompress(&fdsc->glyph_bitmap[gdsc->bitmap_index], LV_GC_ROOT(_lv_font_decompr_buf), gdsc-
 3183              		.loc 1 122 0
 3184 00a6 297D     		ldrb	r1, [r5, #20]	@ zero_extendqisi2
ARM GAS  C:\Users\strap\AppData\Local\Temp\ccKJQbxb.s 			page 76


 3185 00a8 01F00301 		and	r1, r1, #3
 3186 00ac 0129     		cmp	r1, #1
 3187 00ae 14BF     		ite	ne
 3188 00b0 0021     		movne	r1, #0
 3189 00b2 0121     		moveq	r1, #1
 3190              	.LVL541:
 123:lvgl\src\lv_font/lv_font_fmt_txt.c ****                    (uint8_t)fdsc->bpp,
 3191              		.loc 1 123 0
 3192 00b4 D5F800E0 		ldr	lr, [r5]
 3193 00b8 57F83830 		ldr	r3, [r7, r8, lsl #3]
 3194 00bc C3F31300 		ubfx	r0, r3, #0, #20
 124:lvgl\src\lv_font/lv_font_fmt_txt.c ****                    prefilter);
 3195              		.loc 1 124 0
 3196 00c0 EC7C     		ldrb	r4, [r5, #19]	@ zero_extendqisi2
 3197              	.LVL542:
 3198 00c2 C4F38304 		ubfx	r4, r4, #2, #4
 123:lvgl\src\lv_font/lv_font_fmt_txt.c ****                    (uint8_t)fdsc->bpp,
 3199              		.loc 1 123 0
 3200 00c6 7379     		ldrb	r3, [r6, #5]	@ zero_extendqisi2
 3201 00c8 3279     		ldrb	r2, [r6, #4]	@ zero_extendqisi2
 3202 00ca 094D     		ldr	r5, .L278
 3203              	.LVL543:
 3204 00cc 0191     		str	r1, [sp, #4]
 3205 00ce 0094     		str	r4, [sp]
 3206 00d0 2968     		ldr	r1, [r5]
 3207              	.LVL544:
 3208 00d2 7044     		add	r0, r0, lr
 3209 00d4 FFF7FEFF 		bl	decompress
 3210              	.LVL545:
 126:lvgl\src\lv_font/lv_font_fmt_txt.c **** #else /* !LV_USE_FONT_COMPRESSED */
 3211              		.loc 1 126 0
 3212 00d8 2868     		ldr	r0, [r5]
 3213 00da 06E0     		b	.L261
 3214              	.LVL546:
 3215              	.L273:
 3216              	.LBE174:
  86:lvgl\src\lv_font/lv_font_fmt_txt.c **** 
 3217              		.loc 1 86 0
 3218 00dc 0020     		movs	r0, #0
 3219              	.LVL547:
 3220 00de 04E0     		b	.L261
 3221              	.LVL548:
 3222              	.L274:
 133:lvgl\src\lv_font/lv_font_fmt_txt.c **** }
 3223              		.loc 1 133 0
 3224 00e0 0020     		movs	r0, #0
 3225              	.LVL549:
 3226 00e2 02E0     		b	.L261
 3227              	.LVL550:
 3228              	.L275:
 3229              	.LBB175:
  97:lvgl\src\lv_font/lv_font_fmt_txt.c **** 
 3230              		.loc 1 97 0
 3231 00e4 0020     		movs	r0, #0
 3232              	.LVL551:
 3233 00e6 00E0     		b	.L261
 3234              	.LVL552:
ARM GAS  C:\Users\strap\AppData\Local\Temp\ccKJQbxb.s 			page 77


 3235              	.L276:
 119:lvgl\src\lv_font/lv_font_fmt_txt.c ****         }
 3236              		.loc 1 119 0
 3237 00e8 0020     		movs	r0, #0
 3238              	.LVL553:
 3239              	.L261:
 3240              	.LBE175:
 134:lvgl\src\lv_font/lv_font_fmt_txt.c **** 
 3241              		.loc 1 134 0
 3242 00ea 03B0     		add	sp, sp, #12
 3243              		.cfi_def_cfa_offset 28
 3244              		@ sp needed
 3245 00ec BDE8F083 		pop	{r4, r5, r6, r7, r8, r9, pc}
 3246              	.LVL554:
 3247              	.L279:
 3248              		.align	2
 3249              	.L278:
 3250 00f0 00000000 		.word	_lv_font_decompr_buf
 3251 00f4 00000000 		.word	.LC0
 3252              		.cfi_endproc
 3253              	.LFE37:
 3254              		.size	lv_font_get_bitmap_fmt_txt, .-lv_font_get_bitmap_fmt_txt
 3255              		.section	.text.lv_font_get_glyph_dsc_fmt_txt,"ax",%progbits
 3256              		.align	2
 3257              		.global	lv_font_get_glyph_dsc_fmt_txt
 3258              		.thumb
 3259              		.thumb_func
 3260              		.type	lv_font_get_glyph_dsc_fmt_txt, %function
 3261              	lv_font_get_glyph_dsc_fmt_txt:
 3262              	.LFB38:
 146:lvgl\src\lv_font/lv_font_fmt_txt.c ****     bool is_tab = false;
 3263              		.loc 1 146 0
 3264              		.cfi_startproc
 3265              		@ args = 0, pretend = 0, frame = 0
 3266              		@ frame_needed = 0, uses_anonymous_args = 0
 3267              	.LVL555:
 3268 0000 2DE9F843 		push	{r3, r4, r5, r6, r7, r8, r9, lr}
 3269              		.cfi_def_cfa_offset 32
 3270              		.cfi_offset 3, -32
 3271              		.cfi_offset 4, -28
 3272              		.cfi_offset 5, -24
 3273              		.cfi_offset 6, -20
 3274              		.cfi_offset 7, -16
 3275              		.cfi_offset 8, -12
 3276              		.cfi_offset 9, -8
 3277              		.cfi_offset 14, -4
 3278 0004 0746     		mov	r7, r0
 3279 0006 0C46     		mov	r4, r1
 3280 0008 9946     		mov	r9, r3
 3281              	.LVL556:
 148:lvgl\src\lv_font/lv_font_fmt_txt.c ****         unicode_letter = ' ';
 3282              		.loc 1 148 0
 3283 000a 092A     		cmp	r2, #9
 3284 000c 01D0     		beq	.L285
 147:lvgl\src\lv_font/lv_font_fmt_txt.c ****     if(unicode_letter == '\t') {
 3285              		.loc 1 147 0
 3286 000e 0026     		movs	r6, #0
ARM GAS  C:\Users\strap\AppData\Local\Temp\ccKJQbxb.s 			page 78


 3287 0010 01E0     		b	.L281
 3288              	.L285:
 150:lvgl\src\lv_font/lv_font_fmt_txt.c ****     }
 3289              		.loc 1 150 0
 3290 0012 0126     		movs	r6, #1
 149:lvgl\src\lv_font/lv_font_fmt_txt.c ****         is_tab = true;
 3291              		.loc 1 149 0
 3292 0014 2022     		movs	r2, #32
 3293              	.LVL557:
 3294              	.L281:
 152:lvgl\src\lv_font/lv_font_fmt_txt.c ****     uint32_t gid = get_glyph_dsc_id(font, unicode_letter);
 3295              		.loc 1 152 0
 3296 0016 3D69     		ldr	r5, [r7, #16]
 3297              	.LVL558:
 153:lvgl\src\lv_font/lv_font_fmt_txt.c ****     if(!gid) return false;
 3298              		.loc 1 153 0
 3299 0018 1146     		mov	r1, r2
 3300              	.LVL559:
 3301 001a 3846     		mov	r0, r7
 3302              	.LVL560:
 3303 001c FFF7FEFF 		bl	get_glyph_dsc_id
 3304              	.LVL561:
 154:lvgl\src\lv_font/lv_font_fmt_txt.c **** 
 3305              		.loc 1 154 0
 3306 0020 8046     		mov	r8, r0
 3307 0022 0028     		cmp	r0, #0
 3308 0024 33D0     		beq	.L286
 3309              	.LVL562:
 157:lvgl\src\lv_font/lv_font_fmt_txt.c ****         uint32_t gid_next = get_glyph_dsc_id(font, unicode_letter_next);
 3310              		.loc 1 157 0
 3311 0026 EB68     		ldr	r3, [r5, #12]
 3312 0028 53B1     		cbz	r3, .L287
 3313              	.LBB176:
 158:lvgl\src\lv_font/lv_font_fmt_txt.c ****         if(gid_next) {
 3314              		.loc 1 158 0
 3315 002a 4946     		mov	r1, r9
 3316 002c 3846     		mov	r0, r7
 3317              	.LVL563:
 3318 002e FFF7FEFF 		bl	get_glyph_dsc_id
 3319              	.LVL564:
 159:lvgl\src\lv_font/lv_font_fmt_txt.c ****             kvalue = get_kern_value(font, gid, gid_next);
 3320              		.loc 1 159 0
 3321 0032 0246     		mov	r2, r0
 3322 0034 30B1     		cbz	r0, .L288
 160:lvgl\src\lv_font/lv_font_fmt_txt.c ****         }
 3323              		.loc 1 160 0
 3324 0036 4146     		mov	r1, r8
 3325 0038 3846     		mov	r0, r7
 3326              	.LVL565:
 3327 003a FFF7FEFF 		bl	get_kern_value
 3328              	.LVL566:
 3329 003e 02E0     		b	.L283
 3330              	.LVL567:
 3331              	.L287:
 3332              	.LBE176:
 156:lvgl\src\lv_font/lv_font_fmt_txt.c ****     if(fdsc->kern_dsc) {
 3333              		.loc 1 156 0
ARM GAS  C:\Users\strap\AppData\Local\Temp\ccKJQbxb.s 			page 79


 3334 0040 0020     		movs	r0, #0
 3335              	.LVL568:
 3336 0042 00E0     		b	.L283
 3337              	.LVL569:
 3338              	.L288:
 3339 0044 0020     		movs	r0, #0
 3340              	.LVL570:
 3341              	.L283:
 165:lvgl\src\lv_font/lv_font_fmt_txt.c **** 
 3342              		.loc 1 165 0
 3343 0046 6968     		ldr	r1, [r5, #4]
 3344 0048 01EBC801 		add	r1, r1, r8, lsl #3
 3345              	.LVL571:
 167:lvgl\src\lv_font/lv_font_fmt_txt.c **** 
 3346              		.loc 1 167 0
 3347 004c 2B8A     		ldrh	r3, [r5, #16]
 3348 004e 00FB03F3 		mul	r3, r0, r3
 3349 0052 1811     		asrs	r0, r3, #4
 3350              	.LVL572:
 169:lvgl\src\lv_font/lv_font_fmt_txt.c ****     if(is_tab) adv_w *= 2;
 3351              		.loc 1 169 0
 3352 0054 4A88     		ldrh	r2, [r1, #2]
 3353 0056 C2F30B13 		ubfx	r3, r2, #4, #12
 3354              	.LVL573:
 170:lvgl\src\lv_font/lv_font_fmt_txt.c **** 
 3355              		.loc 1 170 0
 3356 005a 06B1     		cbz	r6, .L284
 170:lvgl\src\lv_font/lv_font_fmt_txt.c **** 
 3357              		.loc 1 170 0 is_stmt 0 discriminator 1
 3358 005c 5B00     		lsls	r3, r3, #1
 3359              	.LVL574:
 3360              	.L284:
 172:lvgl\src\lv_font/lv_font_fmt_txt.c ****     adv_w  = (adv_w + (1 << 3)) >> 4;
 3361              		.loc 1 172 0 is_stmt 1
 3362 005e 0344     		add	r3, r3, r0
 3363              	.LVL575:
 173:lvgl\src\lv_font/lv_font_fmt_txt.c **** 
 3364              		.loc 1 173 0
 3365 0060 0833     		adds	r3, r3, #8
 3366              	.LVL576:
 3367 0062 1B09     		lsrs	r3, r3, #4
 3368              	.LVL577:
 175:lvgl\src\lv_font/lv_font_fmt_txt.c ****     dsc_out->box_h = gdsc->box_h;
 3369              		.loc 1 175 0
 3370 0064 2380     		strh	r3, [r4]	@ movhi
 176:lvgl\src\lv_font/lv_font_fmt_txt.c ****     dsc_out->box_w = gdsc->box_w;
 3371              		.loc 1 176 0
 3372 0066 4B79     		ldrb	r3, [r1, #5]	@ zero_extendqisi2
 3373              	.LVL578:
 3374 0068 A380     		strh	r3, [r4, #4]	@ movhi
 177:lvgl\src\lv_font/lv_font_fmt_txt.c ****     dsc_out->ofs_x = gdsc->ofs_x;
 3375              		.loc 1 177 0
 3376 006a 0A79     		ldrb	r2, [r1, #4]	@ zero_extendqisi2
 3377 006c 6280     		strh	r2, [r4, #2]	@ movhi
 178:lvgl\src\lv_font/lv_font_fmt_txt.c ****     dsc_out->ofs_y = gdsc->ofs_y;
 3378              		.loc 1 178 0
 3379 006e 91F90630 		ldrsb	r3, [r1, #6]
ARM GAS  C:\Users\strap\AppData\Local\Temp\ccKJQbxb.s 			page 80


 3380 0072 E380     		strh	r3, [r4, #6]	@ movhi
 179:lvgl\src\lv_font/lv_font_fmt_txt.c ****     dsc_out->bpp   = (uint8_t)fdsc->bpp;
 3381              		.loc 1 179 0
 3382 0074 91F90730 		ldrsb	r3, [r1, #7]
 3383 0078 2381     		strh	r3, [r4, #8]	@ movhi
 180:lvgl\src\lv_font/lv_font_fmt_txt.c **** 
 3384              		.loc 1 180 0
 3385 007a EB7C     		ldrb	r3, [r5, #19]	@ zero_extendqisi2
 3386 007c C3F38303 		ubfx	r3, r3, #2, #4
 3387 0080 A372     		strb	r3, [r4, #10]
 182:lvgl\src\lv_font/lv_font_fmt_txt.c **** 
 3388              		.loc 1 182 0
 3389 0082 3EB1     		cbz	r6, .L289
 182:lvgl\src\lv_font/lv_font_fmt_txt.c **** 
 3390              		.loc 1 182 0 is_stmt 0 discriminator 1
 3391 0084 5200     		lsls	r2, r2, #1
 3392 0086 6280     		strh	r2, [r4, #2]	@ movhi
 184:lvgl\src\lv_font/lv_font_fmt_txt.c **** }
 3393              		.loc 1 184 0 is_stmt 1 discriminator 1
 3394 0088 0120     		movs	r0, #1
 3395              	.LVL579:
 3396 008a BDE8F883 		pop	{r3, r4, r5, r6, r7, r8, r9, pc}
 3397              	.LVL580:
 3398              	.L286:
 154:lvgl\src\lv_font/lv_font_fmt_txt.c **** 
 3399              		.loc 1 154 0
 3400 008e 0020     		movs	r0, #0
 3401              	.LVL581:
 3402 0090 BDE8F883 		pop	{r3, r4, r5, r6, r7, r8, r9, pc}
 3403              	.LVL582:
 3404              	.L289:
 184:lvgl\src\lv_font/lv_font_fmt_txt.c **** }
 3405              		.loc 1 184 0
 3406 0094 0120     		movs	r0, #1
 3407              	.LVL583:
 185:lvgl\src\lv_font/lv_font_fmt_txt.c **** 
 3408              		.loc 1 185 0
 3409 0096 BDE8F883 		pop	{r3, r4, r5, r6, r7, r8, r9, pc}
 3410              		.cfi_endproc
 3411              	.LFE38:
 3412              		.size	lv_font_get_glyph_dsc_fmt_txt, .-lv_font_get_glyph_dsc_fmt_txt
 3413 009a 00BF     		.section	.text._lv_font_clean_up_fmt_txt,"ax",%progbits
 3414              		.align	2
 3415              		.global	_lv_font_clean_up_fmt_txt
 3416              		.thumb
 3417              		.thumb_func
 3418              		.type	_lv_font_clean_up_fmt_txt, %function
 3419              	_lv_font_clean_up_fmt_txt:
 3420              	.LFB39:
 191:lvgl\src\lv_font/lv_font_fmt_txt.c ****     if(LV_GC_ROOT(_lv_font_decompr_buf)) {
 3421              		.loc 1 191 0
 3422              		.cfi_startproc
 3423              		@ args = 0, pretend = 0, frame = 0
 3424              		@ frame_needed = 0, uses_anonymous_args = 0
 3425 0000 08B5     		push	{r3, lr}
 3426              		.cfi_def_cfa_offset 8
 3427              		.cfi_offset 3, -8
ARM GAS  C:\Users\strap\AppData\Local\Temp\ccKJQbxb.s 			page 81


 3428              		.cfi_offset 14, -4
 192:lvgl\src\lv_font/lv_font_fmt_txt.c ****         lv_mem_free(LV_GC_ROOT(_lv_font_decompr_buf));
 3429              		.loc 1 192 0
 3430 0002 044B     		ldr	r3, .L294
 3431 0004 1868     		ldr	r0, [r3]
 3432 0006 20B1     		cbz	r0, .L291
 193:lvgl\src\lv_font/lv_font_fmt_txt.c ****         LV_GC_ROOT(_lv_font_decompr_buf) = NULL;
 3433              		.loc 1 193 0
 3434 0008 FFF7FEFF 		bl	lv_mem_free
 3435              	.LVL584:
 194:lvgl\src\lv_font/lv_font_fmt_txt.c ****     }
 3436              		.loc 1 194 0
 3437 000c 0022     		movs	r2, #0
 3438 000e 014B     		ldr	r3, .L294
 3439 0010 1A60     		str	r2, [r3]
 3440              	.L291:
 3441 0012 08BD     		pop	{r3, pc}
 3442              	.L295:
 3443              		.align	2
 3444              	.L294:
 3445 0014 00000000 		.word	_lv_font_decompr_buf
 3446              		.cfi_endproc
 3447              	.LFE39:
 3448              		.size	_lv_font_clean_up_fmt_txt, .-_lv_font_clean_up_fmt_txt
 3449              		.section	.rodata.str1.4,"aMS",%progbits,1
 3450              		.align	2
 3451              	.LC0:
 3452 0000 4F757420 		.ascii	"Out of memory\000"
 3452      6F66206D 
 3452      656D6F72 
 3452      7900
 3453              		.bss
 3454              		.align	2
 3455              		.set	.LANCHOR0,. + 0
 3456              		.type	rle_in, %object
 3457              		.size	rle_in, 4
 3458              	rle_in:
 3459 0000 00000000 		.space	4
 3460              		.type	rle_bpp, %object
 3461              		.size	rle_bpp, 1
 3462              	rle_bpp:
 3463 0004 00       		.space	1
 3464              		.type	rle_state, %object
 3465              		.size	rle_state, 1
 3466              	rle_state:
 3467 0005 00       		.space	1
 3468 0006 0000     		.space	2
 3469              		.type	rle_rdp, %object
 3470              		.size	rle_rdp, 4
 3471              	rle_rdp:
 3472 0008 00000000 		.space	4
 3473              		.type	rle_prev_v, %object
 3474              		.size	rle_prev_v, 1
 3475              	rle_prev_v:
 3476 000c 00       		.space	1
 3477              		.type	rle_cnt, %object
 3478              		.size	rle_cnt, 1
ARM GAS  C:\Users\strap\AppData\Local\Temp\ccKJQbxb.s 			page 82


 3479              	rle_cnt:
 3480 000d 00       		.space	1
 3481              		.text
 3482              	.Letext0:
 3483              		.file 2 "c:\\program files (x86)\\cypress\\psoc creator\\4.4\\psoc creator\\import\\gnu\\arm\\5.4.
 3484              		.file 3 "c:\\program files (x86)\\cypress\\psoc creator\\4.4\\psoc creator\\import\\gnu\\arm\\5.4.
 3485              		.file 4 "lvgl\\src\\lv_font\\../../../lv_conf.h"
 3486              		.file 5 "lvgl\\src\\lv_font\\../lv_misc/lv_types.h"
 3487              		.file 6 "lvgl\\src\\lv_font\\lv_font.h"
 3488              		.file 7 "lvgl\\src\\lv_font\\lv_font_fmt_txt.h"
 3489              		.file 8 "lvgl\\src\\lv_font\\../lv_misc/lv_utils.h"
 3490              		.file 9 "lvgl\\src\\lv_font\\../lv_misc/lv_mem.h"
 3491              		.file 10 "lvgl\\src\\lv_font\\../lv_misc/lv_debug.h"
 3492              		.file 11 "lvgl\\src\\lv_font\\../lv_misc/lv_gc.h"
 3493              		.section	.debug_info,"",%progbits
 3494              	.Ldebug_info0:
 3495 0000 AA170000 		.4byte	0x17aa
 3496 0004 0400     		.2byte	0x4
 3497 0006 00000000 		.4byte	.Ldebug_abbrev0
 3498 000a 04       		.byte	0x4
 3499 000b 01       		.uleb128 0x1
 3500 000c 65060000 		.4byte	.LASF154
 3501 0010 0C       		.byte	0xc
 3502 0011 43000000 		.4byte	.LASF155
 3503 0015 0B050000 		.4byte	.LASF156
 3504 0019 60000000 		.4byte	.Ldebug_ranges0+0x60
 3505 001d 00000000 		.4byte	0
 3506 0021 00000000 		.4byte	.Ldebug_line0
 3507 0025 02       		.uleb128 0x2
 3508 0026 FD000000 		.4byte	.LASF0
 3509 002a 02       		.byte	0x2
 3510 002b 1B       		.byte	0x1b
 3511 002c 30000000 		.4byte	0x30
 3512 0030 03       		.uleb128 0x3
 3513 0031 01       		.byte	0x1
 3514 0032 06       		.byte	0x6
 3515 0033 4B010000 		.4byte	.LASF2
 3516 0037 02       		.uleb128 0x2
 3517 0038 A1000000 		.4byte	.LASF1
 3518 003c 02       		.byte	0x2
 3519 003d 1D       		.byte	0x1d
 3520 003e 42000000 		.4byte	0x42
 3521 0042 03       		.uleb128 0x3
 3522 0043 01       		.byte	0x1
 3523 0044 08       		.byte	0x8
 3524 0045 10060000 		.4byte	.LASF3
 3525 0049 02       		.uleb128 0x2
 3526 004a D4020000 		.4byte	.LASF4
 3527 004e 02       		.byte	0x2
 3528 004f 29       		.byte	0x29
 3529 0050 54000000 		.4byte	0x54
 3530 0054 03       		.uleb128 0x3
 3531 0055 02       		.byte	0x2
 3532 0056 05       		.byte	0x5
 3533 0057 38060000 		.4byte	.LASF5
 3534 005b 02       		.uleb128 0x2
 3535 005c 6B070000 		.4byte	.LASF6
ARM GAS  C:\Users\strap\AppData\Local\Temp\ccKJQbxb.s 			page 83


 3536 0060 02       		.byte	0x2
 3537 0061 2B       		.byte	0x2b
 3538 0062 66000000 		.4byte	0x66
 3539 0066 03       		.uleb128 0x3
 3540 0067 02       		.byte	0x2
 3541 0068 07       		.byte	0x7
 3542 0069 96030000 		.4byte	.LASF7
 3543 006d 02       		.uleb128 0x2
 3544 006e 3E040000 		.4byte	.LASF8
 3545 0072 02       		.byte	0x2
 3546 0073 3F       		.byte	0x3f
 3547 0074 78000000 		.4byte	0x78
 3548 0078 03       		.uleb128 0x3
 3549 0079 04       		.byte	0x4
 3550 007a 05       		.byte	0x5
 3551 007b E2010000 		.4byte	.LASF9
 3552 007f 02       		.uleb128 0x2
 3553 0080 AE020000 		.4byte	.LASF10
 3554 0084 02       		.byte	0x2
 3555 0085 41       		.byte	0x41
 3556 0086 8A000000 		.4byte	0x8a
 3557 008a 03       		.uleb128 0x3
 3558 008b 04       		.byte	0x4
 3559 008c 07       		.byte	0x7
 3560 008d 58030000 		.4byte	.LASF11
 3561 0091 03       		.uleb128 0x3
 3562 0092 08       		.byte	0x8
 3563 0093 05       		.byte	0x5
 3564 0094 3D010000 		.4byte	.LASF12
 3565 0098 02       		.uleb128 0x2
 3566 0099 9A050000 		.4byte	.LASF13
 3567 009d 02       		.byte	0x2
 3568 009e 5B       		.byte	0x5b
 3569 009f A3000000 		.4byte	0xa3
 3570 00a3 03       		.uleb128 0x3
 3571 00a4 08       		.byte	0x8
 3572 00a5 07       		.byte	0x7
 3573 00a6 DE020000 		.4byte	.LASF14
 3574 00aa 04       		.uleb128 0x4
 3575 00ab 04       		.byte	0x4
 3576 00ac 05       		.byte	0x5
 3577 00ad 696E7400 		.ascii	"int\000"
 3578 00b1 02       		.uleb128 0x2
 3579 00b2 59060000 		.4byte	.LASF15
 3580 00b6 02       		.byte	0x2
 3581 00b7 CA       		.byte	0xca
 3582 00b8 BC000000 		.4byte	0xbc
 3583 00bc 03       		.uleb128 0x3
 3584 00bd 04       		.byte	0x4
 3585 00be 07       		.byte	0x7
 3586 00bf 17030000 		.4byte	.LASF16
 3587 00c3 02       		.uleb128 0x2
 3588 00c4 E0070000 		.4byte	.LASF17
 3589 00c8 03       		.byte	0x3
 3590 00c9 14       		.byte	0x14
 3591 00ca 25000000 		.4byte	0x25
 3592 00ce 02       		.uleb128 0x2
ARM GAS  C:\Users\strap\AppData\Local\Temp\ccKJQbxb.s 			page 84


 3593 00cf 77080000 		.4byte	.LASF18
 3594 00d3 03       		.byte	0x3
 3595 00d4 18       		.byte	0x18
 3596 00d5 37000000 		.4byte	0x37
 3597 00d9 02       		.uleb128 0x2
 3598 00da 35010000 		.4byte	.LASF19
 3599 00de 03       		.byte	0x3
 3600 00df 20       		.byte	0x20
 3601 00e0 49000000 		.4byte	0x49
 3602 00e4 02       		.uleb128 0x2
 3603 00e5 FE010000 		.4byte	.LASF20
 3604 00e9 03       		.byte	0x3
 3605 00ea 24       		.byte	0x24
 3606 00eb 5B000000 		.4byte	0x5b
 3607 00ef 02       		.uleb128 0x2
 3608 00f0 08060000 		.4byte	.LASF21
 3609 00f4 03       		.byte	0x3
 3610 00f5 2C       		.byte	0x2c
 3611 00f6 6D000000 		.4byte	0x6d
 3612 00fa 02       		.uleb128 0x2
 3613 00fb 02090000 		.4byte	.LASF22
 3614 00ff 03       		.byte	0x3
 3615 0100 30       		.byte	0x30
 3616 0101 7F000000 		.4byte	0x7f
 3617 0105 02       		.uleb128 0x2
 3618 0106 98000000 		.4byte	.LASF23
 3619 010a 03       		.byte	0x3
 3620 010b 3C       		.byte	0x3c
 3621 010c 98000000 		.4byte	0x98
 3622 0110 02       		.uleb128 0x2
 3623 0111 8E000000 		.4byte	.LASF24
 3624 0115 03       		.byte	0x3
 3625 0116 48       		.byte	0x48
 3626 0117 B1000000 		.4byte	0xb1
 3627 011b 02       		.uleb128 0x2
 3628 011c 2A010000 		.4byte	.LASF25
 3629 0120 04       		.byte	0x4
 3630 0121 46       		.byte	0x46
 3631 0122 D9000000 		.4byte	0xd9
 3632 0126 05       		.uleb128 0x5
 3633 0127 04       		.byte	0x4
 3634 0128 06       		.uleb128 0x6
 3635 0129 66000000 		.4byte	.LASF26
 3636 012d 04       		.byte	0x4
 3637 012e A901     		.2byte	0x1a9
 3638 0130 26010000 		.4byte	0x126
 3639 0134 03       		.uleb128 0x3
 3640 0135 08       		.byte	0x8
 3641 0136 04       		.byte	0x4
 3642 0137 50070000 		.4byte	.LASF27
 3643 013b 03       		.uleb128 0x3
 3644 013c 04       		.byte	0x4
 3645 013d 07       		.byte	0x7
 3646 013e A7040000 		.4byte	.LASF28
 3647 0142 03       		.uleb128 0x3
 3648 0143 01       		.byte	0x1
 3649 0144 08       		.byte	0x8
ARM GAS  C:\Users\strap\AppData\Local\Temp\ccKJQbxb.s 			page 85


 3650 0145 5C070000 		.4byte	.LASF29
 3651 0149 02       		.uleb128 0x2
 3652 014a 8D050000 		.4byte	.LASF30
 3653 014e 05       		.byte	0x5
 3654 014f 3A       		.byte	0x3a
 3655 0150 10010000 		.4byte	0x110
 3656 0154 07       		.uleb128 0x7
 3657 0155 0C       		.byte	0xc
 3658 0156 06       		.byte	0x6
 3659 0157 2A       		.byte	0x2a
 3660 0158 A5010000 		.4byte	0x1a5
 3661 015c 08       		.uleb128 0x8
 3662 015d 92070000 		.4byte	.LASF31
 3663 0161 06       		.byte	0x6
 3664 0162 2B       		.byte	0x2b
 3665 0163 E4000000 		.4byte	0xe4
 3666 0167 00       		.byte	0
 3667 0168 08       		.uleb128 0x8
 3668 0169 21080000 		.4byte	.LASF32
 3669 016d 06       		.byte	0x6
 3670 016e 2C       		.byte	0x2c
 3671 016f E4000000 		.4byte	0xe4
 3672 0173 02       		.byte	0x2
 3673 0174 08       		.uleb128 0x8
 3674 0175 01080000 		.4byte	.LASF33
 3675 0179 06       		.byte	0x6
 3676 017a 2D       		.byte	0x2d
 3677 017b E4000000 		.4byte	0xe4
 3678 017f 04       		.byte	0x4
 3679 0180 08       		.uleb128 0x8
 3680 0181 AB080000 		.4byte	.LASF34
 3681 0185 06       		.byte	0x6
 3682 0186 2E       		.byte	0x2e
 3683 0187 D9000000 		.4byte	0xd9
 3684 018b 06       		.byte	0x6
 3685 018c 08       		.uleb128 0x8
 3686 018d B1080000 		.4byte	.LASF35
 3687 0191 06       		.byte	0x6
 3688 0192 2F       		.byte	0x2f
 3689 0193 D9000000 		.4byte	0xd9
 3690 0197 08       		.byte	0x8
 3691 0198 09       		.uleb128 0x9
 3692 0199 62707000 		.ascii	"bpp\000"
 3693 019d 06       		.byte	0x6
 3694 019e 30       		.byte	0x30
 3695 019f CE000000 		.4byte	0xce
 3696 01a3 0A       		.byte	0xa
 3697 01a4 00       		.byte	0
 3698 01a5 02       		.uleb128 0x2
 3699 01a6 55040000 		.4byte	.LASF36
 3700 01aa 06       		.byte	0x6
 3701 01ab 31       		.byte	0x31
 3702 01ac 54010000 		.4byte	0x154
 3703 01b0 0A       		.uleb128 0xa
 3704 01b1 27080000 		.4byte	.LASF157
 3705 01b5 18       		.byte	0x18
 3706 01b6 06       		.byte	0x6
ARM GAS  C:\Users\strap\AppData\Local\Temp\ccKJQbxb.s 			page 86


 3707 01b7 3F       		.byte	0x3f
 3708 01b8 2C020000 		.4byte	0x22c
 3709 01bc 08       		.uleb128 0x8
 3710 01bd 24030000 		.4byte	.LASF37
 3711 01c1 06       		.byte	0x6
 3712 01c2 41       		.byte	0x41
 3713 01c3 62020000 		.4byte	0x262
 3714 01c7 00       		.byte	0
 3715 01c8 08       		.uleb128 0x8
 3716 01c9 32000000 		.4byte	.LASF38
 3717 01cd 06       		.byte	0x6
 3718 01ce 44       		.byte	0x44
 3719 01cf 87020000 		.4byte	0x287
 3720 01d3 04       		.byte	0x4
 3721 01d4 08       		.uleb128 0x8
 3722 01d5 B6030000 		.4byte	.LASF39
 3723 01d9 06       		.byte	0x6
 3724 01da 47       		.byte	0x47
 3725 01db 1B010000 		.4byte	0x11b
 3726 01df 08       		.byte	0x8
 3727 01e0 08       		.uleb128 0x8
 3728 01e1 C0050000 		.4byte	.LASF40
 3729 01e5 06       		.byte	0x6
 3730 01e6 48       		.byte	0x48
 3731 01e7 1B010000 		.4byte	0x11b
 3732 01eb 0A       		.byte	0xa
 3733 01ec 0B       		.uleb128 0xb
 3734 01ed D6030000 		.4byte	.LASF46
 3735 01f1 06       		.byte	0x6
 3736 01f2 49       		.byte	0x49
 3737 01f3 CE000000 		.4byte	0xce
 3738 01f7 01       		.byte	0x1
 3739 01f8 02       		.byte	0x2
 3740 01f9 06       		.byte	0x6
 3741 01fa 0C       		.byte	0xc
 3742 01fb 08       		.uleb128 0x8
 3743 01fc 64010000 		.4byte	.LASF41
 3744 0200 06       		.byte	0x6
 3745 0201 4B       		.byte	0x4b
 3746 0202 C3000000 		.4byte	0xc3
 3747 0206 0D       		.byte	0xd
 3748 0207 08       		.uleb128 0x8
 3749 0208 01070000 		.4byte	.LASF42
 3750 020c 06       		.byte	0x6
 3751 020d 4C       		.byte	0x4c
 3752 020e C3000000 		.4byte	0xc3
 3753 0212 0E       		.byte	0xe
 3754 0213 09       		.uleb128 0x9
 3755 0214 64736300 		.ascii	"dsc\000"
 3756 0218 06       		.byte	0x6
 3757 0219 4E       		.byte	0x4e
 3758 021a 26010000 		.4byte	0x126
 3759 021e 10       		.byte	0x10
 3760 021f 08       		.uleb128 0x8
 3761 0220 CA020000 		.4byte	.LASF43
 3762 0224 06       		.byte	0x6
 3763 0225 50       		.byte	0x50
ARM GAS  C:\Users\strap\AppData\Local\Temp\ccKJQbxb.s 			page 87


 3764 0226 28010000 		.4byte	0x128
 3765 022a 14       		.byte	0x14
 3766 022b 00       		.byte	0
 3767 022c 0C       		.uleb128 0xc
 3768 022d 4A020000 		.4byte	0x24a
 3769 0231 4A020000 		.4byte	0x24a
 3770 0235 0D       		.uleb128 0xd
 3771 0236 51020000 		.4byte	0x251
 3772 023a 0D       		.uleb128 0xd
 3773 023b 5C020000 		.4byte	0x25c
 3774 023f 0D       		.uleb128 0xd
 3775 0240 FA000000 		.4byte	0xfa
 3776 0244 0D       		.uleb128 0xd
 3777 0245 FA000000 		.4byte	0xfa
 3778 0249 00       		.byte	0
 3779 024a 03       		.uleb128 0x3
 3780 024b 01       		.byte	0x1
 3781 024c 02       		.byte	0x2
 3782 024d 02060000 		.4byte	.LASF44
 3783 0251 0E       		.uleb128 0xe
 3784 0252 04       		.byte	0x4
 3785 0253 57020000 		.4byte	0x257
 3786 0257 0F       		.uleb128 0xf
 3787 0258 B0010000 		.4byte	0x1b0
 3788 025c 0E       		.uleb128 0xe
 3789 025d 04       		.byte	0x4
 3790 025e A5010000 		.4byte	0x1a5
 3791 0262 0E       		.uleb128 0xe
 3792 0263 04       		.byte	0x4
 3793 0264 2C020000 		.4byte	0x22c
 3794 0268 0C       		.uleb128 0xc
 3795 0269 7C020000 		.4byte	0x27c
 3796 026d 7C020000 		.4byte	0x27c
 3797 0271 0D       		.uleb128 0xd
 3798 0272 51020000 		.4byte	0x251
 3799 0276 0D       		.uleb128 0xd
 3800 0277 FA000000 		.4byte	0xfa
 3801 027b 00       		.byte	0
 3802 027c 0E       		.uleb128 0xe
 3803 027d 04       		.byte	0x4
 3804 027e 82020000 		.4byte	0x282
 3805 0282 0F       		.uleb128 0xf
 3806 0283 CE000000 		.4byte	0xce
 3807 0287 0E       		.uleb128 0xe
 3808 0288 04       		.byte	0x4
 3809 0289 68020000 		.4byte	0x268
 3810 028d 02       		.uleb128 0x2
 3811 028e CA000000 		.4byte	.LASF45
 3812 0292 06       		.byte	0x6
 3813 0293 54       		.byte	0x54
 3814 0294 B0010000 		.4byte	0x1b0
 3815 0298 07       		.uleb128 0x7
 3816 0299 08       		.byte	0x8
 3817 029a 07       		.byte	0x7
 3818 029b 1E       		.byte	0x1e
 3819 029c EF020000 		.4byte	0x2ef
 3820 02a0 0B       		.uleb128 0xb
ARM GAS  C:\Users\strap\AppData\Local\Temp\ccKJQbxb.s 			page 88


 3821 02a1 57010000 		.4byte	.LASF47
 3822 02a5 07       		.byte	0x7
 3823 02a6 20       		.byte	0x20
 3824 02a7 FA000000 		.4byte	0xfa
 3825 02ab 04       		.byte	0x4
 3826 02ac 14       		.byte	0x14
 3827 02ad 0C       		.byte	0xc
 3828 02ae 00       		.byte	0
 3829 02af 0B       		.uleb128 0xb
 3830 02b0 92070000 		.4byte	.LASF31
 3831 02b4 07       		.byte	0x7
 3832 02b5 21       		.byte	0x21
 3833 02b6 FA000000 		.4byte	0xfa
 3834 02ba 04       		.byte	0x4
 3835 02bb 0C       		.byte	0xc
 3836 02bc 00       		.byte	0
 3837 02bd 00       		.byte	0
 3838 02be 08       		.uleb128 0x8
 3839 02bf 21080000 		.4byte	.LASF32
 3840 02c3 07       		.byte	0x7
 3841 02c4 22       		.byte	0x22
 3842 02c5 CE000000 		.4byte	0xce
 3843 02c9 04       		.byte	0x4
 3844 02ca 08       		.uleb128 0x8
 3845 02cb 01080000 		.4byte	.LASF33
 3846 02cf 07       		.byte	0x7
 3847 02d0 23       		.byte	0x23
 3848 02d1 CE000000 		.4byte	0xce
 3849 02d5 05       		.byte	0x5
 3850 02d6 08       		.uleb128 0x8
 3851 02d7 AB080000 		.4byte	.LASF34
 3852 02db 07       		.byte	0x7
 3853 02dc 24       		.byte	0x24
 3854 02dd C3000000 		.4byte	0xc3
 3855 02e1 06       		.byte	0x6
 3856 02e2 08       		.uleb128 0x8
 3857 02e3 B1080000 		.4byte	.LASF35
 3858 02e7 07       		.byte	0x7
 3859 02e8 25       		.byte	0x25
 3860 02e9 C3000000 		.4byte	0xc3
 3861 02ed 07       		.byte	0x7
 3862 02ee 00       		.byte	0
 3863 02ef 02       		.uleb128 0x2
 3864 02f0 D3050000 		.4byte	.LASF48
 3865 02f4 07       		.byte	0x7
 3866 02f5 2E       		.byte	0x2e
 3867 02f6 98020000 		.4byte	0x298
 3868 02fa 10       		.uleb128 0x10
 3869 02fb 01       		.byte	0x1
 3870 02fc 42000000 		.4byte	0x42
 3871 0300 07       		.byte	0x7
 3872 0301 32       		.byte	0x32
 3873 0302 1F030000 		.4byte	0x31f
 3874 0306 11       		.uleb128 0x11
 3875 0307 7F080000 		.4byte	.LASF49
 3876 030b 00       		.byte	0
 3877 030c 11       		.uleb128 0x11
ARM GAS  C:\Users\strap\AppData\Local\Temp\ccKJQbxb.s 			page 89


 3878 030d 0B090000 		.4byte	.LASF50
 3879 0311 01       		.byte	0x1
 3880 0312 11       		.uleb128 0x11
 3881 0313 B7010000 		.4byte	.LASF51
 3882 0317 02       		.byte	0x2
 3883 0318 11       		.uleb128 0x11
 3884 0319 8D020000 		.4byte	.LASF52
 3885 031d 03       		.byte	0x3
 3886 031e 00       		.byte	0
 3887 031f 02       		.uleb128 0x2
 3888 0320 4B050000 		.4byte	.LASF53
 3889 0324 07       		.byte	0x7
 3890 0325 39       		.byte	0x39
 3891 0326 CE000000 		.4byte	0xce
 3892 032a 07       		.uleb128 0x7
 3893 032b 14       		.byte	0x14
 3894 032c 07       		.byte	0x7
 3895 032d 40       		.byte	0x40
 3896 032e 87030000 		.4byte	0x387
 3897 0332 08       		.uleb128 0x8
 3898 0333 30070000 		.4byte	.LASF54
 3899 0337 07       		.byte	0x7
 3900 0338 42       		.byte	0x42
 3901 0339 FA000000 		.4byte	0xfa
 3902 033d 00       		.byte	0
 3903 033e 08       		.uleb128 0x8
 3904 033f A9030000 		.4byte	.LASF55
 3905 0343 07       		.byte	0x7
 3906 0344 46       		.byte	0x46
 3907 0345 E4000000 		.4byte	0xe4
 3908 0349 04       		.byte	0x4
 3909 034a 08       		.uleb128 0x8
 3910 034b A7070000 		.4byte	.LASF56
 3911 034f 07       		.byte	0x7
 3912 0350 49       		.byte	0x49
 3913 0351 E4000000 		.4byte	0xe4
 3914 0355 06       		.byte	0x6
 3915 0356 08       		.uleb128 0x8
 3916 0357 80050000 		.4byte	.LASF57
 3917 035b 07       		.byte	0x7
 3918 035c 66       		.byte	0x66
 3919 035d 87030000 		.4byte	0x387
 3920 0361 08       		.byte	0x8
 3921 0362 08       		.uleb128 0x8
 3922 0363 EA040000 		.4byte	.LASF58
 3923 0367 07       		.byte	0x7
 3924 0368 6B       		.byte	0x6b
 3925 0369 92030000 		.4byte	0x392
 3926 036d 0C       		.byte	0xc
 3927 036e 08       		.uleb128 0x8
 3928 036f 26000000 		.4byte	.LASF59
 3929 0373 07       		.byte	0x7
 3930 0374 6E       		.byte	0x6e
 3931 0375 E4000000 		.4byte	0xe4
 3932 0379 10       		.byte	0x10
 3933 037a 08       		.uleb128 0x8
 3934 037b AB000000 		.4byte	.LASF60
ARM GAS  C:\Users\strap\AppData\Local\Temp\ccKJQbxb.s 			page 90


 3935 037f 07       		.byte	0x7
 3936 0380 71       		.byte	0x71
 3937 0381 1F030000 		.4byte	0x31f
 3938 0385 12       		.byte	0x12
 3939 0386 00       		.byte	0
 3940 0387 0E       		.uleb128 0xe
 3941 0388 04       		.byte	0x4
 3942 0389 8D030000 		.4byte	0x38d
 3943 038d 0F       		.uleb128 0xf
 3944 038e E4000000 		.4byte	0xe4
 3945 0392 0E       		.uleb128 0xe
 3946 0393 04       		.byte	0x4
 3947 0394 98030000 		.4byte	0x398
 3948 0398 12       		.uleb128 0x12
 3949 0399 02       		.uleb128 0x2
 3950 039a DC030000 		.4byte	.LASF61
 3951 039e 07       		.byte	0x7
 3952 039f 72       		.byte	0x72
 3953 03a0 2A030000 		.4byte	0x32a
 3954 03a4 07       		.uleb128 0x7
 3955 03a5 0C       		.byte	0xc
 3956 03a6 07       		.byte	0x7
 3957 03a7 75       		.byte	0x75
 3958 03a8 E3030000 		.4byte	0x3e3
 3959 03ac 08       		.uleb128 0x8
 3960 03ad 61070000 		.4byte	.LASF62
 3961 03b1 07       		.byte	0x7
 3962 03b2 7D       		.byte	0x7d
 3963 03b3 92030000 		.4byte	0x392
 3964 03b7 00       		.byte	0
 3965 03b8 08       		.uleb128 0x8
 3966 03b9 DA000000 		.4byte	.LASF63
 3967 03bd 07       		.byte	0x7
 3968 03be 7E       		.byte	0x7e
 3969 03bf E3030000 		.4byte	0x3e3
 3970 03c3 04       		.byte	0x4
 3971 03c4 0B       		.uleb128 0xb
 3972 03c5 F9050000 		.4byte	.LASF64
 3973 03c9 07       		.byte	0x7
 3974 03ca 7F       		.byte	0x7f
 3975 03cb FA000000 		.4byte	0xfa
 3976 03cf 04       		.byte	0x4
 3977 03d0 18       		.byte	0x18
 3978 03d1 08       		.byte	0x8
 3979 03d2 08       		.byte	0x8
 3980 03d3 0B       		.uleb128 0xb
 3981 03d4 A8010000 		.4byte	.LASF65
 3982 03d8 07       		.byte	0x7
 3983 03d9 80       		.byte	0x80
 3984 03da FA000000 		.4byte	0xfa
 3985 03de 04       		.byte	0x4
 3986 03df 02       		.byte	0x2
 3987 03e0 06       		.byte	0x6
 3988 03e1 08       		.byte	0x8
 3989 03e2 00       		.byte	0
 3990 03e3 0E       		.uleb128 0xe
 3991 03e4 04       		.byte	0x4
ARM GAS  C:\Users\strap\AppData\Local\Temp\ccKJQbxb.s 			page 91


 3992 03e5 E9030000 		.4byte	0x3e9
 3993 03e9 0F       		.uleb128 0xf
 3994 03ea C3000000 		.4byte	0xc3
 3995 03ee 02       		.uleb128 0x2
 3996 03ef 0A000000 		.4byte	.LASF66
 3997 03f3 07       		.byte	0x7
 3998 03f4 81       		.byte	0x81
 3999 03f5 A4030000 		.4byte	0x3a4
 4000 03f9 07       		.uleb128 0x7
 4001 03fa 10       		.byte	0x10
 4002 03fb 07       		.byte	0x7
 4003 03fc 84       		.byte	0x84
 4004 03fd 3E040000 		.4byte	0x43e
 4005 0401 08       		.uleb128 0x8
 4006 0402 EF070000 		.4byte	.LASF67
 4007 0406 07       		.byte	0x7
 4008 0407 8D       		.byte	0x8d
 4009 0408 E3030000 		.4byte	0x3e3
 4010 040c 00       		.byte	0
 4011 040d 08       		.uleb128 0x8
 4012 040e 3F080000 		.4byte	.LASF68
 4013 0412 07       		.byte	0x7
 4014 0413 8E       		.byte	0x8e
 4015 0414 7C020000 		.4byte	0x27c
 4016 0418 04       		.byte	0x4
 4017 0419 08       		.uleb128 0x8
 4018 041a 7A000000 		.4byte	.LASF69
 4019 041e 07       		.byte	0x7
 4020 041f 8F       		.byte	0x8f
 4021 0420 7C020000 		.4byte	0x27c
 4022 0424 08       		.byte	0x8
 4023 0425 08       		.uleb128 0x8
 4024 0426 07080000 		.4byte	.LASF70
 4025 042a 07       		.byte	0x7
 4026 042b 90       		.byte	0x90
 4027 042c CE000000 		.4byte	0xce
 4028 0430 0C       		.byte	0xc
 4029 0431 08       		.uleb128 0x8
 4030 0432 48030000 		.4byte	.LASF71
 4031 0436 07       		.byte	0x7
 4032 0437 91       		.byte	0x91
 4033 0438 CE000000 		.4byte	0xce
 4034 043c 0D       		.byte	0xd
 4035 043d 00       		.byte	0
 4036 043e 02       		.uleb128 0x2
 4037 043f 89010000 		.4byte	.LASF72
 4038 0443 07       		.byte	0x7
 4039 0444 92       		.byte	0x92
 4040 0445 F9030000 		.4byte	0x3f9
 4041 0449 10       		.uleb128 0x10
 4042 044a 01       		.byte	0x1
 4043 044b 42000000 		.4byte	0x42
 4044 044f 07       		.byte	0x7
 4045 0450 96       		.byte	0x96
 4046 0451 68040000 		.4byte	0x468
 4047 0455 11       		.uleb128 0x11
 4048 0456 77020000 		.4byte	.LASF73
ARM GAS  C:\Users\strap\AppData\Local\Temp\ccKJQbxb.s 			page 92


 4049 045a 00       		.byte	0
 4050 045b 11       		.uleb128 0x11
 4051 045c 42020000 		.4byte	.LASF74
 4052 0460 01       		.byte	0x1
 4053 0461 11       		.uleb128 0x11
 4054 0462 0D040000 		.4byte	.LASF75
 4055 0466 01       		.byte	0x1
 4056 0467 00       		.byte	0
 4057 0468 07       		.uleb128 0x7
 4058 0469 20       		.byte	0x20
 4059 046a 07       		.byte	0x7
 4060 046b 9E       		.byte	0x9e
 4061 046c 01050000 		.4byte	0x501
 4062 0470 08       		.uleb128 0x8
 4063 0471 48040000 		.4byte	.LASF76
 4064 0475 07       		.byte	0x7
 4065 0476 A0       		.byte	0xa0
 4066 0477 7C020000 		.4byte	0x27c
 4067 047b 00       		.byte	0
 4068 047c 08       		.uleb128 0x8
 4069 047d 00000000 		.4byte	.LASF77
 4070 0481 07       		.byte	0x7
 4071 0482 A3       		.byte	0xa3
 4072 0483 01050000 		.4byte	0x501
 4073 0487 04       		.byte	0x4
 4074 0488 08       		.uleb128 0x8
 4075 0489 D4000000 		.4byte	.LASF78
 4076 048d 07       		.byte	0x7
 4077 048e A7       		.byte	0xa7
 4078 048f 0C050000 		.4byte	0x50c
 4079 0493 08       		.byte	0x8
 4080 0494 08       		.uleb128 0x8
 4081 0495 D7070000 		.4byte	.LASF79
 4082 0499 07       		.byte	0x7
 4083 049a AD       		.byte	0xad
 4084 049b 92030000 		.4byte	0x392
 4085 049f 0C       		.byte	0xc
 4086 04a0 08       		.uleb128 0x8
 4087 04a1 32030000 		.4byte	.LASF80
 4088 04a5 07       		.byte	0x7
 4089 04a6 B0       		.byte	0xb0
 4090 04a7 E4000000 		.4byte	0xe4
 4091 04ab 10       		.byte	0x10
 4092 04ac 0B       		.uleb128 0xb
 4093 04ad E1040000 		.4byte	.LASF81
 4094 04b1 07       		.byte	0x7
 4095 04b2 B3       		.byte	0xb3
 4096 04b3 E4000000 		.4byte	0xe4
 4097 04b7 02       		.byte	0x2
 4098 04b8 0A       		.byte	0xa
 4099 04b9 06       		.byte	0x6
 4100 04ba 12       		.byte	0x12
 4101 04bb 13       		.uleb128 0x13
 4102 04bc 62707000 		.ascii	"bpp\000"
 4103 04c0 07       		.byte	0x7
 4104 04c1 B6       		.byte	0xb6
 4105 04c2 E4000000 		.4byte	0xe4
ARM GAS  C:\Users\strap\AppData\Local\Temp\ccKJQbxb.s 			page 93


 4106 04c6 02       		.byte	0x2
 4107 04c7 04       		.byte	0x4
 4108 04c8 02       		.byte	0x2
 4109 04c9 12       		.byte	0x12
 4110 04ca 0B       		.uleb128 0xb
 4111 04cb F5080000 		.4byte	.LASF82
 4112 04cf 07       		.byte	0x7
 4113 04d0 B9       		.byte	0xb9
 4114 04d1 E4000000 		.4byte	0xe4
 4115 04d5 02       		.byte	0x2
 4116 04d6 01       		.byte	0x1
 4117 04d7 01       		.byte	0x1
 4118 04d8 12       		.byte	0x12
 4119 04d9 0B       		.uleb128 0xb
 4120 04da C7080000 		.4byte	.LASF83
 4121 04de 07       		.byte	0x7
 4122 04df BF       		.byte	0xbf
 4123 04e0 E4000000 		.4byte	0xe4
 4124 04e4 02       		.byte	0x2
 4125 04e5 02       		.byte	0x2
 4126 04e6 0E       		.byte	0xe
 4127 04e7 14       		.byte	0x14
 4128 04e8 08       		.uleb128 0x8
 4129 04e9 FB020000 		.4byte	.LASF84
 4130 04ed 07       		.byte	0x7
 4131 04ee C2       		.byte	0xc2
 4132 04ef FA000000 		.4byte	0xfa
 4133 04f3 18       		.byte	0x18
 4134 04f4 08       		.uleb128 0x8
 4135 04f5 F3060000 		.4byte	.LASF85
 4136 04f9 07       		.byte	0x7
 4137 04fa C3       		.byte	0xc3
 4138 04fb FA000000 		.4byte	0xfa
 4139 04ff 1C       		.byte	0x1c
 4140 0500 00       		.byte	0
 4141 0501 0E       		.uleb128 0xe
 4142 0502 04       		.byte	0x4
 4143 0503 07050000 		.4byte	0x507
 4144 0507 0F       		.uleb128 0xf
 4145 0508 EF020000 		.4byte	0x2ef
 4146 050c 0E       		.uleb128 0xe
 4147 050d 04       		.byte	0x4
 4148 050e 12050000 		.4byte	0x512
 4149 0512 0F       		.uleb128 0xf
 4150 0513 99030000 		.4byte	0x399
 4151 0517 02       		.uleb128 0x2
 4152 0518 18020000 		.4byte	.LASF86
 4153 051c 07       		.byte	0x7
 4154 051d C5       		.byte	0xc5
 4155 051e 68040000 		.4byte	0x468
 4156 0522 0E       		.uleb128 0xe
 4157 0523 04       		.byte	0x4
 4158 0524 CE000000 		.4byte	0xce
 4159 0528 0E       		.uleb128 0xe
 4160 0529 04       		.byte	0x4
 4161 052a 2E050000 		.4byte	0x52e
 4162 052e 0F       		.uleb128 0xf
ARM GAS  C:\Users\strap\AppData\Local\Temp\ccKJQbxb.s 			page 94


 4163 052f 8D020000 		.4byte	0x28d
 4164 0533 10       		.uleb128 0x10
 4165 0534 01       		.byte	0x1
 4166 0535 42000000 		.4byte	0x42
 4167 0539 01       		.byte	0x1
 4168 053a 1E       		.byte	0x1e
 4169 053b 52050000 		.4byte	0x552
 4170 053f 11       		.uleb128 0x11
 4171 0540 C6070000 		.4byte	.LASF87
 4172 0544 00       		.byte	0
 4173 0545 11       		.uleb128 0x11
 4174 0546 1E060000 		.4byte	.LASF88
 4175 054a 01       		.byte	0x1
 4176 054b 11       		.uleb128 0x11
 4177 054c 7F030000 		.4byte	.LASF89
 4178 0550 02       		.byte	0x2
 4179 0551 00       		.byte	0
 4180 0552 02       		.uleb128 0x2
 4181 0553 A5050000 		.4byte	.LASF90
 4182 0557 01       		.byte	0x1
 4183 0558 22       		.byte	0x22
 4184 0559 33050000 		.4byte	0x533
 4185 055d 14       		.uleb128 0x14
 4186 055e F5010000 		.4byte	.LASF91
 4187 0562 01       		.byte	0x1
 4188 0563 F701     		.2byte	0x1f7
 4189 0565 03       		.byte	0x3
 4190 0566 82050000 		.4byte	0x582
 4191 056a 15       		.uleb128 0x15
 4192 056b 696E00   		.ascii	"in\000"
 4193 056e 01       		.byte	0x1
 4194 056f F701     		.2byte	0x1f7
 4195 0571 7C020000 		.4byte	0x27c
 4196 0575 15       		.uleb128 0x15
 4197 0576 62707000 		.ascii	"bpp\000"
 4198 057a 01       		.byte	0x1
 4199 057b F701     		.2byte	0x1f7
 4200 057d CE000000 		.4byte	0xce
 4201 0581 00       		.byte	0
 4202 0582 14       		.uleb128 0x14
 4203 0583 42060000 		.4byte	.LASF92
 4204 0587 01       		.byte	0x1
 4205 0588 9401     		.2byte	0x194
 4206 058a 03       		.byte	0x3
 4207 058b B0050000 		.4byte	0x5b0
 4208 058f 15       		.uleb128 0x15
 4209 0590 6F757400 		.ascii	"out\000"
 4210 0594 01       		.byte	0x1
 4211 0595 9401     		.2byte	0x194
 4212 0597 22050000 		.4byte	0x522
 4213 059b 15       		.uleb128 0x15
 4214 059c 7700     		.ascii	"w\000"
 4215 059e 01       		.byte	0x1
 4216 059f 9401     		.2byte	0x194
 4217 05a1 1B010000 		.4byte	0x11b
 4218 05a5 16       		.uleb128 0x16
 4219 05a6 6900     		.ascii	"i\000"
ARM GAS  C:\Users\strap\AppData\Local\Temp\ccKJQbxb.s 			page 95


 4220 05a8 01       		.byte	0x1
 4221 05a9 9601     		.2byte	0x196
 4222 05ab 1B010000 		.4byte	0x11b
 4223 05af 00       		.byte	0
 4224 05b0 17       		.uleb128 0x17
 4225 05b1 67050000 		.4byte	.LASF96
 4226 05b5 01       		.byte	0x1
 4227 05b6 4001     		.2byte	0x140
 4228 05b8 EF000000 		.4byte	0xef
 4229 05bc 00000000 		.4byte	.LFB42
 4230 05c0 14000000 		.4byte	.LFE42-.LFB42
 4231 05c4 01       		.uleb128 0x1
 4232 05c5 9C       		.byte	0x9c
 4233 05c6 07060000 		.4byte	0x607
 4234 05ca 18       		.uleb128 0x18
 4235 05cb 72656600 		.ascii	"ref\000"
 4236 05cf 01       		.byte	0x1
 4237 05d0 4001     		.2byte	0x140
 4238 05d2 92030000 		.4byte	0x392
 4239 05d6 00000000 		.4byte	.LLST0
 4240 05da 19       		.uleb128 0x19
 4241 05db D9040000 		.4byte	.LASF93
 4242 05df 01       		.byte	0x1
 4243 05e0 4001     		.2byte	0x140
 4244 05e2 92030000 		.4byte	0x392
 4245 05e6 01       		.uleb128 0x1
 4246 05e7 51       		.byte	0x51
 4247 05e8 1A       		.uleb128 0x1a
 4248 05e9 15070000 		.4byte	.LASF94
 4249 05ed 01       		.byte	0x1
 4250 05ee 4201     		.2byte	0x142
 4251 05f0 7C020000 		.4byte	0x27c
 4252 05f4 3A000000 		.4byte	.LLST1
 4253 05f8 1B       		.uleb128 0x1b
 4254 05f9 CE040000 		.4byte	.LASF95
 4255 05fd 01       		.byte	0x1
 4256 05fe 4301     		.2byte	0x143
 4257 0600 7C020000 		.4byte	0x27c
 4258 0604 01       		.uleb128 0x1
 4259 0605 51       		.byte	0x51
 4260 0606 00       		.byte	0
 4261 0607 17       		.uleb128 0x17
 4262 0608 B0040000 		.4byte	.LASF97
 4263 060c 01       		.byte	0x1
 4264 060d 4B01     		.2byte	0x14b
 4265 060f EF000000 		.4byte	0xef
 4266 0613 00000000 		.4byte	.LFB43
 4267 0617 14000000 		.4byte	.LFE43-.LFB43
 4268 061b 01       		.uleb128 0x1
 4269 061c 9C       		.byte	0x9c
 4270 061d 5E060000 		.4byte	0x65e
 4271 0621 18       		.uleb128 0x18
 4272 0622 72656600 		.ascii	"ref\000"
 4273 0626 01       		.byte	0x1
 4274 0627 4B01     		.2byte	0x14b
 4275 0629 92030000 		.4byte	0x392
 4276 062d 74000000 		.4byte	.LLST2
ARM GAS  C:\Users\strap\AppData\Local\Temp\ccKJQbxb.s 			page 96


 4277 0631 19       		.uleb128 0x19
 4278 0632 D9040000 		.4byte	.LASF93
 4279 0636 01       		.byte	0x1
 4280 0637 4B01     		.2byte	0x14b
 4281 0639 92030000 		.4byte	0x392
 4282 063d 01       		.uleb128 0x1
 4283 063e 51       		.byte	0x51
 4284 063f 1A       		.uleb128 0x1a
 4285 0640 66020000 		.4byte	.LASF98
 4286 0644 01       		.byte	0x1
 4287 0645 4D01     		.2byte	0x14d
 4288 0647 87030000 		.4byte	0x387
 4289 064b AE000000 		.4byte	.LLST3
 4290 064f 1B       		.uleb128 0x1b
 4291 0650 5A080000 		.4byte	.LASF99
 4292 0654 01       		.byte	0x1
 4293 0655 4E01     		.2byte	0x14e
 4294 0657 87030000 		.4byte	0x387
 4295 065b 01       		.uleb128 0x1
 4296 065c 51       		.byte	0x51
 4297 065d 00       		.byte	0
 4298 065e 17       		.uleb128 0x17
 4299 065f E8000000 		.4byte	.LASF100
 4300 0663 01       		.byte	0x1
 4301 0664 4802     		.2byte	0x248
 4302 0666 EF000000 		.4byte	0xef
 4303 066a 00000000 		.4byte	.LFB50
 4304 066e 08000000 		.4byte	.LFE50-.LFB50
 4305 0672 01       		.uleb128 0x1
 4306 0673 9C       		.byte	0x9c
 4307 0674 97060000 		.4byte	0x697
 4308 0678 18       		.uleb128 0x18
 4309 0679 72656600 		.ascii	"ref\000"
 4310 067d 01       		.byte	0x1
 4311 067e 4802     		.2byte	0x248
 4312 0680 92030000 		.4byte	0x392
 4313 0684 E8000000 		.4byte	.LLST4
 4314 0688 19       		.uleb128 0x19
 4315 0689 D9040000 		.4byte	.LASF93
 4316 068d 01       		.byte	0x1
 4317 068e 4802     		.2byte	0x248
 4318 0690 92030000 		.4byte	0x392
 4319 0694 01       		.uleb128 0x1
 4320 0695 51       		.byte	0x51
 4321 0696 00       		.byte	0
 4322 0697 1C       		.uleb128 0x1c
 4323 0698 B9020000 		.4byte	.LASF101
 4324 069c 01       		.byte	0x1
 4325 069d CB       		.byte	0xcb
 4326 069e FA000000 		.4byte	0xfa
 4327 06a2 00000000 		.4byte	.LFB40
 4328 06a6 D4000000 		.4byte	.LFE40-.LFB40
 4329 06aa 01       		.uleb128 0x1
 4330 06ab 9C       		.byte	0x9c
 4331 06ac 01080000 		.4byte	0x801
 4332 06b0 1D       		.uleb128 0x1d
 4333 06b1 13020000 		.4byte	.LASF102
ARM GAS  C:\Users\strap\AppData\Local\Temp\ccKJQbxb.s 			page 97


 4334 06b5 01       		.byte	0x1
 4335 06b6 CB       		.byte	0xcb
 4336 06b7 28050000 		.4byte	0x528
 4337 06bb 09010000 		.4byte	.LLST5
 4338 06bf 1D       		.uleb128 0x1d
 4339 06c0 85070000 		.4byte	.LASF103
 4340 06c4 01       		.byte	0x1
 4341 06c5 CB       		.byte	0xcb
 4342 06c6 FA000000 		.4byte	0xfa
 4343 06ca 5C010000 		.4byte	.LLST6
 4344 06ce 1E       		.uleb128 0x1e
 4345 06cf B9000000 		.4byte	.LASF104
 4346 06d3 01       		.byte	0x1
 4347 06d4 CF       		.byte	0xcf
 4348 06d5 01080000 		.4byte	0x801
 4349 06d9 B4010000 		.4byte	.LLST7
 4350 06dd 1F       		.uleb128 0x1f
 4351 06de 6900     		.ascii	"i\000"
 4352 06e0 01       		.byte	0x1
 4353 06e1 D4       		.byte	0xd4
 4354 06e2 E4000000 		.4byte	0xe4
 4355 06e6 D2010000 		.4byte	.LLST8
 4356 06ea 20       		.uleb128 0x20
 4357 06eb 00000000 		.4byte	.Ldebug_ranges0+0
 4358 06ef 1F       		.uleb128 0x1f
 4359 06f0 72637000 		.ascii	"rcp\000"
 4360 06f4 01       		.byte	0x1
 4361 06f5 D8       		.byte	0xd8
 4362 06f6 FA000000 		.4byte	0xfa
 4363 06fa FB010000 		.4byte	.LLST9
 4364 06fe 1E       		.uleb128 0x1e
 4365 06ff 6E020000 		.4byte	.LASF105
 4366 0703 01       		.byte	0x1
 4367 0704 DA       		.byte	0xda
 4368 0705 FA000000 		.4byte	0xfa
 4369 0709 24020000 		.4byte	.LLST10
 4370 070d 21       		.uleb128 0x21
 4371 070e 40000000 		.4byte	.LBB11
 4372 0712 08000000 		.4byte	.LBE11-.LBB11
 4373 0716 2A070000 		.4byte	0x72a
 4374 071a 1E       		.uleb128 0x1e
 4375 071b 26070000 		.4byte	.LASF106
 4376 071f 01       		.byte	0x1
 4377 0720 DF       		.byte	0xdf
 4378 0721 7C020000 		.4byte	0x27c
 4379 0725 9F020000 		.4byte	.LLST11
 4380 0729 00       		.byte	0
 4381 072a 21       		.uleb128 0x21
 4382 072b 4E000000 		.4byte	.LBB12
 4383 072f 28000000 		.4byte	.LBE12-.LBB12
 4384 0733 8F070000 		.4byte	0x78f
 4385 0737 22       		.uleb128 0x22
 4386 0738 6B657900 		.ascii	"key\000"
 4387 073c 01       		.byte	0x1
 4388 073d E3       		.byte	0xe3
 4389 073e E4000000 		.4byte	0xe4
 4390 0742 02       		.uleb128 0x2
ARM GAS  C:\Users\strap\AppData\Local\Temp\ccKJQbxb.s 			page 98


 4391 0743 91       		.byte	0x91
 4392 0744 66       		.sleb128 -26
 4393 0745 1F       		.uleb128 0x1f
 4394 0746 7000     		.ascii	"p\000"
 4395 0748 01       		.byte	0x1
 4396 0749 E4       		.byte	0xe4
 4397 074a 22050000 		.4byte	0x522
 4398 074e BE020000 		.4byte	.LLST12
 4399 0752 21       		.uleb128 0x21
 4400 0753 66000000 		.4byte	.LBB13
 4401 0757 10000000 		.4byte	.LBE13-.LBB13
 4402 075b 6F070000 		.4byte	0x76f
 4403 075f 1F       		.uleb128 0x1f
 4404 0760 6F667300 		.ascii	"ofs\000"
 4405 0764 01       		.byte	0x1
 4406 0765 E8       		.byte	0xe8
 4407 0766 49010000 		.4byte	0x149
 4408 076a F2020000 		.4byte	.LLST13
 4409 076e 00       		.byte	0
 4410 076f 23       		.uleb128 0x23
 4411 0770 62000000 		.4byte	.LVL26
 4412 0774 55170000 		.4byte	0x1755
 4413 0778 24       		.uleb128 0x24
 4414 0779 01       		.uleb128 0x1
 4415 077a 50       		.byte	0x50
 4416 077b 02       		.uleb128 0x2
 4417 077c 91       		.byte	0x91
 4418 077d 66       		.sleb128 -26
 4419 077e 24       		.uleb128 0x24
 4420 077f 01       		.uleb128 0x1
 4421 0780 53       		.byte	0x53
 4422 0781 01       		.uleb128 0x1
 4423 0782 32       		.byte	0x32
 4424 0783 24       		.uleb128 0x24
 4425 0784 02       		.uleb128 0x2
 4426 0785 7D       		.byte	0x7d
 4427 0786 00       		.sleb128 0
 4428 0787 05       		.uleb128 0x5
 4429 0788 03       		.byte	0x3
 4430 0789 00000000 		.4byte	unicode_list_compare
 4431 078d 00       		.byte	0
 4432 078e 00       		.byte	0
 4433 078f 25       		.uleb128 0x25
 4434 0790 7E000000 		.4byte	.LBB14
 4435 0794 2A000000 		.4byte	.LBE14-.LBB14
 4436 0798 22       		.uleb128 0x22
 4437 0799 6B657900 		.ascii	"key\000"
 4438 079d 01       		.byte	0x1
 4439 079e EE       		.byte	0xee
 4440 079f E4000000 		.4byte	0xe4
 4441 07a3 02       		.uleb128 0x2
 4442 07a4 91       		.byte	0x91
 4443 07a5 66       		.sleb128 -26
 4444 07a6 1F       		.uleb128 0x1f
 4445 07a7 7000     		.ascii	"p\000"
 4446 07a9 01       		.byte	0x1
 4447 07aa EF       		.byte	0xef
ARM GAS  C:\Users\strap\AppData\Local\Temp\ccKJQbxb.s 			page 99


 4448 07ab 22050000 		.4byte	0x522
 4449 07af 1C030000 		.4byte	.LLST14
 4450 07b3 21       		.uleb128 0x21
 4451 07b4 94000000 		.4byte	.LBB15
 4452 07b8 14000000 		.4byte	.LBE15-.LBB15
 4453 07bc DF070000 		.4byte	0x7df
 4454 07c0 1F       		.uleb128 0x1f
 4455 07c1 6F667300 		.ascii	"ofs\000"
 4456 07c5 01       		.byte	0x1
 4457 07c6 F3       		.byte	0xf3
 4458 07c7 49010000 		.4byte	0x149
 4459 07cb 3A030000 		.4byte	.LLST15
 4460 07cf 1E       		.uleb128 0x1e
 4461 07d0 16080000 		.4byte	.LASF107
 4462 07d4 01       		.byte	0x1
 4463 07d5 F5       		.byte	0xf5
 4464 07d6 7C020000 		.4byte	0x27c
 4465 07da 4D030000 		.4byte	.LLST16
 4466 07de 00       		.byte	0
 4467 07df 23       		.uleb128 0x23
 4468 07e0 92000000 		.4byte	.LVL34
 4469 07e4 55170000 		.4byte	0x1755
 4470 07e8 24       		.uleb128 0x24
 4471 07e9 01       		.uleb128 0x1
 4472 07ea 50       		.byte	0x50
 4473 07eb 02       		.uleb128 0x2
 4474 07ec 91       		.byte	0x91
 4475 07ed 66       		.sleb128 -26
 4476 07ee 24       		.uleb128 0x24
 4477 07ef 01       		.uleb128 0x1
 4478 07f0 53       		.byte	0x53
 4479 07f1 01       		.uleb128 0x1
 4480 07f2 32       		.byte	0x32
 4481 07f3 24       		.uleb128 0x24
 4482 07f4 02       		.uleb128 0x2
 4483 07f5 7D       		.byte	0x7d
 4484 07f6 00       		.sleb128 0
 4485 07f7 05       		.uleb128 0x5
 4486 07f8 03       		.byte	0x3
 4487 07f9 00000000 		.4byte	unicode_list_compare
 4488 07fd 00       		.byte	0
 4489 07fe 00       		.byte	0
 4490 07ff 00       		.byte	0
 4491 0800 00       		.byte	0
 4492 0801 0E       		.uleb128 0xe
 4493 0802 04       		.byte	0x4
 4494 0803 17050000 		.4byte	0x517
 4495 0807 17       		.uleb128 0x17
 4496 0808 98070000 		.4byte	.LASF108
 4497 080c 01       		.byte	0x1
 4498 080d 0601     		.2byte	0x106
 4499 080f C3000000 		.4byte	0xc3
 4500 0813 00000000 		.4byte	.LFB41
 4501 0817 B0000000 		.4byte	.LFE41-.LFB41
 4502 081b 01       		.uleb128 0x1
 4503 081c 9C       		.byte	0x9c
 4504 081d C2090000 		.4byte	0x9c2
ARM GAS  C:\Users\strap\AppData\Local\Temp\ccKJQbxb.s 			page 100


 4505 0821 26       		.uleb128 0x26
 4506 0822 13020000 		.4byte	.LASF102
 4507 0826 01       		.byte	0x1
 4508 0827 0601     		.2byte	0x106
 4509 0829 28050000 		.4byte	0x528
 4510 082d 60030000 		.4byte	.LLST17
 4511 0831 26       		.uleb128 0x26
 4512 0832 69040000 		.4byte	.LASF109
 4513 0836 01       		.byte	0x1
 4514 0837 0601     		.2byte	0x106
 4515 0839 FA000000 		.4byte	0xfa
 4516 083d 81030000 		.4byte	.LLST18
 4517 0841 26       		.uleb128 0x26
 4518 0842 1C070000 		.4byte	.LASF110
 4519 0846 01       		.byte	0x1
 4520 0847 0601     		.2byte	0x106
 4521 0849 FA000000 		.4byte	0xfa
 4522 084d ED030000 		.4byte	.LLST19
 4523 0851 1A       		.uleb128 0x1a
 4524 0852 B9000000 		.4byte	.LASF104
 4525 0856 01       		.byte	0x1
 4526 0857 0801     		.2byte	0x108
 4527 0859 01080000 		.4byte	0x801
 4528 085d 59040000 		.4byte	.LLST20
 4529 0861 1A       		.uleb128 0x1a
 4530 0862 F5020000 		.4byte	.LASF111
 4531 0866 01       		.byte	0x1
 4532 0867 0A01     		.2byte	0x10a
 4533 0869 C3000000 		.4byte	0xc3
 4534 086d A4040000 		.4byte	.LLST21
 4535 0871 27       		.uleb128 0x27
 4536 0872 18000000 		.4byte	.Ldebug_ranges0+0x18
 4537 0876 87090000 		.4byte	0x987
 4538 087a 1A       		.uleb128 0x1a
 4539 087b B7080000 		.4byte	.LASF112
 4540 087f 01       		.byte	0x1
 4541 0880 0E01     		.2byte	0x10e
 4542 0882 C2090000 		.4byte	0x9c2
 4543 0886 08050000 		.4byte	.LLST22
 4544 088a 21       		.uleb128 0x21
 4545 088b 18000000 		.4byte	.LBB18
 4546 088f 2A000000 		.4byte	.LBE18-.LBB18
 4547 0893 0A090000 		.4byte	0x90a
 4548 0897 1A       		.uleb128 0x1a
 4549 0898 24010000 		.4byte	.LASF113
 4550 089c 01       		.byte	0x1
 4551 089d 1201     		.2byte	0x112
 4552 089f 7C020000 		.4byte	0x27c
 4553 08a3 31050000 		.4byte	.LLST23
 4554 08a7 1B       		.uleb128 0x1b
 4555 08a8 EB010000 		.4byte	.LASF114
 4556 08ac 01       		.byte	0x1
 4557 08ad 1301     		.2byte	0x113
 4558 08af E4000000 		.4byte	0xe4
 4559 08b3 02       		.uleb128 0x2
 4560 08b4 91       		.byte	0x91
 4561 08b5 6C       		.sleb128 -20
ARM GAS  C:\Users\strap\AppData\Local\Temp\ccKJQbxb.s 			page 101


 4562 08b6 1A       		.uleb128 0x1a
 4563 08b7 76070000 		.4byte	.LASF115
 4564 08bb 01       		.byte	0x1
 4565 08bc 1401     		.2byte	0x114
 4566 08be 22050000 		.4byte	0x522
 4567 08c2 44050000 		.4byte	.LLST24
 4568 08c6 21       		.uleb128 0x21
 4569 08c7 38000000 		.4byte	.LBB19
 4570 08cb 0A000000 		.4byte	.LBE19-.LBB19
 4571 08cf E4080000 		.4byte	0x8e4
 4572 08d3 28       		.uleb128 0x28
 4573 08d4 6F667300 		.ascii	"ofs\000"
 4574 08d8 01       		.byte	0x1
 4575 08d9 1801     		.2byte	0x118
 4576 08db 49010000 		.4byte	0x149
 4577 08df 62050000 		.4byte	.LLST25
 4578 08e3 00       		.byte	0
 4579 08e4 23       		.uleb128 0x23
 4580 08e5 36000000 		.4byte	.LVL60
 4581 08e9 55170000 		.4byte	0x1755
 4582 08ed 24       		.uleb128 0x24
 4583 08ee 01       		.uleb128 0x1
 4584 08ef 50       		.byte	0x50
 4585 08f0 02       		.uleb128 0x2
 4586 08f1 91       		.byte	0x91
 4587 08f2 6C       		.sleb128 -20
 4588 08f3 24       		.uleb128 0x24
 4589 08f4 01       		.uleb128 0x1
 4590 08f5 51       		.byte	0x51
 4591 08f6 02       		.uleb128 0x2
 4592 08f7 75       		.byte	0x75
 4593 08f8 00       		.sleb128 0
 4594 08f9 24       		.uleb128 0x24
 4595 08fa 01       		.uleb128 0x1
 4596 08fb 53       		.byte	0x53
 4597 08fc 01       		.uleb128 0x1
 4598 08fd 32       		.byte	0x32
 4599 08fe 24       		.uleb128 0x24
 4600 08ff 02       		.uleb128 0x2
 4601 0900 7D       		.byte	0x7d
 4602 0901 00       		.sleb128 0
 4603 0902 05       		.uleb128 0x5
 4604 0903 03       		.byte	0x3
 4605 0904 00000000 		.4byte	kern_pair_8_compare
 4606 0908 00       		.byte	0
 4607 0909 00       		.byte	0
 4608 090a 25       		.uleb128 0x25
 4609 090b 4A000000 		.4byte	.LBB20
 4610 090f 2A000000 		.4byte	.LBE20-.LBB20
 4611 0913 1A       		.uleb128 0x1a
 4612 0914 24010000 		.4byte	.LASF113
 4613 0918 01       		.byte	0x1
 4614 0919 2001     		.2byte	0x120
 4615 091b 87030000 		.4byte	0x387
 4616 091f 75050000 		.4byte	.LLST26
 4617 0923 1B       		.uleb128 0x1b
 4618 0924 EB010000 		.4byte	.LASF114
ARM GAS  C:\Users\strap\AppData\Local\Temp\ccKJQbxb.s 			page 102


 4619 0928 01       		.byte	0x1
 4620 0929 2101     		.2byte	0x121
 4621 092b 49010000 		.4byte	0x149
 4622 092f 02       		.uleb128 0x2
 4623 0930 91       		.byte	0x91
 4624 0931 6C       		.sleb128 -20
 4625 0932 1A       		.uleb128 0x1a
 4626 0933 76070000 		.4byte	.LASF115
 4627 0937 01       		.byte	0x1
 4628 0938 2201     		.2byte	0x122
 4629 093a 22050000 		.4byte	0x522
 4630 093e 88050000 		.4byte	.LLST27
 4631 0942 21       		.uleb128 0x21
 4632 0943 6A000000 		.4byte	.LBB21
 4633 0947 0A000000 		.4byte	.LBE21-.LBB21
 4634 094b 60090000 		.4byte	0x960
 4635 094f 28       		.uleb128 0x28
 4636 0950 6F667300 		.ascii	"ofs\000"
 4637 0954 01       		.byte	0x1
 4638 0955 2601     		.2byte	0x126
 4639 0957 49010000 		.4byte	0x149
 4640 095b A6050000 		.4byte	.LLST28
 4641 095f 00       		.byte	0
 4642 0960 23       		.uleb128 0x23
 4643 0961 68000000 		.4byte	.LVL71
 4644 0965 55170000 		.4byte	0x1755
 4645 0969 24       		.uleb128 0x24
 4646 096a 01       		.uleb128 0x1
 4647 096b 50       		.byte	0x50
 4648 096c 02       		.uleb128 0x2
 4649 096d 91       		.byte	0x91
 4650 096e 6C       		.sleb128 -20
 4651 096f 24       		.uleb128 0x24
 4652 0970 01       		.uleb128 0x1
 4653 0971 51       		.byte	0x51
 4654 0972 02       		.uleb128 0x2
 4655 0973 75       		.byte	0x75
 4656 0974 00       		.sleb128 0
 4657 0975 24       		.uleb128 0x24
 4658 0976 01       		.uleb128 0x1
 4659 0977 53       		.byte	0x53
 4660 0978 01       		.uleb128 0x1
 4661 0979 34       		.byte	0x34
 4662 097a 24       		.uleb128 0x24
 4663 097b 02       		.uleb128 0x2
 4664 097c 7D       		.byte	0x7d
 4665 097d 00       		.sleb128 0
 4666 097e 05       		.uleb128 0x5
 4667 097f 03       		.byte	0x3
 4668 0980 00000000 		.4byte	kern_pair_16_compare
 4669 0984 00       		.byte	0
 4670 0985 00       		.byte	0
 4671 0986 00       		.byte	0
 4672 0987 25       		.uleb128 0x25
 4673 0988 78000000 		.4byte	.LBB23
 4674 098c 1C000000 		.4byte	.LBE23-.LBB23
 4675 0990 1A       		.uleb128 0x1a
ARM GAS  C:\Users\strap\AppData\Local\Temp\ccKJQbxb.s 			page 103


 4676 0991 B7080000 		.4byte	.LASF112
 4677 0995 01       		.byte	0x1
 4678 0996 3201     		.2byte	0x132
 4679 0998 CD090000 		.4byte	0x9cd
 4680 099c B9050000 		.4byte	.LLST29
 4681 09a0 1A       		.uleb128 0x1a
 4682 09a1 74030000 		.4byte	.LASF116
 4683 09a5 01       		.byte	0x1
 4684 09a6 3301     		.2byte	0x133
 4685 09a8 CE000000 		.4byte	0xce
 4686 09ac E9050000 		.4byte	.LLST30
 4687 09b0 1A       		.uleb128 0x1a
 4688 09b1 BE000000 		.4byte	.LASF117
 4689 09b5 01       		.byte	0x1
 4690 09b6 3401     		.2byte	0x134
 4691 09b8 CE000000 		.4byte	0xce
 4692 09bc 2E060000 		.4byte	.LLST31
 4693 09c0 00       		.byte	0
 4694 09c1 00       		.byte	0
 4695 09c2 0E       		.uleb128 0xe
 4696 09c3 04       		.byte	0x4
 4697 09c4 C8090000 		.4byte	0x9c8
 4698 09c8 0F       		.uleb128 0xf
 4699 09c9 EE030000 		.4byte	0x3ee
 4700 09cd 0E       		.uleb128 0xe
 4701 09ce 04       		.byte	0x4
 4702 09cf D3090000 		.4byte	0x9d3
 4703 09d3 0F       		.uleb128 0xf
 4704 09d4 3E040000 		.4byte	0x43e
 4705 09d8 29       		.uleb128 0x29
 4706 09d9 5D020000 		.4byte	.LASF118
 4707 09dd 01       		.byte	0x1
 4708 09de 0102     		.2byte	0x201
 4709 09e0 CE000000 		.4byte	0xce
 4710 09e4 03       		.byte	0x3
 4711 09e5 000A0000 		.4byte	0xa00
 4712 09e9 16       		.uleb128 0x16
 4713 09ea 7600     		.ascii	"v\000"
 4714 09ec 01       		.byte	0x1
 4715 09ed 0302     		.2byte	0x203
 4716 09ef CE000000 		.4byte	0xce
 4717 09f3 16       		.uleb128 0x16
 4718 09f4 72657400 		.ascii	"ret\000"
 4719 09f8 01       		.byte	0x1
 4720 09f9 0402     		.2byte	0x204
 4721 09fb CE000000 		.4byte	0xce
 4722 09ff 00       		.byte	0
 4723 0a00 29       		.uleb128 0x29
 4724 0a01 7C070000 		.4byte	.LASF119
 4725 0a05 01       		.byte	0x1
 4726 0a06 A301     		.2byte	0x1a3
 4727 0a08 CE000000 		.4byte	0xce
 4728 0a0c 03       		.byte	0x3
 4729 0a0d 5B0A0000 		.4byte	0xa5b
 4730 0a11 15       		.uleb128 0x15
 4731 0a12 696E00   		.ascii	"in\000"
 4732 0a15 01       		.byte	0x1
ARM GAS  C:\Users\strap\AppData\Local\Temp\ccKJQbxb.s 			page 104


 4733 0a16 A301     		.2byte	0x1a3
 4734 0a18 7C020000 		.4byte	0x27c
 4735 0a1c 2A       		.uleb128 0x2a
 4736 0a1d 52080000 		.4byte	.LASF120
 4737 0a21 01       		.byte	0x1
 4738 0a22 A301     		.2byte	0x1a3
 4739 0a24 FA000000 		.4byte	0xfa
 4740 0a28 15       		.uleb128 0x15
 4741 0a29 6C656E00 		.ascii	"len\000"
 4742 0a2d 01       		.byte	0x1
 4743 0a2e A301     		.2byte	0x1a3
 4744 0a30 CE000000 		.4byte	0xce
 4745 0a34 2B       		.uleb128 0x2b
 4746 0a35 35040000 		.4byte	.LASF121
 4747 0a39 01       		.byte	0x1
 4748 0a3a A501     		.2byte	0x1a5
 4749 0a3c CE000000 		.4byte	0xce
 4750 0a40 2B       		.uleb128 0x2b
 4751 0a41 B0000000 		.4byte	.LASF122
 4752 0a45 01       		.byte	0x1
 4753 0a46 BA01     		.2byte	0x1ba
 4754 0a48 FA000000 		.4byte	0xfa
 4755 0a4c 2C       		.uleb128 0x2c
 4756 0a4d 2B       		.uleb128 0x2b
 4757 0a4e 7B050000 		.4byte	.LASF123
 4758 0a52 01       		.byte	0x1
 4759 0a53 BE01     		.2byte	0x1be
 4760 0a55 E4000000 		.4byte	0xe4
 4761 0a59 00       		.byte	0
 4762 0a5a 00       		.byte	0
 4763 0a5b 14       		.uleb128 0x14
 4764 0a5c BC080000 		.4byte	.LASF124
 4765 0a60 01       		.byte	0x1
 4766 0a61 CE01     		.2byte	0x1ce
 4767 0a63 03       		.byte	0x3
 4768 0a64 B10A0000 		.4byte	0xab1
 4769 0a68 15       		.uleb128 0x15
 4770 0a69 6F757400 		.ascii	"out\000"
 4771 0a6d 01       		.byte	0x1
 4772 0a6e CE01     		.2byte	0x1ce
 4773 0a70 22050000 		.4byte	0x522
 4774 0a74 2A       		.uleb128 0x2a
 4775 0a75 52080000 		.4byte	.LASF120
 4776 0a79 01       		.byte	0x1
 4777 0a7a CE01     		.2byte	0x1ce
 4778 0a7c FA000000 		.4byte	0xfa
 4779 0a80 15       		.uleb128 0x15
 4780 0a81 76616C00 		.ascii	"val\000"
 4781 0a85 01       		.byte	0x1
 4782 0a86 CE01     		.2byte	0x1ce
 4783 0a88 CE000000 		.4byte	0xce
 4784 0a8c 15       		.uleb128 0x15
 4785 0a8d 6C656E00 		.ascii	"len\000"
 4786 0a91 01       		.byte	0x1
 4787 0a92 CE01     		.2byte	0x1ce
 4788 0a94 CE000000 		.4byte	0xce
 4789 0a98 2B       		.uleb128 0x2b
ARM GAS  C:\Users\strap\AppData\Local\Temp\ccKJQbxb.s 			page 105


 4790 0a99 B0000000 		.4byte	.LASF122
 4791 0a9d 01       		.byte	0x1
 4792 0a9e EE01     		.2byte	0x1ee
 4793 0aa0 E4000000 		.4byte	0xe4
 4794 0aa4 2B       		.uleb128 0x2b
 4795 0aa5 35040000 		.4byte	.LASF121
 4796 0aa9 01       		.byte	0x1
 4797 0aaa F201     		.2byte	0x1f2
 4798 0aac CE000000 		.4byte	0xce
 4799 0ab0 00       		.byte	0
 4800 0ab1 2D       		.uleb128 0x2d
 4801 0ab2 EA080000 		.4byte	.LASF158
 4802 0ab6 01       		.byte	0x1
 4803 0ab7 5D01     		.2byte	0x15d
 4804 0ab9 00000000 		.4byte	.LFB44
 4805 0abd 680C0000 		.4byte	.LFE44-.LFB44
 4806 0ac1 01       		.uleb128 0x1
 4807 0ac2 9C       		.byte	0x9c
 4808 0ac3 B1140000 		.4byte	0x14b1
 4809 0ac7 18       		.uleb128 0x18
 4810 0ac8 696E00   		.ascii	"in\000"
 4811 0acb 01       		.byte	0x1
 4812 0acc 5D01     		.2byte	0x15d
 4813 0ace 7C020000 		.4byte	0x27c
 4814 0ad2 59060000 		.4byte	.LLST32
 4815 0ad6 18       		.uleb128 0x18
 4816 0ad7 6F757400 		.ascii	"out\000"
 4817 0adb 01       		.byte	0x1
 4818 0adc 5D01     		.2byte	0x15d
 4819 0ade 22050000 		.4byte	0x522
 4820 0ae2 89060000 		.4byte	.LLST33
 4821 0ae6 18       		.uleb128 0x18
 4822 0ae7 7700     		.ascii	"w\000"
 4823 0ae9 01       		.byte	0x1
 4824 0aea 5D01     		.2byte	0x15d
 4825 0aec 1B010000 		.4byte	0x11b
 4826 0af0 A7060000 		.4byte	.LLST34
 4827 0af4 18       		.uleb128 0x18
 4828 0af5 6800     		.ascii	"h\000"
 4829 0af7 01       		.byte	0x1
 4830 0af8 5D01     		.2byte	0x15d
 4831 0afa 1B010000 		.4byte	0x11b
 4832 0afe C8060000 		.4byte	.LLST35
 4833 0b02 2E       		.uleb128 0x2e
 4834 0b03 62707000 		.ascii	"bpp\000"
 4835 0b07 01       		.byte	0x1
 4836 0b08 5D01     		.2byte	0x15d
 4837 0b0a CE000000 		.4byte	0xce
 4838 0b0e 02       		.uleb128 0x2
 4839 0b0f 91       		.byte	0x91
 4840 0b10 00       		.sleb128 0
 4841 0b11 19       		.uleb128 0x19
 4842 0b12 A1080000 		.4byte	.LASF125
 4843 0b16 01       		.byte	0x1
 4844 0b17 5D01     		.2byte	0x15d
 4845 0b19 4A020000 		.4byte	0x24a
 4846 0b1d 02       		.uleb128 0x2
ARM GAS  C:\Users\strap\AppData\Local\Temp\ccKJQbxb.s 			page 106


 4847 0b1e 91       		.byte	0x91
 4848 0b1f 04       		.sleb128 4
 4849 0b20 28       		.uleb128 0x28
 4850 0b21 77727000 		.ascii	"wrp\000"
 4851 0b25 01       		.byte	0x1
 4852 0b26 5F01     		.2byte	0x15f
 4853 0b28 FA000000 		.4byte	0xfa
 4854 0b2c E9060000 		.4byte	.LLST36
 4855 0b30 1A       		.uleb128 0x1a
 4856 0b31 30060000 		.4byte	.LASF126
 4857 0b35 01       		.byte	0x1
 4858 0b36 6001     		.2byte	0x160
 4859 0b38 CE000000 		.4byte	0xce
 4860 0b3c 36070000 		.4byte	.LLST37
 4861 0b40 1A       		.uleb128 0x1a
 4862 0b41 D8010000 		.4byte	.LASF127
 4863 0b45 01       		.byte	0x1
 4864 0b46 6501     		.2byte	0x165
 4865 0b48 22050000 		.4byte	0x522
 4866 0b4c 55070000 		.4byte	.LLST38
 4867 0b50 1A       		.uleb128 0x1a
 4868 0b51 EF050000 		.4byte	.LASF128
 4869 0b55 01       		.byte	0x1
 4870 0b56 6701     		.2byte	0x167
 4871 0b58 22050000 		.4byte	0x522
 4872 0b5c 89070000 		.4byte	.LLST39
 4873 0b60 28       		.uleb128 0x28
 4874 0b61 7900     		.ascii	"y\000"
 4875 0b63 01       		.byte	0x1
 4876 0b64 6F01     		.2byte	0x16f
 4877 0b66 1B010000 		.4byte	0x11b
 4878 0b6a C0070000 		.4byte	.LLST40
 4879 0b6e 28       		.uleb128 0x28
 4880 0b6f 7800     		.ascii	"x\000"
 4881 0b71 01       		.byte	0x1
 4882 0b72 7001     		.2byte	0x170
 4883 0b74 1B010000 		.4byte	0x11b
 4884 0b78 E0070000 		.4byte	.LLST41
 4885 0b7c 2F       		.uleb128 0x2f
 4886 0b7d 5D050000 		.4byte	0x55d
 4887 0b81 22000000 		.4byte	.LBB98
 4888 0b85 10000000 		.4byte	.LBE98-.LBB98
 4889 0b89 01       		.byte	0x1
 4890 0b8a 6301     		.2byte	0x163
 4891 0b8c A30B0000 		.4byte	0xba3
 4892 0b90 30       		.uleb128 0x30
 4893 0b91 75050000 		.4byte	0x575
 4894 0b95 35080000 		.4byte	.LLST42
 4895 0b99 30       		.uleb128 0x30
 4896 0b9a 6A050000 		.4byte	0x56a
 4897 0b9e 48080000 		.4byte	.LLST43
 4898 0ba2 00       		.byte	0
 4899 0ba3 2F       		.uleb128 0x2f
 4900 0ba4 82050000 		.4byte	0x582
 4901 0ba8 4C000000 		.4byte	.LBB100
 4902 0bac 6E030000 		.4byte	.LBE100-.LBB100
 4903 0bb0 01       		.byte	0x1
ARM GAS  C:\Users\strap\AppData\Local\Temp\ccKJQbxb.s 			page 107


 4904 0bb1 6D01     		.2byte	0x16d
 4905 0bb3 3E0E0000 		.4byte	0xe3e
 4906 0bb7 30       		.uleb128 0x30
 4907 0bb8 9B050000 		.4byte	0x59b
 4908 0bbc 5B080000 		.4byte	.LLST44
 4909 0bc0 31       		.uleb128 0x31
 4910 0bc1 8F050000 		.4byte	0x58f
 4911 0bc5 01       		.uleb128 0x1
 4912 0bc6 55       		.byte	0x55
 4913 0bc7 25       		.uleb128 0x25
 4914 0bc8 4C000000 		.4byte	.LBB101
 4915 0bcc 6E030000 		.4byte	.LBE101-.LBB101
 4916 0bd0 32       		.uleb128 0x32
 4917 0bd1 A5050000 		.4byte	0x5a5
 4918 0bd5 6E080000 		.4byte	.LLST45
 4919 0bd9 33       		.uleb128 0x33
 4920 0bda D8090000 		.4byte	0x9d8
 4921 0bde 54000000 		.4byte	.LBB102
 4922 0be2 4C030000 		.4byte	.LBE102-.LBB102
 4923 0be6 01       		.byte	0x1
 4924 0be7 9801     		.2byte	0x198
 4925 0be9 25       		.uleb128 0x25
 4926 0bea 54000000 		.4byte	.LBB103
 4927 0bee 4C030000 		.4byte	.LBE103-.LBB103
 4928 0bf2 32       		.uleb128 0x32
 4929 0bf3 E9090000 		.4byte	0x9e9
 4930 0bf7 98080000 		.4byte	.LLST46
 4931 0bfb 32       		.uleb128 0x32
 4932 0bfc F3090000 		.4byte	0x9f3
 4933 0c00 B8080000 		.4byte	.LLST47
 4934 0c04 2F       		.uleb128 0x2f
 4935 0c05 000A0000 		.4byte	0xa00
 4936 0c09 68000000 		.4byte	.LBB104
 4937 0c0d 84000000 		.4byte	.LBE104-.LBB104
 4938 0c11 01       		.byte	0x1
 4939 0c12 0702     		.2byte	0x207
 4940 0c14 630C0000 		.4byte	0xc63
 4941 0c18 30       		.uleb128 0x30
 4942 0c19 280A0000 		.4byte	0xa28
 4943 0c1d 30090000 		.4byte	.LLST48
 4944 0c21 30       		.uleb128 0x30
 4945 0c22 1C0A0000 		.4byte	0xa1c
 4946 0c26 43090000 		.4byte	.LLST49
 4947 0c2a 30       		.uleb128 0x30
 4948 0c2b 110A0000 		.4byte	0xa11
 4949 0c2f 97090000 		.4byte	.LLST50
 4950 0c33 25       		.uleb128 0x25
 4951 0c34 68000000 		.4byte	.LBB105
 4952 0c38 84000000 		.4byte	.LBE105-.LBB105
 4953 0c3c 32       		.uleb128 0x32
 4954 0c3d 340A0000 		.4byte	0xa34
 4955 0c41 AA090000 		.4byte	.LLST51
 4956 0c45 32       		.uleb128 0x32
 4957 0c46 400A0000 		.4byte	0xa40
 4958 0c4a ED090000 		.4byte	.LLST52
 4959 0c4e 25       		.uleb128 0x25
 4960 0c4f B6000000 		.4byte	.LBB106
ARM GAS  C:\Users\strap\AppData\Local\Temp\ccKJQbxb.s 			page 108


 4961 0c53 24000000 		.4byte	.LBE106-.LBB106
 4962 0c57 32       		.uleb128 0x32
 4963 0c58 4D0A0000 		.4byte	0xa4d
 4964 0c5c 1A0A0000 		.4byte	.LLST53
 4965 0c60 00       		.byte	0
 4966 0c61 00       		.byte	0
 4967 0c62 00       		.byte	0
 4968 0c63 2F       		.uleb128 0x2f
 4969 0c64 000A0000 		.4byte	0xa00
 4970 0c68 1E010000 		.4byte	.LBB107
 4971 0c6c 3E000000 		.4byte	.LBE107-.LBB107
 4972 0c70 01       		.byte	0x1
 4973 0c71 1102     		.2byte	0x211
 4974 0c73 C20C0000 		.4byte	0xcc2
 4975 0c77 30       		.uleb128 0x30
 4976 0c78 280A0000 		.4byte	0xa28
 4977 0c7c 2D0A0000 		.4byte	.LLST54
 4978 0c80 30       		.uleb128 0x30
 4979 0c81 1C0A0000 		.4byte	0xa1c
 4980 0c85 410A0000 		.4byte	.LLST55
 4981 0c89 30       		.uleb128 0x30
 4982 0c8a 110A0000 		.4byte	0xa11
 4983 0c8e 880A0000 		.4byte	.LLST56
 4984 0c92 25       		.uleb128 0x25
 4985 0c93 1E010000 		.4byte	.LBB108
 4986 0c97 3E000000 		.4byte	.LBE108-.LBB108
 4987 0c9b 32       		.uleb128 0x32
 4988 0c9c 340A0000 		.4byte	0xa34
 4989 0ca0 2D0A0000 		.4byte	.LLST54
 4990 0ca4 32       		.uleb128 0x32
 4991 0ca5 400A0000 		.4byte	0xa40
 4992 0ca9 9B0A0000 		.4byte	.LLST58
 4993 0cad 25       		.uleb128 0x25
 4994 0cae 2E010000 		.4byte	.LBB109
 4995 0cb2 1E000000 		.4byte	.LBE109-.LBB109
 4996 0cb6 32       		.uleb128 0x32
 4997 0cb7 4D0A0000 		.4byte	0xa4d
 4998 0cbb C80A0000 		.4byte	.LLST59
 4999 0cbf 00       		.byte	0
 5000 0cc0 00       		.byte	0
 5001 0cc1 00       		.byte	0
 5002 0cc2 2F       		.uleb128 0x2f
 5003 0cc3 000A0000 		.4byte	0xa00
 5004 0cc7 88010000 		.4byte	.LBB110
 5005 0ccb 3E000000 		.4byte	.LBE110-.LBB110
 5006 0ccf 01       		.byte	0x1
 5007 0cd0 1702     		.2byte	0x217
 5008 0cd2 210D0000 		.4byte	0xd21
 5009 0cd6 30       		.uleb128 0x30
 5010 0cd7 280A0000 		.4byte	0xa28
 5011 0cdb F20A0000 		.4byte	.LLST60
 5012 0cdf 30       		.uleb128 0x30
 5013 0ce0 1C0A0000 		.4byte	0xa1c
 5014 0ce4 060B0000 		.4byte	.LLST61
 5015 0ce8 30       		.uleb128 0x30
 5016 0ce9 110A0000 		.4byte	0xa11
 5017 0ced 4D0B0000 		.4byte	.LLST62
ARM GAS  C:\Users\strap\AppData\Local\Temp\ccKJQbxb.s 			page 109


 5018 0cf1 25       		.uleb128 0x25
 5019 0cf2 88010000 		.4byte	.LBB111
 5020 0cf6 3E000000 		.4byte	.LBE111-.LBB111
 5021 0cfa 32       		.uleb128 0x32
 5022 0cfb 340A0000 		.4byte	0xa34
 5023 0cff 600B0000 		.4byte	.LLST63
 5024 0d03 32       		.uleb128 0x32
 5025 0d04 400A0000 		.4byte	0xa40
 5026 0d08 750B0000 		.4byte	.LLST64
 5027 0d0c 25       		.uleb128 0x25
 5028 0d0d 98010000 		.4byte	.LBB112
 5029 0d11 1E000000 		.4byte	.LBE112-.LBB112
 5030 0d15 32       		.uleb128 0x32
 5031 0d16 4D0A0000 		.4byte	0xa4d
 5032 0d1a A20B0000 		.4byte	.LLST65
 5033 0d1e 00       		.byte	0
 5034 0d1f 00       		.byte	0
 5035 0d20 00       		.byte	0
 5036 0d21 2F       		.uleb128 0x2f
 5037 0d22 000A0000 		.4byte	0xa00
 5038 0d26 E6010000 		.4byte	.LBB113
 5039 0d2a 74000000 		.4byte	.LBE113-.LBB113
 5040 0d2e 01       		.byte	0x1
 5041 0d2f 1D02     		.2byte	0x21d
 5042 0d31 800D0000 		.4byte	0xd80
 5043 0d35 30       		.uleb128 0x30
 5044 0d36 280A0000 		.4byte	0xa28
 5045 0d3a CC0B0000 		.4byte	.LLST66
 5046 0d3e 30       		.uleb128 0x30
 5047 0d3f 1C0A0000 		.4byte	0xa1c
 5048 0d43 DF0B0000 		.4byte	.LLST67
 5049 0d47 30       		.uleb128 0x30
 5050 0d48 110A0000 		.4byte	0xa11
 5051 0d4c 250C0000 		.4byte	.LLST68
 5052 0d50 25       		.uleb128 0x25
 5053 0d51 E6010000 		.4byte	.LBB114
 5054 0d55 74000000 		.4byte	.LBE114-.LBB114
 5055 0d59 32       		.uleb128 0x32
 5056 0d5a 340A0000 		.4byte	0xa34
 5057 0d5e 610C0000 		.4byte	.LLST69
 5058 0d62 32       		.uleb128 0x32
 5059 0d63 400A0000 		.4byte	0xa40
 5060 0d67 AF0C0000 		.4byte	.LLST70
 5061 0d6b 25       		.uleb128 0x25
 5062 0d6c 2A020000 		.4byte	.LBB115
 5063 0d70 1E000000 		.4byte	.LBE115-.LBB115
 5064 0d74 32       		.uleb128 0x32
 5065 0d75 4D0A0000 		.4byte	0xa4d
 5066 0d79 D10C0000 		.4byte	.LLST71
 5067 0d7d 00       		.byte	0
 5068 0d7e 00       		.byte	0
 5069 0d7f 00       		.byte	0
 5070 0d80 2F       		.uleb128 0x2f
 5071 0d81 000A0000 		.4byte	0xa00
 5072 0d85 70020000 		.4byte	.LBB116
 5073 0d89 74000000 		.4byte	.LBE116-.LBB116
 5074 0d8d 01       		.byte	0x1
ARM GAS  C:\Users\strap\AppData\Local\Temp\ccKJQbxb.s 			page 110


 5075 0d8e 2502     		.2byte	0x225
 5076 0d90 DF0D0000 		.4byte	0xddf
 5077 0d94 30       		.uleb128 0x30
 5078 0d95 280A0000 		.4byte	0xa28
 5079 0d99 E40C0000 		.4byte	.LLST72
 5080 0d9d 30       		.uleb128 0x30
 5081 0d9e 1C0A0000 		.4byte	0xa1c
 5082 0da2 F70C0000 		.4byte	.LLST73
 5083 0da6 30       		.uleb128 0x30
 5084 0da7 110A0000 		.4byte	0xa11
 5085 0dab 3D0D0000 		.4byte	.LLST74
 5086 0daf 25       		.uleb128 0x25
 5087 0db0 70020000 		.4byte	.LBB117
 5088 0db4 74000000 		.4byte	.LBE117-.LBB117
 5089 0db8 32       		.uleb128 0x32
 5090 0db9 340A0000 		.4byte	0xa34
 5091 0dbd 790D0000 		.4byte	.LLST75
 5092 0dc1 32       		.uleb128 0x32
 5093 0dc2 400A0000 		.4byte	0xa40
 5094 0dc6 C70D0000 		.4byte	.LLST76
 5095 0dca 25       		.uleb128 0x25
 5096 0dcb B4020000 		.4byte	.LBB118
 5097 0dcf 1E000000 		.4byte	.LBE118-.LBB118
 5098 0dd3 32       		.uleb128 0x32
 5099 0dd4 4D0A0000 		.4byte	0xa4d
 5100 0dd8 E90D0000 		.4byte	.LLST77
 5101 0ddc 00       		.byte	0
 5102 0ddd 00       		.byte	0
 5103 0dde 00       		.byte	0
 5104 0ddf 33       		.uleb128 0x33
 5105 0de0 000A0000 		.4byte	0xa00
 5106 0de4 18030000 		.4byte	.LBB119
 5107 0de8 78000000 		.4byte	.LBE119-.LBB119
 5108 0dec 01       		.byte	0x1
 5109 0ded 3102     		.2byte	0x231
 5110 0def 30       		.uleb128 0x30
 5111 0df0 280A0000 		.4byte	0xa28
 5112 0df4 FC0D0000 		.4byte	.LLST78
 5113 0df8 30       		.uleb128 0x30
 5114 0df9 1C0A0000 		.4byte	0xa1c
 5115 0dfd 0F0E0000 		.4byte	.LLST79
 5116 0e01 30       		.uleb128 0x30
 5117 0e02 110A0000 		.4byte	0xa11
 5118 0e06 720E0000 		.4byte	.LLST80
 5119 0e0a 25       		.uleb128 0x25
 5120 0e0b 18030000 		.4byte	.LBB120
 5121 0e0f 78000000 		.4byte	.LBE120-.LBB120
 5122 0e13 32       		.uleb128 0x32
 5123 0e14 340A0000 		.4byte	0xa34
 5124 0e18 850E0000 		.4byte	.LLST81
 5125 0e1c 32       		.uleb128 0x32
 5126 0e1d 400A0000 		.4byte	0xa40
 5127 0e21 D30E0000 		.4byte	.LLST82
 5128 0e25 25       		.uleb128 0x25
 5129 0e26 5C030000 		.4byte	.LBB121
 5130 0e2a 22000000 		.4byte	.LBE121-.LBB121
 5131 0e2e 32       		.uleb128 0x32
ARM GAS  C:\Users\strap\AppData\Local\Temp\ccKJQbxb.s 			page 111


 5132 0e2f 4D0A0000 		.4byte	0xa4d
 5133 0e33 0F0F0000 		.4byte	.LLST83
 5134 0e37 00       		.byte	0
 5135 0e38 00       		.byte	0
 5136 0e39 00       		.byte	0
 5137 0e3a 00       		.byte	0
 5138 0e3b 00       		.byte	0
 5139 0e3c 00       		.byte	0
 5140 0e3d 00       		.byte	0
 5141 0e3e 2F       		.uleb128 0x2f
 5142 0e3f 5B0A0000 		.4byte	0xa5b
 5143 0e43 BE030000 		.4byte	.LBB122
 5144 0e47 82000000 		.4byte	.LBE122-.LBB122
 5145 0e4b 01       		.byte	0x1
 5146 0e4c 7301     		.2byte	0x173
 5147 0e4e 930E0000 		.4byte	0xe93
 5148 0e52 30       		.uleb128 0x30
 5149 0e53 8C0A0000 		.4byte	0xa8c
 5150 0e57 220F0000 		.4byte	.LLST84
 5151 0e5b 30       		.uleb128 0x30
 5152 0e5c 800A0000 		.4byte	0xa80
 5153 0e60 630F0000 		.4byte	.LLST85
 5154 0e64 30       		.uleb128 0x30
 5155 0e65 740A0000 		.4byte	0xa74
 5156 0e69 D50F0000 		.4byte	.LLST86
 5157 0e6d 30       		.uleb128 0x30
 5158 0e6e 680A0000 		.4byte	0xa68
 5159 0e72 1B100000 		.4byte	.LLST87
 5160 0e76 25       		.uleb128 0x25
 5161 0e77 BE030000 		.4byte	.LBB123
 5162 0e7b 82000000 		.4byte	.LBE123-.LBB123
 5163 0e7f 32       		.uleb128 0x32
 5164 0e80 980A0000 		.4byte	0xa98
 5165 0e84 2E100000 		.4byte	.LLST88
 5166 0e88 32       		.uleb128 0x32
 5167 0e89 A40A0000 		.4byte	0xaa4
 5168 0e8d 45100000 		.4byte	.LLST89
 5169 0e91 00       		.byte	0
 5170 0e92 00       		.byte	0
 5171 0e93 34       		.uleb128 0x34
 5172 0e94 82050000 		.4byte	0x582
 5173 0e98 62040000 		.4byte	.LBB124
 5174 0e9c 30000000 		.4byte	.Ldebug_ranges0+0x30
 5175 0ea0 01       		.byte	0x1
 5176 0ea1 7901     		.2byte	0x179
 5177 0ea3 24110000 		.4byte	0x1124
 5178 0ea7 35       		.uleb128 0x35
 5179 0ea8 9B050000 		.4byte	0x59b
 5180 0eac 35       		.uleb128 0x35
 5181 0ead 8F050000 		.4byte	0x58f
 5182 0eb1 20       		.uleb128 0x20
 5183 0eb2 30000000 		.4byte	.Ldebug_ranges0+0x30
 5184 0eb6 32       		.uleb128 0x32
 5185 0eb7 A5050000 		.4byte	0x5a5
 5186 0ebb 66100000 		.4byte	.LLST90
 5187 0ebf 33       		.uleb128 0x33
 5188 0ec0 D8090000 		.4byte	0x9d8
ARM GAS  C:\Users\strap\AppData\Local\Temp\ccKJQbxb.s 			page 112


 5189 0ec4 66040000 		.4byte	.LBB126
 5190 0ec8 04030000 		.4byte	.LBE126-.LBB126
 5191 0ecc 01       		.byte	0x1
 5192 0ecd 9801     		.2byte	0x198
 5193 0ecf 25       		.uleb128 0x25
 5194 0ed0 66040000 		.4byte	.LBB127
 5195 0ed4 04030000 		.4byte	.LBE127-.LBB127
 5196 0ed8 32       		.uleb128 0x32
 5197 0ed9 E9090000 		.4byte	0x9e9
 5198 0edd 8F100000 		.4byte	.LLST91
 5199 0ee1 32       		.uleb128 0x32
 5200 0ee2 F3090000 		.4byte	0x9f3
 5201 0ee6 AF100000 		.4byte	.LLST92
 5202 0eea 2F       		.uleb128 0x2f
 5203 0eeb 000A0000 		.4byte	0xa00
 5204 0eef 78040000 		.4byte	.LBB128
 5205 0ef3 72000000 		.4byte	.LBE128-.LBB128
 5206 0ef7 01       		.byte	0x1
 5207 0ef8 0702     		.2byte	0x207
 5208 0efa 490F0000 		.4byte	0xf49
 5209 0efe 30       		.uleb128 0x30
 5210 0eff 280A0000 		.4byte	0xa28
 5211 0f03 27110000 		.4byte	.LLST93
 5212 0f07 30       		.uleb128 0x30
 5213 0f08 1C0A0000 		.4byte	0xa1c
 5214 0f0c 3A110000 		.4byte	.LLST94
 5215 0f10 30       		.uleb128 0x30
 5216 0f11 110A0000 		.4byte	0xa11
 5217 0f15 75110000 		.4byte	.LLST95
 5218 0f19 25       		.uleb128 0x25
 5219 0f1a 78040000 		.4byte	.LBB129
 5220 0f1e 72000000 		.4byte	.LBE129-.LBB129
 5221 0f22 32       		.uleb128 0x32
 5222 0f23 340A0000 		.4byte	0xa34
 5223 0f27 B1110000 		.4byte	.LLST96
 5224 0f2b 32       		.uleb128 0x32
 5225 0f2c 400A0000 		.4byte	0xa40
 5226 0f30 F4110000 		.4byte	.LLST97
 5227 0f34 25       		.uleb128 0x25
 5228 0f35 BA040000 		.4byte	.LBB130
 5229 0f39 20000000 		.4byte	.LBE130-.LBB130
 5230 0f3d 32       		.uleb128 0x32
 5231 0f3e 4D0A0000 		.4byte	0xa4d
 5232 0f42 30120000 		.4byte	.LLST98
 5233 0f46 00       		.byte	0
 5234 0f47 00       		.byte	0
 5235 0f48 00       		.byte	0
 5236 0f49 2F       		.uleb128 0x2f
 5237 0f4a 000A0000 		.4byte	0xa00
 5238 0f4e 14050000 		.4byte	.LBB131
 5239 0f52 32000000 		.4byte	.LBE131-.LBB131
 5240 0f56 01       		.byte	0x1
 5241 0f57 1102     		.2byte	0x211
 5242 0f59 A80F0000 		.4byte	0xfa8
 5243 0f5d 30       		.uleb128 0x30
 5244 0f5e 280A0000 		.4byte	0xa28
 5245 0f62 43120000 		.4byte	.LLST99
ARM GAS  C:\Users\strap\AppData\Local\Temp\ccKJQbxb.s 			page 113


 5246 0f66 30       		.uleb128 0x30
 5247 0f67 1C0A0000 		.4byte	0xa1c
 5248 0f6b 57120000 		.4byte	.LLST100
 5249 0f6f 30       		.uleb128 0x30
 5250 0f70 110A0000 		.4byte	0xa11
 5251 0f74 9C120000 		.4byte	.LLST101
 5252 0f78 25       		.uleb128 0x25
 5253 0f79 14050000 		.4byte	.LBB132
 5254 0f7d 32000000 		.4byte	.LBE132-.LBB132
 5255 0f81 32       		.uleb128 0x32
 5256 0f82 340A0000 		.4byte	0xa34
 5257 0f86 43120000 		.4byte	.LLST99
 5258 0f8a 32       		.uleb128 0x32
 5259 0f8b 400A0000 		.4byte	0xa40
 5260 0f8f AF120000 		.4byte	.LLST103
 5261 0f93 25       		.uleb128 0x25
 5262 0f94 20050000 		.4byte	.LBB133
 5263 0f98 18000000 		.4byte	.LBE133-.LBB133
 5264 0f9c 32       		.uleb128 0x32
 5265 0f9d 4D0A0000 		.4byte	0xa4d
 5266 0fa1 EB120000 		.4byte	.LLST104
 5267 0fa5 00       		.byte	0
 5268 0fa6 00       		.byte	0
 5269 0fa7 00       		.byte	0
 5270 0fa8 2F       		.uleb128 0x2f
 5271 0fa9 000A0000 		.4byte	0xa00
 5272 0fad 60050000 		.4byte	.LBB134
 5273 0fb1 36000000 		.4byte	.LBE134-.LBB134
 5274 0fb5 01       		.byte	0x1
 5275 0fb6 1702     		.2byte	0x217
 5276 0fb8 07100000 		.4byte	0x1007
 5277 0fbc 30       		.uleb128 0x30
 5278 0fbd 280A0000 		.4byte	0xa28
 5279 0fc1 1C130000 		.4byte	.LLST105
 5280 0fc5 30       		.uleb128 0x30
 5281 0fc6 1C0A0000 		.4byte	0xa1c
 5282 0fca 30130000 		.4byte	.LLST106
 5283 0fce 30       		.uleb128 0x30
 5284 0fcf 110A0000 		.4byte	0xa11
 5285 0fd3 75130000 		.4byte	.LLST107
 5286 0fd7 25       		.uleb128 0x25
 5287 0fd8 60050000 		.4byte	.LBB135
 5288 0fdc 36000000 		.4byte	.LBE135-.LBB135
 5289 0fe0 32       		.uleb128 0x32
 5290 0fe1 340A0000 		.4byte	0xa34
 5291 0fe5 88130000 		.4byte	.LLST108
 5292 0fe9 32       		.uleb128 0x32
 5293 0fea 400A0000 		.4byte	0xa40
 5294 0fee 9D130000 		.4byte	.LLST109
 5295 0ff2 25       		.uleb128 0x25
 5296 0ff3 70050000 		.4byte	.LBB136
 5297 0ff7 1A000000 		.4byte	.LBE136-.LBB136
 5298 0ffb 32       		.uleb128 0x32
 5299 0ffc 4D0A0000 		.4byte	0xa4d
 5300 1000 D9130000 		.4byte	.LLST110
 5301 1004 00       		.byte	0
 5302 1005 00       		.byte	0
ARM GAS  C:\Users\strap\AppData\Local\Temp\ccKJQbxb.s 			page 114


 5303 1006 00       		.byte	0
 5304 1007 2F       		.uleb128 0x2f
 5305 1008 000A0000 		.4byte	0xa00
 5306 100c B0050000 		.4byte	.LBB137
 5307 1010 78000000 		.4byte	.LBE137-.LBB137
 5308 1014 01       		.byte	0x1
 5309 1015 1D02     		.2byte	0x21d
 5310 1017 66100000 		.4byte	0x1066
 5311 101b 30       		.uleb128 0x30
 5312 101c 280A0000 		.4byte	0xa28
 5313 1020 0A140000 		.4byte	.LLST111
 5314 1024 30       		.uleb128 0x30
 5315 1025 1C0A0000 		.4byte	0xa1c
 5316 1029 1D140000 		.4byte	.LLST112
 5317 102d 30       		.uleb128 0x30
 5318 102e 110A0000 		.4byte	0xa11
 5319 1032 80140000 		.4byte	.LLST113
 5320 1036 25       		.uleb128 0x25
 5321 1037 B0050000 		.4byte	.LBB138
 5322 103b 78000000 		.4byte	.LBE138-.LBB138
 5323 103f 32       		.uleb128 0x32
 5324 1040 340A0000 		.4byte	0xa34
 5325 1044 BC140000 		.4byte	.LLST114
 5326 1048 32       		.uleb128 0x32
 5327 1049 400A0000 		.4byte	0xa40
 5328 104d FF140000 		.4byte	.LLST115
 5329 1051 25       		.uleb128 0x25
 5330 1052 FA050000 		.4byte	.LBB139
 5331 1056 1E000000 		.4byte	.LBE139-.LBB139
 5332 105a 32       		.uleb128 0x32
 5333 105b 4D0A0000 		.4byte	0xa4d
 5334 105f 12150000 		.4byte	.LLST116
 5335 1063 00       		.byte	0
 5336 1064 00       		.byte	0
 5337 1065 00       		.byte	0
 5338 1066 2F       		.uleb128 0x2f
 5339 1067 000A0000 		.4byte	0xa00
 5340 106b 3A060000 		.4byte	.LBB140
 5341 106f 76000000 		.4byte	.LBE140-.LBB140
 5342 1073 01       		.byte	0x1
 5343 1074 2502     		.2byte	0x225
 5344 1076 C5100000 		.4byte	0x10c5
 5345 107a 30       		.uleb128 0x30
 5346 107b 280A0000 		.4byte	0xa28
 5347 107f 25150000 		.4byte	.LLST117
 5348 1083 30       		.uleb128 0x30
 5349 1084 1C0A0000 		.4byte	0xa1c
 5350 1088 38150000 		.4byte	.LLST118
 5351 108c 30       		.uleb128 0x30
 5352 108d 110A0000 		.4byte	0xa11
 5353 1091 7E150000 		.4byte	.LLST119
 5354 1095 25       		.uleb128 0x25
 5355 1096 3A060000 		.4byte	.LBB141
 5356 109a 76000000 		.4byte	.LBE141-.LBB141
 5357 109e 32       		.uleb128 0x32
 5358 109f 340A0000 		.4byte	0xa34
 5359 10a3 BA150000 		.4byte	.LLST120
ARM GAS  C:\Users\strap\AppData\Local\Temp\ccKJQbxb.s 			page 115


 5360 10a7 32       		.uleb128 0x32
 5361 10a8 400A0000 		.4byte	0xa40
 5362 10ac FD150000 		.4byte	.LLST121
 5363 10b0 25       		.uleb128 0x25
 5364 10b1 82060000 		.4byte	.LBB142
 5365 10b5 1C000000 		.4byte	.LBE142-.LBB142
 5366 10b9 32       		.uleb128 0x32
 5367 10ba 4D0A0000 		.4byte	0xa4d
 5368 10be 10160000 		.4byte	.LLST122
 5369 10c2 00       		.byte	0
 5370 10c3 00       		.byte	0
 5371 10c4 00       		.byte	0
 5372 10c5 33       		.uleb128 0x33
 5373 10c6 000A0000 		.4byte	0xa00
 5374 10ca DA060000 		.4byte	.LBB143
 5375 10ce 80000000 		.4byte	.LBE143-.LBB143
 5376 10d2 01       		.byte	0x1
 5377 10d3 3102     		.2byte	0x231
 5378 10d5 30       		.uleb128 0x30
 5379 10d6 280A0000 		.4byte	0xa28
 5380 10da 41160000 		.4byte	.LLST123
 5381 10de 30       		.uleb128 0x30
 5382 10df 1C0A0000 		.4byte	0xa1c
 5383 10e3 54160000 		.4byte	.LLST124
 5384 10e7 30       		.uleb128 0x30
 5385 10e8 110A0000 		.4byte	0xa11
 5386 10ec 72160000 		.4byte	.LLST125
 5387 10f0 25       		.uleb128 0x25
 5388 10f1 DA060000 		.4byte	.LBB144
 5389 10f5 80000000 		.4byte	.LBE144-.LBB144
 5390 10f9 32       		.uleb128 0x32
 5391 10fa 340A0000 		.4byte	0xa34
 5392 10fe AE160000 		.4byte	.LLST126
 5393 1102 32       		.uleb128 0x32
 5394 1103 400A0000 		.4byte	0xa40
 5395 1107 F1160000 		.4byte	.LLST127
 5396 110b 25       		.uleb128 0x25
 5397 110c 2A070000 		.4byte	.LBB145
 5398 1110 20000000 		.4byte	.LBE145-.LBB145
 5399 1114 32       		.uleb128 0x32
 5400 1115 4D0A0000 		.4byte	0xa4d
 5401 1119 2D170000 		.4byte	.LLST128
 5402 111d 00       		.byte	0
 5403 111e 00       		.byte	0
 5404 111f 00       		.byte	0
 5405 1120 00       		.byte	0
 5406 1121 00       		.byte	0
 5407 1122 00       		.byte	0
 5408 1123 00       		.byte	0
 5409 1124 2F       		.uleb128 0x2f
 5410 1125 5B0A0000 		.4byte	0xa5b
 5411 1129 AA070000 		.4byte	.LBB148
 5412 112d 7A000000 		.4byte	.LBE148-.LBB148
 5413 1131 01       		.byte	0x1
 5414 1132 7D01     		.2byte	0x17d
 5415 1134 79110000 		.4byte	0x1179
 5416 1138 30       		.uleb128 0x30
ARM GAS  C:\Users\strap\AppData\Local\Temp\ccKJQbxb.s 			page 116


 5417 1139 8C0A0000 		.4byte	0xa8c
 5418 113d 40170000 		.4byte	.LLST129
 5419 1141 30       		.uleb128 0x30
 5420 1142 800A0000 		.4byte	0xa80
 5421 1146 81170000 		.4byte	.LLST130
 5422 114a 30       		.uleb128 0x30
 5423 114b 740A0000 		.4byte	0xa74
 5424 114f F3170000 		.4byte	.LLST131
 5425 1153 30       		.uleb128 0x30
 5426 1154 680A0000 		.4byte	0xa68
 5427 1158 39180000 		.4byte	.LLST132
 5428 115c 25       		.uleb128 0x25
 5429 115d AA070000 		.4byte	.LBB149
 5430 1161 7A000000 		.4byte	.LBE149-.LBB149
 5431 1165 32       		.uleb128 0x32
 5432 1166 980A0000 		.4byte	0xa98
 5433 116a 4C180000 		.4byte	.LLST133
 5434 116e 32       		.uleb128 0x32
 5435 116f A40A0000 		.4byte	0xaa4
 5436 1173 63180000 		.4byte	.LLST134
 5437 1177 00       		.byte	0
 5438 1178 00       		.byte	0
 5439 1179 2F       		.uleb128 0x2f
 5440 117a 82050000 		.4byte	0x582
 5441 117e 34080000 		.4byte	.LBB150
 5442 1182 7C030000 		.4byte	.LBE150-.LBB150
 5443 1186 01       		.byte	0x1
 5444 1187 8201     		.2byte	0x182
 5445 1189 0E140000 		.4byte	0x140e
 5446 118d 35       		.uleb128 0x35
 5447 118e 9B050000 		.4byte	0x59b
 5448 1192 35       		.uleb128 0x35
 5449 1193 8F050000 		.4byte	0x58f
 5450 1197 25       		.uleb128 0x25
 5451 1198 34080000 		.4byte	.LBB151
 5452 119c 7C030000 		.4byte	.LBE151-.LBB151
 5453 11a0 32       		.uleb128 0x32
 5454 11a1 A5050000 		.4byte	0x5a5
 5455 11a5 84180000 		.4byte	.LLST135
 5456 11a9 33       		.uleb128 0x33
 5457 11aa D8090000 		.4byte	0x9d8
 5458 11ae 38080000 		.4byte	.LBB152
 5459 11b2 56030000 		.4byte	.LBE152-.LBB152
 5460 11b6 01       		.byte	0x1
 5461 11b7 9801     		.2byte	0x198
 5462 11b9 25       		.uleb128 0x25
 5463 11ba 38080000 		.4byte	.LBB153
 5464 11be 56030000 		.4byte	.LBE153-.LBB153
 5465 11c2 32       		.uleb128 0x32
 5466 11c3 E9090000 		.4byte	0x9e9
 5467 11c7 A2180000 		.4byte	.LLST136
 5468 11cb 32       		.uleb128 0x32
 5469 11cc F3090000 		.4byte	0x9f3
 5470 11d0 C2180000 		.4byte	.LLST137
 5471 11d4 2F       		.uleb128 0x2f
 5472 11d5 000A0000 		.4byte	0xa00
 5473 11d9 4A080000 		.4byte	.LBB154
ARM GAS  C:\Users\strap\AppData\Local\Temp\ccKJQbxb.s 			page 117


 5474 11dd 8C000000 		.4byte	.LBE154-.LBB154
 5475 11e1 01       		.byte	0x1
 5476 11e2 0702     		.2byte	0x207
 5477 11e4 33120000 		.4byte	0x1233
 5478 11e8 30       		.uleb128 0x30
 5479 11e9 280A0000 		.4byte	0xa28
 5480 11ed 3A190000 		.4byte	.LLST138
 5481 11f1 30       		.uleb128 0x30
 5482 11f2 1C0A0000 		.4byte	0xa1c
 5483 11f6 4D190000 		.4byte	.LLST139
 5484 11fa 30       		.uleb128 0x30
 5485 11fb 110A0000 		.4byte	0xa11
 5486 11ff 6B190000 		.4byte	.LLST140
 5487 1203 25       		.uleb128 0x25
 5488 1204 4A080000 		.4byte	.LBB155
 5489 1208 8C000000 		.4byte	.LBE155-.LBB155
 5490 120c 32       		.uleb128 0x32
 5491 120d 340A0000 		.4byte	0xa34
 5492 1211 8D190000 		.4byte	.LLST141
 5493 1215 32       		.uleb128 0x32
 5494 1216 400A0000 		.4byte	0xa40
 5495 121a D0190000 		.4byte	.LLST142
 5496 121e 25       		.uleb128 0x25
 5497 121f 9C080000 		.4byte	.LBB156
 5498 1223 26000000 		.4byte	.LBE156-.LBB156
 5499 1227 32       		.uleb128 0x32
 5500 1228 4D0A0000 		.4byte	0xa4d
 5501 122c FD190000 		.4byte	.LLST143
 5502 1230 00       		.byte	0
 5503 1231 00       		.byte	0
 5504 1232 00       		.byte	0
 5505 1233 2F       		.uleb128 0x2f
 5506 1234 000A0000 		.4byte	0xa00
 5507 1238 0A090000 		.4byte	.LBB157
 5508 123c 3C000000 		.4byte	.LBE157-.LBB157
 5509 1240 01       		.byte	0x1
 5510 1241 1102     		.2byte	0x211
 5511 1243 92120000 		.4byte	0x1292
 5512 1247 30       		.uleb128 0x30
 5513 1248 280A0000 		.4byte	0xa28
 5514 124c 101A0000 		.4byte	.LLST144
 5515 1250 30       		.uleb128 0x30
 5516 1251 1C0A0000 		.4byte	0xa1c
 5517 1255 241A0000 		.4byte	.LLST145
 5518 1259 30       		.uleb128 0x30
 5519 125a 110A0000 		.4byte	0xa11
 5520 125e 691A0000 		.4byte	.LLST146
 5521 1262 25       		.uleb128 0x25
 5522 1263 0A090000 		.4byte	.LBB158
 5523 1267 3C000000 		.4byte	.LBE158-.LBB158
 5524 126b 32       		.uleb128 0x32
 5525 126c 340A0000 		.4byte	0xa34
 5526 1270 101A0000 		.4byte	.LLST144
 5527 1274 32       		.uleb128 0x32
 5528 1275 400A0000 		.4byte	0xa40
 5529 1279 7C1A0000 		.4byte	.LLST148
 5530 127d 25       		.uleb128 0x25
ARM GAS  C:\Users\strap\AppData\Local\Temp\ccKJQbxb.s 			page 118


 5531 127e 1A090000 		.4byte	.LBB159
 5532 1282 1C000000 		.4byte	.LBE159-.LBB159
 5533 1286 32       		.uleb128 0x32
 5534 1287 4D0A0000 		.4byte	0xa4d
 5535 128b B81A0000 		.4byte	.LLST149
 5536 128f 00       		.byte	0
 5537 1290 00       		.byte	0
 5538 1291 00       		.byte	0
 5539 1292 2F       		.uleb128 0x2f
 5540 1293 000A0000 		.4byte	0xa00
 5541 1297 6A090000 		.4byte	.LBB160
 5542 129b 3E000000 		.4byte	.LBE160-.LBB160
 5543 129f 01       		.byte	0x1
 5544 12a0 1702     		.2byte	0x217
 5545 12a2 F1120000 		.4byte	0x12f1
 5546 12a6 30       		.uleb128 0x30
 5547 12a7 280A0000 		.4byte	0xa28
 5548 12ab CB1A0000 		.4byte	.LLST150
 5549 12af 30       		.uleb128 0x30
 5550 12b0 1C0A0000 		.4byte	0xa1c
 5551 12b4 DF1A0000 		.4byte	.LLST151
 5552 12b8 30       		.uleb128 0x30
 5553 12b9 110A0000 		.4byte	0xa11
 5554 12bd 261B0000 		.4byte	.LLST152
 5555 12c1 25       		.uleb128 0x25
 5556 12c2 6A090000 		.4byte	.LBB161
 5557 12c6 3E000000 		.4byte	.LBE161-.LBB161
 5558 12ca 32       		.uleb128 0x32
 5559 12cb 340A0000 		.4byte	0xa34
 5560 12cf 391B0000 		.4byte	.LLST153
 5561 12d3 32       		.uleb128 0x32
 5562 12d4 400A0000 		.4byte	0xa40
 5563 12d8 4E1B0000 		.4byte	.LLST154
 5564 12dc 25       		.uleb128 0x25
 5565 12dd 7A090000 		.4byte	.LBB162
 5566 12e1 1E000000 		.4byte	.LBE162-.LBB162
 5567 12e5 32       		.uleb128 0x32
 5568 12e6 4D0A0000 		.4byte	0xa4d
 5569 12ea 7B1B0000 		.4byte	.LLST155
 5570 12ee 00       		.byte	0
 5571 12ef 00       		.byte	0
 5572 12f0 00       		.byte	0
 5573 12f1 2F       		.uleb128 0x2f
 5574 12f2 000A0000 		.4byte	0xa00
 5575 12f6 C6090000 		.4byte	.LBB163
 5576 12fa 78000000 		.4byte	.LBE163-.LBB163
 5577 12fe 01       		.byte	0x1
 5578 12ff 1D02     		.2byte	0x21d
 5579 1301 50130000 		.4byte	0x1350
 5580 1305 30       		.uleb128 0x30
 5581 1306 280A0000 		.4byte	0xa28
 5582 130a A51B0000 		.4byte	.LLST156
 5583 130e 30       		.uleb128 0x30
 5584 130f 1C0A0000 		.4byte	0xa1c
 5585 1313 B81B0000 		.4byte	.LLST157
 5586 1317 30       		.uleb128 0x30
 5587 1318 110A0000 		.4byte	0xa11
ARM GAS  C:\Users\strap\AppData\Local\Temp\ccKJQbxb.s 			page 119


 5588 131c 1B1C0000 		.4byte	.LLST158
 5589 1320 25       		.uleb128 0x25
 5590 1321 C6090000 		.4byte	.LBB164
 5591 1325 78000000 		.4byte	.LBE164-.LBB164
 5592 1329 32       		.uleb128 0x32
 5593 132a 340A0000 		.4byte	0xa34
 5594 132e 571C0000 		.4byte	.LLST159
 5595 1332 32       		.uleb128 0x32
 5596 1333 400A0000 		.4byte	0xa40
 5597 1337 A51C0000 		.4byte	.LLST160
 5598 133b 25       		.uleb128 0x25
 5599 133c 0A0A0000 		.4byte	.LBB165
 5600 1340 22000000 		.4byte	.LBE165-.LBB165
 5601 1344 32       		.uleb128 0x32
 5602 1345 4D0A0000 		.4byte	0xa4d
 5603 1349 B81C0000 		.4byte	.LLST161
 5604 134d 00       		.byte	0
 5605 134e 00       		.byte	0
 5606 134f 00       		.byte	0
 5607 1350 2F       		.uleb128 0x2f
 5608 1351 000A0000 		.4byte	0xa00
 5609 1355 520A0000 		.4byte	.LBB166
 5610 1359 80000000 		.4byte	.LBE166-.LBB166
 5611 135d 01       		.byte	0x1
 5612 135e 2502     		.2byte	0x225
 5613 1360 AF130000 		.4byte	0x13af
 5614 1364 30       		.uleb128 0x30
 5615 1365 280A0000 		.4byte	0xa28
 5616 1369 CB1C0000 		.4byte	.LLST162
 5617 136d 30       		.uleb128 0x30
 5618 136e 1C0A0000 		.4byte	0xa1c
 5619 1372 DE1C0000 		.4byte	.LLST163
 5620 1376 30       		.uleb128 0x30
 5621 1377 110A0000 		.4byte	0xa11
 5622 137b 411D0000 		.4byte	.LLST164
 5623 137f 25       		.uleb128 0x25
 5624 1380 520A0000 		.4byte	.LBB167
 5625 1384 80000000 		.4byte	.LBE167-.LBB167
 5626 1388 32       		.uleb128 0x32
 5627 1389 340A0000 		.4byte	0xa34
 5628 138d 6E1D0000 		.4byte	.LLST165
 5629 1391 32       		.uleb128 0x32
 5630 1392 400A0000 		.4byte	0xa40
 5631 1396 B11D0000 		.4byte	.LLST166
 5632 139a 25       		.uleb128 0x25
 5633 139b A00A0000 		.4byte	.LBB168
 5634 139f 20000000 		.4byte	.LBE168-.LBB168
 5635 13a3 32       		.uleb128 0x32
 5636 13a4 4D0A0000 		.4byte	0xa4d
 5637 13a8 ED1D0000 		.4byte	.LLST167
 5638 13ac 00       		.byte	0
 5639 13ad 00       		.byte	0
 5640 13ae 00       		.byte	0
 5641 13af 33       		.uleb128 0x33
 5642 13b0 000A0000 		.4byte	0xa00
 5643 13b4 000B0000 		.4byte	.LBB169
 5644 13b8 7E000000 		.4byte	.LBE169-.LBB169
ARM GAS  C:\Users\strap\AppData\Local\Temp\ccKJQbxb.s 			page 120


 5645 13bc 01       		.byte	0x1
 5646 13bd 3102     		.2byte	0x231
 5647 13bf 30       		.uleb128 0x30
 5648 13c0 280A0000 		.4byte	0xa28
 5649 13c4 171E0000 		.4byte	.LLST168
 5650 13c8 30       		.uleb128 0x30
 5651 13c9 1C0A0000 		.4byte	0xa1c
 5652 13cd 2A1E0000 		.4byte	.LLST169
 5653 13d1 30       		.uleb128 0x30
 5654 13d2 110A0000 		.4byte	0xa11
 5655 13d6 8D1E0000 		.4byte	.LLST170
 5656 13da 25       		.uleb128 0x25
 5657 13db 000B0000 		.4byte	.LBB170
 5658 13df 7E000000 		.4byte	.LBE170-.LBB170
 5659 13e3 32       		.uleb128 0x32
 5660 13e4 340A0000 		.4byte	0xa34
 5661 13e8 A01E0000 		.4byte	.LLST171
 5662 13ec 32       		.uleb128 0x32
 5663 13ed 400A0000 		.4byte	0xa40
 5664 13f1 E31E0000 		.4byte	.LLST172
 5665 13f5 25       		.uleb128 0x25
 5666 13f6 4E0B0000 		.4byte	.LBB171
 5667 13fa 1E000000 		.4byte	.LBE171-.LBB171
 5668 13fe 32       		.uleb128 0x32
 5669 13ff 4D0A0000 		.4byte	0xa4d
 5670 1403 1F1F0000 		.4byte	.LLST173
 5671 1407 00       		.byte	0
 5672 1408 00       		.byte	0
 5673 1409 00       		.byte	0
 5674 140a 00       		.byte	0
 5675 140b 00       		.byte	0
 5676 140c 00       		.byte	0
 5677 140d 00       		.byte	0
 5678 140e 2F       		.uleb128 0x2f
 5679 140f 5B0A0000 		.4byte	0xa5b
 5680 1413 B40B0000 		.4byte	.LBB172
 5681 1417 82000000 		.4byte	.LBE172-.LBB172
 5682 141b 01       		.byte	0x1
 5683 141c 8501     		.2byte	0x185
 5684 141e 63140000 		.4byte	0x1463
 5685 1422 30       		.uleb128 0x30
 5686 1423 8C0A0000 		.4byte	0xa8c
 5687 1427 501F0000 		.4byte	.LLST174
 5688 142b 30       		.uleb128 0x30
 5689 142c 800A0000 		.4byte	0xa80
 5690 1430 911F0000 		.4byte	.LLST175
 5691 1434 30       		.uleb128 0x30
 5692 1435 740A0000 		.4byte	0xa74
 5693 1439 03200000 		.4byte	.LLST176
 5694 143d 30       		.uleb128 0x30
 5695 143e 680A0000 		.4byte	0xa68
 5696 1442 49200000 		.4byte	.LLST177
 5697 1446 25       		.uleb128 0x25
 5698 1447 B40B0000 		.4byte	.LBB173
 5699 144b 82000000 		.4byte	.LBE173-.LBB173
 5700 144f 32       		.uleb128 0x32
 5701 1450 980A0000 		.4byte	0xa98
ARM GAS  C:\Users\strap\AppData\Local\Temp\ccKJQbxb.s 			page 121


 5702 1454 5C200000 		.4byte	.LLST178
 5703 1458 32       		.uleb128 0x32
 5704 1459 A40A0000 		.4byte	0xaa4
 5705 145d 73200000 		.4byte	.LLST179
 5706 1461 00       		.byte	0
 5707 1462 00       		.byte	0
 5708 1463 36       		.uleb128 0x36
 5709 1464 38000000 		.4byte	.LVL97
 5710 1468 60170000 		.4byte	0x1760
 5711 146c 77140000 		.4byte	0x1477
 5712 1470 24       		.uleb128 0x24
 5713 1471 01       		.uleb128 0x1
 5714 1472 50       		.byte	0x50
 5715 1473 02       		.uleb128 0x2
 5716 1474 74       		.byte	0x74
 5717 1475 00       		.sleb128 0
 5718 1476 00       		.byte	0
 5719 1477 36       		.uleb128 0x36
 5720 1478 44000000 		.4byte	.LVL100
 5721 147c 60170000 		.4byte	0x1760
 5722 1480 8B140000 		.4byte	0x148b
 5723 1484 24       		.uleb128 0x24
 5724 1485 01       		.uleb128 0x1
 5725 1486 50       		.byte	0x50
 5726 1487 02       		.uleb128 0x2
 5727 1488 74       		.byte	0x74
 5728 1489 00       		.sleb128 0
 5729 148a 00       		.byte	0
 5730 148b 36       		.uleb128 0x36
 5731 148c 5C0C0000 		.4byte	.LVL513
 5732 1490 6B170000 		.4byte	0x176b
 5733 1494 9F140000 		.4byte	0x149f
 5734 1498 24       		.uleb128 0x24
 5735 1499 01       		.uleb128 0x1
 5736 149a 50       		.byte	0x50
 5737 149b 02       		.uleb128 0x2
 5738 149c 75       		.byte	0x75
 5739 149d 00       		.sleb128 0
 5740 149e 00       		.byte	0
 5741 149f 23       		.uleb128 0x23
 5742 14a0 620C0000 		.4byte	.LVL514
 5743 14a4 6B170000 		.4byte	0x176b
 5744 14a8 24       		.uleb128 0x24
 5745 14a9 01       		.uleb128 0x1
 5746 14aa 50       		.byte	0x50
 5747 14ab 03       		.uleb128 0x3
 5748 14ac 91       		.byte	0x91
 5749 14ad 4C       		.sleb128 -52
 5750 14ae 06       		.byte	0x6
 5751 14af 00       		.byte	0
 5752 14b0 00       		.byte	0
 5753 14b1 37       		.uleb128 0x37
 5754 14b2 72040000 		.4byte	.LASF133
 5755 14b6 01       		.byte	0x1
 5756 14b7 50       		.byte	0x50
 5757 14b8 7C020000 		.4byte	0x27c
 5758 14bc 00000000 		.4byte	.LFB37
ARM GAS  C:\Users\strap\AppData\Local\Temp\ccKJQbxb.s 			page 122


 5759 14c0 F8000000 		.4byte	.LFE37-.LFB37
 5760 14c4 01       		.uleb128 0x1
 5761 14c5 9C       		.byte	0x9c
 5762 14c6 AC150000 		.4byte	0x15ac
 5763 14ca 1D       		.uleb128 0x1d
 5764 14cb 13020000 		.4byte	.LASF102
 5765 14cf 01       		.byte	0x1
 5766 14d0 50       		.byte	0x50
 5767 14d1 28050000 		.4byte	0x528
 5768 14d5 94200000 		.4byte	.LLST180
 5769 14d9 1D       		.uleb128 0x1d
 5770 14da FC040000 		.4byte	.LASF129
 5771 14de 01       		.byte	0x1
 5772 14df 50       		.byte	0x50
 5773 14e0 FA000000 		.4byte	0xfa
 5774 14e4 B5200000 		.4byte	.LLST181
 5775 14e8 1E       		.uleb128 0x1e
 5776 14e9 B9000000 		.4byte	.LASF104
 5777 14ed 01       		.byte	0x1
 5778 14ee 54       		.byte	0x54
 5779 14ef 01080000 		.4byte	0x801
 5780 14f3 D3200000 		.4byte	.LLST182
 5781 14f7 1F       		.uleb128 0x1f
 5782 14f8 67696400 		.ascii	"gid\000"
 5783 14fc 01       		.byte	0x1
 5784 14fd 55       		.byte	0x55
 5785 14fe FA000000 		.4byte	0xfa
 5786 1502 F1200000 		.4byte	.LLST183
 5787 1506 1E       		.uleb128 0x1e
 5788 1507 91030000 		.4byte	.LASF130
 5789 150b 01       		.byte	0x1
 5790 150c 58       		.byte	0x58
 5791 150d 01050000 		.4byte	0x501
 5792 1511 67210000 		.4byte	.LLST184
 5793 1515 27       		.uleb128 0x27
 5794 1516 48000000 		.4byte	.Ldebug_ranges0+0x48
 5795 151a 9A150000 		.4byte	0x159a
 5796 151e 1E       		.uleb128 0x1e
 5797 151f 8C070000 		.4byte	.LASF131
 5798 1523 01       		.byte	0x1
 5799 1524 60       		.byte	0x60
 5800 1525 FA000000 		.4byte	0xfa
 5801 1529 85210000 		.4byte	.LLST185
 5802 152d 1E       		.uleb128 0x1e
 5803 152e C5040000 		.4byte	.LASF132
 5804 1532 01       		.byte	0x1
 5805 1533 63       		.byte	0x63
 5806 1534 FA000000 		.4byte	0xfa
 5807 1538 60220000 		.4byte	.LLST186
 5808 153c 1E       		.uleb128 0x1e
 5809 153d A1080000 		.4byte	.LASF125
 5810 1541 01       		.byte	0x1
 5811 1542 7A       		.byte	0x7a
 5812 1543 4A020000 		.4byte	0x24a
 5813 1547 DE220000 		.4byte	.LLST187
 5814 154b 38       		.uleb128 0x38
 5815 154c 76000000 		.4byte	.LVL537
ARM GAS  C:\Users\strap\AppData\Local\Temp\ccKJQbxb.s 			page 123


 5816 1550 76170000 		.4byte	0x1776
 5817 1554 36       		.uleb128 0x36
 5818 1555 88000000 		.4byte	.LVL538
 5819 1559 81170000 		.4byte	0x1781
 5820 155d 68150000 		.4byte	0x1568
 5821 1561 24       		.uleb128 0x24
 5822 1562 01       		.uleb128 0x1
 5823 1563 51       		.byte	0x51
 5824 1564 02       		.uleb128 0x2
 5825 1565 74       		.byte	0x74
 5826 1566 00       		.sleb128 0
 5827 1567 00       		.byte	0
 5828 1568 38       		.uleb128 0x38
 5829 1569 90000000 		.4byte	.LVL539
 5830 156d 8C170000 		.4byte	0x178c
 5831 1571 36       		.uleb128 0x36
 5832 1572 9E000000 		.4byte	.LVL540
 5833 1576 97170000 		.4byte	0x1797
 5834 157a 88150000 		.4byte	0x1588
 5835 157e 24       		.uleb128 0x24
 5836 157f 01       		.uleb128 0x1
 5837 1580 50       		.byte	0x50
 5838 1581 05       		.uleb128 0x5
 5839 1582 03       		.byte	0x3
 5840 1583 00000000 		.4byte	.LC0
 5841 1587 00       		.byte	0
 5842 1588 23       		.uleb128 0x23
 5843 1589 D8000000 		.4byte	.LVL545
 5844 158d B10A0000 		.4byte	0xab1
 5845 1591 24       		.uleb128 0x24
 5846 1592 02       		.uleb128 0x2
 5847 1593 7D       		.byte	0x7d
 5848 1594 00       		.sleb128 0
 5849 1595 02       		.uleb128 0x2
 5850 1596 74       		.byte	0x74
 5851 1597 00       		.sleb128 0
 5852 1598 00       		.byte	0
 5853 1599 00       		.byte	0
 5854 159a 23       		.uleb128 0x23
 5855 159b 12000000 		.4byte	.LVL519
 5856 159f 97060000 		.4byte	0x697
 5857 15a3 24       		.uleb128 0x24
 5858 15a4 01       		.uleb128 0x1
 5859 15a5 50       		.byte	0x50
 5860 15a6 03       		.uleb128 0x3
 5861 15a7 F3       		.byte	0xf3
 5862 15a8 01       		.uleb128 0x1
 5863 15a9 50       		.byte	0x50
 5864 15aa 00       		.byte	0
 5865 15ab 00       		.byte	0
 5866 15ac 37       		.uleb128 0x37
 5867 15ad 06010000 		.4byte	.LASF134
 5868 15b1 01       		.byte	0x1
 5869 15b2 90       		.byte	0x90
 5870 15b3 4A020000 		.4byte	0x24a
 5871 15b7 00000000 		.4byte	.LFB38
 5872 15bb 9A000000 		.4byte	.LFE38-.LFB38
ARM GAS  C:\Users\strap\AppData\Local\Temp\ccKJQbxb.s 			page 124


 5873 15bf 01       		.uleb128 0x1
 5874 15c0 9C       		.byte	0x9c
 5875 15c1 C5160000 		.4byte	0x16c5
 5876 15c5 1D       		.uleb128 0x1d
 5877 15c6 13020000 		.4byte	.LASF102
 5878 15ca 01       		.byte	0x1
 5879 15cb 90       		.byte	0x90
 5880 15cc 28050000 		.4byte	0x528
 5881 15d0 FD220000 		.4byte	.LLST188
 5882 15d4 1D       		.uleb128 0x1d
 5883 15d5 0F030000 		.4byte	.LASF135
 5884 15d9 01       		.byte	0x1
 5885 15da 90       		.byte	0x90
 5886 15db 5C020000 		.4byte	0x25c
 5887 15df 1B230000 		.4byte	.LLST189
 5888 15e3 1D       		.uleb128 0x1d
 5889 15e4 FC040000 		.4byte	.LASF129
 5890 15e8 01       		.byte	0x1
 5891 15e9 90       		.byte	0x90
 5892 15ea FA000000 		.4byte	0xfa
 5893 15ee 39230000 		.4byte	.LLST190
 5894 15f2 1D       		.uleb128 0x1d
 5895 15f3 C2030000 		.4byte	.LASF136
 5896 15f7 01       		.byte	0x1
 5897 15f8 91       		.byte	0x91
 5898 15f9 FA000000 		.4byte	0xfa
 5899 15fd 57230000 		.4byte	.LLST191
 5900 1601 1E       		.uleb128 0x1e
 5901 1602 52060000 		.4byte	.LASF137
 5902 1606 01       		.byte	0x1
 5903 1607 93       		.byte	0x93
 5904 1608 4A020000 		.4byte	0x24a
 5905 160c 75230000 		.4byte	.LLST192
 5906 1610 39       		.uleb128 0x39
 5907 1611 B9000000 		.4byte	.LASF104
 5908 1615 01       		.byte	0x1
 5909 1616 98       		.byte	0x98
 5910 1617 01080000 		.4byte	0x801
 5911 161b 01       		.uleb128 0x1
 5912 161c 55       		.byte	0x55
 5913 161d 1F       		.uleb128 0x1f
 5914 161e 67696400 		.ascii	"gid\000"
 5915 1622 01       		.byte	0x1
 5916 1623 99       		.byte	0x99
 5917 1624 FA000000 		.4byte	0xfa
 5918 1628 94230000 		.4byte	.LLST193
 5919 162c 1E       		.uleb128 0x1e
 5920 162d E1000000 		.4byte	.LASF138
 5921 1631 01       		.byte	0x1
 5922 1632 9C       		.byte	0x9c
 5923 1633 C3000000 		.4byte	0xc3
 5924 1637 DE230000 		.4byte	.LLST194
 5925 163b 1E       		.uleb128 0x1e
 5926 163c 91030000 		.4byte	.LASF130
 5927 1640 01       		.byte	0x1
 5928 1641 A5       		.byte	0xa5
 5929 1642 01050000 		.4byte	0x501
ARM GAS  C:\Users\strap\AppData\Local\Temp\ccKJQbxb.s 			page 125


 5930 1646 14240000 		.4byte	.LLST195
 5931 164a 1F       		.uleb128 0x1f
 5932 164b 6B7600   		.ascii	"kv\000"
 5933 164e 01       		.byte	0x1
 5934 164f A7       		.byte	0xa7
 5935 1650 EF000000 		.4byte	0xef
 5936 1654 32240000 		.4byte	.LLST196
 5937 1658 1E       		.uleb128 0x1e
 5938 1659 92070000 		.4byte	.LASF31
 5939 165d 01       		.byte	0x1
 5940 165e A9       		.byte	0xa9
 5941 165f FA000000 		.4byte	0xfa
 5942 1663 50240000 		.4byte	.LLST197
 5943 1667 21       		.uleb128 0x21
 5944 1668 2A000000 		.4byte	.LBB176
 5945 166c 16000000 		.4byte	.LBE176-.LBB176
 5946 1670 B4160000 		.4byte	0x16b4
 5947 1674 1E       		.uleb128 0x1e
 5948 1675 CA050000 		.4byte	.LASF139
 5949 1679 01       		.byte	0x1
 5950 167a 9E       		.byte	0x9e
 5951 167b FA000000 		.4byte	0xfa
 5952 167f 7B240000 		.4byte	.LLST198
 5953 1683 36       		.uleb128 0x36
 5954 1684 32000000 		.4byte	.LVL564
 5955 1688 97060000 		.4byte	0x697
 5956 168c 9D160000 		.4byte	0x169d
 5957 1690 24       		.uleb128 0x24
 5958 1691 01       		.uleb128 0x1
 5959 1692 50       		.byte	0x50
 5960 1693 02       		.uleb128 0x2
 5961 1694 77       		.byte	0x77
 5962 1695 00       		.sleb128 0
 5963 1696 24       		.uleb128 0x24
 5964 1697 01       		.uleb128 0x1
 5965 1698 51       		.byte	0x51
 5966 1699 02       		.uleb128 0x2
 5967 169a 79       		.byte	0x79
 5968 169b 00       		.sleb128 0
 5969 169c 00       		.byte	0
 5970 169d 23       		.uleb128 0x23
 5971 169e 3E000000 		.4byte	.LVL566
 5972 16a2 07080000 		.4byte	0x807
 5973 16a6 24       		.uleb128 0x24
 5974 16a7 01       		.uleb128 0x1
 5975 16a8 50       		.byte	0x50
 5976 16a9 02       		.uleb128 0x2
 5977 16aa 77       		.byte	0x77
 5978 16ab 00       		.sleb128 0
 5979 16ac 24       		.uleb128 0x24
 5980 16ad 01       		.uleb128 0x1
 5981 16ae 51       		.byte	0x51
 5982 16af 02       		.uleb128 0x2
 5983 16b0 78       		.byte	0x78
 5984 16b1 00       		.sleb128 0
 5985 16b2 00       		.byte	0
 5986 16b3 00       		.byte	0
ARM GAS  C:\Users\strap\AppData\Local\Temp\ccKJQbxb.s 			page 126


 5987 16b4 23       		.uleb128 0x23
 5988 16b5 20000000 		.4byte	.LVL561
 5989 16b9 97060000 		.4byte	0x697
 5990 16bd 24       		.uleb128 0x24
 5991 16be 01       		.uleb128 0x1
 5992 16bf 50       		.byte	0x50
 5993 16c0 02       		.uleb128 0x2
 5994 16c1 77       		.byte	0x77
 5995 16c2 00       		.sleb128 0
 5996 16c3 00       		.byte	0
 5997 16c4 00       		.byte	0
 5998 16c5 3A       		.uleb128 0x3a
 5999 16c6 F3030000 		.4byte	.LASF159
 6000 16ca 01       		.byte	0x1
 6001 16cb BE       		.byte	0xbe
 6002 16cc 00000000 		.4byte	.LFB39
 6003 16d0 18000000 		.4byte	.LFE39-.LFB39
 6004 16d4 01       		.uleb128 0x1
 6005 16d5 9C       		.byte	0x9c
 6006 16d6 E4160000 		.4byte	0x16e4
 6007 16da 38       		.uleb128 0x38
 6008 16db 0C000000 		.4byte	.LVL584
 6009 16df A2170000 		.4byte	0x17a2
 6010 16e3 00       		.byte	0
 6011 16e4 39       		.uleb128 0x39
 6012 16e5 E7070000 		.4byte	.LASF140
 6013 16e9 01       		.byte	0x1
 6014 16ea 37       		.byte	0x37
 6015 16eb FA000000 		.4byte	0xfa
 6016 16ef 05       		.uleb128 0x5
 6017 16f0 03       		.byte	0x3
 6018 16f1 08000000 		.4byte	rle_rdp
 6019 16f5 39       		.uleb128 0x39
 6020 16f6 A0040000 		.4byte	.LASF141
 6021 16fa 01       		.byte	0x1
 6022 16fb 38       		.byte	0x38
 6023 16fc 7C020000 		.4byte	0x27c
 6024 1700 05       		.uleb128 0x5
 6025 1701 03       		.byte	0x3
 6026 1702 00000000 		.4byte	rle_in
 6027 1706 39       		.uleb128 0x39
 6028 1707 07030000 		.4byte	.LASF142
 6029 170b 01       		.byte	0x1
 6030 170c 39       		.byte	0x39
 6031 170d CE000000 		.4byte	0xce
 6032 1711 05       		.uleb128 0x5
 6033 1712 03       		.byte	0x3
 6034 1713 04000000 		.4byte	rle_bpp
 6035 1717 39       		.uleb128 0x39
 6036 1718 3D030000 		.4byte	.LASF143
 6037 171c 01       		.byte	0x1
 6038 171d 3A       		.byte	0x3a
 6039 171e CE000000 		.4byte	0xce
 6040 1722 05       		.uleb128 0x5
 6041 1723 03       		.byte	0x3
 6042 1724 0C000000 		.4byte	rle_prev_v
 6043 1728 39       		.uleb128 0x39
ARM GAS  C:\Users\strap\AppData\Local\Temp\ccKJQbxb.s 			page 127


 6044 1729 37080000 		.4byte	.LASF144
 6045 172d 01       		.byte	0x1
 6046 172e 3B       		.byte	0x3b
 6047 172f CE000000 		.4byte	0xce
 6048 1733 05       		.uleb128 0x5
 6049 1734 03       		.byte	0x3
 6050 1735 0D000000 		.4byte	rle_cnt
 6051 1739 39       		.uleb128 0x39
 6052 173a 6A030000 		.4byte	.LASF145
 6053 173e 01       		.byte	0x1
 6054 173f 3C       		.byte	0x3c
 6055 1740 52050000 		.4byte	0x552
 6056 1744 05       		.uleb128 0x5
 6057 1745 03       		.byte	0x3
 6058 1746 05000000 		.4byte	rle_state
 6059 174a 3B       		.uleb128 0x3b
 6060 174b D5080000 		.4byte	.LASF160
 6061 174f 0B       		.byte	0xb
 6062 1750 3B       		.byte	0x3b
 6063 1751 22050000 		.4byte	0x522
 6064 1755 3C       		.uleb128 0x3c
 6065 1756 77010000 		.4byte	.LASF146
 6066 175a 77010000 		.4byte	.LASF146
 6067 175e 08       		.byte	0x8
 6068 175f 37       		.byte	0x37
 6069 1760 3C       		.uleb128 0x3c
 6070 1761 B6070000 		.4byte	.LASF147
 6071 1765 B6070000 		.4byte	.LASF147
 6072 1769 09       		.byte	0x9
 6073 176a 80       		.byte	0x80
 6074 176b 3C       		.uleb128 0x3c
 6075 176c 3C070000 		.4byte	.LASF148
 6076 1770 3C070000 		.4byte	.LASF148
 6077 1774 09       		.byte	0x9
 6078 1775 86       		.byte	0x86
 6079 1776 3C       		.uleb128 0x3c
 6080 1777 66080000 		.4byte	.LASF149
 6081 177b 66080000 		.4byte	.LASF149
 6082 177f 09       		.byte	0x9
 6083 1780 7A       		.byte	0x7a
 6084 1781 3C       		.uleb128 0x3c
 6085 1782 B1050000 		.4byte	.LASF150
 6086 1786 B1050000 		.4byte	.LASF150
 6087 178a 09       		.byte	0x9
 6088 178b 61       		.byte	0x61
 6089 178c 3C       		.uleb128 0x3c
 6090 178d 2E020000 		.4byte	.LASF151
 6091 1791 2E020000 		.4byte	.LASF151
 6092 1795 0A       		.byte	0xa
 6093 1796 20       		.byte	0x20
 6094 1797 3C       		.uleb128 0x3c
 6095 1798 8D040000 		.4byte	.LASF152
 6096 179c 8D040000 		.4byte	.LASF152
 6097 17a0 0A       		.byte	0xa
 6098 17a1 26       		.byte	0x26
 6099 17a2 3C       		.uleb128 0x3c
 6100 17a3 07020000 		.4byte	.LASF153
ARM GAS  C:\Users\strap\AppData\Local\Temp\ccKJQbxb.s 			page 128


 6101 17a7 07020000 		.4byte	.LASF153
 6102 17ab 09       		.byte	0x9
 6103 17ac 58       		.byte	0x58
 6104 17ad 00       		.byte	0
 6105              		.section	.debug_abbrev,"",%progbits
 6106              	.Ldebug_abbrev0:
 6107 0000 01       		.uleb128 0x1
 6108 0001 11       		.uleb128 0x11
 6109 0002 01       		.byte	0x1
 6110 0003 25       		.uleb128 0x25
 6111 0004 0E       		.uleb128 0xe
 6112 0005 13       		.uleb128 0x13
 6113 0006 0B       		.uleb128 0xb
 6114 0007 03       		.uleb128 0x3
 6115 0008 0E       		.uleb128 0xe
 6116 0009 1B       		.uleb128 0x1b
 6117 000a 0E       		.uleb128 0xe
 6118 000b 55       		.uleb128 0x55
 6119 000c 17       		.uleb128 0x17
 6120 000d 11       		.uleb128 0x11
 6121 000e 01       		.uleb128 0x1
 6122 000f 10       		.uleb128 0x10
 6123 0010 17       		.uleb128 0x17
 6124 0011 00       		.byte	0
 6125 0012 00       		.byte	0
 6126 0013 02       		.uleb128 0x2
 6127 0014 16       		.uleb128 0x16
 6128 0015 00       		.byte	0
 6129 0016 03       		.uleb128 0x3
 6130 0017 0E       		.uleb128 0xe
 6131 0018 3A       		.uleb128 0x3a
 6132 0019 0B       		.uleb128 0xb
 6133 001a 3B       		.uleb128 0x3b
 6134 001b 0B       		.uleb128 0xb
 6135 001c 49       		.uleb128 0x49
 6136 001d 13       		.uleb128 0x13
 6137 001e 00       		.byte	0
 6138 001f 00       		.byte	0
 6139 0020 03       		.uleb128 0x3
 6140 0021 24       		.uleb128 0x24
 6141 0022 00       		.byte	0
 6142 0023 0B       		.uleb128 0xb
 6143 0024 0B       		.uleb128 0xb
 6144 0025 3E       		.uleb128 0x3e
 6145 0026 0B       		.uleb128 0xb
 6146 0027 03       		.uleb128 0x3
 6147 0028 0E       		.uleb128 0xe
 6148 0029 00       		.byte	0
 6149 002a 00       		.byte	0
 6150 002b 04       		.uleb128 0x4
 6151 002c 24       		.uleb128 0x24
 6152 002d 00       		.byte	0
 6153 002e 0B       		.uleb128 0xb
 6154 002f 0B       		.uleb128 0xb
 6155 0030 3E       		.uleb128 0x3e
 6156 0031 0B       		.uleb128 0xb
 6157 0032 03       		.uleb128 0x3
ARM GAS  C:\Users\strap\AppData\Local\Temp\ccKJQbxb.s 			page 129


 6158 0033 08       		.uleb128 0x8
 6159 0034 00       		.byte	0
 6160 0035 00       		.byte	0
 6161 0036 05       		.uleb128 0x5
 6162 0037 0F       		.uleb128 0xf
 6163 0038 00       		.byte	0
 6164 0039 0B       		.uleb128 0xb
 6165 003a 0B       		.uleb128 0xb
 6166 003b 00       		.byte	0
 6167 003c 00       		.byte	0
 6168 003d 06       		.uleb128 0x6
 6169 003e 16       		.uleb128 0x16
 6170 003f 00       		.byte	0
 6171 0040 03       		.uleb128 0x3
 6172 0041 0E       		.uleb128 0xe
 6173 0042 3A       		.uleb128 0x3a
 6174 0043 0B       		.uleb128 0xb
 6175 0044 3B       		.uleb128 0x3b
 6176 0045 05       		.uleb128 0x5
 6177 0046 49       		.uleb128 0x49
 6178 0047 13       		.uleb128 0x13
 6179 0048 00       		.byte	0
 6180 0049 00       		.byte	0
 6181 004a 07       		.uleb128 0x7
 6182 004b 13       		.uleb128 0x13
 6183 004c 01       		.byte	0x1
 6184 004d 0B       		.uleb128 0xb
 6185 004e 0B       		.uleb128 0xb
 6186 004f 3A       		.uleb128 0x3a
 6187 0050 0B       		.uleb128 0xb
 6188 0051 3B       		.uleb128 0x3b
 6189 0052 0B       		.uleb128 0xb
 6190 0053 01       		.uleb128 0x1
 6191 0054 13       		.uleb128 0x13
 6192 0055 00       		.byte	0
 6193 0056 00       		.byte	0
 6194 0057 08       		.uleb128 0x8
 6195 0058 0D       		.uleb128 0xd
 6196 0059 00       		.byte	0
 6197 005a 03       		.uleb128 0x3
 6198 005b 0E       		.uleb128 0xe
 6199 005c 3A       		.uleb128 0x3a
 6200 005d 0B       		.uleb128 0xb
 6201 005e 3B       		.uleb128 0x3b
 6202 005f 0B       		.uleb128 0xb
 6203 0060 49       		.uleb128 0x49
 6204 0061 13       		.uleb128 0x13
 6205 0062 38       		.uleb128 0x38
 6206 0063 0B       		.uleb128 0xb
 6207 0064 00       		.byte	0
 6208 0065 00       		.byte	0
 6209 0066 09       		.uleb128 0x9
 6210 0067 0D       		.uleb128 0xd
 6211 0068 00       		.byte	0
 6212 0069 03       		.uleb128 0x3
 6213 006a 08       		.uleb128 0x8
 6214 006b 3A       		.uleb128 0x3a
ARM GAS  C:\Users\strap\AppData\Local\Temp\ccKJQbxb.s 			page 130


 6215 006c 0B       		.uleb128 0xb
 6216 006d 3B       		.uleb128 0x3b
 6217 006e 0B       		.uleb128 0xb
 6218 006f 49       		.uleb128 0x49
 6219 0070 13       		.uleb128 0x13
 6220 0071 38       		.uleb128 0x38
 6221 0072 0B       		.uleb128 0xb
 6222 0073 00       		.byte	0
 6223 0074 00       		.byte	0
 6224 0075 0A       		.uleb128 0xa
 6225 0076 13       		.uleb128 0x13
 6226 0077 01       		.byte	0x1
 6227 0078 03       		.uleb128 0x3
 6228 0079 0E       		.uleb128 0xe
 6229 007a 0B       		.uleb128 0xb
 6230 007b 0B       		.uleb128 0xb
 6231 007c 3A       		.uleb128 0x3a
 6232 007d 0B       		.uleb128 0xb
 6233 007e 3B       		.uleb128 0x3b
 6234 007f 0B       		.uleb128 0xb
 6235 0080 01       		.uleb128 0x1
 6236 0081 13       		.uleb128 0x13
 6237 0082 00       		.byte	0
 6238 0083 00       		.byte	0
 6239 0084 0B       		.uleb128 0xb
 6240 0085 0D       		.uleb128 0xd
 6241 0086 00       		.byte	0
 6242 0087 03       		.uleb128 0x3
 6243 0088 0E       		.uleb128 0xe
 6244 0089 3A       		.uleb128 0x3a
 6245 008a 0B       		.uleb128 0xb
 6246 008b 3B       		.uleb128 0x3b
 6247 008c 0B       		.uleb128 0xb
 6248 008d 49       		.uleb128 0x49
 6249 008e 13       		.uleb128 0x13
 6250 008f 0B       		.uleb128 0xb
 6251 0090 0B       		.uleb128 0xb
 6252 0091 0D       		.uleb128 0xd
 6253 0092 0B       		.uleb128 0xb
 6254 0093 0C       		.uleb128 0xc
 6255 0094 0B       		.uleb128 0xb
 6256 0095 38       		.uleb128 0x38
 6257 0096 0B       		.uleb128 0xb
 6258 0097 00       		.byte	0
 6259 0098 00       		.byte	0
 6260 0099 0C       		.uleb128 0xc
 6261 009a 15       		.uleb128 0x15
 6262 009b 01       		.byte	0x1
 6263 009c 27       		.uleb128 0x27
 6264 009d 19       		.uleb128 0x19
 6265 009e 49       		.uleb128 0x49
 6266 009f 13       		.uleb128 0x13
 6267 00a0 01       		.uleb128 0x1
 6268 00a1 13       		.uleb128 0x13
 6269 00a2 00       		.byte	0
 6270 00a3 00       		.byte	0
 6271 00a4 0D       		.uleb128 0xd
ARM GAS  C:\Users\strap\AppData\Local\Temp\ccKJQbxb.s 			page 131


 6272 00a5 05       		.uleb128 0x5
 6273 00a6 00       		.byte	0
 6274 00a7 49       		.uleb128 0x49
 6275 00a8 13       		.uleb128 0x13
 6276 00a9 00       		.byte	0
 6277 00aa 00       		.byte	0
 6278 00ab 0E       		.uleb128 0xe
 6279 00ac 0F       		.uleb128 0xf
 6280 00ad 00       		.byte	0
 6281 00ae 0B       		.uleb128 0xb
 6282 00af 0B       		.uleb128 0xb
 6283 00b0 49       		.uleb128 0x49
 6284 00b1 13       		.uleb128 0x13
 6285 00b2 00       		.byte	0
 6286 00b3 00       		.byte	0
 6287 00b4 0F       		.uleb128 0xf
 6288 00b5 26       		.uleb128 0x26
 6289 00b6 00       		.byte	0
 6290 00b7 49       		.uleb128 0x49
 6291 00b8 13       		.uleb128 0x13
 6292 00b9 00       		.byte	0
 6293 00ba 00       		.byte	0
 6294 00bb 10       		.uleb128 0x10
 6295 00bc 04       		.uleb128 0x4
 6296 00bd 01       		.byte	0x1
 6297 00be 0B       		.uleb128 0xb
 6298 00bf 0B       		.uleb128 0xb
 6299 00c0 49       		.uleb128 0x49
 6300 00c1 13       		.uleb128 0x13
 6301 00c2 3A       		.uleb128 0x3a
 6302 00c3 0B       		.uleb128 0xb
 6303 00c4 3B       		.uleb128 0x3b
 6304 00c5 0B       		.uleb128 0xb
 6305 00c6 01       		.uleb128 0x1
 6306 00c7 13       		.uleb128 0x13
 6307 00c8 00       		.byte	0
 6308 00c9 00       		.byte	0
 6309 00ca 11       		.uleb128 0x11
 6310 00cb 28       		.uleb128 0x28
 6311 00cc 00       		.byte	0
 6312 00cd 03       		.uleb128 0x3
 6313 00ce 0E       		.uleb128 0xe
 6314 00cf 1C       		.uleb128 0x1c
 6315 00d0 0B       		.uleb128 0xb
 6316 00d1 00       		.byte	0
 6317 00d2 00       		.byte	0
 6318 00d3 12       		.uleb128 0x12
 6319 00d4 26       		.uleb128 0x26
 6320 00d5 00       		.byte	0
 6321 00d6 00       		.byte	0
 6322 00d7 00       		.byte	0
 6323 00d8 13       		.uleb128 0x13
 6324 00d9 0D       		.uleb128 0xd
 6325 00da 00       		.byte	0
 6326 00db 03       		.uleb128 0x3
 6327 00dc 08       		.uleb128 0x8
 6328 00dd 3A       		.uleb128 0x3a
ARM GAS  C:\Users\strap\AppData\Local\Temp\ccKJQbxb.s 			page 132


 6329 00de 0B       		.uleb128 0xb
 6330 00df 3B       		.uleb128 0x3b
 6331 00e0 0B       		.uleb128 0xb
 6332 00e1 49       		.uleb128 0x49
 6333 00e2 13       		.uleb128 0x13
 6334 00e3 0B       		.uleb128 0xb
 6335 00e4 0B       		.uleb128 0xb
 6336 00e5 0D       		.uleb128 0xd
 6337 00e6 0B       		.uleb128 0xb
 6338 00e7 0C       		.uleb128 0xc
 6339 00e8 0B       		.uleb128 0xb
 6340 00e9 38       		.uleb128 0x38
 6341 00ea 0B       		.uleb128 0xb
 6342 00eb 00       		.byte	0
 6343 00ec 00       		.byte	0
 6344 00ed 14       		.uleb128 0x14
 6345 00ee 2E       		.uleb128 0x2e
 6346 00ef 01       		.byte	0x1
 6347 00f0 03       		.uleb128 0x3
 6348 00f1 0E       		.uleb128 0xe
 6349 00f2 3A       		.uleb128 0x3a
 6350 00f3 0B       		.uleb128 0xb
 6351 00f4 3B       		.uleb128 0x3b
 6352 00f5 05       		.uleb128 0x5
 6353 00f6 27       		.uleb128 0x27
 6354 00f7 19       		.uleb128 0x19
 6355 00f8 20       		.uleb128 0x20
 6356 00f9 0B       		.uleb128 0xb
 6357 00fa 01       		.uleb128 0x1
 6358 00fb 13       		.uleb128 0x13
 6359 00fc 00       		.byte	0
 6360 00fd 00       		.byte	0
 6361 00fe 15       		.uleb128 0x15
 6362 00ff 05       		.uleb128 0x5
 6363 0100 00       		.byte	0
 6364 0101 03       		.uleb128 0x3
 6365 0102 08       		.uleb128 0x8
 6366 0103 3A       		.uleb128 0x3a
 6367 0104 0B       		.uleb128 0xb
 6368 0105 3B       		.uleb128 0x3b
 6369 0106 05       		.uleb128 0x5
 6370 0107 49       		.uleb128 0x49
 6371 0108 13       		.uleb128 0x13
 6372 0109 00       		.byte	0
 6373 010a 00       		.byte	0
 6374 010b 16       		.uleb128 0x16
 6375 010c 34       		.uleb128 0x34
 6376 010d 00       		.byte	0
 6377 010e 03       		.uleb128 0x3
 6378 010f 08       		.uleb128 0x8
 6379 0110 3A       		.uleb128 0x3a
 6380 0111 0B       		.uleb128 0xb
 6381 0112 3B       		.uleb128 0x3b
 6382 0113 05       		.uleb128 0x5
 6383 0114 49       		.uleb128 0x49
 6384 0115 13       		.uleb128 0x13
 6385 0116 00       		.byte	0
ARM GAS  C:\Users\strap\AppData\Local\Temp\ccKJQbxb.s 			page 133


 6386 0117 00       		.byte	0
 6387 0118 17       		.uleb128 0x17
 6388 0119 2E       		.uleb128 0x2e
 6389 011a 01       		.byte	0x1
 6390 011b 03       		.uleb128 0x3
 6391 011c 0E       		.uleb128 0xe
 6392 011d 3A       		.uleb128 0x3a
 6393 011e 0B       		.uleb128 0xb
 6394 011f 3B       		.uleb128 0x3b
 6395 0120 05       		.uleb128 0x5
 6396 0121 27       		.uleb128 0x27
 6397 0122 19       		.uleb128 0x19
 6398 0123 49       		.uleb128 0x49
 6399 0124 13       		.uleb128 0x13
 6400 0125 11       		.uleb128 0x11
 6401 0126 01       		.uleb128 0x1
 6402 0127 12       		.uleb128 0x12
 6403 0128 06       		.uleb128 0x6
 6404 0129 40       		.uleb128 0x40
 6405 012a 18       		.uleb128 0x18
 6406 012b 9742     		.uleb128 0x2117
 6407 012d 19       		.uleb128 0x19
 6408 012e 01       		.uleb128 0x1
 6409 012f 13       		.uleb128 0x13
 6410 0130 00       		.byte	0
 6411 0131 00       		.byte	0
 6412 0132 18       		.uleb128 0x18
 6413 0133 05       		.uleb128 0x5
 6414 0134 00       		.byte	0
 6415 0135 03       		.uleb128 0x3
 6416 0136 08       		.uleb128 0x8
 6417 0137 3A       		.uleb128 0x3a
 6418 0138 0B       		.uleb128 0xb
 6419 0139 3B       		.uleb128 0x3b
 6420 013a 05       		.uleb128 0x5
 6421 013b 49       		.uleb128 0x49
 6422 013c 13       		.uleb128 0x13
 6423 013d 02       		.uleb128 0x2
 6424 013e 17       		.uleb128 0x17
 6425 013f 00       		.byte	0
 6426 0140 00       		.byte	0
 6427 0141 19       		.uleb128 0x19
 6428 0142 05       		.uleb128 0x5
 6429 0143 00       		.byte	0
 6430 0144 03       		.uleb128 0x3
 6431 0145 0E       		.uleb128 0xe
 6432 0146 3A       		.uleb128 0x3a
 6433 0147 0B       		.uleb128 0xb
 6434 0148 3B       		.uleb128 0x3b
 6435 0149 05       		.uleb128 0x5
 6436 014a 49       		.uleb128 0x49
 6437 014b 13       		.uleb128 0x13
 6438 014c 02       		.uleb128 0x2
 6439 014d 18       		.uleb128 0x18
 6440 014e 00       		.byte	0
 6441 014f 00       		.byte	0
 6442 0150 1A       		.uleb128 0x1a
ARM GAS  C:\Users\strap\AppData\Local\Temp\ccKJQbxb.s 			page 134


 6443 0151 34       		.uleb128 0x34
 6444 0152 00       		.byte	0
 6445 0153 03       		.uleb128 0x3
 6446 0154 0E       		.uleb128 0xe
 6447 0155 3A       		.uleb128 0x3a
 6448 0156 0B       		.uleb128 0xb
 6449 0157 3B       		.uleb128 0x3b
 6450 0158 05       		.uleb128 0x5
 6451 0159 49       		.uleb128 0x49
 6452 015a 13       		.uleb128 0x13
 6453 015b 02       		.uleb128 0x2
 6454 015c 17       		.uleb128 0x17
 6455 015d 00       		.byte	0
 6456 015e 00       		.byte	0
 6457 015f 1B       		.uleb128 0x1b
 6458 0160 34       		.uleb128 0x34
 6459 0161 00       		.byte	0
 6460 0162 03       		.uleb128 0x3
 6461 0163 0E       		.uleb128 0xe
 6462 0164 3A       		.uleb128 0x3a
 6463 0165 0B       		.uleb128 0xb
 6464 0166 3B       		.uleb128 0x3b
 6465 0167 05       		.uleb128 0x5
 6466 0168 49       		.uleb128 0x49
 6467 0169 13       		.uleb128 0x13
 6468 016a 02       		.uleb128 0x2
 6469 016b 18       		.uleb128 0x18
 6470 016c 00       		.byte	0
 6471 016d 00       		.byte	0
 6472 016e 1C       		.uleb128 0x1c
 6473 016f 2E       		.uleb128 0x2e
 6474 0170 01       		.byte	0x1
 6475 0171 03       		.uleb128 0x3
 6476 0172 0E       		.uleb128 0xe
 6477 0173 3A       		.uleb128 0x3a
 6478 0174 0B       		.uleb128 0xb
 6479 0175 3B       		.uleb128 0x3b
 6480 0176 0B       		.uleb128 0xb
 6481 0177 27       		.uleb128 0x27
 6482 0178 19       		.uleb128 0x19
 6483 0179 49       		.uleb128 0x49
 6484 017a 13       		.uleb128 0x13
 6485 017b 11       		.uleb128 0x11
 6486 017c 01       		.uleb128 0x1
 6487 017d 12       		.uleb128 0x12
 6488 017e 06       		.uleb128 0x6
 6489 017f 40       		.uleb128 0x40
 6490 0180 18       		.uleb128 0x18
 6491 0181 9742     		.uleb128 0x2117
 6492 0183 19       		.uleb128 0x19
 6493 0184 01       		.uleb128 0x1
 6494 0185 13       		.uleb128 0x13
 6495 0186 00       		.byte	0
 6496 0187 00       		.byte	0
 6497 0188 1D       		.uleb128 0x1d
 6498 0189 05       		.uleb128 0x5
 6499 018a 00       		.byte	0
ARM GAS  C:\Users\strap\AppData\Local\Temp\ccKJQbxb.s 			page 135


 6500 018b 03       		.uleb128 0x3
 6501 018c 0E       		.uleb128 0xe
 6502 018d 3A       		.uleb128 0x3a
 6503 018e 0B       		.uleb128 0xb
 6504 018f 3B       		.uleb128 0x3b
 6505 0190 0B       		.uleb128 0xb
 6506 0191 49       		.uleb128 0x49
 6507 0192 13       		.uleb128 0x13
 6508 0193 02       		.uleb128 0x2
 6509 0194 17       		.uleb128 0x17
 6510 0195 00       		.byte	0
 6511 0196 00       		.byte	0
 6512 0197 1E       		.uleb128 0x1e
 6513 0198 34       		.uleb128 0x34
 6514 0199 00       		.byte	0
 6515 019a 03       		.uleb128 0x3
 6516 019b 0E       		.uleb128 0xe
 6517 019c 3A       		.uleb128 0x3a
 6518 019d 0B       		.uleb128 0xb
 6519 019e 3B       		.uleb128 0x3b
 6520 019f 0B       		.uleb128 0xb
 6521 01a0 49       		.uleb128 0x49
 6522 01a1 13       		.uleb128 0x13
 6523 01a2 02       		.uleb128 0x2
 6524 01a3 17       		.uleb128 0x17
 6525 01a4 00       		.byte	0
 6526 01a5 00       		.byte	0
 6527 01a6 1F       		.uleb128 0x1f
 6528 01a7 34       		.uleb128 0x34
 6529 01a8 00       		.byte	0
 6530 01a9 03       		.uleb128 0x3
 6531 01aa 08       		.uleb128 0x8
 6532 01ab 3A       		.uleb128 0x3a
 6533 01ac 0B       		.uleb128 0xb
 6534 01ad 3B       		.uleb128 0x3b
 6535 01ae 0B       		.uleb128 0xb
 6536 01af 49       		.uleb128 0x49
 6537 01b0 13       		.uleb128 0x13
 6538 01b1 02       		.uleb128 0x2
 6539 01b2 17       		.uleb128 0x17
 6540 01b3 00       		.byte	0
 6541 01b4 00       		.byte	0
 6542 01b5 20       		.uleb128 0x20
 6543 01b6 0B       		.uleb128 0xb
 6544 01b7 01       		.byte	0x1
 6545 01b8 55       		.uleb128 0x55
 6546 01b9 17       		.uleb128 0x17
 6547 01ba 00       		.byte	0
 6548 01bb 00       		.byte	0
 6549 01bc 21       		.uleb128 0x21
 6550 01bd 0B       		.uleb128 0xb
 6551 01be 01       		.byte	0x1
 6552 01bf 11       		.uleb128 0x11
 6553 01c0 01       		.uleb128 0x1
 6554 01c1 12       		.uleb128 0x12
 6555 01c2 06       		.uleb128 0x6
 6556 01c3 01       		.uleb128 0x1
ARM GAS  C:\Users\strap\AppData\Local\Temp\ccKJQbxb.s 			page 136


 6557 01c4 13       		.uleb128 0x13
 6558 01c5 00       		.byte	0
 6559 01c6 00       		.byte	0
 6560 01c7 22       		.uleb128 0x22
 6561 01c8 34       		.uleb128 0x34
 6562 01c9 00       		.byte	0
 6563 01ca 03       		.uleb128 0x3
 6564 01cb 08       		.uleb128 0x8
 6565 01cc 3A       		.uleb128 0x3a
 6566 01cd 0B       		.uleb128 0xb
 6567 01ce 3B       		.uleb128 0x3b
 6568 01cf 0B       		.uleb128 0xb
 6569 01d0 49       		.uleb128 0x49
 6570 01d1 13       		.uleb128 0x13
 6571 01d2 02       		.uleb128 0x2
 6572 01d3 18       		.uleb128 0x18
 6573 01d4 00       		.byte	0
 6574 01d5 00       		.byte	0
 6575 01d6 23       		.uleb128 0x23
 6576 01d7 898201   		.uleb128 0x4109
 6577 01da 01       		.byte	0x1
 6578 01db 11       		.uleb128 0x11
 6579 01dc 01       		.uleb128 0x1
 6580 01dd 31       		.uleb128 0x31
 6581 01de 13       		.uleb128 0x13
 6582 01df 00       		.byte	0
 6583 01e0 00       		.byte	0
 6584 01e1 24       		.uleb128 0x24
 6585 01e2 8A8201   		.uleb128 0x410a
 6586 01e5 00       		.byte	0
 6587 01e6 02       		.uleb128 0x2
 6588 01e7 18       		.uleb128 0x18
 6589 01e8 9142     		.uleb128 0x2111
 6590 01ea 18       		.uleb128 0x18
 6591 01eb 00       		.byte	0
 6592 01ec 00       		.byte	0
 6593 01ed 25       		.uleb128 0x25
 6594 01ee 0B       		.uleb128 0xb
 6595 01ef 01       		.byte	0x1
 6596 01f0 11       		.uleb128 0x11
 6597 01f1 01       		.uleb128 0x1
 6598 01f2 12       		.uleb128 0x12
 6599 01f3 06       		.uleb128 0x6
 6600 01f4 00       		.byte	0
 6601 01f5 00       		.byte	0
 6602 01f6 26       		.uleb128 0x26
 6603 01f7 05       		.uleb128 0x5
 6604 01f8 00       		.byte	0
 6605 01f9 03       		.uleb128 0x3
 6606 01fa 0E       		.uleb128 0xe
 6607 01fb 3A       		.uleb128 0x3a
 6608 01fc 0B       		.uleb128 0xb
 6609 01fd 3B       		.uleb128 0x3b
 6610 01fe 05       		.uleb128 0x5
 6611 01ff 49       		.uleb128 0x49
 6612 0200 13       		.uleb128 0x13
 6613 0201 02       		.uleb128 0x2
ARM GAS  C:\Users\strap\AppData\Local\Temp\ccKJQbxb.s 			page 137


 6614 0202 17       		.uleb128 0x17
 6615 0203 00       		.byte	0
 6616 0204 00       		.byte	0
 6617 0205 27       		.uleb128 0x27
 6618 0206 0B       		.uleb128 0xb
 6619 0207 01       		.byte	0x1
 6620 0208 55       		.uleb128 0x55
 6621 0209 17       		.uleb128 0x17
 6622 020a 01       		.uleb128 0x1
 6623 020b 13       		.uleb128 0x13
 6624 020c 00       		.byte	0
 6625 020d 00       		.byte	0
 6626 020e 28       		.uleb128 0x28
 6627 020f 34       		.uleb128 0x34
 6628 0210 00       		.byte	0
 6629 0211 03       		.uleb128 0x3
 6630 0212 08       		.uleb128 0x8
 6631 0213 3A       		.uleb128 0x3a
 6632 0214 0B       		.uleb128 0xb
 6633 0215 3B       		.uleb128 0x3b
 6634 0216 05       		.uleb128 0x5
 6635 0217 49       		.uleb128 0x49
 6636 0218 13       		.uleb128 0x13
 6637 0219 02       		.uleb128 0x2
 6638 021a 17       		.uleb128 0x17
 6639 021b 00       		.byte	0
 6640 021c 00       		.byte	0
 6641 021d 29       		.uleb128 0x29
 6642 021e 2E       		.uleb128 0x2e
 6643 021f 01       		.byte	0x1
 6644 0220 03       		.uleb128 0x3
 6645 0221 0E       		.uleb128 0xe
 6646 0222 3A       		.uleb128 0x3a
 6647 0223 0B       		.uleb128 0xb
 6648 0224 3B       		.uleb128 0x3b
 6649 0225 05       		.uleb128 0x5
 6650 0226 27       		.uleb128 0x27
 6651 0227 19       		.uleb128 0x19
 6652 0228 49       		.uleb128 0x49
 6653 0229 13       		.uleb128 0x13
 6654 022a 20       		.uleb128 0x20
 6655 022b 0B       		.uleb128 0xb
 6656 022c 01       		.uleb128 0x1
 6657 022d 13       		.uleb128 0x13
 6658 022e 00       		.byte	0
 6659 022f 00       		.byte	0
 6660 0230 2A       		.uleb128 0x2a
 6661 0231 05       		.uleb128 0x5
 6662 0232 00       		.byte	0
 6663 0233 03       		.uleb128 0x3
 6664 0234 0E       		.uleb128 0xe
 6665 0235 3A       		.uleb128 0x3a
 6666 0236 0B       		.uleb128 0xb
 6667 0237 3B       		.uleb128 0x3b
 6668 0238 05       		.uleb128 0x5
 6669 0239 49       		.uleb128 0x49
 6670 023a 13       		.uleb128 0x13
ARM GAS  C:\Users\strap\AppData\Local\Temp\ccKJQbxb.s 			page 138


 6671 023b 00       		.byte	0
 6672 023c 00       		.byte	0
 6673 023d 2B       		.uleb128 0x2b
 6674 023e 34       		.uleb128 0x34
 6675 023f 00       		.byte	0
 6676 0240 03       		.uleb128 0x3
 6677 0241 0E       		.uleb128 0xe
 6678 0242 3A       		.uleb128 0x3a
 6679 0243 0B       		.uleb128 0xb
 6680 0244 3B       		.uleb128 0x3b
 6681 0245 05       		.uleb128 0x5
 6682 0246 49       		.uleb128 0x49
 6683 0247 13       		.uleb128 0x13
 6684 0248 00       		.byte	0
 6685 0249 00       		.byte	0
 6686 024a 2C       		.uleb128 0x2c
 6687 024b 0B       		.uleb128 0xb
 6688 024c 01       		.byte	0x1
 6689 024d 00       		.byte	0
 6690 024e 00       		.byte	0
 6691 024f 2D       		.uleb128 0x2d
 6692 0250 2E       		.uleb128 0x2e
 6693 0251 01       		.byte	0x1
 6694 0252 03       		.uleb128 0x3
 6695 0253 0E       		.uleb128 0xe
 6696 0254 3A       		.uleb128 0x3a
 6697 0255 0B       		.uleb128 0xb
 6698 0256 3B       		.uleb128 0x3b
 6699 0257 05       		.uleb128 0x5
 6700 0258 27       		.uleb128 0x27
 6701 0259 19       		.uleb128 0x19
 6702 025a 11       		.uleb128 0x11
 6703 025b 01       		.uleb128 0x1
 6704 025c 12       		.uleb128 0x12
 6705 025d 06       		.uleb128 0x6
 6706 025e 40       		.uleb128 0x40
 6707 025f 18       		.uleb128 0x18
 6708 0260 9742     		.uleb128 0x2117
 6709 0262 19       		.uleb128 0x19
 6710 0263 01       		.uleb128 0x1
 6711 0264 13       		.uleb128 0x13
 6712 0265 00       		.byte	0
 6713 0266 00       		.byte	0
 6714 0267 2E       		.uleb128 0x2e
 6715 0268 05       		.uleb128 0x5
 6716 0269 00       		.byte	0
 6717 026a 03       		.uleb128 0x3
 6718 026b 08       		.uleb128 0x8
 6719 026c 3A       		.uleb128 0x3a
 6720 026d 0B       		.uleb128 0xb
 6721 026e 3B       		.uleb128 0x3b
 6722 026f 05       		.uleb128 0x5
 6723 0270 49       		.uleb128 0x49
 6724 0271 13       		.uleb128 0x13
 6725 0272 02       		.uleb128 0x2
 6726 0273 18       		.uleb128 0x18
 6727 0274 00       		.byte	0
ARM GAS  C:\Users\strap\AppData\Local\Temp\ccKJQbxb.s 			page 139


 6728 0275 00       		.byte	0
 6729 0276 2F       		.uleb128 0x2f
 6730 0277 1D       		.uleb128 0x1d
 6731 0278 01       		.byte	0x1
 6732 0279 31       		.uleb128 0x31
 6733 027a 13       		.uleb128 0x13
 6734 027b 11       		.uleb128 0x11
 6735 027c 01       		.uleb128 0x1
 6736 027d 12       		.uleb128 0x12
 6737 027e 06       		.uleb128 0x6
 6738 027f 58       		.uleb128 0x58
 6739 0280 0B       		.uleb128 0xb
 6740 0281 59       		.uleb128 0x59
 6741 0282 05       		.uleb128 0x5
 6742 0283 01       		.uleb128 0x1
 6743 0284 13       		.uleb128 0x13
 6744 0285 00       		.byte	0
 6745 0286 00       		.byte	0
 6746 0287 30       		.uleb128 0x30
 6747 0288 05       		.uleb128 0x5
 6748 0289 00       		.byte	0
 6749 028a 31       		.uleb128 0x31
 6750 028b 13       		.uleb128 0x13
 6751 028c 02       		.uleb128 0x2
 6752 028d 17       		.uleb128 0x17
 6753 028e 00       		.byte	0
 6754 028f 00       		.byte	0
 6755 0290 31       		.uleb128 0x31
 6756 0291 05       		.uleb128 0x5
 6757 0292 00       		.byte	0
 6758 0293 31       		.uleb128 0x31
 6759 0294 13       		.uleb128 0x13
 6760 0295 02       		.uleb128 0x2
 6761 0296 18       		.uleb128 0x18
 6762 0297 00       		.byte	0
 6763 0298 00       		.byte	0
 6764 0299 32       		.uleb128 0x32
 6765 029a 34       		.uleb128 0x34
 6766 029b 00       		.byte	0
 6767 029c 31       		.uleb128 0x31
 6768 029d 13       		.uleb128 0x13
 6769 029e 02       		.uleb128 0x2
 6770 029f 17       		.uleb128 0x17
 6771 02a0 00       		.byte	0
 6772 02a1 00       		.byte	0
 6773 02a2 33       		.uleb128 0x33
 6774 02a3 1D       		.uleb128 0x1d
 6775 02a4 01       		.byte	0x1
 6776 02a5 31       		.uleb128 0x31
 6777 02a6 13       		.uleb128 0x13
 6778 02a7 11       		.uleb128 0x11
 6779 02a8 01       		.uleb128 0x1
 6780 02a9 12       		.uleb128 0x12
 6781 02aa 06       		.uleb128 0x6
 6782 02ab 58       		.uleb128 0x58
 6783 02ac 0B       		.uleb128 0xb
 6784 02ad 59       		.uleb128 0x59
ARM GAS  C:\Users\strap\AppData\Local\Temp\ccKJQbxb.s 			page 140


 6785 02ae 05       		.uleb128 0x5
 6786 02af 00       		.byte	0
 6787 02b0 00       		.byte	0
 6788 02b1 34       		.uleb128 0x34
 6789 02b2 1D       		.uleb128 0x1d
 6790 02b3 01       		.byte	0x1
 6791 02b4 31       		.uleb128 0x31
 6792 02b5 13       		.uleb128 0x13
 6793 02b6 52       		.uleb128 0x52
 6794 02b7 01       		.uleb128 0x1
 6795 02b8 55       		.uleb128 0x55
 6796 02b9 17       		.uleb128 0x17
 6797 02ba 58       		.uleb128 0x58
 6798 02bb 0B       		.uleb128 0xb
 6799 02bc 59       		.uleb128 0x59
 6800 02bd 05       		.uleb128 0x5
 6801 02be 01       		.uleb128 0x1
 6802 02bf 13       		.uleb128 0x13
 6803 02c0 00       		.byte	0
 6804 02c1 00       		.byte	0
 6805 02c2 35       		.uleb128 0x35
 6806 02c3 05       		.uleb128 0x5
 6807 02c4 00       		.byte	0
 6808 02c5 31       		.uleb128 0x31
 6809 02c6 13       		.uleb128 0x13
 6810 02c7 00       		.byte	0
 6811 02c8 00       		.byte	0
 6812 02c9 36       		.uleb128 0x36
 6813 02ca 898201   		.uleb128 0x4109
 6814 02cd 01       		.byte	0x1
 6815 02ce 11       		.uleb128 0x11
 6816 02cf 01       		.uleb128 0x1
 6817 02d0 31       		.uleb128 0x31
 6818 02d1 13       		.uleb128 0x13
 6819 02d2 01       		.uleb128 0x1
 6820 02d3 13       		.uleb128 0x13
 6821 02d4 00       		.byte	0
 6822 02d5 00       		.byte	0
 6823 02d6 37       		.uleb128 0x37
 6824 02d7 2E       		.uleb128 0x2e
 6825 02d8 01       		.byte	0x1
 6826 02d9 3F       		.uleb128 0x3f
 6827 02da 19       		.uleb128 0x19
 6828 02db 03       		.uleb128 0x3
 6829 02dc 0E       		.uleb128 0xe
 6830 02dd 3A       		.uleb128 0x3a
 6831 02de 0B       		.uleb128 0xb
 6832 02df 3B       		.uleb128 0x3b
 6833 02e0 0B       		.uleb128 0xb
 6834 02e1 27       		.uleb128 0x27
 6835 02e2 19       		.uleb128 0x19
 6836 02e3 49       		.uleb128 0x49
 6837 02e4 13       		.uleb128 0x13
 6838 02e5 11       		.uleb128 0x11
 6839 02e6 01       		.uleb128 0x1
 6840 02e7 12       		.uleb128 0x12
 6841 02e8 06       		.uleb128 0x6
ARM GAS  C:\Users\strap\AppData\Local\Temp\ccKJQbxb.s 			page 141


 6842 02e9 40       		.uleb128 0x40
 6843 02ea 18       		.uleb128 0x18
 6844 02eb 9742     		.uleb128 0x2117
 6845 02ed 19       		.uleb128 0x19
 6846 02ee 01       		.uleb128 0x1
 6847 02ef 13       		.uleb128 0x13
 6848 02f0 00       		.byte	0
 6849 02f1 00       		.byte	0
 6850 02f2 38       		.uleb128 0x38
 6851 02f3 898201   		.uleb128 0x4109
 6852 02f6 00       		.byte	0
 6853 02f7 11       		.uleb128 0x11
 6854 02f8 01       		.uleb128 0x1
 6855 02f9 31       		.uleb128 0x31
 6856 02fa 13       		.uleb128 0x13
 6857 02fb 00       		.byte	0
 6858 02fc 00       		.byte	0
 6859 02fd 39       		.uleb128 0x39
 6860 02fe 34       		.uleb128 0x34
 6861 02ff 00       		.byte	0
 6862 0300 03       		.uleb128 0x3
 6863 0301 0E       		.uleb128 0xe
 6864 0302 3A       		.uleb128 0x3a
 6865 0303 0B       		.uleb128 0xb
 6866 0304 3B       		.uleb128 0x3b
 6867 0305 0B       		.uleb128 0xb
 6868 0306 49       		.uleb128 0x49
 6869 0307 13       		.uleb128 0x13
 6870 0308 02       		.uleb128 0x2
 6871 0309 18       		.uleb128 0x18
 6872 030a 00       		.byte	0
 6873 030b 00       		.byte	0
 6874 030c 3A       		.uleb128 0x3a
 6875 030d 2E       		.uleb128 0x2e
 6876 030e 01       		.byte	0x1
 6877 030f 3F       		.uleb128 0x3f
 6878 0310 19       		.uleb128 0x19
 6879 0311 03       		.uleb128 0x3
 6880 0312 0E       		.uleb128 0xe
 6881 0313 3A       		.uleb128 0x3a
 6882 0314 0B       		.uleb128 0xb
 6883 0315 3B       		.uleb128 0x3b
 6884 0316 0B       		.uleb128 0xb
 6885 0317 27       		.uleb128 0x27
 6886 0318 19       		.uleb128 0x19
 6887 0319 11       		.uleb128 0x11
 6888 031a 01       		.uleb128 0x1
 6889 031b 12       		.uleb128 0x12
 6890 031c 06       		.uleb128 0x6
 6891 031d 40       		.uleb128 0x40
 6892 031e 18       		.uleb128 0x18
 6893 031f 9742     		.uleb128 0x2117
 6894 0321 19       		.uleb128 0x19
 6895 0322 01       		.uleb128 0x1
 6896 0323 13       		.uleb128 0x13
 6897 0324 00       		.byte	0
 6898 0325 00       		.byte	0
ARM GAS  C:\Users\strap\AppData\Local\Temp\ccKJQbxb.s 			page 142


 6899 0326 3B       		.uleb128 0x3b
 6900 0327 34       		.uleb128 0x34
 6901 0328 00       		.byte	0
 6902 0329 03       		.uleb128 0x3
 6903 032a 0E       		.uleb128 0xe
 6904 032b 3A       		.uleb128 0x3a
 6905 032c 0B       		.uleb128 0xb
 6906 032d 3B       		.uleb128 0x3b
 6907 032e 0B       		.uleb128 0xb
 6908 032f 49       		.uleb128 0x49
 6909 0330 13       		.uleb128 0x13
 6910 0331 3F       		.uleb128 0x3f
 6911 0332 19       		.uleb128 0x19
 6912 0333 3C       		.uleb128 0x3c
 6913 0334 19       		.uleb128 0x19
 6914 0335 00       		.byte	0
 6915 0336 00       		.byte	0
 6916 0337 3C       		.uleb128 0x3c
 6917 0338 2E       		.uleb128 0x2e
 6918 0339 00       		.byte	0
 6919 033a 3F       		.uleb128 0x3f
 6920 033b 19       		.uleb128 0x19
 6921 033c 3C       		.uleb128 0x3c
 6922 033d 19       		.uleb128 0x19
 6923 033e 6E       		.uleb128 0x6e
 6924 033f 0E       		.uleb128 0xe
 6925 0340 03       		.uleb128 0x3
 6926 0341 0E       		.uleb128 0xe
 6927 0342 3A       		.uleb128 0x3a
 6928 0343 0B       		.uleb128 0xb
 6929 0344 3B       		.uleb128 0x3b
 6930 0345 0B       		.uleb128 0xb
 6931 0346 00       		.byte	0
 6932 0347 00       		.byte	0
 6933 0348 00       		.byte	0
 6934              		.section	.debug_loc,"",%progbits
 6935              	.Ldebug_loc0:
 6936              	.LLST0:
 6937 0000 00000000 		.4byte	.LVL0
 6938 0004 0A000000 		.4byte	.LVL1
 6939 0008 0100     		.2byte	0x1
 6940 000a 50       		.byte	0x50
 6941 000b 0A000000 		.4byte	.LVL1
 6942 000f 0C000000 		.4byte	.LVL2
 6943 0013 0400     		.2byte	0x4
 6944 0015 F3       		.byte	0xf3
 6945 0016 01       		.uleb128 0x1
 6946 0017 50       		.byte	0x50
 6947 0018 9F       		.byte	0x9f
 6948 0019 0C000000 		.4byte	.LVL2
 6949 001d 10000000 		.4byte	.LVL3
 6950 0021 0100     		.2byte	0x1
 6951 0023 50       		.byte	0x50
 6952 0024 10000000 		.4byte	.LVL3
 6953 0028 14000000 		.4byte	.LFE42
 6954 002c 0400     		.2byte	0x4
 6955 002e F3       		.byte	0xf3
ARM GAS  C:\Users\strap\AppData\Local\Temp\ccKJQbxb.s 			page 143


 6956 002f 01       		.uleb128 0x1
 6957 0030 50       		.byte	0x50
 6958 0031 9F       		.byte	0x9f
 6959 0032 00000000 		.4byte	0
 6960 0036 00000000 		.4byte	0
 6961              	.LLST1:
 6962 003a 00000000 		.4byte	.LVL0
 6963 003e 0A000000 		.4byte	.LVL1
 6964 0042 0100     		.2byte	0x1
 6965 0044 50       		.byte	0x50
 6966 0045 0A000000 		.4byte	.LVL1
 6967 0049 0C000000 		.4byte	.LVL2
 6968 004d 0400     		.2byte	0x4
 6969 004f F3       		.byte	0xf3
 6970 0050 01       		.uleb128 0x1
 6971 0051 50       		.byte	0x50
 6972 0052 9F       		.byte	0x9f
 6973 0053 0C000000 		.4byte	.LVL2
 6974 0057 10000000 		.4byte	.LVL3
 6975 005b 0100     		.2byte	0x1
 6976 005d 50       		.byte	0x50
 6977 005e 10000000 		.4byte	.LVL3
 6978 0062 14000000 		.4byte	.LFE42
 6979 0066 0400     		.2byte	0x4
 6980 0068 F3       		.byte	0xf3
 6981 0069 01       		.uleb128 0x1
 6982 006a 50       		.byte	0x50
 6983 006b 9F       		.byte	0x9f
 6984 006c 00000000 		.4byte	0
 6985 0070 00000000 		.4byte	0
 6986              	.LLST2:
 6987 0074 00000000 		.4byte	.LVL4
 6988 0078 0A000000 		.4byte	.LVL5
 6989 007c 0100     		.2byte	0x1
 6990 007e 50       		.byte	0x50
 6991 007f 0A000000 		.4byte	.LVL5
 6992 0083 0C000000 		.4byte	.LVL6
 6993 0087 0400     		.2byte	0x4
 6994 0089 F3       		.byte	0xf3
 6995 008a 01       		.uleb128 0x1
 6996 008b 50       		.byte	0x50
 6997 008c 9F       		.byte	0x9f
 6998 008d 0C000000 		.4byte	.LVL6
 6999 0091 10000000 		.4byte	.LVL7
 7000 0095 0100     		.2byte	0x1
 7001 0097 50       		.byte	0x50
 7002 0098 10000000 		.4byte	.LVL7
 7003 009c 14000000 		.4byte	.LFE43
 7004 00a0 0400     		.2byte	0x4
 7005 00a2 F3       		.byte	0xf3
 7006 00a3 01       		.uleb128 0x1
 7007 00a4 50       		.byte	0x50
 7008 00a5 9F       		.byte	0x9f
 7009 00a6 00000000 		.4byte	0
 7010 00aa 00000000 		.4byte	0
 7011              	.LLST3:
 7012 00ae 00000000 		.4byte	.LVL4
ARM GAS  C:\Users\strap\AppData\Local\Temp\ccKJQbxb.s 			page 144


 7013 00b2 0A000000 		.4byte	.LVL5
 7014 00b6 0100     		.2byte	0x1
 7015 00b8 50       		.byte	0x50
 7016 00b9 0A000000 		.4byte	.LVL5
 7017 00bd 0C000000 		.4byte	.LVL6
 7018 00c1 0400     		.2byte	0x4
 7019 00c3 F3       		.byte	0xf3
 7020 00c4 01       		.uleb128 0x1
 7021 00c5 50       		.byte	0x50
 7022 00c6 9F       		.byte	0x9f
 7023 00c7 0C000000 		.4byte	.LVL6
 7024 00cb 10000000 		.4byte	.LVL7
 7025 00cf 0100     		.2byte	0x1
 7026 00d1 50       		.byte	0x50
 7027 00d2 10000000 		.4byte	.LVL7
 7028 00d6 14000000 		.4byte	.LFE43
 7029 00da 0400     		.2byte	0x4
 7030 00dc F3       		.byte	0xf3
 7031 00dd 01       		.uleb128 0x1
 7032 00de 50       		.byte	0x50
 7033 00df 9F       		.byte	0x9f
 7034 00e0 00000000 		.4byte	0
 7035 00e4 00000000 		.4byte	0
 7036              	.LLST4:
 7037 00e8 00000000 		.4byte	.LVL8
 7038 00ec 02000000 		.4byte	.LVL9
 7039 00f0 0100     		.2byte	0x1
 7040 00f2 50       		.byte	0x50
 7041 00f3 02000000 		.4byte	.LVL9
 7042 00f7 08000000 		.4byte	.LFE50
 7043 00fb 0400     		.2byte	0x4
 7044 00fd F3       		.byte	0xf3
 7045 00fe 01       		.uleb128 0x1
 7046 00ff 50       		.byte	0x50
 7047 0100 9F       		.byte	0x9f
 7048 0101 00000000 		.4byte	0
 7049 0105 00000000 		.4byte	0
 7050              	.LLST5:
 7051 0109 00000000 		.4byte	.LVL10
 7052 010d 14000000 		.4byte	.LVL12
 7053 0111 0100     		.2byte	0x1
 7054 0113 50       		.byte	0x50
 7055 0114 14000000 		.4byte	.LVL12
 7056 0118 B4000000 		.4byte	.LVL45
 7057 011c 0400     		.2byte	0x4
 7058 011e F3       		.byte	0xf3
 7059 011f 01       		.uleb128 0x1
 7060 0120 50       		.byte	0x50
 7061 0121 9F       		.byte	0x9f
 7062 0122 B4000000 		.4byte	.LVL45
 7063 0126 B6000000 		.4byte	.LVL46
 7064 012a 0100     		.2byte	0x1
 7065 012c 50       		.byte	0x50
 7066 012d B6000000 		.4byte	.LVL46
 7067 0131 C8000000 		.4byte	.LVL47
 7068 0135 0400     		.2byte	0x4
 7069 0137 F3       		.byte	0xf3
ARM GAS  C:\Users\strap\AppData\Local\Temp\ccKJQbxb.s 			page 145


 7070 0138 01       		.uleb128 0x1
 7071 0139 50       		.byte	0x50
 7072 013a 9F       		.byte	0x9f
 7073 013b C8000000 		.4byte	.LVL47
 7074 013f CA000000 		.4byte	.LVL48
 7075 0143 0100     		.2byte	0x1
 7076 0145 50       		.byte	0x50
 7077 0146 CA000000 		.4byte	.LVL48
 7078 014a D4000000 		.4byte	.LFE40
 7079 014e 0400     		.2byte	0x4
 7080 0150 F3       		.byte	0xf3
 7081 0151 01       		.uleb128 0x1
 7082 0152 50       		.byte	0x50
 7083 0153 9F       		.byte	0x9f
 7084 0154 00000000 		.4byte	0
 7085 0158 00000000 		.4byte	0
 7086              	.LLST6:
 7087 015c 00000000 		.4byte	.LVL10
 7088 0160 16000000 		.4byte	.LVL13
 7089 0164 0100     		.2byte	0x1
 7090 0166 51       		.byte	0x51
 7091 0167 16000000 		.4byte	.LVL13
 7092 016b B4000000 		.4byte	.LVL45
 7093 016f 0100     		.2byte	0x1
 7094 0171 55       		.byte	0x55
 7095 0172 B4000000 		.4byte	.LVL45
 7096 0176 B6000000 		.4byte	.LVL46
 7097 017a 0100     		.2byte	0x1
 7098 017c 51       		.byte	0x51
 7099 017d B6000000 		.4byte	.LVL46
 7100 0181 C8000000 		.4byte	.LVL47
 7101 0185 0100     		.2byte	0x1
 7102 0187 55       		.byte	0x55
 7103 0188 C8000000 		.4byte	.LVL47
 7104 018c CC000000 		.4byte	.LVL49
 7105 0190 0100     		.2byte	0x1
 7106 0192 51       		.byte	0x51
 7107 0193 CC000000 		.4byte	.LVL49
 7108 0197 D0000000 		.4byte	.LVL50
 7109 019b 0100     		.2byte	0x1
 7110 019d 55       		.byte	0x55
 7111 019e D0000000 		.4byte	.LVL50
 7112 01a2 D4000000 		.4byte	.LFE40
 7113 01a6 0400     		.2byte	0x4
 7114 01a8 F3       		.byte	0xf3
 7115 01a9 01       		.uleb128 0x1
 7116 01aa 51       		.byte	0x51
 7117 01ab 9F       		.byte	0x9f
 7118 01ac 00000000 		.4byte	0
 7119 01b0 00000000 		.4byte	0
 7120              	.LLST7:
 7121 01b4 0C000000 		.4byte	.LVL11
 7122 01b8 C8000000 		.4byte	.LVL47
 7123 01bc 0100     		.2byte	0x1
 7124 01be 54       		.byte	0x54
 7125 01bf CC000000 		.4byte	.LVL49
 7126 01c3 D0000000 		.4byte	.LVL50
ARM GAS  C:\Users\strap\AppData\Local\Temp\ccKJQbxb.s 			page 146


 7127 01c7 0100     		.2byte	0x1
 7128 01c9 54       		.byte	0x54
 7129 01ca 00000000 		.4byte	0
 7130 01ce 00000000 		.4byte	0
 7131              	.LLST8:
 7132 01d2 16000000 		.4byte	.LVL13
 7133 01d6 2E000000 		.4byte	.LVL15
 7134 01da 0100     		.2byte	0x1
 7135 01dc 53       		.byte	0x53
 7136 01dd 30000000 		.4byte	.LVL16
 7137 01e1 34000000 		.4byte	.LVL18
 7138 01e5 0100     		.2byte	0x1
 7139 01e7 53       		.byte	0x53
 7140 01e8 B6000000 		.4byte	.LVL46
 7141 01ec C8000000 		.4byte	.LVL47
 7142 01f0 0100     		.2byte	0x1
 7143 01f2 53       		.byte	0x53
 7144 01f3 00000000 		.4byte	0
 7145 01f7 00000000 		.4byte	0
 7146              	.LLST9:
 7147 01fb 26000000 		.4byte	.LVL14
 7148 01ff 58000000 		.4byte	.LVL25
 7149 0203 0100     		.2byte	0x1
 7150 0205 52       		.byte	0x52
 7151 0206 7A000000 		.4byte	.LVL32
 7152 020a 88000000 		.4byte	.LVL33
 7153 020e 0100     		.2byte	0x1
 7154 0210 52       		.byte	0x52
 7155 0211 AC000000 		.4byte	.LVL43
 7156 0215 AE000000 		.4byte	.LVL44
 7157 0219 0100     		.2byte	0x1
 7158 021b 52       		.byte	0x52
 7159 021c 00000000 		.4byte	0
 7160 0220 00000000 		.4byte	0
 7161              	.LLST10:
 7162 0224 32000000 		.4byte	.LVL17
 7163 0228 3A000000 		.4byte	.LVL19
 7164 022c 0200     		.2byte	0x2
 7165 022e 30       		.byte	0x30
 7166 022f 9F       		.byte	0x9f
 7167 0230 3A000000 		.4byte	.LVL19
 7168 0234 3C000000 		.4byte	.LVL20
 7169 0238 0100     		.2byte	0x1
 7170 023a 50       		.byte	0x50
 7171 023b 3C000000 		.4byte	.LVL20
 7172 023f 48000000 		.4byte	.LVL23
 7173 0243 0200     		.2byte	0x2
 7174 0245 30       		.byte	0x30
 7175 0246 9F       		.byte	0x9f
 7176 0247 48000000 		.4byte	.LVL23
 7177 024b 4A000000 		.4byte	.LVL24
 7178 024f 0100     		.2byte	0x1
 7179 0251 50       		.byte	0x50
 7180 0252 4A000000 		.4byte	.LVL24
 7181 0256 74000000 		.4byte	.LVL29
 7182 025a 0200     		.2byte	0x2
 7183 025c 30       		.byte	0x30
ARM GAS  C:\Users\strap\AppData\Local\Temp\ccKJQbxb.s 			page 147


 7184 025d 9F       		.byte	0x9f
 7185 025e 74000000 		.4byte	.LVL29
 7186 0262 76000000 		.4byte	.LVL30
 7187 0266 0100     		.2byte	0x1
 7188 0268 50       		.byte	0x50
 7189 0269 76000000 		.4byte	.LVL30
 7190 026d A6000000 		.4byte	.LVL40
 7191 0271 0200     		.2byte	0x2
 7192 0273 30       		.byte	0x30
 7193 0274 9F       		.byte	0x9f
 7194 0275 A6000000 		.4byte	.LVL40
 7195 0279 A8000000 		.4byte	.LVL41
 7196 027d 0100     		.2byte	0x1
 7197 027f 50       		.byte	0x50
 7198 0280 A8000000 		.4byte	.LVL41
 7199 0284 AE000000 		.4byte	.LVL44
 7200 0288 0200     		.2byte	0x2
 7201 028a 30       		.byte	0x30
 7202 028b 9F       		.byte	0x9f
 7203 028c AE000000 		.4byte	.LVL44
 7204 0290 B4000000 		.4byte	.LVL45
 7205 0294 0100     		.2byte	0x1
 7206 0296 50       		.byte	0x50
 7207 0297 00000000 		.4byte	0
 7208 029b 00000000 		.4byte	0
 7209              	.LLST11:
 7210 029f 42000000 		.4byte	.LVL21
 7211 02a3 46000000 		.4byte	.LVL22
 7212 02a7 0100     		.2byte	0x1
 7213 02a9 53       		.byte	0x53
 7214 02aa 46000000 		.4byte	.LVL22
 7215 02ae 4A000000 		.4byte	.LVL24
 7216 02b2 0200     		.2byte	0x2
 7217 02b4 77       		.byte	0x77
 7218 02b5 0C       		.sleb128 12
 7219 02b6 00000000 		.4byte	0
 7220 02ba 00000000 		.4byte	0
 7221              	.LLST12:
 7222 02be 62000000 		.4byte	.LVL26
 7223 02c2 6C000000 		.4byte	.LVL27
 7224 02c6 0100     		.2byte	0x1
 7225 02c8 50       		.byte	0x50
 7226 02c9 6C000000 		.4byte	.LVL27
 7227 02cd 76000000 		.4byte	.LVL30
 7228 02d1 0100     		.2byte	0x1
 7229 02d3 52       		.byte	0x52
 7230 02d4 76000000 		.4byte	.LVL30
 7231 02d8 78000000 		.4byte	.LVL31
 7232 02dc 0100     		.2byte	0x1
 7233 02de 50       		.byte	0x50
 7234 02df 78000000 		.4byte	.LVL31
 7235 02e3 7A000000 		.4byte	.LVL32
 7236 02e7 0100     		.2byte	0x1
 7237 02e9 52       		.byte	0x52
 7238 02ea 00000000 		.4byte	0
 7239 02ee 00000000 		.4byte	0
 7240              	.LLST13:
ARM GAS  C:\Users\strap\AppData\Local\Temp\ccKJQbxb.s 			page 148


 7241 02f2 6E000000 		.4byte	.LVL28
 7242 02f6 74000000 		.4byte	.LVL29
 7243 02fa 0500     		.2byte	0x5
 7244 02fc 70       		.byte	0x70
 7245 02fd 00       		.sleb128 0
 7246 02fe 31       		.byte	0x31
 7247 02ff 25       		.byte	0x25
 7248 0300 9F       		.byte	0x9f
 7249 0301 74000000 		.4byte	.LVL29
 7250 0305 76000000 		.4byte	.LVL30
 7251 0309 0900     		.2byte	0x9
 7252 030b 72       		.byte	0x72
 7253 030c 00       		.sleb128 0
 7254 030d 76       		.byte	0x76
 7255 030e 08       		.sleb128 8
 7256 030f 06       		.byte	0x6
 7257 0310 1C       		.byte	0x1c
 7258 0311 31       		.byte	0x31
 7259 0312 25       		.byte	0x25
 7260 0313 9F       		.byte	0x9f
 7261 0314 00000000 		.4byte	0
 7262 0318 00000000 		.4byte	0
 7263              	.LLST14:
 7264 031c 92000000 		.4byte	.LVL34
 7265 0320 A2000000 		.4byte	.LVL38
 7266 0324 0100     		.2byte	0x1
 7267 0326 50       		.byte	0x50
 7268 0327 A8000000 		.4byte	.LVL41
 7269 032b AA000000 		.4byte	.LVL42
 7270 032f 0100     		.2byte	0x1
 7271 0331 50       		.byte	0x50
 7272 0332 00000000 		.4byte	0
 7273 0336 00000000 		.4byte	0
 7274              	.LLST15:
 7275 033a 9C000000 		.4byte	.LVL35
 7276 033e A4000000 		.4byte	.LVL39
 7277 0342 0100     		.2byte	0x1
 7278 0344 53       		.byte	0x53
 7279 0345 00000000 		.4byte	0
 7280 0349 00000000 		.4byte	0
 7281              	.LLST16:
 7282 034d A0000000 		.4byte	.LVL37
 7283 0351 A8000000 		.4byte	.LVL41
 7284 0355 0100     		.2byte	0x1
 7285 0357 52       		.byte	0x52
 7286 0358 00000000 		.4byte	0
 7287 035c 00000000 		.4byte	0
 7288              	.LLST17:
 7289 0360 00000000 		.4byte	.LVL51
 7290 0364 04000000 		.4byte	.LVL53
 7291 0368 0100     		.2byte	0x1
 7292 036a 50       		.byte	0x50
 7293 036b 04000000 		.4byte	.LVL53
 7294 036f B0000000 		.4byte	.LFE41
 7295 0373 0400     		.2byte	0x4
 7296 0375 F3       		.byte	0xf3
 7297 0376 01       		.uleb128 0x1
ARM GAS  C:\Users\strap\AppData\Local\Temp\ccKJQbxb.s 			page 149


 7298 0377 50       		.byte	0x50
 7299 0378 9F       		.byte	0x9f
 7300 0379 00000000 		.4byte	0
 7301 037d 00000000 		.4byte	0
 7302              	.LLST18:
 7303 0381 00000000 		.4byte	.LVL51
 7304 0385 1E000000 		.4byte	.LVL57
 7305 0389 0100     		.2byte	0x1
 7306 038b 51       		.byte	0x51
 7307 038c 1E000000 		.4byte	.LVL57
 7308 0390 46000000 		.4byte	.LVL66
 7309 0394 0400     		.2byte	0x4
 7310 0396 F3       		.byte	0xf3
 7311 0397 01       		.uleb128 0x1
 7312 0398 51       		.byte	0x51
 7313 0399 9F       		.byte	0x9f
 7314 039a 46000000 		.4byte	.LVL66
 7315 039e 50000000 		.4byte	.LVL68
 7316 03a2 0100     		.2byte	0x1
 7317 03a4 51       		.byte	0x51
 7318 03a5 50000000 		.4byte	.LVL68
 7319 03a9 78000000 		.4byte	.LVL77
 7320 03ad 0400     		.2byte	0x4
 7321 03af F3       		.byte	0xf3
 7322 03b0 01       		.uleb128 0x1
 7323 03b1 51       		.byte	0x51
 7324 03b2 9F       		.byte	0x9f
 7325 03b3 78000000 		.4byte	.LVL77
 7326 03b7 7E000000 		.4byte	.LVL79
 7327 03bb 0100     		.2byte	0x1
 7328 03bd 51       		.byte	0x51
 7329 03be 7E000000 		.4byte	.LVL79
 7330 03c2 96000000 		.4byte	.LVL86
 7331 03c6 0400     		.2byte	0x4
 7332 03c8 F3       		.byte	0xf3
 7333 03c9 01       		.uleb128 0x1
 7334 03ca 51       		.byte	0x51
 7335 03cb 9F       		.byte	0x9f
 7336 03cc 96000000 		.4byte	.LVL86
 7337 03d0 9A000000 		.4byte	.LVL87
 7338 03d4 0100     		.2byte	0x1
 7339 03d6 51       		.byte	0x51
 7340 03d7 9A000000 		.4byte	.LVL87
 7341 03db B0000000 		.4byte	.LFE41
 7342 03df 0400     		.2byte	0x4
 7343 03e1 F3       		.byte	0xf3
 7344 03e2 01       		.uleb128 0x1
 7345 03e3 51       		.byte	0x51
 7346 03e4 9F       		.byte	0x9f
 7347 03e5 00000000 		.4byte	0
 7348 03e9 00000000 		.4byte	0
 7349              	.LLST19:
 7350 03ed 00000000 		.4byte	.LVL51
 7351 03f1 26000000 		.4byte	.LVL59
 7352 03f5 0100     		.2byte	0x1
 7353 03f7 52       		.byte	0x52
 7354 03f8 26000000 		.4byte	.LVL59
ARM GAS  C:\Users\strap\AppData\Local\Temp\ccKJQbxb.s 			page 150


 7355 03fc 46000000 		.4byte	.LVL66
 7356 0400 0400     		.2byte	0x4
 7357 0402 F3       		.byte	0xf3
 7358 0403 01       		.uleb128 0x1
 7359 0404 52       		.byte	0x52
 7360 0405 9F       		.byte	0x9f
 7361 0406 46000000 		.4byte	.LVL66
 7362 040a 58000000 		.4byte	.LVL70
 7363 040e 0100     		.2byte	0x1
 7364 0410 52       		.byte	0x52
 7365 0411 58000000 		.4byte	.LVL70
 7366 0415 78000000 		.4byte	.LVL77
 7367 0419 0400     		.2byte	0x4
 7368 041b F3       		.byte	0xf3
 7369 041c 01       		.uleb128 0x1
 7370 041d 52       		.byte	0x52
 7371 041e 9F       		.byte	0x9f
 7372 041f 78000000 		.4byte	.LVL77
 7373 0423 82000000 		.4byte	.LVL80
 7374 0427 0100     		.2byte	0x1
 7375 0429 52       		.byte	0x52
 7376 042a 82000000 		.4byte	.LVL80
 7377 042e 96000000 		.4byte	.LVL86
 7378 0432 0400     		.2byte	0x4
 7379 0434 F3       		.byte	0xf3
 7380 0435 01       		.uleb128 0x1
 7381 0436 52       		.byte	0x52
 7382 0437 9F       		.byte	0x9f
 7383 0438 96000000 		.4byte	.LVL86
 7384 043c 9A000000 		.4byte	.LVL87
 7385 0440 0100     		.2byte	0x1
 7386 0442 52       		.byte	0x52
 7387 0443 9A000000 		.4byte	.LVL87
 7388 0447 B0000000 		.4byte	.LFE41
 7389 044b 0400     		.2byte	0x4
 7390 044d F3       		.byte	0xf3
 7391 044e 01       		.uleb128 0x1
 7392 044f 52       		.byte	0x52
 7393 0450 9F       		.byte	0x9f
 7394 0451 00000000 		.4byte	0
 7395 0455 00000000 		.4byte	0
 7396              	.LLST20:
 7397 0459 02000000 		.4byte	.LVL52
 7398 045d 12000000 		.4byte	.LVL55
 7399 0461 0100     		.2byte	0x1
 7400 0463 53       		.byte	0x53
 7401 0464 12000000 		.4byte	.LVL55
 7402 0468 24000000 		.4byte	.LVL58
 7403 046c 0500     		.2byte	0x5
 7404 046e F3       		.byte	0xf3
 7405 046f 01       		.uleb128 0x1
 7406 0470 50       		.byte	0x50
 7407 0471 23       		.byte	0x23
 7408 0472 10       		.uleb128 0x10
 7409 0473 46000000 		.4byte	.LVL66
 7410 0477 56000000 		.4byte	.LVL69
 7411 047b 0500     		.2byte	0x5
ARM GAS  C:\Users\strap\AppData\Local\Temp\ccKJQbxb.s 			page 151


 7412 047d F3       		.byte	0xf3
 7413 047e 01       		.uleb128 0x1
 7414 047f 50       		.byte	0x50
 7415 0480 23       		.byte	0x23
 7416 0481 10       		.uleb128 0x10
 7417 0482 78000000 		.4byte	.LVL77
 7418 0486 7A000000 		.4byte	.LVL78
 7419 048a 0100     		.2byte	0x1
 7420 048c 53       		.byte	0x53
 7421 048d 7A000000 		.4byte	.LVL78
 7422 0491 A2000000 		.4byte	.LVL88
 7423 0495 0500     		.2byte	0x5
 7424 0497 F3       		.byte	0xf3
 7425 0498 01       		.uleb128 0x1
 7426 0499 50       		.byte	0x50
 7427 049a 23       		.byte	0x23
 7428 049b 10       		.uleb128 0x10
 7429 049c 00000000 		.4byte	0
 7430 04a0 00000000 		.4byte	0
 7431              	.LLST21:
 7432 04a4 02000000 		.4byte	.LVL52
 7433 04a8 40000000 		.4byte	.LVL63
 7434 04ac 0200     		.2byte	0x2
 7435 04ae 30       		.byte	0x30
 7436 04af 9F       		.byte	0x9f
 7437 04b0 40000000 		.4byte	.LVL63
 7438 04b4 42000000 		.4byte	.LVL64
 7439 04b8 0100     		.2byte	0x1
 7440 04ba 50       		.byte	0x50
 7441 04bb 42000000 		.4byte	.LVL64
 7442 04bf 72000000 		.4byte	.LVL74
 7443 04c3 0200     		.2byte	0x2
 7444 04c5 30       		.byte	0x30
 7445 04c6 9F       		.byte	0x9f
 7446 04c7 72000000 		.4byte	.LVL74
 7447 04cb 74000000 		.4byte	.LVL75
 7448 04cf 0100     		.2byte	0x1
 7449 04d1 50       		.byte	0x50
 7450 04d2 74000000 		.4byte	.LVL75
 7451 04d6 94000000 		.4byte	.LVL85
 7452 04da 0200     		.2byte	0x2
 7453 04dc 30       		.byte	0x30
 7454 04dd 9F       		.byte	0x9f
 7455 04de 94000000 		.4byte	.LVL85
 7456 04e2 96000000 		.4byte	.LVL86
 7457 04e6 0100     		.2byte	0x1
 7458 04e8 50       		.byte	0x50
 7459 04e9 96000000 		.4byte	.LVL86
 7460 04ed A2000000 		.4byte	.LVL88
 7461 04f1 0200     		.2byte	0x2
 7462 04f3 30       		.byte	0x30
 7463 04f4 9F       		.byte	0x9f
 7464 04f5 A2000000 		.4byte	.LVL88
 7465 04f9 B0000000 		.4byte	.LFE41
 7466 04fd 0100     		.2byte	0x1
 7467 04ff 50       		.byte	0x50
 7468 0500 00000000 		.4byte	0
ARM GAS  C:\Users\strap\AppData\Local\Temp\ccKJQbxb.s 			page 152


 7469 0504 00000000 		.4byte	0
 7470              	.LLST22:
 7471 0508 10000000 		.4byte	.LVL54
 7472 050c 78000000 		.4byte	.LVL77
 7473 0510 0100     		.2byte	0x1
 7474 0512 54       		.byte	0x54
 7475 0513 96000000 		.4byte	.LVL86
 7476 0517 9A000000 		.4byte	.LVL87
 7477 051b 0100     		.2byte	0x1
 7478 051d 54       		.byte	0x54
 7479 051e A2000000 		.4byte	.LVL88
 7480 0522 A6000000 		.4byte	.LVL89
 7481 0526 0100     		.2byte	0x1
 7482 0528 54       		.byte	0x54
 7483 0529 00000000 		.4byte	0
 7484 052d 00000000 		.4byte	0
 7485              	.LLST23:
 7486 0531 1A000000 		.4byte	.LVL56
 7487 0535 46000000 		.4byte	.LVL66
 7488 0539 0100     		.2byte	0x1
 7489 053b 55       		.byte	0x55
 7490 053c 00000000 		.4byte	0
 7491 0540 00000000 		.4byte	0
 7492              	.LLST24:
 7493 0544 36000000 		.4byte	.LVL60
 7494 0548 40000000 		.4byte	.LVL63
 7495 054c 0100     		.2byte	0x1
 7496 054e 50       		.byte	0x50
 7497 054f 42000000 		.4byte	.LVL64
 7498 0553 44000000 		.4byte	.LVL65
 7499 0557 0100     		.2byte	0x1
 7500 0559 50       		.byte	0x50
 7501 055a 00000000 		.4byte	0
 7502 055e 00000000 		.4byte	0
 7503              	.LLST25:
 7504 0562 3A000000 		.4byte	.LVL61
 7505 0566 42000000 		.4byte	.LVL64
 7506 056a 0100     		.2byte	0x1
 7507 056c 53       		.byte	0x53
 7508 056d 00000000 		.4byte	0
 7509 0571 00000000 		.4byte	0
 7510              	.LLST26:
 7511 0575 4C000000 		.4byte	.LVL67
 7512 0579 78000000 		.4byte	.LVL77
 7513 057d 0100     		.2byte	0x1
 7514 057f 55       		.byte	0x55
 7515 0580 00000000 		.4byte	0
 7516 0584 00000000 		.4byte	0
 7517              	.LLST27:
 7518 0588 68000000 		.4byte	.LVL71
 7519 058c 72000000 		.4byte	.LVL74
 7520 0590 0100     		.2byte	0x1
 7521 0592 50       		.byte	0x50
 7522 0593 74000000 		.4byte	.LVL75
 7523 0597 76000000 		.4byte	.LVL76
 7524 059b 0100     		.2byte	0x1
 7525 059d 50       		.byte	0x50
ARM GAS  C:\Users\strap\AppData\Local\Temp\ccKJQbxb.s 			page 153


 7526 059e 00000000 		.4byte	0
 7527 05a2 00000000 		.4byte	0
 7528              	.LLST28:
 7529 05a6 6C000000 		.4byte	.LVL72
 7530 05aa 74000000 		.4byte	.LVL75
 7531 05ae 0100     		.2byte	0x1
 7532 05b0 53       		.byte	0x53
 7533 05b1 00000000 		.4byte	0
 7534 05b5 00000000 		.4byte	0
 7535              	.LLST29:
 7536 05b9 7A000000 		.4byte	.LVL78
 7537 05bd 8C000000 		.4byte	.LVL82
 7538 05c1 0100     		.2byte	0x1
 7539 05c3 53       		.byte	0x53
 7540 05c4 8C000000 		.4byte	.LVL82
 7541 05c8 96000000 		.4byte	.LVL86
 7542 05cc 0800     		.2byte	0x8
 7543 05ce F3       		.byte	0xf3
 7544 05cf 01       		.uleb128 0x1
 7545 05d0 50       		.byte	0x50
 7546 05d1 23       		.byte	0x23
 7547 05d2 10       		.uleb128 0x10
 7548 05d3 06       		.byte	0x6
 7549 05d4 23       		.byte	0x23
 7550 05d5 0C       		.uleb128 0xc
 7551 05d6 9A000000 		.4byte	.LVL87
 7552 05da A2000000 		.4byte	.LVL88
 7553 05de 0100     		.2byte	0x1
 7554 05e0 53       		.byte	0x53
 7555 05e1 00000000 		.4byte	0
 7556 05e5 00000000 		.4byte	0
 7557              	.LLST30:
 7558 05e9 7E000000 		.4byte	.LVL79
 7559 05ed 8A000000 		.4byte	.LVL81
 7560 05f1 0100     		.2byte	0x1
 7561 05f3 51       		.byte	0x51
 7562 05f4 8A000000 		.4byte	.LVL81
 7563 05f8 92000000 		.4byte	.LVL84
 7564 05fc 0300     		.2byte	0x3
 7565 05fe 71       		.byte	0x71
 7566 05ff 01       		.sleb128 1
 7567 0600 9F       		.byte	0x9f
 7568 0601 92000000 		.4byte	.LVL84
 7569 0605 96000000 		.4byte	.LVL86
 7570 0609 1000     		.2byte	0x10
 7571 060b F3       		.byte	0xf3
 7572 060c 01       		.uleb128 0x1
 7573 060d 50       		.byte	0x50
 7574 060e 23       		.byte	0x23
 7575 060f 10       		.uleb128 0x10
 7576 0610 06       		.byte	0x6
 7577 0611 23       		.byte	0x23
 7578 0612 0C       		.uleb128 0xc
 7579 0613 06       		.byte	0x6
 7580 0614 23       		.byte	0x23
 7581 0615 04       		.uleb128 0x4
 7582 0616 06       		.byte	0x6
ARM GAS  C:\Users\strap\AppData\Local\Temp\ccKJQbxb.s 			page 154


 7583 0617 F3       		.byte	0xf3
 7584 0618 01       		.uleb128 0x1
 7585 0619 51       		.byte	0x51
 7586 061a 22       		.byte	0x22
 7587 061b 9A000000 		.4byte	.LVL87
 7588 061f A2000000 		.4byte	.LVL88
 7589 0623 0100     		.2byte	0x1
 7590 0625 51       		.byte	0x51
 7591 0626 00000000 		.4byte	0
 7592 062a 00000000 		.4byte	0
 7593              	.LLST31:
 7594 062e 82000000 		.4byte	.LVL80
 7595 0632 8E000000 		.4byte	.LVL83
 7596 0636 0100     		.2byte	0x1
 7597 0638 52       		.byte	0x52
 7598 0639 8E000000 		.4byte	.LVL83
 7599 063d 96000000 		.4byte	.LVL86
 7600 0641 0300     		.2byte	0x3
 7601 0643 72       		.byte	0x72
 7602 0644 01       		.sleb128 1
 7603 0645 9F       		.byte	0x9f
 7604 0646 9A000000 		.4byte	.LVL87
 7605 064a A2000000 		.4byte	.LVL88
 7606 064e 0100     		.2byte	0x1
 7607 0650 52       		.byte	0x52
 7608 0651 00000000 		.4byte	0
 7609 0655 00000000 		.4byte	0
 7610              	.LLST32:
 7611 0659 00000000 		.4byte	.LVL90
 7612 065d 34000000 		.4byte	.LVL96
 7613 0661 0100     		.2byte	0x1
 7614 0663 50       		.byte	0x50
 7615 0664 34000000 		.4byte	.LVL96
 7616 0668 37000000 		.4byte	.LVL97-1
 7617 066c 0500     		.2byte	0x5
 7618 066e 03       		.byte	0x3
 7619 066f 00000000 		.4byte	rle_in
 7620 0673 37000000 		.4byte	.LVL97-1
 7621 0677 680C0000 		.4byte	.LFE44
 7622 067b 0400     		.2byte	0x4
 7623 067d F3       		.byte	0xf3
 7624 067e 01       		.uleb128 0x1
 7625 067f 50       		.byte	0x50
 7626 0680 9F       		.byte	0x9f
 7627 0681 00000000 		.4byte	0
 7628 0685 00000000 		.4byte	0
 7629              	.LLST33:
 7630 0689 00000000 		.4byte	.LVL90
 7631 068d 37000000 		.4byte	.LVL97-1
 7632 0691 0100     		.2byte	0x1
 7633 0693 51       		.byte	0x51
 7634 0694 37000000 		.4byte	.LVL97-1
 7635 0698 680C0000 		.4byte	.LFE44
 7636 069c 0100     		.2byte	0x1
 7637 069e 56       		.byte	0x56
 7638 069f 00000000 		.4byte	0
 7639 06a3 00000000 		.4byte	0
ARM GAS  C:\Users\strap\AppData\Local\Temp\ccKJQbxb.s 			page 155


 7640              	.LLST34:
 7641 06a7 00000000 		.4byte	.LVL90
 7642 06ab 2A000000 		.4byte	.LVL94
 7643 06af 0100     		.2byte	0x1
 7644 06b1 52       		.byte	0x52
 7645 06b2 2A000000 		.4byte	.LVL94
 7646 06b6 680C0000 		.4byte	.LFE44
 7647 06ba 0400     		.2byte	0x4
 7648 06bc F3       		.byte	0xf3
 7649 06bd 01       		.uleb128 0x1
 7650 06be 52       		.byte	0x52
 7651 06bf 9F       		.byte	0x9f
 7652 06c0 00000000 		.4byte	0
 7653 06c4 00000000 		.4byte	0
 7654              	.LLST35:
 7655 06c8 00000000 		.4byte	.LVL90
 7656 06cc 14000000 		.4byte	.LVL91
 7657 06d0 0100     		.2byte	0x1
 7658 06d2 53       		.byte	0x53
 7659 06d3 14000000 		.4byte	.LVL91
 7660 06d7 680C0000 		.4byte	.LFE44
 7661 06db 0400     		.2byte	0x4
 7662 06dd F3       		.byte	0xf3
 7663 06de 01       		.uleb128 0x1
 7664 06df 53       		.byte	0x53
 7665 06e0 9F       		.byte	0x9f
 7666 06e1 00000000 		.4byte	0
 7667 06e5 00000000 		.4byte	0
 7668              	.LLST36:
 7669 06e9 16000000 		.4byte	.LVL92
 7670 06ed BA030000 		.4byte	.LVL213
 7671 06f1 0200     		.2byte	0x2
 7672 06f3 30       		.byte	0x30
 7673 06f4 9F       		.byte	0x9f
 7674 06f5 BA030000 		.4byte	.LVL213
 7675 06f9 62040000 		.4byte	.LVL240
 7676 06fd 0100     		.2byte	0x1
 7677 06ff 50       		.byte	0x50
 7678 0700 62040000 		.4byte	.LVL240
 7679 0704 78070000 		.4byte	.LVL348
 7680 0708 0200     		.2byte	0x2
 7681 070a 91       		.byte	0x91
 7682 070b 54       		.sleb128 -44
 7683 070c 78070000 		.4byte	.LVL348
 7684 0710 84070000 		.4byte	.LVL349
 7685 0714 0100     		.2byte	0x1
 7686 0716 50       		.byte	0x50
 7687 0717 84070000 		.4byte	.LVL349
 7688 071b 9C070000 		.4byte	.LVL350
 7689 071f 0200     		.2byte	0x2
 7690 0721 91       		.byte	0x91
 7691 0722 54       		.sleb128 -44
 7692 0723 9C070000 		.4byte	.LVL350
 7693 0727 580C0000 		.4byte	.LVL512
 7694 072b 0100     		.2byte	0x1
 7695 072d 50       		.byte	0x50
 7696 072e 00000000 		.4byte	0
ARM GAS  C:\Users\strap\AppData\Local\Temp\ccKJQbxb.s 			page 156


 7697 0732 00000000 		.4byte	0
 7698              	.LLST37:
 7699 0736 16000000 		.4byte	.LVL92
 7700 073a 22000000 		.4byte	.LVL93
 7701 073e 0100     		.2byte	0x1
 7702 0740 57       		.byte	0x57
 7703 0741 22000000 		.4byte	.LVL93
 7704 0745 680C0000 		.4byte	.LFE44
 7705 0749 0200     		.2byte	0x2
 7706 074b 91       		.byte	0x91
 7707 074c 48       		.sleb128 -56
 7708 074d 00000000 		.4byte	0
 7709 0751 00000000 		.4byte	0
 7710              	.LLST38:
 7711 0755 3A000000 		.4byte	.LVL98
 7712 0759 40000000 		.4byte	.LVL99
 7713 075d 0100     		.2byte	0x1
 7714 075f 50       		.byte	0x50
 7715 0760 40000000 		.4byte	.LVL99
 7716 0764 48000000 		.4byte	.LVL102
 7717 0768 0100     		.2byte	0x1
 7718 076a 55       		.byte	0x55
 7719 076b 48000000 		.4byte	.LVL102
 7720 076f 4C000000 		.4byte	.LVL103
 7721 0773 0100     		.2byte	0x1
 7722 0775 50       		.byte	0x50
 7723 0776 4C000000 		.4byte	.LVL103
 7724 077a 680C0000 		.4byte	.LFE44
 7725 077e 0100     		.2byte	0x1
 7726 0780 55       		.byte	0x55
 7727 0781 00000000 		.4byte	0
 7728 0785 00000000 		.4byte	0
 7729              	.LLST39:
 7730 0789 3A000000 		.4byte	.LVL98
 7731 078d 46000000 		.4byte	.LVL101
 7732 0791 0200     		.2byte	0x2
 7733 0793 30       		.byte	0x30
 7734 0794 9F       		.byte	0x9f
 7735 0795 46000000 		.4byte	.LVL101
 7736 0799 48000000 		.4byte	.LVL102
 7737 079d 0100     		.2byte	0x1
 7738 079f 50       		.byte	0x50
 7739 07a0 48000000 		.4byte	.LVL102
 7740 07a4 4C000000 		.4byte	.LVL103
 7741 07a8 0200     		.2byte	0x2
 7742 07aa 30       		.byte	0x30
 7743 07ab 9F       		.byte	0x9f
 7744 07ac 4C000000 		.4byte	.LVL103
 7745 07b0 680C0000 		.4byte	.LFE44
 7746 07b4 0200     		.2byte	0x2
 7747 07b6 91       		.byte	0x91
 7748 07b7 4C       		.sleb128 -52
 7749 07b8 00000000 		.4byte	0
 7750 07bc 00000000 		.4byte	0
 7751              	.LLST40:
 7752 07c0 54040000 		.4byte	.LVL239
 7753 07c4 640C0000 		.4byte	.LVL515
ARM GAS  C:\Users\strap\AppData\Local\Temp\ccKJQbxb.s 			page 157


 7754 07c8 0200     		.2byte	0x2
 7755 07ca 7D       		.byte	0x7d
 7756 07cb 00       		.sleb128 0
 7757 07cc 640C0000 		.4byte	.LVL515
 7758 07d0 680C0000 		.4byte	.LFE44
 7759 07d4 0200     		.2byte	0x2
 7760 07d6 91       		.byte	0x91
 7761 07d7 40       		.sleb128 -64
 7762 07d8 00000000 		.4byte	0
 7763 07dc 00000000 		.4byte	0
 7764              	.LLST41:
 7765 07e0 BA030000 		.4byte	.LVL213
 7766 07e4 46040000 		.4byte	.LVL237
 7767 07e8 0100     		.2byte	0x1
 7768 07ea 5C       		.byte	0x5c
 7769 07eb 4A040000 		.4byte	.LVL238
 7770 07ef 62040000 		.4byte	.LVL240
 7771 07f3 0100     		.2byte	0x1
 7772 07f5 5C       		.byte	0x5c
 7773 07f6 78070000 		.4byte	.LVL348
 7774 07fa 84070000 		.4byte	.LVL349
 7775 07fe 0100     		.2byte	0x1
 7776 0800 5C       		.byte	0x5c
 7777 0801 9C070000 		.4byte	.LVL350
 7778 0805 2A080000 		.4byte	.LVL374
 7779 0809 0100     		.2byte	0x1
 7780 080b 5C       		.byte	0x5c
 7781 080c 2E080000 		.4byte	.LVL375
 7782 0810 34080000 		.4byte	.LVL376
 7783 0814 0100     		.2byte	0x1
 7784 0816 5C       		.byte	0x5c
 7785 0817 B00B0000 		.4byte	.LVL485
 7786 081b 3C0C0000 		.4byte	.LVL509
 7787 081f 0100     		.2byte	0x1
 7788 0821 5C       		.byte	0x5c
 7789 0822 400C0000 		.4byte	.LVL510
 7790 0826 5B0C0000 		.4byte	.LVL513-1
 7791 082a 0100     		.2byte	0x1
 7792 082c 5C       		.byte	0x5c
 7793 082d 00000000 		.4byte	0
 7794 0831 00000000 		.4byte	0
 7795              	.LLST42:
 7796 0835 22000000 		.4byte	.LVL93
 7797 0839 32000000 		.4byte	.LVL95
 7798 083d 0100     		.2byte	0x1
 7799 083f 57       		.byte	0x57
 7800 0840 00000000 		.4byte	0
 7801 0844 00000000 		.4byte	0
 7802              	.LLST43:
 7803 0848 22000000 		.4byte	.LVL93
 7804 084c 32000000 		.4byte	.LVL95
 7805 0850 0100     		.2byte	0x1
 7806 0852 50       		.byte	0x50
 7807 0853 00000000 		.4byte	0
 7808 0857 00000000 		.4byte	0
 7809              	.LLST44:
 7810 085b 4C000000 		.4byte	.LVL103
ARM GAS  C:\Users\strap\AppData\Local\Temp\ccKJQbxb.s 			page 158


 7811 085f 54040000 		.4byte	.LVL239
 7812 0863 0100     		.2byte	0x1
 7813 0865 54       		.byte	0x54
 7814 0866 00000000 		.4byte	0
 7815 086a 00000000 		.4byte	0
 7816              	.LLST45:
 7817 086e 4C000000 		.4byte	.LVL103
 7818 0872 50000000 		.4byte	.LVL104
 7819 0876 0200     		.2byte	0x2
 7820 0878 30       		.byte	0x30
 7821 0879 9F       		.byte	0x9f
 7822 087a 50000000 		.4byte	.LVL104
 7823 087e A6030000 		.4byte	.LVL210
 7824 0882 0100     		.2byte	0x1
 7825 0884 50       		.byte	0x50
 7826 0885 A8030000 		.4byte	.LVL211
 7827 0889 B4030000 		.4byte	.LVL212
 7828 088d 0100     		.2byte	0x1
 7829 088f 50       		.byte	0x50
 7830 0890 00000000 		.4byte	0
 7831 0894 00000000 		.4byte	0
 7832              	.LLST46:
 7833 0898 54000000 		.4byte	.LVL105
 7834 089c 5C010000 		.4byte	.LVL133
 7835 08a0 0200     		.2byte	0x2
 7836 08a2 30       		.byte	0x30
 7837 08a3 9F       		.byte	0x9f
 7838 08a4 F8020000 		.4byte	.LVL185
 7839 08a8 A0030000 		.4byte	.LVL209
 7840 08ac 0200     		.2byte	0x2
 7841 08ae 30       		.byte	0x30
 7842 08af 9F       		.byte	0x9f
 7843 08b0 00000000 		.4byte	0
 7844 08b4 00000000 		.4byte	0
 7845              	.LLST47:
 7846 08b8 54000000 		.4byte	.LVL105
 7847 08bc EC000000 		.4byte	.LVL122
 7848 08c0 0200     		.2byte	0x2
 7849 08c2 30       		.byte	0x30
 7850 08c3 9F       		.byte	0x9f
 7851 08c4 12010000 		.4byte	.LVL123
 7852 08c8 80010000 		.4byte	.LVL134
 7853 08cc 0200     		.2byte	0x2
 7854 08ce 30       		.byte	0x30
 7855 08cf 9F       		.byte	0x9f
 7856 08d0 80010000 		.4byte	.LVL134
 7857 08d4 E2010000 		.4byte	.LVL145
 7858 08d8 0100     		.2byte	0x1
 7859 08da 53       		.byte	0x53
 7860 08db E2010000 		.4byte	.LVL145
 7861 08df 5A020000 		.4byte	.LVL164
 7862 08e3 0500     		.2byte	0x5
 7863 08e5 03       		.byte	0x3
 7864 08e6 0C000000 		.4byte	rle_prev_v
 7865 08ea 6A020000 		.4byte	.LVL165
 7866 08ee E4020000 		.4byte	.LVL184
 7867 08f2 0200     		.2byte	0x2
ARM GAS  C:\Users\strap\AppData\Local\Temp\ccKJQbxb.s 			page 159


 7868 08f4 30       		.byte	0x30
 7869 08f5 9F       		.byte	0x9f
 7870 08f6 F8020000 		.4byte	.LVL185
 7871 08fa 00030000 		.4byte	.LVL186
 7872 08fe 0200     		.2byte	0x2
 7873 0900 30       		.byte	0x30
 7874 0901 9F       		.byte	0x9f
 7875 0902 00030000 		.4byte	.LVL186
 7876 0906 0E030000 		.4byte	.LVL187
 7877 090a 0100     		.2byte	0x1
 7878 090c 53       		.byte	0x53
 7879 090d 0E030000 		.4byte	.LVL187
 7880 0911 90030000 		.4byte	.LVL207
 7881 0915 0500     		.2byte	0x5
 7882 0917 03       		.byte	0x3
 7883 0918 0C000000 		.4byte	rle_prev_v
 7884 091c 9E030000 		.4byte	.LVL208
 7885 0920 A0030000 		.4byte	.LVL209
 7886 0924 0200     		.2byte	0x2
 7887 0926 30       		.byte	0x30
 7888 0927 9F       		.byte	0x9f
 7889 0928 00000000 		.4byte	0
 7890 092c 00000000 		.4byte	0
 7891              	.LLST48:
 7892 0930 68000000 		.4byte	.LVL106
 7893 0934 EC000000 		.4byte	.LVL122
 7894 0938 0100     		.2byte	0x1
 7895 093a 5E       		.byte	0x5e
 7896 093b 00000000 		.4byte	0
 7897 093f 00000000 		.4byte	0
 7898              	.LLST49:
 7899 0943 68000000 		.4byte	.LVL106
 7900 0947 AE000000 		.4byte	.LVL115
 7901 094b 0100     		.2byte	0x1
 7902 094d 52       		.byte	0x52
 7903 094e AE000000 		.4byte	.LVL115
 7904 0952 CA000000 		.4byte	.LVL118
 7905 0956 0100     		.2byte	0x1
 7906 0958 51       		.byte	0x51
 7907 0959 CA000000 		.4byte	.LVL118
 7908 095d DA000000 		.4byte	.LVL119
 7909 0961 0400     		.2byte	0x4
 7910 0963 71       		.byte	0x71
 7911 0964 00       		.sleb128 0
 7912 0965 1F       		.byte	0x1f
 7913 0966 9F       		.byte	0x9f
 7914 0967 DA000000 		.4byte	.LVL119
 7915 096b E0000000 		.4byte	.LVL120
 7916 096f 0100     		.2byte	0x1
 7917 0971 51       		.byte	0x51
 7918 0972 E0000000 		.4byte	.LVL120
 7919 0976 E4000000 		.4byte	.LVL121
 7920 097a 0400     		.2byte	0x4
 7921 097c 71       		.byte	0x71
 7922 097d 00       		.sleb128 0
 7923 097e 1F       		.byte	0x1f
 7924 097f 9F       		.byte	0x9f
ARM GAS  C:\Users\strap\AppData\Local\Temp\ccKJQbxb.s 			page 160


 7925 0980 E4000000 		.4byte	.LVL121
 7926 0984 EC000000 		.4byte	.LVL122
 7927 0988 0500     		.2byte	0x5
 7928 098a 72       		.byte	0x72
 7929 098b 00       		.sleb128 0
 7930 098c 37       		.byte	0x37
 7931 098d 1A       		.byte	0x1a
 7932 098e 9F       		.byte	0x9f
 7933 098f 00000000 		.4byte	0
 7934 0993 00000000 		.4byte	0
 7935              	.LLST50:
 7936 0997 68000000 		.4byte	.LVL106
 7937 099b EC000000 		.4byte	.LVL122
 7938 099f 0100     		.2byte	0x1
 7939 09a1 5B       		.byte	0x5b
 7940 09a2 00000000 		.4byte	0
 7941 09a6 00000000 		.4byte	0
 7942              	.LLST51:
 7943 09aa 82000000 		.4byte	.LVL107
 7944 09ae 88000000 		.4byte	.LVL108
 7945 09b2 0200     		.2byte	0x2
 7946 09b4 37       		.byte	0x37
 7947 09b5 9F       		.byte	0x9f
 7948 09b6 88000000 		.4byte	.LVL108
 7949 09ba 8E000000 		.4byte	.LVL109
 7950 09be 0200     		.2byte	0x2
 7951 09c0 3F       		.byte	0x3f
 7952 09c1 9F       		.byte	0x9f
 7953 09c2 8E000000 		.4byte	.LVL109
 7954 09c6 94000000 		.4byte	.LVL110
 7955 09ca 0300     		.2byte	0x3
 7956 09cc 09       		.byte	0x9
 7957 09cd FF       		.byte	0xff
 7958 09ce 9F       		.byte	0x9f
 7959 09cf A0000000 		.4byte	.LVL111
 7960 09d3 A2000000 		.4byte	.LVL112
 7961 09d7 0100     		.2byte	0x1
 7962 09d9 59       		.byte	0x59
 7963 09da A6000000 		.4byte	.LVL113
 7964 09de EC000000 		.4byte	.LVL122
 7965 09e2 0100     		.2byte	0x1
 7966 09e4 59       		.byte	0x59
 7967 09e5 00000000 		.4byte	0
 7968 09e9 00000000 		.4byte	0
 7969              	.LLST52:
 7970 09ed AA000000 		.4byte	.LVL114
 7971 09f1 BC000000 		.4byte	.LVL116
 7972 09f5 0100     		.2byte	0x1
 7973 09f7 58       		.byte	0x58
 7974 09f8 BC000000 		.4byte	.LVL116
 7975 09fc DA000000 		.4byte	.LVL119
 7976 0a00 0500     		.2byte	0x5
 7977 0a02 72       		.byte	0x72
 7978 0a03 00       		.sleb128 0
 7979 0a04 33       		.byte	0x33
 7980 0a05 25       		.byte	0x25
 7981 0a06 9F       		.byte	0x9f
ARM GAS  C:\Users\strap\AppData\Local\Temp\ccKJQbxb.s 			page 161


 7982 0a07 DA000000 		.4byte	.LVL119
 7983 0a0b EC000000 		.4byte	.LVL122
 7984 0a0f 0100     		.2byte	0x1
 7985 0a11 58       		.byte	0x58
 7986 0a12 00000000 		.4byte	0
 7987 0a16 00000000 		.4byte	0
 7988              	.LLST53:
 7989 0a1a C8000000 		.4byte	.LVL117
 7990 0a1e DA000000 		.4byte	.LVL119
 7991 0a22 0100     		.2byte	0x1
 7992 0a24 58       		.byte	0x58
 7993 0a25 00000000 		.4byte	0
 7994 0a29 00000000 		.4byte	0
 7995              	.LLST54:
 7996 0a2d 1E010000 		.4byte	.LVL124
 7997 0a31 5C010000 		.4byte	.LVL133
 7998 0a35 0200     		.2byte	0x2
 7999 0a37 31       		.byte	0x31
 8000 0a38 9F       		.byte	0x9f
 8001 0a39 00000000 		.4byte	0
 8002 0a3d 00000000 		.4byte	0
 8003              	.LLST55:
 8004 0a41 1E010000 		.4byte	.LVL124
 8005 0a45 26010000 		.4byte	.LVL126
 8006 0a49 0100     		.2byte	0x1
 8007 0a4b 53       		.byte	0x53
 8008 0a4c 26010000 		.4byte	.LVL126
 8009 0a50 42010000 		.4byte	.LVL129
 8010 0a54 0100     		.2byte	0x1
 8011 0a56 5E       		.byte	0x5e
 8012 0a57 42010000 		.4byte	.LVL129
 8013 0a5b 4C010000 		.4byte	.LVL131
 8014 0a5f 0500     		.2byte	0x5
 8015 0a61 73       		.byte	0x73
 8016 0a62 00       		.sleb128 0
 8017 0a63 37       		.byte	0x37
 8018 0a64 1A       		.byte	0x1a
 8019 0a65 9F       		.byte	0x9f
 8020 0a66 4C010000 		.4byte	.LVL131
 8021 0a6a 54010000 		.4byte	.LVL132
 8022 0a6e 0100     		.2byte	0x1
 8023 0a70 5E       		.byte	0x5e
 8024 0a71 54010000 		.4byte	.LVL132
 8025 0a75 5C010000 		.4byte	.LVL133
 8026 0a79 0500     		.2byte	0x5
 8027 0a7b 73       		.byte	0x73
 8028 0a7c 00       		.sleb128 0
 8029 0a7d 37       		.byte	0x37
 8030 0a7e 1A       		.byte	0x1a
 8031 0a7f 9F       		.byte	0x9f
 8032 0a80 00000000 		.4byte	0
 8033 0a84 00000000 		.4byte	0
 8034              	.LLST56:
 8035 0a88 1E010000 		.4byte	.LVL124
 8036 0a8c 5C010000 		.4byte	.LVL133
 8037 0a90 0100     		.2byte	0x1
 8038 0a92 51       		.byte	0x51
ARM GAS  C:\Users\strap\AppData\Local\Temp\ccKJQbxb.s 			page 162


 8039 0a93 00000000 		.4byte	0
 8040 0a97 00000000 		.4byte	0
 8041              	.LLST58:
 8042 0a9b 22010000 		.4byte	.LVL125
 8043 0a9f 34010000 		.4byte	.LVL127
 8044 0aa3 0100     		.2byte	0x1
 8045 0aa5 58       		.byte	0x58
 8046 0aa6 34010000 		.4byte	.LVL127
 8047 0aaa 4C010000 		.4byte	.LVL131
 8048 0aae 0500     		.2byte	0x5
 8049 0ab0 73       		.byte	0x73
 8050 0ab1 00       		.sleb128 0
 8051 0ab2 33       		.byte	0x33
 8052 0ab3 25       		.byte	0x25
 8053 0ab4 9F       		.byte	0x9f
 8054 0ab5 4C010000 		.4byte	.LVL131
 8055 0ab9 5C010000 		.4byte	.LVL133
 8056 0abd 0100     		.2byte	0x1
 8057 0abf 58       		.byte	0x58
 8058 0ac0 00000000 		.4byte	0
 8059 0ac4 00000000 		.4byte	0
 8060              	.LLST59:
 8061 0ac8 3E010000 		.4byte	.LVL128
 8062 0acc 46010000 		.4byte	.LVL130
 8063 0ad0 0100     		.2byte	0x1
 8064 0ad2 52       		.byte	0x52
 8065 0ad3 46010000 		.4byte	.LVL130
 8066 0ad7 4C010000 		.4byte	.LVL131
 8067 0adb 0D00     		.2byte	0xd
 8068 0add 79       		.byte	0x79
 8069 0ade 00       		.sleb128 0
 8070 0adf 38       		.byte	0x38
 8071 0ae0 24       		.byte	0x24
 8072 0ae1 78       		.byte	0x78
 8073 0ae2 01       		.sleb128 1
 8074 0ae3 94       		.byte	0x94
 8075 0ae4 01       		.byte	0x1
 8076 0ae5 08       		.byte	0x8
 8077 0ae6 FF       		.byte	0xff
 8078 0ae7 1A       		.byte	0x1a
 8079 0ae8 22       		.byte	0x22
 8080 0ae9 9F       		.byte	0x9f
 8081 0aea 00000000 		.4byte	0
 8082 0aee 00000000 		.4byte	0
 8083              	.LLST60:
 8084 0af2 88010000 		.4byte	.LVL135
 8085 0af6 C6010000 		.4byte	.LVL144
 8086 0afa 0200     		.2byte	0x2
 8087 0afc 36       		.byte	0x36
 8088 0afd 9F       		.byte	0x9f
 8089 0afe 00000000 		.4byte	0
 8090 0b02 00000000 		.4byte	0
 8091              	.LLST61:
 8092 0b06 88010000 		.4byte	.LVL135
 8093 0b0a 90010000 		.4byte	.LVL137
 8094 0b0e 0100     		.2byte	0x1
 8095 0b10 58       		.byte	0x58
ARM GAS  C:\Users\strap\AppData\Local\Temp\ccKJQbxb.s 			page 163


 8096 0b11 90010000 		.4byte	.LVL137
 8097 0b15 AC010000 		.4byte	.LVL140
 8098 0b19 0100     		.2byte	0x1
 8099 0b1b 5E       		.byte	0x5e
 8100 0b1c AC010000 		.4byte	.LVL140
 8101 0b20 B6010000 		.4byte	.LVL142
 8102 0b24 0500     		.2byte	0x5
 8103 0b26 78       		.byte	0x78
 8104 0b27 00       		.sleb128 0
 8105 0b28 37       		.byte	0x37
 8106 0b29 1A       		.byte	0x1a
 8107 0b2a 9F       		.byte	0x9f
 8108 0b2b B6010000 		.4byte	.LVL142
 8109 0b2f BE010000 		.4byte	.LVL143
 8110 0b33 0100     		.2byte	0x1
 8111 0b35 5E       		.byte	0x5e
 8112 0b36 BE010000 		.4byte	.LVL143
 8113 0b3a C6010000 		.4byte	.LVL144
 8114 0b3e 0500     		.2byte	0x5
 8115 0b40 78       		.byte	0x78
 8116 0b41 00       		.sleb128 0
 8117 0b42 37       		.byte	0x37
 8118 0b43 1A       		.byte	0x1a
 8119 0b44 9F       		.byte	0x9f
 8120 0b45 00000000 		.4byte	0
 8121 0b49 00000000 		.4byte	0
 8122              	.LLST62:
 8123 0b4d 88010000 		.4byte	.LVL135
 8124 0b51 C6010000 		.4byte	.LVL144
 8125 0b55 0100     		.2byte	0x1
 8126 0b57 51       		.byte	0x51
 8127 0b58 00000000 		.4byte	0
 8128 0b5c 00000000 		.4byte	0
 8129              	.LLST63:
 8130 0b60 88010000 		.4byte	.LVL135
 8131 0b64 C6010000 		.4byte	.LVL144
 8132 0b68 0300     		.2byte	0x3
 8133 0b6a 08       		.byte	0x8
 8134 0b6b 3F       		.byte	0x3f
 8135 0b6c 9F       		.byte	0x9f
 8136 0b6d 00000000 		.4byte	0
 8137 0b71 00000000 		.4byte	0
 8138              	.LLST64:
 8139 0b75 8C010000 		.4byte	.LVL136
 8140 0b79 9E010000 		.4byte	.LVL138
 8141 0b7d 0100     		.2byte	0x1
 8142 0b7f 59       		.byte	0x59
 8143 0b80 9E010000 		.4byte	.LVL138
 8144 0b84 B6010000 		.4byte	.LVL142
 8145 0b88 0500     		.2byte	0x5
 8146 0b8a 78       		.byte	0x78
 8147 0b8b 00       		.sleb128 0
 8148 0b8c 33       		.byte	0x33
 8149 0b8d 25       		.byte	0x25
 8150 0b8e 9F       		.byte	0x9f
 8151 0b8f B6010000 		.4byte	.LVL142
 8152 0b93 C6010000 		.4byte	.LVL144
ARM GAS  C:\Users\strap\AppData\Local\Temp\ccKJQbxb.s 			page 164


 8153 0b97 0100     		.2byte	0x1
 8154 0b99 59       		.byte	0x59
 8155 0b9a 00000000 		.4byte	0
 8156 0b9e 00000000 		.4byte	0
 8157              	.LLST65:
 8158 0ba2 A8010000 		.4byte	.LVL139
 8159 0ba6 B0010000 		.4byte	.LVL141
 8160 0baa 0100     		.2byte	0x1
 8161 0bac 52       		.byte	0x52
 8162 0bad B0010000 		.4byte	.LVL141
 8163 0bb1 B6010000 		.4byte	.LVL142
 8164 0bb5 0D00     		.2byte	0xd
 8165 0bb7 7A       		.byte	0x7a
 8166 0bb8 00       		.sleb128 0
 8167 0bb9 38       		.byte	0x38
 8168 0bba 24       		.byte	0x24
 8169 0bbb 79       		.byte	0x79
 8170 0bbc 01       		.sleb128 1
 8171 0bbd 94       		.byte	0x94
 8172 0bbe 01       		.byte	0x1
 8173 0bbf 08       		.byte	0x8
 8174 0bc0 FF       		.byte	0xff
 8175 0bc1 1A       		.byte	0x1a
 8176 0bc2 22       		.byte	0x22
 8177 0bc3 9F       		.byte	0x9f
 8178 0bc4 00000000 		.4byte	0
 8179 0bc8 00000000 		.4byte	0
 8180              	.LLST66:
 8181 0bcc E6010000 		.4byte	.LVL146
 8182 0bd0 5A020000 		.4byte	.LVL164
 8183 0bd4 0100     		.2byte	0x1
 8184 0bd6 5E       		.byte	0x5e
 8185 0bd7 00000000 		.4byte	0
 8186 0bdb 00000000 		.4byte	0
 8187              	.LLST67:
 8188 0bdf E6010000 		.4byte	.LVL146
 8189 0be3 20020000 		.4byte	.LVL155
 8190 0be7 0100     		.2byte	0x1
 8191 0be9 58       		.byte	0x58
 8192 0bea 20020000 		.4byte	.LVL155
 8193 0bee 3A020000 		.4byte	.LVL158
 8194 0bf2 0100     		.2byte	0x1
 8195 0bf4 52       		.byte	0x52
 8196 0bf5 3A020000 		.4byte	.LVL158
 8197 0bf9 3E020000 		.4byte	.LVL159
 8198 0bfd 0400     		.2byte	0x4
 8199 0bff 72       		.byte	0x72
 8200 0c00 00       		.sleb128 0
 8201 0c01 1F       		.byte	0x1f
 8202 0c02 9F       		.byte	0x9f
 8203 0c03 3E020000 		.4byte	.LVL159
 8204 0c07 48020000 		.4byte	.LVL161
 8205 0c0b 0500     		.2byte	0x5
 8206 0c0d 78       		.byte	0x78
 8207 0c0e 00       		.sleb128 0
 8208 0c0f 37       		.byte	0x37
 8209 0c10 1A       		.byte	0x1a
ARM GAS  C:\Users\strap\AppData\Local\Temp\ccKJQbxb.s 			page 165


 8210 0c11 9F       		.byte	0x9f
 8211 0c12 48020000 		.4byte	.LVL161
 8212 0c16 5A020000 		.4byte	.LVL164
 8213 0c1a 0100     		.2byte	0x1
 8214 0c1c 52       		.byte	0x52
 8215 0c1d 00000000 		.4byte	0
 8216 0c21 00000000 		.4byte	0
 8217              	.LLST68:
 8218 0c25 E6010000 		.4byte	.LVL146
 8219 0c29 30020000 		.4byte	.LVL156
 8220 0c2d 0100     		.2byte	0x1
 8221 0c2f 51       		.byte	0x51
 8222 0c30 30020000 		.4byte	.LVL156
 8223 0c34 48020000 		.4byte	.LVL161
 8224 0c38 0500     		.2byte	0x5
 8225 0c3a 03       		.byte	0x3
 8226 0c3b 00000000 		.4byte	rle_in
 8227 0c3f 48020000 		.4byte	.LVL161
 8228 0c43 4E020000 		.4byte	.LVL163
 8229 0c47 0100     		.2byte	0x1
 8230 0c49 51       		.byte	0x51
 8231 0c4a 4E020000 		.4byte	.LVL163
 8232 0c4e 5A020000 		.4byte	.LVL164
 8233 0c52 0500     		.2byte	0x5
 8234 0c54 03       		.byte	0x3
 8235 0c55 00000000 		.4byte	rle_in
 8236 0c59 00000000 		.4byte	0
 8237 0c5d 00000000 		.4byte	0
 8238              	.LLST69:
 8239 0c61 FE010000 		.4byte	.LVL147
 8240 0c65 02020000 		.4byte	.LVL148
 8241 0c69 0200     		.2byte	0x2
 8242 0c6b 37       		.byte	0x37
 8243 0c6c 9F       		.byte	0x9f
 8244 0c6d 02020000 		.4byte	.LVL148
 8245 0c71 06020000 		.4byte	.LVL149
 8246 0c75 0200     		.2byte	0x2
 8247 0c77 3F       		.byte	0x3f
 8248 0c78 9F       		.byte	0x9f
 8249 0c79 06020000 		.4byte	.LVL149
 8250 0c7d 0A020000 		.4byte	.LVL150
 8251 0c81 0300     		.2byte	0x3
 8252 0c83 09       		.byte	0x9
 8253 0c84 FF       		.byte	0xff
 8254 0c85 9F       		.byte	0x9f
 8255 0c86 14020000 		.4byte	.LVL151
 8256 0c8a 16020000 		.4byte	.LVL152
 8257 0c8e 0100     		.2byte	0x1
 8258 0c90 53       		.byte	0x53
 8259 0c91 18020000 		.4byte	.LVL153
 8260 0c95 46020000 		.4byte	.LVL160
 8261 0c99 0100     		.2byte	0x1
 8262 0c9b 53       		.byte	0x53
 8263 0c9c 48020000 		.4byte	.LVL161
 8264 0ca0 5A020000 		.4byte	.LVL164
 8265 0ca4 0100     		.2byte	0x1
 8266 0ca6 53       		.byte	0x53
ARM GAS  C:\Users\strap\AppData\Local\Temp\ccKJQbxb.s 			page 166


 8267 0ca7 00000000 		.4byte	0
 8268 0cab 00000000 		.4byte	0
 8269              	.LLST70:
 8270 0caf 1C020000 		.4byte	.LVL154
 8271 0cb3 4C020000 		.4byte	.LVL162
 8272 0cb7 0100     		.2byte	0x1
 8273 0cb9 59       		.byte	0x59
 8274 0cba 4C020000 		.4byte	.LVL162
 8275 0cbe 5A020000 		.4byte	.LVL164
 8276 0cc2 0500     		.2byte	0x5
 8277 0cc4 78       		.byte	0x78
 8278 0cc5 00       		.sleb128 0
 8279 0cc6 33       		.byte	0x33
 8280 0cc7 25       		.byte	0x25
 8281 0cc8 9F       		.byte	0x9f
 8282 0cc9 00000000 		.4byte	0
 8283 0ccd 00000000 		.4byte	0
 8284              	.LLST71:
 8285 0cd1 38020000 		.4byte	.LVL157
 8286 0cd5 48020000 		.4byte	.LVL161
 8287 0cd9 0100     		.2byte	0x1
 8288 0cdb 51       		.byte	0x51
 8289 0cdc 00000000 		.4byte	0
 8290 0ce0 00000000 		.4byte	0
 8291              	.LLST72:
 8292 0ce4 70020000 		.4byte	.LVL166
 8293 0ce8 E4020000 		.4byte	.LVL184
 8294 0cec 0100     		.2byte	0x1
 8295 0cee 5E       		.byte	0x5e
 8296 0cef 00000000 		.4byte	0
 8297 0cf3 00000000 		.4byte	0
 8298              	.LLST73:
 8299 0cf7 70020000 		.4byte	.LVL166
 8300 0cfb AA020000 		.4byte	.LVL175
 8301 0cff 0100     		.2byte	0x1
 8302 0d01 58       		.byte	0x58
 8303 0d02 AA020000 		.4byte	.LVL175
 8304 0d06 C4020000 		.4byte	.LVL178
 8305 0d0a 0100     		.2byte	0x1
 8306 0d0c 52       		.byte	0x52
 8307 0d0d C4020000 		.4byte	.LVL178
 8308 0d11 C8020000 		.4byte	.LVL179
 8309 0d15 0400     		.2byte	0x4
 8310 0d17 72       		.byte	0x72
 8311 0d18 00       		.sleb128 0
 8312 0d19 1F       		.byte	0x1f
 8313 0d1a 9F       		.byte	0x9f
 8314 0d1b C8020000 		.4byte	.LVL179
 8315 0d1f D2020000 		.4byte	.LVL181
 8316 0d23 0500     		.2byte	0x5
 8317 0d25 78       		.byte	0x78
 8318 0d26 00       		.sleb128 0
 8319 0d27 37       		.byte	0x37
 8320 0d28 1A       		.byte	0x1a
 8321 0d29 9F       		.byte	0x9f
 8322 0d2a D2020000 		.4byte	.LVL181
 8323 0d2e E4020000 		.4byte	.LVL184
ARM GAS  C:\Users\strap\AppData\Local\Temp\ccKJQbxb.s 			page 167


 8324 0d32 0100     		.2byte	0x1
 8325 0d34 52       		.byte	0x52
 8326 0d35 00000000 		.4byte	0
 8327 0d39 00000000 		.4byte	0
 8328              	.LLST74:
 8329 0d3d 70020000 		.4byte	.LVL166
 8330 0d41 BA020000 		.4byte	.LVL176
 8331 0d45 0100     		.2byte	0x1
 8332 0d47 51       		.byte	0x51
 8333 0d48 BA020000 		.4byte	.LVL176
 8334 0d4c D2020000 		.4byte	.LVL181
 8335 0d50 0500     		.2byte	0x5
 8336 0d52 03       		.byte	0x3
 8337 0d53 00000000 		.4byte	rle_in
 8338 0d57 D2020000 		.4byte	.LVL181
 8339 0d5b D8020000 		.4byte	.LVL183
 8340 0d5f 0100     		.2byte	0x1
 8341 0d61 51       		.byte	0x51
 8342 0d62 D8020000 		.4byte	.LVL183
 8343 0d66 E4020000 		.4byte	.LVL184
 8344 0d6a 0500     		.2byte	0x5
 8345 0d6c 03       		.byte	0x3
 8346 0d6d 00000000 		.4byte	rle_in
 8347 0d71 00000000 		.4byte	0
 8348 0d75 00000000 		.4byte	0
 8349              	.LLST75:
 8350 0d79 88020000 		.4byte	.LVL167
 8351 0d7d 8C020000 		.4byte	.LVL168
 8352 0d81 0200     		.2byte	0x2
 8353 0d83 37       		.byte	0x37
 8354 0d84 9F       		.byte	0x9f
 8355 0d85 8C020000 		.4byte	.LVL168
 8356 0d89 90020000 		.4byte	.LVL169
 8357 0d8d 0200     		.2byte	0x2
 8358 0d8f 3F       		.byte	0x3f
 8359 0d90 9F       		.byte	0x9f
 8360 0d91 90020000 		.4byte	.LVL169
 8361 0d95 94020000 		.4byte	.LVL170
 8362 0d99 0300     		.2byte	0x3
 8363 0d9b 09       		.byte	0x9
 8364 0d9c FF       		.byte	0xff
 8365 0d9d 9F       		.byte	0x9f
 8366 0d9e 9E020000 		.4byte	.LVL171
 8367 0da2 A0020000 		.4byte	.LVL172
 8368 0da6 0100     		.2byte	0x1
 8369 0da8 53       		.byte	0x53
 8370 0da9 A2020000 		.4byte	.LVL173
 8371 0dad D0020000 		.4byte	.LVL180
 8372 0db1 0100     		.2byte	0x1
 8373 0db3 53       		.byte	0x53
 8374 0db4 D2020000 		.4byte	.LVL181
 8375 0db8 E4020000 		.4byte	.LVL184
 8376 0dbc 0100     		.2byte	0x1
 8377 0dbe 53       		.byte	0x53
 8378 0dbf 00000000 		.4byte	0
 8379 0dc3 00000000 		.4byte	0
 8380              	.LLST76:
ARM GAS  C:\Users\strap\AppData\Local\Temp\ccKJQbxb.s 			page 168


 8381 0dc7 A6020000 		.4byte	.LVL174
 8382 0dcb D6020000 		.4byte	.LVL182
 8383 0dcf 0100     		.2byte	0x1
 8384 0dd1 59       		.byte	0x59
 8385 0dd2 D6020000 		.4byte	.LVL182
 8386 0dd6 E4020000 		.4byte	.LVL184
 8387 0dda 0500     		.2byte	0x5
 8388 0ddc 78       		.byte	0x78
 8389 0ddd 00       		.sleb128 0
 8390 0dde 33       		.byte	0x33
 8391 0ddf 25       		.byte	0x25
 8392 0de0 9F       		.byte	0x9f
 8393 0de1 00000000 		.4byte	0
 8394 0de5 00000000 		.4byte	0
 8395              	.LLST77:
 8396 0de9 C2020000 		.4byte	.LVL177
 8397 0ded D2020000 		.4byte	.LVL181
 8398 0df1 0100     		.2byte	0x1
 8399 0df3 51       		.byte	0x51
 8400 0df4 00000000 		.4byte	0
 8401 0df8 00000000 		.4byte	0
 8402              	.LLST78:
 8403 0dfc 18030000 		.4byte	.LVL188
 8404 0e00 90030000 		.4byte	.LVL207
 8405 0e04 0100     		.2byte	0x1
 8406 0e06 5E       		.byte	0x5e
 8407 0e07 00000000 		.4byte	0
 8408 0e0b 00000000 		.4byte	0
 8409              	.LLST79:
 8410 0e0f 18030000 		.4byte	.LVL188
 8411 0e13 52030000 		.4byte	.LVL197
 8412 0e17 0100     		.2byte	0x1
 8413 0e19 51       		.byte	0x51
 8414 0e1a 52030000 		.4byte	.LVL197
 8415 0e1e 70030000 		.4byte	.LVL200
 8416 0e22 0100     		.2byte	0x1
 8417 0e24 52       		.byte	0x52
 8418 0e25 70030000 		.4byte	.LVL200
 8419 0e29 74030000 		.4byte	.LVL201
 8420 0e2d 0400     		.2byte	0x4
 8421 0e2f 72       		.byte	0x72
 8422 0e30 00       		.sleb128 0
 8423 0e31 1F       		.byte	0x1f
 8424 0e32 9F       		.byte	0x9f
 8425 0e33 74030000 		.4byte	.LVL201
 8426 0e37 7E030000 		.4byte	.LVL203
 8427 0e3b 0500     		.2byte	0x5
 8428 0e3d 71       		.byte	0x71
 8429 0e3e 00       		.sleb128 0
 8430 0e3f 37       		.byte	0x37
 8431 0e40 1A       		.byte	0x1a
 8432 0e41 9F       		.byte	0x9f
 8433 0e42 7E030000 		.4byte	.LVL203
 8434 0e46 84030000 		.4byte	.LVL205
 8435 0e4a 0100     		.2byte	0x1
 8436 0e4c 52       		.byte	0x52
 8437 0e4d 84030000 		.4byte	.LVL205
ARM GAS  C:\Users\strap\AppData\Local\Temp\ccKJQbxb.s 			page 169


 8438 0e51 88030000 		.4byte	.LVL206
 8439 0e55 0400     		.2byte	0x4
 8440 0e57 72       		.byte	0x72
 8441 0e58 00       		.sleb128 0
 8442 0e59 1F       		.byte	0x1f
 8443 0e5a 9F       		.byte	0x9f
 8444 0e5b 88030000 		.4byte	.LVL206
 8445 0e5f 90030000 		.4byte	.LVL207
 8446 0e63 0500     		.2byte	0x5
 8447 0e65 71       		.byte	0x71
 8448 0e66 00       		.sleb128 0
 8449 0e67 37       		.byte	0x37
 8450 0e68 1A       		.byte	0x1a
 8451 0e69 9F       		.byte	0x9f
 8452 0e6a 00000000 		.4byte	0
 8453 0e6e 00000000 		.4byte	0
 8454              	.LLST80:
 8455 0e72 18030000 		.4byte	.LVL188
 8456 0e76 90030000 		.4byte	.LVL207
 8457 0e7a 0100     		.2byte	0x1
 8458 0e7c 59       		.byte	0x59
 8459 0e7d 00000000 		.4byte	0
 8460 0e81 00000000 		.4byte	0
 8461              	.LLST81:
 8462 0e85 30030000 		.4byte	.LVL189
 8463 0e89 34030000 		.4byte	.LVL190
 8464 0e8d 0200     		.2byte	0x2
 8465 0e8f 37       		.byte	0x37
 8466 0e90 9F       		.byte	0x9f
 8467 0e91 34030000 		.4byte	.LVL190
 8468 0e95 38030000 		.4byte	.LVL191
 8469 0e99 0200     		.2byte	0x2
 8470 0e9b 3F       		.byte	0x3f
 8471 0e9c 9F       		.byte	0x9f
 8472 0e9d 38030000 		.4byte	.LVL191
 8473 0ea1 3C030000 		.4byte	.LVL192
 8474 0ea5 0300     		.2byte	0x3
 8475 0ea7 09       		.byte	0x9
 8476 0ea8 FF       		.byte	0xff
 8477 0ea9 9F       		.byte	0x9f
 8478 0eaa 46030000 		.4byte	.LVL193
 8479 0eae 48030000 		.4byte	.LVL194
 8480 0eb2 0100     		.2byte	0x1
 8481 0eb4 53       		.byte	0x53
 8482 0eb5 4A030000 		.4byte	.LVL195
 8483 0eb9 7C030000 		.4byte	.LVL202
 8484 0ebd 0100     		.2byte	0x1
 8485 0ebf 53       		.byte	0x53
 8486 0ec0 7E030000 		.4byte	.LVL203
 8487 0ec4 90030000 		.4byte	.LVL207
 8488 0ec8 0100     		.2byte	0x1
 8489 0eca 53       		.byte	0x53
 8490 0ecb 00000000 		.4byte	0
 8491 0ecf 00000000 		.4byte	0
 8492              	.LLST82:
 8493 0ed3 4E030000 		.4byte	.LVL196
 8494 0ed7 62030000 		.4byte	.LVL198
ARM GAS  C:\Users\strap\AppData\Local\Temp\ccKJQbxb.s 			page 170


 8495 0edb 0100     		.2byte	0x1
 8496 0edd 58       		.byte	0x58
 8497 0ede 62030000 		.4byte	.LVL198
 8498 0ee2 7E030000 		.4byte	.LVL203
 8499 0ee6 0500     		.2byte	0x5
 8500 0ee8 71       		.byte	0x71
 8501 0ee9 00       		.sleb128 0
 8502 0eea 33       		.byte	0x33
 8503 0eeb 25       		.byte	0x25
 8504 0eec 9F       		.byte	0x9f
 8505 0eed 7E030000 		.4byte	.LVL203
 8506 0ef1 82030000 		.4byte	.LVL204
 8507 0ef5 0100     		.2byte	0x1
 8508 0ef7 58       		.byte	0x58
 8509 0ef8 82030000 		.4byte	.LVL204
 8510 0efc 90030000 		.4byte	.LVL207
 8511 0f00 0500     		.2byte	0x5
 8512 0f02 71       		.byte	0x71
 8513 0f03 00       		.sleb128 0
 8514 0f04 33       		.byte	0x33
 8515 0f05 25       		.byte	0x25
 8516 0f06 9F       		.byte	0x9f
 8517 0f07 00000000 		.4byte	0
 8518 0f0b 00000000 		.4byte	0
 8519              	.LLST83:
 8520 0f0f 6E030000 		.4byte	.LVL199
 8521 0f13 7E030000 		.4byte	.LVL203
 8522 0f17 0100     		.2byte	0x1
 8523 0f19 58       		.byte	0x58
 8524 0f1a 00000000 		.4byte	0
 8525 0f1e 00000000 		.4byte	0
 8526              	.LLST84:
 8527 0f22 BE030000 		.4byte	.LVL214
 8528 0f26 C2030000 		.4byte	.LVL215
 8529 0f2a 0100     		.2byte	0x1
 8530 0f2c 57       		.byte	0x57
 8531 0f2d C2030000 		.4byte	.LVL215
 8532 0f31 0C040000 		.4byte	.LVL223
 8533 0f35 0200     		.2byte	0x2
 8534 0f37 34       		.byte	0x34
 8535 0f38 9F       		.byte	0x9f
 8536 0f39 0C040000 		.4byte	.LVL223
 8537 0f3d 10040000 		.4byte	.LVL224
 8538 0f41 0100     		.2byte	0x1
 8539 0f43 57       		.byte	0x57
 8540 0f44 10040000 		.4byte	.LVL224
 8541 0f48 12040000 		.4byte	.LVL225
 8542 0f4c 0200     		.2byte	0x2
 8543 0f4e 34       		.byte	0x34
 8544 0f4f 9F       		.byte	0x9f
 8545 0f50 12040000 		.4byte	.LVL225
 8546 0f54 2E040000 		.4byte	.LVL232
 8547 0f58 0100     		.2byte	0x1
 8548 0f5a 52       		.byte	0x52
 8549 0f5b 00000000 		.4byte	0
 8550 0f5f 00000000 		.4byte	0
 8551              	.LLST85:
ARM GAS  C:\Users\strap\AppData\Local\Temp\ccKJQbxb.s 			page 171


 8552 0f63 BE030000 		.4byte	.LVL214
 8553 0f67 D6030000 		.4byte	.LVL216
 8554 0f6b 0100     		.2byte	0x1
 8555 0f6d 5E       		.byte	0x5e
 8556 0f6e D6030000 		.4byte	.LVL216
 8557 0f72 DE030000 		.4byte	.LVL217
 8558 0f76 0200     		.2byte	0x2
 8559 0f78 32       		.byte	0x32
 8560 0f79 9F       		.byte	0x9f
 8561 0f7a DE030000 		.4byte	.LVL217
 8562 0f7e E4030000 		.4byte	.LVL218
 8563 0f82 0200     		.2byte	0x2
 8564 0f84 34       		.byte	0x34
 8565 0f85 9F       		.byte	0x9f
 8566 0f86 E4030000 		.4byte	.LVL218
 8567 0f8a EC030000 		.4byte	.LVL219
 8568 0f8e 0200     		.2byte	0x2
 8569 0f90 36       		.byte	0x36
 8570 0f91 9F       		.byte	0x9f
 8571 0f92 EC030000 		.4byte	.LVL219
 8572 0f96 F4030000 		.4byte	.LVL220
 8573 0f9a 0200     		.2byte	0x2
 8574 0f9c 39       		.byte	0x39
 8575 0f9d 9F       		.byte	0x9f
 8576 0f9e F4030000 		.4byte	.LVL220
 8577 0fa2 FC030000 		.4byte	.LVL221
 8578 0fa6 0200     		.2byte	0x2
 8579 0fa8 3B       		.byte	0x3b
 8580 0fa9 9F       		.byte	0x9f
 8581 0faa FC030000 		.4byte	.LVL221
 8582 0fae 04040000 		.4byte	.LVL222
 8583 0fb2 0200     		.2byte	0x2
 8584 0fb4 3D       		.byte	0x3d
 8585 0fb5 9F       		.byte	0x9f
 8586 0fb6 04040000 		.4byte	.LVL222
 8587 0fba 0C040000 		.4byte	.LVL223
 8588 0fbe 0200     		.2byte	0x2
 8589 0fc0 3F       		.byte	0x3f
 8590 0fc1 9F       		.byte	0x9f
 8591 0fc2 0C040000 		.4byte	.LVL223
 8592 0fc6 40040000 		.4byte	.LVL235
 8593 0fca 0100     		.2byte	0x1
 8594 0fcc 5E       		.byte	0x5e
 8595 0fcd 00000000 		.4byte	0
 8596 0fd1 00000000 		.4byte	0
 8597              	.LLST86:
 8598 0fd5 BE030000 		.4byte	.LVL214
 8599 0fd9 16040000 		.4byte	.LVL226
 8600 0fdd 0100     		.2byte	0x1
 8601 0fdf 50       		.byte	0x50
 8602 0fe0 16040000 		.4byte	.LVL226
 8603 0fe4 18040000 		.4byte	.LVL227
 8604 0fe8 0100     		.2byte	0x1
 8605 0fea 51       		.byte	0x51
 8606 0feb 18040000 		.4byte	.LVL227
 8607 0fef 1A040000 		.4byte	.LVL228
 8608 0ff3 0400     		.2byte	0x4
ARM GAS  C:\Users\strap\AppData\Local\Temp\ccKJQbxb.s 			page 172


 8609 0ff5 71       		.byte	0x71
 8610 0ff6 00       		.sleb128 0
 8611 0ff7 1F       		.byte	0x1f
 8612 0ff8 9F       		.byte	0x9f
 8613 0ff9 1A040000 		.4byte	.LVL228
 8614 0ffd 1C040000 		.4byte	.LVL229
 8615 1001 0500     		.2byte	0x5
 8616 1003 70       		.byte	0x70
 8617 1004 00       		.sleb128 0
 8618 1005 37       		.byte	0x37
 8619 1006 1A       		.byte	0x1a
 8620 1007 9F       		.byte	0x9f
 8621 1008 1C040000 		.4byte	.LVL229
 8622 100c 3A040000 		.4byte	.LVL234
 8623 1010 0100     		.2byte	0x1
 8624 1012 51       		.byte	0x51
 8625 1013 00000000 		.4byte	0
 8626 1017 00000000 		.4byte	0
 8627              	.LLST87:
 8628 101b BE030000 		.4byte	.LVL214
 8629 101f 40040000 		.4byte	.LVL235
 8630 1023 0100     		.2byte	0x1
 8631 1025 56       		.byte	0x56
 8632 1026 00000000 		.4byte	0
 8633 102a 00000000 		.4byte	0
 8634              	.LLST88:
 8635 102e 12040000 		.4byte	.LVL225
 8636 1032 42040000 		.4byte	.LVL236
 8637 1036 0500     		.2byte	0x5
 8638 1038 70       		.byte	0x70
 8639 1039 00       		.sleb128 0
 8640 103a 33       		.byte	0x33
 8641 103b 25       		.byte	0x25
 8642 103c 9F       		.byte	0x9f
 8643 103d 00000000 		.4byte	0
 8644 1041 00000000 		.4byte	0
 8645              	.LLST89:
 8646 1045 24040000 		.4byte	.LVL230
 8647 1049 2A040000 		.4byte	.LVL231
 8648 104d 0100     		.2byte	0x1
 8649 104f 53       		.byte	0x53
 8650 1050 2A040000 		.4byte	.LVL231
 8651 1054 32040000 		.4byte	.LVL233
 8652 1058 0400     		.2byte	0x4
 8653 105a 73       		.byte	0x73
 8654 105b 00       		.sleb128 0
 8655 105c 20       		.byte	0x20
 8656 105d 9F       		.byte	0x9f
 8657 105e 00000000 		.4byte	0
 8658 1062 00000000 		.4byte	0
 8659              	.LLST90:
 8660 1066 62040000 		.4byte	.LVL240
 8661 106a 72070000 		.4byte	.LVL346
 8662 106e 0100     		.2byte	0x1
 8663 1070 5E       		.byte	0x5e
 8664 1071 76070000 		.4byte	.LVL347
 8665 1075 78070000 		.4byte	.LVL348
ARM GAS  C:\Users\strap\AppData\Local\Temp\ccKJQbxb.s 			page 173


 8666 1079 0100     		.2byte	0x1
 8667 107b 5E       		.byte	0x5e
 8668 107c 84070000 		.4byte	.LVL349
 8669 1080 9C070000 		.4byte	.LVL350
 8670 1084 0100     		.2byte	0x1
 8671 1086 5E       		.byte	0x5e
 8672 1087 00000000 		.4byte	0
 8673 108b 00000000 		.4byte	0
 8674              	.LLST91:
 8675 108f 66040000 		.4byte	.LVL241
 8676 1093 46050000 		.4byte	.LVL272
 8677 1097 0200     		.2byte	0x2
 8678 1099 30       		.byte	0x30
 8679 109a 9F       		.byte	0x9f
 8680 109b BE060000 		.4byte	.LVL324
 8681 109f 6A070000 		.4byte	.LVL345
 8682 10a3 0200     		.2byte	0x2
 8683 10a5 30       		.byte	0x30
 8684 10a6 9F       		.byte	0x9f
 8685 10a7 00000000 		.4byte	0
 8686 10ab 00000000 		.4byte	0
 8687              	.LLST92:
 8688 10af 66040000 		.4byte	.LVL241
 8689 10b3 EA040000 		.4byte	.LVL260
 8690 10b7 0200     		.2byte	0x2
 8691 10b9 30       		.byte	0x30
 8692 10ba 9F       		.byte	0x9f
 8693 10bb 08050000 		.4byte	.LVL261
 8694 10bf 5A050000 		.4byte	.LVL273
 8695 10c3 0200     		.2byte	0x2
 8696 10c5 30       		.byte	0x30
 8697 10c6 9F       		.byte	0x9f
 8698 10c7 5A050000 		.4byte	.LVL273
 8699 10cb AE050000 		.4byte	.LVL285
 8700 10cf 0100     		.2byte	0x1
 8701 10d1 53       		.byte	0x53
 8702 10d2 AE050000 		.4byte	.LVL285
 8703 10d6 28060000 		.4byte	.LVL304
 8704 10da 0500     		.2byte	0x5
 8705 10dc 03       		.byte	0x3
 8706 10dd 0C000000 		.4byte	rle_prev_v
 8707 10e1 36060000 		.4byte	.LVL305
 8708 10e5 B0060000 		.4byte	.LVL323
 8709 10e9 0200     		.2byte	0x2
 8710 10eb 30       		.byte	0x30
 8711 10ec 9F       		.byte	0x9f
 8712 10ed BE060000 		.4byte	.LVL324
 8713 10f1 C6060000 		.4byte	.LVL325
 8714 10f5 0200     		.2byte	0x2
 8715 10f7 30       		.byte	0x30
 8716 10f8 9F       		.byte	0x9f
 8717 10f9 C6060000 		.4byte	.LVL325
 8718 10fd D6060000 		.4byte	.LVL326
 8719 1101 0100     		.2byte	0x1
 8720 1103 53       		.byte	0x53
 8721 1104 D6060000 		.4byte	.LVL326
 8722 1108 5A070000 		.4byte	.LVL343
ARM GAS  C:\Users\strap\AppData\Local\Temp\ccKJQbxb.s 			page 174


 8723 110c 0500     		.2byte	0x5
 8724 110e 03       		.byte	0x3
 8725 110f 0C000000 		.4byte	rle_prev_v
 8726 1113 68070000 		.4byte	.LVL344
 8727 1117 6A070000 		.4byte	.LVL345
 8728 111b 0200     		.2byte	0x2
 8729 111d 30       		.byte	0x30
 8730 111e 9F       		.byte	0x9f
 8731 111f 00000000 		.4byte	0
 8732 1123 00000000 		.4byte	0
 8733              	.LLST93:
 8734 1127 78040000 		.4byte	.LVL242
 8735 112b EA040000 		.4byte	.LVL260
 8736 112f 0100     		.2byte	0x1
 8737 1131 5C       		.byte	0x5c
 8738 1132 00000000 		.4byte	0
 8739 1136 00000000 		.4byte	0
 8740              	.LLST94:
 8741 113a 78040000 		.4byte	.LVL242
 8742 113e B0040000 		.4byte	.LVL251
 8743 1142 0100     		.2byte	0x1
 8744 1144 54       		.byte	0x54
 8745 1145 B0040000 		.4byte	.LVL251
 8746 1149 DE040000 		.4byte	.LVL257
 8747 114d 0100     		.2byte	0x1
 8748 114f 52       		.byte	0x52
 8749 1150 DE040000 		.4byte	.LVL257
 8750 1154 E2040000 		.4byte	.LVL258
 8751 1158 0400     		.2byte	0x4
 8752 115a 72       		.byte	0x72
 8753 115b 00       		.sleb128 0
 8754 115c 1F       		.byte	0x1f
 8755 115d 9F       		.byte	0x9f
 8756 115e E2040000 		.4byte	.LVL258
 8757 1162 EA040000 		.4byte	.LVL260
 8758 1166 0500     		.2byte	0x5
 8759 1168 74       		.byte	0x74
 8760 1169 00       		.sleb128 0
 8761 116a 37       		.byte	0x37
 8762 116b 1A       		.byte	0x1a
 8763 116c 9F       		.byte	0x9f
 8764 116d 00000000 		.4byte	0
 8765 1171 00000000 		.4byte	0
 8766              	.LLST95:
 8767 1175 78040000 		.4byte	.LVL242
 8768 1179 C2040000 		.4byte	.LVL253
 8769 117d 0100     		.2byte	0x1
 8770 117f 53       		.byte	0x53
 8771 1180 C2040000 		.4byte	.LVL253
 8772 1184 DA040000 		.4byte	.LVL255
 8773 1188 0500     		.2byte	0x5
 8774 118a 03       		.byte	0x3
 8775 118b 00000000 		.4byte	rle_in
 8776 118f DA040000 		.4byte	.LVL255
 8777 1193 E8040000 		.4byte	.LVL259
 8778 1197 0100     		.2byte	0x1
 8779 1199 53       		.byte	0x53
ARM GAS  C:\Users\strap\AppData\Local\Temp\ccKJQbxb.s 			page 175


 8780 119a E8040000 		.4byte	.LVL259
 8781 119e EA040000 		.4byte	.LVL260
 8782 11a2 0500     		.2byte	0x5
 8783 11a4 03       		.byte	0x3
 8784 11a5 00000000 		.4byte	rle_in
 8785 11a9 00000000 		.4byte	0
 8786 11ad 00000000 		.4byte	0
 8787              	.LLST96:
 8788 11b1 90040000 		.4byte	.LVL243
 8789 11b5 94040000 		.4byte	.LVL244
 8790 11b9 0200     		.2byte	0x2
 8791 11bb 37       		.byte	0x37
 8792 11bc 9F       		.byte	0x9f
 8793 11bd 94040000 		.4byte	.LVL244
 8794 11c1 98040000 		.4byte	.LVL245
 8795 11c5 0200     		.2byte	0x2
 8796 11c7 3F       		.byte	0x3f
 8797 11c8 9F       		.byte	0x9f
 8798 11c9 98040000 		.4byte	.LVL245
 8799 11cd 9C040000 		.4byte	.LVL246
 8800 11d1 0300     		.2byte	0x3
 8801 11d3 09       		.byte	0x9
 8802 11d4 FF       		.byte	0xff
 8803 11d5 9F       		.byte	0x9f
 8804 11d6 A6040000 		.4byte	.LVL247
 8805 11da A8040000 		.4byte	.LVL248
 8806 11de 0100     		.2byte	0x1
 8807 11e0 50       		.byte	0x50
 8808 11e1 AA040000 		.4byte	.LVL249
 8809 11e5 EA040000 		.4byte	.LVL260
 8810 11e9 0100     		.2byte	0x1
 8811 11eb 50       		.byte	0x50
 8812 11ec 00000000 		.4byte	0
 8813 11f0 00000000 		.4byte	0
 8814              	.LLST97:
 8815 11f4 AC040000 		.4byte	.LVL250
 8816 11f8 C0040000 		.4byte	.LVL252
 8817 11fc 0100     		.2byte	0x1
 8818 11fe 51       		.byte	0x51
 8819 11ff C0040000 		.4byte	.LVL252
 8820 1203 DA040000 		.4byte	.LVL255
 8821 1207 0500     		.2byte	0x5
 8822 1209 74       		.byte	0x74
 8823 120a 00       		.sleb128 0
 8824 120b 33       		.byte	0x33
 8825 120c 25       		.byte	0x25
 8826 120d 9F       		.byte	0x9f
 8827 120e DA040000 		.4byte	.LVL255
 8828 1212 DC040000 		.4byte	.LVL256
 8829 1216 0100     		.2byte	0x1
 8830 1218 51       		.byte	0x51
 8831 1219 DC040000 		.4byte	.LVL256
 8832 121d EA040000 		.4byte	.LVL260
 8833 1221 0500     		.2byte	0x5
 8834 1223 74       		.byte	0x74
 8835 1224 00       		.sleb128 0
 8836 1225 33       		.byte	0x33
ARM GAS  C:\Users\strap\AppData\Local\Temp\ccKJQbxb.s 			page 176


 8837 1226 25       		.byte	0x25
 8838 1227 9F       		.byte	0x9f
 8839 1228 00000000 		.4byte	0
 8840 122c 00000000 		.4byte	0
 8841              	.LLST98:
 8842 1230 CA040000 		.4byte	.LVL254
 8843 1234 DA040000 		.4byte	.LVL255
 8844 1238 0100     		.2byte	0x1
 8845 123a 5B       		.byte	0x5b
 8846 123b 00000000 		.4byte	0
 8847 123f 00000000 		.4byte	0
 8848              	.LLST99:
 8849 1243 14050000 		.4byte	.LVL262
 8850 1247 46050000 		.4byte	.LVL272
 8851 124b 0200     		.2byte	0x2
 8852 124d 31       		.byte	0x31
 8853 124e 9F       		.byte	0x9f
 8854 124f 00000000 		.4byte	0
 8855 1253 00000000 		.4byte	0
 8856              	.LLST100:
 8857 1257 14050000 		.4byte	.LVL262
 8858 125b 1A050000 		.4byte	.LVL264
 8859 125f 0100     		.2byte	0x1
 8860 1261 52       		.byte	0x52
 8861 1262 1A050000 		.4byte	.LVL264
 8862 1266 30050000 		.4byte	.LVL267
 8863 126a 0100     		.2byte	0x1
 8864 126c 51       		.byte	0x51
 8865 126d 30050000 		.4byte	.LVL267
 8866 1271 38050000 		.4byte	.LVL269
 8867 1275 0500     		.2byte	0x5
 8868 1277 72       		.byte	0x72
 8869 1278 00       		.sleb128 0
 8870 1279 37       		.byte	0x37
 8871 127a 1A       		.byte	0x1a
 8872 127b 9F       		.byte	0x9f
 8873 127c 38050000 		.4byte	.LVL269
 8874 1280 3E050000 		.4byte	.LVL271
 8875 1284 0100     		.2byte	0x1
 8876 1286 51       		.byte	0x51
 8877 1287 3E050000 		.4byte	.LVL271
 8878 128b 46050000 		.4byte	.LVL272
 8879 128f 0300     		.2byte	0x3
 8880 1291 74       		.byte	0x74
 8881 1292 7F       		.sleb128 -1
 8882 1293 9F       		.byte	0x9f
 8883 1294 00000000 		.4byte	0
 8884 1298 00000000 		.4byte	0
 8885              	.LLST101:
 8886 129c 14050000 		.4byte	.LVL262
 8887 12a0 46050000 		.4byte	.LVL272
 8888 12a4 0100     		.2byte	0x1
 8889 12a6 50       		.byte	0x50
 8890 12a7 00000000 		.4byte	0
 8891 12ab 00000000 		.4byte	0
 8892              	.LLST103:
 8893 12af 16050000 		.4byte	.LVL263
ARM GAS  C:\Users\strap\AppData\Local\Temp\ccKJQbxb.s 			page 177


 8894 12b3 24050000 		.4byte	.LVL265
 8895 12b7 0100     		.2byte	0x1
 8896 12b9 53       		.byte	0x53
 8897 12ba 24050000 		.4byte	.LVL265
 8898 12be 38050000 		.4byte	.LVL269
 8899 12c2 0500     		.2byte	0x5
 8900 12c4 72       		.byte	0x72
 8901 12c5 00       		.sleb128 0
 8902 12c6 33       		.byte	0x33
 8903 12c7 25       		.byte	0x25
 8904 12c8 9F       		.byte	0x9f
 8905 12c9 38050000 		.4byte	.LVL269
 8906 12cd 3A050000 		.4byte	.LVL270
 8907 12d1 0100     		.2byte	0x1
 8908 12d3 53       		.byte	0x53
 8909 12d4 3A050000 		.4byte	.LVL270
 8910 12d8 46050000 		.4byte	.LVL272
 8911 12dc 0500     		.2byte	0x5
 8912 12de 72       		.byte	0x72
 8913 12df 00       		.sleb128 0
 8914 12e0 33       		.byte	0x33
 8915 12e1 25       		.byte	0x25
 8916 12e2 9F       		.byte	0x9f
 8917 12e3 00000000 		.4byte	0
 8918 12e7 00000000 		.4byte	0
 8919              	.LLST104:
 8920 12eb 2C050000 		.4byte	.LVL266
 8921 12ef 32050000 		.4byte	.LVL268
 8922 12f3 0100     		.2byte	0x1
 8923 12f5 53       		.byte	0x53
 8924 12f6 32050000 		.4byte	.LVL268
 8925 12fa 38050000 		.4byte	.LVL269
 8926 12fe 1400     		.2byte	0x14
 8927 1300 74       		.byte	0x74
 8928 1301 00       		.sleb128 0
 8929 1302 38       		.byte	0x38
 8930 1303 24       		.byte	0x24
 8931 1304 72       		.byte	0x72
 8932 1305 00       		.sleb128 0
 8933 1306 33       		.byte	0x33
 8934 1307 25       		.byte	0x25
 8935 1308 70       		.byte	0x70
 8936 1309 00       		.sleb128 0
 8937 130a 22       		.byte	0x22
 8938 130b 23       		.byte	0x23
 8939 130c 01       		.uleb128 0x1
 8940 130d 94       		.byte	0x94
 8941 130e 01       		.byte	0x1
 8942 130f 08       		.byte	0x8
 8943 1310 FF       		.byte	0xff
 8944 1311 1A       		.byte	0x1a
 8945 1312 22       		.byte	0x22
 8946 1313 9F       		.byte	0x9f
 8947 1314 00000000 		.4byte	0
 8948 1318 00000000 		.4byte	0
 8949              	.LLST105:
 8950 131c 60050000 		.4byte	.LVL274
ARM GAS  C:\Users\strap\AppData\Local\Temp\ccKJQbxb.s 			page 178


 8951 1320 96050000 		.4byte	.LVL284
 8952 1324 0200     		.2byte	0x2
 8953 1326 36       		.byte	0x36
 8954 1327 9F       		.byte	0x9f
 8955 1328 00000000 		.4byte	0
 8956 132c 00000000 		.4byte	0
 8957              	.LLST106:
 8958 1330 60050000 		.4byte	.LVL274
 8959 1334 66050000 		.4byte	.LVL276
 8960 1338 0100     		.2byte	0x1
 8961 133a 52       		.byte	0x52
 8962 133b 66050000 		.4byte	.LVL276
 8963 133f 82050000 		.4byte	.LVL279
 8964 1343 0100     		.2byte	0x1
 8965 1345 54       		.byte	0x54
 8966 1346 82050000 		.4byte	.LVL279
 8967 134a 8A050000 		.4byte	.LVL281
 8968 134e 0500     		.2byte	0x5
 8969 1350 72       		.byte	0x72
 8970 1351 00       		.sleb128 0
 8971 1352 37       		.byte	0x37
 8972 1353 1A       		.byte	0x1a
 8973 1354 9F       		.byte	0x9f
 8974 1355 8A050000 		.4byte	.LVL281
 8975 1359 90050000 		.4byte	.LVL283
 8976 135d 0100     		.2byte	0x1
 8977 135f 54       		.byte	0x54
 8978 1360 90050000 		.4byte	.LVL283
 8979 1364 96050000 		.4byte	.LVL284
 8980 1368 0300     		.2byte	0x3
 8981 136a 7C       		.byte	0x7c
 8982 136b 7A       		.sleb128 -6
 8983 136c 9F       		.byte	0x9f
 8984 136d 00000000 		.4byte	0
 8985 1371 00000000 		.4byte	0
 8986              	.LLST107:
 8987 1375 60050000 		.4byte	.LVL274
 8988 1379 96050000 		.4byte	.LVL284
 8989 137d 0100     		.2byte	0x1
 8990 137f 50       		.byte	0x50
 8991 1380 00000000 		.4byte	0
 8992 1384 00000000 		.4byte	0
 8993              	.LLST108:
 8994 1388 60050000 		.4byte	.LVL274
 8995 138c 96050000 		.4byte	.LVL284
 8996 1390 0300     		.2byte	0x3
 8997 1392 08       		.byte	0x8
 8998 1393 3F       		.byte	0x3f
 8999 1394 9F       		.byte	0x9f
 9000 1395 00000000 		.4byte	0
 9001 1399 00000000 		.4byte	0
 9002              	.LLST109:
 9003 139d 62050000 		.4byte	.LVL275
 9004 13a1 76050000 		.4byte	.LVL277
 9005 13a5 0100     		.2byte	0x1
 9006 13a7 51       		.byte	0x51
 9007 13a8 76050000 		.4byte	.LVL277
ARM GAS  C:\Users\strap\AppData\Local\Temp\ccKJQbxb.s 			page 179


 9008 13ac 8A050000 		.4byte	.LVL281
 9009 13b0 0500     		.2byte	0x5
 9010 13b2 72       		.byte	0x72
 9011 13b3 00       		.sleb128 0
 9012 13b4 33       		.byte	0x33
 9013 13b5 25       		.byte	0x25
 9014 13b6 9F       		.byte	0x9f
 9015 13b7 8A050000 		.4byte	.LVL281
 9016 13bb 8C050000 		.4byte	.LVL282
 9017 13bf 0100     		.2byte	0x1
 9018 13c1 51       		.byte	0x51
 9019 13c2 8C050000 		.4byte	.LVL282
 9020 13c6 96050000 		.4byte	.LVL284
 9021 13ca 0500     		.2byte	0x5
 9022 13cc 72       		.byte	0x72
 9023 13cd 00       		.sleb128 0
 9024 13ce 33       		.byte	0x33
 9025 13cf 25       		.byte	0x25
 9026 13d0 9F       		.byte	0x9f
 9027 13d1 00000000 		.4byte	0
 9028 13d5 00000000 		.4byte	0
 9029              	.LLST110:
 9030 13d9 7E050000 		.4byte	.LVL278
 9031 13dd 84050000 		.4byte	.LVL280
 9032 13e1 0100     		.2byte	0x1
 9033 13e3 51       		.byte	0x51
 9034 13e4 84050000 		.4byte	.LVL280
 9035 13e8 8A050000 		.4byte	.LVL281
 9036 13ec 1400     		.2byte	0x14
 9037 13ee 7C       		.byte	0x7c
 9038 13ef 00       		.sleb128 0
 9039 13f0 38       		.byte	0x38
 9040 13f1 24       		.byte	0x24
 9041 13f2 72       		.byte	0x72
 9042 13f3 00       		.sleb128 0
 9043 13f4 33       		.byte	0x33
 9044 13f5 25       		.byte	0x25
 9045 13f6 70       		.byte	0x70
 9046 13f7 00       		.sleb128 0
 9047 13f8 22       		.byte	0x22
 9048 13f9 23       		.byte	0x23
 9049 13fa 01       		.uleb128 0x1
 9050 13fb 94       		.byte	0x94
 9051 13fc 01       		.byte	0x1
 9052 13fd 08       		.byte	0x8
 9053 13fe FF       		.byte	0xff
 9054 13ff 1A       		.byte	0x1a
 9055 1400 22       		.byte	0x22
 9056 1401 9F       		.byte	0x9f
 9057 1402 00000000 		.4byte	0
 9058 1406 00000000 		.4byte	0
 9059              	.LLST111:
 9060 140a B0050000 		.4byte	.LVL286
 9061 140e 28060000 		.4byte	.LVL304
 9062 1412 0100     		.2byte	0x1
 9063 1414 51       		.byte	0x51
 9064 1415 00000000 		.4byte	0
ARM GAS  C:\Users\strap\AppData\Local\Temp\ccKJQbxb.s 			page 180


 9065 1419 00000000 		.4byte	0
 9066              	.LLST112:
 9067 141d B0050000 		.4byte	.LVL286
 9068 1421 F0050000 		.4byte	.LVL295
 9069 1425 0100     		.2byte	0x1
 9070 1427 52       		.byte	0x52
 9071 1428 F0050000 		.4byte	.LVL295
 9072 142c 0A060000 		.4byte	.LVL298
 9073 1430 0100     		.2byte	0x1
 9074 1432 53       		.byte	0x53
 9075 1433 0A060000 		.4byte	.LVL298
 9076 1437 0C060000 		.4byte	.LVL299
 9077 143b 0400     		.2byte	0x4
 9078 143d 73       		.byte	0x73
 9079 143e 00       		.sleb128 0
 9080 143f 1F       		.byte	0x1f
 9081 1440 9F       		.byte	0x9f
 9082 1441 0C060000 		.4byte	.LVL299
 9083 1445 18060000 		.4byte	.LVL300
 9084 1449 0500     		.2byte	0x5
 9085 144b 72       		.byte	0x72
 9086 144c 00       		.sleb128 0
 9087 144d 37       		.byte	0x37
 9088 144e 1A       		.byte	0x1a
 9089 144f 9F       		.byte	0x9f
 9090 1450 18060000 		.4byte	.LVL300
 9091 1454 1C060000 		.4byte	.LVL302
 9092 1458 0100     		.2byte	0x1
 9093 145a 53       		.byte	0x53
 9094 145b 1C060000 		.4byte	.LVL302
 9095 145f 1E060000 		.4byte	.LVL303
 9096 1463 0400     		.2byte	0x4
 9097 1465 73       		.byte	0x73
 9098 1466 00       		.sleb128 0
 9099 1467 1F       		.byte	0x1f
 9100 1468 9F       		.byte	0x9f
 9101 1469 1E060000 		.4byte	.LVL303
 9102 146d 28060000 		.4byte	.LVL304
 9103 1471 0500     		.2byte	0x5
 9104 1473 72       		.byte	0x72
 9105 1474 00       		.sleb128 0
 9106 1475 37       		.byte	0x37
 9107 1476 1A       		.byte	0x1a
 9108 1477 9F       		.byte	0x9f
 9109 1478 00000000 		.4byte	0
 9110 147c 00000000 		.4byte	0
 9111              	.LLST113:
 9112 1480 B0050000 		.4byte	.LVL286
 9113 1484 00060000 		.4byte	.LVL296
 9114 1488 0100     		.2byte	0x1
 9115 148a 50       		.byte	0x50
 9116 148b 00060000 		.4byte	.LVL296
 9117 148f 18060000 		.4byte	.LVL300
 9118 1493 0500     		.2byte	0x5
 9119 1495 03       		.byte	0x3
 9120 1496 00000000 		.4byte	rle_in
 9121 149a 18060000 		.4byte	.LVL300
ARM GAS  C:\Users\strap\AppData\Local\Temp\ccKJQbxb.s 			page 181


 9122 149e 1A060000 		.4byte	.LVL301
 9123 14a2 0100     		.2byte	0x1
 9124 14a4 50       		.byte	0x50
 9125 14a5 1A060000 		.4byte	.LVL301
 9126 14a9 28060000 		.4byte	.LVL304
 9127 14ad 0500     		.2byte	0x5
 9128 14af 03       		.byte	0x3
 9129 14b0 00000000 		.4byte	rle_in
 9130 14b4 00000000 		.4byte	0
 9131 14b8 00000000 		.4byte	0
 9132              	.LLST114:
 9133 14bc C8050000 		.4byte	.LVL287
 9134 14c0 CE050000 		.4byte	.LVL288
 9135 14c4 0200     		.2byte	0x2
 9136 14c6 37       		.byte	0x37
 9137 14c7 9F       		.byte	0x9f
 9138 14c8 CE050000 		.4byte	.LVL288
 9139 14cc D4050000 		.4byte	.LVL289
 9140 14d0 0200     		.2byte	0x2
 9141 14d2 3F       		.byte	0x3f
 9142 14d3 9F       		.byte	0x9f
 9143 14d4 D4050000 		.4byte	.LVL289
 9144 14d8 DA050000 		.4byte	.LVL290
 9145 14dc 0300     		.2byte	0x3
 9146 14de 09       		.byte	0x9
 9147 14df FF       		.byte	0xff
 9148 14e0 9F       		.byte	0x9f
 9149 14e1 E4050000 		.4byte	.LVL291
 9150 14e5 E6050000 		.4byte	.LVL292
 9151 14e9 0100     		.2byte	0x1
 9152 14eb 5B       		.byte	0x5b
 9153 14ec EA050000 		.4byte	.LVL293
 9154 14f0 28060000 		.4byte	.LVL304
 9155 14f4 0100     		.2byte	0x1
 9156 14f6 5B       		.byte	0x5b
 9157 14f7 00000000 		.4byte	0
 9158 14fb 00000000 		.4byte	0
 9159              	.LLST115:
 9160 14ff EC050000 		.4byte	.LVL294
 9161 1503 28060000 		.4byte	.LVL304
 9162 1507 0100     		.2byte	0x1
 9163 1509 54       		.byte	0x54
 9164 150a 00000000 		.4byte	0
 9165 150e 00000000 		.4byte	0
 9166              	.LLST116:
 9167 1512 08060000 		.4byte	.LVL297
 9168 1516 18060000 		.4byte	.LVL300
 9169 151a 0100     		.2byte	0x1
 9170 151c 50       		.byte	0x50
 9171 151d 00000000 		.4byte	0
 9172 1521 00000000 		.4byte	0
 9173              	.LLST117:
 9174 1525 3A060000 		.4byte	.LVL306
 9175 1529 B0060000 		.4byte	.LVL323
 9176 152d 0100     		.2byte	0x1
 9177 152f 54       		.byte	0x54
 9178 1530 00000000 		.4byte	0
ARM GAS  C:\Users\strap\AppData\Local\Temp\ccKJQbxb.s 			page 182


 9179 1534 00000000 		.4byte	0
 9180              	.LLST118:
 9181 1538 3A060000 		.4byte	.LVL306
 9182 153c 7C060000 		.4byte	.LVL315
 9183 1540 0100     		.2byte	0x1
 9184 1542 52       		.byte	0x52
 9185 1543 7C060000 		.4byte	.LVL315
 9186 1547 92060000 		.4byte	.LVL318
 9187 154b 0100     		.2byte	0x1
 9188 154d 51       		.byte	0x51
 9189 154e 92060000 		.4byte	.LVL318
 9190 1552 94060000 		.4byte	.LVL319
 9191 1556 0400     		.2byte	0x4
 9192 1558 71       		.byte	0x71
 9193 1559 00       		.sleb128 0
 9194 155a 1F       		.byte	0x1f
 9195 155b 9F       		.byte	0x9f
 9196 155c 94060000 		.4byte	.LVL319
 9197 1560 9E060000 		.4byte	.LVL321
 9198 1564 0500     		.2byte	0x5
 9199 1566 72       		.byte	0x72
 9200 1567 00       		.sleb128 0
 9201 1568 37       		.byte	0x37
 9202 1569 1A       		.byte	0x1a
 9203 156a 9F       		.byte	0x9f
 9204 156b 9E060000 		.4byte	.LVL321
 9205 156f B0060000 		.4byte	.LVL323
 9206 1573 0100     		.2byte	0x1
 9207 1575 51       		.byte	0x51
 9208 1576 00000000 		.4byte	0
 9209 157a 00000000 		.4byte	0
 9210              	.LLST119:
 9211 157e 3A060000 		.4byte	.LVL306
 9212 1582 88060000 		.4byte	.LVL316
 9213 1586 0100     		.2byte	0x1
 9214 1588 50       		.byte	0x50
 9215 1589 88060000 		.4byte	.LVL316
 9216 158d 9E060000 		.4byte	.LVL321
 9217 1591 0500     		.2byte	0x5
 9218 1593 03       		.byte	0x3
 9219 1594 00000000 		.4byte	rle_in
 9220 1598 9E060000 		.4byte	.LVL321
 9221 159c A2060000 		.4byte	.LVL322
 9222 15a0 0100     		.2byte	0x1
 9223 15a2 50       		.byte	0x50
 9224 15a3 A2060000 		.4byte	.LVL322
 9225 15a7 B0060000 		.4byte	.LVL323
 9226 15ab 0500     		.2byte	0x5
 9227 15ad 03       		.byte	0x3
 9228 15ae 00000000 		.4byte	rle_in
 9229 15b2 00000000 		.4byte	0
 9230 15b6 00000000 		.4byte	0
 9231              	.LLST120:
 9232 15ba 52060000 		.4byte	.LVL307
 9233 15be 58060000 		.4byte	.LVL308
 9234 15c2 0200     		.2byte	0x2
 9235 15c4 37       		.byte	0x37
ARM GAS  C:\Users\strap\AppData\Local\Temp\ccKJQbxb.s 			page 183


 9236 15c5 9F       		.byte	0x9f
 9237 15c6 58060000 		.4byte	.LVL308
 9238 15ca 5E060000 		.4byte	.LVL309
 9239 15ce 0200     		.2byte	0x2
 9240 15d0 3F       		.byte	0x3f
 9241 15d1 9F       		.byte	0x9f
 9242 15d2 5E060000 		.4byte	.LVL309
 9243 15d6 64060000 		.4byte	.LVL310
 9244 15da 0300     		.2byte	0x3
 9245 15dc 09       		.byte	0x9
 9246 15dd FF       		.byte	0xff
 9247 15de 9F       		.byte	0x9f
 9248 15df 6E060000 		.4byte	.LVL311
 9249 15e3 70060000 		.4byte	.LVL312
 9250 15e7 0100     		.2byte	0x1
 9251 15e9 5B       		.byte	0x5b
 9252 15ea 74060000 		.4byte	.LVL313
 9253 15ee B0060000 		.4byte	.LVL323
 9254 15f2 0100     		.2byte	0x1
 9255 15f4 5B       		.byte	0x5b
 9256 15f5 00000000 		.4byte	0
 9257 15f9 00000000 		.4byte	0
 9258              	.LLST121:
 9259 15fd 78060000 		.4byte	.LVL314
 9260 1601 B0060000 		.4byte	.LVL323
 9261 1605 0100     		.2byte	0x1
 9262 1607 5C       		.byte	0x5c
 9263 1608 00000000 		.4byte	0
 9264 160c 00000000 		.4byte	0
 9265              	.LLST122:
 9266 1610 90060000 		.4byte	.LVL317
 9267 1614 98060000 		.4byte	.LVL320
 9268 1618 0100     		.2byte	0x1
 9269 161a 53       		.byte	0x53
 9270 161b 98060000 		.4byte	.LVL320
 9271 161f 9E060000 		.4byte	.LVL321
 9272 1623 1400     		.2byte	0x14
 9273 1625 03       		.byte	0x3
 9274 1626 00000000 		.4byte	rle_in
 9275 162a 06       		.byte	0x6
 9276 162b 7C       		.byte	0x7c
 9277 162c 00       		.sleb128 0
 9278 162d 22       		.byte	0x22
 9279 162e 94       		.byte	0x94
 9280 162f 01       		.byte	0x1
 9281 1630 08       		.byte	0x8
 9282 1631 FF       		.byte	0xff
 9283 1632 1A       		.byte	0x1a
 9284 1633 38       		.byte	0x38
 9285 1634 24       		.byte	0x24
 9286 1635 70       		.byte	0x70
 9287 1636 00       		.sleb128 0
 9288 1637 22       		.byte	0x22
 9289 1638 9F       		.byte	0x9f
 9290 1639 00000000 		.4byte	0
 9291 163d 00000000 		.4byte	0
 9292              	.LLST123:
ARM GAS  C:\Users\strap\AppData\Local\Temp\ccKJQbxb.s 			page 184


 9293 1641 DA060000 		.4byte	.LVL327
 9294 1645 5A070000 		.4byte	.LVL343
 9295 1649 0100     		.2byte	0x1
 9296 164b 50       		.byte	0x50
 9297 164c 00000000 		.4byte	0
 9298 1650 00000000 		.4byte	0
 9299              	.LLST124:
 9300 1654 DA060000 		.4byte	.LVL327
 9301 1658 20070000 		.4byte	.LVL336
 9302 165c 0100     		.2byte	0x1
 9303 165e 51       		.byte	0x51
 9304 165f 20070000 		.4byte	.LVL336
 9305 1663 5A070000 		.4byte	.LVL343
 9306 1667 0100     		.2byte	0x1
 9307 1669 52       		.byte	0x52
 9308 166a 00000000 		.4byte	0
 9309 166e 00000000 		.4byte	0
 9310              	.LLST125:
 9311 1672 DA060000 		.4byte	.LVL327
 9312 1676 32070000 		.4byte	.LVL338
 9313 167a 0100     		.2byte	0x1
 9314 167c 53       		.byte	0x53
 9315 167d 32070000 		.4byte	.LVL338
 9316 1681 4A070000 		.4byte	.LVL340
 9317 1685 0500     		.2byte	0x5
 9318 1687 03       		.byte	0x3
 9319 1688 00000000 		.4byte	rle_in
 9320 168c 4A070000 		.4byte	.LVL340
 9321 1690 4E070000 		.4byte	.LVL342
 9322 1694 0100     		.2byte	0x1
 9323 1696 53       		.byte	0x53
 9324 1697 4E070000 		.4byte	.LVL342
 9325 169b 5A070000 		.4byte	.LVL343
 9326 169f 0500     		.2byte	0x5
 9327 16a1 03       		.byte	0x3
 9328 16a2 00000000 		.4byte	rle_in
 9329 16a6 00000000 		.4byte	0
 9330 16aa 00000000 		.4byte	0
 9331              	.LLST126:
 9332 16ae F2060000 		.4byte	.LVL328
 9333 16b2 F8060000 		.4byte	.LVL329
 9334 16b6 0200     		.2byte	0x2
 9335 16b8 37       		.byte	0x37
 9336 16b9 9F       		.byte	0x9f
 9337 16ba F8060000 		.4byte	.LVL329
 9338 16be FE060000 		.4byte	.LVL330
 9339 16c2 0200     		.2byte	0x2
 9340 16c4 3F       		.byte	0x3f
 9341 16c5 9F       		.byte	0x9f
 9342 16c6 FE060000 		.4byte	.LVL330
 9343 16ca 04070000 		.4byte	.LVL331
 9344 16ce 0300     		.2byte	0x3
 9345 16d0 09       		.byte	0x9
 9346 16d1 FF       		.byte	0xff
 9347 16d2 9F       		.byte	0x9f
 9348 16d3 14070000 		.4byte	.LVL332
 9349 16d7 16070000 		.4byte	.LVL333
ARM GAS  C:\Users\strap\AppData\Local\Temp\ccKJQbxb.s 			page 185


 9350 16db 0100     		.2byte	0x1
 9351 16dd 5C       		.byte	0x5c
 9352 16de 1A070000 		.4byte	.LVL334
 9353 16e2 5A070000 		.4byte	.LVL343
 9354 16e6 0100     		.2byte	0x1
 9355 16e8 5C       		.byte	0x5c
 9356 16e9 00000000 		.4byte	0
 9357 16ed 00000000 		.4byte	0
 9358              	.LLST127:
 9359 16f1 1C070000 		.4byte	.LVL335
 9360 16f5 30070000 		.4byte	.LVL337
 9361 16f9 0100     		.2byte	0x1
 9362 16fb 54       		.byte	0x54
 9363 16fc 30070000 		.4byte	.LVL337
 9364 1700 4A070000 		.4byte	.LVL340
 9365 1704 0500     		.2byte	0x5
 9366 1706 71       		.byte	0x71
 9367 1707 00       		.sleb128 0
 9368 1708 33       		.byte	0x33
 9369 1709 25       		.byte	0x25
 9370 170a 9F       		.byte	0x9f
 9371 170b 4A070000 		.4byte	.LVL340
 9372 170f 4C070000 		.4byte	.LVL341
 9373 1713 0100     		.2byte	0x1
 9374 1715 54       		.byte	0x54
 9375 1716 4C070000 		.4byte	.LVL341
 9376 171a 5A070000 		.4byte	.LVL343
 9377 171e 0500     		.2byte	0x5
 9378 1720 71       		.byte	0x71
 9379 1721 00       		.sleb128 0
 9380 1722 33       		.byte	0x33
 9381 1723 25       		.byte	0x25
 9382 1724 9F       		.byte	0x9f
 9383 1725 00000000 		.4byte	0
 9384 1729 00000000 		.4byte	0
 9385              	.LLST128:
 9386 172d 3A070000 		.4byte	.LVL339
 9387 1731 4A070000 		.4byte	.LVL340
 9388 1735 0100     		.2byte	0x1
 9389 1737 5B       		.byte	0x5b
 9390 1738 00000000 		.4byte	0
 9391 173c 00000000 		.4byte	0
 9392              	.LLST129:
 9393 1740 AA070000 		.4byte	.LVL351
 9394 1744 AE070000 		.4byte	.LVL352
 9395 1748 0100     		.2byte	0x1
 9396 174a 57       		.byte	0x57
 9397 174b AE070000 		.4byte	.LVL352
 9398 174f EA070000 		.4byte	.LVL360
 9399 1753 0200     		.2byte	0x2
 9400 1755 34       		.byte	0x34
 9401 1756 9F       		.byte	0x9f
 9402 1757 EA070000 		.4byte	.LVL360
 9403 175b EE070000 		.4byte	.LVL361
 9404 175f 0100     		.2byte	0x1
 9405 1761 57       		.byte	0x57
 9406 1762 EE070000 		.4byte	.LVL361
ARM GAS  C:\Users\strap\AppData\Local\Temp\ccKJQbxb.s 			page 186


 9407 1766 F0070000 		.4byte	.LVL362
 9408 176a 0200     		.2byte	0x2
 9409 176c 34       		.byte	0x34
 9410 176d 9F       		.byte	0x9f
 9411 176e F0070000 		.4byte	.LVL362
 9412 1772 12080000 		.4byte	.LVL369
 9413 1776 0100     		.2byte	0x1
 9414 1778 52       		.byte	0x52
 9415 1779 00000000 		.4byte	0
 9416 177d 00000000 		.4byte	0
 9417              	.LLST130:
 9418 1781 AA070000 		.4byte	.LVL351
 9419 1785 C0070000 		.4byte	.LVL353
 9420 1789 0100     		.2byte	0x1
 9421 178b 51       		.byte	0x51
 9422 178c C0070000 		.4byte	.LVL353
 9423 1790 C6070000 		.4byte	.LVL354
 9424 1794 0200     		.2byte	0x2
 9425 1796 32       		.byte	0x32
 9426 1797 9F       		.byte	0x9f
 9427 1798 C6070000 		.4byte	.LVL354
 9428 179c CC070000 		.4byte	.LVL355
 9429 17a0 0200     		.2byte	0x2
 9430 17a2 34       		.byte	0x34
 9431 17a3 9F       		.byte	0x9f
 9432 17a4 CC070000 		.4byte	.LVL355
 9433 17a8 D2070000 		.4byte	.LVL356
 9434 17ac 0200     		.2byte	0x2
 9435 17ae 36       		.byte	0x36
 9436 17af 9F       		.byte	0x9f
 9437 17b0 D2070000 		.4byte	.LVL356
 9438 17b4 D8070000 		.4byte	.LVL357
 9439 17b8 0200     		.2byte	0x2
 9440 17ba 39       		.byte	0x39
 9441 17bb 9F       		.byte	0x9f
 9442 17bc D8070000 		.4byte	.LVL357
 9443 17c0 DE070000 		.4byte	.LVL358
 9444 17c4 0200     		.2byte	0x2
 9445 17c6 3B       		.byte	0x3b
 9446 17c7 9F       		.byte	0x9f
 9447 17c8 DE070000 		.4byte	.LVL358
 9448 17cc E4070000 		.4byte	.LVL359
 9449 17d0 0200     		.2byte	0x2
 9450 17d2 3D       		.byte	0x3d
 9451 17d3 9F       		.byte	0x9f
 9452 17d4 E4070000 		.4byte	.LVL359
 9453 17d8 EA070000 		.4byte	.LVL360
 9454 17dc 0200     		.2byte	0x2
 9455 17de 3F       		.byte	0x3f
 9456 17df 9F       		.byte	0x9f
 9457 17e0 EA070000 		.4byte	.LVL360
 9458 17e4 1E080000 		.4byte	.LVL371
 9459 17e8 0100     		.2byte	0x1
 9460 17ea 51       		.byte	0x51
 9461 17eb 00000000 		.4byte	0
 9462 17ef 00000000 		.4byte	0
 9463              	.LLST131:
ARM GAS  C:\Users\strap\AppData\Local\Temp\ccKJQbxb.s 			page 187


 9464 17f3 AA070000 		.4byte	.LVL351
 9465 17f7 F4070000 		.4byte	.LVL363
 9466 17fb 0100     		.2byte	0x1
 9467 17fd 50       		.byte	0x50
 9468 17fe F4070000 		.4byte	.LVL363
 9469 1802 F8070000 		.4byte	.LVL364
 9470 1806 0100     		.2byte	0x1
 9471 1808 5E       		.byte	0x5e
 9472 1809 F8070000 		.4byte	.LVL364
 9473 180d FC070000 		.4byte	.LVL365
 9474 1811 0400     		.2byte	0x4
 9475 1813 7E       		.byte	0x7e
 9476 1814 00       		.sleb128 0
 9477 1815 1F       		.byte	0x1f
 9478 1816 9F       		.byte	0x9f
 9479 1817 FC070000 		.4byte	.LVL365
 9480 181b 00080000 		.4byte	.LVL366
 9481 181f 0500     		.2byte	0x5
 9482 1821 70       		.byte	0x70
 9483 1822 00       		.sleb128 0
 9484 1823 37       		.byte	0x37
 9485 1824 1A       		.byte	0x1a
 9486 1825 9F       		.byte	0x9f
 9487 1826 00080000 		.4byte	.LVL366
 9488 182a 24080000 		.4byte	.LVL372
 9489 182e 0100     		.2byte	0x1
 9490 1830 5E       		.byte	0x5e
 9491 1831 00000000 		.4byte	0
 9492 1835 00000000 		.4byte	0
 9493              	.LLST132:
 9494 1839 AA070000 		.4byte	.LVL351
 9495 183d 24080000 		.4byte	.LVL372
 9496 1841 0100     		.2byte	0x1
 9497 1843 56       		.byte	0x56
 9498 1844 00000000 		.4byte	0
 9499 1848 00000000 		.4byte	0
 9500              	.LLST133:
 9501 184c F0070000 		.4byte	.LVL362
 9502 1850 26080000 		.4byte	.LVL373
 9503 1854 0500     		.2byte	0x5
 9504 1856 70       		.byte	0x70
 9505 1857 00       		.sleb128 0
 9506 1858 33       		.byte	0x33
 9507 1859 25       		.byte	0x25
 9508 185a 9F       		.byte	0x9f
 9509 185b 00000000 		.4byte	0
 9510 185f 00000000 		.4byte	0
 9511              	.LLST134:
 9512 1863 08080000 		.4byte	.LVL367
 9513 1867 0E080000 		.4byte	.LVL368
 9514 186b 0100     		.2byte	0x1
 9515 186d 53       		.byte	0x53
 9516 186e 0E080000 		.4byte	.LVL368
 9517 1872 16080000 		.4byte	.LVL370
 9518 1876 0400     		.2byte	0x4
 9519 1878 73       		.byte	0x73
 9520 1879 00       		.sleb128 0
ARM GAS  C:\Users\strap\AppData\Local\Temp\ccKJQbxb.s 			page 188


 9521 187a 20       		.byte	0x20
 9522 187b 9F       		.byte	0x9f
 9523 187c 00000000 		.4byte	0
 9524 1880 00000000 		.4byte	0
 9525              	.LLST135:
 9526 1884 34080000 		.4byte	.LVL376
 9527 1888 960B0000 		.4byte	.LVL483
 9528 188c 0100     		.2byte	0x1
 9529 188e 5E       		.byte	0x5e
 9530 188f 9A0B0000 		.4byte	.LVL484
 9531 1893 B00B0000 		.4byte	.LVL485
 9532 1897 0100     		.2byte	0x1
 9533 1899 5E       		.byte	0x5e
 9534 189a 00000000 		.4byte	0
 9535 189e 00000000 		.4byte	0
 9536              	.LLST136:
 9537 18a2 38080000 		.4byte	.LVL377
 9538 18a6 46090000 		.4byte	.LVL403
 9539 18aa 0200     		.2byte	0x2
 9540 18ac 30       		.byte	0x30
 9541 18ad 9F       		.byte	0x9f
 9542 18ae E00A0000 		.4byte	.LVL458
 9543 18b2 8E0B0000 		.4byte	.LVL482
 9544 18b6 0200     		.2byte	0x2
 9545 18b8 30       		.byte	0x30
 9546 18b9 9F       		.byte	0x9f
 9547 18ba 00000000 		.4byte	0
 9548 18be 00000000 		.4byte	0
 9549              	.LLST137:
 9550 18c2 38080000 		.4byte	.LVL377
 9551 18c6 D6080000 		.4byte	.LVL392
 9552 18ca 0200     		.2byte	0x2
 9553 18cc 30       		.byte	0x30
 9554 18cd 9F       		.byte	0x9f
 9555 18ce FC080000 		.4byte	.LVL393
 9556 18d2 64090000 		.4byte	.LVL404
 9557 18d6 0200     		.2byte	0x2
 9558 18d8 30       		.byte	0x30
 9559 18d9 9F       		.byte	0x9f
 9560 18da 64090000 		.4byte	.LVL404
 9561 18de C2090000 		.4byte	.LVL415
 9562 18e2 0100     		.2byte	0x1
 9563 18e4 53       		.byte	0x53
 9564 18e5 C2090000 		.4byte	.LVL415
 9565 18e9 3E0A0000 		.4byte	.LVL435
 9566 18ed 0500     		.2byte	0x5
 9567 18ef 03       		.byte	0x3
 9568 18f0 0C000000 		.4byte	rle_prev_v
 9569 18f4 4C0A0000 		.4byte	.LVL436
 9570 18f8 D20A0000 		.4byte	.LVL457
 9571 18fc 0200     		.2byte	0x2
 9572 18fe 30       		.byte	0x30
 9573 18ff 9F       		.byte	0x9f
 9574 1900 E00A0000 		.4byte	.LVL458
 9575 1904 E80A0000 		.4byte	.LVL459
 9576 1908 0200     		.2byte	0x2
 9577 190a 30       		.byte	0x30
ARM GAS  C:\Users\strap\AppData\Local\Temp\ccKJQbxb.s 			page 189


 9578 190b 9F       		.byte	0x9f
 9579 190c E80A0000 		.4byte	.LVL459
 9580 1910 F60A0000 		.4byte	.LVL460
 9581 1914 0100     		.2byte	0x1
 9582 1916 53       		.byte	0x53
 9583 1917 F60A0000 		.4byte	.LVL460
 9584 191b 7E0B0000 		.4byte	.LVL480
 9585 191f 0500     		.2byte	0x5
 9586 1921 03       		.byte	0x3
 9587 1922 0C000000 		.4byte	rle_prev_v
 9588 1926 8C0B0000 		.4byte	.LVL481
 9589 192a 8E0B0000 		.4byte	.LVL482
 9590 192e 0200     		.2byte	0x2
 9591 1930 30       		.byte	0x30
 9592 1931 9F       		.byte	0x9f
 9593 1932 00000000 		.4byte	0
 9594 1936 00000000 		.4byte	0
 9595              	.LLST138:
 9596 193a 4A080000 		.4byte	.LVL378
 9597 193e D6080000 		.4byte	.LVL392
 9598 1942 0100     		.2byte	0x1
 9599 1944 58       		.byte	0x58
 9600 1945 00000000 		.4byte	0
 9601 1949 00000000 		.4byte	0
 9602              	.LLST139:
 9603 194d 4A080000 		.4byte	.LVL378
 9604 1951 94080000 		.4byte	.LVL387
 9605 1955 0100     		.2byte	0x1
 9606 1957 52       		.byte	0x52
 9607 1958 94080000 		.4byte	.LVL387
 9608 195c D6080000 		.4byte	.LVL392
 9609 1960 0100     		.2byte	0x1
 9610 1962 5B       		.byte	0x5b
 9611 1963 00000000 		.4byte	0
 9612 1967 00000000 		.4byte	0
 9613              	.LLST140:
 9614 196b 4A080000 		.4byte	.LVL378
 9615 196f CA080000 		.4byte	.LVL391
 9616 1973 0100     		.2byte	0x1
 9617 1975 51       		.byte	0x51
 9618 1976 CA080000 		.4byte	.LVL391
 9619 197a D6080000 		.4byte	.LVL392
 9620 197e 0500     		.2byte	0x5
 9621 1980 03       		.byte	0x3
 9622 1981 00000000 		.4byte	rle_in
 9623 1985 00000000 		.4byte	0
 9624 1989 00000000 		.4byte	0
 9625              	.LLST141:
 9626 198d 68080000 		.4byte	.LVL379
 9627 1991 6E080000 		.4byte	.LVL380
 9628 1995 0200     		.2byte	0x2
 9629 1997 37       		.byte	0x37
 9630 1998 9F       		.byte	0x9f
 9631 1999 6E080000 		.4byte	.LVL380
 9632 199d 74080000 		.4byte	.LVL381
 9633 19a1 0200     		.2byte	0x2
 9634 19a3 3F       		.byte	0x3f
ARM GAS  C:\Users\strap\AppData\Local\Temp\ccKJQbxb.s 			page 190


 9635 19a4 9F       		.byte	0x9f
 9636 19a5 74080000 		.4byte	.LVL381
 9637 19a9 7A080000 		.4byte	.LVL382
 9638 19ad 0300     		.2byte	0x3
 9639 19af 09       		.byte	0x9
 9640 19b0 FF       		.byte	0xff
 9641 19b1 9F       		.byte	0x9f
 9642 19b2 86080000 		.4byte	.LVL383
 9643 19b6 88080000 		.4byte	.LVL384
 9644 19ba 0100     		.2byte	0x1
 9645 19bc 5A       		.byte	0x5a
 9646 19bd 8C080000 		.4byte	.LVL385
 9647 19c1 D6080000 		.4byte	.LVL392
 9648 19c5 0100     		.2byte	0x1
 9649 19c7 5A       		.byte	0x5a
 9650 19c8 00000000 		.4byte	0
 9651 19cc 00000000 		.4byte	0
 9652              	.LLST142:
 9653 19d0 90080000 		.4byte	.LVL386
 9654 19d4 A2080000 		.4byte	.LVL388
 9655 19d8 0100     		.2byte	0x1
 9656 19da 59       		.byte	0x59
 9657 19db A2080000 		.4byte	.LVL388
 9658 19df C2080000 		.4byte	.LVL390
 9659 19e3 0500     		.2byte	0x5
 9660 19e5 72       		.byte	0x72
 9661 19e6 00       		.sleb128 0
 9662 19e7 33       		.byte	0x33
 9663 19e8 25       		.byte	0x25
 9664 19e9 9F       		.byte	0x9f
 9665 19ea C2080000 		.4byte	.LVL390
 9666 19ee D6080000 		.4byte	.LVL392
 9667 19f2 0100     		.2byte	0x1
 9668 19f4 59       		.byte	0x59
 9669 19f5 00000000 		.4byte	0
 9670 19f9 00000000 		.4byte	0
 9671              	.LLST143:
 9672 19fd AE080000 		.4byte	.LVL389
 9673 1a01 C2080000 		.4byte	.LVL390
 9674 1a05 0100     		.2byte	0x1
 9675 1a07 59       		.byte	0x59
 9676 1a08 00000000 		.4byte	0
 9677 1a0c 00000000 		.4byte	0
 9678              	.LLST144:
 9679 1a10 0A090000 		.4byte	.LVL394
 9680 1a14 46090000 		.4byte	.LVL403
 9681 1a18 0200     		.2byte	0x2
 9682 1a1a 31       		.byte	0x31
 9683 1a1b 9F       		.byte	0x9f
 9684 1a1c 00000000 		.4byte	0
 9685 1a20 00000000 		.4byte	0
 9686              	.LLST145:
 9687 1a24 0A090000 		.4byte	.LVL394
 9688 1a28 10090000 		.4byte	.LVL396
 9689 1a2c 0100     		.2byte	0x1
 9690 1a2e 52       		.byte	0x52
 9691 1a2f 10090000 		.4byte	.LVL396
ARM GAS  C:\Users\strap\AppData\Local\Temp\ccKJQbxb.s 			page 191


 9692 1a33 2C090000 		.4byte	.LVL399
 9693 1a37 0100     		.2byte	0x1
 9694 1a39 53       		.byte	0x53
 9695 1a3a 2C090000 		.4byte	.LVL399
 9696 1a3e 36090000 		.4byte	.LVL400
 9697 1a42 0500     		.2byte	0x5
 9698 1a44 72       		.byte	0x72
 9699 1a45 00       		.sleb128 0
 9700 1a46 37       		.byte	0x37
 9701 1a47 1A       		.byte	0x1a
 9702 1a48 9F       		.byte	0x9f
 9703 1a49 36090000 		.4byte	.LVL400
 9704 1a4d 3E090000 		.4byte	.LVL402
 9705 1a51 0100     		.2byte	0x1
 9706 1a53 53       		.byte	0x53
 9707 1a54 3E090000 		.4byte	.LVL402
 9708 1a58 46090000 		.4byte	.LVL403
 9709 1a5c 0300     		.2byte	0x3
 9710 1a5e 79       		.byte	0x79
 9711 1a5f 7F       		.sleb128 -1
 9712 1a60 9F       		.byte	0x9f
 9713 1a61 00000000 		.4byte	0
 9714 1a65 00000000 		.4byte	0
 9715              	.LLST146:
 9716 1a69 0A090000 		.4byte	.LVL394
 9717 1a6d 46090000 		.4byte	.LVL403
 9718 1a71 0100     		.2byte	0x1
 9719 1a73 58       		.byte	0x58
 9720 1a74 00000000 		.4byte	0
 9721 1a78 00000000 		.4byte	0
 9722              	.LLST148:
 9723 1a7c 0C090000 		.4byte	.LVL395
 9724 1a80 20090000 		.4byte	.LVL397
 9725 1a84 0100     		.2byte	0x1
 9726 1a86 51       		.byte	0x51
 9727 1a87 20090000 		.4byte	.LVL397
 9728 1a8b 36090000 		.4byte	.LVL400
 9729 1a8f 0500     		.2byte	0x5
 9730 1a91 72       		.byte	0x72
 9731 1a92 00       		.sleb128 0
 9732 1a93 33       		.byte	0x33
 9733 1a94 25       		.byte	0x25
 9734 1a95 9F       		.byte	0x9f
 9735 1a96 36090000 		.4byte	.LVL400
 9736 1a9a 3A090000 		.4byte	.LVL401
 9737 1a9e 0100     		.2byte	0x1
 9738 1aa0 51       		.byte	0x51
 9739 1aa1 3A090000 		.4byte	.LVL401
 9740 1aa5 46090000 		.4byte	.LVL403
 9741 1aa9 0500     		.2byte	0x5
 9742 1aab 72       		.byte	0x72
 9743 1aac 00       		.sleb128 0
 9744 1aad 33       		.byte	0x33
 9745 1aae 25       		.byte	0x25
 9746 1aaf 9F       		.byte	0x9f
 9747 1ab0 00000000 		.4byte	0
 9748 1ab4 00000000 		.4byte	0
ARM GAS  C:\Users\strap\AppData\Local\Temp\ccKJQbxb.s 			page 192


 9749              	.LLST149:
 9750 1ab8 28090000 		.4byte	.LVL398
 9751 1abc 36090000 		.4byte	.LVL400
 9752 1ac0 0100     		.2byte	0x1
 9753 1ac2 51       		.byte	0x51
 9754 1ac3 00000000 		.4byte	0
 9755 1ac7 00000000 		.4byte	0
 9756              	.LLST150:
 9757 1acb 6A090000 		.4byte	.LVL405
 9758 1acf A8090000 		.4byte	.LVL414
 9759 1ad3 0200     		.2byte	0x2
 9760 1ad5 36       		.byte	0x36
 9761 1ad6 9F       		.byte	0x9f
 9762 1ad7 00000000 		.4byte	0
 9763 1adb 00000000 		.4byte	0
 9764              	.LLST151:
 9765 1adf 6A090000 		.4byte	.LVL405
 9766 1ae3 72090000 		.4byte	.LVL407
 9767 1ae7 0100     		.2byte	0x1
 9768 1ae9 52       		.byte	0x52
 9769 1aea 72090000 		.4byte	.LVL407
 9770 1aee 8E090000 		.4byte	.LVL410
 9771 1af2 0100     		.2byte	0x1
 9772 1af4 59       		.byte	0x59
 9773 1af5 8E090000 		.4byte	.LVL410
 9774 1af9 98090000 		.4byte	.LVL412
 9775 1afd 0500     		.2byte	0x5
 9776 1aff 72       		.byte	0x72
 9777 1b00 00       		.sleb128 0
 9778 1b01 37       		.byte	0x37
 9779 1b02 1A       		.byte	0x1a
 9780 1b03 9F       		.byte	0x9f
 9781 1b04 98090000 		.4byte	.LVL412
 9782 1b08 A0090000 		.4byte	.LVL413
 9783 1b0c 0100     		.2byte	0x1
 9784 1b0e 59       		.byte	0x59
 9785 1b0f A0090000 		.4byte	.LVL413
 9786 1b13 A8090000 		.4byte	.LVL414
 9787 1b17 0500     		.2byte	0x5
 9788 1b19 72       		.byte	0x72
 9789 1b1a 00       		.sleb128 0
 9790 1b1b 37       		.byte	0x37
 9791 1b1c 1A       		.byte	0x1a
 9792 1b1d 9F       		.byte	0x9f
 9793 1b1e 00000000 		.4byte	0
 9794 1b22 00000000 		.4byte	0
 9795              	.LLST152:
 9796 1b26 6A090000 		.4byte	.LVL405
 9797 1b2a A8090000 		.4byte	.LVL414
 9798 1b2e 0100     		.2byte	0x1
 9799 1b30 58       		.byte	0x58
 9800 1b31 00000000 		.4byte	0
 9801 1b35 00000000 		.4byte	0
 9802              	.LLST153:
 9803 1b39 6A090000 		.4byte	.LVL405
 9804 1b3d A8090000 		.4byte	.LVL414
 9805 1b41 0300     		.2byte	0x3
ARM GAS  C:\Users\strap\AppData\Local\Temp\ccKJQbxb.s 			page 193


 9806 1b43 08       		.byte	0x8
 9807 1b44 3F       		.byte	0x3f
 9808 1b45 9F       		.byte	0x9f
 9809 1b46 00000000 		.4byte	0
 9810 1b4a 00000000 		.4byte	0
 9811              	.LLST154:
 9812 1b4e 6E090000 		.4byte	.LVL406
 9813 1b52 80090000 		.4byte	.LVL408
 9814 1b56 0100     		.2byte	0x1
 9815 1b58 5A       		.byte	0x5a
 9816 1b59 80090000 		.4byte	.LVL408
 9817 1b5d 98090000 		.4byte	.LVL412
 9818 1b61 0500     		.2byte	0x5
 9819 1b63 72       		.byte	0x72
 9820 1b64 00       		.sleb128 0
 9821 1b65 33       		.byte	0x33
 9822 1b66 25       		.byte	0x25
 9823 1b67 9F       		.byte	0x9f
 9824 1b68 98090000 		.4byte	.LVL412
 9825 1b6c A8090000 		.4byte	.LVL414
 9826 1b70 0100     		.2byte	0x1
 9827 1b72 5A       		.byte	0x5a
 9828 1b73 00000000 		.4byte	0
 9829 1b77 00000000 		.4byte	0
 9830              	.LLST155:
 9831 1b7b 8A090000 		.4byte	.LVL409
 9832 1b7f 92090000 		.4byte	.LVL411
 9833 1b83 0100     		.2byte	0x1
 9834 1b85 51       		.byte	0x51
 9835 1b86 92090000 		.4byte	.LVL411
 9836 1b8a 98090000 		.4byte	.LVL412
 9837 1b8e 0D00     		.2byte	0xd
 9838 1b90 7B       		.byte	0x7b
 9839 1b91 00       		.sleb128 0
 9840 1b92 38       		.byte	0x38
 9841 1b93 24       		.byte	0x24
 9842 1b94 7A       		.byte	0x7a
 9843 1b95 01       		.sleb128 1
 9844 1b96 94       		.byte	0x94
 9845 1b97 01       		.byte	0x1
 9846 1b98 08       		.byte	0x8
 9847 1b99 FF       		.byte	0xff
 9848 1b9a 1A       		.byte	0x1a
 9849 1b9b 22       		.byte	0x22
 9850 1b9c 9F       		.byte	0x9f
 9851 1b9d 00000000 		.4byte	0
 9852 1ba1 00000000 		.4byte	0
 9853              	.LLST156:
 9854 1ba5 C6090000 		.4byte	.LVL416
 9855 1ba9 3E0A0000 		.4byte	.LVL435
 9856 1bad 0100     		.2byte	0x1
 9857 1baf 59       		.byte	0x59
 9858 1bb0 00000000 		.4byte	0
 9859 1bb4 00000000 		.4byte	0
 9860              	.LLST157:
 9861 1bb8 C6090000 		.4byte	.LVL416
 9862 1bbc 000A0000 		.4byte	.LVL425
ARM GAS  C:\Users\strap\AppData\Local\Temp\ccKJQbxb.s 			page 194


 9863 1bc0 0100     		.2byte	0x1
 9864 1bc2 52       		.byte	0x52
 9865 1bc3 000A0000 		.4byte	.LVL425
 9866 1bc7 1E0A0000 		.4byte	.LVL428
 9867 1bcb 0100     		.2byte	0x1
 9868 1bcd 51       		.byte	0x51
 9869 1bce 1E0A0000 		.4byte	.LVL428
 9870 1bd2 220A0000 		.4byte	.LVL429
 9871 1bd6 0400     		.2byte	0x4
 9872 1bd8 71       		.byte	0x71
 9873 1bd9 00       		.sleb128 0
 9874 1bda 1F       		.byte	0x1f
 9875 1bdb 9F       		.byte	0x9f
 9876 1bdc 220A0000 		.4byte	.LVL429
 9877 1be0 2C0A0000 		.4byte	.LVL431
 9878 1be4 0500     		.2byte	0x5
 9879 1be6 72       		.byte	0x72
 9880 1be7 00       		.sleb128 0
 9881 1be8 37       		.byte	0x37
 9882 1be9 1A       		.byte	0x1a
 9883 1bea 9F       		.byte	0x9f
 9884 1beb 2C0A0000 		.4byte	.LVL431
 9885 1bef 320A0000 		.4byte	.LVL433
 9886 1bf3 0100     		.2byte	0x1
 9887 1bf5 51       		.byte	0x51
 9888 1bf6 320A0000 		.4byte	.LVL433
 9889 1bfa 360A0000 		.4byte	.LVL434
 9890 1bfe 0400     		.2byte	0x4
 9891 1c00 71       		.byte	0x71
 9892 1c01 00       		.sleb128 0
 9893 1c02 1F       		.byte	0x1f
 9894 1c03 9F       		.byte	0x9f
 9895 1c04 360A0000 		.4byte	.LVL434
 9896 1c08 3E0A0000 		.4byte	.LVL435
 9897 1c0c 0500     		.2byte	0x5
 9898 1c0e 72       		.byte	0x72
 9899 1c0f 00       		.sleb128 0
 9900 1c10 37       		.byte	0x37
 9901 1c11 1A       		.byte	0x1a
 9902 1c12 9F       		.byte	0x9f
 9903 1c13 00000000 		.4byte	0
 9904 1c17 00000000 		.4byte	0
 9905              	.LLST158:
 9906 1c1b C6090000 		.4byte	.LVL416
 9907 1c1f 100A0000 		.4byte	.LVL426
 9908 1c23 0100     		.2byte	0x1
 9909 1c25 58       		.byte	0x58
 9910 1c26 100A0000 		.4byte	.LVL426
 9911 1c2a 2C0A0000 		.4byte	.LVL431
 9912 1c2e 0500     		.2byte	0x5
 9913 1c30 03       		.byte	0x3
 9914 1c31 00000000 		.4byte	rle_in
 9915 1c35 2C0A0000 		.4byte	.LVL431
 9916 1c39 300A0000 		.4byte	.LVL432
 9917 1c3d 0100     		.2byte	0x1
 9918 1c3f 58       		.byte	0x58
 9919 1c40 300A0000 		.4byte	.LVL432
ARM GAS  C:\Users\strap\AppData\Local\Temp\ccKJQbxb.s 			page 195


 9920 1c44 3E0A0000 		.4byte	.LVL435
 9921 1c48 0500     		.2byte	0x5
 9922 1c4a 03       		.byte	0x3
 9923 1c4b 00000000 		.4byte	rle_in
 9924 1c4f 00000000 		.4byte	0
 9925 1c53 00000000 		.4byte	0
 9926              	.LLST159:
 9927 1c57 DE090000 		.4byte	.LVL417
 9928 1c5b E2090000 		.4byte	.LVL418
 9929 1c5f 0200     		.2byte	0x2
 9930 1c61 37       		.byte	0x37
 9931 1c62 9F       		.byte	0x9f
 9932 1c63 E2090000 		.4byte	.LVL418
 9933 1c67 E6090000 		.4byte	.LVL419
 9934 1c6b 0200     		.2byte	0x2
 9935 1c6d 3F       		.byte	0x3f
 9936 1c6e 9F       		.byte	0x9f
 9937 1c6f E6090000 		.4byte	.LVL419
 9938 1c73 EA090000 		.4byte	.LVL420
 9939 1c77 0300     		.2byte	0x3
 9940 1c79 09       		.byte	0x9
 9941 1c7a FF       		.byte	0xff
 9942 1c7b 9F       		.byte	0x9f
 9943 1c7c F4090000 		.4byte	.LVL421
 9944 1c80 F6090000 		.4byte	.LVL422
 9945 1c84 0100     		.2byte	0x1
 9946 1c86 53       		.byte	0x53
 9947 1c87 F8090000 		.4byte	.LVL423
 9948 1c8b 2A0A0000 		.4byte	.LVL430
 9949 1c8f 0100     		.2byte	0x1
 9950 1c91 53       		.byte	0x53
 9951 1c92 2C0A0000 		.4byte	.LVL431
 9952 1c96 3E0A0000 		.4byte	.LVL435
 9953 1c9a 0100     		.2byte	0x1
 9954 1c9c 53       		.byte	0x53
 9955 1c9d 00000000 		.4byte	0
 9956 1ca1 00000000 		.4byte	0
 9957              	.LLST160:
 9958 1ca5 FC090000 		.4byte	.LVL424
 9959 1ca9 3E0A0000 		.4byte	.LVL435
 9960 1cad 0100     		.2byte	0x1
 9961 1caf 5A       		.byte	0x5a
 9962 1cb0 00000000 		.4byte	0
 9963 1cb4 00000000 		.4byte	0
 9964              	.LLST161:
 9965 1cb8 1C0A0000 		.4byte	.LVL427
 9966 1cbc 2C0A0000 		.4byte	.LVL431
 9967 1cc0 0100     		.2byte	0x1
 9968 1cc2 58       		.byte	0x58
 9969 1cc3 00000000 		.4byte	0
 9970 1cc7 00000000 		.4byte	0
 9971              	.LLST162:
 9972 1ccb 520A0000 		.4byte	.LVL437
 9973 1ccf D20A0000 		.4byte	.LVL457
 9974 1cd3 0100     		.2byte	0x1
 9975 1cd5 59       		.byte	0x59
 9976 1cd6 00000000 		.4byte	0
ARM GAS  C:\Users\strap\AppData\Local\Temp\ccKJQbxb.s 			page 196


 9977 1cda 00000000 		.4byte	0
 9978              	.LLST163:
 9979 1cde 520A0000 		.4byte	.LVL437
 9980 1ce2 960A0000 		.4byte	.LVL446
 9981 1ce6 0100     		.2byte	0x1
 9982 1ce8 52       		.byte	0x52
 9983 1ce9 960A0000 		.4byte	.LVL446
 9984 1ced B20A0000 		.4byte	.LVL450
 9985 1cf1 0100     		.2byte	0x1
 9986 1cf3 51       		.byte	0x51
 9987 1cf4 B20A0000 		.4byte	.LVL450
 9988 1cf8 B60A0000 		.4byte	.LVL451
 9989 1cfc 0400     		.2byte	0x4
 9990 1cfe 71       		.byte	0x71
 9991 1cff 00       		.sleb128 0
 9992 1d00 1F       		.byte	0x1f
 9993 1d01 9F       		.byte	0x9f
 9994 1d02 B60A0000 		.4byte	.LVL451
 9995 1d06 C00A0000 		.4byte	.LVL453
 9996 1d0a 0500     		.2byte	0x5
 9997 1d0c 72       		.byte	0x72
 9998 1d0d 00       		.sleb128 0
 9999 1d0e 37       		.byte	0x37
 10000 1d0f 1A       		.byte	0x1a
 10001 1d10 9F       		.byte	0x9f
 10002 1d11 C00A0000 		.4byte	.LVL453
 10003 1d15 C60A0000 		.4byte	.LVL455
 10004 1d19 0100     		.2byte	0x1
 10005 1d1b 51       		.byte	0x51
 10006 1d1c C60A0000 		.4byte	.LVL455
 10007 1d20 CA0A0000 		.4byte	.LVL456
 10008 1d24 0400     		.2byte	0x4
 10009 1d26 71       		.byte	0x71
 10010 1d27 00       		.sleb128 0
 10011 1d28 1F       		.byte	0x1f
 10012 1d29 9F       		.byte	0x9f
 10013 1d2a CA0A0000 		.4byte	.LVL456
 10014 1d2e D20A0000 		.4byte	.LVL457
 10015 1d32 0500     		.2byte	0x5
 10016 1d34 72       		.byte	0x72
 10017 1d35 00       		.sleb128 0
 10018 1d36 37       		.byte	0x37
 10019 1d37 1A       		.byte	0x1a
 10020 1d38 9F       		.byte	0x9f
 10021 1d39 00000000 		.4byte	0
 10022 1d3d 00000000 		.4byte	0
 10023              	.LLST164:
 10024 1d41 520A0000 		.4byte	.LVL437
 10025 1d45 A60A0000 		.4byte	.LVL447
 10026 1d49 0100     		.2byte	0x1
 10027 1d4b 58       		.byte	0x58
 10028 1d4c A60A0000 		.4byte	.LVL447
 10029 1d50 C00A0000 		.4byte	.LVL453
 10030 1d54 0500     		.2byte	0x5
 10031 1d56 03       		.byte	0x3
 10032 1d57 00000000 		.4byte	rle_in
 10033 1d5b C00A0000 		.4byte	.LVL453
ARM GAS  C:\Users\strap\AppData\Local\Temp\ccKJQbxb.s 			page 197


 10034 1d5f D20A0000 		.4byte	.LVL457
 10035 1d63 0100     		.2byte	0x1
 10036 1d65 58       		.byte	0x58
 10037 1d66 00000000 		.4byte	0
 10038 1d6a 00000000 		.4byte	0
 10039              	.LLST165:
 10040 1d6e 6C0A0000 		.4byte	.LVL438
 10041 1d72 720A0000 		.4byte	.LVL439
 10042 1d76 0200     		.2byte	0x2
 10043 1d78 37       		.byte	0x37
 10044 1d79 9F       		.byte	0x9f
 10045 1d7a 720A0000 		.4byte	.LVL439
 10046 1d7e 780A0000 		.4byte	.LVL440
 10047 1d82 0200     		.2byte	0x2
 10048 1d84 3F       		.byte	0x3f
 10049 1d85 9F       		.byte	0x9f
 10050 1d86 780A0000 		.4byte	.LVL440
 10051 1d8a 7E0A0000 		.4byte	.LVL441
 10052 1d8e 0300     		.2byte	0x3
 10053 1d90 09       		.byte	0x9
 10054 1d91 FF       		.byte	0xff
 10055 1d92 9F       		.byte	0x9f
 10056 1d93 8A0A0000 		.4byte	.LVL442
 10057 1d97 8C0A0000 		.4byte	.LVL443
 10058 1d9b 0100     		.2byte	0x1
 10059 1d9d 5A       		.byte	0x5a
 10060 1d9e 900A0000 		.4byte	.LVL444
 10061 1da2 D20A0000 		.4byte	.LVL457
 10062 1da6 0100     		.2byte	0x1
 10063 1da8 5A       		.byte	0x5a
 10064 1da9 00000000 		.4byte	0
 10065 1dad 00000000 		.4byte	0
 10066              	.LLST166:
 10067 1db1 920A0000 		.4byte	.LVL445
 10068 1db5 AA0A0000 		.4byte	.LVL448
 10069 1db9 0100     		.2byte	0x1
 10070 1dbb 53       		.byte	0x53
 10071 1dbc AA0A0000 		.4byte	.LVL448
 10072 1dc0 C00A0000 		.4byte	.LVL453
 10073 1dc4 0500     		.2byte	0x5
 10074 1dc6 72       		.byte	0x72
 10075 1dc7 00       		.sleb128 0
 10076 1dc8 33       		.byte	0x33
 10077 1dc9 25       		.byte	0x25
 10078 1dca 9F       		.byte	0x9f
 10079 1dcb C00A0000 		.4byte	.LVL453
 10080 1dcf C40A0000 		.4byte	.LVL454
 10081 1dd3 0100     		.2byte	0x1
 10082 1dd5 53       		.byte	0x53
 10083 1dd6 C40A0000 		.4byte	.LVL454
 10084 1dda D20A0000 		.4byte	.LVL457
 10085 1dde 0500     		.2byte	0x5
 10086 1de0 72       		.byte	0x72
 10087 1de1 00       		.sleb128 0
 10088 1de2 33       		.byte	0x33
 10089 1de3 25       		.byte	0x25
 10090 1de4 9F       		.byte	0x9f
ARM GAS  C:\Users\strap\AppData\Local\Temp\ccKJQbxb.s 			page 198


 10091 1de5 00000000 		.4byte	0
 10092 1de9 00000000 		.4byte	0
 10093              	.LLST167:
 10094 1ded B00A0000 		.4byte	.LVL449
 10095 1df1 BA0A0000 		.4byte	.LVL452
 10096 1df5 0100     		.2byte	0x1
 10097 1df7 53       		.byte	0x53
 10098 1df8 BA0A0000 		.4byte	.LVL452
 10099 1dfc C00A0000 		.4byte	.LVL453
 10100 1e00 0D00     		.2byte	0xd
 10101 1e02 7B       		.byte	0x7b
 10102 1e03 00       		.sleb128 0
 10103 1e04 38       		.byte	0x38
 10104 1e05 24       		.byte	0x24
 10105 1e06 78       		.byte	0x78
 10106 1e07 01       		.sleb128 1
 10107 1e08 94       		.byte	0x94
 10108 1e09 01       		.byte	0x1
 10109 1e0a 08       		.byte	0x8
 10110 1e0b FF       		.byte	0xff
 10111 1e0c 1A       		.byte	0x1a
 10112 1e0d 22       		.byte	0x22
 10113 1e0e 9F       		.byte	0x9f
 10114 1e0f 00000000 		.4byte	0
 10115 1e13 00000000 		.4byte	0
 10116              	.LLST168:
 10117 1e17 000B0000 		.4byte	.LVL461
 10118 1e1b 7E0B0000 		.4byte	.LVL480
 10119 1e1f 0100     		.2byte	0x1
 10120 1e21 58       		.byte	0x58
 10121 1e22 00000000 		.4byte	0
 10122 1e26 00000000 		.4byte	0
 10123              	.LLST169:
 10124 1e2a 000B0000 		.4byte	.LVL461
 10125 1e2e 440B0000 		.4byte	.LVL470
 10126 1e32 0100     		.2byte	0x1
 10127 1e34 51       		.byte	0x51
 10128 1e35 440B0000 		.4byte	.LVL470
 10129 1e39 5E0B0000 		.4byte	.LVL473
 10130 1e3d 0100     		.2byte	0x1
 10131 1e3f 52       		.byte	0x52
 10132 1e40 5E0B0000 		.4byte	.LVL473
 10133 1e44 620B0000 		.4byte	.LVL474
 10134 1e48 0400     		.2byte	0x4
 10135 1e4a 72       		.byte	0x72
 10136 1e4b 00       		.sleb128 0
 10137 1e4c 1F       		.byte	0x1f
 10138 1e4d 9F       		.byte	0x9f
 10139 1e4e 620B0000 		.4byte	.LVL474
 10140 1e52 6C0B0000 		.4byte	.LVL476
 10141 1e56 0500     		.2byte	0x5
 10142 1e58 71       		.byte	0x71
 10143 1e59 00       		.sleb128 0
 10144 1e5a 37       		.byte	0x37
 10145 1e5b 1A       		.byte	0x1a
 10146 1e5c 9F       		.byte	0x9f
 10147 1e5d 6C0B0000 		.4byte	.LVL476
ARM GAS  C:\Users\strap\AppData\Local\Temp\ccKJQbxb.s 			page 199


 10148 1e61 720B0000 		.4byte	.LVL478
 10149 1e65 0100     		.2byte	0x1
 10150 1e67 52       		.byte	0x52
 10151 1e68 720B0000 		.4byte	.LVL478
 10152 1e6c 760B0000 		.4byte	.LVL479
 10153 1e70 0400     		.2byte	0x4
 10154 1e72 72       		.byte	0x72
 10155 1e73 00       		.sleb128 0
 10156 1e74 1F       		.byte	0x1f
 10157 1e75 9F       		.byte	0x9f
 10158 1e76 760B0000 		.4byte	.LVL479
 10159 1e7a 7E0B0000 		.4byte	.LVL480
 10160 1e7e 0500     		.2byte	0x5
 10161 1e80 71       		.byte	0x71
 10162 1e81 00       		.sleb128 0
 10163 1e82 37       		.byte	0x37
 10164 1e83 1A       		.byte	0x1a
 10165 1e84 9F       		.byte	0x9f
 10166 1e85 00000000 		.4byte	0
 10167 1e89 00000000 		.4byte	0
 10168              	.LLST170:
 10169 1e8d 000B0000 		.4byte	.LVL461
 10170 1e91 7E0B0000 		.4byte	.LVL480
 10171 1e95 0100     		.2byte	0x1
 10172 1e97 5A       		.byte	0x5a
 10173 1e98 00000000 		.4byte	0
 10174 1e9c 00000000 		.4byte	0
 10175              	.LLST171:
 10176 1ea0 1A0B0000 		.4byte	.LVL462
 10177 1ea4 200B0000 		.4byte	.LVL463
 10178 1ea8 0200     		.2byte	0x2
 10179 1eaa 37       		.byte	0x37
 10180 1eab 9F       		.byte	0x9f
 10181 1eac 200B0000 		.4byte	.LVL463
 10182 1eb0 260B0000 		.4byte	.LVL464
 10183 1eb4 0200     		.2byte	0x2
 10184 1eb6 3F       		.byte	0x3f
 10185 1eb7 9F       		.byte	0x9f
 10186 1eb8 260B0000 		.4byte	.LVL464
 10187 1ebc 2C0B0000 		.4byte	.LVL465
 10188 1ec0 0300     		.2byte	0x3
 10189 1ec2 09       		.byte	0x9
 10190 1ec3 FF       		.byte	0xff
 10191 1ec4 9F       		.byte	0x9f
 10192 1ec5 380B0000 		.4byte	.LVL466
 10193 1ec9 3A0B0000 		.4byte	.LVL467
 10194 1ecd 0100     		.2byte	0x1
 10195 1ecf 59       		.byte	0x59
 10196 1ed0 3E0B0000 		.4byte	.LVL468
 10197 1ed4 7E0B0000 		.4byte	.LVL480
 10198 1ed8 0100     		.2byte	0x1
 10199 1eda 59       		.byte	0x59
 10200 1edb 00000000 		.4byte	0
 10201 1edf 00000000 		.4byte	0
 10202              	.LLST172:
 10203 1ee3 400B0000 		.4byte	.LVL469
 10204 1ee7 540B0000 		.4byte	.LVL471
ARM GAS  C:\Users\strap\AppData\Local\Temp\ccKJQbxb.s 			page 200


 10205 1eeb 0100     		.2byte	0x1
 10206 1eed 53       		.byte	0x53
 10207 1eee 540B0000 		.4byte	.LVL471
 10208 1ef2 6C0B0000 		.4byte	.LVL476
 10209 1ef6 0500     		.2byte	0x5
 10210 1ef8 71       		.byte	0x71
 10211 1ef9 00       		.sleb128 0
 10212 1efa 33       		.byte	0x33
 10213 1efb 25       		.byte	0x25
 10214 1efc 9F       		.byte	0x9f
 10215 1efd 6C0B0000 		.4byte	.LVL476
 10216 1f01 700B0000 		.4byte	.LVL477
 10217 1f05 0100     		.2byte	0x1
 10218 1f07 53       		.byte	0x53
 10219 1f08 700B0000 		.4byte	.LVL477
 10220 1f0c 7E0B0000 		.4byte	.LVL480
 10221 1f10 0500     		.2byte	0x5
 10222 1f12 71       		.byte	0x71
 10223 1f13 00       		.sleb128 0
 10224 1f14 33       		.byte	0x33
 10225 1f15 25       		.byte	0x25
 10226 1f16 9F       		.byte	0x9f
 10227 1f17 00000000 		.4byte	0
 10228 1f1b 00000000 		.4byte	0
 10229              	.LLST173:
 10230 1f1f 5C0B0000 		.4byte	.LVL472
 10231 1f23 660B0000 		.4byte	.LVL475
 10232 1f27 0100     		.2byte	0x1
 10233 1f29 53       		.byte	0x53
 10234 1f2a 660B0000 		.4byte	.LVL475
 10235 1f2e 6C0B0000 		.4byte	.LVL476
 10236 1f32 1400     		.2byte	0x14
 10237 1f34 7B       		.byte	0x7b
 10238 1f35 00       		.sleb128 0
 10239 1f36 38       		.byte	0x38
 10240 1f37 24       		.byte	0x24
 10241 1f38 71       		.byte	0x71
 10242 1f39 00       		.sleb128 0
 10243 1f3a 33       		.byte	0x33
 10244 1f3b 25       		.byte	0x25
 10245 1f3c 7A       		.byte	0x7a
 10246 1f3d 00       		.sleb128 0
 10247 1f3e 22       		.byte	0x22
 10248 1f3f 23       		.byte	0x23
 10249 1f40 01       		.uleb128 0x1
 10250 1f41 94       		.byte	0x94
 10251 1f42 01       		.byte	0x1
 10252 1f43 08       		.byte	0x8
 10253 1f44 FF       		.byte	0xff
 10254 1f45 1A       		.byte	0x1a
 10255 1f46 22       		.byte	0x22
 10256 1f47 9F       		.byte	0x9f
 10257 1f48 00000000 		.4byte	0
 10258 1f4c 00000000 		.4byte	0
 10259              	.LLST174:
 10260 1f50 B40B0000 		.4byte	.LVL486
 10261 1f54 B80B0000 		.4byte	.LVL487
ARM GAS  C:\Users\strap\AppData\Local\Temp\ccKJQbxb.s 			page 201


 10262 1f58 0100     		.2byte	0x1
 10263 1f5a 57       		.byte	0x57
 10264 1f5b B80B0000 		.4byte	.LVL487
 10265 1f5f 020C0000 		.4byte	.LVL495
 10266 1f63 0200     		.2byte	0x2
 10267 1f65 34       		.byte	0x34
 10268 1f66 9F       		.byte	0x9f
 10269 1f67 020C0000 		.4byte	.LVL495
 10270 1f6b 060C0000 		.4byte	.LVL496
 10271 1f6f 0100     		.2byte	0x1
 10272 1f71 57       		.byte	0x57
 10273 1f72 060C0000 		.4byte	.LVL496
 10274 1f76 080C0000 		.4byte	.LVL497
 10275 1f7a 0200     		.2byte	0x2
 10276 1f7c 34       		.byte	0x34
 10277 1f7d 9F       		.byte	0x9f
 10278 1f7e 080C0000 		.4byte	.LVL497
 10279 1f82 240C0000 		.4byte	.LVL504
 10280 1f86 0100     		.2byte	0x1
 10281 1f88 52       		.byte	0x52
 10282 1f89 00000000 		.4byte	0
 10283 1f8d 00000000 		.4byte	0
 10284              	.LLST175:
 10285 1f91 B40B0000 		.4byte	.LVL486
 10286 1f95 CC0B0000 		.4byte	.LVL488
 10287 1f99 0100     		.2byte	0x1
 10288 1f9b 5E       		.byte	0x5e
 10289 1f9c CC0B0000 		.4byte	.LVL488
 10290 1fa0 D40B0000 		.4byte	.LVL489
 10291 1fa4 0200     		.2byte	0x2
 10292 1fa6 32       		.byte	0x32
 10293 1fa7 9F       		.byte	0x9f
 10294 1fa8 D40B0000 		.4byte	.LVL489
 10295 1fac DA0B0000 		.4byte	.LVL490
 10296 1fb0 0200     		.2byte	0x2
 10297 1fb2 34       		.byte	0x34
 10298 1fb3 9F       		.byte	0x9f
 10299 1fb4 DA0B0000 		.4byte	.LVL490
 10300 1fb8 E20B0000 		.4byte	.LVL491
 10301 1fbc 0200     		.2byte	0x2
 10302 1fbe 36       		.byte	0x36
 10303 1fbf 9F       		.byte	0x9f
 10304 1fc0 E20B0000 		.4byte	.LVL491
 10305 1fc4 EA0B0000 		.4byte	.LVL492
 10306 1fc8 0200     		.2byte	0x2
 10307 1fca 39       		.byte	0x39
 10308 1fcb 9F       		.byte	0x9f
 10309 1fcc EA0B0000 		.4byte	.LVL492
 10310 1fd0 F20B0000 		.4byte	.LVL493
 10311 1fd4 0200     		.2byte	0x2
 10312 1fd6 3B       		.byte	0x3b
 10313 1fd7 9F       		.byte	0x9f
 10314 1fd8 F20B0000 		.4byte	.LVL493
 10315 1fdc FA0B0000 		.4byte	.LVL494
 10316 1fe0 0200     		.2byte	0x2
 10317 1fe2 3D       		.byte	0x3d
 10318 1fe3 9F       		.byte	0x9f
ARM GAS  C:\Users\strap\AppData\Local\Temp\ccKJQbxb.s 			page 202


 10319 1fe4 FA0B0000 		.4byte	.LVL494
 10320 1fe8 020C0000 		.4byte	.LVL495
 10321 1fec 0200     		.2byte	0x2
 10322 1fee 3F       		.byte	0x3f
 10323 1fef 9F       		.byte	0x9f
 10324 1ff0 020C0000 		.4byte	.LVL495
 10325 1ff4 360C0000 		.4byte	.LVL507
 10326 1ff8 0100     		.2byte	0x1
 10327 1ffa 5E       		.byte	0x5e
 10328 1ffb 00000000 		.4byte	0
 10329 1fff 00000000 		.4byte	0
 10330              	.LLST176:
 10331 2003 B40B0000 		.4byte	.LVL486
 10332 2007 0C0C0000 		.4byte	.LVL498
 10333 200b 0100     		.2byte	0x1
 10334 200d 50       		.byte	0x50
 10335 200e 0C0C0000 		.4byte	.LVL498
 10336 2012 0E0C0000 		.4byte	.LVL499
 10337 2016 0100     		.2byte	0x1
 10338 2018 51       		.byte	0x51
 10339 2019 0E0C0000 		.4byte	.LVL499
 10340 201d 100C0000 		.4byte	.LVL500
 10341 2021 0400     		.2byte	0x4
 10342 2023 71       		.byte	0x71
 10343 2024 00       		.sleb128 0
 10344 2025 1F       		.byte	0x1f
 10345 2026 9F       		.byte	0x9f
 10346 2027 100C0000 		.4byte	.LVL500
 10347 202b 120C0000 		.4byte	.LVL501
 10348 202f 0500     		.2byte	0x5
 10349 2031 70       		.byte	0x70
 10350 2032 00       		.sleb128 0
 10351 2033 37       		.byte	0x37
 10352 2034 1A       		.byte	0x1a
 10353 2035 9F       		.byte	0x9f
 10354 2036 120C0000 		.4byte	.LVL501
 10355 203a 300C0000 		.4byte	.LVL506
 10356 203e 0100     		.2byte	0x1
 10357 2040 51       		.byte	0x51
 10358 2041 00000000 		.4byte	0
 10359 2045 00000000 		.4byte	0
 10360              	.LLST177:
 10361 2049 B40B0000 		.4byte	.LVL486
 10362 204d 360C0000 		.4byte	.LVL507
 10363 2051 0100     		.2byte	0x1
 10364 2053 56       		.byte	0x56
 10365 2054 00000000 		.4byte	0
 10366 2058 00000000 		.4byte	0
 10367              	.LLST178:
 10368 205c 080C0000 		.4byte	.LVL497
 10369 2060 380C0000 		.4byte	.LVL508
 10370 2064 0500     		.2byte	0x5
 10371 2066 70       		.byte	0x70
 10372 2067 00       		.sleb128 0
 10373 2068 33       		.byte	0x33
 10374 2069 25       		.byte	0x25
 10375 206a 9F       		.byte	0x9f
ARM GAS  C:\Users\strap\AppData\Local\Temp\ccKJQbxb.s 			page 203


 10376 206b 00000000 		.4byte	0
 10377 206f 00000000 		.4byte	0
 10378              	.LLST179:
 10379 2073 1A0C0000 		.4byte	.LVL502
 10380 2077 200C0000 		.4byte	.LVL503
 10381 207b 0100     		.2byte	0x1
 10382 207d 53       		.byte	0x53
 10383 207e 200C0000 		.4byte	.LVL503
 10384 2082 280C0000 		.4byte	.LVL505
 10385 2086 0400     		.2byte	0x4
 10386 2088 73       		.byte	0x73
 10387 2089 00       		.sleb128 0
 10388 208a 20       		.byte	0x20
 10389 208b 9F       		.byte	0x9f
 10390 208c 00000000 		.4byte	0
 10391 2090 00000000 		.4byte	0
 10392              	.LLST180:
 10393 2094 00000000 		.4byte	.LVL516
 10394 2098 11000000 		.4byte	.LVL519-1
 10395 209c 0100     		.2byte	0x1
 10396 209e 50       		.byte	0x50
 10397 209f 11000000 		.4byte	.LVL519-1
 10398 20a3 F8000000 		.4byte	.LFE37
 10399 20a7 0400     		.2byte	0x4
 10400 20a9 F3       		.byte	0xf3
 10401 20aa 01       		.uleb128 0x1
 10402 20ab 50       		.byte	0x50
 10403 20ac 9F       		.byte	0x9f
 10404 20ad 00000000 		.4byte	0
 10405 20b1 00000000 		.4byte	0
 10406              	.LLST181:
 10407 20b5 00000000 		.4byte	.LVL516
 10408 20b9 0C000000 		.4byte	.LVL517
 10409 20bd 0100     		.2byte	0x1
 10410 20bf 51       		.byte	0x51
 10411 20c0 0C000000 		.4byte	.LVL517
 10412 20c4 11000000 		.4byte	.LVL519-1
 10413 20c8 0100     		.2byte	0x1
 10414 20ca 51       		.byte	0x51
 10415 20cb 00000000 		.4byte	0
 10416 20cf 00000000 		.4byte	0
 10417              	.LLST182:
 10418 20d3 0E000000 		.4byte	.LVL518
 10419 20d7 CC000000 		.4byte	.LVL543
 10420 20db 0100     		.2byte	0x1
 10421 20dd 55       		.byte	0x55
 10422 20de DC000000 		.4byte	.LVL546
 10423 20e2 EA000000 		.4byte	.LVL553
 10424 20e6 0100     		.2byte	0x1
 10425 20e8 55       		.byte	0x55
 10426 20e9 00000000 		.4byte	0
 10427 20ed 00000000 		.4byte	0
 10428              	.LLST183:
 10429 20f1 12000000 		.4byte	.LVL519
 10430 20f5 2C000000 		.4byte	.LVL521
 10431 20f9 0100     		.2byte	0x1
 10432 20fb 50       		.byte	0x50
ARM GAS  C:\Users\strap\AppData\Local\Temp\ccKJQbxb.s 			page 204


 10433 20fc 2C000000 		.4byte	.LVL521
 10434 2100 38000000 		.4byte	.LVL522
 10435 2104 0100     		.2byte	0x1
 10436 2106 58       		.byte	0x58
 10437 2107 38000000 		.4byte	.LVL522
 10438 210b 72000000 		.4byte	.LVL536
 10439 210f 0100     		.2byte	0x1
 10440 2111 50       		.byte	0x50
 10441 2112 72000000 		.4byte	.LVL536
 10442 2116 DC000000 		.4byte	.LVL546
 10443 211a 0100     		.2byte	0x1
 10444 211c 58       		.byte	0x58
 10445 211d DC000000 		.4byte	.LVL546
 10446 2121 DE000000 		.4byte	.LVL547
 10447 2125 0100     		.2byte	0x1
 10448 2127 50       		.byte	0x50
 10449 2128 DE000000 		.4byte	.LVL547
 10450 212c E0000000 		.4byte	.LVL548
 10451 2130 0100     		.2byte	0x1
 10452 2132 58       		.byte	0x58
 10453 2133 E0000000 		.4byte	.LVL548
 10454 2137 E2000000 		.4byte	.LVL549
 10455 213b 0100     		.2byte	0x1
 10456 213d 50       		.byte	0x50
 10457 213e E2000000 		.4byte	.LVL549
 10458 2142 E4000000 		.4byte	.LVL550
 10459 2146 0100     		.2byte	0x1
 10460 2148 58       		.byte	0x58
 10461 2149 E4000000 		.4byte	.LVL550
 10462 214d E6000000 		.4byte	.LVL551
 10463 2151 0100     		.2byte	0x1
 10464 2153 50       		.byte	0x50
 10465 2154 E6000000 		.4byte	.LVL551
 10466 2158 F0000000 		.4byte	.LVL554
 10467 215c 0100     		.2byte	0x1
 10468 215e 58       		.byte	0x58
 10469 215f 00000000 		.4byte	0
 10470 2163 00000000 		.4byte	0
 10471              	.LLST184:
 10472 2167 1E000000 		.4byte	.LVL520
 10473 216b DC000000 		.4byte	.LVL546
 10474 216f 0100     		.2byte	0x1
 10475 2171 56       		.byte	0x56
 10476 2172 E0000000 		.4byte	.LVL548
 10477 2176 EA000000 		.4byte	.LVL553
 10478 217a 0100     		.2byte	0x1
 10479 217c 56       		.byte	0x56
 10480 217d 00000000 		.4byte	0
 10481 2181 00000000 		.4byte	0
 10482              	.LLST185:
 10483 2185 40000000 		.4byte	.LVL523
 10484 2189 5A000000 		.4byte	.LVL525
 10485 218d 0100     		.2byte	0x1
 10486 218f 54       		.byte	0x54
 10487 2190 5A000000 		.4byte	.LVL525
 10488 2194 5C000000 		.4byte	.LVL526
 10489 2198 0300     		.2byte	0x3
ARM GAS  C:\Users\strap\AppData\Local\Temp\ccKJQbxb.s 			page 205


 10490 219a 74       		.byte	0x74
 10491 219b 79       		.sleb128 -7
 10492 219c 9F       		.byte	0x9f
 10493 219d 5C000000 		.4byte	.LVL526
 10494 21a1 5E000000 		.4byte	.LVL527
 10495 21a5 1000     		.2byte	0x10
 10496 21a7 76       		.byte	0x76
 10497 21a8 05       		.sleb128 5
 10498 21a9 94       		.byte	0x94
 10499 21aa 01       		.byte	0x1
 10500 21ab 08       		.byte	0x8
 10501 21ac FF       		.byte	0xff
 10502 21ad 1A       		.byte	0x1a
 10503 21ae 76       		.byte	0x76
 10504 21af 04       		.sleb128 4
 10505 21b0 94       		.byte	0x94
 10506 21b1 01       		.byte	0x1
 10507 21b2 08       		.byte	0x8
 10508 21b3 FF       		.byte	0xff
 10509 21b4 1A       		.byte	0x1a
 10510 21b5 1E       		.byte	0x1e
 10511 21b6 9F       		.byte	0x9f
 10512 21b7 5E000000 		.4byte	.LVL527
 10513 21bb 60000000 		.4byte	.LVL528
 10514 21bf 0100     		.2byte	0x1
 10515 21c1 54       		.byte	0x54
 10516 21c2 60000000 		.4byte	.LVL528
 10517 21c6 62000000 		.4byte	.LVL529
 10518 21ca 0300     		.2byte	0x3
 10519 21cc 74       		.byte	0x74
 10520 21cd 7D       		.sleb128 -3
 10521 21ce 9F       		.byte	0x9f
 10522 21cf 62000000 		.4byte	.LVL529
 10523 21d3 64000000 		.4byte	.LVL530
 10524 21d7 1000     		.2byte	0x10
 10525 21d9 76       		.byte	0x76
 10526 21da 05       		.sleb128 5
 10527 21db 94       		.byte	0x94
 10528 21dc 01       		.byte	0x1
 10529 21dd 08       		.byte	0x8
 10530 21de FF       		.byte	0xff
 10531 21df 1A       		.byte	0x1a
 10532 21e0 76       		.byte	0x76
 10533 21e1 04       		.sleb128 4
 10534 21e2 94       		.byte	0x94
 10535 21e3 01       		.byte	0x1
 10536 21e4 08       		.byte	0x8
 10537 21e5 FF       		.byte	0xff
 10538 21e6 1A       		.byte	0x1a
 10539 21e7 1E       		.byte	0x1e
 10540 21e8 9F       		.byte	0x9f
 10541 21e9 64000000 		.4byte	.LVL530
 10542 21ed 66000000 		.4byte	.LVL531
 10543 21f1 0100     		.2byte	0x1
 10544 21f3 54       		.byte	0x54
 10545 21f4 66000000 		.4byte	.LVL531
 10546 21f8 68000000 		.4byte	.LVL532
ARM GAS  C:\Users\strap\AppData\Local\Temp\ccKJQbxb.s 			page 206


 10547 21fc 0300     		.2byte	0x3
 10548 21fe 74       		.byte	0x74
 10549 21ff 7F       		.sleb128 -1
 10550 2200 9F       		.byte	0x9f
 10551 2201 68000000 		.4byte	.LVL532
 10552 2205 6A000000 		.4byte	.LVL533
 10553 2209 1000     		.2byte	0x10
 10554 220b 76       		.byte	0x76
 10555 220c 05       		.sleb128 5
 10556 220d 94       		.byte	0x94
 10557 220e 01       		.byte	0x1
 10558 220f 08       		.byte	0x8
 10559 2210 FF       		.byte	0xff
 10560 2211 1A       		.byte	0x1a
 10561 2212 76       		.byte	0x76
 10562 2213 04       		.sleb128 4
 10563 2214 94       		.byte	0x94
 10564 2215 01       		.byte	0x1
 10565 2216 08       		.byte	0x8
 10566 2217 FF       		.byte	0xff
 10567 2218 1A       		.byte	0x1a
 10568 2219 1E       		.byte	0x1e
 10569 221a 9F       		.byte	0x9f
 10570 221b 6A000000 		.4byte	.LVL533
 10571 221f 6C000000 		.4byte	.LVL534
 10572 2223 0100     		.2byte	0x1
 10573 2225 54       		.byte	0x54
 10574 2226 6C000000 		.4byte	.LVL534
 10575 222a 6E000000 		.4byte	.LVL535
 10576 222e 0300     		.2byte	0x3
 10577 2230 74       		.byte	0x74
 10578 2231 7F       		.sleb128 -1
 10579 2232 9F       		.byte	0x9f
 10580 2233 6E000000 		.4byte	.LVL535
 10581 2237 75000000 		.4byte	.LVL537-1
 10582 223b 1000     		.2byte	0x10
 10583 223d 76       		.byte	0x76
 10584 223e 05       		.sleb128 5
 10585 223f 94       		.byte	0x94
 10586 2240 01       		.byte	0x1
 10587 2241 08       		.byte	0x8
 10588 2242 FF       		.byte	0xff
 10589 2243 1A       		.byte	0x1a
 10590 2244 76       		.byte	0x76
 10591 2245 04       		.sleb128 4
 10592 2246 94       		.byte	0x94
 10593 2247 01       		.byte	0x1
 10594 2248 08       		.byte	0x8
 10595 2249 FF       		.byte	0xff
 10596 224a 1A       		.byte	0x1a
 10597 224b 1E       		.byte	0x1e
 10598 224c 9F       		.byte	0x9f
 10599 224d E4000000 		.4byte	.LVL550
 10600 2251 E8000000 		.4byte	.LVL552
 10601 2255 0100     		.2byte	0x1
 10602 2257 54       		.byte	0x54
 10603 2258 00000000 		.4byte	0
ARM GAS  C:\Users\strap\AppData\Local\Temp\ccKJQbxb.s 			page 207


 10604 225c 00000000 		.4byte	0
 10605              	.LLST186:
 10606 2260 44000000 		.4byte	.LVL524
 10607 2264 5A000000 		.4byte	.LVL525
 10608 2268 0100     		.2byte	0x1
 10609 226a 54       		.byte	0x54
 10610 226b 5A000000 		.4byte	.LVL525
 10611 226f 5C000000 		.4byte	.LVL526
 10612 2273 0300     		.2byte	0x3
 10613 2275 74       		.byte	0x74
 10614 2276 79       		.sleb128 -7
 10615 2277 9F       		.byte	0x9f
 10616 2278 5C000000 		.4byte	.LVL526
 10617 227c 60000000 		.4byte	.LVL528
 10618 2280 0100     		.2byte	0x1
 10619 2282 54       		.byte	0x54
 10620 2283 60000000 		.4byte	.LVL528
 10621 2287 62000000 		.4byte	.LVL529
 10622 228b 0300     		.2byte	0x3
 10623 228d 74       		.byte	0x74
 10624 228e 7D       		.sleb128 -3
 10625 228f 9F       		.byte	0x9f
 10626 2290 62000000 		.4byte	.LVL529
 10627 2294 66000000 		.4byte	.LVL531
 10628 2298 0100     		.2byte	0x1
 10629 229a 54       		.byte	0x54
 10630 229b 66000000 		.4byte	.LVL531
 10631 229f 68000000 		.4byte	.LVL532
 10632 22a3 0300     		.2byte	0x3
 10633 22a5 74       		.byte	0x74
 10634 22a6 7F       		.sleb128 -1
 10635 22a7 9F       		.byte	0x9f
 10636 22a8 68000000 		.4byte	.LVL532
 10637 22ac 6C000000 		.4byte	.LVL534
 10638 22b0 0100     		.2byte	0x1
 10639 22b2 54       		.byte	0x54
 10640 22b3 6C000000 		.4byte	.LVL534
 10641 22b7 6E000000 		.4byte	.LVL535
 10642 22bb 0300     		.2byte	0x3
 10643 22bd 74       		.byte	0x74
 10644 22be 7F       		.sleb128 -1
 10645 22bf 9F       		.byte	0x9f
 10646 22c0 6E000000 		.4byte	.LVL535
 10647 22c4 C2000000 		.4byte	.LVL542
 10648 22c8 0100     		.2byte	0x1
 10649 22ca 54       		.byte	0x54
 10650 22cb E8000000 		.4byte	.LVL552
 10651 22cf EA000000 		.4byte	.LVL553
 10652 22d3 0100     		.2byte	0x1
 10653 22d5 54       		.byte	0x54
 10654 22d6 00000000 		.4byte	0
 10655 22da 00000000 		.4byte	0
 10656              	.LLST187:
 10657 22de B4000000 		.4byte	.LVL541
 10658 22e2 D2000000 		.4byte	.LVL544
 10659 22e6 0100     		.2byte	0x1
 10660 22e8 51       		.byte	0x51
ARM GAS  C:\Users\strap\AppData\Local\Temp\ccKJQbxb.s 			page 208


 10661 22e9 D2000000 		.4byte	.LVL544
 10662 22ed D7000000 		.4byte	.LVL545-1
 10663 22f1 0200     		.2byte	0x2
 10664 22f3 91       		.byte	0x91
 10665 22f4 5C       		.sleb128 -36
 10666 22f5 00000000 		.4byte	0
 10667 22f9 00000000 		.4byte	0
 10668              	.LLST188:
 10669 22fd 00000000 		.4byte	.LVL555
 10670 2301 1C000000 		.4byte	.LVL560
 10671 2305 0100     		.2byte	0x1
 10672 2307 50       		.byte	0x50
 10673 2308 1C000000 		.4byte	.LVL560
 10674 230c 9A000000 		.4byte	.LFE38
 10675 2310 0100     		.2byte	0x1
 10676 2312 57       		.byte	0x57
 10677 2313 00000000 		.4byte	0
 10678 2317 00000000 		.4byte	0
 10679              	.LLST189:
 10680 231b 00000000 		.4byte	.LVL555
 10681 231f 1A000000 		.4byte	.LVL559
 10682 2323 0100     		.2byte	0x1
 10683 2325 51       		.byte	0x51
 10684 2326 1A000000 		.4byte	.LVL559
 10685 232a 9A000000 		.4byte	.LFE38
 10686 232e 0100     		.2byte	0x1
 10687 2330 54       		.byte	0x54
 10688 2331 00000000 		.4byte	0
 10689 2335 00000000 		.4byte	0
 10690              	.LLST190:
 10691 2339 00000000 		.4byte	.LVL555
 10692 233d 16000000 		.4byte	.LVL557
 10693 2341 0100     		.2byte	0x1
 10694 2343 52       		.byte	0x52
 10695 2344 16000000 		.4byte	.LVL557
 10696 2348 1F000000 		.4byte	.LVL561-1
 10697 234c 0100     		.2byte	0x1
 10698 234e 52       		.byte	0x52
 10699 234f 00000000 		.4byte	0
 10700 2353 00000000 		.4byte	0
 10701              	.LLST191:
 10702 2357 00000000 		.4byte	.LVL555
 10703 235b 1F000000 		.4byte	.LVL561-1
 10704 235f 0100     		.2byte	0x1
 10705 2361 53       		.byte	0x53
 10706 2362 1F000000 		.4byte	.LVL561-1
 10707 2366 9A000000 		.4byte	.LFE38
 10708 236a 0100     		.2byte	0x1
 10709 236c 59       		.byte	0x59
 10710 236d 00000000 		.4byte	0
 10711 2371 00000000 		.4byte	0
 10712              	.LLST192:
 10713 2375 0A000000 		.4byte	.LVL556
 10714 2379 16000000 		.4byte	.LVL557
 10715 237d 0200     		.2byte	0x2
 10716 237f 30       		.byte	0x30
 10717 2380 9F       		.byte	0x9f
ARM GAS  C:\Users\strap\AppData\Local\Temp\ccKJQbxb.s 			page 209


 10718 2381 16000000 		.4byte	.LVL557
 10719 2385 9A000000 		.4byte	.LFE38
 10720 2389 0100     		.2byte	0x1
 10721 238b 56       		.byte	0x56
 10722 238c 00000000 		.4byte	0
 10723 2390 00000000 		.4byte	0
 10724              	.LLST193:
 10725 2394 20000000 		.4byte	.LVL561
 10726 2398 2E000000 		.4byte	.LVL563
 10727 239c 0100     		.2byte	0x1
 10728 239e 50       		.byte	0x50
 10729 239f 2E000000 		.4byte	.LVL563
 10730 23a3 40000000 		.4byte	.LVL567
 10731 23a7 0100     		.2byte	0x1
 10732 23a9 58       		.byte	0x58
 10733 23aa 40000000 		.4byte	.LVL567
 10734 23ae 42000000 		.4byte	.LVL568
 10735 23b2 0100     		.2byte	0x1
 10736 23b4 50       		.byte	0x50
 10737 23b5 42000000 		.4byte	.LVL568
 10738 23b9 8E000000 		.4byte	.LVL580
 10739 23bd 0100     		.2byte	0x1
 10740 23bf 58       		.byte	0x58
 10741 23c0 8E000000 		.4byte	.LVL580
 10742 23c4 90000000 		.4byte	.LVL581
 10743 23c8 0100     		.2byte	0x1
 10744 23ca 50       		.byte	0x50
 10745 23cb 90000000 		.4byte	.LVL581
 10746 23cf 9A000000 		.4byte	.LFE38
 10747 23d3 0100     		.2byte	0x1
 10748 23d5 58       		.byte	0x58
 10749 23d6 00000000 		.4byte	0
 10750 23da 00000000 		.4byte	0
 10751              	.LLST194:
 10752 23de 26000000 		.4byte	.LVL562
 10753 23e2 3E000000 		.4byte	.LVL566
 10754 23e6 0200     		.2byte	0x2
 10755 23e8 30       		.byte	0x30
 10756 23e9 9F       		.byte	0x9f
 10757 23ea 3E000000 		.4byte	.LVL566
 10758 23ee 40000000 		.4byte	.LVL567
 10759 23f2 0100     		.2byte	0x1
 10760 23f4 50       		.byte	0x50
 10761 23f5 40000000 		.4byte	.LVL567
 10762 23f9 46000000 		.4byte	.LVL570
 10763 23fd 0200     		.2byte	0x2
 10764 23ff 30       		.byte	0x30
 10765 2400 9F       		.byte	0x9f
 10766 2401 46000000 		.4byte	.LVL570
 10767 2405 54000000 		.4byte	.LVL572
 10768 2409 0100     		.2byte	0x1
 10769 240b 50       		.byte	0x50
 10770 240c 00000000 		.4byte	0
 10771 2410 00000000 		.4byte	0
 10772              	.LLST195:
 10773 2414 4C000000 		.4byte	.LVL571
 10774 2418 8E000000 		.4byte	.LVL580
ARM GAS  C:\Users\strap\AppData\Local\Temp\ccKJQbxb.s 			page 210


 10775 241c 0100     		.2byte	0x1
 10776 241e 51       		.byte	0x51
 10777 241f 94000000 		.4byte	.LVL582
 10778 2423 9A000000 		.4byte	.LFE38
 10779 2427 0100     		.2byte	0x1
 10780 2429 51       		.byte	0x51
 10781 242a 00000000 		.4byte	0
 10782 242e 00000000 		.4byte	0
 10783              	.LLST196:
 10784 2432 54000000 		.4byte	.LVL572
 10785 2436 8A000000 		.4byte	.LVL579
 10786 243a 0100     		.2byte	0x1
 10787 243c 50       		.byte	0x50
 10788 243d 94000000 		.4byte	.LVL582
 10789 2441 96000000 		.4byte	.LVL583
 10790 2445 0100     		.2byte	0x1
 10791 2447 50       		.byte	0x50
 10792 2448 00000000 		.4byte	0
 10793 244c 00000000 		.4byte	0
 10794              	.LLST197:
 10795 2450 5A000000 		.4byte	.LVL573
 10796 2454 62000000 		.4byte	.LVL576
 10797 2458 0100     		.2byte	0x1
 10798 245a 53       		.byte	0x53
 10799 245b 62000000 		.4byte	.LVL576
 10800 245f 64000000 		.4byte	.LVL577
 10801 2463 0300     		.2byte	0x3
 10802 2465 73       		.byte	0x73
 10803 2466 78       		.sleb128 -8
 10804 2467 9F       		.byte	0x9f
 10805 2468 64000000 		.4byte	.LVL577
 10806 246c 68000000 		.4byte	.LVL578
 10807 2470 0100     		.2byte	0x1
 10808 2472 53       		.byte	0x53
 10809 2473 00000000 		.4byte	0
 10810 2477 00000000 		.4byte	0
 10811              	.LLST198:
 10812 247b 32000000 		.4byte	.LVL564
 10813 247f 3A000000 		.4byte	.LVL565
 10814 2483 0100     		.2byte	0x1
 10815 2485 50       		.byte	0x50
 10816 2486 3A000000 		.4byte	.LVL565
 10817 248a 3D000000 		.4byte	.LVL566-1
 10818 248e 0100     		.2byte	0x1
 10819 2490 52       		.byte	0x52
 10820 2491 44000000 		.4byte	.LVL569
 10821 2495 46000000 		.4byte	.LVL570
 10822 2499 0100     		.2byte	0x1
 10823 249b 50       		.byte	0x50
 10824 249c 00000000 		.4byte	0
 10825 24a0 00000000 		.4byte	0
 10826              		.section	.debug_aranges,"",%progbits
 10827 0000 5C000000 		.4byte	0x5c
 10828 0004 0200     		.2byte	0x2
 10829 0006 00000000 		.4byte	.Ldebug_info0
 10830 000a 04       		.byte	0x4
 10831 000b 00       		.byte	0
ARM GAS  C:\Users\strap\AppData\Local\Temp\ccKJQbxb.s 			page 211


 10832 000c 0000     		.2byte	0
 10833 000e 0000     		.2byte	0
 10834 0010 00000000 		.4byte	.LFB42
 10835 0014 14000000 		.4byte	.LFE42-.LFB42
 10836 0018 00000000 		.4byte	.LFB43
 10837 001c 14000000 		.4byte	.LFE43-.LFB43
 10838 0020 00000000 		.4byte	.LFB50
 10839 0024 08000000 		.4byte	.LFE50-.LFB50
 10840 0028 00000000 		.4byte	.LFB40
 10841 002c D4000000 		.4byte	.LFE40-.LFB40
 10842 0030 00000000 		.4byte	.LFB41
 10843 0034 B0000000 		.4byte	.LFE41-.LFB41
 10844 0038 00000000 		.4byte	.LFB44
 10845 003c 680C0000 		.4byte	.LFE44-.LFB44
 10846 0040 00000000 		.4byte	.LFB37
 10847 0044 F8000000 		.4byte	.LFE37-.LFB37
 10848 0048 00000000 		.4byte	.LFB38
 10849 004c 9A000000 		.4byte	.LFE38-.LFB38
 10850 0050 00000000 		.4byte	.LFB39
 10851 0054 18000000 		.4byte	.LFE39-.LFB39
 10852 0058 00000000 		.4byte	0
 10853 005c 00000000 		.4byte	0
 10854              		.section	.debug_ranges,"",%progbits
 10855              	.Ldebug_ranges0:
 10856 0000 16000000 		.4byte	.LBB10
 10857 0004 2C000000 		.4byte	.LBE10
 10858 0008 32000000 		.4byte	.LBB16
 10859 000c B4000000 		.4byte	.LBE16
 10860 0010 00000000 		.4byte	0
 10861 0014 00000000 		.4byte	0
 10862 0018 0E000000 		.4byte	.LBB17
 10863 001c 42000000 		.4byte	.LBE17
 10864 0020 46000000 		.4byte	.LBB22
 10865 0024 74000000 		.4byte	.LBE22
 10866 0028 00000000 		.4byte	0
 10867 002c 00000000 		.4byte	0
 10868 0030 62040000 		.4byte	.LBB124
 10869 0034 78070000 		.4byte	.LBE124
 10870 0038 84070000 		.4byte	.LBB147
 10871 003c 9C070000 		.4byte	.LBE147
 10872 0040 00000000 		.4byte	0
 10873 0044 00000000 		.4byte	0
 10874 0048 38000000 		.4byte	.LBB174
 10875 004c DC000000 		.4byte	.LBE174
 10876 0050 E4000000 		.4byte	.LBB175
 10877 0054 EA000000 		.4byte	.LBE175
 10878 0058 00000000 		.4byte	0
 10879 005c 00000000 		.4byte	0
 10880 0060 00000000 		.4byte	.LFB42
 10881 0064 14000000 		.4byte	.LFE42
 10882 0068 00000000 		.4byte	.LFB43
 10883 006c 14000000 		.4byte	.LFE43
 10884 0070 00000000 		.4byte	.LFB50
 10885 0074 08000000 		.4byte	.LFE50
 10886 0078 00000000 		.4byte	.LFB40
 10887 007c D4000000 		.4byte	.LFE40
 10888 0080 00000000 		.4byte	.LFB41
ARM GAS  C:\Users\strap\AppData\Local\Temp\ccKJQbxb.s 			page 212


 10889 0084 B0000000 		.4byte	.LFE41
 10890 0088 00000000 		.4byte	.LFB44
 10891 008c 680C0000 		.4byte	.LFE44
 10892 0090 00000000 		.4byte	.LFB37
 10893 0094 F8000000 		.4byte	.LFE37
 10894 0098 00000000 		.4byte	.LFB38
 10895 009c 9A000000 		.4byte	.LFE38
 10896 00a0 00000000 		.4byte	.LFB39
 10897 00a4 18000000 		.4byte	.LFE39
 10898 00a8 00000000 		.4byte	0
 10899 00ac 00000000 		.4byte	0
 10900              		.section	.debug_line,"",%progbits
 10901              	.Ldebug_line0:
 10902 0000 68060000 		.section	.debug_str,"MS",%progbits,1
 10902      0200DC01 
 10902      00000201 
 10902      FB0E0D00 
 10902      01010101 
 10903              	.LASF77:
 10904 0000 676C7970 		.ascii	"glyph_dsc\000"
 10904      685F6473 
 10904      6300
 10905              	.LASF66:
 10906 000a 6C765F66 		.ascii	"lv_font_fmt_txt_kern_pair_t\000"
 10906      6F6E745F 
 10906      666D745F 
 10906      7478745F 
 10906      6B65726E 
 10907              	.LASF59:
 10908 0026 6C697374 		.ascii	"list_length\000"
 10908      5F6C656E 
 10908      67746800 
 10909              	.LASF38:
 10910 0032 6765745F 		.ascii	"get_glyph_bitmap\000"
 10910      676C7970 
 10910      685F6269 
 10910      746D6170 
 10910      00
 10911              	.LASF155:
 10912 0043 6C76676C 		.ascii	"lvgl\\src\\lv_font\\lv_font_fmt_txt.c\000"
 10912      5C737263 
 10912      5C6C765F 
 10912      666F6E74 
 10912      5C6C765F 
 10913              	.LASF26:
 10914 0066 6C765F66 		.ascii	"lv_font_user_data_t\000"
 10914      6F6E745F 
 10914      75736572 
 10914      5F646174 
 10914      615F7400 
 10915              	.LASF69:
 10916 007a 72696768 		.ascii	"right_class_mapping\000"
 10916      745F636C 
 10916      6173735F 
 10916      6D617070 
 10916      696E6700 
 10917              	.LASF24:
ARM GAS  C:\Users\strap\AppData\Local\Temp\ccKJQbxb.s 			page 213


 10918 008e 75696E74 		.ascii	"uintptr_t\000"
 10918      7074725F 
 10918      7400
 10919              	.LASF23:
 10920 0098 75696E74 		.ascii	"uint64_t\000"
 10920      36345F74 
 10920      00
 10921              	.LASF1:
 10922 00a1 5F5F7569 		.ascii	"__uint8_t\000"
 10922      6E74385F 
 10922      7400
 10923              	.LASF60:
 10924 00ab 74797065 		.ascii	"type\000"
 10924      00
 10925              	.LASF122:
 10926 00b0 62797465 		.ascii	"byte_pos\000"
 10926      5F706F73 
 10926      00
 10927              	.LASF104:
 10928 00b9 66647363 		.ascii	"fdsc\000"
 10928      00
 10929              	.LASF117:
 10930 00be 72696768 		.ascii	"right_class\000"
 10930      745F636C 
 10930      61737300 
 10931              	.LASF45:
 10932 00ca 6C765F66 		.ascii	"lv_font_t\000"
 10932      6F6E745F 
 10932      7400
 10933              	.LASF78:
 10934 00d4 636D6170 		.ascii	"cmaps\000"
 10934      7300
 10935              	.LASF63:
 10936 00da 76616C75 		.ascii	"values\000"
 10936      657300
 10937              	.LASF138:
 10938 00e1 6B76616C 		.ascii	"kvalue\000"
 10938      756500
 10939              	.LASF100:
 10940 00e8 756E6963 		.ascii	"unicode_list_compare\000"
 10940      6F64655F 
 10940      6C697374 
 10940      5F636F6D 
 10940      70617265 
 10941              	.LASF0:
 10942 00fd 5F5F696E 		.ascii	"__int8_t\000"
 10942      74385F74 
 10942      00
 10943              	.LASF134:
 10944 0106 6C765F66 		.ascii	"lv_font_get_glyph_dsc_fmt_txt\000"
 10944      6F6E745F 
 10944      6765745F 
 10944      676C7970 
 10944      685F6473 
 10945              	.LASF113:
 10946 0124 675F6964 		.ascii	"g_ids\000"
 10946      7300
ARM GAS  C:\Users\strap\AppData\Local\Temp\ccKJQbxb.s 			page 214


 10947              	.LASF25:
 10948 012a 6C765F63 		.ascii	"lv_coord_t\000"
 10948      6F6F7264 
 10948      5F7400
 10949              	.LASF19:
 10950 0135 696E7431 		.ascii	"int16_t\000"
 10950      365F7400 
 10951              	.LASF12:
 10952 013d 6C6F6E67 		.ascii	"long long int\000"
 10952      206C6F6E 
 10952      6720696E 
 10952      7400
 10953              	.LASF2:
 10954 014b 7369676E 		.ascii	"signed char\000"
 10954      65642063 
 10954      68617200 
 10955              	.LASF47:
 10956 0157 6269746D 		.ascii	"bitmap_index\000"
 10956      61705F69 
 10956      6E646578 
 10956      00
 10957              	.LASF41:
 10958 0164 756E6465 		.ascii	"underline_position\000"
 10958      726C696E 
 10958      655F706F 
 10958      73697469 
 10958      6F6E00
 10959              	.LASF146:
 10960 0177 5F6C765F 		.ascii	"_lv_utils_bsearch\000"
 10960      7574696C 
 10960      735F6273 
 10960      65617263 
 10960      6800
 10961              	.LASF72:
 10962 0189 6C765F66 		.ascii	"lv_font_fmt_txt_kern_classes_t\000"
 10962      6F6E745F 
 10962      666D745F 
 10962      7478745F 
 10962      6B65726E 
 10963              	.LASF65:
 10964 01a8 676C7970 		.ascii	"glyph_ids_size\000"
 10964      685F6964 
 10964      735F7369 
 10964      7A6500
 10965              	.LASF51:
 10966 01b7 4C565F46 		.ascii	"LV_FONT_FMT_TXT_CMAP_SPARSE_TINY\000"
 10966      4F4E545F 
 10966      464D545F 
 10966      5458545F 
 10966      434D4150 
 10967              	.LASF127:
 10968 01d8 6C696E65 		.ascii	"line_buf1\000"
 10968      5F627566 
 10968      3100
 10969              	.LASF9:
 10970 01e2 6C6F6E67 		.ascii	"long int\000"
 10970      20696E74 
ARM GAS  C:\Users\strap\AppData\Local\Temp\ccKJQbxb.s 			page 215


 10970      00
 10971              	.LASF114:
 10972 01eb 675F6964 		.ascii	"g_id_both\000"
 10972      5F626F74 
 10972      6800
 10973              	.LASF91:
 10974 01f5 726C655F 		.ascii	"rle_init\000"
 10974      696E6974 
 10974      00
 10975              	.LASF20:
 10976 01fe 75696E74 		.ascii	"uint16_t\000"
 10976      31365F74 
 10976      00
 10977              	.LASF153:
 10978 0207 6C765F6D 		.ascii	"lv_mem_free\000"
 10978      656D5F66 
 10978      72656500 
 10979              	.LASF102:
 10980 0213 666F6E74 		.ascii	"font\000"
 10980      00
 10981              	.LASF86:
 10982 0218 6C765F66 		.ascii	"lv_font_fmt_txt_dsc_t\000"
 10982      6F6E745F 
 10982      666D745F 
 10982      7478745F 
 10982      6473635F 
 10983              	.LASF151:
 10984 022e 6C765F64 		.ascii	"lv_debug_check_null\000"
 10984      65627567 
 10984      5F636865 
 10984      636B5F6E 
 10984      756C6C00 
 10985              	.LASF74:
 10986 0242 4C565F46 		.ascii	"LV_FONT_FMT_TXT_COMPRESSED\000"
 10986      4F4E545F 
 10986      464D545F 
 10986      5458545F 
 10986      434F4D50 
 10987              	.LASF118:
 10988 025d 726C655F 		.ascii	"rle_next\000"
 10988      6E657874 
 10988      00
 10989              	.LASF98:
 10990 0266 72656631 		.ascii	"ref16_p\000"
 10990      365F7000 
 10991              	.LASF105:
 10992 026e 676C7970 		.ascii	"glyph_id\000"
 10992      685F6964 
 10992      00
 10993              	.LASF73:
 10994 0277 4C565F46 		.ascii	"LV_FONT_FMT_TXT_PLAIN\000"
 10994      4F4E545F 
 10994      464D545F 
 10994      5458545F 
 10994      504C4149 
 10995              	.LASF52:
 10996 028d 4C565F46 		.ascii	"LV_FONT_FMT_TXT_CMAP_SPARSE_FULL\000"
ARM GAS  C:\Users\strap\AppData\Local\Temp\ccKJQbxb.s 			page 216


 10996      4F4E545F 
 10996      464D545F 
 10996      5458545F 
 10996      434D4150 
 10997              	.LASF10:
 10998 02ae 5F5F7569 		.ascii	"__uint32_t\000"
 10998      6E743332 
 10998      5F7400
 10999              	.LASF101:
 11000 02b9 6765745F 		.ascii	"get_glyph_dsc_id\000"
 11000      676C7970 
 11000      685F6473 
 11000      635F6964 
 11000      00
 11001              	.LASF43:
 11002 02ca 75736572 		.ascii	"user_data\000"
 11002      5F646174 
 11002      6100
 11003              	.LASF4:
 11004 02d4 5F5F696E 		.ascii	"__int16_t\000"
 11004      7431365F 
 11004      7400
 11005              	.LASF14:
 11006 02de 6C6F6E67 		.ascii	"long long unsigned int\000"
 11006      206C6F6E 
 11006      6720756E 
 11006      7369676E 
 11006      65642069 
 11007              	.LASF111:
 11008 02f5 76616C75 		.ascii	"value\000"
 11008      6500
 11009              	.LASF84:
 11010 02fb 6C617374 		.ascii	"last_letter\000"
 11010      5F6C6574 
 11010      74657200 
 11011              	.LASF142:
 11012 0307 726C655F 		.ascii	"rle_bpp\000"
 11012      62707000 
 11013              	.LASF135:
 11014 030f 6473635F 		.ascii	"dsc_out\000"
 11014      6F757400 
 11015              	.LASF16:
 11016 0317 756E7369 		.ascii	"unsigned int\000"
 11016      676E6564 
 11016      20696E74 
 11016      00
 11017              	.LASF37:
 11018 0324 6765745F 		.ascii	"get_glyph_dsc\000"
 11018      676C7970 
 11018      685F6473 
 11018      6300
 11019              	.LASF80:
 11020 0332 6B65726E 		.ascii	"kern_scale\000"
 11020      5F736361 
 11020      6C6500
 11021              	.LASF143:
 11022 033d 726C655F 		.ascii	"rle_prev_v\000"
ARM GAS  C:\Users\strap\AppData\Local\Temp\ccKJQbxb.s 			page 217


 11022      70726576 
 11022      5F7600
 11023              	.LASF71:
 11024 0348 72696768 		.ascii	"right_class_cnt\000"
 11024      745F636C 
 11024      6173735F 
 11024      636E7400 
 11025              	.LASF11:
 11026 0358 6C6F6E67 		.ascii	"long unsigned int\000"
 11026      20756E73 
 11026      69676E65 
 11026      6420696E 
 11026      7400
 11027              	.LASF145:
 11028 036a 726C655F 		.ascii	"rle_state\000"
 11028      73746174 
 11028      6500
 11029              	.LASF116:
 11030 0374 6C656674 		.ascii	"left_class\000"
 11030      5F636C61 
 11030      737300
 11031              	.LASF89:
 11032 037f 524C455F 		.ascii	"RLE_STATE_COUNTER\000"
 11032      53544154 
 11032      455F434F 
 11032      554E5445 
 11032      5200
 11033              	.LASF130:
 11034 0391 67647363 		.ascii	"gdsc\000"
 11034      00
 11035              	.LASF7:
 11036 0396 73686F72 		.ascii	"short unsigned int\000"
 11036      7420756E 
 11036      7369676E 
 11036      65642069 
 11036      6E7400
 11037              	.LASF55:
 11038 03a9 72616E67 		.ascii	"range_length\000"
 11038      655F6C65 
 11038      6E677468 
 11038      00
 11039              	.LASF39:
 11040 03b6 6C696E65 		.ascii	"line_height\000"
 11040      5F686569 
 11040      67687400 
 11041              	.LASF136:
 11042 03c2 756E6963 		.ascii	"unicode_letter_next\000"
 11042      6F64655F 
 11042      6C657474 
 11042      65725F6E 
 11042      65787400 
 11043              	.LASF46:
 11044 03d6 73756270 		.ascii	"subpx\000"
 11044      7800
 11045              	.LASF61:
 11046 03dc 6C765F66 		.ascii	"lv_font_fmt_txt_cmap_t\000"
 11046      6F6E745F 
ARM GAS  C:\Users\strap\AppData\Local\Temp\ccKJQbxb.s 			page 218


 11046      666D745F 
 11046      7478745F 
 11046      636D6170 
 11047              	.LASF159:
 11048 03f3 5F6C765F 		.ascii	"_lv_font_clean_up_fmt_txt\000"
 11048      666F6E74 
 11048      5F636C65 
 11048      616E5F75 
 11048      705F666D 
 11049              	.LASF75:
 11050 040d 4C565F46 		.ascii	"LV_FONT_FMT_TXT_COMPRESSED_NO_PREFILTER\000"
 11050      4F4E545F 
 11050      464D545F 
 11050      5458545F 
 11050      434F4D50 
 11051              	.LASF121:
 11052 0435 6269745F 		.ascii	"bit_mask\000"
 11052      6D61736B 
 11052      00
 11053              	.LASF8:
 11054 043e 5F5F696E 		.ascii	"__int32_t\000"
 11054      7433325F 
 11054      7400
 11055              	.LASF76:
 11056 0448 676C7970 		.ascii	"glyph_bitmap\000"
 11056      685F6269 
 11056      746D6170 
 11056      00
 11057              	.LASF36:
 11058 0455 6C765F66 		.ascii	"lv_font_glyph_dsc_t\000"
 11058      6F6E745F 
 11058      676C7970 
 11058      685F6473 
 11058      635F7400 
 11059              	.LASF109:
 11060 0469 6769645F 		.ascii	"gid_left\000"
 11060      6C656674 
 11060      00
 11061              	.LASF133:
 11062 0472 6C765F66 		.ascii	"lv_font_get_bitmap_fmt_txt\000"
 11062      6F6E745F 
 11062      6765745F 
 11062      6269746D 
 11062      61705F66 
 11063              	.LASF152:
 11064 048d 6C765F64 		.ascii	"lv_debug_log_error\000"
 11064      65627567 
 11064      5F6C6F67 
 11064      5F657272 
 11064      6F7200
 11065              	.LASF141:
 11066 04a0 726C655F 		.ascii	"rle_in\000"
 11066      696E00
 11067              	.LASF28:
 11068 04a7 73697A65 		.ascii	"sizetype\000"
 11068      74797065 
 11068      00
ARM GAS  C:\Users\strap\AppData\Local\Temp\ccKJQbxb.s 			page 219


 11069              	.LASF97:
 11070 04b0 6B65726E 		.ascii	"kern_pair_16_compare\000"
 11070      5F706169 
 11070      725F3136 
 11070      5F636F6D 
 11070      70617265 
 11071              	.LASF132:
 11072 04c5 6275665F 		.ascii	"buf_size\000"
 11072      73697A65 
 11072      00
 11073              	.LASF95:
 11074 04ce 656C656D 		.ascii	"element8_p\000"
 11074      656E7438 
 11074      5F7000
 11075              	.LASF93:
 11076 04d9 656C656D 		.ascii	"element\000"
 11076      656E7400 
 11077              	.LASF81:
 11078 04e1 636D6170 		.ascii	"cmap_num\000"
 11078      5F6E756D 
 11078      00
 11079              	.LASF58:
 11080 04ea 676C7970 		.ascii	"glyph_id_ofs_list\000"
 11080      685F6964 
 11080      5F6F6673 
 11080      5F6C6973 
 11080      7400
 11081              	.LASF129:
 11082 04fc 756E6963 		.ascii	"unicode_letter\000"
 11082      6F64655F 
 11082      6C657474 
 11082      657200
 11083              	.LASF156:
 11084 050b 433A5C55 		.ascii	"C:\\Users\\strap\\Documents\\Creator\\test_lvgl\\il"
 11084      73657273 
 11084      5C737472 
 11084      61705C44 
 11084      6F63756D 
 11085 0538 69393334 		.ascii	"i9341_master.cydsn\000"
 11085      315F6D61 
 11085      73746572 
 11085      2E637964 
 11085      736E00
 11086              	.LASF53:
 11087 054b 6C765F66 		.ascii	"lv_font_fmt_txt_cmap_type_t\000"
 11087      6F6E745F 
 11087      666D745F 
 11087      7478745F 
 11087      636D6170 
 11088              	.LASF96:
 11089 0567 6B65726E 		.ascii	"kern_pair_8_compare\000"
 11089      5F706169 
 11089      725F385F 
 11089      636F6D70 
 11089      61726500 
 11090              	.LASF123:
 11091 057b 696E3136 		.ascii	"in16\000"
ARM GAS  C:\Users\strap\AppData\Local\Temp\ccKJQbxb.s 			page 220


 11091      00
 11092              	.LASF57:
 11093 0580 756E6963 		.ascii	"unicode_list\000"
 11093      6F64655F 
 11093      6C697374 
 11093      00
 11094              	.LASF30:
 11095 058d 6C765F75 		.ascii	"lv_uintptr_t\000"
 11095      696E7470 
 11095      74725F74 
 11095      00
 11096              	.LASF13:
 11097 059a 5F5F7569 		.ascii	"__uint64_t\000"
 11097      6E743634 
 11097      5F7400
 11098              	.LASF90:
 11099 05a5 726C655F 		.ascii	"rle_state_t\000"
 11099      73746174 
 11099      655F7400 
 11100              	.LASF150:
 11101 05b1 6C765F6D 		.ascii	"lv_mem_realloc\000"
 11101      656D5F72 
 11101      65616C6C 
 11101      6F6300
 11102              	.LASF40:
 11103 05c0 62617365 		.ascii	"base_line\000"
 11103      5F6C696E 
 11103      6500
 11104              	.LASF139:
 11105 05ca 6769645F 		.ascii	"gid_next\000"
 11105      6E657874 
 11105      00
 11106              	.LASF48:
 11107 05d3 6C765F66 		.ascii	"lv_font_fmt_txt_glyph_dsc_t\000"
 11107      6F6E745F 
 11107      666D745F 
 11107      7478745F 
 11107      676C7970 
 11108              	.LASF128:
 11109 05ef 6C696E65 		.ascii	"line_buf2\000"
 11109      5F627566 
 11109      3200
 11110              	.LASF64:
 11111 05f9 70616972 		.ascii	"pair_cnt\000"
 11111      5F636E74 
 11111      00
 11112              	.LASF44:
 11113 0602 5F426F6F 		.ascii	"_Bool\000"
 11113      6C00
 11114              	.LASF21:
 11115 0608 696E7433 		.ascii	"int32_t\000"
 11115      325F7400 
 11116              	.LASF3:
 11117 0610 756E7369 		.ascii	"unsigned char\000"
 11117      676E6564 
 11117      20636861 
 11117      7200
ARM GAS  C:\Users\strap\AppData\Local\Temp\ccKJQbxb.s 			page 221


 11118              	.LASF88:
 11119 061e 524C455F 		.ascii	"RLE_STATE_REPEATE\000"
 11119      53544154 
 11119      455F5245 
 11119      50454154 
 11119      4500
 11120              	.LASF126:
 11121 0630 77725F73 		.ascii	"wr_size\000"
 11121      697A6500 
 11122              	.LASF5:
 11123 0638 73686F72 		.ascii	"short int\000"
 11123      7420696E 
 11123      7400
 11124              	.LASF92:
 11125 0642 6465636F 		.ascii	"decompress_line\000"
 11125      6D707265 
 11125      73735F6C 
 11125      696E6500 
 11126              	.LASF137:
 11127 0652 69735F74 		.ascii	"is_tab\000"
 11127      616200
 11128              	.LASF15:
 11129 0659 5F5F7569 		.ascii	"__uintptr_t\000"
 11129      6E747074 
 11129      725F7400 
 11130              	.LASF154:
 11131 0665 474E5520 		.ascii	"GNU C11 5.4.1 20160609 (release) [ARM/embedded-5-br"
 11131      43313120 
 11131      352E342E 
 11131      31203230 
 11131      31363036 
 11132 0698 616E6368 		.ascii	"anch revision 237715] -mcpu=cortex-m3 -mthumb -g -O"
 11132      20726576 
 11132      6973696F 
 11132      6E203233 
 11132      37373135 
 11133 06cb 67202D66 		.ascii	"g -ffunction-sections -ffat-lto-objects\000"
 11133      66756E63 
 11133      74696F6E 
 11133      2D736563 
 11133      74696F6E 
 11134              	.LASF85:
 11135 06f3 6C617374 		.ascii	"last_glyph_id\000"
 11135      5F676C79 
 11135      70685F69 
 11135      6400
 11136              	.LASF42:
 11137 0701 756E6465 		.ascii	"underline_thickness\000"
 11137      726C696E 
 11137      655F7468 
 11137      69636B6E 
 11137      65737300 
 11138              	.LASF94:
 11139 0715 72656638 		.ascii	"ref8_p\000"
 11139      5F7000
 11140              	.LASF110:
 11141 071c 6769645F 		.ascii	"gid_right\000"
ARM GAS  C:\Users\strap\AppData\Local\Temp\ccKJQbxb.s 			page 222


 11141      72696768 
 11141      7400
 11142              	.LASF106:
 11143 0726 6769645F 		.ascii	"gid_ofs_8\000"
 11143      6F66735F 
 11143      3800
 11144              	.LASF54:
 11145 0730 72616E67 		.ascii	"range_start\000"
 11145      655F7374 
 11145      61727400 
 11146              	.LASF148:
 11147 073c 5F6C765F 		.ascii	"_lv_mem_buf_release\000"
 11147      6D656D5F 
 11147      6275665F 
 11147      72656C65 
 11147      61736500 
 11148              	.LASF27:
 11149 0750 6C6F6E67 		.ascii	"long double\000"
 11149      20646F75 
 11149      626C6500 
 11150              	.LASF29:
 11151 075c 63686172 		.ascii	"char\000"
 11151      00
 11152              	.LASF62:
 11153 0761 676C7970 		.ascii	"glyph_ids\000"
 11153      685F6964 
 11153      7300
 11154              	.LASF6:
 11155 076b 5F5F7569 		.ascii	"__uint16_t\000"
 11155      6E743136 
 11155      5F7400
 11156              	.LASF115:
 11157 0776 6B69645F 		.ascii	"kid_p\000"
 11157      7000
 11158              	.LASF119:
 11159 077c 6765745F 		.ascii	"get_bits\000"
 11159      62697473 
 11159      00
 11160              	.LASF103:
 11161 0785 6C657474 		.ascii	"letter\000"
 11161      657200
 11162              	.LASF131:
 11163 078c 6773697A 		.ascii	"gsize\000"
 11163      6500
 11164              	.LASF31:
 11165 0792 6164765F 		.ascii	"adv_w\000"
 11165      7700
 11166              	.LASF108:
 11167 0798 6765745F 		.ascii	"get_kern_value\000"
 11167      6B65726E 
 11167      5F76616C 
 11167      756500
 11168              	.LASF56:
 11169 07a7 676C7970 		.ascii	"glyph_id_start\000"
 11169      685F6964 
 11169      5F737461 
 11169      727400
ARM GAS  C:\Users\strap\AppData\Local\Temp\ccKJQbxb.s 			page 223


 11170              	.LASF147:
 11171 07b6 5F6C765F 		.ascii	"_lv_mem_buf_get\000"
 11171      6D656D5F 
 11171      6275665F 
 11171      67657400 
 11172              	.LASF87:
 11173 07c6 524C455F 		.ascii	"RLE_STATE_SINGLE\000"
 11173      53544154 
 11173      455F5349 
 11173      4E474C45 
 11173      00
 11174              	.LASF79:
 11175 07d7 6B65726E 		.ascii	"kern_dsc\000"
 11175      5F647363 
 11175      00
 11176              	.LASF17:
 11177 07e0 696E7438 		.ascii	"int8_t\000"
 11177      5F7400
 11178              	.LASF140:
 11179 07e7 726C655F 		.ascii	"rle_rdp\000"
 11179      72647000 
 11180              	.LASF67:
 11181 07ef 636C6173 		.ascii	"class_pair_values\000"
 11181      735F7061 
 11181      69725F76 
 11181      616C7565 
 11181      7300
 11182              	.LASF33:
 11183 0801 626F785F 		.ascii	"box_h\000"
 11183      6800
 11184              	.LASF70:
 11185 0807 6C656674 		.ascii	"left_class_cnt\000"
 11185      5F636C61 
 11185      73735F63 
 11185      6E7400
 11186              	.LASF107:
 11187 0816 6769645F 		.ascii	"gid_ofs_16\000"
 11187      6F66735F 
 11187      313600
 11188              	.LASF32:
 11189 0821 626F785F 		.ascii	"box_w\000"
 11189      7700
 11190              	.LASF157:
 11191 0827 5F6C765F 		.ascii	"_lv_font_struct\000"
 11191      666F6E74 
 11191      5F737472 
 11191      75637400 
 11192              	.LASF144:
 11193 0837 726C655F 		.ascii	"rle_cnt\000"
 11193      636E7400 
 11194              	.LASF68:
 11195 083f 6C656674 		.ascii	"left_class_mapping\000"
 11195      5F636C61 
 11195      73735F6D 
 11195      61707069 
 11195      6E6700
 11196              	.LASF120:
ARM GAS  C:\Users\strap\AppData\Local\Temp\ccKJQbxb.s 			page 224


 11197 0852 6269745F 		.ascii	"bit_pos\000"
 11197      706F7300 
 11198              	.LASF99:
 11199 085a 656C656D 		.ascii	"element16_p\000"
 11199      656E7431 
 11199      365F7000 
 11200              	.LASF149:
 11201 0866 5F6C765F 		.ascii	"_lv_mem_get_size\000"
 11201      6D656D5F 
 11201      6765745F 
 11201      73697A65 
 11201      00
 11202              	.LASF18:
 11203 0877 75696E74 		.ascii	"uint8_t\000"
 11203      385F7400 
 11204              	.LASF49:
 11205 087f 4C565F46 		.ascii	"LV_FONT_FMT_TXT_CMAP_FORMAT0_TINY\000"
 11205      4F4E545F 
 11205      464D545F 
 11205      5458545F 
 11205      434D4150 
 11206              	.LASF125:
 11207 08a1 70726566 		.ascii	"prefilter\000"
 11207      696C7465 
 11207      7200
 11208              	.LASF34:
 11209 08ab 6F66735F 		.ascii	"ofs_x\000"
 11209      7800
 11210              	.LASF35:
 11211 08b1 6F66735F 		.ascii	"ofs_y\000"
 11211      7900
 11212              	.LASF112:
 11213 08b7 6B647363 		.ascii	"kdsc\000"
 11213      00
 11214              	.LASF124:
 11215 08bc 62697473 		.ascii	"bits_write\000"
 11215      5F777269 
 11215      746500
 11216              	.LASF83:
 11217 08c7 6269746D 		.ascii	"bitmap_format\000"
 11217      61705F66 
 11217      6F726D61 
 11217      7400
 11218              	.LASF160:
 11219 08d5 5F6C765F 		.ascii	"_lv_font_decompr_buf\000"
 11219      666F6E74 
 11219      5F646563 
 11219      6F6D7072 
 11219      5F627566 
 11220              	.LASF158:
 11221 08ea 6465636F 		.ascii	"decompress\000"
 11221      6D707265 
 11221      737300
 11222              	.LASF82:
 11223 08f5 6B65726E 		.ascii	"kern_classes\000"
 11223      5F636C61 
 11223      73736573 
ARM GAS  C:\Users\strap\AppData\Local\Temp\ccKJQbxb.s 			page 225


 11223      00
 11224              	.LASF22:
 11225 0902 75696E74 		.ascii	"uint32_t\000"
 11225      33325F74 
 11225      00
 11226              	.LASF50:
 11227 090b 4C565F46 		.ascii	"LV_FONT_FMT_TXT_CMAP_FORMAT0_FULL\000"
 11227      4F4E545F 
 11227      464D545F 
 11227      5458545F 
 11227      434D4150 
 11228              		.ident	"GCC: (GNU Tools for ARM Embedded Processors) 5.4.1 20160609 (release) [ARM/embedded-5-bran
