ARM GAS  C:\Users\strap\AppData\Local\Temp\ccYsGOLb.s 			page 1


   1              		.syntax unified
   2              		.cpu cortex-m3
   3              		.fpu softvfp
   4              		.eabi_attribute 20, 1
   5              		.eabi_attribute 21, 1
   6              		.eabi_attribute 23, 3
   7              		.eabi_attribute 24, 1
   8              		.eabi_attribute 25, 1
   9              		.eabi_attribute 26, 1
  10              		.eabi_attribute 30, 1
  11              		.eabi_attribute 34, 1
  12              		.eabi_attribute 18, 4
  13              		.thumb
  14              		.syntax unified
  15              		.file	"lv_group.c"
  16              		.text
  17              	.Ltext0:
  18              		.cfi_sections	.debug_frame
  19              		.section	.text.obj_to_foreground,"ax",%progbits
  20              		.align	2
  21              		.thumb
  22              		.thumb_func
  23              		.type	obj_to_foreground, %function
  24              	obj_to_foreground:
  25              	.LFB352:
  26              		.file 1 "lvgl\\src\\lv_core\\lv_group.c"
   1:lvgl\src\lv_core/lv_group.c **** /**
   2:lvgl\src\lv_core/lv_group.c ****  * @file lv_group.c
   3:lvgl\src\lv_core/lv_group.c ****  *
   4:lvgl\src\lv_core/lv_group.c ****  */
   5:lvgl\src\lv_core/lv_group.c **** 
   6:lvgl\src\lv_core/lv_group.c **** /*********************
   7:lvgl\src\lv_core/lv_group.c ****  *      INCLUDES
   8:lvgl\src\lv_core/lv_group.c ****  *********************/
   9:lvgl\src\lv_core/lv_group.c **** #include "lv_group.h"
  10:lvgl\src\lv_core/lv_group.c **** #if LV_USE_GROUP != 0
  11:lvgl\src\lv_core/lv_group.c **** #include <stddef.h>
  12:lvgl\src\lv_core/lv_group.c **** #include "../lv_misc/lv_debug.h"
  13:lvgl\src\lv_core/lv_group.c **** #include "../lv_themes/lv_theme.h"
  14:lvgl\src\lv_core/lv_group.c **** #include "../lv_misc/lv_gc.h"
  15:lvgl\src\lv_core/lv_group.c **** 
  16:lvgl\src\lv_core/lv_group.c **** #if defined(LV_GC_INCLUDE)
  17:lvgl\src\lv_core/lv_group.c ****     #include LV_GC_INCLUDE
  18:lvgl\src\lv_core/lv_group.c **** #endif /* LV_ENABLE_GC */
  19:lvgl\src\lv_core/lv_group.c **** 
  20:lvgl\src\lv_core/lv_group.c **** /*********************
  21:lvgl\src\lv_core/lv_group.c ****  *      DEFINES
  22:lvgl\src\lv_core/lv_group.c ****  *********************/
  23:lvgl\src\lv_core/lv_group.c **** 
  24:lvgl\src\lv_core/lv_group.c **** /**********************
  25:lvgl\src\lv_core/lv_group.c ****  *      TYPEDEFS
  26:lvgl\src\lv_core/lv_group.c ****  **********************/
  27:lvgl\src\lv_core/lv_group.c **** 
  28:lvgl\src\lv_core/lv_group.c **** /**********************
  29:lvgl\src\lv_core/lv_group.c ****  *  STATIC PROTOTYPES
  30:lvgl\src\lv_core/lv_group.c ****  **********************/
  31:lvgl\src\lv_core/lv_group.c **** static void focus_next_core(lv_group_t * group, void * (*begin)(const lv_ll_t *),
ARM GAS  C:\Users\strap\AppData\Local\Temp\ccYsGOLb.s 			page 2


  32:lvgl\src\lv_core/lv_group.c ****                             void * (*move)(const lv_ll_t *, const void *));
  33:lvgl\src\lv_core/lv_group.c **** static void lv_group_refocus(lv_group_t * g);
  34:lvgl\src\lv_core/lv_group.c **** static void obj_to_foreground(lv_obj_t * obj);
  35:lvgl\src\lv_core/lv_group.c **** 
  36:lvgl\src\lv_core/lv_group.c **** /**********************
  37:lvgl\src\lv_core/lv_group.c ****  *  STATIC VARIABLES
  38:lvgl\src\lv_core/lv_group.c ****  **********************/
  39:lvgl\src\lv_core/lv_group.c **** 
  40:lvgl\src\lv_core/lv_group.c **** /**********************
  41:lvgl\src\lv_core/lv_group.c ****  *      MACROS
  42:lvgl\src\lv_core/lv_group.c ****  **********************/
  43:lvgl\src\lv_core/lv_group.c **** 
  44:lvgl\src\lv_core/lv_group.c **** /**********************
  45:lvgl\src\lv_core/lv_group.c ****  *   GLOBAL FUNCTIONS
  46:lvgl\src\lv_core/lv_group.c ****  **********************/
  47:lvgl\src\lv_core/lv_group.c **** 
  48:lvgl\src\lv_core/lv_group.c **** /**
  49:lvgl\src\lv_core/lv_group.c ****  * Init. the group module
  50:lvgl\src\lv_core/lv_group.c ****  */
  51:lvgl\src\lv_core/lv_group.c **** void _lv_group_init(void)
  52:lvgl\src\lv_core/lv_group.c **** {
  53:lvgl\src\lv_core/lv_group.c ****     _lv_ll_init(&LV_GC_ROOT(_lv_group_ll), sizeof(lv_group_t));
  54:lvgl\src\lv_core/lv_group.c **** }
  55:lvgl\src\lv_core/lv_group.c **** 
  56:lvgl\src\lv_core/lv_group.c **** /**
  57:lvgl\src\lv_core/lv_group.c ****  * Create a new object group
  58:lvgl\src\lv_core/lv_group.c ****  * @return pointer to the new object group
  59:lvgl\src\lv_core/lv_group.c ****  */
  60:lvgl\src\lv_core/lv_group.c **** lv_group_t * lv_group_create(void)
  61:lvgl\src\lv_core/lv_group.c **** {
  62:lvgl\src\lv_core/lv_group.c ****     lv_group_t * group = _lv_ll_ins_head(&LV_GC_ROOT(_lv_group_ll));
  63:lvgl\src\lv_core/lv_group.c ****     LV_ASSERT_MEM(group);
  64:lvgl\src\lv_core/lv_group.c ****     if(group == NULL) return NULL;
  65:lvgl\src\lv_core/lv_group.c ****     _lv_ll_init(&group->obj_ll, sizeof(lv_obj_t *));
  66:lvgl\src\lv_core/lv_group.c **** 
  67:lvgl\src\lv_core/lv_group.c ****     group->obj_focus      = NULL;
  68:lvgl\src\lv_core/lv_group.c ****     group->frozen         = 0;
  69:lvgl\src\lv_core/lv_group.c ****     group->focus_cb       = NULL;
  70:lvgl\src\lv_core/lv_group.c ****     group->click_focus    = 1;
  71:lvgl\src\lv_core/lv_group.c ****     group->editing        = 0;
  72:lvgl\src\lv_core/lv_group.c ****     group->refocus_policy = LV_GROUP_REFOCUS_POLICY_PREV;
  73:lvgl\src\lv_core/lv_group.c ****     group->wrap           = 1;
  74:lvgl\src\lv_core/lv_group.c **** 
  75:lvgl\src\lv_core/lv_group.c **** #if LV_USE_USER_DATA
  76:lvgl\src\lv_core/lv_group.c ****     _lv_memset_00(&group->user_data, sizeof(lv_group_user_data_t));
  77:lvgl\src\lv_core/lv_group.c **** #endif
  78:lvgl\src\lv_core/lv_group.c **** 
  79:lvgl\src\lv_core/lv_group.c ****     return group;
  80:lvgl\src\lv_core/lv_group.c **** }
  81:lvgl\src\lv_core/lv_group.c **** 
  82:lvgl\src\lv_core/lv_group.c **** /**
  83:lvgl\src\lv_core/lv_group.c ****  * Delete a group object
  84:lvgl\src\lv_core/lv_group.c ****  * @param group pointer to a group
  85:lvgl\src\lv_core/lv_group.c ****  */
  86:lvgl\src\lv_core/lv_group.c **** void lv_group_del(lv_group_t * group)
  87:lvgl\src\lv_core/lv_group.c **** {
  88:lvgl\src\lv_core/lv_group.c ****     /*Defocus the the currently focused object*/
ARM GAS  C:\Users\strap\AppData\Local\Temp\ccYsGOLb.s 			page 3


  89:lvgl\src\lv_core/lv_group.c ****     if(group->obj_focus != NULL) {
  90:lvgl\src\lv_core/lv_group.c ****         (*group->obj_focus)->signal_cb(*group->obj_focus, LV_SIGNAL_DEFOCUS, NULL);
  91:lvgl\src\lv_core/lv_group.c ****         lv_obj_invalidate(*group->obj_focus);
  92:lvgl\src\lv_core/lv_group.c ****     }
  93:lvgl\src\lv_core/lv_group.c **** 
  94:lvgl\src\lv_core/lv_group.c ****     /*Remove the objects from the group*/
  95:lvgl\src\lv_core/lv_group.c ****     lv_obj_t ** obj;
  96:lvgl\src\lv_core/lv_group.c ****     _LV_LL_READ(group->obj_ll, obj) {
  97:lvgl\src\lv_core/lv_group.c ****         (*obj)->group_p = NULL;
  98:lvgl\src\lv_core/lv_group.c ****     }
  99:lvgl\src\lv_core/lv_group.c **** 
 100:lvgl\src\lv_core/lv_group.c ****     _lv_ll_clear(&(group->obj_ll));
 101:lvgl\src\lv_core/lv_group.c ****     _lv_ll_remove(&LV_GC_ROOT(_lv_group_ll), group);
 102:lvgl\src\lv_core/lv_group.c ****     lv_mem_free(group);
 103:lvgl\src\lv_core/lv_group.c **** }
 104:lvgl\src\lv_core/lv_group.c **** 
 105:lvgl\src\lv_core/lv_group.c **** /**
 106:lvgl\src\lv_core/lv_group.c ****  * Add an object to a group
 107:lvgl\src\lv_core/lv_group.c ****  * @param group pointer to a group
 108:lvgl\src\lv_core/lv_group.c ****  * @param obj pointer to an object to add
 109:lvgl\src\lv_core/lv_group.c ****  */
 110:lvgl\src\lv_core/lv_group.c **** void lv_group_add_obj(lv_group_t * group, lv_obj_t * obj)
 111:lvgl\src\lv_core/lv_group.c **** {
 112:lvgl\src\lv_core/lv_group.c ****     if(group == NULL) return;
 113:lvgl\src\lv_core/lv_group.c ****     /*Do not add the object twice*/
 114:lvgl\src\lv_core/lv_group.c ****     lv_obj_t ** obj_i;
 115:lvgl\src\lv_core/lv_group.c ****     _LV_LL_READ(group->obj_ll, obj_i) {
 116:lvgl\src\lv_core/lv_group.c ****         if((*obj_i) == obj) {
 117:lvgl\src\lv_core/lv_group.c ****             LV_LOG_INFO("lv_group_add_obj: the object is already added to this group");
 118:lvgl\src\lv_core/lv_group.c ****             return;
 119:lvgl\src\lv_core/lv_group.c ****         }
 120:lvgl\src\lv_core/lv_group.c ****     }
 121:lvgl\src\lv_core/lv_group.c **** 
 122:lvgl\src\lv_core/lv_group.c ****     /*If the object is already in a group and focused then defocus it*/
 123:lvgl\src\lv_core/lv_group.c ****     if(obj->group_p) {
 124:lvgl\src\lv_core/lv_group.c ****         if(lv_obj_is_focused(obj)) {
 125:lvgl\src\lv_core/lv_group.c ****             lv_group_refocus(obj->group_p);
 126:lvgl\src\lv_core/lv_group.c **** 
 127:lvgl\src\lv_core/lv_group.c ****             LV_LOG_INFO("lv_group_add_obj: assign object to an other group");
 128:lvgl\src\lv_core/lv_group.c ****         }
 129:lvgl\src\lv_core/lv_group.c ****     }
 130:lvgl\src\lv_core/lv_group.c **** 
 131:lvgl\src\lv_core/lv_group.c ****     obj->group_p     = group;
 132:lvgl\src\lv_core/lv_group.c ****     lv_obj_t ** next = _lv_ll_ins_tail(&group->obj_ll);
 133:lvgl\src\lv_core/lv_group.c ****     LV_ASSERT_MEM(next);
 134:lvgl\src\lv_core/lv_group.c ****     if(next == NULL) return;
 135:lvgl\src\lv_core/lv_group.c ****     *next = obj;
 136:lvgl\src\lv_core/lv_group.c **** 
 137:lvgl\src\lv_core/lv_group.c ****     /* If the head and the tail is equal then there is only one object in the linked list.
 138:lvgl\src\lv_core/lv_group.c ****      * In this case automatically activate it*/
 139:lvgl\src\lv_core/lv_group.c ****     if(_lv_ll_get_head(&group->obj_ll) == next) {
 140:lvgl\src\lv_core/lv_group.c ****         lv_group_refocus(group);
 141:lvgl\src\lv_core/lv_group.c ****     }
 142:lvgl\src\lv_core/lv_group.c **** }
 143:lvgl\src\lv_core/lv_group.c **** 
 144:lvgl\src\lv_core/lv_group.c **** /**
 145:lvgl\src\lv_core/lv_group.c ****  * Remove an object from its group
ARM GAS  C:\Users\strap\AppData\Local\Temp\ccYsGOLb.s 			page 4


 146:lvgl\src\lv_core/lv_group.c ****  * @param obj pointer to an object to remove
 147:lvgl\src\lv_core/lv_group.c ****  */
 148:lvgl\src\lv_core/lv_group.c **** void lv_group_remove_obj(lv_obj_t * obj)
 149:lvgl\src\lv_core/lv_group.c **** {
 150:lvgl\src\lv_core/lv_group.c ****     lv_group_t * g = obj->group_p;
 151:lvgl\src\lv_core/lv_group.c ****     if(g == NULL) return;
 152:lvgl\src\lv_core/lv_group.c ****     if(g->obj_focus == NULL) return; /*Just to be sure (Not possible if there is at least one objec
 153:lvgl\src\lv_core/lv_group.c **** 
 154:lvgl\src\lv_core/lv_group.c ****     /*Focus on the next object*/
 155:lvgl\src\lv_core/lv_group.c ****     if(*g->obj_focus == obj) {
 156:lvgl\src\lv_core/lv_group.c ****         if(g->frozen) g->frozen = 0;
 157:lvgl\src\lv_core/lv_group.c **** 
 158:lvgl\src\lv_core/lv_group.c ****         /*If this is the only object in the group then focus to nothing.*/
 159:lvgl\src\lv_core/lv_group.c ****         if(_lv_ll_get_head(&g->obj_ll) == g->obj_focus && _lv_ll_get_tail(&g->obj_ll) == g->obj_foc
 160:lvgl\src\lv_core/lv_group.c ****             (*g->obj_focus)->signal_cb(*g->obj_focus, LV_SIGNAL_DEFOCUS, NULL);
 161:lvgl\src\lv_core/lv_group.c ****         }
 162:lvgl\src\lv_core/lv_group.c ****         /*If there more objects in the group then focus to the next/prev object*/
 163:lvgl\src\lv_core/lv_group.c ****         else {
 164:lvgl\src\lv_core/lv_group.c ****             lv_group_refocus(g);
 165:lvgl\src\lv_core/lv_group.c ****         }
 166:lvgl\src\lv_core/lv_group.c ****     }
 167:lvgl\src\lv_core/lv_group.c **** 
 168:lvgl\src\lv_core/lv_group.c ****     /* If the focuses object is still the same then it was the only object in the group but it will
 169:lvgl\src\lv_core/lv_group.c ****      * be deleted. Set the `obj_focus` to NULL to get back to the initial state of the group with
 170:lvgl\src\lv_core/lv_group.c ****      * zero objects*/
 171:lvgl\src\lv_core/lv_group.c ****     if(*g->obj_focus == obj) {
 172:lvgl\src\lv_core/lv_group.c ****         g->obj_focus = NULL;
 173:lvgl\src\lv_core/lv_group.c ****     }
 174:lvgl\src\lv_core/lv_group.c **** 
 175:lvgl\src\lv_core/lv_group.c ****     /*Search the object and remove it from its group */
 176:lvgl\src\lv_core/lv_group.c ****     lv_obj_t ** i;
 177:lvgl\src\lv_core/lv_group.c ****     _LV_LL_READ(g->obj_ll, i) {
 178:lvgl\src\lv_core/lv_group.c ****         if(*i == obj) {
 179:lvgl\src\lv_core/lv_group.c ****             _lv_ll_remove(&g->obj_ll, i);
 180:lvgl\src\lv_core/lv_group.c ****             lv_mem_free(i);
 181:lvgl\src\lv_core/lv_group.c ****             obj->group_p = NULL;
 182:lvgl\src\lv_core/lv_group.c ****             break;
 183:lvgl\src\lv_core/lv_group.c ****         }
 184:lvgl\src\lv_core/lv_group.c ****     }
 185:lvgl\src\lv_core/lv_group.c **** }
 186:lvgl\src\lv_core/lv_group.c **** 
 187:lvgl\src\lv_core/lv_group.c **** /**
 188:lvgl\src\lv_core/lv_group.c ****  * Remove all objects from a group
 189:lvgl\src\lv_core/lv_group.c ****  * @param group pointer to a group
 190:lvgl\src\lv_core/lv_group.c ****  */
 191:lvgl\src\lv_core/lv_group.c **** void lv_group_remove_all_objs(lv_group_t * group)
 192:lvgl\src\lv_core/lv_group.c **** {
 193:lvgl\src\lv_core/lv_group.c ****     /*Defocus the the currently focused object*/
 194:lvgl\src\lv_core/lv_group.c ****     if(group->obj_focus != NULL) {
 195:lvgl\src\lv_core/lv_group.c ****         (*group->obj_focus)->signal_cb(*group->obj_focus, LV_SIGNAL_DEFOCUS, NULL);
 196:lvgl\src\lv_core/lv_group.c ****         lv_obj_invalidate(*group->obj_focus);
 197:lvgl\src\lv_core/lv_group.c ****         group->obj_focus = NULL;
 198:lvgl\src\lv_core/lv_group.c ****     }
 199:lvgl\src\lv_core/lv_group.c **** 
 200:lvgl\src\lv_core/lv_group.c ****     /*Remove the objects from the group*/
 201:lvgl\src\lv_core/lv_group.c ****     lv_obj_t ** obj;
 202:lvgl\src\lv_core/lv_group.c ****     _LV_LL_READ(group->obj_ll, obj) {
ARM GAS  C:\Users\strap\AppData\Local\Temp\ccYsGOLb.s 			page 5


 203:lvgl\src\lv_core/lv_group.c ****         (*obj)->group_p = NULL;
 204:lvgl\src\lv_core/lv_group.c ****     }
 205:lvgl\src\lv_core/lv_group.c **** 
 206:lvgl\src\lv_core/lv_group.c ****     _lv_ll_clear(&(group->obj_ll));
 207:lvgl\src\lv_core/lv_group.c **** }
 208:lvgl\src\lv_core/lv_group.c **** 
 209:lvgl\src\lv_core/lv_group.c **** /**
 210:lvgl\src\lv_core/lv_group.c ****  * Focus on an object (defocus the current)
 211:lvgl\src\lv_core/lv_group.c ****  * @param obj pointer to an object to focus on
 212:lvgl\src\lv_core/lv_group.c ****  */
 213:lvgl\src\lv_core/lv_group.c **** void lv_group_focus_obj(lv_obj_t * obj)
 214:lvgl\src\lv_core/lv_group.c **** {
 215:lvgl\src\lv_core/lv_group.c ****     if(obj == NULL) return;
 216:lvgl\src\lv_core/lv_group.c ****     lv_group_t * g = obj->group_p;
 217:lvgl\src\lv_core/lv_group.c ****     if(g == NULL) return;
 218:lvgl\src\lv_core/lv_group.c **** 
 219:lvgl\src\lv_core/lv_group.c ****     if(g->frozen != 0) return;
 220:lvgl\src\lv_core/lv_group.c **** 
 221:lvgl\src\lv_core/lv_group.c ****     if(g->obj_focus != NULL && obj == *g->obj_focus) return;
 222:lvgl\src\lv_core/lv_group.c **** 
 223:lvgl\src\lv_core/lv_group.c ****     /*On defocus edit mode must be leaved*/
 224:lvgl\src\lv_core/lv_group.c ****     lv_group_set_editing(g, false);
 225:lvgl\src\lv_core/lv_group.c **** 
 226:lvgl\src\lv_core/lv_group.c ****     lv_obj_t ** i;
 227:lvgl\src\lv_core/lv_group.c ****     _LV_LL_READ(g->obj_ll, i) {
 228:lvgl\src\lv_core/lv_group.c ****         if(*i == obj) {
 229:lvgl\src\lv_core/lv_group.c ****             if(g->obj_focus != NULL) {
 230:lvgl\src\lv_core/lv_group.c ****                 (*g->obj_focus)->signal_cb(*g->obj_focus, LV_SIGNAL_DEFOCUS, NULL);
 231:lvgl\src\lv_core/lv_group.c ****                 lv_res_t res = lv_event_send(*g->obj_focus, LV_EVENT_DEFOCUSED, NULL);
 232:lvgl\src\lv_core/lv_group.c ****                 if(res != LV_RES_OK) return;
 233:lvgl\src\lv_core/lv_group.c ****                 lv_obj_invalidate(*g->obj_focus);
 234:lvgl\src\lv_core/lv_group.c ****             }
 235:lvgl\src\lv_core/lv_group.c **** 
 236:lvgl\src\lv_core/lv_group.c ****             g->obj_focus = i;
 237:lvgl\src\lv_core/lv_group.c **** 
 238:lvgl\src\lv_core/lv_group.c ****             if(g->obj_focus != NULL) {
 239:lvgl\src\lv_core/lv_group.c ****                 (*g->obj_focus)->signal_cb(*g->obj_focus, LV_SIGNAL_FOCUS, NULL);
 240:lvgl\src\lv_core/lv_group.c ****                 if(g->focus_cb) g->focus_cb(g);
 241:lvgl\src\lv_core/lv_group.c ****                 lv_res_t res = lv_event_send(*g->obj_focus, LV_EVENT_FOCUSED, NULL);
 242:lvgl\src\lv_core/lv_group.c ****                 if(res != LV_RES_OK) return;
 243:lvgl\src\lv_core/lv_group.c ****                 lv_obj_invalidate(*g->obj_focus);
 244:lvgl\src\lv_core/lv_group.c **** 
 245:lvgl\src\lv_core/lv_group.c ****                 /*If the object or its parent has `top == true` bring it to the foreground*/
 246:lvgl\src\lv_core/lv_group.c ****                 obj_to_foreground(*g->obj_focus);
 247:lvgl\src\lv_core/lv_group.c ****             }
 248:lvgl\src\lv_core/lv_group.c ****             break;
 249:lvgl\src\lv_core/lv_group.c ****         }
 250:lvgl\src\lv_core/lv_group.c ****     }
 251:lvgl\src\lv_core/lv_group.c **** }
 252:lvgl\src\lv_core/lv_group.c **** 
 253:lvgl\src\lv_core/lv_group.c **** /**
 254:lvgl\src\lv_core/lv_group.c ****  * Focus the next object in a group (defocus the current)
 255:lvgl\src\lv_core/lv_group.c ****  * @param group pointer to a group
 256:lvgl\src\lv_core/lv_group.c ****  */
 257:lvgl\src\lv_core/lv_group.c **** void lv_group_focus_next(lv_group_t * group)
 258:lvgl\src\lv_core/lv_group.c **** {
 259:lvgl\src\lv_core/lv_group.c ****     focus_next_core(group, _lv_ll_get_head, _lv_ll_get_next);
ARM GAS  C:\Users\strap\AppData\Local\Temp\ccYsGOLb.s 			page 6


 260:lvgl\src\lv_core/lv_group.c **** }
 261:lvgl\src\lv_core/lv_group.c **** 
 262:lvgl\src\lv_core/lv_group.c **** /**
 263:lvgl\src\lv_core/lv_group.c ****  * Focus the previous object in a group (defocus the current)
 264:lvgl\src\lv_core/lv_group.c ****  * @param group pointer to a group
 265:lvgl\src\lv_core/lv_group.c ****  */
 266:lvgl\src\lv_core/lv_group.c **** void lv_group_focus_prev(lv_group_t * group)
 267:lvgl\src\lv_core/lv_group.c **** {
 268:lvgl\src\lv_core/lv_group.c ****     focus_next_core(group, _lv_ll_get_tail, _lv_ll_get_prev);
 269:lvgl\src\lv_core/lv_group.c **** }
 270:lvgl\src\lv_core/lv_group.c **** 
 271:lvgl\src\lv_core/lv_group.c **** /**
 272:lvgl\src\lv_core/lv_group.c ****  * Do not let to change the focus from the current object
 273:lvgl\src\lv_core/lv_group.c ****  * @param group pointer to a group
 274:lvgl\src\lv_core/lv_group.c ****  * @param en true: freeze, false: release freezing (normal mode)
 275:lvgl\src\lv_core/lv_group.c ****  */
 276:lvgl\src\lv_core/lv_group.c **** void lv_group_focus_freeze(lv_group_t * group, bool en)
 277:lvgl\src\lv_core/lv_group.c **** {
 278:lvgl\src\lv_core/lv_group.c ****     if(en == false)
 279:lvgl\src\lv_core/lv_group.c ****         group->frozen = 0;
 280:lvgl\src\lv_core/lv_group.c ****     else
 281:lvgl\src\lv_core/lv_group.c ****         group->frozen = 1;
 282:lvgl\src\lv_core/lv_group.c **** }
 283:lvgl\src\lv_core/lv_group.c **** 
 284:lvgl\src\lv_core/lv_group.c **** /**
 285:lvgl\src\lv_core/lv_group.c ****  * Send a control character to the focuses object of a group
 286:lvgl\src\lv_core/lv_group.c ****  * @param group pointer to a group
 287:lvgl\src\lv_core/lv_group.c ****  * @param c a character (use LV_KEY_.. to navigate)
 288:lvgl\src\lv_core/lv_group.c ****  * @return result of focused object in group.
 289:lvgl\src\lv_core/lv_group.c ****  */
 290:lvgl\src\lv_core/lv_group.c **** lv_res_t lv_group_send_data(lv_group_t * group, uint32_t c)
 291:lvgl\src\lv_core/lv_group.c **** {
 292:lvgl\src\lv_core/lv_group.c ****     lv_obj_t * act = lv_group_get_focused(group);
 293:lvgl\src\lv_core/lv_group.c ****     if(act == NULL) return LV_RES_OK;
 294:lvgl\src\lv_core/lv_group.c **** 
 295:lvgl\src\lv_core/lv_group.c ****     lv_res_t res;
 296:lvgl\src\lv_core/lv_group.c **** 
 297:lvgl\src\lv_core/lv_group.c ****     res = act->signal_cb(act, LV_SIGNAL_CONTROL, &c);
 298:lvgl\src\lv_core/lv_group.c ****     if(res != LV_RES_OK) return res;
 299:lvgl\src\lv_core/lv_group.c **** 
 300:lvgl\src\lv_core/lv_group.c ****     res = lv_event_send(act, LV_EVENT_KEY, &c);
 301:lvgl\src\lv_core/lv_group.c ****     if(res != LV_RES_OK) return res;
 302:lvgl\src\lv_core/lv_group.c **** 
 303:lvgl\src\lv_core/lv_group.c ****     return res;
 304:lvgl\src\lv_core/lv_group.c **** }
 305:lvgl\src\lv_core/lv_group.c **** 
 306:lvgl\src\lv_core/lv_group.c **** /**
 307:lvgl\src\lv_core/lv_group.c ****  * Set a function for a group which will be called when a new object is focused
 308:lvgl\src\lv_core/lv_group.c ****  * @param group pointer to a group
 309:lvgl\src\lv_core/lv_group.c ****  * @param focus_cb the call back function or NULL if unused
 310:lvgl\src\lv_core/lv_group.c ****  */
 311:lvgl\src\lv_core/lv_group.c **** void lv_group_set_focus_cb(lv_group_t * group, lv_group_focus_cb_t focus_cb)
 312:lvgl\src\lv_core/lv_group.c **** {
 313:lvgl\src\lv_core/lv_group.c ****     group->focus_cb = focus_cb;
 314:lvgl\src\lv_core/lv_group.c **** }
 315:lvgl\src\lv_core/lv_group.c **** 
 316:lvgl\src\lv_core/lv_group.c **** /**
ARM GAS  C:\Users\strap\AppData\Local\Temp\ccYsGOLb.s 			page 7


 317:lvgl\src\lv_core/lv_group.c ****  * Manually set the current mode (edit or navigate).
 318:lvgl\src\lv_core/lv_group.c ****  * @param group pointer to group
 319:lvgl\src\lv_core/lv_group.c ****  * @param edit: true: edit mode; false: navigate mode
 320:lvgl\src\lv_core/lv_group.c ****  */
 321:lvgl\src\lv_core/lv_group.c **** void lv_group_set_editing(lv_group_t * group, bool edit)
 322:lvgl\src\lv_core/lv_group.c **** {
 323:lvgl\src\lv_core/lv_group.c ****     if(group == NULL) return;
 324:lvgl\src\lv_core/lv_group.c ****     uint8_t en_val = edit ? 1 : 0;
 325:lvgl\src\lv_core/lv_group.c **** 
 326:lvgl\src\lv_core/lv_group.c ****     if(en_val == group->editing) return; /*Do not set the same mode again*/
 327:lvgl\src\lv_core/lv_group.c **** 
 328:lvgl\src\lv_core/lv_group.c ****     group->editing     = en_val;
 329:lvgl\src\lv_core/lv_group.c ****     lv_obj_t * focused = lv_group_get_focused(group);
 330:lvgl\src\lv_core/lv_group.c **** 
 331:lvgl\src\lv_core/lv_group.c ****     if(focused) {
 332:lvgl\src\lv_core/lv_group.c ****         focused->signal_cb(focused, LV_SIGNAL_FOCUS, NULL); /*Focus again to properly leave/open ed
 333:lvgl\src\lv_core/lv_group.c ****         lv_res_t res = lv_event_send(*group->obj_focus, LV_EVENT_FOCUSED, NULL);
 334:lvgl\src\lv_core/lv_group.c ****         if(res != LV_RES_OK) return;
 335:lvgl\src\lv_core/lv_group.c **** 
 336:lvgl\src\lv_core/lv_group.c ****         lv_obj_invalidate(focused);
 337:lvgl\src\lv_core/lv_group.c ****     }
 338:lvgl\src\lv_core/lv_group.c **** }
 339:lvgl\src\lv_core/lv_group.c **** 
 340:lvgl\src\lv_core/lv_group.c **** /**
 341:lvgl\src\lv_core/lv_group.c ****  * Set the `click_focus` attribute. If enabled then the object will be focused then it is clicked.
 342:lvgl\src\lv_core/lv_group.c ****  * @param group pointer to group
 343:lvgl\src\lv_core/lv_group.c ****  * @param en: true: enable `click_focus`
 344:lvgl\src\lv_core/lv_group.c ****  */
 345:lvgl\src\lv_core/lv_group.c **** void lv_group_set_click_focus(lv_group_t * group, bool en)
 346:lvgl\src\lv_core/lv_group.c **** {
 347:lvgl\src\lv_core/lv_group.c ****     group->click_focus = en ? 1 : 0;
 348:lvgl\src\lv_core/lv_group.c **** }
 349:lvgl\src\lv_core/lv_group.c **** 
 350:lvgl\src\lv_core/lv_group.c **** void lv_group_set_refocus_policy(lv_group_t * group, lv_group_refocus_policy_t policy)
 351:lvgl\src\lv_core/lv_group.c **** {
 352:lvgl\src\lv_core/lv_group.c ****     group->refocus_policy = policy & 0x01;
 353:lvgl\src\lv_core/lv_group.c **** }
 354:lvgl\src\lv_core/lv_group.c **** 
 355:lvgl\src\lv_core/lv_group.c **** /**
 356:lvgl\src\lv_core/lv_group.c ****  * Set whether focus next/prev will allow wrapping from first->last or last->first.
 357:lvgl\src\lv_core/lv_group.c ****  * @param group pointer to group
 358:lvgl\src\lv_core/lv_group.c ****  * @param en: true: enable `wrap`
 359:lvgl\src\lv_core/lv_group.c ****  */
 360:lvgl\src\lv_core/lv_group.c **** void lv_group_set_wrap(lv_group_t * group, bool en)
 361:lvgl\src\lv_core/lv_group.c **** {
 362:lvgl\src\lv_core/lv_group.c ****     group->wrap = en ? 1 : 0;
 363:lvgl\src\lv_core/lv_group.c **** }
 364:lvgl\src\lv_core/lv_group.c **** 
 365:lvgl\src\lv_core/lv_group.c **** /**
 366:lvgl\src\lv_core/lv_group.c ****  * Get the focused object or NULL if there isn't one
 367:lvgl\src\lv_core/lv_group.c ****  * @param group pointer to a group
 368:lvgl\src\lv_core/lv_group.c ****  * @return pointer to the focused object
 369:lvgl\src\lv_core/lv_group.c ****  */
 370:lvgl\src\lv_core/lv_group.c **** lv_obj_t * lv_group_get_focused(const lv_group_t * group)
 371:lvgl\src\lv_core/lv_group.c **** {
 372:lvgl\src\lv_core/lv_group.c ****     if(!group) return NULL;
 373:lvgl\src\lv_core/lv_group.c ****     if(group->obj_focus == NULL) return NULL;
ARM GAS  C:\Users\strap\AppData\Local\Temp\ccYsGOLb.s 			page 8


 374:lvgl\src\lv_core/lv_group.c **** 
 375:lvgl\src\lv_core/lv_group.c ****     return *group->obj_focus;
 376:lvgl\src\lv_core/lv_group.c **** }
 377:lvgl\src\lv_core/lv_group.c **** 
 378:lvgl\src\lv_core/lv_group.c **** #if LV_USE_USER_DATA
 379:lvgl\src\lv_core/lv_group.c **** /**
 380:lvgl\src\lv_core/lv_group.c ****  * Get a pointer to the group's user data
 381:lvgl\src\lv_core/lv_group.c ****  * @param group pointer to an group
 382:lvgl\src\lv_core/lv_group.c ****  * @return pointer to the user data
 383:lvgl\src\lv_core/lv_group.c ****  */
 384:lvgl\src\lv_core/lv_group.c **** lv_group_user_data_t * lv_group_get_user_data(lv_group_t * group)
 385:lvgl\src\lv_core/lv_group.c **** {
 386:lvgl\src\lv_core/lv_group.c ****     return &group->user_data;
 387:lvgl\src\lv_core/lv_group.c **** }
 388:lvgl\src\lv_core/lv_group.c **** #endif
 389:lvgl\src\lv_core/lv_group.c **** 
 390:lvgl\src\lv_core/lv_group.c **** /**
 391:lvgl\src\lv_core/lv_group.c ****  * Get the focus callback function of a group
 392:lvgl\src\lv_core/lv_group.c ****  * @param group pointer to a group
 393:lvgl\src\lv_core/lv_group.c ****  * @return the call back function or NULL if not set
 394:lvgl\src\lv_core/lv_group.c ****  */
 395:lvgl\src\lv_core/lv_group.c **** lv_group_focus_cb_t lv_group_get_focus_cb(const lv_group_t * group)
 396:lvgl\src\lv_core/lv_group.c **** {
 397:lvgl\src\lv_core/lv_group.c ****     if(!group) return NULL;
 398:lvgl\src\lv_core/lv_group.c ****     return group->focus_cb;
 399:lvgl\src\lv_core/lv_group.c **** }
 400:lvgl\src\lv_core/lv_group.c **** 
 401:lvgl\src\lv_core/lv_group.c **** /**
 402:lvgl\src\lv_core/lv_group.c ****  * Get the current mode (edit or navigate).
 403:lvgl\src\lv_core/lv_group.c ****  * @param group pointer to group
 404:lvgl\src\lv_core/lv_group.c ****  * @return true: edit mode; false: navigate mode
 405:lvgl\src\lv_core/lv_group.c ****  */
 406:lvgl\src\lv_core/lv_group.c **** bool lv_group_get_editing(const lv_group_t * group)
 407:lvgl\src\lv_core/lv_group.c **** {
 408:lvgl\src\lv_core/lv_group.c ****     if(!group) return false;
 409:lvgl\src\lv_core/lv_group.c ****     return group->editing ? true : false;
 410:lvgl\src\lv_core/lv_group.c **** }
 411:lvgl\src\lv_core/lv_group.c **** 
 412:lvgl\src\lv_core/lv_group.c **** /**
 413:lvgl\src\lv_core/lv_group.c ****  * Get the `click_focus` attribute.
 414:lvgl\src\lv_core/lv_group.c ****  * @param group pointer to group
 415:lvgl\src\lv_core/lv_group.c ****  * @return true: `click_focus` is enabled; false: disabled
 416:lvgl\src\lv_core/lv_group.c ****  */
 417:lvgl\src\lv_core/lv_group.c **** bool lv_group_get_click_focus(const lv_group_t * group)
 418:lvgl\src\lv_core/lv_group.c **** {
 419:lvgl\src\lv_core/lv_group.c ****     if(!group) return false;
 420:lvgl\src\lv_core/lv_group.c ****     return group->click_focus ? true : false;
 421:lvgl\src\lv_core/lv_group.c **** }
 422:lvgl\src\lv_core/lv_group.c **** 
 423:lvgl\src\lv_core/lv_group.c **** /**
 424:lvgl\src\lv_core/lv_group.c ****  * Get whether focus next/prev will allow wrapping from first->last or last->first object.
 425:lvgl\src\lv_core/lv_group.c ****  * @param group pointer to group
 426:lvgl\src\lv_core/lv_group.c ****  * @param en: true: wrapping enabled; false: wrapping disabled
 427:lvgl\src\lv_core/lv_group.c ****  */
 428:lvgl\src\lv_core/lv_group.c **** bool lv_group_get_wrap(lv_group_t * group)
 429:lvgl\src\lv_core/lv_group.c **** {
 430:lvgl\src\lv_core/lv_group.c ****     if(!group) return false;
ARM GAS  C:\Users\strap\AppData\Local\Temp\ccYsGOLb.s 			page 9


 431:lvgl\src\lv_core/lv_group.c ****     return group->wrap ? true : false;
 432:lvgl\src\lv_core/lv_group.c **** }
 433:lvgl\src\lv_core/lv_group.c **** 
 434:lvgl\src\lv_core/lv_group.c **** /**********************
 435:lvgl\src\lv_core/lv_group.c ****  *   STATIC FUNCTIONS
 436:lvgl\src\lv_core/lv_group.c ****  **********************/
 437:lvgl\src\lv_core/lv_group.c **** 
 438:lvgl\src\lv_core/lv_group.c **** static void lv_group_refocus(lv_group_t * g)
 439:lvgl\src\lv_core/lv_group.c **** {
 440:lvgl\src\lv_core/lv_group.c ****     /*Refocus must temporarily allow wrapping to work correctly*/
 441:lvgl\src\lv_core/lv_group.c ****     uint8_t temp_wrap = g->wrap;
 442:lvgl\src\lv_core/lv_group.c ****     g->wrap           = 1;
 443:lvgl\src\lv_core/lv_group.c **** 
 444:lvgl\src\lv_core/lv_group.c ****     if(g->refocus_policy == LV_GROUP_REFOCUS_POLICY_NEXT)
 445:lvgl\src\lv_core/lv_group.c ****         lv_group_focus_next(g);
 446:lvgl\src\lv_core/lv_group.c ****     else if(g->refocus_policy == LV_GROUP_REFOCUS_POLICY_PREV)
 447:lvgl\src\lv_core/lv_group.c ****         lv_group_focus_prev(g);
 448:lvgl\src\lv_core/lv_group.c ****     /*Restore wrap property*/
 449:lvgl\src\lv_core/lv_group.c ****     g->wrap = temp_wrap;
 450:lvgl\src\lv_core/lv_group.c **** }
 451:lvgl\src\lv_core/lv_group.c **** 
 452:lvgl\src\lv_core/lv_group.c **** static void focus_next_core(lv_group_t * group, void * (*begin)(const lv_ll_t *),
 453:lvgl\src\lv_core/lv_group.c ****                             void * (*move)(const lv_ll_t *, const void *))
 454:lvgl\src\lv_core/lv_group.c **** {
 455:lvgl\src\lv_core/lv_group.c ****     if(group->frozen) return;
 456:lvgl\src\lv_core/lv_group.c **** 
 457:lvgl\src\lv_core/lv_group.c ****     lv_obj_t ** obj_next     = group->obj_focus;
 458:lvgl\src\lv_core/lv_group.c ****     lv_obj_t ** obj_sentinel = NULL;
 459:lvgl\src\lv_core/lv_group.c ****     bool can_move            = true;
 460:lvgl\src\lv_core/lv_group.c ****     bool can_begin           = true;
 461:lvgl\src\lv_core/lv_group.c **** 
 462:lvgl\src\lv_core/lv_group.c ****     for(;;) {
 463:lvgl\src\lv_core/lv_group.c ****         if(obj_next == NULL) {
 464:lvgl\src\lv_core/lv_group.c ****             if(group->wrap || obj_sentinel == NULL) {
 465:lvgl\src\lv_core/lv_group.c ****                 if(!can_begin) return;
 466:lvgl\src\lv_core/lv_group.c ****                 obj_next  = begin(&group->obj_ll);
 467:lvgl\src\lv_core/lv_group.c ****                 can_move  = false;
 468:lvgl\src\lv_core/lv_group.c ****                 can_begin = false;
 469:lvgl\src\lv_core/lv_group.c ****             }
 470:lvgl\src\lv_core/lv_group.c ****             else {
 471:lvgl\src\lv_core/lv_group.c ****                 /*Currently focused object is the last/first in the group, keep it that way*/
 472:lvgl\src\lv_core/lv_group.c ****                 return;
 473:lvgl\src\lv_core/lv_group.c ****             }
 474:lvgl\src\lv_core/lv_group.c ****         }
 475:lvgl\src\lv_core/lv_group.c **** 
 476:lvgl\src\lv_core/lv_group.c ****         if(obj_sentinel == NULL) {
 477:lvgl\src\lv_core/lv_group.c ****             obj_sentinel = obj_next;
 478:lvgl\src\lv_core/lv_group.c ****             if(obj_sentinel == NULL) return; /*Group is empty*/
 479:lvgl\src\lv_core/lv_group.c ****         }
 480:lvgl\src\lv_core/lv_group.c **** 
 481:lvgl\src\lv_core/lv_group.c ****         if(can_move) {
 482:lvgl\src\lv_core/lv_group.c ****             obj_next = move(&group->obj_ll, obj_next);
 483:lvgl\src\lv_core/lv_group.c **** 
 484:lvgl\src\lv_core/lv_group.c ****             /*Give up if we walked the entire list and haven't found another visible object*/
 485:lvgl\src\lv_core/lv_group.c ****             if(obj_next == obj_sentinel) return;
 486:lvgl\src\lv_core/lv_group.c ****         }
 487:lvgl\src\lv_core/lv_group.c **** 
ARM GAS  C:\Users\strap\AppData\Local\Temp\ccYsGOLb.s 			page 10


 488:lvgl\src\lv_core/lv_group.c ****         can_move = true;
 489:lvgl\src\lv_core/lv_group.c **** 
 490:lvgl\src\lv_core/lv_group.c ****         if(obj_next == NULL) continue;
 491:lvgl\src\lv_core/lv_group.c ****         if(lv_obj_get_state(*obj_next, LV_OBJ_PART_MAIN) & LV_STATE_DISABLED) continue;
 492:lvgl\src\lv_core/lv_group.c **** 
 493:lvgl\src\lv_core/lv_group.c ****         /*Hidden and disabled objects don't receive focus*/
 494:lvgl\src\lv_core/lv_group.c ****         if(!lv_obj_get_hidden(*obj_next)) break;
 495:lvgl\src\lv_core/lv_group.c ****     }
 496:lvgl\src\lv_core/lv_group.c **** 
 497:lvgl\src\lv_core/lv_group.c ****     if(obj_next == group->obj_focus) return; /*There's only one visible object and it's already foc
 498:lvgl\src\lv_core/lv_group.c **** 
 499:lvgl\src\lv_core/lv_group.c ****     if(group->obj_focus) {
 500:lvgl\src\lv_core/lv_group.c ****         (*group->obj_focus)->signal_cb(*group->obj_focus, LV_SIGNAL_DEFOCUS, NULL);
 501:lvgl\src\lv_core/lv_group.c ****         lv_res_t res = lv_event_send(*group->obj_focus, LV_EVENT_DEFOCUSED, NULL);
 502:lvgl\src\lv_core/lv_group.c ****         if(res != LV_RES_OK) return;
 503:lvgl\src\lv_core/lv_group.c ****         lv_obj_invalidate(*group->obj_focus);
 504:lvgl\src\lv_core/lv_group.c ****     }
 505:lvgl\src\lv_core/lv_group.c **** 
 506:lvgl\src\lv_core/lv_group.c ****     group->obj_focus = obj_next;
 507:lvgl\src\lv_core/lv_group.c **** 
 508:lvgl\src\lv_core/lv_group.c ****     (*group->obj_focus)->signal_cb(*group->obj_focus, LV_SIGNAL_FOCUS, NULL);
 509:lvgl\src\lv_core/lv_group.c ****     lv_res_t res = lv_event_send(*group->obj_focus, LV_EVENT_FOCUSED, NULL);
 510:lvgl\src\lv_core/lv_group.c ****     if(res != LV_RES_OK) return;
 511:lvgl\src\lv_core/lv_group.c **** 
 512:lvgl\src\lv_core/lv_group.c ****     /*If the object or its parent has `top == true` bring it to the foreground*/
 513:lvgl\src\lv_core/lv_group.c ****     obj_to_foreground(*group->obj_focus);
 514:lvgl\src\lv_core/lv_group.c **** 
 515:lvgl\src\lv_core/lv_group.c ****     lv_obj_invalidate(*group->obj_focus);
 516:lvgl\src\lv_core/lv_group.c **** 
 517:lvgl\src\lv_core/lv_group.c ****     if(group->focus_cb) group->focus_cb(group);
 518:lvgl\src\lv_core/lv_group.c **** }
 519:lvgl\src\lv_core/lv_group.c **** 
 520:lvgl\src\lv_core/lv_group.c **** static void obj_to_foreground(lv_obj_t * obj)
 521:lvgl\src\lv_core/lv_group.c **** {
  27              		.loc 1 521 0
  28              		.cfi_startproc
  29              		@ args = 0, pretend = 0, frame = 0
  30              		@ frame_needed = 0, uses_anonymous_args = 0
  31              	.LVL0:
  32 0000 10B5     		push	{r4, lr}
  33              		.cfi_def_cfa_offset 8
  34              		.cfi_offset 4, -8
  35              		.cfi_offset 14, -4
  36              	.LVL1:
 522:lvgl\src\lv_core/lv_group.c ****     /*Search for 'top' attribute*/
 523:lvgl\src\lv_core/lv_group.c ****     lv_obj_t * i        = obj;
 524:lvgl\src\lv_core/lv_group.c ****     lv_obj_t * last_top = NULL;
  37              		.loc 1 524 0
  38 0002 0024     		movs	r4, #0
 525:lvgl\src\lv_core/lv_group.c ****     while(i != NULL) {
  39              		.loc 1 525 0
  40 0004 07E0     		b	.L2
  41              	.LVL2:
  42              	.L4:
 526:lvgl\src\lv_core/lv_group.c ****         if(i->top != 0) last_top = i;
  43              		.loc 1 526 0
  44 0006 90F83430 		ldrb	r3, [r0, #52]	@ zero_extendqisi2
ARM GAS  C:\Users\strap\AppData\Local\Temp\ccYsGOLb.s 			page 11


  45 000a 13F0200F 		tst	r3, #32
  46 000e 00D0     		beq	.L3
  47 0010 0446     		mov	r4, r0
  48              	.LVL3:
  49              	.L3:
 527:lvgl\src\lv_core/lv_group.c ****         i = lv_obj_get_parent(i);
  50              		.loc 1 527 0
  51 0012 FFF7FEFF 		bl	lv_obj_get_parent
  52              	.LVL4:
  53              	.L2:
 525:lvgl\src\lv_core/lv_group.c ****     while(i != NULL) {
  54              		.loc 1 525 0
  55 0016 0028     		cmp	r0, #0
  56 0018 F5D1     		bne	.L4
 528:lvgl\src\lv_core/lv_group.c ****     }
 529:lvgl\src\lv_core/lv_group.c **** 
 530:lvgl\src\lv_core/lv_group.c ****     if(last_top != NULL) {
  57              		.loc 1 530 0
  58 001a 14B1     		cbz	r4, .L1
 531:lvgl\src\lv_core/lv_group.c ****         /*Move the last_top object to the foreground*/
 532:lvgl\src\lv_core/lv_group.c ****         lv_obj_move_foreground(last_top);
  59              		.loc 1 532 0
  60 001c 2046     		mov	r0, r4
  61              	.LVL5:
  62 001e FFF7FEFF 		bl	lv_obj_move_foreground
  63              	.LVL6:
  64              	.L1:
  65 0022 10BD     		pop	{r4, pc}
  66              		.cfi_endproc
  67              	.LFE352:
  68              		.size	obj_to_foreground, .-obj_to_foreground
  69              		.section	.text.focus_next_core,"ax",%progbits
  70              		.align	2
  71              		.thumb
  72              		.thumb_func
  73              		.type	focus_next_core, %function
  74              	focus_next_core:
  75              	.LFB351:
 454:lvgl\src\lv_core/lv_group.c ****     if(group->frozen) return;
  76              		.loc 1 454 0
  77              		.cfi_startproc
  78              		@ args = 0, pretend = 0, frame = 0
  79              		@ frame_needed = 0, uses_anonymous_args = 0
  80              	.LVL7:
  81 0000 2DE9F843 		push	{r3, r4, r5, r6, r7, r8, r9, lr}
  82              		.cfi_def_cfa_offset 32
  83              		.cfi_offset 3, -32
  84              		.cfi_offset 4, -28
  85              		.cfi_offset 5, -24
  86              		.cfi_offset 6, -20
  87              		.cfi_offset 7, -16
  88              		.cfi_offset 8, -12
  89              		.cfi_offset 9, -8
  90              		.cfi_offset 14, -4
 455:lvgl\src\lv_core/lv_group.c **** 
  91              		.loc 1 455 0
  92 0004 037E     		ldrb	r3, [r0, #24]	@ zero_extendqisi2
ARM GAS  C:\Users\strap\AppData\Local\Temp\ccYsGOLb.s 			page 12


  93 0006 13F0010F 		tst	r3, #1
  94 000a 5DD1     		bne	.L8
  95 000c 9046     		mov	r8, r2
  96 000e 8946     		mov	r9, r1
  97 0010 0646     		mov	r6, r0
 457:lvgl\src\lv_core/lv_group.c ****     lv_obj_t ** obj_sentinel = NULL;
  98              		.loc 1 457 0
  99 0012 C468     		ldr	r4, [r0, #12]
 100              	.LVL8:
 460:lvgl\src\lv_core/lv_group.c **** 
 101              		.loc 1 460 0
 102 0014 0127     		movs	r7, #1
 458:lvgl\src\lv_core/lv_group.c ****     bool can_move            = true;
 103              		.loc 1 458 0
 104 0016 0025     		movs	r5, #0
 105              	.LVL9:
 106              	.L10:
 463:lvgl\src\lv_core/lv_group.c ****             if(group->wrap || obj_sentinel == NULL) {
 107              		.loc 1 463 0
 108 0018 6CB9     		cbnz	r4, .L17
 464:lvgl\src\lv_core/lv_group.c ****                 if(!can_begin) return;
 109              		.loc 1 464 0
 110 001a 337E     		ldrb	r3, [r6, #24]	@ zero_extendqisi2
 111 001c 13F0100F 		tst	r3, #16
 112 0020 01D1     		bne	.L12
 464:lvgl\src\lv_core/lv_group.c ****                 if(!can_begin) return;
 113              		.loc 1 464 0 is_stmt 0 discriminator 1
 114 0022 002D     		cmp	r5, #0
 115 0024 50D1     		bne	.L8
 116              	.L12:
 465:lvgl\src\lv_core/lv_group.c ****                 obj_next  = begin(&group->obj_ll);
 117              		.loc 1 465 0 is_stmt 1
 118 0026 002F     		cmp	r7, #0
 119 0028 4ED0     		beq	.L8
 466:lvgl\src\lv_core/lv_group.c ****                 can_move  = false;
 120              		.loc 1 466 0
 121 002a 3046     		mov	r0, r6
 122 002c C847     		blx	r9
 123              	.LVL10:
 124 002e 0446     		mov	r4, r0
 125              	.LVL11:
 468:lvgl\src\lv_core/lv_group.c ****             }
 126              		.loc 1 468 0
 127 0030 0027     		movs	r7, #0
 467:lvgl\src\lv_core/lv_group.c ****                 can_begin = false;
 128              		.loc 1 467 0
 129 0032 3B46     		mov	r3, r7
 468:lvgl\src\lv_core/lv_group.c ****             }
 130              		.loc 1 468 0
 131 0034 00E0     		b	.L11
 132              	.LVL12:
 133              	.L17:
 134 0036 0123     		movs	r3, #1
 135              	.LVL13:
 136              	.L11:
 476:lvgl\src\lv_core/lv_group.c ****             obj_sentinel = obj_next;
 137              		.loc 1 476 0
ARM GAS  C:\Users\strap\AppData\Local\Temp\ccYsGOLb.s 			page 13


 138 0038 15B9     		cbnz	r5, .L13
 139              	.LVL14:
 478:lvgl\src\lv_core/lv_group.c ****         }
 140              		.loc 1 478 0
 141 003a 002C     		cmp	r4, #0
 142 003c 44D0     		beq	.L8
 477:lvgl\src\lv_core/lv_group.c ****             if(obj_sentinel == NULL) return; /*Group is empty*/
 143              		.loc 1 477 0
 144 003e 2546     		mov	r5, r4
 145              	.LVL15:
 146              	.L13:
 481:lvgl\src\lv_core/lv_group.c ****             obj_next = move(&group->obj_ll, obj_next);
 147              		.loc 1 481 0
 148 0040 2BB1     		cbz	r3, .L14
 482:lvgl\src\lv_core/lv_group.c **** 
 149              		.loc 1 482 0
 150 0042 2146     		mov	r1, r4
 151 0044 3046     		mov	r0, r6
 152 0046 C047     		blx	r8
 153              	.LVL16:
 154 0048 0446     		mov	r4, r0
 155              	.LVL17:
 485:lvgl\src\lv_core/lv_group.c ****         }
 156              		.loc 1 485 0
 157 004a 8542     		cmp	r5, r0
 158 004c 3CD0     		beq	.L8
 159              	.LVL18:
 160              	.L14:
 490:lvgl\src\lv_core/lv_group.c ****         if(lv_obj_get_state(*obj_next, LV_OBJ_PART_MAIN) & LV_STATE_DISABLED) continue;
 161              		.loc 1 490 0
 162 004e 002C     		cmp	r4, #0
 163 0050 E2D0     		beq	.L10
 491:lvgl\src\lv_core/lv_group.c **** 
 164              		.loc 1 491 0
 165 0052 0021     		movs	r1, #0
 166 0054 2068     		ldr	r0, [r4]
 167 0056 FFF7FEFF 		bl	lv_obj_get_state
 168              	.LVL19:
 169 005a 10F0200F 		tst	r0, #32
 170 005e DBD1     		bne	.L10
 494:lvgl\src\lv_core/lv_group.c ****     }
 171              		.loc 1 494 0
 172 0060 2068     		ldr	r0, [r4]
 173 0062 FFF7FEFF 		bl	lv_obj_get_hidden
 174              	.LVL20:
 175 0066 0028     		cmp	r0, #0
 176 0068 D6D1     		bne	.L10
 497:lvgl\src\lv_core/lv_group.c **** 
 177              		.loc 1 497 0
 178 006a F368     		ldr	r3, [r6, #12]
 179 006c 9C42     		cmp	r4, r3
 180 006e 2BD0     		beq	.L8
 499:lvgl\src\lv_core/lv_group.c ****         (*group->obj_focus)->signal_cb(*group->obj_focus, LV_SIGNAL_DEFOCUS, NULL);
 181              		.loc 1 499 0
 182 0070 83B1     		cbz	r3, .L16
 183              	.LBB2:
 500:lvgl\src\lv_core/lv_group.c ****         lv_res_t res = lv_event_send(*group->obj_focus, LV_EVENT_DEFOCUSED, NULL);
ARM GAS  C:\Users\strap\AppData\Local\Temp\ccYsGOLb.s 			page 14


 184              		.loc 1 500 0
 185 0072 1868     		ldr	r0, [r3]
 186 0074 C369     		ldr	r3, [r0, #28]
 187 0076 0022     		movs	r2, #0
 188 0078 1721     		movs	r1, #23
 189 007a 9847     		blx	r3
 190              	.LVL21:
 501:lvgl\src\lv_core/lv_group.c ****         if(res != LV_RES_OK) return;
 191              		.loc 1 501 0
 192 007c F368     		ldr	r3, [r6, #12]
 193 007e 0022     		movs	r2, #0
 194 0080 0E21     		movs	r1, #14
 195 0082 1868     		ldr	r0, [r3]
 196 0084 FFF7FEFF 		bl	lv_event_send
 197              	.LVL22:
 502:lvgl\src\lv_core/lv_group.c ****         lv_obj_invalidate(*group->obj_focus);
 198              		.loc 1 502 0
 199 0088 0128     		cmp	r0, #1
 200 008a 1DD1     		bne	.L8
 503:lvgl\src\lv_core/lv_group.c ****     }
 201              		.loc 1 503 0
 202 008c F368     		ldr	r3, [r6, #12]
 203 008e 1868     		ldr	r0, [r3]
 204              	.LVL23:
 205 0090 FFF7FEFF 		bl	lv_obj_invalidate
 206              	.LVL24:
 207              	.L16:
 208              	.LBE2:
 506:lvgl\src\lv_core/lv_group.c **** 
 209              		.loc 1 506 0
 210 0094 F460     		str	r4, [r6, #12]
 508:lvgl\src\lv_core/lv_group.c ****     lv_res_t res = lv_event_send(*group->obj_focus, LV_EVENT_FOCUSED, NULL);
 211              		.loc 1 508 0
 212 0096 2068     		ldr	r0, [r4]
 213 0098 C369     		ldr	r3, [r0, #28]
 214 009a 0022     		movs	r2, #0
 215 009c 1621     		movs	r1, #22
 216 009e 9847     		blx	r3
 217              	.LVL25:
 509:lvgl\src\lv_core/lv_group.c ****     if(res != LV_RES_OK) return;
 218              		.loc 1 509 0
 219 00a0 F368     		ldr	r3, [r6, #12]
 220 00a2 0022     		movs	r2, #0
 221 00a4 0D21     		movs	r1, #13
 222 00a6 1868     		ldr	r0, [r3]
 223 00a8 FFF7FEFF 		bl	lv_event_send
 224              	.LVL26:
 510:lvgl\src\lv_core/lv_group.c **** 
 225              		.loc 1 510 0
 226 00ac 0128     		cmp	r0, #1
 227 00ae 0BD1     		bne	.L8
 513:lvgl\src\lv_core/lv_group.c **** 
 228              		.loc 1 513 0
 229 00b0 F368     		ldr	r3, [r6, #12]
 230 00b2 1868     		ldr	r0, [r3]
 231              	.LVL27:
 232 00b4 FFF7FEFF 		bl	obj_to_foreground
ARM GAS  C:\Users\strap\AppData\Local\Temp\ccYsGOLb.s 			page 15


 233              	.LVL28:
 515:lvgl\src\lv_core/lv_group.c **** 
 234              		.loc 1 515 0
 235 00b8 F368     		ldr	r3, [r6, #12]
 236 00ba 1868     		ldr	r0, [r3]
 237 00bc FFF7FEFF 		bl	lv_obj_invalidate
 238              	.LVL29:
 517:lvgl\src\lv_core/lv_group.c **** }
 239              		.loc 1 517 0
 240 00c0 3369     		ldr	r3, [r6, #16]
 241 00c2 0BB1     		cbz	r3, .L8
 517:lvgl\src\lv_core/lv_group.c **** }
 242              		.loc 1 517 0 is_stmt 0 discriminator 1
 243 00c4 3046     		mov	r0, r6
 244 00c6 9847     		blx	r3
 245              	.LVL30:
 246              	.L8:
 247 00c8 BDE8F883 		pop	{r3, r4, r5, r6, r7, r8, r9, pc}
 248              		.cfi_endproc
 249              	.LFE351:
 250              		.size	focus_next_core, .-focus_next_core
 251              		.section	.text._lv_group_init,"ax",%progbits
 252              		.align	2
 253              		.global	_lv_group_init
 254              		.thumb
 255              		.thumb_func
 256              		.type	_lv_group_init, %function
 257              	_lv_group_init:
 258              	.LFB328:
  52:lvgl\src\lv_core/lv_group.c ****     _lv_ll_init(&LV_GC_ROOT(_lv_group_ll), sizeof(lv_group_t));
 259              		.loc 1 52 0 is_stmt 1
 260              		.cfi_startproc
 261              		@ args = 0, pretend = 0, frame = 0
 262              		@ frame_needed = 0, uses_anonymous_args = 0
 263 0000 08B5     		push	{r3, lr}
 264              		.cfi_def_cfa_offset 8
 265              		.cfi_offset 3, -8
 266              		.cfi_offset 14, -4
  53:lvgl\src\lv_core/lv_group.c **** }
 267              		.loc 1 53 0
 268 0002 1C21     		movs	r1, #28
 269 0004 0148     		ldr	r0, .L21
 270 0006 FFF7FEFF 		bl	_lv_ll_init
 271              	.LVL31:
 272 000a 08BD     		pop	{r3, pc}
 273              	.L22:
 274              		.align	2
 275              	.L21:
 276 000c 00000000 		.word	_lv_group_ll
 277              		.cfi_endproc
 278              	.LFE328:
 279              		.size	_lv_group_init, .-_lv_group_init
 280              		.section	.text.lv_group_create,"ax",%progbits
 281              		.align	2
 282              		.global	lv_group_create
 283              		.thumb
 284              		.thumb_func
ARM GAS  C:\Users\strap\AppData\Local\Temp\ccYsGOLb.s 			page 16


 285              		.type	lv_group_create, %function
 286              	lv_group_create:
 287              	.LFB329:
  61:lvgl\src\lv_core/lv_group.c ****     lv_group_t * group = _lv_ll_ins_head(&LV_GC_ROOT(_lv_group_ll));
 288              		.loc 1 61 0
 289              		.cfi_startproc
 290              		@ args = 0, pretend = 0, frame = 0
 291              		@ frame_needed = 0, uses_anonymous_args = 0
 292 0000 10B5     		push	{r4, lr}
 293              		.cfi_def_cfa_offset 8
 294              		.cfi_offset 4, -8
 295              		.cfi_offset 14, -4
  62:lvgl\src\lv_core/lv_group.c ****     LV_ASSERT_MEM(group);
 296              		.loc 1 62 0
 297 0002 1448     		ldr	r0, .L29
 298 0004 FFF7FEFF 		bl	_lv_ll_ins_head
 299              	.LVL32:
 300 0008 0446     		mov	r4, r0
 301              	.LVL33:
  63:lvgl\src\lv_core/lv_group.c ****     if(group == NULL) return NULL;
 302              		.loc 1 63 0
 303 000a FFF7FEFF 		bl	lv_debug_check_null
 304              	.LVL34:
 305 000e 28B9     		cbnz	r0, .L24
  63:lvgl\src\lv_core/lv_group.c ****     if(group == NULL) return NULL;
 306              		.loc 1 63 0 is_stmt 0 discriminator 1
 307 0010 2246     		mov	r2, r4
 308 0012 0023     		movs	r3, #0
 309 0014 1048     		ldr	r0, .L29+4
 310 0016 FFF7FEFF 		bl	lv_debug_log_error
 311              	.LVL35:
 312              	.L25:
 313 001a FEE7     		b	.L25
 314              	.L24:
  64:lvgl\src\lv_core/lv_group.c ****     _lv_ll_init(&group->obj_ll, sizeof(lv_obj_t *));
 315              		.loc 1 64 0 is_stmt 1
 316 001c BCB1     		cbz	r4, .L27
  65:lvgl\src\lv_core/lv_group.c **** 
 317              		.loc 1 65 0
 318 001e 0421     		movs	r1, #4
 319 0020 2046     		mov	r0, r4
 320 0022 FFF7FEFF 		bl	_lv_ll_init
 321              	.LVL36:
  67:lvgl\src\lv_core/lv_group.c ****     group->frozen         = 0;
 322              		.loc 1 67 0
 323 0026 0022     		movs	r2, #0
 324 0028 E260     		str	r2, [r4, #12]
  68:lvgl\src\lv_core/lv_group.c ****     group->focus_cb       = NULL;
 325              		.loc 1 68 0
 326 002a 237E     		ldrb	r3, [r4, #24]	@ zero_extendqisi2
  69:lvgl\src\lv_core/lv_group.c ****     group->click_focus    = 1;
 327              		.loc 1 69 0
 328 002c 2261     		str	r2, [r4, #16]
  70:lvgl\src\lv_core/lv_group.c ****     group->editing        = 0;
 329              		.loc 1 70 0
 330 002e 03F0FE03 		and	r3, r3, #254
  71:lvgl\src\lv_core/lv_group.c ****     group->refocus_policy = LV_GROUP_REFOCUS_POLICY_PREV;
ARM GAS  C:\Users\strap\AppData\Local\Temp\ccYsGOLb.s 			page 17


 331              		.loc 1 71 0
 332 0032 43F00403 		orr	r3, r3, #4
  72:lvgl\src\lv_core/lv_group.c ****     group->wrap           = 1;
 333              		.loc 1 72 0
 334 0036 03F0FD03 		and	r3, r3, #253
  73:lvgl\src\lv_core/lv_group.c **** 
 335              		.loc 1 73 0
 336 003a 43F01803 		orr	r3, r3, #24
 337 003e 2376     		strb	r3, [r4, #24]
  76:lvgl\src\lv_core/lv_group.c **** #endif
 338              		.loc 1 76 0
 339 0040 0421     		movs	r1, #4
 340 0042 04F11400 		add	r0, r4, #20
 341 0046 FFF7FEFF 		bl	_lv_memset_00
 342              	.LVL37:
  79:lvgl\src\lv_core/lv_group.c **** }
 343              		.loc 1 79 0
 344 004a 2046     		mov	r0, r4
 345 004c 10BD     		pop	{r4, pc}
 346              	.LVL38:
 347              	.L27:
  64:lvgl\src\lv_core/lv_group.c ****     _lv_ll_init(&group->obj_ll, sizeof(lv_obj_t *));
 348              		.loc 1 64 0
 349 004e 0020     		movs	r0, #0
  80:lvgl\src\lv_core/lv_group.c **** 
 350              		.loc 1 80 0
 351 0050 10BD     		pop	{r4, pc}
 352              	.LVL39:
 353              	.L30:
 354 0052 00BF     		.align	2
 355              	.L29:
 356 0054 00000000 		.word	_lv_group_ll
 357 0058 00000000 		.word	.LC0
 358              		.cfi_endproc
 359              	.LFE329:
 360              		.size	lv_group_create, .-lv_group_create
 361              		.section	.text.lv_group_del,"ax",%progbits
 362              		.align	2
 363              		.global	lv_group_del
 364              		.thumb
 365              		.thumb_func
 366              		.type	lv_group_del, %function
 367              	lv_group_del:
 368              	.LFB330:
  87:lvgl\src\lv_core/lv_group.c ****     /*Defocus the the currently focused object*/
 369              		.loc 1 87 0
 370              		.cfi_startproc
 371              		@ args = 0, pretend = 0, frame = 0
 372              		@ frame_needed = 0, uses_anonymous_args = 0
 373              	.LVL40:
 374 0000 38B5     		push	{r3, r4, r5, lr}
 375              		.cfi_def_cfa_offset 16
 376              		.cfi_offset 3, -16
 377              		.cfi_offset 4, -12
 378              		.cfi_offset 5, -8
 379              		.cfi_offset 14, -4
 380 0002 0546     		mov	r5, r0
ARM GAS  C:\Users\strap\AppData\Local\Temp\ccYsGOLb.s 			page 18


  89:lvgl\src\lv_core/lv_group.c ****         (*group->obj_focus)->signal_cb(*group->obj_focus, LV_SIGNAL_DEFOCUS, NULL);
 381              		.loc 1 89 0
 382 0004 C368     		ldr	r3, [r0, #12]
 383 0006 43B1     		cbz	r3, .L32
  90:lvgl\src\lv_core/lv_group.c ****         lv_obj_invalidate(*group->obj_focus);
 384              		.loc 1 90 0
 385 0008 1868     		ldr	r0, [r3]
 386              	.LVL41:
 387 000a C369     		ldr	r3, [r0, #28]
 388 000c 0022     		movs	r2, #0
 389 000e 1721     		movs	r1, #23
 390 0010 9847     		blx	r3
 391              	.LVL42:
  91:lvgl\src\lv_core/lv_group.c ****     }
 392              		.loc 1 91 0
 393 0012 EB68     		ldr	r3, [r5, #12]
 394 0014 1868     		ldr	r0, [r3]
 395 0016 FFF7FEFF 		bl	lv_obj_invalidate
 396              	.LVL43:
 397              	.L32:
  96:lvgl\src\lv_core/lv_group.c ****         (*obj)->group_p = NULL;
 398              		.loc 1 96 0
 399 001a 2C46     		mov	r4, r5
 400 001c 2846     		mov	r0, r5
 401 001e FFF7FEFF 		bl	_lv_ll_get_head
 402              	.LVL44:
 403 0022 06E0     		b	.L33
 404              	.LVL45:
 405              	.L34:
  97:lvgl\src\lv_core/lv_group.c ****     }
 406              		.loc 1 97 0 discriminator 3
 407 0024 0368     		ldr	r3, [r0]
 408 0026 0022     		movs	r2, #0
 409 0028 9A63     		str	r2, [r3, #56]
  96:lvgl\src\lv_core/lv_group.c ****         (*obj)->group_p = NULL;
 410              		.loc 1 96 0 discriminator 3
 411 002a 0146     		mov	r1, r0
 412 002c 2046     		mov	r0, r4
 413              	.LVL46:
 414 002e FFF7FEFF 		bl	_lv_ll_get_next
 415              	.LVL47:
 416              	.L33:
  96:lvgl\src\lv_core/lv_group.c ****         (*obj)->group_p = NULL;
 417              		.loc 1 96 0 is_stmt 0 discriminator 1
 418 0032 0028     		cmp	r0, #0
 419 0034 F6D1     		bne	.L34
 100:lvgl\src\lv_core/lv_group.c ****     _lv_ll_remove(&LV_GC_ROOT(_lv_group_ll), group);
 420              		.loc 1 100 0 is_stmt 1
 421 0036 2846     		mov	r0, r5
 422              	.LVL48:
 423 0038 FFF7FEFF 		bl	_lv_ll_clear
 424              	.LVL49:
 101:lvgl\src\lv_core/lv_group.c ****     lv_mem_free(group);
 425              		.loc 1 101 0
 426 003c 2946     		mov	r1, r5
 427 003e 0348     		ldr	r0, .L36
 428 0040 FFF7FEFF 		bl	_lv_ll_remove
ARM GAS  C:\Users\strap\AppData\Local\Temp\ccYsGOLb.s 			page 19


 429              	.LVL50:
 102:lvgl\src\lv_core/lv_group.c **** }
 430              		.loc 1 102 0
 431 0044 2846     		mov	r0, r5
 432 0046 FFF7FEFF 		bl	lv_mem_free
 433              	.LVL51:
 434 004a 38BD     		pop	{r3, r4, r5, pc}
 435              	.LVL52:
 436              	.L37:
 437              		.align	2
 438              	.L36:
 439 004c 00000000 		.word	_lv_group_ll
 440              		.cfi_endproc
 441              	.LFE330:
 442              		.size	lv_group_del, .-lv_group_del
 443              		.section	.text.lv_group_remove_all_objs,"ax",%progbits
 444              		.align	2
 445              		.global	lv_group_remove_all_objs
 446              		.thumb
 447              		.thumb_func
 448              		.type	lv_group_remove_all_objs, %function
 449              	lv_group_remove_all_objs:
 450              	.LFB333:
 192:lvgl\src\lv_core/lv_group.c ****     /*Defocus the the currently focused object*/
 451              		.loc 1 192 0
 452              		.cfi_startproc
 453              		@ args = 0, pretend = 0, frame = 0
 454              		@ frame_needed = 0, uses_anonymous_args = 0
 455              	.LVL53:
 456 0000 38B5     		push	{r3, r4, r5, lr}
 457              		.cfi_def_cfa_offset 16
 458              		.cfi_offset 3, -16
 459              		.cfi_offset 4, -12
 460              		.cfi_offset 5, -8
 461              		.cfi_offset 14, -4
 462 0002 0546     		mov	r5, r0
 194:lvgl\src\lv_core/lv_group.c ****         (*group->obj_focus)->signal_cb(*group->obj_focus, LV_SIGNAL_DEFOCUS, NULL);
 463              		.loc 1 194 0
 464 0004 C368     		ldr	r3, [r0, #12]
 465 0006 53B1     		cbz	r3, .L39
 195:lvgl\src\lv_core/lv_group.c ****         lv_obj_invalidate(*group->obj_focus);
 466              		.loc 1 195 0
 467 0008 1868     		ldr	r0, [r3]
 468              	.LVL54:
 469 000a C369     		ldr	r3, [r0, #28]
 470 000c 0022     		movs	r2, #0
 471 000e 1721     		movs	r1, #23
 472 0010 9847     		blx	r3
 473              	.LVL55:
 196:lvgl\src\lv_core/lv_group.c ****         group->obj_focus = NULL;
 474              		.loc 1 196 0
 475 0012 EB68     		ldr	r3, [r5, #12]
 476 0014 1868     		ldr	r0, [r3]
 477 0016 FFF7FEFF 		bl	lv_obj_invalidate
 478              	.LVL56:
 197:lvgl\src\lv_core/lv_group.c ****     }
 479              		.loc 1 197 0
ARM GAS  C:\Users\strap\AppData\Local\Temp\ccYsGOLb.s 			page 20


 480 001a 0023     		movs	r3, #0
 481 001c EB60     		str	r3, [r5, #12]
 482              	.L39:
 202:lvgl\src\lv_core/lv_group.c ****         (*obj)->group_p = NULL;
 483              		.loc 1 202 0
 484 001e 2C46     		mov	r4, r5
 485 0020 2846     		mov	r0, r5
 486 0022 FFF7FEFF 		bl	_lv_ll_get_head
 487              	.LVL57:
 488 0026 06E0     		b	.L40
 489              	.LVL58:
 490              	.L41:
 203:lvgl\src\lv_core/lv_group.c ****     }
 491              		.loc 1 203 0 discriminator 3
 492 0028 0368     		ldr	r3, [r0]
 493 002a 0022     		movs	r2, #0
 494 002c 9A63     		str	r2, [r3, #56]
 202:lvgl\src\lv_core/lv_group.c ****         (*obj)->group_p = NULL;
 495              		.loc 1 202 0 discriminator 3
 496 002e 0146     		mov	r1, r0
 497 0030 2046     		mov	r0, r4
 498              	.LVL59:
 499 0032 FFF7FEFF 		bl	_lv_ll_get_next
 500              	.LVL60:
 501              	.L40:
 202:lvgl\src\lv_core/lv_group.c ****         (*obj)->group_p = NULL;
 502              		.loc 1 202 0 is_stmt 0 discriminator 1
 503 0036 0028     		cmp	r0, #0
 504 0038 F6D1     		bne	.L41
 206:lvgl\src\lv_core/lv_group.c **** }
 505              		.loc 1 206 0 is_stmt 1
 506 003a 2846     		mov	r0, r5
 507              	.LVL61:
 508 003c FFF7FEFF 		bl	_lv_ll_clear
 509              	.LVL62:
 510 0040 38BD     		pop	{r3, r4, r5, pc}
 511              		.cfi_endproc
 512              	.LFE333:
 513              		.size	lv_group_remove_all_objs, .-lv_group_remove_all_objs
 514 0042 00BF     		.section	.text.lv_group_focus_next,"ax",%progbits
 515              		.align	2
 516              		.global	lv_group_focus_next
 517              		.thumb
 518              		.thumb_func
 519              		.type	lv_group_focus_next, %function
 520              	lv_group_focus_next:
 521              	.LFB335:
 258:lvgl\src\lv_core/lv_group.c ****     focus_next_core(group, _lv_ll_get_head, _lv_ll_get_next);
 522              		.loc 1 258 0
 523              		.cfi_startproc
 524              		@ args = 0, pretend = 0, frame = 0
 525              		@ frame_needed = 0, uses_anonymous_args = 0
 526              	.LVL63:
 527 0000 08B5     		push	{r3, lr}
 528              		.cfi_def_cfa_offset 8
 529              		.cfi_offset 3, -8
 530              		.cfi_offset 14, -4
ARM GAS  C:\Users\strap\AppData\Local\Temp\ccYsGOLb.s 			page 21


 259:lvgl\src\lv_core/lv_group.c **** }
 531              		.loc 1 259 0
 532 0002 024A     		ldr	r2, .L45
 533 0004 0249     		ldr	r1, .L45+4
 534 0006 FFF7FEFF 		bl	focus_next_core
 535              	.LVL64:
 536 000a 08BD     		pop	{r3, pc}
 537              	.L46:
 538              		.align	2
 539              	.L45:
 540 000c 00000000 		.word	_lv_ll_get_next
 541 0010 00000000 		.word	_lv_ll_get_head
 542              		.cfi_endproc
 543              	.LFE335:
 544              		.size	lv_group_focus_next, .-lv_group_focus_next
 545              		.section	.text.lv_group_focus_prev,"ax",%progbits
 546              		.align	2
 547              		.global	lv_group_focus_prev
 548              		.thumb
 549              		.thumb_func
 550              		.type	lv_group_focus_prev, %function
 551              	lv_group_focus_prev:
 552              	.LFB336:
 267:lvgl\src\lv_core/lv_group.c ****     focus_next_core(group, _lv_ll_get_tail, _lv_ll_get_prev);
 553              		.loc 1 267 0
 554              		.cfi_startproc
 555              		@ args = 0, pretend = 0, frame = 0
 556              		@ frame_needed = 0, uses_anonymous_args = 0
 557              	.LVL65:
 558 0000 08B5     		push	{r3, lr}
 559              		.cfi_def_cfa_offset 8
 560              		.cfi_offset 3, -8
 561              		.cfi_offset 14, -4
 268:lvgl\src\lv_core/lv_group.c **** }
 562              		.loc 1 268 0
 563 0002 024A     		ldr	r2, .L49
 564 0004 0249     		ldr	r1, .L49+4
 565 0006 FFF7FEFF 		bl	focus_next_core
 566              	.LVL66:
 567 000a 08BD     		pop	{r3, pc}
 568              	.L50:
 569              		.align	2
 570              	.L49:
 571 000c 00000000 		.word	_lv_ll_get_prev
 572 0010 00000000 		.word	_lv_ll_get_tail
 573              		.cfi_endproc
 574              	.LFE336:
 575              		.size	lv_group_focus_prev, .-lv_group_focus_prev
 576              		.section	.text.lv_group_refocus,"ax",%progbits
 577              		.align	2
 578              		.thumb
 579              		.thumb_func
 580              		.type	lv_group_refocus, %function
 581              	lv_group_refocus:
 582              	.LFB350:
 439:lvgl\src\lv_core/lv_group.c ****     /*Refocus must temporarily allow wrapping to work correctly*/
 583              		.loc 1 439 0
ARM GAS  C:\Users\strap\AppData\Local\Temp\ccYsGOLb.s 			page 22


 584              		.cfi_startproc
 585              		@ args = 0, pretend = 0, frame = 0
 586              		@ frame_needed = 0, uses_anonymous_args = 0
 587              	.LVL67:
 588 0000 38B5     		push	{r3, r4, r5, lr}
 589              		.cfi_def_cfa_offset 16
 590              		.cfi_offset 3, -16
 591              		.cfi_offset 4, -12
 592              		.cfi_offset 5, -8
 593              		.cfi_offset 14, -4
 594 0002 0446     		mov	r4, r0
 441:lvgl\src\lv_core/lv_group.c ****     g->wrap           = 1;
 595              		.loc 1 441 0
 596 0004 037E     		ldrb	r3, [r0, #24]	@ zero_extendqisi2
 597 0006 C3F30015 		ubfx	r5, r3, #4, #1
 598              	.LVL68:
 442:lvgl\src\lv_core/lv_group.c **** 
 599              		.loc 1 442 0
 600 000a 43F01003 		orr	r3, r3, #16
 601              	.LVL69:
 602 000e 0376     		strb	r3, [r0, #24]
 603              	.LVL70:
 444:lvgl\src\lv_core/lv_group.c ****         lv_group_focus_next(g);
 604              		.loc 1 444 0
 605 0010 03F00803 		and	r3, r3, #8
 606 0014 13B9     		cbnz	r3, .L52
 445:lvgl\src\lv_core/lv_group.c ****     else if(g->refocus_policy == LV_GROUP_REFOCUS_POLICY_PREV)
 607              		.loc 1 445 0
 608 0016 FFF7FEFF 		bl	lv_group_focus_next
 609              	.LVL71:
 610 001a 04E0     		b	.L53
 611              	.LVL72:
 612              	.L52:
 613 001c 03F0FF02 		and	r2, r3, #255
 446:lvgl\src\lv_core/lv_group.c ****         lv_group_focus_prev(g);
 614              		.loc 1 446 0
 615 0020 0AB1     		cbz	r2, .L53
 447:lvgl\src\lv_core/lv_group.c ****     /*Restore wrap property*/
 616              		.loc 1 447 0
 617 0022 FFF7FEFF 		bl	lv_group_focus_prev
 618              	.LVL73:
 619              	.L53:
 449:lvgl\src\lv_core/lv_group.c **** }
 620              		.loc 1 449 0
 621 0026 237E     		ldrb	r3, [r4, #24]	@ zero_extendqisi2
 622 0028 65F30413 		bfi	r3, r5, #4, #1
 623 002c 2376     		strb	r3, [r4, #24]
 624 002e 38BD     		pop	{r3, r4, r5, pc}
 625              		.cfi_endproc
 626              	.LFE350:
 627              		.size	lv_group_refocus, .-lv_group_refocus
 628              		.section	.text.lv_group_add_obj,"ax",%progbits
 629              		.align	2
 630              		.global	lv_group_add_obj
 631              		.thumb
 632              		.thumb_func
 633              		.type	lv_group_add_obj, %function
ARM GAS  C:\Users\strap\AppData\Local\Temp\ccYsGOLb.s 			page 23


 634              	lv_group_add_obj:
 635              	.LFB331:
 111:lvgl\src\lv_core/lv_group.c ****     if(group == NULL) return;
 636              		.loc 1 111 0
 637              		.cfi_startproc
 638              		@ args = 0, pretend = 0, frame = 0
 639              		@ frame_needed = 0, uses_anonymous_args = 0
 640              	.LVL74:
 112:lvgl\src\lv_core/lv_group.c ****     /*Do not add the object twice*/
 641              		.loc 1 112 0
 642 0000 88B3     		cbz	r0, .L63
 111:lvgl\src\lv_core/lv_group.c ****     if(group == NULL) return;
 643              		.loc 1 111 0
 644 0002 70B5     		push	{r4, r5, r6, lr}
 645              		.cfi_def_cfa_offset 16
 646              		.cfi_offset 4, -16
 647              		.cfi_offset 5, -12
 648              		.cfi_offset 6, -8
 649              		.cfi_offset 14, -4
 650 0004 0546     		mov	r5, r0
 651 0006 0C46     		mov	r4, r1
 115:lvgl\src\lv_core/lv_group.c ****         if((*obj_i) == obj) {
 652              		.loc 1 115 0
 653 0008 0646     		mov	r6, r0
 654 000a FFF7FEFF 		bl	_lv_ll_get_head
 655              	.LVL75:
 656 000e 06E0     		b	.L57
 657              	.L58:
 116:lvgl\src\lv_core/lv_group.c ****             LV_LOG_INFO("lv_group_add_obj: the object is already added to this group");
 658              		.loc 1 116 0
 659 0010 0368     		ldr	r3, [r0]
 660 0012 A342     		cmp	r3, r4
 661 0014 26D0     		beq	.L55
 115:lvgl\src\lv_core/lv_group.c ****         if((*obj_i) == obj) {
 662              		.loc 1 115 0 discriminator 2
 663 0016 0146     		mov	r1, r0
 664 0018 3046     		mov	r0, r6
 665              	.LVL76:
 666 001a FFF7FEFF 		bl	_lv_ll_get_next
 667              	.LVL77:
 668              	.L57:
 115:lvgl\src\lv_core/lv_group.c ****         if((*obj_i) == obj) {
 669              		.loc 1 115 0 is_stmt 0 discriminator 1
 670 001e 0028     		cmp	r0, #0
 671 0020 F6D1     		bne	.L58
 123:lvgl\src\lv_core/lv_group.c ****         if(lv_obj_is_focused(obj)) {
 672              		.loc 1 123 0 is_stmt 1
 673 0022 A36B     		ldr	r3, [r4, #56]
 674 0024 33B1     		cbz	r3, .L59
 124:lvgl\src\lv_core/lv_group.c ****             lv_group_refocus(obj->group_p);
 675              		.loc 1 124 0
 676 0026 2046     		mov	r0, r4
 677              	.LVL78:
 678 0028 FFF7FEFF 		bl	lv_obj_is_focused
 679              	.LVL79:
 680 002c 10B1     		cbz	r0, .L59
 125:lvgl\src\lv_core/lv_group.c **** 
ARM GAS  C:\Users\strap\AppData\Local\Temp\ccYsGOLb.s 			page 24


 681              		.loc 1 125 0
 682 002e A06B     		ldr	r0, [r4, #56]
 683 0030 FFF7FEFF 		bl	lv_group_refocus
 684              	.LVL80:
 685              	.L59:
 131:lvgl\src\lv_core/lv_group.c ****     lv_obj_t ** next = _lv_ll_ins_tail(&group->obj_ll);
 686              		.loc 1 131 0
 687 0034 A563     		str	r5, [r4, #56]
 132:lvgl\src\lv_core/lv_group.c ****     LV_ASSERT_MEM(next);
 688              		.loc 1 132 0
 689 0036 2846     		mov	r0, r5
 690 0038 FFF7FEFF 		bl	_lv_ll_ins_tail
 691              	.LVL81:
 692 003c 0646     		mov	r6, r0
 693              	.LVL82:
 133:lvgl\src\lv_core/lv_group.c ****     if(next == NULL) return;
 694              		.loc 1 133 0
 695 003e FFF7FEFF 		bl	lv_debug_check_null
 696              	.LVL83:
 697 0042 28B9     		cbnz	r0, .L60
 133:lvgl\src\lv_core/lv_group.c ****     if(next == NULL) return;
 698              		.loc 1 133 0 is_stmt 0 discriminator 1
 699 0044 3246     		mov	r2, r6
 700 0046 0023     		movs	r3, #0
 701 0048 0748     		ldr	r0, .L64
 702 004a FFF7FEFF 		bl	lv_debug_log_error
 703              	.LVL84:
 704              	.L61:
 705 004e FEE7     		b	.L61
 706              	.L60:
 134:lvgl\src\lv_core/lv_group.c ****     *next = obj;
 707              		.loc 1 134 0 is_stmt 1
 708 0050 46B1     		cbz	r6, .L55
 135:lvgl\src\lv_core/lv_group.c **** 
 709              		.loc 1 135 0
 710 0052 3460     		str	r4, [r6]
 139:lvgl\src\lv_core/lv_group.c ****         lv_group_refocus(group);
 711              		.loc 1 139 0
 712 0054 2846     		mov	r0, r5
 713 0056 FFF7FEFF 		bl	_lv_ll_get_head
 714              	.LVL85:
 715 005a 8642     		cmp	r6, r0
 716 005c 02D1     		bne	.L55
 140:lvgl\src\lv_core/lv_group.c ****     }
 717              		.loc 1 140 0
 718 005e 2846     		mov	r0, r5
 719 0060 FFF7FEFF 		bl	lv_group_refocus
 720              	.LVL86:
 721              	.L55:
 722 0064 70BD     		pop	{r4, r5, r6, pc}
 723              	.LVL87:
 724              	.L63:
 725              		.cfi_def_cfa_offset 0
 726              		.cfi_restore 4
 727              		.cfi_restore 5
 728              		.cfi_restore 6
 729              		.cfi_restore 14
ARM GAS  C:\Users\strap\AppData\Local\Temp\ccYsGOLb.s 			page 25


 730 0066 7047     		bx	lr
 731              	.L65:
 732              		.align	2
 733              	.L64:
 734 0068 00000000 		.word	.LC0
 735              		.cfi_endproc
 736              	.LFE331:
 737              		.size	lv_group_add_obj, .-lv_group_add_obj
 738              		.section	.text.lv_group_remove_obj,"ax",%progbits
 739              		.align	2
 740              		.global	lv_group_remove_obj
 741              		.thumb
 742              		.thumb_func
 743              		.type	lv_group_remove_obj, %function
 744              	lv_group_remove_obj:
 745              	.LFB332:
 149:lvgl\src\lv_core/lv_group.c ****     lv_group_t * g = obj->group_p;
 746              		.loc 1 149 0
 747              		.cfi_startproc
 748              		@ args = 0, pretend = 0, frame = 0
 749              		@ frame_needed = 0, uses_anonymous_args = 0
 750              	.LVL88:
 751 0000 F8B5     		push	{r3, r4, r5, r6, r7, lr}
 752              		.cfi_def_cfa_offset 24
 753              		.cfi_offset 3, -24
 754              		.cfi_offset 4, -20
 755              		.cfi_offset 5, -16
 756              		.cfi_offset 6, -12
 757              		.cfi_offset 7, -8
 758              		.cfi_offset 14, -4
 150:lvgl\src\lv_core/lv_group.c ****     if(g == NULL) return;
 759              		.loc 1 150 0
 760 0002 876B     		ldr	r7, [r0, #56]
 761              	.LVL89:
 151:lvgl\src\lv_core/lv_group.c ****     if(g->obj_focus == NULL) return; /*Just to be sure (Not possible if there is at least one objec
 762              		.loc 1 151 0
 763 0004 002F     		cmp	r7, #0
 764 0006 43D0     		beq	.L66
 152:lvgl\src\lv_core/lv_group.c **** 
 765              		.loc 1 152 0
 766 0008 FB68     		ldr	r3, [r7, #12]
 767 000a 002B     		cmp	r3, #0
 768 000c 40D0     		beq	.L66
 769 000e 0546     		mov	r5, r0
 155:lvgl\src\lv_core/lv_group.c ****         if(g->frozen) g->frozen = 0;
 770              		.loc 1 155 0
 771 0010 1B68     		ldr	r3, [r3]
 772 0012 9842     		cmp	r0, r3
 773 0014 1CD1     		bne	.L68
 156:lvgl\src\lv_core/lv_group.c **** 
 774              		.loc 1 156 0
 775 0016 3B7E     		ldrb	r3, [r7, #24]	@ zero_extendqisi2
 776 0018 13F0010F 		tst	r3, #1
 777 001c 03D0     		beq	.L69
 156:lvgl\src\lv_core/lv_group.c **** 
 778              		.loc 1 156 0 is_stmt 0 discriminator 1
 779 001e 3B7E     		ldrb	r3, [r7, #24]	@ zero_extendqisi2
ARM GAS  C:\Users\strap\AppData\Local\Temp\ccYsGOLb.s 			page 26


 780 0020 6FF30003 		bfc	r3, #0, #1
 781 0024 3B76     		strb	r3, [r7, #24]
 782              	.L69:
 159:lvgl\src\lv_core/lv_group.c ****             (*g->obj_focus)->signal_cb(*g->obj_focus, LV_SIGNAL_DEFOCUS, NULL);
 783              		.loc 1 159 0 is_stmt 1
 784 0026 3846     		mov	r0, r7
 785              	.LVL90:
 786 0028 FFF7FEFF 		bl	_lv_ll_get_head
 787              	.LVL91:
 788 002c FB68     		ldr	r3, [r7, #12]
 789 002e 8342     		cmp	r3, r0
 790 0030 0BD1     		bne	.L70
 159:lvgl\src\lv_core/lv_group.c ****             (*g->obj_focus)->signal_cb(*g->obj_focus, LV_SIGNAL_DEFOCUS, NULL);
 791              		.loc 1 159 0 is_stmt 0 discriminator 1
 792 0032 3846     		mov	r0, r7
 793 0034 FFF7FEFF 		bl	_lv_ll_get_tail
 794              	.LVL92:
 795 0038 FB68     		ldr	r3, [r7, #12]
 796 003a 8342     		cmp	r3, r0
 797 003c 05D1     		bne	.L70
 160:lvgl\src\lv_core/lv_group.c ****         }
 798              		.loc 1 160 0 is_stmt 1
 799 003e 1868     		ldr	r0, [r3]
 800 0040 C369     		ldr	r3, [r0, #28]
 801 0042 0022     		movs	r2, #0
 802 0044 1721     		movs	r1, #23
 803 0046 9847     		blx	r3
 804              	.LVL93:
 805 0048 02E0     		b	.L68
 806              	.L70:
 164:lvgl\src\lv_core/lv_group.c ****         }
 807              		.loc 1 164 0
 808 004a 3846     		mov	r0, r7
 809 004c FFF7FEFF 		bl	lv_group_refocus
 810              	.LVL94:
 811              	.L68:
 171:lvgl\src\lv_core/lv_group.c ****         g->obj_focus = NULL;
 812              		.loc 1 171 0
 813 0050 FB68     		ldr	r3, [r7, #12]
 814 0052 1B68     		ldr	r3, [r3]
 815 0054 9D42     		cmp	r5, r3
 816 0056 01D1     		bne	.L71
 172:lvgl\src\lv_core/lv_group.c ****     }
 817              		.loc 1 172 0
 818 0058 0023     		movs	r3, #0
 819 005a FB60     		str	r3, [r7, #12]
 820              	.L71:
 177:lvgl\src\lv_core/lv_group.c ****         if(*i == obj) {
 821              		.loc 1 177 0
 822 005c 3E46     		mov	r6, r7
 823 005e 3846     		mov	r0, r7
 824 0060 FFF7FEFF 		bl	_lv_ll_get_head
 825              	.LVL95:
 826 0064 0446     		mov	r4, r0
 827              	.LVL96:
 828 0066 11E0     		b	.L72
 829              	.LVL97:
ARM GAS  C:\Users\strap\AppData\Local\Temp\ccYsGOLb.s 			page 27


 830              	.L74:
 178:lvgl\src\lv_core/lv_group.c ****             _lv_ll_remove(&g->obj_ll, i);
 831              		.loc 1 178 0
 832 0068 2368     		ldr	r3, [r4]
 833 006a 9D42     		cmp	r5, r3
 834 006c 09D1     		bne	.L73
 179:lvgl\src\lv_core/lv_group.c ****             lv_mem_free(i);
 835              		.loc 1 179 0
 836 006e 2146     		mov	r1, r4
 837 0070 3846     		mov	r0, r7
 838              	.LVL98:
 839 0072 FFF7FEFF 		bl	_lv_ll_remove
 840              	.LVL99:
 180:lvgl\src\lv_core/lv_group.c ****             obj->group_p = NULL;
 841              		.loc 1 180 0
 842 0076 2046     		mov	r0, r4
 843 0078 FFF7FEFF 		bl	lv_mem_free
 844              	.LVL100:
 181:lvgl\src\lv_core/lv_group.c ****             break;
 845              		.loc 1 181 0
 846 007c 0023     		movs	r3, #0
 847 007e AB63     		str	r3, [r5, #56]
 182:lvgl\src\lv_core/lv_group.c ****         }
 848              		.loc 1 182 0
 849 0080 F8BD     		pop	{r3, r4, r5, r6, r7, pc}
 850              	.LVL101:
 851              	.L73:
 177:lvgl\src\lv_core/lv_group.c ****         if(*i == obj) {
 852              		.loc 1 177 0 discriminator 2
 853 0082 2146     		mov	r1, r4
 854 0084 3046     		mov	r0, r6
 855              	.LVL102:
 856 0086 FFF7FEFF 		bl	_lv_ll_get_next
 857              	.LVL103:
 858 008a 0446     		mov	r4, r0
 859              	.LVL104:
 860              	.L72:
 177:lvgl\src\lv_core/lv_group.c ****         if(*i == obj) {
 861              		.loc 1 177 0 is_stmt 0 discriminator 1
 862 008c 002C     		cmp	r4, #0
 863 008e EBD1     		bne	.L74
 864              	.LVL105:
 865              	.L66:
 866 0090 F8BD     		pop	{r3, r4, r5, r6, r7, pc}
 867              		.cfi_endproc
 868              	.LFE332:
 869              		.size	lv_group_remove_obj, .-lv_group_remove_obj
 870 0092 00BF     		.section	.text.lv_group_focus_freeze,"ax",%progbits
 871              		.align	2
 872              		.global	lv_group_focus_freeze
 873              		.thumb
 874              		.thumb_func
 875              		.type	lv_group_focus_freeze, %function
 876              	lv_group_focus_freeze:
 877              	.LFB337:
 277:lvgl\src\lv_core/lv_group.c ****     if(en == false)
 878              		.loc 1 277 0 is_stmt 1
ARM GAS  C:\Users\strap\AppData\Local\Temp\ccYsGOLb.s 			page 28


 879              		.cfi_startproc
 880              		@ args = 0, pretend = 0, frame = 0
 881              		@ frame_needed = 0, uses_anonymous_args = 0
 882              		@ link register save eliminated.
 883              	.LVL106:
 278:lvgl\src\lv_core/lv_group.c ****         group->frozen = 0;
 884              		.loc 1 278 0
 885 0000 21B9     		cbnz	r1, .L77
 279:lvgl\src\lv_core/lv_group.c ****     else
 886              		.loc 1 279 0
 887 0002 037E     		ldrb	r3, [r0, #24]	@ zero_extendqisi2
 888 0004 6FF30003 		bfc	r3, #0, #1
 889 0008 0376     		strb	r3, [r0, #24]
 890 000a 7047     		bx	lr
 891              	.L77:
 281:lvgl\src\lv_core/lv_group.c **** }
 892              		.loc 1 281 0
 893 000c 037E     		ldrb	r3, [r0, #24]	@ zero_extendqisi2
 894 000e 43F00103 		orr	r3, r3, #1
 895 0012 0376     		strb	r3, [r0, #24]
 896 0014 7047     		bx	lr
 897              		.cfi_endproc
 898              	.LFE337:
 899              		.size	lv_group_focus_freeze, .-lv_group_focus_freeze
 900 0016 00BF     		.section	.text.lv_group_set_focus_cb,"ax",%progbits
 901              		.align	2
 902              		.global	lv_group_set_focus_cb
 903              		.thumb
 904              		.thumb_func
 905              		.type	lv_group_set_focus_cb, %function
 906              	lv_group_set_focus_cb:
 907              	.LFB339:
 312:lvgl\src\lv_core/lv_group.c ****     group->focus_cb = focus_cb;
 908              		.loc 1 312 0
 909              		.cfi_startproc
 910              		@ args = 0, pretend = 0, frame = 0
 911              		@ frame_needed = 0, uses_anonymous_args = 0
 912              		@ link register save eliminated.
 913              	.LVL107:
 313:lvgl\src\lv_core/lv_group.c **** }
 914              		.loc 1 313 0
 915 0000 0161     		str	r1, [r0, #16]
 916 0002 7047     		bx	lr
 917              		.cfi_endproc
 918              	.LFE339:
 919              		.size	lv_group_set_focus_cb, .-lv_group_set_focus_cb
 920              		.section	.text.lv_group_set_click_focus,"ax",%progbits
 921              		.align	2
 922              		.global	lv_group_set_click_focus
 923              		.thumb
 924              		.thumb_func
 925              		.type	lv_group_set_click_focus, %function
 926              	lv_group_set_click_focus:
 927              	.LFB341:
 346:lvgl\src\lv_core/lv_group.c ****     group->click_focus = en ? 1 : 0;
 928              		.loc 1 346 0
 929              		.cfi_startproc
ARM GAS  C:\Users\strap\AppData\Local\Temp\ccYsGOLb.s 			page 29


 930              		@ args = 0, pretend = 0, frame = 0
 931              		@ frame_needed = 0, uses_anonymous_args = 0
 932              		@ link register save eliminated.
 933              	.LVL108:
 347:lvgl\src\lv_core/lv_group.c **** }
 934              		.loc 1 347 0
 935 0000 037E     		ldrb	r3, [r0, #24]	@ zero_extendqisi2
 936 0002 61F38203 		bfi	r3, r1, #2, #1
 937 0006 0376     		strb	r3, [r0, #24]
 938 0008 7047     		bx	lr
 939              		.cfi_endproc
 940              	.LFE341:
 941              		.size	lv_group_set_click_focus, .-lv_group_set_click_focus
 942 000a 00BF     		.section	.text.lv_group_set_refocus_policy,"ax",%progbits
 943              		.align	2
 944              		.global	lv_group_set_refocus_policy
 945              		.thumb
 946              		.thumb_func
 947              		.type	lv_group_set_refocus_policy, %function
 948              	lv_group_set_refocus_policy:
 949              	.LFB342:
 351:lvgl\src\lv_core/lv_group.c ****     group->refocus_policy = policy & 0x01;
 950              		.loc 1 351 0
 951              		.cfi_startproc
 952              		@ args = 0, pretend = 0, frame = 0
 953              		@ frame_needed = 0, uses_anonymous_args = 0
 954              		@ link register save eliminated.
 955              	.LVL109:
 352:lvgl\src\lv_core/lv_group.c **** }
 956              		.loc 1 352 0
 957 0000 037E     		ldrb	r3, [r0, #24]	@ zero_extendqisi2
 958 0002 61F3C303 		bfi	r3, r1, #3, #1
 959 0006 0376     		strb	r3, [r0, #24]
 960 0008 7047     		bx	lr
 961              		.cfi_endproc
 962              	.LFE342:
 963              		.size	lv_group_set_refocus_policy, .-lv_group_set_refocus_policy
 964 000a 00BF     		.section	.text.lv_group_set_wrap,"ax",%progbits
 965              		.align	2
 966              		.global	lv_group_set_wrap
 967              		.thumb
 968              		.thumb_func
 969              		.type	lv_group_set_wrap, %function
 970              	lv_group_set_wrap:
 971              	.LFB343:
 361:lvgl\src\lv_core/lv_group.c ****     group->wrap = en ? 1 : 0;
 972              		.loc 1 361 0
 973              		.cfi_startproc
 974              		@ args = 0, pretend = 0, frame = 0
 975              		@ frame_needed = 0, uses_anonymous_args = 0
 976              		@ link register save eliminated.
 977              	.LVL110:
 362:lvgl\src\lv_core/lv_group.c **** }
 978              		.loc 1 362 0
 979 0000 037E     		ldrb	r3, [r0, #24]	@ zero_extendqisi2
 980 0002 61F30413 		bfi	r3, r1, #4, #1
 981 0006 0376     		strb	r3, [r0, #24]
ARM GAS  C:\Users\strap\AppData\Local\Temp\ccYsGOLb.s 			page 30


 982 0008 7047     		bx	lr
 983              		.cfi_endproc
 984              	.LFE343:
 985              		.size	lv_group_set_wrap, .-lv_group_set_wrap
 986 000a 00BF     		.section	.text.lv_group_get_focused,"ax",%progbits
 987              		.align	2
 988              		.global	lv_group_get_focused
 989              		.thumb
 990              		.thumb_func
 991              		.type	lv_group_get_focused, %function
 992              	lv_group_get_focused:
 993              	.LFB344:
 371:lvgl\src\lv_core/lv_group.c ****     if(!group) return NULL;
 994              		.loc 1 371 0
 995              		.cfi_startproc
 996              		@ args = 0, pretend = 0, frame = 0
 997              		@ frame_needed = 0, uses_anonymous_args = 0
 998              		@ link register save eliminated.
 999              	.LVL111:
 372:lvgl\src\lv_core/lv_group.c ****     if(group->obj_focus == NULL) return NULL;
 1000              		.loc 1 372 0
 1001 0000 18B1     		cbz	r0, .L85
 373:lvgl\src\lv_core/lv_group.c **** 
 1002              		.loc 1 373 0
 1003 0002 C368     		ldr	r3, [r0, #12]
 1004 0004 1BB1     		cbz	r3, .L86
 375:lvgl\src\lv_core/lv_group.c **** }
 1005              		.loc 1 375 0
 1006 0006 1868     		ldr	r0, [r3]
 1007              	.LVL112:
 1008 0008 7047     		bx	lr
 1009              	.LVL113:
 1010              	.L85:
 372:lvgl\src\lv_core/lv_group.c ****     if(group->obj_focus == NULL) return NULL;
 1011              		.loc 1 372 0
 1012 000a 0020     		movs	r0, #0
 1013              	.LVL114:
 1014 000c 7047     		bx	lr
 1015              	.LVL115:
 1016              	.L86:
 373:lvgl\src\lv_core/lv_group.c **** 
 1017              		.loc 1 373 0
 1018 000e 0020     		movs	r0, #0
 1019              	.LVL116:
 376:lvgl\src\lv_core/lv_group.c **** 
 1020              		.loc 1 376 0
 1021 0010 7047     		bx	lr
 1022              		.cfi_endproc
 1023              	.LFE344:
 1024              		.size	lv_group_get_focused, .-lv_group_get_focused
 1025 0012 00BF     		.section	.text.lv_group_send_data,"ax",%progbits
 1026              		.align	2
 1027              		.global	lv_group_send_data
 1028              		.thumb
 1029              		.thumb_func
 1030              		.type	lv_group_send_data, %function
 1031              	lv_group_send_data:
ARM GAS  C:\Users\strap\AppData\Local\Temp\ccYsGOLb.s 			page 31


 1032              	.LFB338:
 291:lvgl\src\lv_core/lv_group.c ****     lv_obj_t * act = lv_group_get_focused(group);
 1033              		.loc 1 291 0
 1034              		.cfi_startproc
 1035              		@ args = 0, pretend = 0, frame = 8
 1036              		@ frame_needed = 0, uses_anonymous_args = 0
 1037              	.LVL117:
 1038 0000 10B5     		push	{r4, lr}
 1039              		.cfi_def_cfa_offset 8
 1040              		.cfi_offset 4, -8
 1041              		.cfi_offset 14, -4
 1042 0002 82B0     		sub	sp, sp, #8
 1043              		.cfi_def_cfa_offset 16
 1044 0004 0191     		str	r1, [sp, #4]
 292:lvgl\src\lv_core/lv_group.c ****     if(act == NULL) return LV_RES_OK;
 1045              		.loc 1 292 0
 1046 0006 FFF7FEFF 		bl	lv_group_get_focused
 1047              	.LVL118:
 293:lvgl\src\lv_core/lv_group.c **** 
 1048              		.loc 1 293 0
 1049 000a 60B1     		cbz	r0, .L89
 1050 000c 0446     		mov	r4, r0
 297:lvgl\src\lv_core/lv_group.c ****     if(res != LV_RES_OK) return res;
 1051              		.loc 1 297 0
 1052 000e C369     		ldr	r3, [r0, #28]
 1053 0010 01AA     		add	r2, sp, #4
 1054              	.LVL119:
 1055 0012 1821     		movs	r1, #24
 1056 0014 9847     		blx	r3
 1057              	.LVL120:
 298:lvgl\src\lv_core/lv_group.c **** 
 1058              		.loc 1 298 0
 1059 0016 0128     		cmp	r0, #1
 1060 0018 06D1     		bne	.L88
 300:lvgl\src\lv_core/lv_group.c ****     if(res != LV_RES_OK) return res;
 1061              		.loc 1 300 0
 1062 001a 01AA     		add	r2, sp, #4
 1063              	.LVL121:
 1064 001c 0C21     		movs	r1, #12
 1065 001e 2046     		mov	r0, r4
 1066              	.LVL122:
 1067 0020 FFF7FEFF 		bl	lv_event_send
 1068              	.LVL123:
 1069 0024 00E0     		b	.L88
 1070              	.LVL124:
 1071              	.L89:
 293:lvgl\src\lv_core/lv_group.c **** 
 1072              		.loc 1 293 0
 1073 0026 0120     		movs	r0, #1
 1074              	.LVL125:
 1075              	.L88:
 304:lvgl\src\lv_core/lv_group.c **** 
 1076              		.loc 1 304 0
 1077 0028 02B0     		add	sp, sp, #8
 1078              		.cfi_def_cfa_offset 8
 1079              		@ sp needed
 1080 002a 10BD     		pop	{r4, pc}
ARM GAS  C:\Users\strap\AppData\Local\Temp\ccYsGOLb.s 			page 32


 1081              		.cfi_endproc
 1082              	.LFE338:
 1083              		.size	lv_group_send_data, .-lv_group_send_data
 1084              		.section	.text.lv_group_set_editing,"ax",%progbits
 1085              		.align	2
 1086              		.global	lv_group_set_editing
 1087              		.thumb
 1088              		.thumb_func
 1089              		.type	lv_group_set_editing, %function
 1090              	lv_group_set_editing:
 1091              	.LFB340:
 322:lvgl\src\lv_core/lv_group.c ****     if(group == NULL) return;
 1092              		.loc 1 322 0
 1093              		.cfi_startproc
 1094              		@ args = 0, pretend = 0, frame = 0
 1095              		@ frame_needed = 0, uses_anonymous_args = 0
 1096              	.LVL126:
 323:lvgl\src\lv_core/lv_group.c ****     uint8_t en_val = edit ? 1 : 0;
 1097              		.loc 1 323 0
 1098 0000 F0B1     		cbz	r0, .L95
 322:lvgl\src\lv_core/lv_group.c ****     if(group == NULL) return;
 1099              		.loc 1 322 0
 1100 0002 38B5     		push	{r3, r4, r5, lr}
 1101              		.cfi_def_cfa_offset 16
 1102              		.cfi_offset 3, -16
 1103              		.cfi_offset 4, -12
 1104              		.cfi_offset 5, -8
 1105              		.cfi_offset 14, -4
 1106 0004 0446     		mov	r4, r0
 1107              	.LVL127:
 326:lvgl\src\lv_core/lv_group.c **** 
 1108              		.loc 1 326 0
 1109 0006 037E     		ldrb	r3, [r0, #24]	@ zero_extendqisi2
 1110 0008 C3F34003 		ubfx	r3, r3, #1, #1
 1111 000c 9942     		cmp	r1, r3
 1112 000e 16D0     		beq	.L92
 328:lvgl\src\lv_core/lv_group.c ****     lv_obj_t * focused = lv_group_get_focused(group);
 1113              		.loc 1 328 0
 1114 0010 037E     		ldrb	r3, [r0, #24]	@ zero_extendqisi2
 1115 0012 61F34103 		bfi	r3, r1, #1, #1
 1116 0016 0376     		strb	r3, [r0, #24]
 329:lvgl\src\lv_core/lv_group.c **** 
 1117              		.loc 1 329 0
 1118 0018 FFF7FEFF 		bl	lv_group_get_focused
 1119              	.LVL128:
 331:lvgl\src\lv_core/lv_group.c ****         focused->signal_cb(focused, LV_SIGNAL_FOCUS, NULL); /*Focus again to properly leave/open ed
 1120              		.loc 1 331 0
 1121 001c 0546     		mov	r5, r0
 1122 001e 70B1     		cbz	r0, .L92
 1123              	.LBB3:
 332:lvgl\src\lv_core/lv_group.c ****         lv_res_t res = lv_event_send(*group->obj_focus, LV_EVENT_FOCUSED, NULL);
 1124              		.loc 1 332 0
 1125 0020 C369     		ldr	r3, [r0, #28]
 1126 0022 0022     		movs	r2, #0
 1127 0024 1621     		movs	r1, #22
 1128 0026 9847     		blx	r3
 1129              	.LVL129:
ARM GAS  C:\Users\strap\AppData\Local\Temp\ccYsGOLb.s 			page 33


 333:lvgl\src\lv_core/lv_group.c ****         if(res != LV_RES_OK) return;
 1130              		.loc 1 333 0
 1131 0028 E368     		ldr	r3, [r4, #12]
 1132 002a 0022     		movs	r2, #0
 1133 002c 0D21     		movs	r1, #13
 1134 002e 1868     		ldr	r0, [r3]
 1135 0030 FFF7FEFF 		bl	lv_event_send
 1136              	.LVL130:
 334:lvgl\src\lv_core/lv_group.c **** 
 1137              		.loc 1 334 0
 1138 0034 0128     		cmp	r0, #1
 1139 0036 02D1     		bne	.L92
 336:lvgl\src\lv_core/lv_group.c ****     }
 1140              		.loc 1 336 0
 1141 0038 2846     		mov	r0, r5
 1142              	.LVL131:
 1143 003a FFF7FEFF 		bl	lv_obj_invalidate
 1144              	.LVL132:
 1145              	.L92:
 1146 003e 38BD     		pop	{r3, r4, r5, pc}
 1147              	.LVL133:
 1148              	.L95:
 1149              		.cfi_def_cfa_offset 0
 1150              		.cfi_restore 3
 1151              		.cfi_restore 4
 1152              		.cfi_restore 5
 1153              		.cfi_restore 14
 1154 0040 7047     		bx	lr
 1155              	.LBE3:
 1156              		.cfi_endproc
 1157              	.LFE340:
 1158              		.size	lv_group_set_editing, .-lv_group_set_editing
 1159 0042 00BF     		.section	.text.lv_group_focus_obj,"ax",%progbits
 1160              		.align	2
 1161              		.global	lv_group_focus_obj
 1162              		.thumb
 1163              		.thumb_func
 1164              		.type	lv_group_focus_obj, %function
 1165              	lv_group_focus_obj:
 1166              	.LFB334:
 214:lvgl\src\lv_core/lv_group.c ****     if(obj == NULL) return;
 1167              		.loc 1 214 0
 1168              		.cfi_startproc
 1169              		@ args = 0, pretend = 0, frame = 0
 1170              		@ frame_needed = 0, uses_anonymous_args = 0
 1171              	.LVL134:
 215:lvgl\src\lv_core/lv_group.c ****     lv_group_t * g = obj->group_p;
 1172              		.loc 1 215 0
 1173 0000 0028     		cmp	r0, #0
 1174 0002 51D0     		beq	.L105
 214:lvgl\src\lv_core/lv_group.c ****     if(obj == NULL) return;
 1175              		.loc 1 214 0
 1176 0004 F8B5     		push	{r3, r4, r5, r6, r7, lr}
 1177              		.cfi_def_cfa_offset 24
 1178              		.cfi_offset 3, -24
 1179              		.cfi_offset 4, -20
 1180              		.cfi_offset 5, -16
ARM GAS  C:\Users\strap\AppData\Local\Temp\ccYsGOLb.s 			page 34


 1181              		.cfi_offset 6, -12
 1182              		.cfi_offset 7, -8
 1183              		.cfi_offset 14, -4
 1184 0006 0546     		mov	r5, r0
 216:lvgl\src\lv_core/lv_group.c ****     if(g == NULL) return;
 1185              		.loc 1 216 0
 1186 0008 866B     		ldr	r6, [r0, #56]
 1187              	.LVL135:
 217:lvgl\src\lv_core/lv_group.c **** 
 1188              		.loc 1 217 0
 1189 000a 002E     		cmp	r6, #0
 1190 000c 4BD0     		beq	.L96
 219:lvgl\src\lv_core/lv_group.c **** 
 1191              		.loc 1 219 0
 1192 000e 337E     		ldrb	r3, [r6, #24]	@ zero_extendqisi2
 1193 0010 13F0010F 		tst	r3, #1
 1194 0014 47D1     		bne	.L96
 221:lvgl\src\lv_core/lv_group.c **** 
 1195              		.loc 1 221 0
 1196 0016 F368     		ldr	r3, [r6, #12]
 1197 0018 13B1     		cbz	r3, .L98
 221:lvgl\src\lv_core/lv_group.c **** 
 1198              		.loc 1 221 0 is_stmt 0 discriminator 1
 1199 001a 1B68     		ldr	r3, [r3]
 1200 001c 9842     		cmp	r0, r3
 1201 001e 42D0     		beq	.L96
 1202              	.L98:
 224:lvgl\src\lv_core/lv_group.c **** 
 1203              		.loc 1 224 0 is_stmt 1
 1204 0020 0021     		movs	r1, #0
 1205 0022 3046     		mov	r0, r6
 1206              	.LVL136:
 1207 0024 FFF7FEFF 		bl	lv_group_set_editing
 1208              	.LVL137:
 227:lvgl\src\lv_core/lv_group.c ****         if(*i == obj) {
 1209              		.loc 1 227 0
 1210 0028 3746     		mov	r7, r6
 1211 002a 3046     		mov	r0, r6
 1212 002c FFF7FEFF 		bl	_lv_ll_get_head
 1213              	.LVL138:
 1214 0030 0446     		mov	r4, r0
 1215              	.LVL139:
 1216 0032 36E0     		b	.L99
 1217              	.L103:
 228:lvgl\src\lv_core/lv_group.c ****             if(g->obj_focus != NULL) {
 1218              		.loc 1 228 0
 1219 0034 2368     		ldr	r3, [r4]
 1220 0036 9D42     		cmp	r5, r3
 1221 0038 2ED1     		bne	.L100
 229:lvgl\src\lv_core/lv_group.c ****                 (*g->obj_focus)->signal_cb(*g->obj_focus, LV_SIGNAL_DEFOCUS, NULL);
 1222              		.loc 1 229 0
 1223 003a F368     		ldr	r3, [r6, #12]
 1224 003c 83B1     		cbz	r3, .L101
 1225              	.LBB4:
 230:lvgl\src\lv_core/lv_group.c ****                 lv_res_t res = lv_event_send(*g->obj_focus, LV_EVENT_DEFOCUSED, NULL);
 1226              		.loc 1 230 0
 1227 003e 1868     		ldr	r0, [r3]
ARM GAS  C:\Users\strap\AppData\Local\Temp\ccYsGOLb.s 			page 35


 1228              	.LVL140:
 1229 0040 C369     		ldr	r3, [r0, #28]
 1230 0042 0022     		movs	r2, #0
 1231 0044 1721     		movs	r1, #23
 1232 0046 9847     		blx	r3
 1233              	.LVL141:
 231:lvgl\src\lv_core/lv_group.c ****                 if(res != LV_RES_OK) return;
 1234              		.loc 1 231 0
 1235 0048 F368     		ldr	r3, [r6, #12]
 1236 004a 0022     		movs	r2, #0
 1237 004c 0E21     		movs	r1, #14
 1238 004e 1868     		ldr	r0, [r3]
 1239 0050 FFF7FEFF 		bl	lv_event_send
 1240              	.LVL142:
 232:lvgl\src\lv_core/lv_group.c ****                 lv_obj_invalidate(*g->obj_focus);
 1241              		.loc 1 232 0
 1242 0054 0128     		cmp	r0, #1
 1243 0056 26D1     		bne	.L96
 233:lvgl\src\lv_core/lv_group.c ****             }
 1244              		.loc 1 233 0
 1245 0058 F368     		ldr	r3, [r6, #12]
 1246 005a 1868     		ldr	r0, [r3]
 1247              	.LVL143:
 1248 005c FFF7FEFF 		bl	lv_obj_invalidate
 1249              	.LVL144:
 1250              	.L101:
 1251              	.LBE4:
 236:lvgl\src\lv_core/lv_group.c **** 
 1252              		.loc 1 236 0
 1253 0060 F460     		str	r4, [r6, #12]
 238:lvgl\src\lv_core/lv_group.c ****                 (*g->obj_focus)->signal_cb(*g->obj_focus, LV_SIGNAL_FOCUS, NULL);
 1254              		.loc 1 238 0
 1255 0062 04B3     		cbz	r4, .L96
 1256              	.LBB5:
 239:lvgl\src\lv_core/lv_group.c ****                 if(g->focus_cb) g->focus_cb(g);
 1257              		.loc 1 239 0
 1258 0064 2068     		ldr	r0, [r4]
 1259 0066 C369     		ldr	r3, [r0, #28]
 1260 0068 0022     		movs	r2, #0
 1261 006a 1621     		movs	r1, #22
 1262 006c 9847     		blx	r3
 1263              	.LVL145:
 240:lvgl\src\lv_core/lv_group.c ****                 lv_res_t res = lv_event_send(*g->obj_focus, LV_EVENT_FOCUSED, NULL);
 1264              		.loc 1 240 0
 1265 006e 3369     		ldr	r3, [r6, #16]
 1266 0070 0BB1     		cbz	r3, .L102
 240:lvgl\src\lv_core/lv_group.c ****                 lv_res_t res = lv_event_send(*g->obj_focus, LV_EVENT_FOCUSED, NULL);
 1267              		.loc 1 240 0 is_stmt 0 discriminator 1
 1268 0072 3046     		mov	r0, r6
 1269 0074 9847     		blx	r3
 1270              	.LVL146:
 1271              	.L102:
 241:lvgl\src\lv_core/lv_group.c ****                 if(res != LV_RES_OK) return;
 1272              		.loc 1 241 0 is_stmt 1
 1273 0076 F368     		ldr	r3, [r6, #12]
 1274 0078 0022     		movs	r2, #0
 1275 007a 0D21     		movs	r1, #13
ARM GAS  C:\Users\strap\AppData\Local\Temp\ccYsGOLb.s 			page 36


 1276 007c 1868     		ldr	r0, [r3]
 1277 007e FFF7FEFF 		bl	lv_event_send
 1278              	.LVL147:
 242:lvgl\src\lv_core/lv_group.c ****                 lv_obj_invalidate(*g->obj_focus);
 1279              		.loc 1 242 0
 1280 0082 0128     		cmp	r0, #1
 1281 0084 0FD1     		bne	.L96
 243:lvgl\src\lv_core/lv_group.c **** 
 1282              		.loc 1 243 0
 1283 0086 F368     		ldr	r3, [r6, #12]
 1284 0088 1868     		ldr	r0, [r3]
 1285              	.LVL148:
 1286 008a FFF7FEFF 		bl	lv_obj_invalidate
 1287              	.LVL149:
 246:lvgl\src\lv_core/lv_group.c ****             }
 1288              		.loc 1 246 0
 1289 008e F368     		ldr	r3, [r6, #12]
 1290 0090 1868     		ldr	r0, [r3]
 1291 0092 FFF7FEFF 		bl	obj_to_foreground
 1292              	.LVL150:
 1293 0096 F8BD     		pop	{r3, r4, r5, r6, r7, pc}
 1294              	.LVL151:
 1295              	.L100:
 1296              	.LBE5:
 227:lvgl\src\lv_core/lv_group.c ****         if(*i == obj) {
 1297              		.loc 1 227 0 discriminator 2
 1298 0098 2146     		mov	r1, r4
 1299 009a 3846     		mov	r0, r7
 1300              	.LVL152:
 1301 009c FFF7FEFF 		bl	_lv_ll_get_next
 1302              	.LVL153:
 1303 00a0 0446     		mov	r4, r0
 1304              	.LVL154:
 1305              	.L99:
 227:lvgl\src\lv_core/lv_group.c ****         if(*i == obj) {
 1306              		.loc 1 227 0 is_stmt 0 discriminator 1
 1307 00a2 002C     		cmp	r4, #0
 1308 00a4 C6D1     		bne	.L103
 1309              	.LVL155:
 1310              	.L96:
 1311 00a6 F8BD     		pop	{r3, r4, r5, r6, r7, pc}
 1312              	.LVL156:
 1313              	.L105:
 1314              		.cfi_def_cfa_offset 0
 1315              		.cfi_restore 3
 1316              		.cfi_restore 4
 1317              		.cfi_restore 5
 1318              		.cfi_restore 6
 1319              		.cfi_restore 7
 1320              		.cfi_restore 14
 1321 00a8 7047     		bx	lr
 1322              		.cfi_endproc
 1323              	.LFE334:
 1324              		.size	lv_group_focus_obj, .-lv_group_focus_obj
 1325 00aa 00BF     		.section	.text.lv_group_get_user_data,"ax",%progbits
 1326              		.align	2
 1327              		.global	lv_group_get_user_data
ARM GAS  C:\Users\strap\AppData\Local\Temp\ccYsGOLb.s 			page 37


 1328              		.thumb
 1329              		.thumb_func
 1330              		.type	lv_group_get_user_data, %function
 1331              	lv_group_get_user_data:
 1332              	.LFB345:
 385:lvgl\src\lv_core/lv_group.c ****     return &group->user_data;
 1333              		.loc 1 385 0 is_stmt 1
 1334              		.cfi_startproc
 1335              		@ args = 0, pretend = 0, frame = 0
 1336              		@ frame_needed = 0, uses_anonymous_args = 0
 1337              		@ link register save eliminated.
 1338              	.LVL157:
 387:lvgl\src\lv_core/lv_group.c **** #endif
 1339              		.loc 1 387 0
 1340 0000 1430     		adds	r0, r0, #20
 1341              	.LVL158:
 1342 0002 7047     		bx	lr
 1343              		.cfi_endproc
 1344              	.LFE345:
 1345              		.size	lv_group_get_user_data, .-lv_group_get_user_data
 1346              		.section	.text.lv_group_get_focus_cb,"ax",%progbits
 1347              		.align	2
 1348              		.global	lv_group_get_focus_cb
 1349              		.thumb
 1350              		.thumb_func
 1351              		.type	lv_group_get_focus_cb, %function
 1352              	lv_group_get_focus_cb:
 1353              	.LFB346:
 396:lvgl\src\lv_core/lv_group.c ****     if(!group) return NULL;
 1354              		.loc 1 396 0
 1355              		.cfi_startproc
 1356              		@ args = 0, pretend = 0, frame = 0
 1357              		@ frame_needed = 0, uses_anonymous_args = 0
 1358              		@ link register save eliminated.
 1359              	.LVL159:
 397:lvgl\src\lv_core/lv_group.c ****     return group->focus_cb;
 1360              		.loc 1 397 0
 1361 0000 08B1     		cbz	r0, .L109
 398:lvgl\src\lv_core/lv_group.c **** }
 1362              		.loc 1 398 0
 1363 0002 0069     		ldr	r0, [r0, #16]
 1364              	.LVL160:
 1365 0004 7047     		bx	lr
 1366              	.LVL161:
 1367              	.L109:
 397:lvgl\src\lv_core/lv_group.c ****     return group->focus_cb;
 1368              		.loc 1 397 0
 1369 0006 0020     		movs	r0, #0
 1370              	.LVL162:
 399:lvgl\src\lv_core/lv_group.c **** 
 1371              		.loc 1 399 0
 1372 0008 7047     		bx	lr
 1373              		.cfi_endproc
 1374              	.LFE346:
 1375              		.size	lv_group_get_focus_cb, .-lv_group_get_focus_cb
 1376 000a 00BF     		.section	.text.lv_group_get_editing,"ax",%progbits
 1377              		.align	2
ARM GAS  C:\Users\strap\AppData\Local\Temp\ccYsGOLb.s 			page 38


 1378              		.global	lv_group_get_editing
 1379              		.thumb
 1380              		.thumb_func
 1381              		.type	lv_group_get_editing, %function
 1382              	lv_group_get_editing:
 1383              	.LFB347:
 407:lvgl\src\lv_core/lv_group.c ****     if(!group) return false;
 1384              		.loc 1 407 0
 1385              		.cfi_startproc
 1386              		@ args = 0, pretend = 0, frame = 0
 1387              		@ frame_needed = 0, uses_anonymous_args = 0
 1388              		@ link register save eliminated.
 1389              	.LVL163:
 408:lvgl\src\lv_core/lv_group.c ****     return group->editing ? true : false;
 1390              		.loc 1 408 0
 1391 0000 18B1     		cbz	r0, .L112
 409:lvgl\src\lv_core/lv_group.c **** }
 1392              		.loc 1 409 0
 1393 0002 007E     		ldrb	r0, [r0, #24]	@ zero_extendqisi2
 1394              	.LVL164:
 1395 0004 C0F34000 		ubfx	r0, r0, #1, #1
 1396 0008 7047     		bx	lr
 1397              	.LVL165:
 1398              	.L112:
 408:lvgl\src\lv_core/lv_group.c ****     return group->editing ? true : false;
 1399              		.loc 1 408 0
 1400 000a 0020     		movs	r0, #0
 1401              	.LVL166:
 410:lvgl\src\lv_core/lv_group.c **** 
 1402              		.loc 1 410 0
 1403 000c 7047     		bx	lr
 1404              		.cfi_endproc
 1405              	.LFE347:
 1406              		.size	lv_group_get_editing, .-lv_group_get_editing
 1407 000e 00BF     		.section	.text.lv_group_get_click_focus,"ax",%progbits
 1408              		.align	2
 1409              		.global	lv_group_get_click_focus
 1410              		.thumb
 1411              		.thumb_func
 1412              		.type	lv_group_get_click_focus, %function
 1413              	lv_group_get_click_focus:
 1414              	.LFB348:
 418:lvgl\src\lv_core/lv_group.c ****     if(!group) return false;
 1415              		.loc 1 418 0
 1416              		.cfi_startproc
 1417              		@ args = 0, pretend = 0, frame = 0
 1418              		@ frame_needed = 0, uses_anonymous_args = 0
 1419              		@ link register save eliminated.
 1420              	.LVL167:
 419:lvgl\src\lv_core/lv_group.c ****     return group->click_focus ? true : false;
 1421              		.loc 1 419 0
 1422 0000 18B1     		cbz	r0, .L115
 420:lvgl\src\lv_core/lv_group.c **** }
 1423              		.loc 1 420 0
 1424 0002 007E     		ldrb	r0, [r0, #24]	@ zero_extendqisi2
 1425              	.LVL168:
 1426 0004 C0F38000 		ubfx	r0, r0, #2, #1
ARM GAS  C:\Users\strap\AppData\Local\Temp\ccYsGOLb.s 			page 39


 1427 0008 7047     		bx	lr
 1428              	.LVL169:
 1429              	.L115:
 419:lvgl\src\lv_core/lv_group.c ****     return group->click_focus ? true : false;
 1430              		.loc 1 419 0
 1431 000a 0020     		movs	r0, #0
 1432              	.LVL170:
 421:lvgl\src\lv_core/lv_group.c **** 
 1433              		.loc 1 421 0
 1434 000c 7047     		bx	lr
 1435              		.cfi_endproc
 1436              	.LFE348:
 1437              		.size	lv_group_get_click_focus, .-lv_group_get_click_focus
 1438 000e 00BF     		.section	.text.lv_group_get_wrap,"ax",%progbits
 1439              		.align	2
 1440              		.global	lv_group_get_wrap
 1441              		.thumb
 1442              		.thumb_func
 1443              		.type	lv_group_get_wrap, %function
 1444              	lv_group_get_wrap:
 1445              	.LFB349:
 429:lvgl\src\lv_core/lv_group.c ****     if(!group) return false;
 1446              		.loc 1 429 0
 1447              		.cfi_startproc
 1448              		@ args = 0, pretend = 0, frame = 0
 1449              		@ frame_needed = 0, uses_anonymous_args = 0
 1450              		@ link register save eliminated.
 1451              	.LVL171:
 430:lvgl\src\lv_core/lv_group.c ****     return group->wrap ? true : false;
 1452              		.loc 1 430 0
 1453 0000 18B1     		cbz	r0, .L118
 431:lvgl\src\lv_core/lv_group.c **** }
 1454              		.loc 1 431 0
 1455 0002 007E     		ldrb	r0, [r0, #24]	@ zero_extendqisi2
 1456              	.LVL172:
 1457 0004 C0F30010 		ubfx	r0, r0, #4, #1
 1458 0008 7047     		bx	lr
 1459              	.LVL173:
 1460              	.L118:
 430:lvgl\src\lv_core/lv_group.c ****     return group->wrap ? true : false;
 1461              		.loc 1 430 0
 1462 000a 0020     		movs	r0, #0
 1463              	.LVL174:
 432:lvgl\src\lv_core/lv_group.c **** 
 1464              		.loc 1 432 0
 1465 000c 7047     		bx	lr
 1466              		.cfi_endproc
 1467              	.LFE349:
 1468              		.size	lv_group_get_wrap, .-lv_group_get_wrap
 1469 000e 00BF     		.section	.rodata.str1.4,"aMS",%progbits,1
 1470              		.align	2
 1471              	.LC0:
 1472 0000 4F757420 		.ascii	"Out of memory\000"
 1472      6F66206D 
 1472      656D6F72 
 1472      7900
 1473              		.text
ARM GAS  C:\Users\strap\AppData\Local\Temp\ccYsGOLb.s 			page 40


 1474              	.Letext0:
 1475              		.file 2 "c:\\program files (x86)\\cypress\\psoc creator\\4.4\\psoc creator\\import\\gnu\\arm\\5.4.
 1476              		.file 3 "c:\\program files (x86)\\cypress\\psoc creator\\4.4\\psoc creator\\import\\gnu\\arm\\5.4.
 1477              		.file 4 "lvgl\\src\\lv_core\\../../../lv_conf.h"
 1478              		.file 5 "lvgl\\src\\lv_core\\../lv_font/../lv_misc/lv_types.h"
 1479              		.file 6 "lvgl\\src\\lv_core\\../lv_font/../lv_misc/lv_area.h"
 1480              		.file 7 "lvgl\\src\\lv_core\\lv_style.h"
 1481              		.file 8 "lvgl\\src\\lv_core\\../lv_hal/../lv_misc/lv_ll.h"
 1482              		.file 9 "lvgl\\src\\lv_core\\lv_obj.h"
 1483              		.file 10 "lvgl\\src\\lv_core\\../lv_hal/lv_hal_indev.h"
 1484              		.file 11 "lvgl\\src\\lv_core\\lv_group.h"
 1485              		.file 12 "lvgl\\src\\lv_core\\../lv_draw/../lv_misc/lv_bidi.h"
 1486              		.file 13 "lvgl\\src\\lv_core\\../lv_misc/lv_debug.h"
 1487              		.file 14 "lvgl\\src\\lv_core\\../lv_font/../lv_misc/lv_mem.h"
 1488              		.file 15 "lvgl\\src\\lv_core\\../lv_misc/lv_gc.h"