ARM GAS  C:\Users\strap\AppData\Local\Temp\cct3Asa7.s 			page 1


   1              		.syntax unified
   2              		.cpu cortex-m3
   3              		.fpu softvfp
   4              		.eabi_attribute 20, 1
   5              		.eabi_attribute 21, 1
   6              		.eabi_attribute 23, 3
   7              		.eabi_attribute 24, 1
   8              		.eabi_attribute 25, 1
   9              		.eabi_attribute 26, 1
  10              		.eabi_attribute 30, 1
  11              		.eabi_attribute 34, 1
  12              		.eabi_attribute 18, 4
  13              		.thumb
  14              		.syntax unified
  15              		.file	"lv_hal_indev.c"
  16              		.text
  17              	.Ltext0:
  18              		.cfi_sections	.debug_frame
  19              		.section	.text.lv_indev_drv_init,"ax",%progbits
  20              		.align	2
  21              		.global	lv_indev_drv_init
  22              		.thumb
  23              		.thumb_func
  24              		.type	lv_indev_drv_init, %function
  25              	lv_indev_drv_init:
  26              	.LFB328:
  27              		.file 1 "lvgl\\src\\lv_hal\\lv_hal_indev.c"
   1:lvgl\src\lv_hal/lv_hal_indev.c **** /**
   2:lvgl\src\lv_hal/lv_hal_indev.c ****  * @file hal_indev.c
   3:lvgl\src\lv_hal/lv_hal_indev.c ****  *
   4:lvgl\src\lv_hal/lv_hal_indev.c ****  * @description Input device HAL interface
   5:lvgl\src\lv_hal/lv_hal_indev.c ****  *
   6:lvgl\src\lv_hal/lv_hal_indev.c ****  */
   7:lvgl\src\lv_hal/lv_hal_indev.c **** 
   8:lvgl\src\lv_hal/lv_hal_indev.c **** /*********************
   9:lvgl\src\lv_hal/lv_hal_indev.c ****  *      INCLUDES
  10:lvgl\src\lv_hal/lv_hal_indev.c ****  *********************/
  11:lvgl\src\lv_hal/lv_hal_indev.c **** #include "../lv_misc/lv_debug.h"
  12:lvgl\src\lv_hal/lv_hal_indev.c **** #include "../lv_hal/lv_hal_indev.h"
  13:lvgl\src\lv_hal/lv_hal_indev.c **** #include "../lv_core/lv_indev.h"
  14:lvgl\src\lv_hal/lv_hal_indev.c **** #include "../lv_misc/lv_mem.h"
  15:lvgl\src\lv_hal/lv_hal_indev.c **** #include "../lv_misc/lv_gc.h"
  16:lvgl\src\lv_hal/lv_hal_indev.c **** #include "lv_hal_disp.h"
  17:lvgl\src\lv_hal/lv_hal_indev.c **** 
  18:lvgl\src\lv_hal/lv_hal_indev.c **** #if defined(LV_GC_INCLUDE)
  19:lvgl\src\lv_hal/lv_hal_indev.c ****     #include LV_GC_INCLUDE
  20:lvgl\src\lv_hal/lv_hal_indev.c **** #endif /* LV_ENABLE_GC */
  21:lvgl\src\lv_hal/lv_hal_indev.c **** 
  22:lvgl\src\lv_hal/lv_hal_indev.c **** /*********************
  23:lvgl\src\lv_hal/lv_hal_indev.c ****  *      DEFINES
  24:lvgl\src\lv_hal/lv_hal_indev.c ****  *********************/
  25:lvgl\src\lv_hal/lv_hal_indev.c **** 
  26:lvgl\src\lv_hal/lv_hal_indev.c **** /**********************
  27:lvgl\src\lv_hal/lv_hal_indev.c ****  *      TYPEDEFS
  28:lvgl\src\lv_hal/lv_hal_indev.c ****  **********************/
  29:lvgl\src\lv_hal/lv_hal_indev.c **** 
  30:lvgl\src\lv_hal/lv_hal_indev.c **** /**********************
ARM GAS  C:\Users\strap\AppData\Local\Temp\cct3Asa7.s 			page 2


  31:lvgl\src\lv_hal/lv_hal_indev.c ****  *  STATIC PROTOTYPES
  32:lvgl\src\lv_hal/lv_hal_indev.c ****  **********************/
  33:lvgl\src\lv_hal/lv_hal_indev.c **** 
  34:lvgl\src\lv_hal/lv_hal_indev.c **** /**********************
  35:lvgl\src\lv_hal/lv_hal_indev.c ****  *  STATIC VARIABLES
  36:lvgl\src\lv_hal/lv_hal_indev.c ****  **********************/
  37:lvgl\src\lv_hal/lv_hal_indev.c **** 
  38:lvgl\src\lv_hal/lv_hal_indev.c **** /**********************
  39:lvgl\src\lv_hal/lv_hal_indev.c ****  *      MACROS
  40:lvgl\src\lv_hal/lv_hal_indev.c ****  **********************/
  41:lvgl\src\lv_hal/lv_hal_indev.c **** 
  42:lvgl\src\lv_hal/lv_hal_indev.c **** /**********************
  43:lvgl\src\lv_hal/lv_hal_indev.c ****  *   GLOBAL FUNCTIONS
  44:lvgl\src\lv_hal/lv_hal_indev.c ****  **********************/
  45:lvgl\src\lv_hal/lv_hal_indev.c **** 
  46:lvgl\src\lv_hal/lv_hal_indev.c **** /**
  47:lvgl\src\lv_hal/lv_hal_indev.c ****  * Initialize an input device driver with default values.
  48:lvgl\src\lv_hal/lv_hal_indev.c ****  * It is used to surly have known values in the fields ant not memory junk.
  49:lvgl\src\lv_hal/lv_hal_indev.c ****  * After it you can set the fields.
  50:lvgl\src\lv_hal/lv_hal_indev.c ****  * @param driver pointer to driver variable to initialize
  51:lvgl\src\lv_hal/lv_hal_indev.c ****  */
  52:lvgl\src\lv_hal/lv_hal_indev.c **** void lv_indev_drv_init(lv_indev_drv_t * driver)
  53:lvgl\src\lv_hal/lv_hal_indev.c **** {
  28              		.loc 1 53 0
  29              		.cfi_startproc
  30              		@ args = 0, pretend = 0, frame = 0
  31              		@ frame_needed = 0, uses_anonymous_args = 0
  32              	.LVL0:
  33 0000 10B5     		push	{r4, lr}
  34              		.cfi_def_cfa_offset 8
  35              		.cfi_offset 4, -8
  36              		.cfi_offset 14, -4
  37 0002 0446     		mov	r4, r0
  54:lvgl\src\lv_hal/lv_hal_indev.c ****     _lv_memset_00(driver, sizeof(lv_indev_drv_t));
  38              		.loc 1 54 0
  39 0004 2021     		movs	r1, #32
  40 0006 FFF7FEFF 		bl	_lv_memset_00
  41              	.LVL1:
  55:lvgl\src\lv_hal/lv_hal_indev.c **** 
  56:lvgl\src\lv_hal/lv_hal_indev.c ****     driver->type                 = LV_INDEV_TYPE_NONE;
  42              		.loc 1 56 0
  43 000a 0023     		movs	r3, #0
  44 000c 2370     		strb	r3, [r4]
  57:lvgl\src\lv_hal/lv_hal_indev.c ****     driver->drag_limit           = LV_INDEV_DEF_DRAG_LIMIT;
  45              		.loc 1 57 0
  46 000e 0A23     		movs	r3, #10
  47 0010 2376     		strb	r3, [r4, #24]
  58:lvgl\src\lv_hal/lv_hal_indev.c ****     driver->drag_throw           = LV_INDEV_DEF_DRAG_THROW;
  48              		.loc 1 58 0
  49 0012 6376     		strb	r3, [r4, #25]
  59:lvgl\src\lv_hal/lv_hal_indev.c ****     driver->long_press_time      = LV_INDEV_DEF_LONG_PRESS_TIME;
  50              		.loc 1 59 0
  51 0014 4FF4C873 		mov	r3, #400
  52 0018 A383     		strh	r3, [r4, #28]	@ movhi
  60:lvgl\src\lv_hal/lv_hal_indev.c ****     driver->long_press_rep_time  = LV_INDEV_DEF_LONG_PRESS_REP_TIME;
  53              		.loc 1 60 0
  54 001a 6423     		movs	r3, #100
ARM GAS  C:\Users\strap\AppData\Local\Temp\cct3Asa7.s 			page 3


  55 001c E383     		strh	r3, [r4, #30]	@ movhi
  61:lvgl\src\lv_hal/lv_hal_indev.c ****     driver->gesture_limit        = LV_INDEV_DEF_GESTURE_LIMIT;
  56              		.loc 1 61 0
  57 001e 3223     		movs	r3, #50
  58 0020 E376     		strb	r3, [r4, #27]
  62:lvgl\src\lv_hal/lv_hal_indev.c ****     driver->gesture_min_velocity = LV_INDEV_DEF_GESTURE_MIN_VELOCITY;
  59              		.loc 1 62 0
  60 0022 0323     		movs	r3, #3
  61 0024 A376     		strb	r3, [r4, #26]
  62 0026 10BD     		pop	{r4, pc}
  63              		.cfi_endproc
  64              	.LFE328:
  65              		.size	lv_indev_drv_init, .-lv_indev_drv_init
  66              		.section	.text.lv_indev_drv_register,"ax",%progbits
  67              		.align	2
  68              		.global	lv_indev_drv_register
  69              		.thumb
  70              		.thumb_func
  71              		.type	lv_indev_drv_register, %function
  72              	lv_indev_drv_register:
  73              	.LFB329:
  63:lvgl\src\lv_hal/lv_hal_indev.c **** }
  64:lvgl\src\lv_hal/lv_hal_indev.c **** 
  65:lvgl\src\lv_hal/lv_hal_indev.c **** /**
  66:lvgl\src\lv_hal/lv_hal_indev.c ****  * Register an initialized input device driver.
  67:lvgl\src\lv_hal/lv_hal_indev.c ****  * @param driver pointer to an initialized 'lv_indev_drv_t' variable (can be local variable)
  68:lvgl\src\lv_hal/lv_hal_indev.c ****  * @return pointer to the new input device or NULL on error
  69:lvgl\src\lv_hal/lv_hal_indev.c ****  */
  70:lvgl\src\lv_hal/lv_hal_indev.c **** lv_indev_t * lv_indev_drv_register(lv_indev_drv_t * driver)
  71:lvgl\src\lv_hal/lv_hal_indev.c **** {
  74              		.loc 1 71 0
  75              		.cfi_startproc
  76              		@ args = 0, pretend = 0, frame = 0
  77              		@ frame_needed = 0, uses_anonymous_args = 0
  78              	.LVL2:
  79 0000 38B5     		push	{r3, r4, r5, lr}
  80              		.cfi_def_cfa_offset 16
  81              		.cfi_offset 3, -16
  82              		.cfi_offset 4, -12
  83              		.cfi_offset 5, -8
  84              		.cfi_offset 14, -4
  85 0002 0546     		mov	r5, r0
  72:lvgl\src\lv_hal/lv_hal_indev.c **** 
  73:lvgl\src\lv_hal/lv_hal_indev.c ****     if(driver->disp == NULL) driver->disp = lv_disp_get_default();
  86              		.loc 1 73 0
  87 0004 0369     		ldr	r3, [r0, #16]
  88 0006 13B9     		cbnz	r3, .L4
  89              		.loc 1 73 0 is_stmt 0 discriminator 1
  90 0008 FFF7FEFF 		bl	lv_disp_get_default
  91              	.LVL3:
  92 000c 2861     		str	r0, [r5, #16]
  93              	.L4:
  74:lvgl\src\lv_hal/lv_hal_indev.c **** 
  75:lvgl\src\lv_hal/lv_hal_indev.c ****     if(driver->disp == NULL) {
  94              		.loc 1 75 0 is_stmt 1
  95 000e 2B69     		ldr	r3, [r5, #16]
  96 0010 43B3     		cbz	r3, .L8
ARM GAS  C:\Users\strap\AppData\Local\Temp\cct3Asa7.s 			page 4


  76:lvgl\src\lv_hal/lv_hal_indev.c ****         LV_LOG_WARN("lv_indev_drv_register: no display registered hence can't attach the indev to "
  77:lvgl\src\lv_hal/lv_hal_indev.c ****                     "a display");
  78:lvgl\src\lv_hal/lv_hal_indev.c ****         return NULL;
  79:lvgl\src\lv_hal/lv_hal_indev.c ****     }
  80:lvgl\src\lv_hal/lv_hal_indev.c **** 
  81:lvgl\src\lv_hal/lv_hal_indev.c ****     lv_indev_t * indev = _lv_ll_ins_head(&LV_GC_ROOT(_lv_indev_ll));
  97              		.loc 1 81 0
  98 0012 1648     		ldr	r0, .L11
  99 0014 FFF7FEFF 		bl	_lv_ll_ins_head
 100              	.LVL4:
  82:lvgl\src\lv_hal/lv_hal_indev.c ****     if(!indev) {
 101              		.loc 1 82 0
 102 0018 0446     		mov	r4, r0
 103 001a 40B9     		cbnz	r0, .L6
  83:lvgl\src\lv_hal/lv_hal_indev.c ****         LV_ASSERT_MEM(indev);
 104              		.loc 1 83 0
 105 001c FFF7FEFF 		bl	lv_debug_check_null
 106              	.LVL5:
 107 0020 10BB     		cbnz	r0, .L9
 108              		.loc 1 83 0 is_stmt 0 discriminator 1
 109 0022 2246     		mov	r2, r4
 110 0024 0023     		movs	r3, #0
 111 0026 1248     		ldr	r0, .L11+4
 112 0028 FFF7FEFF 		bl	lv_debug_log_error
 113              	.LVL6:
 114              	.L7:
 115 002c FEE7     		b	.L7
 116              	.LVL7:
 117              	.L6:
  84:lvgl\src\lv_hal/lv_hal_indev.c ****         return NULL;
  85:lvgl\src\lv_hal/lv_hal_indev.c ****     }
  86:lvgl\src\lv_hal/lv_hal_indev.c **** 
  87:lvgl\src\lv_hal/lv_hal_indev.c ****     _lv_memset_00(indev, sizeof(lv_indev_t));
 118              		.loc 1 87 0 is_stmt 1
 119 002e 6421     		movs	r1, #100
 120 0030 FFF7FEFF 		bl	_lv_memset_00
 121              	.LVL8:
  88:lvgl\src\lv_hal/lv_hal_indev.c ****     _lv_memcpy(&indev->driver, driver, sizeof(lv_indev_drv_t));
 122              		.loc 1 88 0
 123 0034 2022     		movs	r2, #32
 124 0036 2946     		mov	r1, r5
 125 0038 2046     		mov	r0, r4
 126 003a FFF7FEFF 		bl	_lv_memcpy
 127              	.LVL9:
  89:lvgl\src\lv_hal/lv_hal_indev.c **** 
  90:lvgl\src\lv_hal/lv_hal_indev.c ****     indev->proc.reset_query = 1;
 128              		.loc 1 90 0
 129 003e 94F85430 		ldrb	r3, [r4, #84]	@ zero_extendqisi2
 130 0042 43F00203 		orr	r3, r3, #2
 131 0046 84F85430 		strb	r3, [r4, #84]
  91:lvgl\src\lv_hal/lv_hal_indev.c ****     indev->cursor           = NULL;
 132              		.loc 1 91 0
 133 004a 0023     		movs	r3, #0
 134 004c A365     		str	r3, [r4, #88]
  92:lvgl\src\lv_hal/lv_hal_indev.c ****     indev->group            = NULL;
 135              		.loc 1 92 0
 136 004e E365     		str	r3, [r4, #92]
ARM GAS  C:\Users\strap\AppData\Local\Temp\cct3Asa7.s 			page 5


  93:lvgl\src\lv_hal/lv_hal_indev.c ****     indev->btn_points       = NULL;
 137              		.loc 1 93 0
 138 0050 2366     		str	r3, [r4, #96]
  94:lvgl\src\lv_hal/lv_hal_indev.c **** 
  95:lvgl\src\lv_hal/lv_hal_indev.c ****     indev->driver.read_task = lv_task_create(_lv_indev_read_task, LV_INDEV_DEF_READ_PERIOD, LV_TASK
 139              		.loc 1 95 0
 140 0052 2346     		mov	r3, r4
 141 0054 0422     		movs	r2, #4
 142 0056 1E21     		movs	r1, #30
 143 0058 0648     		ldr	r0, .L11+8
 144 005a FFF7FEFF 		bl	lv_task_create
 145              	.LVL10:
 146 005e 6061     		str	r0, [r4, #20]
  96:lvgl\src\lv_hal/lv_hal_indev.c **** 
  97:lvgl\src\lv_hal/lv_hal_indev.c ****     return indev;
 147              		.loc 1 97 0
 148 0060 2046     		mov	r0, r4
 149 0062 38BD     		pop	{r3, r4, r5, pc}
 150              	.LVL11:
 151              	.L8:
  78:lvgl\src\lv_hal/lv_hal_indev.c ****     }
 152              		.loc 1 78 0
 153 0064 0020     		movs	r0, #0
 154 0066 38BD     		pop	{r3, r4, r5, pc}
 155              	.LVL12:
 156              	.L9:
  84:lvgl\src\lv_hal/lv_hal_indev.c ****     }
 157              		.loc 1 84 0
 158 0068 0020     		movs	r0, #0
  98:lvgl\src\lv_hal/lv_hal_indev.c **** }
 159              		.loc 1 98 0
 160 006a 38BD     		pop	{r3, r4, r5, pc}
 161              	.LVL13:
 162              	.L12:
 163              		.align	2
 164              	.L11:
 165 006c 00000000 		.word	_lv_indev_ll
 166 0070 00000000 		.word	.LC0
 167 0074 00000000 		.word	_lv_indev_read_task
 168              		.cfi_endproc
 169              	.LFE329:
 170              		.size	lv_indev_drv_register, .-lv_indev_drv_register
 171              		.section	.text.lv_indev_drv_update,"ax",%progbits
 172              		.align	2
 173              		.global	lv_indev_drv_update
 174              		.thumb
 175              		.thumb_func
 176              		.type	lv_indev_drv_update, %function
 177              	lv_indev_drv_update:
 178              	.LFB330:
  99:lvgl\src\lv_hal/lv_hal_indev.c **** 
 100:lvgl\src\lv_hal/lv_hal_indev.c **** /**
 101:lvgl\src\lv_hal/lv_hal_indev.c ****  * Update the driver in run time.
 102:lvgl\src\lv_hal/lv_hal_indev.c ****  * @param indev pointer to a input device. (return value of `lv_indev_drv_register`)
 103:lvgl\src\lv_hal/lv_hal_indev.c ****  * @param new_drv pointer to the new driver
 104:lvgl\src\lv_hal/lv_hal_indev.c ****  */
 105:lvgl\src\lv_hal/lv_hal_indev.c **** void lv_indev_drv_update(lv_indev_t * indev, lv_indev_drv_t * new_drv)
ARM GAS  C:\Users\strap\AppData\Local\Temp\cct3Asa7.s 			page 6


 106:lvgl\src\lv_hal/lv_hal_indev.c **** {
 179              		.loc 1 106 0
 180              		.cfi_startproc
 181              		@ args = 0, pretend = 0, frame = 0
 182              		@ frame_needed = 0, uses_anonymous_args = 0
 183              		@ link register save eliminated.
 184              	.LVL14:
 185 0000 30B4     		push	{r4, r5}
 186              		.cfi_def_cfa_offset 8
 187              		.cfi_offset 4, -8
 188              		.cfi_offset 5, -4
 107:lvgl\src\lv_hal/lv_hal_indev.c ****     memcpy(&indev->driver, new_drv, sizeof(lv_indev_drv_t));
 189              		.loc 1 107 0
 190 0002 0D68     		ldr	r5, [r1]	@ unaligned
 191 0004 4C68     		ldr	r4, [r1, #4]	@ unaligned
 192 0006 8A68     		ldr	r2, [r1, #8]	@ unaligned
 193 0008 CB68     		ldr	r3, [r1, #12]	@ unaligned
 194 000a 0560     		str	r5, [r0]	@ unaligned
 195 000c 4460     		str	r4, [r0, #4]	@ unaligned
 196 000e 8260     		str	r2, [r0, #8]	@ unaligned
 197 0010 C360     		str	r3, [r0, #12]	@ unaligned
 198 0012 0D69     		ldr	r5, [r1, #16]	@ unaligned
 199 0014 4C69     		ldr	r4, [r1, #20]	@ unaligned
 200 0016 8A69     		ldr	r2, [r1, #24]	@ unaligned
 201 0018 CB69     		ldr	r3, [r1, #28]	@ unaligned
 202 001a 0561     		str	r5, [r0, #16]	@ unaligned
 203 001c 4461     		str	r4, [r0, #20]	@ unaligned
 204 001e 8261     		str	r2, [r0, #24]	@ unaligned
 205 0020 C361     		str	r3, [r0, #28]	@ unaligned
 108:lvgl\src\lv_hal/lv_hal_indev.c **** }
 206              		.loc 1 108 0
 207 0022 30BC     		pop	{r4, r5}
 208              		.cfi_restore 5
 209              		.cfi_restore 4
 210              		.cfi_def_cfa_offset 0
 211 0024 7047     		bx	lr
 212              		.cfi_endproc
 213              	.LFE330:
 214              		.size	lv_indev_drv_update, .-lv_indev_drv_update
 215 0026 00BF     		.section	.text.lv_indev_get_next,"ax",%progbits
 216              		.align	2
 217              		.global	lv_indev_get_next
 218              		.thumb
 219              		.thumb_func
 220              		.type	lv_indev_get_next, %function
 221              	lv_indev_get_next:
 222              	.LFB331:
 109:lvgl\src\lv_hal/lv_hal_indev.c **** 
 110:lvgl\src\lv_hal/lv_hal_indev.c **** /**
 111:lvgl\src\lv_hal/lv_hal_indev.c ****  * Get the next input device.
 112:lvgl\src\lv_hal/lv_hal_indev.c ****  * @param indev pointer to the current input device. NULL to initialize.
 113:lvgl\src\lv_hal/lv_hal_indev.c ****  * @return the next input devise or NULL if no more. Give the first input device when the parameter
 114:lvgl\src\lv_hal/lv_hal_indev.c ****  * is NULL
 115:lvgl\src\lv_hal/lv_hal_indev.c ****  */
 116:lvgl\src\lv_hal/lv_hal_indev.c **** lv_indev_t * lv_indev_get_next(lv_indev_t * indev)
 117:lvgl\src\lv_hal/lv_hal_indev.c **** {
 223              		.loc 1 117 0
ARM GAS  C:\Users\strap\AppData\Local\Temp\cct3Asa7.s 			page 7


 224              		.cfi_startproc
 225              		@ args = 0, pretend = 0, frame = 0
 226              		@ frame_needed = 0, uses_anonymous_args = 0
 227              	.LVL15:
 228 0000 08B5     		push	{r3, lr}
 229              		.cfi_def_cfa_offset 8
 230              		.cfi_offset 3, -8
 231              		.cfi_offset 14, -4
 118:lvgl\src\lv_hal/lv_hal_indev.c ****     if(indev == NULL)
 232              		.loc 1 118 0
 233 0002 18B9     		cbnz	r0, .L16
 119:lvgl\src\lv_hal/lv_hal_indev.c ****         return _lv_ll_get_head(&LV_GC_ROOT(_lv_indev_ll));
 234              		.loc 1 119 0
 235 0004 0448     		ldr	r0, .L19
 236              	.LVL16:
 237 0006 FFF7FEFF 		bl	_lv_ll_get_head
 238              	.LVL17:
 239 000a 08BD     		pop	{r3, pc}
 240              	.LVL18:
 241              	.L16:
 242 000c 0146     		mov	r1, r0
 120:lvgl\src\lv_hal/lv_hal_indev.c ****     else
 121:lvgl\src\lv_hal/lv_hal_indev.c ****         return _lv_ll_get_next(&LV_GC_ROOT(_lv_indev_ll), indev);
 243              		.loc 1 121 0
 244 000e 0248     		ldr	r0, .L19
 245              	.LVL19:
 246 0010 FFF7FEFF 		bl	_lv_ll_get_next
 247              	.LVL20:
 122:lvgl\src\lv_hal/lv_hal_indev.c **** }
 248              		.loc 1 122 0
 249 0014 08BD     		pop	{r3, pc}
 250              	.L20:
 251 0016 00BF     		.align	2
 252              	.L19:
 253 0018 00000000 		.word	_lv_indev_ll
 254              		.cfi_endproc
 255              	.LFE331:
 256              		.size	lv_indev_get_next, .-lv_indev_get_next
 257              		.section	.text._lv_indev_read,"ax",%progbits
 258              		.align	2
 259              		.global	_lv_indev_read
 260              		.thumb
 261              		.thumb_func
 262              		.type	_lv_indev_read, %function
 263              	_lv_indev_read:
 264              	.LFB332:
 123:lvgl\src\lv_hal/lv_hal_indev.c **** 
 124:lvgl\src\lv_hal/lv_hal_indev.c **** /**
 125:lvgl\src\lv_hal/lv_hal_indev.c ****  * Read data from an input device.
 126:lvgl\src\lv_hal/lv_hal_indev.c ****  * @param indev pointer to an input device
 127:lvgl\src\lv_hal/lv_hal_indev.c ****  * @param data input device will write its data here
 128:lvgl\src\lv_hal/lv_hal_indev.c ****  * @return false: no more data; true: there more data to read (buffered)
 129:lvgl\src\lv_hal/lv_hal_indev.c ****  */
 130:lvgl\src\lv_hal/lv_hal_indev.c **** bool _lv_indev_read(lv_indev_t * indev, lv_indev_data_t * data)
 131:lvgl\src\lv_hal/lv_hal_indev.c **** {
 265              		.loc 1 131 0
 266              		.cfi_startproc
ARM GAS  C:\Users\strap\AppData\Local\Temp\cct3Asa7.s 			page 8


 267              		@ args = 0, pretend = 0, frame = 0
 268              		@ frame_needed = 0, uses_anonymous_args = 0
 269              	.LVL21:
 270 0000 38B5     		push	{r3, r4, r5, lr}
 271              		.cfi_def_cfa_offset 16
 272              		.cfi_offset 3, -16
 273              		.cfi_offset 4, -12
 274              		.cfi_offset 5, -8
 275              		.cfi_offset 14, -4
 276 0002 0446     		mov	r4, r0
 277 0004 0D46     		mov	r5, r1
 278              	.LVL22:
 132:lvgl\src\lv_hal/lv_hal_indev.c ****     bool cont = false;
 133:lvgl\src\lv_hal/lv_hal_indev.c **** 
 134:lvgl\src\lv_hal/lv_hal_indev.c ****     _lv_memset_00(data, sizeof(lv_indev_data_t));
 279              		.loc 1 134 0
 280 0006 1021     		movs	r1, #16
 281              	.LVL23:
 282 0008 2846     		mov	r0, r5
 283              	.LVL24:
 284 000a FFF7FEFF 		bl	_lv_memset_00
 285              	.LVL25:
 135:lvgl\src\lv_hal/lv_hal_indev.c **** 
 136:lvgl\src\lv_hal/lv_hal_indev.c ****     /* For touchpad sometimes users don't the last pressed coordinate on release.
 137:lvgl\src\lv_hal/lv_hal_indev.c ****      * So be sure a coordinates are initialized to the last point */
 138:lvgl\src\lv_hal/lv_hal_indev.c ****     if(indev->driver.type == LV_INDEV_TYPE_POINTER) {
 286              		.loc 1 138 0
 287 000e 2378     		ldrb	r3, [r4]	@ zero_extendqisi2
 288 0010 012B     		cmp	r3, #1
 289 0012 06D1     		bne	.L22
 139:lvgl\src\lv_hal/lv_hal_indev.c ****         data->point.x = indev->proc.types.pointer.act_point.x;
 290              		.loc 1 139 0
 291 0014 B4F92430 		ldrsh	r3, [r4, #36]
 292 0018 2B80     		strh	r3, [r5]	@ movhi
 140:lvgl\src\lv_hal/lv_hal_indev.c ****         data->point.y = indev->proc.types.pointer.act_point.y;
 293              		.loc 1 140 0
 294 001a B4F92630 		ldrsh	r3, [r4, #38]
 295 001e 6B80     		strh	r3, [r5, #2]	@ movhi
 296 0020 0AE0     		b	.L23
 297              	.L22:
 141:lvgl\src\lv_hal/lv_hal_indev.c ****     }
 142:lvgl\src\lv_hal/lv_hal_indev.c ****     /*Similarly set at least the last key in case of the  the user doesn't set it  on release*/
 143:lvgl\src\lv_hal/lv_hal_indev.c ****     else if(indev->driver.type == LV_INDEV_TYPE_KEYPAD) {
 298              		.loc 1 143 0
 299 0022 022B     		cmp	r3, #2
 300 0024 02D1     		bne	.L24
 144:lvgl\src\lv_hal/lv_hal_indev.c ****         data->key = indev->proc.types.keypad.last_key;
 301              		.loc 1 144 0
 302 0026 A36A     		ldr	r3, [r4, #40]
 303 0028 6B60     		str	r3, [r5, #4]
 304 002a 05E0     		b	.L23
 305              	.L24:
 145:lvgl\src\lv_hal/lv_hal_indev.c ****     }
 146:lvgl\src\lv_hal/lv_hal_indev.c ****     /*For compatibility assume that used button was enter (encoder push) */
 147:lvgl\src\lv_hal/lv_hal_indev.c ****     else if(indev->driver.type == LV_INDEV_TYPE_ENCODER) {
 306              		.loc 1 147 0
 307 002c 042B     		cmp	r3, #4
ARM GAS  C:\Users\strap\AppData\Local\Temp\cct3Asa7.s 			page 9


 308 002e 03D1     		bne	.L23
 148:lvgl\src\lv_hal/lv_hal_indev.c ****         data->key = LV_KEY_ENTER;
 309              		.loc 1 148 0
 310 0030 0A23     		movs	r3, #10
 311 0032 6B60     		str	r3, [r5, #4]
 149:lvgl\src\lv_hal/lv_hal_indev.c ****         data->enc_diff = 0;
 312              		.loc 1 149 0
 313 0034 0023     		movs	r3, #0
 314 0036 AB81     		strh	r3, [r5, #12]	@ movhi
 315              	.L23:
 150:lvgl\src\lv_hal/lv_hal_indev.c ****     }
 151:lvgl\src\lv_hal/lv_hal_indev.c **** 
 152:lvgl\src\lv_hal/lv_hal_indev.c ****     if(indev->driver.read_cb) {
 316              		.loc 1 152 0
 317 0038 6368     		ldr	r3, [r4, #4]
 318 003a 1BB1     		cbz	r3, .L26
 153:lvgl\src\lv_hal/lv_hal_indev.c ****         LV_LOG_TRACE("idnev read started");
 154:lvgl\src\lv_hal/lv_hal_indev.c ****         cont = indev->driver.read_cb(&indev->driver, data);
 319              		.loc 1 154 0
 320 003c 2946     		mov	r1, r5
 321 003e 2046     		mov	r0, r4
 322 0040 9847     		blx	r3
 323              	.LVL26:
 324 0042 38BD     		pop	{r3, r4, r5, pc}
 325              	.LVL27:
 326              	.L26:
 132:lvgl\src\lv_hal/lv_hal_indev.c **** 
 327              		.loc 1 132 0
 328 0044 0020     		movs	r0, #0
 329              	.LVL28:
 155:lvgl\src\lv_hal/lv_hal_indev.c ****         LV_LOG_TRACE("idnev read finished");
 156:lvgl\src\lv_hal/lv_hal_indev.c ****     }
 157:lvgl\src\lv_hal/lv_hal_indev.c ****     else {
 158:lvgl\src\lv_hal/lv_hal_indev.c ****         LV_LOG_WARN("indev function registered");
 159:lvgl\src\lv_hal/lv_hal_indev.c ****     }
 160:lvgl\src\lv_hal/lv_hal_indev.c **** 
 161:lvgl\src\lv_hal/lv_hal_indev.c ****     return cont;
 162:lvgl\src\lv_hal/lv_hal_indev.c **** }
 330              		.loc 1 162 0
 331 0046 38BD     		pop	{r3, r4, r5, pc}
 332              		.cfi_endproc
 333              	.LFE332:
 334              		.size	_lv_indev_read, .-_lv_indev_read
 335              		.section	.rodata.str1.4,"aMS",%progbits,1
 336              		.align	2
 337              	.LC0:
 338 0000 4F757420 		.ascii	"Out of memory\000"
 338      6F66206D 
 338      656D6F72 
 338      7900
 339              		.text
 340              	.Letext0:
 341              		.file 2 "c:\\program files (x86)\\cypress\\psoc creator\\4.4\\psoc creator\\import\\gnu\\arm\\5.4.
 342              		.file 3 "c:\\program files (x86)\\cypress\\psoc creator\\4.4\\psoc creator\\import\\gnu\\arm\\5.4.
 343              		.file 4 "lvgl\\src\\lv_hal\\../lv_misc/../../../lv_conf.h"
 344              		.file 5 "lvgl\\src\\lv_hal\\../lv_hal/../lv_misc/lv_types.h"
 345              		.file 6 "lvgl\\src\\lv_hal\\../lv_hal/../lv_misc/lv_area.h"
ARM GAS  C:\Users\strap\AppData\Local\Temp\cct3Asa7.s 			page 10


 346              		.file 7 "lvgl\\src\\lv_hal\\../lv_hal/../lv_misc/lv_ll.h"
 347              		.file 8 "lvgl\\src\\lv_hal\\../lv_hal/../lv_misc/lv_task.h"
 348              		.file 9 "lvgl\\src\\lv_hal\\../lv_hal/lv_hal_indev.h"
 349              		.file 10 "lvgl\\src\\lv_hal\\../lv_core/../lv_hal/lv_hal_disp.h"
 350              		.file 11 "lvgl\\src\\lv_hal\\../lv_core/lv_obj.h"
 351              		.file 12 "lvgl\\src\\lv_hal\\../lv_core/../lv_core/lv_group.h"
 352              		.file 13 "lvgl\\src\\lv_hal\\../lv_core/../lv_misc/lv_color.h"
 353              		.file 14 "lvgl\\src\\lv_hal\\../lv_core/lv_style.h"
 354              		.file 15 "lvgl\\src\\lv_hal\\../lv_core/../lv_draw/../lv_misc/lv_bidi.h"
 355              		.file 16 "lvgl\\src\\lv_hal\\../lv_hal/../lv_misc/lv_mem.h"
 356              		.file 17 "lvgl\\src\\lv_hal\\../lv_misc/lv_debug.h"
 357              		.file 18 "lvgl\\src\\lv_hal\\../lv_misc/lv_gc.h"