ARM GAS  C:\Users\strap\AppData\Local\Temp\cctJMVdh.s 			page 1


   1              		.syntax unified
   2              		.cpu cortex-m3
   3              		.fpu softvfp
   4              		.eabi_attribute 20, 1
   5              		.eabi_attribute 21, 1
   6              		.eabi_attribute 23, 3
   7              		.eabi_attribute 24, 1
   8              		.eabi_attribute 25, 1
   9              		.eabi_attribute 26, 1
  10              		.eabi_attribute 30, 1
  11              		.eabi_attribute 34, 1
  12              		.eabi_attribute 18, 4
  13              		.thumb
  14              		.syntax unified
  15              		.file	"lv_hal_tick.c"
  16              		.text
  17              	.Ltext0:
  18              		.cfi_sections	.debug_frame
  19              		.section	.text.lv_tick_inc,"ax",%progbits
  20              		.align	2
  21              		.global	lv_tick_inc
  22              		.thumb
  23              		.thumb_func
  24              		.type	lv_tick_inc, %function
  25              	lv_tick_inc:
  26              	.LFB0:
  27              		.file 1 "lvgl\\src\\lv_hal\\lv_hal_tick.c"
   1:lvgl\src\lv_hal/lv_hal_tick.c **** /**
   2:lvgl\src\lv_hal/lv_hal_tick.c ****  * @file systick.c
   3:lvgl\src\lv_hal/lv_hal_tick.c ****  * Provide access to the system tick with 1 millisecond resolution
   4:lvgl\src\lv_hal/lv_hal_tick.c ****  */
   5:lvgl\src\lv_hal/lv_hal_tick.c **** 
   6:lvgl\src\lv_hal/lv_hal_tick.c **** /*********************
   7:lvgl\src\lv_hal/lv_hal_tick.c ****  *      INCLUDES
   8:lvgl\src\lv_hal/lv_hal_tick.c ****  *********************/
   9:lvgl\src\lv_hal/lv_hal_tick.c **** #include "lv_hal_tick.h"
  10:lvgl\src\lv_hal/lv_hal_tick.c **** #include <stddef.h>
  11:lvgl\src\lv_hal/lv_hal_tick.c **** 
  12:lvgl\src\lv_hal/lv_hal_tick.c **** #if LV_TICK_CUSTOM == 1
  13:lvgl\src\lv_hal/lv_hal_tick.c ****     #include LV_TICK_CUSTOM_INCLUDE
  14:lvgl\src\lv_hal/lv_hal_tick.c **** #endif
  15:lvgl\src\lv_hal/lv_hal_tick.c **** 
  16:lvgl\src\lv_hal/lv_hal_tick.c **** /*********************
  17:lvgl\src\lv_hal/lv_hal_tick.c ****  *      DEFINES
  18:lvgl\src\lv_hal/lv_hal_tick.c ****  *********************/
  19:lvgl\src\lv_hal/lv_hal_tick.c **** 
  20:lvgl\src\lv_hal/lv_hal_tick.c **** /**********************
  21:lvgl\src\lv_hal/lv_hal_tick.c ****  *      TYPEDEFS
  22:lvgl\src\lv_hal/lv_hal_tick.c ****  **********************/
  23:lvgl\src\lv_hal/lv_hal_tick.c **** 
  24:lvgl\src\lv_hal/lv_hal_tick.c **** /**********************
  25:lvgl\src\lv_hal/lv_hal_tick.c ****  *  STATIC PROTOTYPES
  26:lvgl\src\lv_hal/lv_hal_tick.c ****  **********************/
  27:lvgl\src\lv_hal/lv_hal_tick.c **** 
  28:lvgl\src\lv_hal/lv_hal_tick.c **** /**********************
  29:lvgl\src\lv_hal/lv_hal_tick.c ****  *  STATIC VARIABLES
  30:lvgl\src\lv_hal/lv_hal_tick.c ****  **********************/
ARM GAS  C:\Users\strap\AppData\Local\Temp\cctJMVdh.s 			page 2


  31:lvgl\src\lv_hal/lv_hal_tick.c **** static uint32_t sys_time = 0;
  32:lvgl\src\lv_hal/lv_hal_tick.c **** static volatile uint8_t tick_irq_flag;
  33:lvgl\src\lv_hal/lv_hal_tick.c **** 
  34:lvgl\src\lv_hal/lv_hal_tick.c **** /**********************
  35:lvgl\src\lv_hal/lv_hal_tick.c ****  *      MACROS
  36:lvgl\src\lv_hal/lv_hal_tick.c ****  **********************/
  37:lvgl\src\lv_hal/lv_hal_tick.c **** 
  38:lvgl\src\lv_hal/lv_hal_tick.c **** /**********************
  39:lvgl\src\lv_hal/lv_hal_tick.c ****  *   GLOBAL FUNCTIONS
  40:lvgl\src\lv_hal/lv_hal_tick.c ****  **********************/
  41:lvgl\src\lv_hal/lv_hal_tick.c **** 
  42:lvgl\src\lv_hal/lv_hal_tick.c **** /**
  43:lvgl\src\lv_hal/lv_hal_tick.c ****  * You have to call this function periodically
  44:lvgl\src\lv_hal/lv_hal_tick.c ****  * @param tick_period the call period of this function in milliseconds
  45:lvgl\src\lv_hal/lv_hal_tick.c ****  */
  46:lvgl\src\lv_hal/lv_hal_tick.c **** LV_ATTRIBUTE_TICK_INC void lv_tick_inc(uint32_t tick_period)
  47:lvgl\src\lv_hal/lv_hal_tick.c **** {
  28              		.loc 1 47 0
  29              		.cfi_startproc
  30              		@ args = 0, pretend = 0, frame = 0
  31              		@ frame_needed = 0, uses_anonymous_args = 0
  32              		@ link register save eliminated.
  33              	.LVL0:
  48:lvgl\src\lv_hal/lv_hal_tick.c ****     tick_irq_flag = 0;
  34              		.loc 1 48 0
  35 0000 034B     		ldr	r3, .L2
  36 0002 0022     		movs	r2, #0
  37 0004 1A70     		strb	r2, [r3]
  49:lvgl\src\lv_hal/lv_hal_tick.c ****     sys_time += tick_period;
  38              		.loc 1 49 0
  39 0006 5A68     		ldr	r2, [r3, #4]
  40 0008 1044     		add	r0, r0, r2
  41              	.LVL1:
  42 000a 5860     		str	r0, [r3, #4]
  43 000c 7047     		bx	lr
  44              	.L3:
  45 000e 00BF     		.align	2
  46              	.L2:
  47 0010 00000000 		.word	.LANCHOR0
  48              		.cfi_endproc
  49              	.LFE0:
  50              		.size	lv_tick_inc, .-lv_tick_inc
  51              		.section	.text.lv_tick_get,"ax",%progbits
  52              		.align	2
  53              		.global	lv_tick_get
  54              		.thumb
  55              		.thumb_func
  56              		.type	lv_tick_get, %function
  57              	lv_tick_get:
  58              	.LFB1:
  50:lvgl\src\lv_hal/lv_hal_tick.c **** }
  51:lvgl\src\lv_hal/lv_hal_tick.c **** 
  52:lvgl\src\lv_hal/lv_hal_tick.c **** /**
  53:lvgl\src\lv_hal/lv_hal_tick.c ****  * Get the elapsed milliseconds since start up
  54:lvgl\src\lv_hal/lv_hal_tick.c ****  * @return the elapsed milliseconds
  55:lvgl\src\lv_hal/lv_hal_tick.c ****  */
  56:lvgl\src\lv_hal/lv_hal_tick.c **** uint32_t lv_tick_get(void)
ARM GAS  C:\Users\strap\AppData\Local\Temp\cctJMVdh.s 			page 3


  57:lvgl\src\lv_hal/lv_hal_tick.c **** {
  59              		.loc 1 57 0
  60              		.cfi_startproc
  61              		@ args = 0, pretend = 0, frame = 0
  62              		@ frame_needed = 0, uses_anonymous_args = 0
  63              		@ link register save eliminated.
  64              	.L5:
  58:lvgl\src\lv_hal/lv_hal_tick.c **** #if LV_TICK_CUSTOM == 0
  59:lvgl\src\lv_hal/lv_hal_tick.c **** 
  60:lvgl\src\lv_hal/lv_hal_tick.c ****     /* If `lv_tick_inc` is called from an interrupt while `sys_time` is read
  61:lvgl\src\lv_hal/lv_hal_tick.c ****      * the result might be corrupted.
  62:lvgl\src\lv_hal/lv_hal_tick.c ****      * This loop detects if `lv_tick_inc` was called while reading `sys_time`.
  63:lvgl\src\lv_hal/lv_hal_tick.c ****      * If `tick_irq_flag` was cleared in `lv_tick_inc` try to read again
  64:lvgl\src\lv_hal/lv_hal_tick.c ****      * until `tick_irq_flag` remains `1`. */
  65:lvgl\src\lv_hal/lv_hal_tick.c ****     uint32_t result;
  66:lvgl\src\lv_hal/lv_hal_tick.c ****     do {
  67:lvgl\src\lv_hal/lv_hal_tick.c ****         tick_irq_flag = 1;
  65              		.loc 1 67 0 discriminator 1
  66 0000 044B     		ldr	r3, .L6
  67 0002 0122     		movs	r2, #1
  68 0004 1A70     		strb	r2, [r3]
  68:lvgl\src\lv_hal/lv_hal_tick.c ****         result        = sys_time;
  69              		.loc 1 68 0 discriminator 1
  70 0006 5868     		ldr	r0, [r3, #4]
  71              	.LVL2:
  69:lvgl\src\lv_hal/lv_hal_tick.c ****     } while(!tick_irq_flag); /*Continue until see a non interrupted cycle */
  72              		.loc 1 69 0 discriminator 1
  73 0008 1B78     		ldrb	r3, [r3]	@ zero_extendqisi2
  74 000a 13F0FF0F 		tst	r3, #255
  75 000e F7D0     		beq	.L5
  70:lvgl\src\lv_hal/lv_hal_tick.c **** 
  71:lvgl\src\lv_hal/lv_hal_tick.c ****     return result;
  72:lvgl\src\lv_hal/lv_hal_tick.c **** #else
  73:lvgl\src\lv_hal/lv_hal_tick.c ****     return LV_TICK_CUSTOM_SYS_TIME_EXPR;
  74:lvgl\src\lv_hal/lv_hal_tick.c **** #endif
  75:lvgl\src\lv_hal/lv_hal_tick.c **** }
  76              		.loc 1 75 0
  77 0010 7047     		bx	lr
  78              	.L7:
  79 0012 00BF     		.align	2
  80              	.L6:
  81 0014 00000000 		.word	.LANCHOR0
  82              		.cfi_endproc
  83              	.LFE1:
  84              		.size	lv_tick_get, .-lv_tick_get
  85              		.section	.text.lv_tick_elaps,"ax",%progbits
  86              		.align	2
  87              		.global	lv_tick_elaps
  88              		.thumb
  89              		.thumb_func
  90              		.type	lv_tick_elaps, %function
  91              	lv_tick_elaps:
  92              	.LFB2:
  76:lvgl\src\lv_hal/lv_hal_tick.c **** 
  77:lvgl\src\lv_hal/lv_hal_tick.c **** /**
  78:lvgl\src\lv_hal/lv_hal_tick.c ****  * Get the elapsed milliseconds since a previous time stamp
  79:lvgl\src\lv_hal/lv_hal_tick.c ****  * @param prev_tick a previous time stamp (return value of systick_get() )
ARM GAS  C:\Users\strap\AppData\Local\Temp\cctJMVdh.s 			page 4


  80:lvgl\src\lv_hal/lv_hal_tick.c ****  * @return the elapsed milliseconds since 'prev_tick'
  81:lvgl\src\lv_hal/lv_hal_tick.c ****  */
  82:lvgl\src\lv_hal/lv_hal_tick.c **** uint32_t lv_tick_elaps(uint32_t prev_tick)
  83:lvgl\src\lv_hal/lv_hal_tick.c **** {
  93              		.loc 1 83 0
  94              		.cfi_startproc
  95              		@ args = 0, pretend = 0, frame = 0
  96              		@ frame_needed = 0, uses_anonymous_args = 0
  97              	.LVL3:
  98 0000 10B5     		push	{r4, lr}
  99              		.cfi_def_cfa_offset 8
 100              		.cfi_offset 4, -8
 101              		.cfi_offset 14, -4
 102 0002 0446     		mov	r4, r0
  84:lvgl\src\lv_hal/lv_hal_tick.c ****     uint32_t act_time = lv_tick_get();
 103              		.loc 1 84 0
 104 0004 FFF7FEFF 		bl	lv_tick_get
 105              	.LVL4:
  85:lvgl\src\lv_hal/lv_hal_tick.c **** 
  86:lvgl\src\lv_hal/lv_hal_tick.c ****     /*If there is no overflow in sys_time simple subtract*/
  87:lvgl\src\lv_hal/lv_hal_tick.c ****     if(act_time >= prev_tick) {
 106              		.loc 1 87 0
 107 0008 A042     		cmp	r0, r4
 108 000a 01D3     		bcc	.L9
  88:lvgl\src\lv_hal/lv_hal_tick.c ****         prev_tick = act_time - prev_tick;
 109              		.loc 1 88 0
 110 000c 001B     		subs	r0, r0, r4
 111              	.LVL5:
 112 000e 10BD     		pop	{r4, pc}
 113              	.LVL6:
 114              	.L9:
  89:lvgl\src\lv_hal/lv_hal_tick.c ****     }
  90:lvgl\src\lv_hal/lv_hal_tick.c ****     else {
  91:lvgl\src\lv_hal/lv_hal_tick.c ****         prev_tick = UINT32_MAX - prev_tick + 1;
  92:lvgl\src\lv_hal/lv_hal_tick.c ****         prev_tick += act_time;
 115              		.loc 1 92 0
 116 0010 001B     		subs	r0, r0, r4
 117              	.LVL7:
  93:lvgl\src\lv_hal/lv_hal_tick.c ****     }
  94:lvgl\src\lv_hal/lv_hal_tick.c **** 
  95:lvgl\src\lv_hal/lv_hal_tick.c ****     return prev_tick;
  96:lvgl\src\lv_hal/lv_hal_tick.c **** }
 118              		.loc 1 96 0
 119 0012 10BD     		pop	{r4, pc}
 120              		.cfi_endproc
 121              	.LFE2:
 122              		.size	lv_tick_elaps, .-lv_tick_elaps
 123              		.bss
 124              		.align	2
 125              		.set	.LANCHOR0,. + 0
 126              		.type	tick_irq_flag, %object
 127              		.size	tick_irq_flag, 1
 128              	tick_irq_flag:
 129 0000 00       		.space	1
 130 0001 000000   		.space	3
 131              		.type	sys_time, %object
 132              		.size	sys_time, 4
ARM GAS  C:\Users\strap\AppData\Local\Temp\cctJMVdh.s 			page 5


 133              	sys_time:
 134 0004 00000000 		.space	4
 135              		.text
 136              	.Letext0:
 137              		.file 2 "c:\\program files (x86)\\cypress\\psoc creator\\4.4\\psoc creator\\import\\gnu\\arm\\5.4.
 138              		.file 3 "c:\\program files (x86)\\cypress\\psoc creator\\4.4\\psoc creator\\import\\gnu\\arm\\5.4.