ARM GAS  C:\Users\strap\AppData\Local\Temp\cclHDQsV.s 			page 1


   1              		.syntax unified
   2              		.cpu cortex-m3
   3              		.fpu softvfp
   4              		.eabi_attribute 20, 1
   5              		.eabi_attribute 21, 1
   6              		.eabi_attribute 23, 3
   7              		.eabi_attribute 24, 1
   8              		.eabi_attribute 25, 1
   9              		.eabi_attribute 26, 1
  10              		.eabi_attribute 30, 1
  11              		.eabi_attribute 34, 1
  12              		.eabi_attribute 18, 4
  13              		.thumb
  14              		.syntax unified
  15              		.file	"lv_hal_disp.c"
  16              		.text
  17              	.Ltext0:
  18              		.cfi_sections	.debug_frame
  19              		.section	.text.lv_disp_drv_init,"ax",%progbits
  20              		.align	2
  21              		.global	lv_disp_drv_init
  22              		.thumb
  23              		.thumb_func
  24              		.type	lv_disp_drv_init, %function
  25              	lv_disp_drv_init:
  26              	.LFB328:
  27              		.file 1 "lvgl\\src\\lv_hal\\lv_hal_disp.c"
   1:lvgl\src\lv_hal/lv_hal_disp.c **** 
   2:lvgl\src\lv_hal/lv_hal_disp.c **** /**
   3:lvgl\src\lv_hal/lv_hal_disp.c ****  * @file hal_disp.c
   4:lvgl\src\lv_hal/lv_hal_disp.c ****  *
   5:lvgl\src\lv_hal/lv_hal_disp.c ****  * @description HAL layer for display driver
   6:lvgl\src\lv_hal/lv_hal_disp.c ****  *
   7:lvgl\src\lv_hal/lv_hal_disp.c ****  */
   8:lvgl\src\lv_hal/lv_hal_disp.c **** 
   9:lvgl\src\lv_hal/lv_hal_disp.c **** /*********************
  10:lvgl\src\lv_hal/lv_hal_disp.c ****  *      INCLUDES
  11:lvgl\src\lv_hal/lv_hal_disp.c ****  *********************/
  12:lvgl\src\lv_hal/lv_hal_disp.c **** #include <stdint.h>
  13:lvgl\src\lv_hal/lv_hal_disp.c **** #include <stddef.h>
  14:lvgl\src\lv_hal/lv_hal_disp.c **** #include "lv_hal.h"
  15:lvgl\src\lv_hal/lv_hal_disp.c **** #include "../lv_misc/lv_mem.h"
  16:lvgl\src\lv_hal/lv_hal_disp.c **** #include "../lv_misc/lv_gc.h"
  17:lvgl\src\lv_hal/lv_hal_disp.c **** #include "../lv_misc/lv_debug.h"
  18:lvgl\src\lv_hal/lv_hal_disp.c **** #include "../lv_core/lv_obj.h"
  19:lvgl\src\lv_hal/lv_hal_disp.c **** #include "../lv_core/lv_refr.h"
  20:lvgl\src\lv_hal/lv_hal_disp.c **** #include "../lv_themes/lv_theme.h"
  21:lvgl\src\lv_hal/lv_hal_disp.c **** 
  22:lvgl\src\lv_hal/lv_hal_disp.c **** #if defined(LV_GC_INCLUDE)
  23:lvgl\src\lv_hal/lv_hal_disp.c ****     #include LV_GC_INCLUDE
  24:lvgl\src\lv_hal/lv_hal_disp.c **** #endif /* LV_ENABLE_GC */
  25:lvgl\src\lv_hal/lv_hal_disp.c **** 
  26:lvgl\src\lv_hal/lv_hal_disp.c **** /*********************
  27:lvgl\src\lv_hal/lv_hal_disp.c ****  *      DEFINES
  28:lvgl\src\lv_hal/lv_hal_disp.c ****  *********************/
  29:lvgl\src\lv_hal/lv_hal_disp.c **** 
  30:lvgl\src\lv_hal/lv_hal_disp.c **** /**********************
ARM GAS  C:\Users\strap\AppData\Local\Temp\cclHDQsV.s 			page 2


  31:lvgl\src\lv_hal/lv_hal_disp.c ****  *      TYPEDEFS
  32:lvgl\src\lv_hal/lv_hal_disp.c ****  **********************/
  33:lvgl\src\lv_hal/lv_hal_disp.c **** 
  34:lvgl\src\lv_hal/lv_hal_disp.c **** /**********************
  35:lvgl\src\lv_hal/lv_hal_disp.c ****  *  STATIC PROTOTYPES
  36:lvgl\src\lv_hal/lv_hal_disp.c ****  **********************/
  37:lvgl\src\lv_hal/lv_hal_disp.c **** 
  38:lvgl\src\lv_hal/lv_hal_disp.c **** /**********************
  39:lvgl\src\lv_hal/lv_hal_disp.c ****  *  STATIC VARIABLES
  40:lvgl\src\lv_hal/lv_hal_disp.c ****  **********************/
  41:lvgl\src\lv_hal/lv_hal_disp.c **** static lv_disp_t * disp_def;
  42:lvgl\src\lv_hal/lv_hal_disp.c **** 
  43:lvgl\src\lv_hal/lv_hal_disp.c **** /**********************
  44:lvgl\src\lv_hal/lv_hal_disp.c ****  *      MACROS
  45:lvgl\src\lv_hal/lv_hal_disp.c ****  **********************/
  46:lvgl\src\lv_hal/lv_hal_disp.c **** 
  47:lvgl\src\lv_hal/lv_hal_disp.c **** /**********************
  48:lvgl\src\lv_hal/lv_hal_disp.c ****  *   GLOBAL FUNCTIONS
  49:lvgl\src\lv_hal/lv_hal_disp.c ****  **********************/
  50:lvgl\src\lv_hal/lv_hal_disp.c **** 
  51:lvgl\src\lv_hal/lv_hal_disp.c **** /**
  52:lvgl\src\lv_hal/lv_hal_disp.c ****  * Initialize a display driver with default values.
  53:lvgl\src\lv_hal/lv_hal_disp.c ****  * It is used to surly have known values in the fields ant not memory junk.
  54:lvgl\src\lv_hal/lv_hal_disp.c ****  * After it you can set the fields.
  55:lvgl\src\lv_hal/lv_hal_disp.c ****  * @param driver pointer to driver variable to initialize
  56:lvgl\src\lv_hal/lv_hal_disp.c ****  */
  57:lvgl\src\lv_hal/lv_hal_disp.c **** void lv_disp_drv_init(lv_disp_drv_t * driver)
  58:lvgl\src\lv_hal/lv_hal_disp.c **** {
  28              		.loc 1 58 0
  29              		.cfi_startproc
  30              		@ args = 0, pretend = 0, frame = 0
  31              		@ frame_needed = 0, uses_anonymous_args = 0
  32              	.LVL0:
  33 0000 10B5     		push	{r4, lr}
  34              		.cfi_def_cfa_offset 8
  35              		.cfi_offset 4, -8
  36              		.cfi_offset 14, -4
  37 0002 0446     		mov	r4, r0
  59:lvgl\src\lv_hal/lv_hal_disp.c ****     _lv_memset_00(driver, sizeof(lv_disp_drv_t));
  38              		.loc 1 59 0
  39 0004 3021     		movs	r1, #48
  40 0006 FFF7FEFF 		bl	_lv_memset_00
  41              	.LVL1:
  60:lvgl\src\lv_hal/lv_hal_disp.c **** 
  61:lvgl\src\lv_hal/lv_hal_disp.c ****     driver->flush_cb         = NULL;
  42              		.loc 1 61 0
  43 000a 0022     		movs	r2, #0
  44 000c E260     		str	r2, [r4, #12]
  62:lvgl\src\lv_hal/lv_hal_disp.c ****     driver->hor_res          = LV_HOR_RES_MAX;
  45              		.loc 1 62 0
  46 000e 4FF4A073 		mov	r3, #320
  47 0012 2380     		strh	r3, [r4]	@ movhi
  63:lvgl\src\lv_hal/lv_hal_disp.c ****     driver->ver_res          = LV_VER_RES_MAX;
  48              		.loc 1 63 0
  49 0014 F023     		movs	r3, #240
  50 0016 6380     		strh	r3, [r4, #2]	@ movhi
  64:lvgl\src\lv_hal/lv_hal_disp.c ****     driver->buffer           = NULL;
ARM GAS  C:\Users\strap\AppData\Local\Temp\cclHDQsV.s 			page 3


  51              		.loc 1 64 0
  52 0018 6260     		str	r2, [r4, #4]
  65:lvgl\src\lv_hal/lv_hal_disp.c ****     driver->rotated          = 0;
  53              		.loc 1 65 0
  54 001a 237A     		ldrb	r3, [r4, #8]	@ zero_extendqisi2
  55 001c 62F34103 		bfi	r3, r2, #1, #1
  56 0020 2372     		strb	r3, [r4, #8]
  66:lvgl\src\lv_hal/lv_hal_disp.c ****     driver->color_chroma_key = LV_COLOR_TRANSP;
  57              		.loc 1 66 0
  58 0022 94F82830 		ldrb	r3, [r4, #40]	@ zero_extendqisi2
  59 0026 43F00703 		orr	r3, r3, #7
  60 002a 62F3C703 		bfi	r3, r2, #3, #5
  61 002e 84F82830 		strb	r3, [r4, #40]
  62 0032 E023     		movs	r3, #224
  63 0034 84F82930 		strb	r3, [r4, #41]
  67:lvgl\src\lv_hal/lv_hal_disp.c ****     driver->dpi = LV_DPI;
  64              		.loc 1 67 0
  65 0038 2389     		ldrh	r3, [r4, #8]
  66 003a 8221     		movs	r1, #130
  67 003c 61F38B03 		bfi	r3, r1, #2, #10
  68 0040 2381     		strh	r3, [r4, #8]	@ movhi
  68:lvgl\src\lv_hal/lv_hal_disp.c **** 
  69:lvgl\src\lv_hal/lv_hal_disp.c **** #if LV_ANTIALIAS
  70:lvgl\src\lv_hal/lv_hal_disp.c ****     driver->antialiasing = true;
  69              		.loc 1 70 0
  70 0042 DBB2     		uxtb	r3, r3
  71 0044 43F00103 		orr	r3, r3, #1
  72 0048 2372     		strb	r3, [r4, #8]
  71:lvgl\src\lv_hal/lv_hal_disp.c **** #endif
  72:lvgl\src\lv_hal/lv_hal_disp.c **** 
  73:lvgl\src\lv_hal/lv_hal_disp.c **** #if LV_COLOR_SCREEN_TRANSP
  74:lvgl\src\lv_hal/lv_hal_disp.c ****     driver->screen_transp = 1;
  75:lvgl\src\lv_hal/lv_hal_disp.c **** #endif
  76:lvgl\src\lv_hal/lv_hal_disp.c **** 
  77:lvgl\src\lv_hal/lv_hal_disp.c **** #if LV_USE_GPU
  78:lvgl\src\lv_hal/lv_hal_disp.c ****     driver->gpu_blend_cb = NULL;
  79:lvgl\src\lv_hal/lv_hal_disp.c ****     driver->gpu_fill_cb  = NULL;
  80:lvgl\src\lv_hal/lv_hal_disp.c **** #endif
  81:lvgl\src\lv_hal/lv_hal_disp.c **** 
  82:lvgl\src\lv_hal/lv_hal_disp.c **** #if LV_USE_USER_DATA
  83:lvgl\src\lv_hal/lv_hal_disp.c ****     driver->user_data = NULL;
  73              		.loc 1 83 0
  74 004a E262     		str	r2, [r4, #44]
  84:lvgl\src\lv_hal/lv_hal_disp.c **** #endif
  85:lvgl\src\lv_hal/lv_hal_disp.c **** 
  86:lvgl\src\lv_hal/lv_hal_disp.c ****     driver->set_px_cb = NULL;
  75              		.loc 1 86 0
  76 004c 6261     		str	r2, [r4, #20]
  77 004e 10BD     		pop	{r4, pc}
  78              		.cfi_endproc
  79              	.LFE328:
  80              		.size	lv_disp_drv_init, .-lv_disp_drv_init
  81              		.section	.text.lv_disp_buf_init,"ax",%progbits
  82              		.align	2
  83              		.global	lv_disp_buf_init
  84              		.thumb
  85              		.thumb_func
ARM GAS  C:\Users\strap\AppData\Local\Temp\cclHDQsV.s 			page 4


  86              		.type	lv_disp_buf_init, %function
  87              	lv_disp_buf_init:
  88              	.LFB329:
  87:lvgl\src\lv_hal/lv_hal_disp.c **** }
  88:lvgl\src\lv_hal/lv_hal_disp.c **** 
  89:lvgl\src\lv_hal/lv_hal_disp.c **** /**
  90:lvgl\src\lv_hal/lv_hal_disp.c ****  * Initialize a display buffer
  91:lvgl\src\lv_hal/lv_hal_disp.c ****  * @param disp_buf pointer `lv_disp_buf_t` variable to initialize
  92:lvgl\src\lv_hal/lv_hal_disp.c ****  * @param buf1 A buffer to be used by LVGL to draw the image.
  93:lvgl\src\lv_hal/lv_hal_disp.c ****  *             Always has to specified and can't be NULL.
  94:lvgl\src\lv_hal/lv_hal_disp.c ****  *             Can be an array allocated by the user. E.g. `static lv_color_t disp_buf1[1024 * 10]`
  95:lvgl\src\lv_hal/lv_hal_disp.c ****  *             Or a memory address e.g. in external SRAM
  96:lvgl\src\lv_hal/lv_hal_disp.c ****  * @param buf2 Optionally specify a second buffer to make image rendering and image flushing
  97:lvgl\src\lv_hal/lv_hal_disp.c ****  *             (sending to the display) parallel.
  98:lvgl\src\lv_hal/lv_hal_disp.c ****  *             In the `disp_drv->flush` you should use DMA or similar hardware to send
  99:lvgl\src\lv_hal/lv_hal_disp.c ****  *             the image to the display in the background.
 100:lvgl\src\lv_hal/lv_hal_disp.c ****  *             It lets LVGL to render next frame into the other buffer while previous is being
 101:lvgl\src\lv_hal/lv_hal_disp.c ****  * sent. Set to `NULL` if unused.
 102:lvgl\src\lv_hal/lv_hal_disp.c ****  * @param size_in_px_cnt size of the `buf1` and `buf2` in pixel count.
 103:lvgl\src\lv_hal/lv_hal_disp.c ****  */
 104:lvgl\src\lv_hal/lv_hal_disp.c **** void lv_disp_buf_init(lv_disp_buf_t * disp_buf, void * buf1, void * buf2, uint32_t size_in_px_cnt)
 105:lvgl\src\lv_hal/lv_hal_disp.c **** {
  89              		.loc 1 105 0
  90              		.cfi_startproc
  91              		@ args = 0, pretend = 0, frame = 0
  92              		@ frame_needed = 0, uses_anonymous_args = 0
  93              	.LVL2:
  94 0000 F8B5     		push	{r3, r4, r5, r6, r7, lr}
  95              		.cfi_def_cfa_offset 24
  96              		.cfi_offset 3, -24
  97              		.cfi_offset 4, -20
  98              		.cfi_offset 5, -16
  99              		.cfi_offset 6, -12
 100              		.cfi_offset 7, -8
 101              		.cfi_offset 14, -4
 102 0002 0446     		mov	r4, r0
 103 0004 0D46     		mov	r5, r1
 104 0006 1746     		mov	r7, r2
 105 0008 1E46     		mov	r6, r3
 106:lvgl\src\lv_hal/lv_hal_disp.c ****     _lv_memset_00(disp_buf, sizeof(lv_disp_buf_t));
 106              		.loc 1 106 0
 107 000a 2421     		movs	r1, #36
 108              	.LVL3:
 109 000c FFF7FEFF 		bl	_lv_memset_00
 110              	.LVL4:
 107:lvgl\src\lv_hal/lv_hal_disp.c **** 
 108:lvgl\src\lv_hal/lv_hal_disp.c ****     disp_buf->buf1    = buf1;
 111              		.loc 1 108 0
 112 0010 2560     		str	r5, [r4]
 109:lvgl\src\lv_hal/lv_hal_disp.c ****     disp_buf->buf2    = buf2;
 113              		.loc 1 109 0
 114 0012 6760     		str	r7, [r4, #4]
 110:lvgl\src\lv_hal/lv_hal_disp.c ****     disp_buf->buf_act = disp_buf->buf1;
 115              		.loc 1 110 0
 116 0014 A560     		str	r5, [r4, #8]
 111:lvgl\src\lv_hal/lv_hal_disp.c ****     disp_buf->size    = size_in_px_cnt;
 117              		.loc 1 111 0
ARM GAS  C:\Users\strap\AppData\Local\Temp\cclHDQsV.s 			page 5


 118 0016 E660     		str	r6, [r4, #12]
 119 0018 F8BD     		pop	{r3, r4, r5, r6, r7, pc}
 120              		.cfi_endproc
 121              	.LFE329:
 122              		.size	lv_disp_buf_init, .-lv_disp_buf_init
 123 001a 00BF     		.section	.text.lv_disp_set_default,"ax",%progbits
 124              		.align	2
 125              		.global	lv_disp_set_default
 126              		.thumb
 127              		.thumb_func
 128              		.type	lv_disp_set_default, %function
 129              	lv_disp_set_default:
 130              	.LFB333:
 112:lvgl\src\lv_hal/lv_hal_disp.c **** }
 113:lvgl\src\lv_hal/lv_hal_disp.c **** 
 114:lvgl\src\lv_hal/lv_hal_disp.c **** /**
 115:lvgl\src\lv_hal/lv_hal_disp.c ****  * Register an initialized display driver.
 116:lvgl\src\lv_hal/lv_hal_disp.c ****  * Automatically set the first display as active.
 117:lvgl\src\lv_hal/lv_hal_disp.c ****  * @param driver pointer to an initialized 'lv_disp_drv_t' variable (can be local variable)
 118:lvgl\src\lv_hal/lv_hal_disp.c ****  * @return pointer to the new display or NULL on error
 119:lvgl\src\lv_hal/lv_hal_disp.c ****  */
 120:lvgl\src\lv_hal/lv_hal_disp.c **** lv_disp_t * lv_disp_drv_register(lv_disp_drv_t * driver)
 121:lvgl\src\lv_hal/lv_hal_disp.c **** {
 122:lvgl\src\lv_hal/lv_hal_disp.c ****     lv_disp_t * disp = _lv_ll_ins_head(&LV_GC_ROOT(_lv_disp_ll));
 123:lvgl\src\lv_hal/lv_hal_disp.c ****     if(!disp) {
 124:lvgl\src\lv_hal/lv_hal_disp.c ****         LV_ASSERT_MEM(disp);
 125:lvgl\src\lv_hal/lv_hal_disp.c ****         return NULL;
 126:lvgl\src\lv_hal/lv_hal_disp.c ****     }
 127:lvgl\src\lv_hal/lv_hal_disp.c **** 
 128:lvgl\src\lv_hal/lv_hal_disp.c ****     _lv_memset_00(disp, sizeof(lv_disp_t));
 129:lvgl\src\lv_hal/lv_hal_disp.c ****     _lv_memcpy(&disp->driver, driver, sizeof(lv_disp_drv_t));
 130:lvgl\src\lv_hal/lv_hal_disp.c **** 
 131:lvgl\src\lv_hal/lv_hal_disp.c ****     _lv_ll_init(&disp->scr_ll, sizeof(lv_obj_t));
 132:lvgl\src\lv_hal/lv_hal_disp.c ****     disp->last_activity_time = 0;
 133:lvgl\src\lv_hal/lv_hal_disp.c **** 
 134:lvgl\src\lv_hal/lv_hal_disp.c ****     if(disp_def == NULL) disp_def = disp;
 135:lvgl\src\lv_hal/lv_hal_disp.c **** 
 136:lvgl\src\lv_hal/lv_hal_disp.c ****     lv_disp_t * disp_def_tmp = disp_def;
 137:lvgl\src\lv_hal/lv_hal_disp.c ****     disp_def                 = disp; /*Temporarily change the default screen to create the default 
 138:lvgl\src\lv_hal/lv_hal_disp.c ****                                         new display*/
 139:lvgl\src\lv_hal/lv_hal_disp.c ****     /*Create a refresh task*/
 140:lvgl\src\lv_hal/lv_hal_disp.c ****     disp->refr_task = lv_task_create(_lv_disp_refr_task, LV_DISP_DEF_REFR_PERIOD, LV_REFR_TASK_PRIO
 141:lvgl\src\lv_hal/lv_hal_disp.c ****     LV_ASSERT_MEM(disp->refr_task);
 142:lvgl\src\lv_hal/lv_hal_disp.c ****     if(disp->refr_task == NULL) return NULL;
 143:lvgl\src\lv_hal/lv_hal_disp.c **** 
 144:lvgl\src\lv_hal/lv_hal_disp.c ****     disp->inv_p = 0;
 145:lvgl\src\lv_hal/lv_hal_disp.c ****     disp->last_activity_time = 0;
 146:lvgl\src\lv_hal/lv_hal_disp.c **** 
 147:lvgl\src\lv_hal/lv_hal_disp.c ****     disp->bg_color = LV_COLOR_WHITE;
 148:lvgl\src\lv_hal/lv_hal_disp.c ****     disp->bg_img = NULL;
 149:lvgl\src\lv_hal/lv_hal_disp.c **** #if LV_COLOR_SCREEN_TRANSP
 150:lvgl\src\lv_hal/lv_hal_disp.c ****     disp->bg_opa = LV_OPA_TRANSP;
 151:lvgl\src\lv_hal/lv_hal_disp.c **** #else
 152:lvgl\src\lv_hal/lv_hal_disp.c ****     disp->bg_opa = LV_OPA_COVER;
 153:lvgl\src\lv_hal/lv_hal_disp.c **** #endif
 154:lvgl\src\lv_hal/lv_hal_disp.c **** 
 155:lvgl\src\lv_hal/lv_hal_disp.c ****     disp->prev_scr  = NULL;
ARM GAS  C:\Users\strap\AppData\Local\Temp\cclHDQsV.s 			page 6


 156:lvgl\src\lv_hal/lv_hal_disp.c ****     disp->act_scr   = lv_obj_create(NULL, NULL); /*Create a default screen on the display*/
 157:lvgl\src\lv_hal/lv_hal_disp.c ****     disp->top_layer = lv_obj_create(NULL, NULL); /*Create top layer on the display*/
 158:lvgl\src\lv_hal/lv_hal_disp.c ****     disp->sys_layer = lv_obj_create(NULL, NULL); /*Create sys layer on the display*/
 159:lvgl\src\lv_hal/lv_hal_disp.c ****     lv_obj_reset_style_list(disp->top_layer, LV_OBJ_PART_MAIN);
 160:lvgl\src\lv_hal/lv_hal_disp.c ****     lv_obj_reset_style_list(disp->sys_layer, LV_OBJ_PART_MAIN);
 161:lvgl\src\lv_hal/lv_hal_disp.c ****     lv_obj_set_click(disp->top_layer, false);
 162:lvgl\src\lv_hal/lv_hal_disp.c ****     lv_obj_set_click(disp->sys_layer, false);
 163:lvgl\src\lv_hal/lv_hal_disp.c **** 
 164:lvgl\src\lv_hal/lv_hal_disp.c ****     lv_obj_invalidate(disp->act_scr);
 165:lvgl\src\lv_hal/lv_hal_disp.c **** 
 166:lvgl\src\lv_hal/lv_hal_disp.c ****     disp_def = disp_def_tmp; /*Revert the default display*/
 167:lvgl\src\lv_hal/lv_hal_disp.c **** 
 168:lvgl\src\lv_hal/lv_hal_disp.c ****     lv_task_ready(disp->refr_task); /*Be sure the screen will be refreshed immediately on start up*
 169:lvgl\src\lv_hal/lv_hal_disp.c **** 
 170:lvgl\src\lv_hal/lv_hal_disp.c ****     /*Can't handle this case later so add an error*/
 171:lvgl\src\lv_hal/lv_hal_disp.c ****     if(lv_disp_is_true_double_buf(disp) && disp->driver.set_px_cb) {
 172:lvgl\src\lv_hal/lv_hal_disp.c ****         LV_LOG_ERROR("Can't handle 2 screen sized buffers with set_px_cb. Display will not be refre
 173:lvgl\src\lv_hal/lv_hal_disp.c ****     }
 174:lvgl\src\lv_hal/lv_hal_disp.c **** 
 175:lvgl\src\lv_hal/lv_hal_disp.c ****     return disp;
 176:lvgl\src\lv_hal/lv_hal_disp.c **** }
 177:lvgl\src\lv_hal/lv_hal_disp.c **** 
 178:lvgl\src\lv_hal/lv_hal_disp.c **** /**
 179:lvgl\src\lv_hal/lv_hal_disp.c ****  * Update the driver in run time.
 180:lvgl\src\lv_hal/lv_hal_disp.c ****  * @param disp pointer to a display. (return value of `lv_disp_drv_register`)
 181:lvgl\src\lv_hal/lv_hal_disp.c ****  * @param new_drv pointer to the new driver
 182:lvgl\src\lv_hal/lv_hal_disp.c ****  */
 183:lvgl\src\lv_hal/lv_hal_disp.c **** void lv_disp_drv_update(lv_disp_t * disp, lv_disp_drv_t * new_drv)
 184:lvgl\src\lv_hal/lv_hal_disp.c **** {
 185:lvgl\src\lv_hal/lv_hal_disp.c ****     memcpy(&disp->driver, new_drv, sizeof(lv_disp_drv_t));
 186:lvgl\src\lv_hal/lv_hal_disp.c **** 
 187:lvgl\src\lv_hal/lv_hal_disp.c ****     lv_obj_t * scr;
 188:lvgl\src\lv_hal/lv_hal_disp.c ****     _LV_LL_READ(disp->scr_ll, scr) {
 189:lvgl\src\lv_hal/lv_hal_disp.c ****         lv_obj_set_size(scr, lv_disp_get_hor_res(disp), lv_disp_get_ver_res(disp));
 190:lvgl\src\lv_hal/lv_hal_disp.c ****     }
 191:lvgl\src\lv_hal/lv_hal_disp.c **** }
 192:lvgl\src\lv_hal/lv_hal_disp.c **** 
 193:lvgl\src\lv_hal/lv_hal_disp.c **** /**
 194:lvgl\src\lv_hal/lv_hal_disp.c ****  * Remove a display
 195:lvgl\src\lv_hal/lv_hal_disp.c ****  * @param disp pointer to display
 196:lvgl\src\lv_hal/lv_hal_disp.c ****  */
 197:lvgl\src\lv_hal/lv_hal_disp.c **** void lv_disp_remove(lv_disp_t * disp)
 198:lvgl\src\lv_hal/lv_hal_disp.c **** {
 199:lvgl\src\lv_hal/lv_hal_disp.c ****     bool was_default = false;
 200:lvgl\src\lv_hal/lv_hal_disp.c ****     if(disp == lv_disp_get_default()) was_default = true;
 201:lvgl\src\lv_hal/lv_hal_disp.c **** 
 202:lvgl\src\lv_hal/lv_hal_disp.c ****     /*Detach the input devices */
 203:lvgl\src\lv_hal/lv_hal_disp.c ****     lv_indev_t * indev;
 204:lvgl\src\lv_hal/lv_hal_disp.c ****     indev = lv_indev_get_next(NULL);
 205:lvgl\src\lv_hal/lv_hal_disp.c ****     while(indev) {
 206:lvgl\src\lv_hal/lv_hal_disp.c ****         if(indev->driver.disp == disp) {
 207:lvgl\src\lv_hal/lv_hal_disp.c ****             indev->driver.disp = NULL;
 208:lvgl\src\lv_hal/lv_hal_disp.c ****         }
 209:lvgl\src\lv_hal/lv_hal_disp.c ****         indev = lv_indev_get_next(indev);
 210:lvgl\src\lv_hal/lv_hal_disp.c ****     }
 211:lvgl\src\lv_hal/lv_hal_disp.c **** 
 212:lvgl\src\lv_hal/lv_hal_disp.c ****     _lv_ll_remove(&LV_GC_ROOT(_lv_disp_ll), disp);
ARM GAS  C:\Users\strap\AppData\Local\Temp\cclHDQsV.s 			page 7


 213:lvgl\src\lv_hal/lv_hal_disp.c ****     lv_mem_free(disp);
 214:lvgl\src\lv_hal/lv_hal_disp.c **** 
 215:lvgl\src\lv_hal/lv_hal_disp.c ****     if(was_default) lv_disp_set_default(_lv_ll_get_head(&LV_GC_ROOT(_lv_disp_ll)));
 216:lvgl\src\lv_hal/lv_hal_disp.c **** }
 217:lvgl\src\lv_hal/lv_hal_disp.c **** 
 218:lvgl\src\lv_hal/lv_hal_disp.c **** /**
 219:lvgl\src\lv_hal/lv_hal_disp.c ****  * Set a default screen. The new screens will be created on it by default.
 220:lvgl\src\lv_hal/lv_hal_disp.c ****  * @param disp pointer to a display
 221:lvgl\src\lv_hal/lv_hal_disp.c ****  */
 222:lvgl\src\lv_hal/lv_hal_disp.c **** void lv_disp_set_default(lv_disp_t * disp)
 223:lvgl\src\lv_hal/lv_hal_disp.c **** {
 131              		.loc 1 223 0
 132              		.cfi_startproc
 133              		@ args = 0, pretend = 0, frame = 0
 134              		@ frame_needed = 0, uses_anonymous_args = 0
 135              		@ link register save eliminated.
 136              	.LVL5:
 224:lvgl\src\lv_hal/lv_hal_disp.c ****     disp_def = disp;
 137              		.loc 1 224 0
 138 0000 014B     		ldr	r3, .L6
 139 0002 1860     		str	r0, [r3]
 140 0004 7047     		bx	lr
 141              	.L7:
 142 0006 00BF     		.align	2
 143              	.L6:
 144 0008 00000000 		.word	.LANCHOR0
 145              		.cfi_endproc
 146              	.LFE333:
 147              		.size	lv_disp_set_default, .-lv_disp_set_default
 148              		.section	.text.lv_disp_get_default,"ax",%progbits
 149              		.align	2
 150              		.global	lv_disp_get_default
 151              		.thumb
 152              		.thumb_func
 153              		.type	lv_disp_get_default, %function
 154              	lv_disp_get_default:
 155              	.LFB334:
 225:lvgl\src\lv_hal/lv_hal_disp.c **** }
 226:lvgl\src\lv_hal/lv_hal_disp.c **** 
 227:lvgl\src\lv_hal/lv_hal_disp.c **** /**
 228:lvgl\src\lv_hal/lv_hal_disp.c ****  * Get the default display
 229:lvgl\src\lv_hal/lv_hal_disp.c ****  * @return pointer to the default display
 230:lvgl\src\lv_hal/lv_hal_disp.c ****  */
 231:lvgl\src\lv_hal/lv_hal_disp.c **** lv_disp_t * lv_disp_get_default(void)
 232:lvgl\src\lv_hal/lv_hal_disp.c **** {
 156              		.loc 1 232 0
 157              		.cfi_startproc
 158              		@ args = 0, pretend = 0, frame = 0
 159              		@ frame_needed = 0, uses_anonymous_args = 0
 160              		@ link register save eliminated.
 233:lvgl\src\lv_hal/lv_hal_disp.c ****     return disp_def;
 234:lvgl\src\lv_hal/lv_hal_disp.c **** }
 161              		.loc 1 234 0
 162 0000 014B     		ldr	r3, .L9
 163 0002 1868     		ldr	r0, [r3]
 164 0004 7047     		bx	lr
 165              	.L10:
ARM GAS  C:\Users\strap\AppData\Local\Temp\cclHDQsV.s 			page 8


 166 0006 00BF     		.align	2
 167              	.L9:
 168 0008 00000000 		.word	.LANCHOR0
 169              		.cfi_endproc
 170              	.LFE334:
 171              		.size	lv_disp_get_default, .-lv_disp_get_default
 172              		.section	.text.lv_disp_remove,"ax",%progbits
 173              		.align	2
 174              		.global	lv_disp_remove
 175              		.thumb
 176              		.thumb_func
 177              		.type	lv_disp_remove, %function
 178              	lv_disp_remove:
 179              	.LFB332:
 198:lvgl\src\lv_hal/lv_hal_disp.c ****     bool was_default = false;
 180              		.loc 1 198 0
 181              		.cfi_startproc
 182              		@ args = 0, pretend = 0, frame = 0
 183              		@ frame_needed = 0, uses_anonymous_args = 0
 184              	.LVL6:
 185 0000 38B5     		push	{r3, r4, r5, lr}
 186              		.cfi_def_cfa_offset 16
 187              		.cfi_offset 3, -16
 188              		.cfi_offset 4, -12
 189              		.cfi_offset 5, -8
 190              		.cfi_offset 14, -4
 191 0002 0446     		mov	r4, r0
 192              	.LVL7:
 200:lvgl\src\lv_hal/lv_hal_disp.c **** 
 193              		.loc 1 200 0
 194 0004 FFF7FEFF 		bl	lv_disp_get_default
 195              	.LVL8:
 196 0008 8442     		cmp	r4, r0
 197 000a 01D0     		beq	.L17
 199:lvgl\src\lv_hal/lv_hal_disp.c ****     if(disp == lv_disp_get_default()) was_default = true;
 198              		.loc 1 199 0
 199 000c 0025     		movs	r5, #0
 200 000e 00E0     		b	.L12
 201              	.L17:
 200:lvgl\src\lv_hal/lv_hal_disp.c **** 
 202              		.loc 1 200 0
 203 0010 0125     		movs	r5, #1
 204              	.L12:
 205              	.LVL9:
 204:lvgl\src\lv_hal/lv_hal_disp.c ****     while(indev) {
 206              		.loc 1 204 0
 207 0012 0020     		movs	r0, #0
 208 0014 FFF7FEFF 		bl	lv_indev_get_next
 209              	.LVL10:
 205:lvgl\src\lv_hal/lv_hal_disp.c ****         if(indev->driver.disp == disp) {
 210              		.loc 1 205 0
 211 0018 06E0     		b	.L13
 212              	.L15:
 206:lvgl\src\lv_hal/lv_hal_disp.c ****             indev->driver.disp = NULL;
 213              		.loc 1 206 0
 214 001a 0369     		ldr	r3, [r0, #16]
 215 001c 9C42     		cmp	r4, r3
ARM GAS  C:\Users\strap\AppData\Local\Temp\cclHDQsV.s 			page 9


 216 001e 01D1     		bne	.L14
 207:lvgl\src\lv_hal/lv_hal_disp.c ****         }
 217              		.loc 1 207 0
 218 0020 0023     		movs	r3, #0
 219 0022 0361     		str	r3, [r0, #16]
 220              	.L14:
 209:lvgl\src\lv_hal/lv_hal_disp.c ****     }
 221              		.loc 1 209 0
 222 0024 FFF7FEFF 		bl	lv_indev_get_next
 223              	.LVL11:
 224              	.L13:
 205:lvgl\src\lv_hal/lv_hal_disp.c ****         if(indev->driver.disp == disp) {
 225              		.loc 1 205 0
 226 0028 0028     		cmp	r0, #0
 227 002a F6D1     		bne	.L15
 212:lvgl\src\lv_hal/lv_hal_disp.c ****     lv_mem_free(disp);
 228              		.loc 1 212 0
 229 002c 2146     		mov	r1, r4
 230 002e 0648     		ldr	r0, .L19
 231              	.LVL12:
 232 0030 FFF7FEFF 		bl	_lv_ll_remove
 233              	.LVL13:
 213:lvgl\src\lv_hal/lv_hal_disp.c **** 
 234              		.loc 1 213 0
 235 0034 2046     		mov	r0, r4
 236 0036 FFF7FEFF 		bl	lv_mem_free
 237              	.LVL14:
 215:lvgl\src\lv_hal/lv_hal_disp.c **** }
 238              		.loc 1 215 0
 239 003a 25B1     		cbz	r5, .L11
 215:lvgl\src\lv_hal/lv_hal_disp.c **** }
 240              		.loc 1 215 0 is_stmt 0 discriminator 1
 241 003c 0248     		ldr	r0, .L19
 242 003e FFF7FEFF 		bl	_lv_ll_get_head
 243              	.LVL15:
 244 0042 FFF7FEFF 		bl	lv_disp_set_default
 245              	.LVL16:
 246              	.L11:
 247 0046 38BD     		pop	{r3, r4, r5, pc}
 248              	.LVL17:
 249              	.L20:
 250              		.align	2
 251              	.L19:
 252 0048 00000000 		.word	_lv_disp_ll
 253              		.cfi_endproc
 254              	.LFE332:
 255              		.size	lv_disp_remove, .-lv_disp_remove
 256              		.section	.text.lv_disp_get_hor_res,"ax",%progbits
 257              		.align	2
 258              		.global	lv_disp_get_hor_res
 259              		.thumb
 260              		.thumb_func
 261              		.type	lv_disp_get_hor_res, %function
 262              	lv_disp_get_hor_res:
 263              	.LFB335:
 235:lvgl\src\lv_hal/lv_hal_disp.c **** 
 236:lvgl\src\lv_hal/lv_hal_disp.c **** /**
ARM GAS  C:\Users\strap\AppData\Local\Temp\cclHDQsV.s 			page 10


 237:lvgl\src\lv_hal/lv_hal_disp.c ****  * Get the horizontal resolution of a display
 238:lvgl\src\lv_hal/lv_hal_disp.c ****  * @param disp pointer to a display (NULL to use the default display)
 239:lvgl\src\lv_hal/lv_hal_disp.c ****  * @return the horizontal resolution of the display
 240:lvgl\src\lv_hal/lv_hal_disp.c ****  */
 241:lvgl\src\lv_hal/lv_hal_disp.c **** lv_coord_t lv_disp_get_hor_res(lv_disp_t * disp)
 242:lvgl\src\lv_hal/lv_hal_disp.c **** {
 264              		.loc 1 242 0 is_stmt 1
 265              		.cfi_startproc
 266              		@ args = 0, pretend = 0, frame = 0
 267              		@ frame_needed = 0, uses_anonymous_args = 0
 268              	.LVL18:
 269 0000 08B5     		push	{r3, lr}
 270              		.cfi_def_cfa_offset 8
 271              		.cfi_offset 3, -8
 272              		.cfi_offset 14, -4
 243:lvgl\src\lv_hal/lv_hal_disp.c ****     if(disp == NULL) disp = lv_disp_get_default();
 273              		.loc 1 243 0
 274 0002 0346     		mov	r3, r0
 275 0004 10B9     		cbnz	r0, .L22
 276              		.loc 1 243 0 is_stmt 0 discriminator 1
 277 0006 FFF7FEFF 		bl	lv_disp_get_default
 278              	.LVL19:
 279 000a 0346     		mov	r3, r0
 280              	.LVL20:
 281              	.L22:
 244:lvgl\src\lv_hal/lv_hal_disp.c **** 
 245:lvgl\src\lv_hal/lv_hal_disp.c ****     if(disp == NULL)
 282              		.loc 1 245 0 is_stmt 1
 283 000c 4BB1     		cbz	r3, .L25
 246:lvgl\src\lv_hal/lv_hal_disp.c ****         return LV_HOR_RES_MAX;
 247:lvgl\src\lv_hal/lv_hal_disp.c ****     else
 248:lvgl\src\lv_hal/lv_hal_disp.c ****         return disp->driver.rotated == 0 ? disp->driver.hor_res : disp->driver.ver_res;
 284              		.loc 1 248 0
 285 000e 1A7A     		ldrb	r2, [r3, #8]	@ zero_extendqisi2
 286 0010 12F0020F 		tst	r2, #2
 287 0014 02D1     		bne	.L24
 288              		.loc 1 248 0 is_stmt 0 discriminator 1
 289 0016 B3F90000 		ldrsh	r0, [r3]
 290              	.LVL21:
 291 001a 08BD     		pop	{r3, pc}
 292              	.LVL22:
 293              	.L24:
 294              		.loc 1 248 0 discriminator 2
 295 001c B3F90200 		ldrsh	r0, [r3, #2]
 296              	.LVL23:
 297 0020 08BD     		pop	{r3, pc}
 298              	.LVL24:
 299              	.L25:
 246:lvgl\src\lv_hal/lv_hal_disp.c ****         return LV_HOR_RES_MAX;
 300              		.loc 1 246 0 is_stmt 1
 301 0022 4FF4A070 		mov	r0, #320
 302              	.LVL25:
 249:lvgl\src\lv_hal/lv_hal_disp.c **** }
 303              		.loc 1 249 0
 304 0026 08BD     		pop	{r3, pc}
 305              		.cfi_endproc
 306              	.LFE335:
ARM GAS  C:\Users\strap\AppData\Local\Temp\cclHDQsV.s 			page 11


 307              		.size	lv_disp_get_hor_res, .-lv_disp_get_hor_res
 308              		.section	.text.lv_disp_get_ver_res,"ax",%progbits
 309              		.align	2
 310              		.global	lv_disp_get_ver_res
 311              		.thumb
 312              		.thumb_func
 313              		.type	lv_disp_get_ver_res, %function
 314              	lv_disp_get_ver_res:
 315              	.LFB336:
 250:lvgl\src\lv_hal/lv_hal_disp.c **** 
 251:lvgl\src\lv_hal/lv_hal_disp.c **** /**
 252:lvgl\src\lv_hal/lv_hal_disp.c ****  * Get the vertical resolution of a display
 253:lvgl\src\lv_hal/lv_hal_disp.c ****  * @param disp pointer to a display (NULL to use the default display)
 254:lvgl\src\lv_hal/lv_hal_disp.c ****  * @return the vertical resolution of the display
 255:lvgl\src\lv_hal/lv_hal_disp.c ****  */
 256:lvgl\src\lv_hal/lv_hal_disp.c **** lv_coord_t lv_disp_get_ver_res(lv_disp_t * disp)
 257:lvgl\src\lv_hal/lv_hal_disp.c **** {
 316              		.loc 1 257 0
 317              		.cfi_startproc
 318              		@ args = 0, pretend = 0, frame = 0
 319              		@ frame_needed = 0, uses_anonymous_args = 0
 320              	.LVL26:
 321 0000 08B5     		push	{r3, lr}
 322              		.cfi_def_cfa_offset 8
 323              		.cfi_offset 3, -8
 324              		.cfi_offset 14, -4
 258:lvgl\src\lv_hal/lv_hal_disp.c ****     if(disp == NULL) disp = lv_disp_get_default();
 325              		.loc 1 258 0
 326 0002 0346     		mov	r3, r0
 327 0004 10B9     		cbnz	r0, .L28
 328              		.loc 1 258 0 is_stmt 0 discriminator 1
 329 0006 FFF7FEFF 		bl	lv_disp_get_default
 330              	.LVL27:
 331 000a 0346     		mov	r3, r0
 332              	.LVL28:
 333              	.L28:
 259:lvgl\src\lv_hal/lv_hal_disp.c **** 
 260:lvgl\src\lv_hal/lv_hal_disp.c ****     if(disp == NULL)
 334              		.loc 1 260 0 is_stmt 1
 335 000c 4BB1     		cbz	r3, .L31
 261:lvgl\src\lv_hal/lv_hal_disp.c ****         return LV_VER_RES_MAX;
 262:lvgl\src\lv_hal/lv_hal_disp.c ****     else
 263:lvgl\src\lv_hal/lv_hal_disp.c ****         return disp->driver.rotated == 0 ? disp->driver.ver_res : disp->driver.hor_res;
 336              		.loc 1 263 0
 337 000e 1A7A     		ldrb	r2, [r3, #8]	@ zero_extendqisi2
 338 0010 12F0020F 		tst	r2, #2
 339 0014 02D1     		bne	.L30
 340              		.loc 1 263 0 is_stmt 0 discriminator 1
 341 0016 B3F90200 		ldrsh	r0, [r3, #2]
 342              	.LVL29:
 343 001a 08BD     		pop	{r3, pc}
 344              	.LVL30:
 345              	.L30:
 346              		.loc 1 263 0 discriminator 2
 347 001c B3F90000 		ldrsh	r0, [r3]
 348              	.LVL31:
 349 0020 08BD     		pop	{r3, pc}
ARM GAS  C:\Users\strap\AppData\Local\Temp\cclHDQsV.s 			page 12


 350              	.LVL32:
 351              	.L31:
 261:lvgl\src\lv_hal/lv_hal_disp.c ****         return LV_VER_RES_MAX;
 352              		.loc 1 261 0 is_stmt 1
 353 0022 F020     		movs	r0, #240
 354              	.LVL33:
 264:lvgl\src\lv_hal/lv_hal_disp.c **** }
 355              		.loc 1 264 0
 356 0024 08BD     		pop	{r3, pc}
 357              		.cfi_endproc
 358              	.LFE336:
 359              		.size	lv_disp_get_ver_res, .-lv_disp_get_ver_res
 360 0026 00BF     		.section	.text.lv_disp_drv_update,"ax",%progbits
 361              		.align	2
 362              		.global	lv_disp_drv_update
 363              		.thumb
 364              		.thumb_func
 365              		.type	lv_disp_drv_update, %function
 366              	lv_disp_drv_update:
 367              	.LFB331:
 184:lvgl\src\lv_hal/lv_hal_disp.c ****     memcpy(&disp->driver, new_drv, sizeof(lv_disp_drv_t));
 368              		.loc 1 184 0
 369              		.cfi_startproc
 370              		@ args = 0, pretend = 0, frame = 0
 371              		@ frame_needed = 0, uses_anonymous_args = 0
 372              	.LVL34:
 373 0000 F8B5     		push	{r3, r4, r5, r6, r7, lr}
 374              		.cfi_def_cfa_offset 24
 375              		.cfi_offset 3, -24
 376              		.cfi_offset 4, -20
 377              		.cfi_offset 5, -16
 378              		.cfi_offset 6, -12
 379              		.cfi_offset 7, -8
 380              		.cfi_offset 14, -4
 381 0002 0546     		mov	r5, r0
 185:lvgl\src\lv_hal/lv_hal_disp.c **** 
 382              		.loc 1 185 0
 383 0004 0B46     		mov	r3, r1
 384 0006 0246     		mov	r2, r0
 385 0008 3031     		adds	r1, r1, #48
 386              	.LVL35:
 387              	.L34:
 388 000a 1F68     		ldr	r7, [r3]	@ unaligned
 389 000c 5E68     		ldr	r6, [r3, #4]	@ unaligned
 390 000e 9C68     		ldr	r4, [r3, #8]	@ unaligned
 391 0010 D868     		ldr	r0, [r3, #12]	@ unaligned
 392 0012 1760     		str	r7, [r2]	@ unaligned
 393 0014 5660     		str	r6, [r2, #4]	@ unaligned
 394 0016 9460     		str	r4, [r2, #8]	@ unaligned
 395 0018 D060     		str	r0, [r2, #12]	@ unaligned
 396 001a 1033     		adds	r3, r3, #16
 397 001c 1032     		adds	r2, r2, #16
 398 001e 8B42     		cmp	r3, r1
 399 0020 F3D1     		bne	.L34
 188:lvgl\src\lv_hal/lv_hal_disp.c ****         lv_obj_set_size(scr, lv_disp_get_hor_res(disp), lv_disp_get_ver_res(disp));
 400              		.loc 1 188 0
 401 0022 05F13407 		add	r7, r5, #52
ARM GAS  C:\Users\strap\AppData\Local\Temp\cclHDQsV.s 			page 13


 402 0026 3846     		mov	r0, r7
 403 0028 FFF7FEFF 		bl	_lv_ll_get_head
 404              	.LVL36:
 405 002c 0446     		mov	r4, r0
 406              	.LVL37:
 407 002e 10E0     		b	.L35
 408              	.L36:
 189:lvgl\src\lv_hal/lv_hal_disp.c ****     }
 409              		.loc 1 189 0 discriminator 3
 410 0030 2846     		mov	r0, r5
 411              	.LVL38:
 412 0032 FFF7FEFF 		bl	lv_disp_get_hor_res
 413              	.LVL39:
 414 0036 0646     		mov	r6, r0
 415 0038 2846     		mov	r0, r5
 416 003a FFF7FEFF 		bl	lv_disp_get_ver_res
 417              	.LVL40:
 418 003e 0246     		mov	r2, r0
 419 0040 3146     		mov	r1, r6
 420 0042 2046     		mov	r0, r4
 421 0044 FFF7FEFF 		bl	lv_obj_set_size
 422              	.LVL41:
 188:lvgl\src\lv_hal/lv_hal_disp.c ****         lv_obj_set_size(scr, lv_disp_get_hor_res(disp), lv_disp_get_ver_res(disp));
 423              		.loc 1 188 0 discriminator 3
 424 0048 2146     		mov	r1, r4
 425 004a 3846     		mov	r0, r7
 426 004c FFF7FEFF 		bl	_lv_ll_get_next
 427              	.LVL42:
 428 0050 0446     		mov	r4, r0
 429              	.LVL43:
 430              	.L35:
 188:lvgl\src\lv_hal/lv_hal_disp.c ****         lv_obj_set_size(scr, lv_disp_get_hor_res(disp), lv_disp_get_ver_res(disp));
 431              		.loc 1 188 0 is_stmt 0 discriminator 1
 432 0052 002C     		cmp	r4, #0
 433 0054 ECD1     		bne	.L36
 191:lvgl\src\lv_hal/lv_hal_disp.c **** 
 434              		.loc 1 191 0 is_stmt 1
 435 0056 F8BD     		pop	{r3, r4, r5, r6, r7, pc}
 436              		.cfi_endproc
 437              	.LFE331:
 438              		.size	lv_disp_drv_update, .-lv_disp_drv_update
 439              		.section	.text.lv_disp_get_antialiasing,"ax",%progbits
 440              		.align	2
 441              		.global	lv_disp_get_antialiasing
 442              		.thumb
 443              		.thumb_func
 444              		.type	lv_disp_get_antialiasing, %function
 445              	lv_disp_get_antialiasing:
 446              	.LFB337:
 265:lvgl\src\lv_hal/lv_hal_disp.c **** 
 266:lvgl\src\lv_hal/lv_hal_disp.c **** /**
 267:lvgl\src\lv_hal/lv_hal_disp.c ****  * Get if anti-aliasing is enabled for a display or not
 268:lvgl\src\lv_hal/lv_hal_disp.c ****  * @param disp pointer to a display (NULL to use the default display)
 269:lvgl\src\lv_hal/lv_hal_disp.c ****  * @return true: anti-aliasing is enabled; false: disabled
 270:lvgl\src\lv_hal/lv_hal_disp.c ****  */
 271:lvgl\src\lv_hal/lv_hal_disp.c **** bool lv_disp_get_antialiasing(lv_disp_t * disp)
 272:lvgl\src\lv_hal/lv_hal_disp.c **** {
ARM GAS  C:\Users\strap\AppData\Local\Temp\cclHDQsV.s 			page 14


 447              		.loc 1 272 0
 448              		.cfi_startproc
 449              		@ args = 0, pretend = 0, frame = 0
 450              		@ frame_needed = 0, uses_anonymous_args = 0
 451              	.LVL44:
 452 0000 08B5     		push	{r3, lr}
 453              		.cfi_def_cfa_offset 8
 454              		.cfi_offset 3, -8
 455              		.cfi_offset 14, -4
 273:lvgl\src\lv_hal/lv_hal_disp.c **** #if LV_ANTIALIAS == 0
 274:lvgl\src\lv_hal/lv_hal_disp.c ****     LV_UNUSED(disp);
 275:lvgl\src\lv_hal/lv_hal_disp.c ****     return false;
 276:lvgl\src\lv_hal/lv_hal_disp.c **** #else
 277:lvgl\src\lv_hal/lv_hal_disp.c ****     if(disp == NULL) disp = lv_disp_get_default();
 456              		.loc 1 277 0
 457 0002 0346     		mov	r3, r0
 458 0004 10B9     		cbnz	r0, .L39
 459              		.loc 1 277 0 is_stmt 0 discriminator 1
 460 0006 FFF7FEFF 		bl	lv_disp_get_default
 461              	.LVL45:
 462 000a 0346     		mov	r3, r0
 463              	.LVL46:
 464              	.L39:
 278:lvgl\src\lv_hal/lv_hal_disp.c ****     if(disp == NULL) return false;
 465              		.loc 1 278 0 is_stmt 1
 466 000c 1BB1     		cbz	r3, .L41
 279:lvgl\src\lv_hal/lv_hal_disp.c **** 
 280:lvgl\src\lv_hal/lv_hal_disp.c ****     return disp->driver.antialiasing ? true : false;
 467              		.loc 1 280 0
 468 000e 187A     		ldrb	r0, [r3, #8]	@ zero_extendqisi2
 469              	.LVL47:
 470 0010 00F00100 		and	r0, r0, #1
 471 0014 08BD     		pop	{r3, pc}
 472              	.LVL48:
 473              	.L41:
 278:lvgl\src\lv_hal/lv_hal_disp.c ****     if(disp == NULL) return false;
 474              		.loc 1 278 0
 475 0016 0020     		movs	r0, #0
 476              	.LVL49:
 281:lvgl\src\lv_hal/lv_hal_disp.c **** #endif
 282:lvgl\src\lv_hal/lv_hal_disp.c **** }
 477              		.loc 1 282 0
 478 0018 08BD     		pop	{r3, pc}
 479              		.cfi_endproc
 480              	.LFE337:
 481              		.size	lv_disp_get_antialiasing, .-lv_disp_get_antialiasing
 482 001a 00BF     		.section	.text.lv_disp_get_dpi,"ax",%progbits
 483              		.align	2
 484              		.global	lv_disp_get_dpi
 485              		.thumb
 486              		.thumb_func
 487              		.type	lv_disp_get_dpi, %function
 488              	lv_disp_get_dpi:
 489              	.LFB338:
 283:lvgl\src\lv_hal/lv_hal_disp.c **** 
 284:lvgl\src\lv_hal/lv_hal_disp.c **** /**
 285:lvgl\src\lv_hal/lv_hal_disp.c ****  * Get the DPI of the display
ARM GAS  C:\Users\strap\AppData\Local\Temp\cclHDQsV.s 			page 15


 286:lvgl\src\lv_hal/lv_hal_disp.c ****  * @param disp pointer to a display (NULL to use the default display)
 287:lvgl\src\lv_hal/lv_hal_disp.c ****  * @return dpi of the display
 288:lvgl\src\lv_hal/lv_hal_disp.c ****  */
 289:lvgl\src\lv_hal/lv_hal_disp.c **** lv_coord_t lv_disp_get_dpi(lv_disp_t * disp)
 290:lvgl\src\lv_hal/lv_hal_disp.c **** {
 490              		.loc 1 290 0
 491              		.cfi_startproc
 492              		@ args = 0, pretend = 0, frame = 0
 493              		@ frame_needed = 0, uses_anonymous_args = 0
 494              	.LVL50:
 495 0000 08B5     		push	{r3, lr}
 496              		.cfi_def_cfa_offset 8
 497              		.cfi_offset 3, -8
 498              		.cfi_offset 14, -4
 291:lvgl\src\lv_hal/lv_hal_disp.c ****     if(disp == NULL) disp = lv_disp_get_default();
 499              		.loc 1 291 0
 500 0002 0346     		mov	r3, r0
 501 0004 10B9     		cbnz	r0, .L44
 502              		.loc 1 291 0 is_stmt 0 discriminator 1
 503 0006 FFF7FEFF 		bl	lv_disp_get_default
 504              	.LVL51:
 505 000a 0346     		mov	r3, r0
 506              	.LVL52:
 507              	.L44:
 292:lvgl\src\lv_hal/lv_hal_disp.c ****     if(disp == NULL) return LV_DPI;  /*Do not return 0 because it might be a divider*/
 508              		.loc 1 292 0 is_stmt 1
 509 000c 1BB1     		cbz	r3, .L46
 293:lvgl\src\lv_hal/lv_hal_disp.c ****     return disp->driver.dpi;
 510              		.loc 1 293 0
 511 000e 1889     		ldrh	r0, [r3, #8]
 512              	.LVL53:
 513 0010 C0F38900 		ubfx	r0, r0, #2, #10
 514 0014 08BD     		pop	{r3, pc}
 515              	.LVL54:
 516              	.L46:
 292:lvgl\src\lv_hal/lv_hal_disp.c ****     if(disp == NULL) return LV_DPI;  /*Do not return 0 because it might be a divider*/
 517              		.loc 1 292 0
 518 0016 8220     		movs	r0, #130
 519              	.LVL55:
 294:lvgl\src\lv_hal/lv_hal_disp.c **** }
 520              		.loc 1 294 0
 521 0018 08BD     		pop	{r3, pc}
 522              		.cfi_endproc
 523              	.LFE338:
 524              		.size	lv_disp_get_dpi, .-lv_disp_get_dpi
 525 001a 00BF     		.section	.text.lv_disp_get_size_category,"ax",%progbits
 526              		.align	2
 527              		.global	lv_disp_get_size_category
 528              		.thumb
 529              		.thumb_func
 530              		.type	lv_disp_get_size_category, %function
 531              	lv_disp_get_size_category:
 532              	.LFB339:
 295:lvgl\src\lv_hal/lv_hal_disp.c **** 
 296:lvgl\src\lv_hal/lv_hal_disp.c **** /**
 297:lvgl\src\lv_hal/lv_hal_disp.c ****  * Get the size category of the display based on it's hor. res. and dpi.
 298:lvgl\src\lv_hal/lv_hal_disp.c ****  * @param disp pointer to a display (NULL to use the default display)
ARM GAS  C:\Users\strap\AppData\Local\Temp\cclHDQsV.s 			page 16


 299:lvgl\src\lv_hal/lv_hal_disp.c ****  * @return LV_DISP_SIZE_SMALL/MEDIUM/LARGE/EXTRA_LARGE
 300:lvgl\src\lv_hal/lv_hal_disp.c ****  */
 301:lvgl\src\lv_hal/lv_hal_disp.c **** lv_disp_size_t lv_disp_get_size_category(lv_disp_t * disp)
 302:lvgl\src\lv_hal/lv_hal_disp.c **** {
 533              		.loc 1 302 0
 534              		.cfi_startproc
 535              		@ args = 0, pretend = 0, frame = 0
 536              		@ frame_needed = 0, uses_anonymous_args = 0
 537              	.LVL56:
 538 0000 38B5     		push	{r3, r4, r5, lr}
 539              		.cfi_def_cfa_offset 16
 540              		.cfi_offset 3, -16
 541              		.cfi_offset 4, -12
 542              		.cfi_offset 5, -8
 543              		.cfi_offset 14, -4
 303:lvgl\src\lv_hal/lv_hal_disp.c ****     if(disp == NULL) disp = lv_disp_get_default();
 544              		.loc 1 303 0
 545 0002 0546     		mov	r5, r0
 546 0004 10B9     		cbnz	r0, .L49
 547              		.loc 1 303 0 is_stmt 0 discriminator 1
 548 0006 FFF7FEFF 		bl	lv_disp_get_default
 549              	.LVL57:
 550 000a 0546     		mov	r5, r0
 551              	.LVL58:
 552              	.L49:
 304:lvgl\src\lv_hal/lv_hal_disp.c **** 
 305:lvgl\src\lv_hal/lv_hal_disp.c ****     uint32_t w;
 306:lvgl\src\lv_hal/lv_hal_disp.c ****     if(disp == NULL) w = LV_HOR_RES_MAX;
 553              		.loc 1 306 0 is_stmt 1
 554 000c 25B1     		cbz	r5, .L52
 307:lvgl\src\lv_hal/lv_hal_disp.c ****     else w = lv_disp_get_hor_res(disp);
 555              		.loc 1 307 0
 556 000e 2846     		mov	r0, r5
 557 0010 FFF7FEFF 		bl	lv_disp_get_hor_res
 558              	.LVL59:
 559 0014 0446     		mov	r4, r0
 560              	.LVL60:
 561 0016 01E0     		b	.L50
 562              	.LVL61:
 563              	.L52:
 306:lvgl\src\lv_hal/lv_hal_disp.c ****     else w = lv_disp_get_hor_res(disp);
 564              		.loc 1 306 0
 565 0018 4FF4A074 		mov	r4, #320
 566              	.LVL62:
 567              	.L50:
 308:lvgl\src\lv_hal/lv_hal_disp.c **** 
 309:lvgl\src\lv_hal/lv_hal_disp.c ****     uint32_t dpi = lv_disp_get_dpi(disp);
 568              		.loc 1 309 0
 569 001c 2846     		mov	r0, r5
 570 001e FFF7FEFF 		bl	lv_disp_get_dpi
 571              	.LVL63:
 310:lvgl\src\lv_hal/lv_hal_disp.c **** 
 311:lvgl\src\lv_hal/lv_hal_disp.c ****     w = w * 10 / dpi;
 572              		.loc 1 311 0
 573 0022 04EB8404 		add	r4, r4, r4, lsl #2
 574              	.LVL64:
 575 0026 6300     		lsls	r3, r4, #1
ARM GAS  C:\Users\strap\AppData\Local\Temp\cclHDQsV.s 			page 17


 576 0028 B3FBF0F0 		udiv	r0, r3, r0
 577              	.LVL65:
 312:lvgl\src\lv_hal/lv_hal_disp.c **** 
 313:lvgl\src\lv_hal/lv_hal_disp.c ****     if(w < LV_DISP_SMALL_LIMIT) return LV_DISP_SIZE_SMALL;
 578              		.loc 1 313 0
 579 002c 1D28     		cmp	r0, #29
 580 002e 05D9     		bls	.L53
 314:lvgl\src\lv_hal/lv_hal_disp.c ****     if(w < LV_DISP_MEDIUM_LIMIT) return LV_DISP_SIZE_MEDIUM;
 581              		.loc 1 314 0
 582 0030 3128     		cmp	r0, #49
 583 0032 05D9     		bls	.L54
 315:lvgl\src\lv_hal/lv_hal_disp.c ****     if(w < LV_DISP_LARGE_LIMIT) return LV_DISP_SIZE_LARGE;
 584              		.loc 1 315 0
 585 0034 4528     		cmp	r0, #69
 586 0036 05D8     		bhi	.L55
 587 0038 0220     		movs	r0, #2
 588              	.LVL66:
 589 003a 38BD     		pop	{r3, r4, r5, pc}
 590              	.LVL67:
 591              	.L53:
 313:lvgl\src\lv_hal/lv_hal_disp.c ****     if(w < LV_DISP_MEDIUM_LIMIT) return LV_DISP_SIZE_MEDIUM;
 592              		.loc 1 313 0
 593 003c 0020     		movs	r0, #0
 594              	.LVL68:
 595 003e 38BD     		pop	{r3, r4, r5, pc}
 596              	.LVL69:
 597              	.L54:
 314:lvgl\src\lv_hal/lv_hal_disp.c ****     if(w < LV_DISP_MEDIUM_LIMIT) return LV_DISP_SIZE_MEDIUM;
 598              		.loc 1 314 0
 599 0040 0120     		movs	r0, #1
 600              	.LVL70:
 601 0042 38BD     		pop	{r3, r4, r5, pc}
 602              	.LVL71:
 603              	.L55:
 316:lvgl\src\lv_hal/lv_hal_disp.c ****     else return LV_DISP_SIZE_EXTRA_LARGE;
 604              		.loc 1 316 0
 605 0044 0320     		movs	r0, #3
 606              	.LVL72:
 317:lvgl\src\lv_hal/lv_hal_disp.c **** }
 607              		.loc 1 317 0
 608 0046 38BD     		pop	{r3, r4, r5, pc}
 609              		.cfi_endproc
 610              	.LFE339:
 611              		.size	lv_disp_get_size_category, .-lv_disp_get_size_category
 612              		.section	.text.lv_disp_flush_ready,"ax",%progbits
 613              		.align	2
 614              		.global	lv_disp_flush_ready
 615              		.thumb
 616              		.thumb_func
 617              		.type	lv_disp_flush_ready, %function
 618              	lv_disp_flush_ready:
 619              	.LFB340:
 318:lvgl\src\lv_hal/lv_hal_disp.c **** 
 319:lvgl\src\lv_hal/lv_hal_disp.c **** /**
 320:lvgl\src\lv_hal/lv_hal_disp.c ****  * Call in the display driver's `flush_cb` function when the flushing is finished
 321:lvgl\src\lv_hal/lv_hal_disp.c ****  * @param disp_drv pointer to display driver in `flush_cb` where this function is called
 322:lvgl\src\lv_hal/lv_hal_disp.c ****  */
ARM GAS  C:\Users\strap\AppData\Local\Temp\cclHDQsV.s 			page 18


 323:lvgl\src\lv_hal/lv_hal_disp.c **** LV_ATTRIBUTE_FLUSH_READY void lv_disp_flush_ready(lv_disp_drv_t * disp_drv)
 324:lvgl\src\lv_hal/lv_hal_disp.c **** {
 620              		.loc 1 324 0
 621              		.cfi_startproc
 622              		@ args = 0, pretend = 0, frame = 0
 623              		@ frame_needed = 0, uses_anonymous_args = 0
 624              		@ link register save eliminated.
 625              	.LVL73:
 325:lvgl\src\lv_hal/lv_hal_disp.c ****     /*If the screen is transparent initialize it when the flushing is ready*/
 326:lvgl\src\lv_hal/lv_hal_disp.c **** #if LV_COLOR_SCREEN_TRANSP
 327:lvgl\src\lv_hal/lv_hal_disp.c ****     if(disp_drv->screen_transp) {
 328:lvgl\src\lv_hal/lv_hal_disp.c ****         _lv_memset_00(disp_drv->buffer->buf_act, disp_drv->buffer->size * sizeof(lv_color32_t));
 329:lvgl\src\lv_hal/lv_hal_disp.c ****     }
 330:lvgl\src\lv_hal/lv_hal_disp.c **** #endif
 331:lvgl\src\lv_hal/lv_hal_disp.c **** 
 332:lvgl\src\lv_hal/lv_hal_disp.c ****     disp_drv->buffer->flushing = 0;
 626              		.loc 1 332 0
 627 0000 4268     		ldr	r2, [r0, #4]
 628 0002 0023     		movs	r3, #0
 629 0004 9361     		str	r3, [r2, #24]
 333:lvgl\src\lv_hal/lv_hal_disp.c ****     disp_drv->buffer->flushing_last = 0;
 630              		.loc 1 333 0
 631 0006 4268     		ldr	r2, [r0, #4]
 632 0008 D361     		str	r3, [r2, #28]
 633 000a 7047     		bx	lr
 634              		.cfi_endproc
 635              	.LFE340:
 636              		.size	lv_disp_flush_ready, .-lv_disp_flush_ready
 637              		.section	.text.lv_disp_flush_is_last,"ax",%progbits
 638              		.align	2
 639              		.global	lv_disp_flush_is_last
 640              		.thumb
 641              		.thumb_func
 642              		.type	lv_disp_flush_is_last, %function
 643              	lv_disp_flush_is_last:
 644              	.LFB341:
 334:lvgl\src\lv_hal/lv_hal_disp.c **** }
 335:lvgl\src\lv_hal/lv_hal_disp.c **** 
 336:lvgl\src\lv_hal/lv_hal_disp.c **** 
 337:lvgl\src\lv_hal/lv_hal_disp.c **** /**
 338:lvgl\src\lv_hal/lv_hal_disp.c ****  * Tell if it's the last area of the refreshing process.
 339:lvgl\src\lv_hal/lv_hal_disp.c ****  * Can be called from `flush_cb` to execute some special display refreshing if needed when all area
 340:lvgl\src\lv_hal/lv_hal_disp.c ****  * @param disp_drv pointer to display driver
 341:lvgl\src\lv_hal/lv_hal_disp.c ****  * @return true: it's the last area to flush; false: there are other areas too which will be refres
 342:lvgl\src\lv_hal/lv_hal_disp.c ****  */
 343:lvgl\src\lv_hal/lv_hal_disp.c **** LV_ATTRIBUTE_FLUSH_READY bool lv_disp_flush_is_last(lv_disp_drv_t * disp_drv)
 344:lvgl\src\lv_hal/lv_hal_disp.c **** {
 645              		.loc 1 344 0
 646              		.cfi_startproc
 647              		@ args = 0, pretend = 0, frame = 0
 648              		@ frame_needed = 0, uses_anonymous_args = 0
 649              		@ link register save eliminated.
 650              	.LVL74:
 345:lvgl\src\lv_hal/lv_hal_disp.c ****     return disp_drv->buffer->flushing_last;
 651              		.loc 1 345 0
 652 0000 4368     		ldr	r3, [r0, #4]
 653 0002 D869     		ldr	r0, [r3, #28]
ARM GAS  C:\Users\strap\AppData\Local\Temp\cclHDQsV.s 			page 19


 654              	.LVL75:
 346:lvgl\src\lv_hal/lv_hal_disp.c **** }
 655              		.loc 1 346 0
 656 0004 0030     		adds	r0, r0, #0
 657 0006 18BF     		it	ne
 658 0008 0120     		movne	r0, #1
 659 000a 7047     		bx	lr
 660              		.cfi_endproc
 661              	.LFE341:
 662              		.size	lv_disp_flush_is_last, .-lv_disp_flush_is_last
 663              		.section	.text.lv_disp_get_next,"ax",%progbits
 664              		.align	2
 665              		.global	lv_disp_get_next
 666              		.thumb
 667              		.thumb_func
 668              		.type	lv_disp_get_next, %function
 669              	lv_disp_get_next:
 670              	.LFB342:
 347:lvgl\src\lv_hal/lv_hal_disp.c **** 
 348:lvgl\src\lv_hal/lv_hal_disp.c **** /**
 349:lvgl\src\lv_hal/lv_hal_disp.c ****  * Get the next display.
 350:lvgl\src\lv_hal/lv_hal_disp.c ****  * @param disp pointer to the current display. NULL to initialize.
 351:lvgl\src\lv_hal/lv_hal_disp.c ****  * @return the next display or NULL if no more. Give the first display when the parameter is NULL
 352:lvgl\src\lv_hal/lv_hal_disp.c ****  */
 353:lvgl\src\lv_hal/lv_hal_disp.c **** lv_disp_t * lv_disp_get_next(lv_disp_t * disp)
 354:lvgl\src\lv_hal/lv_hal_disp.c **** {
 671              		.loc 1 354 0
 672              		.cfi_startproc
 673              		@ args = 0, pretend = 0, frame = 0
 674              		@ frame_needed = 0, uses_anonymous_args = 0
 675              	.LVL76:
 676 0000 08B5     		push	{r3, lr}
 677              		.cfi_def_cfa_offset 8
 678              		.cfi_offset 3, -8
 679              		.cfi_offset 14, -4
 355:lvgl\src\lv_hal/lv_hal_disp.c ****     if(disp == NULL)
 680              		.loc 1 355 0
 681 0002 18B9     		cbnz	r0, .L60
 356:lvgl\src\lv_hal/lv_hal_disp.c ****         return _lv_ll_get_head(&LV_GC_ROOT(_lv_disp_ll));
 682              		.loc 1 356 0
 683 0004 0448     		ldr	r0, .L63
 684              	.LVL77:
 685 0006 FFF7FEFF 		bl	_lv_ll_get_head
 686              	.LVL78:
 687 000a 08BD     		pop	{r3, pc}
 688              	.LVL79:
 689              	.L60:
 690 000c 0146     		mov	r1, r0
 357:lvgl\src\lv_hal/lv_hal_disp.c ****     else
 358:lvgl\src\lv_hal/lv_hal_disp.c ****         return _lv_ll_get_next(&LV_GC_ROOT(_lv_disp_ll), disp);
 691              		.loc 1 358 0
 692 000e 0248     		ldr	r0, .L63
 693              	.LVL80:
 694 0010 FFF7FEFF 		bl	_lv_ll_get_next
 695              	.LVL81:
 359:lvgl\src\lv_hal/lv_hal_disp.c **** }
 696              		.loc 1 359 0
ARM GAS  C:\Users\strap\AppData\Local\Temp\cclHDQsV.s 			page 20


 697 0014 08BD     		pop	{r3, pc}
 698              	.L64:
 699 0016 00BF     		.align	2
 700              	.L63:
 701 0018 00000000 		.word	_lv_disp_ll
 702              		.cfi_endproc
 703              	.LFE342:
 704              		.size	lv_disp_get_next, .-lv_disp_get_next
 705              		.section	.text.lv_disp_get_buf,"ax",%progbits
 706              		.align	2
 707              		.global	lv_disp_get_buf
 708              		.thumb
 709              		.thumb_func
 710              		.type	lv_disp_get_buf, %function
 711              	lv_disp_get_buf:
 712              	.LFB343:
 360:lvgl\src\lv_hal/lv_hal_disp.c **** 
 361:lvgl\src\lv_hal/lv_hal_disp.c **** /**
 362:lvgl\src\lv_hal/lv_hal_disp.c ****  * Get the internal buffer of a display
 363:lvgl\src\lv_hal/lv_hal_disp.c ****  * @param disp pointer to a display
 364:lvgl\src\lv_hal/lv_hal_disp.c ****  * @return pointer to the internal buffers
 365:lvgl\src\lv_hal/lv_hal_disp.c ****  */
 366:lvgl\src\lv_hal/lv_hal_disp.c **** lv_disp_buf_t * lv_disp_get_buf(lv_disp_t * disp)
 367:lvgl\src\lv_hal/lv_hal_disp.c **** {
 713              		.loc 1 367 0
 714              		.cfi_startproc
 715              		@ args = 0, pretend = 0, frame = 0
 716              		@ frame_needed = 0, uses_anonymous_args = 0
 717              		@ link register save eliminated.
 718              	.LVL82:
 368:lvgl\src\lv_hal/lv_hal_disp.c ****     return disp->driver.buffer;
 369:lvgl\src\lv_hal/lv_hal_disp.c **** }
 719              		.loc 1 369 0
 720 0000 4068     		ldr	r0, [r0, #4]
 721              	.LVL83:
 722 0002 7047     		bx	lr
 723              		.cfi_endproc
 724              	.LFE343:
 725              		.size	lv_disp_get_buf, .-lv_disp_get_buf
 726              		.section	.text.lv_disp_get_inv_buf_size,"ax",%progbits
 727              		.align	2
 728              		.global	lv_disp_get_inv_buf_size
 729              		.thumb
 730              		.thumb_func
 731              		.type	lv_disp_get_inv_buf_size, %function
 732              	lv_disp_get_inv_buf_size:
 733              	.LFB344:
 370:lvgl\src\lv_hal/lv_hal_disp.c **** 
 371:lvgl\src\lv_hal/lv_hal_disp.c **** /**
 372:lvgl\src\lv_hal/lv_hal_disp.c ****  * Get the number of areas in the buffer
 373:lvgl\src\lv_hal/lv_hal_disp.c ****  * @return number of invalid areas
 374:lvgl\src\lv_hal/lv_hal_disp.c ****  */
 375:lvgl\src\lv_hal/lv_hal_disp.c **** uint16_t lv_disp_get_inv_buf_size(lv_disp_t * disp)
 376:lvgl\src\lv_hal/lv_hal_disp.c **** {
 734              		.loc 1 376 0
 735              		.cfi_startproc
 736              		@ args = 0, pretend = 0, frame = 0
ARM GAS  C:\Users\strap\AppData\Local\Temp\cclHDQsV.s 			page 21


 737              		@ frame_needed = 0, uses_anonymous_args = 0
 738              		@ link register save eliminated.
 739              	.LVL84:
 377:lvgl\src\lv_hal/lv_hal_disp.c ****     return disp->inv_p;
 740              		.loc 1 377 0
 741 0000 B0F87A01 		ldrh	r0, [r0, #378]
 742              	.LVL85:
 378:lvgl\src\lv_hal/lv_hal_disp.c **** }
 743              		.loc 1 378 0
 744 0004 C0F30900 		ubfx	r0, r0, #0, #10
 745 0008 7047     		bx	lr
 746              		.cfi_endproc
 747              	.LFE344:
 748              		.size	lv_disp_get_inv_buf_size, .-lv_disp_get_inv_buf_size
 749 000a 00BF     		.section	.text._lv_disp_pop_from_inv_buf,"ax",%progbits
 750              		.align	2
 751              		.global	_lv_disp_pop_from_inv_buf
 752              		.thumb
 753              		.thumb_func
 754              		.type	_lv_disp_pop_from_inv_buf, %function
 755              	_lv_disp_pop_from_inv_buf:
 756              	.LFB345:
 379:lvgl\src\lv_hal/lv_hal_disp.c **** 
 380:lvgl\src\lv_hal/lv_hal_disp.c **** /**
 381:lvgl\src\lv_hal/lv_hal_disp.c ****  * Pop (delete) the last 'num' invalidated areas from the buffer
 382:lvgl\src\lv_hal/lv_hal_disp.c ****  * @param num number of areas to delete
 383:lvgl\src\lv_hal/lv_hal_disp.c ****  */
 384:lvgl\src\lv_hal/lv_hal_disp.c **** void _lv_disp_pop_from_inv_buf(lv_disp_t * disp, uint16_t num)
 385:lvgl\src\lv_hal/lv_hal_disp.c **** {
 757              		.loc 1 385 0
 758              		.cfi_startproc
 759              		@ args = 0, pretend = 0, frame = 0
 760              		@ frame_needed = 0, uses_anonymous_args = 0
 761              		@ link register save eliminated.
 762              	.LVL86:
 386:lvgl\src\lv_hal/lv_hal_disp.c **** 
 387:lvgl\src\lv_hal/lv_hal_disp.c ****     if(disp->inv_p < num)
 763              		.loc 1 387 0
 764 0000 B0F87A31 		ldrh	r3, [r0, #378]
 765 0004 C3F30903 		ubfx	r3, r3, #0, #10
 766 0008 8B42     		cmp	r3, r1
 767 000a 06DA     		bge	.L68
 388:lvgl\src\lv_hal/lv_hal_disp.c ****         disp->inv_p = 0;
 768              		.loc 1 388 0
 769 000c B0F87A31 		ldrh	r3, [r0, #378]
 770 0010 6FF30903 		bfc	r3, #0, #10
 771 0014 A0F87A31 		strh	r3, [r0, #378]	@ movhi
 772 0018 7047     		bx	lr
 773              	.L68:
 389:lvgl\src\lv_hal/lv_hal_disp.c ****     else
 390:lvgl\src\lv_hal/lv_hal_disp.c ****         disp->inv_p -= num;
 774              		.loc 1 390 0
 775 001a 5B1A     		subs	r3, r3, r1
 776 001c B0F87A21 		ldrh	r2, [r0, #378]
 777 0020 63F30902 		bfi	r2, r3, #0, #10
 778 0024 A0F87A21 		strh	r2, [r0, #378]	@ movhi
 779 0028 7047     		bx	lr
ARM GAS  C:\Users\strap\AppData\Local\Temp\cclHDQsV.s 			page 22


 780              		.cfi_endproc
 781              	.LFE345:
 782              		.size	_lv_disp_pop_from_inv_buf, .-_lv_disp_pop_from_inv_buf
 783 002a 00BF     		.section	.text.lv_disp_is_double_buf,"ax",%progbits
 784              		.align	2
 785              		.global	lv_disp_is_double_buf
 786              		.thumb
 787              		.thumb_func
 788              		.type	lv_disp_is_double_buf, %function
 789              	lv_disp_is_double_buf:
 790              	.LFB346:
 391:lvgl\src\lv_hal/lv_hal_disp.c **** }
 392:lvgl\src\lv_hal/lv_hal_disp.c **** 
 393:lvgl\src\lv_hal/lv_hal_disp.c **** /**
 394:lvgl\src\lv_hal/lv_hal_disp.c ****  * Check the driver configuration if it's double buffered (both `buf1` and `buf2` are set)
 395:lvgl\src\lv_hal/lv_hal_disp.c ****  * @param disp pointer to to display to check
 396:lvgl\src\lv_hal/lv_hal_disp.c ****  * @return true: double buffered; false: not double buffered
 397:lvgl\src\lv_hal/lv_hal_disp.c ****  */
 398:lvgl\src\lv_hal/lv_hal_disp.c **** bool lv_disp_is_double_buf(lv_disp_t * disp)
 399:lvgl\src\lv_hal/lv_hal_disp.c **** {
 791              		.loc 1 399 0
 792              		.cfi_startproc
 793              		@ args = 0, pretend = 0, frame = 0
 794              		@ frame_needed = 0, uses_anonymous_args = 0
 795              		@ link register save eliminated.
 796              	.LVL87:
 400:lvgl\src\lv_hal/lv_hal_disp.c ****     if(disp->driver.buffer->buf1 && disp->driver.buffer->buf2)
 797              		.loc 1 400 0
 798 0000 4368     		ldr	r3, [r0, #4]
 799 0002 1A68     		ldr	r2, [r3]
 800 0004 1AB1     		cbz	r2, .L72
 801              		.loc 1 400 0 is_stmt 0 discriminator 1
 802 0006 5B68     		ldr	r3, [r3, #4]
 803 0008 1BB9     		cbnz	r3, .L73
 401:lvgl\src\lv_hal/lv_hal_disp.c ****         return true;
 402:lvgl\src\lv_hal/lv_hal_disp.c ****     else
 403:lvgl\src\lv_hal/lv_hal_disp.c ****         return false;
 804              		.loc 1 403 0 is_stmt 1
 805 000a 0020     		movs	r0, #0
 806              	.LVL88:
 807 000c 7047     		bx	lr
 808              	.LVL89:
 809              	.L72:
 810 000e 0020     		movs	r0, #0
 811              	.LVL90:
 812 0010 7047     		bx	lr
 813              	.LVL91:
 814              	.L73:
 401:lvgl\src\lv_hal/lv_hal_disp.c ****         return true;
 815              		.loc 1 401 0
 816 0012 0120     		movs	r0, #1
 817              	.LVL92:
 404:lvgl\src\lv_hal/lv_hal_disp.c **** }
 818              		.loc 1 404 0
 819 0014 7047     		bx	lr
 820              		.cfi_endproc
 821              	.LFE346:
ARM GAS  C:\Users\strap\AppData\Local\Temp\cclHDQsV.s 			page 23


 822              		.size	lv_disp_is_double_buf, .-lv_disp_is_double_buf
 823 0016 00BF     		.section	.text.lv_disp_is_true_double_buf,"ax",%progbits
 824              		.align	2
 825              		.global	lv_disp_is_true_double_buf
 826              		.thumb
 827              		.thumb_func
 828              		.type	lv_disp_is_true_double_buf, %function
 829              	lv_disp_is_true_double_buf:
 830              	.LFB347:
 405:lvgl\src\lv_hal/lv_hal_disp.c **** 
 406:lvgl\src\lv_hal/lv_hal_disp.c **** /**
 407:lvgl\src\lv_hal/lv_hal_disp.c ****  * Check the driver configuration if it's TRUE double buffered (both `buf1` and `buf2` are set and
 408:lvgl\src\lv_hal/lv_hal_disp.c ****  * `size` is screen sized)
 409:lvgl\src\lv_hal/lv_hal_disp.c ****  * @param disp pointer to to display to check
 410:lvgl\src\lv_hal/lv_hal_disp.c ****  * @return true: double buffered; false: not double buffered
 411:lvgl\src\lv_hal/lv_hal_disp.c ****  */
 412:lvgl\src\lv_hal/lv_hal_disp.c **** bool lv_disp_is_true_double_buf(lv_disp_t * disp)
 413:lvgl\src\lv_hal/lv_hal_disp.c **** {
 831              		.loc 1 413 0
 832              		.cfi_startproc
 833              		@ args = 0, pretend = 0, frame = 0
 834              		@ frame_needed = 0, uses_anonymous_args = 0
 835              	.LVL93:
 836 0000 38B5     		push	{r3, r4, r5, lr}
 837              		.cfi_def_cfa_offset 16
 838              		.cfi_offset 3, -16
 839              		.cfi_offset 4, -12
 840              		.cfi_offset 5, -8
 841              		.cfi_offset 14, -4
 842 0002 0546     		mov	r5, r0
 414:lvgl\src\lv_hal/lv_hal_disp.c ****     uint32_t scr_size = disp->driver.hor_res * disp->driver.ver_res;
 843              		.loc 1 414 0
 844 0004 B0F90040 		ldrsh	r4, [r0]
 845 0008 B0F90230 		ldrsh	r3, [r0, #2]
 846 000c 03FB04F4 		mul	r4, r3, r4
 847              	.LVL94:
 415:lvgl\src\lv_hal/lv_hal_disp.c **** 
 416:lvgl\src\lv_hal/lv_hal_disp.c ****     if(lv_disp_is_double_buf(disp) && disp->driver.buffer->size == scr_size) {
 848              		.loc 1 416 0
 849 0010 FFF7FEFF 		bl	lv_disp_is_double_buf
 850              	.LVL95:
 851 0014 30B1     		cbz	r0, .L76
 852 0016 0346     		mov	r3, r0
 853              		.loc 1 416 0 is_stmt 0 discriminator 1
 854 0018 6A68     		ldr	r2, [r5, #4]
 855 001a D268     		ldr	r2, [r2, #12]
 856 001c 9442     		cmp	r4, r2
 857 001e 02D0     		beq	.L75
 417:lvgl\src\lv_hal/lv_hal_disp.c ****         return true;
 418:lvgl\src\lv_hal/lv_hal_disp.c ****     }
 419:lvgl\src\lv_hal/lv_hal_disp.c ****     else {
 420:lvgl\src\lv_hal/lv_hal_disp.c ****         return false;
 858              		.loc 1 420 0 is_stmt 1
 859 0020 0023     		movs	r3, #0
 860 0022 00E0     		b	.L75
 861              	.L76:
 862 0024 0023     		movs	r3, #0
ARM GAS  C:\Users\strap\AppData\Local\Temp\cclHDQsV.s 			page 24


 863              	.L75:
 421:lvgl\src\lv_hal/lv_hal_disp.c ****     }
 422:lvgl\src\lv_hal/lv_hal_disp.c **** }
 864              		.loc 1 422 0
 865 0026 1846     		mov	r0, r3
 866 0028 38BD     		pop	{r3, r4, r5, pc}
 867              		.cfi_endproc
 868              	.LFE347:
 869              		.size	lv_disp_is_true_double_buf, .-lv_disp_is_true_double_buf
 870 002a 00BF     		.section	.text.lv_disp_drv_register,"ax",%progbits
 871              		.align	2
 872              		.global	lv_disp_drv_register
 873              		.thumb
 874              		.thumb_func
 875              		.type	lv_disp_drv_register, %function
 876              	lv_disp_drv_register:
 877              	.LFB330:
 121:lvgl\src\lv_hal/lv_hal_disp.c ****     lv_disp_t * disp = _lv_ll_ins_head(&LV_GC_ROOT(_lv_disp_ll));
 878              		.loc 1 121 0
 879              		.cfi_startproc
 880              		@ args = 0, pretend = 0, frame = 0
 881              		@ frame_needed = 0, uses_anonymous_args = 0
 882              	.LVL96:
 883 0000 70B5     		push	{r4, r5, r6, lr}
 884              		.cfi_def_cfa_offset 16
 885              		.cfi_offset 4, -16
 886              		.cfi_offset 5, -12
 887              		.cfi_offset 6, -8
 888              		.cfi_offset 14, -4
 889 0002 0546     		mov	r5, r0
 122:lvgl\src\lv_hal/lv_hal_disp.c ****     if(!disp) {
 890              		.loc 1 122 0
 891 0004 3C48     		ldr	r0, .L88
 892              	.LVL97:
 893 0006 FFF7FEFF 		bl	_lv_ll_ins_head
 894              	.LVL98:
 123:lvgl\src\lv_hal/lv_hal_disp.c ****         LV_ASSERT_MEM(disp);
 895              		.loc 1 123 0
 896 000a 0446     		mov	r4, r0
 897 000c 48B9     		cbnz	r0, .L79
 124:lvgl\src\lv_hal/lv_hal_disp.c ****         return NULL;
 898              		.loc 1 124 0
 899 000e FFF7FEFF 		bl	lv_debug_check_null
 900              	.LVL99:
 901 0012 0028     		cmp	r0, #0
 902 0014 6CD1     		bne	.L85
 124:lvgl\src\lv_hal/lv_hal_disp.c ****         return NULL;
 903              		.loc 1 124 0 is_stmt 0 discriminator 1
 904 0016 2246     		mov	r2, r4
 905 0018 0023     		movs	r3, #0
 906 001a 3848     		ldr	r0, .L88+4
 907 001c FFF7FEFF 		bl	lv_debug_log_error
 908              	.LVL100:
 909              	.L81:
 910 0020 FEE7     		b	.L81
 911              	.LVL101:
 912              	.L79:
ARM GAS  C:\Users\strap\AppData\Local\Temp\cclHDQsV.s 			page 25


 128:lvgl\src\lv_hal/lv_hal_disp.c ****     _lv_memcpy(&disp->driver, driver, sizeof(lv_disp_drv_t));
 913              		.loc 1 128 0 is_stmt 1
 914 0022 4FF4C071 		mov	r1, #384
 915 0026 FFF7FEFF 		bl	_lv_memset_00
 916              	.LVL102:
 129:lvgl\src\lv_hal/lv_hal_disp.c **** 
 917              		.loc 1 129 0
 918 002a 3022     		movs	r2, #48
 919 002c 2946     		mov	r1, r5
 920 002e 2046     		mov	r0, r4
 921 0030 FFF7FEFF 		bl	_lv_memcpy
 922              	.LVL103:
 131:lvgl\src\lv_hal/lv_hal_disp.c ****     disp->last_activity_time = 0;
 923              		.loc 1 131 0
 924 0034 5021     		movs	r1, #80
 925 0036 04F13400 		add	r0, r4, #52
 926 003a FFF7FEFF 		bl	_lv_ll_init
 927              	.LVL104:
 132:lvgl\src\lv_hal/lv_hal_disp.c **** 
 928              		.loc 1 132 0
 929 003e 0023     		movs	r3, #0
 930 0040 C4F87C31 		str	r3, [r4, #380]
 134:lvgl\src\lv_hal/lv_hal_disp.c **** 
 931              		.loc 1 134 0
 932 0044 2E4B     		ldr	r3, .L88+8
 933 0046 1B68     		ldr	r3, [r3]
 934 0048 0BB9     		cbnz	r3, .L82
 134:lvgl\src\lv_hal/lv_hal_disp.c **** 
 935              		.loc 1 134 0 is_stmt 0 discriminator 1
 936 004a 2D4B     		ldr	r3, .L88+8
 937 004c 1C60     		str	r4, [r3]
 938              	.L82:
 136:lvgl\src\lv_hal/lv_hal_disp.c ****     disp_def                 = disp; /*Temporarily change the default screen to create the default 
 939              		.loc 1 136 0 is_stmt 1
 940 004e 2C4B     		ldr	r3, .L88+8
 941 0050 1E68     		ldr	r6, [r3]
 942              	.LVL105:
 137:lvgl\src\lv_hal/lv_hal_disp.c ****                                         new display*/
 943              		.loc 1 137 0
 944 0052 1C60     		str	r4, [r3]
 140:lvgl\src\lv_hal/lv_hal_disp.c ****     LV_ASSERT_MEM(disp->refr_task);
 945              		.loc 1 140 0
 946 0054 2346     		mov	r3, r4
 947 0056 0322     		movs	r2, #3
 948 0058 1E21     		movs	r1, #30
 949 005a 2A48     		ldr	r0, .L88+12
 950 005c FFF7FEFF 		bl	lv_task_create
 951              	.LVL106:
 952 0060 2063     		str	r0, [r4, #48]
 141:lvgl\src\lv_hal/lv_hal_disp.c ****     if(disp->refr_task == NULL) return NULL;
 953              		.loc 1 141 0
 954 0062 FFF7FEFF 		bl	lv_debug_check_null
 955              	.LVL107:
 956 0066 28B9     		cbnz	r0, .L83
 141:lvgl\src\lv_hal/lv_hal_disp.c ****     if(disp->refr_task == NULL) return NULL;
 957              		.loc 1 141 0 is_stmt 0 discriminator 1
 958 0068 226B     		ldr	r2, [r4, #48]
ARM GAS  C:\Users\strap\AppData\Local\Temp\cclHDQsV.s 			page 26


 959 006a 0023     		movs	r3, #0
 960 006c 2348     		ldr	r0, .L88+4
 961 006e FFF7FEFF 		bl	lv_debug_log_error
 962              	.LVL108:
 963              	.L84:
 964 0072 FEE7     		b	.L84
 965              	.L83:
 142:lvgl\src\lv_hal/lv_hal_disp.c **** 
 966              		.loc 1 142 0 is_stmt 1
 967 0074 236B     		ldr	r3, [r4, #48]
 968 0076 002B     		cmp	r3, #0
 969 0078 3CD0     		beq	.L86
 144:lvgl\src\lv_hal/lv_hal_disp.c ****     disp->last_activity_time = 0;
 970              		.loc 1 144 0
 971 007a B4F87A31 		ldrh	r3, [r4, #378]
 972 007e 6FF30903 		bfc	r3, #0, #10
 973 0082 A4F87A31 		strh	r3, [r4, #378]	@ movhi
 145:lvgl\src\lv_hal/lv_hal_disp.c **** 
 974              		.loc 1 145 0
 975 0086 0025     		movs	r5, #0
 976              	.LVL109:
 977 0088 C4F87C51 		str	r5, [r4, #380]
 147:lvgl\src\lv_hal/lv_hal_disp.c ****     disp->bg_img = NULL;
 978              		.loc 1 147 0
 979 008c 1E4B     		ldr	r3, .L88+16
 980 008e 1B88     		ldrh	r3, [r3]
 981 0090 A4F85230 		strh	r3, [r4, #82]	@ movhi
 148:lvgl\src\lv_hal/lv_hal_disp.c **** #if LV_COLOR_SCREEN_TRANSP
 982              		.loc 1 148 0
 983 0094 6565     		str	r5, [r4, #84]
 152:lvgl\src\lv_hal/lv_hal_disp.c **** #endif
 984              		.loc 1 152 0
 985 0096 FF23     		movs	r3, #255
 986 0098 84F85830 		strb	r3, [r4, #88]
 155:lvgl\src\lv_hal/lv_hal_disp.c ****     disp->act_scr   = lv_obj_create(NULL, NULL); /*Create a default screen on the display*/
 987              		.loc 1 155 0
 988 009c 6564     		str	r5, [r4, #68]
 156:lvgl\src\lv_hal/lv_hal_disp.c ****     disp->top_layer = lv_obj_create(NULL, NULL); /*Create top layer on the display*/
 989              		.loc 1 156 0
 990 009e 2946     		mov	r1, r5
 991 00a0 2846     		mov	r0, r5
 992 00a2 FFF7FEFF 		bl	lv_obj_create
 993              	.LVL110:
 994 00a6 2064     		str	r0, [r4, #64]
 157:lvgl\src\lv_hal/lv_hal_disp.c ****     disp->sys_layer = lv_obj_create(NULL, NULL); /*Create sys layer on the display*/
 995              		.loc 1 157 0
 996 00a8 2946     		mov	r1, r5
 997 00aa 2846     		mov	r0, r5
 998 00ac FFF7FEFF 		bl	lv_obj_create
 999              	.LVL111:
 1000 00b0 A064     		str	r0, [r4, #72]
 158:lvgl\src\lv_hal/lv_hal_disp.c ****     lv_obj_reset_style_list(disp->top_layer, LV_OBJ_PART_MAIN);
 1001              		.loc 1 158 0
 1002 00b2 2946     		mov	r1, r5
 1003 00b4 2846     		mov	r0, r5
 1004 00b6 FFF7FEFF 		bl	lv_obj_create
 1005              	.LVL112:
ARM GAS  C:\Users\strap\AppData\Local\Temp\cclHDQsV.s 			page 27


 1006 00ba E064     		str	r0, [r4, #76]
 159:lvgl\src\lv_hal/lv_hal_disp.c ****     lv_obj_reset_style_list(disp->sys_layer, LV_OBJ_PART_MAIN);
 1007              		.loc 1 159 0
 1008 00bc 2946     		mov	r1, r5
 1009 00be A06C     		ldr	r0, [r4, #72]
 1010 00c0 FFF7FEFF 		bl	lv_obj_reset_style_list
 1011              	.LVL113:
 160:lvgl\src\lv_hal/lv_hal_disp.c ****     lv_obj_set_click(disp->top_layer, false);
 1012              		.loc 1 160 0
 1013 00c4 2946     		mov	r1, r5
 1014 00c6 E06C     		ldr	r0, [r4, #76]
 1015 00c8 FFF7FEFF 		bl	lv_obj_reset_style_list
 1016              	.LVL114:
 161:lvgl\src\lv_hal/lv_hal_disp.c ****     lv_obj_set_click(disp->sys_layer, false);
 1017              		.loc 1 161 0
 1018 00cc 2946     		mov	r1, r5
 1019 00ce A06C     		ldr	r0, [r4, #72]
 1020 00d0 FFF7FEFF 		bl	lv_obj_set_click
 1021              	.LVL115:
 162:lvgl\src\lv_hal/lv_hal_disp.c **** 
 1022              		.loc 1 162 0
 1023 00d4 2946     		mov	r1, r5
 1024 00d6 E06C     		ldr	r0, [r4, #76]
 1025 00d8 FFF7FEFF 		bl	lv_obj_set_click
 1026              	.LVL116:
 164:lvgl\src\lv_hal/lv_hal_disp.c **** 
 1027              		.loc 1 164 0
 1028 00dc 206C     		ldr	r0, [r4, #64]
 1029 00de FFF7FEFF 		bl	lv_obj_invalidate
 1030              	.LVL117:
 166:lvgl\src\lv_hal/lv_hal_disp.c **** 
 1031              		.loc 1 166 0
 1032 00e2 074B     		ldr	r3, .L88+8
 1033 00e4 1E60     		str	r6, [r3]
 168:lvgl\src\lv_hal/lv_hal_disp.c **** 
 1034              		.loc 1 168 0
 1035 00e6 206B     		ldr	r0, [r4, #48]
 1036 00e8 FFF7FEFF 		bl	lv_task_ready
 1037              	.LVL118:
 175:lvgl\src\lv_hal/lv_hal_disp.c **** }
 1038              		.loc 1 175 0
 1039 00ec 2046     		mov	r0, r4
 1040 00ee 70BD     		pop	{r4, r5, r6, pc}
 1041              	.LVL119:
 1042              	.L85:
 125:lvgl\src\lv_hal/lv_hal_disp.c ****     }
 1043              		.loc 1 125 0
 1044 00f0 0020     		movs	r0, #0
 1045 00f2 70BD     		pop	{r4, r5, r6, pc}
 1046              	.LVL120:
 1047              	.L86:
 142:lvgl\src\lv_hal/lv_hal_disp.c **** 
 1048              		.loc 1 142 0
 1049 00f4 0020     		movs	r0, #0
 176:lvgl\src\lv_hal/lv_hal_disp.c **** 
 1050              		.loc 1 176 0
 1051 00f6 70BD     		pop	{r4, r5, r6, pc}
ARM GAS  C:\Users\strap\AppData\Local\Temp\cclHDQsV.s 			page 28


 1052              	.LVL121:
 1053              	.L89:
 1054              		.align	2
 1055              	.L88:
 1056 00f8 00000000 		.word	_lv_disp_ll
 1057 00fc 00000000 		.word	.LC1
 1058 0100 00000000 		.word	.LANCHOR0
 1059 0104 00000000 		.word	_lv_disp_refr_task
 1060 0108 00000000 		.word	.LANCHOR1
 1061              		.cfi_endproc
 1062              	.LFE330:
 1063              		.size	lv_disp_drv_register, .-lv_disp_drv_register
 1064              		.section	.rodata
 1065              		.align	2
 1066              		.set	.LANCHOR1,. + 0
 1067              	.LC0:
 1068 0000 FF       		.byte	255
 1069 0001 FF       		.byte	255
 1070              		.section	.rodata.str1.4,"aMS",%progbits,1
 1071              		.align	2
 1072              	.LC1:
 1073 0000 4F757420 		.ascii	"Out of memory\000"
 1073      6F66206D 
 1073      656D6F72 
 1073      7900
 1074              		.bss
 1075              		.align	2
 1076              		.set	.LANCHOR0,. + 0
 1077              		.type	disp_def, %object
 1078              		.size	disp_def, 4
 1079              	disp_def:
 1080 0000 00000000 		.space	4
 1081              		.text
 1082              	.Letext0:
 1083              		.file 2 "c:\\program files (x86)\\cypress\\psoc creator\\4.4\\psoc creator\\import\\gnu\\arm\\5.4.
 1084              		.file 3 "c:\\program files (x86)\\cypress\\psoc creator\\4.4\\psoc creator\\import\\gnu\\arm\\5.4.
 1085              		.file 4 "lvgl\\src\\lv_hal\\../lv_misc/../../../lv_conf.h"
 1086              		.file 5 "lvgl\\src\\lv_hal\\../lv_misc/lv_color.h"
 1087              		.file 6 "lvgl\\src\\lv_hal\\../lv_misc/lv_types.h"
 1088              		.file 7 "lvgl\\src\\lv_hal\\../lv_misc/lv_area.h"
 1089              		.file 8 "lvgl\\src\\lv_hal\\../lv_misc/lv_ll.h"
 1090              		.file 9 "lvgl\\src\\lv_hal\\../lv_misc/lv_task.h"
 1091              		.file 10 "lvgl\\src\\lv_hal\\lv_hal_disp.h"
 1092              		.file 11 "lvgl\\src\\lv_hal\\../lv_core/lv_obj.h"
 1093              		.file 12 "lvgl\\src\\lv_hal\\lv_hal_indev.h"
 1094              		.file 13 "lvgl\\src\\lv_hal\\../lv_misc/../lv_draw/../lv_core/lv_style.h"
 1095              		.file 14 "lvgl\\src\\lv_hal\\../lv_core/../lv_draw/../lv_misc/lv_bidi.h"
 1096              		.file 15 "lvgl\\src\\lv_hal\\../lv_misc/lv_mem.h"
 1097              		.file 16 "lvgl\\src\\lv_hal\\../lv_misc/../lv_draw/../lv_core/../lv_misc/lv_debug.h"
 1098              		.file 17 "lvgl\\src\\lv_hal\\../lv_misc/lv_gc.h"