ARM GAS  C:\Users\strap\AppData\Local\Temp\ccj0ynMF.s 			page 1


   1              		.syntax unified
   2              		.cpu cortex-m3
   3              		.fpu softvfp
   4              		.eabi_attribute 20, 1
   5              		.eabi_attribute 21, 1
   6              		.eabi_attribute 23, 3
   7              		.eabi_attribute 24, 1
   8              		.eabi_attribute 25, 1
   9              		.eabi_attribute 26, 1
  10              		.eabi_attribute 30, 1
  11              		.eabi_attribute 34, 1
  12              		.eabi_attribute 18, 4
  13              		.thumb
  14              		.syntax unified
  15              		.file	"lv_img_cache.c"
  16              		.text
  17              	.Ltext0:
  18              		.cfi_sections	.debug_frame
  19              		.section	.text._lv_img_cache_open,"ax",%progbits
  20              		.align	2
  21              		.global	_lv_img_cache_open
  22              		.thumb
  23              		.thumb_func
  24              		.type	_lv_img_cache_open, %function
  25              	_lv_img_cache_open:
  26              	.LFB37:
  27              		.file 1 "lvgl\\src\\lv_draw\\lv_img_cache.c"
   1:lvgl\src\lv_draw/lv_img_cache.c **** /**
   2:lvgl\src\lv_draw/lv_img_cache.c ****  * @file lv_img_cache.c
   3:lvgl\src\lv_draw/lv_img_cache.c ****  *
   4:lvgl\src\lv_draw/lv_img_cache.c ****  */
   5:lvgl\src\lv_draw/lv_img_cache.c **** 
   6:lvgl\src\lv_draw/lv_img_cache.c **** /*********************
   7:lvgl\src\lv_draw/lv_img_cache.c ****  *      INCLUDES
   8:lvgl\src\lv_draw/lv_img_cache.c ****  *********************/
   9:lvgl\src\lv_draw/lv_img_cache.c **** #include "../lv_misc/lv_debug.h"
  10:lvgl\src\lv_draw/lv_img_cache.c **** #include "lv_img_cache.h"
  11:lvgl\src\lv_draw/lv_img_cache.c **** #include "lv_img_decoder.h"
  12:lvgl\src\lv_draw/lv_img_cache.c **** #include "lv_draw_img.h"
  13:lvgl\src\lv_draw/lv_img_cache.c **** #include "../lv_hal/lv_hal_tick.h"
  14:lvgl\src\lv_draw/lv_img_cache.c **** #include "../lv_misc/lv_gc.h"
  15:lvgl\src\lv_draw/lv_img_cache.c **** 
  16:lvgl\src\lv_draw/lv_img_cache.c **** #if defined(LV_GC_INCLUDE)
  17:lvgl\src\lv_draw/lv_img_cache.c ****     #include LV_GC_INCLUDE
  18:lvgl\src\lv_draw/lv_img_cache.c **** #endif /* LV_ENABLE_GC */
  19:lvgl\src\lv_draw/lv_img_cache.c **** /*********************
  20:lvgl\src\lv_draw/lv_img_cache.c ****  *      DEFINES
  21:lvgl\src\lv_draw/lv_img_cache.c ****  *********************/
  22:lvgl\src\lv_draw/lv_img_cache.c **** /*Decrement life with this value in every open*/
  23:lvgl\src\lv_draw/lv_img_cache.c **** #define LV_IMG_CACHE_AGING 1
  24:lvgl\src\lv_draw/lv_img_cache.c **** 
  25:lvgl\src\lv_draw/lv_img_cache.c **** /*Boost life by this factor (multiply time_to_open with this value)*/
  26:lvgl\src\lv_draw/lv_img_cache.c **** #define LV_IMG_CACHE_LIFE_GAIN 1
  27:lvgl\src\lv_draw/lv_img_cache.c **** 
  28:lvgl\src\lv_draw/lv_img_cache.c **** /*Don't let life to be greater than this limit because it would require a lot of time to
  29:lvgl\src\lv_draw/lv_img_cache.c ****  * "die" from very high values */
  30:lvgl\src\lv_draw/lv_img_cache.c **** #define LV_IMG_CACHE_LIFE_LIMIT 1000
ARM GAS  C:\Users\strap\AppData\Local\Temp\ccj0ynMF.s 			page 2


  31:lvgl\src\lv_draw/lv_img_cache.c **** 
  32:lvgl\src\lv_draw/lv_img_cache.c **** #if LV_IMG_CACHE_DEF_SIZE < 1
  33:lvgl\src\lv_draw/lv_img_cache.c ****     #error "LV_IMG_CACHE_DEF_SIZE must be >= 1. See lv_conf.h"
  34:lvgl\src\lv_draw/lv_img_cache.c **** #endif
  35:lvgl\src\lv_draw/lv_img_cache.c **** 
  36:lvgl\src\lv_draw/lv_img_cache.c **** /**********************
  37:lvgl\src\lv_draw/lv_img_cache.c ****  *      TYPEDEFS
  38:lvgl\src\lv_draw/lv_img_cache.c ****  **********************/
  39:lvgl\src\lv_draw/lv_img_cache.c **** 
  40:lvgl\src\lv_draw/lv_img_cache.c **** /**********************
  41:lvgl\src\lv_draw/lv_img_cache.c ****  *  STATIC PROTOTYPES
  42:lvgl\src\lv_draw/lv_img_cache.c ****  **********************/
  43:lvgl\src\lv_draw/lv_img_cache.c **** 
  44:lvgl\src\lv_draw/lv_img_cache.c **** /**********************
  45:lvgl\src\lv_draw/lv_img_cache.c ****  *  STATIC VARIABLES
  46:lvgl\src\lv_draw/lv_img_cache.c ****  **********************/
  47:lvgl\src\lv_draw/lv_img_cache.c **** static uint16_t entry_cnt;
  48:lvgl\src\lv_draw/lv_img_cache.c **** 
  49:lvgl\src\lv_draw/lv_img_cache.c **** /**********************
  50:lvgl\src\lv_draw/lv_img_cache.c ****  *      MACROS
  51:lvgl\src\lv_draw/lv_img_cache.c ****  **********************/
  52:lvgl\src\lv_draw/lv_img_cache.c **** 
  53:lvgl\src\lv_draw/lv_img_cache.c **** /**********************
  54:lvgl\src\lv_draw/lv_img_cache.c ****  *   GLOBAL FUNCTIONS
  55:lvgl\src\lv_draw/lv_img_cache.c ****  **********************/
  56:lvgl\src\lv_draw/lv_img_cache.c **** 
  57:lvgl\src\lv_draw/lv_img_cache.c **** /**
  58:lvgl\src\lv_draw/lv_img_cache.c ****  * Open an image using the image decoder interface and cache it.
  59:lvgl\src\lv_draw/lv_img_cache.c ****  * The image will be left open meaning if the image decoder open callback allocated memory then it 
  60:lvgl\src\lv_draw/lv_img_cache.c ****  * The image is closed if a new image is opened and the new image takes its place in the cache.
  61:lvgl\src\lv_draw/lv_img_cache.c ****  * @param src source of the image. Path to file or pointer to an `lv_img_dsc_t` variable
  62:lvgl\src\lv_draw/lv_img_cache.c ****  * @param color color The color of the image with `LV_IMG_CF_ALPHA_...`
  63:lvgl\src\lv_draw/lv_img_cache.c ****  * @return pointer to the cache entry or NULL if can open the image
  64:lvgl\src\lv_draw/lv_img_cache.c ****  */
  65:lvgl\src\lv_draw/lv_img_cache.c **** lv_img_cache_entry_t * _lv_img_cache_open(const void * src, lv_color_t color)
  66:lvgl\src\lv_draw/lv_img_cache.c **** {
  28              		.loc 1 66 0
  29              		.cfi_startproc
  30              		@ args = 0, pretend = 0, frame = 0
  31              		@ frame_needed = 0, uses_anonymous_args = 0
  32              	.LVL0:
  33 0000 2DE9F041 		push	{r4, r5, r6, r7, r8, lr}
  34              		.cfi_def_cfa_offset 24
  35              		.cfi_offset 4, -24
  36              		.cfi_offset 5, -20
  37              		.cfi_offset 6, -16
  38              		.cfi_offset 7, -12
  39              		.cfi_offset 8, -8
  40              		.cfi_offset 14, -4
  67:lvgl\src\lv_draw/lv_img_cache.c ****     if(entry_cnt == 0) {
  41              		.loc 1 67 0
  42 0004 4D4B     		ldr	r3, .L27
  43 0006 1F88     		ldrh	r7, [r3]
  44 0008 002F     		cmp	r7, #0
  45 000a 00F09180 		beq	.L18
  68:lvgl\src\lv_draw/lv_img_cache.c ****         LV_LOG_WARN("lv_img_cache_open: the cache size is 0");
  69:lvgl\src\lv_draw/lv_img_cache.c ****         return NULL;
ARM GAS  C:\Users\strap\AppData\Local\Temp\ccj0ynMF.s 			page 3


  70:lvgl\src\lv_draw/lv_img_cache.c ****     }
  71:lvgl\src\lv_draw/lv_img_cache.c **** 
  72:lvgl\src\lv_draw/lv_img_cache.c ****     lv_img_cache_entry_t * cache = LV_GC_ROOT(_lv_img_cache_array);
  46              		.loc 1 72 0
  47 000e 4C4B     		ldr	r3, .L27+4
  48 0010 1E68     		ldr	r6, [r3]
  49              	.LVL1:
  73:lvgl\src\lv_draw/lv_img_cache.c **** 
  74:lvgl\src\lv_draw/lv_img_cache.c ****     /*Decrement all lifes. Make the entries older*/
  75:lvgl\src\lv_draw/lv_img_cache.c ****     uint16_t i;
  76:lvgl\src\lv_draw/lv_img_cache.c ****     for(i = 0; i < entry_cnt; i++) {
  50              		.loc 1 76 0
  51 0012 0023     		movs	r3, #0
  52 0014 0BE0     		b	.L3
  53              	.LVL2:
  54              	.L5:
  77:lvgl\src\lv_draw/lv_img_cache.c ****         if(cache[i].life > INT32_MIN + LV_IMG_CACHE_AGING) {
  55              		.loc 1 77 0
  56 0016 03EBC305 		add	r5, r3, r3, lsl #3
  57 001a AC00     		lsls	r4, r5, #2
  58 001c 3444     		add	r4, r4, r6
  59 001e 256A     		ldr	r5, [r4, #32]
  60 0020 484A     		ldr	r2, .L27+8
  61 0022 9542     		cmp	r5, r2
  62 0024 01DB     		blt	.L4
  78:lvgl\src\lv_draw/lv_img_cache.c ****             cache[i].life -= LV_IMG_CACHE_AGING;
  63              		.loc 1 78 0
  64 0026 013D     		subs	r5, r5, #1
  65 0028 2562     		str	r5, [r4, #32]
  66              	.L4:
  76:lvgl\src\lv_draw/lv_img_cache.c ****         if(cache[i].life > INT32_MIN + LV_IMG_CACHE_AGING) {
  67              		.loc 1 76 0 discriminator 2
  68 002a 0133     		adds	r3, r3, #1
  69              	.LVL3:
  70 002c 9BB2     		uxth	r3, r3
  71              	.LVL4:
  72              	.L3:
  76:lvgl\src\lv_draw/lv_img_cache.c ****         if(cache[i].life > INT32_MIN + LV_IMG_CACHE_AGING) {
  73              		.loc 1 76 0 is_stmt 0 discriminator 1
  74 002e BB42     		cmp	r3, r7
  75 0030 F1D3     		bcc	.L5
  76 0032 8846     		mov	r8, r1	@ movhi
  77 0034 0746     		mov	r7, r0
  78 0036 0024     		movs	r4, #0
  79 0038 2FE0     		b	.L6
  80              	.LVL5:
  81              	.L11:
  82              	.LBB2:
  79:lvgl\src\lv_draw/lv_img_cache.c ****         }
  80:lvgl\src\lv_draw/lv_img_cache.c ****     }
  81:lvgl\src\lv_draw/lv_img_cache.c **** 
  82:lvgl\src\lv_draw/lv_img_cache.c ****     /*Is the image cached?*/
  83:lvgl\src\lv_draw/lv_img_cache.c ****     lv_img_cache_entry_t * cached_src = NULL;
  84:lvgl\src\lv_draw/lv_img_cache.c ****     for(i = 0; i < entry_cnt; i++) {
  85:lvgl\src\lv_draw/lv_img_cache.c ****         bool match = false;
  86:lvgl\src\lv_draw/lv_img_cache.c ****         lv_img_src_t src_type = lv_img_src_get_type(cache[i].dec_dsc.src);
  83              		.loc 1 86 0 is_stmt 1
ARM GAS  C:\Users\strap\AppData\Local\Temp\ccj0ynMF.s 			page 4


  84 003a 04EBC403 		add	r3, r4, r4, lsl #3
  85 003e 9800     		lsls	r0, r3, #2
  86 0040 3518     		adds	r5, r6, r0
  87 0042 6868     		ldr	r0, [r5, #4]
  88 0044 FFF7FEFF 		bl	lv_img_src_get_type
  89              	.LVL6:
  87:lvgl\src\lv_draw/lv_img_cache.c ****         if(src_type == LV_IMG_SRC_VARIABLE) {
  90              		.loc 1 87 0
  91 0048 48B9     		cbnz	r0, .L7
  88:lvgl\src\lv_draw/lv_img_cache.c ****             if(cache[i].dec_dsc.src == src && cache[i].dec_dsc.color.full == color.full) match = tr
  92              		.loc 1 88 0
  93 004a 6B68     		ldr	r3, [r5, #4]
  94 004c BB42     		cmp	r3, r7
  95 004e 0FD1     		bne	.L19
  96              		.loc 1 88 0 is_stmt 0 discriminator 1
  97 0050 2A89     		ldrh	r2, [r5, #8]
  98 0052 1FFA88F3 		uxth	r3, r8
  99 0056 9A42     		cmp	r2, r3
 100 0058 0CD0     		beq	.L20
  85:lvgl\src\lv_draw/lv_img_cache.c ****         lv_img_src_t src_type = lv_img_src_get_type(cache[i].dec_dsc.src);
 101              		.loc 1 85 0 is_stmt 1
 102 005a 0023     		movs	r3, #0
 103 005c 0FE0     		b	.L8
 104              	.L7:
  89:lvgl\src\lv_draw/lv_img_cache.c ****         }
  90:lvgl\src\lv_draw/lv_img_cache.c ****         else if(src_type == LV_IMG_SRC_FILE) {
 105              		.loc 1 90 0
 106 005e 0128     		cmp	r0, #1
 107 0060 0AD1     		bne	.L21
  91:lvgl\src\lv_draw/lv_img_cache.c ****             if(strcmp(cache[i].dec_dsc.src, src) == 0) match = true;
 108              		.loc 1 91 0
 109 0062 3946     		mov	r1, r7
 110 0064 6868     		ldr	r0, [r5, #4]
 111              	.LVL7:
 112 0066 FFF7FEFF 		bl	strcmp
 113              	.LVL8:
 114 006a 38B1     		cbz	r0, .L22
  85:lvgl\src\lv_draw/lv_img_cache.c ****         lv_img_src_t src_type = lv_img_src_get_type(cache[i].dec_dsc.src);
 115              		.loc 1 85 0
 116 006c 0023     		movs	r3, #0
 117 006e 06E0     		b	.L8
 118              	.LVL9:
 119              	.L19:
 120 0070 0023     		movs	r3, #0
 121 0072 04E0     		b	.L8
 122              	.L20:
  88:lvgl\src\lv_draw/lv_img_cache.c ****         }
 123              		.loc 1 88 0
 124 0074 0123     		movs	r3, #1
 125 0076 02E0     		b	.L8
 126              	.L21:
  85:lvgl\src\lv_draw/lv_img_cache.c ****         lv_img_src_t src_type = lv_img_src_get_type(cache[i].dec_dsc.src);
 127              		.loc 1 85 0
 128 0078 0023     		movs	r3, #0
 129 007a 00E0     		b	.L8
 130              	.LVL10:
 131              	.L22:
ARM GAS  C:\Users\strap\AppData\Local\Temp\ccj0ynMF.s 			page 5


 132              		.loc 1 91 0
 133 007c 0123     		movs	r3, #1
 134              	.L8:
 135              	.LVL11:
  92:lvgl\src\lv_draw/lv_img_cache.c ****         }
  93:lvgl\src\lv_draw/lv_img_cache.c **** 
  94:lvgl\src\lv_draw/lv_img_cache.c ****         if(match) {
 136              		.loc 1 94 0
 137 007e 53B1     		cbz	r3, .L9
 138              	.LVL12:
  95:lvgl\src\lv_draw/lv_img_cache.c ****             /* If opened increment its life.
  96:lvgl\src\lv_draw/lv_img_cache.c ****              * Image difficult to open should live longer to keep avoid frequent their recaching.
  97:lvgl\src\lv_draw/lv_img_cache.c ****              * Therefore increase `life` with `time_to_open`*/
  98:lvgl\src\lv_draw/lv_img_cache.c ****             cached_src = &cache[i];
  99:lvgl\src\lv_draw/lv_img_cache.c ****             cached_src->life += cached_src->dec_dsc.time_to_open * LV_IMG_CACHE_LIFE_GAIN;
 139              		.loc 1 99 0
 140 0080 6A69     		ldr	r2, [r5, #20]
 141 0082 2B6A     		ldr	r3, [r5, #32]
 142              	.LVL13:
 143 0084 1344     		add	r3, r3, r2
 144 0086 2B62     		str	r3, [r5, #32]
 100:lvgl\src\lv_draw/lv_img_cache.c ****             if(cached_src->life > LV_IMG_CACHE_LIFE_LIMIT) cached_src->life = LV_IMG_CACHE_LIFE_LIM
 145              		.loc 1 100 0
 146 0088 B3F57A7F 		cmp	r3, #1000
 147 008c 0ADD     		ble	.L10
 148              		.loc 1 100 0 is_stmt 0 discriminator 1
 149 008e 4FF47A73 		mov	r3, #1000
 150 0092 2B62     		str	r3, [r5, #32]
 151 0094 06E0     		b	.L10
 152              	.LVL14:
 153              	.L9:
 154              	.LBE2:
  84:lvgl\src\lv_draw/lv_img_cache.c ****         bool match = false;
 155              		.loc 1 84 0 is_stmt 1 discriminator 2
 156 0096 0134     		adds	r4, r4, #1
 157              	.LVL15:
 158 0098 A4B2     		uxth	r4, r4
 159              	.LVL16:
 160              	.L6:
  84:lvgl\src\lv_draw/lv_img_cache.c ****         bool match = false;
 161              		.loc 1 84 0 is_stmt 0 discriminator 1
 162 009a 284B     		ldr	r3, .L27
 163 009c 1B88     		ldrh	r3, [r3]
 164 009e 9C42     		cmp	r4, r3
 165 00a0 CBD3     		bcc	.L11
  83:lvgl\src\lv_draw/lv_img_cache.c ****     for(i = 0; i < entry_cnt; i++) {
 166              		.loc 1 83 0 is_stmt 1
 167 00a2 0025     		movs	r5, #0
 168              	.L10:
 169              	.LVL17:
 101:lvgl\src\lv_draw/lv_img_cache.c ****             LV_LOG_TRACE("image draw: image found in the cache");
 102:lvgl\src\lv_draw/lv_img_cache.c ****             break;
 103:lvgl\src\lv_draw/lv_img_cache.c ****         }
 104:lvgl\src\lv_draw/lv_img_cache.c ****     }
 105:lvgl\src\lv_draw/lv_img_cache.c **** 
 106:lvgl\src\lv_draw/lv_img_cache.c ****     /*The image is not cached then cache it now*/
 107:lvgl\src\lv_draw/lv_img_cache.c ****     if(cached_src == NULL) {
ARM GAS  C:\Users\strap\AppData\Local\Temp\ccj0ynMF.s 			page 6


 170              		.loc 1 107 0
 171 00a4 75B1     		cbz	r5, .L23
 172              	.LBB3:
 173 00a6 2846     		mov	r0, r5
 174 00a8 BDE8F081 		pop	{r4, r5, r6, r7, r8, pc}
 175              	.LVL18:
 176              	.L14:
 108:lvgl\src\lv_draw/lv_img_cache.c ****         /*Find an entry to reuse. Select the entry with the least life*/
 109:lvgl\src\lv_draw/lv_img_cache.c ****         cached_src = &cache[0];
 110:lvgl\src\lv_draw/lv_img_cache.c ****         for(i = 1; i < entry_cnt; i++) {
 111:lvgl\src\lv_draw/lv_img_cache.c ****             if(cache[i].life < cached_src->life) {
 177              		.loc 1 111 0
 178 00ac 03EBC301 		add	r1, r3, r3, lsl #3
 179 00b0 8A00     		lsls	r2, r1, #2
 180 00b2 3244     		add	r2, r2, r6
 181 00b4 106A     		ldr	r0, [r2, #32]
 182 00b6 216A     		ldr	r1, [r4, #32]
 183 00b8 8842     		cmp	r0, r1
 184 00ba 00DA     		bge	.L13
 112:lvgl\src\lv_draw/lv_img_cache.c ****                 cached_src = &cache[i];
 185              		.loc 1 112 0
 186 00bc 1446     		mov	r4, r2
 187              	.LVL19:
 188              	.L13:
 110:lvgl\src\lv_draw/lv_img_cache.c ****             if(cache[i].life < cached_src->life) {
 189              		.loc 1 110 0 discriminator 2
 190 00be 0133     		adds	r3, r3, #1
 191              	.LVL20:
 192 00c0 9BB2     		uxth	r3, r3
 193              	.LVL21:
 194 00c2 01E0     		b	.L12
 195              	.LVL22:
 196              	.L23:
 197              	.LBE3:
 198 00c4 3446     		mov	r4, r6
 199              	.LVL23:
 200 00c6 0123     		movs	r3, #1
 201              	.LVL24:
 202              	.L12:
 203              	.LBB4:
 110:lvgl\src\lv_draw/lv_img_cache.c ****             if(cache[i].life < cached_src->life) {
 204              		.loc 1 110 0 is_stmt 0 discriminator 1
 205 00c8 1C4A     		ldr	r2, .L27
 206 00ca 1288     		ldrh	r2, [r2]
 207 00cc 9342     		cmp	r3, r2
 208 00ce EDD3     		bcc	.L14
 113:lvgl\src\lv_draw/lv_img_cache.c ****             }
 114:lvgl\src\lv_draw/lv_img_cache.c ****         }
 115:lvgl\src\lv_draw/lv_img_cache.c **** 
 116:lvgl\src\lv_draw/lv_img_cache.c ****         /*Close the decoder to reuse if it was opened (has a valid source)*/
 117:lvgl\src\lv_draw/lv_img_cache.c ****         if(cached_src->dec_dsc.src) {
 209              		.loc 1 117 0 is_stmt 1
 210 00d0 6368     		ldr	r3, [r4, #4]
 211              	.LVL25:
 212 00d2 13B1     		cbz	r3, .L15
 118:lvgl\src\lv_draw/lv_img_cache.c ****             lv_img_decoder_close(&cached_src->dec_dsc);
 213              		.loc 1 118 0
ARM GAS  C:\Users\strap\AppData\Local\Temp\ccj0ynMF.s 			page 7


 214 00d4 2046     		mov	r0, r4
 215 00d6 FFF7FEFF 		bl	lv_img_decoder_close
 216              	.LVL26:
 217              	.L15:
 119:lvgl\src\lv_draw/lv_img_cache.c ****             LV_LOG_INFO("image draw: cache miss, close and reuse an entry");
 120:lvgl\src\lv_draw/lv_img_cache.c ****         }
 121:lvgl\src\lv_draw/lv_img_cache.c ****         else {
 122:lvgl\src\lv_draw/lv_img_cache.c ****             LV_LOG_INFO("image draw: cache miss, cached to an empty entry");
 123:lvgl\src\lv_draw/lv_img_cache.c ****         }
 124:lvgl\src\lv_draw/lv_img_cache.c **** 
 125:lvgl\src\lv_draw/lv_img_cache.c ****         /*Open the image and measure the time to open*/
 126:lvgl\src\lv_draw/lv_img_cache.c ****         uint32_t t_start;
 127:lvgl\src\lv_draw/lv_img_cache.c ****         t_start                          = lv_tick_get();
 218              		.loc 1 127 0
 219 00da FFF7FEFF 		bl	lv_tick_get
 220              	.LVL27:
 221 00de 0546     		mov	r5, r0
 222              	.LVL28:
 128:lvgl\src\lv_draw/lv_img_cache.c ****         cached_src->dec_dsc.time_to_open = 0;
 223              		.loc 1 128 0
 224 00e0 0023     		movs	r3, #0
 225 00e2 6361     		str	r3, [r4, #20]
 129:lvgl\src\lv_draw/lv_img_cache.c ****         lv_res_t open_res                = lv_img_decoder_open(&cached_src->dec_dsc, src, color);
 226              		.loc 1 129 0
 227 00e4 4246     		mov	r2, r8	@ movhi
 228 00e6 3946     		mov	r1, r7
 229 00e8 2046     		mov	r0, r4
 230              	.LVL29:
 231 00ea FFF7FEFF 		bl	lv_img_decoder_open
 232              	.LVL30:
 130:lvgl\src\lv_draw/lv_img_cache.c ****         if(open_res == LV_RES_INV) {
 233              		.loc 1 130 0
 234 00ee 80B9     		cbnz	r0, .L16
 131:lvgl\src\lv_draw/lv_img_cache.c ****             LV_LOG_WARN("Image draw cannot open the image resource");
 132:lvgl\src\lv_draw/lv_img_cache.c ****             lv_img_decoder_close(&cached_src->dec_dsc);
 235              		.loc 1 132 0
 236 00f0 2046     		mov	r0, r4
 237              	.LVL31:
 238 00f2 FFF7FEFF 		bl	lv_img_decoder_close
 239              	.LVL32:
 133:lvgl\src\lv_draw/lv_img_cache.c ****             _lv_memset_00(&cached_src->dec_dsc, sizeof(lv_img_decoder_dsc_t));
 240              		.loc 1 133 0
 241 00f6 2021     		movs	r1, #32
 242 00f8 2046     		mov	r0, r4
 243 00fa FFF7FEFF 		bl	_lv_memset_00
 244              	.LVL33:
 134:lvgl\src\lv_draw/lv_img_cache.c ****             _lv_memset_00(cached_src, sizeof(lv_img_cache_entry_t));
 245              		.loc 1 134 0
 246 00fe 2421     		movs	r1, #36
 247 0100 2046     		mov	r0, r4
 248 0102 FFF7FEFF 		bl	_lv_memset_00
 249              	.LVL34:
 135:lvgl\src\lv_draw/lv_img_cache.c ****             cached_src->life = INT32_MIN; /*Make the empty entry very "weak" to force its use  */
 250              		.loc 1 135 0
 251 0106 4FF00043 		mov	r3, #-2147483648
 252 010a 2362     		str	r3, [r4, #32]
 136:lvgl\src\lv_draw/lv_img_cache.c ****             return NULL;
ARM GAS  C:\Users\strap\AppData\Local\Temp\ccj0ynMF.s 			page 8


 253              		.loc 1 136 0
 254 010c 0020     		movs	r0, #0
 255 010e BDE8F081 		pop	{r4, r5, r6, r7, r8, pc}
 256              	.LVL35:
 257              	.L16:
 137:lvgl\src\lv_draw/lv_img_cache.c ****         }
 138:lvgl\src\lv_draw/lv_img_cache.c **** 
 139:lvgl\src\lv_draw/lv_img_cache.c ****         cached_src->life = 0;
 258              		.loc 1 139 0
 259 0112 0023     		movs	r3, #0
 260 0114 2362     		str	r3, [r4, #32]
 140:lvgl\src\lv_draw/lv_img_cache.c **** 
 141:lvgl\src\lv_draw/lv_img_cache.c ****         /*If `time_to_open` was not set in the open function set it here*/
 142:lvgl\src\lv_draw/lv_img_cache.c ****         if(cached_src->dec_dsc.time_to_open == 0) {
 261              		.loc 1 142 0
 262 0116 6369     		ldr	r3, [r4, #20]
 263 0118 1BB9     		cbnz	r3, .L17
 143:lvgl\src\lv_draw/lv_img_cache.c ****             cached_src->dec_dsc.time_to_open = lv_tick_elaps(t_start);
 264              		.loc 1 143 0
 265 011a 2846     		mov	r0, r5
 266              	.LVL36:
 267 011c FFF7FEFF 		bl	lv_tick_elaps
 268              	.LVL37:
 269 0120 6061     		str	r0, [r4, #20]
 270              	.L17:
 144:lvgl\src\lv_draw/lv_img_cache.c ****         }
 145:lvgl\src\lv_draw/lv_img_cache.c **** 
 146:lvgl\src\lv_draw/lv_img_cache.c ****         if(cached_src->dec_dsc.time_to_open == 0) cached_src->dec_dsc.time_to_open = 1;
 271              		.loc 1 146 0
 272 0122 6369     		ldr	r3, [r4, #20]
 273 0124 3BB9     		cbnz	r3, .L25
 274              		.loc 1 146 0 is_stmt 0 discriminator 1
 275 0126 0123     		movs	r3, #1
 276 0128 6361     		str	r3, [r4, #20]
 277 012a 2046     		mov	r0, r4
 278 012c BDE8F081 		pop	{r4, r5, r6, r7, r8, pc}
 279              	.LVL38:
 280              	.L18:
 281              	.LBE4:
  69:lvgl\src\lv_draw/lv_img_cache.c ****     }
 282              		.loc 1 69 0 is_stmt 1
 283 0130 0020     		movs	r0, #0
 284              	.LVL39:
 285 0132 BDE8F081 		pop	{r4, r5, r6, r7, r8, pc}
 286              	.LVL40:
 287              	.L25:
 288              	.LBB5:
 289 0136 2046     		mov	r0, r4
 290              	.LBE5:
 147:lvgl\src\lv_draw/lv_img_cache.c ****     }
 148:lvgl\src\lv_draw/lv_img_cache.c **** 
 149:lvgl\src\lv_draw/lv_img_cache.c ****     return cached_src;
 150:lvgl\src\lv_draw/lv_img_cache.c **** }
 291              		.loc 1 150 0
 292 0138 BDE8F081 		pop	{r4, r5, r6, r7, r8, pc}
 293              	.LVL41:
 294              	.L28:
ARM GAS  C:\Users\strap\AppData\Local\Temp\ccj0ynMF.s 			page 9


 295              		.align	2
 296              	.L27:
 297 013c 00000000 		.word	.LANCHOR0
 298 0140 00000000 		.word	_lv_img_cache_array
 299 0144 02000080 		.word	-2147483646
 300              		.cfi_endproc
 301              	.LFE37:
 302              		.size	_lv_img_cache_open, .-_lv_img_cache_open
 303              		.section	.text.lv_img_cache_invalidate_src,"ax",%progbits
 304              		.align	2
 305              		.global	lv_img_cache_invalidate_src
 306              		.thumb
 307              		.thumb_func
 308              		.type	lv_img_cache_invalidate_src, %function
 309              	lv_img_cache_invalidate_src:
 310              	.LFB39:
 151:lvgl\src\lv_draw/lv_img_cache.c **** 
 152:lvgl\src\lv_draw/lv_img_cache.c **** /**
 153:lvgl\src\lv_draw/lv_img_cache.c ****  * Set the number of images to be cached.
 154:lvgl\src\lv_draw/lv_img_cache.c ****  * More cached images mean more opened image at same time which might mean more memory usage.
 155:lvgl\src\lv_draw/lv_img_cache.c ****  * E.g. if 20 PNG or JPG images are open in the RAM they consume memory while opened in the cache.
 156:lvgl\src\lv_draw/lv_img_cache.c ****  * @param new_entry_cnt number of image to cache
 157:lvgl\src\lv_draw/lv_img_cache.c ****  */
 158:lvgl\src\lv_draw/lv_img_cache.c **** void lv_img_cache_set_size(uint16_t new_entry_cnt)
 159:lvgl\src\lv_draw/lv_img_cache.c **** {
 160:lvgl\src\lv_draw/lv_img_cache.c ****     if(LV_GC_ROOT(_lv_img_cache_array) != NULL) {
 161:lvgl\src\lv_draw/lv_img_cache.c ****         /*Clean the cache before free it*/
 162:lvgl\src\lv_draw/lv_img_cache.c ****         lv_img_cache_invalidate_src(NULL);
 163:lvgl\src\lv_draw/lv_img_cache.c ****         lv_mem_free(LV_GC_ROOT(_lv_img_cache_array));
 164:lvgl\src\lv_draw/lv_img_cache.c ****     }
 165:lvgl\src\lv_draw/lv_img_cache.c **** 
 166:lvgl\src\lv_draw/lv_img_cache.c ****     /*Reallocate the cache*/
 167:lvgl\src\lv_draw/lv_img_cache.c ****     LV_GC_ROOT(_lv_img_cache_array) = lv_mem_alloc(sizeof(lv_img_cache_entry_t) * new_entry_cnt);
 168:lvgl\src\lv_draw/lv_img_cache.c ****     LV_ASSERT_MEM(LV_GC_ROOT(_lv_img_cache_array));
 169:lvgl\src\lv_draw/lv_img_cache.c ****     if(LV_GC_ROOT(_lv_img_cache_array) == NULL) {
 170:lvgl\src\lv_draw/lv_img_cache.c ****         entry_cnt = 0;
 171:lvgl\src\lv_draw/lv_img_cache.c ****         return;
 172:lvgl\src\lv_draw/lv_img_cache.c ****     }
 173:lvgl\src\lv_draw/lv_img_cache.c ****     entry_cnt = new_entry_cnt;
 174:lvgl\src\lv_draw/lv_img_cache.c **** 
 175:lvgl\src\lv_draw/lv_img_cache.c ****     /*Clean the cache*/
 176:lvgl\src\lv_draw/lv_img_cache.c ****     uint16_t i;
 177:lvgl\src\lv_draw/lv_img_cache.c ****     for(i = 0; i < entry_cnt; i++) {
 178:lvgl\src\lv_draw/lv_img_cache.c ****         _lv_memset_00(&LV_GC_ROOT(_lv_img_cache_array)[i].dec_dsc, sizeof(lv_img_decoder_dsc_t));
 179:lvgl\src\lv_draw/lv_img_cache.c ****         _lv_memset_00(&LV_GC_ROOT(_lv_img_cache_array)[i], sizeof(lv_img_cache_entry_t));
 180:lvgl\src\lv_draw/lv_img_cache.c ****     }
 181:lvgl\src\lv_draw/lv_img_cache.c **** }
 182:lvgl\src\lv_draw/lv_img_cache.c **** 
 183:lvgl\src\lv_draw/lv_img_cache.c **** /**
 184:lvgl\src\lv_draw/lv_img_cache.c ****  * Invalidate an image source in the cache.
 185:lvgl\src\lv_draw/lv_img_cache.c ****  * Useful if the image source is updated therefore it needs to be cached again.
 186:lvgl\src\lv_draw/lv_img_cache.c ****  * @param src an image source path to a file or pointer to an `lv_img_dsc_t` variable.
 187:lvgl\src\lv_draw/lv_img_cache.c ****  */
 188:lvgl\src\lv_draw/lv_img_cache.c **** void lv_img_cache_invalidate_src(const void * src)
 189:lvgl\src\lv_draw/lv_img_cache.c **** {
 311              		.loc 1 189 0
 312              		.cfi_startproc
ARM GAS  C:\Users\strap\AppData\Local\Temp\ccj0ynMF.s 			page 10


 313              		@ args = 0, pretend = 0, frame = 0
 314              		@ frame_needed = 0, uses_anonymous_args = 0
 315              	.LVL42:
 316 0000 F8B5     		push	{r3, r4, r5, r6, r7, lr}
 317              		.cfi_def_cfa_offset 24
 318              		.cfi_offset 3, -24
 319              		.cfi_offset 4, -20
 320              		.cfi_offset 5, -16
 321              		.cfi_offset 6, -12
 322              		.cfi_offset 7, -8
 323              		.cfi_offset 14, -4
 324 0002 0646     		mov	r6, r0
 190:lvgl\src\lv_draw/lv_img_cache.c **** 
 191:lvgl\src\lv_draw/lv_img_cache.c ****     lv_img_cache_entry_t * cache = LV_GC_ROOT(_lv_img_cache_array);
 325              		.loc 1 191 0
 326 0004 0F4B     		ldr	r3, .L36
 327 0006 1F68     		ldr	r7, [r3]
 328              	.LVL43:
 192:lvgl\src\lv_draw/lv_img_cache.c **** 
 193:lvgl\src\lv_draw/lv_img_cache.c ****     uint16_t i;
 194:lvgl\src\lv_draw/lv_img_cache.c ****     for(i = 0; i < entry_cnt; i++) {
 329              		.loc 1 194 0
 330 0008 0024     		movs	r4, #0
 331 000a 15E0     		b	.L30
 332              	.LVL44:
 333              	.L34:
 195:lvgl\src\lv_draw/lv_img_cache.c ****         if(cache[i].dec_dsc.src == src || src == NULL) {
 334              		.loc 1 195 0
 335 000c 04EBC403 		add	r3, r4, r4, lsl #3
 336 0010 9800     		lsls	r0, r3, #2
 337 0012 3D18     		adds	r5, r7, r0
 338 0014 6B68     		ldr	r3, [r5, #4]
 339 0016 B342     		cmp	r3, r6
 340 0018 00D0     		beq	.L31
 341              		.loc 1 195 0 is_stmt 0 discriminator 1
 342 001a 5EB9     		cbnz	r6, .L32
 343              	.L31:
 196:lvgl\src\lv_draw/lv_img_cache.c ****             if(cache[i].dec_dsc.src != NULL) {
 344              		.loc 1 196 0 is_stmt 1
 345 001c 13B1     		cbz	r3, .L33
 197:lvgl\src\lv_draw/lv_img_cache.c ****                 lv_img_decoder_close(&cache[i].dec_dsc);
 346              		.loc 1 197 0
 347 001e 2846     		mov	r0, r5
 348 0020 FFF7FEFF 		bl	lv_img_decoder_close
 349              	.LVL45:
 350              	.L33:
 198:lvgl\src\lv_draw/lv_img_cache.c ****             }
 199:lvgl\src\lv_draw/lv_img_cache.c **** 
 200:lvgl\src\lv_draw/lv_img_cache.c ****             _lv_memset_00(&cache[i].dec_dsc, sizeof(lv_img_decoder_dsc_t));
 351              		.loc 1 200 0
 352 0024 2021     		movs	r1, #32
 353 0026 2846     		mov	r0, r5
 354 0028 FFF7FEFF 		bl	_lv_memset_00
 355              	.LVL46:
 201:lvgl\src\lv_draw/lv_img_cache.c ****             _lv_memset_00(&cache[i], sizeof(lv_img_cache_entry_t));
 356              		.loc 1 201 0
 357 002c 2421     		movs	r1, #36
ARM GAS  C:\Users\strap\AppData\Local\Temp\ccj0ynMF.s 			page 11


 358 002e 2846     		mov	r0, r5
 359 0030 FFF7FEFF 		bl	_lv_memset_00
 360              	.LVL47:
 361              	.L32:
 194:lvgl\src\lv_draw/lv_img_cache.c ****         if(cache[i].dec_dsc.src == src || src == NULL) {
 362              		.loc 1 194 0 discriminator 2
 363 0034 0134     		adds	r4, r4, #1
 364              	.LVL48:
 365 0036 A4B2     		uxth	r4, r4
 366              	.LVL49:
 367              	.L30:
 194:lvgl\src\lv_draw/lv_img_cache.c ****         if(cache[i].dec_dsc.src == src || src == NULL) {
 368              		.loc 1 194 0 is_stmt 0 discriminator 1
 369 0038 034B     		ldr	r3, .L36+4
 370 003a 1B88     		ldrh	r3, [r3]
 371 003c 9C42     		cmp	r4, r3
 372 003e E5D3     		bcc	.L34
 202:lvgl\src\lv_draw/lv_img_cache.c ****         }
 203:lvgl\src\lv_draw/lv_img_cache.c ****     }
 204:lvgl\src\lv_draw/lv_img_cache.c **** }
 373              		.loc 1 204 0 is_stmt 1
 374 0040 F8BD     		pop	{r3, r4, r5, r6, r7, pc}
 375              	.LVL50:
 376              	.L37:
 377 0042 00BF     		.align	2
 378              	.L36:
 379 0044 00000000 		.word	_lv_img_cache_array
 380 0048 00000000 		.word	.LANCHOR0
 381              		.cfi_endproc
 382              	.LFE39:
 383              		.size	lv_img_cache_invalidate_src, .-lv_img_cache_invalidate_src
 384              		.section	.text.lv_img_cache_set_size,"ax",%progbits
 385              		.align	2
 386              		.global	lv_img_cache_set_size
 387              		.thumb
 388              		.thumb_func
 389              		.type	lv_img_cache_set_size, %function
 390              	lv_img_cache_set_size:
 391              	.LFB38:
 159:lvgl\src\lv_draw/lv_img_cache.c ****     if(LV_GC_ROOT(_lv_img_cache_array) != NULL) {
 392              		.loc 1 159 0
 393              		.cfi_startproc
 394              		@ args = 0, pretend = 0, frame = 0
 395              		@ frame_needed = 0, uses_anonymous_args = 0
 396              	.LVL51:
 397 0000 70B5     		push	{r4, r5, r6, lr}
 398              		.cfi_def_cfa_offset 16
 399              		.cfi_offset 4, -16
 400              		.cfi_offset 5, -12
 401              		.cfi_offset 6, -8
 402              		.cfi_offset 14, -4
 403 0002 0446     		mov	r4, r0
 160:lvgl\src\lv_draw/lv_img_cache.c ****         /*Clean the cache before free it*/
 404              		.loc 1 160 0
 405 0004 1D4B     		ldr	r3, .L47
 406 0006 1B68     		ldr	r3, [r3]
 407 0008 33B1     		cbz	r3, .L39
ARM GAS  C:\Users\strap\AppData\Local\Temp\ccj0ynMF.s 			page 12


 162:lvgl\src\lv_draw/lv_img_cache.c ****         lv_mem_free(LV_GC_ROOT(_lv_img_cache_array));
 408              		.loc 1 162 0
 409 000a 0020     		movs	r0, #0
 410              	.LVL52:
 411 000c FFF7FEFF 		bl	lv_img_cache_invalidate_src
 412              	.LVL53:
 163:lvgl\src\lv_draw/lv_img_cache.c ****     }
 413              		.loc 1 163 0
 414 0010 1A4B     		ldr	r3, .L47
 415 0012 1868     		ldr	r0, [r3]
 416 0014 FFF7FEFF 		bl	lv_mem_free
 417              	.LVL54:
 418              	.L39:
 167:lvgl\src\lv_draw/lv_img_cache.c ****     LV_ASSERT_MEM(LV_GC_ROOT(_lv_img_cache_array));
 419              		.loc 1 167 0
 420 0018 04EBC403 		add	r3, r4, r4, lsl #3
 421 001c 9800     		lsls	r0, r3, #2
 422 001e FFF7FEFF 		bl	lv_mem_alloc
 423              	.LVL55:
 424 0022 164B     		ldr	r3, .L47
 425 0024 1860     		str	r0, [r3]
 168:lvgl\src\lv_draw/lv_img_cache.c ****     if(LV_GC_ROOT(_lv_img_cache_array) == NULL) {
 426              		.loc 1 168 0
 427 0026 FFF7FEFF 		bl	lv_debug_check_null
 428              	.LVL56:
 429 002a 30B9     		cbnz	r0, .L40
 168:lvgl\src\lv_draw/lv_img_cache.c ****     if(LV_GC_ROOT(_lv_img_cache_array) == NULL) {
 430              		.loc 1 168 0 is_stmt 0 discriminator 1
 431 002c 134B     		ldr	r3, .L47
 432 002e 1A68     		ldr	r2, [r3]
 433 0030 0023     		movs	r3, #0
 434 0032 1348     		ldr	r0, .L47+4
 435 0034 FFF7FEFF 		bl	lv_debug_log_error
 436              	.LVL57:
 437              	.L41:
 438 0038 FEE7     		b	.L41
 439              	.L40:
 169:lvgl\src\lv_draw/lv_img_cache.c ****         entry_cnt = 0;
 440              		.loc 1 169 0 is_stmt 1
 441 003a 104B     		ldr	r3, .L47
 442 003c 1B68     		ldr	r3, [r3]
 443 003e 1BB9     		cbnz	r3, .L42
 170:lvgl\src\lv_draw/lv_img_cache.c ****         return;
 444              		.loc 1 170 0
 445 0040 0022     		movs	r2, #0
 446 0042 104B     		ldr	r3, .L47+8
 447 0044 1A80     		strh	r2, [r3]	@ movhi
 171:lvgl\src\lv_draw/lv_img_cache.c ****     }
 448              		.loc 1 171 0
 449 0046 70BD     		pop	{r4, r5, r6, pc}
 450              	.L42:
 173:lvgl\src\lv_draw/lv_img_cache.c **** 
 451              		.loc 1 173 0
 452 0048 0E4B     		ldr	r3, .L47+8
 453 004a 1C80     		strh	r4, [r3]	@ movhi
 454              	.LVL58:
 177:lvgl\src\lv_draw/lv_img_cache.c ****         _lv_memset_00(&LV_GC_ROOT(_lv_img_cache_array)[i].dec_dsc, sizeof(lv_img_decoder_dsc_t));
ARM GAS  C:\Users\strap\AppData\Local\Temp\ccj0ynMF.s 			page 13


 455              		.loc 1 177 0
 456 004c 0024     		movs	r4, #0
 457 004e 0FE0     		b	.L44
 458              	.LVL59:
 459              	.L45:
 178:lvgl\src\lv_draw/lv_img_cache.c ****         _lv_memset_00(&LV_GC_ROOT(_lv_img_cache_array)[i], sizeof(lv_img_cache_entry_t));
 460              		.loc 1 178 0 discriminator 3
 461 0050 04EBC403 		add	r3, r4, r4, lsl #3
 462 0054 9D00     		lsls	r5, r3, #2
 463 0056 094E     		ldr	r6, .L47
 464 0058 3068     		ldr	r0, [r6]
 465 005a 2021     		movs	r1, #32
 466 005c 2844     		add	r0, r0, r5
 467 005e FFF7FEFF 		bl	_lv_memset_00
 468              	.LVL60:
 179:lvgl\src\lv_draw/lv_img_cache.c ****     }
 469              		.loc 1 179 0 discriminator 3
 470 0062 3068     		ldr	r0, [r6]
 471 0064 2421     		movs	r1, #36
 472 0066 2844     		add	r0, r0, r5
 473 0068 FFF7FEFF 		bl	_lv_memset_00
 474              	.LVL61:
 177:lvgl\src\lv_draw/lv_img_cache.c ****         _lv_memset_00(&LV_GC_ROOT(_lv_img_cache_array)[i].dec_dsc, sizeof(lv_img_decoder_dsc_t));
 475              		.loc 1 177 0 discriminator 3
 476 006c 0134     		adds	r4, r4, #1
 477              	.LVL62:
 478 006e A4B2     		uxth	r4, r4
 479              	.LVL63:
 480              	.L44:
 177:lvgl\src\lv_draw/lv_img_cache.c ****         _lv_memset_00(&LV_GC_ROOT(_lv_img_cache_array)[i].dec_dsc, sizeof(lv_img_decoder_dsc_t));
 481              		.loc 1 177 0 is_stmt 0 discriminator 1
 482 0070 044B     		ldr	r3, .L47+8
 483 0072 1B88     		ldrh	r3, [r3]
 484 0074 9C42     		cmp	r4, r3
 485 0076 EBD3     		bcc	.L45
 486 0078 70BD     		pop	{r4, r5, r6, pc}
 487              	.LVL64:
 488              	.L48:
 489 007a 00BF     		.align	2
 490              	.L47:
 491 007c 00000000 		.word	_lv_img_cache_array
 492 0080 00000000 		.word	.LC0
 493 0084 00000000 		.word	.LANCHOR0
 494              		.cfi_endproc
 495              	.LFE38:
 496              		.size	lv_img_cache_set_size, .-lv_img_cache_set_size
 497              		.section	.rodata.str1.4,"aMS",%progbits,1
 498              		.align	2
 499              	.LC0:
 500 0000 4F757420 		.ascii	"Out of memory\000"
 500      6F66206D 
 500      656D6F72 
 500      7900
 501              		.bss
 502              		.align	1
 503              		.set	.LANCHOR0,. + 0
 504              		.type	entry_cnt, %object
ARM GAS  C:\Users\strap\AppData\Local\Temp\ccj0ynMF.s 			page 14


 505              		.size	entry_cnt, 2
 506              	entry_cnt:
 507 0000 0000     		.space	2
 508              		.text
 509              	.Letext0:
 510              		.file 2 "c:\\program files (x86)\\cypress\\psoc creator\\4.4\\psoc creator\\import\\gnu\\arm\\5.4.
 511              		.file 3 "c:\\program files (x86)\\cypress\\psoc creator\\4.4\\psoc creator\\import\\gnu\\arm\\5.4.
 512              		.file 4 "lvgl\\src\\lv_draw\\../lv_misc/../../../lv_conf.h"
 513              		.file 5 "lvgl\\src\\lv_draw\\../lv_misc/lv_color.h"
 514              		.file 6 "lvgl\\src\\lv_draw\\../lv_misc/lv_types.h"
 515              		.file 7 "lvgl\\src\\lv_draw\\lv_img_buf.h"
 516              		.file 8 "lvgl\\src\\lv_draw\\lv_img_decoder.h"
 517              		.file 9 "lvgl\\src\\lv_draw\\lv_img_cache.h"
 518              		.file 10 "lvgl\\src\\lv_draw\\lv_draw_img.h"
 519              		.file 11 "c:\\program files (x86)\\cypress\\psoc creator\\4.4\\psoc creator\\import\\gnu\\arm\\5.4
 520              		.file 12 "lvgl\\src\\lv_draw\\../lv_hal/lv_hal_tick.h"
 521              		.file 13 "lvgl\\src\\lv_draw\\../lv_misc/lv_mem.h"
 522              		.file 14 "lvgl\\src\\lv_draw\\../lv_misc/lv_debug.h"
 523              		.file 15 "lvgl\\src\\lv_draw\\../lv_misc/lv_gc.h"