ARM GAS  C:\Users\strap\AppData\Local\Temp\ccvWLEyq.s 			page 1


   1              		.syntax unified
   2              		.cpu cortex-m3
   3              		.fpu softvfp
   4              		.eabi_attribute 20, 1
   5              		.eabi_attribute 21, 1
   6              		.eabi_attribute 23, 3
   7              		.eabi_attribute 24, 1
   8              		.eabi_attribute 25, 1
   9              		.eabi_attribute 26, 1
  10              		.eabi_attribute 30, 1
  11              		.eabi_attribute 34, 1
  12              		.eabi_attribute 18, 4
  13              		.thumb
  14              		.syntax unified
  15              		.file	"lv_img_buf.c"
  16              		.text
  17              	.Ltext0:
  18              		.cfi_sections	.debug_frame
  19              		.section	.text.lv_img_buf_get_px_color,"ax",%progbits
  20              		.align	2
  21              		.global	lv_img_buf_get_px_color
  22              		.thumb
  23              		.thumb_func
  24              		.type	lv_img_buf_get_px_color, %function
  25              	lv_img_buf_get_px_color:
  26              	.LFB37:
  27              		.file 1 "lvgl\\src\\lv_draw\\lv_img_buf.c"
   1:lvgl\src\lv_draw/lv_img_buf.c **** /**
   2:lvgl\src\lv_draw/lv_img_buf.c ****  * @file lv_img_buf.c
   3:lvgl\src\lv_draw/lv_img_buf.c ****  *
   4:lvgl\src\lv_draw/lv_img_buf.c ****  */
   5:lvgl\src\lv_draw/lv_img_buf.c **** 
   6:lvgl\src\lv_draw/lv_img_buf.c **** /*********************
   7:lvgl\src\lv_draw/lv_img_buf.c ****  *      INCLUDES
   8:lvgl\src\lv_draw/lv_img_buf.c ****  *********************/
   9:lvgl\src\lv_draw/lv_img_buf.c **** #include <stddef.h>
  10:lvgl\src\lv_draw/lv_img_buf.c **** #include <string.h>
  11:lvgl\src\lv_draw/lv_img_buf.c **** #include "lv_img_buf.h"
  12:lvgl\src\lv_draw/lv_img_buf.c **** #include "lv_draw_img.h"
  13:lvgl\src\lv_draw/lv_img_buf.c **** #include "../lv_misc/lv_math.h"
  14:lvgl\src\lv_draw/lv_img_buf.c **** #include "../lv_misc/lv_log.h"
  15:lvgl\src\lv_draw/lv_img_buf.c **** #include "../lv_misc/lv_mem.h"
  16:lvgl\src\lv_draw/lv_img_buf.c **** 
  17:lvgl\src\lv_draw/lv_img_buf.c **** /*********************
  18:lvgl\src\lv_draw/lv_img_buf.c ****  *      DEFINES
  19:lvgl\src\lv_draw/lv_img_buf.c ****  *********************/
  20:lvgl\src\lv_draw/lv_img_buf.c **** 
  21:lvgl\src\lv_draw/lv_img_buf.c **** /**********************
  22:lvgl\src\lv_draw/lv_img_buf.c ****  *      TYPEDEFS
  23:lvgl\src\lv_draw/lv_img_buf.c ****  **********************/
  24:lvgl\src\lv_draw/lv_img_buf.c **** 
  25:lvgl\src\lv_draw/lv_img_buf.c **** /**********************
  26:lvgl\src\lv_draw/lv_img_buf.c ****  *  STATIC PROTOTYPES
  27:lvgl\src\lv_draw/lv_img_buf.c ****  **********************/
  28:lvgl\src\lv_draw/lv_img_buf.c **** 
  29:lvgl\src\lv_draw/lv_img_buf.c **** /**********************
  30:lvgl\src\lv_draw/lv_img_buf.c ****  *  STATIC VARIABLES
ARM GAS  C:\Users\strap\AppData\Local\Temp\ccvWLEyq.s 			page 2


  31:lvgl\src\lv_draw/lv_img_buf.c ****  **********************/
  32:lvgl\src\lv_draw/lv_img_buf.c **** 
  33:lvgl\src\lv_draw/lv_img_buf.c **** /**********************
  34:lvgl\src\lv_draw/lv_img_buf.c ****  *      MACROS
  35:lvgl\src\lv_draw/lv_img_buf.c ****  **********************/
  36:lvgl\src\lv_draw/lv_img_buf.c **** 
  37:lvgl\src\lv_draw/lv_img_buf.c **** /**********************
  38:lvgl\src\lv_draw/lv_img_buf.c ****  *   GLOBAL FUNCTIONS
  39:lvgl\src\lv_draw/lv_img_buf.c ****  **********************/
  40:lvgl\src\lv_draw/lv_img_buf.c **** 
  41:lvgl\src\lv_draw/lv_img_buf.c **** 
  42:lvgl\src\lv_draw/lv_img_buf.c **** /**
  43:lvgl\src\lv_draw/lv_img_buf.c ****  * Get the color of an image's pixel
  44:lvgl\src\lv_draw/lv_img_buf.c ****  * @param dsc an image descriptor
  45:lvgl\src\lv_draw/lv_img_buf.c ****  * @param x x coordinate of the point to get
  46:lvgl\src\lv_draw/lv_img_buf.c ****  * @param y x coordinate of the point to get
  47:lvgl\src\lv_draw/lv_img_buf.c ****  * @param color the color of the image. In case of `LV_IMG_CF_ALPHA_1/2/4/8` this color is used.
  48:lvgl\src\lv_draw/lv_img_buf.c ****  * Not used in other cases.
  49:lvgl\src\lv_draw/lv_img_buf.c ****  * @param safe true: check out of bounds
  50:lvgl\src\lv_draw/lv_img_buf.c ****  * @return color of the point
  51:lvgl\src\lv_draw/lv_img_buf.c ****  */
  52:lvgl\src\lv_draw/lv_img_buf.c **** lv_color_t lv_img_buf_get_px_color(lv_img_dsc_t * dsc, lv_coord_t x, lv_coord_t y, lv_color_t color
  53:lvgl\src\lv_draw/lv_img_buf.c **** {
  28              		.loc 1 53 0
  29              		.cfi_startproc
  30              		@ args = 0, pretend = 0, frame = 8
  31              		@ frame_needed = 0, uses_anonymous_args = 0
  32              	.LVL0:
  33 0000 F0B5     		push	{r4, r5, r6, r7, lr}
  34              		.cfi_def_cfa_offset 20
  35              		.cfi_offset 4, -20
  36              		.cfi_offset 5, -16
  37              		.cfi_offset 6, -12
  38              		.cfi_offset 7, -8
  39              		.cfi_offset 14, -4
  40 0002 83B0     		sub	sp, sp, #12
  41              		.cfi_def_cfa_offset 32
  54:lvgl\src\lv_draw/lv_img_buf.c ****     lv_color_t p_color = LV_COLOR_BLACK;
  42              		.loc 1 54 0
  43 0004 0024     		movs	r4, #0
  44 0006 ADF80440 		strh	r4, [sp, #4]	@ movhi
  55:lvgl\src\lv_draw/lv_img_buf.c ****     uint8_t * buf_u8 = (uint8_t *)dsc->data;
  45              		.loc 1 55 0
  46 000a 8568     		ldr	r5, [r0, #8]
  47              	.LVL1:
  56:lvgl\src\lv_draw/lv_img_buf.c **** 
  57:lvgl\src\lv_draw/lv_img_buf.c ****     if(dsc->header.cf == LV_IMG_CF_TRUE_COLOR || dsc->header.cf == LV_IMG_CF_TRUE_COLOR_CHROMA_KEYE
  48              		.loc 1 57 0
  49 000c 0478     		ldrb	r4, [r0]	@ zero_extendqisi2
  50 000e 04F01F04 		and	r4, r4, #31
  51 0012 042C     		cmp	r4, #4
  52 0014 03D0     		beq	.L2
  53              		.loc 1 57 0 is_stmt 0 discriminator 1
  54 0016 062C     		cmp	r4, #6
  55 0018 01D0     		beq	.L2
  56              		.loc 1 57 0 discriminator 2
  57 001a 052C     		cmp	r4, #5
ARM GAS  C:\Users\strap\AppData\Local\Temp\ccvWLEyq.s 			page 3


  58 001c 1BD1     		bne	.L3
  59              	.L2:
  60 001e 1646     		mov	r6, r2
  61 0020 0F46     		mov	r7, r1
  62 0022 0446     		mov	r4, r0
  63              	.LBB30:
  58:lvgl\src\lv_draw/lv_img_buf.c ****        dsc->header.cf == LV_IMG_CF_TRUE_COLOR_ALPHA) {
  59:lvgl\src\lv_draw/lv_img_buf.c ****         uint8_t px_size = lv_img_cf_get_px_size(dsc->header.cf) >> 3;
  64              		.loc 1 59 0 is_stmt 1
  65 0024 0078     		ldrb	r0, [r0]	@ zero_extendqisi2
  66              	.LVL2:
  67 0026 00F01F00 		and	r0, r0, #31
  68 002a FFF7FEFF 		bl	lv_img_cf_get_px_size
  69              	.LVL3:
  70 002e C0F3C700 		ubfx	r0, r0, #3, #8
  71              	.LVL4:
  60:lvgl\src\lv_draw/lv_img_buf.c ****         uint32_t px     = dsc->header.w * y * px_size + x * px_size;
  72              		.loc 1 60 0
  73 0032 2368     		ldr	r3, [r4]
  74 0034 C3F38A23 		ubfx	r3, r3, #10, #11
  75 0038 06FB0372 		mla	r2, r6, r3, r7
  76              	.LVL5:
  61:lvgl\src\lv_draw/lv_img_buf.c ****         _lv_memcpy_small(&p_color, &buf_u8[px], sizeof(lv_color_t));
  77              		.loc 1 61 0
  78 003c 00FB0250 		mla	r0, r0, r2, r5
  79              	.LVL6:
  80              	.LBB31:
  81              	.LBB32:
  82              		.file 2 "lvgl\\src\\lv_draw\\../lv_misc/lv_mem.h"
   1:lvgl\src\lv_draw\../lv_misc/lv_mem.h **** /**
   2:lvgl\src\lv_draw\../lv_misc/lv_mem.h ****  * @file lv_mem.h
   3:lvgl\src\lv_draw\../lv_misc/lv_mem.h ****  *
   4:lvgl\src\lv_draw\../lv_misc/lv_mem.h ****  */
   5:lvgl\src\lv_draw\../lv_misc/lv_mem.h **** 
   6:lvgl\src\lv_draw\../lv_misc/lv_mem.h **** #ifndef LV_MEM_H
   7:lvgl\src\lv_draw\../lv_misc/lv_mem.h **** #define LV_MEM_H
   8:lvgl\src\lv_draw\../lv_misc/lv_mem.h **** 
   9:lvgl\src\lv_draw\../lv_misc/lv_mem.h **** #ifdef __cplusplus
  10:lvgl\src\lv_draw\../lv_misc/lv_mem.h **** extern "C" {
  11:lvgl\src\lv_draw\../lv_misc/lv_mem.h **** #endif
  12:lvgl\src\lv_draw\../lv_misc/lv_mem.h **** 
  13:lvgl\src\lv_draw\../lv_misc/lv_mem.h **** /*********************
  14:lvgl\src\lv_draw\../lv_misc/lv_mem.h ****  *      INCLUDES
  15:lvgl\src\lv_draw\../lv_misc/lv_mem.h ****  *********************/
  16:lvgl\src\lv_draw\../lv_misc/lv_mem.h **** #include "../lv_conf_internal.h"
  17:lvgl\src\lv_draw\../lv_misc/lv_mem.h **** 
  18:lvgl\src\lv_draw\../lv_misc/lv_mem.h **** #include <stdint.h>
  19:lvgl\src\lv_draw\../lv_misc/lv_mem.h **** #include <stddef.h>
  20:lvgl\src\lv_draw\../lv_misc/lv_mem.h **** #include "lv_log.h"
  21:lvgl\src\lv_draw\../lv_misc/lv_mem.h **** #include "lv_types.h"
  22:lvgl\src\lv_draw\../lv_misc/lv_mem.h **** 
  23:lvgl\src\lv_draw\../lv_misc/lv_mem.h **** #if LV_MEMCPY_MEMSET_STD
  24:lvgl\src\lv_draw\../lv_misc/lv_mem.h **** #include <string.h>
  25:lvgl\src\lv_draw\../lv_misc/lv_mem.h **** #endif
  26:lvgl\src\lv_draw\../lv_misc/lv_mem.h **** 
  27:lvgl\src\lv_draw\../lv_misc/lv_mem.h **** /*********************
  28:lvgl\src\lv_draw\../lv_misc/lv_mem.h ****  *      DEFINES
ARM GAS  C:\Users\strap\AppData\Local\Temp\ccvWLEyq.s 			page 4


  29:lvgl\src\lv_draw\../lv_misc/lv_mem.h ****  *********************/
  30:lvgl\src\lv_draw\../lv_misc/lv_mem.h **** 
  31:lvgl\src\lv_draw\../lv_misc/lv_mem.h **** #ifndef LV_MEM_BUF_MAX_NUM
  32:lvgl\src\lv_draw\../lv_misc/lv_mem.h **** #define LV_MEM_BUF_MAX_NUM    16
  33:lvgl\src\lv_draw\../lv_misc/lv_mem.h **** #endif
  34:lvgl\src\lv_draw\../lv_misc/lv_mem.h **** 
  35:lvgl\src\lv_draw\../lv_misc/lv_mem.h **** /**********************
  36:lvgl\src\lv_draw\../lv_misc/lv_mem.h ****  *      TYPEDEFS
  37:lvgl\src\lv_draw\../lv_misc/lv_mem.h ****  **********************/
  38:lvgl\src\lv_draw\../lv_misc/lv_mem.h **** 
  39:lvgl\src\lv_draw\../lv_misc/lv_mem.h **** /**
  40:lvgl\src\lv_draw\../lv_misc/lv_mem.h ****  * Heap information structure.
  41:lvgl\src\lv_draw\../lv_misc/lv_mem.h ****  */
  42:lvgl\src\lv_draw\../lv_misc/lv_mem.h **** typedef struct {
  43:lvgl\src\lv_draw\../lv_misc/lv_mem.h ****     uint32_t total_size; /**< Total heap size */
  44:lvgl\src\lv_draw\../lv_misc/lv_mem.h ****     uint32_t free_cnt;
  45:lvgl\src\lv_draw\../lv_misc/lv_mem.h ****     uint32_t free_size; /**< Size of available memory */
  46:lvgl\src\lv_draw\../lv_misc/lv_mem.h ****     uint32_t free_biggest_size;
  47:lvgl\src\lv_draw\../lv_misc/lv_mem.h ****     uint32_t used_cnt;
  48:lvgl\src\lv_draw\../lv_misc/lv_mem.h ****     uint32_t max_used; /**< Max size of Heap memory used */
  49:lvgl\src\lv_draw\../lv_misc/lv_mem.h ****     uint8_t used_pct; /**< Percentage used */
  50:lvgl\src\lv_draw\../lv_misc/lv_mem.h ****     uint8_t frag_pct; /**< Amount of fragmentation */
  51:lvgl\src\lv_draw\../lv_misc/lv_mem.h **** } lv_mem_monitor_t;
  52:lvgl\src\lv_draw\../lv_misc/lv_mem.h **** 
  53:lvgl\src\lv_draw\../lv_misc/lv_mem.h **** typedef struct {
  54:lvgl\src\lv_draw\../lv_misc/lv_mem.h ****     void * p;
  55:lvgl\src\lv_draw\../lv_misc/lv_mem.h ****     uint16_t size;
  56:lvgl\src\lv_draw\../lv_misc/lv_mem.h ****     uint8_t used    : 1;
  57:lvgl\src\lv_draw\../lv_misc/lv_mem.h **** } lv_mem_buf_t;
  58:lvgl\src\lv_draw\../lv_misc/lv_mem.h **** 
  59:lvgl\src\lv_draw\../lv_misc/lv_mem.h **** typedef lv_mem_buf_t lv_mem_buf_arr_t[LV_MEM_BUF_MAX_NUM];
  60:lvgl\src\lv_draw\../lv_misc/lv_mem.h **** extern lv_mem_buf_arr_t _lv_mem_buf;
  61:lvgl\src\lv_draw\../lv_misc/lv_mem.h **** 
  62:lvgl\src\lv_draw\../lv_misc/lv_mem.h **** /**********************
  63:lvgl\src\lv_draw\../lv_misc/lv_mem.h ****  * GLOBAL PROTOTYPES
  64:lvgl\src\lv_draw\../lv_misc/lv_mem.h ****  **********************/
  65:lvgl\src\lv_draw\../lv_misc/lv_mem.h **** 
  66:lvgl\src\lv_draw\../lv_misc/lv_mem.h **** /**
  67:lvgl\src\lv_draw\../lv_misc/lv_mem.h ****  * Initialize the dyn_mem module (work memory and other variables)
  68:lvgl\src\lv_draw\../lv_misc/lv_mem.h ****  */
  69:lvgl\src\lv_draw\../lv_misc/lv_mem.h **** void _lv_mem_init(void);
  70:lvgl\src\lv_draw\../lv_misc/lv_mem.h **** 
  71:lvgl\src\lv_draw\../lv_misc/lv_mem.h **** /**
  72:lvgl\src\lv_draw\../lv_misc/lv_mem.h ****  * Clean up the memory buffer which frees all the allocated memories.
  73:lvgl\src\lv_draw\../lv_misc/lv_mem.h ****  * @note It work only if `LV_MEM_CUSTOM == 0`
  74:lvgl\src\lv_draw\../lv_misc/lv_mem.h ****  */
  75:lvgl\src\lv_draw\../lv_misc/lv_mem.h **** void _lv_mem_deinit(void);
  76:lvgl\src\lv_draw\../lv_misc/lv_mem.h **** 
  77:lvgl\src\lv_draw\../lv_misc/lv_mem.h **** /**
  78:lvgl\src\lv_draw\../lv_misc/lv_mem.h ****  * Allocate a memory dynamically
  79:lvgl\src\lv_draw\../lv_misc/lv_mem.h ****  * @param size size of the memory to allocate in bytes
  80:lvgl\src\lv_draw\../lv_misc/lv_mem.h ****  * @return pointer to the allocated memory
  81:lvgl\src\lv_draw\../lv_misc/lv_mem.h ****  */
  82:lvgl\src\lv_draw\../lv_misc/lv_mem.h **** void * lv_mem_alloc(size_t size);
  83:lvgl\src\lv_draw\../lv_misc/lv_mem.h **** 
  84:lvgl\src\lv_draw\../lv_misc/lv_mem.h **** /**
  85:lvgl\src\lv_draw\../lv_misc/lv_mem.h ****  * Free an allocated data
ARM GAS  C:\Users\strap\AppData\Local\Temp\ccvWLEyq.s 			page 5


  86:lvgl\src\lv_draw\../lv_misc/lv_mem.h ****  * @param data pointer to an allocated memory
  87:lvgl\src\lv_draw\../lv_misc/lv_mem.h ****  */
  88:lvgl\src\lv_draw\../lv_misc/lv_mem.h **** void lv_mem_free(const void * data);
  89:lvgl\src\lv_draw\../lv_misc/lv_mem.h **** 
  90:lvgl\src\lv_draw\../lv_misc/lv_mem.h **** /**
  91:lvgl\src\lv_draw\../lv_misc/lv_mem.h ****  * Reallocate a memory with a new size. The old content will be kept.
  92:lvgl\src\lv_draw\../lv_misc/lv_mem.h ****  * @param data pointer to an allocated memory.
  93:lvgl\src\lv_draw\../lv_misc/lv_mem.h ****  * Its content will be copied to the new memory block and freed
  94:lvgl\src\lv_draw\../lv_misc/lv_mem.h ****  * @param new_size the desired new size in byte
  95:lvgl\src\lv_draw\../lv_misc/lv_mem.h ****  * @return pointer to the new memory
  96:lvgl\src\lv_draw\../lv_misc/lv_mem.h ****  */
  97:lvgl\src\lv_draw\../lv_misc/lv_mem.h **** void * lv_mem_realloc(void * data_p, size_t new_size);
  98:lvgl\src\lv_draw\../lv_misc/lv_mem.h **** 
  99:lvgl\src\lv_draw\../lv_misc/lv_mem.h **** /**
 100:lvgl\src\lv_draw\../lv_misc/lv_mem.h ****  * Join the adjacent free memory blocks
 101:lvgl\src\lv_draw\../lv_misc/lv_mem.h ****  */
 102:lvgl\src\lv_draw\../lv_misc/lv_mem.h **** void lv_mem_defrag(void);
 103:lvgl\src\lv_draw\../lv_misc/lv_mem.h **** 
 104:lvgl\src\lv_draw\../lv_misc/lv_mem.h **** /**
 105:lvgl\src\lv_draw\../lv_misc/lv_mem.h ****  *
 106:lvgl\src\lv_draw\../lv_misc/lv_mem.h ****  * @return
 107:lvgl\src\lv_draw\../lv_misc/lv_mem.h ****  */
 108:lvgl\src\lv_draw\../lv_misc/lv_mem.h **** lv_res_t lv_mem_test(void);
 109:lvgl\src\lv_draw\../lv_misc/lv_mem.h **** 
 110:lvgl\src\lv_draw\../lv_misc/lv_mem.h **** /**
 111:lvgl\src\lv_draw\../lv_misc/lv_mem.h ****  * Give information about the work memory of dynamic allocation
 112:lvgl\src\lv_draw\../lv_misc/lv_mem.h ****  * @param mon_p pointer to a dm_mon_p variable,
 113:lvgl\src\lv_draw\../lv_misc/lv_mem.h ****  *              the result of the analysis will be stored here
 114:lvgl\src\lv_draw\../lv_misc/lv_mem.h ****  */
 115:lvgl\src\lv_draw\../lv_misc/lv_mem.h **** void lv_mem_monitor(lv_mem_monitor_t * mon_p);
 116:lvgl\src\lv_draw\../lv_misc/lv_mem.h **** 
 117:lvgl\src\lv_draw\../lv_misc/lv_mem.h **** /**
 118:lvgl\src\lv_draw\../lv_misc/lv_mem.h ****  * Give the size of an allocated memory
 119:lvgl\src\lv_draw\../lv_misc/lv_mem.h ****  * @param data pointer to an allocated memory
 120:lvgl\src\lv_draw\../lv_misc/lv_mem.h ****  * @return the size of data memory in bytes
 121:lvgl\src\lv_draw\../lv_misc/lv_mem.h ****  */
 122:lvgl\src\lv_draw\../lv_misc/lv_mem.h **** uint32_t _lv_mem_get_size(const void * data);
 123:lvgl\src\lv_draw\../lv_misc/lv_mem.h **** 
 124:lvgl\src\lv_draw\../lv_misc/lv_mem.h **** /**
 125:lvgl\src\lv_draw\../lv_misc/lv_mem.h ****  * Get a temporal buffer with the given size.
 126:lvgl\src\lv_draw\../lv_misc/lv_mem.h ****  * @param size the required size
 127:lvgl\src\lv_draw\../lv_misc/lv_mem.h ****  */
 128:lvgl\src\lv_draw\../lv_misc/lv_mem.h **** void * _lv_mem_buf_get(uint32_t size);
 129:lvgl\src\lv_draw\../lv_misc/lv_mem.h **** 
 130:lvgl\src\lv_draw\../lv_misc/lv_mem.h **** /**
 131:lvgl\src\lv_draw\../lv_misc/lv_mem.h ****  * Release a memory buffer
 132:lvgl\src\lv_draw\../lv_misc/lv_mem.h ****  * @param p buffer to release
 133:lvgl\src\lv_draw\../lv_misc/lv_mem.h ****  */
 134:lvgl\src\lv_draw\../lv_misc/lv_mem.h **** void _lv_mem_buf_release(void * p);
 135:lvgl\src\lv_draw\../lv_misc/lv_mem.h **** 
 136:lvgl\src\lv_draw\../lv_misc/lv_mem.h **** /**
 137:lvgl\src\lv_draw\../lv_misc/lv_mem.h ****  * Free all memory buffers
 138:lvgl\src\lv_draw\../lv_misc/lv_mem.h ****  */
 139:lvgl\src\lv_draw\../lv_misc/lv_mem.h **** void _lv_mem_buf_free_all(void);
 140:lvgl\src\lv_draw\../lv_misc/lv_mem.h **** 
 141:lvgl\src\lv_draw\../lv_misc/lv_mem.h **** 
 142:lvgl\src\lv_draw\../lv_misc/lv_mem.h **** //! @cond Doxygen_Suppress
ARM GAS  C:\Users\strap\AppData\Local\Temp\ccvWLEyq.s 			page 6


 143:lvgl\src\lv_draw\../lv_misc/lv_mem.h **** 
 144:lvgl\src\lv_draw\../lv_misc/lv_mem.h **** #if LV_MEMCPY_MEMSET_STD
 145:lvgl\src\lv_draw\../lv_misc/lv_mem.h **** 
 146:lvgl\src\lv_draw\../lv_misc/lv_mem.h **** /**
 147:lvgl\src\lv_draw\../lv_misc/lv_mem.h ****  * Wrapper for the standard memcpy
 148:lvgl\src\lv_draw\../lv_misc/lv_mem.h ****  * @param dst pointer to the destination buffer
 149:lvgl\src\lv_draw\../lv_misc/lv_mem.h ****  * @param src pointer to the source buffer
 150:lvgl\src\lv_draw\../lv_misc/lv_mem.h ****  * @param len number of byte to copy
 151:lvgl\src\lv_draw\../lv_misc/lv_mem.h ****  */
 152:lvgl\src\lv_draw\../lv_misc/lv_mem.h **** static inline void * _lv_memcpy(void * dst, const void * src, size_t len)
 153:lvgl\src\lv_draw\../lv_misc/lv_mem.h **** {
 154:lvgl\src\lv_draw\../lv_misc/lv_mem.h ****     return memcpy(dst, src, len);
 155:lvgl\src\lv_draw\../lv_misc/lv_mem.h **** }
 156:lvgl\src\lv_draw\../lv_misc/lv_mem.h **** 
 157:lvgl\src\lv_draw\../lv_misc/lv_mem.h **** /**
 158:lvgl\src\lv_draw\../lv_misc/lv_mem.h ****  * Wrapper for the standard memcpy
 159:lvgl\src\lv_draw\../lv_misc/lv_mem.h ****  * @param dst pointer to the destination buffer
 160:lvgl\src\lv_draw\../lv_misc/lv_mem.h ****  * @param src pointer to the source buffer
 161:lvgl\src\lv_draw\../lv_misc/lv_mem.h ****  * @param len number of byte to copy
 162:lvgl\src\lv_draw\../lv_misc/lv_mem.h ****  */
 163:lvgl\src\lv_draw\../lv_misc/lv_mem.h **** static inline void * _lv_memcpy_small(void * dst, const void * src, size_t len)
 164:lvgl\src\lv_draw\../lv_misc/lv_mem.h **** {
 165:lvgl\src\lv_draw\../lv_misc/lv_mem.h ****     return memcpy(dst, src, len);
 166:lvgl\src\lv_draw\../lv_misc/lv_mem.h **** }
 167:lvgl\src\lv_draw\../lv_misc/lv_mem.h **** 
 168:lvgl\src\lv_draw\../lv_misc/lv_mem.h **** /**
 169:lvgl\src\lv_draw\../lv_misc/lv_mem.h ****  * Wrapper for the standard memset
 170:lvgl\src\lv_draw\../lv_misc/lv_mem.h ****  * @param dst pointer to the destination buffer
 171:lvgl\src\lv_draw\../lv_misc/lv_mem.h ****  * @param v value to set [0..255]
 172:lvgl\src\lv_draw\../lv_misc/lv_mem.h ****  * @param len number of byte to set
 173:lvgl\src\lv_draw\../lv_misc/lv_mem.h ****  */
 174:lvgl\src\lv_draw\../lv_misc/lv_mem.h **** static inline void _lv_memset(void * dst, uint8_t v, size_t len)
 175:lvgl\src\lv_draw\../lv_misc/lv_mem.h **** {
 176:lvgl\src\lv_draw\../lv_misc/lv_mem.h ****     memset(dst, v, len);
 177:lvgl\src\lv_draw\../lv_misc/lv_mem.h **** }
 178:lvgl\src\lv_draw\../lv_misc/lv_mem.h **** 
 179:lvgl\src\lv_draw\../lv_misc/lv_mem.h **** /**
 180:lvgl\src\lv_draw\../lv_misc/lv_mem.h ****  * Wrapper for the standard memset with fixed 0x00 value
 181:lvgl\src\lv_draw\../lv_misc/lv_mem.h ****  * @param dst pointer to the destination buffer
 182:lvgl\src\lv_draw\../lv_misc/lv_mem.h ****  * @param len number of byte to set
 183:lvgl\src\lv_draw\../lv_misc/lv_mem.h ****  */
 184:lvgl\src\lv_draw\../lv_misc/lv_mem.h **** static inline void _lv_memset_00(void * dst, size_t len)
 185:lvgl\src\lv_draw\../lv_misc/lv_mem.h **** {
 186:lvgl\src\lv_draw\../lv_misc/lv_mem.h ****     memset(dst, 0x00, len);
 187:lvgl\src\lv_draw\../lv_misc/lv_mem.h **** }
 188:lvgl\src\lv_draw\../lv_misc/lv_mem.h **** 
 189:lvgl\src\lv_draw\../lv_misc/lv_mem.h **** /**
 190:lvgl\src\lv_draw\../lv_misc/lv_mem.h ****  * Wrapper for the standard memset with fixed 0xFF value
 191:lvgl\src\lv_draw\../lv_misc/lv_mem.h ****  * @param dst pointer to the destination buffer
 192:lvgl\src\lv_draw\../lv_misc/lv_mem.h ****  * @param len number of byte to set
 193:lvgl\src\lv_draw\../lv_misc/lv_mem.h ****  */
 194:lvgl\src\lv_draw\../lv_misc/lv_mem.h **** static inline void _lv_memset_ff(void * dst, size_t len)
 195:lvgl\src\lv_draw\../lv_misc/lv_mem.h **** {
 196:lvgl\src\lv_draw\../lv_misc/lv_mem.h ****     memset(dst, 0xFF, len);
 197:lvgl\src\lv_draw\../lv_misc/lv_mem.h **** }
 198:lvgl\src\lv_draw\../lv_misc/lv_mem.h **** 
 199:lvgl\src\lv_draw\../lv_misc/lv_mem.h **** #else
ARM GAS  C:\Users\strap\AppData\Local\Temp\ccvWLEyq.s 			page 7


 200:lvgl\src\lv_draw\../lv_misc/lv_mem.h **** /**
 201:lvgl\src\lv_draw\../lv_misc/lv_mem.h ****  * Same as `memcpy` but optimized for 4 byte operation.
 202:lvgl\src\lv_draw\../lv_misc/lv_mem.h ****  * @param dst pointer to the destination buffer
 203:lvgl\src\lv_draw\../lv_misc/lv_mem.h ****  * @param src pointer to the source buffer
 204:lvgl\src\lv_draw\../lv_misc/lv_mem.h ****  * @param len number of byte to copy
 205:lvgl\src\lv_draw\../lv_misc/lv_mem.h ****  */
 206:lvgl\src\lv_draw\../lv_misc/lv_mem.h **** LV_ATTRIBUTE_FAST_MEM void * _lv_memcpy(void * dst, const void * src, size_t len);
 207:lvgl\src\lv_draw\../lv_misc/lv_mem.h **** 
 208:lvgl\src\lv_draw\../lv_misc/lv_mem.h **** /**
 209:lvgl\src\lv_draw\../lv_misc/lv_mem.h ****  * Same as `memcpy` but optimized to copy only a few bytes.
 210:lvgl\src\lv_draw\../lv_misc/lv_mem.h ****  * @param dst pointer to the destination buffer
 211:lvgl\src\lv_draw\../lv_misc/lv_mem.h ****  * @param src pointer to the source buffer
 212:lvgl\src\lv_draw\../lv_misc/lv_mem.h ****  * @param len number of byte to copy
 213:lvgl\src\lv_draw\../lv_misc/lv_mem.h ****  */
 214:lvgl\src\lv_draw\../lv_misc/lv_mem.h **** LV_ATTRIBUTE_FAST_MEM static inline void * _lv_memcpy_small(void * dst, const void * src, size_t le
 215:lvgl\src\lv_draw\../lv_misc/lv_mem.h **** {
 216:lvgl\src\lv_draw\../lv_misc/lv_mem.h ****     uint8_t * d8 = (uint8_t *)dst;
  83              		.loc 2 216 0
  84 0040 01AA     		add	r2, sp, #4
  85              	.LVL7:
  86              	.LBE32:
  87              	.LBE31:
  88              		.loc 1 61 0
  89 0042 0223     		movs	r3, #2
  90 0044 04E0     		b	.L4
  91              	.LVL8:
  92              	.L5:
  93              	.LBB34:
  94              	.LBB33:
 217:lvgl\src\lv_draw\../lv_misc/lv_mem.h ****     const uint8_t * s8 = (const uint8_t *)src;
 218:lvgl\src\lv_draw\../lv_misc/lv_mem.h **** 
 219:lvgl\src\lv_draw\../lv_misc/lv_mem.h ****     while(len) {
 220:lvgl\src\lv_draw\../lv_misc/lv_mem.h ****         *d8 = *s8;
  95              		.loc 2 220 0
  96 0046 10F8011B 		ldrb	r1, [r0], #1	@ zero_extendqisi2
  97              	.LVL9:
  98 004a 02F8011B 		strb	r1, [r2], #1
  99              	.LVL10:
 221:lvgl\src\lv_draw\../lv_misc/lv_mem.h ****         d8++;
 222:lvgl\src\lv_draw\../lv_misc/lv_mem.h ****         s8++;
 223:lvgl\src\lv_draw\../lv_misc/lv_mem.h ****         len--;
 100              		.loc 2 223 0
 101 004e 013B     		subs	r3, r3, #1
 102              	.LVL11:
 103              	.L4:
 219:lvgl\src\lv_draw\../lv_misc/lv_mem.h ****         *d8 = *s8;
 104              		.loc 2 219 0
 105 0050 002B     		cmp	r3, #0
 106 0052 F8D1     		bne	.L5
 107 0054 5FE0     		b	.L6
 108              	.LVL12:
 109              	.L3:
 110              	.LBE33:
 111              	.LBE34:
 112              	.LBE30:
  62:lvgl\src\lv_draw/lv_img_buf.c **** #if LV_COLOR_SIZE == 32
  63:lvgl\src\lv_draw/lv_img_buf.c ****         p_color.ch.alpha = 0xFF; /*Only the color should be get so use a default alpha value*/
ARM GAS  C:\Users\strap\AppData\Local\Temp\ccvWLEyq.s 			page 8


  64:lvgl\src\lv_draw/lv_img_buf.c **** #endif
  65:lvgl\src\lv_draw/lv_img_buf.c ****     }
  66:lvgl\src\lv_draw/lv_img_buf.c ****     else if(dsc->header.cf == LV_IMG_CF_INDEXED_1BIT) {
 113              		.loc 1 66 0
 114 0056 072C     		cmp	r4, #7
 115 0058 15D1     		bne	.L7
 116              	.LVL13:
 117              	.LBB35:
  67:lvgl\src\lv_draw/lv_img_buf.c ****         buf_u8 += 4 * 2;
  68:lvgl\src\lv_draw/lv_img_buf.c ****         uint8_t bit = x & 0x7;
 118              		.loc 1 68 0
 119 005a 01F00704 		and	r4, r1, #7
 120              	.LVL14:
  69:lvgl\src\lv_draw/lv_img_buf.c ****         x           = x >> 3;
  70:lvgl\src\lv_draw/lv_img_buf.c **** 
  71:lvgl\src\lv_draw/lv_img_buf.c ****         /* Get the current pixel.
  72:lvgl\src\lv_draw/lv_img_buf.c ****          * dsc->header.w + 7 means rounding up to 8 because the lines are byte aligned
  73:lvgl\src\lv_draw/lv_img_buf.c ****          * so the possible real width are 8, 16, 24 ...*/
  74:lvgl\src\lv_draw/lv_img_buf.c ****         uint32_t px  = ((dsc->header.w + 7) >> 3) * y + x;
 121              		.loc 1 74 0
 122 005e 0068     		ldr	r0, [r0]
 123              	.LVL15:
 124 0060 C0F38A20 		ubfx	r0, r0, #10, #11
 125 0064 0730     		adds	r0, r0, #7
 126 0066 C010     		asrs	r0, r0, #3
 127 0068 00FB02F2 		mul	r2, r0, r2
 128              	.LVL16:
 129 006c 02EBE101 		add	r1, r2, r1, asr #3
 130              	.LVL17:
  75:lvgl\src\lv_draw/lv_img_buf.c ****         p_color.full = (buf_u8[px] & (1 << (7 - bit))) >> (7 - bit);
 131              		.loc 1 75 0
 132 0070 6818     		adds	r0, r5, r1
 133 0072 037A     		ldrb	r3, [r0, #8]	@ zero_extendqisi2
 134              	.LVL18:
 135 0074 C4F10701 		rsb	r1, r4, #7
 136              	.LVL19:
 137 0078 0122     		movs	r2, #1
 138 007a 8A40     		lsls	r2, r2, r1
 139 007c 1340     		ands	r3, r3, r2
 140 007e 0B41     		asrs	r3, r3, r1
 141 0080 ADF80430 		strh	r3, [sp, #4]	@ movhi
 142              	.LBE35:
 143 0084 47E0     		b	.L6
 144              	.LVL20:
 145              	.L7:
  76:lvgl\src\lv_draw/lv_img_buf.c ****     }
  77:lvgl\src\lv_draw/lv_img_buf.c ****     else if(dsc->header.cf == LV_IMG_CF_INDEXED_2BIT) {
 146              		.loc 1 77 0
 147 0086 082C     		cmp	r4, #8
 148 0088 16D1     		bne	.L8
 149              	.LVL21:
 150              	.LBB36:
  78:lvgl\src\lv_draw/lv_img_buf.c ****         buf_u8 += 4 * 4;
  79:lvgl\src\lv_draw/lv_img_buf.c ****         uint8_t bit = (x & 0x3) * 2;
 151              		.loc 1 79 0
 152 008a 01F00304 		and	r4, r1, #3
 153 008e 6400     		lsls	r4, r4, #1
ARM GAS  C:\Users\strap\AppData\Local\Temp\ccvWLEyq.s 			page 9


 154              	.LVL22:
  80:lvgl\src\lv_draw/lv_img_buf.c ****         x           = x >> 2;
  81:lvgl\src\lv_draw/lv_img_buf.c **** 
  82:lvgl\src\lv_draw/lv_img_buf.c ****         /* Get the current pixel.
  83:lvgl\src\lv_draw/lv_img_buf.c ****          * dsc->header.w + 3 means rounding up to 4 because the lines are byte aligned
  84:lvgl\src\lv_draw/lv_img_buf.c ****          * so the possible real width are 4, 8, 12 ...*/
  85:lvgl\src\lv_draw/lv_img_buf.c ****         uint32_t px  = ((dsc->header.w + 3) >> 2) * y + x;
 155              		.loc 1 85 0
 156 0090 0068     		ldr	r0, [r0]
 157              	.LVL23:
 158 0092 C0F38A20 		ubfx	r0, r0, #10, #11
 159 0096 0330     		adds	r0, r0, #3
 160 0098 8010     		asrs	r0, r0, #2
 161 009a 00FB02F2 		mul	r2, r0, r2
 162              	.LVL24:
 163 009e 02EBA101 		add	r1, r2, r1, asr #2
 164              	.LVL25:
  86:lvgl\src\lv_draw/lv_img_buf.c ****         p_color.full = (buf_u8[px] & (3 << (6 - bit))) >> (6 - bit);
 165              		.loc 1 86 0
 166 00a2 6818     		adds	r0, r5, r1
 167 00a4 037C     		ldrb	r3, [r0, #16]	@ zero_extendqisi2
 168              	.LVL26:
 169 00a6 C4F10601 		rsb	r1, r4, #6
 170              	.LVL27:
 171 00aa 0322     		movs	r2, #3
 172 00ac 8A40     		lsls	r2, r2, r1
 173 00ae 1340     		ands	r3, r3, r2
 174 00b0 0B41     		asrs	r3, r3, r1
 175 00b2 ADF80430 		strh	r3, [sp, #4]	@ movhi
 176              	.LBE36:
 177 00b6 2EE0     		b	.L6
 178              	.LVL28:
 179              	.L8:
  87:lvgl\src\lv_draw/lv_img_buf.c ****     }
  88:lvgl\src\lv_draw/lv_img_buf.c ****     else if(dsc->header.cf == LV_IMG_CF_INDEXED_4BIT) {
 180              		.loc 1 88 0
 181 00b8 092C     		cmp	r4, #9
 182 00ba 19D1     		bne	.L9
 183              	.LVL29:
 184              	.LBB37:
  89:lvgl\src\lv_draw/lv_img_buf.c ****         buf_u8 += 4 * 16;
  90:lvgl\src\lv_draw/lv_img_buf.c ****         uint8_t bit = (x & 0x1) * 4;
 185              		.loc 1 90 0
 186 00bc 01F00103 		and	r3, r1, #1
 187              	.LVL30:
 188 00c0 9B00     		lsls	r3, r3, #2
 189 00c2 DBB2     		uxtb	r3, r3
 190              	.LVL31:
  91:lvgl\src\lv_draw/lv_img_buf.c ****         x           = x >> 1;
  92:lvgl\src\lv_draw/lv_img_buf.c **** 
  93:lvgl\src\lv_draw/lv_img_buf.c ****         /* Get the current pixel.
  94:lvgl\src\lv_draw/lv_img_buf.c ****          * dsc->header.w + 1 means rounding up to 2 because the lines are byte aligned
  95:lvgl\src\lv_draw/lv_img_buf.c ****          * so the possible real width are 2, 4, 6 ...*/
  96:lvgl\src\lv_draw/lv_img_buf.c ****         uint32_t px  = ((dsc->header.w + 1) >> 1) * y + x;
 191              		.loc 1 96 0
 192 00c4 0068     		ldr	r0, [r0]
 193              	.LVL32:
ARM GAS  C:\Users\strap\AppData\Local\Temp\ccvWLEyq.s 			page 10


 194 00c6 C0F38A20 		ubfx	r0, r0, #10, #11
 195 00ca 0130     		adds	r0, r0, #1
 196 00cc 4010     		asrs	r0, r0, #1
 197 00ce 00FB02F2 		mul	r2, r0, r2
 198              	.LVL33:
 199 00d2 02EB6101 		add	r1, r2, r1, asr #1
 200              	.LVL34:
  97:lvgl\src\lv_draw/lv_img_buf.c ****         p_color.full = (buf_u8[px] & (0xF << (4 - bit))) >> (4 - bit);
 201              		.loc 1 97 0
 202 00d6 6818     		adds	r0, r5, r1
 203 00d8 90F84010 		ldrb	r1, [r0, #64]	@ zero_extendqisi2
 204              	.LVL35:
 205 00dc C3F10403 		rsb	r3, r3, #4
 206              	.LVL36:
 207 00e0 0F22     		movs	r2, #15
 208 00e2 9A40     		lsls	r2, r2, r3
 209 00e4 0A40     		ands	r2, r2, r1
 210 00e6 42FA03F3 		asr	r3, r2, r3
 211 00ea ADF80430 		strh	r3, [sp, #4]	@ movhi
 212              	.LBE37:
 213 00ee 12E0     		b	.L6
 214              	.LVL37:
 215              	.L9:
  98:lvgl\src\lv_draw/lv_img_buf.c ****     }
  99:lvgl\src\lv_draw/lv_img_buf.c ****     else if(dsc->header.cf == LV_IMG_CF_INDEXED_8BIT) {
 216              		.loc 1 99 0
 217 00f0 0A2C     		cmp	r4, #10
 218 00f2 0AD1     		bne	.L10
 219              	.LVL38:
 220              	.LBB38:
 100:lvgl\src\lv_draw/lv_img_buf.c ****         buf_u8 += 4 * 256;
 101:lvgl\src\lv_draw/lv_img_buf.c ****         uint32_t px  = dsc->header.w * y + x;
 221              		.loc 1 101 0
 222 00f4 0068     		ldr	r0, [r0]
 223              	.LVL39:
 224 00f6 C0F38A20 		ubfx	r0, r0, #10, #11
 225 00fa 02FB0012 		mla	r2, r2, r0, r1
 226              	.LVL40:
 102:lvgl\src\lv_draw/lv_img_buf.c ****         p_color.full = buf_u8[px];
 227              		.loc 1 102 0
 228 00fe A818     		adds	r0, r5, r2
 229 0100 90F80034 		ldrb	r3, [r0, #1024]	@ zero_extendqisi2
 230              	.LVL41:
 231 0104 ADF80430 		strh	r3, [sp, #4]	@ movhi
 232              	.LBE38:
 233 0108 05E0     		b	.L6
 234              	.LVL42:
 235              	.L10:
 103:lvgl\src\lv_draw/lv_img_buf.c ****     }
 104:lvgl\src\lv_draw/lv_img_buf.c ****     else if(dsc->header.cf == LV_IMG_CF_ALPHA_1BIT || dsc->header.cf == LV_IMG_CF_ALPHA_2BIT ||
 105:lvgl\src\lv_draw/lv_img_buf.c ****             dsc->header.cf == LV_IMG_CF_ALPHA_4BIT || dsc->header.cf == LV_IMG_CF_ALPHA_8BIT) {
 236              		.loc 1 105 0
 237 010a 0B3C     		subs	r4, r4, #11
 238 010c E4B2     		uxtb	r4, r4
 104:lvgl\src\lv_draw/lv_img_buf.c ****             dsc->header.cf == LV_IMG_CF_ALPHA_4BIT || dsc->header.cf == LV_IMG_CF_ALPHA_8BIT) {
 239              		.loc 1 104 0
 240 010e 032C     		cmp	r4, #3
ARM GAS  C:\Users\strap\AppData\Local\Temp\ccvWLEyq.s 			page 11


 241 0110 01D8     		bhi	.L6
 106:lvgl\src\lv_draw/lv_img_buf.c ****         p_color = color;
 242              		.loc 1 106 0
 243 0112 ADF80430 		strh	r3, [sp, #4]	@ movhi
 244              	.LVL43:
 245              	.L6:
 107:lvgl\src\lv_draw/lv_img_buf.c ****     }
 108:lvgl\src\lv_draw/lv_img_buf.c ****     return p_color;
 109:lvgl\src\lv_draw/lv_img_buf.c **** }
 246              		.loc 1 109 0
 247 0116 BDF80400 		ldrh	r0, [sp, #4]
 248 011a 03B0     		add	sp, sp, #12
 249              		.cfi_def_cfa_offset 20
 250              		@ sp needed
 251 011c F0BD     		pop	{r4, r5, r6, r7, pc}
 252              		.cfi_endproc
 253              	.LFE37:
 254              		.size	lv_img_buf_get_px_color, .-lv_img_buf_get_px_color
 255 011e 00BF     		.section	.text.lv_img_buf_get_px_alpha,"ax",%progbits
 256              		.align	2
 257              		.global	lv_img_buf_get_px_alpha
 258              		.thumb
 259              		.thumb_func
 260              		.type	lv_img_buf_get_px_alpha, %function
 261              	lv_img_buf_get_px_alpha:
 262              	.LFB38:
 110:lvgl\src\lv_draw/lv_img_buf.c **** 
 111:lvgl\src\lv_draw/lv_img_buf.c **** /**
 112:lvgl\src\lv_draw/lv_img_buf.c ****  * Get the alpha value of an image's pixel
 113:lvgl\src\lv_draw/lv_img_buf.c ****  * @param dsc pointer to an image descriptor
 114:lvgl\src\lv_draw/lv_img_buf.c ****  * @param x x coordinate of the point to set
 115:lvgl\src\lv_draw/lv_img_buf.c ****  * @param y x coordinate of the point to set
 116:lvgl\src\lv_draw/lv_img_buf.c ****  * @param safe true: check out of bounds
 117:lvgl\src\lv_draw/lv_img_buf.c ****  * @return alpha value of the point
 118:lvgl\src\lv_draw/lv_img_buf.c ****  */
 119:lvgl\src\lv_draw/lv_img_buf.c **** lv_opa_t lv_img_buf_get_px_alpha(lv_img_dsc_t * dsc, lv_coord_t x, lv_coord_t y)
 120:lvgl\src\lv_draw/lv_img_buf.c **** {
 263              		.loc 1 120 0
 264              		.cfi_startproc
 265              		@ args = 0, pretend = 0, frame = 16
 266              		@ frame_needed = 0, uses_anonymous_args = 0
 267              	.LVL44:
 268 0000 F0B5     		push	{r4, r5, r6, r7, lr}
 269              		.cfi_def_cfa_offset 20
 270              		.cfi_offset 4, -20
 271              		.cfi_offset 5, -16
 272              		.cfi_offset 6, -12
 273              		.cfi_offset 7, -8
 274              		.cfi_offset 14, -4
 275 0002 85B0     		sub	sp, sp, #20
 276              		.cfi_def_cfa_offset 40
 277 0004 0446     		mov	r4, r0
 278 0006 0E46     		mov	r6, r1
 279 0008 1746     		mov	r7, r2
 121:lvgl\src\lv_draw/lv_img_buf.c ****     uint8_t * buf_u8 = (uint8_t *)dsc->data;
 280              		.loc 1 121 0
 281 000a 8568     		ldr	r5, [r0, #8]
ARM GAS  C:\Users\strap\AppData\Local\Temp\ccvWLEyq.s 			page 12


 282              	.LVL45:
 122:lvgl\src\lv_draw/lv_img_buf.c **** 
 123:lvgl\src\lv_draw/lv_img_buf.c ****     if(dsc->header.cf == LV_IMG_CF_TRUE_COLOR_ALPHA) {
 283              		.loc 1 123 0
 284 000c 0378     		ldrb	r3, [r0]	@ zero_extendqisi2
 285 000e 03F01F03 		and	r3, r3, #31
 286 0012 052B     		cmp	r3, #5
 287 0014 09D1     		bne	.L13
 288              	.LBB39:
 124:lvgl\src\lv_draw/lv_img_buf.c ****         uint32_t px = dsc->header.w * y * LV_IMG_PX_SIZE_ALPHA_BYTE + x * LV_IMG_PX_SIZE_ALPHA_BYTE
 289              		.loc 1 124 0
 290 0016 0168     		ldr	r1, [r0]
 291              	.LVL46:
 292 0018 C1F38A21 		ubfx	r1, r1, #10, #11
 293 001c 02FB0161 		mla	r1, r2, r1, r6
 294 0020 01EB4101 		add	r1, r1, r1, lsl #1
 295              	.LVL47:
 125:lvgl\src\lv_draw/lv_img_buf.c ****         return buf_u8[px + LV_IMG_PX_SIZE_ALPHA_BYTE - 1];
 296              		.loc 1 125 0
 297 0024 0231     		adds	r1, r1, #2
 298              	.LVL48:
 299 0026 685C     		ldrb	r0, [r5, r1]	@ zero_extendqisi2
 300              	.LVL49:
 301 0028 66E0     		b	.L14
 302              	.LVL50:
 303              	.L13:
 304              	.LBE39:
 126:lvgl\src\lv_draw/lv_img_buf.c ****     }
 127:lvgl\src\lv_draw/lv_img_buf.c ****     else if(dsc->header.cf == LV_IMG_CF_ALPHA_1BIT) {
 305              		.loc 1 127 0
 306 002a 0B2B     		cmp	r3, #11
 307 002c 16D1     		bne	.L15
 308              	.LBB40:
 128:lvgl\src\lv_draw/lv_img_buf.c ****         uint8_t bit = x & 0x7;
 309              		.loc 1 128 0
 310 002e 01F00702 		and	r2, r1, #7
 311              	.LVL51:
 129:lvgl\src\lv_draw/lv_img_buf.c ****         x           = x >> 3;
 130:lvgl\src\lv_draw/lv_img_buf.c **** 
 131:lvgl\src\lv_draw/lv_img_buf.c ****         /* Get the current pixel.
 132:lvgl\src\lv_draw/lv_img_buf.c ****          * dsc->header.w + 7 means rounding up to 8 because the lines are byte aligned
 133:lvgl\src\lv_draw/lv_img_buf.c ****          * so the possible real width are 8 ,16, 24 ...*/
 134:lvgl\src\lv_draw/lv_img_buf.c ****         uint32_t px    = ((dsc->header.w + 7) >> 3) * y + x;
 312              		.loc 1 134 0
 313 0032 0168     		ldr	r1, [r0]
 314              	.LVL52:
 315 0034 C1F38A21 		ubfx	r1, r1, #10, #11
 316 0038 0731     		adds	r1, r1, #7
 317 003a C910     		asrs	r1, r1, #3
 318 003c 01FB07F1 		mul	r1, r1, r7
 319 0040 01EBE601 		add	r1, r1, r6, asr #3
 320              	.LVL53:
 135:lvgl\src\lv_draw/lv_img_buf.c ****         uint8_t px_opa = (buf_u8[px] & (1 << (7 - bit))) >> (7 - bit);
 321              		.loc 1 135 0
 322 0044 6B5C     		ldrb	r3, [r5, r1]	@ zero_extendqisi2
 323 0046 C2F10701 		rsb	r1, r2, #7
 324              	.LVL54:
ARM GAS  C:\Users\strap\AppData\Local\Temp\ccvWLEyq.s 			page 13


 325 004a 0122     		movs	r2, #1
 326              	.LVL55:
 327 004c 8A40     		lsls	r2, r2, r1
 328 004e 1340     		ands	r3, r3, r2
 329 0050 0B41     		asrs	r3, r3, r1
 330              	.LVL56:
 136:lvgl\src\lv_draw/lv_img_buf.c ****         return px_opa ? LV_OPA_TRANSP : LV_OPA_COVER;
 331              		.loc 1 136 0
 332 0052 13F0FF0F 		tst	r3, #255
 333 0056 4CD0     		beq	.L18
 334 0058 0020     		movs	r0, #0
 335              	.LVL57:
 336 005a 4DE0     		b	.L14
 337              	.LVL58:
 338              	.L15:
 339              	.LBE40:
 137:lvgl\src\lv_draw/lv_img_buf.c ****     }
 138:lvgl\src\lv_draw/lv_img_buf.c ****     else if(dsc->header.cf == LV_IMG_CF_ALPHA_2BIT) {
 340              		.loc 1 138 0
 341 005c 0C2B     		cmp	r3, #12
 342 005e 1BD1     		bne	.L16
 343              	.LBB41:
 139:lvgl\src\lv_draw/lv_img_buf.c ****         const uint8_t opa_table[4] = {0, 85, 170, 255}; /*Opacity mapping with bpp = 2*/
 344              		.loc 1 139 0
 345 0060 264B     		ldr	r3, .L21
 346 0062 1868     		ldr	r0, [r3]	@ unaligned
 347              	.LVL59:
 348 0064 0090     		str	r0, [sp]	@ unaligned
 140:lvgl\src\lv_draw/lv_img_buf.c **** 
 141:lvgl\src\lv_draw/lv_img_buf.c ****         uint8_t bit = (x & 0x3) * 2;
 349              		.loc 1 141 0
 350 0066 01F00301 		and	r1, r1, #3
 351              	.LVL60:
 352 006a 4A00     		lsls	r2, r1, #1
 353              	.LVL61:
 142:lvgl\src\lv_draw/lv_img_buf.c ****         x           = x >> 2;
 143:lvgl\src\lv_draw/lv_img_buf.c **** 
 144:lvgl\src\lv_draw/lv_img_buf.c ****         /* Get the current pixel.
 145:lvgl\src\lv_draw/lv_img_buf.c ****          * dsc->header.w + 4 means rounding up to 8 because the lines are byte aligned
 146:lvgl\src\lv_draw/lv_img_buf.c ****          * so the possible real width are 4 ,8, 12 ...*/
 147:lvgl\src\lv_draw/lv_img_buf.c ****         uint32_t px    = ((dsc->header.w + 3) >> 2) * y + x;
 354              		.loc 1 147 0
 355 006c 2168     		ldr	r1, [r4]
 356 006e C1F38A21 		ubfx	r1, r1, #10, #11
 357 0072 0331     		adds	r1, r1, #3
 358 0074 8910     		asrs	r1, r1, #2
 359 0076 01FB07F1 		mul	r1, r1, r7
 360 007a 01EBA601 		add	r1, r1, r6, asr #2
 361              	.LVL62:
 148:lvgl\src\lv_draw/lv_img_buf.c ****         uint8_t px_opa = (buf_u8[px] & (3 << (6 - bit))) >> (6 - bit);
 362              		.loc 1 148 0
 363 007e 6B5C     		ldrb	r3, [r5, r1]	@ zero_extendqisi2
 364 0080 C2F10601 		rsb	r1, r2, #6
 365              	.LVL63:
 366 0084 0322     		movs	r2, #3
 367              	.LVL64:
 368 0086 8A40     		lsls	r2, r2, r1
ARM GAS  C:\Users\strap\AppData\Local\Temp\ccvWLEyq.s 			page 14


 369 0088 1340     		ands	r3, r3, r2
 370 008a 0B41     		asrs	r3, r3, r1
 371              	.LVL65:
 149:lvgl\src\lv_draw/lv_img_buf.c ****         return opa_table[px_opa];
 372              		.loc 1 149 0
 373 008c DBB2     		uxtb	r3, r3
 374 008e 04AA     		add	r2, sp, #16
 375 0090 1344     		add	r3, r3, r2
 376              	.LVL66:
 377 0092 13F8100C 		ldrb	r0, [r3, #-16]	@ zero_extendqisi2
 378 0096 2FE0     		b	.L14
 379              	.LVL67:
 380              	.L16:
 381              	.LBE41:
 150:lvgl\src\lv_draw/lv_img_buf.c ****     }
 151:lvgl\src\lv_draw/lv_img_buf.c ****     else if(dsc->header.cf == LV_IMG_CF_ALPHA_4BIT) {
 382              		.loc 1 151 0
 383 0098 0D2B     		cmp	r3, #13
 384 009a 21D1     		bne	.L17
 385              	.LBB42:
 152:lvgl\src\lv_draw/lv_img_buf.c ****         const uint8_t opa_table[16] = {0,  17, 34,  51, /*Opacity mapping with bpp = 4*/
 386              		.loc 1 152 0
 387 009c EE46     		mov	lr, sp
 388 009e 174B     		ldr	r3, .L21
 389 00a0 53F8040F 		ldr	r0, [r3, #4]!	@ unaligned
 390              	.LVL68:
 391 00a4 5968     		ldr	r1, [r3, #4]	@ unaligned
 392              	.LVL69:
 393 00a6 9A68     		ldr	r2, [r3, #8]	@ unaligned
 394              	.LVL70:
 395 00a8 DB68     		ldr	r3, [r3, #12]	@ unaligned
 396 00aa AEE80F00 		stmia	lr!, {r0, r1, r2, r3}
 153:lvgl\src\lv_draw/lv_img_buf.c ****                                        68, 85, 102, 119, 136, 153, 170, 187, 204, 221, 238, 255
 154:lvgl\src\lv_draw/lv_img_buf.c ****                                       };
 155:lvgl\src\lv_draw/lv_img_buf.c **** 
 156:lvgl\src\lv_draw/lv_img_buf.c ****         uint8_t bit = (x & 0x1) * 4;
 397              		.loc 1 156 0
 398 00ae 06F00101 		and	r1, r6, #1
 399 00b2 8900     		lsls	r1, r1, #2
 400 00b4 CAB2     		uxtb	r2, r1
 401              	.LVL71:
 157:lvgl\src\lv_draw/lv_img_buf.c ****         x           = x >> 1;
 158:lvgl\src\lv_draw/lv_img_buf.c **** 
 159:lvgl\src\lv_draw/lv_img_buf.c ****         /* Get the current pixel.
 160:lvgl\src\lv_draw/lv_img_buf.c ****          * dsc->header.w + 1 means rounding up to 8 because the lines are byte aligned
 161:lvgl\src\lv_draw/lv_img_buf.c ****          * so the possible real width are 2 ,4, 6 ...*/
 162:lvgl\src\lv_draw/lv_img_buf.c ****         uint32_t px    = ((dsc->header.w + 1) >> 1) * y + x;
 402              		.loc 1 162 0
 403 00b6 2168     		ldr	r1, [r4]
 404 00b8 C1F38A21 		ubfx	r1, r1, #10, #11
 405 00bc 0131     		adds	r1, r1, #1
 406 00be 4910     		asrs	r1, r1, #1
 407 00c0 01FB07F1 		mul	r1, r1, r7
 408 00c4 01EB6601 		add	r1, r1, r6, asr #1
 409              	.LVL72:
 163:lvgl\src\lv_draw/lv_img_buf.c ****         uint8_t px_opa = (buf_u8[px] & (0xF << (4 - bit))) >> (4 - bit);
 410              		.loc 1 163 0
ARM GAS  C:\Users\strap\AppData\Local\Temp\ccvWLEyq.s 			page 15


 411 00c8 6B5C     		ldrb	r3, [r5, r1]	@ zero_extendqisi2
 412 00ca C2F10401 		rsb	r1, r2, #4
 413              	.LVL73:
 414 00ce 0F22     		movs	r2, #15
 415              	.LVL74:
 416 00d0 8A40     		lsls	r2, r2, r1
 417 00d2 1340     		ands	r3, r3, r2
 418 00d4 0B41     		asrs	r3, r3, r1
 419              	.LVL75:
 164:lvgl\src\lv_draw/lv_img_buf.c ****         return opa_table[px_opa];
 420              		.loc 1 164 0
 421 00d6 DBB2     		uxtb	r3, r3
 422 00d8 7344     		add	r3, r3, lr
 423              	.LVL76:
 424 00da 13F8100C 		ldrb	r0, [r3, #-16]	@ zero_extendqisi2
 425 00de 0BE0     		b	.L14
 426              	.LVL77:
 427              	.L17:
 428              	.LBE42:
 165:lvgl\src\lv_draw/lv_img_buf.c ****     }
 166:lvgl\src\lv_draw/lv_img_buf.c ****     else if(dsc->header.cf == LV_IMG_CF_ALPHA_8BIT) {
 429              		.loc 1 166 0
 430 00e0 0E2B     		cmp	r3, #14
 431 00e2 08D1     		bne	.L19
 432              	.LBB43:
 167:lvgl\src\lv_draw/lv_img_buf.c ****         uint32_t px = dsc->header.w * y + x;
 433              		.loc 1 167 0
 434 00e4 0168     		ldr	r1, [r0]
 435              	.LVL78:
 436 00e6 C1F38A21 		ubfx	r1, r1, #10, #11
 437 00ea 02FB0161 		mla	r1, r2, r1, r6
 438              	.LVL79:
 168:lvgl\src\lv_draw/lv_img_buf.c ****         return buf_u8[px];
 439              		.loc 1 168 0
 440 00ee 685C     		ldrb	r0, [r5, r1]	@ zero_extendqisi2
 441              	.LVL80:
 442 00f0 02E0     		b	.L14
 443              	.LVL81:
 444              	.L18:
 445              	.LBE43:
 446              	.LBB44:
 136:lvgl\src\lv_draw/lv_img_buf.c ****     }
 447              		.loc 1 136 0
 448 00f2 FF20     		movs	r0, #255
 449              	.LVL82:
 450 00f4 00E0     		b	.L14
 451              	.LVL83:
 452              	.L19:
 453              	.LBE44:
 169:lvgl\src\lv_draw/lv_img_buf.c ****     }
 170:lvgl\src\lv_draw/lv_img_buf.c **** 
 171:lvgl\src\lv_draw/lv_img_buf.c ****     return LV_OPA_COVER;
 454              		.loc 1 171 0
 455 00f6 FF20     		movs	r0, #255
 456              	.LVL84:
 457              	.L14:
 172:lvgl\src\lv_draw/lv_img_buf.c **** }
ARM GAS  C:\Users\strap\AppData\Local\Temp\ccvWLEyq.s 			page 16


 458              		.loc 1 172 0 discriminator 1
 459 00f8 05B0     		add	sp, sp, #20
 460              		.cfi_def_cfa_offset 20
 461              		@ sp needed
 462 00fa F0BD     		pop	{r4, r5, r6, r7, pc}
 463              	.LVL85:
 464              	.L22:
 465              		.align	2
 466              	.L21:
 467 00fc 00000000 		.word	.LANCHOR0
 468              		.cfi_endproc
 469              	.LFE38:
 470              		.size	lv_img_buf_get_px_alpha, .-lv_img_buf_get_px_alpha
 471              		.section	.text.lv_img_buf_set_px_alpha,"ax",%progbits
 472              		.align	2
 473              		.global	lv_img_buf_set_px_alpha
 474              		.thumb
 475              		.thumb_func
 476              		.type	lv_img_buf_set_px_alpha, %function
 477              	lv_img_buf_set_px_alpha:
 478              	.LFB39:
 173:lvgl\src\lv_draw/lv_img_buf.c **** 
 174:lvgl\src\lv_draw/lv_img_buf.c **** /**
 175:lvgl\src\lv_draw/lv_img_buf.c ****  * Set the alpha value of a pixel of an image. The color won't be affected
 176:lvgl\src\lv_draw/lv_img_buf.c ****  * @param dsc pointer to an image descriptor
 177:lvgl\src\lv_draw/lv_img_buf.c ****  * @param x x coordinate of the point to set
 178:lvgl\src\lv_draw/lv_img_buf.c ****  * @param y x coordinate of the point to set
 179:lvgl\src\lv_draw/lv_img_buf.c ****  * @param opa the desired opacity
 180:lvgl\src\lv_draw/lv_img_buf.c ****  * @param safe true: check out of bounds
 181:lvgl\src\lv_draw/lv_img_buf.c ****  */
 182:lvgl\src\lv_draw/lv_img_buf.c **** void lv_img_buf_set_px_alpha(lv_img_dsc_t * dsc, lv_coord_t x, lv_coord_t y, lv_opa_t opa)
 183:lvgl\src\lv_draw/lv_img_buf.c **** {
 479              		.loc 1 183 0
 480              		.cfi_startproc
 481              		@ args = 0, pretend = 0, frame = 0
 482              		@ frame_needed = 0, uses_anonymous_args = 0
 483              	.LVL86:
 484 0000 2DE9F041 		push	{r4, r5, r6, r7, r8, lr}
 485              		.cfi_def_cfa_offset 24
 486              		.cfi_offset 4, -24
 487              		.cfi_offset 5, -20
 488              		.cfi_offset 6, -16
 489              		.cfi_offset 7, -12
 490              		.cfi_offset 8, -8
 491              		.cfi_offset 14, -4
 184:lvgl\src\lv_draw/lv_img_buf.c ****     uint8_t * buf_u8 = (uint8_t *)dsc->data;
 492              		.loc 1 184 0
 493 0004 8568     		ldr	r5, [r0, #8]
 494              	.LVL87:
 185:lvgl\src\lv_draw/lv_img_buf.c **** 
 186:lvgl\src\lv_draw/lv_img_buf.c ****     if(dsc->header.cf == LV_IMG_CF_TRUE_COLOR_ALPHA) {
 495              		.loc 1 186 0
 496 0006 0478     		ldrb	r4, [r0]	@ zero_extendqisi2
 497 0008 04F01F04 		and	r4, r4, #31
 498 000c 052C     		cmp	r4, #5
 499 000e 16D1     		bne	.L24
 500 0010 1C46     		mov	r4, r3
ARM GAS  C:\Users\strap\AppData\Local\Temp\ccvWLEyq.s 			page 17


 501 0012 1646     		mov	r6, r2
 502 0014 0F46     		mov	r7, r1
 503 0016 8046     		mov	r8, r0
 504              	.LBB45:
 187:lvgl\src\lv_draw/lv_img_buf.c ****         uint8_t px_size          = lv_img_cf_get_px_size(dsc->header.cf) >> 3;
 505              		.loc 1 187 0
 506 0018 0078     		ldrb	r0, [r0]	@ zero_extendqisi2
 507              	.LVL88:
 508 001a 00F01F00 		and	r0, r0, #31
 509 001e FFF7FEFF 		bl	lv_img_cf_get_px_size
 510              	.LVL89:
 511 0022 C0F3C700 		ubfx	r0, r0, #3, #8
 512              	.LVL90:
 188:lvgl\src\lv_draw/lv_img_buf.c ****         uint32_t px              = dsc->header.w * y * px_size + x * px_size;
 513              		.loc 1 188 0
 514 0026 D8F80010 		ldr	r1, [r8]
 515 002a C1F38A21 		ubfx	r1, r1, #10, #11
 516 002e 06FB0171 		mla	r1, r6, r1, r7
 517              	.LVL91:
 189:lvgl\src\lv_draw/lv_img_buf.c ****         buf_u8[px + px_size - 1] = opa;
 518              		.loc 1 189 0
 519 0032 00FB0100 		mla	r0, r0, r1, r0
 520              	.LVL92:
 521 0036 0138     		subs	r0, r0, #1
 522 0038 2C54     		strb	r4, [r5, r0]
 523              	.LBE45:
 524 003a BDE8F081 		pop	{r4, r5, r6, r7, r8, pc}
 525              	.LVL93:
 526              	.L24:
 190:lvgl\src\lv_draw/lv_img_buf.c ****     }
 191:lvgl\src\lv_draw/lv_img_buf.c ****     else if(dsc->header.cf == LV_IMG_CF_ALPHA_1BIT) {
 527              		.loc 1 191 0
 528 003e 0B2C     		cmp	r4, #11
 529 0040 19D1     		bne	.L26
 530              	.LBB46:
 192:lvgl\src\lv_draw/lv_img_buf.c ****         opa         = opa >> 7; /*opa -> [0,1]*/
 531              		.loc 1 192 0
 532 0042 DC09     		lsrs	r4, r3, #7
 533              	.LVL94:
 193:lvgl\src\lv_draw/lv_img_buf.c ****         uint8_t bit = x & 0x7;
 534              		.loc 1 193 0
 535 0044 01F00703 		and	r3, r1, #7
 536              	.LVL95:
 194:lvgl\src\lv_draw/lv_img_buf.c ****         x           = x >> 3;
 195:lvgl\src\lv_draw/lv_img_buf.c **** 
 196:lvgl\src\lv_draw/lv_img_buf.c ****         /* Get the current pixel.
 197:lvgl\src\lv_draw/lv_img_buf.c ****          * dsc->header.w + 7 means rounding up to 8 because the lines are byte aligned
 198:lvgl\src\lv_draw/lv_img_buf.c ****          * so the possible real width are 8 ,16, 24 ...*/
 199:lvgl\src\lv_draw/lv_img_buf.c ****         uint32_t px = ((dsc->header.w + 7) >> 3) * y + x;
 537              		.loc 1 199 0
 538 0048 0068     		ldr	r0, [r0]
 539              	.LVL96:
 540 004a C0F38A20 		ubfx	r0, r0, #10, #11
 541 004e 0730     		adds	r0, r0, #7
 542 0050 C010     		asrs	r0, r0, #3
 543 0052 00FB02F2 		mul	r2, r0, r2
 544              	.LVL97:
ARM GAS  C:\Users\strap\AppData\Local\Temp\ccvWLEyq.s 			page 18


 545 0056 02EBE101 		add	r1, r2, r1, asr #3
 546              	.LVL98:
 200:lvgl\src\lv_draw/lv_img_buf.c ****         buf_u8[px]  = buf_u8[px] & ~(1 << (7 - bit));
 547              		.loc 1 200 0
 548 005a 685C     		ldrb	r0, [r5, r1]	@ zero_extendqisi2
 549 005c C3F10703 		rsb	r3, r3, #7
 550              	.LVL99:
 551 0060 0122     		movs	r2, #1
 552 0062 9A40     		lsls	r2, r2, r3
 553 0064 20EA0202 		bic	r2, r0, r2
 554 0068 52B2     		sxtb	r2, r2
 201:lvgl\src\lv_draw/lv_img_buf.c ****         buf_u8[px]  = buf_u8[px] | ((opa & 0x1) << (7 - bit));
 555              		.loc 1 201 0
 556 006a 04FA03F3 		lsl	r3, r4, r3
 557 006e 1343     		orrs	r3, r3, r2
 558 0070 6B54     		strb	r3, [r5, r1]
 559              	.LBE46:
 560 0072 BDE8F081 		pop	{r4, r5, r6, r7, r8, pc}
 561              	.LVL100:
 562              	.L26:
 202:lvgl\src\lv_draw/lv_img_buf.c ****     }
 203:lvgl\src\lv_draw/lv_img_buf.c ****     else if(dsc->header.cf == LV_IMG_CF_ALPHA_2BIT) {
 563              		.loc 1 203 0
 564 0076 0C2C     		cmp	r4, #12
 565 0078 1AD1     		bne	.L27
 566              	.LBB47:
 204:lvgl\src\lv_draw/lv_img_buf.c ****         opa         = opa >> 6; /*opa -> [0,3]*/
 567              		.loc 1 204 0
 568 007a 9C09     		lsrs	r4, r3, #6
 569              	.LVL101:
 205:lvgl\src\lv_draw/lv_img_buf.c ****         uint8_t bit = (x & 0x3) * 2;
 570              		.loc 1 205 0
 571 007c 01F00303 		and	r3, r1, #3
 572 0080 5B00     		lsls	r3, r3, #1
 573              	.LVL102:
 206:lvgl\src\lv_draw/lv_img_buf.c ****         x           = x >> 2;
 207:lvgl\src\lv_draw/lv_img_buf.c **** 
 208:lvgl\src\lv_draw/lv_img_buf.c ****         /* Get the current pixel.
 209:lvgl\src\lv_draw/lv_img_buf.c ****          * dsc->header.w + 4 means rounding up to 8 because the lines are byte aligned
 210:lvgl\src\lv_draw/lv_img_buf.c ****          * so the possible real width are 4 ,8, 12 ...*/
 211:lvgl\src\lv_draw/lv_img_buf.c ****         uint32_t px = ((dsc->header.w + 3) >> 2) * y + x;
 574              		.loc 1 211 0
 575 0082 0068     		ldr	r0, [r0]
 576              	.LVL103:
 577 0084 C0F38A20 		ubfx	r0, r0, #10, #11
 578 0088 0330     		adds	r0, r0, #3
 579 008a 8010     		asrs	r0, r0, #2
 580 008c 00FB02F2 		mul	r2, r0, r2
 581              	.LVL104:
 582 0090 02EBA101 		add	r1, r2, r1, asr #2
 583              	.LVL105:
 212:lvgl\src\lv_draw/lv_img_buf.c ****         buf_u8[px]  = buf_u8[px] & ~(3 << (6 - bit));
 584              		.loc 1 212 0
 585 0094 685C     		ldrb	r0, [r5, r1]	@ zero_extendqisi2
 586 0096 C3F10603 		rsb	r3, r3, #6
 587              	.LVL106:
 588 009a 0322     		movs	r2, #3
ARM GAS  C:\Users\strap\AppData\Local\Temp\ccvWLEyq.s 			page 19


 589 009c 9A40     		lsls	r2, r2, r3
 590 009e 20EA0202 		bic	r2, r0, r2
 591 00a2 52B2     		sxtb	r2, r2
 213:lvgl\src\lv_draw/lv_img_buf.c ****         buf_u8[px]  = buf_u8[px] | ((opa & 0x3) << (6 - bit));
 592              		.loc 1 213 0
 593 00a4 04FA03F3 		lsl	r3, r4, r3
 594 00a8 1343     		orrs	r3, r3, r2
 595 00aa 6B54     		strb	r3, [r5, r1]
 596              	.LBE47:
 597 00ac BDE8F081 		pop	{r4, r5, r6, r7, r8, pc}
 598              	.LVL107:
 599              	.L27:
 214:lvgl\src\lv_draw/lv_img_buf.c ****     }
 215:lvgl\src\lv_draw/lv_img_buf.c ****     else if(dsc->header.cf == LV_IMG_CF_ALPHA_4BIT) {
 600              		.loc 1 215 0
 601 00b0 0D2C     		cmp	r4, #13
 602 00b2 1BD1     		bne	.L28
 603              	.LBB48:
 216:lvgl\src\lv_draw/lv_img_buf.c ****         opa         = opa >> 4; /*opa -> [0,15]*/
 604              		.loc 1 216 0
 605 00b4 1C09     		lsrs	r4, r3, #4
 606              	.LVL108:
 217:lvgl\src\lv_draw/lv_img_buf.c ****         uint8_t bit = (x & 0x1) * 4;
 607              		.loc 1 217 0
 608 00b6 01F00103 		and	r3, r1, #1
 609 00ba 9B00     		lsls	r3, r3, #2
 610 00bc DBB2     		uxtb	r3, r3
 611              	.LVL109:
 218:lvgl\src\lv_draw/lv_img_buf.c ****         x           = x >> 1;
 219:lvgl\src\lv_draw/lv_img_buf.c **** 
 220:lvgl\src\lv_draw/lv_img_buf.c ****         /* Get the current pixel.
 221:lvgl\src\lv_draw/lv_img_buf.c ****          * dsc->header.w + 1 means rounding up to 8 because the lines are byte aligned
 222:lvgl\src\lv_draw/lv_img_buf.c ****          * so the possible real width are 2 ,4, 6 ...*/
 223:lvgl\src\lv_draw/lv_img_buf.c ****         uint32_t px = ((dsc->header.w + 1) >> 1) * y + x;
 612              		.loc 1 223 0
 613 00be 0068     		ldr	r0, [r0]
 614              	.LVL110:
 615 00c0 C0F38A20 		ubfx	r0, r0, #10, #11
 616 00c4 0130     		adds	r0, r0, #1
 617 00c6 4010     		asrs	r0, r0, #1
 618 00c8 00FB02F2 		mul	r2, r0, r2
 619              	.LVL111:
 620 00cc 02EB6101 		add	r1, r2, r1, asr #1
 621              	.LVL112:
 224:lvgl\src\lv_draw/lv_img_buf.c ****         buf_u8[px]  = buf_u8[px] & ~(0xF << (4 - bit));
 622              		.loc 1 224 0
 623 00d0 685C     		ldrb	r0, [r5, r1]	@ zero_extendqisi2
 624 00d2 C3F10403 		rsb	r3, r3, #4
 625              	.LVL113:
 626 00d6 0F22     		movs	r2, #15
 627 00d8 9A40     		lsls	r2, r2, r3
 628 00da 20EA0202 		bic	r2, r0, r2
 629 00de 52B2     		sxtb	r2, r2
 225:lvgl\src\lv_draw/lv_img_buf.c ****         buf_u8[px]  = buf_u8[px] | ((opa & 0xF) << (4 - bit));
 630              		.loc 1 225 0
 631 00e0 04FA03F3 		lsl	r3, r4, r3
 632 00e4 1343     		orrs	r3, r3, r2
ARM GAS  C:\Users\strap\AppData\Local\Temp\ccvWLEyq.s 			page 20


 633 00e6 6B54     		strb	r3, [r5, r1]
 634              	.LBE48:
 635 00e8 BDE8F081 		pop	{r4, r5, r6, r7, r8, pc}
 636              	.LVL114:
 637              	.L28:
 226:lvgl\src\lv_draw/lv_img_buf.c ****     }
 227:lvgl\src\lv_draw/lv_img_buf.c ****     else if(dsc->header.cf == LV_IMG_CF_ALPHA_8BIT) {
 638              		.loc 1 227 0
 639 00ec 0E2C     		cmp	r4, #14
 640 00ee 05D1     		bne	.L23
 641              	.LBB49:
 228:lvgl\src\lv_draw/lv_img_buf.c ****         uint32_t px = dsc->header.w * y + x;
 642              		.loc 1 228 0
 643 00f0 0068     		ldr	r0, [r0]
 644              	.LVL115:
 645 00f2 C0F38A20 		ubfx	r0, r0, #10, #11
 646 00f6 02FB0011 		mla	r1, r2, r0, r1
 647              	.LVL116:
 229:lvgl\src\lv_draw/lv_img_buf.c ****         buf_u8[px]  = opa;
 648              		.loc 1 229 0
 649 00fa 6B54     		strb	r3, [r5, r1]
 650              	.LVL117:
 651              	.L23:
 652 00fc BDE8F081 		pop	{r4, r5, r6, r7, r8, pc}
 653              	.LBE49:
 654              		.cfi_endproc
 655              	.LFE39:
 656              		.size	lv_img_buf_set_px_alpha, .-lv_img_buf_set_px_alpha
 657              		.section	.text.lv_img_buf_set_px_color,"ax",%progbits
 658              		.align	2
 659              		.global	lv_img_buf_set_px_color
 660              		.thumb
 661              		.thumb_func
 662              		.type	lv_img_buf_set_px_color, %function
 663              	lv_img_buf_set_px_color:
 664              	.LFB40:
 230:lvgl\src\lv_draw/lv_img_buf.c ****     }
 231:lvgl\src\lv_draw/lv_img_buf.c **** }
 232:lvgl\src\lv_draw/lv_img_buf.c **** 
 233:lvgl\src\lv_draw/lv_img_buf.c **** /**
 234:lvgl\src\lv_draw/lv_img_buf.c ****  * Set the color of a pixel of an image. The alpha channel won't be affected.
 235:lvgl\src\lv_draw/lv_img_buf.c ****  * @param dsc pointer to an image descriptor
 236:lvgl\src\lv_draw/lv_img_buf.c ****  * @param x x coordinate of the point to set
 237:lvgl\src\lv_draw/lv_img_buf.c ****  * @param y x coordinate of the point to set
 238:lvgl\src\lv_draw/lv_img_buf.c ****  * @param c color of the point
 239:lvgl\src\lv_draw/lv_img_buf.c ****  * @param safe true: check out of bounds
 240:lvgl\src\lv_draw/lv_img_buf.c ****  */
 241:lvgl\src\lv_draw/lv_img_buf.c **** void lv_img_buf_set_px_color(lv_img_dsc_t * dsc, lv_coord_t x, lv_coord_t y, lv_color_t c)
 242:lvgl\src\lv_draw/lv_img_buf.c **** {
 665              		.loc 1 242 0
 666              		.cfi_startproc
 667              		@ args = 0, pretend = 0, frame = 8
 668              		@ frame_needed = 0, uses_anonymous_args = 0
 669              	.LVL118:
 670 0000 F0B5     		push	{r4, r5, r6, r7, lr}
 671              		.cfi_def_cfa_offset 20
 672              		.cfi_offset 4, -20
ARM GAS  C:\Users\strap\AppData\Local\Temp\ccvWLEyq.s 			page 21


 673              		.cfi_offset 5, -16
 674              		.cfi_offset 6, -12
 675              		.cfi_offset 7, -8
 676              		.cfi_offset 14, -4
 677 0002 83B0     		sub	sp, sp, #12
 678              		.cfi_def_cfa_offset 32
 679 0004 0746     		mov	r7, r0
 680 0006 0D46     		mov	r5, r1
 681 0008 1646     		mov	r6, r2
 682 000a ADF80430 		strh	r3, [sp, #4]	@ movhi
 243:lvgl\src\lv_draw/lv_img_buf.c ****     uint8_t * buf_u8 = (uint8_t *)dsc->data;
 683              		.loc 1 243 0
 684 000e 8468     		ldr	r4, [r0, #8]
 685              	.LVL119:
 244:lvgl\src\lv_draw/lv_img_buf.c **** 
 245:lvgl\src\lv_draw/lv_img_buf.c ****     if(dsc->header.cf == LV_IMG_CF_TRUE_COLOR || dsc->header.cf == LV_IMG_CF_TRUE_COLOR_CHROMA_KEYE
 686              		.loc 1 245 0
 687 0010 0378     		ldrb	r3, [r0]	@ zero_extendqisi2
 688 0012 03F01F03 		and	r3, r3, #31
 689 0016 042B     		cmp	r3, #4
 690 0018 01D0     		beq	.L31
 691              		.loc 1 245 0 is_stmt 0 discriminator 1
 692 001a 062B     		cmp	r3, #6
 693 001c 17D1     		bne	.L32
 694              	.L31:
 695              	.LBB50:
 246:lvgl\src\lv_draw/lv_img_buf.c ****         uint8_t px_size = lv_img_cf_get_px_size(dsc->header.cf) >> 3;
 696              		.loc 1 246 0 is_stmt 1
 697 001e 3878     		ldrb	r0, [r7]	@ zero_extendqisi2
 698              	.LVL120:
 699 0020 00F01F00 		and	r0, r0, #31
 700 0024 FFF7FEFF 		bl	lv_img_cf_get_px_size
 701              	.LVL121:
 702 0028 C0F3C700 		ubfx	r0, r0, #3, #8
 703              	.LVL122:
 247:lvgl\src\lv_draw/lv_img_buf.c ****         uint32_t px     = dsc->header.w * y * px_size + x * px_size;
 704              		.loc 1 247 0
 705 002c 3A68     		ldr	r2, [r7]
 706 002e C2F38A22 		ubfx	r2, r2, #10, #11
 707 0032 06FB0252 		mla	r2, r6, r2, r5
 708              	.LVL123:
 248:lvgl\src\lv_draw/lv_img_buf.c ****         _lv_memcpy_small(&buf_u8[px], &c, px_size);
 709              		.loc 1 248 0
 710 0036 00FB0242 		mla	r2, r0, r2, r4
 711              	.LVL124:
 712              	.LBB51:
 713              	.LBB52:
 217:lvgl\src\lv_draw\../lv_misc/lv_mem.h **** 
 714              		.loc 2 217 0
 715 003a 01AB     		add	r3, sp, #4
 716              	.LVL125:
 717 003c 04E0     		b	.L33
 718              	.LVL126:
 719              	.L34:
 220:lvgl\src\lv_draw\../lv_misc/lv_mem.h ****         d8++;
 720              		.loc 2 220 0
 721 003e 13F8011B 		ldrb	r1, [r3], #1	@ zero_extendqisi2
ARM GAS  C:\Users\strap\AppData\Local\Temp\ccvWLEyq.s 			page 22


 722              	.LVL127:
 723 0042 02F8011B 		strb	r1, [r2], #1
 724              	.LVL128:
 725              		.loc 2 223 0
 726 0046 0138     		subs	r0, r0, #1
 727              	.LVL129:
 728              	.L33:
 219:lvgl\src\lv_draw\../lv_misc/lv_mem.h ****         *d8 = *s8;
 729              		.loc 2 219 0
 730 0048 0028     		cmp	r0, #0
 731 004a F8D1     		bne	.L34
 732 004c 8CE0     		b	.L30
 733              	.LVL130:
 734              	.L32:
 735              	.LBE52:
 736              	.LBE51:
 737              	.LBE50:
 249:lvgl\src\lv_draw/lv_img_buf.c ****     }
 250:lvgl\src\lv_draw/lv_img_buf.c ****     else if(dsc->header.cf == LV_IMG_CF_TRUE_COLOR_ALPHA) {
 738              		.loc 1 250 0
 739 004e 052B     		cmp	r3, #5
 740 0050 18D1     		bne	.L36
 741              	.LBB53:
 251:lvgl\src\lv_draw/lv_img_buf.c ****         uint8_t px_size = lv_img_cf_get_px_size(dsc->header.cf) >> 3;
 742              		.loc 1 251 0
 743 0052 0078     		ldrb	r0, [r0]	@ zero_extendqisi2
 744              	.LVL131:
 745 0054 00F01F00 		and	r0, r0, #31
 746 0058 FFF7FEFF 		bl	lv_img_cf_get_px_size
 747              	.LVL132:
 748 005c C0F3C700 		ubfx	r0, r0, #3, #8
 749              	.LVL133:
 252:lvgl\src\lv_draw/lv_img_buf.c ****         uint32_t px     = dsc->header.w * y * px_size + x * px_size;
 750              		.loc 1 252 0
 751 0060 3A68     		ldr	r2, [r7]
 752 0062 C2F38A22 		ubfx	r2, r2, #10, #11
 753 0066 06FB0252 		mla	r2, r6, r2, r5
 754              	.LVL134:
 253:lvgl\src\lv_draw/lv_img_buf.c ****         _lv_memcpy_small(&buf_u8[px], &c, px_size - 1); /*-1 to not overwrite the alpha value*/
 755              		.loc 1 253 0
 756 006a 00FB0242 		mla	r2, r0, r2, r4
 757              	.LVL135:
 758 006e 0138     		subs	r0, r0, #1
 759              	.LVL136:
 760              	.LBB54:
 761              	.LBB55:
 217:lvgl\src\lv_draw\../lv_misc/lv_mem.h **** 
 762              		.loc 2 217 0
 763 0070 01AB     		add	r3, sp, #4
 764              	.LVL137:
 765 0072 04E0     		b	.L37
 766              	.LVL138:
 767              	.L38:
 220:lvgl\src\lv_draw\../lv_misc/lv_mem.h ****         d8++;
 768              		.loc 2 220 0
 769 0074 13F8011B 		ldrb	r1, [r3], #1	@ zero_extendqisi2
 770              	.LVL139:
ARM GAS  C:\Users\strap\AppData\Local\Temp\ccvWLEyq.s 			page 23


 771 0078 02F8011B 		strb	r1, [r2], #1
 772              	.LVL140:
 773              		.loc 2 223 0
 774 007c 0138     		subs	r0, r0, #1
 775              	.LVL141:
 776              	.L37:
 219:lvgl\src\lv_draw\../lv_misc/lv_mem.h ****         *d8 = *s8;
 777              		.loc 2 219 0
 778 007e 0028     		cmp	r0, #0
 779 0080 F8D1     		bne	.L38
 780 0082 71E0     		b	.L30
 781              	.LVL142:
 782              	.L36:
 783              	.LBE55:
 784              	.LBE54:
 785              	.LBE53:
 254:lvgl\src\lv_draw/lv_img_buf.c ****     }
 255:lvgl\src\lv_draw/lv_img_buf.c ****     else if(dsc->header.cf == LV_IMG_CF_INDEXED_1BIT) {
 786              		.loc 1 255 0
 787 0084 072B     		cmp	r3, #7
 788 0086 1ED1     		bne	.L39
 789              	.LBB56:
 256:lvgl\src\lv_draw/lv_img_buf.c ****         buf_u8 += sizeof(lv_color32_t) * 2; /*Skip the palette*/
 790              		.loc 1 256 0
 791 0088 04F10802 		add	r2, r4, #8
 792              	.LVL143:
 257:lvgl\src\lv_draw/lv_img_buf.c **** 
 258:lvgl\src\lv_draw/lv_img_buf.c ****         uint8_t bit = x & 0x7;
 793              		.loc 1 258 0
 794 008c 01F00700 		and	r0, r1, #7
 795              	.LVL144:
 259:lvgl\src\lv_draw/lv_img_buf.c ****         x           = x >> 3;
 260:lvgl\src\lv_draw/lv_img_buf.c **** 
 261:lvgl\src\lv_draw/lv_img_buf.c ****         /* Get the current pixel.
 262:lvgl\src\lv_draw/lv_img_buf.c ****          * dsc->header.w + 7 means rounding up to 8 because the lines are byte aligned
 263:lvgl\src\lv_draw/lv_img_buf.c ****          * so the possible real width are 8 ,16, 24 ...*/
 264:lvgl\src\lv_draw/lv_img_buf.c ****         uint32_t px = ((dsc->header.w + 7) >> 3) * y + x;
 796              		.loc 1 264 0
 797 0090 3B68     		ldr	r3, [r7]
 798 0092 C3F38A23 		ubfx	r3, r3, #10, #11
 799 0096 0733     		adds	r3, r3, #7
 800 0098 DB10     		asrs	r3, r3, #3
 801 009a 03FB06F6 		mul	r6, r3, r6
 802 009e 06EBE105 		add	r5, r6, r1, asr #3
 803              	.LVL145:
 265:lvgl\src\lv_draw/lv_img_buf.c ****         buf_u8[px]  = buf_u8[px] & ~(1 << (7 - bit));
 804              		.loc 1 265 0
 805 00a2 515D     		ldrb	r1, [r2, r5]	@ zero_extendqisi2
 806              	.LVL146:
 807 00a4 C0F10703 		rsb	r3, r0, #7
 808 00a8 0120     		movs	r0, #1
 809              	.LVL147:
 810 00aa 9840     		lsls	r0, r0, r3
 811 00ac 21EA0000 		bic	r0, r1, r0
 812 00b0 40B2     		sxtb	r0, r0
 813 00b2 5055     		strb	r0, [r2, r5]
 266:lvgl\src\lv_draw/lv_img_buf.c ****         buf_u8[px]  = buf_u8[px] | ((c.full & 0x1) << (7 - bit));
ARM GAS  C:\Users\strap\AppData\Local\Temp\ccvWLEyq.s 			page 24


 814              		.loc 1 266 0
 815 00b4 BDF80410 		ldrh	r1, [sp, #4]
 816 00b8 01F00101 		and	r1, r1, #1
 817 00bc 01FA03F3 		lsl	r3, r1, r3
 818 00c0 0343     		orrs	r3, r3, r0
 819 00c2 5355     		strb	r3, [r2, r5]
 820              	.LBE56:
 821 00c4 50E0     		b	.L30
 822              	.LVL148:
 823              	.L39:
 267:lvgl\src\lv_draw/lv_img_buf.c ****     }
 268:lvgl\src\lv_draw/lv_img_buf.c ****     else if(dsc->header.cf == LV_IMG_CF_INDEXED_2BIT) {
 824              		.loc 1 268 0
 825 00c6 082B     		cmp	r3, #8
 826 00c8 1FD1     		bne	.L40
 827              	.LBB57:
 269:lvgl\src\lv_draw/lv_img_buf.c ****         buf_u8 += sizeof(lv_color32_t) * 4; /*Skip the palette*/
 828              		.loc 1 269 0
 829 00ca 04F11002 		add	r2, r4, #16
 830              	.LVL149:
 270:lvgl\src\lv_draw/lv_img_buf.c ****         uint8_t bit = (x & 0x3) * 2;
 831              		.loc 1 270 0
 832 00ce 01F00303 		and	r3, r1, #3
 833 00d2 5800     		lsls	r0, r3, #1
 834              	.LVL150:
 271:lvgl\src\lv_draw/lv_img_buf.c ****         x           = x >> 2;
 272:lvgl\src\lv_draw/lv_img_buf.c **** 
 273:lvgl\src\lv_draw/lv_img_buf.c ****         /* Get the current pixel.
 274:lvgl\src\lv_draw/lv_img_buf.c ****          * dsc->header.w + 3 means rounding up to 4 because the lines are byte aligned
 275:lvgl\src\lv_draw/lv_img_buf.c ****          * so the possible real width are 4, 8 ,12 ...*/
 276:lvgl\src\lv_draw/lv_img_buf.c ****         uint32_t px = ((dsc->header.w + 3) >> 2) * y + x;
 835              		.loc 1 276 0
 836 00d4 3B68     		ldr	r3, [r7]
 837 00d6 C3F38A23 		ubfx	r3, r3, #10, #11
 838 00da 0333     		adds	r3, r3, #3
 839 00dc 9B10     		asrs	r3, r3, #2
 840 00de 03FB06F6 		mul	r6, r3, r6
 841 00e2 06EBA105 		add	r5, r6, r1, asr #2
 842              	.LVL151:
 277:lvgl\src\lv_draw/lv_img_buf.c **** 
 278:lvgl\src\lv_draw/lv_img_buf.c ****         buf_u8[px] = buf_u8[px] & ~(3 << (6 - bit));
 843              		.loc 1 278 0
 844 00e6 515D     		ldrb	r1, [r2, r5]	@ zero_extendqisi2
 845              	.LVL152:
 846 00e8 C0F10603 		rsb	r3, r0, #6
 847 00ec 0320     		movs	r0, #3
 848              	.LVL153:
 849 00ee 9840     		lsls	r0, r0, r3
 850 00f0 21EA0000 		bic	r0, r1, r0
 851 00f4 40B2     		sxtb	r0, r0
 852 00f6 5055     		strb	r0, [r2, r5]
 279:lvgl\src\lv_draw/lv_img_buf.c ****         buf_u8[px] = buf_u8[px] | ((c.full & 0x3) << (6 - bit));
 853              		.loc 1 279 0
 854 00f8 BDF80410 		ldrh	r1, [sp, #4]
 855 00fc 01F00301 		and	r1, r1, #3
 856 0100 01FA03F3 		lsl	r3, r1, r3
 857 0104 0343     		orrs	r3, r3, r0
ARM GAS  C:\Users\strap\AppData\Local\Temp\ccvWLEyq.s 			page 25


 858 0106 5355     		strb	r3, [r2, r5]
 859              	.LBE57:
 860 0108 2EE0     		b	.L30
 861              	.LVL154:
 862              	.L40:
 280:lvgl\src\lv_draw/lv_img_buf.c ****     }
 281:lvgl\src\lv_draw/lv_img_buf.c ****     else if(dsc->header.cf == LV_IMG_CF_INDEXED_4BIT) {
 863              		.loc 1 281 0
 864 010a 092B     		cmp	r3, #9
 865 010c 20D1     		bne	.L41
 866              	.LBB58:
 282:lvgl\src\lv_draw/lv_img_buf.c ****         buf_u8 += sizeof(lv_color32_t) * 16; /*Skip the palette*/
 867              		.loc 1 282 0
 868 010e 04F14002 		add	r2, r4, #64
 869              	.LVL155:
 283:lvgl\src\lv_draw/lv_img_buf.c ****         uint8_t bit = (x & 0x1) * 4;
 870              		.loc 1 283 0
 871 0112 01F00103 		and	r3, r1, #1
 872 0116 9B00     		lsls	r3, r3, #2
 873 0118 D9B2     		uxtb	r1, r3
 874              	.LVL156:
 284:lvgl\src\lv_draw/lv_img_buf.c ****         x           = x >> 1;
 285:lvgl\src\lv_draw/lv_img_buf.c **** 
 286:lvgl\src\lv_draw/lv_img_buf.c ****         /* Get the current pixel.
 287:lvgl\src\lv_draw/lv_img_buf.c ****          * dsc->header.w + 1 means rounding up to 2 because the lines are byte aligned
 288:lvgl\src\lv_draw/lv_img_buf.c ****          * so the possible real width are 2 ,4, 6 ...*/
 289:lvgl\src\lv_draw/lv_img_buf.c ****         uint32_t px = ((dsc->header.w + 1) >> 1) * y + x;
 875              		.loc 1 289 0
 876 011a 0368     		ldr	r3, [r0]
 877 011c C3F38A23 		ubfx	r3, r3, #10, #11
 878 0120 0133     		adds	r3, r3, #1
 879 0122 5B10     		asrs	r3, r3, #1
 880 0124 03FB06F6 		mul	r6, r3, r6
 881 0128 06EB6505 		add	r5, r6, r5, asr #1
 882              	.LVL157:
 290:lvgl\src\lv_draw/lv_img_buf.c ****         buf_u8[px]  = buf_u8[px] & ~(0xF << (4 - bit));
 883              		.loc 1 290 0
 884 012c 545D     		ldrb	r4, [r2, r5]	@ zero_extendqisi2
 885 012e C1F10403 		rsb	r3, r1, #4
 886 0132 0F20     		movs	r0, #15
 887              	.LVL158:
 888 0134 9840     		lsls	r0, r0, r3
 889 0136 24EA0000 		bic	r0, r4, r0
 890 013a 40B2     		sxtb	r0, r0
 891 013c 5055     		strb	r0, [r2, r5]
 291:lvgl\src\lv_draw/lv_img_buf.c ****         buf_u8[px]  = buf_u8[px] | ((c.full & 0xF) << (4 - bit));
 892              		.loc 1 291 0
 893 013e BDF80410 		ldrh	r1, [sp, #4]
 894              	.LVL159:
 895 0142 01F00F01 		and	r1, r1, #15
 896 0146 01FA03F3 		lsl	r3, r1, r3
 897 014a 0343     		orrs	r3, r3, r0
 898 014c 5355     		strb	r3, [r2, r5]
 899              	.LBE58:
 900 014e 0BE0     		b	.L30
 901              	.LVL160:
 902              	.L41:
ARM GAS  C:\Users\strap\AppData\Local\Temp\ccvWLEyq.s 			page 26


 292:lvgl\src\lv_draw/lv_img_buf.c ****     }
 293:lvgl\src\lv_draw/lv_img_buf.c ****     else if(dsc->header.cf == LV_IMG_CF_INDEXED_8BIT) {
 903              		.loc 1 293 0
 904 0150 0A2B     		cmp	r3, #10
 905 0152 09D1     		bne	.L30
 906              	.LVL161:
 907              	.LBB59:
 294:lvgl\src\lv_draw/lv_img_buf.c ****         buf_u8 += sizeof(lv_color32_t) * 256; /*Skip the palette*/
 295:lvgl\src\lv_draw/lv_img_buf.c ****         uint32_t px = dsc->header.w * y + x;
 908              		.loc 1 295 0
 909 0154 0268     		ldr	r2, [r0]
 910              	.LVL162:
 911 0156 C2F38A22 		ubfx	r2, r2, #10, #11
 912 015a 06FB0212 		mla	r2, r6, r2, r1
 913              	.LVL163:
 296:lvgl\src\lv_draw/lv_img_buf.c ****         buf_u8[px]  = c.full;
 914              		.loc 1 296 0
 915 015e 02F58062 		add	r2, r2, #1024
 916              	.LVL164:
 917 0162 BDF80430 		ldrh	r3, [sp, #4]
 918 0166 A354     		strb	r3, [r4, r2]
 919              	.LVL165:
 920              	.L30:
 921              	.LBE59:
 297:lvgl\src\lv_draw/lv_img_buf.c ****     }
 298:lvgl\src\lv_draw/lv_img_buf.c **** }
 922              		.loc 1 298 0
 923 0168 03B0     		add	sp, sp, #12
 924              		.cfi_def_cfa_offset 20
 925              		@ sp needed
 926 016a F0BD     		pop	{r4, r5, r6, r7, pc}
 927              		.cfi_endproc
 928              	.LFE40:
 929              		.size	lv_img_buf_set_px_color, .-lv_img_buf_set_px_color
 930              		.section	.text.lv_img_buf_set_palette,"ax",%progbits
 931              		.align	2
 932              		.global	lv_img_buf_set_palette
 933              		.thumb
 934              		.thumb_func
 935              		.type	lv_img_buf_set_palette, %function
 936              	lv_img_buf_set_palette:
 937              	.LFB41:
 299:lvgl\src\lv_draw/lv_img_buf.c **** 
 300:lvgl\src\lv_draw/lv_img_buf.c **** /**
 301:lvgl\src\lv_draw/lv_img_buf.c ****  * Set the palette color of an indexed image. Valid only for `LV_IMG_CF_INDEXED1/2/4/8`
 302:lvgl\src\lv_draw/lv_img_buf.c ****  * @param dsc pointer to an image descriptor
 303:lvgl\src\lv_draw/lv_img_buf.c ****  * @param id the palette color to set:
 304:lvgl\src\lv_draw/lv_img_buf.c ****  *   - for `LV_IMG_CF_INDEXED1`: 0..1
 305:lvgl\src\lv_draw/lv_img_buf.c ****  *   - for `LV_IMG_CF_INDEXED2`: 0..3
 306:lvgl\src\lv_draw/lv_img_buf.c ****  *   - for `LV_IMG_CF_INDEXED4`: 0..15
 307:lvgl\src\lv_draw/lv_img_buf.c ****  *   - for `LV_IMG_CF_INDEXED8`: 0..255
 308:lvgl\src\lv_draw/lv_img_buf.c ****  * @param c the color to set
 309:lvgl\src\lv_draw/lv_img_buf.c ****  */
 310:lvgl\src\lv_draw/lv_img_buf.c **** void lv_img_buf_set_palette(lv_img_dsc_t * dsc, uint8_t id, lv_color_t c)
 311:lvgl\src\lv_draw/lv_img_buf.c **** {
 938              		.loc 1 311 0
 939              		.cfi_startproc
ARM GAS  C:\Users\strap\AppData\Local\Temp\ccvWLEyq.s 			page 27


 940              		@ args = 0, pretend = 0, frame = 8
 941              		@ frame_needed = 0, uses_anonymous_args = 0
 942              		@ link register save eliminated.
 943              	.LVL166:
 312:lvgl\src\lv_draw/lv_img_buf.c ****     if((dsc->header.cf == LV_IMG_CF_ALPHA_1BIT && id > 1) || (dsc->header.cf == LV_IMG_CF_ALPHA_2BI
 944              		.loc 1 312 0
 945 0000 0378     		ldrb	r3, [r0]	@ zero_extendqisi2
 946 0002 03F01F03 		and	r3, r3, #31
 947 0006 0B2B     		cmp	r3, #11
 948 0008 01D1     		bne	.L44
 949              		.loc 1 312 0 is_stmt 0 discriminator 1
 950 000a 0129     		cmp	r1, #1
 951 000c 41D8     		bhi	.L53
 952              	.L44:
 953              		.loc 1 312 0 discriminator 3
 954 000e 0C2B     		cmp	r3, #12
 955 0010 01D1     		bne	.L46
 956              		.loc 1 312 0 discriminator 4
 957 0012 0329     		cmp	r1, #3
 958 0014 3DD8     		bhi	.L53
 959              	.L46:
 960              		.loc 1 312 0 discriminator 6
 961 0016 0D2B     		cmp	r3, #13
 962 0018 01D1     		bne	.L47
 313:lvgl\src\lv_draw/lv_img_buf.c ****        (dsc->header.cf == LV_IMG_CF_ALPHA_4BIT && id > 15) || (dsc->header.cf == LV_IMG_CF_ALPHA_8B
 963              		.loc 1 313 0 is_stmt 1
 964 001a 0F29     		cmp	r1, #15
 965 001c 39D8     		bhi	.L53
 966              	.L47:
 967              		.loc 1 313 0 is_stmt 0 discriminator 1
 968 001e 0E2B     		cmp	r3, #14
 969 0020 37D0     		beq	.L53
 311:lvgl\src\lv_draw/lv_img_buf.c ****     if((dsc->header.cf == LV_IMG_CF_ALPHA_1BIT && id > 1) || (dsc->header.cf == LV_IMG_CF_ALPHA_2BI
 970              		.loc 1 311 0 is_stmt 1
 971 0022 30B4     		push	{r4, r5}
 972              		.cfi_def_cfa_offset 8
 973              		.cfi_offset 4, -8
 974              		.cfi_offset 5, -4
 975 0024 82B0     		sub	sp, sp, #8
 976              		.cfi_def_cfa_offset 16
 977              	.LBB60:
 978              	.LBB61:
 979              		.file 3 "lvgl\\src\\lv_draw\\../lv_misc/lv_color.h"
   1:lvgl\src\lv_draw\../lv_misc/lv_color.h **** /**
   2:lvgl\src\lv_draw\../lv_misc/lv_color.h ****  * @file lv_color.h
   3:lvgl\src\lv_draw\../lv_misc/lv_color.h ****  *
   4:lvgl\src\lv_draw\../lv_misc/lv_color.h ****  */
   5:lvgl\src\lv_draw\../lv_misc/lv_color.h **** 
   6:lvgl\src\lv_draw\../lv_misc/lv_color.h **** #ifndef LV_COLOR_H
   7:lvgl\src\lv_draw\../lv_misc/lv_color.h **** #define LV_COLOR_H
   8:lvgl\src\lv_draw\../lv_misc/lv_color.h **** 
   9:lvgl\src\lv_draw\../lv_misc/lv_color.h **** #ifdef __cplusplus
  10:lvgl\src\lv_draw\../lv_misc/lv_color.h **** extern "C" {
  11:lvgl\src\lv_draw\../lv_misc/lv_color.h **** #endif
  12:lvgl\src\lv_draw\../lv_misc/lv_color.h **** 
  13:lvgl\src\lv_draw\../lv_misc/lv_color.h **** /*********************
  14:lvgl\src\lv_draw\../lv_misc/lv_color.h ****  *      INCLUDES
ARM GAS  C:\Users\strap\AppData\Local\Temp\ccvWLEyq.s 			page 28


  15:lvgl\src\lv_draw\../lv_misc/lv_color.h ****  *********************/
  16:lvgl\src\lv_draw\../lv_misc/lv_color.h **** #include "../lv_conf_internal.h"
  17:lvgl\src\lv_draw\../lv_misc/lv_color.h **** #include "lv_math.h"
  18:lvgl\src\lv_draw\../lv_misc/lv_color.h **** 
  19:lvgl\src\lv_draw\../lv_misc/lv_color.h **** /*Error checking*/
  20:lvgl\src\lv_draw\../lv_misc/lv_color.h **** #if LV_COLOR_DEPTH == 24
  21:lvgl\src\lv_draw\../lv_misc/lv_color.h **** #error "LV_COLOR_DEPTH  24 is deprecated. Use LV_COLOR_DEPTH  32 instead (lv_conf.h)"
  22:lvgl\src\lv_draw\../lv_misc/lv_color.h **** #endif
  23:lvgl\src\lv_draw\../lv_misc/lv_color.h **** 
  24:lvgl\src\lv_draw\../lv_misc/lv_color.h **** #if LV_COLOR_DEPTH != 32 && LV_COLOR_SCREEN_TRANSP != 0
  25:lvgl\src\lv_draw\../lv_misc/lv_color.h **** #error "LV_COLOR_SCREEN_TRANSP requires LV_COLOR_DEPTH == 32. Set it in lv_conf.h"
  26:lvgl\src\lv_draw\../lv_misc/lv_color.h **** #endif
  27:lvgl\src\lv_draw\../lv_misc/lv_color.h **** 
  28:lvgl\src\lv_draw\../lv_misc/lv_color.h **** #if LV_COLOR_DEPTH != 16 && LV_COLOR_16_SWAP != 0
  29:lvgl\src\lv_draw\../lv_misc/lv_color.h **** #error "LV_COLOR_16_SWAP requires LV_COLOR_DEPTH == 16. Set it in lv_conf.h"
  30:lvgl\src\lv_draw\../lv_misc/lv_color.h **** #endif
  31:lvgl\src\lv_draw\../lv_misc/lv_color.h **** 
  32:lvgl\src\lv_draw\../lv_misc/lv_color.h **** #include <stdint.h>
  33:lvgl\src\lv_draw\../lv_misc/lv_color.h **** 
  34:lvgl\src\lv_draw\../lv_misc/lv_color.h **** /*********************
  35:lvgl\src\lv_draw\../lv_misc/lv_color.h ****  *      DEFINES
  36:lvgl\src\lv_draw\../lv_misc/lv_color.h ****  *********************/
  37:lvgl\src\lv_draw\../lv_misc/lv_color.h **** #define LV_COLOR_WHITE LV_COLOR_MAKE(0xFF, 0xFF, 0xFF)
  38:lvgl\src\lv_draw\../lv_misc/lv_color.h **** #define LV_COLOR_SILVER LV_COLOR_MAKE(0xC0, 0xC0, 0xC0)
  39:lvgl\src\lv_draw\../lv_misc/lv_color.h **** #define LV_COLOR_GRAY LV_COLOR_MAKE(0x80, 0x80, 0x80)
  40:lvgl\src\lv_draw\../lv_misc/lv_color.h **** #define LV_COLOR_BLACK LV_COLOR_MAKE(0x00, 0x00, 0x00)
  41:lvgl\src\lv_draw\../lv_misc/lv_color.h **** #define LV_COLOR_RED LV_COLOR_MAKE(0xFF, 0x00, 0x00)
  42:lvgl\src\lv_draw\../lv_misc/lv_color.h **** #define LV_COLOR_MAROON LV_COLOR_MAKE(0x80, 0x00, 0x00)
  43:lvgl\src\lv_draw\../lv_misc/lv_color.h **** #define LV_COLOR_YELLOW LV_COLOR_MAKE(0xFF, 0xFF, 0x00)
  44:lvgl\src\lv_draw\../lv_misc/lv_color.h **** #define LV_COLOR_OLIVE LV_COLOR_MAKE(0x80, 0x80, 0x00)
  45:lvgl\src\lv_draw\../lv_misc/lv_color.h **** #define LV_COLOR_LIME LV_COLOR_MAKE(0x00, 0xFF, 0x00)
  46:lvgl\src\lv_draw\../lv_misc/lv_color.h **** #define LV_COLOR_GREEN LV_COLOR_MAKE(0x00, 0x80, 0x00)
  47:lvgl\src\lv_draw\../lv_misc/lv_color.h **** #define LV_COLOR_CYAN LV_COLOR_MAKE(0x00, 0xFF, 0xFF)
  48:lvgl\src\lv_draw\../lv_misc/lv_color.h **** #define LV_COLOR_AQUA LV_COLOR_CYAN
  49:lvgl\src\lv_draw\../lv_misc/lv_color.h **** #define LV_COLOR_TEAL LV_COLOR_MAKE(0x00, 0x80, 0x80)
  50:lvgl\src\lv_draw\../lv_misc/lv_color.h **** #define LV_COLOR_BLUE LV_COLOR_MAKE(0x00, 0x00, 0xFF)
  51:lvgl\src\lv_draw\../lv_misc/lv_color.h **** #define LV_COLOR_NAVY LV_COLOR_MAKE(0x00, 0x00, 0x80)
  52:lvgl\src\lv_draw\../lv_misc/lv_color.h **** #define LV_COLOR_MAGENTA LV_COLOR_MAKE(0xFF, 0x00, 0xFF)
  53:lvgl\src\lv_draw\../lv_misc/lv_color.h **** #define LV_COLOR_PURPLE LV_COLOR_MAKE(0x80, 0x00, 0x80)
  54:lvgl\src\lv_draw\../lv_misc/lv_color.h **** #define LV_COLOR_ORANGE LV_COLOR_MAKE(0xFF, 0xA5, 0x00)
  55:lvgl\src\lv_draw\../lv_misc/lv_color.h **** 
  56:lvgl\src\lv_draw\../lv_misc/lv_color.h **** /**
  57:lvgl\src\lv_draw\../lv_misc/lv_color.h ****  * Opacity percentages.
  58:lvgl\src\lv_draw\../lv_misc/lv_color.h ****  */
  59:lvgl\src\lv_draw\../lv_misc/lv_color.h **** enum {
  60:lvgl\src\lv_draw\../lv_misc/lv_color.h ****     LV_OPA_TRANSP = 0,
  61:lvgl\src\lv_draw\../lv_misc/lv_color.h ****     LV_OPA_0      = 0,
  62:lvgl\src\lv_draw\../lv_misc/lv_color.h ****     LV_OPA_10     = 25,
  63:lvgl\src\lv_draw\../lv_misc/lv_color.h ****     LV_OPA_20     = 51,
  64:lvgl\src\lv_draw\../lv_misc/lv_color.h ****     LV_OPA_30     = 76,
  65:lvgl\src\lv_draw\../lv_misc/lv_color.h ****     LV_OPA_40     = 102,
  66:lvgl\src\lv_draw\../lv_misc/lv_color.h ****     LV_OPA_50     = 127,
  67:lvgl\src\lv_draw\../lv_misc/lv_color.h ****     LV_OPA_60     = 153,
  68:lvgl\src\lv_draw\../lv_misc/lv_color.h ****     LV_OPA_70     = 178,
  69:lvgl\src\lv_draw\../lv_misc/lv_color.h ****     LV_OPA_80     = 204,
  70:lvgl\src\lv_draw\../lv_misc/lv_color.h ****     LV_OPA_90     = 229,
  71:lvgl\src\lv_draw\../lv_misc/lv_color.h ****     LV_OPA_100    = 255,
ARM GAS  C:\Users\strap\AppData\Local\Temp\ccvWLEyq.s 			page 29


  72:lvgl\src\lv_draw\../lv_misc/lv_color.h ****     LV_OPA_COVER  = 255,
  73:lvgl\src\lv_draw\../lv_misc/lv_color.h **** };
  74:lvgl\src\lv_draw\../lv_misc/lv_color.h **** 
  75:lvgl\src\lv_draw\../lv_misc/lv_color.h **** #define LV_OPA_MIN 2    /*Opacities below this will be transparent*/
  76:lvgl\src\lv_draw\../lv_misc/lv_color.h **** #define LV_OPA_MAX 253  /*Opacities above this will fully cover*/
  77:lvgl\src\lv_draw\../lv_misc/lv_color.h **** 
  78:lvgl\src\lv_draw\../lv_misc/lv_color.h **** #if LV_COLOR_DEPTH == 1
  79:lvgl\src\lv_draw\../lv_misc/lv_color.h **** #define LV_COLOR_SIZE 8
  80:lvgl\src\lv_draw\../lv_misc/lv_color.h **** #elif LV_COLOR_DEPTH == 8
  81:lvgl\src\lv_draw\../lv_misc/lv_color.h **** #define LV_COLOR_SIZE 8
  82:lvgl\src\lv_draw\../lv_misc/lv_color.h **** #elif LV_COLOR_DEPTH == 16
  83:lvgl\src\lv_draw\../lv_misc/lv_color.h **** #define LV_COLOR_SIZE 16
  84:lvgl\src\lv_draw\../lv_misc/lv_color.h **** #elif LV_COLOR_DEPTH == 32
  85:lvgl\src\lv_draw\../lv_misc/lv_color.h **** #define LV_COLOR_SIZE 32
  86:lvgl\src\lv_draw\../lv_misc/lv_color.h **** #else
  87:lvgl\src\lv_draw\../lv_misc/lv_color.h **** #error "Invalid LV_COLOR_DEPTH in lv_conf.h! Set it to 1, 8, 16 or 32!"
  88:lvgl\src\lv_draw\../lv_misc/lv_color.h **** #endif
  89:lvgl\src\lv_draw\../lv_misc/lv_color.h **** 
  90:lvgl\src\lv_draw\../lv_misc/lv_color.h **** 
  91:lvgl\src\lv_draw\../lv_misc/lv_color.h **** /* Adjust color mix functions rounding.
  92:lvgl\src\lv_draw\../lv_misc/lv_color.h ****  * GPUs might calculate color mix (blending) differently.
  93:lvgl\src\lv_draw\../lv_misc/lv_color.h ****  * Should be in range of 0..254
  94:lvgl\src\lv_draw\../lv_misc/lv_color.h ****  * 0: no adjustment, get the integer part of the result (round down)
  95:lvgl\src\lv_draw\../lv_misc/lv_color.h ****  * 64: round up from x.75
  96:lvgl\src\lv_draw\../lv_misc/lv_color.h ****  * 128: round up from half
  97:lvgl\src\lv_draw\../lv_misc/lv_color.h ****  * 192: round up from x.25
  98:lvgl\src\lv_draw\../lv_misc/lv_color.h ****  * 254: round up */
  99:lvgl\src\lv_draw\../lv_misc/lv_color.h **** #ifndef LV_COLOR_MIX_ROUND_OFS
 100:lvgl\src\lv_draw\../lv_misc/lv_color.h **** #if LV_COLOR_DEPTH == 32
 101:lvgl\src\lv_draw\../lv_misc/lv_color.h **** #define LV_COLOR_MIX_ROUND_OFS 0
 102:lvgl\src\lv_draw\../lv_misc/lv_color.h **** #else
 103:lvgl\src\lv_draw\../lv_misc/lv_color.h **** #define LV_COLOR_MIX_ROUND_OFS 128
 104:lvgl\src\lv_draw\../lv_misc/lv_color.h **** #endif
 105:lvgl\src\lv_draw\../lv_misc/lv_color.h **** #endif
 106:lvgl\src\lv_draw\../lv_misc/lv_color.h **** 
 107:lvgl\src\lv_draw\../lv_misc/lv_color.h **** /*---------------------------------------
 108:lvgl\src\lv_draw\../lv_misc/lv_color.h ****  * Macros for all existing  color depths
 109:lvgl\src\lv_draw\../lv_misc/lv_color.h ****  * to set/get values of the color channels
 110:lvgl\src\lv_draw\../lv_misc/lv_color.h ****  *------------------------------------------*/
 111:lvgl\src\lv_draw\../lv_misc/lv_color.h **** # define LV_COLOR_SET_R1(c, v) (c).ch.red = (uint8_t)((v) & 0x1);
 112:lvgl\src\lv_draw\../lv_misc/lv_color.h **** # define LV_COLOR_SET_G1(c, v) (c).ch.green = (uint8_t)((v) & 0x1);
 113:lvgl\src\lv_draw\../lv_misc/lv_color.h **** # define LV_COLOR_SET_B1(c, v) (c).ch.blue = (uint8_t)((v) & 0x1);
 114:lvgl\src\lv_draw\../lv_misc/lv_color.h **** # define LV_COLOR_SET_A1(c, v)
 115:lvgl\src\lv_draw\../lv_misc/lv_color.h **** 
 116:lvgl\src\lv_draw\../lv_misc/lv_color.h **** # define LV_COLOR_GET_R1(c) (c).ch.red
 117:lvgl\src\lv_draw\../lv_misc/lv_color.h **** # define LV_COLOR_GET_G1(c) (c).ch.green
 118:lvgl\src\lv_draw\../lv_misc/lv_color.h **** # define LV_COLOR_GET_B1(c) (c).ch.blue
 119:lvgl\src\lv_draw\../lv_misc/lv_color.h **** # define LV_COLOR_GET_A1(c) 1
 120:lvgl\src\lv_draw\../lv_misc/lv_color.h **** 
 121:lvgl\src\lv_draw\../lv_misc/lv_color.h **** # define LV_COLOR_SET_R8(c, v) (c).ch.red = (uint8_t)(v) & 0x7U;
 122:lvgl\src\lv_draw\../lv_misc/lv_color.h **** # define LV_COLOR_SET_G8(c, v) (c).ch.green = (uint8_t)(v) & 0x7U;
 123:lvgl\src\lv_draw\../lv_misc/lv_color.h **** # define LV_COLOR_SET_B8(c, v) (c).ch.blue = (uint8_t)(v) & 0x3U;
 124:lvgl\src\lv_draw\../lv_misc/lv_color.h **** # define LV_COLOR_SET_A8(c, v) do {} while(0)
 125:lvgl\src\lv_draw\../lv_misc/lv_color.h **** 
 126:lvgl\src\lv_draw\../lv_misc/lv_color.h **** # define LV_COLOR_GET_R8(c) (c).ch.red
 127:lvgl\src\lv_draw\../lv_misc/lv_color.h **** # define LV_COLOR_GET_G8(c) (c).ch.green
 128:lvgl\src\lv_draw\../lv_misc/lv_color.h **** # define LV_COLOR_GET_B8(c) (c).ch.blue
ARM GAS  C:\Users\strap\AppData\Local\Temp\ccvWLEyq.s 			page 30


 129:lvgl\src\lv_draw\../lv_misc/lv_color.h **** # define LV_COLOR_GET_A8(c) 0xFF
 130:lvgl\src\lv_draw\../lv_misc/lv_color.h **** 
 131:lvgl\src\lv_draw\../lv_misc/lv_color.h **** # define LV_COLOR_SET_R16(c, v) (c).ch.red = (uint8_t)(v) & 0x1FU;
 132:lvgl\src\lv_draw\../lv_misc/lv_color.h **** # define LV_COLOR_SET_G16(c, v) (c).ch.green = (uint8_t)(v) & 0x3FU;
 133:lvgl\src\lv_draw\../lv_misc/lv_color.h **** # define LV_COLOR_SET_G16_SWAP(c, v) {(c).ch.green_h = (uint8_t)(((v) >> 3) & 0x7); (c).ch.green_l 
 134:lvgl\src\lv_draw\../lv_misc/lv_color.h **** # define LV_COLOR_SET_B16(c, v) (c).ch.blue = (uint8_t)(v) & 0x1FU;
 135:lvgl\src\lv_draw\../lv_misc/lv_color.h **** # define LV_COLOR_SET_A16(c, v) do {} while(0)
 136:lvgl\src\lv_draw\../lv_misc/lv_color.h **** 
 137:lvgl\src\lv_draw\../lv_misc/lv_color.h **** # define LV_COLOR_GET_R16(c) (c).ch.red
 138:lvgl\src\lv_draw\../lv_misc/lv_color.h **** # define LV_COLOR_GET_G16(c) (c).ch.green
 139:lvgl\src\lv_draw\../lv_misc/lv_color.h **** # define LV_COLOR_GET_G16_SWAP(c) (((c).ch.green_h << 3) + (c).ch.green_l)
 140:lvgl\src\lv_draw\../lv_misc/lv_color.h **** # define LV_COLOR_GET_B16(c) (c).ch.blue
 141:lvgl\src\lv_draw\../lv_misc/lv_color.h **** # define LV_COLOR_GET_A16(c) 0xFF
 142:lvgl\src\lv_draw\../lv_misc/lv_color.h **** 
 143:lvgl\src\lv_draw\../lv_misc/lv_color.h **** # define LV_COLOR_SET_R32(c, v) (c).ch.red = (uint32_t)((v) & 0xFF);
 144:lvgl\src\lv_draw\../lv_misc/lv_color.h **** # define LV_COLOR_SET_G32(c, v) (c).ch.green = (uint32_t)((v) & 0xFF);
 145:lvgl\src\lv_draw\../lv_misc/lv_color.h **** # define LV_COLOR_SET_B32(c, v) (c).ch.blue = (uint32_t)((v) & 0xFF);
 146:lvgl\src\lv_draw\../lv_misc/lv_color.h **** # define LV_COLOR_SET_A32(c, v) (c).ch.alpha = (uint32_t)((v) & 0xFF);
 147:lvgl\src\lv_draw\../lv_misc/lv_color.h **** 
 148:lvgl\src\lv_draw\../lv_misc/lv_color.h **** # define LV_COLOR_GET_R32(c) (c).ch.red
 149:lvgl\src\lv_draw\../lv_misc/lv_color.h **** # define LV_COLOR_GET_G32(c) (c).ch.green
 150:lvgl\src\lv_draw\../lv_misc/lv_color.h **** # define LV_COLOR_GET_B32(c) (c).ch.blue
 151:lvgl\src\lv_draw\../lv_misc/lv_color.h **** # define LV_COLOR_GET_A32(c) (c).ch.alpha
 152:lvgl\src\lv_draw\../lv_misc/lv_color.h **** 
 153:lvgl\src\lv_draw\../lv_misc/lv_color.h **** 
 154:lvgl\src\lv_draw\../lv_misc/lv_color.h **** /*---------------------------------------
 155:lvgl\src\lv_draw\../lv_misc/lv_color.h ****  * Macros for the current color depth
 156:lvgl\src\lv_draw\../lv_misc/lv_color.h ****  * to set/get values of the color channels
 157:lvgl\src\lv_draw\../lv_misc/lv_color.h ****  *------------------------------------------*/
 158:lvgl\src\lv_draw\../lv_misc/lv_color.h **** #if LV_COLOR_DEPTH == 1
 159:lvgl\src\lv_draw\../lv_misc/lv_color.h **** # define LV_COLOR_SET_R(c, v) LV_COLOR_SET_R1(c,v)
 160:lvgl\src\lv_draw\../lv_misc/lv_color.h **** # define LV_COLOR_SET_G(c, v) LV_COLOR_SET_G1(c,v)
 161:lvgl\src\lv_draw\../lv_misc/lv_color.h **** # define LV_COLOR_SET_B(c, v) LV_COLOR_SET_B1(c,v)
 162:lvgl\src\lv_draw\../lv_misc/lv_color.h **** # define LV_COLOR_SET_A(c, v) LV_COLOR_SET_A1(c,v)
 163:lvgl\src\lv_draw\../lv_misc/lv_color.h **** 
 164:lvgl\src\lv_draw\../lv_misc/lv_color.h **** # define LV_COLOR_GET_R(c) LV_COLOR_GET_R1(c)
 165:lvgl\src\lv_draw\../lv_misc/lv_color.h **** # define LV_COLOR_GET_G(c) LV_COLOR_GET_G1(c)
 166:lvgl\src\lv_draw\../lv_misc/lv_color.h **** # define LV_COLOR_GET_B(c) LV_COLOR_GET_B1(c)
 167:lvgl\src\lv_draw\../lv_misc/lv_color.h **** # define LV_COLOR_GET_A(c) LV_COLOR_GET_A1(c)
 168:lvgl\src\lv_draw\../lv_misc/lv_color.h **** 
 169:lvgl\src\lv_draw\../lv_misc/lv_color.h **** #elif LV_COLOR_DEPTH == 8
 170:lvgl\src\lv_draw\../lv_misc/lv_color.h **** # define LV_COLOR_SET_R(c, v) LV_COLOR_SET_R8(c,v)
 171:lvgl\src\lv_draw\../lv_misc/lv_color.h **** # define LV_COLOR_SET_G(c, v) LV_COLOR_SET_G8(c,v)
 172:lvgl\src\lv_draw\../lv_misc/lv_color.h **** # define LV_COLOR_SET_B(c, v) LV_COLOR_SET_B8(c,v)
 173:lvgl\src\lv_draw\../lv_misc/lv_color.h **** # define LV_COLOR_SET_A(c, v) LV_COLOR_SET_A8(c,v)
 174:lvgl\src\lv_draw\../lv_misc/lv_color.h **** 
 175:lvgl\src\lv_draw\../lv_misc/lv_color.h **** # define LV_COLOR_GET_R(c) LV_COLOR_GET_R8(c)
 176:lvgl\src\lv_draw\../lv_misc/lv_color.h **** # define LV_COLOR_GET_G(c) LV_COLOR_GET_G8(c)
 177:lvgl\src\lv_draw\../lv_misc/lv_color.h **** # define LV_COLOR_GET_B(c) LV_COLOR_GET_B8(c)
 178:lvgl\src\lv_draw\../lv_misc/lv_color.h **** # define LV_COLOR_GET_A(c) LV_COLOR_GET_A8(c)
 179:lvgl\src\lv_draw\../lv_misc/lv_color.h **** 
 180:lvgl\src\lv_draw\../lv_misc/lv_color.h **** #elif LV_COLOR_DEPTH == 16
 181:lvgl\src\lv_draw\../lv_misc/lv_color.h **** # define LV_COLOR_SET_R(c, v) LV_COLOR_SET_R16(c,v)
 182:lvgl\src\lv_draw\../lv_misc/lv_color.h **** # if LV_COLOR_16_SWAP == 0
 183:lvgl\src\lv_draw\../lv_misc/lv_color.h **** #   define LV_COLOR_SET_G(c, v) LV_COLOR_SET_G16(c,v)
 184:lvgl\src\lv_draw\../lv_misc/lv_color.h **** # else
 185:lvgl\src\lv_draw\../lv_misc/lv_color.h **** #   define LV_COLOR_SET_G(c, v) LV_COLOR_SET_G16_SWAP(c,v)
ARM GAS  C:\Users\strap\AppData\Local\Temp\ccvWLEyq.s 			page 31


 186:lvgl\src\lv_draw\../lv_misc/lv_color.h **** # endif
 187:lvgl\src\lv_draw\../lv_misc/lv_color.h **** # define LV_COLOR_SET_B(c, v) LV_COLOR_SET_B16(c,v)
 188:lvgl\src\lv_draw\../lv_misc/lv_color.h **** # define LV_COLOR_SET_A(c, v) LV_COLOR_SET_A16(c,v)
 189:lvgl\src\lv_draw\../lv_misc/lv_color.h **** 
 190:lvgl\src\lv_draw\../lv_misc/lv_color.h **** # define LV_COLOR_GET_R(c) LV_COLOR_GET_R16(c)
 191:lvgl\src\lv_draw\../lv_misc/lv_color.h **** # if LV_COLOR_16_SWAP == 0
 192:lvgl\src\lv_draw\../lv_misc/lv_color.h **** #   define LV_COLOR_GET_G(c) LV_COLOR_GET_G16(c)
 193:lvgl\src\lv_draw\../lv_misc/lv_color.h **** # else
 194:lvgl\src\lv_draw\../lv_misc/lv_color.h **** #   define LV_COLOR_GET_G(c) LV_COLOR_GET_G16_SWAP(c)
 195:lvgl\src\lv_draw\../lv_misc/lv_color.h **** # endif
 196:lvgl\src\lv_draw\../lv_misc/lv_color.h **** # define LV_COLOR_GET_B(c)   LV_COLOR_GET_B16(c)
 197:lvgl\src\lv_draw\../lv_misc/lv_color.h **** # define LV_COLOR_GET_A(c)   LV_COLOR_GET_A16(c)
 198:lvgl\src\lv_draw\../lv_misc/lv_color.h **** 
 199:lvgl\src\lv_draw\../lv_misc/lv_color.h **** #elif LV_COLOR_DEPTH == 32
 200:lvgl\src\lv_draw\../lv_misc/lv_color.h **** # define LV_COLOR_SET_R(c, v) LV_COLOR_SET_R32(c,v)
 201:lvgl\src\lv_draw\../lv_misc/lv_color.h **** # define LV_COLOR_SET_G(c, v) LV_COLOR_SET_G32(c,v)
 202:lvgl\src\lv_draw\../lv_misc/lv_color.h **** # define LV_COLOR_SET_B(c, v) LV_COLOR_SET_B32(c,v)
 203:lvgl\src\lv_draw\../lv_misc/lv_color.h **** # define LV_COLOR_SET_A(c, v) LV_COLOR_SET_A32(c,v)
 204:lvgl\src\lv_draw\../lv_misc/lv_color.h **** 
 205:lvgl\src\lv_draw\../lv_misc/lv_color.h **** # define LV_COLOR_GET_R(c) LV_COLOR_GET_R32(c)
 206:lvgl\src\lv_draw\../lv_misc/lv_color.h **** # define LV_COLOR_GET_G(c) LV_COLOR_GET_G32(c)
 207:lvgl\src\lv_draw\../lv_misc/lv_color.h **** # define LV_COLOR_GET_B(c) LV_COLOR_GET_B32(c)
 208:lvgl\src\lv_draw\../lv_misc/lv_color.h **** # define LV_COLOR_GET_A(c) LV_COLOR_GET_A32(c)
 209:lvgl\src\lv_draw\../lv_misc/lv_color.h **** #endif
 210:lvgl\src\lv_draw\../lv_misc/lv_color.h **** 
 211:lvgl\src\lv_draw\../lv_misc/lv_color.h **** /**********************
 212:lvgl\src\lv_draw\../lv_misc/lv_color.h ****  *      TYPEDEFS
 213:lvgl\src\lv_draw\../lv_misc/lv_color.h ****  **********************/
 214:lvgl\src\lv_draw\../lv_misc/lv_color.h **** 
 215:lvgl\src\lv_draw\../lv_misc/lv_color.h **** typedef union {
 216:lvgl\src\lv_draw\../lv_misc/lv_color.h ****     uint8_t full; /*must be declared first to set all bits of byte via initializer list */
 217:lvgl\src\lv_draw\../lv_misc/lv_color.h ****     union {
 218:lvgl\src\lv_draw\../lv_misc/lv_color.h ****         uint8_t blue : 1;
 219:lvgl\src\lv_draw\../lv_misc/lv_color.h ****         uint8_t green : 1;
 220:lvgl\src\lv_draw\../lv_misc/lv_color.h ****         uint8_t red : 1;
 221:lvgl\src\lv_draw\../lv_misc/lv_color.h ****     } ch;
 222:lvgl\src\lv_draw\../lv_misc/lv_color.h **** } lv_color1_t;
 223:lvgl\src\lv_draw\../lv_misc/lv_color.h **** 
 224:lvgl\src\lv_draw\../lv_misc/lv_color.h **** typedef union {
 225:lvgl\src\lv_draw\../lv_misc/lv_color.h ****     struct {
 226:lvgl\src\lv_draw\../lv_misc/lv_color.h ****         uint8_t blue : 2;
 227:lvgl\src\lv_draw\../lv_misc/lv_color.h ****         uint8_t green : 3;
 228:lvgl\src\lv_draw\../lv_misc/lv_color.h ****         uint8_t red : 3;
 229:lvgl\src\lv_draw\../lv_misc/lv_color.h ****     } ch;
 230:lvgl\src\lv_draw\../lv_misc/lv_color.h ****     uint8_t full;
 231:lvgl\src\lv_draw\../lv_misc/lv_color.h **** } lv_color8_t;
 232:lvgl\src\lv_draw\../lv_misc/lv_color.h **** 
 233:lvgl\src\lv_draw\../lv_misc/lv_color.h **** typedef union {
 234:lvgl\src\lv_draw\../lv_misc/lv_color.h ****     struct {
 235:lvgl\src\lv_draw\../lv_misc/lv_color.h **** #if LV_COLOR_16_SWAP == 0
 236:lvgl\src\lv_draw\../lv_misc/lv_color.h ****         uint16_t blue : 5;
 237:lvgl\src\lv_draw\../lv_misc/lv_color.h ****         uint16_t green : 6;
 238:lvgl\src\lv_draw\../lv_misc/lv_color.h ****         uint16_t red : 5;
 239:lvgl\src\lv_draw\../lv_misc/lv_color.h **** #else
 240:lvgl\src\lv_draw\../lv_misc/lv_color.h ****         uint16_t green_h : 3;
 241:lvgl\src\lv_draw\../lv_misc/lv_color.h ****         uint16_t red : 5;
 242:lvgl\src\lv_draw\../lv_misc/lv_color.h ****         uint16_t blue : 5;
ARM GAS  C:\Users\strap\AppData\Local\Temp\ccvWLEyq.s 			page 32


 243:lvgl\src\lv_draw\../lv_misc/lv_color.h ****         uint16_t green_l : 3;
 244:lvgl\src\lv_draw\../lv_misc/lv_color.h **** #endif
 245:lvgl\src\lv_draw\../lv_misc/lv_color.h ****     } ch;
 246:lvgl\src\lv_draw\../lv_misc/lv_color.h ****     uint16_t full;
 247:lvgl\src\lv_draw\../lv_misc/lv_color.h **** } lv_color16_t;
 248:lvgl\src\lv_draw\../lv_misc/lv_color.h **** 
 249:lvgl\src\lv_draw\../lv_misc/lv_color.h **** typedef union {
 250:lvgl\src\lv_draw\../lv_misc/lv_color.h ****     struct {
 251:lvgl\src\lv_draw\../lv_misc/lv_color.h ****         uint8_t blue;
 252:lvgl\src\lv_draw\../lv_misc/lv_color.h ****         uint8_t green;
 253:lvgl\src\lv_draw\../lv_misc/lv_color.h ****         uint8_t red;
 254:lvgl\src\lv_draw\../lv_misc/lv_color.h ****         uint8_t alpha;
 255:lvgl\src\lv_draw\../lv_misc/lv_color.h ****     } ch;
 256:lvgl\src\lv_draw\../lv_misc/lv_color.h ****     uint32_t full;
 257:lvgl\src\lv_draw\../lv_misc/lv_color.h **** } lv_color32_t;
 258:lvgl\src\lv_draw\../lv_misc/lv_color.h **** 
 259:lvgl\src\lv_draw\../lv_misc/lv_color.h **** #if LV_COLOR_DEPTH == 1
 260:lvgl\src\lv_draw\../lv_misc/lv_color.h **** typedef uint8_t lv_color_int_t;
 261:lvgl\src\lv_draw\../lv_misc/lv_color.h **** typedef lv_color1_t lv_color_t;
 262:lvgl\src\lv_draw\../lv_misc/lv_color.h **** #define _LV_COLOR_ZERO_INITIALIZER {0x00}
 263:lvgl\src\lv_draw\../lv_misc/lv_color.h **** #elif LV_COLOR_DEPTH == 8
 264:lvgl\src\lv_draw\../lv_misc/lv_color.h **** typedef uint8_t lv_color_int_t;
 265:lvgl\src\lv_draw\../lv_misc/lv_color.h **** typedef lv_color8_t lv_color_t;
 266:lvgl\src\lv_draw\../lv_misc/lv_color.h **** #define _LV_COLOR_ZERO_INITIALIZER {{0x00, 0x00, 0x00}}
 267:lvgl\src\lv_draw\../lv_misc/lv_color.h **** #elif LV_COLOR_DEPTH == 16
 268:lvgl\src\lv_draw\../lv_misc/lv_color.h **** typedef uint16_t lv_color_int_t;
 269:lvgl\src\lv_draw\../lv_misc/lv_color.h **** typedef lv_color16_t lv_color_t;
 270:lvgl\src\lv_draw\../lv_misc/lv_color.h **** #define _LV_COLOR_ZERO_INITIALIZER {{0x00, 0x00, 0x00}}
 271:lvgl\src\lv_draw\../lv_misc/lv_color.h **** #elif LV_COLOR_DEPTH == 32
 272:lvgl\src\lv_draw\../lv_misc/lv_color.h **** typedef uint32_t lv_color_int_t;
 273:lvgl\src\lv_draw\../lv_misc/lv_color.h **** typedef lv_color32_t lv_color_t;
 274:lvgl\src\lv_draw\../lv_misc/lv_color.h **** #define _LV_COLOR_ZERO_INITIALIZER {{0x00, 0x00, 0x00, 0x00}}
 275:lvgl\src\lv_draw\../lv_misc/lv_color.h **** #else
 276:lvgl\src\lv_draw\../lv_misc/lv_color.h **** #error "Invalid LV_COLOR_DEPTH in lv_conf.h! Set it to 1, 8, 16 or 32!"
 277:lvgl\src\lv_draw\../lv_misc/lv_color.h **** #endif
 278:lvgl\src\lv_draw\../lv_misc/lv_color.h **** 
 279:lvgl\src\lv_draw\../lv_misc/lv_color.h **** 
 280:lvgl\src\lv_draw\../lv_misc/lv_color.h **** typedef struct {
 281:lvgl\src\lv_draw\../lv_misc/lv_color.h ****     uint16_t h;
 282:lvgl\src\lv_draw\../lv_misc/lv_color.h ****     uint8_t s;
 283:lvgl\src\lv_draw\../lv_misc/lv_color.h ****     uint8_t v;
 284:lvgl\src\lv_draw\../lv_misc/lv_color.h **** } lv_color_hsv_t;
 285:lvgl\src\lv_draw\../lv_misc/lv_color.h **** 
 286:lvgl\src\lv_draw\../lv_misc/lv_color.h **** //! @cond Doxygen_Suppress
 287:lvgl\src\lv_draw\../lv_misc/lv_color.h **** /*No idea where the guard is required but else throws warnings in the docs*/
 288:lvgl\src\lv_draw\../lv_misc/lv_color.h **** typedef uint8_t lv_opa_t;
 289:lvgl\src\lv_draw\../lv_misc/lv_color.h **** //! @endcond
 290:lvgl\src\lv_draw\../lv_misc/lv_color.h **** 
 291:lvgl\src\lv_draw\../lv_misc/lv_color.h **** /**********************
 292:lvgl\src\lv_draw\../lv_misc/lv_color.h ****  * GLOBAL PROTOTYPES
 293:lvgl\src\lv_draw\../lv_misc/lv_color.h ****  **********************/
 294:lvgl\src\lv_draw\../lv_misc/lv_color.h **** 
 295:lvgl\src\lv_draw\../lv_misc/lv_color.h **** /*In color conversations:
 296:lvgl\src\lv_draw\../lv_misc/lv_color.h ****  * - When converting to bigger color type the LSB weight of 1 LSB is calculated
 297:lvgl\src\lv_draw\../lv_misc/lv_color.h ****  *   E.g. 16 bit Red has 5 bits
 298:lvgl\src\lv_draw\../lv_misc/lv_color.h ****  *         8 bit Red has 2 bits
 299:lvgl\src\lv_draw\../lv_misc/lv_color.h ****  *        ----------------------
ARM GAS  C:\Users\strap\AppData\Local\Temp\ccvWLEyq.s 			page 33


 300:lvgl\src\lv_draw\../lv_misc/lv_color.h ****  *        8 bit red LSB = (2^5 - 1) / (2^2 - 1) = 31 / 3 = 10
 301:lvgl\src\lv_draw\../lv_misc/lv_color.h ****  *
 302:lvgl\src\lv_draw\../lv_misc/lv_color.h ****  * - When calculating to smaller color type simply shift out the LSBs
 303:lvgl\src\lv_draw\../lv_misc/lv_color.h ****  *   E.g.  8 bit Red has 2 bits
 304:lvgl\src\lv_draw\../lv_misc/lv_color.h ****  *        16 bit Red has 5 bits
 305:lvgl\src\lv_draw\../lv_misc/lv_color.h ****  *        ----------------------
 306:lvgl\src\lv_draw\../lv_misc/lv_color.h ****  *         Shift right with 5 - 3 = 2
 307:lvgl\src\lv_draw\../lv_misc/lv_color.h ****  */
 308:lvgl\src\lv_draw\../lv_misc/lv_color.h **** static inline uint8_t lv_color_to1(lv_color_t color)
 309:lvgl\src\lv_draw\../lv_misc/lv_color.h **** {
 310:lvgl\src\lv_draw\../lv_misc/lv_color.h **** #if LV_COLOR_DEPTH == 1
 311:lvgl\src\lv_draw\../lv_misc/lv_color.h ****     return color.full;
 312:lvgl\src\lv_draw\../lv_misc/lv_color.h **** #elif LV_COLOR_DEPTH == 8
 313:lvgl\src\lv_draw\../lv_misc/lv_color.h ****     if((LV_COLOR_GET_R(color) & 0x4) || (LV_COLOR_GET_G(color) & 0x4) || (LV_COLOR_GET_B(color) & 0
 314:lvgl\src\lv_draw\../lv_misc/lv_color.h ****         return 1;
 315:lvgl\src\lv_draw\../lv_misc/lv_color.h ****     }
 316:lvgl\src\lv_draw\../lv_misc/lv_color.h ****     else {
 317:lvgl\src\lv_draw\../lv_misc/lv_color.h ****         return 0;
 318:lvgl\src\lv_draw\../lv_misc/lv_color.h ****     }
 319:lvgl\src\lv_draw\../lv_misc/lv_color.h **** #elif LV_COLOR_DEPTH == 16
 320:lvgl\src\lv_draw\../lv_misc/lv_color.h ****     if((LV_COLOR_GET_R(color) & 0x10) || (LV_COLOR_GET_G(color) & 0x20) || (LV_COLOR_GET_B(color) &
 321:lvgl\src\lv_draw\../lv_misc/lv_color.h ****         return 1;
 322:lvgl\src\lv_draw\../lv_misc/lv_color.h ****     }
 323:lvgl\src\lv_draw\../lv_misc/lv_color.h ****     else {
 324:lvgl\src\lv_draw\../lv_misc/lv_color.h ****         return 0;
 325:lvgl\src\lv_draw\../lv_misc/lv_color.h ****     }
 326:lvgl\src\lv_draw\../lv_misc/lv_color.h **** #elif LV_COLOR_DEPTH == 32
 327:lvgl\src\lv_draw\../lv_misc/lv_color.h ****     if((LV_COLOR_GET_R(color) & 0x80) || (LV_COLOR_GET_G(color) & 0x80) || (LV_COLOR_GET_B(color) &
 328:lvgl\src\lv_draw\../lv_misc/lv_color.h ****         return 1;
 329:lvgl\src\lv_draw\../lv_misc/lv_color.h ****     }
 330:lvgl\src\lv_draw\../lv_misc/lv_color.h ****     else {
 331:lvgl\src\lv_draw\../lv_misc/lv_color.h ****         return 0;
 332:lvgl\src\lv_draw\../lv_misc/lv_color.h ****     }
 333:lvgl\src\lv_draw\../lv_misc/lv_color.h **** #endif
 334:lvgl\src\lv_draw\../lv_misc/lv_color.h **** }
 335:lvgl\src\lv_draw\../lv_misc/lv_color.h **** 
 336:lvgl\src\lv_draw\../lv_misc/lv_color.h **** static inline uint8_t lv_color_to8(lv_color_t color)
 337:lvgl\src\lv_draw\../lv_misc/lv_color.h **** {
 338:lvgl\src\lv_draw\../lv_misc/lv_color.h **** #if LV_COLOR_DEPTH == 1
 339:lvgl\src\lv_draw\../lv_misc/lv_color.h ****     if(color.full == 0)
 340:lvgl\src\lv_draw\../lv_misc/lv_color.h ****         return 0;
 341:lvgl\src\lv_draw\../lv_misc/lv_color.h ****     else
 342:lvgl\src\lv_draw\../lv_misc/lv_color.h ****         return 0xFF;
 343:lvgl\src\lv_draw\../lv_misc/lv_color.h **** #elif LV_COLOR_DEPTH == 8
 344:lvgl\src\lv_draw\../lv_misc/lv_color.h ****     return color.full;
 345:lvgl\src\lv_draw\../lv_misc/lv_color.h **** #elif LV_COLOR_DEPTH == 16
 346:lvgl\src\lv_draw\../lv_misc/lv_color.h ****     lv_color8_t ret;
 347:lvgl\src\lv_draw\../lv_misc/lv_color.h ****     LV_COLOR_SET_R8(ret, LV_COLOR_GET_R(color) >> 2);   /* 5 - 3  = 2*/
 348:lvgl\src\lv_draw\../lv_misc/lv_color.h ****     LV_COLOR_SET_G8(ret, LV_COLOR_GET_G(color) >> 3); /* 6 - 3  = 3*/
 349:lvgl\src\lv_draw\../lv_misc/lv_color.h ****     LV_COLOR_SET_B8(ret, LV_COLOR_GET_B(color) >> 3);  /* 5 - 2  = 3*/
 350:lvgl\src\lv_draw\../lv_misc/lv_color.h ****     return ret.full;
 351:lvgl\src\lv_draw\../lv_misc/lv_color.h **** #elif LV_COLOR_DEPTH == 32
 352:lvgl\src\lv_draw\../lv_misc/lv_color.h ****     lv_color8_t ret;
 353:lvgl\src\lv_draw\../lv_misc/lv_color.h ****     LV_COLOR_SET_R8(ret, LV_COLOR_GET_R(color) >> 5);   /* 8 - 3  = 5*/
 354:lvgl\src\lv_draw\../lv_misc/lv_color.h ****     LV_COLOR_SET_G8(ret, LV_COLOR_GET_G(color) >> 5); /* 8 - 3  = 5*/
 355:lvgl\src\lv_draw\../lv_misc/lv_color.h ****     LV_COLOR_SET_B8(ret, LV_COLOR_GET_B(color) >> 6);  /* 8 - 2  = 6*/
 356:lvgl\src\lv_draw\../lv_misc/lv_color.h ****     return ret.full;
ARM GAS  C:\Users\strap\AppData\Local\Temp\ccvWLEyq.s 			page 34


 357:lvgl\src\lv_draw\../lv_misc/lv_color.h **** #endif
 358:lvgl\src\lv_draw\../lv_misc/lv_color.h **** }
 359:lvgl\src\lv_draw\../lv_misc/lv_color.h **** 
 360:lvgl\src\lv_draw\../lv_misc/lv_color.h **** static inline uint16_t lv_color_to16(lv_color_t color)
 361:lvgl\src\lv_draw\../lv_misc/lv_color.h **** {
 362:lvgl\src\lv_draw\../lv_misc/lv_color.h **** #if LV_COLOR_DEPTH == 1
 363:lvgl\src\lv_draw\../lv_misc/lv_color.h ****     if(color.full == 0)
 364:lvgl\src\lv_draw\../lv_misc/lv_color.h ****         return 0;
 365:lvgl\src\lv_draw\../lv_misc/lv_color.h ****     else
 366:lvgl\src\lv_draw\../lv_misc/lv_color.h ****         return 0xFFFF;
 367:lvgl\src\lv_draw\../lv_misc/lv_color.h **** #elif LV_COLOR_DEPTH == 8
 368:lvgl\src\lv_draw\../lv_misc/lv_color.h ****     lv_color16_t ret;
 369:lvgl\src\lv_draw\../lv_misc/lv_color.h ****     LV_COLOR_SET_R16(ret, LV_COLOR_GET_R(color) * 4);     /*(2^5 - 1)/(2^3 - 1) = 31/7 = 4*/
 370:lvgl\src\lv_draw\../lv_misc/lv_color.h **** #if LV_COLOR_16_SWAP == 0
 371:lvgl\src\lv_draw\../lv_misc/lv_color.h ****     LV_COLOR_SET_G16(ret,  LV_COLOR_GET_G(color) * 9); /*(2^6 - 1)/(2^3 - 1) = 63/7 = 9*/
 372:lvgl\src\lv_draw\../lv_misc/lv_color.h **** #else
 373:lvgl\src\lv_draw\../lv_misc/lv_color.h ****     LV_COLOR_SET_G16_SWAP(ret, (LV_COLOR_GET_G(color) * 9)); /*(2^6 - 1)/(2^3 - 1) = 63/7 = 9*/
 374:lvgl\src\lv_draw\../lv_misc/lv_color.h **** #endif
 375:lvgl\src\lv_draw\../lv_misc/lv_color.h ****     LV_COLOR_SET_B16(ret, LV_COLOR_GET_B(color) * 10);  /*(2^5 - 1)/(2^2 - 1) = 31/3 = 10*/
 376:lvgl\src\lv_draw\../lv_misc/lv_color.h ****     return ret.full;
 377:lvgl\src\lv_draw\../lv_misc/lv_color.h **** #elif LV_COLOR_DEPTH == 16
 378:lvgl\src\lv_draw\../lv_misc/lv_color.h ****     return color.full;
 379:lvgl\src\lv_draw\../lv_misc/lv_color.h **** #elif LV_COLOR_DEPTH == 32
 380:lvgl\src\lv_draw\../lv_misc/lv_color.h ****     lv_color16_t ret;
 381:lvgl\src\lv_draw\../lv_misc/lv_color.h ****     LV_COLOR_SET_R16(ret, LV_COLOR_GET_R(color) >> 3);   /* 8 - 5  = 3*/
 382:lvgl\src\lv_draw\../lv_misc/lv_color.h **** 
 383:lvgl\src\lv_draw\../lv_misc/lv_color.h **** #if LV_COLOR_16_SWAP == 0
 384:lvgl\src\lv_draw\../lv_misc/lv_color.h ****     LV_COLOR_SET_G16(ret, LV_COLOR_GET_G(color) >> 2); /* 8 - 6  = 2*/
 385:lvgl\src\lv_draw\../lv_misc/lv_color.h **** #else
 386:lvgl\src\lv_draw\../lv_misc/lv_color.h ****     LV_COLOR_SET_G16_SWAP(ret, ret.ch.green_h = (LV_COLOR_GET_G(color) >> 2); /*(2^6 - 1)/(2^3 - 1)
 387:lvgl\src\lv_draw\../lv_misc/lv_color.h **** #endif
 388:lvgl\src\lv_draw\../lv_misc/lv_color.h ****     LV_COLOR_SET_B16(ret, LV_COLOR_GET_B(color) >> 3);  /* 8 - 5  = 3*/
 389:lvgl\src\lv_draw\../lv_misc/lv_color.h ****     return ret.full;
 390:lvgl\src\lv_draw\../lv_misc/lv_color.h **** #endif
 391:lvgl\src\lv_draw\../lv_misc/lv_color.h **** }
 392:lvgl\src\lv_draw\../lv_misc/lv_color.h **** 
 393:lvgl\src\lv_draw\../lv_misc/lv_color.h **** static inline uint32_t lv_color_to32(lv_color_t color)
 394:lvgl\src\lv_draw\../lv_misc/lv_color.h **** {
 395:lvgl\src\lv_draw\../lv_misc/lv_color.h **** #if LV_COLOR_DEPTH == 1
 396:lvgl\src\lv_draw\../lv_misc/lv_color.h ****     if(color.full == 0)
 397:lvgl\src\lv_draw\../lv_misc/lv_color.h ****         return 0xFF000000;
 398:lvgl\src\lv_draw\../lv_misc/lv_color.h ****     else
 399:lvgl\src\lv_draw\../lv_misc/lv_color.h ****         return 0xFFFFFFFF;
 400:lvgl\src\lv_draw\../lv_misc/lv_color.h **** #elif LV_COLOR_DEPTH == 8
 401:lvgl\src\lv_draw\../lv_misc/lv_color.h ****     lv_color32_t ret;
 402:lvgl\src\lv_draw\../lv_misc/lv_color.h ****     LV_COLOR_SET_R32(ret, LV_COLOR_GET_R(color) * 36);     /*(2^8 - 1)/(2^3 - 1) = 255/7 = 36*/
 403:lvgl\src\lv_draw\../lv_misc/lv_color.h ****     LV_COLOR_SET_G32(ret, LV_COLOR_GET_G(color) * 36); /*(2^8 - 1)/(2^3 - 1) = 255/7 = 36*/
 404:lvgl\src\lv_draw\../lv_misc/lv_color.h ****     LV_COLOR_SET_B32(ret, LV_COLOR_GET_B(color) * 85);   /*(2^8 - 1)/(2^2 - 1) = 255/3 = 85*/
 405:lvgl\src\lv_draw\../lv_misc/lv_color.h ****     LV_COLOR_SET_A32(ret, 0xFF);
 406:lvgl\src\lv_draw\../lv_misc/lv_color.h ****     return ret.full;
 407:lvgl\src\lv_draw\../lv_misc/lv_color.h **** #elif LV_COLOR_DEPTH == 16
 408:lvgl\src\lv_draw\../lv_misc/lv_color.h ****     /**
 409:lvgl\src\lv_draw\../lv_misc/lv_color.h ****      * The floating point math for conversion is:
 410:lvgl\src\lv_draw\../lv_misc/lv_color.h ****      *  valueto = valuefrom * ( (2^bitsto - 1) / (float)(2^bitsfrom - 1) )
 411:lvgl\src\lv_draw\../lv_misc/lv_color.h ****      * The faster integer math for conversion is:
 412:lvgl\src\lv_draw\../lv_misc/lv_color.h ****      *  valueto = ( valuefrom * multiplier + adder ) >> divisor
 413:lvgl\src\lv_draw\../lv_misc/lv_color.h ****      *   multiplier = FLOOR( ( (2^bitsto - 1) << divisor ) / (float)(2^bitsfrom - 1) )
ARM GAS  C:\Users\strap\AppData\Local\Temp\ccvWLEyq.s 			page 35


 414:lvgl\src\lv_draw\../lv_misc/lv_color.h ****      *
 415:lvgl\src\lv_draw\../lv_misc/lv_color.h ****      * Find the first divisor where ( adder >> divisor ) <= 0
 416:lvgl\src\lv_draw\../lv_misc/lv_color.h ****      *
 417:lvgl\src\lv_draw\../lv_misc/lv_color.h ****      * 5-bit to 8-bit: ( 31 * multiplier + adder ) >> divisor = 255
 418:lvgl\src\lv_draw\../lv_misc/lv_color.h ****      * divisor  multiplier  adder  min (0)  max (31)
 419:lvgl\src\lv_draw\../lv_misc/lv_color.h ****      *       0           8      7        7       255
 420:lvgl\src\lv_draw\../lv_misc/lv_color.h ****      *       1          16     14        7       255
 421:lvgl\src\lv_draw\../lv_misc/lv_color.h ****      *       2          32     28        7       255
 422:lvgl\src\lv_draw\../lv_misc/lv_color.h ****      *       3          65     25        3       255
 423:lvgl\src\lv_draw\../lv_misc/lv_color.h ****      *       4         131     19        1       255
 424:lvgl\src\lv_draw\../lv_misc/lv_color.h ****      *       5         263      7        0       255
 425:lvgl\src\lv_draw\../lv_misc/lv_color.h ****      *
 426:lvgl\src\lv_draw\../lv_misc/lv_color.h ****      * 6-bit to 8-bit: 255 = ( 63 * multiplier + adder ) >> divisor
 427:lvgl\src\lv_draw\../lv_misc/lv_color.h ****      * divisor  multiplier  adder  min (0)  max (63)
 428:lvgl\src\lv_draw\../lv_misc/lv_color.h ****      *       0           4      3        3       255
 429:lvgl\src\lv_draw\../lv_misc/lv_color.h ****      *       1           8      6        3       255
 430:lvgl\src\lv_draw\../lv_misc/lv_color.h ****      *       2          16     12        3       255
 431:lvgl\src\lv_draw\../lv_misc/lv_color.h ****      *       3          32     24        3       255
 432:lvgl\src\lv_draw\../lv_misc/lv_color.h ****      *       4          64     48        3       255
 433:lvgl\src\lv_draw\../lv_misc/lv_color.h ****      *       5         129     33        1       255
 434:lvgl\src\lv_draw\../lv_misc/lv_color.h ****      *       6         259      3        0       255
 435:lvgl\src\lv_draw\../lv_misc/lv_color.h ****      */
 436:lvgl\src\lv_draw\../lv_misc/lv_color.h **** 
 437:lvgl\src\lv_draw\../lv_misc/lv_color.h ****     lv_color32_t ret;
 438:lvgl\src\lv_draw\../lv_misc/lv_color.h ****     LV_COLOR_SET_R32(ret, (LV_COLOR_GET_R(color) * 263 + 7) >> 5);
 980              		.loc 3 438 0
 981 0026 C2F3C403 		ubfx	r3, r2, #3, #5
 982 002a 03EB4314 		add	r4, r3, r3, lsl #5
 983 002e C3EBC403 		rsb	r3, r3, r4, lsl #3
 984 0032 0733     		adds	r3, r3, #7
 985 0034 5B11     		asrs	r3, r3, #5
 986 0036 0024     		movs	r4, #0
 987              	.LVL167:
 988 0038 63F31744 		bfi	r4, r3, #16, #8
 989              	.LVL168:
 439:lvgl\src\lv_draw\../lv_misc/lv_color.h ****     LV_COLOR_SET_G32(ret, (LV_COLOR_GET_G(color) * 259 + 3) >> 6);
 990              		.loc 3 439 0
 991 003c 02F00705 		and	r5, r2, #7
 992 0040 C2F34233 		ubfx	r3, r2, #13, #3
 993 0044 03EBC503 		add	r3, r3, r5, lsl #3
 994 0048 03EBC315 		add	r5, r3, r3, lsl #7
 995 004c 03EB4503 		add	r3, r3, r5, lsl #1
 996 0050 0333     		adds	r3, r3, #3
 997 0052 9B11     		asrs	r3, r3, #6
 998 0054 63F30F24 		bfi	r4, r3, #8, #8
 440:lvgl\src\lv_draw\../lv_misc/lv_color.h ****     LV_COLOR_SET_B32(ret, (LV_COLOR_GET_B(color) * 263 + 7) >> 5);
 999              		.loc 3 440 0
 1000 0058 C2F30422 		ubfx	r2, r2, #8, #5
 1001              	.LVL169:
 1002 005c 02EB4213 		add	r3, r2, r2, lsl #5
 1003 0060 C2EBC302 		rsb	r2, r2, r3, lsl #3
 1004 0064 0732     		adds	r2, r2, #7
 1005 0066 5211     		asrs	r2, r2, #5
 1006 0068 62F30704 		bfi	r4, r2, #0, #8
 441:lvgl\src\lv_draw\../lv_misc/lv_color.h ****     LV_COLOR_SET_A32(ret, 0xFF);
 1007              		.loc 3 441 0
 1008 006c 44F07F44 		orr	r4, r4, #-16777216
ARM GAS  C:\Users\strap\AppData\Local\Temp\ccvWLEyq.s 			page 36


 1009              	.LVL170:
 1010              	.LBE61:
 1011              	.LBE60:
 314:lvgl\src\lv_draw/lv_img_buf.c ****         LV_LOG_WARN("lv_img_buf_set_px_alpha: invalid 'id'");
 315:lvgl\src\lv_draw/lv_img_buf.c ****         return;
 316:lvgl\src\lv_draw/lv_img_buf.c ****     }
 317:lvgl\src\lv_draw/lv_img_buf.c **** 
 318:lvgl\src\lv_draw/lv_img_buf.c ****     lv_color32_t c32;
 319:lvgl\src\lv_draw/lv_img_buf.c ****     c32.full      = lv_color_to32(c);
 1012              		.loc 1 319 0
 1013 0070 02AA     		add	r2, sp, #8
 1014              	.LVL171:
 1015 0072 42F8044D 		str	r4, [r2, #-4]!
 320:lvgl\src\lv_draw/lv_img_buf.c ****     uint8_t * buf = (uint8_t *)dsc->data;
 1016              		.loc 1 320 0
 1017 0076 8368     		ldr	r3, [r0, #8]
 1018              	.LVL172:
 321:lvgl\src\lv_draw/lv_img_buf.c ****     _lv_memcpy_small(&buf[id * sizeof(c32)], &c32, sizeof(c32));
 1019              		.loc 1 321 0
 1020 0078 03EB8101 		add	r1, r3, r1, lsl #2
 1021              	.LVL173:
 1022 007c 0423     		movs	r3, #4
 1023              	.LVL174:
 1024 007e 04E0     		b	.L48
 1025              	.LVL175:
 1026              	.L49:
 1027              	.LBB62:
 1028              	.LBB63:
 220:lvgl\src\lv_draw\../lv_misc/lv_mem.h ****         d8++;
 1029              		.loc 2 220 0
 1030 0080 12F8010B 		ldrb	r0, [r2], #1	@ zero_extendqisi2
 1031              	.LVL176:
 1032 0084 01F8010B 		strb	r0, [r1], #1
 1033              	.LVL177:
 1034              		.loc 2 223 0
 1035 0088 013B     		subs	r3, r3, #1
 1036              	.LVL178:
 1037              	.L48:
 219:lvgl\src\lv_draw\../lv_misc/lv_mem.h ****         *d8 = *s8;
 1038              		.loc 2 219 0
 1039 008a 002B     		cmp	r3, #0
 1040 008c F8D1     		bne	.L49
 1041              	.LBE63:
 1042              	.LBE62:
 322:lvgl\src\lv_draw/lv_img_buf.c **** }
 1043              		.loc 1 322 0
 1044 008e 02B0     		add	sp, sp, #8
 1045              		.cfi_def_cfa_offset 8
 1046              		@ sp needed
 1047 0090 30BC     		pop	{r4, r5}
 1048              		.cfi_restore 5
 1049              		.cfi_restore 4
 1050              		.cfi_def_cfa_offset 0
 1051              	.LVL179:
 1052              	.L53:
 1053 0092 7047     		bx	lr
 1054              		.cfi_endproc
ARM GAS  C:\Users\strap\AppData\Local\Temp\ccvWLEyq.s 			page 37


 1055              	.LFE41:
 1056              		.size	lv_img_buf_set_palette, .-lv_img_buf_set_palette
 1057              		.section	.text.lv_img_buf_free,"ax",%progbits
 1058              		.align	2
 1059              		.global	lv_img_buf_free
 1060              		.thumb
 1061              		.thumb_func
 1062              		.type	lv_img_buf_free, %function
 1063              	lv_img_buf_free:
 1064              	.LFB43:
 323:lvgl\src\lv_draw/lv_img_buf.c **** 
 324:lvgl\src\lv_draw/lv_img_buf.c **** /**
 325:lvgl\src\lv_draw/lv_img_buf.c ****  * Allocate an image buffer in RAM
 326:lvgl\src\lv_draw/lv_img_buf.c ****  * @param w width of image
 327:lvgl\src\lv_draw/lv_img_buf.c ****  * @param h height of image
 328:lvgl\src\lv_draw/lv_img_buf.c ****  * @param cf a color format (`LV_IMG_CF_...`)
 329:lvgl\src\lv_draw/lv_img_buf.c ****  * @return an allocated image, or NULL on failure
 330:lvgl\src\lv_draw/lv_img_buf.c ****  */
 331:lvgl\src\lv_draw/lv_img_buf.c **** lv_img_dsc_t * lv_img_buf_alloc(lv_coord_t w, lv_coord_t h, lv_img_cf_t cf)
 332:lvgl\src\lv_draw/lv_img_buf.c **** {
 333:lvgl\src\lv_draw/lv_img_buf.c ****     /* Allocate image descriptor */
 334:lvgl\src\lv_draw/lv_img_buf.c ****     lv_img_dsc_t * dsc = lv_mem_alloc(sizeof(lv_img_dsc_t));
 335:lvgl\src\lv_draw/lv_img_buf.c ****     if(dsc == NULL)
 336:lvgl\src\lv_draw/lv_img_buf.c ****         return NULL;
 337:lvgl\src\lv_draw/lv_img_buf.c **** 
 338:lvgl\src\lv_draw/lv_img_buf.c ****     _lv_memset_00(dsc, sizeof(lv_img_dsc_t));
 339:lvgl\src\lv_draw/lv_img_buf.c **** 
 340:lvgl\src\lv_draw/lv_img_buf.c ****     /* Get image data size */
 341:lvgl\src\lv_draw/lv_img_buf.c ****     dsc->data_size = lv_img_buf_get_img_size(w, h, cf);
 342:lvgl\src\lv_draw/lv_img_buf.c ****     if(dsc->data_size == 0) {
 343:lvgl\src\lv_draw/lv_img_buf.c ****         lv_mem_free(dsc);
 344:lvgl\src\lv_draw/lv_img_buf.c ****         return NULL;
 345:lvgl\src\lv_draw/lv_img_buf.c ****     }
 346:lvgl\src\lv_draw/lv_img_buf.c **** 
 347:lvgl\src\lv_draw/lv_img_buf.c ****     /* Allocate raw buffer */
 348:lvgl\src\lv_draw/lv_img_buf.c ****     dsc->data = lv_mem_alloc(dsc->data_size);
 349:lvgl\src\lv_draw/lv_img_buf.c ****     if(dsc->data == NULL) {
 350:lvgl\src\lv_draw/lv_img_buf.c ****         lv_mem_free(dsc);
 351:lvgl\src\lv_draw/lv_img_buf.c ****         return NULL;
 352:lvgl\src\lv_draw/lv_img_buf.c ****     }
 353:lvgl\src\lv_draw/lv_img_buf.c ****     _lv_memset_00((uint8_t *)dsc->data, dsc->data_size);
 354:lvgl\src\lv_draw/lv_img_buf.c **** 
 355:lvgl\src\lv_draw/lv_img_buf.c ****     /* Fill in header */
 356:lvgl\src\lv_draw/lv_img_buf.c ****     dsc->header.always_zero = 0;
 357:lvgl\src\lv_draw/lv_img_buf.c ****     dsc->header.w = w;
 358:lvgl\src\lv_draw/lv_img_buf.c ****     dsc->header.h = h;
 359:lvgl\src\lv_draw/lv_img_buf.c ****     dsc->header.cf = cf;
 360:lvgl\src\lv_draw/lv_img_buf.c ****     return dsc;
 361:lvgl\src\lv_draw/lv_img_buf.c **** }
 362:lvgl\src\lv_draw/lv_img_buf.c **** 
 363:lvgl\src\lv_draw/lv_img_buf.c **** /**
 364:lvgl\src\lv_draw/lv_img_buf.c ****  * Free an allocated image buffer
 365:lvgl\src\lv_draw/lv_img_buf.c ****  * @param dsc image buffer to free
 366:lvgl\src\lv_draw/lv_img_buf.c ****  */
 367:lvgl\src\lv_draw/lv_img_buf.c **** void lv_img_buf_free(lv_img_dsc_t * dsc)
 368:lvgl\src\lv_draw/lv_img_buf.c **** {
 1065              		.loc 1 368 0
ARM GAS  C:\Users\strap\AppData\Local\Temp\ccvWLEyq.s 			page 38


 1066              		.cfi_startproc
 1067              		@ args = 0, pretend = 0, frame = 0
 1068              		@ frame_needed = 0, uses_anonymous_args = 0
 1069              	.LVL180:
 369:lvgl\src\lv_draw/lv_img_buf.c ****     if(dsc != NULL) {
 1070              		.loc 1 369 0
 1071 0000 48B1     		cbz	r0, .L58
 368:lvgl\src\lv_draw/lv_img_buf.c ****     if(dsc != NULL) {
 1072              		.loc 1 368 0
 1073 0002 10B5     		push	{r4, lr}
 1074              		.cfi_def_cfa_offset 8
 1075              		.cfi_offset 4, -8
 1076              		.cfi_offset 14, -4
 1077 0004 0446     		mov	r4, r0
 370:lvgl\src\lv_draw/lv_img_buf.c ****         if(dsc->data != NULL)
 1078              		.loc 1 370 0
 1079 0006 8068     		ldr	r0, [r0, #8]
 1080              	.LVL181:
 1081 0008 08B1     		cbz	r0, .L56
 371:lvgl\src\lv_draw/lv_img_buf.c ****             lv_mem_free(dsc->data);
 1082              		.loc 1 371 0
 1083 000a FFF7FEFF 		bl	lv_mem_free
 1084              	.LVL182:
 1085              	.L56:
 372:lvgl\src\lv_draw/lv_img_buf.c **** 
 373:lvgl\src\lv_draw/lv_img_buf.c ****         lv_mem_free(dsc);
 1086              		.loc 1 373 0
 1087 000e 2046     		mov	r0, r4
 1088 0010 FFF7FEFF 		bl	lv_mem_free
 1089              	.LVL183:
 1090 0014 10BD     		pop	{r4, pc}
 1091              	.LVL184:
 1092              	.L58:
 1093              		.cfi_def_cfa_offset 0
 1094              		.cfi_restore 4
 1095              		.cfi_restore 14
 1096 0016 7047     		bx	lr
 1097              		.cfi_endproc
 1098              	.LFE43:
 1099              		.size	lv_img_buf_free, .-lv_img_buf_free
 1100              		.section	.text.lv_img_buf_get_img_size,"ax",%progbits
 1101              		.align	2
 1102              		.global	lv_img_buf_get_img_size
 1103              		.thumb
 1104              		.thumb_func
 1105              		.type	lv_img_buf_get_img_size, %function
 1106              	lv_img_buf_get_img_size:
 1107              	.LFB44:
 374:lvgl\src\lv_draw/lv_img_buf.c ****     }
 375:lvgl\src\lv_draw/lv_img_buf.c **** }
 376:lvgl\src\lv_draw/lv_img_buf.c **** 
 377:lvgl\src\lv_draw/lv_img_buf.c **** /**
 378:lvgl\src\lv_draw/lv_img_buf.c ****  * Get the memory consumption of a raw bitmap, given color format and dimensions.
 379:lvgl\src\lv_draw/lv_img_buf.c ****  * @param w width
 380:lvgl\src\lv_draw/lv_img_buf.c ****  * @param h height
 381:lvgl\src\lv_draw/lv_img_buf.c ****  * @param cf color format
 382:lvgl\src\lv_draw/lv_img_buf.c ****  * @return size in bytes
ARM GAS  C:\Users\strap\AppData\Local\Temp\ccvWLEyq.s 			page 39


 383:lvgl\src\lv_draw/lv_img_buf.c ****  */
 384:lvgl\src\lv_draw/lv_img_buf.c **** uint32_t lv_img_buf_get_img_size(lv_coord_t w, lv_coord_t h, lv_img_cf_t cf)
 385:lvgl\src\lv_draw/lv_img_buf.c **** {
 1108              		.loc 1 385 0
 1109              		.cfi_startproc
 1110              		@ args = 0, pretend = 0, frame = 0
 1111              		@ frame_needed = 0, uses_anonymous_args = 0
 1112              		@ link register save eliminated.
 1113              	.LVL185:
 386:lvgl\src\lv_draw/lv_img_buf.c ****     switch(cf) {
 1114              		.loc 1 386 0
 1115 0000 043A     		subs	r2, r2, #4
 1116              	.LVL186:
 1117 0002 0A2A     		cmp	r2, #10
 1118 0004 4ED8     		bhi	.L77
 1119 0006 DFE802F0 		tbb	[pc, r2]
 1120              	.L62:
 1121 000a 06       		.byte	(.L61-.L62)/2
 1122 000b 0A       		.byte	(.L63-.L62)/2
 1123 000c 0F       		.byte	(.L64-.L62)/2
 1124 000d 2C       		.byte	(.L65-.L62)/2
 1125 000e 36       		.byte	(.L66-.L62)/2
 1126 000f 40       		.byte	(.L67-.L62)/2
 1127 0010 48       		.byte	(.L68-.L62)/2
 1128 0011 13       		.byte	(.L69-.L62)/2
 1129 0012 1B       		.byte	(.L70-.L62)/2
 1130 0013 23       		.byte	(.L71-.L62)/2
 1131 0014 29       		.byte	(.L72-.L62)/2
 1132 0015 00       		.p2align 1
 1133              	.L61:
 387:lvgl\src\lv_draw/lv_img_buf.c ****         case LV_IMG_CF_TRUE_COLOR:
 388:lvgl\src\lv_draw/lv_img_buf.c ****             return LV_IMG_BUF_SIZE_TRUE_COLOR(w, h);
 1134              		.loc 1 388 0
 1135 0016 4000     		lsls	r0, r0, #1
 1136              	.LVL187:
 1137 0018 00FB01F0 		mul	r0, r0, r1
 1138 001c 7047     		bx	lr
 1139              	.LVL188:
 1140              	.L63:
 389:lvgl\src\lv_draw/lv_img_buf.c ****         case LV_IMG_CF_TRUE_COLOR_ALPHA:
 390:lvgl\src\lv_draw/lv_img_buf.c ****             return LV_IMG_BUF_SIZE_TRUE_COLOR_ALPHA(w, h);
 1141              		.loc 1 390 0
 1142 001e 00EB4000 		add	r0, r0, r0, lsl #1
 1143              	.LVL189:
 1144 0022 00FB01F0 		mul	r0, r0, r1
 1145 0026 7047     		bx	lr
 1146              	.LVL190:
 1147              	.L64:
 391:lvgl\src\lv_draw/lv_img_buf.c ****         case LV_IMG_CF_TRUE_COLOR_CHROMA_KEYED:
 392:lvgl\src\lv_draw/lv_img_buf.c ****             return LV_IMG_BUF_SIZE_TRUE_COLOR_CHROMA_KEYED(w, h);
 1148              		.loc 1 392 0
 1149 0028 4000     		lsls	r0, r0, #1
 1150              	.LVL191:
 1151 002a 00FB01F0 		mul	r0, r0, r1
 1152 002e 7047     		bx	lr
 1153              	.LVL192:
 1154              	.L69:
ARM GAS  C:\Users\strap\AppData\Local\Temp\ccvWLEyq.s 			page 40


 393:lvgl\src\lv_draw/lv_img_buf.c ****         case LV_IMG_CF_ALPHA_1BIT:
 394:lvgl\src\lv_draw/lv_img_buf.c ****             return LV_IMG_BUF_SIZE_ALPHA_1BIT(w, h);
 1155              		.loc 1 394 0
 1156 0030 0346     		mov	r3, r0
 1157 0032 0028     		cmp	r0, #0
 1158 0034 00DA     		bge	.L73
 1159 0036 C31D     		adds	r3, r0, #7
 1160              	.L73:
 1161 0038 D810     		asrs	r0, r3, #3
 1162              	.LVL193:
 1163 003a 00FB0110 		mla	r0, r0, r1, r1
 1164 003e 7047     		bx	lr
 1165              	.LVL194:
 1166              	.L70:
 395:lvgl\src\lv_draw/lv_img_buf.c ****         case LV_IMG_CF_ALPHA_2BIT:
 396:lvgl\src\lv_draw/lv_img_buf.c ****             return LV_IMG_BUF_SIZE_ALPHA_2BIT(w, h);
 1167              		.loc 1 396 0
 1168 0040 0346     		mov	r3, r0
 1169 0042 0028     		cmp	r0, #0
 1170 0044 00DA     		bge	.L74
 1171 0046 C31C     		adds	r3, r0, #3
 1172              	.L74:
 1173 0048 9810     		asrs	r0, r3, #2
 1174              	.LVL195:
 1175 004a 00FB0110 		mla	r0, r0, r1, r1
 1176 004e 7047     		bx	lr
 1177              	.LVL196:
 1178              	.L71:
 397:lvgl\src\lv_draw/lv_img_buf.c ****         case LV_IMG_CF_ALPHA_4BIT:
 398:lvgl\src\lv_draw/lv_img_buf.c ****             return LV_IMG_BUF_SIZE_ALPHA_4BIT(w, h);
 1179              		.loc 1 398 0
 1180 0050 00EBD070 		add	r0, r0, r0, lsr #31
 1181              	.LVL197:
 1182 0054 4010     		asrs	r0, r0, #1
 1183 0056 00FB0110 		mla	r0, r0, r1, r1
 1184 005a 7047     		bx	lr
 1185              	.LVL198:
 1186              	.L72:
 399:lvgl\src\lv_draw/lv_img_buf.c ****         case LV_IMG_CF_ALPHA_8BIT:
 400:lvgl\src\lv_draw/lv_img_buf.c ****             return LV_IMG_BUF_SIZE_ALPHA_8BIT(w, h);
 1187              		.loc 1 400 0
 1188 005c 01FB00F0 		mul	r0, r1, r0
 1189              	.LVL199:
 1190 0060 7047     		bx	lr
 1191              	.LVL200:
 1192              	.L65:
 401:lvgl\src\lv_draw/lv_img_buf.c ****         case LV_IMG_CF_INDEXED_1BIT:
 402:lvgl\src\lv_draw/lv_img_buf.c ****             return LV_IMG_BUF_SIZE_INDEXED_1BIT(w, h);
 1193              		.loc 1 402 0
 1194 0062 0346     		mov	r3, r0
 1195 0064 0028     		cmp	r0, #0
 1196 0066 00DA     		bge	.L75
 1197 0068 C31D     		adds	r3, r0, #7
 1198              	.L75:
 1199 006a D810     		asrs	r0, r3, #3
 1200              	.LVL201:
 1201 006c 00FB0111 		mla	r1, r0, r1, r1
ARM GAS  C:\Users\strap\AppData\Local\Temp\ccvWLEyq.s 			page 41


 1202              	.LVL202:
 1203 0070 01F10800 		add	r0, r1, #8
 1204 0074 7047     		bx	lr
 1205              	.LVL203:
 1206              	.L66:
 403:lvgl\src\lv_draw/lv_img_buf.c ****         case LV_IMG_CF_INDEXED_2BIT:
 404:lvgl\src\lv_draw/lv_img_buf.c ****             return LV_IMG_BUF_SIZE_INDEXED_2BIT(w, h);
 1207              		.loc 1 404 0
 1208 0076 0346     		mov	r3, r0
 1209 0078 0028     		cmp	r0, #0
 1210 007a 00DA     		bge	.L76
 1211 007c C31C     		adds	r3, r0, #3
 1212              	.L76:
 1213 007e 9810     		asrs	r0, r3, #2
 1214              	.LVL204:
 1215 0080 00FB0111 		mla	r1, r0, r1, r1
 1216              	.LVL205:
 1217 0084 01F11000 		add	r0, r1, #16
 1218 0088 7047     		bx	lr
 1219              	.LVL206:
 1220              	.L67:
 405:lvgl\src\lv_draw/lv_img_buf.c ****         case LV_IMG_CF_INDEXED_4BIT:
 406:lvgl\src\lv_draw/lv_img_buf.c ****             return LV_IMG_BUF_SIZE_INDEXED_4BIT(w, h);
 1221              		.loc 1 406 0
 1222 008a 00EBD070 		add	r0, r0, r0, lsr #31
 1223              	.LVL207:
 1224 008e 4010     		asrs	r0, r0, #1
 1225 0090 00FB0111 		mla	r1, r0, r1, r1
 1226              	.LVL208:
 1227 0094 01F14000 		add	r0, r1, #64
 1228 0098 7047     		bx	lr
 1229              	.LVL209:
 1230              	.L68:
 407:lvgl\src\lv_draw/lv_img_buf.c ****         case LV_IMG_CF_INDEXED_8BIT:
 408:lvgl\src\lv_draw/lv_img_buf.c ****             return LV_IMG_BUF_SIZE_INDEXED_8BIT(w, h);
 1231              		.loc 1 408 0
 1232 009a 01FB00F1 		mul	r1, r1, r0
 1233              	.LVL210:
 1234 009e 01F58060 		add	r0, r1, #1024
 1235              	.LVL211:
 1236 00a2 7047     		bx	lr
 1237              	.LVL212:
 1238              	.L77:
 409:lvgl\src\lv_draw/lv_img_buf.c ****         default:
 410:lvgl\src\lv_draw/lv_img_buf.c ****             return 0;
 1239              		.loc 1 410 0
 1240 00a4 0020     		movs	r0, #0
 1241              	.LVL213:
 411:lvgl\src\lv_draw/lv_img_buf.c ****     }
 412:lvgl\src\lv_draw/lv_img_buf.c **** }
 1242              		.loc 1 412 0
 1243 00a6 7047     		bx	lr
 1244              		.cfi_endproc
 1245              	.LFE44:
 1246              		.size	lv_img_buf_get_img_size, .-lv_img_buf_get_img_size
 1247              		.section	.text.lv_img_buf_alloc,"ax",%progbits
 1248              		.align	2
ARM GAS  C:\Users\strap\AppData\Local\Temp\ccvWLEyq.s 			page 42


 1249              		.global	lv_img_buf_alloc
 1250              		.thumb
 1251              		.thumb_func
 1252              		.type	lv_img_buf_alloc, %function
 1253              	lv_img_buf_alloc:
 1254              	.LFB42:
 332:lvgl\src\lv_draw/lv_img_buf.c ****     /* Allocate image descriptor */
 1255              		.loc 1 332 0
 1256              		.cfi_startproc
 1257              		@ args = 0, pretend = 0, frame = 0
 1258              		@ frame_needed = 0, uses_anonymous_args = 0
 1259              	.LVL214:
 1260 0000 F8B5     		push	{r3, r4, r5, r6, r7, lr}
 1261              		.cfi_def_cfa_offset 24
 1262              		.cfi_offset 3, -24
 1263              		.cfi_offset 4, -20
 1264              		.cfi_offset 5, -16
 1265              		.cfi_offset 6, -12
 1266              		.cfi_offset 7, -8
 1267              		.cfi_offset 14, -4
 1268 0002 0746     		mov	r7, r0
 1269 0004 0E46     		mov	r6, r1
 1270 0006 1546     		mov	r5, r2
 334:lvgl\src\lv_draw/lv_img_buf.c ****     if(dsc == NULL)
 1271              		.loc 1 334 0
 1272 0008 0C20     		movs	r0, #12
 1273              	.LVL215:
 1274 000a FFF7FEFF 		bl	lv_mem_alloc
 1275              	.LVL216:
 335:lvgl\src\lv_draw/lv_img_buf.c ****         return NULL;
 1276              		.loc 1 335 0
 1277 000e 60B3     		cbz	r0, .L82
 1278 0010 0446     		mov	r4, r0
 338:lvgl\src\lv_draw/lv_img_buf.c **** 
 1279              		.loc 1 338 0
 1280 0012 0C21     		movs	r1, #12
 1281 0014 FFF7FEFF 		bl	_lv_memset_00
 1282              	.LVL217:
 341:lvgl\src\lv_draw/lv_img_buf.c ****     if(dsc->data_size == 0) {
 1283              		.loc 1 341 0
 1284 0018 2A46     		mov	r2, r5
 1285 001a 3146     		mov	r1, r6
 1286 001c 3846     		mov	r0, r7
 1287 001e FFF7FEFF 		bl	lv_img_buf_get_img_size
 1288              	.LVL218:
 1289 0022 6060     		str	r0, [r4, #4]
 342:lvgl\src\lv_draw/lv_img_buf.c ****         lv_mem_free(dsc);
 1290              		.loc 1 342 0
 1291 0024 20B9     		cbnz	r0, .L80
 343:lvgl\src\lv_draw/lv_img_buf.c ****         return NULL;
 1292              		.loc 1 343 0
 1293 0026 2046     		mov	r0, r4
 1294 0028 FFF7FEFF 		bl	lv_mem_free
 1295              	.LVL219:
 344:lvgl\src\lv_draw/lv_img_buf.c ****     }
 1296              		.loc 1 344 0
 1297 002c 0020     		movs	r0, #0
ARM GAS  C:\Users\strap\AppData\Local\Temp\ccvWLEyq.s 			page 43


 1298 002e F8BD     		pop	{r3, r4, r5, r6, r7, pc}
 1299              	.LVL220:
 1300              	.L80:
 348:lvgl\src\lv_draw/lv_img_buf.c ****     if(dsc->data == NULL) {
 1301              		.loc 1 348 0
 1302 0030 FFF7FEFF 		bl	lv_mem_alloc
 1303              	.LVL221:
 1304 0034 A060     		str	r0, [r4, #8]
 349:lvgl\src\lv_draw/lv_img_buf.c ****         lv_mem_free(dsc);
 1305              		.loc 1 349 0
 1306 0036 20B9     		cbnz	r0, .L81
 350:lvgl\src\lv_draw/lv_img_buf.c ****         return NULL;
 1307              		.loc 1 350 0
 1308 0038 2046     		mov	r0, r4
 1309 003a FFF7FEFF 		bl	lv_mem_free
 1310              	.LVL222:
 351:lvgl\src\lv_draw/lv_img_buf.c ****     }
 1311              		.loc 1 351 0
 1312 003e 0020     		movs	r0, #0
 1313 0040 F8BD     		pop	{r3, r4, r5, r6, r7, pc}
 1314              	.LVL223:
 1315              	.L81:
 353:lvgl\src\lv_draw/lv_img_buf.c **** 
 1316              		.loc 1 353 0
 1317 0042 6168     		ldr	r1, [r4, #4]
 1318 0044 FFF7FEFF 		bl	_lv_memset_00
 1319              	.LVL224:
 356:lvgl\src\lv_draw/lv_img_buf.c ****     dsc->header.w = w;
 1320              		.loc 1 356 0
 1321 0048 2378     		ldrb	r3, [r4]	@ zero_extendqisi2
 1322 004a 6FF34713 		bfc	r3, #5, #3
 1323 004e 2370     		strb	r3, [r4]
 357:lvgl\src\lv_draw/lv_img_buf.c ****     dsc->header.h = h;
 1324              		.loc 1 357 0
 1325 0050 2368     		ldr	r3, [r4]
 1326 0052 67F39423 		bfi	r3, r7, #10, #11
 1327 0056 2360     		str	r3, [r4]
 358:lvgl\src\lv_draw/lv_img_buf.c ****     dsc->header.cf = cf;
 1328              		.loc 1 358 0
 1329 0058 1A0C     		lsrs	r2, r3, #16
 1330 005a 66F34F12 		bfi	r2, r6, #5, #11
 1331 005e 6280     		strh	r2, [r4, #2]	@ movhi
 359:lvgl\src\lv_draw/lv_img_buf.c ****     return dsc;
 1332              		.loc 1 359 0
 1333 0060 65F30403 		bfi	r3, r5, #0, #5
 1334 0064 2370     		strb	r3, [r4]
 360:lvgl\src\lv_draw/lv_img_buf.c **** }
 1335              		.loc 1 360 0
 1336 0066 2046     		mov	r0, r4
 1337 0068 F8BD     		pop	{r3, r4, r5, r6, r7, pc}
 1338              	.LVL225:
 1339              	.L82:
 336:lvgl\src\lv_draw/lv_img_buf.c **** 
 1340              		.loc 1 336 0
 1341 006a 0020     		movs	r0, #0
 1342              	.LVL226:
 361:lvgl\src\lv_draw/lv_img_buf.c **** 
ARM GAS  C:\Users\strap\AppData\Local\Temp\ccvWLEyq.s 			page 44


 1343              		.loc 1 361 0
 1344 006c F8BD     		pop	{r3, r4, r5, r6, r7, pc}
 1345              		.cfi_endproc
 1346              	.LFE42:
 1347              		.size	lv_img_buf_alloc, .-lv_img_buf_alloc
 1348 006e 00BF     		.section	.text._lv_img_buf_transform_init,"ax",%progbits
 1349              		.align	2
 1350              		.global	_lv_img_buf_transform_init
 1351              		.thumb
 1352              		.thumb_func
 1353              		.type	_lv_img_buf_transform_init, %function
 1354              	_lv_img_buf_transform_init:
 1355              	.LFB45:
 413:lvgl\src\lv_draw/lv_img_buf.c **** 
 414:lvgl\src\lv_draw/lv_img_buf.c **** 
 415:lvgl\src\lv_draw/lv_img_buf.c **** #if LV_USE_IMG_TRANSFORM
 416:lvgl\src\lv_draw/lv_img_buf.c **** /**
 417:lvgl\src\lv_draw/lv_img_buf.c ****  * Initialize a descriptor to transform an image
 418:lvgl\src\lv_draw/lv_img_buf.c ****  * @param dsc pointer to an `lv_img_transform_dsc_t` variable whose `cfg` field is initialized
 419:lvgl\src\lv_draw/lv_img_buf.c ****  */
 420:lvgl\src\lv_draw/lv_img_buf.c **** void _lv_img_buf_transform_init(lv_img_transform_dsc_t * dsc)
 421:lvgl\src\lv_draw/lv_img_buf.c **** {
 1356              		.loc 1 421 0
 1357              		.cfi_startproc
 1358              		@ args = 0, pretend = 0, frame = 0
 1359              		@ frame_needed = 0, uses_anonymous_args = 0
 1360              	.LVL227:
 1361 0000 2DE9F047 		push	{r4, r5, r6, r7, r8, r9, r10, lr}
 1362              		.cfi_def_cfa_offset 32
 1363              		.cfi_offset 4, -32
 1364              		.cfi_offset 5, -28
 1365              		.cfi_offset 6, -24
 1366              		.cfi_offset 7, -20
 1367              		.cfi_offset 8, -16
 1368              		.cfi_offset 9, -12
 1369              		.cfi_offset 10, -8
 1370              		.cfi_offset 14, -4
 1371 0004 0446     		mov	r4, r0
 422:lvgl\src\lv_draw/lv_img_buf.c ****     dsc->tmp.pivot_x_256 = dsc->cfg.pivot_x * 256;
 1372              		.loc 1 422 0
 1373 0006 B0F90830 		ldrsh	r3, [r0, #8]
 1374 000a 1B02     		lsls	r3, r3, #8
 1375 000c 4362     		str	r3, [r0, #36]
 423:lvgl\src\lv_draw/lv_img_buf.c ****     dsc->tmp.pivot_y_256 = dsc->cfg.pivot_y * 256;
 1376              		.loc 1 423 0
 1377 000e B0F90A30 		ldrsh	r3, [r0, #10]
 1378 0012 1B02     		lsls	r3, r3, #8
 1379 0014 8362     		str	r3, [r0, #40]
 424:lvgl\src\lv_draw/lv_img_buf.c **** 
 425:lvgl\src\lv_draw/lv_img_buf.c ****     int32_t angle_low = dsc->cfg.angle / 10;
 1380              		.loc 1 425 0
 1381 0016 B0F90C20 		ldrsh	r2, [r0, #12]
 1382 001a 414E     		ldr	r6, .L88
 1383 001c 86FB0230 		smull	r3, r0, r6, r2
 1384              	.LVL228:
 1385 0020 D317     		asrs	r3, r2, #31
 1386 0022 C3EBA003 		rsb	r3, r3, r0, asr #2
ARM GAS  C:\Users\strap\AppData\Local\Temp\ccvWLEyq.s 			page 45


 1387 0026 1BB2     		sxth	r3, r3
 1388              	.LVL229:
 426:lvgl\src\lv_draw/lv_img_buf.c ****     int32_t angle_hight = angle_low + 1;
 1389              		.loc 1 426 0
 1390 0028 03F10109 		add	r9, r3, #1
 1391              	.LVL230:
 427:lvgl\src\lv_draw/lv_img_buf.c ****     int32_t angle_rem = dsc->cfg.angle  - (angle_low * 10);
 1392              		.loc 1 427 0
 1393 002c 6FF00907 		mvn	r7, #9
 1394 0030 07FB0327 		mla	r7, r7, r3, r2
 1395              	.LVL231:
 428:lvgl\src\lv_draw/lv_img_buf.c **** 
 429:lvgl\src\lv_draw/lv_img_buf.c ****     int32_t s1 = _lv_trigo_sin(-angle_low);
 1396              		.loc 1 429 0
 1397 0034 9DB2     		uxth	r5, r3
 1398 0036 6842     		negs	r0, r5
 1399 0038 00B2     		sxth	r0, r0
 1400 003a FFF7FEFF 		bl	_lv_trigo_sin
 1401              	.LVL232:
 1402 003e 8046     		mov	r8, r0
 1403              	.LVL233:
 430:lvgl\src\lv_draw/lv_img_buf.c ****     int32_t s2 = _lv_trigo_sin(-angle_hight);
 1404              		.loc 1 430 0
 1405 0040 1FFA89F9 		uxth	r9, r9
 1406              	.LVL234:
 1407 0044 C9F10000 		rsb	r0, r9, #0
 1408              	.LVL235:
 1409 0048 00B2     		sxth	r0, r0
 1410 004a FFF7FEFF 		bl	_lv_trigo_sin
 1411              	.LVL236:
 1412 004e 8246     		mov	r10, r0
 1413              	.LVL237:
 431:lvgl\src\lv_draw/lv_img_buf.c **** 
 432:lvgl\src\lv_draw/lv_img_buf.c ****     int32_t c1 = _lv_trigo_sin(-angle_low + 90);
 1414              		.loc 1 432 0
 1415 0050 C5F15A00 		rsb	r0, r5, #90
 1416              	.LVL238:
 1417 0054 00B2     		sxth	r0, r0
 1418 0056 FFF7FEFF 		bl	_lv_trigo_sin
 1419              	.LVL239:
 1420 005a 0546     		mov	r5, r0
 1421              	.LVL240:
 433:lvgl\src\lv_draw/lv_img_buf.c ****     int32_t c2 = _lv_trigo_sin(-angle_hight + 90);
 1422              		.loc 1 433 0
 1423 005c C9F15A00 		rsb	r0, r9, #90
 1424              	.LVL241:
 1425 0060 00B2     		sxth	r0, r0
 1426 0062 FFF7FEFF 		bl	_lv_trigo_sin
 1427              	.LVL242:
 434:lvgl\src\lv_draw/lv_img_buf.c **** 
 435:lvgl\src\lv_draw/lv_img_buf.c ****     dsc->tmp.sinma = (s1 * (10 - angle_rem) + s2 * angle_rem) / 10;
 1428              		.loc 1 435 0
 1429 0066 C7F10A02 		rsb	r2, r7, #10
 1430 006a 0AFB07F3 		mul	r3, r10, r7
 1431 006e 02FB0833 		mla	r3, r2, r8, r3
 1432 0072 86FB03E1 		smull	lr, r1, r6, r3
 1433 0076 DB17     		asrs	r3, r3, #31
ARM GAS  C:\Users\strap\AppData\Local\Temp\ccvWLEyq.s 			page 46


 1434 0078 C3EBA103 		rsb	r3, r3, r1, asr #2
 436:lvgl\src\lv_draw/lv_img_buf.c ****     dsc->tmp.cosma = (c1 * (10 - angle_rem) + c2 * angle_rem) / 10;
 1435              		.loc 1 436 0
 1436 007c 00FB07F0 		mul	r0, r0, r7
 1437              	.LVL243:
 1438 0080 02FB0500 		mla	r0, r2, r5, r0
 1439 0084 86FB0026 		smull	r2, r6, r6, r0
 1440 0088 C017     		asrs	r0, r0, #31
 1441 008a C0EBA600 		rsb	r0, r0, r6, asr #2
 437:lvgl\src\lv_draw/lv_img_buf.c **** 
 438:lvgl\src\lv_draw/lv_img_buf.c ****     /*Use smaller value to avoid overflow*/
 439:lvgl\src\lv_draw/lv_img_buf.c ****     dsc->tmp.sinma = dsc->tmp.sinma >> (LV_TRIGO_SHIFT - _LV_TRANSFORM_TRIGO_SHIFT);
 1442              		.loc 1 439 0
 1443 008e 5B11     		asrs	r3, r3, #5
 1444 0090 E362     		str	r3, [r4, #44]
 440:lvgl\src\lv_draw/lv_img_buf.c ****     dsc->tmp.cosma = dsc->tmp.cosma >> (LV_TRIGO_SHIFT - _LV_TRANSFORM_TRIGO_SHIFT);
 1445              		.loc 1 440 0
 1446 0092 4011     		asrs	r0, r0, #5
 1447 0094 2063     		str	r0, [r4, #48]
 441:lvgl\src\lv_draw/lv_img_buf.c **** 
 442:lvgl\src\lv_draw/lv_img_buf.c ****     dsc->tmp.chroma_keyed = lv_img_cf_is_chroma_keyed(dsc->cfg.cf) ? 1 : 0;
 1448              		.loc 1 442 0
 1449 0096 A07C     		ldrb	r0, [r4, #18]	@ zero_extendqisi2
 1450 0098 FFF7FEFF 		bl	lv_img_cf_is_chroma_keyed
 1451              	.LVL244:
 1452 009c 94F83430 		ldrb	r3, [r4, #52]	@ zero_extendqisi2
 1453 00a0 60F30003 		bfi	r3, r0, #0, #1
 1454 00a4 84F83430 		strb	r3, [r4, #52]
 443:lvgl\src\lv_draw/lv_img_buf.c ****     dsc->tmp.has_alpha = lv_img_cf_has_alpha(dsc->cfg.cf) ? 1 : 0;
 1455              		.loc 1 443 0
 1456 00a8 A07C     		ldrb	r0, [r4, #18]	@ zero_extendqisi2
 1457 00aa FFF7FEFF 		bl	lv_img_cf_has_alpha
 1458              	.LVL245:
 1459 00ae 94F83430 		ldrb	r3, [r4, #52]	@ zero_extendqisi2
 1460 00b2 60F34103 		bfi	r3, r0, #1, #1
 1461 00b6 84F83430 		strb	r3, [r4, #52]
 444:lvgl\src\lv_draw/lv_img_buf.c ****     if(dsc->cfg.cf == LV_IMG_CF_TRUE_COLOR || dsc->cfg.cf == LV_IMG_CF_TRUE_COLOR_ALPHA ||
 1462              		.loc 1 444 0
 1463 00ba A27C     		ldrb	r2, [r4, #18]	@ zero_extendqisi2
 1464 00bc 131F     		subs	r3, r2, #4
 1465 00be DBB2     		uxtb	r3, r3
 1466 00c0 022B     		cmp	r3, #2
 1467 00c2 06D8     		bhi	.L85
 445:lvgl\src\lv_draw/lv_img_buf.c ****        dsc->cfg.cf == LV_IMG_CF_TRUE_COLOR_CHROMA_KEYED) {
 446:lvgl\src\lv_draw/lv_img_buf.c ****         dsc->tmp.native_color = 1;
 1468              		.loc 1 446 0
 1469 00c4 94F83430 		ldrb	r3, [r4, #52]	@ zero_extendqisi2
 1470 00c8 43F00403 		orr	r3, r3, #4
 1471 00cc 84F83430 		strb	r3, [r4, #52]
 1472 00d0 05E0     		b	.L86
 1473              	.L85:
 447:lvgl\src\lv_draw/lv_img_buf.c ****     }
 448:lvgl\src\lv_draw/lv_img_buf.c ****     else {
 449:lvgl\src\lv_draw/lv_img_buf.c ****         dsc->tmp.native_color = 0;
 1474              		.loc 1 449 0
 1475 00d2 94F83430 		ldrb	r3, [r4, #52]	@ zero_extendqisi2
 1476 00d6 6FF38203 		bfc	r3, #2, #1
ARM GAS  C:\Users\strap\AppData\Local\Temp\ccvWLEyq.s 			page 47


 1477 00da 84F83430 		strb	r3, [r4, #52]
 1478              	.L86:
 450:lvgl\src\lv_draw/lv_img_buf.c ****     }
 451:lvgl\src\lv_draw/lv_img_buf.c **** 
 452:lvgl\src\lv_draw/lv_img_buf.c ****     dsc->tmp.img_dsc.data = dsc->cfg.src;
 1479              		.loc 1 452 0
 1480 00de 2368     		ldr	r3, [r4]
 1481 00e0 2362     		str	r3, [r4, #32]
 453:lvgl\src\lv_draw/lv_img_buf.c ****     dsc->tmp.img_dsc.header.always_zero = 0;
 1482              		.loc 1 453 0
 1483 00e2 237E     		ldrb	r3, [r4, #24]	@ zero_extendqisi2
 454:lvgl\src\lv_draw/lv_img_buf.c ****     dsc->tmp.img_dsc.header.cf = dsc->cfg.cf;
 1484              		.loc 1 454 0
 1485 00e4 03F01F03 		and	r3, r3, #31
 1486 00e8 62F30403 		bfi	r3, r2, #0, #5
 1487 00ec 2376     		strb	r3, [r4, #24]
 455:lvgl\src\lv_draw/lv_img_buf.c ****     dsc->tmp.img_dsc.header.w = dsc->cfg.src_w;
 1488              		.loc 1 455 0
 1489 00ee B4F90420 		ldrsh	r2, [r4, #4]
 1490 00f2 A369     		ldr	r3, [r4, #24]
 1491 00f4 62F39423 		bfi	r3, r2, #10, #11
 1492 00f8 A361     		str	r3, [r4, #24]
 456:lvgl\src\lv_draw/lv_img_buf.c ****     dsc->tmp.img_dsc.header.h = dsc->cfg.src_h;
 1493              		.loc 1 456 0
 1494 00fa B4F90620 		ldrsh	r2, [r4, #6]
 1495 00fe 1B0C     		lsrs	r3, r3, #16
 1496 0100 62F34F13 		bfi	r3, r2, #5, #11
 1497 0104 6383     		strh	r3, [r4, #26]	@ movhi
 457:lvgl\src\lv_draw/lv_img_buf.c **** 
 458:lvgl\src\lv_draw/lv_img_buf.c ****     /* The inverse of the zoom will be sued during the transformation
 459:lvgl\src\lv_draw/lv_img_buf.c ****      *  + dsc->cfg.zoom / 2 for rounding*/
 460:lvgl\src\lv_draw/lv_img_buf.c ****     dsc->tmp.zoom_inv = (((256 * 256) << _LV_ZOOM_INV_UPSCALE) + dsc->cfg.zoom / 2) / dsc->cfg.zoom
 1498              		.loc 1 460 0
 1499 0106 E289     		ldrh	r2, [r4, #14]
 1500 0108 5308     		lsrs	r3, r2, #1
 1501 010a 03F50013 		add	r3, r3, #2097152
 1502 010e 93FBF2F3 		sdiv	r3, r3, r2
 1503 0112 A363     		str	r3, [r4, #56]
 461:lvgl\src\lv_draw/lv_img_buf.c **** 
 462:lvgl\src\lv_draw/lv_img_buf.c ****     dsc->res.opa = LV_OPA_COVER;
 1504              		.loc 1 462 0
 1505 0114 FF23     		movs	r3, #255
 1506 0116 A375     		strb	r3, [r4, #22]
 463:lvgl\src\lv_draw/lv_img_buf.c ****     dsc->res.color = dsc->cfg.color;
 1507              		.loc 1 463 0
 1508 0118 238A     		ldrh	r3, [r4, #16]
 1509 011a A382     		strh	r3, [r4, #20]	@ movhi
 1510 011c BDE8F087 		pop	{r4, r5, r6, r7, r8, r9, r10, pc}
 1511              	.LVL246:
 1512              	.L89:
 1513              		.align	2
 1514              	.L88:
 1515 0120 67666666 		.word	1717986919
 1516              		.cfi_endproc
 1517              	.LFE45:
 1518              		.size	_lv_img_buf_transform_init, .-_lv_img_buf_transform_init
 1519              		.section	.text._lv_img_buf_get_transformed_area,"ax",%progbits
ARM GAS  C:\Users\strap\AppData\Local\Temp\ccvWLEyq.s 			page 48


 1520              		.align	2
 1521              		.global	_lv_img_buf_get_transformed_area
 1522              		.thumb
 1523              		.thumb_func
 1524              		.type	_lv_img_buf_get_transformed_area, %function
 1525              	_lv_img_buf_get_transformed_area:
 1526              	.LFB46:
 464:lvgl\src\lv_draw/lv_img_buf.c **** }
 465:lvgl\src\lv_draw/lv_img_buf.c **** #endif
 466:lvgl\src\lv_draw/lv_img_buf.c **** 
 467:lvgl\src\lv_draw/lv_img_buf.c **** /**
 468:lvgl\src\lv_draw/lv_img_buf.c ****  * Get the area of a rectangle if its rotated and scaled
 469:lvgl\src\lv_draw/lv_img_buf.c ****  * @param res store the coordinates here
 470:lvgl\src\lv_draw/lv_img_buf.c ****  * @param w width of the rectangle to transform
 471:lvgl\src\lv_draw/lv_img_buf.c ****  * @param h height of the rectangle to transform
 472:lvgl\src\lv_draw/lv_img_buf.c ****  * @param angle angle of rotation
 473:lvgl\src\lv_draw/lv_img_buf.c ****  * @param zoom zoom, (256 no zoom)
 474:lvgl\src\lv_draw/lv_img_buf.c ****  * @param pivot x,y pivot coordinates of rotation
 475:lvgl\src\lv_draw/lv_img_buf.c ****  */
 476:lvgl\src\lv_draw/lv_img_buf.c **** void _lv_img_buf_get_transformed_area(lv_area_t * res, lv_coord_t w, lv_coord_t h, int16_t angle, u
 477:lvgl\src\lv_draw/lv_img_buf.c ****                                       const lv_point_t * pivot)
 478:lvgl\src\lv_draw/lv_img_buf.c **** {
 1527              		.loc 1 478 0
 1528              		.cfi_startproc
 1529              		@ args = 8, pretend = 0, frame = 0
 1530              		@ frame_needed = 0, uses_anonymous_args = 0
 1531              	.LVL247:
 1532 0000 2DE9F84F 		push	{r3, r4, r5, r6, r7, r8, r9, r10, fp, lr}
 1533              		.cfi_def_cfa_offset 40
 1534              		.cfi_offset 3, -40
 1535              		.cfi_offset 4, -36
 1536              		.cfi_offset 5, -32
 1537              		.cfi_offset 6, -28
 1538              		.cfi_offset 7, -24
 1539              		.cfi_offset 8, -20
 1540              		.cfi_offset 9, -16
 1541              		.cfi_offset 10, -12
 1542              		.cfi_offset 11, -8
 1543              		.cfi_offset 14, -4
 1544 0004 BDF828E0 		ldrh	lr, [sp, #40]
 1545 0008 0B9C     		ldr	r4, [sp, #44]
 479:lvgl\src\lv_draw/lv_img_buf.c **** #if LV_USE_IMG_TRANSFORM
 480:lvgl\src\lv_draw/lv_img_buf.c ****     if(angle == 0 && zoom == LV_IMG_ZOOM_NONE) {
 1546              		.loc 1 480 0
 1547 000a 1E46     		mov	r6, r3
 1548 000c 53B9     		cbnz	r3, .L91
 1549              		.loc 1 480 0 is_stmt 0 discriminator 1
 1550 000e BEF5807F 		cmp	lr, #256
 1551 0012 07D1     		bne	.L91
 481:lvgl\src\lv_draw/lv_img_buf.c ****         res->x1 = 0;
 1552              		.loc 1 481 0 is_stmt 1
 1553 0014 0380     		strh	r3, [r0]	@ movhi
 482:lvgl\src\lv_draw/lv_img_buf.c ****         res->y1 = 0;
 1554              		.loc 1 482 0
 1555 0016 4380     		strh	r3, [r0, #2]	@ movhi
 483:lvgl\src\lv_draw/lv_img_buf.c ****         res->x2 = w - 1;
 1556              		.loc 1 483 0
ARM GAS  C:\Users\strap\AppData\Local\Temp\ccvWLEyq.s 			page 49


 1557 0018 0139     		subs	r1, r1, #1
 1558              	.LVL248:
 1559 001a 8180     		strh	r1, [r0, #4]	@ movhi
 484:lvgl\src\lv_draw/lv_img_buf.c ****         res->y2 = h - 1;
 1560              		.loc 1 484 0
 1561 001c 013A     		subs	r2, r2, #1
 1562              	.LVL249:
 1563 001e C280     		strh	r2, [r0, #6]	@ movhi
 485:lvgl\src\lv_draw/lv_img_buf.c ****         return;
 1564              		.loc 1 485 0
 1565 0020 BDE8F88F 		pop	{r3, r4, r5, r6, r7, r8, r9, r10, fp, pc}
 1566              	.LVL250:
 1567              	.L91:
 486:lvgl\src\lv_draw/lv_img_buf.c ****     }
 487:lvgl\src\lv_draw/lv_img_buf.c **** 
 488:lvgl\src\lv_draw/lv_img_buf.c **** 
 489:lvgl\src\lv_draw/lv_img_buf.c ****     res->x1 = (((-pivot->x) * zoom) >> 8) - 1;
 1568              		.loc 1 489 0
 1569 0024 B4F90070 		ldrsh	r7, [r4]
 1570 0028 7F42     		negs	r7, r7
 1571 002a 0EFB07F7 		mul	r7, lr, r7
 1572 002e 3F12     		asrs	r7, r7, #8
 1573 0030 013F     		subs	r7, r7, #1
 1574 0032 BFB2     		uxth	r7, r7
 1575 0034 0780     		strh	r7, [r0]	@ movhi
 490:lvgl\src\lv_draw/lv_img_buf.c ****     res->y1 = (((-pivot->y) * zoom) >> 8) - 1;
 1576              		.loc 1 490 0
 1577 0036 B4F90250 		ldrsh	r5, [r4, #2]
 1578 003a 6D42     		negs	r5, r5
 1579 003c 05FB0EF5 		mul	r5, r5, lr
 1580 0040 2D12     		asrs	r5, r5, #8
 1581 0042 013D     		subs	r5, r5, #1
 1582 0044 ADB2     		uxth	r5, r5
 1583 0046 4580     		strh	r5, [r0, #2]	@ movhi
 491:lvgl\src\lv_draw/lv_img_buf.c ****     res->x2 = (((w - pivot->x) * zoom) >> 8) + 2;
 1584              		.loc 1 491 0
 1585 0048 B4F90030 		ldrsh	r3, [r4]
 1586              	.LVL251:
 1587 004c C91A     		subs	r1, r1, r3
 1588              	.LVL252:
 1589 004e 01FB0EF1 		mul	r1, r1, lr
 1590 0052 0912     		asrs	r1, r1, #8
 1591 0054 0231     		adds	r1, r1, #2
 1592 0056 89B2     		uxth	r1, r1
 1593 0058 8180     		strh	r1, [r0, #4]	@ movhi
 492:lvgl\src\lv_draw/lv_img_buf.c ****     res->y2 = (((h - pivot->y) * zoom) >> 8) + 2;
 1594              		.loc 1 492 0
 1595 005a B4F90230 		ldrsh	r3, [r4, #2]
 1596 005e D31A     		subs	r3, r2, r3
 1597 0060 03FB0EF3 		mul	r3, r3, lr
 1598 0064 1B12     		asrs	r3, r3, #8
 1599 0066 0233     		adds	r3, r3, #2
 1600 0068 9BB2     		uxth	r3, r3
 1601 006a C380     		strh	r3, [r0, #6]	@ movhi
 493:lvgl\src\lv_draw/lv_img_buf.c **** 
 494:lvgl\src\lv_draw/lv_img_buf.c ****     if(angle == 0) {
 1602              		.loc 1 494 0
ARM GAS  C:\Users\strap\AppData\Local\Temp\ccvWLEyq.s 			page 50


 1603 006c 8EB9     		cbnz	r6, .L93
 495:lvgl\src\lv_draw/lv_img_buf.c ****         res->x1 += pivot->x;
 1604              		.loc 1 495 0
 1605 006e B4F90020 		ldrsh	r2, [r4]
 1606              	.LVL253:
 1607 0072 1744     		add	r7, r7, r2
 1608 0074 0780     		strh	r7, [r0]	@ movhi
 496:lvgl\src\lv_draw/lv_img_buf.c ****         res->y1 += pivot->y;
 1609              		.loc 1 496 0
 1610 0076 B4F90220 		ldrsh	r2, [r4, #2]
 1611 007a 1544     		add	r5, r5, r2
 1612 007c 4580     		strh	r5, [r0, #2]	@ movhi
 497:lvgl\src\lv_draw/lv_img_buf.c ****         res->x2 += pivot->x;
 1613              		.loc 1 497 0
 1614 007e B4F90020 		ldrsh	r2, [r4]
 1615 0082 1144     		add	r1, r1, r2
 1616 0084 8180     		strh	r1, [r0, #4]	@ movhi
 498:lvgl\src\lv_draw/lv_img_buf.c ****         res->y2 += pivot->y;
 1617              		.loc 1 498 0
 1618 0086 B4F90220 		ldrsh	r2, [r4, #2]
 1619 008a 1344     		add	r3, r3, r2
 1620 008c C380     		strh	r3, [r0, #6]	@ movhi
 499:lvgl\src\lv_draw/lv_img_buf.c ****         return;
 1621              		.loc 1 499 0
 1622 008e BDE8F88F 		pop	{r3, r4, r5, r6, r7, r8, r9, r10, fp, pc}
 1623              	.LVL254:
 1624              	.L93:
 1625 0092 0546     		mov	r5, r0
 500:lvgl\src\lv_draw/lv_img_buf.c ****     }
 501:lvgl\src\lv_draw/lv_img_buf.c **** 
 502:lvgl\src\lv_draw/lv_img_buf.c ****     int32_t angle_low = angle / 10;
 1626              		.loc 1 502 0
 1627 0094 DFF85491 		ldr	r9, .L96
 1628 0098 89FB0637 		smull	r3, r7, r9, r6
 1629 009c F317     		asrs	r3, r6, #31
 1630 009e C3EBA707 		rsb	r7, r3, r7, asr #2
 1631 00a2 3FB2     		sxth	r7, r7
 1632              	.LVL255:
 503:lvgl\src\lv_draw/lv_img_buf.c ****     int32_t angle_hight = angle_low + 1;
 1633              		.loc 1 503 0
 1634 00a4 07F1010A 		add	r10, r7, #1
 1635              	.LVL256:
 504:lvgl\src\lv_draw/lv_img_buf.c ****     int32_t angle_rem = angle  - (angle_low * 10);
 1636              		.loc 1 504 0
 1637 00a8 6FF00900 		mvn	r0, #9
 1638              	.LVL257:
 1639 00ac 00FB0766 		mla	r6, r0, r7, r6
 1640              	.LVL258:
 505:lvgl\src\lv_draw/lv_img_buf.c **** 
 506:lvgl\src\lv_draw/lv_img_buf.c ****     int32_t s1 = _lv_trigo_sin(angle_low);
 1641              		.loc 1 506 0
 1642 00b0 3846     		mov	r0, r7
 1643 00b2 FFF7FEFF 		bl	_lv_trigo_sin
 1644              	.LVL259:
 1645 00b6 8046     		mov	r8, r0
 1646              	.LVL260:
 507:lvgl\src\lv_draw/lv_img_buf.c ****     int32_t s2 = _lv_trigo_sin(angle_hight);
ARM GAS  C:\Users\strap\AppData\Local\Temp\ccvWLEyq.s 			page 51


 1647              		.loc 1 507 0
 1648 00b8 0FFA8AF0 		sxth	r0, r10
 1649              	.LVL261:
 1650 00bc FFF7FEFF 		bl	_lv_trigo_sin
 1651              	.LVL262:
 1652 00c0 8346     		mov	fp, r0
 1653              	.LVL263:
 508:lvgl\src\lv_draw/lv_img_buf.c **** 
 509:lvgl\src\lv_draw/lv_img_buf.c ****     int32_t c1 = _lv_trigo_sin(angle_low + 90);
 1654              		.loc 1 509 0
 1655 00c2 07F15A00 		add	r0, r7, #90
 1656              	.LVL264:
 1657 00c6 00B2     		sxth	r0, r0
 1658 00c8 FFF7FEFF 		bl	_lv_trigo_sin
 1659              	.LVL265:
 1660 00cc 0746     		mov	r7, r0
 1661              	.LVL266:
 510:lvgl\src\lv_draw/lv_img_buf.c ****     int32_t c2 = _lv_trigo_sin(angle_hight + 90);
 1662              		.loc 1 510 0
 1663 00ce 0AF15A00 		add	r0, r10, #90
 1664              	.LVL267:
 1665 00d2 00B2     		sxth	r0, r0
 1666 00d4 FFF7FEFF 		bl	_lv_trigo_sin
 1667              	.LVL268:
 511:lvgl\src\lv_draw/lv_img_buf.c **** 
 512:lvgl\src\lv_draw/lv_img_buf.c ****     int32_t sinma = (s1 * (10 - angle_rem) + s2 * angle_rem) / 10;
 1668              		.loc 1 512 0
 1669 00d8 C6F10A03 		rsb	r3, r6, #10
 1670 00dc 0BFB06FB 		mul	fp, fp, r6
 1671              	.LVL269:
 1672 00e0 03FB08B8 		mla	r8, r3, r8, fp
 1673              	.LVL270:
 1674 00e4 89FB0812 		smull	r1, r2, r9, r8
 1675 00e8 4FEAE878 		asr	r8, r8, #31
 1676 00ec C8EBA202 		rsb	r2, r8, r2, asr #2
 1677              	.LVL271:
 513:lvgl\src\lv_draw/lv_img_buf.c ****     int32_t cosma = (c1 * (10 - angle_rem) + c2 * angle_rem) / 10;
 1678              		.loc 1 513 0
 1679 00f0 00FB06F0 		mul	r0, r0, r6
 1680              	.LVL272:
 1681 00f4 03FB0700 		mla	r0, r3, r7, r0
 1682 00f8 89FB0039 		smull	r3, r9, r9, r0
 1683 00fc C017     		asrs	r0, r0, #31
 1684 00fe C0EBA900 		rsb	r0, r0, r9, asr #2
 1685              	.LVL273:
 514:lvgl\src\lv_draw/lv_img_buf.c **** 
 515:lvgl\src\lv_draw/lv_img_buf.c ****     /*Use smaller value to avoid overflow*/
 516:lvgl\src\lv_draw/lv_img_buf.c ****     sinma = sinma >> (LV_TRIGO_SHIFT - _LV_TRANSFORM_TRIGO_SHIFT);
 1686              		.loc 1 516 0
 1687 0102 5211     		asrs	r2, r2, #5
 1688              	.LVL274:
 517:lvgl\src\lv_draw/lv_img_buf.c ****     cosma = cosma >> (LV_TRIGO_SHIFT - _LV_TRANSFORM_TRIGO_SHIFT);
 1689              		.loc 1 517 0
 1690 0104 4011     		asrs	r0, r0, #5
 1691              	.LVL275:
 518:lvgl\src\lv_draw/lv_img_buf.c **** 
 519:lvgl\src\lv_draw/lv_img_buf.c ****     lv_point_t lt;
ARM GAS  C:\Users\strap\AppData\Local\Temp\ccvWLEyq.s 			page 52


 520:lvgl\src\lv_draw/lv_img_buf.c ****     lv_point_t rt;
 521:lvgl\src\lv_draw/lv_img_buf.c ****     lv_point_t lb;
 522:lvgl\src\lv_draw/lv_img_buf.c ****     lv_point_t rb;
 523:lvgl\src\lv_draw/lv_img_buf.c **** 
 524:lvgl\src\lv_draw/lv_img_buf.c ****     lv_coord_t xt;
 525:lvgl\src\lv_draw/lv_img_buf.c ****     lv_coord_t yt;
 526:lvgl\src\lv_draw/lv_img_buf.c **** 
 527:lvgl\src\lv_draw/lv_img_buf.c ****     xt = res->x1;
 1692              		.loc 1 527 0
 1693 0106 B5F90030 		ldrsh	r3, [r5]
 1694              	.LVL276:
 528:lvgl\src\lv_draw/lv_img_buf.c ****     yt = res->y1;
 1695              		.loc 1 528 0
 1696 010a B5F902C0 		ldrsh	ip, [r5, #2]
 1697              	.LVL277:
 529:lvgl\src\lv_draw/lv_img_buf.c ****     lt.x = ((cosma * xt - sinma * yt) >> _LV_TRANSFORM_TRIGO_SHIFT) + pivot->x;
 1698              		.loc 1 529 0
 1699 010e 03FB00F1 		mul	r1, r3, r0
 1700 0112 0CFB02FE 		mul	lr, ip, r2
 1701 0116 CEEB0109 		rsb	r9, lr, r1
 1702 011a 2788     		ldrh	r7, [r4]
 1703              	.LVL278:
 1704 011c 07EBA929 		add	r9, r7, r9, asr #10
 1705 0120 0FFA89F9 		sxth	r9, r9
 530:lvgl\src\lv_draw/lv_img_buf.c ****     lt.y = ((sinma * xt + cosma * yt) >> _LV_TRANSFORM_TRIGO_SHIFT) + pivot->y;
 1706              		.loc 1 530 0
 1707 0124 03FB02F3 		mul	r3, r3, r2
 1708              	.LVL279:
 1709 0128 0CFB00FC 		mul	ip, ip, r0
 1710              	.LVL280:
 1711 012c 03EB0C08 		add	r8, r3, ip
 1712 0130 6688     		ldrh	r6, [r4, #2]
 1713              	.LVL281:
 1714 0132 06EBA828 		add	r8, r6, r8, asr #10
 1715 0136 0FFA88F8 		sxth	r8, r8
 531:lvgl\src\lv_draw/lv_img_buf.c **** 
 532:lvgl\src\lv_draw/lv_img_buf.c ****     xt = res->x2;
 1716              		.loc 1 532 0
 1717 013a B5F904A0 		ldrsh	r10, [r5, #4]
 1718              	.LVL282:
 533:lvgl\src\lv_draw/lv_img_buf.c ****     yt = res->y1;
 534:lvgl\src\lv_draw/lv_img_buf.c ****     rt.x = ((cosma * xt - sinma * yt) >> _LV_TRANSFORM_TRIGO_SHIFT) + pivot->x;
 1719              		.loc 1 534 0
 1720 013e 0AFB00FB 		mul	fp, r10, r0
 1721 0142 CEEB0B0E 		rsb	lr, lr, fp
 1722 0146 07EBAE2E 		add	lr, r7, lr, asr #10
 1723 014a 0FFA8EFE 		sxth	lr, lr
 535:lvgl\src\lv_draw/lv_img_buf.c ****     rt.y = ((sinma * xt + cosma * yt) >> _LV_TRANSFORM_TRIGO_SHIFT) + pivot->y;
 1724              		.loc 1 535 0
 1725 014e 0AFB02FA 		mul	r10, r10, r2
 1726              	.LVL283:
 1727 0152 0CEB0A04 		add	r4, ip, r10
 1728 0156 06EBA424 		add	r4, r6, r4, asr #10
 1729 015a 24B2     		sxth	r4, r4
 1730              	.LVL284:
 536:lvgl\src\lv_draw/lv_img_buf.c **** 
 537:lvgl\src\lv_draw/lv_img_buf.c ****     xt = res->x1;
ARM GAS  C:\Users\strap\AppData\Local\Temp\ccvWLEyq.s 			page 53


 538:lvgl\src\lv_draw/lv_img_buf.c ****     yt = res->y2;
 1731              		.loc 1 538 0
 1732 015c B5F906C0 		ldrsh	ip, [r5, #6]
 1733              	.LVL285:
 539:lvgl\src\lv_draw/lv_img_buf.c ****     lb.x = ((cosma * xt - sinma * yt) >> _LV_TRANSFORM_TRIGO_SHIFT) + pivot->x;
 1734              		.loc 1 539 0
 1735 0160 0CFB02F2 		mul	r2, ip, r2
 1736              	.LVL286:
 1737 0164 891A     		subs	r1, r1, r2
 1738 0166 07EBA121 		add	r1, r7, r1, asr #10
 1739 016a 09B2     		sxth	r1, r1
 540:lvgl\src\lv_draw/lv_img_buf.c ****     lb.y = ((sinma * xt + cosma * yt) >> _LV_TRANSFORM_TRIGO_SHIFT) + pivot->y;
 1740              		.loc 1 540 0
 1741 016c 0CFB00F0 		mul	r0, ip, r0
 1742              	.LVL287:
 1743 0170 0344     		add	r3, r3, r0
 1744 0172 06EBA323 		add	r3, r6, r3, asr #10
 1745 0176 1BB2     		sxth	r3, r3
 1746              	.LVL288:
 541:lvgl\src\lv_draw/lv_img_buf.c **** 
 542:lvgl\src\lv_draw/lv_img_buf.c ****     xt = res->x2;
 543:lvgl\src\lv_draw/lv_img_buf.c ****     yt = res->y2;
 544:lvgl\src\lv_draw/lv_img_buf.c ****     rb.x = ((cosma * xt - sinma * yt) >> _LV_TRANSFORM_TRIGO_SHIFT) + pivot->x;
 1747              		.loc 1 544 0
 1748 0178 C2EB0B02 		rsb	r2, r2, fp
 1749 017c 07EBA227 		add	r7, r7, r2, asr #10
 1750 0180 3FB2     		sxth	r7, r7
 545:lvgl\src\lv_draw/lv_img_buf.c ****     rb.y = ((sinma * xt + cosma * yt) >> _LV_TRANSFORM_TRIGO_SHIFT) + pivot->y;
 1751              		.loc 1 545 0
 1752 0182 5044     		add	r0, r0, r10
 1753 0184 06EBA026 		add	r6, r6, r0, asr #10
 1754 0188 36B2     		sxth	r6, r6
 546:lvgl\src\lv_draw/lv_img_buf.c **** 
 547:lvgl\src\lv_draw/lv_img_buf.c ****     res->x1 = LV_MATH_MIN4(lb.x, lt.x, rb.x, rt.x);
 1755              		.loc 1 547 0
 1756 018a 7046     		mov	r0, lr
 1757 018c BE45     		cmp	lr, r7
 1758 018e A8BF     		it	ge
 1759 0190 3846     		movge	r0, r7
 1760 0192 4A46     		mov	r2, r9
 1761 0194 8945     		cmp	r9, r1
 1762 0196 A8BF     		it	ge
 1763 0198 0A46     		movge	r2, r1
 1764 019a 8242     		cmp	r2, r0
 1765 019c A8BF     		it	ge
 1766 019e 0246     		movge	r2, r0
 1767 01a0 2A80     		strh	r2, [r5]	@ movhi
 548:lvgl\src\lv_draw/lv_img_buf.c ****     res->x2 = LV_MATH_MAX4(lb.x, lt.x, rb.x, rt.x);
 1768              		.loc 1 548 0
 1769 01a2 7745     		cmp	r7, lr
 1770 01a4 B8BF     		it	lt
 1771 01a6 7746     		movlt	r7, lr
 1772 01a8 8945     		cmp	r9, r1
 1773 01aa B8BF     		it	lt
 1774 01ac 8946     		movlt	r9, r1
 1775 01ae B945     		cmp	r9, r7
 1776 01b0 B8BF     		it	lt
ARM GAS  C:\Users\strap\AppData\Local\Temp\ccvWLEyq.s 			page 54


 1777 01b2 B946     		movlt	r9, r7
 1778 01b4 A5F80490 		strh	r9, [r5, #4]	@ movhi
 1779              	.LVL289:
 549:lvgl\src\lv_draw/lv_img_buf.c ****     res->y1 = LV_MATH_MIN4(lb.y, lt.y, rb.y, rt.y);
 1780              		.loc 1 549 0
 1781 01b8 2146     		mov	r1, r4
 1782 01ba B442     		cmp	r4, r6
 1783 01bc A8BF     		it	ge
 1784 01be 3146     		movge	r1, r6
 1785 01c0 4246     		mov	r2, r8
 1786 01c2 9845     		cmp	r8, r3
 1787 01c4 A8BF     		it	ge
 1788 01c6 1A46     		movge	r2, r3
 1789 01c8 8A42     		cmp	r2, r1
 1790 01ca A8BF     		it	ge
 1791 01cc 0A46     		movge	r2, r1
 1792 01ce 6A80     		strh	r2, [r5, #2]	@ movhi
 550:lvgl\src\lv_draw/lv_img_buf.c ****     res->y2 = LV_MATH_MAX4(lb.y, lt.y, rb.y, rt.y);
 1793              		.loc 1 550 0
 1794 01d0 A642     		cmp	r6, r4
 1795 01d2 B8BF     		it	lt
 1796 01d4 2646     		movlt	r6, r4
 1797 01d6 9845     		cmp	r8, r3
 1798 01d8 B8BF     		it	lt
 1799 01da 9846     		movlt	r8, r3
 1800 01dc B045     		cmp	r8, r6
 1801 01de B8BF     		it	lt
 1802 01e0 B046     		movlt	r8, r6
 1803 01e2 A5F80680 		strh	r8, [r5, #6]	@ movhi
 1804 01e6 BDE8F88F 		pop	{r3, r4, r5, r6, r7, r8, r9, r10, fp, pc}
 1805              	.LVL290:
 1806              	.L97:
 1807 01ea 00BF     		.align	2
 1808              	.L96:
 1809 01ec 67666666 		.word	1717986919
 1810              		.cfi_endproc
 1811              	.LFE46:
 1812              		.size	_lv_img_buf_get_transformed_area, .-_lv_img_buf_get_transformed_area
 1813              		.section	.text._lv_img_buf_transform_anti_alias,"ax",%progbits
 1814              		.align	2
 1815              		.global	_lv_img_buf_transform_anti_alias
 1816              		.thumb
 1817              		.thumb_func
 1818              		.type	_lv_img_buf_transform_anti_alias, %function
 1819              	_lv_img_buf_transform_anti_alias:
 1820              	.LFB47:
 551:lvgl\src\lv_draw/lv_img_buf.c **** #else
 552:lvgl\src\lv_draw/lv_img_buf.c ****     LV_UNUSED(angle);
 553:lvgl\src\lv_draw/lv_img_buf.c ****     LV_UNUSED(zoom);
 554:lvgl\src\lv_draw/lv_img_buf.c ****     LV_UNUSED(pivot);
 555:lvgl\src\lv_draw/lv_img_buf.c ****     res->x1 = 0;
 556:lvgl\src\lv_draw/lv_img_buf.c ****     res->y1 = 0;
 557:lvgl\src\lv_draw/lv_img_buf.c ****     res->x2 = w - 1;
 558:lvgl\src\lv_draw/lv_img_buf.c ****     res->y2 = h - 1;
 559:lvgl\src\lv_draw/lv_img_buf.c **** #endif
 560:lvgl\src\lv_draw/lv_img_buf.c **** }
 561:lvgl\src\lv_draw/lv_img_buf.c **** 
ARM GAS  C:\Users\strap\AppData\Local\Temp\ccvWLEyq.s 			page 55


 562:lvgl\src\lv_draw/lv_img_buf.c **** #if LV_USE_IMG_TRANSFORM
 563:lvgl\src\lv_draw/lv_img_buf.c **** /**
 564:lvgl\src\lv_draw/lv_img_buf.c ****  * Continue transformation by taking the neighbors into account
 565:lvgl\src\lv_draw/lv_img_buf.c ****  * @param dsc pointer to the transformation descriptor
 566:lvgl\src\lv_draw/lv_img_buf.c ****  */
 567:lvgl\src\lv_draw/lv_img_buf.c **** bool _lv_img_buf_transform_anti_alias(lv_img_transform_dsc_t * dsc)
 568:lvgl\src\lv_draw/lv_img_buf.c **** {
 1821              		.loc 1 568 0
 1822              		.cfi_startproc
 1823              		@ args = 0, pretend = 0, frame = 32
 1824              		@ frame_needed = 0, uses_anonymous_args = 0
 1825              	.LVL291:
 1826 0000 2DE9F04F 		push	{r4, r5, r6, r7, r8, r9, r10, fp, lr}
 1827              		.cfi_def_cfa_offset 36
 1828              		.cfi_offset 4, -36
 1829              		.cfi_offset 5, -32
 1830              		.cfi_offset 6, -28
 1831              		.cfi_offset 7, -24
 1832              		.cfi_offset 8, -20
 1833              		.cfi_offset 9, -16
 1834              		.cfi_offset 10, -12
 1835              		.cfi_offset 11, -8
 1836              		.cfi_offset 14, -4
 1837 0004 89B0     		sub	sp, sp, #36
 1838              		.cfi_def_cfa_offset 72
 1839 0006 0446     		mov	r4, r0
 569:lvgl\src\lv_draw/lv_img_buf.c ****     const uint8_t * src_u8 = dsc->cfg.src;
 1840              		.loc 1 569 0
 1841 0008 0168     		ldr	r1, [r0]
 1842              	.LVL292:
 570:lvgl\src\lv_draw/lv_img_buf.c **** 
 571:lvgl\src\lv_draw/lv_img_buf.c ****     /*Get the fractional part of the source pixel*/
 572:lvgl\src\lv_draw/lv_img_buf.c ****     int xs_fract = dsc->tmp.xs & 0xff;
 1843              		.loc 1 572 0
 1844 000a B0F93C50 		ldrsh	r5, [r0, #60]
 1845 000e EAB2     		uxtb	r2, r5
 1846              	.LVL293:
 573:lvgl\src\lv_draw/lv_img_buf.c ****     int ys_fract = dsc->tmp.ys & 0xff;
 1847              		.loc 1 573 0
 1848 0010 B0F93E60 		ldrsh	r6, [r0, #62]
 1849 0014 F3B2     		uxtb	r3, r6
 1850              	.LVL294:
 574:lvgl\src\lv_draw/lv_img_buf.c ****     int32_t xn;      /*x neighbor*/
 575:lvgl\src\lv_draw/lv_img_buf.c ****     lv_opa_t xr; /*x mix ratio*/
 576:lvgl\src\lv_draw/lv_img_buf.c **** 
 577:lvgl\src\lv_draw/lv_img_buf.c ****     if(xs_fract < 0x70) {
 1851              		.loc 1 577 0
 1852 0016 6F2A     		cmp	r2, #111
 1853 0018 0BDC     		bgt	.L99
 1854              	.LVL295:
 578:lvgl\src\lv_draw/lv_img_buf.c ****         xn = - 1;
 579:lvgl\src\lv_draw/lv_img_buf.c ****         if(dsc->tmp.xs_int + xn < 0) xn = 0;
 1855              		.loc 1 579 0
 1856 001a B0F94020 		ldrsh	r2, [r0, #64]
 1857              	.LVL296:
 1858 001e 012A     		cmp	r2, #1
 1859 0020 02D4     		bmi	.L132
ARM GAS  C:\Users\strap\AppData\Local\Temp\ccvWLEyq.s 			page 56


 578:lvgl\src\lv_draw/lv_img_buf.c ****         xn = - 1;
 1860              		.loc 1 578 0
 1861 0022 4FF0FF38 		mov	r8, #-1
 1862 0026 01E0     		b	.L100
 1863              	.L132:
 1864              		.loc 1 579 0
 1865 0028 4FF00008 		mov	r8, #0
 1866              	.L100:
 1867              	.LVL297:
 580:lvgl\src\lv_draw/lv_img_buf.c ****         xr = xs_fract + 0x80;
 1868              		.loc 1 580 0
 1869 002c 803D     		subs	r5, r5, #128
 1870              	.LVL298:
 1871 002e EDB2     		uxtb	r5, r5
 1872              	.LVL299:
 1873 0030 14E0     		b	.L101
 1874              	.LVL300:
 1875              	.L99:
 581:lvgl\src\lv_draw/lv_img_buf.c ****     }
 582:lvgl\src\lv_draw/lv_img_buf.c ****     else if(xs_fract > 0x90) {
 1876              		.loc 1 582 0
 1877 0032 902A     		cmp	r2, #144
 1878 0034 0FDD     		ble	.L133
 1879              	.LVL301:
 583:lvgl\src\lv_draw/lv_img_buf.c ****         xn =  1;
 584:lvgl\src\lv_draw/lv_img_buf.c ****         if(dsc->tmp.xs_int + xn >= dsc->cfg.src_w) xn = 0;
 1880              		.loc 1 584 0
 1881 0036 B0F94020 		ldrsh	r2, [r0, #64]
 1882              	.LVL302:
 1883 003a 0132     		adds	r2, r2, #1
 1884 003c B0F90400 		ldrsh	r0, [r0, #4]
 1885              	.LVL303:
 1886 0040 8242     		cmp	r2, r0
 1887 0042 02DA     		bge	.L134
 583:lvgl\src\lv_draw/lv_img_buf.c ****         xn =  1;
 1888              		.loc 1 583 0
 1889 0044 4FF00108 		mov	r8, #1
 1890 0048 01E0     		b	.L102
 1891              	.L134:
 1892              		.loc 1 584 0
 1893 004a 4FF00008 		mov	r8, #0
 1894              	.L102:
 1895              	.LVL304:
 585:lvgl\src\lv_draw/lv_img_buf.c ****         xr = (0xFF - xs_fract) + 0x80;
 1896              		.loc 1 585 0
 1897 004e C5F17F05 		rsb	r5, r5, #127
 1898              	.LVL305:
 1899 0052 EDB2     		uxtb	r5, r5
 1900              	.LVL306:
 1901 0054 02E0     		b	.L101
 1902              	.LVL307:
 1903              	.L133:
 586:lvgl\src\lv_draw/lv_img_buf.c ****     }
 587:lvgl\src\lv_draw/lv_img_buf.c ****     else {
 588:lvgl\src\lv_draw/lv_img_buf.c ****         xn = 0;
 589:lvgl\src\lv_draw/lv_img_buf.c ****         xr = 0xFF;
 1904              		.loc 1 589 0
ARM GAS  C:\Users\strap\AppData\Local\Temp\ccvWLEyq.s 			page 57


 1905 0056 FF25     		movs	r5, #255
 588:lvgl\src\lv_draw/lv_img_buf.c ****         xr = 0xFF;
 1906              		.loc 1 588 0
 1907 0058 4FF00008 		mov	r8, #0
 1908              	.LVL308:
 1909              	.L101:
 590:lvgl\src\lv_draw/lv_img_buf.c ****     }
 591:lvgl\src\lv_draw/lv_img_buf.c **** 
 592:lvgl\src\lv_draw/lv_img_buf.c ****     int32_t yn;      /*x neighbor*/
 593:lvgl\src\lv_draw/lv_img_buf.c ****     lv_opa_t yr; /*x mix ratio*/
 594:lvgl\src\lv_draw/lv_img_buf.c **** 
 595:lvgl\src\lv_draw/lv_img_buf.c ****     if(ys_fract < 0x70) {
 1910              		.loc 1 595 0
 1911 005c 6F2B     		cmp	r3, #111
 1912 005e 0BDC     		bgt	.L103
 1913              	.LVL309:
 596:lvgl\src\lv_draw/lv_img_buf.c ****         yn = - 1;
 597:lvgl\src\lv_draw/lv_img_buf.c ****         if(dsc->tmp.ys_int + yn < 0) yn = 0;
 1914              		.loc 1 597 0
 1915 0060 B4F94230 		ldrsh	r3, [r4, #66]
 1916              	.LVL310:
 1917 0064 012B     		cmp	r3, #1
 1918 0066 02D4     		bmi	.L135
 596:lvgl\src\lv_draw/lv_img_buf.c ****         yn = - 1;
 1919              		.loc 1 596 0
 1920 0068 4FF0FF39 		mov	r9, #-1
 1921 006c 01E0     		b	.L104
 1922              	.L135:
 1923              		.loc 1 597 0
 1924 006e 4FF00009 		mov	r9, #0
 1925              	.L104:
 1926              	.LVL311:
 598:lvgl\src\lv_draw/lv_img_buf.c **** 
 599:lvgl\src\lv_draw/lv_img_buf.c ****         yr = ys_fract + 0x80;
 1927              		.loc 1 599 0
 1928 0072 803E     		subs	r6, r6, #128
 1929              	.LVL312:
 1930 0074 F6B2     		uxtb	r6, r6
 1931              	.LVL313:
 1932 0076 14E0     		b	.L105
 1933              	.LVL314:
 1934              	.L103:
 600:lvgl\src\lv_draw/lv_img_buf.c ****     }
 601:lvgl\src\lv_draw/lv_img_buf.c ****     else if(ys_fract > 0x90) {
 1935              		.loc 1 601 0
 1936 0078 902B     		cmp	r3, #144
 1937 007a 0FDD     		ble	.L136
 1938              	.LVL315:
 602:lvgl\src\lv_draw/lv_img_buf.c ****         yn =  1;
 603:lvgl\src\lv_draw/lv_img_buf.c ****         if(dsc->tmp.ys_int + yn >= dsc->cfg.src_h) yn = 0;
 1939              		.loc 1 603 0
 1940 007c B4F94230 		ldrsh	r3, [r4, #66]
 1941              	.LVL316:
 1942 0080 0133     		adds	r3, r3, #1
 1943 0082 B4F90620 		ldrsh	r2, [r4, #6]
 1944 0086 9342     		cmp	r3, r2
 1945 0088 02DA     		bge	.L137
ARM GAS  C:\Users\strap\AppData\Local\Temp\ccvWLEyq.s 			page 58


 602:lvgl\src\lv_draw/lv_img_buf.c ****         yn =  1;
 1946              		.loc 1 602 0
 1947 008a 4FF00109 		mov	r9, #1
 1948 008e 01E0     		b	.L106
 1949              	.L137:
 1950              		.loc 1 603 0
 1951 0090 4FF00009 		mov	r9, #0
 1952              	.L106:
 1953              	.LVL317:
 604:lvgl\src\lv_draw/lv_img_buf.c **** 
 605:lvgl\src\lv_draw/lv_img_buf.c ****         yr = (0xFF - ys_fract) + 0x80;
 1954              		.loc 1 605 0
 1955 0094 C6F17F06 		rsb	r6, r6, #127
 1956              	.LVL318:
 1957 0098 F6B2     		uxtb	r6, r6
 1958              	.LVL319:
 1959 009a 02E0     		b	.L105
 1960              	.LVL320:
 1961              	.L136:
 606:lvgl\src\lv_draw/lv_img_buf.c ****     }
 607:lvgl\src\lv_draw/lv_img_buf.c ****     else {
 608:lvgl\src\lv_draw/lv_img_buf.c ****         yn = 0;
 609:lvgl\src\lv_draw/lv_img_buf.c ****         yr = 0xFF;
 1962              		.loc 1 609 0
 1963 009c FF26     		movs	r6, #255
 608:lvgl\src\lv_draw/lv_img_buf.c ****         yr = 0xFF;
 1964              		.loc 1 608 0
 1965 009e 4FF00009 		mov	r9, #0
 1966              	.LVL321:
 1967              	.L105:
 610:lvgl\src\lv_draw/lv_img_buf.c ****     }
 611:lvgl\src\lv_draw/lv_img_buf.c **** 
 612:lvgl\src\lv_draw/lv_img_buf.c ****     lv_color_t c00 = dsc->res.color;
 1968              		.loc 1 612 0
 1969 00a2 A78A     		ldrh	r7, [r4, #20]
 613:lvgl\src\lv_draw/lv_img_buf.c ****     lv_color_t c01;
 614:lvgl\src\lv_draw/lv_img_buf.c ****     lv_color_t c10;
 615:lvgl\src\lv_draw/lv_img_buf.c ****     lv_color_t c11;
 616:lvgl\src\lv_draw/lv_img_buf.c **** 
 617:lvgl\src\lv_draw/lv_img_buf.c ****     lv_opa_t a00 = dsc->res.opa;
 1970              		.loc 1 617 0
 1971 00a4 94F816A0 		ldrb	r10, [r4, #22]	@ zero_extendqisi2
 1972              	.LVL322:
 618:lvgl\src\lv_draw/lv_img_buf.c ****     lv_opa_t a10 = 0;
 619:lvgl\src\lv_draw/lv_img_buf.c ****     lv_opa_t a01 = 0;
 620:lvgl\src\lv_draw/lv_img_buf.c ****     lv_opa_t a11 = 0;
 621:lvgl\src\lv_draw/lv_img_buf.c **** 
 622:lvgl\src\lv_draw/lv_img_buf.c ****     if(dsc->tmp.native_color) {
 1973              		.loc 1 622 0
 1974 00a8 94F83430 		ldrb	r3, [r4, #52]	@ zero_extendqisi2
 1975 00ac 13F0040F 		tst	r3, #4
 1976 00b0 5FD0     		beq	.L107
 623:lvgl\src\lv_draw/lv_img_buf.c ****         _lv_memcpy_small(&c01, &src_u8[dsc->tmp.pxi + dsc->tmp.px_size * xn], sizeof(lv_color_t));
 1977              		.loc 1 623 0
 1978 00b2 626C     		ldr	r2, [r4, #68]
 1979 00b4 94F84830 		ldrb	r3, [r4, #72]	@ zero_extendqisi2
 1980 00b8 08FB0323 		mla	r3, r8, r3, r2
ARM GAS  C:\Users\strap\AppData\Local\Temp\ccvWLEyq.s 			page 59


 1981 00bc 0B44     		add	r3, r3, r1
 1982              	.LVL323:
 1983              	.LBB77:
 1984              	.LBB78:
 216:lvgl\src\lv_draw\../lv_misc/lv_mem.h ****     const uint8_t * s8 = (const uint8_t *)src;
 1985              		.loc 2 216 0
 1986 00be 07A8     		add	r0, sp, #28
 1987              	.LVL324:
 1988              	.LBE78:
 1989              	.LBE77:
 1990              		.loc 1 623 0
 1991 00c0 0222     		movs	r2, #2
 1992 00c2 04E0     		b	.L108
 1993              	.LVL325:
 1994              	.L109:
 1995              	.LBB80:
 1996              	.LBB79:
 220:lvgl\src\lv_draw\../lv_misc/lv_mem.h ****         d8++;
 1997              		.loc 2 220 0
 1998 00c4 13F801EB 		ldrb	lr, [r3], #1	@ zero_extendqisi2
 1999              	.LVL326:
 2000 00c8 00F801EB 		strb	lr, [r0], #1
 2001              	.LVL327:
 2002              		.loc 2 223 0
 2003 00cc 013A     		subs	r2, r2, #1
 2004              	.LVL328:
 2005              	.L108:
 219:lvgl\src\lv_draw\../lv_misc/lv_mem.h ****         *d8 = *s8;
 2006              		.loc 2 219 0
 2007 00ce 002A     		cmp	r2, #0
 2008 00d0 F8D1     		bne	.L109
 2009              	.LVL329:
 2010              	.LBE79:
 2011              	.LBE80:
 624:lvgl\src\lv_draw/lv_img_buf.c ****         _lv_memcpy_small(&c10, &src_u8[dsc->tmp.pxi + dsc->cfg.src_w * dsc->tmp.px_size * yn], size
 2012              		.loc 1 624 0
 2013 00d2 626C     		ldr	r2, [r4, #68]
 2014 00d4 B4F90400 		ldrsh	r0, [r4, #4]
 2015              	.LVL330:
 2016 00d8 94F84830 		ldrb	r3, [r4, #72]	@ zero_extendqisi2
 2017              	.LVL331:
 2018 00dc 03FB00F3 		mul	r3, r3, r0
 2019 00e0 03FB0923 		mla	r3, r3, r9, r2
 2020 00e4 0B44     		add	r3, r3, r1
 2021              	.LVL332:
 2022              	.LBB81:
 2023              	.LBB82:
 216:lvgl\src\lv_draw\../lv_misc/lv_mem.h ****     const uint8_t * s8 = (const uint8_t *)src;
 2024              		.loc 2 216 0
 2025 00e6 06A8     		add	r0, sp, #24
 2026              	.LVL333:
 2027              	.LBE82:
 2028              	.LBE81:
 2029              		.loc 1 624 0
 2030 00e8 0222     		movs	r2, #2
 2031 00ea 04E0     		b	.L110
 2032              	.LVL334:
ARM GAS  C:\Users\strap\AppData\Local\Temp\ccvWLEyq.s 			page 60


 2033              	.L111:
 2034              	.LBB84:
 2035              	.LBB83:
 220:lvgl\src\lv_draw\../lv_misc/lv_mem.h ****         d8++;
 2036              		.loc 2 220 0
 2037 00ec 13F801EB 		ldrb	lr, [r3], #1	@ zero_extendqisi2
 2038              	.LVL335:
 2039 00f0 00F801EB 		strb	lr, [r0], #1
 2040              	.LVL336:
 2041              		.loc 2 223 0
 2042 00f4 013A     		subs	r2, r2, #1
 2043              	.LVL337:
 2044              	.L110:
 219:lvgl\src\lv_draw\../lv_misc/lv_mem.h ****         *d8 = *s8;
 2045              		.loc 2 219 0
 2046 00f6 002A     		cmp	r2, #0
 2047 00f8 F8D1     		bne	.L111
 2048              	.LVL338:
 2049              	.LBE83:
 2050              	.LBE84:
 625:lvgl\src\lv_draw/lv_img_buf.c ****         _lv_memcpy_small(&c11, &src_u8[dsc->tmp.pxi + dsc->cfg.src_w * dsc->tmp.px_size * yn + dsc-
 2051              		.loc 1 625 0
 2052 00fa 636C     		ldr	r3, [r4, #68]
 2053              	.LVL339:
 2054 00fc 94F84820 		ldrb	r2, [r4, #72]	@ zero_extendqisi2
 2055 0100 B4F90400 		ldrsh	r0, [r4, #4]
 2056              	.LVL340:
 2057 0104 00FB02F0 		mul	r0, r0, r2
 2058 0108 00FB09F0 		mul	r0, r0, r9
 2059 010c 02FB0802 		mla	r2, r2, r8, r0
 2060 0110 1344     		add	r3, r3, r2
 2061 0112 0B44     		add	r3, r3, r1
 2062              	.LVL341:
 2063              	.LBB85:
 2064              	.LBB86:
 216:lvgl\src\lv_draw\../lv_misc/lv_mem.h ****     const uint8_t * s8 = (const uint8_t *)src;
 2065              		.loc 2 216 0
 2066 0114 05A8     		add	r0, sp, #20
 2067              	.LVL342:
 2068              	.LBE86:
 2069              	.LBE85:
 2070              		.loc 1 625 0
 2071 0116 0222     		movs	r2, #2
 2072 0118 04E0     		b	.L112
 2073              	.LVL343:
 2074              	.L113:
 2075              	.LBB88:
 2076              	.LBB87:
 220:lvgl\src\lv_draw\../lv_misc/lv_mem.h ****         d8++;
 2077              		.loc 2 220 0
 2078 011a 13F801EB 		ldrb	lr, [r3], #1	@ zero_extendqisi2
 2079              	.LVL344:
 2080 011e 00F801EB 		strb	lr, [r0], #1
 2081              	.LVL345:
 2082              		.loc 2 223 0
 2083 0122 013A     		subs	r2, r2, #1
 2084              	.LVL346:
ARM GAS  C:\Users\strap\AppData\Local\Temp\ccvWLEyq.s 			page 61


 2085              	.L112:
 219:lvgl\src\lv_draw\../lv_misc/lv_mem.h ****         *d8 = *s8;
 2086              		.loc 2 219 0
 2087 0124 002A     		cmp	r2, #0
 2088 0126 F8D1     		bne	.L113
 2089              	.LVL347:
 2090              	.LBE87:
 2091              	.LBE88:
 626:lvgl\src\lv_draw/lv_img_buf.c ****                          sizeof(lv_color_t));
 627:lvgl\src\lv_draw/lv_img_buf.c ****         if(dsc->tmp.has_alpha) {
 2092              		.loc 1 627 0
 2093 0128 94F83430 		ldrb	r3, [r4, #52]	@ zero_extendqisi2
 2094              	.LVL348:
 2095 012c 13F0020F 		tst	r3, #2
 2096 0130 72D0     		beq	.L138
 628:lvgl\src\lv_draw/lv_img_buf.c ****             a10 = src_u8[dsc->tmp.pxi + dsc->tmp.px_size * xn + dsc->tmp.px_size - 1];
 2097              		.loc 1 628 0
 2098 0132 626C     		ldr	r2, [r4, #68]
 2099 0134 94F84800 		ldrb	r0, [r4, #72]	@ zero_extendqisi2
 2100              	.LVL349:
 2101 0138 00FB08F3 		mul	r3, r0, r8
 2102 013c 02EB030E 		add	lr, r2, r3
 2103 0140 8644     		add	lr, lr, r0
 2104 0142 0EF1FF3E 		add	lr, lr, #-1
 2105 0146 11F80EB0 		ldrb	fp, [r1, lr]	@ zero_extendqisi2
 2106              	.LVL350:
 629:lvgl\src\lv_draw/lv_img_buf.c ****             a01 = src_u8[dsc->tmp.pxi + dsc->cfg.src_w * dsc->tmp.px_size * yn + dsc->tmp.px_size -
 2107              		.loc 1 629 0
 2108 014a B4F90480 		ldrsh	r8, [r4, #4]
 2109              	.LVL351:
 2110 014e 08FB00F8 		mul	r8, r8, r0
 2111 0152 08FB09F9 		mul	r9, r8, r9
 2112              	.LVL352:
 2113 0156 02EB090E 		add	lr, r2, r9
 2114 015a 8644     		add	lr, lr, r0
 2115 015c 0EF1FF3E 		add	lr, lr, #-1
 2116 0160 11F80E80 		ldrb	r8, [r1, lr]	@ zero_extendqisi2
 2117              	.LVL353:
 630:lvgl\src\lv_draw/lv_img_buf.c ****             a11 = src_u8[dsc->tmp.pxi + dsc->cfg.src_w * dsc->tmp.px_size * yn + dsc->tmp.px_size *
 2118              		.loc 1 630 0
 2119 0164 9944     		add	r9, r9, r3
 2120 0166 9144     		add	r9, r9, r2
 2121 0168 00EB0903 		add	r3, r0, r9
 2122 016c 013B     		subs	r3, r3, #1
 2123 016e C85C     		ldrb	r0, [r1, r3]	@ zero_extendqisi2
 2124              	.LVL354:
 2125 0170 59E0     		b	.L114
 2126              	.LVL355:
 2127              	.L107:
 631:lvgl\src\lv_draw/lv_img_buf.c ****         }
 632:lvgl\src\lv_draw/lv_img_buf.c ****     }
 633:lvgl\src\lv_draw/lv_img_buf.c ****     else {
 634:lvgl\src\lv_draw/lv_img_buf.c ****         c01 = lv_img_buf_get_px_color(&dsc->tmp.img_dsc, dsc->tmp.xs_int + xn, dsc->tmp.ys_int, dsc
 2128              		.loc 1 634 0
 2129 0172 04F11803 		add	r3, r4, #24
 2130 0176 1846     		mov	r0, r3
 2131 0178 B4F94010 		ldrsh	r1, [r4, #64]
ARM GAS  C:\Users\strap\AppData\Local\Temp\ccvWLEyq.s 			page 62


 2132              	.LVL356:
 2133 017c 1FFA88F8 		uxth	r8, r8
 2134              	.LVL357:
 2135 0180 4144     		add	r1, r1, r8
 2136 0182 238A     		ldrh	r3, [r4, #16]
 2137 0184 B4F94220 		ldrsh	r2, [r4, #66]
 2138 0188 09B2     		sxth	r1, r1
 2139 018a 8346     		mov	fp, r0
 2140 018c FFF7FEFF 		bl	lv_img_buf_get_px_color
 2141              	.LVL358:
 2142 0190 ADF81C00 		strh	r0, [sp, #28]	@ movhi
 635:lvgl\src\lv_draw/lv_img_buf.c ****         c10 = lv_img_buf_get_px_color(&dsc->tmp.img_dsc, dsc->tmp.xs_int, dsc->tmp.ys_int + yn, dsc
 2143              		.loc 1 635 0
 2144 0194 B4F94220 		ldrsh	r2, [r4, #66]
 2145 0198 1FFA89F9 		uxth	r9, r9
 2146              	.LVL359:
 2147 019c 4A44     		add	r2, r2, r9
 2148 019e 238A     		ldrh	r3, [r4, #16]
 2149 01a0 12B2     		sxth	r2, r2
 2150 01a2 B4F94010 		ldrsh	r1, [r4, #64]
 2151 01a6 5846     		mov	r0, fp
 2152 01a8 FFF7FEFF 		bl	lv_img_buf_get_px_color
 2153              	.LVL360:
 2154 01ac ADF81800 		strh	r0, [sp, #24]	@ movhi
 636:lvgl\src\lv_draw/lv_img_buf.c ****         c11 = lv_img_buf_get_px_color(&dsc->tmp.img_dsc, dsc->tmp.xs_int + xn, dsc->tmp.ys_int + yn
 2155              		.loc 1 636 0
 2156 01b0 B4F94010 		ldrsh	r1, [r4, #64]
 2157 01b4 4144     		add	r1, r1, r8
 2158 01b6 B4F94220 		ldrsh	r2, [r4, #66]
 2159 01ba 4A44     		add	r2, r2, r9
 2160 01bc 238A     		ldrh	r3, [r4, #16]
 2161 01be 12B2     		sxth	r2, r2
 2162 01c0 09B2     		sxth	r1, r1
 2163 01c2 5846     		mov	r0, fp
 2164 01c4 FFF7FEFF 		bl	lv_img_buf_get_px_color
 2165              	.LVL361:
 2166 01c8 ADF81400 		strh	r0, [sp, #20]	@ movhi
 637:lvgl\src\lv_draw/lv_img_buf.c **** 
 638:lvgl\src\lv_draw/lv_img_buf.c ****         if(dsc->tmp.has_alpha) {
 2167              		.loc 1 638 0
 2168 01cc 94F83430 		ldrb	r3, [r4, #52]	@ zero_extendqisi2
 2169 01d0 13F0020F 		tst	r3, #2
 2170 01d4 24D0     		beq	.L139
 639:lvgl\src\lv_draw/lv_img_buf.c ****             a10 = lv_img_buf_get_px_alpha(&dsc->tmp.img_dsc, dsc->tmp.xs_int + xn, dsc->tmp.ys_int)
 2171              		.loc 1 639 0
 2172 01d6 B4F94020 		ldrsh	r2, [r4, #64]
 2173 01da 0292     		str	r2, [sp, #8]
 2174 01dc 9044     		add	r8, r8, r2
 2175 01de 0FFA88F2 		sxth	r2, r8
 2176 01e2 1046     		mov	r0, r2
 2177 01e4 B4F94280 		ldrsh	r8, [r4, #66]
 2178 01e8 4246     		mov	r2, r8
 2179 01ea 0390     		str	r0, [sp, #12]
 2180 01ec 0146     		mov	r1, r0
 2181 01ee CDF804B0 		str	fp, [sp, #4]
 2182 01f2 5846     		mov	r0, fp
 2183 01f4 FFF7FEFF 		bl	lv_img_buf_get_px_alpha
ARM GAS  C:\Users\strap\AppData\Local\Temp\ccvWLEyq.s 			page 63


 2184              	.LVL362:
 2185 01f8 8346     		mov	fp, r0
 2186              	.LVL363:
 640:lvgl\src\lv_draw/lv_img_buf.c ****             a01 = lv_img_buf_get_px_alpha(&dsc->tmp.img_dsc, dsc->tmp.xs_int, dsc->tmp.ys_int + yn)
 2187              		.loc 1 640 0
 2188 01fa C144     		add	r9, r9, r8
 2189 01fc 0FFA89F9 		sxth	r9, r9
 2190 0200 4A46     		mov	r2, r9
 2191 0202 0299     		ldr	r1, [sp, #8]
 2192 0204 0198     		ldr	r0, [sp, #4]
 2193 0206 FFF7FEFF 		bl	lv_img_buf_get_px_alpha
 2194              	.LVL364:
 2195 020a 8046     		mov	r8, r0
 2196              	.LVL365:
 641:lvgl\src\lv_draw/lv_img_buf.c ****             a11 = lv_img_buf_get_px_alpha(&dsc->tmp.img_dsc, dsc->tmp.xs_int + xn, dsc->tmp.ys_int 
 2197              		.loc 1 641 0
 2198 020c 4A46     		mov	r2, r9
 2199 020e 0399     		ldr	r1, [sp, #12]
 2200 0210 0198     		ldr	r0, [sp, #4]
 2201 0212 FFF7FEFF 		bl	lv_img_buf_get_px_alpha
 2202              	.LVL366:
 2203 0216 06E0     		b	.L114
 2204              	.LVL367:
 2205              	.L138:
 620:lvgl\src\lv_draw/lv_img_buf.c **** 
 2206              		.loc 1 620 0
 2207 0218 0020     		movs	r0, #0
 2208              	.LVL368:
 619:lvgl\src\lv_draw/lv_img_buf.c ****     lv_opa_t a11 = 0;
 2209              		.loc 1 619 0
 2210 021a 8046     		mov	r8, r0
 2211              	.LVL369:
 618:lvgl\src\lv_draw/lv_img_buf.c ****     lv_opa_t a01 = 0;
 2212              		.loc 1 618 0
 2213 021c 8346     		mov	fp, r0
 2214 021e 02E0     		b	.L114
 2215              	.LVL370:
 2216              	.L139:
 620:lvgl\src\lv_draw/lv_img_buf.c **** 
 2217              		.loc 1 620 0
 2218 0220 0020     		movs	r0, #0
 619:lvgl\src\lv_draw/lv_img_buf.c ****     lv_opa_t a11 = 0;
 2219              		.loc 1 619 0
 2220 0222 8046     		mov	r8, r0
 618:lvgl\src\lv_draw/lv_img_buf.c ****     lv_opa_t a01 = 0;
 2221              		.loc 1 618 0
 2222 0224 8346     		mov	fp, r0
 2223              	.LVL371:
 2224              	.L114:
 642:lvgl\src\lv_draw/lv_img_buf.c ****         }
 643:lvgl\src\lv_draw/lv_img_buf.c ****     }
 644:lvgl\src\lv_draw/lv_img_buf.c **** 
 645:lvgl\src\lv_draw/lv_img_buf.c ****     lv_opa_t xr0 = xr;
 646:lvgl\src\lv_draw/lv_img_buf.c ****     lv_opa_t xr1 = xr;
 647:lvgl\src\lv_draw/lv_img_buf.c ****     if(dsc->tmp.has_alpha) {
 2225              		.loc 1 647 0
 2226 0226 94F83430 		ldrb	r3, [r4, #52]	@ zero_extendqisi2
ARM GAS  C:\Users\strap\AppData\Local\Temp\ccvWLEyq.s 			page 64


 2227 022a 13F0020F 		tst	r3, #2
 2228 022e 31D0     		beq	.L115
 2229              	.LBB89:
 648:lvgl\src\lv_draw/lv_img_buf.c ****         lv_opa_t a0 = (a00 * xr + (a10 * (255 - xr))) >> 8;
 2230              		.loc 1 648 0
 2231 0230 C5F1FF03 		rsb	r3, r5, #255
 2232 0234 03FB0BF1 		mul	r1, r3, fp
 2233 0238 05FB0A11 		mla	r1, r5, r10, r1
 2234 023c C1F30721 		ubfx	r1, r1, #8, #8
 2235              	.LVL372:
 649:lvgl\src\lv_draw/lv_img_buf.c ****         lv_opa_t a1 = (a01 * xr + (a11 * (255 - xr))) >> 8;
 2236              		.loc 1 649 0
 2237 0240 03FB00F3 		mul	r3, r3, r0
 2238 0244 05FB0833 		mla	r3, r5, r8, r3
 2239 0248 C3F30723 		ubfx	r3, r3, #8, #8
 2240              	.LVL373:
 650:lvgl\src\lv_draw/lv_img_buf.c ****         dsc->res.opa = (a0 * yr + (a1 * (255 - yr))) >> 8;
 2241              		.loc 1 650 0
 2242 024c C6F1FF02 		rsb	r2, r6, #255
 2243 0250 02FB03F2 		mul	r2, r2, r3
 2244 0254 06FB0122 		mla	r2, r6, r1, r2
 2245 0258 1212     		asrs	r2, r2, #8
 2246 025a A275     		strb	r2, [r4, #22]
 651:lvgl\src\lv_draw/lv_img_buf.c **** 
 652:lvgl\src\lv_draw/lv_img_buf.c ****         if(a0 <= LV_OPA_MIN && a1 <= LV_OPA_MIN) return false;
 2247              		.loc 1 652 0
 2248 025c 0229     		cmp	r1, #2
 2249 025e 02D8     		bhi	.L116
 2250              		.loc 1 652 0 is_stmt 0 discriminator 1
 2251 0260 022B     		cmp	r3, #2
 2252 0262 40F2FB80 		bls	.L140
 2253              	.L116:
 653:lvgl\src\lv_draw/lv_img_buf.c ****         if(a0 <= LV_OPA_MIN) yr = LV_OPA_TRANSP;
 2254              		.loc 1 653 0 is_stmt 1
 2255 0266 0229     		cmp	r1, #2
 2256 0268 00D8     		bhi	.L118
 2257 026a 0026     		movs	r6, #0
 2258              	.LVL374:
 2259              	.L118:
 654:lvgl\src\lv_draw/lv_img_buf.c ****         if(a1 <= LV_OPA_MIN) yr = LV_OPA_COVER;
 2260              		.loc 1 654 0
 2261 026c 022B     		cmp	r3, #2
 2262 026e 00D8     		bhi	.L119
 2263 0270 FF26     		movs	r6, #255
 2264              	.LVL375:
 2265              	.L119:
 655:lvgl\src\lv_draw/lv_img_buf.c ****         if(a00 <= LV_OPA_MIN) xr0 = LV_OPA_TRANSP;
 2266              		.loc 1 655 0
 2267 0272 BAF1020F 		cmp	r10, #2
 2268 0276 01D9     		bls	.L143
 2269              	.LBE89:
 645:lvgl\src\lv_draw/lv_img_buf.c ****     lv_opa_t xr1 = xr;
 2270              		.loc 1 645 0
 2271 0278 2B46     		mov	r3, r5
 2272              	.LVL376:
 2273 027a 00E0     		b	.L120
 2274              	.LVL377:
ARM GAS  C:\Users\strap\AppData\Local\Temp\ccvWLEyq.s 			page 65


 2275              	.L143:
 2276              	.LBB90:
 2277              		.loc 1 655 0
 2278 027c 0023     		movs	r3, #0
 2279              	.LVL378:
 2280              	.L120:
 656:lvgl\src\lv_draw/lv_img_buf.c ****         if(a10 <= LV_OPA_MIN) xr0 = LV_OPA_COVER;
 2281              		.loc 1 656 0
 2282 027e BBF1020F 		cmp	fp, #2
 2283 0282 00D8     		bhi	.L121
 2284 0284 FF23     		movs	r3, #255
 2285              	.LVL379:
 2286              	.L121:
 657:lvgl\src\lv_draw/lv_img_buf.c ****         if(a01 <= LV_OPA_MIN) xr1 = LV_OPA_TRANSP;
 2287              		.loc 1 657 0
 2288 0286 B8F1020F 		cmp	r8, #2
 2289 028a 00D8     		bhi	.L122
 2290 028c 0025     		movs	r5, #0
 2291              	.LVL380:
 2292              	.L122:
 658:lvgl\src\lv_draw/lv_img_buf.c ****         if(a11 <= LV_OPA_MIN) xr1 = LV_OPA_COVER;
 2293              		.loc 1 658 0
 2294 028e 0228     		cmp	r0, #2
 2295 0290 04D9     		bls	.L146
 2296 0292 04E0     		b	.L123
 2297              	.LVL381:
 2298              	.L115:
 2299              	.LBE90:
 659:lvgl\src\lv_draw/lv_img_buf.c ****     }
 660:lvgl\src\lv_draw/lv_img_buf.c ****     else {
 661:lvgl\src\lv_draw/lv_img_buf.c ****         xr0 = xr;
 662:lvgl\src\lv_draw/lv_img_buf.c ****         xr1 = xr;
 663:lvgl\src\lv_draw/lv_img_buf.c ****         dsc->res.opa = LV_OPA_COVER;
 2300              		.loc 1 663 0
 2301 0294 FF23     		movs	r3, #255
 2302 0296 A375     		strb	r3, [r4, #22]
 661:lvgl\src\lv_draw/lv_img_buf.c ****         xr1 = xr;
 2303              		.loc 1 661 0
 2304 0298 2B46     		mov	r3, r5
 2305 029a 00E0     		b	.L123
 2306              	.LVL382:
 2307              	.L146:
 2308              	.LBB91:
 658:lvgl\src\lv_draw/lv_img_buf.c ****         if(a11 <= LV_OPA_MIN) xr1 = LV_OPA_COVER;
 2309              		.loc 1 658 0
 2310 029c FF25     		movs	r5, #255
 2311              	.LVL383:
 2312              	.L123:
 2313              	.LBE91:
 664:lvgl\src\lv_draw/lv_img_buf.c ****     }
 665:lvgl\src\lv_draw/lv_img_buf.c **** 
 666:lvgl\src\lv_draw/lv_img_buf.c ****     lv_color_t c0;
 667:lvgl\src\lv_draw/lv_img_buf.c ****     if(xr0 == LV_OPA_TRANSP) c0 = c01;
 2314              		.loc 1 667 0
 2315 029e 13B9     		cbnz	r3, .L124
 2316              		.loc 1 667 0 is_stmt 0 discriminator 1
 2317 02a0 BDF81C70 		ldrh	r7, [sp, #28]
ARM GAS  C:\Users\strap\AppData\Local\Temp\ccvWLEyq.s 			page 66


 2318 02a4 43E0     		b	.L125
 2319              	.L124:
 668:lvgl\src\lv_draw/lv_img_buf.c ****     else if(xr0 == LV_OPA_COVER) c0 = c00;
 2320              		.loc 1 668 0 is_stmt 1
 2321 02a6 FF2B     		cmp	r3, #255
 2322 02a8 41D0     		beq	.L125
 2323 02aa BDF81CE0 		ldrh	lr, [sp, #28]
 2324              	.LVL384:
 2325              	.LBB92:
 2326              	.LBB93:
 442:lvgl\src\lv_draw\../lv_misc/lv_color.h ****     return ret.full;
 443:lvgl\src\lv_draw\../lv_misc/lv_color.h **** #elif LV_COLOR_DEPTH == 32
 444:lvgl\src\lv_draw\../lv_misc/lv_color.h ****     return color.full;
 445:lvgl\src\lv_draw\../lv_misc/lv_color.h **** #endif
 446:lvgl\src\lv_draw\../lv_misc/lv_color.h **** }
 447:lvgl\src\lv_draw\../lv_misc/lv_color.h **** 
 448:lvgl\src\lv_draw\../lv_misc/lv_color.h **** 
 449:lvgl\src\lv_draw\../lv_misc/lv_color.h **** //! @cond Doxygen_Suppress
 450:lvgl\src\lv_draw\../lv_misc/lv_color.h **** 
 451:lvgl\src\lv_draw\../lv_misc/lv_color.h **** /**
 452:lvgl\src\lv_draw\../lv_misc/lv_color.h ****  * Mix two colors with a given ratio.
 453:lvgl\src\lv_draw\../lv_misc/lv_color.h ****  * @param c1 the first color to mix (usually the foreground)
 454:lvgl\src\lv_draw\../lv_misc/lv_color.h ****  * @param c2 the second color to mix (usually the background)
 455:lvgl\src\lv_draw\../lv_misc/lv_color.h ****  * @param mix The ratio of the colors. 0: full `c2`, 255: full `c1`, 127: half `c1` and half`c2`
 456:lvgl\src\lv_draw\../lv_misc/lv_color.h ****  * @return the mixed color
 457:lvgl\src\lv_draw\../lv_misc/lv_color.h ****  */
 458:lvgl\src\lv_draw\../lv_misc/lv_color.h **** LV_ATTRIBUTE_FAST_MEM static inline lv_color_t lv_color_mix(lv_color_t c1, lv_color_t c2, uint8_t m
 459:lvgl\src\lv_draw\../lv_misc/lv_color.h **** {
 460:lvgl\src\lv_draw\../lv_misc/lv_color.h ****     lv_color_t ret;
 461:lvgl\src\lv_draw\../lv_misc/lv_color.h **** #if LV_COLOR_DEPTH != 1
 462:lvgl\src\lv_draw\../lv_misc/lv_color.h ****     /*LV_COLOR_DEPTH == 8, 16 or 32*/
 463:lvgl\src\lv_draw\../lv_misc/lv_color.h ****     LV_COLOR_SET_R(ret, LV_MATH_UDIV255((uint16_t) LV_COLOR_GET_R(c1) * mix + LV_COLOR_GET_R(c2) *
 2327              		.loc 3 463 0
 2328 02ae C7F3C401 		ubfx	r1, r7, #3, #5
 2329              	.LVL385:
 2330 02b2 CEF3C402 		ubfx	r2, lr, #3, #5
 2331 02b6 C3F1FF0C 		rsb	ip, r3, #255
 2332 02ba 0CFB02F2 		mul	r2, ip, r2
 2333 02be 03FB0122 		mla	r2, r3, r1, r2
 2334 02c2 8032     		adds	r2, r2, #128
 2335 02c4 02EB0221 		add	r1, r2, r2, lsl #8
 2336 02c8 02EBC112 		add	r2, r2, r1, lsl #7
 2337 02cc D20D     		lsrs	r2, r2, #23
 2338 02ce 4FF00001 		mov	r1, #0	@ movhi
 2339              	.LVL386:
 2340 02d2 62F3C701 		bfi	r1, r2, #3, #5
 2341              	.LVL387:
 464:lvgl\src\lv_draw\../lv_misc/lv_color.h ****                                         (255 - mix) + LV_COLOR_MIX_ROUND_OFS));
 465:lvgl\src\lv_draw\../lv_misc/lv_color.h ****     LV_COLOR_SET_G(ret, LV_MATH_UDIV255((uint16_t) LV_COLOR_GET_G(c1) * mix + LV_COLOR_GET_G(c2) *
 2342              		.loc 3 465 0
 2343 02d6 07F00700 		and	r0, r7, #7
 2344              	.LVL388:
 2345 02da C7F34232 		ubfx	r2, r7, #13, #3
 2346 02de 02EBC000 		add	r0, r2, r0, lsl #3
 2347 02e2 0EF00708 		and	r8, lr, #7
 2348              	.LVL389:
 2349 02e6 CEF34232 		ubfx	r2, lr, #13, #3
ARM GAS  C:\Users\strap\AppData\Local\Temp\ccvWLEyq.s 			page 67


 2350 02ea 02EBC802 		add	r2, r2, r8, lsl #3
 2351 02ee 02FB0CF2 		mul	r2, r2, ip
 2352 02f2 03FB0022 		mla	r2, r3, r0, r2
 2353 02f6 8032     		adds	r2, r2, #128
 2354 02f8 02EB0220 		add	r0, r2, r2, lsl #8
 2355 02fc 02EBC012 		add	r2, r2, r0, lsl #7
 2356 0300 900E     		lsrs	r0, r2, #26
 2357 0302 60F30201 		bfi	r1, r0, #0, #3
 2358 0306 D20D     		lsrs	r2, r2, #23
 2359 0308 62F34F31 		bfi	r1, r2, #13, #3
 466:lvgl\src\lv_draw\../lv_misc/lv_color.h ****                                         (255 - mix) + LV_COLOR_MIX_ROUND_OFS));
 467:lvgl\src\lv_draw\../lv_misc/lv_color.h ****     LV_COLOR_SET_B(ret, LV_MATH_UDIV255((uint16_t) LV_COLOR_GET_B(c1) * mix + LV_COLOR_GET_B(c2) *
 2360              		.loc 3 467 0
 2361 030c C7F30422 		ubfx	r2, r7, #8, #5
 2362 0310 CEF3042E 		ubfx	lr, lr, #8, #5
 2363              	.LVL390:
 2364 0314 0CFB0EFE 		mul	lr, ip, lr
 2365 0318 03FB02E3 		mla	r3, r3, r2, lr
 2366              	.LVL391:
 2367 031c 8033     		adds	r3, r3, #128
 2368 031e 03EB0322 		add	r2, r3, r3, lsl #8
 2369 0322 03EBC213 		add	r3, r3, r2, lsl #7
 2370 0326 DB0D     		lsrs	r3, r3, #23
 2371 0328 63F30C21 		bfi	r1, r3, #8, #5
 2372 032c 0F46     		mov	r7, r1	@ movhi
 2373              	.LVL392:
 2374              	.L125:
 2375              	.LBE93:
 2376              	.LBE92:
 669:lvgl\src\lv_draw/lv_img_buf.c ****     else c0 = lv_color_mix(c00, c01, xr0);
 670:lvgl\src\lv_draw/lv_img_buf.c **** 
 671:lvgl\src\lv_draw/lv_img_buf.c ****     lv_color_t c1;
 672:lvgl\src\lv_draw/lv_img_buf.c ****     if(xr1 == LV_OPA_TRANSP) c1 = c11;
 2377              		.loc 1 672 0
 2378 032e 15B9     		cbnz	r5, .L127
 2379              		.loc 1 672 0 is_stmt 0 discriminator 1
 2380 0330 BDF81400 		ldrh	r0, [sp, #20]
 2381 0334 47E0     		b	.L128
 2382              	.L127:
 673:lvgl\src\lv_draw/lv_img_buf.c ****     else if(xr1 == LV_OPA_COVER) c1 = c10;
 2383              		.loc 1 673 0 is_stmt 1
 2384 0336 FF2D     		cmp	r5, #255
 2385 0338 02D1     		bne	.L129
 2386              		.loc 1 673 0 is_stmt 0 discriminator 1
 2387 033a BDF81800 		ldrh	r0, [sp, #24]
 2388 033e 42E0     		b	.L128
 2389              	.L129:
 2390 0340 BDF81830 		ldrh	r3, [sp, #24]
 2391 0344 BDF814E0 		ldrh	lr, [sp, #20]
 2392              	.LVL393:
 2393              	.LBB94:
 2394              	.LBB95:
 463:lvgl\src\lv_draw\../lv_misc/lv_color.h ****                                         (255 - mix) + LV_COLOR_MIX_ROUND_OFS));
 2395              		.loc 3 463 0 is_stmt 1
 2396 0348 C3F3C401 		ubfx	r1, r3, #3, #5
 2397              	.LVL394:
 2398 034c CEF3C402 		ubfx	r2, lr, #3, #5
ARM GAS  C:\Users\strap\AppData\Local\Temp\ccvWLEyq.s 			page 68


 2399 0350 C5F1FF0C 		rsb	ip, r5, #255
 2400 0354 0CFB02F2 		mul	r2, ip, r2
 2401 0358 05FB0122 		mla	r2, r5, r1, r2
 2402 035c 8032     		adds	r2, r2, #128
 2403 035e 02EB0221 		add	r1, r2, r2, lsl #8
 2404 0362 02EBC112 		add	r2, r2, r1, lsl #7
 2405 0366 D20D     		lsrs	r2, r2, #23
 2406 0368 4FF00000 		mov	r0, #0	@ movhi
 2407              	.LVL395:
 2408 036c 62F3C700 		bfi	r0, r2, #3, #5
 2409              	.LVL396:
 465:lvgl\src\lv_draw\../lv_misc/lv_color.h ****                                         (255 - mix) + LV_COLOR_MIX_ROUND_OFS));
 2410              		.loc 3 465 0
 2411 0370 03F00701 		and	r1, r3, #7
 2412 0374 C3F34232 		ubfx	r2, r3, #13, #3
 2413 0378 02EBC101 		add	r1, r2, r1, lsl #3
 2414 037c 0EF00708 		and	r8, lr, #7
 2415 0380 CEF34232 		ubfx	r2, lr, #13, #3
 2416 0384 02EBC802 		add	r2, r2, r8, lsl #3
 2417 0388 02FB0CF2 		mul	r2, r2, ip
 2418 038c 05FB0122 		mla	r2, r5, r1, r2
 2419 0390 8032     		adds	r2, r2, #128
 2420 0392 02EB0221 		add	r1, r2, r2, lsl #8
 2421 0396 02EBC112 		add	r2, r2, r1, lsl #7
 2422 039a 910E     		lsrs	r1, r2, #26
 2423 039c 61F30200 		bfi	r0, r1, #0, #3
 2424 03a0 D20D     		lsrs	r2, r2, #23
 2425 03a2 62F34F30 		bfi	r0, r2, #13, #3
 2426              		.loc 3 467 0
 2427 03a6 C3F30423 		ubfx	r3, r3, #8, #5
 2428              	.LVL397:
 2429 03aa CEF3042E 		ubfx	lr, lr, #8, #5
 2430              	.LVL398:
 2431 03ae 0CFB0EFE 		mul	lr, ip, lr
 2432 03b2 05FB03E5 		mla	r5, r5, r3, lr
 2433              	.LVL399:
 2434 03b6 8035     		adds	r5, r5, #128
 2435 03b8 05EB0523 		add	r3, r5, r5, lsl #8
 2436 03bc 05EBC315 		add	r5, r5, r3, lsl #7
 2437 03c0 ED0D     		lsrs	r5, r5, #23
 2438 03c2 65F30C20 		bfi	r0, r5, #8, #5
 2439              	.LVL400:
 2440              	.L128:
 2441              	.LBE95:
 2442              	.LBE94:
 674:lvgl\src\lv_draw/lv_img_buf.c ****     else c1 = lv_color_mix(c10, c11, xr1);
 675:lvgl\src\lv_draw/lv_img_buf.c **** 
 676:lvgl\src\lv_draw/lv_img_buf.c ****     if(yr == LV_OPA_TRANSP) dsc->res.color = c1;
 2443              		.loc 1 676 0
 2444 03c6 16B9     		cbnz	r6, .L130
 2445              	.LVL401:
 2446              		.loc 1 676 0 is_stmt 0 discriminator 1
 2447 03c8 A082     		strh	r0, [r4, #20]	@ movhi
 677:lvgl\src\lv_draw/lv_img_buf.c ****     else if(yr == LV_OPA_COVER) dsc->res.color = c0;
 678:lvgl\src\lv_draw/lv_img_buf.c ****     else dsc->res.color = lv_color_mix(c0, c1, yr);
 679:lvgl\src\lv_draw/lv_img_buf.c **** 
 680:lvgl\src\lv_draw/lv_img_buf.c ****     return true;
ARM GAS  C:\Users\strap\AppData\Local\Temp\ccvWLEyq.s 			page 69


 2448              		.loc 1 680 0 is_stmt 1 discriminator 1
 2449 03ca 0120     		movs	r0, #1
 2450              	.LVL402:
 2451 03cc 47E0     		b	.L117
 2452              	.LVL403:
 2453              	.L130:
 677:lvgl\src\lv_draw/lv_img_buf.c ****     else if(yr == LV_OPA_COVER) dsc->res.color = c0;
 2454              		.loc 1 677 0
 2455 03ce FF2E     		cmp	r6, #255
 2456 03d0 02D1     		bne	.L131
 2457              	.LVL404:
 677:lvgl\src\lv_draw/lv_img_buf.c ****     else if(yr == LV_OPA_COVER) dsc->res.color = c0;
 2458              		.loc 1 677 0 is_stmt 0 discriminator 1
 2459 03d2 A782     		strh	r7, [r4, #20]	@ movhi
 2460              		.loc 1 680 0 is_stmt 1 discriminator 1
 2461 03d4 0120     		movs	r0, #1
 2462              	.LVL405:
 2463 03d6 42E0     		b	.L117
 2464              	.LVL406:
 2465              	.L131:
 2466              	.LBB96:
 2467              	.LBB97:
 463:lvgl\src\lv_draw\../lv_misc/lv_color.h ****                                         (255 - mix) + LV_COLOR_MIX_ROUND_OFS));
 2468              		.loc 3 463 0
 2469 03d8 C7F3C402 		ubfx	r2, r7, #3, #5
 2470              	.LVL407:
 2471 03dc C0F3C403 		ubfx	r3, r0, #3, #5
 2472 03e0 C6F1FF05 		rsb	r5, r6, #255
 2473 03e4 05FB03F3 		mul	r3, r5, r3
 2474 03e8 06FB0233 		mla	r3, r6, r2, r3
 2475 03ec 8033     		adds	r3, r3, #128
 2476 03ee 03EB0322 		add	r2, r3, r3, lsl #8
 2477 03f2 03EBC213 		add	r3, r3, r2, lsl #7
 2478 03f6 DB0D     		lsrs	r3, r3, #23
 2479 03f8 4FF00001 		mov	r1, #0	@ movhi
 2480              	.LVL408:
 2481 03fc 63F3C701 		bfi	r1, r3, #3, #5
 2482              	.LVL409:
 465:lvgl\src\lv_draw\../lv_misc/lv_color.h ****                                         (255 - mix) + LV_COLOR_MIX_ROUND_OFS));
 2483              		.loc 3 465 0
 2484 0400 07F00702 		and	r2, r7, #7
 2485 0404 C7F34233 		ubfx	r3, r7, #13, #3
 2486 0408 03EBC202 		add	r2, r3, r2, lsl #3
 2487 040c 00F0070E 		and	lr, r0, #7
 2488 0410 C0F34233 		ubfx	r3, r0, #13, #3
 2489 0414 03EBCE03 		add	r3, r3, lr, lsl #3
 2490 0418 03FB05F3 		mul	r3, r3, r5
 2491 041c 06FB0233 		mla	r3, r6, r2, r3
 2492 0420 8033     		adds	r3, r3, #128
 2493 0422 03EB0322 		add	r2, r3, r3, lsl #8
 2494 0426 03EBC213 		add	r3, r3, r2, lsl #7
 2495 042a 9A0E     		lsrs	r2, r3, #26
 2496 042c 62F30201 		bfi	r1, r2, #0, #3
 2497 0430 DB0D     		lsrs	r3, r3, #23
 2498 0432 63F34F31 		bfi	r1, r3, #13, #3
 2499              		.loc 3 467 0
 2500 0436 C7F30427 		ubfx	r7, r7, #8, #5
ARM GAS  C:\Users\strap\AppData\Local\Temp\ccvWLEyq.s 			page 70


 2501              	.LVL410:
 2502 043a C0F30420 		ubfx	r0, r0, #8, #5
 2503              	.LVL411:
 2504 043e 05FB00F0 		mul	r0, r5, r0
 2505 0442 06FB0706 		mla	r6, r6, r7, r0
 2506              	.LVL412:
 2507 0446 8036     		adds	r6, r6, #128
 2508 0448 06EB0623 		add	r3, r6, r6, lsl #8
 2509 044c 06EBC316 		add	r6, r6, r3, lsl #7
 2510 0450 F60D     		lsrs	r6, r6, #23
 2511 0452 66F30C21 		bfi	r1, r6, #8, #5
 2512              	.LBE97:
 2513              	.LBE96:
 678:lvgl\src\lv_draw/lv_img_buf.c **** 
 2514              		.loc 1 678 0
 2515 0456 A182     		strh	r1, [r4, #20]	@ movhi
 2516              		.loc 1 680 0
 2517 0458 0120     		movs	r0, #1
 2518 045a 00E0     		b	.L117
 2519              	.LVL413:
 2520              	.L140:
 2521              	.LBB98:
 652:lvgl\src\lv_draw/lv_img_buf.c ****         if(a0 <= LV_OPA_MIN) yr = LV_OPA_TRANSP;
 2522              		.loc 1 652 0
 2523 045c 0020     		movs	r0, #0
 2524              	.LVL414:
 2525              	.L117:
 2526              	.LBE98:
 681:lvgl\src\lv_draw/lv_img_buf.c **** }
 2527              		.loc 1 681 0
 2528 045e 09B0     		add	sp, sp, #36
 2529              		.cfi_def_cfa_offset 36
 2530              		@ sp needed
 2531 0460 BDE8F08F 		pop	{r4, r5, r6, r7, r8, r9, r10, fp, pc}
 2532              		.cfi_endproc
 2533              	.LFE47:
 2534              		.size	_lv_img_buf_transform_anti_alias, .-_lv_img_buf_transform_anti_alias
 2535              		.section	.rodata
 2536              		.align	2
 2537              		.set	.LANCHOR0,. + 0
 2538              	.LC0:
 2539 0000 00       		.byte	0
 2540 0001 55       		.byte	85
 2541 0002 AA       		.byte	-86
 2542 0003 FF       		.byte	-1
 2543              	.LC1:
 2544 0004 00       		.byte	0
 2545 0005 11       		.byte	17
 2546 0006 22       		.byte	34
 2547 0007 33       		.byte	51
 2548 0008 44       		.byte	68
 2549 0009 55       		.byte	85
 2550 000a 66       		.byte	102
 2551 000b 77       		.byte	119
 2552 000c 88       		.byte	-120
 2553 000d 99       		.byte	-103
 2554 000e AA       		.byte	-86
ARM GAS  C:\Users\strap\AppData\Local\Temp\ccvWLEyq.s 			page 71


 2555 000f BB       		.byte	-69
 2556 0010 CC       		.byte	-52
 2557 0011 DD       		.byte	-35
 2558 0012 EE       		.byte	-18
 2559 0013 FF       		.byte	-1
 2560              		.text
 2561              	.Letext0:
 2562              		.file 4 "c:\\program files (x86)\\cypress\\psoc creator\\4.4\\psoc creator\\import\\gnu\\arm\\5.4.
 2563              		.file 5 "c:\\program files (x86)\\cypress\\psoc creator\\4.4\\psoc creator\\import\\gnu\\arm\\5.4.
 2564              		.file 6 "c:\\program files (x86)\\cypress\\psoc creator\\4.4\\psoc creator\\import\\gnu\\arm\\5.4.
 2565              		.file 7 "lvgl\\src\\lv_draw\\../lv_misc/../../../lv_conf.h"
 2566              		.file 8 "lvgl\\src\\lv_draw\\../lv_misc/lv_area.h"
 2567              		.file 9 "lvgl\\src\\lv_draw\\lv_img_buf.h"
 2568              		.file 10 "lvgl\\src\\lv_draw\\lv_draw_img.h"
 2569              		.file 11 "lvgl\\src\\lv_draw\\../lv_misc/lv_math.h"
 2570              		.section	.debug_info,"",%progbits
 2571              	.Ldebug_info0:
 2572 0000 86150000 		.4byte	0x1586
 2573 0004 0400     		.2byte	0x4
 2574 0006 00000000 		.4byte	.Ldebug_abbrev0
 2575 000a 04       		.byte	0x4
 2576 000b 01       		.uleb128 0x1
 2577 000c D0050000 		.4byte	.LASF143
 2578 0010 0C       		.byte	0xc
 2579 0011 E2060000 		.4byte	.LASF144
 2580 0015 9C040000 		.4byte	.LASF145
 2581 0019 A0000000 		.4byte	.Ldebug_ranges0+0xa0
 2582 001d 00000000 		.4byte	0
 2583 0021 00000000 		.4byte	.Ldebug_line0
 2584 0025 02       		.uleb128 0x2
 2585 0026 04       		.byte	0x4
 2586 0027 05       		.byte	0x5
 2587 0028 696E7400 		.ascii	"int\000"
 2588 002c 03       		.uleb128 0x3
 2589 002d 25000000 		.4byte	.LASF4
 2590 0031 04       		.byte	0x4
 2591 0032 D8       		.byte	0xd8
 2592 0033 37000000 		.4byte	0x37
 2593 0037 04       		.uleb128 0x4
 2594 0038 04       		.byte	0x4
 2595 0039 07       		.byte	0x7
 2596 003a C2020000 		.4byte	.LASF0
 2597 003e 04       		.uleb128 0x4
 2598 003f 08       		.byte	0x8
 2599 0040 05       		.byte	0x5
 2600 0041 10010000 		.4byte	.LASF1
 2601 0045 04       		.uleb128 0x4
 2602 0046 08       		.byte	0x8
 2603 0047 04       		.byte	0x4
 2604 0048 4D040000 		.4byte	.LASF2
 2605 004c 04       		.uleb128 0x4
 2606 004d 01       		.byte	0x1
 2607 004e 06       		.byte	0x6
 2608 004f 1E010000 		.4byte	.LASF3
 2609 0053 03       		.uleb128 0x3
 2610 0054 2C000000 		.4byte	.LASF5
 2611 0058 05       		.byte	0x5
ARM GAS  C:\Users\strap\AppData\Local\Temp\ccvWLEyq.s 			page 72


 2612 0059 1D       		.byte	0x1d
 2613 005a 5E000000 		.4byte	0x5e
 2614 005e 04       		.uleb128 0x4
 2615 005f 01       		.byte	0x1
 2616 0060 08       		.byte	0x8
 2617 0061 8D050000 		.4byte	.LASF6
 2618 0065 03       		.uleb128 0x3
 2619 0066 72020000 		.4byte	.LASF7
 2620 006a 05       		.byte	0x5
 2621 006b 29       		.byte	0x29
 2622 006c 70000000 		.4byte	0x70
 2623 0070 04       		.uleb128 0x4
 2624 0071 02       		.byte	0x2
 2625 0072 05       		.byte	0x5
 2626 0073 B0050000 		.4byte	.LASF8
 2627 0077 03       		.uleb128 0x3
 2628 0078 BD060000 		.4byte	.LASF9
 2629 007c 05       		.byte	0x5
 2630 007d 2B       		.byte	0x2b
 2631 007e 82000000 		.4byte	0x82
 2632 0082 04       		.uleb128 0x4
 2633 0083 02       		.byte	0x2
 2634 0084 07       		.byte	0x7
 2635 0085 CF070000 		.4byte	.LASF10
 2636 0089 03       		.uleb128 0x3
 2637 008a FD030000 		.4byte	.LASF11
 2638 008e 05       		.byte	0x5
 2639 008f 3F       		.byte	0x3f
 2640 0090 94000000 		.4byte	0x94
 2641 0094 04       		.uleb128 0x4
 2642 0095 04       		.byte	0x4
 2643 0096 05       		.byte	0x5
 2644 0097 6B010000 		.4byte	.LASF12
 2645 009b 03       		.uleb128 0x3
 2646 009c 61020000 		.4byte	.LASF13
 2647 00a0 05       		.byte	0x5
 2648 00a1 41       		.byte	0x41
 2649 00a2 A6000000 		.4byte	0xa6
 2650 00a6 04       		.uleb128 0x4
 2651 00a7 04       		.byte	0x4
 2652 00a8 07       		.byte	0x7
 2653 00a9 20030000 		.4byte	.LASF14
 2654 00ad 04       		.uleb128 0x4
 2655 00ae 08       		.byte	0x8
 2656 00af 07       		.byte	0x7
 2657 00b0 76000000 		.4byte	.LASF15
 2658 00b4 04       		.uleb128 0x4
 2659 00b5 04       		.byte	0x4
 2660 00b6 07       		.byte	0x7
 2661 00b7 36040000 		.4byte	.LASF16
 2662 00bb 05       		.uleb128 0x5
 2663 00bc 04       		.byte	0x4
 2664 00bd 04       		.uleb128 0x4
 2665 00be 01       		.byte	0x1
 2666 00bf 08       		.byte	0x8
 2667 00c0 97060000 		.4byte	.LASF17
 2668 00c4 03       		.uleb128 0x3
ARM GAS  C:\Users\strap\AppData\Local\Temp\ccvWLEyq.s 			page 73


 2669 00c5 1F080000 		.4byte	.LASF18
 2670 00c9 06       		.byte	0x6
 2671 00ca 18       		.byte	0x18
 2672 00cb 53000000 		.4byte	0x53
 2673 00cf 03       		.uleb128 0x3
 2674 00d0 CB080000 		.4byte	.LASF19
 2675 00d4 06       		.byte	0x6
 2676 00d5 20       		.byte	0x20
 2677 00d6 65000000 		.4byte	0x65
 2678 00da 03       		.uleb128 0x3
 2679 00db 93010000 		.4byte	.LASF20
 2680 00df 06       		.byte	0x6
 2681 00e0 24       		.byte	0x24
 2682 00e1 77000000 		.4byte	0x77
 2683 00e5 03       		.uleb128 0x3
 2684 00e6 85050000 		.4byte	.LASF21
 2685 00ea 06       		.byte	0x6
 2686 00eb 2C       		.byte	0x2c
 2687 00ec 89000000 		.4byte	0x89
 2688 00f0 03       		.uleb128 0x3
 2689 00f1 EA080000 		.4byte	.LASF22
 2690 00f5 06       		.byte	0x6
 2691 00f6 30       		.byte	0x30
 2692 00f7 9B000000 		.4byte	0x9b
 2693 00fb 03       		.uleb128 0x3
 2694 00fc FB000000 		.4byte	.LASF23
 2695 0100 07       		.byte	0x7
 2696 0101 46       		.byte	0x46
 2697 0102 CF000000 		.4byte	0xcf
 2698 0106 06       		.uleb128 0x6
 2699 0107 01       		.byte	0x1
 2700 0108 5E000000 		.4byte	0x5e
 2701 010c 03       		.byte	0x3
 2702 010d 3B       		.byte	0x3b
 2703 010e 61010000 		.4byte	0x161
 2704 0112 07       		.uleb128 0x7
 2705 0113 3F040000 		.4byte	.LASF24
 2706 0117 00       		.byte	0
 2707 0118 07       		.uleb128 0x7
 2708 0119 32080000 		.4byte	.LASF25
 2709 011d 00       		.byte	0
 2710 011e 07       		.uleb128 0x7
 2711 011f 75050000 		.4byte	.LASF26
 2712 0123 19       		.byte	0x19
 2713 0124 07       		.uleb128 0x7
 2714 0125 9C060000 		.4byte	.LASF27
 2715 0129 33       		.byte	0x33
 2716 012a 07       		.uleb128 0x7
 2717 012b 7C020000 		.4byte	.LASF28
 2718 012f 4C       		.byte	0x4c
 2719 0130 07       		.uleb128 0x7
 2720 0131 1B000000 		.4byte	.LASF29
 2721 0135 66       		.byte	0x66
 2722 0136 07       		.uleb128 0x7
 2723 0137 3D010000 		.4byte	.LASF30
 2724 013b 7F       		.byte	0x7f
 2725 013c 07       		.uleb128 0x7
ARM GAS  C:\Users\strap\AppData\Local\Temp\ccvWLEyq.s 			page 74


 2726 013d FB020000 		.4byte	.LASF31
 2727 0141 99       		.byte	0x99
 2728 0142 07       		.uleb128 0x7
 2729 0143 A6030000 		.4byte	.LASF32
 2730 0147 B2       		.byte	0xb2
 2731 0148 07       		.uleb128 0x7
 2732 0149 F1020000 		.4byte	.LASF33
 2733 014d CC       		.byte	0xcc
 2734 014e 07       		.uleb128 0x7
 2735 014f BA050000 		.4byte	.LASF34
 2736 0153 E5       		.byte	0xe5
 2737 0154 07       		.uleb128 0x7
 2738 0155 15070000 		.4byte	.LASF35
 2739 0159 FF       		.byte	0xff
 2740 015a 07       		.uleb128 0x7
 2741 015b A8010000 		.4byte	.LASF36
 2742 015f FF       		.byte	0xff
 2743 0160 00       		.byte	0
 2744 0161 08       		.uleb128 0x8
 2745 0162 02       		.byte	0x2
 2746 0163 03       		.byte	0x3
 2747 0164 EA       		.byte	0xea
 2748 0165 A6010000 		.4byte	0x1a6
 2749 0169 09       		.uleb128 0x9
 2750 016a 41050000 		.4byte	.LASF37
 2751 016e 03       		.byte	0x3
 2752 016f F0       		.byte	0xf0
 2753 0170 DA000000 		.4byte	0xda
 2754 0174 02       		.byte	0x2
 2755 0175 03       		.byte	0x3
 2756 0176 0D       		.byte	0xd
 2757 0177 00       		.byte	0
 2758 0178 0A       		.uleb128 0xa
 2759 0179 72656400 		.ascii	"red\000"
 2760 017d 03       		.byte	0x3
 2761 017e F1       		.byte	0xf1
 2762 017f DA000000 		.4byte	0xda
 2763 0183 02       		.byte	0x2
 2764 0184 05       		.byte	0x5
 2765 0185 08       		.byte	0x8
 2766 0186 00       		.byte	0
 2767 0187 09       		.uleb128 0x9
 2768 0188 8C060000 		.4byte	.LASF38
 2769 018c 03       		.byte	0x3
 2770 018d F2       		.byte	0xf2
 2771 018e DA000000 		.4byte	0xda
 2772 0192 02       		.byte	0x2
 2773 0193 05       		.byte	0x5
 2774 0194 03       		.byte	0x3
 2775 0195 00       		.byte	0
 2776 0196 09       		.uleb128 0x9
 2777 0197 49050000 		.4byte	.LASF39
 2778 019b 03       		.byte	0x3
 2779 019c F3       		.byte	0xf3
 2780 019d DA000000 		.4byte	0xda
 2781 01a1 02       		.byte	0x2
 2782 01a2 03       		.byte	0x3
ARM GAS  C:\Users\strap\AppData\Local\Temp\ccvWLEyq.s 			page 75


 2783 01a3 00       		.byte	0
 2784 01a4 00       		.byte	0
 2785 01a5 00       		.byte	0
 2786 01a6 0B       		.uleb128 0xb
 2787 01a7 02       		.byte	0x2
 2788 01a8 03       		.byte	0x3
 2789 01a9 E9       		.byte	0xe9
 2790 01aa C4010000 		.4byte	0x1c4
 2791 01ae 0C       		.uleb128 0xc
 2792 01af 636800   		.ascii	"ch\000"
 2793 01b2 03       		.byte	0x3
 2794 01b3 F5       		.byte	0xf5
 2795 01b4 61010000 		.4byte	0x161
 2796 01b8 0D       		.uleb128 0xd
 2797 01b9 59040000 		.4byte	.LASF40
 2798 01bd 03       		.byte	0x3
 2799 01be F6       		.byte	0xf6
 2800 01bf DA000000 		.4byte	0xda
 2801 01c3 00       		.byte	0
 2802 01c4 03       		.uleb128 0x3
 2803 01c5 51050000 		.4byte	.LASF41
 2804 01c9 03       		.byte	0x3
 2805 01ca F7       		.byte	0xf7
 2806 01cb A6010000 		.4byte	0x1a6
 2807 01cf 08       		.uleb128 0x8
 2808 01d0 04       		.byte	0x4
 2809 01d1 03       		.byte	0x3
 2810 01d2 FA       		.byte	0xfa
 2811 01d3 08020000 		.4byte	0x208
 2812 01d7 0E       		.uleb128 0xe
 2813 01d8 8C060000 		.4byte	.LASF38
 2814 01dc 03       		.byte	0x3
 2815 01dd FB       		.byte	0xfb
 2816 01de C4000000 		.4byte	0xc4
 2817 01e2 00       		.byte	0
 2818 01e3 0E       		.uleb128 0xe
 2819 01e4 2A010000 		.4byte	.LASF42
 2820 01e8 03       		.byte	0x3
 2821 01e9 FC       		.byte	0xfc
 2822 01ea C4000000 		.4byte	0xc4
 2823 01ee 01       		.byte	0x1
 2824 01ef 0F       		.uleb128 0xf
 2825 01f0 72656400 		.ascii	"red\000"
 2826 01f4 03       		.byte	0x3
 2827 01f5 FD       		.byte	0xfd
 2828 01f6 C4000000 		.4byte	0xc4
 2829 01fa 02       		.byte	0x2
 2830 01fb 0E       		.uleb128 0xe
 2831 01fc 30010000 		.4byte	.LASF43
 2832 0200 03       		.byte	0x3
 2833 0201 FE       		.byte	0xfe
 2834 0202 C4000000 		.4byte	0xc4
 2835 0206 03       		.byte	0x3
 2836 0207 00       		.byte	0
 2837 0208 0B       		.uleb128 0xb
 2838 0209 04       		.byte	0x4
 2839 020a 03       		.byte	0x3
ARM GAS  C:\Users\strap\AppData\Local\Temp\ccvWLEyq.s 			page 76


 2840 020b F9       		.byte	0xf9
 2841 020c 27020000 		.4byte	0x227
 2842 0210 0C       		.uleb128 0xc
 2843 0211 636800   		.ascii	"ch\000"
 2844 0214 03       		.byte	0x3
 2845 0215 FF       		.byte	0xff
 2846 0216 CF010000 		.4byte	0x1cf
 2847 021a 10       		.uleb128 0x10
 2848 021b 59040000 		.4byte	.LASF40
 2849 021f 03       		.byte	0x3
 2850 0220 0001     		.2byte	0x100
 2851 0222 F0000000 		.4byte	0xf0
 2852 0226 00       		.byte	0
 2853 0227 11       		.uleb128 0x11
 2854 0228 D1000000 		.4byte	.LASF44
 2855 022c 03       		.byte	0x3
 2856 022d 0101     		.2byte	0x101
 2857 022f 08020000 		.4byte	0x208
 2858 0233 11       		.uleb128 0x11
 2859 0234 0A070000 		.4byte	.LASF45
 2860 0238 03       		.byte	0x3
 2861 0239 0D01     		.2byte	0x10d
 2862 023b C4010000 		.4byte	0x1c4
 2863 023f 11       		.uleb128 0x11
 2864 0240 07040000 		.4byte	.LASF46
 2865 0244 03       		.byte	0x3
 2866 0245 2001     		.2byte	0x120
 2867 0247 C4000000 		.4byte	0xc4
 2868 024b 08       		.uleb128 0x8
 2869 024c 04       		.byte	0x4
 2870 024d 08       		.byte	0x8
 2871 024e 27       		.byte	0x27
 2872 024f 68020000 		.4byte	0x268
 2873 0253 0F       		.uleb128 0xf
 2874 0254 7800     		.ascii	"x\000"
 2875 0256 08       		.byte	0x8
 2876 0257 28       		.byte	0x28
 2877 0258 FB000000 		.4byte	0xfb
 2878 025c 00       		.byte	0
 2879 025d 0F       		.uleb128 0xf
 2880 025e 7900     		.ascii	"y\000"
 2881 0260 08       		.byte	0x8
 2882 0261 29       		.byte	0x29
 2883 0262 FB000000 		.4byte	0xfb
 2884 0266 02       		.byte	0x2
 2885 0267 00       		.byte	0
 2886 0268 03       		.uleb128 0x3
 2887 0269 27080000 		.4byte	.LASF47
 2888 026d 08       		.byte	0x8
 2889 026e 2A       		.byte	0x2a
 2890 026f 4B020000 		.4byte	0x24b
 2891 0273 08       		.uleb128 0x8
 2892 0274 08       		.byte	0x8
 2893 0275 08       		.byte	0x8
 2894 0276 2D       		.byte	0x2d
 2895 0277 A8020000 		.4byte	0x2a8
 2896 027b 0F       		.uleb128 0xf
ARM GAS  C:\Users\strap\AppData\Local\Temp\ccvWLEyq.s 			page 77


 2897 027c 783100   		.ascii	"x1\000"
 2898 027f 08       		.byte	0x8
 2899 0280 2E       		.byte	0x2e
 2900 0281 FB000000 		.4byte	0xfb
 2901 0285 00       		.byte	0
 2902 0286 0F       		.uleb128 0xf
 2903 0287 793100   		.ascii	"y1\000"
 2904 028a 08       		.byte	0x8
 2905 028b 2F       		.byte	0x2f
 2906 028c FB000000 		.4byte	0xfb
 2907 0290 02       		.byte	0x2
 2908 0291 0F       		.uleb128 0xf
 2909 0292 783200   		.ascii	"x2\000"
 2910 0295 08       		.byte	0x8
 2911 0296 30       		.byte	0x30
 2912 0297 FB000000 		.4byte	0xfb
 2913 029b 04       		.byte	0x4
 2914 029c 0F       		.uleb128 0xf
 2915 029d 793200   		.ascii	"y2\000"
 2916 02a0 08       		.byte	0x8
 2917 02a1 31       		.byte	0x31
 2918 02a2 FB000000 		.4byte	0xfb
 2919 02a6 06       		.byte	0x6
 2920 02a7 00       		.byte	0
 2921 02a8 03       		.uleb128 0x3
 2922 02a9 61010000 		.4byte	.LASF48
 2923 02ad 08       		.byte	0x8
 2924 02ae 32       		.byte	0x32
 2925 02af 73020000 		.4byte	0x273
 2926 02b3 06       		.uleb128 0x6
 2927 02b4 01       		.byte	0x1
 2928 02b5 5E000000 		.4byte	0x5e
 2929 02b9 09       		.byte	0x9
 2930 02ba 3B       		.byte	0x3b
 2931 02bb 80030000 		.4byte	0x380
 2932 02bf 07       		.uleb128 0x7
 2933 02c0 CB010000 		.4byte	.LASF49
 2934 02c4 00       		.byte	0
 2935 02c5 07       		.uleb128 0x7
 2936 02c6 0D000000 		.4byte	.LASF50
 2937 02ca 01       		.byte	0x1
 2938 02cb 07       		.uleb128 0x7
 2939 02cc 36000000 		.4byte	.LASF51
 2940 02d0 02       		.byte	0x2
 2941 02d1 07       		.uleb128 0x7
 2942 02d2 A4080000 		.4byte	.LASF52
 2943 02d6 03       		.byte	0x3
 2944 02d7 07       		.uleb128 0x7
 2945 02d8 21040000 		.4byte	.LASF53
 2946 02dc 04       		.byte	0x4
 2947 02dd 07       		.uleb128 0x7
 2948 02de 3B080000 		.4byte	.LASF54
 2949 02e2 05       		.byte	0x5
 2950 02e3 07       		.uleb128 0x7
 2951 02e4 D1030000 		.4byte	.LASF55
 2952 02e8 06       		.byte	0x6
 2953 02e9 07       		.uleb128 0x7
ARM GAS  C:\Users\strap\AppData\Local\Temp\ccvWLEyq.s 			page 78


 2954 02ea FB070000 		.4byte	.LASF56
 2955 02ee 07       		.byte	0x7
 2956 02ef 07       		.uleb128 0x7
 2957 02f0 A6060000 		.4byte	.LASF57
 2958 02f4 08       		.byte	0x8
 2959 02f5 07       		.uleb128 0x7
 2960 02f6 85040000 		.4byte	.LASF58
 2961 02fa 09       		.byte	0x9
 2962 02fb 07       		.uleb128 0x7
 2963 02fc BA000000 		.4byte	.LASF59
 2964 0300 0A       		.byte	0xa
 2965 0301 07       		.uleb128 0x7
 2966 0302 91030000 		.4byte	.LASF60
 2967 0306 0B       		.byte	0xb
 2968 0307 07       		.uleb128 0x7
 2969 0308 A7020000 		.4byte	.LASF61
 2970 030c 0C       		.byte	0xc
 2971 030d 07       		.uleb128 0x7
 2972 030e 61000000 		.4byte	.LASF62
 2973 0312 0D       		.byte	0xd
 2974 0313 07       		.uleb128 0x7
 2975 0314 9B050000 		.4byte	.LASF63
 2976 0318 0E       		.byte	0xe
 2977 0319 07       		.uleb128 0x7
 2978 031a DD010000 		.4byte	.LASF64
 2979 031e 0F       		.byte	0xf
 2980 031f 07       		.uleb128 0x7
 2981 0320 F3010000 		.4byte	.LASF65
 2982 0324 10       		.byte	0x10
 2983 0325 07       		.uleb128 0x7
 2984 0326 09020000 		.4byte	.LASF66
 2985 032a 11       		.byte	0x11
 2986 032b 07       		.uleb128 0x7
 2987 032c 1F020000 		.4byte	.LASF67
 2988 0330 12       		.byte	0x12
 2989 0331 07       		.uleb128 0x7
 2990 0332 35020000 		.4byte	.LASF68
 2991 0336 13       		.byte	0x13
 2992 0337 07       		.uleb128 0x7
 2993 0338 3C030000 		.4byte	.LASF69
 2994 033c 14       		.byte	0x14
 2995 033d 07       		.uleb128 0x7
 2996 033e 4B020000 		.4byte	.LASF70
 2997 0342 15       		.byte	0x15
 2998 0343 07       		.uleb128 0x7
 2999 0344 52030000 		.4byte	.LASF71
 3000 0348 16       		.byte	0x16
 3001 0349 07       		.uleb128 0x7
 3002 034a 68030000 		.4byte	.LASF72
 3003 034e 17       		.byte	0x17
 3004 034f 07       		.uleb128 0x7
 3005 0350 E2070000 		.4byte	.LASF73
 3006 0354 18       		.byte	0x18
 3007 0355 07       		.uleb128 0x7
 3008 0356 20070000 		.4byte	.LASF74
 3009 035a 19       		.byte	0x19
 3010 035b 07       		.uleb128 0x7
ARM GAS  C:\Users\strap\AppData\Local\Temp\ccvWLEyq.s 			page 79


 3011 035c 39070000 		.4byte	.LASF75
 3012 0360 1A       		.byte	0x1a
 3013 0361 07       		.uleb128 0x7
 3014 0362 52070000 		.4byte	.LASF76
 3015 0366 1B       		.byte	0x1b
 3016 0367 07       		.uleb128 0x7
 3017 0368 6B070000 		.4byte	.LASF77
 3018 036c 1C       		.byte	0x1c
 3019 036d 07       		.uleb128 0x7
 3020 036e 84070000 		.4byte	.LASF78
 3021 0372 1D       		.byte	0x1d
 3022 0373 07       		.uleb128 0x7
 3023 0374 9D070000 		.4byte	.LASF79
 3024 0378 1E       		.byte	0x1e
 3025 0379 07       		.uleb128 0x7
 3026 037a B6070000 		.4byte	.LASF80
 3027 037e 1F       		.byte	0x1f
 3028 037f 00       		.byte	0
 3029 0380 03       		.uleb128 0x3
 3030 0381 BF080000 		.4byte	.LASF81
 3031 0385 09       		.byte	0x9
 3032 0386 66       		.byte	0x66
 3033 0387 C4000000 		.4byte	0xc4
 3034 038b 08       		.uleb128 0x8
 3035 038c 04       		.byte	0x4
 3036 038d 09       		.byte	0x9
 3037 038e 7E       		.byte	0x7e
 3038 038f DA030000 		.4byte	0x3da
 3039 0393 0A       		.uleb128 0xa
 3040 0394 636600   		.ascii	"cf\000"
 3041 0397 09       		.byte	0x9
 3042 0398 80       		.byte	0x80
 3043 0399 F0000000 		.4byte	0xf0
 3044 039d 04       		.byte	0x4
 3045 039e 05       		.byte	0x5
 3046 039f 1B       		.byte	0x1b
 3047 03a0 00       		.byte	0
 3048 03a1 09       		.uleb128 0x9
 3049 03a2 56080000 		.4byte	.LASF82
 3050 03a6 09       		.byte	0x9
 3051 03a7 81       		.byte	0x81
 3052 03a8 F0000000 		.4byte	0xf0
 3053 03ac 04       		.byte	0x4
 3054 03ad 03       		.byte	0x3
 3055 03ae 18       		.byte	0x18
 3056 03af 00       		.byte	0
 3057 03b0 09       		.uleb128 0x9
 3058 03b1 86020000 		.4byte	.LASF83
 3059 03b5 09       		.byte	0x9
 3060 03b6 84       		.byte	0x84
 3061 03b7 F0000000 		.4byte	0xf0
 3062 03bb 04       		.byte	0x4
 3063 03bc 02       		.byte	0x2
 3064 03bd 16       		.byte	0x16
 3065 03be 00       		.byte	0
 3066 03bf 0A       		.uleb128 0xa
 3067 03c0 7700     		.ascii	"w\000"
ARM GAS  C:\Users\strap\AppData\Local\Temp\ccvWLEyq.s 			page 80


 3068 03c2 09       		.byte	0x9
 3069 03c3 86       		.byte	0x86
 3070 03c4 F0000000 		.4byte	0xf0
 3071 03c8 04       		.byte	0x4
 3072 03c9 0B       		.byte	0xb
 3073 03ca 0B       		.byte	0xb
 3074 03cb 00       		.byte	0
 3075 03cc 0A       		.uleb128 0xa
 3076 03cd 6800     		.ascii	"h\000"
 3077 03cf 09       		.byte	0x9
 3078 03d0 87       		.byte	0x87
 3079 03d1 F0000000 		.4byte	0xf0
 3080 03d5 04       		.byte	0x4
 3081 03d6 0B       		.byte	0xb
 3082 03d7 00       		.byte	0
 3083 03d8 00       		.byte	0
 3084 03d9 00       		.byte	0
 3085 03da 03       		.uleb128 0x3
 3086 03db 7A010000 		.4byte	.LASF84
 3087 03df 09       		.byte	0x9
 3088 03e0 88       		.byte	0x88
 3089 03e1 8B030000 		.4byte	0x38b
 3090 03e5 08       		.uleb128 0x8
 3091 03e6 0C       		.byte	0xc
 3092 03e7 09       		.byte	0x9
 3093 03e8 8D       		.byte	0x8d
 3094 03e9 12040000 		.4byte	0x412
 3095 03ed 0E       		.uleb128 0xe
 3096 03ee E3080000 		.4byte	.LASF85
 3097 03f2 09       		.byte	0x9
 3098 03f3 8E       		.byte	0x8e
 3099 03f4 DA030000 		.4byte	0x3da
 3100 03f8 00       		.byte	0
 3101 03f9 0E       		.uleb128 0xe
 3102 03fa F3030000 		.4byte	.LASF86
 3103 03fe 09       		.byte	0x9
 3104 03ff 8F       		.byte	0x8f
 3105 0400 F0000000 		.4byte	0xf0
 3106 0404 04       		.byte	0x4
 3107 0405 0E       		.uleb128 0xe
 3108 0406 78040000 		.4byte	.LASF87
 3109 040a 09       		.byte	0x9
 3110 040b 90       		.byte	0x90
 3111 040c 12040000 		.4byte	0x412
 3112 0410 08       		.byte	0x8
 3113 0411 00       		.byte	0
 3114 0412 12       		.uleb128 0x12
 3115 0413 04       		.byte	0x4
 3116 0414 18040000 		.4byte	0x418
 3117 0418 13       		.uleb128 0x13
 3118 0419 C4000000 		.4byte	0xc4
 3119 041d 03       		.uleb128 0x3
 3120 041e 12080000 		.4byte	.LASF88
 3121 0422 09       		.byte	0x9
 3122 0423 91       		.byte	0x91
 3123 0424 E5030000 		.4byte	0x3e5
 3124 0428 08       		.uleb128 0x8
ARM GAS  C:\Users\strap\AppData\Local\Temp\ccvWLEyq.s 			page 81


 3125 0429 14       		.byte	0x14
 3126 042a 09       		.byte	0x9
 3127 042b 94       		.byte	0x94
 3128 042c A8040000 		.4byte	0x4a8
 3129 0430 0F       		.uleb128 0xf
 3130 0431 73726300 		.ascii	"src\000"
 3131 0435 09       		.byte	0x9
 3132 0436 95       		.byte	0x95
 3133 0437 A8040000 		.4byte	0x4a8
 3134 043b 00       		.byte	0
 3135 043c 0E       		.uleb128 0xe
 3136 043d BC020000 		.4byte	.LASF89
 3137 0441 09       		.byte	0x9
 3138 0442 96       		.byte	0x96
 3139 0443 FB000000 		.4byte	0xfb
 3140 0447 04       		.byte	0x4
 3141 0448 0E       		.uleb128 0xe
 3142 0449 6C020000 		.4byte	.LASF90
 3143 044d 09       		.byte	0x9
 3144 044e 97       		.byte	0x97
 3145 044f FB000000 		.4byte	0xfb
 3146 0453 06       		.byte	0x6
 3147 0454 0E       		.uleb128 0xe
 3148 0455 4A000000 		.4byte	.LASF91
 3149 0459 09       		.byte	0x9
 3150 045a 98       		.byte	0x98
 3151 045b FB000000 		.4byte	0xfb
 3152 045f 08       		.byte	0x8
 3153 0460 0E       		.uleb128 0xe
 3154 0461 52000000 		.4byte	.LASF92
 3155 0465 09       		.byte	0x9
 3156 0466 99       		.byte	0x99
 3157 0467 FB000000 		.4byte	0xfb
 3158 046b 0A       		.byte	0xa
 3159 046c 0E       		.uleb128 0xe
 3160 046d 8D000000 		.4byte	.LASF93
 3161 0471 09       		.byte	0x9
 3162 0472 9A       		.byte	0x9a
 3163 0473 CF000000 		.4byte	0xcf
 3164 0477 0C       		.byte	0xc
 3165 0478 0E       		.uleb128 0xe
 3166 0479 AD000000 		.4byte	.LASF94
 3167 047d 09       		.byte	0x9
 3168 047e 9B       		.byte	0x9b
 3169 047f DA000000 		.4byte	0xda
 3170 0483 0E       		.byte	0xe
 3171 0484 0E       		.uleb128 0xe
 3172 0485 91060000 		.4byte	.LASF95
 3173 0489 09       		.byte	0x9
 3174 048a 9C       		.byte	0x9c
 3175 048b 33020000 		.4byte	0x233
 3176 048f 10       		.byte	0x10
 3177 0490 0F       		.uleb128 0xf
 3178 0491 636600   		.ascii	"cf\000"
 3179 0494 09       		.byte	0x9
 3180 0495 9D       		.byte	0x9d
 3181 0496 80030000 		.4byte	0x380
ARM GAS  C:\Users\strap\AppData\Local\Temp\ccvWLEyq.s 			page 82


 3182 049a 12       		.byte	0x12
 3183 049b 0E       		.uleb128 0xe
 3184 049c 00070000 		.4byte	.LASF96
 3185 04a0 09       		.byte	0x9
 3186 04a1 9E       		.byte	0x9e
 3187 04a2 AF040000 		.4byte	0x4af
 3188 04a6 13       		.byte	0x13
 3189 04a7 00       		.byte	0
 3190 04a8 12       		.uleb128 0x12
 3191 04a9 04       		.byte	0x4
 3192 04aa AE040000 		.4byte	0x4ae
 3193 04ae 14       		.uleb128 0x14
 3194 04af 04       		.uleb128 0x4
 3195 04b0 01       		.byte	0x1
 3196 04b1 02       		.byte	0x2
 3197 04b2 7F050000 		.4byte	.LASF97
 3198 04b6 08       		.uleb128 0x8
 3199 04b7 04       		.byte	0x4
 3200 04b8 09       		.byte	0x9
 3201 04b9 A1       		.byte	0xa1
 3202 04ba D7040000 		.4byte	0x4d7
 3203 04be 0E       		.uleb128 0xe
 3204 04bf 91060000 		.4byte	.LASF95
 3205 04c3 09       		.byte	0x9
 3206 04c4 A2       		.byte	0xa2
 3207 04c5 33020000 		.4byte	0x233
 3208 04c9 00       		.byte	0
 3209 04ca 0F       		.uleb128 0xf
 3210 04cb 6F706100 		.ascii	"opa\000"
 3211 04cf 09       		.byte	0x9
 3212 04d0 A3       		.byte	0xa3
 3213 04d1 3F020000 		.4byte	0x23f
 3214 04d5 02       		.byte	0x2
 3215 04d6 00       		.byte	0
 3216 04d7 08       		.uleb128 0x8
 3217 04d8 34       		.byte	0x34
 3218 04d9 09       		.byte	0x9
 3219 04da A7       		.byte	0xa7
 3220 04db 9B050000 		.4byte	0x59b
 3221 04df 0E       		.uleb128 0xe
 3222 04e0 65060000 		.4byte	.LASF98
 3223 04e4 09       		.byte	0x9
 3224 04e5 A8       		.byte	0xa8
 3225 04e6 1D040000 		.4byte	0x41d
 3226 04ea 00       		.byte	0
 3227 04eb 0E       		.uleb128 0xe
 3228 04ec 47010000 		.4byte	.LASF99
 3229 04f0 09       		.byte	0x9
 3230 04f1 A9       		.byte	0xa9
 3231 04f2 E5000000 		.4byte	0xe5
 3232 04f6 0C       		.byte	0xc
 3233 04f7 0E       		.uleb128 0xe
 3234 04f8 D6060000 		.4byte	.LASF100
 3235 04fc 09       		.byte	0x9
 3236 04fd AA       		.byte	0xaa
 3237 04fe E5000000 		.4byte	0xe5
 3238 0502 10       		.byte	0x10
ARM GAS  C:\Users\strap\AppData\Local\Temp\ccvWLEyq.s 			page 83


 3239 0503 0E       		.uleb128 0xe
 3240 0504 7E030000 		.4byte	.LASF101
 3241 0508 09       		.byte	0x9
 3242 0509 AB       		.byte	0xab
 3243 050a E5000000 		.4byte	0xe5
 3244 050e 14       		.byte	0x14
 3245 050f 0E       		.uleb128 0xe
 3246 0510 74010000 		.4byte	.LASF102
 3247 0514 09       		.byte	0x9
 3248 0515 AC       		.byte	0xac
 3249 0516 E5000000 		.4byte	0xe5
 3250 051a 18       		.byte	0x18
 3251 051b 09       		.uleb128 0x9
 3252 051c DC040000 		.4byte	.LASF103
 3253 0520 09       		.byte	0x9
 3254 0521 AE       		.byte	0xae
 3255 0522 C4000000 		.4byte	0xc4
 3256 0526 01       		.byte	0x1
 3257 0527 01       		.byte	0x1
 3258 0528 07       		.byte	0x7
 3259 0529 1C       		.byte	0x1c
 3260 052a 09       		.uleb128 0x9
 3261 052b 32030000 		.4byte	.LASF104
 3262 052f 09       		.byte	0x9
 3263 0530 AF       		.byte	0xaf
 3264 0531 C4000000 		.4byte	0xc4
 3265 0535 01       		.byte	0x1
 3266 0536 01       		.byte	0x1
 3267 0537 06       		.byte	0x6
 3268 0538 1C       		.byte	0x1c
 3269 0539 09       		.uleb128 0x9
 3270 053a 84030000 		.4byte	.LASF105
 3271 053e 09       		.byte	0x9
 3272 053f B0       		.byte	0xb0
 3273 0540 C4000000 		.4byte	0xc4
 3274 0544 01       		.byte	0x1
 3275 0545 01       		.byte	0x1
 3276 0546 05       		.byte	0x5
 3277 0547 1C       		.byte	0x1c
 3278 0548 0E       		.uleb128 0xe
 3279 0549 6F040000 		.4byte	.LASF106
 3280 054d 09       		.byte	0x9
 3281 054e B2       		.byte	0xb2
 3282 054f F0000000 		.4byte	0xf0
 3283 0553 20       		.byte	0x20
 3284 0554 0F       		.uleb128 0xf
 3285 0555 787300   		.ascii	"xs\000"
 3286 0558 09       		.byte	0x9
 3287 0559 B5       		.byte	0xb5
 3288 055a FB000000 		.4byte	0xfb
 3289 055e 24       		.byte	0x24
 3290 055f 0F       		.uleb128 0xf
 3291 0560 797300   		.ascii	"ys\000"
 3292 0563 09       		.byte	0x9
 3293 0564 B6       		.byte	0xb6
 3294 0565 FB000000 		.4byte	0xfb
 3295 0569 26       		.byte	0x26
ARM GAS  C:\Users\strap\AppData\Local\Temp\ccvWLEyq.s 			page 84


 3296 056a 0E       		.uleb128 0xe
 3297 056b 85060000 		.4byte	.LASF107
 3298 056f 09       		.byte	0x9
 3299 0570 B7       		.byte	0xb7
 3300 0571 FB000000 		.4byte	0xfb
 3301 0575 28       		.byte	0x28
 3302 0576 0E       		.uleb128 0xe
 3303 0577 5E060000 		.4byte	.LASF108
 3304 057b 09       		.byte	0x9
 3305 057c B8       		.byte	0xb8
 3306 057d FB000000 		.4byte	0xfb
 3307 0581 2A       		.byte	0x2a
 3308 0582 0F       		.uleb128 0xf
 3309 0583 70786900 		.ascii	"pxi\000"
 3310 0587 09       		.byte	0x9
 3311 0588 B9       		.byte	0xb9
 3312 0589 F0000000 		.4byte	0xf0
 3313 058d 2C       		.byte	0x2c
 3314 058e 0E       		.uleb128 0xe
 3315 058f B2000000 		.4byte	.LASF109
 3316 0593 09       		.byte	0x9
 3317 0594 BA       		.byte	0xba
 3318 0595 C4000000 		.4byte	0xc4
 3319 0599 30       		.byte	0x30
 3320 059a 00       		.byte	0
 3321 059b 08       		.uleb128 0x8
 3322 059c 4C       		.byte	0x4c
 3323 059d 09       		.byte	0x9
 3324 059e 93       		.byte	0x93
 3325 059f C8050000 		.4byte	0x5c8
 3326 05a3 0F       		.uleb128 0xf
 3327 05a4 63666700 		.ascii	"cfg\000"
 3328 05a8 09       		.byte	0x9
 3329 05a9 9F       		.byte	0x9f
 3330 05aa 28040000 		.4byte	0x428
 3331 05ae 00       		.byte	0
 3332 05af 0F       		.uleb128 0xf
 3333 05b0 72657300 		.ascii	"res\000"
 3334 05b4 09       		.byte	0x9
 3335 05b5 A4       		.byte	0xa4
 3336 05b6 B6040000 		.4byte	0x4b6
 3337 05ba 14       		.byte	0x14
 3338 05bb 0F       		.uleb128 0xf
 3339 05bc 746D7000 		.ascii	"tmp\000"
 3340 05c0 09       		.byte	0x9
 3341 05c1 BB       		.byte	0xbb
 3342 05c2 D7040000 		.4byte	0x4d7
 3343 05c6 18       		.byte	0x18
 3344 05c7 00       		.byte	0
 3345 05c8 03       		.uleb128 0x3
 3346 05c9 5E050000 		.4byte	.LASF110
 3347 05cd 09       		.byte	0x9
 3348 05ce BC       		.byte	0xbc
 3349 05cf 9B050000 		.4byte	0x59b
 3350 05d3 12       		.uleb128 0x12
 3351 05d4 04       		.byte	0x4
 3352 05d5 C4000000 		.4byte	0xc4
ARM GAS  C:\Users\strap\AppData\Local\Temp\ccvWLEyq.s 			page 85


 3353 05d9 15       		.uleb128 0x15
 3354 05da 10040000 		.4byte	.LASF111
 3355 05de 02       		.byte	0x2
 3356 05df D6       		.byte	0xd6
 3357 05e0 BB000000 		.4byte	0xbb
 3358 05e4 03       		.byte	0x3
 3359 05e5 1F060000 		.4byte	0x61f
 3360 05e9 16       		.uleb128 0x16
 3361 05ea 64737400 		.ascii	"dst\000"
 3362 05ee 02       		.byte	0x2
 3363 05ef D6       		.byte	0xd6
 3364 05f0 BB000000 		.4byte	0xbb
 3365 05f4 16       		.uleb128 0x16
 3366 05f5 73726300 		.ascii	"src\000"
 3367 05f9 02       		.byte	0x2
 3368 05fa D6       		.byte	0xd6
 3369 05fb A8040000 		.4byte	0x4a8
 3370 05ff 16       		.uleb128 0x16
 3371 0600 6C656E00 		.ascii	"len\000"
 3372 0604 02       		.byte	0x2
 3373 0605 D6       		.byte	0xd6
 3374 0606 2C000000 		.4byte	0x2c
 3375 060a 17       		.uleb128 0x17
 3376 060b 643800   		.ascii	"d8\000"
 3377 060e 02       		.byte	0x2
 3378 060f D8       		.byte	0xd8
 3379 0610 D3050000 		.4byte	0x5d3
 3380 0614 17       		.uleb128 0x17
 3381 0615 733800   		.ascii	"s8\000"
 3382 0618 02       		.byte	0x2
 3383 0619 D9       		.byte	0xd9
 3384 061a 12040000 		.4byte	0x412
 3385 061e 00       		.byte	0
 3386 061f 18       		.uleb128 0x18
 3387 0620 C8060000 		.4byte	.LASF112
 3388 0624 03       		.byte	0x3
 3389 0625 8901     		.2byte	0x189
 3390 0627 F0000000 		.4byte	0xf0
 3391 062b 03       		.byte	0x3
 3392 062c 49060000 		.4byte	0x649
 3393 0630 19       		.uleb128 0x19
 3394 0631 91060000 		.4byte	.LASF95
 3395 0635 03       		.byte	0x3
 3396 0636 8901     		.2byte	0x189
 3397 0638 33020000 		.4byte	0x233
 3398 063c 1A       		.uleb128 0x1a
 3399 063d 72657400 		.ascii	"ret\000"
 3400 0641 03       		.byte	0x3
 3401 0642 B501     		.2byte	0x1b5
 3402 0644 27020000 		.4byte	0x227
 3403 0648 00       		.byte	0
 3404 0649 1B       		.uleb128 0x1b
 3405 064a E9040000 		.4byte	.LASF115
 3406 064e 01       		.byte	0x1
 3407 064f 34       		.byte	0x34
 3408 0650 33020000 		.4byte	0x233
 3409 0654 00000000 		.4byte	.LFB37
ARM GAS  C:\Users\strap\AppData\Local\Temp\ccvWLEyq.s 			page 86


 3410 0658 1E010000 		.4byte	.LFE37-.LFB37
 3411 065c 01       		.uleb128 0x1
 3412 065d 9C       		.byte	0x9c
 3413 065e CC070000 		.4byte	0x7cc
 3414 0662 1C       		.uleb128 0x1c
 3415 0663 64736300 		.ascii	"dsc\000"
 3416 0667 01       		.byte	0x1
 3417 0668 34       		.byte	0x34
 3418 0669 CC070000 		.4byte	0x7cc
 3419 066d 00000000 		.4byte	.LLST0
 3420 0671 1C       		.uleb128 0x1c
 3421 0672 7800     		.ascii	"x\000"
 3422 0674 01       		.byte	0x1
 3423 0675 34       		.byte	0x34
 3424 0676 FB000000 		.4byte	0xfb
 3425 067a 9B000000 		.4byte	.LLST1
 3426 067e 1C       		.uleb128 0x1c
 3427 067f 7900     		.ascii	"y\000"
 3428 0681 01       		.byte	0x1
 3429 0682 34       		.byte	0x34
 3430 0683 FB000000 		.4byte	0xfb
 3431 0687 15010000 		.4byte	.LLST2
 3432 068b 1D       		.uleb128 0x1d
 3433 068c 91060000 		.4byte	.LASF95
 3434 0690 01       		.byte	0x1
 3435 0691 34       		.byte	0x34
 3436 0692 33020000 		.4byte	0x233
 3437 0696 B3010000 		.4byte	.LLST3
 3438 069a 1E       		.uleb128 0x1e
 3439 069b 7D040000 		.4byte	.LASF113
 3440 069f 01       		.byte	0x1
 3441 06a0 36       		.byte	0x36
 3442 06a1 33020000 		.4byte	0x233
 3443 06a5 02       		.uleb128 0x2
 3444 06a6 91       		.byte	0x91
 3445 06a7 64       		.sleb128 -28
 3446 06a8 1F       		.uleb128 0x1f
 3447 06a9 68040000 		.4byte	.LASF114
 3448 06ad 01       		.byte	0x1
 3449 06ae 37       		.byte	0x37
 3450 06af D3050000 		.4byte	0x5d3
 3451 06b3 FD010000 		.4byte	.LLST4
 3452 06b7 20       		.uleb128 0x20
 3453 06b8 24000000 		.4byte	.LBB30
 3454 06bc 32000000 		.4byte	.LBE30-.LBB30
 3455 06c0 32070000 		.4byte	0x732
 3456 06c4 1F       		.uleb128 0x1f
 3457 06c5 B2000000 		.4byte	.LASF109
 3458 06c9 01       		.byte	0x1
 3459 06ca 3B       		.byte	0x3b
 3460 06cb C4000000 		.4byte	0xc4
 3461 06cf 72020000 		.4byte	.LLST5
 3462 06d3 21       		.uleb128 0x21
 3463 06d4 707800   		.ascii	"px\000"
 3464 06d7 01       		.byte	0x1
 3465 06d8 3C       		.byte	0x3c
 3466 06d9 F0000000 		.4byte	0xf0
ARM GAS  C:\Users\strap\AppData\Local\Temp\ccvWLEyq.s 			page 87


 3467 06dd 85020000 		.4byte	.LLST6
 3468 06e1 22       		.uleb128 0x22
 3469 06e2 D9050000 		.4byte	0x5d9
 3470 06e6 40000000 		.4byte	.LBB31
 3471 06ea 00000000 		.4byte	.Ldebug_ranges0+0
 3472 06ee 01       		.byte	0x1
 3473 06ef 3D       		.byte	0x3d
 3474 06f0 28070000 		.4byte	0x728
 3475 06f4 23       		.uleb128 0x23
 3476 06f5 FF050000 		.4byte	0x5ff
 3477 06f9 9D020000 		.4byte	.LLST7
 3478 06fd 23       		.uleb128 0x23
 3479 06fe F4050000 		.4byte	0x5f4
 3480 0702 BC020000 		.4byte	.LLST8
 3481 0706 23       		.uleb128 0x23
 3482 0707 E9050000 		.4byte	0x5e9
 3483 070b CF020000 		.4byte	.LLST9
 3484 070f 24       		.uleb128 0x24
 3485 0710 00000000 		.4byte	.Ldebug_ranges0+0
 3486 0714 25       		.uleb128 0x25
 3487 0715 0A060000 		.4byte	0x60a
 3488 0719 FC020000 		.4byte	.LLST10
 3489 071d 25       		.uleb128 0x25
 3490 071e 14060000 		.4byte	0x614
 3491 0722 1C030000 		.4byte	.LLST11
 3492 0726 00       		.byte	0
 3493 0727 00       		.byte	0
 3494 0728 26       		.uleb128 0x26
 3495 0729 2E000000 		.4byte	.LVL3
 3496 072d 3C150000 		.4byte	0x153c
 3497 0731 00       		.byte	0
 3498 0732 20       		.uleb128 0x20
 3499 0733 5A000000 		.4byte	.LBB35
 3500 0737 2A000000 		.4byte	.LBE35-.LBB35
 3501 073b 5D070000 		.4byte	0x75d
 3502 073f 21       		.uleb128 0x21
 3503 0740 62697400 		.ascii	"bit\000"
 3504 0744 01       		.byte	0x1
 3505 0745 44       		.byte	0x44
 3506 0746 C4000000 		.4byte	0xc4
 3507 074a 47030000 		.4byte	.LLST12
 3508 074e 21       		.uleb128 0x21
 3509 074f 707800   		.ascii	"px\000"
 3510 0752 01       		.byte	0x1
 3511 0753 4A       		.byte	0x4a
 3512 0754 F0000000 		.4byte	0xf0
 3513 0758 5A030000 		.4byte	.LLST13
 3514 075c 00       		.byte	0
 3515 075d 20       		.uleb128 0x20
 3516 075e 8A000000 		.4byte	.LBB36
 3517 0762 2C000000 		.4byte	.LBE36-.LBB36
 3518 0766 88070000 		.4byte	0x788
 3519 076a 21       		.uleb128 0x21
 3520 076b 62697400 		.ascii	"bit\000"
 3521 076f 01       		.byte	0x1
 3522 0770 4F       		.byte	0x4f
 3523 0771 C4000000 		.4byte	0xc4
ARM GAS  C:\Users\strap\AppData\Local\Temp\ccvWLEyq.s 			page 88


 3524 0775 6D030000 		.4byte	.LLST14
 3525 0779 21       		.uleb128 0x21
 3526 077a 707800   		.ascii	"px\000"
 3527 077d 01       		.byte	0x1
 3528 077e 55       		.byte	0x55
 3529 077f F0000000 		.4byte	0xf0
 3530 0783 80030000 		.4byte	.LLST15
 3531 0787 00       		.byte	0
 3532 0788 20       		.uleb128 0x20
 3533 0789 BC000000 		.4byte	.LBB37
 3534 078d 32000000 		.4byte	.LBE37-.LBB37
 3535 0791 B3070000 		.4byte	0x7b3
 3536 0795 21       		.uleb128 0x21
 3537 0796 62697400 		.ascii	"bit\000"
 3538 079a 01       		.byte	0x1
 3539 079b 5A       		.byte	0x5a
 3540 079c C4000000 		.4byte	0xc4
 3541 07a0 93030000 		.4byte	.LLST16
 3542 07a4 21       		.uleb128 0x21
 3543 07a5 707800   		.ascii	"px\000"
 3544 07a8 01       		.byte	0x1
 3545 07a9 60       		.byte	0x60
 3546 07aa F0000000 		.4byte	0xf0
 3547 07ae A6030000 		.4byte	.LLST17
 3548 07b2 00       		.byte	0
 3549 07b3 27       		.uleb128 0x27
 3550 07b4 F4000000 		.4byte	.LBB38
 3551 07b8 14000000 		.4byte	.LBE38-.LBB38
 3552 07bc 21       		.uleb128 0x21
 3553 07bd 707800   		.ascii	"px\000"
 3554 07c0 01       		.byte	0x1
 3555 07c1 65       		.byte	0x65
 3556 07c2 F0000000 		.4byte	0xf0
 3557 07c6 B9030000 		.4byte	.LLST18
 3558 07ca 00       		.byte	0
 3559 07cb 00       		.byte	0
 3560 07cc 12       		.uleb128 0x12
 3561 07cd 04       		.byte	0x4
 3562 07ce 1D040000 		.4byte	0x41d
 3563 07d2 1B       		.uleb128 0x1b
 3564 07d3 8C080000 		.4byte	.LASF116
 3565 07d7 01       		.byte	0x1
 3566 07d8 77       		.byte	0x77
 3567 07d9 3F020000 		.4byte	0x23f
 3568 07dd 00000000 		.4byte	.LFB38
 3569 07e1 00010000 		.4byte	.LFE38-.LFB38
 3570 07e5 01       		.uleb128 0x1
 3571 07e6 9C       		.byte	0x9c
 3572 07e7 1E090000 		.4byte	0x91e
 3573 07eb 1C       		.uleb128 0x1c
 3574 07ec 64736300 		.ascii	"dsc\000"
 3575 07f0 01       		.byte	0x1
 3576 07f1 77       		.byte	0x77
 3577 07f2 CC070000 		.4byte	0x7cc
 3578 07f6 CC030000 		.4byte	.LLST19
 3579 07fa 1C       		.uleb128 0x1c
 3580 07fb 7800     		.ascii	"x\000"
ARM GAS  C:\Users\strap\AppData\Local\Temp\ccvWLEyq.s 			page 89


 3581 07fd 01       		.byte	0x1
 3582 07fe 77       		.byte	0x77
 3583 07ff FB000000 		.4byte	0xfb
 3584 0803 7C040000 		.4byte	.LLST20
 3585 0807 1C       		.uleb128 0x1c
 3586 0808 7900     		.ascii	"y\000"
 3587 080a 01       		.byte	0x1
 3588 080b 77       		.byte	0x77
 3589 080c FB000000 		.4byte	0xfb
 3590 0810 49050000 		.4byte	.LLST21
 3591 0814 1F       		.uleb128 0x1f
 3592 0815 68040000 		.4byte	.LASF114
 3593 0819 01       		.byte	0x1
 3594 081a 79       		.byte	0x79
 3595 081b D3050000 		.4byte	0x5d3
 3596 081f CE050000 		.4byte	.LLST22
 3597 0823 20       		.uleb128 0x20
 3598 0824 16000000 		.4byte	.LBB39
 3599 0828 14000000 		.4byte	.LBE39-.LBB39
 3600 082c 3F080000 		.4byte	0x83f
 3601 0830 21       		.uleb128 0x21
 3602 0831 707800   		.ascii	"px\000"
 3603 0834 01       		.byte	0x1
 3604 0835 7C       		.byte	0x7c
 3605 0836 F0000000 		.4byte	0xf0
 3606 083a E1050000 		.4byte	.LLST23
 3607 083e 00       		.byte	0
 3608 083f 28       		.uleb128 0x28
 3609 0840 18000000 		.4byte	.Ldebug_ranges0+0x18
 3610 0844 75080000 		.4byte	0x875
 3611 0848 21       		.uleb128 0x21
 3612 0849 62697400 		.ascii	"bit\000"
 3613 084d 01       		.byte	0x1
 3614 084e 80       		.byte	0x80
 3615 084f C4000000 		.4byte	0xc4
 3616 0853 01060000 		.4byte	.LLST24
 3617 0857 21       		.uleb128 0x21
 3618 0858 707800   		.ascii	"px\000"
 3619 085b 01       		.byte	0x1
 3620 085c 86       		.byte	0x86
 3621 085d F0000000 		.4byte	0xf0
 3622 0861 32060000 		.4byte	.LLST25
 3623 0865 1F       		.uleb128 0x1f
 3624 0866 36010000 		.4byte	.LASF117
 3625 086a 01       		.byte	0x1
 3626 086b 87       		.byte	0x87
 3627 086c C4000000 		.4byte	0xc4
 3628 0870 C5060000 		.4byte	.LLST26
 3629 0874 00       		.byte	0
 3630 0875 20       		.uleb128 0x20
 3631 0876 60000000 		.4byte	.LBB41
 3632 087a 38000000 		.4byte	.LBE41-.LBB41
 3633 087e BD080000 		.4byte	0x8bd
 3634 0882 1E       		.uleb128 0x1e
 3635 0883 06010000 		.4byte	.LASF118
 3636 0887 01       		.byte	0x1
 3637 0888 8B       		.byte	0x8b
ARM GAS  C:\Users\strap\AppData\Local\Temp\ccvWLEyq.s 			page 90


 3638 0889 2E090000 		.4byte	0x92e
 3639 088d 02       		.uleb128 0x2
 3640 088e 91       		.byte	0x91
 3641 088f 58       		.sleb128 -40
 3642 0890 21       		.uleb128 0x21
 3643 0891 62697400 		.ascii	"bit\000"
 3644 0895 01       		.byte	0x1
 3645 0896 8D       		.byte	0x8d
 3646 0897 C4000000 		.4byte	0xc4
 3647 089b E3060000 		.4byte	.LLST27
 3648 089f 21       		.uleb128 0x21
 3649 08a0 707800   		.ascii	"px\000"
 3650 08a3 01       		.byte	0x1
 3651 08a4 93       		.byte	0x93
 3652 08a5 F0000000 		.4byte	0xf0
 3653 08a9 07070000 		.4byte	.LLST28
 3654 08ad 1F       		.uleb128 0x1f
 3655 08ae 36010000 		.4byte	.LASF117
 3656 08b2 01       		.byte	0x1
 3657 08b3 94       		.byte	0x94
 3658 08b4 C4000000 		.4byte	0xc4
 3659 08b8 3A070000 		.4byte	.LLST29
 3660 08bc 00       		.byte	0
 3661 08bd 20       		.uleb128 0x20
 3662 08be 9C000000 		.4byte	.LBB42
 3663 08c2 44000000 		.4byte	.LBE42-.LBB42
 3664 08c6 05090000 		.4byte	0x905
 3665 08ca 1E       		.uleb128 0x1e
 3666 08cb 06010000 		.4byte	.LASF118
 3667 08cf 01       		.byte	0x1
 3668 08d0 98       		.byte	0x98
 3669 08d1 43090000 		.4byte	0x943
 3670 08d5 02       		.uleb128 0x2
 3671 08d6 91       		.byte	0x91
 3672 08d7 58       		.sleb128 -40
 3673 08d8 21       		.uleb128 0x21
 3674 08d9 62697400 		.ascii	"bit\000"
 3675 08dd 01       		.byte	0x1
 3676 08de 9C       		.byte	0x9c
 3677 08df C4000000 		.4byte	0xc4
 3678 08e3 7D070000 		.4byte	.LLST30
 3679 08e7 21       		.uleb128 0x21
 3680 08e8 707800   		.ascii	"px\000"
 3681 08eb 01       		.byte	0x1
 3682 08ec A2       		.byte	0xa2
 3683 08ed F0000000 		.4byte	0xf0
 3684 08f1 A1070000 		.4byte	.LLST31
 3685 08f5 1F       		.uleb128 0x1f
 3686 08f6 36010000 		.4byte	.LASF117
 3687 08fa 01       		.byte	0x1
 3688 08fb A3       		.byte	0xa3
 3689 08fc C4000000 		.4byte	0xc4
 3690 0900 D4070000 		.4byte	.LLST32
 3691 0904 00       		.byte	0
 3692 0905 27       		.uleb128 0x27
 3693 0906 E4000000 		.4byte	.LBB43
 3694 090a 0E000000 		.4byte	.LBE43-.LBB43
ARM GAS  C:\Users\strap\AppData\Local\Temp\ccvWLEyq.s 			page 91


 3695 090e 21       		.uleb128 0x21
 3696 090f 707800   		.ascii	"px\000"
 3697 0912 01       		.byte	0x1
 3698 0913 A7       		.byte	0xa7
 3699 0914 F0000000 		.4byte	0xf0
 3700 0918 15080000 		.4byte	.LLST33
 3701 091c 00       		.byte	0
 3702 091d 00       		.byte	0
 3703 091e 29       		.uleb128 0x29
 3704 091f 18040000 		.4byte	0x418
 3705 0923 2E090000 		.4byte	0x92e
 3706 0927 2A       		.uleb128 0x2a
 3707 0928 B4000000 		.4byte	0xb4
 3708 092c 03       		.byte	0x3
 3709 092d 00       		.byte	0
 3710 092e 13       		.uleb128 0x13
 3711 092f 1E090000 		.4byte	0x91e
 3712 0933 29       		.uleb128 0x29
 3713 0934 18040000 		.4byte	0x418
 3714 0938 43090000 		.4byte	0x943
 3715 093c 2A       		.uleb128 0x2a
 3716 093d B4000000 		.4byte	0xb4
 3717 0941 0F       		.byte	0xf
 3718 0942 00       		.byte	0
 3719 0943 13       		.uleb128 0x13
 3720 0944 33090000 		.4byte	0x933
 3721 0948 2B       		.uleb128 0x2b
 3722 0949 6D060000 		.4byte	.LASF119
 3723 094d 01       		.byte	0x1
 3724 094e B6       		.byte	0xb6
 3725 094f 00000000 		.4byte	.LFB39
 3726 0953 00010000 		.4byte	.LFE39-.LFB39
 3727 0957 01       		.uleb128 0x1
 3728 0958 9C       		.byte	0x9c
 3729 0959 700A0000 		.4byte	0xa70
 3730 095d 1C       		.uleb128 0x1c
 3731 095e 64736300 		.ascii	"dsc\000"
 3732 0962 01       		.byte	0x1
 3733 0963 B6       		.byte	0xb6
 3734 0964 CC070000 		.4byte	0x7cc
 3735 0968 28080000 		.4byte	.LLST34
 3736 096c 1C       		.uleb128 0x1c
 3737 096d 7800     		.ascii	"x\000"
 3738 096f 01       		.byte	0x1
 3739 0970 B6       		.byte	0xb6
 3740 0971 FB000000 		.4byte	0xfb
 3741 0975 AA080000 		.4byte	.LLST35
 3742 0979 1C       		.uleb128 0x1c
 3743 097a 7900     		.ascii	"y\000"
 3744 097c 01       		.byte	0x1
 3745 097d B6       		.byte	0xb6
 3746 097e FB000000 		.4byte	0xfb
 3747 0982 32090000 		.4byte	.LLST36
 3748 0986 1C       		.uleb128 0x1c
 3749 0987 6F706100 		.ascii	"opa\000"
 3750 098b 01       		.byte	0x1
 3751 098c B6       		.byte	0xb6
ARM GAS  C:\Users\strap\AppData\Local\Temp\ccvWLEyq.s 			page 92


 3752 098d 3F020000 		.4byte	0x23f
 3753 0991 A9090000 		.4byte	.LLST37
 3754 0995 1E       		.uleb128 0x1e
 3755 0996 68040000 		.4byte	.LASF114
 3756 099a 01       		.byte	0x1
 3757 099b B8       		.byte	0xb8
 3758 099c D3050000 		.4byte	0x5d3
 3759 09a0 01       		.uleb128 0x1
 3760 09a1 55       		.byte	0x55
 3761 09a2 20       		.uleb128 0x20
 3762 09a3 18000000 		.4byte	.LBB45
 3763 09a7 22000000 		.4byte	.LBE45-.LBB45
 3764 09ab D6090000 		.4byte	0x9d6
 3765 09af 1F       		.uleb128 0x1f
 3766 09b0 B2000000 		.4byte	.LASF109
 3767 09b4 01       		.byte	0x1
 3768 09b5 BB       		.byte	0xbb
 3769 09b6 C4000000 		.4byte	0xc4
 3770 09ba 170A0000 		.4byte	.LLST38
 3771 09be 21       		.uleb128 0x21
 3772 09bf 707800   		.ascii	"px\000"
 3773 09c2 01       		.byte	0x1
 3774 09c3 BC       		.byte	0xbc
 3775 09c4 F0000000 		.4byte	0xf0
 3776 09c8 2A0A0000 		.4byte	.LLST39
 3777 09cc 26       		.uleb128 0x26
 3778 09cd 22000000 		.4byte	.LVL89
 3779 09d1 3C150000 		.4byte	0x153c
 3780 09d5 00       		.byte	0
 3781 09d6 20       		.uleb128 0x20
 3782 09d7 42000000 		.4byte	.LBB46
 3783 09db 30000000 		.4byte	.LBE46-.LBB46
 3784 09df 010A0000 		.4byte	0xa01
 3785 09e3 21       		.uleb128 0x21
 3786 09e4 62697400 		.ascii	"bit\000"
 3787 09e8 01       		.byte	0x1
 3788 09e9 C1       		.byte	0xc1
 3789 09ea C4000000 		.4byte	0xc4
 3790 09ee 420A0000 		.4byte	.LLST40
 3791 09f2 21       		.uleb128 0x21
 3792 09f3 707800   		.ascii	"px\000"
 3793 09f6 01       		.byte	0x1
 3794 09f7 C7       		.byte	0xc7
 3795 09f8 F0000000 		.4byte	0xf0
 3796 09fc 550A0000 		.4byte	.LLST41
 3797 0a00 00       		.byte	0
 3798 0a01 20       		.uleb128 0x20
 3799 0a02 7A000000 		.4byte	.LBB47
 3800 0a06 32000000 		.4byte	.LBE47-.LBB47
 3801 0a0a 2C0A0000 		.4byte	0xa2c
 3802 0a0e 21       		.uleb128 0x21
 3803 0a0f 62697400 		.ascii	"bit\000"
 3804 0a13 01       		.byte	0x1
 3805 0a14 CD       		.byte	0xcd
 3806 0a15 C4000000 		.4byte	0xc4
 3807 0a19 680A0000 		.4byte	.LLST42
 3808 0a1d 21       		.uleb128 0x21
ARM GAS  C:\Users\strap\AppData\Local\Temp\ccvWLEyq.s 			page 93


 3809 0a1e 707800   		.ascii	"px\000"
 3810 0a21 01       		.byte	0x1
 3811 0a22 D3       		.byte	0xd3
 3812 0a23 F0000000 		.4byte	0xf0
 3813 0a27 7B0A0000 		.4byte	.LLST43
 3814 0a2b 00       		.byte	0
 3815 0a2c 20       		.uleb128 0x20
 3816 0a2d B4000000 		.4byte	.LBB48
 3817 0a31 34000000 		.4byte	.LBE48-.LBB48
 3818 0a35 570A0000 		.4byte	0xa57
 3819 0a39 21       		.uleb128 0x21
 3820 0a3a 62697400 		.ascii	"bit\000"
 3821 0a3e 01       		.byte	0x1
 3822 0a3f D9       		.byte	0xd9
 3823 0a40 C4000000 		.4byte	0xc4
 3824 0a44 8E0A0000 		.4byte	.LLST44
 3825 0a48 21       		.uleb128 0x21
 3826 0a49 707800   		.ascii	"px\000"
 3827 0a4c 01       		.byte	0x1
 3828 0a4d DF       		.byte	0xdf
 3829 0a4e F0000000 		.4byte	0xf0
 3830 0a52 A10A0000 		.4byte	.LLST45
 3831 0a56 00       		.byte	0
 3832 0a57 27       		.uleb128 0x27
 3833 0a58 F0000000 		.4byte	.LBB49
 3834 0a5c 10000000 		.4byte	.LBE49-.LBB49
 3835 0a60 21       		.uleb128 0x21
 3836 0a61 707800   		.ascii	"px\000"
 3837 0a64 01       		.byte	0x1
 3838 0a65 E4       		.byte	0xe4
 3839 0a66 F0000000 		.4byte	0xf0
 3840 0a6a B40A0000 		.4byte	.LLST46
 3841 0a6e 00       		.byte	0
 3842 0a6f 00       		.byte	0
 3843 0a70 2B       		.uleb128 0x2b
 3844 0a71 CF020000 		.4byte	.LASF120
 3845 0a75 01       		.byte	0x1
 3846 0a76 F1       		.byte	0xf1
 3847 0a77 00000000 		.4byte	.LFB40
 3848 0a7b 6C010000 		.4byte	.LFE40-.LFB40
 3849 0a7f 01       		.uleb128 0x1
 3850 0a80 9C       		.byte	0x9c
 3851 0a81 680C0000 		.4byte	0xc68
 3852 0a85 1C       		.uleb128 0x1c
 3853 0a86 64736300 		.ascii	"dsc\000"
 3854 0a8a 01       		.byte	0x1
 3855 0a8b F1       		.byte	0xf1
 3856 0a8c CC070000 		.4byte	0x7cc
 3857 0a90 C70A0000 		.4byte	.LLST47
 3858 0a94 1C       		.uleb128 0x1c
 3859 0a95 7800     		.ascii	"x\000"
 3860 0a97 01       		.byte	0x1
 3861 0a98 F1       		.byte	0xf1
 3862 0a99 FB000000 		.4byte	0xfb
 3863 0a9d 530B0000 		.4byte	.LLST48
 3864 0aa1 1C       		.uleb128 0x1c
 3865 0aa2 7900     		.ascii	"y\000"
ARM GAS  C:\Users\strap\AppData\Local\Temp\ccvWLEyq.s 			page 94


 3866 0aa4 01       		.byte	0x1
 3867 0aa5 F1       		.byte	0xf1
 3868 0aa6 FB000000 		.4byte	0xfb
 3869 0aaa E60B0000 		.4byte	.LLST49
 3870 0aae 2C       		.uleb128 0x2c
 3871 0aaf 6300     		.ascii	"c\000"
 3872 0ab1 01       		.byte	0x1
 3873 0ab2 F1       		.byte	0xf1
 3874 0ab3 33020000 		.4byte	0x233
 3875 0ab7 02       		.uleb128 0x2
 3876 0ab8 91       		.byte	0x91
 3877 0ab9 64       		.sleb128 -28
 3878 0aba 1F       		.uleb128 0x1f
 3879 0abb 68040000 		.4byte	.LASF114
 3880 0abf 01       		.byte	0x1
 3881 0ac0 F3       		.byte	0xf3
 3882 0ac1 D3050000 		.4byte	0x5d3
 3883 0ac5 840C0000 		.4byte	.LLST50
 3884 0ac9 20       		.uleb128 0x20
 3885 0aca 1E000000 		.4byte	.LBB50
 3886 0ace 30000000 		.4byte	.LBE50-.LBB50
 3887 0ad2 480B0000 		.4byte	0xb48
 3888 0ad6 1F       		.uleb128 0x1f
 3889 0ad7 B2000000 		.4byte	.LASF109
 3890 0adb 01       		.byte	0x1
 3891 0adc F6       		.byte	0xf6
 3892 0add C4000000 		.4byte	0xc4
 3893 0ae1 E70C0000 		.4byte	.LLST51
 3894 0ae5 21       		.uleb128 0x21
 3895 0ae6 707800   		.ascii	"px\000"
 3896 0ae9 01       		.byte	0x1
 3897 0aea F7       		.byte	0xf7
 3898 0aeb F0000000 		.4byte	0xf0
 3899 0aef FA0C0000 		.4byte	.LLST52
 3900 0af3 2D       		.uleb128 0x2d
 3901 0af4 D9050000 		.4byte	0x5d9
 3902 0af8 3A000000 		.4byte	.LBB51
 3903 0afc 14000000 		.4byte	.LBE51-.LBB51
 3904 0b00 01       		.byte	0x1
 3905 0b01 F8       		.byte	0xf8
 3906 0b02 3E0B0000 		.4byte	0xb3e
 3907 0b06 23       		.uleb128 0x23
 3908 0b07 FF050000 		.4byte	0x5ff
 3909 0b0b 2F0D0000 		.4byte	.LLST53
 3910 0b0f 23       		.uleb128 0x23
 3911 0b10 F4050000 		.4byte	0x5f4
 3912 0b14 420D0000 		.4byte	.LLST54
 3913 0b18 23       		.uleb128 0x23
 3914 0b19 E9050000 		.4byte	0x5e9
 3915 0b1d 6F0D0000 		.4byte	.LLST55
 3916 0b21 27       		.uleb128 0x27
 3917 0b22 3A000000 		.4byte	.LBB52
 3918 0b26 14000000 		.4byte	.LBE52-.LBB52
 3919 0b2a 25       		.uleb128 0x25
 3920 0b2b 0A060000 		.4byte	0x60a
 3921 0b2f 820D0000 		.4byte	.LLST56
 3922 0b33 25       		.uleb128 0x25
ARM GAS  C:\Users\strap\AppData\Local\Temp\ccvWLEyq.s 			page 95


 3923 0b34 14060000 		.4byte	0x614
 3924 0b38 950D0000 		.4byte	.LLST57
 3925 0b3c 00       		.byte	0
 3926 0b3d 00       		.byte	0
 3927 0b3e 26       		.uleb128 0x26
 3928 0b3f 28000000 		.4byte	.LVL121
 3929 0b43 3C150000 		.4byte	0x153c
 3930 0b47 00       		.byte	0
 3931 0b48 20       		.uleb128 0x20
 3932 0b49 52000000 		.4byte	.LBB53
 3933 0b4d 32000000 		.4byte	.LBE53-.LBB53
 3934 0b51 C70B0000 		.4byte	0xbc7
 3935 0b55 1F       		.uleb128 0x1f
 3936 0b56 B2000000 		.4byte	.LASF109
 3937 0b5a 01       		.byte	0x1
 3938 0b5b FB       		.byte	0xfb
 3939 0b5c C4000000 		.4byte	0xc4
 3940 0b60 CD0D0000 		.4byte	.LLST58
 3941 0b64 21       		.uleb128 0x21
 3942 0b65 707800   		.ascii	"px\000"
 3943 0b68 01       		.byte	0x1
 3944 0b69 FC       		.byte	0xfc
 3945 0b6a F0000000 		.4byte	0xf0
 3946 0b6e ED0D0000 		.4byte	.LLST59
 3947 0b72 2D       		.uleb128 0x2d
 3948 0b73 D9050000 		.4byte	0x5d9
 3949 0b77 70000000 		.4byte	.LBB54
 3950 0b7b 14000000 		.4byte	.LBE54-.LBB54
 3951 0b7f 01       		.byte	0x1
 3952 0b80 FD       		.byte	0xfd
 3953 0b81 BD0B0000 		.4byte	0xbbd
 3954 0b85 23       		.uleb128 0x23
 3955 0b86 FF050000 		.4byte	0x5ff
 3956 0b8a 3F0E0000 		.4byte	.LLST60
 3957 0b8e 23       		.uleb128 0x23
 3958 0b8f F4050000 		.4byte	0x5f4
 3959 0b93 520E0000 		.4byte	.LLST61
 3960 0b97 23       		.uleb128 0x23
 3961 0b98 E9050000 		.4byte	0x5e9
 3962 0b9c 7F0E0000 		.4byte	.LLST62
 3963 0ba0 27       		.uleb128 0x27
 3964 0ba1 70000000 		.4byte	.LBB55
 3965 0ba5 14000000 		.4byte	.LBE55-.LBB55
 3966 0ba9 25       		.uleb128 0x25
 3967 0baa 0A060000 		.4byte	0x60a
 3968 0bae 920E0000 		.4byte	.LLST63
 3969 0bb2 25       		.uleb128 0x25
 3970 0bb3 14060000 		.4byte	0x614
 3971 0bb7 A50E0000 		.4byte	.LLST64
 3972 0bbb 00       		.byte	0
 3973 0bbc 00       		.byte	0
 3974 0bbd 26       		.uleb128 0x26
 3975 0bbe 5C000000 		.4byte	.LVL132
 3976 0bc2 3C150000 		.4byte	0x153c
 3977 0bc6 00       		.byte	0
 3978 0bc7 20       		.uleb128 0x20
 3979 0bc8 88000000 		.4byte	.LBB56
ARM GAS  C:\Users\strap\AppData\Local\Temp\ccvWLEyq.s 			page 96


 3980 0bcc 3C000000 		.4byte	.LBE56-.LBB56
 3981 0bd0 F40B0000 		.4byte	0xbf4
 3982 0bd4 2E       		.uleb128 0x2e
 3983 0bd5 62697400 		.ascii	"bit\000"
 3984 0bd9 01       		.byte	0x1
 3985 0bda 0201     		.2byte	0x102
 3986 0bdc C4000000 		.4byte	0xc4
 3987 0be0 DD0E0000 		.4byte	.LLST65
 3988 0be4 2E       		.uleb128 0x2e
 3989 0be5 707800   		.ascii	"px\000"
 3990 0be8 01       		.byte	0x1
 3991 0be9 0801     		.2byte	0x108
 3992 0beb F0000000 		.4byte	0xf0
 3993 0bef F00E0000 		.4byte	.LLST66
 3994 0bf3 00       		.byte	0
 3995 0bf4 20       		.uleb128 0x20
 3996 0bf5 CA000000 		.4byte	.LBB57
 3997 0bf9 3E000000 		.4byte	.LBE57-.LBB57
 3998 0bfd 210C0000 		.4byte	0xc21
 3999 0c01 2E       		.uleb128 0x2e
 4000 0c02 62697400 		.ascii	"bit\000"
 4001 0c06 01       		.byte	0x1
 4002 0c07 0E01     		.2byte	0x10e
 4003 0c09 C4000000 		.4byte	0xc4
 4004 0c0d 030F0000 		.4byte	.LLST67
 4005 0c11 2E       		.uleb128 0x2e
 4006 0c12 707800   		.ascii	"px\000"
 4007 0c15 01       		.byte	0x1
 4008 0c16 1401     		.2byte	0x114
 4009 0c18 F0000000 		.4byte	0xf0
 4010 0c1c 160F0000 		.4byte	.LLST68
 4011 0c20 00       		.byte	0
 4012 0c21 20       		.uleb128 0x20
 4013 0c22 0E010000 		.4byte	.LBB58
 4014 0c26 40000000 		.4byte	.LBE58-.LBB58
 4015 0c2a 4E0C0000 		.4byte	0xc4e
 4016 0c2e 2E       		.uleb128 0x2e
 4017 0c2f 62697400 		.ascii	"bit\000"
 4018 0c33 01       		.byte	0x1
 4019 0c34 1B01     		.2byte	0x11b
 4020 0c36 C4000000 		.4byte	0xc4
 4021 0c3a 290F0000 		.4byte	.LLST69
 4022 0c3e 2E       		.uleb128 0x2e
 4023 0c3f 707800   		.ascii	"px\000"
 4024 0c42 01       		.byte	0x1
 4025 0c43 2101     		.2byte	0x121
 4026 0c45 F0000000 		.4byte	0xf0
 4027 0c49 3C0F0000 		.4byte	.LLST70
 4028 0c4d 00       		.byte	0
 4029 0c4e 27       		.uleb128 0x27
 4030 0c4f 54010000 		.4byte	.LBB59
 4031 0c53 14000000 		.4byte	.LBE59-.LBB59
 4032 0c57 2E       		.uleb128 0x2e
 4033 0c58 707800   		.ascii	"px\000"
 4034 0c5b 01       		.byte	0x1
 4035 0c5c 2701     		.2byte	0x127
 4036 0c5e F0000000 		.4byte	0xf0
ARM GAS  C:\Users\strap\AppData\Local\Temp\ccvWLEyq.s 			page 97


 4037 0c62 4F0F0000 		.4byte	.LLST71
 4038 0c66 00       		.byte	0
 4039 0c67 00       		.byte	0
 4040 0c68 2F       		.uleb128 0x2f
 4041 0c69 E4000000 		.4byte	.LASF121
 4042 0c6d 01       		.byte	0x1
 4043 0c6e 3601     		.2byte	0x136
 4044 0c70 00000000 		.4byte	.LFB41
 4045 0c74 94000000 		.4byte	.LFE41-.LFB41
 4046 0c78 01       		.uleb128 0x1
 4047 0c79 9C       		.byte	0x9c
 4048 0c7a 400D0000 		.4byte	0xd40
 4049 0c7e 30       		.uleb128 0x30
 4050 0c7f 64736300 		.ascii	"dsc\000"
 4051 0c83 01       		.byte	0x1
 4052 0c84 3601     		.2byte	0x136
 4053 0c86 CC070000 		.4byte	0x7cc
 4054 0c8a 700F0000 		.4byte	.LLST72
 4055 0c8e 30       		.uleb128 0x30
 4056 0c8f 696400   		.ascii	"id\000"
 4057 0c92 01       		.byte	0x1
 4058 0c93 3601     		.2byte	0x136
 4059 0c95 C4000000 		.4byte	0xc4
 4060 0c99 910F0000 		.4byte	.LLST73
 4061 0c9d 30       		.uleb128 0x30
 4062 0c9e 6300     		.ascii	"c\000"
 4063 0ca0 01       		.byte	0x1
 4064 0ca1 3601     		.2byte	0x136
 4065 0ca3 33020000 		.4byte	0x233
 4066 0ca7 B20F0000 		.4byte	.LLST74
 4067 0cab 31       		.uleb128 0x31
 4068 0cac 63333200 		.ascii	"c32\000"
 4069 0cb0 01       		.byte	0x1
 4070 0cb1 3E01     		.2byte	0x13e
 4071 0cb3 27020000 		.4byte	0x227
 4072 0cb7 02       		.uleb128 0x2
 4073 0cb8 91       		.byte	0x91
 4074 0cb9 74       		.sleb128 -12
 4075 0cba 2E       		.uleb128 0x2e
 4076 0cbb 62756600 		.ascii	"buf\000"
 4077 0cbf 01       		.byte	0x1
 4078 0cc0 4001     		.2byte	0x140
 4079 0cc2 D3050000 		.4byte	0x5d3
 4080 0cc6 D00F0000 		.4byte	.LLST75
 4081 0cca 32       		.uleb128 0x32
 4082 0ccb 1F060000 		.4byte	0x61f
 4083 0ccf 26000000 		.4byte	.LBB60
 4084 0cd3 4A000000 		.4byte	.LBE60-.LBB60
 4085 0cd7 01       		.byte	0x1
 4086 0cd8 3F01     		.2byte	0x13f
 4087 0cda F70C0000 		.4byte	0xcf7
 4088 0cde 33       		.uleb128 0x33
 4089 0cdf 30060000 		.4byte	0x630
 4090 0ce3 27       		.uleb128 0x27
 4091 0ce4 26000000 		.4byte	.LBB61
 4092 0ce8 4A000000 		.4byte	.LBE61-.LBB61
 4093 0cec 25       		.uleb128 0x25
ARM GAS  C:\Users\strap\AppData\Local\Temp\ccvWLEyq.s 			page 98


 4094 0ced 3C060000 		.4byte	0x63c
 4095 0cf1 EF0F0000 		.4byte	.LLST76
 4096 0cf5 00       		.byte	0
 4097 0cf6 00       		.byte	0
 4098 0cf7 34       		.uleb128 0x34
 4099 0cf8 D9050000 		.4byte	0x5d9
 4100 0cfc 80000000 		.4byte	.LBB62
 4101 0d00 0E000000 		.4byte	.LBE62-.LBB62
 4102 0d04 01       		.byte	0x1
 4103 0d05 4101     		.2byte	0x141
 4104 0d07 23       		.uleb128 0x23
 4105 0d08 FF050000 		.4byte	0x5ff
 4106 0d0c 0D100000 		.4byte	.LLST77
 4107 0d10 23       		.uleb128 0x23
 4108 0d11 F4050000 		.4byte	0x5f4
 4109 0d15 2C100000 		.4byte	.LLST78
 4110 0d19 23       		.uleb128 0x23
 4111 0d1a E9050000 		.4byte	0x5e9
 4112 0d1e 41100000 		.4byte	.LLST79
 4113 0d22 27       		.uleb128 0x27
 4114 0d23 80000000 		.4byte	.LBB63
 4115 0d27 0E000000 		.4byte	.LBE63-.LBB63
 4116 0d2b 25       		.uleb128 0x25
 4117 0d2c 0A060000 		.4byte	0x60a
 4118 0d30 54100000 		.4byte	.LLST80
 4119 0d34 25       		.uleb128 0x25
 4120 0d35 14060000 		.4byte	0x614
 4121 0d39 67100000 		.4byte	.LLST81
 4122 0d3d 00       		.byte	0
 4123 0d3e 00       		.byte	0
 4124 0d3f 00       		.byte	0
 4125 0d40 2F       		.uleb128 0x2f
 4126 0d41 D3080000 		.4byte	.LASF122
 4127 0d45 01       		.byte	0x1
 4128 0d46 6F01     		.2byte	0x16f
 4129 0d48 00000000 		.4byte	.LFB43
 4130 0d4c 18000000 		.4byte	.LFE43-.LFB43
 4131 0d50 01       		.uleb128 0x1
 4132 0d51 9C       		.byte	0x9c
 4133 0d52 800D0000 		.4byte	0xd80
 4134 0d56 30       		.uleb128 0x30
 4135 0d57 64736300 		.ascii	"dsc\000"
 4136 0d5b 01       		.byte	0x1
 4137 0d5c 6F01     		.2byte	0x16f
 4138 0d5e CC070000 		.4byte	0x7cc
 4139 0d62 92100000 		.4byte	.LLST82
 4140 0d66 26       		.uleb128 0x26
 4141 0d67 0E000000 		.4byte	.LVL182
 4142 0d6b 47150000 		.4byte	0x1547
 4143 0d6f 35       		.uleb128 0x35
 4144 0d70 14000000 		.4byte	.LVL183
 4145 0d74 47150000 		.4byte	0x1547
 4146 0d78 36       		.uleb128 0x36
 4147 0d79 01       		.uleb128 0x1
 4148 0d7a 50       		.byte	0x50
 4149 0d7b 02       		.uleb128 0x2
 4150 0d7c 74       		.byte	0x74
ARM GAS  C:\Users\strap\AppData\Local\Temp\ccvWLEyq.s 			page 99


 4151 0d7d 00       		.sleb128 0
 4152 0d7e 00       		.byte	0
 4153 0d7f 00       		.byte	0
 4154 0d80 37       		.uleb128 0x37
 4155 0d81 8F020000 		.4byte	.LASF123
 4156 0d85 01       		.byte	0x1
 4157 0d86 8001     		.2byte	0x180
 4158 0d88 F0000000 		.4byte	0xf0
 4159 0d8c 00000000 		.4byte	.LFB44
 4160 0d90 A8000000 		.4byte	.LFE44-.LFB44
 4161 0d94 01       		.uleb128 0x1
 4162 0d95 9C       		.byte	0x9c
 4163 0d96 C60D0000 		.4byte	0xdc6
 4164 0d9a 30       		.uleb128 0x30
 4165 0d9b 7700     		.ascii	"w\000"
 4166 0d9d 01       		.byte	0x1
 4167 0d9e 8001     		.2byte	0x180
 4168 0da0 FB000000 		.4byte	0xfb
 4169 0da4 BB100000 		.4byte	.LLST83
 4170 0da8 30       		.uleb128 0x30
 4171 0da9 6800     		.ascii	"h\000"
 4172 0dab 01       		.byte	0x1
 4173 0dac 8001     		.2byte	0x180
 4174 0dae FB000000 		.4byte	0xfb
 4175 0db2 EF110000 		.4byte	.LLST84
 4176 0db6 30       		.uleb128 0x30
 4177 0db7 636600   		.ascii	"cf\000"
 4178 0dba 01       		.byte	0x1
 4179 0dbb 8001     		.2byte	0x180
 4180 0dbd 80030000 		.4byte	0x380
 4181 0dc1 66120000 		.4byte	.LLST85
 4182 0dc5 00       		.byte	0
 4183 0dc6 37       		.uleb128 0x37
 4184 0dc7 01050000 		.4byte	.LASF124
 4185 0dcb 01       		.byte	0x1
 4186 0dcc 4B01     		.2byte	0x14b
 4187 0dce CC070000 		.4byte	0x7cc
 4188 0dd2 00000000 		.4byte	.LFB42
 4189 0dd6 6E000000 		.4byte	.LFE42-.LFB42
 4190 0dda 01       		.uleb128 0x1
 4191 0ddb 9C       		.byte	0x9c
 4192 0ddc A20E0000 		.4byte	0xea2
 4193 0de0 30       		.uleb128 0x30
 4194 0de1 7700     		.ascii	"w\000"
 4195 0de3 01       		.byte	0x1
 4196 0de4 4B01     		.2byte	0x14b
 4197 0de6 FB000000 		.4byte	0xfb
 4198 0dea 87120000 		.4byte	.LLST86
 4199 0dee 30       		.uleb128 0x30
 4200 0def 6800     		.ascii	"h\000"
 4201 0df1 01       		.byte	0x1
 4202 0df2 4B01     		.2byte	0x14b
 4203 0df4 FB000000 		.4byte	0xfb
 4204 0df8 A8120000 		.4byte	.LLST87
 4205 0dfc 30       		.uleb128 0x30
 4206 0dfd 636600   		.ascii	"cf\000"
 4207 0e00 01       		.byte	0x1
ARM GAS  C:\Users\strap\AppData\Local\Temp\ccvWLEyq.s 			page 100


 4208 0e01 4B01     		.2byte	0x14b
 4209 0e03 80030000 		.4byte	0x380
 4210 0e07 C9120000 		.4byte	.LLST88
 4211 0e0b 2E       		.uleb128 0x2e
 4212 0e0c 64736300 		.ascii	"dsc\000"
 4213 0e10 01       		.byte	0x1
 4214 0e11 4E01     		.2byte	0x14e
 4215 0e13 CC070000 		.4byte	0x7cc
 4216 0e17 EA120000 		.4byte	.LLST89
 4217 0e1b 38       		.uleb128 0x38
 4218 0e1c 0E000000 		.4byte	.LVL216
 4219 0e20 52150000 		.4byte	0x1552
 4220 0e24 2E0E0000 		.4byte	0xe2e
 4221 0e28 36       		.uleb128 0x36
 4222 0e29 01       		.uleb128 0x1
 4223 0e2a 50       		.byte	0x50
 4224 0e2b 01       		.uleb128 0x1
 4225 0e2c 3C       		.byte	0x3c
 4226 0e2d 00       		.byte	0
 4227 0e2e 38       		.uleb128 0x38
 4228 0e2f 18000000 		.4byte	.LVL217
 4229 0e33 5D150000 		.4byte	0x155d
 4230 0e37 470E0000 		.4byte	0xe47
 4231 0e3b 36       		.uleb128 0x36
 4232 0e3c 01       		.uleb128 0x1
 4233 0e3d 50       		.byte	0x50
 4234 0e3e 02       		.uleb128 0x2
 4235 0e3f 74       		.byte	0x74
 4236 0e40 00       		.sleb128 0
 4237 0e41 36       		.uleb128 0x36
 4238 0e42 01       		.uleb128 0x1
 4239 0e43 51       		.byte	0x51
 4240 0e44 01       		.uleb128 0x1
 4241 0e45 3C       		.byte	0x3c
 4242 0e46 00       		.byte	0
 4243 0e47 38       		.uleb128 0x38
 4244 0e48 22000000 		.4byte	.LVL218
 4245 0e4c 800D0000 		.4byte	0xd80
 4246 0e50 670E0000 		.4byte	0xe67
 4247 0e54 36       		.uleb128 0x36
 4248 0e55 01       		.uleb128 0x1
 4249 0e56 50       		.byte	0x50
 4250 0e57 02       		.uleb128 0x2
 4251 0e58 77       		.byte	0x77
 4252 0e59 00       		.sleb128 0
 4253 0e5a 36       		.uleb128 0x36
 4254 0e5b 01       		.uleb128 0x1
 4255 0e5c 51       		.byte	0x51
 4256 0e5d 02       		.uleb128 0x2
 4257 0e5e 76       		.byte	0x76
 4258 0e5f 00       		.sleb128 0
 4259 0e60 36       		.uleb128 0x36
 4260 0e61 01       		.uleb128 0x1
 4261 0e62 52       		.byte	0x52
 4262 0e63 02       		.uleb128 0x2
 4263 0e64 75       		.byte	0x75
 4264 0e65 00       		.sleb128 0
ARM GAS  C:\Users\strap\AppData\Local\Temp\ccvWLEyq.s 			page 101


 4265 0e66 00       		.byte	0
 4266 0e67 38       		.uleb128 0x38
 4267 0e68 2C000000 		.4byte	.LVL219
 4268 0e6c 47150000 		.4byte	0x1547
 4269 0e70 7B0E0000 		.4byte	0xe7b
 4270 0e74 36       		.uleb128 0x36
 4271 0e75 01       		.uleb128 0x1
 4272 0e76 50       		.byte	0x50
 4273 0e77 02       		.uleb128 0x2
 4274 0e78 74       		.byte	0x74
 4275 0e79 00       		.sleb128 0
 4276 0e7a 00       		.byte	0
 4277 0e7b 26       		.uleb128 0x26
 4278 0e7c 34000000 		.4byte	.LVL221
 4279 0e80 52150000 		.4byte	0x1552
 4280 0e84 38       		.uleb128 0x38
 4281 0e85 3E000000 		.4byte	.LVL222
 4282 0e89 47150000 		.4byte	0x1547
 4283 0e8d 980E0000 		.4byte	0xe98
 4284 0e91 36       		.uleb128 0x36
 4285 0e92 01       		.uleb128 0x1
 4286 0e93 50       		.byte	0x50
 4287 0e94 02       		.uleb128 0x2
 4288 0e95 74       		.byte	0x74
 4289 0e96 00       		.sleb128 0
 4290 0e97 00       		.byte	0
 4291 0e98 26       		.uleb128 0x26
 4292 0e99 48000000 		.4byte	.LVL224
 4293 0e9d 5D150000 		.4byte	0x155d
 4294 0ea1 00       		.byte	0
 4295 0ea2 2F       		.uleb128 0x2f
 4296 0ea3 05030000 		.4byte	.LASF125
 4297 0ea7 01       		.byte	0x1
 4298 0ea8 A401     		.2byte	0x1a4
 4299 0eaa 00000000 		.4byte	.LFB45
 4300 0eae 24010000 		.4byte	.LFE45-.LFB45
 4301 0eb2 01       		.uleb128 0x1
 4302 0eb3 9C       		.byte	0x9c
 4303 0eb4 9F0F0000 		.4byte	0xf9f
 4304 0eb8 30       		.uleb128 0x30
 4305 0eb9 64736300 		.ascii	"dsc\000"
 4306 0ebd 01       		.byte	0x1
 4307 0ebe A401     		.2byte	0x1a4
 4308 0ec0 9F0F0000 		.4byte	0xf9f
 4309 0ec4 13130000 		.4byte	.LLST90
 4310 0ec8 39       		.uleb128 0x39
 4311 0ec9 E7020000 		.4byte	.LASF126
 4312 0ecd 01       		.byte	0x1
 4313 0ece A901     		.2byte	0x1a9
 4314 0ed0 E5000000 		.4byte	0xe5
 4315 0ed4 3F130000 		.4byte	.LLST91
 4316 0ed8 39       		.uleb128 0x39
 4317 0ed9 C4050000 		.4byte	.LASF127
 4318 0edd 01       		.byte	0x1
 4319 0ede AA01     		.2byte	0x1aa
 4320 0ee0 E5000000 		.4byte	0xe5
 4321 0ee4 5F130000 		.4byte	.LLST92
ARM GAS  C:\Users\strap\AppData\Local\Temp\ccvWLEyq.s 			page 102


 4322 0ee8 39       		.uleb128 0x39
 4323 0ee9 5E040000 		.4byte	.LASF128
 4324 0eed 01       		.byte	0x1
 4325 0eee AB01     		.2byte	0x1ab
 4326 0ef0 E5000000 		.4byte	0xe5
 4327 0ef4 72130000 		.4byte	.LLST93
 4328 0ef8 2E       		.uleb128 0x2e
 4329 0ef9 733100   		.ascii	"s1\000"
 4330 0efc 01       		.byte	0x1
 4331 0efd AD01     		.2byte	0x1ad
 4332 0eff E5000000 		.4byte	0xe5
 4333 0f03 85130000 		.4byte	.LLST94
 4334 0f07 2E       		.uleb128 0x2e
 4335 0f08 733200   		.ascii	"s2\000"
 4336 0f0b 01       		.byte	0x1
 4337 0f0c AE01     		.2byte	0x1ae
 4338 0f0e E5000000 		.4byte	0xe5
 4339 0f12 A3130000 		.4byte	.LLST95
 4340 0f16 2E       		.uleb128 0x2e
 4341 0f17 633100   		.ascii	"c1\000"
 4342 0f1a 01       		.byte	0x1
 4343 0f1b B001     		.2byte	0x1b0
 4344 0f1d E5000000 		.4byte	0xe5
 4345 0f21 C1130000 		.4byte	.LLST96
 4346 0f25 2E       		.uleb128 0x2e
 4347 0f26 633200   		.ascii	"c2\000"
 4348 0f29 01       		.byte	0x1
 4349 0f2a B101     		.2byte	0x1b1
 4350 0f2c E5000000 		.4byte	0xe5
 4351 0f30 DF130000 		.4byte	.LLST97
 4352 0f34 38       		.uleb128 0x38
 4353 0f35 3E000000 		.4byte	.LVL232
 4354 0f39 68150000 		.4byte	0x1568
 4355 0f3d 490F0000 		.4byte	0xf49
 4356 0f41 36       		.uleb128 0x36
 4357 0f42 01       		.uleb128 0x1
 4358 0f43 50       		.byte	0x50
 4359 0f44 03       		.uleb128 0x3
 4360 0f45 75       		.byte	0x75
 4361 0f46 00       		.sleb128 0
 4362 0f47 1F       		.byte	0x1f
 4363 0f48 00       		.byte	0
 4364 0f49 38       		.uleb128 0x38
 4365 0f4a 4E000000 		.4byte	.LVL236
 4366 0f4e 68150000 		.4byte	0x1568
 4367 0f52 5E0F0000 		.4byte	0xf5e
 4368 0f56 36       		.uleb128 0x36
 4369 0f57 01       		.uleb128 0x1
 4370 0f58 50       		.byte	0x50
 4371 0f59 03       		.uleb128 0x3
 4372 0f5a 79       		.byte	0x79
 4373 0f5b 00       		.sleb128 0
 4374 0f5c 1F       		.byte	0x1f
 4375 0f5d 00       		.byte	0
 4376 0f5e 38       		.uleb128 0x38
 4377 0f5f 5A000000 		.4byte	.LVL239
 4378 0f63 68150000 		.4byte	0x1568
ARM GAS  C:\Users\strap\AppData\Local\Temp\ccvWLEyq.s 			page 103


 4379 0f67 750F0000 		.4byte	0xf75
 4380 0f6b 36       		.uleb128 0x36
 4381 0f6c 01       		.uleb128 0x1
 4382 0f6d 50       		.byte	0x50
 4383 0f6e 05       		.uleb128 0x5
 4384 0f6f 08       		.byte	0x8
 4385 0f70 5A       		.byte	0x5a
 4386 0f71 75       		.byte	0x75
 4387 0f72 00       		.sleb128 0
 4388 0f73 1C       		.byte	0x1c
 4389 0f74 00       		.byte	0
 4390 0f75 38       		.uleb128 0x38
 4391 0f76 66000000 		.4byte	.LVL242
 4392 0f7a 68150000 		.4byte	0x1568
 4393 0f7e 8C0F0000 		.4byte	0xf8c
 4394 0f82 36       		.uleb128 0x36
 4395 0f83 01       		.uleb128 0x1
 4396 0f84 50       		.byte	0x50
 4397 0f85 05       		.uleb128 0x5
 4398 0f86 08       		.byte	0x8
 4399 0f87 5A       		.byte	0x5a
 4400 0f88 79       		.byte	0x79
 4401 0f89 00       		.sleb128 0
 4402 0f8a 1C       		.byte	0x1c
 4403 0f8b 00       		.byte	0
 4404 0f8c 26       		.uleb128 0x26
 4405 0f8d 9C000000 		.4byte	.LVL244
 4406 0f91 73150000 		.4byte	0x1573
 4407 0f95 26       		.uleb128 0x26
 4408 0f96 AE000000 		.4byte	.LVL245
 4409 0f9a 7E150000 		.4byte	0x157e
 4410 0f9e 00       		.byte	0
 4411 0f9f 12       		.uleb128 0x12
 4412 0fa0 04       		.byte	0x4
 4413 0fa1 C8050000 		.4byte	0x5c8
 4414 0fa5 2F       		.uleb128 0x2f
 4415 0fa6 12050000 		.4byte	.LASF129
 4416 0faa 01       		.byte	0x1
 4417 0fab DC01     		.2byte	0x1dc
 4418 0fad 00000000 		.4byte	.LFB46
 4419 0fb1 F0010000 		.4byte	.LFE46-.LFB46
 4420 0fb5 01       		.uleb128 0x1
 4421 0fb6 9C       		.byte	0x9c
 4422 0fb7 3C110000 		.4byte	0x113c
 4423 0fbb 30       		.uleb128 0x30
 4424 0fbc 72657300 		.ascii	"res\000"
 4425 0fc0 01       		.byte	0x1
 4426 0fc1 DC01     		.2byte	0x1dc
 4427 0fc3 3C110000 		.4byte	0x113c
 4428 0fc7 F2130000 		.4byte	.LLST98
 4429 0fcb 30       		.uleb128 0x30
 4430 0fcc 7700     		.ascii	"w\000"
 4431 0fce 01       		.byte	0x1
 4432 0fcf DC01     		.2byte	0x1dc
 4433 0fd1 FB000000 		.4byte	0xfb
 4434 0fd5 1E140000 		.4byte	.LLST99
 4435 0fd9 30       		.uleb128 0x30
ARM GAS  C:\Users\strap\AppData\Local\Temp\ccvWLEyq.s 			page 104


 4436 0fda 6800     		.ascii	"h\000"
 4437 0fdc 01       		.byte	0x1
 4438 0fdd DC01     		.2byte	0x1dc
 4439 0fdf FB000000 		.4byte	0xfb
 4440 0fe3 58140000 		.4byte	.LLST100
 4441 0fe7 3A       		.uleb128 0x3a
 4442 0fe8 8D000000 		.4byte	.LASF93
 4443 0fec 01       		.byte	0x1
 4444 0fed DC01     		.2byte	0x1dc
 4445 0fef CF000000 		.4byte	0xcf
 4446 0ff3 AB140000 		.4byte	.LLST101
 4447 0ff7 3A       		.uleb128 0x3a
 4448 0ff8 AD000000 		.4byte	.LASF94
 4449 0ffc 01       		.byte	0x1
 4450 0ffd DC01     		.2byte	0x1dc
 4451 0fff DA000000 		.4byte	0xda
 4452 1003 D7140000 		.4byte	.LLST102
 4453 1007 3A       		.uleb128 0x3a
 4454 1008 DE000000 		.4byte	.LASF130
 4455 100c 01       		.byte	0x1
 4456 100d DD01     		.2byte	0x1dd
 4457 100f 42110000 		.4byte	0x1142
 4458 1013 03150000 		.4byte	.LLST103
 4459 1017 39       		.uleb128 0x39
 4460 1018 E7020000 		.4byte	.LASF126
 4461 101c 01       		.byte	0x1
 4462 101d F601     		.2byte	0x1f6
 4463 101f E5000000 		.4byte	0xe5
 4464 1023 2F150000 		.4byte	.LLST104
 4465 1027 39       		.uleb128 0x39
 4466 1028 C4050000 		.4byte	.LASF127
 4467 102c 01       		.byte	0x1
 4468 102d F701     		.2byte	0x1f7
 4469 102f E5000000 		.4byte	0xe5
 4470 1033 4F150000 		.4byte	.LLST105
 4471 1037 39       		.uleb128 0x39
 4472 1038 5E040000 		.4byte	.LASF128
 4473 103c 01       		.byte	0x1
 4474 103d F801     		.2byte	0x1f8
 4475 103f E5000000 		.4byte	0xe5
 4476 1043 62150000 		.4byte	.LLST106
 4477 1047 2E       		.uleb128 0x2e
 4478 1048 733100   		.ascii	"s1\000"
 4479 104b 01       		.byte	0x1
 4480 104c FA01     		.2byte	0x1fa
 4481 104e E5000000 		.4byte	0xe5
 4482 1052 75150000 		.4byte	.LLST107
 4483 1056 2E       		.uleb128 0x2e
 4484 1057 733200   		.ascii	"s2\000"
 4485 105a 01       		.byte	0x1
 4486 105b FB01     		.2byte	0x1fb
 4487 105d E5000000 		.4byte	0xe5
 4488 1061 93150000 		.4byte	.LLST108
 4489 1065 2E       		.uleb128 0x2e
 4490 1066 633100   		.ascii	"c1\000"
 4491 1069 01       		.byte	0x1
 4492 106a FD01     		.2byte	0x1fd
ARM GAS  C:\Users\strap\AppData\Local\Temp\ccvWLEyq.s 			page 105


 4493 106c E5000000 		.4byte	0xe5
 4494 1070 B1150000 		.4byte	.LLST109
 4495 1074 2E       		.uleb128 0x2e
 4496 1075 633200   		.ascii	"c2\000"
 4497 1078 01       		.byte	0x1
 4498 1079 FE01     		.2byte	0x1fe
 4499 107b E5000000 		.4byte	0xe5
 4500 107f CF150000 		.4byte	.LLST110
 4501 1083 39       		.uleb128 0x39
 4502 1084 7E030000 		.4byte	.LASF101
 4503 1088 01       		.byte	0x1
 4504 1089 0002     		.2byte	0x200
 4505 108b E5000000 		.4byte	0xe5
 4506 108f E2150000 		.4byte	.LLST111
 4507 1093 39       		.uleb128 0x39
 4508 1094 74010000 		.4byte	.LASF102
 4509 1098 01       		.byte	0x1
 4510 1099 0102     		.2byte	0x201
 4511 109b E5000000 		.4byte	0xe5
 4512 109f F5150000 		.4byte	.LLST112
 4513 10a3 1A       		.uleb128 0x1a
 4514 10a4 6C7400   		.ascii	"lt\000"
 4515 10a7 01       		.byte	0x1
 4516 10a8 0702     		.2byte	0x207
 4517 10aa 68020000 		.4byte	0x268
 4518 10ae 1A       		.uleb128 0x1a
 4519 10af 727400   		.ascii	"rt\000"
 4520 10b2 01       		.byte	0x1
 4521 10b3 0802     		.2byte	0x208
 4522 10b5 68020000 		.4byte	0x268
 4523 10b9 1A       		.uleb128 0x1a
 4524 10ba 6C6200   		.ascii	"lb\000"
 4525 10bd 01       		.byte	0x1
 4526 10be 0902     		.2byte	0x209
 4527 10c0 68020000 		.4byte	0x268
 4528 10c4 1A       		.uleb128 0x1a
 4529 10c5 726200   		.ascii	"rb\000"
 4530 10c8 01       		.byte	0x1
 4531 10c9 0A02     		.2byte	0x20a
 4532 10cb 68020000 		.4byte	0x268
 4533 10cf 2E       		.uleb128 0x2e
 4534 10d0 787400   		.ascii	"xt\000"
 4535 10d3 01       		.byte	0x1
 4536 10d4 0C02     		.2byte	0x20c
 4537 10d6 FB000000 		.4byte	0xfb
 4538 10da 08160000 		.4byte	.LLST113
 4539 10de 2E       		.uleb128 0x2e
 4540 10df 797400   		.ascii	"yt\000"
 4541 10e2 01       		.byte	0x1
 4542 10e3 0D02     		.2byte	0x20d
 4543 10e5 FB000000 		.4byte	0xfb
 4544 10e9 56160000 		.4byte	.LLST114
 4545 10ed 38       		.uleb128 0x38
 4546 10ee B6000000 		.4byte	.LVL259
 4547 10f2 68150000 		.4byte	0x1568
 4548 10f6 01110000 		.4byte	0x1101
 4549 10fa 36       		.uleb128 0x36
ARM GAS  C:\Users\strap\AppData\Local\Temp\ccvWLEyq.s 			page 106


 4550 10fb 01       		.uleb128 0x1
 4551 10fc 50       		.byte	0x50
 4552 10fd 02       		.uleb128 0x2
 4553 10fe 77       		.byte	0x77
 4554 10ff 00       		.sleb128 0
 4555 1100 00       		.byte	0
 4556 1101 38       		.uleb128 0x38
 4557 1102 C0000000 		.4byte	.LVL262
 4558 1106 68150000 		.4byte	0x1568
 4559 110a 15110000 		.4byte	0x1115
 4560 110e 36       		.uleb128 0x36
 4561 110f 01       		.uleb128 0x1
 4562 1110 50       		.byte	0x50
 4563 1111 02       		.uleb128 0x2
 4564 1112 7A       		.byte	0x7a
 4565 1113 00       		.sleb128 0
 4566 1114 00       		.byte	0
 4567 1115 38       		.uleb128 0x38
 4568 1116 CC000000 		.4byte	.LVL265
 4569 111a 68150000 		.4byte	0x1568
 4570 111e 2A110000 		.4byte	0x112a
 4571 1122 36       		.uleb128 0x36
 4572 1123 01       		.uleb128 0x1
 4573 1124 50       		.byte	0x50
 4574 1125 03       		.uleb128 0x3
 4575 1126 77       		.byte	0x77
 4576 1127 DA00     		.sleb128 90
 4577 1129 00       		.byte	0
 4578 112a 35       		.uleb128 0x35
 4579 112b D8000000 		.4byte	.LVL268
 4580 112f 68150000 		.4byte	0x1568
 4581 1133 36       		.uleb128 0x36
 4582 1134 01       		.uleb128 0x1
 4583 1135 50       		.byte	0x50
 4584 1136 03       		.uleb128 0x3
 4585 1137 7A       		.byte	0x7a
 4586 1138 DA00     		.sleb128 90
 4587 113a 00       		.byte	0
 4588 113b 00       		.byte	0
 4589 113c 12       		.uleb128 0x12
 4590 113d 04       		.byte	0x4
 4591 113e A8020000 		.4byte	0x2a8
 4592 1142 12       		.uleb128 0x12
 4593 1143 04       		.byte	0x4
 4594 1144 48110000 		.4byte	0x1148
 4595 1148 13       		.uleb128 0x13
 4596 1149 68020000 		.4byte	0x268
 4597 114d 18       		.uleb128 0x18
 4598 114e 6B080000 		.4byte	.LASF131
 4599 1152 03       		.byte	0x3
 4600 1153 CA01     		.2byte	0x1ca
 4601 1155 33020000 		.4byte	0x233
 4602 1159 03       		.byte	0x3
 4603 115a 8D110000 		.4byte	0x118d
 4604 115e 3B       		.uleb128 0x3b
 4605 115f 633100   		.ascii	"c1\000"
 4606 1162 03       		.byte	0x3
ARM GAS  C:\Users\strap\AppData\Local\Temp\ccvWLEyq.s 			page 107


 4607 1163 CA01     		.2byte	0x1ca
 4608 1165 33020000 		.4byte	0x233
 4609 1169 3B       		.uleb128 0x3b
 4610 116a 633200   		.ascii	"c2\000"
 4611 116d 03       		.byte	0x3
 4612 116e CA01     		.2byte	0x1ca
 4613 1170 33020000 		.4byte	0x233
 4614 1174 3B       		.uleb128 0x3b
 4615 1175 6D697800 		.ascii	"mix\000"
 4616 1179 03       		.byte	0x3
 4617 117a CA01     		.2byte	0x1ca
 4618 117c C4000000 		.4byte	0xc4
 4619 1180 1A       		.uleb128 0x1a
 4620 1181 72657400 		.ascii	"ret\000"
 4621 1185 03       		.byte	0x3
 4622 1186 CC01     		.2byte	0x1cc
 4623 1188 33020000 		.4byte	0x233
 4624 118c 00       		.byte	0
 4625 118d 37       		.uleb128 0x37
 4626 118e B0030000 		.4byte	.LASF132
 4627 1192 01       		.byte	0x1
 4628 1193 3702     		.2byte	0x237
 4629 1195 AF040000 		.4byte	0x4af
 4630 1199 00000000 		.4byte	.LFB47
 4631 119d 64040000 		.4byte	.LFE47-.LFB47
 4632 11a1 01       		.uleb128 0x1
 4633 11a2 9C       		.byte	0x9c
 4634 11a3 3C150000 		.4byte	0x153c
 4635 11a7 30       		.uleb128 0x30
 4636 11a8 64736300 		.ascii	"dsc\000"
 4637 11ac 01       		.byte	0x1
 4638 11ad 3702     		.2byte	0x237
 4639 11af 9F0F0000 		.4byte	0xf9f
 4640 11b3 80160000 		.4byte	.LLST115
 4641 11b7 39       		.uleb128 0x39
 4642 11b8 5A000000 		.4byte	.LASF133
 4643 11bc 01       		.byte	0x1
 4644 11bd 3902     		.2byte	0x239
 4645 11bf 12040000 		.4byte	0x412
 4646 11c3 B4160000 		.4byte	.LLST116
 4647 11c7 39       		.uleb128 0x39
 4648 11c8 8A010000 		.4byte	.LASF134
 4649 11cc 01       		.byte	0x1
 4650 11cd 3C02     		.2byte	0x23c
 4651 11cf 25000000 		.4byte	0x25
 4652 11d3 DE160000 		.4byte	.LLST117
 4653 11d7 39       		.uleb128 0x39
 4654 11d8 62080000 		.4byte	.LASF135
 4655 11dc 01       		.byte	0x1
 4656 11dd 3D02     		.2byte	0x23d
 4657 11df 25000000 		.4byte	0x25
 4658 11e3 80170000 		.4byte	.LLST118
 4659 11e7 2E       		.uleb128 0x2e
 4660 11e8 786E00   		.ascii	"xn\000"
 4661 11eb 01       		.byte	0x1
 4662 11ec 3E02     		.2byte	0x23e
 4663 11ee E5000000 		.4byte	0xe5
ARM GAS  C:\Users\strap\AppData\Local\Temp\ccvWLEyq.s 			page 108


 4664 11f2 22180000 		.4byte	.LLST119
 4665 11f6 2E       		.uleb128 0x2e
 4666 11f7 787200   		.ascii	"xr\000"
 4667 11fa 01       		.byte	0x1
 4668 11fb 3F02     		.2byte	0x23f
 4669 11fd 3F020000 		.4byte	0x23f
 4670 1201 7A180000 		.4byte	.LLST120
 4671 1205 2E       		.uleb128 0x2e
 4672 1206 796E00   		.ascii	"yn\000"
 4673 1209 01       		.byte	0x1
 4674 120a 5002     		.2byte	0x250
 4675 120c E5000000 		.4byte	0xe5
 4676 1210 B9180000 		.4byte	.LLST121
 4677 1214 2E       		.uleb128 0x2e
 4678 1215 797200   		.ascii	"yr\000"
 4679 1218 01       		.byte	0x1
 4680 1219 5102     		.2byte	0x251
 4681 121b 3F020000 		.4byte	0x23f
 4682 121f 11190000 		.4byte	.LLST122
 4683 1223 2E       		.uleb128 0x2e
 4684 1224 63303000 		.ascii	"c00\000"
 4685 1228 01       		.byte	0x1
 4686 1229 6402     		.2byte	0x264
 4687 122b 33020000 		.4byte	0x233
 4688 122f 45190000 		.4byte	.LLST123
 4689 1233 31       		.uleb128 0x31
 4690 1234 63303100 		.ascii	"c01\000"
 4691 1238 01       		.byte	0x1
 4692 1239 6502     		.2byte	0x265
 4693 123b 33020000 		.4byte	0x233
 4694 123f 02       		.uleb128 0x2
 4695 1240 91       		.byte	0x91
 4696 1241 54       		.sleb128 -44
 4697 1242 31       		.uleb128 0x31
 4698 1243 63313000 		.ascii	"c10\000"
 4699 1247 01       		.byte	0x1
 4700 1248 6602     		.2byte	0x266
 4701 124a 33020000 		.4byte	0x233
 4702 124e 02       		.uleb128 0x2
 4703 124f 91       		.byte	0x91
 4704 1250 50       		.sleb128 -48
 4705 1251 31       		.uleb128 0x31
 4706 1252 63313100 		.ascii	"c11\000"
 4707 1256 01       		.byte	0x1
 4708 1257 6702     		.2byte	0x267
 4709 1259 33020000 		.4byte	0x233
 4710 125d 02       		.uleb128 0x2
 4711 125e 91       		.byte	0x91
 4712 125f 4C       		.sleb128 -52
 4713 1260 31       		.uleb128 0x31
 4714 1261 61303000 		.ascii	"a00\000"
 4715 1265 01       		.byte	0x1
 4716 1266 6902     		.2byte	0x269
 4717 1268 3F020000 		.4byte	0x23f
 4718 126c 01       		.uleb128 0x1
 4719 126d 5A       		.byte	0x5a
 4720 126e 2E       		.uleb128 0x2e
ARM GAS  C:\Users\strap\AppData\Local\Temp\ccvWLEyq.s 			page 109


 4721 126f 61313000 		.ascii	"a10\000"
 4722 1273 01       		.byte	0x1
 4723 1274 6A02     		.2byte	0x26a
 4724 1276 3F020000 		.4byte	0x23f
 4725 127a 58190000 		.4byte	.LLST124
 4726 127e 2E       		.uleb128 0x2e
 4727 127f 61303100 		.ascii	"a01\000"
 4728 1283 01       		.byte	0x1
 4729 1284 6B02     		.2byte	0x26b
 4730 1286 3F020000 		.4byte	0x23f
 4731 128a A5190000 		.4byte	.LLST125
 4732 128e 2E       		.uleb128 0x2e
 4733 128f 61313100 		.ascii	"a11\000"
 4734 1293 01       		.byte	0x1
 4735 1294 6C02     		.2byte	0x26c
 4736 1296 3F020000 		.4byte	0x23f
 4737 129a FD190000 		.4byte	.LLST126
 4738 129e 2E       		.uleb128 0x2e
 4739 129f 78723000 		.ascii	"xr0\000"
 4740 12a3 01       		.byte	0x1
 4741 12a4 8502     		.2byte	0x285
 4742 12a6 3F020000 		.4byte	0x23f
 4743 12aa 551A0000 		.4byte	.LLST127
 4744 12ae 2E       		.uleb128 0x2e
 4745 12af 78723100 		.ascii	"xr1\000"
 4746 12b3 01       		.byte	0x1
 4747 12b4 8602     		.2byte	0x286
 4748 12b6 3F020000 		.4byte	0x23f
 4749 12ba 941A0000 		.4byte	.LLST128
 4750 12be 2E       		.uleb128 0x2e
 4751 12bf 633000   		.ascii	"c0\000"
 4752 12c2 01       		.byte	0x1
 4753 12c3 9A02     		.2byte	0x29a
 4754 12c5 33020000 		.4byte	0x233
 4755 12c9 B21A0000 		.4byte	.LLST129
 4756 12cd 2E       		.uleb128 0x2e
 4757 12ce 633100   		.ascii	"c1\000"
 4758 12d1 01       		.byte	0x1
 4759 12d2 9F02     		.2byte	0x29f
 4760 12d4 33020000 		.4byte	0x233
 4761 12d8 D01A0000 		.4byte	.LLST130
 4762 12dc 3C       		.uleb128 0x3c
 4763 12dd D9050000 		.4byte	0x5d9
 4764 12e1 BE000000 		.4byte	.LBB77
 4765 12e5 30000000 		.4byte	.Ldebug_ranges0+0x30
 4766 12e9 01       		.byte	0x1
 4767 12ea 6F02     		.2byte	0x26f
 4768 12ec 24130000 		.4byte	0x1324
 4769 12f0 23       		.uleb128 0x23
 4770 12f1 FF050000 		.4byte	0x5ff
 4771 12f5 EE1A0000 		.4byte	.LLST131
 4772 12f9 23       		.uleb128 0x23
 4773 12fa F4050000 		.4byte	0x5f4
 4774 12fe 0D1B0000 		.4byte	.LLST132
 4775 1302 23       		.uleb128 0x23
 4776 1303 E9050000 		.4byte	0x5e9
 4777 1307 201B0000 		.4byte	.LLST133
ARM GAS  C:\Users\strap\AppData\Local\Temp\ccvWLEyq.s 			page 110


 4778 130b 24       		.uleb128 0x24
 4779 130c 30000000 		.4byte	.Ldebug_ranges0+0x30
 4780 1310 25       		.uleb128 0x25
 4781 1311 0A060000 		.4byte	0x60a
 4782 1315 4D1B0000 		.4byte	.LLST134
 4783 1319 25       		.uleb128 0x25
 4784 131a 14060000 		.4byte	0x614
 4785 131e 6D1B0000 		.4byte	.LLST135
 4786 1322 00       		.byte	0
 4787 1323 00       		.byte	0
 4788 1324 3C       		.uleb128 0x3c
 4789 1325 D9050000 		.4byte	0x5d9
 4790 1329 E6000000 		.4byte	.LBB81
 4791 132d 48000000 		.4byte	.Ldebug_ranges0+0x48
 4792 1331 01       		.byte	0x1
 4793 1332 7002     		.2byte	0x270
 4794 1334 6C130000 		.4byte	0x136c
 4795 1338 23       		.uleb128 0x23
 4796 1339 FF050000 		.4byte	0x5ff
 4797 133d 981B0000 		.4byte	.LLST136
 4798 1341 23       		.uleb128 0x23
 4799 1342 F4050000 		.4byte	0x5f4
 4800 1346 B71B0000 		.4byte	.LLST137
 4801 134a 23       		.uleb128 0x23
 4802 134b E9050000 		.4byte	0x5e9
 4803 134f CA1B0000 		.4byte	.LLST138
 4804 1353 24       		.uleb128 0x24
 4805 1354 48000000 		.4byte	.Ldebug_ranges0+0x48
 4806 1358 25       		.uleb128 0x25
 4807 1359 0A060000 		.4byte	0x60a
 4808 135d F71B0000 		.4byte	.LLST139
 4809 1361 25       		.uleb128 0x25
 4810 1362 14060000 		.4byte	0x614
 4811 1366 0A1C0000 		.4byte	.LLST140
 4812 136a 00       		.byte	0
 4813 136b 00       		.byte	0
 4814 136c 3C       		.uleb128 0x3c
 4815 136d D9050000 		.4byte	0x5d9
 4816 1371 14010000 		.4byte	.LBB85
 4817 1375 60000000 		.4byte	.Ldebug_ranges0+0x60
 4818 1379 01       		.byte	0x1
 4819 137a 7102     		.2byte	0x271
 4820 137c B4130000 		.4byte	0x13b4
 4821 1380 23       		.uleb128 0x23
 4822 1381 FF050000 		.4byte	0x5ff
 4823 1385 351C0000 		.4byte	.LLST141
 4824 1389 23       		.uleb128 0x23
 4825 138a F4050000 		.4byte	0x5f4
 4826 138e 541C0000 		.4byte	.LLST142
 4827 1392 23       		.uleb128 0x23
 4828 1393 E9050000 		.4byte	0x5e9
 4829 1397 671C0000 		.4byte	.LLST143
 4830 139b 24       		.uleb128 0x24
 4831 139c 60000000 		.4byte	.Ldebug_ranges0+0x60
 4832 13a0 25       		.uleb128 0x25
 4833 13a1 0A060000 		.4byte	0x60a
 4834 13a5 941C0000 		.4byte	.LLST144
ARM GAS  C:\Users\strap\AppData\Local\Temp\ccvWLEyq.s 			page 111


 4835 13a9 25       		.uleb128 0x25
 4836 13aa 14060000 		.4byte	0x614
 4837 13ae B21C0000 		.4byte	.LLST145
 4838 13b2 00       		.byte	0
 4839 13b3 00       		.byte	0
 4840 13b4 28       		.uleb128 0x28
 4841 13b5 78000000 		.4byte	.Ldebug_ranges0+0x78
 4842 13b9 DC130000 		.4byte	0x13dc
 4843 13bd 2E       		.uleb128 0x2e
 4844 13be 613000   		.ascii	"a0\000"
 4845 13c1 01       		.byte	0x1
 4846 13c2 8802     		.2byte	0x288
 4847 13c4 3F020000 		.4byte	0x23f
 4848 13c8 DD1C0000 		.4byte	.LLST146
 4849 13cc 2E       		.uleb128 0x2e
 4850 13cd 613100   		.ascii	"a1\000"
 4851 13d0 01       		.byte	0x1
 4852 13d1 8902     		.2byte	0x289
 4853 13d3 3F020000 		.4byte	0x23f
 4854 13d7 061D0000 		.4byte	.LLST147
 4855 13db 00       		.byte	0
 4856 13dc 32       		.uleb128 0x32
 4857 13dd 4D110000 		.4byte	0x114d
 4858 13e1 AE020000 		.4byte	.LBB92
 4859 13e5 80000000 		.4byte	.LBE92-.LBB92
 4860 13e9 01       		.byte	0x1
 4861 13ea 9D02     		.2byte	0x29d
 4862 13ec 1B140000 		.4byte	0x141b
 4863 13f0 23       		.uleb128 0x23
 4864 13f1 74110000 		.4byte	0x1174
 4865 13f5 6D1D0000 		.4byte	.LLST148
 4866 13f9 23       		.uleb128 0x23
 4867 13fa 69110000 		.4byte	0x1169
 4868 13fe 801D0000 		.4byte	.LLST149
 4869 1402 33       		.uleb128 0x33
 4870 1403 5E110000 		.4byte	0x115e
 4871 1407 27       		.uleb128 0x27
 4872 1408 AE020000 		.4byte	.LBB93
 4873 140c 80000000 		.4byte	.LBE93-.LBB93
 4874 1410 25       		.uleb128 0x25
 4875 1411 80110000 		.4byte	0x1180
 4876 1415 931D0000 		.4byte	.LLST150
 4877 1419 00       		.byte	0
 4878 141a 00       		.byte	0
 4879 141b 32       		.uleb128 0x32
 4880 141c 4D110000 		.4byte	0x114d
 4881 1420 48030000 		.4byte	.LBB94
 4882 1424 7E000000 		.4byte	.LBE94-.LBB94
 4883 1428 01       		.byte	0x1
 4884 1429 A202     		.2byte	0x2a2
 4885 142b 5E140000 		.4byte	0x145e
 4886 142f 23       		.uleb128 0x23
 4887 1430 74110000 		.4byte	0x1174
 4888 1434 BC1D0000 		.4byte	.LLST151
 4889 1438 23       		.uleb128 0x23
 4890 1439 69110000 		.4byte	0x1169
 4891 143d CF1D0000 		.4byte	.LLST152
ARM GAS  C:\Users\strap\AppData\Local\Temp\ccvWLEyq.s 			page 112


 4892 1441 23       		.uleb128 0x23
 4893 1442 5E110000 		.4byte	0x115e
 4894 1446 E21D0000 		.4byte	.LLST153
 4895 144a 27       		.uleb128 0x27
 4896 144b 48030000 		.4byte	.LBB95
 4897 144f 7E000000 		.4byte	.LBE95-.LBB95
 4898 1453 25       		.uleb128 0x25
 4899 1454 80110000 		.4byte	0x1180
 4900 1458 F51D0000 		.4byte	.LLST154
 4901 145c 00       		.byte	0
 4902 145d 00       		.byte	0
 4903 145e 32       		.uleb128 0x32
 4904 145f 4D110000 		.4byte	0x114d
 4905 1463 D8030000 		.4byte	.LBB96
 4906 1467 7E000000 		.4byte	.LBE96-.LBB96
 4907 146b 01       		.byte	0x1
 4908 146c A602     		.2byte	0x2a6
 4909 146e 99140000 		.4byte	0x1499
 4910 1472 23       		.uleb128 0x23
 4911 1473 74110000 		.4byte	0x1174
 4912 1477 1E1E0000 		.4byte	.LLST155
 4913 147b 33       		.uleb128 0x33
 4914 147c 69110000 		.4byte	0x1169
 4915 1480 33       		.uleb128 0x33
 4916 1481 5E110000 		.4byte	0x115e
 4917 1485 27       		.uleb128 0x27
 4918 1486 D8030000 		.4byte	.LBB97
 4919 148a 7E000000 		.4byte	.LBE97-.LBB97
 4920 148e 25       		.uleb128 0x25
 4921 148f 80110000 		.4byte	0x1180
 4922 1493 311E0000 		.4byte	.LLST156
 4923 1497 00       		.byte	0
 4924 1498 00       		.byte	0
 4925 1499 38       		.uleb128 0x38
 4926 149a 90010000 		.4byte	.LVL358
 4927 149e 49060000 		.4byte	0x649
 4928 14a2 AD140000 		.4byte	0x14ad
 4929 14a6 36       		.uleb128 0x36
 4930 14a7 01       		.uleb128 0x1
 4931 14a8 50       		.byte	0x50
 4932 14a9 02       		.uleb128 0x2
 4933 14aa 7B       		.byte	0x7b
 4934 14ab 00       		.sleb128 0
 4935 14ac 00       		.byte	0
 4936 14ad 38       		.uleb128 0x38
 4937 14ae AC010000 		.4byte	.LVL360
 4938 14b2 49060000 		.4byte	0x649
 4939 14b6 C1140000 		.4byte	0x14c1
 4940 14ba 36       		.uleb128 0x36
 4941 14bb 01       		.uleb128 0x1
 4942 14bc 50       		.byte	0x50
 4943 14bd 02       		.uleb128 0x2
 4944 14be 7B       		.byte	0x7b
 4945 14bf 00       		.sleb128 0
 4946 14c0 00       		.byte	0
 4947 14c1 38       		.uleb128 0x38
 4948 14c2 C8010000 		.4byte	.LVL361
ARM GAS  C:\Users\strap\AppData\Local\Temp\ccvWLEyq.s 			page 113


 4949 14c6 49060000 		.4byte	0x649
 4950 14ca D5140000 		.4byte	0x14d5
 4951 14ce 36       		.uleb128 0x36
 4952 14cf 01       		.uleb128 0x1
 4953 14d0 50       		.byte	0x50
 4954 14d1 02       		.uleb128 0x2
 4955 14d2 7B       		.byte	0x7b
 4956 14d3 00       		.sleb128 0
 4957 14d4 00       		.byte	0
 4958 14d5 38       		.uleb128 0x38
 4959 14d6 F8010000 		.4byte	.LVL362
 4960 14da D2070000 		.4byte	0x7d2
 4961 14de F7140000 		.4byte	0x14f7
 4962 14e2 36       		.uleb128 0x36
 4963 14e3 01       		.uleb128 0x1
 4964 14e4 50       		.byte	0x50
 4965 14e5 02       		.uleb128 0x2
 4966 14e6 7B       		.byte	0x7b
 4967 14e7 00       		.sleb128 0
 4968 14e8 36       		.uleb128 0x36
 4969 14e9 01       		.uleb128 0x1
 4970 14ea 51       		.byte	0x51
 4971 14eb 04       		.uleb128 0x4
 4972 14ec 91       		.byte	0x91
 4973 14ed 44       		.sleb128 -60
 4974 14ee 94       		.byte	0x94
 4975 14ef 02       		.byte	0x2
 4976 14f0 36       		.uleb128 0x36
 4977 14f1 01       		.uleb128 0x1
 4978 14f2 52       		.byte	0x52
 4979 14f3 02       		.uleb128 0x2
 4980 14f4 78       		.byte	0x78
 4981 14f5 00       		.sleb128 0
 4982 14f6 00       		.byte	0
 4983 14f7 38       		.uleb128 0x38
 4984 14f8 0A020000 		.4byte	.LVL364
 4985 14fc D2070000 		.4byte	0x7d2
 4986 1500 1B150000 		.4byte	0x151b
 4987 1504 36       		.uleb128 0x36
 4988 1505 01       		.uleb128 0x1
 4989 1506 50       		.byte	0x50
 4990 1507 04       		.uleb128 0x4
 4991 1508 91       		.byte	0x91
 4992 1509 BC7F     		.sleb128 -68
 4993 150b 06       		.byte	0x6
 4994 150c 36       		.uleb128 0x36
 4995 150d 01       		.uleb128 0x1
 4996 150e 51       		.byte	0x51
 4997 150f 04       		.uleb128 0x4
 4998 1510 91       		.byte	0x91
 4999 1511 40       		.sleb128 -64
 5000 1512 94       		.byte	0x94
 5001 1513 02       		.byte	0x2
 5002 1514 36       		.uleb128 0x36
 5003 1515 01       		.uleb128 0x1
 5004 1516 52       		.byte	0x52
 5005 1517 02       		.uleb128 0x2
ARM GAS  C:\Users\strap\AppData\Local\Temp\ccvWLEyq.s 			page 114


 5006 1518 79       		.byte	0x79
 5007 1519 00       		.sleb128 0
 5008 151a 00       		.byte	0
 5009 151b 35       		.uleb128 0x35
 5010 151c 16020000 		.4byte	.LVL366
 5011 1520 D2070000 		.4byte	0x7d2
 5012 1524 36       		.uleb128 0x36
 5013 1525 01       		.uleb128 0x1
 5014 1526 50       		.byte	0x50
 5015 1527 04       		.uleb128 0x4
 5016 1528 91       		.byte	0x91
 5017 1529 BC7F     		.sleb128 -68
 5018 152b 06       		.byte	0x6
 5019 152c 36       		.uleb128 0x36
 5020 152d 01       		.uleb128 0x1
 5021 152e 51       		.byte	0x51
 5022 152f 04       		.uleb128 0x4
 5023 1530 91       		.byte	0x91
 5024 1531 44       		.sleb128 -60
 5025 1532 94       		.byte	0x94
 5026 1533 02       		.byte	0x2
 5027 1534 36       		.uleb128 0x36
 5028 1535 01       		.uleb128 0x1
 5029 1536 52       		.byte	0x52
 5030 1537 02       		.uleb128 0x2
 5031 1538 79       		.byte	0x79
 5032 1539 00       		.sleb128 0
 5033 153a 00       		.byte	0
 5034 153b 00       		.byte	0
 5035 153c 3D       		.uleb128 0x3d
 5036 153d B5010000 		.4byte	.LASF136
 5037 1541 B5010000 		.4byte	.LASF136
 5038 1545 0A       		.byte	0xa
 5039 1546 4B       		.byte	0x4b
 5040 1547 3D       		.uleb128 0x3d
 5041 1548 9C010000 		.4byte	.LASF137
 5042 154c 9C010000 		.4byte	.LASF137
 5043 1550 02       		.byte	0x2
 5044 1551 58       		.byte	0x58
 5045 1552 3D       		.uleb128 0x3d
 5046 1553 00000000 		.4byte	.LASF138
 5047 1557 00000000 		.4byte	.LASF138
 5048 155b 02       		.byte	0x2
 5049 155c 52       		.byte	0x52
 5050 155d 3D       		.uleb128 0x3d
 5051 155e 33050000 		.4byte	.LASF139
 5052 1562 33050000 		.4byte	.LASF139
 5053 1566 02       		.byte	0x2
 5054 1567 F2       		.byte	0xf2
 5055 1568 3D       		.uleb128 0x3d
 5056 1569 53010000 		.4byte	.LASF140
 5057 156d 53010000 		.4byte	.LASF140
 5058 1571 0B       		.byte	0xb
 5059 1572 41       		.byte	0x41
 5060 1573 3D       		.uleb128 0x3d
 5061 1574 93000000 		.4byte	.LASF141
 5062 1578 93000000 		.4byte	.LASF141
ARM GAS  C:\Users\strap\AppData\Local\Temp\ccvWLEyq.s 			page 115


 5063 157c 0A       		.byte	0xa
 5064 157d 52       		.byte	0x52
 5065 157e 3D       		.uleb128 0x3d
 5066 157f 78080000 		.4byte	.LASF142
 5067 1583 78080000 		.4byte	.LASF142
 5068 1587 0A       		.byte	0xa
 5069 1588 59       		.byte	0x59
 5070 1589 00       		.byte	0
 5071              		.section	.debug_abbrev,"",%progbits
 5072              	.Ldebug_abbrev0:
 5073 0000 01       		.uleb128 0x1
 5074 0001 11       		.uleb128 0x11
 5075 0002 01       		.byte	0x1
 5076 0003 25       		.uleb128 0x25
 5077 0004 0E       		.uleb128 0xe
 5078 0005 13       		.uleb128 0x13
 5079 0006 0B       		.uleb128 0xb
 5080 0007 03       		.uleb128 0x3
 5081 0008 0E       		.uleb128 0xe
 5082 0009 1B       		.uleb128 0x1b
 5083 000a 0E       		.uleb128 0xe
 5084 000b 55       		.uleb128 0x55
 5085 000c 17       		.uleb128 0x17
 5086 000d 11       		.uleb128 0x11
 5087 000e 01       		.uleb128 0x1
 5088 000f 10       		.uleb128 0x10
 5089 0010 17       		.uleb128 0x17
 5090 0011 00       		.byte	0
 5091 0012 00       		.byte	0
 5092 0013 02       		.uleb128 0x2
 5093 0014 24       		.uleb128 0x24
 5094 0015 00       		.byte	0
 5095 0016 0B       		.uleb128 0xb
 5096 0017 0B       		.uleb128 0xb
 5097 0018 3E       		.uleb128 0x3e
 5098 0019 0B       		.uleb128 0xb
 5099 001a 03       		.uleb128 0x3
 5100 001b 08       		.uleb128 0x8
 5101 001c 00       		.byte	0
 5102 001d 00       		.byte	0
 5103 001e 03       		.uleb128 0x3
 5104 001f 16       		.uleb128 0x16
 5105 0020 00       		.byte	0
 5106 0021 03       		.uleb128 0x3
 5107 0022 0E       		.uleb128 0xe
 5108 0023 3A       		.uleb128 0x3a
 5109 0024 0B       		.uleb128 0xb
 5110 0025 3B       		.uleb128 0x3b
 5111 0026 0B       		.uleb128 0xb
 5112 0027 49       		.uleb128 0x49
 5113 0028 13       		.uleb128 0x13
 5114 0029 00       		.byte	0
 5115 002a 00       		.byte	0
 5116 002b 04       		.uleb128 0x4
 5117 002c 24       		.uleb128 0x24
 5118 002d 00       		.byte	0
 5119 002e 0B       		.uleb128 0xb
ARM GAS  C:\Users\strap\AppData\Local\Temp\ccvWLEyq.s 			page 116


 5120 002f 0B       		.uleb128 0xb
 5121 0030 3E       		.uleb128 0x3e
 5122 0031 0B       		.uleb128 0xb
 5123 0032 03       		.uleb128 0x3
 5124 0033 0E       		.uleb128 0xe
 5125 0034 00       		.byte	0
 5126 0035 00       		.byte	0
 5127 0036 05       		.uleb128 0x5
 5128 0037 0F       		.uleb128 0xf
 5129 0038 00       		.byte	0
 5130 0039 0B       		.uleb128 0xb
 5131 003a 0B       		.uleb128 0xb
 5132 003b 00       		.byte	0
 5133 003c 00       		.byte	0
 5134 003d 06       		.uleb128 0x6
 5135 003e 04       		.uleb128 0x4
 5136 003f 01       		.byte	0x1
 5137 0040 0B       		.uleb128 0xb
 5138 0041 0B       		.uleb128 0xb
 5139 0042 49       		.uleb128 0x49
 5140 0043 13       		.uleb128 0x13
 5141 0044 3A       		.uleb128 0x3a
 5142 0045 0B       		.uleb128 0xb
 5143 0046 3B       		.uleb128 0x3b
 5144 0047 0B       		.uleb128 0xb
 5145 0048 01       		.uleb128 0x1
 5146 0049 13       		.uleb128 0x13
 5147 004a 00       		.byte	0
 5148 004b 00       		.byte	0
 5149 004c 07       		.uleb128 0x7
 5150 004d 28       		.uleb128 0x28
 5151 004e 00       		.byte	0
 5152 004f 03       		.uleb128 0x3
 5153 0050 0E       		.uleb128 0xe
 5154 0051 1C       		.uleb128 0x1c
 5155 0052 0B       		.uleb128 0xb
 5156 0053 00       		.byte	0
 5157 0054 00       		.byte	0
 5158 0055 08       		.uleb128 0x8
 5159 0056 13       		.uleb128 0x13
 5160 0057 01       		.byte	0x1
 5161 0058 0B       		.uleb128 0xb
 5162 0059 0B       		.uleb128 0xb
 5163 005a 3A       		.uleb128 0x3a
 5164 005b 0B       		.uleb128 0xb
 5165 005c 3B       		.uleb128 0x3b
 5166 005d 0B       		.uleb128 0xb
 5167 005e 01       		.uleb128 0x1
 5168 005f 13       		.uleb128 0x13
 5169 0060 00       		.byte	0
 5170 0061 00       		.byte	0
 5171 0062 09       		.uleb128 0x9
 5172 0063 0D       		.uleb128 0xd
 5173 0064 00       		.byte	0
 5174 0065 03       		.uleb128 0x3
 5175 0066 0E       		.uleb128 0xe
 5176 0067 3A       		.uleb128 0x3a
ARM GAS  C:\Users\strap\AppData\Local\Temp\ccvWLEyq.s 			page 117


 5177 0068 0B       		.uleb128 0xb
 5178 0069 3B       		.uleb128 0x3b
 5179 006a 0B       		.uleb128 0xb
 5180 006b 49       		.uleb128 0x49
 5181 006c 13       		.uleb128 0x13
 5182 006d 0B       		.uleb128 0xb
 5183 006e 0B       		.uleb128 0xb
 5184 006f 0D       		.uleb128 0xd
 5185 0070 0B       		.uleb128 0xb
 5186 0071 0C       		.uleb128 0xc
 5187 0072 0B       		.uleb128 0xb
 5188 0073 38       		.uleb128 0x38
 5189 0074 0B       		.uleb128 0xb
 5190 0075 00       		.byte	0
 5191 0076 00       		.byte	0
 5192 0077 0A       		.uleb128 0xa
 5193 0078 0D       		.uleb128 0xd
 5194 0079 00       		.byte	0
 5195 007a 03       		.uleb128 0x3
 5196 007b 08       		.uleb128 0x8
 5197 007c 3A       		.uleb128 0x3a
 5198 007d 0B       		.uleb128 0xb
 5199 007e 3B       		.uleb128 0x3b
 5200 007f 0B       		.uleb128 0xb
 5201 0080 49       		.uleb128 0x49
 5202 0081 13       		.uleb128 0x13
 5203 0082 0B       		.uleb128 0xb
 5204 0083 0B       		.uleb128 0xb
 5205 0084 0D       		.uleb128 0xd
 5206 0085 0B       		.uleb128 0xb
 5207 0086 0C       		.uleb128 0xc
 5208 0087 0B       		.uleb128 0xb
 5209 0088 38       		.uleb128 0x38
 5210 0089 0B       		.uleb128 0xb
 5211 008a 00       		.byte	0
 5212 008b 00       		.byte	0
 5213 008c 0B       		.uleb128 0xb
 5214 008d 17       		.uleb128 0x17
 5215 008e 01       		.byte	0x1
 5216 008f 0B       		.uleb128 0xb
 5217 0090 0B       		.uleb128 0xb
 5218 0091 3A       		.uleb128 0x3a
 5219 0092 0B       		.uleb128 0xb
 5220 0093 3B       		.uleb128 0x3b
 5221 0094 0B       		.uleb128 0xb
 5222 0095 01       		.uleb128 0x1
 5223 0096 13       		.uleb128 0x13
 5224 0097 00       		.byte	0
 5225 0098 00       		.byte	0
 5226 0099 0C       		.uleb128 0xc
 5227 009a 0D       		.uleb128 0xd
 5228 009b 00       		.byte	0
 5229 009c 03       		.uleb128 0x3
 5230 009d 08       		.uleb128 0x8
 5231 009e 3A       		.uleb128 0x3a
 5232 009f 0B       		.uleb128 0xb
 5233 00a0 3B       		.uleb128 0x3b
ARM GAS  C:\Users\strap\AppData\Local\Temp\ccvWLEyq.s 			page 118


 5234 00a1 0B       		.uleb128 0xb
 5235 00a2 49       		.uleb128 0x49
 5236 00a3 13       		.uleb128 0x13
 5237 00a4 00       		.byte	0
 5238 00a5 00       		.byte	0
 5239 00a6 0D       		.uleb128 0xd
 5240 00a7 0D       		.uleb128 0xd
 5241 00a8 00       		.byte	0
 5242 00a9 03       		.uleb128 0x3
 5243 00aa 0E       		.uleb128 0xe
 5244 00ab 3A       		.uleb128 0x3a
 5245 00ac 0B       		.uleb128 0xb
 5246 00ad 3B       		.uleb128 0x3b
 5247 00ae 0B       		.uleb128 0xb
 5248 00af 49       		.uleb128 0x49
 5249 00b0 13       		.uleb128 0x13
 5250 00b1 00       		.byte	0
 5251 00b2 00       		.byte	0
 5252 00b3 0E       		.uleb128 0xe
 5253 00b4 0D       		.uleb128 0xd
 5254 00b5 00       		.byte	0
 5255 00b6 03       		.uleb128 0x3
 5256 00b7 0E       		.uleb128 0xe
 5257 00b8 3A       		.uleb128 0x3a
 5258 00b9 0B       		.uleb128 0xb
 5259 00ba 3B       		.uleb128 0x3b
 5260 00bb 0B       		.uleb128 0xb
 5261 00bc 49       		.uleb128 0x49
 5262 00bd 13       		.uleb128 0x13
 5263 00be 38       		.uleb128 0x38
 5264 00bf 0B       		.uleb128 0xb
 5265 00c0 00       		.byte	0
 5266 00c1 00       		.byte	0
 5267 00c2 0F       		.uleb128 0xf
 5268 00c3 0D       		.uleb128 0xd
 5269 00c4 00       		.byte	0
 5270 00c5 03       		.uleb128 0x3
 5271 00c6 08       		.uleb128 0x8
 5272 00c7 3A       		.uleb128 0x3a
 5273 00c8 0B       		.uleb128 0xb
 5274 00c9 3B       		.uleb128 0x3b
 5275 00ca 0B       		.uleb128 0xb
 5276 00cb 49       		.uleb128 0x49
 5277 00cc 13       		.uleb128 0x13
 5278 00cd 38       		.uleb128 0x38
 5279 00ce 0B       		.uleb128 0xb
 5280 00cf 00       		.byte	0
 5281 00d0 00       		.byte	0
 5282 00d1 10       		.uleb128 0x10
 5283 00d2 0D       		.uleb128 0xd
 5284 00d3 00       		.byte	0
 5285 00d4 03       		.uleb128 0x3
 5286 00d5 0E       		.uleb128 0xe
 5287 00d6 3A       		.uleb128 0x3a
 5288 00d7 0B       		.uleb128 0xb
 5289 00d8 3B       		.uleb128 0x3b
 5290 00d9 05       		.uleb128 0x5
ARM GAS  C:\Users\strap\AppData\Local\Temp\ccvWLEyq.s 			page 119


 5291 00da 49       		.uleb128 0x49
 5292 00db 13       		.uleb128 0x13
 5293 00dc 00       		.byte	0
 5294 00dd 00       		.byte	0
 5295 00de 11       		.uleb128 0x11
 5296 00df 16       		.uleb128 0x16
 5297 00e0 00       		.byte	0
 5298 00e1 03       		.uleb128 0x3
 5299 00e2 0E       		.uleb128 0xe
 5300 00e3 3A       		.uleb128 0x3a
 5301 00e4 0B       		.uleb128 0xb
 5302 00e5 3B       		.uleb128 0x3b
 5303 00e6 05       		.uleb128 0x5
 5304 00e7 49       		.uleb128 0x49
 5305 00e8 13       		.uleb128 0x13
 5306 00e9 00       		.byte	0
 5307 00ea 00       		.byte	0
 5308 00eb 12       		.uleb128 0x12
 5309 00ec 0F       		.uleb128 0xf
 5310 00ed 00       		.byte	0
 5311 00ee 0B       		.uleb128 0xb
 5312 00ef 0B       		.uleb128 0xb
 5313 00f0 49       		.uleb128 0x49
 5314 00f1 13       		.uleb128 0x13
 5315 00f2 00       		.byte	0
 5316 00f3 00       		.byte	0
 5317 00f4 13       		.uleb128 0x13
 5318 00f5 26       		.uleb128 0x26
 5319 00f6 00       		.byte	0
 5320 00f7 49       		.uleb128 0x49
 5321 00f8 13       		.uleb128 0x13
 5322 00f9 00       		.byte	0
 5323 00fa 00       		.byte	0
 5324 00fb 14       		.uleb128 0x14
 5325 00fc 26       		.uleb128 0x26
 5326 00fd 00       		.byte	0
 5327 00fe 00       		.byte	0
 5328 00ff 00       		.byte	0
 5329 0100 15       		.uleb128 0x15
 5330 0101 2E       		.uleb128 0x2e
 5331 0102 01       		.byte	0x1
 5332 0103 03       		.uleb128 0x3
 5333 0104 0E       		.uleb128 0xe
 5334 0105 3A       		.uleb128 0x3a
 5335 0106 0B       		.uleb128 0xb
 5336 0107 3B       		.uleb128 0x3b
 5337 0108 0B       		.uleb128 0xb
 5338 0109 27       		.uleb128 0x27
 5339 010a 19       		.uleb128 0x19
 5340 010b 49       		.uleb128 0x49
 5341 010c 13       		.uleb128 0x13
 5342 010d 20       		.uleb128 0x20
 5343 010e 0B       		.uleb128 0xb
 5344 010f 01       		.uleb128 0x1
 5345 0110 13       		.uleb128 0x13
 5346 0111 00       		.byte	0
 5347 0112 00       		.byte	0
ARM GAS  C:\Users\strap\AppData\Local\Temp\ccvWLEyq.s 			page 120


 5348 0113 16       		.uleb128 0x16
 5349 0114 05       		.uleb128 0x5
 5350 0115 00       		.byte	0
 5351 0116 03       		.uleb128 0x3
 5352 0117 08       		.uleb128 0x8
 5353 0118 3A       		.uleb128 0x3a
 5354 0119 0B       		.uleb128 0xb
 5355 011a 3B       		.uleb128 0x3b
 5356 011b 0B       		.uleb128 0xb
 5357 011c 49       		.uleb128 0x49
 5358 011d 13       		.uleb128 0x13
 5359 011e 00       		.byte	0
 5360 011f 00       		.byte	0
 5361 0120 17       		.uleb128 0x17
 5362 0121 34       		.uleb128 0x34
 5363 0122 00       		.byte	0
 5364 0123 03       		.uleb128 0x3
 5365 0124 08       		.uleb128 0x8
 5366 0125 3A       		.uleb128 0x3a
 5367 0126 0B       		.uleb128 0xb
 5368 0127 3B       		.uleb128 0x3b
 5369 0128 0B       		.uleb128 0xb
 5370 0129 49       		.uleb128 0x49
 5371 012a 13       		.uleb128 0x13
 5372 012b 00       		.byte	0
 5373 012c 00       		.byte	0
 5374 012d 18       		.uleb128 0x18
 5375 012e 2E       		.uleb128 0x2e
 5376 012f 01       		.byte	0x1
 5377 0130 03       		.uleb128 0x3
 5378 0131 0E       		.uleb128 0xe
 5379 0132 3A       		.uleb128 0x3a
 5380 0133 0B       		.uleb128 0xb
 5381 0134 3B       		.uleb128 0x3b
 5382 0135 05       		.uleb128 0x5
 5383 0136 27       		.uleb128 0x27
 5384 0137 19       		.uleb128 0x19
 5385 0138 49       		.uleb128 0x49
 5386 0139 13       		.uleb128 0x13
 5387 013a 20       		.uleb128 0x20
 5388 013b 0B       		.uleb128 0xb
 5389 013c 01       		.uleb128 0x1
 5390 013d 13       		.uleb128 0x13
 5391 013e 00       		.byte	0
 5392 013f 00       		.byte	0
 5393 0140 19       		.uleb128 0x19
 5394 0141 05       		.uleb128 0x5
 5395 0142 00       		.byte	0
 5396 0143 03       		.uleb128 0x3
 5397 0144 0E       		.uleb128 0xe
 5398 0145 3A       		.uleb128 0x3a
 5399 0146 0B       		.uleb128 0xb
 5400 0147 3B       		.uleb128 0x3b
 5401 0148 05       		.uleb128 0x5
 5402 0149 49       		.uleb128 0x49
 5403 014a 13       		.uleb128 0x13
 5404 014b 00       		.byte	0
ARM GAS  C:\Users\strap\AppData\Local\Temp\ccvWLEyq.s 			page 121


 5405 014c 00       		.byte	0
 5406 014d 1A       		.uleb128 0x1a
 5407 014e 34       		.uleb128 0x34
 5408 014f 00       		.byte	0
 5409 0150 03       		.uleb128 0x3
 5410 0151 08       		.uleb128 0x8
 5411 0152 3A       		.uleb128 0x3a
 5412 0153 0B       		.uleb128 0xb
 5413 0154 3B       		.uleb128 0x3b
 5414 0155 05       		.uleb128 0x5
 5415 0156 49       		.uleb128 0x49
 5416 0157 13       		.uleb128 0x13
 5417 0158 00       		.byte	0
 5418 0159 00       		.byte	0
 5419 015a 1B       		.uleb128 0x1b
 5420 015b 2E       		.uleb128 0x2e
 5421 015c 01       		.byte	0x1
 5422 015d 3F       		.uleb128 0x3f
 5423 015e 19       		.uleb128 0x19
 5424 015f 03       		.uleb128 0x3
 5425 0160 0E       		.uleb128 0xe
 5426 0161 3A       		.uleb128 0x3a
 5427 0162 0B       		.uleb128 0xb
 5428 0163 3B       		.uleb128 0x3b
 5429 0164 0B       		.uleb128 0xb
 5430 0165 27       		.uleb128 0x27
 5431 0166 19       		.uleb128 0x19
 5432 0167 49       		.uleb128 0x49
 5433 0168 13       		.uleb128 0x13
 5434 0169 11       		.uleb128 0x11
 5435 016a 01       		.uleb128 0x1
 5436 016b 12       		.uleb128 0x12
 5437 016c 06       		.uleb128 0x6
 5438 016d 40       		.uleb128 0x40
 5439 016e 18       		.uleb128 0x18
 5440 016f 9742     		.uleb128 0x2117
 5441 0171 19       		.uleb128 0x19
 5442 0172 01       		.uleb128 0x1
 5443 0173 13       		.uleb128 0x13
 5444 0174 00       		.byte	0
 5445 0175 00       		.byte	0
 5446 0176 1C       		.uleb128 0x1c
 5447 0177 05       		.uleb128 0x5
 5448 0178 00       		.byte	0
 5449 0179 03       		.uleb128 0x3
 5450 017a 08       		.uleb128 0x8
 5451 017b 3A       		.uleb128 0x3a
 5452 017c 0B       		.uleb128 0xb
 5453 017d 3B       		.uleb128 0x3b
 5454 017e 0B       		.uleb128 0xb
 5455 017f 49       		.uleb128 0x49
 5456 0180 13       		.uleb128 0x13
 5457 0181 02       		.uleb128 0x2
 5458 0182 17       		.uleb128 0x17
 5459 0183 00       		.byte	0
 5460 0184 00       		.byte	0
 5461 0185 1D       		.uleb128 0x1d
ARM GAS  C:\Users\strap\AppData\Local\Temp\ccvWLEyq.s 			page 122


 5462 0186 05       		.uleb128 0x5
 5463 0187 00       		.byte	0
 5464 0188 03       		.uleb128 0x3
 5465 0189 0E       		.uleb128 0xe
 5466 018a 3A       		.uleb128 0x3a
 5467 018b 0B       		.uleb128 0xb
 5468 018c 3B       		.uleb128 0x3b
 5469 018d 0B       		.uleb128 0xb
 5470 018e 49       		.uleb128 0x49
 5471 018f 13       		.uleb128 0x13
 5472 0190 02       		.uleb128 0x2
 5473 0191 17       		.uleb128 0x17
 5474 0192 00       		.byte	0
 5475 0193 00       		.byte	0
 5476 0194 1E       		.uleb128 0x1e
 5477 0195 34       		.uleb128 0x34
 5478 0196 00       		.byte	0
 5479 0197 03       		.uleb128 0x3
 5480 0198 0E       		.uleb128 0xe
 5481 0199 3A       		.uleb128 0x3a
 5482 019a 0B       		.uleb128 0xb
 5483 019b 3B       		.uleb128 0x3b
 5484 019c 0B       		.uleb128 0xb
 5485 019d 49       		.uleb128 0x49
 5486 019e 13       		.uleb128 0x13
 5487 019f 02       		.uleb128 0x2
 5488 01a0 18       		.uleb128 0x18
 5489 01a1 00       		.byte	0
 5490 01a2 00       		.byte	0
 5491 01a3 1F       		.uleb128 0x1f
 5492 01a4 34       		.uleb128 0x34
 5493 01a5 00       		.byte	0
 5494 01a6 03       		.uleb128 0x3
 5495 01a7 0E       		.uleb128 0xe
 5496 01a8 3A       		.uleb128 0x3a
 5497 01a9 0B       		.uleb128 0xb
 5498 01aa 3B       		.uleb128 0x3b
 5499 01ab 0B       		.uleb128 0xb
 5500 01ac 49       		.uleb128 0x49
 5501 01ad 13       		.uleb128 0x13
 5502 01ae 02       		.uleb128 0x2
 5503 01af 17       		.uleb128 0x17
 5504 01b0 00       		.byte	0
 5505 01b1 00       		.byte	0
 5506 01b2 20       		.uleb128 0x20
 5507 01b3 0B       		.uleb128 0xb
 5508 01b4 01       		.byte	0x1
 5509 01b5 11       		.uleb128 0x11
 5510 01b6 01       		.uleb128 0x1
 5511 01b7 12       		.uleb128 0x12
 5512 01b8 06       		.uleb128 0x6
 5513 01b9 01       		.uleb128 0x1
 5514 01ba 13       		.uleb128 0x13
 5515 01bb 00       		.byte	0
 5516 01bc 00       		.byte	0
 5517 01bd 21       		.uleb128 0x21
 5518 01be 34       		.uleb128 0x34
ARM GAS  C:\Users\strap\AppData\Local\Temp\ccvWLEyq.s 			page 123


 5519 01bf 00       		.byte	0
 5520 01c0 03       		.uleb128 0x3
 5521 01c1 08       		.uleb128 0x8
 5522 01c2 3A       		.uleb128 0x3a
 5523 01c3 0B       		.uleb128 0xb
 5524 01c4 3B       		.uleb128 0x3b
 5525 01c5 0B       		.uleb128 0xb
 5526 01c6 49       		.uleb128 0x49
 5527 01c7 13       		.uleb128 0x13
 5528 01c8 02       		.uleb128 0x2
 5529 01c9 17       		.uleb128 0x17
 5530 01ca 00       		.byte	0
 5531 01cb 00       		.byte	0
 5532 01cc 22       		.uleb128 0x22
 5533 01cd 1D       		.uleb128 0x1d
 5534 01ce 01       		.byte	0x1
 5535 01cf 31       		.uleb128 0x31
 5536 01d0 13       		.uleb128 0x13
 5537 01d1 52       		.uleb128 0x52
 5538 01d2 01       		.uleb128 0x1
 5539 01d3 55       		.uleb128 0x55
 5540 01d4 17       		.uleb128 0x17
 5541 01d5 58       		.uleb128 0x58
 5542 01d6 0B       		.uleb128 0xb
 5543 01d7 59       		.uleb128 0x59
 5544 01d8 0B       		.uleb128 0xb
 5545 01d9 01       		.uleb128 0x1
 5546 01da 13       		.uleb128 0x13
 5547 01db 00       		.byte	0
 5548 01dc 00       		.byte	0
 5549 01dd 23       		.uleb128 0x23
 5550 01de 05       		.uleb128 0x5
 5551 01df 00       		.byte	0
 5552 01e0 31       		.uleb128 0x31
 5553 01e1 13       		.uleb128 0x13
 5554 01e2 02       		.uleb128 0x2
 5555 01e3 17       		.uleb128 0x17
 5556 01e4 00       		.byte	0
 5557 01e5 00       		.byte	0
 5558 01e6 24       		.uleb128 0x24
 5559 01e7 0B       		.uleb128 0xb
 5560 01e8 01       		.byte	0x1
 5561 01e9 55       		.uleb128 0x55
 5562 01ea 17       		.uleb128 0x17
 5563 01eb 00       		.byte	0
 5564 01ec 00       		.byte	0
 5565 01ed 25       		.uleb128 0x25
 5566 01ee 34       		.uleb128 0x34
 5567 01ef 00       		.byte	0
 5568 01f0 31       		.uleb128 0x31
 5569 01f1 13       		.uleb128 0x13
 5570 01f2 02       		.uleb128 0x2
 5571 01f3 17       		.uleb128 0x17
 5572 01f4 00       		.byte	0
 5573 01f5 00       		.byte	0
 5574 01f6 26       		.uleb128 0x26
 5575 01f7 898201   		.uleb128 0x4109
ARM GAS  C:\Users\strap\AppData\Local\Temp\ccvWLEyq.s 			page 124


 5576 01fa 00       		.byte	0
 5577 01fb 11       		.uleb128 0x11
 5578 01fc 01       		.uleb128 0x1
 5579 01fd 31       		.uleb128 0x31
 5580 01fe 13       		.uleb128 0x13
 5581 01ff 00       		.byte	0
 5582 0200 00       		.byte	0
 5583 0201 27       		.uleb128 0x27
 5584 0202 0B       		.uleb128 0xb
 5585 0203 01       		.byte	0x1
 5586 0204 11       		.uleb128 0x11
 5587 0205 01       		.uleb128 0x1
 5588 0206 12       		.uleb128 0x12
 5589 0207 06       		.uleb128 0x6
 5590 0208 00       		.byte	0
 5591 0209 00       		.byte	0
 5592 020a 28       		.uleb128 0x28
 5593 020b 0B       		.uleb128 0xb
 5594 020c 01       		.byte	0x1
 5595 020d 55       		.uleb128 0x55
 5596 020e 17       		.uleb128 0x17
 5597 020f 01       		.uleb128 0x1
 5598 0210 13       		.uleb128 0x13
 5599 0211 00       		.byte	0
 5600 0212 00       		.byte	0
 5601 0213 29       		.uleb128 0x29
 5602 0214 01       		.uleb128 0x1
 5603 0215 01       		.byte	0x1
 5604 0216 49       		.uleb128 0x49
 5605 0217 13       		.uleb128 0x13
 5606 0218 01       		.uleb128 0x1
 5607 0219 13       		.uleb128 0x13
 5608 021a 00       		.byte	0
 5609 021b 00       		.byte	0
 5610 021c 2A       		.uleb128 0x2a
 5611 021d 21       		.uleb128 0x21
 5612 021e 00       		.byte	0
 5613 021f 49       		.uleb128 0x49
 5614 0220 13       		.uleb128 0x13
 5615 0221 2F       		.uleb128 0x2f
 5616 0222 0B       		.uleb128 0xb
 5617 0223 00       		.byte	0
 5618 0224 00       		.byte	0
 5619 0225 2B       		.uleb128 0x2b
 5620 0226 2E       		.uleb128 0x2e
 5621 0227 01       		.byte	0x1
 5622 0228 3F       		.uleb128 0x3f
 5623 0229 19       		.uleb128 0x19
 5624 022a 03       		.uleb128 0x3
 5625 022b 0E       		.uleb128 0xe
 5626 022c 3A       		.uleb128 0x3a
 5627 022d 0B       		.uleb128 0xb
 5628 022e 3B       		.uleb128 0x3b
 5629 022f 0B       		.uleb128 0xb
 5630 0230 27       		.uleb128 0x27
 5631 0231 19       		.uleb128 0x19
 5632 0232 11       		.uleb128 0x11
ARM GAS  C:\Users\strap\AppData\Local\Temp\ccvWLEyq.s 			page 125


 5633 0233 01       		.uleb128 0x1
 5634 0234 12       		.uleb128 0x12
 5635 0235 06       		.uleb128 0x6
 5636 0236 40       		.uleb128 0x40
 5637 0237 18       		.uleb128 0x18
 5638 0238 9742     		.uleb128 0x2117
 5639 023a 19       		.uleb128 0x19
 5640 023b 01       		.uleb128 0x1
 5641 023c 13       		.uleb128 0x13
 5642 023d 00       		.byte	0
 5643 023e 00       		.byte	0
 5644 023f 2C       		.uleb128 0x2c
 5645 0240 05       		.uleb128 0x5
 5646 0241 00       		.byte	0
 5647 0242 03       		.uleb128 0x3
 5648 0243 08       		.uleb128 0x8
 5649 0244 3A       		.uleb128 0x3a
 5650 0245 0B       		.uleb128 0xb
 5651 0246 3B       		.uleb128 0x3b
 5652 0247 0B       		.uleb128 0xb
 5653 0248 49       		.uleb128 0x49
 5654 0249 13       		.uleb128 0x13
 5655 024a 02       		.uleb128 0x2
 5656 024b 18       		.uleb128 0x18
 5657 024c 00       		.byte	0
 5658 024d 00       		.byte	0
 5659 024e 2D       		.uleb128 0x2d
 5660 024f 1D       		.uleb128 0x1d
 5661 0250 01       		.byte	0x1
 5662 0251 31       		.uleb128 0x31
 5663 0252 13       		.uleb128 0x13
 5664 0253 11       		.uleb128 0x11
 5665 0254 01       		.uleb128 0x1
 5666 0255 12       		.uleb128 0x12
 5667 0256 06       		.uleb128 0x6
 5668 0257 58       		.uleb128 0x58
 5669 0258 0B       		.uleb128 0xb
 5670 0259 59       		.uleb128 0x59
 5671 025a 0B       		.uleb128 0xb
 5672 025b 01       		.uleb128 0x1
 5673 025c 13       		.uleb128 0x13
 5674 025d 00       		.byte	0
 5675 025e 00       		.byte	0
 5676 025f 2E       		.uleb128 0x2e
 5677 0260 34       		.uleb128 0x34
 5678 0261 00       		.byte	0
 5679 0262 03       		.uleb128 0x3
 5680 0263 08       		.uleb128 0x8
 5681 0264 3A       		.uleb128 0x3a
 5682 0265 0B       		.uleb128 0xb
 5683 0266 3B       		.uleb128 0x3b
 5684 0267 05       		.uleb128 0x5
 5685 0268 49       		.uleb128 0x49
 5686 0269 13       		.uleb128 0x13
 5687 026a 02       		.uleb128 0x2
 5688 026b 17       		.uleb128 0x17
 5689 026c 00       		.byte	0
ARM GAS  C:\Users\strap\AppData\Local\Temp\ccvWLEyq.s 			page 126


 5690 026d 00       		.byte	0
 5691 026e 2F       		.uleb128 0x2f
 5692 026f 2E       		.uleb128 0x2e
 5693 0270 01       		.byte	0x1
 5694 0271 3F       		.uleb128 0x3f
 5695 0272 19       		.uleb128 0x19
 5696 0273 03       		.uleb128 0x3
 5697 0274 0E       		.uleb128 0xe
 5698 0275 3A       		.uleb128 0x3a
 5699 0276 0B       		.uleb128 0xb
 5700 0277 3B       		.uleb128 0x3b
 5701 0278 05       		.uleb128 0x5
 5702 0279 27       		.uleb128 0x27
 5703 027a 19       		.uleb128 0x19
 5704 027b 11       		.uleb128 0x11
 5705 027c 01       		.uleb128 0x1
 5706 027d 12       		.uleb128 0x12
 5707 027e 06       		.uleb128 0x6
 5708 027f 40       		.uleb128 0x40
 5709 0280 18       		.uleb128 0x18
 5710 0281 9742     		.uleb128 0x2117
 5711 0283 19       		.uleb128 0x19
 5712 0284 01       		.uleb128 0x1
 5713 0285 13       		.uleb128 0x13
 5714 0286 00       		.byte	0
 5715 0287 00       		.byte	0
 5716 0288 30       		.uleb128 0x30
 5717 0289 05       		.uleb128 0x5
 5718 028a 00       		.byte	0
 5719 028b 03       		.uleb128 0x3
 5720 028c 08       		.uleb128 0x8
 5721 028d 3A       		.uleb128 0x3a
 5722 028e 0B       		.uleb128 0xb
 5723 028f 3B       		.uleb128 0x3b
 5724 0290 05       		.uleb128 0x5
 5725 0291 49       		.uleb128 0x49
 5726 0292 13       		.uleb128 0x13
 5727 0293 02       		.uleb128 0x2
 5728 0294 17       		.uleb128 0x17
 5729 0295 00       		.byte	0
 5730 0296 00       		.byte	0
 5731 0297 31       		.uleb128 0x31
 5732 0298 34       		.uleb128 0x34
 5733 0299 00       		.byte	0
 5734 029a 03       		.uleb128 0x3
 5735 029b 08       		.uleb128 0x8
 5736 029c 3A       		.uleb128 0x3a
 5737 029d 0B       		.uleb128 0xb
 5738 029e 3B       		.uleb128 0x3b
 5739 029f 05       		.uleb128 0x5
 5740 02a0 49       		.uleb128 0x49
 5741 02a1 13       		.uleb128 0x13
 5742 02a2 02       		.uleb128 0x2
 5743 02a3 18       		.uleb128 0x18
 5744 02a4 00       		.byte	0
 5745 02a5 00       		.byte	0
 5746 02a6 32       		.uleb128 0x32
ARM GAS  C:\Users\strap\AppData\Local\Temp\ccvWLEyq.s 			page 127


 5747 02a7 1D       		.uleb128 0x1d
 5748 02a8 01       		.byte	0x1
 5749 02a9 31       		.uleb128 0x31
 5750 02aa 13       		.uleb128 0x13
 5751 02ab 11       		.uleb128 0x11
 5752 02ac 01       		.uleb128 0x1
 5753 02ad 12       		.uleb128 0x12
 5754 02ae 06       		.uleb128 0x6
 5755 02af 58       		.uleb128 0x58
 5756 02b0 0B       		.uleb128 0xb
 5757 02b1 59       		.uleb128 0x59
 5758 02b2 05       		.uleb128 0x5
 5759 02b3 01       		.uleb128 0x1
 5760 02b4 13       		.uleb128 0x13
 5761 02b5 00       		.byte	0
 5762 02b6 00       		.byte	0
 5763 02b7 33       		.uleb128 0x33
 5764 02b8 05       		.uleb128 0x5
 5765 02b9 00       		.byte	0
 5766 02ba 31       		.uleb128 0x31
 5767 02bb 13       		.uleb128 0x13
 5768 02bc 00       		.byte	0
 5769 02bd 00       		.byte	0
 5770 02be 34       		.uleb128 0x34
 5771 02bf 1D       		.uleb128 0x1d
 5772 02c0 01       		.byte	0x1
 5773 02c1 31       		.uleb128 0x31
 5774 02c2 13       		.uleb128 0x13
 5775 02c3 11       		.uleb128 0x11
 5776 02c4 01       		.uleb128 0x1
 5777 02c5 12       		.uleb128 0x12
 5778 02c6 06       		.uleb128 0x6
 5779 02c7 58       		.uleb128 0x58
 5780 02c8 0B       		.uleb128 0xb
 5781 02c9 59       		.uleb128 0x59
 5782 02ca 05       		.uleb128 0x5
 5783 02cb 00       		.byte	0
 5784 02cc 00       		.byte	0
 5785 02cd 35       		.uleb128 0x35
 5786 02ce 898201   		.uleb128 0x4109
 5787 02d1 01       		.byte	0x1
 5788 02d2 11       		.uleb128 0x11
 5789 02d3 01       		.uleb128 0x1
 5790 02d4 31       		.uleb128 0x31
 5791 02d5 13       		.uleb128 0x13
 5792 02d6 00       		.byte	0
 5793 02d7 00       		.byte	0
 5794 02d8 36       		.uleb128 0x36
 5795 02d9 8A8201   		.uleb128 0x410a
 5796 02dc 00       		.byte	0
 5797 02dd 02       		.uleb128 0x2
 5798 02de 18       		.uleb128 0x18
 5799 02df 9142     		.uleb128 0x2111
 5800 02e1 18       		.uleb128 0x18
 5801 02e2 00       		.byte	0
 5802 02e3 00       		.byte	0
 5803 02e4 37       		.uleb128 0x37
ARM GAS  C:\Users\strap\AppData\Local\Temp\ccvWLEyq.s 			page 128


 5804 02e5 2E       		.uleb128 0x2e
 5805 02e6 01       		.byte	0x1
 5806 02e7 3F       		.uleb128 0x3f
 5807 02e8 19       		.uleb128 0x19
 5808 02e9 03       		.uleb128 0x3
 5809 02ea 0E       		.uleb128 0xe
 5810 02eb 3A       		.uleb128 0x3a
 5811 02ec 0B       		.uleb128 0xb
 5812 02ed 3B       		.uleb128 0x3b
 5813 02ee 05       		.uleb128 0x5
 5814 02ef 27       		.uleb128 0x27
 5815 02f0 19       		.uleb128 0x19
 5816 02f1 49       		.uleb128 0x49
 5817 02f2 13       		.uleb128 0x13
 5818 02f3 11       		.uleb128 0x11
 5819 02f4 01       		.uleb128 0x1
 5820 02f5 12       		.uleb128 0x12
 5821 02f6 06       		.uleb128 0x6
 5822 02f7 40       		.uleb128 0x40
 5823 02f8 18       		.uleb128 0x18
 5824 02f9 9742     		.uleb128 0x2117
 5825 02fb 19       		.uleb128 0x19
 5826 02fc 01       		.uleb128 0x1
 5827 02fd 13       		.uleb128 0x13
 5828 02fe 00       		.byte	0
 5829 02ff 00       		.byte	0
 5830 0300 38       		.uleb128 0x38
 5831 0301 898201   		.uleb128 0x4109
 5832 0304 01       		.byte	0x1
 5833 0305 11       		.uleb128 0x11
 5834 0306 01       		.uleb128 0x1
 5835 0307 31       		.uleb128 0x31
 5836 0308 13       		.uleb128 0x13
 5837 0309 01       		.uleb128 0x1
 5838 030a 13       		.uleb128 0x13
 5839 030b 00       		.byte	0
 5840 030c 00       		.byte	0
 5841 030d 39       		.uleb128 0x39
 5842 030e 34       		.uleb128 0x34
 5843 030f 00       		.byte	0
 5844 0310 03       		.uleb128 0x3
 5845 0311 0E       		.uleb128 0xe
 5846 0312 3A       		.uleb128 0x3a
 5847 0313 0B       		.uleb128 0xb
 5848 0314 3B       		.uleb128 0x3b
 5849 0315 05       		.uleb128 0x5
 5850 0316 49       		.uleb128 0x49
 5851 0317 13       		.uleb128 0x13
 5852 0318 02       		.uleb128 0x2
 5853 0319 17       		.uleb128 0x17
 5854 031a 00       		.byte	0
 5855 031b 00       		.byte	0
 5856 031c 3A       		.uleb128 0x3a
 5857 031d 05       		.uleb128 0x5
 5858 031e 00       		.byte	0
 5859 031f 03       		.uleb128 0x3
 5860 0320 0E       		.uleb128 0xe
ARM GAS  C:\Users\strap\AppData\Local\Temp\ccvWLEyq.s 			page 129


 5861 0321 3A       		.uleb128 0x3a
 5862 0322 0B       		.uleb128 0xb
 5863 0323 3B       		.uleb128 0x3b
 5864 0324 05       		.uleb128 0x5
 5865 0325 49       		.uleb128 0x49
 5866 0326 13       		.uleb128 0x13
 5867 0327 02       		.uleb128 0x2
 5868 0328 17       		.uleb128 0x17
 5869 0329 00       		.byte	0
 5870 032a 00       		.byte	0
 5871 032b 3B       		.uleb128 0x3b
 5872 032c 05       		.uleb128 0x5
 5873 032d 00       		.byte	0
 5874 032e 03       		.uleb128 0x3
 5875 032f 08       		.uleb128 0x8
 5876 0330 3A       		.uleb128 0x3a
 5877 0331 0B       		.uleb128 0xb
 5878 0332 3B       		.uleb128 0x3b
 5879 0333 05       		.uleb128 0x5
 5880 0334 49       		.uleb128 0x49
 5881 0335 13       		.uleb128 0x13
 5882 0336 00       		.byte	0
 5883 0337 00       		.byte	0
 5884 0338 3C       		.uleb128 0x3c
 5885 0339 1D       		.uleb128 0x1d
 5886 033a 01       		.byte	0x1
 5887 033b 31       		.uleb128 0x31
 5888 033c 13       		.uleb128 0x13
 5889 033d 52       		.uleb128 0x52
 5890 033e 01       		.uleb128 0x1
 5891 033f 55       		.uleb128 0x55
 5892 0340 17       		.uleb128 0x17
 5893 0341 58       		.uleb128 0x58
 5894 0342 0B       		.uleb128 0xb
 5895 0343 59       		.uleb128 0x59
 5896 0344 05       		.uleb128 0x5
 5897 0345 01       		.uleb128 0x1
 5898 0346 13       		.uleb128 0x13
 5899 0347 00       		.byte	0
 5900 0348 00       		.byte	0
 5901 0349 3D       		.uleb128 0x3d
 5902 034a 2E       		.uleb128 0x2e
 5903 034b 00       		.byte	0
 5904 034c 3F       		.uleb128 0x3f
 5905 034d 19       		.uleb128 0x19
 5906 034e 3C       		.uleb128 0x3c
 5907 034f 19       		.uleb128 0x19
 5908 0350 6E       		.uleb128 0x6e
 5909 0351 0E       		.uleb128 0xe
 5910 0352 03       		.uleb128 0x3
 5911 0353 0E       		.uleb128 0xe
 5912 0354 3A       		.uleb128 0x3a
 5913 0355 0B       		.uleb128 0xb
 5914 0356 3B       		.uleb128 0x3b
 5915 0357 0B       		.uleb128 0xb
 5916 0358 00       		.byte	0
 5917 0359 00       		.byte	0
ARM GAS  C:\Users\strap\AppData\Local\Temp\ccvWLEyq.s 			page 130


 5918 035a 00       		.byte	0
 5919              		.section	.debug_loc,"",%progbits
 5920              	.Ldebug_loc0:
 5921              	.LLST0:
 5922 0000 00000000 		.4byte	.LVL0
 5923 0004 26000000 		.4byte	.LVL2
 5924 0008 0100     		.2byte	0x1
 5925 000a 50       		.byte	0x50
 5926 000b 26000000 		.4byte	.LVL2
 5927 000f 56000000 		.4byte	.LVL12
 5928 0013 0100     		.2byte	0x1
 5929 0015 54       		.byte	0x54
 5930 0016 56000000 		.4byte	.LVL12
 5931 001a 60000000 		.4byte	.LVL15
 5932 001e 0100     		.2byte	0x1
 5933 0020 50       		.byte	0x50
 5934 0021 60000000 		.4byte	.LVL15
 5935 0025 86000000 		.4byte	.LVL20
 5936 0029 0400     		.2byte	0x4
 5937 002b F3       		.byte	0xf3
 5938 002c 01       		.uleb128 0x1
 5939 002d 50       		.byte	0x50
 5940 002e 9F       		.byte	0x9f
 5941 002f 86000000 		.4byte	.LVL20
 5942 0033 92000000 		.4byte	.LVL23
 5943 0037 0100     		.2byte	0x1
 5944 0039 50       		.byte	0x50
 5945 003a 92000000 		.4byte	.LVL23
 5946 003e B8000000 		.4byte	.LVL28
 5947 0042 0400     		.2byte	0x4
 5948 0044 F3       		.byte	0xf3
 5949 0045 01       		.uleb128 0x1
 5950 0046 50       		.byte	0x50
 5951 0047 9F       		.byte	0x9f
 5952 0048 B8000000 		.4byte	.LVL28
 5953 004c C6000000 		.4byte	.LVL32
 5954 0050 0100     		.2byte	0x1
 5955 0052 50       		.byte	0x50
 5956 0053 C6000000 		.4byte	.LVL32
 5957 0057 F0000000 		.4byte	.LVL37
 5958 005b 0400     		.2byte	0x4
 5959 005d F3       		.byte	0xf3
 5960 005e 01       		.uleb128 0x1
 5961 005f 50       		.byte	0x50
 5962 0060 9F       		.byte	0x9f
 5963 0061 F0000000 		.4byte	.LVL37
 5964 0065 F6000000 		.4byte	.LVL39
 5965 0069 0100     		.2byte	0x1
 5966 006b 50       		.byte	0x50
 5967 006c F6000000 		.4byte	.LVL39
 5968 0070 0A010000 		.4byte	.LVL42
 5969 0074 0400     		.2byte	0x4
 5970 0076 F3       		.byte	0xf3
 5971 0077 01       		.uleb128 0x1
 5972 0078 50       		.byte	0x50
 5973 0079 9F       		.byte	0x9f
 5974 007a 0A010000 		.4byte	.LVL42
ARM GAS  C:\Users\strap\AppData\Local\Temp\ccvWLEyq.s 			page 131


 5975 007e 16010000 		.4byte	.LVL43
 5976 0082 0100     		.2byte	0x1
 5977 0084 50       		.byte	0x50
 5978 0085 16010000 		.4byte	.LVL43
 5979 0089 1E010000 		.4byte	.LFE37
 5980 008d 0400     		.2byte	0x4
 5981 008f F3       		.byte	0xf3
 5982 0090 01       		.uleb128 0x1
 5983 0091 50       		.byte	0x50
 5984 0092 9F       		.byte	0x9f
 5985 0093 00000000 		.4byte	0
 5986 0097 00000000 		.4byte	0
 5987              	.LLST1:
 5988 009b 00000000 		.4byte	.LVL0
 5989 009f 2D000000 		.4byte	.LVL3-1
 5990 00a3 0100     		.2byte	0x1
 5991 00a5 51       		.byte	0x51
 5992 00a6 2D000000 		.4byte	.LVL3-1
 5993 00aa 56000000 		.4byte	.LVL12
 5994 00ae 0400     		.2byte	0x4
 5995 00b0 F3       		.byte	0xf3
 5996 00b1 01       		.uleb128 0x1
 5997 00b2 51       		.byte	0x51
 5998 00b3 9F       		.byte	0x9f
 5999 00b4 56000000 		.4byte	.LVL12
 6000 00b8 5E000000 		.4byte	.LVL14
 6001 00bc 0100     		.2byte	0x1
 6002 00be 51       		.byte	0x51
 6003 00bf 5E000000 		.4byte	.LVL14
 6004 00c3 70000000 		.4byte	.LVL17
 6005 00c7 0500     		.2byte	0x5
 6006 00c9 71       		.byte	0x71
 6007 00ca 00       		.sleb128 0
 6008 00cb 33       		.byte	0x33
 6009 00cc 26       		.byte	0x26
 6010 00cd 9F       		.byte	0x9f
 6011 00ce 86000000 		.4byte	.LVL20
 6012 00d2 90000000 		.4byte	.LVL22
 6013 00d6 0100     		.2byte	0x1
 6014 00d8 51       		.byte	0x51
 6015 00d9 90000000 		.4byte	.LVL22
 6016 00dd A2000000 		.4byte	.LVL25
 6017 00e1 0500     		.2byte	0x5
 6018 00e3 71       		.byte	0x71
 6019 00e4 00       		.sleb128 0
 6020 00e5 32       		.byte	0x32
 6021 00e6 26       		.byte	0x26
 6022 00e7 9F       		.byte	0x9f
 6023 00e8 B8000000 		.4byte	.LVL28
 6024 00ec C4000000 		.4byte	.LVL31
 6025 00f0 0100     		.2byte	0x1
 6026 00f2 51       		.byte	0x51
 6027 00f3 C4000000 		.4byte	.LVL31
 6028 00f7 D6000000 		.4byte	.LVL34
 6029 00fb 0500     		.2byte	0x5
 6030 00fd 71       		.byte	0x71
 6031 00fe 00       		.sleb128 0
ARM GAS  C:\Users\strap\AppData\Local\Temp\ccvWLEyq.s 			page 132


 6032 00ff 31       		.byte	0x31
 6033 0100 26       		.byte	0x26
 6034 0101 9F       		.byte	0x9f
 6035 0102 F0000000 		.4byte	.LVL37
 6036 0106 16010000 		.4byte	.LVL43
 6037 010a 0100     		.2byte	0x1
 6038 010c 51       		.byte	0x51
 6039 010d 00000000 		.4byte	0
 6040 0111 00000000 		.4byte	0
 6041              	.LLST2:
 6042 0115 00000000 		.4byte	.LVL0
 6043 0119 2D000000 		.4byte	.LVL3-1
 6044 011d 0100     		.2byte	0x1
 6045 011f 52       		.byte	0x52
 6046 0120 2D000000 		.4byte	.LVL3-1
 6047 0124 56000000 		.4byte	.LVL12
 6048 0128 0400     		.2byte	0x4
 6049 012a F3       		.byte	0xf3
 6050 012b 01       		.uleb128 0x1
 6051 012c 52       		.byte	0x52
 6052 012d 9F       		.byte	0x9f
 6053 012e 56000000 		.4byte	.LVL12
 6054 0132 6C000000 		.4byte	.LVL16
 6055 0136 0100     		.2byte	0x1
 6056 0138 52       		.byte	0x52
 6057 0139 6C000000 		.4byte	.LVL16
 6058 013d 86000000 		.4byte	.LVL20
 6059 0141 0400     		.2byte	0x4
 6060 0143 F3       		.byte	0xf3
 6061 0144 01       		.uleb128 0x1
 6062 0145 52       		.byte	0x52
 6063 0146 9F       		.byte	0x9f
 6064 0147 86000000 		.4byte	.LVL20
 6065 014b 9E000000 		.4byte	.LVL24
 6066 014f 0100     		.2byte	0x1
 6067 0151 52       		.byte	0x52
 6068 0152 9E000000 		.4byte	.LVL24
 6069 0156 B8000000 		.4byte	.LVL28
 6070 015a 0400     		.2byte	0x4
 6071 015c F3       		.byte	0xf3
 6072 015d 01       		.uleb128 0x1
 6073 015e 52       		.byte	0x52
 6074 015f 9F       		.byte	0x9f
 6075 0160 B8000000 		.4byte	.LVL28
 6076 0164 D2000000 		.4byte	.LVL33
 6077 0168 0100     		.2byte	0x1
 6078 016a 52       		.byte	0x52
 6079 016b D2000000 		.4byte	.LVL33
 6080 016f F0000000 		.4byte	.LVL37
 6081 0173 0400     		.2byte	0x4
 6082 0175 F3       		.byte	0xf3
 6083 0176 01       		.uleb128 0x1
 6084 0177 52       		.byte	0x52
 6085 0178 9F       		.byte	0x9f
 6086 0179 F0000000 		.4byte	.LVL37
 6087 017d FE000000 		.4byte	.LVL40
 6088 0181 0100     		.2byte	0x1
ARM GAS  C:\Users\strap\AppData\Local\Temp\ccvWLEyq.s 			page 133


 6089 0183 52       		.byte	0x52
 6090 0184 FE000000 		.4byte	.LVL40
 6091 0188 0A010000 		.4byte	.LVL42
 6092 018c 0400     		.2byte	0x4
 6093 018e F3       		.byte	0xf3
 6094 018f 01       		.uleb128 0x1
 6095 0190 52       		.byte	0x52
 6096 0191 9F       		.byte	0x9f
 6097 0192 0A010000 		.4byte	.LVL42
 6098 0196 16010000 		.4byte	.LVL43
 6099 019a 0100     		.2byte	0x1
 6100 019c 52       		.byte	0x52
 6101 019d 16010000 		.4byte	.LVL43
 6102 01a1 1E010000 		.4byte	.LFE37
 6103 01a5 0400     		.2byte	0x4
 6104 01a7 F3       		.byte	0xf3
 6105 01a8 01       		.uleb128 0x1
 6106 01a9 52       		.byte	0x52
 6107 01aa 9F       		.byte	0x9f
 6108 01ab 00000000 		.4byte	0
 6109 01af 00000000 		.4byte	0
 6110              	.LLST3:
 6111 01b3 00000000 		.4byte	.LVL0
 6112 01b7 2D000000 		.4byte	.LVL3-1
 6113 01bb 0100     		.2byte	0x1
 6114 01bd 53       		.byte	0x53
 6115 01be 56000000 		.4byte	.LVL12
 6116 01c2 74000000 		.4byte	.LVL18
 6117 01c6 0100     		.2byte	0x1
 6118 01c8 53       		.byte	0x53
 6119 01c9 86000000 		.4byte	.LVL20
 6120 01cd A6000000 		.4byte	.LVL26
 6121 01d1 0100     		.2byte	0x1
 6122 01d3 53       		.byte	0x53
 6123 01d4 B8000000 		.4byte	.LVL28
 6124 01d8 C0000000 		.4byte	.LVL30
 6125 01dc 0100     		.2byte	0x1
 6126 01de 53       		.byte	0x53
 6127 01df F0000000 		.4byte	.LVL37
 6128 01e3 04010000 		.4byte	.LVL41
 6129 01e7 0100     		.2byte	0x1
 6130 01e9 53       		.byte	0x53
 6131 01ea 0A010000 		.4byte	.LVL42
 6132 01ee 1E010000 		.4byte	.LFE37
 6133 01f2 0100     		.2byte	0x1
 6134 01f4 53       		.byte	0x53
 6135 01f5 00000000 		.4byte	0
 6136 01f9 00000000 		.4byte	0
 6137              	.LLST4:
 6138 01fd 0C000000 		.4byte	.LVL1
 6139 0201 5A000000 		.4byte	.LVL13
 6140 0205 0100     		.2byte	0x1
 6141 0207 55       		.byte	0x55
 6142 0208 5A000000 		.4byte	.LVL13
 6143 020c 86000000 		.4byte	.LVL20
 6144 0210 0300     		.2byte	0x3
 6145 0212 75       		.byte	0x75
ARM GAS  C:\Users\strap\AppData\Local\Temp\ccvWLEyq.s 			page 134


 6146 0213 08       		.sleb128 8
 6147 0214 9F       		.byte	0x9f
 6148 0215 86000000 		.4byte	.LVL20
 6149 0219 8A000000 		.4byte	.LVL21
 6150 021d 0100     		.2byte	0x1
 6151 021f 55       		.byte	0x55
 6152 0220 8A000000 		.4byte	.LVL21
 6153 0224 B8000000 		.4byte	.LVL28
 6154 0228 0300     		.2byte	0x3
 6155 022a 75       		.byte	0x75
 6156 022b 10       		.sleb128 16
 6157 022c 9F       		.byte	0x9f
 6158 022d B8000000 		.4byte	.LVL28
 6159 0231 BC000000 		.4byte	.LVL29
 6160 0235 0100     		.2byte	0x1
 6161 0237 55       		.byte	0x55
 6162 0238 BC000000 		.4byte	.LVL29
 6163 023c F0000000 		.4byte	.LVL37
 6164 0240 0400     		.2byte	0x4
 6165 0242 75       		.byte	0x75
 6166 0243 C000     		.sleb128 64
 6167 0245 9F       		.byte	0x9f
 6168 0246 F0000000 		.4byte	.LVL37
 6169 024a F4000000 		.4byte	.LVL38
 6170 024e 0100     		.2byte	0x1
 6171 0250 55       		.byte	0x55
 6172 0251 F4000000 		.4byte	.LVL38
 6173 0255 0A010000 		.4byte	.LVL42
 6174 0259 0400     		.2byte	0x4
 6175 025b 75       		.byte	0x75
 6176 025c 8008     		.sleb128 1024
 6177 025e 9F       		.byte	0x9f
 6178 025f 0A010000 		.4byte	.LVL42
 6179 0263 16010000 		.4byte	.LVL43
 6180 0267 0100     		.2byte	0x1
 6181 0269 55       		.byte	0x55
 6182 026a 00000000 		.4byte	0
 6183 026e 00000000 		.4byte	0
 6184              	.LLST5:
 6185 0272 32000000 		.4byte	.LVL4
 6186 0276 40000000 		.4byte	.LVL6
 6187 027a 0100     		.2byte	0x1
 6188 027c 50       		.byte	0x50
 6189 027d 00000000 		.4byte	0
 6190 0281 00000000 		.4byte	0
 6191              	.LLST6:
 6192 0285 3C000000 		.4byte	.LVL5
 6193 0289 40000000 		.4byte	.LVL6
 6194 028d 0600     		.2byte	0x6
 6195 028f 70       		.byte	0x70
 6196 0290 00       		.sleb128 0
 6197 0291 72       		.byte	0x72
 6198 0292 00       		.sleb128 0
 6199 0293 1E       		.byte	0x1e
 6200 0294 9F       		.byte	0x9f
 6201 0295 00000000 		.4byte	0
 6202 0299 00000000 		.4byte	0
ARM GAS  C:\Users\strap\AppData\Local\Temp\ccvWLEyq.s 			page 135


 6203              	.LLST7:
 6204 029d 40000000 		.4byte	.LVL6
 6205 02a1 46000000 		.4byte	.LVL8
 6206 02a5 0200     		.2byte	0x2
 6207 02a7 32       		.byte	0x32
 6208 02a8 9F       		.byte	0x9f
 6209 02a9 46000000 		.4byte	.LVL8
 6210 02ad 56000000 		.4byte	.LVL12
 6211 02b1 0100     		.2byte	0x1
 6212 02b3 53       		.byte	0x53
 6213 02b4 00000000 		.4byte	0
 6214 02b8 00000000 		.4byte	0
 6215              	.LLST8:
 6216 02bc 40000000 		.4byte	.LVL6
 6217 02c0 46000000 		.4byte	.LVL8
 6218 02c4 0100     		.2byte	0x1
 6219 02c6 50       		.byte	0x50
 6220 02c7 00000000 		.4byte	0
 6221 02cb 00000000 		.4byte	0
 6222              	.LLST9:
 6223 02cf 40000000 		.4byte	.LVL6
 6224 02d3 42000000 		.4byte	.LVL7
 6225 02d7 0300     		.2byte	0x3
 6226 02d9 91       		.byte	0x91
 6227 02da 64       		.sleb128 -28
 6228 02db 9F       		.byte	0x9f
 6229 02dc 42000000 		.4byte	.LVL7
 6230 02e0 46000000 		.4byte	.LVL8
 6231 02e4 0100     		.2byte	0x1
 6232 02e6 52       		.byte	0x52
 6233 02e7 46000000 		.4byte	.LVL8
 6234 02eb 56000000 		.4byte	.LVL12
 6235 02ef 0300     		.2byte	0x3
 6236 02f1 91       		.byte	0x91
 6237 02f2 64       		.sleb128 -28
 6238 02f3 9F       		.byte	0x9f
 6239 02f4 00000000 		.4byte	0
 6240 02f8 00000000 		.4byte	0
 6241              	.LLST10:
 6242 02fc 40000000 		.4byte	.LVL6
 6243 0300 42000000 		.4byte	.LVL7
 6244 0304 0300     		.2byte	0x3
 6245 0306 91       		.byte	0x91
 6246 0307 64       		.sleb128 -28
 6247 0308 9F       		.byte	0x9f
 6248 0309 42000000 		.4byte	.LVL7
 6249 030d 56000000 		.4byte	.LVL12
 6250 0311 0100     		.2byte	0x1
 6251 0313 52       		.byte	0x52
 6252 0314 00000000 		.4byte	0
 6253 0318 00000000 		.4byte	0
 6254              	.LLST11:
 6255 031c 40000000 		.4byte	.LVL6
 6256 0320 4A000000 		.4byte	.LVL9
 6257 0324 0100     		.2byte	0x1
 6258 0326 50       		.byte	0x50
 6259 0327 4A000000 		.4byte	.LVL9
ARM GAS  C:\Users\strap\AppData\Local\Temp\ccvWLEyq.s 			page 136


 6260 032b 4E000000 		.4byte	.LVL10
 6261 032f 0300     		.2byte	0x3
 6262 0331 70       		.byte	0x70
 6263 0332 7F       		.sleb128 -1
 6264 0333 9F       		.byte	0x9f
 6265 0334 4E000000 		.4byte	.LVL10
 6266 0338 56000000 		.4byte	.LVL12
 6267 033c 0100     		.2byte	0x1
 6268 033e 50       		.byte	0x50
 6269 033f 00000000 		.4byte	0
 6270 0343 00000000 		.4byte	0
 6271              	.LLST12:
 6272 0347 5E000000 		.4byte	.LVL14
 6273 034b 86000000 		.4byte	.LVL20
 6274 034f 0100     		.2byte	0x1
 6275 0351 54       		.byte	0x54
 6276 0352 00000000 		.4byte	0
 6277 0356 00000000 		.4byte	0
 6278              	.LLST13:
 6279 035a 70000000 		.4byte	.LVL17
 6280 035e 78000000 		.4byte	.LVL19
 6281 0362 0100     		.2byte	0x1
 6282 0364 51       		.byte	0x51
 6283 0365 00000000 		.4byte	0
 6284 0369 00000000 		.4byte	0
 6285              	.LLST14:
 6286 036d 90000000 		.4byte	.LVL22
 6287 0371 B8000000 		.4byte	.LVL28
 6288 0375 0100     		.2byte	0x1
 6289 0377 54       		.byte	0x54
 6290 0378 00000000 		.4byte	0
 6291 037c 00000000 		.4byte	0
 6292              	.LLST15:
 6293 0380 A2000000 		.4byte	.LVL25
 6294 0384 AA000000 		.4byte	.LVL27
 6295 0388 0100     		.2byte	0x1
 6296 038a 51       		.byte	0x51
 6297 038b 00000000 		.4byte	0
 6298 038f 00000000 		.4byte	0
 6299              	.LLST16:
 6300 0393 C4000000 		.4byte	.LVL31
 6301 0397 E0000000 		.4byte	.LVL36
 6302 039b 0100     		.2byte	0x1
 6303 039d 53       		.byte	0x53
 6304 039e 00000000 		.4byte	0
 6305 03a2 00000000 		.4byte	0
 6306              	.LLST17:
 6307 03a6 D6000000 		.4byte	.LVL34
 6308 03aa DC000000 		.4byte	.LVL35
 6309 03ae 0100     		.2byte	0x1
 6310 03b0 51       		.byte	0x51
 6311 03b1 00000000 		.4byte	0
 6312 03b5 00000000 		.4byte	0
 6313              	.LLST18:
 6314 03b9 FE000000 		.4byte	.LVL40
 6315 03bd 0A010000 		.4byte	.LVL42
 6316 03c1 0100     		.2byte	0x1
ARM GAS  C:\Users\strap\AppData\Local\Temp\ccvWLEyq.s 			page 137


 6317 03c3 52       		.byte	0x52
 6318 03c4 00000000 		.4byte	0
 6319 03c8 00000000 		.4byte	0
 6320              	.LLST19:
 6321 03cc 00000000 		.4byte	.LVL44
 6322 03d0 28000000 		.4byte	.LVL49
 6323 03d4 0100     		.2byte	0x1
 6324 03d6 50       		.byte	0x50
 6325 03d7 28000000 		.4byte	.LVL49
 6326 03db 2A000000 		.4byte	.LVL50
 6327 03df 0100     		.2byte	0x1
 6328 03e1 54       		.byte	0x54
 6329 03e2 2A000000 		.4byte	.LVL50
 6330 03e6 5A000000 		.4byte	.LVL57
 6331 03ea 0100     		.2byte	0x1
 6332 03ec 50       		.byte	0x50
 6333 03ed 5A000000 		.4byte	.LVL57
 6334 03f1 5C000000 		.4byte	.LVL58
 6335 03f5 0100     		.2byte	0x1
 6336 03f7 54       		.byte	0x54
 6337 03f8 5C000000 		.4byte	.LVL58
 6338 03fc 64000000 		.4byte	.LVL59
 6339 0400 0100     		.2byte	0x1
 6340 0402 50       		.byte	0x50
 6341 0403 64000000 		.4byte	.LVL59
 6342 0407 98000000 		.4byte	.LVL67
 6343 040b 0100     		.2byte	0x1
 6344 040d 54       		.byte	0x54
 6345 040e 98000000 		.4byte	.LVL67
 6346 0412 A4000000 		.4byte	.LVL68
 6347 0416 0100     		.2byte	0x1
 6348 0418 50       		.byte	0x50
 6349 0419 A4000000 		.4byte	.LVL68
 6350 041d E0000000 		.4byte	.LVL77
 6351 0421 0100     		.2byte	0x1
 6352 0423 54       		.byte	0x54
 6353 0424 E0000000 		.4byte	.LVL77
 6354 0428 F0000000 		.4byte	.LVL80
 6355 042c 0100     		.2byte	0x1
 6356 042e 50       		.byte	0x50
 6357 042f F0000000 		.4byte	.LVL80
 6358 0433 F2000000 		.4byte	.LVL81
 6359 0437 0100     		.2byte	0x1
 6360 0439 54       		.byte	0x54
 6361 043a F2000000 		.4byte	.LVL81
 6362 043e F4000000 		.4byte	.LVL82
 6363 0442 0100     		.2byte	0x1
 6364 0444 50       		.byte	0x50
 6365 0445 F4000000 		.4byte	.LVL82
 6366 0449 F6000000 		.4byte	.LVL83
 6367 044d 0100     		.2byte	0x1
 6368 044f 54       		.byte	0x54
 6369 0450 F6000000 		.4byte	.LVL83
 6370 0454 F8000000 		.4byte	.LVL84
 6371 0458 0100     		.2byte	0x1
 6372 045a 50       		.byte	0x50
 6373 045b F8000000 		.4byte	.LVL84
ARM GAS  C:\Users\strap\AppData\Local\Temp\ccvWLEyq.s 			page 138


 6374 045f FC000000 		.4byte	.LVL85
 6375 0463 0100     		.2byte	0x1
 6376 0465 54       		.byte	0x54
 6377 0466 FC000000 		.4byte	.LVL85
 6378 046a 00010000 		.4byte	.LFE38
 6379 046e 0400     		.2byte	0x4
 6380 0470 F3       		.byte	0xf3
 6381 0471 01       		.uleb128 0x1
 6382 0472 50       		.byte	0x50
 6383 0473 9F       		.byte	0x9f
 6384 0474 00000000 		.4byte	0
 6385 0478 00000000 		.4byte	0
 6386              	.LLST20:
 6387 047c 00000000 		.4byte	.LVL44
 6388 0480 18000000 		.4byte	.LVL46
 6389 0484 0100     		.2byte	0x1
 6390 0486 51       		.byte	0x51
 6391 0487 18000000 		.4byte	.LVL46
 6392 048b 2A000000 		.4byte	.LVL50
 6393 048f 0400     		.2byte	0x4
 6394 0491 F3       		.byte	0xf3
 6395 0492 01       		.uleb128 0x1
 6396 0493 51       		.byte	0x51
 6397 0494 9F       		.byte	0x9f
 6398 0495 2A000000 		.4byte	.LVL50
 6399 0499 32000000 		.4byte	.LVL51
 6400 049d 0100     		.2byte	0x1
 6401 049f 51       		.byte	0x51
 6402 04a0 32000000 		.4byte	.LVL51
 6403 04a4 34000000 		.4byte	.LVL52
 6404 04a8 0500     		.2byte	0x5
 6405 04aa 71       		.byte	0x71
 6406 04ab 00       		.sleb128 0
 6407 04ac 33       		.byte	0x33
 6408 04ad 26       		.byte	0x26
 6409 04ae 9F       		.byte	0x9f
 6410 04af 34000000 		.4byte	.LVL52
 6411 04b3 5C000000 		.4byte	.LVL58
 6412 04b7 0500     		.2byte	0x5
 6413 04b9 76       		.byte	0x76
 6414 04ba 00       		.sleb128 0
 6415 04bb 33       		.byte	0x33
 6416 04bc 26       		.byte	0x26
 6417 04bd 9F       		.byte	0x9f
 6418 04be 5C000000 		.4byte	.LVL58
 6419 04c2 6A000000 		.4byte	.LVL60
 6420 04c6 0100     		.2byte	0x1
 6421 04c8 51       		.byte	0x51
 6422 04c9 6A000000 		.4byte	.LVL60
 6423 04cd 6C000000 		.4byte	.LVL61
 6424 04d1 0400     		.2byte	0x4
 6425 04d3 F3       		.byte	0xf3
 6426 04d4 01       		.uleb128 0x1
 6427 04d5 51       		.byte	0x51
 6428 04d6 9F       		.byte	0x9f
 6429 04d7 6C000000 		.4byte	.LVL61
 6430 04db 98000000 		.4byte	.LVL67
ARM GAS  C:\Users\strap\AppData\Local\Temp\ccvWLEyq.s 			page 139


 6431 04df 0500     		.2byte	0x5
 6432 04e1 76       		.byte	0x76
 6433 04e2 00       		.sleb128 0
 6434 04e3 32       		.byte	0x32
 6435 04e4 26       		.byte	0x26
 6436 04e5 9F       		.byte	0x9f
 6437 04e6 98000000 		.4byte	.LVL67
 6438 04ea A6000000 		.4byte	.LVL69
 6439 04ee 0100     		.2byte	0x1
 6440 04f0 51       		.byte	0x51
 6441 04f1 A6000000 		.4byte	.LVL69
 6442 04f5 B6000000 		.4byte	.LVL71
 6443 04f9 0400     		.2byte	0x4
 6444 04fb F3       		.byte	0xf3
 6445 04fc 01       		.uleb128 0x1
 6446 04fd 51       		.byte	0x51
 6447 04fe 9F       		.byte	0x9f
 6448 04ff B6000000 		.4byte	.LVL71
 6449 0503 E0000000 		.4byte	.LVL77
 6450 0507 0500     		.2byte	0x5
 6451 0509 76       		.byte	0x76
 6452 050a 00       		.sleb128 0
 6453 050b 31       		.byte	0x31
 6454 050c 26       		.byte	0x26
 6455 050d 9F       		.byte	0x9f
 6456 050e E0000000 		.4byte	.LVL77
 6457 0512 E6000000 		.4byte	.LVL78
 6458 0516 0100     		.2byte	0x1
 6459 0518 51       		.byte	0x51
 6460 0519 E6000000 		.4byte	.LVL78
 6461 051d F2000000 		.4byte	.LVL81
 6462 0521 0400     		.2byte	0x4
 6463 0523 F3       		.byte	0xf3
 6464 0524 01       		.uleb128 0x1
 6465 0525 51       		.byte	0x51
 6466 0526 9F       		.byte	0x9f
 6467 0527 F2000000 		.4byte	.LVL81
 6468 052b F6000000 		.4byte	.LVL83
 6469 052f 0500     		.2byte	0x5
 6470 0531 76       		.byte	0x76
 6471 0532 00       		.sleb128 0
 6472 0533 33       		.byte	0x33
 6473 0534 26       		.byte	0x26
 6474 0535 9F       		.byte	0x9f
 6475 0536 F6000000 		.4byte	.LVL83
 6476 053a F8000000 		.4byte	.LVL84
 6477 053e 0100     		.2byte	0x1
 6478 0540 51       		.byte	0x51
 6479 0541 00000000 		.4byte	0
 6480 0545 00000000 		.4byte	0
 6481              	.LLST21:
 6482 0549 00000000 		.4byte	.LVL44
 6483 054d 32000000 		.4byte	.LVL51
 6484 0551 0100     		.2byte	0x1
 6485 0553 52       		.byte	0x52
 6486 0554 32000000 		.4byte	.LVL51
 6487 0558 5C000000 		.4byte	.LVL58
ARM GAS  C:\Users\strap\AppData\Local\Temp\ccvWLEyq.s 			page 140


 6488 055c 0400     		.2byte	0x4
 6489 055e F3       		.byte	0xf3
 6490 055f 01       		.uleb128 0x1
 6491 0560 52       		.byte	0x52
 6492 0561 9F       		.byte	0x9f
 6493 0562 5C000000 		.4byte	.LVL58
 6494 0566 6C000000 		.4byte	.LVL61
 6495 056a 0100     		.2byte	0x1
 6496 056c 52       		.byte	0x52
 6497 056d 6C000000 		.4byte	.LVL61
 6498 0571 98000000 		.4byte	.LVL67
 6499 0575 0400     		.2byte	0x4
 6500 0577 F3       		.byte	0xf3
 6501 0578 01       		.uleb128 0x1
 6502 0579 52       		.byte	0x52
 6503 057a 9F       		.byte	0x9f
 6504 057b 98000000 		.4byte	.LVL67
 6505 057f A8000000 		.4byte	.LVL70
 6506 0583 0100     		.2byte	0x1
 6507 0585 52       		.byte	0x52
 6508 0586 A8000000 		.4byte	.LVL70
 6509 058a E0000000 		.4byte	.LVL77
 6510 058e 0400     		.2byte	0x4
 6511 0590 F3       		.byte	0xf3
 6512 0591 01       		.uleb128 0x1
 6513 0592 52       		.byte	0x52
 6514 0593 9F       		.byte	0x9f
 6515 0594 E0000000 		.4byte	.LVL77
 6516 0598 F2000000 		.4byte	.LVL81
 6517 059c 0100     		.2byte	0x1
 6518 059e 52       		.byte	0x52
 6519 059f F2000000 		.4byte	.LVL81
 6520 05a3 F6000000 		.4byte	.LVL83
 6521 05a7 0400     		.2byte	0x4
 6522 05a9 F3       		.byte	0xf3
 6523 05aa 01       		.uleb128 0x1
 6524 05ab 52       		.byte	0x52
 6525 05ac 9F       		.byte	0x9f
 6526 05ad F6000000 		.4byte	.LVL83
 6527 05b1 F8000000 		.4byte	.LVL84
 6528 05b5 0100     		.2byte	0x1
 6529 05b7 52       		.byte	0x52
 6530 05b8 F8000000 		.4byte	.LVL84
 6531 05bc 00010000 		.4byte	.LFE38
 6532 05c0 0400     		.2byte	0x4
 6533 05c2 F3       		.byte	0xf3
 6534 05c3 01       		.uleb128 0x1
 6535 05c4 52       		.byte	0x52
 6536 05c5 9F       		.byte	0x9f
 6537 05c6 00000000 		.4byte	0
 6538 05ca 00000000 		.4byte	0
 6539              	.LLST22:
 6540 05ce 0C000000 		.4byte	.LVL45
 6541 05d2 FC000000 		.4byte	.LVL85
 6542 05d6 0100     		.2byte	0x1
 6543 05d8 55       		.byte	0x55
 6544 05d9 00000000 		.4byte	0
ARM GAS  C:\Users\strap\AppData\Local\Temp\ccvWLEyq.s 			page 141


 6545 05dd 00000000 		.4byte	0
 6546              	.LLST23:
 6547 05e1 24000000 		.4byte	.LVL47
 6548 05e5 26000000 		.4byte	.LVL48
 6549 05e9 0100     		.2byte	0x1
 6550 05eb 51       		.byte	0x51
 6551 05ec 26000000 		.4byte	.LVL48
 6552 05f0 2A000000 		.4byte	.LVL50
 6553 05f4 0300     		.2byte	0x3
 6554 05f6 71       		.byte	0x71
 6555 05f7 7E       		.sleb128 -2
 6556 05f8 9F       		.byte	0x9f
 6557 05f9 00000000 		.4byte	0
 6558 05fd 00000000 		.4byte	0
 6559              	.LLST24:
 6560 0601 32000000 		.4byte	.LVL51
 6561 0605 4C000000 		.4byte	.LVL55
 6562 0609 0100     		.2byte	0x1
 6563 060b 52       		.byte	0x52
 6564 060c 4C000000 		.4byte	.LVL55
 6565 0610 5C000000 		.4byte	.LVL58
 6566 0614 0500     		.2byte	0x5
 6567 0616 76       		.byte	0x76
 6568 0617 00       		.sleb128 0
 6569 0618 37       		.byte	0x37
 6570 0619 1A       		.byte	0x1a
 6571 061a 9F       		.byte	0x9f
 6572 061b F2000000 		.4byte	.LVL81
 6573 061f F6000000 		.4byte	.LVL83
 6574 0623 0500     		.2byte	0x5
 6575 0625 76       		.byte	0x76
 6576 0626 00       		.sleb128 0
 6577 0627 37       		.byte	0x37
 6578 0628 1A       		.byte	0x1a
 6579 0629 9F       		.byte	0x9f
 6580 062a 00000000 		.4byte	0
 6581 062e 00000000 		.4byte	0
 6582              	.LLST25:
 6583 0632 44000000 		.4byte	.LVL53
 6584 0636 4A000000 		.4byte	.LVL54
 6585 063a 0100     		.2byte	0x1
 6586 063c 51       		.byte	0x51
 6587 063d 4A000000 		.4byte	.LVL54
 6588 0641 5A000000 		.4byte	.LVL57
 6589 0645 1600     		.2byte	0x16
 6590 0647 70       		.byte	0x70
 6591 0648 00       		.sleb128 0
 6592 0649 06       		.byte	0x6
 6593 064a 09       		.byte	0x9
 6594 064b EF       		.byte	0xef
 6595 064c 24       		.byte	0x24
 6596 064d 09       		.byte	0x9
 6597 064e F9       		.byte	0xf9
 6598 064f 25       		.byte	0x25
 6599 0650 23       		.byte	0x23
 6600 0651 07       		.uleb128 0x7
 6601 0652 33       		.byte	0x33
ARM GAS  C:\Users\strap\AppData\Local\Temp\ccvWLEyq.s 			page 142


 6602 0653 26       		.byte	0x26
 6603 0654 77       		.byte	0x77
 6604 0655 00       		.sleb128 0
 6605 0656 1E       		.byte	0x1e
 6606 0657 76       		.byte	0x76
 6607 0658 00       		.sleb128 0
 6608 0659 33       		.byte	0x33
 6609 065a 26       		.byte	0x26
 6610 065b 22       		.byte	0x22
 6611 065c 9F       		.byte	0x9f
 6612 065d 5A000000 		.4byte	.LVL57
 6613 0661 5C000000 		.4byte	.LVL58
 6614 0665 1600     		.2byte	0x16
 6615 0667 74       		.byte	0x74
 6616 0668 00       		.sleb128 0
 6617 0669 06       		.byte	0x6
 6618 066a 09       		.byte	0x9
 6619 066b EF       		.byte	0xef
 6620 066c 24       		.byte	0x24
 6621 066d 09       		.byte	0x9
 6622 066e F9       		.byte	0xf9
 6623 066f 25       		.byte	0x25
 6624 0670 23       		.byte	0x23
 6625 0671 07       		.uleb128 0x7
 6626 0672 33       		.byte	0x33
 6627 0673 26       		.byte	0x26
 6628 0674 77       		.byte	0x77
 6629 0675 00       		.sleb128 0
 6630 0676 1E       		.byte	0x1e
 6631 0677 76       		.byte	0x76
 6632 0678 00       		.sleb128 0
 6633 0679 33       		.byte	0x33
 6634 067a 26       		.byte	0x26
 6635 067b 22       		.byte	0x22
 6636 067c 9F       		.byte	0x9f
 6637 067d F2000000 		.4byte	.LVL81
 6638 0681 F4000000 		.4byte	.LVL82
 6639 0685 1600     		.2byte	0x16
 6640 0687 70       		.byte	0x70
 6641 0688 00       		.sleb128 0
 6642 0689 06       		.byte	0x6
 6643 068a 09       		.byte	0x9
 6644 068b EF       		.byte	0xef
 6645 068c 24       		.byte	0x24
 6646 068d 09       		.byte	0x9
 6647 068e F9       		.byte	0xf9
 6648 068f 25       		.byte	0x25
 6649 0690 23       		.byte	0x23
 6650 0691 07       		.uleb128 0x7
 6651 0692 33       		.byte	0x33
 6652 0693 26       		.byte	0x26
 6653 0694 77       		.byte	0x77
 6654 0695 00       		.sleb128 0
 6655 0696 1E       		.byte	0x1e
 6656 0697 76       		.byte	0x76
 6657 0698 00       		.sleb128 0
 6658 0699 33       		.byte	0x33
ARM GAS  C:\Users\strap\AppData\Local\Temp\ccvWLEyq.s 			page 143


 6659 069a 26       		.byte	0x26
 6660 069b 22       		.byte	0x22
 6661 069c 9F       		.byte	0x9f
 6662 069d F4000000 		.4byte	.LVL82
 6663 06a1 F6000000 		.4byte	.LVL83
 6664 06a5 1600     		.2byte	0x16
 6665 06a7 74       		.byte	0x74
 6666 06a8 00       		.sleb128 0
 6667 06a9 06       		.byte	0x6
 6668 06aa 09       		.byte	0x9
 6669 06ab EF       		.byte	0xef
 6670 06ac 24       		.byte	0x24
 6671 06ad 09       		.byte	0x9
 6672 06ae F9       		.byte	0xf9
 6673 06af 25       		.byte	0x25
 6674 06b0 23       		.byte	0x23
 6675 06b1 07       		.uleb128 0x7
 6676 06b2 33       		.byte	0x33
 6677 06b3 26       		.byte	0x26
 6678 06b4 77       		.byte	0x77
 6679 06b5 00       		.sleb128 0
 6680 06b6 1E       		.byte	0x1e
 6681 06b7 76       		.byte	0x76
 6682 06b8 00       		.sleb128 0
 6683 06b9 33       		.byte	0x33
 6684 06ba 26       		.byte	0x26
 6685 06bb 22       		.byte	0x22
 6686 06bc 9F       		.byte	0x9f
 6687 06bd 00000000 		.4byte	0
 6688 06c1 00000000 		.4byte	0
 6689              	.LLST26:
 6690 06c5 52000000 		.4byte	.LVL56
 6691 06c9 5C000000 		.4byte	.LVL58
 6692 06cd 0100     		.2byte	0x1
 6693 06cf 53       		.byte	0x53
 6694 06d0 F2000000 		.4byte	.LVL81
 6695 06d4 F6000000 		.4byte	.LVL83
 6696 06d8 0100     		.2byte	0x1
 6697 06da 53       		.byte	0x53
 6698 06db 00000000 		.4byte	0
 6699 06df 00000000 		.4byte	0
 6700              	.LLST27:
 6701 06e3 6C000000 		.4byte	.LVL61
 6702 06e7 86000000 		.4byte	.LVL64
 6703 06eb 0100     		.2byte	0x1
 6704 06ed 52       		.byte	0x52
 6705 06ee 86000000 		.4byte	.LVL64
 6706 06f2 98000000 		.4byte	.LVL67
 6707 06f6 0700     		.2byte	0x7
 6708 06f8 76       		.byte	0x76
 6709 06f9 00       		.sleb128 0
 6710 06fa 33       		.byte	0x33
 6711 06fb 1A       		.byte	0x1a
 6712 06fc 31       		.byte	0x31
 6713 06fd 24       		.byte	0x24
 6714 06fe 9F       		.byte	0x9f
 6715 06ff 00000000 		.4byte	0
ARM GAS  C:\Users\strap\AppData\Local\Temp\ccvWLEyq.s 			page 144


 6716 0703 00000000 		.4byte	0
 6717              	.LLST28:
 6718 0707 7E000000 		.4byte	.LVL62
 6719 070b 84000000 		.4byte	.LVL63
 6720 070f 0100     		.2byte	0x1
 6721 0711 51       		.byte	0x51
 6722 0712 84000000 		.4byte	.LVL63
 6723 0716 98000000 		.4byte	.LVL67
 6724 071a 1600     		.2byte	0x16
 6725 071c 74       		.byte	0x74
 6726 071d 00       		.sleb128 0
 6727 071e 06       		.byte	0x6
 6728 071f 09       		.byte	0x9
 6729 0720 EF       		.byte	0xef
 6730 0721 24       		.byte	0x24
 6731 0722 09       		.byte	0x9
 6732 0723 F9       		.byte	0xf9
 6733 0724 25       		.byte	0x25
 6734 0725 23       		.byte	0x23
 6735 0726 03       		.uleb128 0x3
 6736 0727 32       		.byte	0x32
 6737 0728 26       		.byte	0x26
 6738 0729 77       		.byte	0x77
 6739 072a 00       		.sleb128 0
 6740 072b 1E       		.byte	0x1e
 6741 072c 76       		.byte	0x76
 6742 072d 00       		.sleb128 0
 6743 072e 32       		.byte	0x32
 6744 072f 26       		.byte	0x26
 6745 0730 22       		.byte	0x22
 6746 0731 9F       		.byte	0x9f
 6747 0732 00000000 		.4byte	0
 6748 0736 00000000 		.4byte	0
 6749              	.LLST29:
 6750 073a 8C000000 		.4byte	.LVL65
 6751 073e 92000000 		.4byte	.LVL66
 6752 0742 0100     		.2byte	0x1
 6753 0744 53       		.byte	0x53
 6754 0745 92000000 		.4byte	.LVL66
 6755 0749 98000000 		.4byte	.LVL67
 6756 074d 2600     		.2byte	0x26
 6757 074f 33       		.byte	0x33
 6758 0750 71       		.byte	0x71
 6759 0751 00       		.sleb128 0
 6760 0752 24       		.byte	0x24
 6761 0753 74       		.byte	0x74
 6762 0754 00       		.sleb128 0
 6763 0755 06       		.byte	0x6
 6764 0756 09       		.byte	0x9
 6765 0757 EF       		.byte	0xef
 6766 0758 24       		.byte	0x24
 6767 0759 09       		.byte	0x9
 6768 075a F9       		.byte	0xf9
 6769 075b 25       		.byte	0x25
 6770 075c 23       		.byte	0x23
 6771 075d 03       		.uleb128 0x3
 6772 075e 32       		.byte	0x32
ARM GAS  C:\Users\strap\AppData\Local\Temp\ccvWLEyq.s 			page 145


 6773 075f 26       		.byte	0x26
 6774 0760 77       		.byte	0x77
 6775 0761 00       		.sleb128 0
 6776 0762 1E       		.byte	0x1e
 6777 0763 76       		.byte	0x76
 6778 0764 00       		.sleb128 0
 6779 0765 32       		.byte	0x32
 6780 0766 26       		.byte	0x26
 6781 0767 22       		.byte	0x22
 6782 0768 75       		.byte	0x75
 6783 0769 00       		.sleb128 0
 6784 076a 22       		.byte	0x22
 6785 076b 94       		.byte	0x94
 6786 076c 01       		.byte	0x1
 6787 076d 08       		.byte	0x8
 6788 076e FF       		.byte	0xff
 6789 076f 1A       		.byte	0x1a
 6790 0770 1A       		.byte	0x1a
 6791 0771 71       		.byte	0x71
 6792 0772 00       		.sleb128 0
 6793 0773 26       		.byte	0x26
 6794 0774 9F       		.byte	0x9f
 6795 0775 00000000 		.4byte	0
 6796 0779 00000000 		.4byte	0
 6797              	.LLST30:
 6798 077d B6000000 		.4byte	.LVL71
 6799 0781 D0000000 		.4byte	.LVL74
 6800 0785 0100     		.2byte	0x1
 6801 0787 52       		.byte	0x52
 6802 0788 D0000000 		.4byte	.LVL74
 6803 078c E0000000 		.4byte	.LVL77
 6804 0790 0700     		.2byte	0x7
 6805 0792 76       		.byte	0x76
 6806 0793 00       		.sleb128 0
 6807 0794 31       		.byte	0x31
 6808 0795 1A       		.byte	0x1a
 6809 0796 32       		.byte	0x32
 6810 0797 24       		.byte	0x24
 6811 0798 9F       		.byte	0x9f
 6812 0799 00000000 		.4byte	0
 6813 079d 00000000 		.4byte	0
 6814              	.LLST31:
 6815 07a1 C8000000 		.4byte	.LVL72
 6816 07a5 CE000000 		.4byte	.LVL73
 6817 07a9 0100     		.2byte	0x1
 6818 07ab 51       		.byte	0x51
 6819 07ac CE000000 		.4byte	.LVL73
 6820 07b0 E0000000 		.4byte	.LVL77
 6821 07b4 1600     		.2byte	0x16
 6822 07b6 74       		.byte	0x74
 6823 07b7 00       		.sleb128 0
 6824 07b8 06       		.byte	0x6
 6825 07b9 09       		.byte	0x9
 6826 07ba EF       		.byte	0xef
 6827 07bb 24       		.byte	0x24
 6828 07bc 09       		.byte	0x9
 6829 07bd F9       		.byte	0xf9
ARM GAS  C:\Users\strap\AppData\Local\Temp\ccvWLEyq.s 			page 146


 6830 07be 25       		.byte	0x25
 6831 07bf 23       		.byte	0x23
 6832 07c0 01       		.uleb128 0x1
 6833 07c1 31       		.byte	0x31
 6834 07c2 26       		.byte	0x26
 6835 07c3 77       		.byte	0x77
 6836 07c4 00       		.sleb128 0
 6837 07c5 1E       		.byte	0x1e
 6838 07c6 76       		.byte	0x76
 6839 07c7 00       		.sleb128 0
 6840 07c8 31       		.byte	0x31
 6841 07c9 26       		.byte	0x26
 6842 07ca 22       		.byte	0x22
 6843 07cb 9F       		.byte	0x9f
 6844 07cc 00000000 		.4byte	0
 6845 07d0 00000000 		.4byte	0
 6846              	.LLST32:
 6847 07d4 D6000000 		.4byte	.LVL75
 6848 07d8 DA000000 		.4byte	.LVL76
 6849 07dc 0100     		.2byte	0x1
 6850 07de 53       		.byte	0x53
 6851 07df DA000000 		.4byte	.LVL76
 6852 07e3 E0000000 		.4byte	.LVL77
 6853 07e7 2400     		.2byte	0x24
 6854 07e9 74       		.byte	0x74
 6855 07ea 00       		.sleb128 0
 6856 07eb 06       		.byte	0x6
 6857 07ec 09       		.byte	0x9
 6858 07ed EF       		.byte	0xef
 6859 07ee 24       		.byte	0x24
 6860 07ef 09       		.byte	0x9
 6861 07f0 F9       		.byte	0xf9
 6862 07f1 25       		.byte	0x25
 6863 07f2 23       		.byte	0x23
 6864 07f3 01       		.uleb128 0x1
 6865 07f4 31       		.byte	0x31
 6866 07f5 26       		.byte	0x26
 6867 07f6 77       		.byte	0x77
 6868 07f7 00       		.sleb128 0
 6869 07f8 1E       		.byte	0x1e
 6870 07f9 76       		.byte	0x76
 6871 07fa 00       		.sleb128 0
 6872 07fb 31       		.byte	0x31
 6873 07fc 26       		.byte	0x26
 6874 07fd 22       		.byte	0x22
 6875 07fe 75       		.byte	0x75
 6876 07ff 00       		.sleb128 0
 6877 0800 22       		.byte	0x22
 6878 0801 94       		.byte	0x94
 6879 0802 01       		.byte	0x1
 6880 0803 08       		.byte	0x8
 6881 0804 FF       		.byte	0xff
 6882 0805 1A       		.byte	0x1a
 6883 0806 72       		.byte	0x72
 6884 0807 00       		.sleb128 0
 6885 0808 1A       		.byte	0x1a
 6886 0809 71       		.byte	0x71
ARM GAS  C:\Users\strap\AppData\Local\Temp\ccvWLEyq.s 			page 147


 6887 080a 00       		.sleb128 0
 6888 080b 26       		.byte	0x26
 6889 080c 9F       		.byte	0x9f
 6890 080d 00000000 		.4byte	0
 6891 0811 00000000 		.4byte	0
 6892              	.LLST33:
 6893 0815 EE000000 		.4byte	.LVL79
 6894 0819 F2000000 		.4byte	.LVL81
 6895 081d 0100     		.2byte	0x1
 6896 081f 51       		.byte	0x51
 6897 0820 00000000 		.4byte	0
 6898 0824 00000000 		.4byte	0
 6899              	.LLST34:
 6900 0828 00000000 		.4byte	.LVL86
 6901 082c 1A000000 		.4byte	.LVL88
 6902 0830 0100     		.2byte	0x1
 6903 0832 50       		.byte	0x50
 6904 0833 1A000000 		.4byte	.LVL88
 6905 0837 3E000000 		.4byte	.LVL93
 6906 083b 0100     		.2byte	0x1
 6907 083d 58       		.byte	0x58
 6908 083e 3E000000 		.4byte	.LVL93
 6909 0842 4A000000 		.4byte	.LVL96
 6910 0846 0100     		.2byte	0x1
 6911 0848 50       		.byte	0x50
 6912 0849 4A000000 		.4byte	.LVL96
 6913 084d 76000000 		.4byte	.LVL100
 6914 0851 0400     		.2byte	0x4
 6915 0853 F3       		.byte	0xf3
 6916 0854 01       		.uleb128 0x1
 6917 0855 50       		.byte	0x50
 6918 0856 9F       		.byte	0x9f
 6919 0857 76000000 		.4byte	.LVL100
 6920 085b 84000000 		.4byte	.LVL103
 6921 085f 0100     		.2byte	0x1
 6922 0861 50       		.byte	0x50
 6923 0862 84000000 		.4byte	.LVL103
 6924 0866 B0000000 		.4byte	.LVL107
 6925 086a 0400     		.2byte	0x4
 6926 086c F3       		.byte	0xf3
 6927 086d 01       		.uleb128 0x1
 6928 086e 50       		.byte	0x50
 6929 086f 9F       		.byte	0x9f
 6930 0870 B0000000 		.4byte	.LVL107
 6931 0874 C0000000 		.4byte	.LVL110
 6932 0878 0100     		.2byte	0x1
 6933 087a 50       		.byte	0x50
 6934 087b C0000000 		.4byte	.LVL110
 6935 087f EC000000 		.4byte	.LVL114
 6936 0883 0400     		.2byte	0x4
 6937 0885 F3       		.byte	0xf3
 6938 0886 01       		.uleb128 0x1
 6939 0887 50       		.byte	0x50
 6940 0888 9F       		.byte	0x9f
 6941 0889 EC000000 		.4byte	.LVL114
 6942 088d F2000000 		.4byte	.LVL115
 6943 0891 0100     		.2byte	0x1
ARM GAS  C:\Users\strap\AppData\Local\Temp\ccvWLEyq.s 			page 148


 6944 0893 50       		.byte	0x50
 6945 0894 F2000000 		.4byte	.LVL115
 6946 0898 00010000 		.4byte	.LFE39
 6947 089c 0400     		.2byte	0x4
 6948 089e F3       		.byte	0xf3
 6949 089f 01       		.uleb128 0x1
 6950 08a0 50       		.byte	0x50
 6951 08a1 9F       		.byte	0x9f
 6952 08a2 00000000 		.4byte	0
 6953 08a6 00000000 		.4byte	0
 6954              	.LLST35:
 6955 08aa 00000000 		.4byte	.LVL86
 6956 08ae 21000000 		.4byte	.LVL89-1
 6957 08b2 0100     		.2byte	0x1
 6958 08b4 51       		.byte	0x51
 6959 08b5 21000000 		.4byte	.LVL89-1
 6960 08b9 3E000000 		.4byte	.LVL93
 6961 08bd 0400     		.2byte	0x4
 6962 08bf F3       		.byte	0xf3
 6963 08c0 01       		.uleb128 0x1
 6964 08c1 51       		.byte	0x51
 6965 08c2 9F       		.byte	0x9f
 6966 08c3 3E000000 		.4byte	.LVL93
 6967 08c7 48000000 		.4byte	.LVL95
 6968 08cb 0100     		.2byte	0x1
 6969 08cd 51       		.byte	0x51
 6970 08ce 48000000 		.4byte	.LVL95
 6971 08d2 5A000000 		.4byte	.LVL98
 6972 08d6 0500     		.2byte	0x5
 6973 08d8 71       		.byte	0x71
 6974 08d9 00       		.sleb128 0
 6975 08da 33       		.byte	0x33
 6976 08db 26       		.byte	0x26
 6977 08dc 9F       		.byte	0x9f
 6978 08dd 76000000 		.4byte	.LVL100
 6979 08e1 82000000 		.4byte	.LVL102
 6980 08e5 0100     		.2byte	0x1
 6981 08e7 51       		.byte	0x51
 6982 08e8 82000000 		.4byte	.LVL102
 6983 08ec 94000000 		.4byte	.LVL105
 6984 08f0 0500     		.2byte	0x5
 6985 08f2 71       		.byte	0x71
 6986 08f3 00       		.sleb128 0
 6987 08f4 32       		.byte	0x32
 6988 08f5 26       		.byte	0x26
 6989 08f6 9F       		.byte	0x9f
 6990 08f7 B0000000 		.4byte	.LVL107
 6991 08fb BE000000 		.4byte	.LVL109
 6992 08ff 0100     		.2byte	0x1
 6993 0901 51       		.byte	0x51
 6994 0902 BE000000 		.4byte	.LVL109
 6995 0906 D0000000 		.4byte	.LVL112
 6996 090a 0500     		.2byte	0x5
 6997 090c 71       		.byte	0x71
 6998 090d 00       		.sleb128 0
 6999 090e 31       		.byte	0x31
 7000 090f 26       		.byte	0x26
ARM GAS  C:\Users\strap\AppData\Local\Temp\ccvWLEyq.s 			page 149


 7001 0910 9F       		.byte	0x9f
 7002 0911 EC000000 		.4byte	.LVL114
 7003 0915 FA000000 		.4byte	.LVL116
 7004 0919 0100     		.2byte	0x1
 7005 091b 51       		.byte	0x51
 7006 091c FA000000 		.4byte	.LVL116
 7007 0920 00010000 		.4byte	.LFE39
 7008 0924 0400     		.2byte	0x4
 7009 0926 F3       		.byte	0xf3
 7010 0927 01       		.uleb128 0x1
 7011 0928 51       		.byte	0x51
 7012 0929 9F       		.byte	0x9f
 7013 092a 00000000 		.4byte	0
 7014 092e 00000000 		.4byte	0
 7015              	.LLST36:
 7016 0932 00000000 		.4byte	.LVL86
 7017 0936 21000000 		.4byte	.LVL89-1
 7018 093a 0100     		.2byte	0x1
 7019 093c 52       		.byte	0x52
 7020 093d 21000000 		.4byte	.LVL89-1
 7021 0941 3E000000 		.4byte	.LVL93
 7022 0945 0400     		.2byte	0x4
 7023 0947 F3       		.byte	0xf3
 7024 0948 01       		.uleb128 0x1
 7025 0949 52       		.byte	0x52
 7026 094a 9F       		.byte	0x9f
 7027 094b 3E000000 		.4byte	.LVL93
 7028 094f 56000000 		.4byte	.LVL97
 7029 0953 0100     		.2byte	0x1
 7030 0955 52       		.byte	0x52
 7031 0956 56000000 		.4byte	.LVL97
 7032 095a 76000000 		.4byte	.LVL100
 7033 095e 0400     		.2byte	0x4
 7034 0960 F3       		.byte	0xf3
 7035 0961 01       		.uleb128 0x1
 7036 0962 52       		.byte	0x52
 7037 0963 9F       		.byte	0x9f
 7038 0964 76000000 		.4byte	.LVL100
 7039 0968 90000000 		.4byte	.LVL104
 7040 096c 0100     		.2byte	0x1
 7041 096e 52       		.byte	0x52
 7042 096f 90000000 		.4byte	.LVL104
 7043 0973 B0000000 		.4byte	.LVL107
 7044 0977 0400     		.2byte	0x4
 7045 0979 F3       		.byte	0xf3
 7046 097a 01       		.uleb128 0x1
 7047 097b 52       		.byte	0x52
 7048 097c 9F       		.byte	0x9f
 7049 097d B0000000 		.4byte	.LVL107
 7050 0981 CC000000 		.4byte	.LVL111
 7051 0985 0100     		.2byte	0x1
 7052 0987 52       		.byte	0x52
 7053 0988 CC000000 		.4byte	.LVL111
 7054 098c EC000000 		.4byte	.LVL114
 7055 0990 0400     		.2byte	0x4
 7056 0992 F3       		.byte	0xf3
 7057 0993 01       		.uleb128 0x1
ARM GAS  C:\Users\strap\AppData\Local\Temp\ccvWLEyq.s 			page 150


 7058 0994 52       		.byte	0x52
 7059 0995 9F       		.byte	0x9f
 7060 0996 EC000000 		.4byte	.LVL114
 7061 099a 00010000 		.4byte	.LFE39
 7062 099e 0100     		.2byte	0x1
 7063 09a0 52       		.byte	0x52
 7064 09a1 00000000 		.4byte	0
 7065 09a5 00000000 		.4byte	0
 7066              	.LLST37:
 7067 09a9 00000000 		.4byte	.LVL86
 7068 09ad 21000000 		.4byte	.LVL89-1
 7069 09b1 0100     		.2byte	0x1
 7070 09b3 53       		.byte	0x53
 7071 09b4 21000000 		.4byte	.LVL89-1
 7072 09b8 3E000000 		.4byte	.LVL93
 7073 09bc 0400     		.2byte	0x4
 7074 09be F3       		.byte	0xf3
 7075 09bf 01       		.uleb128 0x1
 7076 09c0 53       		.byte	0x53
 7077 09c1 9F       		.byte	0x9f
 7078 09c2 3E000000 		.4byte	.LVL93
 7079 09c6 44000000 		.4byte	.LVL94
 7080 09ca 0100     		.2byte	0x1
 7081 09cc 53       		.byte	0x53
 7082 09cd 44000000 		.4byte	.LVL94
 7083 09d1 76000000 		.4byte	.LVL100
 7084 09d5 0100     		.2byte	0x1
 7085 09d7 54       		.byte	0x54
 7086 09d8 76000000 		.4byte	.LVL100
 7087 09dc 7C000000 		.4byte	.LVL101
 7088 09e0 0100     		.2byte	0x1
 7089 09e2 53       		.byte	0x53
 7090 09e3 7C000000 		.4byte	.LVL101
 7091 09e7 B0000000 		.4byte	.LVL107
 7092 09eb 0100     		.2byte	0x1
 7093 09ed 54       		.byte	0x54
 7094 09ee B0000000 		.4byte	.LVL107
 7095 09f2 B6000000 		.4byte	.LVL108
 7096 09f6 0100     		.2byte	0x1
 7097 09f8 53       		.byte	0x53
 7098 09f9 B6000000 		.4byte	.LVL108
 7099 09fd EC000000 		.4byte	.LVL114
 7100 0a01 0100     		.2byte	0x1
 7101 0a03 54       		.byte	0x54
 7102 0a04 EC000000 		.4byte	.LVL114
 7103 0a08 00010000 		.4byte	.LFE39
 7104 0a0c 0100     		.2byte	0x1
 7105 0a0e 53       		.byte	0x53
 7106 0a0f 00000000 		.4byte	0
 7107 0a13 00000000 		.4byte	0
 7108              	.LLST38:
 7109 0a17 26000000 		.4byte	.LVL90
 7110 0a1b 36000000 		.4byte	.LVL92
 7111 0a1f 0100     		.2byte	0x1
 7112 0a21 50       		.byte	0x50
 7113 0a22 00000000 		.4byte	0
 7114 0a26 00000000 		.4byte	0
ARM GAS  C:\Users\strap\AppData\Local\Temp\ccvWLEyq.s 			page 151


 7115              	.LLST39:
 7116 0a2a 32000000 		.4byte	.LVL91
 7117 0a2e 36000000 		.4byte	.LVL92
 7118 0a32 0600     		.2byte	0x6
 7119 0a34 70       		.byte	0x70
 7120 0a35 00       		.sleb128 0
 7121 0a36 71       		.byte	0x71
 7122 0a37 00       		.sleb128 0
 7123 0a38 1E       		.byte	0x1e
 7124 0a39 9F       		.byte	0x9f
 7125 0a3a 00000000 		.4byte	0
 7126 0a3e 00000000 		.4byte	0
 7127              	.LLST40:
 7128 0a42 48000000 		.4byte	.LVL95
 7129 0a46 60000000 		.4byte	.LVL99
 7130 0a4a 0100     		.2byte	0x1
 7131 0a4c 53       		.byte	0x53
 7132 0a4d 00000000 		.4byte	0
 7133 0a51 00000000 		.4byte	0
 7134              	.LLST41:
 7135 0a55 5A000000 		.4byte	.LVL98
 7136 0a59 76000000 		.4byte	.LVL100
 7137 0a5d 0100     		.2byte	0x1
 7138 0a5f 51       		.byte	0x51
 7139 0a60 00000000 		.4byte	0
 7140 0a64 00000000 		.4byte	0
 7141              	.LLST42:
 7142 0a68 82000000 		.4byte	.LVL102
 7143 0a6c 9A000000 		.4byte	.LVL106
 7144 0a70 0100     		.2byte	0x1
 7145 0a72 53       		.byte	0x53
 7146 0a73 00000000 		.4byte	0
 7147 0a77 00000000 		.4byte	0
 7148              	.LLST43:
 7149 0a7b 94000000 		.4byte	.LVL105
 7150 0a7f B0000000 		.4byte	.LVL107
 7151 0a83 0100     		.2byte	0x1
 7152 0a85 51       		.byte	0x51
 7153 0a86 00000000 		.4byte	0
 7154 0a8a 00000000 		.4byte	0
 7155              	.LLST44:
 7156 0a8e BE000000 		.4byte	.LVL109
 7157 0a92 D6000000 		.4byte	.LVL113
 7158 0a96 0100     		.2byte	0x1
 7159 0a98 53       		.byte	0x53
 7160 0a99 00000000 		.4byte	0
 7161 0a9d 00000000 		.4byte	0
 7162              	.LLST45:
 7163 0aa1 D0000000 		.4byte	.LVL112
 7164 0aa5 EC000000 		.4byte	.LVL114
 7165 0aa9 0100     		.2byte	0x1
 7166 0aab 51       		.byte	0x51
 7167 0aac 00000000 		.4byte	0
 7168 0ab0 00000000 		.4byte	0
 7169              	.LLST46:
 7170 0ab4 FA000000 		.4byte	.LVL116
 7171 0ab8 FC000000 		.4byte	.LVL117
ARM GAS  C:\Users\strap\AppData\Local\Temp\ccvWLEyq.s 			page 152


 7172 0abc 0100     		.2byte	0x1
 7173 0abe 51       		.byte	0x51
 7174 0abf 00000000 		.4byte	0
 7175 0ac3 00000000 		.4byte	0
 7176              	.LLST47:
 7177 0ac7 00000000 		.4byte	.LVL118
 7178 0acb 20000000 		.4byte	.LVL120
 7179 0acf 0100     		.2byte	0x1
 7180 0ad1 50       		.byte	0x50
 7181 0ad2 20000000 		.4byte	.LVL120
 7182 0ad6 4E000000 		.4byte	.LVL130
 7183 0ada 0100     		.2byte	0x1
 7184 0adc 57       		.byte	0x57
 7185 0add 4E000000 		.4byte	.LVL130
 7186 0ae1 54000000 		.4byte	.LVL131
 7187 0ae5 0100     		.2byte	0x1
 7188 0ae7 50       		.byte	0x50
 7189 0ae8 54000000 		.4byte	.LVL131
 7190 0aec 84000000 		.4byte	.LVL142
 7191 0af0 0100     		.2byte	0x1
 7192 0af2 57       		.byte	0x57
 7193 0af3 84000000 		.4byte	.LVL142
 7194 0af7 90000000 		.4byte	.LVL144
 7195 0afb 0100     		.2byte	0x1
 7196 0afd 50       		.byte	0x50
 7197 0afe 90000000 		.4byte	.LVL144
 7198 0b02 C6000000 		.4byte	.LVL148
 7199 0b06 0100     		.2byte	0x1
 7200 0b08 57       		.byte	0x57
 7201 0b09 C6000000 		.4byte	.LVL148
 7202 0b0d D4000000 		.4byte	.LVL150
 7203 0b11 0100     		.2byte	0x1
 7204 0b13 50       		.byte	0x50
 7205 0b14 D4000000 		.4byte	.LVL150
 7206 0b18 0A010000 		.4byte	.LVL154
 7207 0b1c 0100     		.2byte	0x1
 7208 0b1e 57       		.byte	0x57
 7209 0b1f 0A010000 		.4byte	.LVL154
 7210 0b23 34010000 		.4byte	.LVL158
 7211 0b27 0100     		.2byte	0x1
 7212 0b29 50       		.byte	0x50
 7213 0b2a 34010000 		.4byte	.LVL158
 7214 0b2e 50010000 		.4byte	.LVL160
 7215 0b32 0100     		.2byte	0x1
 7216 0b34 57       		.byte	0x57
 7217 0b35 50010000 		.4byte	.LVL160
 7218 0b39 68010000 		.4byte	.LVL165
 7219 0b3d 0100     		.2byte	0x1
 7220 0b3f 50       		.byte	0x50
 7221 0b40 68010000 		.4byte	.LVL165
 7222 0b44 6C010000 		.4byte	.LFE40
 7223 0b48 0100     		.2byte	0x1
 7224 0b4a 57       		.byte	0x57
 7225 0b4b 00000000 		.4byte	0
 7226 0b4f 00000000 		.4byte	0
 7227              	.LLST48:
 7228 0b53 00000000 		.4byte	.LVL118
ARM GAS  C:\Users\strap\AppData\Local\Temp\ccvWLEyq.s 			page 153


 7229 0b57 27000000 		.4byte	.LVL121-1
 7230 0b5b 0100     		.2byte	0x1
 7231 0b5d 51       		.byte	0x51
 7232 0b5e 27000000 		.4byte	.LVL121-1
 7233 0b62 4E000000 		.4byte	.LVL130
 7234 0b66 0400     		.2byte	0x4
 7235 0b68 F3       		.byte	0xf3
 7236 0b69 01       		.uleb128 0x1
 7237 0b6a 51       		.byte	0x51
 7238 0b6b 9F       		.byte	0x9f
 7239 0b6c 4E000000 		.4byte	.LVL130
 7240 0b70 5B000000 		.4byte	.LVL132-1
 7241 0b74 0100     		.2byte	0x1
 7242 0b76 51       		.byte	0x51
 7243 0b77 5B000000 		.4byte	.LVL132-1
 7244 0b7b 84000000 		.4byte	.LVL142
 7245 0b7f 0400     		.2byte	0x4
 7246 0b81 F3       		.byte	0xf3
 7247 0b82 01       		.uleb128 0x1
 7248 0b83 51       		.byte	0x51
 7249 0b84 9F       		.byte	0x9f
 7250 0b85 84000000 		.4byte	.LVL142
 7251 0b89 90000000 		.4byte	.LVL144
 7252 0b8d 0100     		.2byte	0x1
 7253 0b8f 51       		.byte	0x51
 7254 0b90 90000000 		.4byte	.LVL144
 7255 0b94 A4000000 		.4byte	.LVL146
 7256 0b98 0500     		.2byte	0x5
 7257 0b9a 71       		.byte	0x71
 7258 0b9b 00       		.sleb128 0
 7259 0b9c 33       		.byte	0x33
 7260 0b9d 26       		.byte	0x26
 7261 0b9e 9F       		.byte	0x9f
 7262 0b9f C6000000 		.4byte	.LVL148
 7263 0ba3 D4000000 		.4byte	.LVL150
 7264 0ba7 0100     		.2byte	0x1
 7265 0ba9 51       		.byte	0x51
 7266 0baa D4000000 		.4byte	.LVL150
 7267 0bae E8000000 		.4byte	.LVL152
 7268 0bb2 0500     		.2byte	0x5
 7269 0bb4 71       		.byte	0x71
 7270 0bb5 00       		.sleb128 0
 7271 0bb6 32       		.byte	0x32
 7272 0bb7 26       		.byte	0x26
 7273 0bb8 9F       		.byte	0x9f
 7274 0bb9 0A010000 		.4byte	.LVL154
 7275 0bbd 1A010000 		.4byte	.LVL156
 7276 0bc1 0100     		.2byte	0x1
 7277 0bc3 51       		.byte	0x51
 7278 0bc4 1A010000 		.4byte	.LVL156
 7279 0bc8 2C010000 		.4byte	.LVL157
 7280 0bcc 0500     		.2byte	0x5
 7281 0bce 75       		.byte	0x75
 7282 0bcf 00       		.sleb128 0
 7283 0bd0 31       		.byte	0x31
 7284 0bd1 26       		.byte	0x26
 7285 0bd2 9F       		.byte	0x9f
ARM GAS  C:\Users\strap\AppData\Local\Temp\ccvWLEyq.s 			page 154


 7286 0bd3 50010000 		.4byte	.LVL160
 7287 0bd7 68010000 		.4byte	.LVL165
 7288 0bdb 0100     		.2byte	0x1
 7289 0bdd 51       		.byte	0x51
 7290 0bde 00000000 		.4byte	0
 7291 0be2 00000000 		.4byte	0
 7292              	.LLST49:
 7293 0be6 00000000 		.4byte	.LVL118
 7294 0bea 27000000 		.4byte	.LVL121-1
 7295 0bee 0100     		.2byte	0x1
 7296 0bf0 52       		.byte	0x52
 7297 0bf1 27000000 		.4byte	.LVL121-1
 7298 0bf5 4E000000 		.4byte	.LVL130
 7299 0bf9 0400     		.2byte	0x4
 7300 0bfb F3       		.byte	0xf3
 7301 0bfc 01       		.uleb128 0x1
 7302 0bfd 52       		.byte	0x52
 7303 0bfe 9F       		.byte	0x9f
 7304 0bff 4E000000 		.4byte	.LVL130
 7305 0c03 5B000000 		.4byte	.LVL132-1
 7306 0c07 0100     		.2byte	0x1
 7307 0c09 52       		.byte	0x52
 7308 0c0a 5B000000 		.4byte	.LVL132-1
 7309 0c0e 84000000 		.4byte	.LVL142
 7310 0c12 0400     		.2byte	0x4
 7311 0c14 F3       		.byte	0xf3
 7312 0c15 01       		.uleb128 0x1
 7313 0c16 52       		.byte	0x52
 7314 0c17 9F       		.byte	0x9f
 7315 0c18 84000000 		.4byte	.LVL142
 7316 0c1c 8C000000 		.4byte	.LVL143
 7317 0c20 0100     		.2byte	0x1
 7318 0c22 52       		.byte	0x52
 7319 0c23 8C000000 		.4byte	.LVL143
 7320 0c27 C6000000 		.4byte	.LVL148
 7321 0c2b 0400     		.2byte	0x4
 7322 0c2d F3       		.byte	0xf3
 7323 0c2e 01       		.uleb128 0x1
 7324 0c2f 52       		.byte	0x52
 7325 0c30 9F       		.byte	0x9f
 7326 0c31 C6000000 		.4byte	.LVL148
 7327 0c35 CE000000 		.4byte	.LVL149
 7328 0c39 0100     		.2byte	0x1
 7329 0c3b 52       		.byte	0x52
 7330 0c3c CE000000 		.4byte	.LVL149
 7331 0c40 0A010000 		.4byte	.LVL154
 7332 0c44 0400     		.2byte	0x4
 7333 0c46 F3       		.byte	0xf3
 7334 0c47 01       		.uleb128 0x1
 7335 0c48 52       		.byte	0x52
 7336 0c49 9F       		.byte	0x9f
 7337 0c4a 0A010000 		.4byte	.LVL154
 7338 0c4e 12010000 		.4byte	.LVL155
 7339 0c52 0100     		.2byte	0x1
 7340 0c54 52       		.byte	0x52
 7341 0c55 12010000 		.4byte	.LVL155
 7342 0c59 50010000 		.4byte	.LVL160
ARM GAS  C:\Users\strap\AppData\Local\Temp\ccvWLEyq.s 			page 155


 7343 0c5d 0400     		.2byte	0x4
 7344 0c5f F3       		.byte	0xf3
 7345 0c60 01       		.uleb128 0x1
 7346 0c61 52       		.byte	0x52
 7347 0c62 9F       		.byte	0x9f
 7348 0c63 50010000 		.4byte	.LVL160
 7349 0c67 56010000 		.4byte	.LVL162
 7350 0c6b 0100     		.2byte	0x1
 7351 0c6d 52       		.byte	0x52
 7352 0c6e 56010000 		.4byte	.LVL162
 7353 0c72 6C010000 		.4byte	.LFE40
 7354 0c76 0400     		.2byte	0x4
 7355 0c78 F3       		.byte	0xf3
 7356 0c79 01       		.uleb128 0x1
 7357 0c7a 52       		.byte	0x52
 7358 0c7b 9F       		.byte	0x9f
 7359 0c7c 00000000 		.4byte	0
 7360 0c80 00000000 		.4byte	0
 7361              	.LLST50:
 7362 0c84 10000000 		.4byte	.LVL119
 7363 0c88 8C000000 		.4byte	.LVL143
 7364 0c8c 0100     		.2byte	0x1
 7365 0c8e 54       		.byte	0x54
 7366 0c8f 8C000000 		.4byte	.LVL143
 7367 0c93 C6000000 		.4byte	.LVL148
 7368 0c97 0100     		.2byte	0x1
 7369 0c99 52       		.byte	0x52
 7370 0c9a C6000000 		.4byte	.LVL148
 7371 0c9e CE000000 		.4byte	.LVL149
 7372 0ca2 0100     		.2byte	0x1
 7373 0ca4 54       		.byte	0x54
 7374 0ca5 CE000000 		.4byte	.LVL149
 7375 0ca9 0A010000 		.4byte	.LVL154
 7376 0cad 0100     		.2byte	0x1
 7377 0caf 52       		.byte	0x52
 7378 0cb0 0A010000 		.4byte	.LVL154
 7379 0cb4 12010000 		.4byte	.LVL155
 7380 0cb8 0100     		.2byte	0x1
 7381 0cba 54       		.byte	0x54
 7382 0cbb 12010000 		.4byte	.LVL155
 7383 0cbf 50010000 		.4byte	.LVL160
 7384 0cc3 0100     		.2byte	0x1
 7385 0cc5 52       		.byte	0x52
 7386 0cc6 50010000 		.4byte	.LVL160
 7387 0cca 54010000 		.4byte	.LVL161
 7388 0cce 0100     		.2byte	0x1
 7389 0cd0 54       		.byte	0x54
 7390 0cd1 54010000 		.4byte	.LVL161
 7391 0cd5 68010000 		.4byte	.LVL165
 7392 0cd9 0400     		.2byte	0x4
 7393 0cdb 74       		.byte	0x74
 7394 0cdc 8008     		.sleb128 1024
 7395 0cde 9F       		.byte	0x9f
 7396 0cdf 00000000 		.4byte	0
 7397 0ce3 00000000 		.4byte	0
 7398              	.LLST51:
 7399 0ce7 2C000000 		.4byte	.LVL122
ARM GAS  C:\Users\strap\AppData\Local\Temp\ccvWLEyq.s 			page 156


 7400 0ceb 3E000000 		.4byte	.LVL126
 7401 0cef 0100     		.2byte	0x1
 7402 0cf1 50       		.byte	0x50
 7403 0cf2 00000000 		.4byte	0
 7404 0cf6 00000000 		.4byte	0
 7405              	.LLST52:
 7406 0cfa 36000000 		.4byte	.LVL123
 7407 0cfe 3A000000 		.4byte	.LVL124
 7408 0d02 0600     		.2byte	0x6
 7409 0d04 70       		.byte	0x70
 7410 0d05 00       		.sleb128 0
 7411 0d06 72       		.byte	0x72
 7412 0d07 00       		.sleb128 0
 7413 0d08 1E       		.byte	0x1e
 7414 0d09 9F       		.byte	0x9f
 7415 0d0a 3A000000 		.4byte	.LVL124
 7416 0d0e 3E000000 		.4byte	.LVL126
 7417 0d12 1300     		.2byte	0x13
 7418 0d14 77       		.byte	0x77
 7419 0d15 00       		.sleb128 0
 7420 0d16 06       		.byte	0x6
 7421 0d17 09       		.byte	0x9
 7422 0d18 EF       		.byte	0xef
 7423 0d19 24       		.byte	0x24
 7424 0d1a 09       		.byte	0x9
 7425 0d1b F9       		.byte	0xf9
 7426 0d1c 25       		.byte	0x25
 7427 0d1d 76       		.byte	0x76
 7428 0d1e 00       		.sleb128 0
 7429 0d1f 1E       		.byte	0x1e
 7430 0d20 75       		.byte	0x75
 7431 0d21 00       		.sleb128 0
 7432 0d22 22       		.byte	0x22
 7433 0d23 70       		.byte	0x70
 7434 0d24 00       		.sleb128 0
 7435 0d25 1E       		.byte	0x1e
 7436 0d26 9F       		.byte	0x9f
 7437 0d27 00000000 		.4byte	0
 7438 0d2b 00000000 		.4byte	0
 7439              	.LLST53:
 7440 0d2f 3A000000 		.4byte	.LVL124
 7441 0d33 4E000000 		.4byte	.LVL130
 7442 0d37 0100     		.2byte	0x1
 7443 0d39 50       		.byte	0x50
 7444 0d3a 00000000 		.4byte	0
 7445 0d3e 00000000 		.4byte	0
 7446              	.LLST54:
 7447 0d42 3A000000 		.4byte	.LVL124
 7448 0d46 3C000000 		.4byte	.LVL125
 7449 0d4a 0300     		.2byte	0x3
 7450 0d4c 91       		.byte	0x91
 7451 0d4d 64       		.sleb128 -28
 7452 0d4e 9F       		.byte	0x9f
 7453 0d4f 3C000000 		.4byte	.LVL125
 7454 0d53 3E000000 		.4byte	.LVL126
 7455 0d57 0100     		.2byte	0x1
 7456 0d59 53       		.byte	0x53
ARM GAS  C:\Users\strap\AppData\Local\Temp\ccvWLEyq.s 			page 157


 7457 0d5a 3E000000 		.4byte	.LVL126
 7458 0d5e 4E000000 		.4byte	.LVL130
 7459 0d62 0300     		.2byte	0x3
 7460 0d64 91       		.byte	0x91
 7461 0d65 64       		.sleb128 -28
 7462 0d66 9F       		.byte	0x9f
 7463 0d67 00000000 		.4byte	0
 7464 0d6b 00000000 		.4byte	0
 7465              	.LLST55:
 7466 0d6f 3A000000 		.4byte	.LVL124
 7467 0d73 3E000000 		.4byte	.LVL126
 7468 0d77 0100     		.2byte	0x1
 7469 0d79 52       		.byte	0x52
 7470 0d7a 00000000 		.4byte	0
 7471 0d7e 00000000 		.4byte	0
 7472              	.LLST56:
 7473 0d82 3A000000 		.4byte	.LVL124
 7474 0d86 4E000000 		.4byte	.LVL130
 7475 0d8a 0100     		.2byte	0x1
 7476 0d8c 52       		.byte	0x52
 7477 0d8d 00000000 		.4byte	0
 7478 0d91 00000000 		.4byte	0
 7479              	.LLST57:
 7480 0d95 3A000000 		.4byte	.LVL124
 7481 0d99 3C000000 		.4byte	.LVL125
 7482 0d9d 0300     		.2byte	0x3
 7483 0d9f 91       		.byte	0x91
 7484 0da0 64       		.sleb128 -28
 7485 0da1 9F       		.byte	0x9f
 7486 0da2 3C000000 		.4byte	.LVL125
 7487 0da6 42000000 		.4byte	.LVL127
 7488 0daa 0100     		.2byte	0x1
 7489 0dac 53       		.byte	0x53
 7490 0dad 42000000 		.4byte	.LVL127
 7491 0db1 46000000 		.4byte	.LVL128
 7492 0db5 0300     		.2byte	0x3
 7493 0db7 73       		.byte	0x73
 7494 0db8 7F       		.sleb128 -1
 7495 0db9 9F       		.byte	0x9f
 7496 0dba 46000000 		.4byte	.LVL128
 7497 0dbe 4E000000 		.4byte	.LVL130
 7498 0dc2 0100     		.2byte	0x1
 7499 0dc4 53       		.byte	0x53
 7500 0dc5 00000000 		.4byte	0
 7501 0dc9 00000000 		.4byte	0
 7502              	.LLST58:
 7503 0dcd 60000000 		.4byte	.LVL133
 7504 0dd1 70000000 		.4byte	.LVL136
 7505 0dd5 0100     		.2byte	0x1
 7506 0dd7 50       		.byte	0x50
 7507 0dd8 70000000 		.4byte	.LVL136
 7508 0ddc 74000000 		.4byte	.LVL138
 7509 0de0 0300     		.2byte	0x3
 7510 0de2 70       		.byte	0x70
 7511 0de3 01       		.sleb128 1
 7512 0de4 9F       		.byte	0x9f
 7513 0de5 00000000 		.4byte	0
ARM GAS  C:\Users\strap\AppData\Local\Temp\ccvWLEyq.s 			page 158


 7514 0de9 00000000 		.4byte	0
 7515              	.LLST59:
 7516 0ded 6A000000 		.4byte	.LVL134
 7517 0df1 6E000000 		.4byte	.LVL135
 7518 0df5 0600     		.2byte	0x6
 7519 0df7 70       		.byte	0x70
 7520 0df8 00       		.sleb128 0
 7521 0df9 72       		.byte	0x72
 7522 0dfa 00       		.sleb128 0
 7523 0dfb 1E       		.byte	0x1e
 7524 0dfc 9F       		.byte	0x9f
 7525 0dfd 6E000000 		.4byte	.LVL135
 7526 0e01 70000000 		.4byte	.LVL136
 7527 0e05 1300     		.2byte	0x13
 7528 0e07 77       		.byte	0x77
 7529 0e08 00       		.sleb128 0
 7530 0e09 06       		.byte	0x6
 7531 0e0a 09       		.byte	0x9
 7532 0e0b EF       		.byte	0xef
 7533 0e0c 24       		.byte	0x24
 7534 0e0d 09       		.byte	0x9
 7535 0e0e F9       		.byte	0xf9
 7536 0e0f 25       		.byte	0x25
 7537 0e10 76       		.byte	0x76
 7538 0e11 00       		.sleb128 0
 7539 0e12 1E       		.byte	0x1e
 7540 0e13 75       		.byte	0x75
 7541 0e14 00       		.sleb128 0
 7542 0e15 22       		.byte	0x22
 7543 0e16 70       		.byte	0x70
 7544 0e17 00       		.sleb128 0
 7545 0e18 1E       		.byte	0x1e
 7546 0e19 9F       		.byte	0x9f
 7547 0e1a 70000000 		.4byte	.LVL136
 7548 0e1e 74000000 		.4byte	.LVL138
 7549 0e22 1300     		.2byte	0x13
 7550 0e24 70       		.byte	0x70
 7551 0e25 01       		.sleb128 1
 7552 0e26 77       		.byte	0x77
 7553 0e27 00       		.sleb128 0
 7554 0e28 06       		.byte	0x6
 7555 0e29 09       		.byte	0x9
 7556 0e2a EF       		.byte	0xef
 7557 0e2b 24       		.byte	0x24
 7558 0e2c 09       		.byte	0x9
 7559 0e2d F9       		.byte	0xf9
 7560 0e2e 25       		.byte	0x25
 7561 0e2f 76       		.byte	0x76
 7562 0e30 00       		.sleb128 0
 7563 0e31 1E       		.byte	0x1e
 7564 0e32 75       		.byte	0x75
 7565 0e33 00       		.sleb128 0
 7566 0e34 22       		.byte	0x22
 7567 0e35 1E       		.byte	0x1e
 7568 0e36 9F       		.byte	0x9f
 7569 0e37 00000000 		.4byte	0
 7570 0e3b 00000000 		.4byte	0
ARM GAS  C:\Users\strap\AppData\Local\Temp\ccvWLEyq.s 			page 159


 7571              	.LLST60:
 7572 0e3f 70000000 		.4byte	.LVL136
 7573 0e43 84000000 		.4byte	.LVL142
 7574 0e47 0100     		.2byte	0x1
 7575 0e49 50       		.byte	0x50
 7576 0e4a 00000000 		.4byte	0
 7577 0e4e 00000000 		.4byte	0
 7578              	.LLST61:
 7579 0e52 70000000 		.4byte	.LVL136
 7580 0e56 72000000 		.4byte	.LVL137
 7581 0e5a 0300     		.2byte	0x3
 7582 0e5c 91       		.byte	0x91
 7583 0e5d 64       		.sleb128 -28
 7584 0e5e 9F       		.byte	0x9f
 7585 0e5f 72000000 		.4byte	.LVL137
 7586 0e63 74000000 		.4byte	.LVL138
 7587 0e67 0100     		.2byte	0x1
 7588 0e69 53       		.byte	0x53
 7589 0e6a 74000000 		.4byte	.LVL138
 7590 0e6e 84000000 		.4byte	.LVL142
 7591 0e72 0300     		.2byte	0x3
 7592 0e74 91       		.byte	0x91
 7593 0e75 64       		.sleb128 -28
 7594 0e76 9F       		.byte	0x9f
 7595 0e77 00000000 		.4byte	0
 7596 0e7b 00000000 		.4byte	0
 7597              	.LLST62:
 7598 0e7f 70000000 		.4byte	.LVL136
 7599 0e83 74000000 		.4byte	.LVL138
 7600 0e87 0100     		.2byte	0x1
 7601 0e89 52       		.byte	0x52
 7602 0e8a 00000000 		.4byte	0
 7603 0e8e 00000000 		.4byte	0
 7604              	.LLST63:
 7605 0e92 70000000 		.4byte	.LVL136
 7606 0e96 84000000 		.4byte	.LVL142
 7607 0e9a 0100     		.2byte	0x1
 7608 0e9c 52       		.byte	0x52
 7609 0e9d 00000000 		.4byte	0
 7610 0ea1 00000000 		.4byte	0
 7611              	.LLST64:
 7612 0ea5 70000000 		.4byte	.LVL136
 7613 0ea9 72000000 		.4byte	.LVL137
 7614 0ead 0300     		.2byte	0x3
 7615 0eaf 91       		.byte	0x91
 7616 0eb0 64       		.sleb128 -28
 7617 0eb1 9F       		.byte	0x9f
 7618 0eb2 72000000 		.4byte	.LVL137
 7619 0eb6 78000000 		.4byte	.LVL139
 7620 0eba 0100     		.2byte	0x1
 7621 0ebc 53       		.byte	0x53
 7622 0ebd 78000000 		.4byte	.LVL139
 7623 0ec1 7C000000 		.4byte	.LVL140
 7624 0ec5 0300     		.2byte	0x3
 7625 0ec7 73       		.byte	0x73
 7626 0ec8 7F       		.sleb128 -1
 7627 0ec9 9F       		.byte	0x9f
ARM GAS  C:\Users\strap\AppData\Local\Temp\ccvWLEyq.s 			page 160


 7628 0eca 7C000000 		.4byte	.LVL140
 7629 0ece 84000000 		.4byte	.LVL142
 7630 0ed2 0100     		.2byte	0x1
 7631 0ed4 53       		.byte	0x53
 7632 0ed5 00000000 		.4byte	0
 7633 0ed9 00000000 		.4byte	0
 7634              	.LLST65:
 7635 0edd 90000000 		.4byte	.LVL144
 7636 0ee1 AA000000 		.4byte	.LVL147
 7637 0ee5 0100     		.2byte	0x1
 7638 0ee7 50       		.byte	0x50
 7639 0ee8 00000000 		.4byte	0
 7640 0eec 00000000 		.4byte	0
 7641              	.LLST66:
 7642 0ef0 A2000000 		.4byte	.LVL145
 7643 0ef4 C6000000 		.4byte	.LVL148
 7644 0ef8 0100     		.2byte	0x1
 7645 0efa 55       		.byte	0x55
 7646 0efb 00000000 		.4byte	0
 7647 0eff 00000000 		.4byte	0
 7648              	.LLST67:
 7649 0f03 D4000000 		.4byte	.LVL150
 7650 0f07 EE000000 		.4byte	.LVL153
 7651 0f0b 0100     		.2byte	0x1
 7652 0f0d 50       		.byte	0x50
 7653 0f0e 00000000 		.4byte	0
 7654 0f12 00000000 		.4byte	0
 7655              	.LLST68:
 7656 0f16 E6000000 		.4byte	.LVL151
 7657 0f1a 0A010000 		.4byte	.LVL154
 7658 0f1e 0100     		.2byte	0x1
 7659 0f20 55       		.byte	0x55
 7660 0f21 00000000 		.4byte	0
 7661 0f25 00000000 		.4byte	0
 7662              	.LLST69:
 7663 0f29 1A010000 		.4byte	.LVL156
 7664 0f2d 42010000 		.4byte	.LVL159
 7665 0f31 0100     		.2byte	0x1
 7666 0f33 51       		.byte	0x51
 7667 0f34 00000000 		.4byte	0
 7668 0f38 00000000 		.4byte	0
 7669              	.LLST70:
 7670 0f3c 2C010000 		.4byte	.LVL157
 7671 0f40 50010000 		.4byte	.LVL160
 7672 0f44 0100     		.2byte	0x1
 7673 0f46 55       		.byte	0x55
 7674 0f47 00000000 		.4byte	0
 7675 0f4b 00000000 		.4byte	0
 7676              	.LLST71:
 7677 0f4f 5E010000 		.4byte	.LVL163
 7678 0f53 62010000 		.4byte	.LVL164
 7679 0f57 0100     		.2byte	0x1
 7680 0f59 52       		.byte	0x52
 7681 0f5a 62010000 		.4byte	.LVL164
 7682 0f5e 68010000 		.4byte	.LVL165
 7683 0f62 0400     		.2byte	0x4
 7684 0f64 72       		.byte	0x72
ARM GAS  C:\Users\strap\AppData\Local\Temp\ccvWLEyq.s 			page 161


 7685 0f65 8078     		.sleb128 -1024
 7686 0f67 9F       		.byte	0x9f
 7687 0f68 00000000 		.4byte	0
 7688 0f6c 00000000 		.4byte	0
 7689              	.LLST72:
 7690 0f70 00000000 		.4byte	.LVL166
 7691 0f74 80000000 		.4byte	.LVL175
 7692 0f78 0100     		.2byte	0x1
 7693 0f7a 50       		.byte	0x50
 7694 0f7b 80000000 		.4byte	.LVL175
 7695 0f7f 94000000 		.4byte	.LFE41
 7696 0f83 0400     		.2byte	0x4
 7697 0f85 F3       		.byte	0xf3
 7698 0f86 01       		.uleb128 0x1
 7699 0f87 50       		.byte	0x50
 7700 0f88 9F       		.byte	0x9f
 7701 0f89 00000000 		.4byte	0
 7702 0f8d 00000000 		.4byte	0
 7703              	.LLST73:
 7704 0f91 00000000 		.4byte	.LVL166
 7705 0f95 7C000000 		.4byte	.LVL173
 7706 0f99 0100     		.2byte	0x1
 7707 0f9b 51       		.byte	0x51
 7708 0f9c 7C000000 		.4byte	.LVL173
 7709 0fa0 94000000 		.4byte	.LFE41
 7710 0fa4 0400     		.2byte	0x4
 7711 0fa6 F3       		.byte	0xf3
 7712 0fa7 01       		.uleb128 0x1
 7713 0fa8 51       		.byte	0x51
 7714 0fa9 9F       		.byte	0x9f
 7715 0faa 00000000 		.4byte	0
 7716 0fae 00000000 		.4byte	0
 7717              	.LLST74:
 7718 0fb2 00000000 		.4byte	.LVL166
 7719 0fb6 5C000000 		.4byte	.LVL169
 7720 0fba 0100     		.2byte	0x1
 7721 0fbc 52       		.byte	0x52
 7722 0fbd 92000000 		.4byte	.LVL179
 7723 0fc1 94000000 		.4byte	.LFE41
 7724 0fc5 0100     		.2byte	0x1
 7725 0fc7 52       		.byte	0x52
 7726 0fc8 00000000 		.4byte	0
 7727 0fcc 00000000 		.4byte	0
 7728              	.LLST75:
 7729 0fd0 78000000 		.4byte	.LVL172
 7730 0fd4 7E000000 		.4byte	.LVL174
 7731 0fd8 0100     		.2byte	0x1
 7732 0fda 53       		.byte	0x53
 7733 0fdb 7E000000 		.4byte	.LVL174
 7734 0fdf 80000000 		.4byte	.LVL175
 7735 0fe3 0200     		.2byte	0x2
 7736 0fe5 70       		.byte	0x70
 7737 0fe6 08       		.sleb128 8
 7738 0fe7 00000000 		.4byte	0
 7739 0feb 00000000 		.4byte	0
 7740              	.LLST76:
 7741 0fef 3C000000 		.4byte	.LVL168
ARM GAS  C:\Users\strap\AppData\Local\Temp\ccvWLEyq.s 			page 162


 7742 0ff3 70000000 		.4byte	.LVL170
 7743 0ff7 0100     		.2byte	0x1
 7744 0ff9 54       		.byte	0x54
 7745 0ffa 72000000 		.4byte	.LVL171
 7746 0ffe 92000000 		.4byte	.LVL179
 7747 1002 0100     		.2byte	0x1
 7748 1004 54       		.byte	0x54
 7749 1005 00000000 		.4byte	0
 7750 1009 00000000 		.4byte	0
 7751              	.LLST77:
 7752 100d 7C000000 		.4byte	.LVL173
 7753 1011 80000000 		.4byte	.LVL175
 7754 1015 0200     		.2byte	0x2
 7755 1017 34       		.byte	0x34
 7756 1018 9F       		.byte	0x9f
 7757 1019 80000000 		.4byte	.LVL175
 7758 101d 92000000 		.4byte	.LVL179
 7759 1021 0100     		.2byte	0x1
 7760 1023 53       		.byte	0x53
 7761 1024 00000000 		.4byte	0
 7762 1028 00000000 		.4byte	0
 7763              	.LLST78:
 7764 102c 7C000000 		.4byte	.LVL173
 7765 1030 92000000 		.4byte	.LVL179
 7766 1034 0300     		.2byte	0x3
 7767 1036 91       		.byte	0x91
 7768 1037 74       		.sleb128 -12
 7769 1038 9F       		.byte	0x9f
 7770 1039 00000000 		.4byte	0
 7771 103d 00000000 		.4byte	0
 7772              	.LLST79:
 7773 1041 7C000000 		.4byte	.LVL173
 7774 1045 80000000 		.4byte	.LVL175
 7775 1049 0100     		.2byte	0x1
 7776 104b 51       		.byte	0x51
 7777 104c 00000000 		.4byte	0
 7778 1050 00000000 		.4byte	0
 7779              	.LLST80:
 7780 1054 80000000 		.4byte	.LVL175
 7781 1058 92000000 		.4byte	.LVL179
 7782 105c 0100     		.2byte	0x1
 7783 105e 51       		.byte	0x51
 7784 105f 00000000 		.4byte	0
 7785 1063 00000000 		.4byte	0
 7786              	.LLST81:
 7787 1067 80000000 		.4byte	.LVL175
 7788 106b 84000000 		.4byte	.LVL176
 7789 106f 0100     		.2byte	0x1
 7790 1071 52       		.byte	0x52
 7791 1072 84000000 		.4byte	.LVL176
 7792 1076 88000000 		.4byte	.LVL177
 7793 107a 0300     		.2byte	0x3
 7794 107c 72       		.byte	0x72
 7795 107d 7F       		.sleb128 -1
 7796 107e 9F       		.byte	0x9f
 7797 107f 88000000 		.4byte	.LVL177
 7798 1083 92000000 		.4byte	.LVL179
ARM GAS  C:\Users\strap\AppData\Local\Temp\ccvWLEyq.s 			page 163


 7799 1087 0100     		.2byte	0x1
 7800 1089 52       		.byte	0x52
 7801 108a 00000000 		.4byte	0
 7802 108e 00000000 		.4byte	0
 7803              	.LLST82:
 7804 1092 00000000 		.4byte	.LVL180
 7805 1096 08000000 		.4byte	.LVL181
 7806 109a 0100     		.2byte	0x1
 7807 109c 50       		.byte	0x50
 7808 109d 08000000 		.4byte	.LVL181
 7809 10a1 16000000 		.4byte	.LVL184
 7810 10a5 0100     		.2byte	0x1
 7811 10a7 54       		.byte	0x54
 7812 10a8 16000000 		.4byte	.LVL184
 7813 10ac 18000000 		.4byte	.LFE43
 7814 10b0 0100     		.2byte	0x1
 7815 10b2 50       		.byte	0x50
 7816 10b3 00000000 		.4byte	0
 7817 10b7 00000000 		.4byte	0
 7818              	.LLST83:
 7819 10bb 00000000 		.4byte	.LVL185
 7820 10bf 18000000 		.4byte	.LVL187
 7821 10c3 0100     		.2byte	0x1
 7822 10c5 50       		.byte	0x50
 7823 10c6 18000000 		.4byte	.LVL187
 7824 10ca 1E000000 		.4byte	.LVL188
 7825 10ce 0400     		.2byte	0x4
 7826 10d0 F3       		.byte	0xf3
 7827 10d1 01       		.uleb128 0x1
 7828 10d2 50       		.byte	0x50
 7829 10d3 9F       		.byte	0x9f
 7830 10d4 1E000000 		.4byte	.LVL188
 7831 10d8 22000000 		.4byte	.LVL189
 7832 10dc 0100     		.2byte	0x1
 7833 10de 50       		.byte	0x50
 7834 10df 22000000 		.4byte	.LVL189
 7835 10e3 28000000 		.4byte	.LVL190
 7836 10e7 0400     		.2byte	0x4
 7837 10e9 F3       		.byte	0xf3
 7838 10ea 01       		.uleb128 0x1
 7839 10eb 50       		.byte	0x50
 7840 10ec 9F       		.byte	0x9f
 7841 10ed 28000000 		.4byte	.LVL190
 7842 10f1 2A000000 		.4byte	.LVL191
 7843 10f5 0100     		.2byte	0x1
 7844 10f7 50       		.byte	0x50
 7845 10f8 2A000000 		.4byte	.LVL191
 7846 10fc 30000000 		.4byte	.LVL192
 7847 1100 0400     		.2byte	0x4
 7848 1102 F3       		.byte	0xf3
 7849 1103 01       		.uleb128 0x1
 7850 1104 50       		.byte	0x50
 7851 1105 9F       		.byte	0x9f
 7852 1106 30000000 		.4byte	.LVL192
 7853 110a 3A000000 		.4byte	.LVL193
 7854 110e 0100     		.2byte	0x1
 7855 1110 50       		.byte	0x50
ARM GAS  C:\Users\strap\AppData\Local\Temp\ccvWLEyq.s 			page 164


 7856 1111 3A000000 		.4byte	.LVL193
 7857 1115 40000000 		.4byte	.LVL194
 7858 1119 0400     		.2byte	0x4
 7859 111b F3       		.byte	0xf3
 7860 111c 01       		.uleb128 0x1
 7861 111d 50       		.byte	0x50
 7862 111e 9F       		.byte	0x9f
 7863 111f 40000000 		.4byte	.LVL194
 7864 1123 4A000000 		.4byte	.LVL195
 7865 1127 0100     		.2byte	0x1
 7866 1129 50       		.byte	0x50
 7867 112a 4A000000 		.4byte	.LVL195
 7868 112e 50000000 		.4byte	.LVL196
 7869 1132 0400     		.2byte	0x4
 7870 1134 F3       		.byte	0xf3
 7871 1135 01       		.uleb128 0x1
 7872 1136 50       		.byte	0x50
 7873 1137 9F       		.byte	0x9f
 7874 1138 50000000 		.4byte	.LVL196
 7875 113c 54000000 		.4byte	.LVL197
 7876 1140 0100     		.2byte	0x1
 7877 1142 50       		.byte	0x50
 7878 1143 54000000 		.4byte	.LVL197
 7879 1147 5C000000 		.4byte	.LVL198
 7880 114b 0400     		.2byte	0x4
 7881 114d F3       		.byte	0xf3
 7882 114e 01       		.uleb128 0x1
 7883 114f 50       		.byte	0x50
 7884 1150 9F       		.byte	0x9f
 7885 1151 5C000000 		.4byte	.LVL198
 7886 1155 60000000 		.4byte	.LVL199
 7887 1159 0100     		.2byte	0x1
 7888 115b 50       		.byte	0x50
 7889 115c 60000000 		.4byte	.LVL199
 7890 1160 62000000 		.4byte	.LVL200
 7891 1164 0400     		.2byte	0x4
 7892 1166 F3       		.byte	0xf3
 7893 1167 01       		.uleb128 0x1
 7894 1168 50       		.byte	0x50
 7895 1169 9F       		.byte	0x9f
 7896 116a 62000000 		.4byte	.LVL200
 7897 116e 6C000000 		.4byte	.LVL201
 7898 1172 0100     		.2byte	0x1
 7899 1174 50       		.byte	0x50
 7900 1175 6C000000 		.4byte	.LVL201
 7901 1179 76000000 		.4byte	.LVL203
 7902 117d 0400     		.2byte	0x4
 7903 117f F3       		.byte	0xf3
 7904 1180 01       		.uleb128 0x1
 7905 1181 50       		.byte	0x50
 7906 1182 9F       		.byte	0x9f
 7907 1183 76000000 		.4byte	.LVL203
 7908 1187 80000000 		.4byte	.LVL204
 7909 118b 0100     		.2byte	0x1
 7910 118d 50       		.byte	0x50
 7911 118e 80000000 		.4byte	.LVL204
 7912 1192 8A000000 		.4byte	.LVL206
ARM GAS  C:\Users\strap\AppData\Local\Temp\ccvWLEyq.s 			page 165


 7913 1196 0400     		.2byte	0x4
 7914 1198 F3       		.byte	0xf3
 7915 1199 01       		.uleb128 0x1
 7916 119a 50       		.byte	0x50
 7917 119b 9F       		.byte	0x9f
 7918 119c 8A000000 		.4byte	.LVL206
 7919 11a0 8E000000 		.4byte	.LVL207
 7920 11a4 0100     		.2byte	0x1
 7921 11a6 50       		.byte	0x50
 7922 11a7 8E000000 		.4byte	.LVL207
 7923 11ab 9A000000 		.4byte	.LVL209
 7924 11af 0400     		.2byte	0x4
 7925 11b1 F3       		.byte	0xf3
 7926 11b2 01       		.uleb128 0x1
 7927 11b3 50       		.byte	0x50
 7928 11b4 9F       		.byte	0x9f
 7929 11b5 9A000000 		.4byte	.LVL209
 7930 11b9 A2000000 		.4byte	.LVL211
 7931 11bd 0100     		.2byte	0x1
 7932 11bf 50       		.byte	0x50
 7933 11c0 A2000000 		.4byte	.LVL211
 7934 11c4 A4000000 		.4byte	.LVL212
 7935 11c8 0400     		.2byte	0x4
 7936 11ca F3       		.byte	0xf3
 7937 11cb 01       		.uleb128 0x1
 7938 11cc 50       		.byte	0x50
 7939 11cd 9F       		.byte	0x9f
 7940 11ce A4000000 		.4byte	.LVL212
 7941 11d2 A6000000 		.4byte	.LVL213
 7942 11d6 0100     		.2byte	0x1
 7943 11d8 50       		.byte	0x50
 7944 11d9 A6000000 		.4byte	.LVL213
 7945 11dd A8000000 		.4byte	.LFE44
 7946 11e1 0400     		.2byte	0x4
 7947 11e3 F3       		.byte	0xf3
 7948 11e4 01       		.uleb128 0x1
 7949 11e5 50       		.byte	0x50
 7950 11e6 9F       		.byte	0x9f
 7951 11e7 00000000 		.4byte	0
 7952 11eb 00000000 		.4byte	0
 7953              	.LLST84:
 7954 11ef 00000000 		.4byte	.LVL185
 7955 11f3 70000000 		.4byte	.LVL202
 7956 11f7 0100     		.2byte	0x1
 7957 11f9 51       		.byte	0x51
 7958 11fa 70000000 		.4byte	.LVL202
 7959 11fe 76000000 		.4byte	.LVL203
 7960 1202 0400     		.2byte	0x4
 7961 1204 F3       		.byte	0xf3
 7962 1205 01       		.uleb128 0x1
 7963 1206 51       		.byte	0x51
 7964 1207 9F       		.byte	0x9f
 7965 1208 76000000 		.4byte	.LVL203
 7966 120c 84000000 		.4byte	.LVL205
 7967 1210 0100     		.2byte	0x1
 7968 1212 51       		.byte	0x51
 7969 1213 84000000 		.4byte	.LVL205
ARM GAS  C:\Users\strap\AppData\Local\Temp\ccvWLEyq.s 			page 166


 7970 1217 8A000000 		.4byte	.LVL206
 7971 121b 0400     		.2byte	0x4
 7972 121d F3       		.byte	0xf3
 7973 121e 01       		.uleb128 0x1
 7974 121f 51       		.byte	0x51
 7975 1220 9F       		.byte	0x9f
 7976 1221 8A000000 		.4byte	.LVL206
 7977 1225 94000000 		.4byte	.LVL208
 7978 1229 0100     		.2byte	0x1
 7979 122b 51       		.byte	0x51
 7980 122c 94000000 		.4byte	.LVL208
 7981 1230 9A000000 		.4byte	.LVL209
 7982 1234 0400     		.2byte	0x4
 7983 1236 F3       		.byte	0xf3
 7984 1237 01       		.uleb128 0x1
 7985 1238 51       		.byte	0x51
 7986 1239 9F       		.byte	0x9f
 7987 123a 9A000000 		.4byte	.LVL209
 7988 123e 9E000000 		.4byte	.LVL210
 7989 1242 0100     		.2byte	0x1
 7990 1244 51       		.byte	0x51
 7991 1245 9E000000 		.4byte	.LVL210
 7992 1249 A4000000 		.4byte	.LVL212
 7993 124d 0400     		.2byte	0x4
 7994 124f F3       		.byte	0xf3
 7995 1250 01       		.uleb128 0x1
 7996 1251 51       		.byte	0x51
 7997 1252 9F       		.byte	0x9f
 7998 1253 A4000000 		.4byte	.LVL212
 7999 1257 A8000000 		.4byte	.LFE44
 8000 125b 0100     		.2byte	0x1
 8001 125d 51       		.byte	0x51
 8002 125e 00000000 		.4byte	0
 8003 1262 00000000 		.4byte	0
 8004              	.LLST85:
 8005 1266 00000000 		.4byte	.LVL185
 8006 126a 02000000 		.4byte	.LVL186
 8007 126e 0100     		.2byte	0x1
 8008 1270 52       		.byte	0x52
 8009 1271 02000000 		.4byte	.LVL186
 8010 1275 A8000000 		.4byte	.LFE44
 8011 1279 0400     		.2byte	0x4
 8012 127b F3       		.byte	0xf3
 8013 127c 01       		.uleb128 0x1
 8014 127d 52       		.byte	0x52
 8015 127e 9F       		.byte	0x9f
 8016 127f 00000000 		.4byte	0
 8017 1283 00000000 		.4byte	0
 8018              	.LLST86:
 8019 1287 00000000 		.4byte	.LVL214
 8020 128b 0A000000 		.4byte	.LVL215
 8021 128f 0100     		.2byte	0x1
 8022 1291 50       		.byte	0x50
 8023 1292 0A000000 		.4byte	.LVL215
 8024 1296 6E000000 		.4byte	.LFE42
 8025 129a 0400     		.2byte	0x4
 8026 129c F3       		.byte	0xf3
ARM GAS  C:\Users\strap\AppData\Local\Temp\ccvWLEyq.s 			page 167


 8027 129d 01       		.uleb128 0x1
 8028 129e 50       		.byte	0x50
 8029 129f 9F       		.byte	0x9f
 8030 12a0 00000000 		.4byte	0
 8031 12a4 00000000 		.4byte	0
 8032              	.LLST87:
 8033 12a8 00000000 		.4byte	.LVL214
 8034 12ac 0D000000 		.4byte	.LVL216-1
 8035 12b0 0100     		.2byte	0x1
 8036 12b2 51       		.byte	0x51
 8037 12b3 0D000000 		.4byte	.LVL216-1
 8038 12b7 6E000000 		.4byte	.LFE42
 8039 12bb 0400     		.2byte	0x4
 8040 12bd F3       		.byte	0xf3
 8041 12be 01       		.uleb128 0x1
 8042 12bf 51       		.byte	0x51
 8043 12c0 9F       		.byte	0x9f
 8044 12c1 00000000 		.4byte	0
 8045 12c5 00000000 		.4byte	0
 8046              	.LLST88:
 8047 12c9 00000000 		.4byte	.LVL214
 8048 12cd 0D000000 		.4byte	.LVL216-1
 8049 12d1 0100     		.2byte	0x1
 8050 12d3 52       		.byte	0x52
 8051 12d4 0D000000 		.4byte	.LVL216-1
 8052 12d8 6E000000 		.4byte	.LFE42
 8053 12dc 0400     		.2byte	0x4
 8054 12de F3       		.byte	0xf3
 8055 12df 01       		.uleb128 0x1
 8056 12e0 52       		.byte	0x52
 8057 12e1 9F       		.byte	0x9f
 8058 12e2 00000000 		.4byte	0
 8059 12e6 00000000 		.4byte	0
 8060              	.LLST89:
 8061 12ea 0E000000 		.4byte	.LVL216
 8062 12ee 17000000 		.4byte	.LVL217-1
 8063 12f2 0100     		.2byte	0x1
 8064 12f4 50       		.byte	0x50
 8065 12f5 17000000 		.4byte	.LVL217-1
 8066 12f9 6A000000 		.4byte	.LVL225
 8067 12fd 0100     		.2byte	0x1
 8068 12ff 54       		.byte	0x54
 8069 1300 6A000000 		.4byte	.LVL225
 8070 1304 6C000000 		.4byte	.LVL226
 8071 1308 0100     		.2byte	0x1
 8072 130a 50       		.byte	0x50
 8073 130b 00000000 		.4byte	0
 8074 130f 00000000 		.4byte	0
 8075              	.LLST90:
 8076 1313 00000000 		.4byte	.LVL227
 8077 1317 20000000 		.4byte	.LVL228
 8078 131b 0100     		.2byte	0x1
 8079 131d 50       		.byte	0x50
 8080 131e 20000000 		.4byte	.LVL228
 8081 1322 20010000 		.4byte	.LVL246
 8082 1326 0100     		.2byte	0x1
 8083 1328 54       		.byte	0x54
ARM GAS  C:\Users\strap\AppData\Local\Temp\ccvWLEyq.s 			page 168


 8084 1329 20010000 		.4byte	.LVL246
 8085 132d 24010000 		.4byte	.LFE45
 8086 1331 0400     		.2byte	0x4
 8087 1333 F3       		.byte	0xf3
 8088 1334 01       		.uleb128 0x1
 8089 1335 50       		.byte	0x50
 8090 1336 9F       		.byte	0x9f
 8091 1337 00000000 		.4byte	0
 8092 133b 00000000 		.4byte	0
 8093              	.LLST91:
 8094 133f 28000000 		.4byte	.LVL229
 8095 1343 3D000000 		.4byte	.LVL232-1
 8096 1347 0100     		.2byte	0x1
 8097 1349 53       		.byte	0x53
 8098 134a 3D000000 		.4byte	.LVL232-1
 8099 134e 44000000 		.4byte	.LVL234
 8100 1352 0300     		.2byte	0x3
 8101 1354 79       		.byte	0x79
 8102 1355 7F       		.sleb128 -1
 8103 1356 9F       		.byte	0x9f
 8104 1357 00000000 		.4byte	0
 8105 135b 00000000 		.4byte	0
 8106              	.LLST92:
 8107 135f 2C000000 		.4byte	.LVL230
 8108 1363 44000000 		.4byte	.LVL234
 8109 1367 0100     		.2byte	0x1
 8110 1369 59       		.byte	0x59
 8111 136a 00000000 		.4byte	0
 8112 136e 00000000 		.4byte	0
 8113              	.LLST93:
 8114 1372 34000000 		.4byte	.LVL231
 8115 1376 20010000 		.4byte	.LVL246
 8116 137a 0100     		.2byte	0x1
 8117 137c 57       		.byte	0x57
 8118 137d 00000000 		.4byte	0
 8119 1381 00000000 		.4byte	0
 8120              	.LLST94:
 8121 1385 40000000 		.4byte	.LVL233
 8122 1389 48000000 		.4byte	.LVL235
 8123 138d 0100     		.2byte	0x1
 8124 138f 50       		.byte	0x50
 8125 1390 48000000 		.4byte	.LVL235
 8126 1394 20010000 		.4byte	.LVL246
 8127 1398 0100     		.2byte	0x1
 8128 139a 58       		.byte	0x58
 8129 139b 00000000 		.4byte	0
 8130 139f 00000000 		.4byte	0
 8131              	.LLST95:
 8132 13a3 50000000 		.4byte	.LVL237
 8133 13a7 54000000 		.4byte	.LVL238
 8134 13ab 0100     		.2byte	0x1
 8135 13ad 50       		.byte	0x50
 8136 13ae 54000000 		.4byte	.LVL238
 8137 13b2 20010000 		.4byte	.LVL246
 8138 13b6 0100     		.2byte	0x1
 8139 13b8 5A       		.byte	0x5a
 8140 13b9 00000000 		.4byte	0
ARM GAS  C:\Users\strap\AppData\Local\Temp\ccvWLEyq.s 			page 169


 8141 13bd 00000000 		.4byte	0
 8142              	.LLST96:
 8143 13c1 5C000000 		.4byte	.LVL240
 8144 13c5 60000000 		.4byte	.LVL241
 8145 13c9 0100     		.2byte	0x1
 8146 13cb 50       		.byte	0x50
 8147 13cc 60000000 		.4byte	.LVL241
 8148 13d0 20010000 		.4byte	.LVL246
 8149 13d4 0100     		.2byte	0x1
 8150 13d6 55       		.byte	0x55
 8151 13d7 00000000 		.4byte	0
 8152 13db 00000000 		.4byte	0
 8153              	.LLST97:
 8154 13df 66000000 		.4byte	.LVL242
 8155 13e3 80000000 		.4byte	.LVL243
 8156 13e7 0100     		.2byte	0x1
 8157 13e9 50       		.byte	0x50
 8158 13ea 00000000 		.4byte	0
 8159 13ee 00000000 		.4byte	0
 8160              	.LLST98:
 8161 13f2 00000000 		.4byte	.LVL247
 8162 13f6 AC000000 		.4byte	.LVL257
 8163 13fa 0100     		.2byte	0x1
 8164 13fc 50       		.byte	0x50
 8165 13fd AC000000 		.4byte	.LVL257
 8166 1401 EA010000 		.4byte	.LVL290
 8167 1405 0100     		.2byte	0x1
 8168 1407 55       		.byte	0x55
 8169 1408 EA010000 		.4byte	.LVL290
 8170 140c F0010000 		.4byte	.LFE46
 8171 1410 0400     		.2byte	0x4
 8172 1412 F3       		.byte	0xf3
 8173 1413 01       		.uleb128 0x1
 8174 1414 50       		.byte	0x50
 8175 1415 9F       		.byte	0x9f
 8176 1416 00000000 		.4byte	0
 8177 141a 00000000 		.4byte	0
 8178              	.LLST99:
 8179 141e 00000000 		.4byte	.LVL247
 8180 1422 1A000000 		.4byte	.LVL248
 8181 1426 0100     		.2byte	0x1
 8182 1428 51       		.byte	0x51
 8183 1429 1A000000 		.4byte	.LVL248
 8184 142d 24000000 		.4byte	.LVL250
 8185 1431 0400     		.2byte	0x4
 8186 1433 F3       		.byte	0xf3
 8187 1434 01       		.uleb128 0x1
 8188 1435 51       		.byte	0x51
 8189 1436 9F       		.byte	0x9f
 8190 1437 24000000 		.4byte	.LVL250
 8191 143b 4E000000 		.4byte	.LVL252
 8192 143f 0100     		.2byte	0x1
 8193 1441 51       		.byte	0x51
 8194 1442 4E000000 		.4byte	.LVL252
 8195 1446 F0010000 		.4byte	.LFE46
 8196 144a 0400     		.2byte	0x4
 8197 144c F3       		.byte	0xf3
ARM GAS  C:\Users\strap\AppData\Local\Temp\ccvWLEyq.s 			page 170


 8198 144d 01       		.uleb128 0x1
 8199 144e 51       		.byte	0x51
 8200 144f 9F       		.byte	0x9f
 8201 1450 00000000 		.4byte	0
 8202 1454 00000000 		.4byte	0
 8203              	.LLST100:
 8204 1458 00000000 		.4byte	.LVL247
 8205 145c 1E000000 		.4byte	.LVL249
 8206 1460 0100     		.2byte	0x1
 8207 1462 52       		.byte	0x52
 8208 1463 1E000000 		.4byte	.LVL249
 8209 1467 24000000 		.4byte	.LVL250
 8210 146b 0400     		.2byte	0x4
 8211 146d F3       		.byte	0xf3
 8212 146e 01       		.uleb128 0x1
 8213 146f 52       		.byte	0x52
 8214 1470 9F       		.byte	0x9f
 8215 1471 24000000 		.4byte	.LVL250
 8216 1475 72000000 		.4byte	.LVL253
 8217 1479 0100     		.2byte	0x1
 8218 147b 52       		.byte	0x52
 8219 147c 72000000 		.4byte	.LVL253
 8220 1480 92000000 		.4byte	.LVL254
 8221 1484 0400     		.2byte	0x4
 8222 1486 F3       		.byte	0xf3
 8223 1487 01       		.uleb128 0x1
 8224 1488 52       		.byte	0x52
 8225 1489 9F       		.byte	0x9f
 8226 148a 92000000 		.4byte	.LVL254
 8227 148e B5000000 		.4byte	.LVL259-1
 8228 1492 0100     		.2byte	0x1
 8229 1494 52       		.byte	0x52
 8230 1495 B5000000 		.4byte	.LVL259-1
 8231 1499 F0010000 		.4byte	.LFE46
 8232 149d 0400     		.2byte	0x4
 8233 149f F3       		.byte	0xf3
 8234 14a0 01       		.uleb128 0x1
 8235 14a1 52       		.byte	0x52
 8236 14a2 9F       		.byte	0x9f
 8237 14a3 00000000 		.4byte	0
 8238 14a7 00000000 		.4byte	0
 8239              	.LLST101:
 8240 14ab 00000000 		.4byte	.LVL247
 8241 14af 24000000 		.4byte	.LVL250
 8242 14b3 0100     		.2byte	0x1
 8243 14b5 53       		.byte	0x53
 8244 14b6 24000000 		.4byte	.LVL250
 8245 14ba 4C000000 		.4byte	.LVL251
 8246 14be 0100     		.2byte	0x1
 8247 14c0 53       		.byte	0x53
 8248 14c1 4C000000 		.4byte	.LVL251
 8249 14c5 F0010000 		.4byte	.LFE46
 8250 14c9 0400     		.2byte	0x4
 8251 14cb F3       		.byte	0xf3
 8252 14cc 01       		.uleb128 0x1
 8253 14cd 53       		.byte	0x53
 8254 14ce 9F       		.byte	0x9f
ARM GAS  C:\Users\strap\AppData\Local\Temp\ccvWLEyq.s 			page 171


 8255 14cf 00000000 		.4byte	0
 8256 14d3 00000000 		.4byte	0
 8257              	.LLST102:
 8258 14d7 00000000 		.4byte	.LVL247
 8259 14db 24000000 		.4byte	.LVL250
 8260 14df 0200     		.2byte	0x2
 8261 14e1 91       		.byte	0x91
 8262 14e2 00       		.sleb128 0
 8263 14e3 24000000 		.4byte	.LVL250
 8264 14e7 EA010000 		.4byte	.LVL290
 8265 14eb 0200     		.2byte	0x2
 8266 14ed 91       		.byte	0x91
 8267 14ee 00       		.sleb128 0
 8268 14ef EA010000 		.4byte	.LVL290
 8269 14f3 F0010000 		.4byte	.LFE46
 8270 14f7 0200     		.2byte	0x2
 8271 14f9 7D       		.byte	0x7d
 8272 14fa 00       		.sleb128 0
 8273 14fb 00000000 		.4byte	0
 8274 14ff 00000000 		.4byte	0
 8275              	.LLST103:
 8276 1503 00000000 		.4byte	.LVL247
 8277 1507 24000000 		.4byte	.LVL250
 8278 150b 0200     		.2byte	0x2
 8279 150d 91       		.byte	0x91
 8280 150e 04       		.sleb128 4
 8281 150f 24000000 		.4byte	.LVL250
 8282 1513 EA010000 		.4byte	.LVL290
 8283 1517 0200     		.2byte	0x2
 8284 1519 91       		.byte	0x91
 8285 151a 04       		.sleb128 4
 8286 151b EA010000 		.4byte	.LVL290
 8287 151f F0010000 		.4byte	.LFE46
 8288 1523 0200     		.2byte	0x2
 8289 1525 7D       		.byte	0x7d
 8290 1526 04       		.sleb128 4
 8291 1527 00000000 		.4byte	0
 8292 152b 00000000 		.4byte	0
 8293              	.LLST104:
 8294 152f A4000000 		.4byte	.LVL255
 8295 1533 CE000000 		.4byte	.LVL266
 8296 1537 0100     		.2byte	0x1
 8297 1539 57       		.byte	0x57
 8298 153a CE000000 		.4byte	.LVL266
 8299 153e 3E010000 		.4byte	.LVL282
 8300 1542 0300     		.2byte	0x3
 8301 1544 7A       		.byte	0x7a
 8302 1545 7F       		.sleb128 -1
 8303 1546 9F       		.byte	0x9f
 8304 1547 00000000 		.4byte	0
 8305 154b 00000000 		.4byte	0
 8306              	.LLST105:
 8307 154f A8000000 		.4byte	.LVL256
 8308 1553 3E010000 		.4byte	.LVL282
 8309 1557 0100     		.2byte	0x1
 8310 1559 5A       		.byte	0x5a
 8311 155a 00000000 		.4byte	0
ARM GAS  C:\Users\strap\AppData\Local\Temp\ccvWLEyq.s 			page 172


 8312 155e 00000000 		.4byte	0
 8313              	.LLST106:
 8314 1562 B0000000 		.4byte	.LVL258
 8315 1566 32010000 		.4byte	.LVL281
 8316 156a 0100     		.2byte	0x1
 8317 156c 56       		.byte	0x56
 8318 156d 00000000 		.4byte	0
 8319 1571 00000000 		.4byte	0
 8320              	.LLST107:
 8321 1575 B8000000 		.4byte	.LVL260
 8322 1579 BC000000 		.4byte	.LVL261
 8323 157d 0100     		.2byte	0x1
 8324 157f 50       		.byte	0x50
 8325 1580 BC000000 		.4byte	.LVL261
 8326 1584 E4000000 		.4byte	.LVL270
 8327 1588 0100     		.2byte	0x1
 8328 158a 58       		.byte	0x58
 8329 158b 00000000 		.4byte	0
 8330 158f 00000000 		.4byte	0
 8331              	.LLST108:
 8332 1593 C2000000 		.4byte	.LVL263
 8333 1597 C6000000 		.4byte	.LVL264
 8334 159b 0100     		.2byte	0x1
 8335 159d 50       		.byte	0x50
 8336 159e C6000000 		.4byte	.LVL264
 8337 15a2 E0000000 		.4byte	.LVL269
 8338 15a6 0100     		.2byte	0x1
 8339 15a8 5B       		.byte	0x5b
 8340 15a9 00000000 		.4byte	0
 8341 15ad 00000000 		.4byte	0
 8342              	.LLST109:
 8343 15b1 CE000000 		.4byte	.LVL266
 8344 15b5 D2000000 		.4byte	.LVL267
 8345 15b9 0100     		.2byte	0x1
 8346 15bb 50       		.byte	0x50
 8347 15bc D2000000 		.4byte	.LVL267
 8348 15c0 1C010000 		.4byte	.LVL278
 8349 15c4 0100     		.2byte	0x1
 8350 15c6 57       		.byte	0x57
 8351 15c7 00000000 		.4byte	0
 8352 15cb 00000000 		.4byte	0
 8353              	.LLST110:
 8354 15cf D8000000 		.4byte	.LVL268
 8355 15d3 F4000000 		.4byte	.LVL272
 8356 15d7 0100     		.2byte	0x1
 8357 15d9 50       		.byte	0x50
 8358 15da 00000000 		.4byte	0
 8359 15de 00000000 		.4byte	0
 8360              	.LLST111:
 8361 15e2 F0000000 		.4byte	.LVL271
 8362 15e6 64010000 		.4byte	.LVL286
 8363 15ea 0100     		.2byte	0x1
 8364 15ec 52       		.byte	0x52
 8365 15ed 00000000 		.4byte	0
 8366 15f1 00000000 		.4byte	0
 8367              	.LLST112:
 8368 15f5 02010000 		.4byte	.LVL273
ARM GAS  C:\Users\strap\AppData\Local\Temp\ccvWLEyq.s 			page 173


 8369 15f9 70010000 		.4byte	.LVL287
 8370 15fd 0100     		.2byte	0x1
 8371 15ff 50       		.byte	0x50
 8372 1600 00000000 		.4byte	0
 8373 1604 00000000 		.4byte	0
 8374              	.LLST113:
 8375 1608 0A010000 		.4byte	.LVL276
 8376 160c 28010000 		.4byte	.LVL279
 8377 1610 0100     		.2byte	0x1
 8378 1612 53       		.byte	0x53
 8379 1613 28010000 		.4byte	.LVL279
 8380 1617 3E010000 		.4byte	.LVL282
 8381 161b 0200     		.2byte	0x2
 8382 161d 75       		.byte	0x75
 8383 161e 00       		.sleb128 0
 8384 161f 3E010000 		.4byte	.LVL282
 8385 1623 52010000 		.4byte	.LVL283
 8386 1627 0100     		.2byte	0x1
 8387 1629 5A       		.byte	0x5a
 8388 162a 52010000 		.4byte	.LVL283
 8389 162e 5C010000 		.4byte	.LVL284
 8390 1632 0200     		.2byte	0x2
 8391 1634 75       		.byte	0x75
 8392 1635 04       		.sleb128 4
 8393 1636 5C010000 		.4byte	.LVL284
 8394 163a 78010000 		.4byte	.LVL288
 8395 163e 0200     		.2byte	0x2
 8396 1640 75       		.byte	0x75
 8397 1641 00       		.sleb128 0
 8398 1642 78010000 		.4byte	.LVL288
 8399 1646 B8010000 		.4byte	.LVL289
 8400 164a 0200     		.2byte	0x2
 8401 164c 75       		.byte	0x75
 8402 164d 04       		.sleb128 4
 8403 164e 00000000 		.4byte	0
 8404 1652 00000000 		.4byte	0
 8405              	.LLST114:
 8406 1656 0E010000 		.4byte	.LVL277
 8407 165a 2C010000 		.4byte	.LVL280
 8408 165e 0100     		.2byte	0x1
 8409 1660 5C       		.byte	0x5c
 8410 1661 2C010000 		.4byte	.LVL280
 8411 1665 60010000 		.4byte	.LVL285
 8412 1669 0200     		.2byte	0x2
 8413 166b 75       		.byte	0x75
 8414 166c 02       		.sleb128 2
 8415 166d 60010000 		.4byte	.LVL285
 8416 1671 F0010000 		.4byte	.LFE46
 8417 1675 0100     		.2byte	0x1
 8418 1677 5C       		.byte	0x5c
 8419 1678 00000000 		.4byte	0
 8420 167c 00000000 		.4byte	0
 8421              	.LLST115:
 8422 1680 00000000 		.4byte	.LVL291
 8423 1684 40000000 		.4byte	.LVL303
 8424 1688 0100     		.2byte	0x1
 8425 168a 50       		.byte	0x50
ARM GAS  C:\Users\strap\AppData\Local\Temp\ccvWLEyq.s 			page 174


 8426 168b 40000000 		.4byte	.LVL303
 8427 168f 56000000 		.4byte	.LVL307
 8428 1693 0100     		.2byte	0x1
 8429 1695 54       		.byte	0x54
 8430 1696 56000000 		.4byte	.LVL307
 8431 169a 5C000000 		.4byte	.LVL308
 8432 169e 0100     		.2byte	0x1
 8433 16a0 50       		.byte	0x50
 8434 16a1 5C000000 		.4byte	.LVL308
 8435 16a5 64040000 		.4byte	.LFE47
 8436 16a9 0100     		.2byte	0x1
 8437 16ab 54       		.byte	0x54
 8438 16ac 00000000 		.4byte	0
 8439 16b0 00000000 		.4byte	0
 8440              	.LLST116:
 8441 16b4 0A000000 		.4byte	.LVL292
 8442 16b8 7C010000 		.4byte	.LVL356
 8443 16bc 0100     		.2byte	0x1
 8444 16be 51       		.byte	0x51
 8445 16bf 7C010000 		.4byte	.LVL356
 8446 16c3 8F010000 		.4byte	.LVL358-1
 8447 16c7 0200     		.2byte	0x2
 8448 16c9 74       		.byte	0x74
 8449 16ca 00       		.sleb128 0
 8450 16cb 18020000 		.4byte	.LVL367
 8451 16cf 20020000 		.4byte	.LVL370
 8452 16d3 0100     		.2byte	0x1
 8453 16d5 51       		.byte	0x51
 8454 16d6 00000000 		.4byte	0
 8455 16da 00000000 		.4byte	0
 8456              	.LLST117:
 8457 16de 10000000 		.4byte	.LVL293
 8458 16e2 1E000000 		.4byte	.LVL296
 8459 16e6 0100     		.2byte	0x1
 8460 16e8 52       		.byte	0x52
 8461 16e9 1E000000 		.4byte	.LVL296
 8462 16ed 2E000000 		.4byte	.LVL298
 8463 16f1 0600     		.2byte	0x6
 8464 16f3 75       		.byte	0x75
 8465 16f4 00       		.sleb128 0
 8466 16f5 08       		.byte	0x8
 8467 16f6 FF       		.byte	0xff
 8468 16f7 1A       		.byte	0x1a
 8469 16f8 9F       		.byte	0x9f
 8470 16f9 2E000000 		.4byte	.LVL298
 8471 16fd 30000000 		.4byte	.LVL299
 8472 1701 0700     		.2byte	0x7
 8473 1703 75       		.byte	0x75
 8474 1704 8001     		.sleb128 128
 8475 1706 08       		.byte	0x8
 8476 1707 FF       		.byte	0xff
 8477 1708 1A       		.byte	0x1a
 8478 1709 9F       		.byte	0x9f
 8479 170a 30000000 		.4byte	.LVL299
 8480 170e 32000000 		.4byte	.LVL300
 8481 1712 0800     		.2byte	0x8
 8482 1714 70       		.byte	0x70
ARM GAS  C:\Users\strap\AppData\Local\Temp\ccvWLEyq.s 			page 175


 8483 1715 3C       		.sleb128 60
 8484 1716 94       		.byte	0x94
 8485 1717 01       		.byte	0x1
 8486 1718 08       		.byte	0x8
 8487 1719 FF       		.byte	0xff
 8488 171a 1A       		.byte	0x1a
 8489 171b 9F       		.byte	0x9f
 8490 171c 32000000 		.4byte	.LVL300
 8491 1720 3A000000 		.4byte	.LVL302
 8492 1724 0100     		.2byte	0x1
 8493 1726 52       		.byte	0x52
 8494 1727 3A000000 		.4byte	.LVL302
 8495 172b 52000000 		.4byte	.LVL305
 8496 172f 0600     		.2byte	0x6
 8497 1731 75       		.byte	0x75
 8498 1732 00       		.sleb128 0
 8499 1733 08       		.byte	0x8
 8500 1734 FF       		.byte	0xff
 8501 1735 1A       		.byte	0x1a
 8502 1736 9F       		.byte	0x9f
 8503 1737 52000000 		.4byte	.LVL305
 8504 173b 56000000 		.4byte	.LVL307
 8505 173f 0800     		.2byte	0x8
 8506 1741 74       		.byte	0x74
 8507 1742 3C       		.sleb128 60
 8508 1743 94       		.byte	0x94
 8509 1744 01       		.byte	0x1
 8510 1745 08       		.byte	0x8
 8511 1746 FF       		.byte	0xff
 8512 1747 1A       		.byte	0x1a
 8513 1748 9F       		.byte	0x9f
 8514 1749 56000000 		.4byte	.LVL307
 8515 174d 5C000000 		.4byte	.LVL308
 8516 1751 0100     		.2byte	0x1
 8517 1753 52       		.byte	0x52
 8518 1754 5C000000 		.4byte	.LVL308
 8519 1758 C4000000 		.4byte	.LVL325
 8520 175c 0800     		.2byte	0x8
 8521 175e 74       		.byte	0x74
 8522 175f 3C       		.sleb128 60
 8523 1760 94       		.byte	0x94
 8524 1761 01       		.byte	0x1
 8525 1762 08       		.byte	0x8
 8526 1763 FF       		.byte	0xff
 8527 1764 1A       		.byte	0x1a
 8528 1765 9F       		.byte	0x9f
 8529 1766 72010000 		.4byte	.LVL355
 8530 176a 8F010000 		.4byte	.LVL358-1
 8531 176e 0800     		.2byte	0x8
 8532 1770 74       		.byte	0x74
 8533 1771 3C       		.sleb128 60
 8534 1772 94       		.byte	0x94
 8535 1773 01       		.byte	0x1
 8536 1774 08       		.byte	0x8
 8537 1775 FF       		.byte	0xff
 8538 1776 1A       		.byte	0x1a
 8539 1777 9F       		.byte	0x9f
ARM GAS  C:\Users\strap\AppData\Local\Temp\ccvWLEyq.s 			page 176


 8540 1778 00000000 		.4byte	0
 8541 177c 00000000 		.4byte	0
 8542              	.LLST118:
 8543 1780 16000000 		.4byte	.LVL294
 8544 1784 64000000 		.4byte	.LVL310
 8545 1788 0100     		.2byte	0x1
 8546 178a 53       		.byte	0x53
 8547 178b 64000000 		.4byte	.LVL310
 8548 178f 74000000 		.4byte	.LVL312
 8549 1793 0600     		.2byte	0x6
 8550 1795 76       		.byte	0x76
 8551 1796 00       		.sleb128 0
 8552 1797 08       		.byte	0x8
 8553 1798 FF       		.byte	0xff
 8554 1799 1A       		.byte	0x1a
 8555 179a 9F       		.byte	0x9f
 8556 179b 74000000 		.4byte	.LVL312
 8557 179f 76000000 		.4byte	.LVL313
 8558 17a3 0700     		.2byte	0x7
 8559 17a5 76       		.byte	0x76
 8560 17a6 8001     		.sleb128 128
 8561 17a8 08       		.byte	0x8
 8562 17a9 FF       		.byte	0xff
 8563 17aa 1A       		.byte	0x1a
 8564 17ab 9F       		.byte	0x9f
 8565 17ac 76000000 		.4byte	.LVL313
 8566 17b0 78000000 		.4byte	.LVL314
 8567 17b4 0800     		.2byte	0x8
 8568 17b6 74       		.byte	0x74
 8569 17b7 3E       		.sleb128 62
 8570 17b8 94       		.byte	0x94
 8571 17b9 01       		.byte	0x1
 8572 17ba 08       		.byte	0x8
 8573 17bb FF       		.byte	0xff
 8574 17bc 1A       		.byte	0x1a
 8575 17bd 9F       		.byte	0x9f
 8576 17be 78000000 		.4byte	.LVL314
 8577 17c2 80000000 		.4byte	.LVL316
 8578 17c6 0100     		.2byte	0x1
 8579 17c8 53       		.byte	0x53
 8580 17c9 80000000 		.4byte	.LVL316
 8581 17cd 98000000 		.4byte	.LVL318
 8582 17d1 0600     		.2byte	0x6
 8583 17d3 76       		.byte	0x76
 8584 17d4 00       		.sleb128 0
 8585 17d5 08       		.byte	0x8
 8586 17d6 FF       		.byte	0xff
 8587 17d7 1A       		.byte	0x1a
 8588 17d8 9F       		.byte	0x9f
 8589 17d9 98000000 		.4byte	.LVL318
 8590 17dd 9C000000 		.4byte	.LVL320
 8591 17e1 0800     		.2byte	0x8
 8592 17e3 74       		.byte	0x74
 8593 17e4 3E       		.sleb128 62
 8594 17e5 94       		.byte	0x94
 8595 17e6 01       		.byte	0x1
 8596 17e7 08       		.byte	0x8
ARM GAS  C:\Users\strap\AppData\Local\Temp\ccvWLEyq.s 			page 177


 8597 17e8 FF       		.byte	0xff
 8598 17e9 1A       		.byte	0x1a
 8599 17ea 9F       		.byte	0x9f
 8600 17eb 9C000000 		.4byte	.LVL320
 8601 17ef A2000000 		.4byte	.LVL321
 8602 17f3 0100     		.2byte	0x1
 8603 17f5 53       		.byte	0x53
 8604 17f6 A2000000 		.4byte	.LVL321
 8605 17fa C4000000 		.4byte	.LVL325
 8606 17fe 0800     		.2byte	0x8
 8607 1800 74       		.byte	0x74
 8608 1801 3E       		.sleb128 62
 8609 1802 94       		.byte	0x94
 8610 1803 01       		.byte	0x1
 8611 1804 08       		.byte	0x8
 8612 1805 FF       		.byte	0xff
 8613 1806 1A       		.byte	0x1a
 8614 1807 9F       		.byte	0x9f
 8615 1808 72010000 		.4byte	.LVL355
 8616 180c 8F010000 		.4byte	.LVL358-1
 8617 1810 0800     		.2byte	0x8
 8618 1812 74       		.byte	0x74
 8619 1813 3E       		.sleb128 62
 8620 1814 94       		.byte	0x94
 8621 1815 01       		.byte	0x1
 8622 1816 08       		.byte	0x8
 8623 1817 FF       		.byte	0xff
 8624 1818 1A       		.byte	0x1a
 8625 1819 9F       		.byte	0x9f
 8626 181a 00000000 		.4byte	0
 8627 181e 00000000 		.4byte	0
 8628              	.LLST119:
 8629 1822 1A000000 		.4byte	.LVL295
 8630 1826 2C000000 		.4byte	.LVL297
 8631 182a 0300     		.2byte	0x3
 8632 182c 09       		.byte	0x9
 8633 182d FF       		.byte	0xff
 8634 182e 9F       		.byte	0x9f
 8635 182f 2C000000 		.4byte	.LVL297
 8636 1833 32000000 		.4byte	.LVL300
 8637 1837 0100     		.2byte	0x1
 8638 1839 58       		.byte	0x58
 8639 183a 36000000 		.4byte	.LVL301
 8640 183e 4E000000 		.4byte	.LVL304
 8641 1842 0200     		.2byte	0x2
 8642 1844 31       		.byte	0x31
 8643 1845 9F       		.byte	0x9f
 8644 1846 4E000000 		.4byte	.LVL304
 8645 184a 56000000 		.4byte	.LVL307
 8646 184e 0100     		.2byte	0x1
 8647 1850 58       		.byte	0x58
 8648 1851 5C000000 		.4byte	.LVL308
 8649 1855 4E010000 		.4byte	.LVL351
 8650 1859 0100     		.2byte	0x1
 8651 185b 58       		.byte	0x58
 8652 185c 72010000 		.4byte	.LVL355
 8653 1860 80010000 		.4byte	.LVL357
ARM GAS  C:\Users\strap\AppData\Local\Temp\ccvWLEyq.s 			page 178


 8654 1864 0100     		.2byte	0x1
 8655 1866 58       		.byte	0x58
 8656 1867 18020000 		.4byte	.LVL367
 8657 186b 1C020000 		.4byte	.LVL369
 8658 186f 0100     		.2byte	0x1
 8659 1871 58       		.byte	0x58
 8660 1872 00000000 		.4byte	0
 8661 1876 00000000 		.4byte	0
 8662              	.LLST120:
 8663 187a 30000000 		.4byte	.LVL299
 8664 187e 32000000 		.4byte	.LVL300
 8665 1882 0100     		.2byte	0x1
 8666 1884 55       		.byte	0x55
 8667 1885 54000000 		.4byte	.LVL306
 8668 1889 56000000 		.4byte	.LVL307
 8669 188d 0100     		.2byte	0x1
 8670 188f 55       		.byte	0x55
 8671 1890 5C000000 		.4byte	.LVL308
 8672 1894 8E020000 		.4byte	.LVL380
 8673 1898 0100     		.2byte	0x1
 8674 189a 55       		.byte	0x55
 8675 189b 94020000 		.4byte	.LVL381
 8676 189f 9C020000 		.4byte	.LVL382
 8677 18a3 0100     		.2byte	0x1
 8678 18a5 55       		.byte	0x55
 8679 18a6 5C040000 		.4byte	.LVL413
 8680 18aa 5E040000 		.4byte	.LVL414
 8681 18ae 0100     		.2byte	0x1
 8682 18b0 55       		.byte	0x55
 8683 18b1 00000000 		.4byte	0
 8684 18b5 00000000 		.4byte	0
 8685              	.LLST121:
 8686 18b9 60000000 		.4byte	.LVL309
 8687 18bd 72000000 		.4byte	.LVL311
 8688 18c1 0300     		.2byte	0x3
 8689 18c3 09       		.byte	0x9
 8690 18c4 FF       		.byte	0xff
 8691 18c5 9F       		.byte	0x9f
 8692 18c6 72000000 		.4byte	.LVL311
 8693 18ca 78000000 		.4byte	.LVL314
 8694 18ce 0100     		.2byte	0x1
 8695 18d0 59       		.byte	0x59
 8696 18d1 7C000000 		.4byte	.LVL315
 8697 18d5 94000000 		.4byte	.LVL317
 8698 18d9 0200     		.2byte	0x2
 8699 18db 31       		.byte	0x31
 8700 18dc 9F       		.byte	0x9f
 8701 18dd 94000000 		.4byte	.LVL317
 8702 18e1 9C000000 		.4byte	.LVL320
 8703 18e5 0100     		.2byte	0x1
 8704 18e7 59       		.byte	0x59
 8705 18e8 A2000000 		.4byte	.LVL321
 8706 18ec 56010000 		.4byte	.LVL352
 8707 18f0 0100     		.2byte	0x1
 8708 18f2 59       		.byte	0x59
 8709 18f3 72010000 		.4byte	.LVL355
 8710 18f7 9C010000 		.4byte	.LVL359
ARM GAS  C:\Users\strap\AppData\Local\Temp\ccvWLEyq.s 			page 179


 8711 18fb 0100     		.2byte	0x1
 8712 18fd 59       		.byte	0x59
 8713 18fe 18020000 		.4byte	.LVL367
 8714 1902 20020000 		.4byte	.LVL370
 8715 1906 0100     		.2byte	0x1
 8716 1908 59       		.byte	0x59
 8717 1909 00000000 		.4byte	0
 8718 190d 00000000 		.4byte	0
 8719              	.LLST122:
 8720 1911 76000000 		.4byte	.LVL313
 8721 1915 78000000 		.4byte	.LVL314
 8722 1919 0100     		.2byte	0x1
 8723 191b 56       		.byte	0x56
 8724 191c 9A000000 		.4byte	.LVL319
 8725 1920 9C000000 		.4byte	.LVL320
 8726 1924 0100     		.2byte	0x1
 8727 1926 56       		.byte	0x56
 8728 1927 A2000000 		.4byte	.LVL321
 8729 192b 46040000 		.4byte	.LVL412
 8730 192f 0100     		.2byte	0x1
 8731 1931 56       		.byte	0x56
 8732 1932 5C040000 		.4byte	.LVL413
 8733 1936 5E040000 		.4byte	.LVL414
 8734 193a 0100     		.2byte	0x1
 8735 193c 56       		.byte	0x56
 8736 193d 00000000 		.4byte	0
 8737 1941 00000000 		.4byte	0
 8738              	.LLST123:
 8739 1945 AE020000 		.4byte	.LVL384
 8740 1949 2E030000 		.4byte	.LVL392
 8741 194d 0100     		.2byte	0x1
 8742 194f 57       		.byte	0x57
 8743 1950 00000000 		.4byte	0
 8744 1954 00000000 		.4byte	0
 8745              	.LLST124:
 8746 1958 A8000000 		.4byte	.LVL322
 8747 195c 4A010000 		.4byte	.LVL350
 8748 1960 0200     		.2byte	0x2
 8749 1962 30       		.byte	0x30
 8750 1963 9F       		.byte	0x9f
 8751 1964 4A010000 		.4byte	.LVL350
 8752 1968 72010000 		.4byte	.LVL355
 8753 196c 0100     		.2byte	0x1
 8754 196e 5B       		.byte	0x5b
 8755 196f 72010000 		.4byte	.LVL355
 8756 1973 FA010000 		.4byte	.LVL363
 8757 1977 0200     		.2byte	0x2
 8758 1979 30       		.byte	0x30
 8759 197a 9F       		.byte	0x9f
 8760 197b FA010000 		.4byte	.LVL363
 8761 197f 18020000 		.4byte	.LVL367
 8762 1983 0100     		.2byte	0x1
 8763 1985 5B       		.byte	0x5b
 8764 1986 18020000 		.4byte	.LVL367
 8765 198a 26020000 		.4byte	.LVL371
 8766 198e 0200     		.2byte	0x2
 8767 1990 30       		.byte	0x30
ARM GAS  C:\Users\strap\AppData\Local\Temp\ccvWLEyq.s 			page 180


 8768 1991 9F       		.byte	0x9f
 8769 1992 26020000 		.4byte	.LVL371
 8770 1996 64040000 		.4byte	.LFE47
 8771 199a 0100     		.2byte	0x1
 8772 199c 5B       		.byte	0x5b
 8773 199d 00000000 		.4byte	0
 8774 19a1 00000000 		.4byte	0
 8775              	.LLST125:
 8776 19a5 A8000000 		.4byte	.LVL322
 8777 19a9 64010000 		.4byte	.LVL353
 8778 19ad 0200     		.2byte	0x2
 8779 19af 30       		.byte	0x30
 8780 19b0 9F       		.byte	0x9f
 8781 19b1 64010000 		.4byte	.LVL353
 8782 19b5 72010000 		.4byte	.LVL355
 8783 19b9 0100     		.2byte	0x1
 8784 19bb 58       		.byte	0x58
 8785 19bc 72010000 		.4byte	.LVL355
 8786 19c0 0C020000 		.4byte	.LVL365
 8787 19c4 0200     		.2byte	0x2
 8788 19c6 30       		.byte	0x30
 8789 19c7 9F       		.byte	0x9f
 8790 19c8 0C020000 		.4byte	.LVL365
 8791 19cc 18020000 		.4byte	.LVL367
 8792 19d0 0100     		.2byte	0x1
 8793 19d2 58       		.byte	0x58
 8794 19d3 18020000 		.4byte	.LVL367
 8795 19d7 26020000 		.4byte	.LVL371
 8796 19db 0200     		.2byte	0x2
 8797 19dd 30       		.byte	0x30
 8798 19de 9F       		.byte	0x9f
 8799 19df 26020000 		.4byte	.LVL371
 8800 19e3 E6020000 		.4byte	.LVL389
 8801 19e7 0100     		.2byte	0x1
 8802 19e9 58       		.byte	0x58
 8803 19ea 5C040000 		.4byte	.LVL413
 8804 19ee 5E040000 		.4byte	.LVL414
 8805 19f2 0100     		.2byte	0x1
 8806 19f4 58       		.byte	0x58
 8807 19f5 00000000 		.4byte	0
 8808 19f9 00000000 		.4byte	0
 8809              	.LLST126:
 8810 19fd A8000000 		.4byte	.LVL322
 8811 1a01 70010000 		.4byte	.LVL354
 8812 1a05 0200     		.2byte	0x2
 8813 1a07 30       		.byte	0x30
 8814 1a08 9F       		.byte	0x9f
 8815 1a09 70010000 		.4byte	.LVL354
 8816 1a0d 72010000 		.4byte	.LVL355
 8817 1a11 0100     		.2byte	0x1
 8818 1a13 50       		.byte	0x50
 8819 1a14 72010000 		.4byte	.LVL355
 8820 1a18 16020000 		.4byte	.LVL366
 8821 1a1c 0200     		.2byte	0x2
 8822 1a1e 30       		.byte	0x30
 8823 1a1f 9F       		.byte	0x9f
 8824 1a20 16020000 		.4byte	.LVL366
ARM GAS  C:\Users\strap\AppData\Local\Temp\ccvWLEyq.s 			page 181


 8825 1a24 18020000 		.4byte	.LVL367
 8826 1a28 0100     		.2byte	0x1
 8827 1a2a 50       		.byte	0x50
 8828 1a2b 18020000 		.4byte	.LVL367
 8829 1a2f 26020000 		.4byte	.LVL371
 8830 1a33 0200     		.2byte	0x2
 8831 1a35 30       		.byte	0x30
 8832 1a36 9F       		.byte	0x9f
 8833 1a37 26020000 		.4byte	.LVL371
 8834 1a3b DA020000 		.4byte	.LVL388
 8835 1a3f 0100     		.2byte	0x1
 8836 1a41 50       		.byte	0x50
 8837 1a42 5C040000 		.4byte	.LVL413
 8838 1a46 5E040000 		.4byte	.LVL414
 8839 1a4a 0100     		.2byte	0x1
 8840 1a4c 50       		.byte	0x50
 8841 1a4d 00000000 		.4byte	0
 8842 1a51 00000000 		.4byte	0
 8843              	.LLST127:
 8844 1a55 26020000 		.4byte	.LVL371
 8845 1a59 7E020000 		.4byte	.LVL378
 8846 1a5d 0100     		.2byte	0x1
 8847 1a5f 55       		.byte	0x55
 8848 1a60 7E020000 		.4byte	.LVL378
 8849 1a64 94020000 		.4byte	.LVL381
 8850 1a68 0100     		.2byte	0x1
 8851 1a6a 53       		.byte	0x53
 8852 1a6b 94020000 		.4byte	.LVL381
 8853 1a6f 9C020000 		.4byte	.LVL382
 8854 1a73 0100     		.2byte	0x1
 8855 1a75 55       		.byte	0x55
 8856 1a76 9C020000 		.4byte	.LVL382
 8857 1a7a 1C030000 		.4byte	.LVL391
 8858 1a7e 0100     		.2byte	0x1
 8859 1a80 53       		.byte	0x53
 8860 1a81 5C040000 		.4byte	.LVL413
 8861 1a85 5E040000 		.4byte	.LVL414
 8862 1a89 0100     		.2byte	0x1
 8863 1a8b 55       		.byte	0x55
 8864 1a8c 00000000 		.4byte	0
 8865 1a90 00000000 		.4byte	0
 8866              	.LLST128:
 8867 1a94 26020000 		.4byte	.LVL371
 8868 1a98 B6030000 		.4byte	.LVL399
 8869 1a9c 0100     		.2byte	0x1
 8870 1a9e 55       		.byte	0x55
 8871 1a9f 5C040000 		.4byte	.LVL413
 8872 1aa3 5E040000 		.4byte	.LVL414
 8873 1aa7 0100     		.2byte	0x1
 8874 1aa9 55       		.byte	0x55
 8875 1aaa 00000000 		.4byte	0
 8876 1aae 00000000 		.4byte	0
 8877              	.LLST129:
 8878 1ab2 D2030000 		.4byte	.LVL404
 8879 1ab6 3A040000 		.4byte	.LVL410
 8880 1aba 0100     		.2byte	0x1
 8881 1abc 57       		.byte	0x57
ARM GAS  C:\Users\strap\AppData\Local\Temp\ccvWLEyq.s 			page 182


 8882 1abd 5E040000 		.4byte	.LVL414
 8883 1ac1 64040000 		.4byte	.LFE47
 8884 1ac5 0100     		.2byte	0x1
 8885 1ac7 57       		.byte	0x57
 8886 1ac8 00000000 		.4byte	0
 8887 1acc 00000000 		.4byte	0
 8888              	.LLST130:
 8889 1ad0 C8030000 		.4byte	.LVL401
 8890 1ad4 CC030000 		.4byte	.LVL402
 8891 1ad8 0100     		.2byte	0x1
 8892 1ada 50       		.byte	0x50
 8893 1adb DC030000 		.4byte	.LVL407
 8894 1adf 3E040000 		.4byte	.LVL411
 8895 1ae3 0100     		.2byte	0x1
 8896 1ae5 50       		.byte	0x50
 8897 1ae6 00000000 		.4byte	0
 8898 1aea 00000000 		.4byte	0
 8899              	.LLST131:
 8900 1aee BE000000 		.4byte	.LVL323
 8901 1af2 C4000000 		.4byte	.LVL325
 8902 1af6 0200     		.2byte	0x2
 8903 1af8 32       		.byte	0x32
 8904 1af9 9F       		.byte	0x9f
 8905 1afa C4000000 		.4byte	.LVL325
 8906 1afe D2000000 		.4byte	.LVL329
 8907 1b02 0100     		.2byte	0x1
 8908 1b04 52       		.byte	0x52
 8909 1b05 00000000 		.4byte	0
 8910 1b09 00000000 		.4byte	0
 8911              	.LLST132:
 8912 1b0d BE000000 		.4byte	.LVL323
 8913 1b11 C4000000 		.4byte	.LVL325
 8914 1b15 0100     		.2byte	0x1
 8915 1b17 53       		.byte	0x53
 8916 1b18 00000000 		.4byte	0
 8917 1b1c 00000000 		.4byte	0
 8918              	.LLST133:
 8919 1b20 BE000000 		.4byte	.LVL323
 8920 1b24 C0000000 		.4byte	.LVL324
 8921 1b28 0300     		.2byte	0x3
 8922 1b2a 91       		.byte	0x91
 8923 1b2b 54       		.sleb128 -44
 8924 1b2c 9F       		.byte	0x9f
 8925 1b2d C0000000 		.4byte	.LVL324
 8926 1b31 C4000000 		.4byte	.LVL325
 8927 1b35 0100     		.2byte	0x1
 8928 1b37 50       		.byte	0x50
 8929 1b38 C4000000 		.4byte	.LVL325
 8930 1b3c D2000000 		.4byte	.LVL329
 8931 1b40 0300     		.2byte	0x3
 8932 1b42 91       		.byte	0x91
 8933 1b43 54       		.sleb128 -44
 8934 1b44 9F       		.byte	0x9f
 8935 1b45 00000000 		.4byte	0
 8936 1b49 00000000 		.4byte	0
 8937              	.LLST134:
 8938 1b4d BE000000 		.4byte	.LVL323
ARM GAS  C:\Users\strap\AppData\Local\Temp\ccvWLEyq.s 			page 183


 8939 1b51 C0000000 		.4byte	.LVL324
 8940 1b55 0300     		.2byte	0x3
 8941 1b57 91       		.byte	0x91
 8942 1b58 54       		.sleb128 -44
 8943 1b59 9F       		.byte	0x9f
 8944 1b5a C0000000 		.4byte	.LVL324
 8945 1b5e D8000000 		.4byte	.LVL330
 8946 1b62 0100     		.2byte	0x1
 8947 1b64 50       		.byte	0x50
 8948 1b65 00000000 		.4byte	0
 8949 1b69 00000000 		.4byte	0
 8950              	.LLST135:
 8951 1b6d BE000000 		.4byte	.LVL323
 8952 1b71 C8000000 		.4byte	.LVL326
 8953 1b75 0100     		.2byte	0x1
 8954 1b77 53       		.byte	0x53
 8955 1b78 C8000000 		.4byte	.LVL326
 8956 1b7c CC000000 		.4byte	.LVL327
 8957 1b80 0300     		.2byte	0x3
 8958 1b82 73       		.byte	0x73
 8959 1b83 7F       		.sleb128 -1
 8960 1b84 9F       		.byte	0x9f
 8961 1b85 CC000000 		.4byte	.LVL327
 8962 1b89 DC000000 		.4byte	.LVL331
 8963 1b8d 0100     		.2byte	0x1
 8964 1b8f 53       		.byte	0x53
 8965 1b90 00000000 		.4byte	0
 8966 1b94 00000000 		.4byte	0
 8967              	.LLST136:
 8968 1b98 E6000000 		.4byte	.LVL332
 8969 1b9c EC000000 		.4byte	.LVL334
 8970 1ba0 0200     		.2byte	0x2
 8971 1ba2 32       		.byte	0x32
 8972 1ba3 9F       		.byte	0x9f
 8973 1ba4 EC000000 		.4byte	.LVL334
 8974 1ba8 FA000000 		.4byte	.LVL338
 8975 1bac 0100     		.2byte	0x1
 8976 1bae 52       		.byte	0x52
 8977 1baf 00000000 		.4byte	0
 8978 1bb3 00000000 		.4byte	0
 8979              	.LLST137:
 8980 1bb7 E6000000 		.4byte	.LVL332
 8981 1bbb EC000000 		.4byte	.LVL334
 8982 1bbf 0100     		.2byte	0x1
 8983 1bc1 53       		.byte	0x53
 8984 1bc2 00000000 		.4byte	0
 8985 1bc6 00000000 		.4byte	0
 8986              	.LLST138:
 8987 1bca E6000000 		.4byte	.LVL332
 8988 1bce E8000000 		.4byte	.LVL333
 8989 1bd2 0300     		.2byte	0x3
 8990 1bd4 91       		.byte	0x91
 8991 1bd5 50       		.sleb128 -48
 8992 1bd6 9F       		.byte	0x9f
 8993 1bd7 E8000000 		.4byte	.LVL333
 8994 1bdb EC000000 		.4byte	.LVL334
 8995 1bdf 0100     		.2byte	0x1
ARM GAS  C:\Users\strap\AppData\Local\Temp\ccvWLEyq.s 			page 184


 8996 1be1 50       		.byte	0x50
 8997 1be2 EC000000 		.4byte	.LVL334
 8998 1be6 FA000000 		.4byte	.LVL338
 8999 1bea 0300     		.2byte	0x3
 9000 1bec 91       		.byte	0x91
 9001 1bed 50       		.sleb128 -48
 9002 1bee 9F       		.byte	0x9f
 9003 1bef 00000000 		.4byte	0
 9004 1bf3 00000000 		.4byte	0
 9005              	.LLST139:
 9006 1bf7 EC000000 		.4byte	.LVL334
 9007 1bfb 04010000 		.4byte	.LVL340
 9008 1bff 0100     		.2byte	0x1
 9009 1c01 50       		.byte	0x50
 9010 1c02 00000000 		.4byte	0
 9011 1c06 00000000 		.4byte	0
 9012              	.LLST140:
 9013 1c0a EC000000 		.4byte	.LVL334
 9014 1c0e F0000000 		.4byte	.LVL335
 9015 1c12 0100     		.2byte	0x1
 9016 1c14 53       		.byte	0x53
 9017 1c15 F0000000 		.4byte	.LVL335
 9018 1c19 F4000000 		.4byte	.LVL336
 9019 1c1d 0300     		.2byte	0x3
 9020 1c1f 73       		.byte	0x73
 9021 1c20 7F       		.sleb128 -1
 9022 1c21 9F       		.byte	0x9f
 9023 1c22 F4000000 		.4byte	.LVL336
 9024 1c26 FC000000 		.4byte	.LVL339
 9025 1c2a 0100     		.2byte	0x1
 9026 1c2c 53       		.byte	0x53
 9027 1c2d 00000000 		.4byte	0
 9028 1c31 00000000 		.4byte	0
 9029              	.LLST141:
 9030 1c35 14010000 		.4byte	.LVL341
 9031 1c39 1A010000 		.4byte	.LVL343
 9032 1c3d 0200     		.2byte	0x2
 9033 1c3f 32       		.byte	0x32
 9034 1c40 9F       		.byte	0x9f
 9035 1c41 1A010000 		.4byte	.LVL343
 9036 1c45 28010000 		.4byte	.LVL347
 9037 1c49 0100     		.2byte	0x1
 9038 1c4b 52       		.byte	0x52
 9039 1c4c 00000000 		.4byte	0
 9040 1c50 00000000 		.4byte	0
 9041              	.LLST142:
 9042 1c54 14010000 		.4byte	.LVL341
 9043 1c58 1A010000 		.4byte	.LVL343
 9044 1c5c 0100     		.2byte	0x1
 9045 1c5e 53       		.byte	0x53
 9046 1c5f 00000000 		.4byte	0
 9047 1c63 00000000 		.4byte	0
 9048              	.LLST143:
 9049 1c67 14010000 		.4byte	.LVL341
 9050 1c6b 16010000 		.4byte	.LVL342
 9051 1c6f 0300     		.2byte	0x3
 9052 1c71 91       		.byte	0x91
ARM GAS  C:\Users\strap\AppData\Local\Temp\ccvWLEyq.s 			page 185


 9053 1c72 4C       		.sleb128 -52
 9054 1c73 9F       		.byte	0x9f
 9055 1c74 16010000 		.4byte	.LVL342
 9056 1c78 1A010000 		.4byte	.LVL343
 9057 1c7c 0100     		.2byte	0x1
 9058 1c7e 50       		.byte	0x50
 9059 1c7f 1A010000 		.4byte	.LVL343
 9060 1c83 28010000 		.4byte	.LVL347
 9061 1c87 0300     		.2byte	0x3
 9062 1c89 91       		.byte	0x91
 9063 1c8a 4C       		.sleb128 -52
 9064 1c8b 9F       		.byte	0x9f
 9065 1c8c 00000000 		.4byte	0
 9066 1c90 00000000 		.4byte	0
 9067              	.LLST144:
 9068 1c94 1A010000 		.4byte	.LVL343
 9069 1c98 38010000 		.4byte	.LVL349
 9070 1c9c 0100     		.2byte	0x1
 9071 1c9e 50       		.byte	0x50
 9072 1c9f 18020000 		.4byte	.LVL367
 9073 1ca3 1A020000 		.4byte	.LVL368
 9074 1ca7 0100     		.2byte	0x1
 9075 1ca9 50       		.byte	0x50
 9076 1caa 00000000 		.4byte	0
 9077 1cae 00000000 		.4byte	0
 9078              	.LLST145:
 9079 1cb2 1A010000 		.4byte	.LVL343
 9080 1cb6 1E010000 		.4byte	.LVL344
 9081 1cba 0100     		.2byte	0x1
 9082 1cbc 53       		.byte	0x53
 9083 1cbd 1E010000 		.4byte	.LVL344
 9084 1cc1 22010000 		.4byte	.LVL345
 9085 1cc5 0300     		.2byte	0x3
 9086 1cc7 73       		.byte	0x73
 9087 1cc8 7F       		.sleb128 -1
 9088 1cc9 9F       		.byte	0x9f
 9089 1cca 22010000 		.4byte	.LVL345
 9090 1cce 2C010000 		.4byte	.LVL348
 9091 1cd2 0100     		.2byte	0x1
 9092 1cd4 53       		.byte	0x53
 9093 1cd5 00000000 		.4byte	0
 9094 1cd9 00000000 		.4byte	0
 9095              	.LLST146:
 9096 1cdd 40020000 		.4byte	.LVL372
 9097 1ce1 94020000 		.4byte	.LVL381
 9098 1ce5 0100     		.2byte	0x1
 9099 1ce7 51       		.byte	0x51
 9100 1ce8 9C020000 		.4byte	.LVL382
 9101 1cec 9E020000 		.4byte	.LVL383
 9102 1cf0 0100     		.2byte	0x1
 9103 1cf2 51       		.byte	0x51
 9104 1cf3 5C040000 		.4byte	.LVL413
 9105 1cf7 5E040000 		.4byte	.LVL414
 9106 1cfb 0100     		.2byte	0x1
 9107 1cfd 51       		.byte	0x51
 9108 1cfe 00000000 		.4byte	0
 9109 1d02 00000000 		.4byte	0
ARM GAS  C:\Users\strap\AppData\Local\Temp\ccvWLEyq.s 			page 186


 9110              	.LLST147:
 9111 1d06 4C020000 		.4byte	.LVL373
 9112 1d0a 7A020000 		.4byte	.LVL376
 9113 1d0e 0100     		.2byte	0x1
 9114 1d10 53       		.byte	0x53
 9115 1d11 7A020000 		.4byte	.LVL376
 9116 1d15 7C020000 		.4byte	.LVL377
 9117 1d19 1500     		.2byte	0x15
 9118 1d1b 75       		.byte	0x75
 9119 1d1c 00       		.sleb128 0
 9120 1d1d 78       		.byte	0x78
 9121 1d1e 00       		.sleb128 0
 9122 1d1f 1E       		.byte	0x1e
 9123 1d20 08       		.byte	0x8
 9124 1d21 FF       		.byte	0xff
 9125 1d22 75       		.byte	0x75
 9126 1d23 00       		.sleb128 0
 9127 1d24 1C       		.byte	0x1c
 9128 1d25 70       		.byte	0x70
 9129 1d26 00       		.sleb128 0
 9130 1d27 1E       		.byte	0x1e
 9131 1d28 22       		.byte	0x22
 9132 1d29 09       		.byte	0x9
 9133 1d2a F4       		.byte	0xf4
 9134 1d2b 24       		.byte	0x24
 9135 1d2c 09       		.byte	0x9
 9136 1d2d FC       		.byte	0xfc
 9137 1d2e 25       		.byte	0x25
 9138 1d2f 9F       		.byte	0x9f
 9139 1d30 7C020000 		.4byte	.LVL377
 9140 1d34 7E020000 		.4byte	.LVL378
 9141 1d38 0100     		.2byte	0x1
 9142 1d3a 53       		.byte	0x53
 9143 1d3b 7E020000 		.4byte	.LVL378
 9144 1d3f 8E020000 		.4byte	.LVL380
 9145 1d43 1500     		.2byte	0x15
 9146 1d45 75       		.byte	0x75
 9147 1d46 00       		.sleb128 0
 9148 1d47 78       		.byte	0x78
 9149 1d48 00       		.sleb128 0
 9150 1d49 1E       		.byte	0x1e
 9151 1d4a 08       		.byte	0x8
 9152 1d4b FF       		.byte	0xff
 9153 1d4c 75       		.byte	0x75
 9154 1d4d 00       		.sleb128 0
 9155 1d4e 1C       		.byte	0x1c
 9156 1d4f 70       		.byte	0x70
 9157 1d50 00       		.sleb128 0
 9158 1d51 1E       		.byte	0x1e
 9159 1d52 22       		.byte	0x22
 9160 1d53 09       		.byte	0x9
 9161 1d54 F4       		.byte	0xf4
 9162 1d55 24       		.byte	0x24
 9163 1d56 09       		.byte	0x9
 9164 1d57 FC       		.byte	0xfc
 9165 1d58 25       		.byte	0x25
 9166 1d59 9F       		.byte	0x9f
ARM GAS  C:\Users\strap\AppData\Local\Temp\ccvWLEyq.s 			page 187


 9167 1d5a 5C040000 		.4byte	.LVL413
 9168 1d5e 5E040000 		.4byte	.LVL414
 9169 1d62 0100     		.2byte	0x1
 9170 1d64 53       		.byte	0x53
 9171 1d65 00000000 		.4byte	0
 9172 1d69 00000000 		.4byte	0
 9173              	.LLST148:
 9174 1d6d AE020000 		.4byte	.LVL384
 9175 1d71 1C030000 		.4byte	.LVL391
 9176 1d75 0100     		.2byte	0x1
 9177 1d77 53       		.byte	0x53
 9178 1d78 00000000 		.4byte	0
 9179 1d7c 00000000 		.4byte	0
 9180              	.LLST149:
 9181 1d80 B2020000 		.4byte	.LVL385
 9182 1d84 14030000 		.4byte	.LVL390
 9183 1d88 0100     		.2byte	0x1
 9184 1d8a 5E       		.byte	0x5e
 9185 1d8b 00000000 		.4byte	0
 9186 1d8f 00000000 		.4byte	0
 9187              	.LLST150:
 9188 1d93 D6020000 		.4byte	.LVL387
 9189 1d97 4C030000 		.4byte	.LVL394
 9190 1d9b 0100     		.2byte	0x1
 9191 1d9d 51       		.byte	0x51
 9192 1d9e C6030000 		.4byte	.LVL400
 9193 1da2 FC030000 		.4byte	.LVL408
 9194 1da6 0100     		.2byte	0x1
 9195 1da8 51       		.byte	0x51
 9196 1da9 5E040000 		.4byte	.LVL414
 9197 1dad 64040000 		.4byte	.LFE47
 9198 1db1 0100     		.2byte	0x1
 9199 1db3 51       		.byte	0x51
 9200 1db4 00000000 		.4byte	0
 9201 1db8 00000000 		.4byte	0
 9202              	.LLST151:
 9203 1dbc 48030000 		.4byte	.LVL393
 9204 1dc0 B6030000 		.4byte	.LVL399
 9205 1dc4 0100     		.2byte	0x1
 9206 1dc6 55       		.byte	0x55
 9207 1dc7 00000000 		.4byte	0
 9208 1dcb 00000000 		.4byte	0
 9209              	.LLST152:
 9210 1dcf 4C030000 		.4byte	.LVL394
 9211 1dd3 AE030000 		.4byte	.LVL398
 9212 1dd7 0100     		.2byte	0x1
 9213 1dd9 5E       		.byte	0x5e
 9214 1dda 00000000 		.4byte	0
 9215 1dde 00000000 		.4byte	0
 9216              	.LLST153:
 9217 1de2 48030000 		.4byte	.LVL393
 9218 1de6 AA030000 		.4byte	.LVL397
 9219 1dea 0100     		.2byte	0x1
 9220 1dec 53       		.byte	0x53
 9221 1ded 00000000 		.4byte	0
 9222 1df1 00000000 		.4byte	0
 9223              	.LLST154:
ARM GAS  C:\Users\strap\AppData\Local\Temp\ccvWLEyq.s 			page 188


 9224 1df5 70030000 		.4byte	.LVL396
 9225 1df9 CC030000 		.4byte	.LVL402
 9226 1dfd 0100     		.2byte	0x1
 9227 1dff 50       		.byte	0x50
 9228 1e00 CE030000 		.4byte	.LVL403
 9229 1e04 D6030000 		.4byte	.LVL405
 9230 1e08 0100     		.2byte	0x1
 9231 1e0a 50       		.byte	0x50
 9232 1e0b D8030000 		.4byte	.LVL406
 9233 1e0f 3E040000 		.4byte	.LVL411
 9234 1e13 0100     		.2byte	0x1
 9235 1e15 50       		.byte	0x50
 9236 1e16 00000000 		.4byte	0
 9237 1e1a 00000000 		.4byte	0
 9238              	.LLST155:
 9239 1e1e D8030000 		.4byte	.LVL406
 9240 1e22 46040000 		.4byte	.LVL412
 9241 1e26 0100     		.2byte	0x1
 9242 1e28 56       		.byte	0x56
 9243 1e29 00000000 		.4byte	0
 9244 1e2d 00000000 		.4byte	0
 9245              	.LLST156:
 9246 1e31 00040000 		.4byte	.LVL409
 9247 1e35 5C040000 		.4byte	.LVL413
 9248 1e39 0100     		.2byte	0x1
 9249 1e3b 51       		.byte	0x51
 9250 1e3c 5E040000 		.4byte	.LVL414
 9251 1e40 64040000 		.4byte	.LFE47
 9252 1e44 0100     		.2byte	0x1
 9253 1e46 51       		.byte	0x51
 9254 1e47 00000000 		.4byte	0
 9255 1e4b 00000000 		.4byte	0
 9256              		.section	.debug_aranges,"",%progbits
 9257 0000 6C000000 		.4byte	0x6c
 9258 0004 0200     		.2byte	0x2
 9259 0006 00000000 		.4byte	.Ldebug_info0
 9260 000a 04       		.byte	0x4
 9261 000b 00       		.byte	0
 9262 000c 0000     		.2byte	0
 9263 000e 0000     		.2byte	0
 9264 0010 00000000 		.4byte	.LFB37
 9265 0014 1E010000 		.4byte	.LFE37-.LFB37
 9266 0018 00000000 		.4byte	.LFB38
 9267 001c 00010000 		.4byte	.LFE38-.LFB38
 9268 0020 00000000 		.4byte	.LFB39
 9269 0024 00010000 		.4byte	.LFE39-.LFB39
 9270 0028 00000000 		.4byte	.LFB40
 9271 002c 6C010000 		.4byte	.LFE40-.LFB40
 9272 0030 00000000 		.4byte	.LFB41
 9273 0034 94000000 		.4byte	.LFE41-.LFB41
 9274 0038 00000000 		.4byte	.LFB43
 9275 003c 18000000 		.4byte	.LFE43-.LFB43
 9276 0040 00000000 		.4byte	.LFB44
 9277 0044 A8000000 		.4byte	.LFE44-.LFB44
 9278 0048 00000000 		.4byte	.LFB42
 9279 004c 6E000000 		.4byte	.LFE42-.LFB42
 9280 0050 00000000 		.4byte	.LFB45
ARM GAS  C:\Users\strap\AppData\Local\Temp\ccvWLEyq.s 			page 189


 9281 0054 24010000 		.4byte	.LFE45-.LFB45
 9282 0058 00000000 		.4byte	.LFB46
 9283 005c F0010000 		.4byte	.LFE46-.LFB46
 9284 0060 00000000 		.4byte	.LFB47
 9285 0064 64040000 		.4byte	.LFE47-.LFB47
 9286 0068 00000000 		.4byte	0
 9287 006c 00000000 		.4byte	0
 9288              		.section	.debug_ranges,"",%progbits
 9289              	.Ldebug_ranges0:
 9290 0000 40000000 		.4byte	.LBB31
 9291 0004 42000000 		.4byte	.LBE31
 9292 0008 46000000 		.4byte	.LBB34
 9293 000c 56000000 		.4byte	.LBE34
 9294 0010 00000000 		.4byte	0
 9295 0014 00000000 		.4byte	0
 9296 0018 2E000000 		.4byte	.LBB40
 9297 001c 5C000000 		.4byte	.LBE40
 9298 0020 F2000000 		.4byte	.LBB44
 9299 0024 F6000000 		.4byte	.LBE44
 9300 0028 00000000 		.4byte	0
 9301 002c 00000000 		.4byte	0
 9302 0030 BE000000 		.4byte	.LBB77
 9303 0034 C0000000 		.4byte	.LBE77
 9304 0038 C4000000 		.4byte	.LBB80
 9305 003c D2000000 		.4byte	.LBE80
 9306 0040 00000000 		.4byte	0
 9307 0044 00000000 		.4byte	0
 9308 0048 E6000000 		.4byte	.LBB81
 9309 004c E8000000 		.4byte	.LBE81
 9310 0050 EC000000 		.4byte	.LBB84
 9311 0054 FA000000 		.4byte	.LBE84
 9312 0058 00000000 		.4byte	0
 9313 005c 00000000 		.4byte	0
 9314 0060 14010000 		.4byte	.LBB85
 9315 0064 16010000 		.4byte	.LBE85
 9316 0068 1A010000 		.4byte	.LBB88
 9317 006c 28010000 		.4byte	.LBE88
 9318 0070 00000000 		.4byte	0
 9319 0074 00000000 		.4byte	0
 9320 0078 30020000 		.4byte	.LBB89
 9321 007c 78020000 		.4byte	.LBE89
 9322 0080 7C020000 		.4byte	.LBB90
 9323 0084 94020000 		.4byte	.LBE90
 9324 0088 9C020000 		.4byte	.LBB91
 9325 008c 9E020000 		.4byte	.LBE91
 9326 0090 5C040000 		.4byte	.LBB98
 9327 0094 5E040000 		.4byte	.LBE98
 9328 0098 00000000 		.4byte	0
 9329 009c 00000000 		.4byte	0
 9330 00a0 00000000 		.4byte	.LFB37
 9331 00a4 1E010000 		.4byte	.LFE37
 9332 00a8 00000000 		.4byte	.LFB38
 9333 00ac 00010000 		.4byte	.LFE38
 9334 00b0 00000000 		.4byte	.LFB39
 9335 00b4 00010000 		.4byte	.LFE39
 9336 00b8 00000000 		.4byte	.LFB40
 9337 00bc 6C010000 		.4byte	.LFE40
ARM GAS  C:\Users\strap\AppData\Local\Temp\ccvWLEyq.s 			page 190


 9338 00c0 00000000 		.4byte	.LFB41
 9339 00c4 94000000 		.4byte	.LFE41
 9340 00c8 00000000 		.4byte	.LFB43
 9341 00cc 18000000 		.4byte	.LFE43
 9342 00d0 00000000 		.4byte	.LFB44
 9343 00d4 A8000000 		.4byte	.LFE44
 9344 00d8 00000000 		.4byte	.LFB42
 9345 00dc 6E000000 		.4byte	.LFE42
 9346 00e0 00000000 		.4byte	.LFB45
 9347 00e4 24010000 		.4byte	.LFE45
 9348 00e8 00000000 		.4byte	.LFB46
 9349 00ec F0010000 		.4byte	.LFE46
 9350 00f0 00000000 		.4byte	.LFB47
 9351 00f4 64040000 		.4byte	.LFE47
 9352 00f8 00000000 		.4byte	0
 9353 00fc 00000000 		.4byte	0
 9354              		.section	.debug_line,"",%progbits
 9355              	.Ldebug_line0:
 9356 0000 84050000 		.section	.debug_str,"MS",%progbits,1
 9356      02005602 
 9356      00000201 
 9356      FB0E0D00 
 9356      01010101 
 9357              	.LASF138:
 9358 0000 6C765F6D 		.ascii	"lv_mem_alloc\000"
 9358      656D5F61 
 9358      6C6C6F63 
 9358      00
 9359              	.LASF50:
 9360 000d 4C565F49 		.ascii	"LV_IMG_CF_RAW\000"
 9360      4D475F43 
 9360      465F5241 
 9360      5700
 9361              	.LASF29:
 9362 001b 4C565F4F 		.ascii	"LV_OPA_40\000"
 9362      50415F34 
 9362      3000
 9363              	.LASF4:
 9364 0025 73697A65 		.ascii	"size_t\000"
 9364      5F7400
 9365              	.LASF5:
 9366 002c 5F5F7569 		.ascii	"__uint8_t\000"
 9366      6E74385F 
 9366      7400
 9367              	.LASF51:
 9368 0036 4C565F49 		.ascii	"LV_IMG_CF_RAW_ALPHA\000"
 9368      4D475F43 
 9368      465F5241 
 9368      575F414C 
 9368      50484100 
 9369              	.LASF91:
 9370 004a 7069766F 		.ascii	"pivot_x\000"
 9370      745F7800 
 9371              	.LASF92:
 9372 0052 7069766F 		.ascii	"pivot_y\000"
 9372      745F7900 
 9373              	.LASF133:
ARM GAS  C:\Users\strap\AppData\Local\Temp\ccvWLEyq.s 			page 191


 9374 005a 7372635F 		.ascii	"src_u8\000"
 9374      753800
 9375              	.LASF62:
 9376 0061 4C565F49 		.ascii	"LV_IMG_CF_ALPHA_4BIT\000"
 9376      4D475F43 
 9376      465F414C 
 9376      5048415F 
 9376      34424954 
 9377              	.LASF15:
 9378 0076 6C6F6E67 		.ascii	"long long unsigned int\000"
 9378      206C6F6E 
 9378      6720756E 
 9378      7369676E 
 9378      65642069 
 9379              	.LASF93:
 9380 008d 616E676C 		.ascii	"angle\000"
 9380      6500
 9381              	.LASF141:
 9382 0093 6C765F69 		.ascii	"lv_img_cf_is_chroma_keyed\000"
 9382      6D675F63 
 9382      665F6973 
 9382      5F636872 
 9382      6F6D615F 
 9383              	.LASF94:
 9384 00ad 7A6F6F6D 		.ascii	"zoom\000"
 9384      00
 9385              	.LASF109:
 9386 00b2 70785F73 		.ascii	"px_size\000"
 9386      697A6500 
 9387              	.LASF59:
 9388 00ba 4C565F49 		.ascii	"LV_IMG_CF_INDEXED_8BIT\000"
 9388      4D475F43 
 9388      465F494E 
 9388      44455845 
 9388      445F3842 
 9389              	.LASF44:
 9390 00d1 6C765F63 		.ascii	"lv_color32_t\000"
 9390      6F6C6F72 
 9390      33325F74 
 9390      00
 9391              	.LASF130:
 9392 00de 7069766F 		.ascii	"pivot\000"
 9392      7400
 9393              	.LASF121:
 9394 00e4 6C765F69 		.ascii	"lv_img_buf_set_palette\000"
 9394      6D675F62 
 9394      75665F73 
 9394      65745F70 
 9394      616C6574 
 9395              	.LASF23:
 9396 00fb 6C765F63 		.ascii	"lv_coord_t\000"
 9396      6F6F7264 
 9396      5F7400
 9397              	.LASF118:
 9398 0106 6F70615F 		.ascii	"opa_table\000"
 9398      7461626C 
 9398      6500
ARM GAS  C:\Users\strap\AppData\Local\Temp\ccvWLEyq.s 			page 192


 9399              	.LASF1:
 9400 0110 6C6F6E67 		.ascii	"long long int\000"
 9400      206C6F6E 
 9400      6720696E 
 9400      7400
 9401              	.LASF3:
 9402 011e 7369676E 		.ascii	"signed char\000"
 9402      65642063 
 9402      68617200 
 9403              	.LASF42:
 9404 012a 67726565 		.ascii	"green\000"
 9404      6E00
 9405              	.LASF43:
 9406 0130 616C7068 		.ascii	"alpha\000"
 9406      6100
 9407              	.LASF117:
 9408 0136 70785F6F 		.ascii	"px_opa\000"
 9408      706100
 9409              	.LASF30:
 9410 013d 4C565F4F 		.ascii	"LV_OPA_50\000"
 9410      50415F35 
 9410      3000
 9411              	.LASF99:
 9412 0147 7069766F 		.ascii	"pivot_x_256\000"
 9412      745F785F 
 9412      32353600 
 9413              	.LASF140:
 9414 0153 5F6C765F 		.ascii	"_lv_trigo_sin\000"
 9414      74726967 
 9414      6F5F7369 
 9414      6E00
 9415              	.LASF48:
 9416 0161 6C765F61 		.ascii	"lv_area_t\000"
 9416      7265615F 
 9416      7400
 9417              	.LASF12:
 9418 016b 6C6F6E67 		.ascii	"long int\000"
 9418      20696E74 
 9418      00
 9419              	.LASF102:
 9420 0174 636F736D 		.ascii	"cosma\000"
 9420      6100
 9421              	.LASF84:
 9422 017a 6C765F69 		.ascii	"lv_img_header_t\000"
 9422      6D675F68 
 9422      65616465 
 9422      725F7400 
 9423              	.LASF134:
 9424 018a 78735F66 		.ascii	"xs_fract\000"
 9424      72616374 
 9424      00
 9425              	.LASF20:
 9426 0193 75696E74 		.ascii	"uint16_t\000"
 9426      31365F74 
 9426      00
 9427              	.LASF137:
 9428 019c 6C765F6D 		.ascii	"lv_mem_free\000"
ARM GAS  C:\Users\strap\AppData\Local\Temp\ccvWLEyq.s 			page 193


 9428      656D5F66 
 9428      72656500 
 9429              	.LASF36:
 9430 01a8 4C565F4F 		.ascii	"LV_OPA_COVER\000"
 9430      50415F43 
 9430      4F564552 
 9430      00
 9431              	.LASF136:
 9432 01b5 6C765F69 		.ascii	"lv_img_cf_get_px_size\000"
 9432      6D675F63 
 9432      665F6765 
 9432      745F7078 
 9432      5F73697A 
 9433              	.LASF49:
 9434 01cb 4C565F49 		.ascii	"LV_IMG_CF_UNKNOWN\000"
 9434      4D475F43 
 9434      465F554E 
 9434      4B4E4F57 
 9434      4E00
 9435              	.LASF64:
 9436 01dd 4C565F49 		.ascii	"LV_IMG_CF_RESERVED_15\000"
 9436      4D475F43 
 9436      465F5245 
 9436      53455256 
 9436      45445F31 
 9437              	.LASF65:
 9438 01f3 4C565F49 		.ascii	"LV_IMG_CF_RESERVED_16\000"
 9438      4D475F43 
 9438      465F5245 
 9438      53455256 
 9438      45445F31 
 9439              	.LASF66:
 9440 0209 4C565F49 		.ascii	"LV_IMG_CF_RESERVED_17\000"
 9440      4D475F43 
 9440      465F5245 
 9440      53455256 
 9440      45445F31 
 9441              	.LASF67:
 9442 021f 4C565F49 		.ascii	"LV_IMG_CF_RESERVED_18\000"
 9442      4D475F43 
 9442      465F5245 
 9442      53455256 
 9442      45445F31 
 9443              	.LASF68:
 9444 0235 4C565F49 		.ascii	"LV_IMG_CF_RESERVED_19\000"
 9444      4D475F43 
 9444      465F5245 
 9444      53455256 
 9444      45445F31 
 9445              	.LASF70:
 9446 024b 4C565F49 		.ascii	"LV_IMG_CF_RESERVED_21\000"
 9446      4D475F43 
 9446      465F5245 
 9446      53455256 
 9446      45445F32 
 9447              	.LASF13:
 9448 0261 5F5F7569 		.ascii	"__uint32_t\000"
ARM GAS  C:\Users\strap\AppData\Local\Temp\ccvWLEyq.s 			page 194


 9448      6E743332 
 9448      5F7400
 9449              	.LASF90:
 9450 026c 7372635F 		.ascii	"src_h\000"
 9450      6800
 9451              	.LASF7:
 9452 0272 5F5F696E 		.ascii	"__int16_t\000"
 9452      7431365F 
 9452      7400
 9453              	.LASF28:
 9454 027c 4C565F4F 		.ascii	"LV_OPA_30\000"
 9454      50415F33 
 9454      3000
 9455              	.LASF83:
 9456 0286 72657365 		.ascii	"reserved\000"
 9456      72766564 
 9456      00
 9457              	.LASF123:
 9458 028f 6C765F69 		.ascii	"lv_img_buf_get_img_size\000"
 9458      6D675F62 
 9458      75665F67 
 9458      65745F69 
 9458      6D675F73 
 9459              	.LASF61:
 9460 02a7 4C565F49 		.ascii	"LV_IMG_CF_ALPHA_2BIT\000"
 9460      4D475F43 
 9460      465F414C 
 9460      5048415F 
 9460      32424954 
 9461              	.LASF89:
 9462 02bc 7372635F 		.ascii	"src_w\000"
 9462      7700
 9463              	.LASF0:
 9464 02c2 756E7369 		.ascii	"unsigned int\000"
 9464      676E6564 
 9464      20696E74 
 9464      00
 9465              	.LASF120:
 9466 02cf 6C765F69 		.ascii	"lv_img_buf_set_px_color\000"
 9466      6D675F62 
 9466      75665F73 
 9466      65745F70 
 9466      785F636F 
 9467              	.LASF126:
 9468 02e7 616E676C 		.ascii	"angle_low\000"
 9468      655F6C6F 
 9468      7700
 9469              	.LASF33:
 9470 02f1 4C565F4F 		.ascii	"LV_OPA_80\000"
 9470      50415F38 
 9470      3000
 9471              	.LASF31:
 9472 02fb 4C565F4F 		.ascii	"LV_OPA_60\000"
 9472      50415F36 
 9472      3000
 9473              	.LASF125:
 9474 0305 5F6C765F 		.ascii	"_lv_img_buf_transform_init\000"
ARM GAS  C:\Users\strap\AppData\Local\Temp\ccvWLEyq.s 			page 195


 9474      696D675F 
 9474      6275665F 
 9474      7472616E 
 9474      73666F72 
 9475              	.LASF14:
 9476 0320 6C6F6E67 		.ascii	"long unsigned int\000"
 9476      20756E73 
 9476      69676E65 
 9476      6420696E 
 9476      7400
 9477              	.LASF104:
 9478 0332 6861735F 		.ascii	"has_alpha\000"
 9478      616C7068 
 9478      6100
 9479              	.LASF69:
 9480 033c 4C565F49 		.ascii	"LV_IMG_CF_RESERVED_20\000"
 9480      4D475F43 
 9480      465F5245 
 9480      53455256 
 9480      45445F32 
 9481              	.LASF71:
 9482 0352 4C565F49 		.ascii	"LV_IMG_CF_RESERVED_22\000"
 9482      4D475F43 
 9482      465F5245 
 9482      53455256 
 9482      45445F32 
 9483              	.LASF72:
 9484 0368 4C565F49 		.ascii	"LV_IMG_CF_RESERVED_23\000"
 9484      4D475F43 
 9484      465F5245 
 9484      53455256 
 9484      45445F32 
 9485              	.LASF101:
 9486 037e 73696E6D 		.ascii	"sinma\000"
 9486      6100
 9487              	.LASF105:
 9488 0384 6E617469 		.ascii	"native_color\000"
 9488      76655F63 
 9488      6F6C6F72 
 9488      00
 9489              	.LASF60:
 9490 0391 4C565F49 		.ascii	"LV_IMG_CF_ALPHA_1BIT\000"
 9490      4D475F43 
 9490      465F414C 
 9490      5048415F 
 9490      31424954 
 9491              	.LASF32:
 9492 03a6 4C565F4F 		.ascii	"LV_OPA_70\000"
 9492      50415F37 
 9492      3000
 9493              	.LASF132:
 9494 03b0 5F6C765F 		.ascii	"_lv_img_buf_transform_anti_alias\000"
 9494      696D675F 
 9494      6275665F 
 9494      7472616E 
 9494      73666F72 
 9495              	.LASF55:
ARM GAS  C:\Users\strap\AppData\Local\Temp\ccvWLEyq.s 			page 196


 9496 03d1 4C565F49 		.ascii	"LV_IMG_CF_TRUE_COLOR_CHROMA_KEYED\000"
 9496      4D475F43 
 9496      465F5452 
 9496      55455F43 
 9496      4F4C4F52 
 9497              	.LASF86:
 9498 03f3 64617461 		.ascii	"data_size\000"
 9498      5F73697A 
 9498      6500
 9499              	.LASF11:
 9500 03fd 5F5F696E 		.ascii	"__int32_t\000"
 9500      7433325F 
 9500      7400
 9501              	.LASF46:
 9502 0407 6C765F6F 		.ascii	"lv_opa_t\000"
 9502      70615F74 
 9502      00
 9503              	.LASF111:
 9504 0410 5F6C765F 		.ascii	"_lv_memcpy_small\000"
 9504      6D656D63 
 9504      70795F73 
 9504      6D616C6C 
 9504      00
 9505              	.LASF53:
 9506 0421 4C565F49 		.ascii	"LV_IMG_CF_TRUE_COLOR\000"
 9506      4D475F43 
 9506      465F5452 
 9506      55455F43 
 9506      4F4C4F52 
 9507              	.LASF16:
 9508 0436 73697A65 		.ascii	"sizetype\000"
 9508      74797065 
 9508      00
 9509              	.LASF24:
 9510 043f 4C565F4F 		.ascii	"LV_OPA_TRANSP\000"
 9510      50415F54 
 9510      52414E53 
 9510      5000
 9511              	.LASF2:
 9512 044d 6C6F6E67 		.ascii	"long double\000"
 9512      20646F75 
 9512      626C6500 
 9513              	.LASF40:
 9514 0459 66756C6C 		.ascii	"full\000"
 9514      00
 9515              	.LASF128:
 9516 045e 616E676C 		.ascii	"angle_rem\000"
 9516      655F7265 
 9516      6D00
 9517              	.LASF114:
 9518 0468 6275665F 		.ascii	"buf_u8\000"
 9518      753800
 9519              	.LASF106:
 9520 046f 7A6F6F6D 		.ascii	"zoom_inv\000"
 9520      5F696E76 
 9520      00
 9521              	.LASF87:
ARM GAS  C:\Users\strap\AppData\Local\Temp\ccvWLEyq.s 			page 197


 9522 0478 64617461 		.ascii	"data\000"
 9522      00
 9523              	.LASF113:
 9524 047d 705F636F 		.ascii	"p_color\000"
 9524      6C6F7200 
 9525              	.LASF58:
 9526 0485 4C565F49 		.ascii	"LV_IMG_CF_INDEXED_4BIT\000"
 9526      4D475F43 
 9526      465F494E 
 9526      44455845 
 9526      445F3442 
 9527              	.LASF145:
 9528 049c 433A5C55 		.ascii	"C:\\Users\\strap\\Documents\\Creator\\test_lvgl\\il"
 9528      73657273 
 9528      5C737472 
 9528      61705C44 
 9528      6F63756D 
 9529 04c9 69393334 		.ascii	"i9341_master.cydsn\000"
 9529      315F6D61 
 9529      73746572 
 9529      2E637964 
 9529      736E00
 9530              	.LASF103:
 9531 04dc 6368726F 		.ascii	"chroma_keyed\000"
 9531      6D615F6B 
 9531      65796564 
 9531      00
 9532              	.LASF115:
 9533 04e9 6C765F69 		.ascii	"lv_img_buf_get_px_color\000"
 9533      6D675F62 
 9533      75665F67 
 9533      65745F70 
 9533      785F636F 
 9534              	.LASF124:
 9535 0501 6C765F69 		.ascii	"lv_img_buf_alloc\000"
 9535      6D675F62 
 9535      75665F61 
 9535      6C6C6F63 
 9535      00
 9536              	.LASF129:
 9537 0512 5F6C765F 		.ascii	"_lv_img_buf_get_transformed_area\000"
 9537      696D675F 
 9537      6275665F 
 9537      6765745F 
 9537      7472616E 
 9538              	.LASF139:
 9539 0533 5F6C765F 		.ascii	"_lv_memset_00\000"
 9539      6D656D73 
 9539      65745F30 
 9539      3000
 9540              	.LASF37:
 9541 0541 67726565 		.ascii	"green_h\000"
 9541      6E5F6800 
 9542              	.LASF39:
 9543 0549 67726565 		.ascii	"green_l\000"
 9543      6E5F6C00 
 9544              	.LASF41:
ARM GAS  C:\Users\strap\AppData\Local\Temp\ccvWLEyq.s 			page 198


 9545 0551 6C765F63 		.ascii	"lv_color16_t\000"
 9545      6F6C6F72 
 9545      31365F74 
 9545      00
 9546              	.LASF110:
 9547 055e 6C765F69 		.ascii	"lv_img_transform_dsc_t\000"
 9547      6D675F74 
 9547      72616E73 
 9547      666F726D 
 9547      5F647363 
 9548              	.LASF26:
 9549 0575 4C565F4F 		.ascii	"LV_OPA_10\000"
 9549      50415F31 
 9549      3000
 9550              	.LASF97:
 9551 057f 5F426F6F 		.ascii	"_Bool\000"
 9551      6C00
 9552              	.LASF21:
 9553 0585 696E7433 		.ascii	"int32_t\000"
 9553      325F7400 
 9554              	.LASF6:
 9555 058d 756E7369 		.ascii	"unsigned char\000"
 9555      676E6564 
 9555      20636861 
 9555      7200
 9556              	.LASF63:
 9557 059b 4C565F49 		.ascii	"LV_IMG_CF_ALPHA_8BIT\000"
 9557      4D475F43 
 9557      465F414C 
 9557      5048415F 
 9557      38424954 
 9558              	.LASF8:
 9559 05b0 73686F72 		.ascii	"short int\000"
 9559      7420696E 
 9559      7400
 9560              	.LASF34:
 9561 05ba 4C565F4F 		.ascii	"LV_OPA_90\000"
 9561      50415F39 
 9561      3000
 9562              	.LASF127:
 9563 05c4 616E676C 		.ascii	"angle_hight\000"
 9563      655F6869 
 9563      67687400 
 9564              	.LASF143:
 9565 05d0 474E5520 		.ascii	"GNU C11 5.4.1 20160609 (release) [ARM/embedded-5-br"
 9565      43313120 
 9565      352E342E 
 9565      31203230 
 9565      31363036 
 9566 0603 616E6368 		.ascii	"anch revision 237715] -mcpu=cortex-m3 -mthumb -g -O"
 9566      20726576 
 9566      6973696F 
 9566      6E203233 
 9566      37373135 
 9567 0636 67202D66 		.ascii	"g -ffunction-sections -ffat-lto-objects\000"
 9567      66756E63 
 9567      74696F6E 
ARM GAS  C:\Users\strap\AppData\Local\Temp\ccvWLEyq.s 			page 199


 9567      2D736563 
 9567      74696F6E 
 9568              	.LASF108:
 9569 065e 79735F69 		.ascii	"ys_int\000"
 9569      6E7400
 9570              	.LASF98:
 9571 0665 696D675F 		.ascii	"img_dsc\000"
 9571      64736300 
 9572              	.LASF119:
 9573 066d 6C765F69 		.ascii	"lv_img_buf_set_px_alpha\000"
 9573      6D675F62 
 9573      75665F73 
 9573      65745F70 
 9573      785F616C 
 9574              	.LASF107:
 9575 0685 78735F69 		.ascii	"xs_int\000"
 9575      6E7400
 9576              	.LASF38:
 9577 068c 626C7565 		.ascii	"blue\000"
 9577      00
 9578              	.LASF95:
 9579 0691 636F6C6F 		.ascii	"color\000"
 9579      7200
 9580              	.LASF17:
 9581 0697 63686172 		.ascii	"char\000"
 9581      00
 9582              	.LASF27:
 9583 069c 4C565F4F 		.ascii	"LV_OPA_20\000"
 9583      50415F32 
 9583      3000
 9584              	.LASF57:
 9585 06a6 4C565F49 		.ascii	"LV_IMG_CF_INDEXED_2BIT\000"
 9585      4D475F43 
 9585      465F494E 
 9585      44455845 
 9585      445F3242 
 9586              	.LASF9:
 9587 06bd 5F5F7569 		.ascii	"__uint16_t\000"
 9587      6E743136 
 9587      5F7400
 9588              	.LASF112:
 9589 06c8 6C765F63 		.ascii	"lv_color_to32\000"
 9589      6F6C6F72 
 9589      5F746F33 
 9589      3200
 9590              	.LASF100:
 9591 06d6 7069766F 		.ascii	"pivot_y_256\000"
 9591      745F795F 
 9591      32353600 
 9592              	.LASF144:
 9593 06e2 6C76676C 		.ascii	"lvgl\\src\\lv_draw\\lv_img_buf.c\000"
 9593      5C737263 
 9593      5C6C765F 
 9593      64726177 
 9593      5C6C765F 
 9594              	.LASF96:
 9595 0700 616E7469 		.ascii	"antialias\000"
ARM GAS  C:\Users\strap\AppData\Local\Temp\ccvWLEyq.s 			page 200


 9595      616C6961 
 9595      7300
 9596              	.LASF45:
 9597 070a 6C765F63 		.ascii	"lv_color_t\000"
 9597      6F6C6F72 
 9597      5F7400
 9598              	.LASF35:
 9599 0715 4C565F4F 		.ascii	"LV_OPA_100\000"
 9599      50415F31 
 9599      303000
 9600              	.LASF74:
 9601 0720 4C565F49 		.ascii	"LV_IMG_CF_USER_ENCODED_1\000"
 9601      4D475F43 
 9601      465F5553 
 9601      45525F45 
 9601      4E434F44 
 9602              	.LASF75:
 9603 0739 4C565F49 		.ascii	"LV_IMG_CF_USER_ENCODED_2\000"
 9603      4D475F43 
 9603      465F5553 
 9603      45525F45 
 9603      4E434F44 
 9604              	.LASF76:
 9605 0752 4C565F49 		.ascii	"LV_IMG_CF_USER_ENCODED_3\000"
 9605      4D475F43 
 9605      465F5553 
 9605      45525F45 
 9605      4E434F44 
 9606              	.LASF77:
 9607 076b 4C565F49 		.ascii	"LV_IMG_CF_USER_ENCODED_4\000"
 9607      4D475F43 
 9607      465F5553 
 9607      45525F45 
 9607      4E434F44 
 9608              	.LASF78:
 9609 0784 4C565F49 		.ascii	"LV_IMG_CF_USER_ENCODED_5\000"
 9609      4D475F43 
 9609      465F5553 
 9609      45525F45 
 9609      4E434F44 
 9610              	.LASF79:
 9611 079d 4C565F49 		.ascii	"LV_IMG_CF_USER_ENCODED_6\000"
 9611      4D475F43 
 9611      465F5553 
 9611      45525F45 
 9611      4E434F44 
 9612              	.LASF80:
 9613 07b6 4C565F49 		.ascii	"LV_IMG_CF_USER_ENCODED_7\000"
 9613      4D475F43 
 9613      465F5553 
 9613      45525F45 
 9613      4E434F44 
 9614              	.LASF10:
 9615 07cf 73686F72 		.ascii	"short unsigned int\000"
 9615      7420756E 
 9615      7369676E 
 9615      65642069 
ARM GAS  C:\Users\strap\AppData\Local\Temp\ccvWLEyq.s 			page 201


 9615      6E7400
 9616              	.LASF73:
 9617 07e2 4C565F49 		.ascii	"LV_IMG_CF_USER_ENCODED_0\000"
 9617      4D475F43 
 9617      465F5553 
 9617      45525F45 
 9617      4E434F44 
 9618              	.LASF56:
 9619 07fb 4C565F49 		.ascii	"LV_IMG_CF_INDEXED_1BIT\000"
 9619      4D475F43 
 9619      465F494E 
 9619      44455845 
 9619      445F3142 
 9620              	.LASF88:
 9621 0812 6C765F69 		.ascii	"lv_img_dsc_t\000"
 9621      6D675F64 
 9621      73635F74 
 9621      00
 9622              	.LASF18:
 9623 081f 75696E74 		.ascii	"uint8_t\000"
 9623      385F7400 
 9624              	.LASF47:
 9625 0827 6C765F70 		.ascii	"lv_point_t\000"
 9625      6F696E74 
 9625      5F7400
 9626              	.LASF25:
 9627 0832 4C565F4F 		.ascii	"LV_OPA_0\000"
 9627      50415F30 
 9627      00
 9628              	.LASF54:
 9629 083b 4C565F49 		.ascii	"LV_IMG_CF_TRUE_COLOR_ALPHA\000"
 9629      4D475F43 
 9629      465F5452 
 9629      55455F43 
 9629      4F4C4F52 
 9630              	.LASF82:
 9631 0856 616C7761 		.ascii	"always_zero\000"
 9631      79735F7A 
 9631      65726F00 
 9632              	.LASF135:
 9633 0862 79735F66 		.ascii	"ys_fract\000"
 9633      72616374 
 9633      00
 9634              	.LASF131:
 9635 086b 6C765F63 		.ascii	"lv_color_mix\000"
 9635      6F6C6F72 
 9635      5F6D6978 
 9635      00
 9636              	.LASF142:
 9637 0878 6C765F69 		.ascii	"lv_img_cf_has_alpha\000"
 9637      6D675F63 
 9637      665F6861 
 9637      735F616C 
 9637      70686100 
 9638              	.LASF116:
 9639 088c 6C765F69 		.ascii	"lv_img_buf_get_px_alpha\000"
 9639      6D675F62 
ARM GAS  C:\Users\strap\AppData\Local\Temp\ccvWLEyq.s 			page 202


 9639      75665F67 
 9639      65745F70 
 9639      785F616C 
 9640              	.LASF52:
 9641 08a4 4C565F49 		.ascii	"LV_IMG_CF_RAW_CHROMA_KEYED\000"
 9641      4D475F43 
 9641      465F5241 
 9641      575F4348 
 9641      524F4D41 
 9642              	.LASF81:
 9643 08bf 6C765F69 		.ascii	"lv_img_cf_t\000"
 9643      6D675F63 
 9643      665F7400 
 9644              	.LASF19:
 9645 08cb 696E7431 		.ascii	"int16_t\000"
 9645      365F7400 
 9646              	.LASF122:
 9647 08d3 6C765F69 		.ascii	"lv_img_buf_free\000"
 9647      6D675F62 
 9647      75665F66 
 9647      72656500 
 9648              	.LASF85:
 9649 08e3 68656164 		.ascii	"header\000"
 9649      657200
 9650              	.LASF22:
 9651 08ea 75696E74 		.ascii	"uint32_t\000"
 9651      33325F74 
 9651      00
 9652              		.ident	"GCC: (GNU Tools for ARM Embedded Processors) 5.4.1 20160609 (release) [ARM/embedded-5-bran
