ARM GAS  C:\Users\strap\AppData\Local\Temp\ccvWLEyq.s 			page 1


   1              		.syntax unified
   2              		.cpu cortex-m3
   3              		.fpu softvfp
   4              		.eabi_attribute 20, 1
   5              		.eabi_attribute 21, 1
   6              		.eabi_attribute 23, 3
   7              		.eabi_attribute 24, 1
   8              		.eabi_attribute 25, 1
   9              		.eabi_attribute 26, 1
  10              		.eabi_attribute 30, 1
  11              		.eabi_attribute 34, 1
  12              		.eabi_attribute 18, 4
  13              		.thumb
  14              		.syntax unified
  15              		.file	"lv_img_buf.c"
  16              		.text
  17              	.Ltext0:
  18              		.cfi_sections	.debug_frame
  19              		.section	.text.lv_img_buf_get_px_color,"ax",%progbits
  20              		.align	2
  21              		.global	lv_img_buf_get_px_color
  22              		.thumb
  23              		.thumb_func
  24              		.type	lv_img_buf_get_px_color, %function
  25              	lv_img_buf_get_px_color:
  26              	.LFB37:
  27              		.file 1 "lvgl\\src\\lv_draw\\lv_img_buf.c"
   1:lvgl\src\lv_draw/lv_img_buf.c **** /**
   2:lvgl\src\lv_draw/lv_img_buf.c ****  * @file lv_img_buf.c
   3:lvgl\src\lv_draw/lv_img_buf.c ****  *
   4:lvgl\src\lv_draw/lv_img_buf.c ****  */
   5:lvgl\src\lv_draw/lv_img_buf.c **** 
   6:lvgl\src\lv_draw/lv_img_buf.c **** /*********************
   7:lvgl\src\lv_draw/lv_img_buf.c ****  *      INCLUDES
   8:lvgl\src\lv_draw/lv_img_buf.c ****  *********************/
   9:lvgl\src\lv_draw/lv_img_buf.c **** #include <stddef.h>
  10:lvgl\src\lv_draw/lv_img_buf.c **** #include <string.h>
  11:lvgl\src\lv_draw/lv_img_buf.c **** #include "lv_img_buf.h"
  12:lvgl\src\lv_draw/lv_img_buf.c **** #include "lv_draw_img.h"
  13:lvgl\src\lv_draw/lv_img_buf.c **** #include "../lv_misc/lv_math.h"
  14:lvgl\src\lv_draw/lv_img_buf.c **** #include "../lv_misc/lv_log.h"
  15:lvgl\src\lv_draw/lv_img_buf.c **** #include "../lv_misc/lv_mem.h"
  16:lvgl\src\lv_draw/lv_img_buf.c **** 
  17:lvgl\src\lv_draw/lv_img_buf.c **** /*********************
  18:lvgl\src\lv_draw/lv_img_buf.c ****  *      DEFINES
  19:lvgl\src\lv_draw/lv_img_buf.c ****  *********************/
  20:lvgl\src\lv_draw/lv_img_buf.c **** 
  21:lvgl\src\lv_draw/lv_img_buf.c **** /**********************
  22:lvgl\src\lv_draw/lv_img_buf.c ****  *      TYPEDEFS
  23:lvgl\src\lv_draw/lv_img_buf.c ****  **********************/
  24:lvgl\src\lv_draw/lv_img_buf.c **** 
  25:lvgl\src\lv_draw/lv_img_buf.c **** /**********************
  26:lvgl\src\lv_draw/lv_img_buf.c ****  *  STATIC PROTOTYPES
  27:lvgl\src\lv_draw/lv_img_buf.c ****  **********************/
  28:lvgl\src\lv_draw/lv_img_buf.c **** 
  29:lvgl\src\lv_draw/lv_img_buf.c **** /**********************
  30:lvgl\src\lv_draw/lv_img_buf.c ****  *  STATIC VARIABLES
ARM GAS  C:\Users\strap\AppData\Local\Temp\ccvWLEyq.s 			page 2


  31:lvgl\src\lv_draw/lv_img_buf.c ****  **********************/
  32:lvgl\src\lv_draw/lv_img_buf.c **** 
  33:lvgl\src\lv_draw/lv_img_buf.c **** /**********************
  34:lvgl\src\lv_draw/lv_img_buf.c ****  *      MACROS
  35:lvgl\src\lv_draw/lv_img_buf.c ****  **********************/
  36:lvgl\src\lv_draw/lv_img_buf.c **** 
  37:lvgl\src\lv_draw/lv_img_buf.c **** /**********************
  38:lvgl\src\lv_draw/lv_img_buf.c ****  *   GLOBAL FUNCTIONS
  39:lvgl\src\lv_draw/lv_img_buf.c ****  **********************/
  40:lvgl\src\lv_draw/lv_img_buf.c **** 
  41:lvgl\src\lv_draw/lv_img_buf.c **** 
  42:lvgl\src\lv_draw/lv_img_buf.c **** /**
  43:lvgl\src\lv_draw/lv_img_buf.c ****  * Get the color of an image's pixel
  44:lvgl\src\lv_draw/lv_img_buf.c ****  * @param dsc an image descriptor
  45:lvgl\src\lv_draw/lv_img_buf.c ****  * @param x x coordinate of the point to get
  46:lvgl\src\lv_draw/lv_img_buf.c ****  * @param y x coordinate of the point to get
  47:lvgl\src\lv_draw/lv_img_buf.c ****  * @param color the color of the image. In case of `LV_IMG_CF_ALPHA_1/2/4/8` this color is used.
  48:lvgl\src\lv_draw/lv_img_buf.c ****  * Not used in other cases.
  49:lvgl\src\lv_draw/lv_img_buf.c ****  * @param safe true: check out of bounds
  50:lvgl\src\lv_draw/lv_img_buf.c ****  * @return color of the point
  51:lvgl\src\lv_draw/lv_img_buf.c ****  */
  52:lvgl\src\lv_draw/lv_img_buf.c **** lv_color_t lv_img_buf_get_px_color(lv_img_dsc_t * dsc, lv_coord_t x, lv_coord_t y, lv_color_t color
  53:lvgl\src\lv_draw/lv_img_buf.c **** {
  28              		.loc 1 53 0
  29              		.cfi_startproc
  30              		@ args = 0, pretend = 0, frame = 8
  31              		@ frame_needed = 0, uses_anonymous_args = 0
  32              	.LVL0:
  33 0000 F0B5     		push	{r4, r5, r6, r7, lr}
  34              		.cfi_def_cfa_offset 20
  35              		.cfi_offset 4, -20
  36              		.cfi_offset 5, -16
  37              		.cfi_offset 6, -12
  38              		.cfi_offset 7, -8
  39              		.cfi_offset 14, -4
  40 0002 83B0     		sub	sp, sp, #12
  41              		.cfi_def_cfa_offset 32
  54:lvgl\src\lv_draw/lv_img_buf.c ****     lv_color_t p_color = LV_COLOR_BLACK;
  42              		.loc 1 54 0
  43 0004 0024     		movs	r4, #0
  44 0006 ADF80440 		strh	r4, [sp, #4]	@ movhi
  55:lvgl\src\lv_draw/lv_img_buf.c ****     uint8_t * buf_u8 = (uint8_t *)dsc->data;
  45              		.loc 1 55 0
  46 000a 8568     		ldr	r5, [r0, #8]
  47              	.LVL1:
  56:lvgl\src\lv_draw/lv_img_buf.c **** 
  57:lvgl\src\lv_draw/lv_img_buf.c ****     if(dsc->header.cf == LV_IMG_CF_TRUE_COLOR || dsc->header.cf == LV_IMG_CF_TRUE_COLOR_CHROMA_KEYE
  48              		.loc 1 57 0
  49 000c 0478     		ldrb	r4, [r0]	@ zero_extendqisi2
  50 000e 04F01F04 		and	r4, r4, #31
  51 0012 042C     		cmp	r4, #4
  52 0014 03D0     		beq	.L2
  53              		.loc 1 57 0 is_stmt 0 discriminator 1
  54 0016 062C     		cmp	r4, #6
  55 0018 01D0     		beq	.L2
  56              		.loc 1 57 0 discriminator 2
  57 001a 052C     		cmp	r4, #5
ARM GAS  C:\Users\strap\AppData\Local\Temp\ccvWLEyq.s 			page 3


  58 001c 1BD1     		bne	.L3
  59              	.L2:
  60 001e 1646     		mov	r6, r2
  61 0020 0F46     		mov	r7, r1
  62 0022 0446     		mov	r4, r0
  63              	.LBB30:
  58:lvgl\src\lv_draw/lv_img_buf.c ****        dsc->header.cf == LV_IMG_CF_TRUE_COLOR_ALPHA) {
  59:lvgl\src\lv_draw/lv_img_buf.c ****         uint8_t px_size = lv_img_cf_get_px_size(dsc->header.cf) >> 3;
  64              		.loc 1 59 0 is_stmt 1
  65 0024 0078     		ldrb	r0, [r0]	@ zero_extendqisi2
  66              	.LVL2:
  67 0026 00F01F00 		and	r0, r0, #31
  68 002a FFF7FEFF 		bl	lv_img_cf_get_px_size
  69              	.LVL3:
  70 002e C0F3C700 		ubfx	r0, r0, #3, #8
  71              	.LVL4:
  60:lvgl\src\lv_draw/lv_img_buf.c ****         uint32_t px     = dsc->header.w * y * px_size + x * px_size;
  72              		.loc 1 60 0
  73 0032 2368     		ldr	r3, [r4]
  74 0034 C3F38A23 		ubfx	r3, r3, #10, #11
  75 0038 06FB0372 		mla	r2, r6, r3, r7
  76              	.LVL5:
  61:lvgl\src\lv_draw/lv_img_buf.c ****         _lv_memcpy_small(&p_color, &buf_u8[px], sizeof(lv_color_t));
  77              		.loc 1 61 0
  78 003c 00FB0250 		mla	r0, r0, r2, r5
  79              	.LVL6:
  80              	.LBB31:
  81              	.LBB32:
  82              		.file 2 "lvgl\\src\\lv_draw\\../lv_misc/lv_mem.h"
   1:lvgl\src\lv_draw\../lv_misc/lv_mem.h **** /**
   2:lvgl\src\lv_draw\../lv_misc/lv_mem.h ****  * @file lv_mem.h
   3:lvgl\src\lv_draw\../lv_misc/lv_mem.h ****  *
   4:lvgl\src\lv_draw\../lv_misc/lv_mem.h ****  */
   5:lvgl\src\lv_draw\../lv_misc/lv_mem.h **** 
   6:lvgl\src\lv_draw\../lv_misc/lv_mem.h **** #ifndef LV_MEM_H
   7:lvgl\src\lv_draw\../lv_misc/lv_mem.h **** #define LV_MEM_H
   8:lvgl\src\lv_draw\../lv_misc/lv_mem.h **** 
   9:lvgl\src\lv_draw\../lv_misc/lv_mem.h **** #ifdef __cplusplus
  10:lvgl\src\lv_draw\../lv_misc/lv_mem.h **** extern "C" {
  11:lvgl\src\lv_draw\../lv_misc/lv_mem.h **** #endif
  12:lvgl\src\lv_draw\../lv_misc/lv_mem.h **** 
  13:lvgl\src\lv_draw\../lv_misc/lv_mem.h **** /*********************
  14:lvgl\src\lv_draw\../lv_misc/lv_mem.h ****  *      INCLUDES
  15:lvgl\src\lv_draw\../lv_misc/lv_mem.h ****  *********************/
  16:lvgl\src\lv_draw\../lv_misc/lv_mem.h **** #include "../lv_conf_internal.h"
  17:lvgl\src\lv_draw\../lv_misc/lv_mem.h **** 
  18:lvgl\src\lv_draw\../lv_misc/lv_mem.h **** #include <stdint.h>
  19:lvgl\src\lv_draw\../lv_misc/lv_mem.h **** #include <stddef.h>
  20:lvgl\src\lv_draw\../lv_misc/lv_mem.h **** #include "lv_log.h"
  21:lvgl\src\lv_draw\../lv_misc/lv_mem.h **** #include "lv_types.h"
  22:lvgl\src\lv_draw\../lv_misc/lv_mem.h **** 
  23:lvgl\src\lv_draw\../lv_misc/lv_mem.h **** #if LV_MEMCPY_MEMSET_STD
  24:lvgl\src\lv_draw\../lv_misc/lv_mem.h **** #include <string.h>
  25:lvgl\src\lv_draw\../lv_misc/lv_mem.h **** #endif
  26:lvgl\src\lv_draw\../lv_misc/lv_mem.h **** 
  27:lvgl\src\lv_draw\../lv_misc/lv_mem.h **** /*********************
  28:lvgl\src\lv_draw\../lv_misc/lv_mem.h ****  *      DEFINES
ARM GAS  C:\Users\strap\AppData\Local\Temp\ccvWLEyq.s 			page 4


  29:lvgl\src\lv_draw\../lv_misc/lv_mem.h ****  *********************/
  30:lvgl\src\lv_draw\../lv_misc/lv_mem.h **** 
  31:lvgl\src\lv_draw\../lv_misc/lv_mem.h **** #ifndef LV_MEM_BUF_MAX_NUM
  32:lvgl\src\lv_draw\../lv_misc/lv_mem.h **** #define LV_MEM_BUF_MAX_NUM    16
  33:lvgl\src\lv_draw\../lv_misc/lv_mem.h **** #endif
  34:lvgl\src\lv_draw\../lv_misc/lv_mem.h **** 
  35:lvgl\src\lv_draw\../lv_misc/lv_mem.h **** /**********************
  36:lvgl\src\lv_draw\../lv_misc/lv_mem.h ****  *      TYPEDEFS
  37:lvgl\src\lv_draw\../lv_misc/lv_mem.h ****  **********************/
  38:lvgl\src\lv_draw\../lv_misc/lv_mem.h **** 
  39:lvgl\src\lv_draw\../lv_misc/lv_mem.h **** /**
  40:lvgl\src\lv_draw\../lv_misc/lv_mem.h ****  * Heap information structure.
  41:lvgl\src\lv_draw\../lv_misc/lv_mem.h ****  */
  42:lvgl\src\lv_draw\../lv_misc/lv_mem.h **** typedef struct {
  43:lvgl\src\lv_draw\../lv_misc/lv_mem.h ****     uint32_t total_size; /**< Total heap size */
  44:lvgl\src\lv_draw\../lv_misc/lv_mem.h ****     uint32_t free_cnt;
  45:lvgl\src\lv_draw\../lv_misc/lv_mem.h ****     uint32_t free_size; /**< Size of available memory */
  46:lvgl\src\lv_draw\../lv_misc/lv_mem.h ****     uint32_t free_biggest_size;
  47:lvgl\src\lv_draw\../lv_misc/lv_mem.h ****     uint32_t used_cnt;
  48:lvgl\src\lv_draw\../lv_misc/lv_mem.h ****     uint32_t max_used; /**< Max size of Heap memory used */
  49:lvgl\src\lv_draw\../lv_misc/lv_mem.h ****     uint8_t used_pct; /**< Percentage used */
  50:lvgl\src\lv_draw\../lv_misc/lv_mem.h ****     uint8_t frag_pct; /**< Amount of fragmentation */
  51:lvgl\src\lv_draw\../lv_misc/lv_mem.h **** } lv_mem_monitor_t;
  52:lvgl\src\lv_draw\../lv_misc/lv_mem.h **** 
  53:lvgl\src\lv_draw\../lv_misc/lv_mem.h **** typedef struct {
  54:lvgl\src\lv_draw\../lv_misc/lv_mem.h ****     void * p;
  55:lvgl\src\lv_draw\../lv_misc/lv_mem.h ****     uint16_t size;
  56:lvgl\src\lv_draw\../lv_misc/lv_mem.h ****     uint8_t used    : 1;
  57:lvgl\src\lv_draw\../lv_misc/lv_mem.h **** } lv_mem_buf_t;
  58:lvgl\src\lv_draw\../lv_misc/lv_mem.h **** 
  59:lvgl\src\lv_draw\../lv_misc/lv_mem.h **** typedef lv_mem_buf_t lv_mem_buf_arr_t[LV_MEM_BUF_MAX_NUM];
  60:lvgl\src\lv_draw\../lv_misc/lv_mem.h **** extern lv_mem_buf_arr_t _lv_mem_buf;
  61:lvgl\src\lv_draw\../lv_misc/lv_mem.h **** 
  62:lvgl\src\lv_draw\../lv_misc/lv_mem.h **** /**********************
  63:lvgl\src\lv_draw\../lv_misc/lv_mem.h ****  * GLOBAL PROTOTYPES
  64:lvgl\src\lv_draw\../lv_misc/lv_mem.h ****  **********************/
  65:lvgl\src\lv_draw\../lv_misc/lv_mem.h **** 
  66:lvgl\src\lv_draw\../lv_misc/lv_mem.h **** /**
  67:lvgl\src\lv_draw\../lv_misc/lv_mem.h ****  * Initialize the dyn_mem module (work memory and other variables)
  68:lvgl\src\lv_draw\../lv_misc/lv_mem.h ****  */
  69:lvgl\src\lv_draw\../lv_misc/lv_mem.h **** void _lv_mem_init(void);
  70:lvgl\src\lv_draw\../lv_misc/lv_mem.h **** 
  71:lvgl\src\lv_draw\../lv_misc/lv_mem.h **** /**
  72:lvgl\src\lv_draw\../lv_misc/lv_mem.h ****  * Clean up the memory buffer which frees all the allocated memories.
  73:lvgl\src\lv_draw\../lv_misc/lv_mem.h ****  * @note It work only if `LV_MEM_CUSTOM == 0`
  74:lvgl\src\lv_draw\../lv_misc/lv_mem.h ****  */
  75:lvgl\src\lv_draw\../lv_misc/lv_mem.h **** void _lv_mem_deinit(void);
  76:lvgl\src\lv_draw\../lv_misc/lv_mem.h **** 
  77:lvgl\src\lv_draw\../lv_misc/lv_mem.h **** /**
  78:lvgl\src\lv_draw\../lv_misc/lv_mem.h ****  * Allocate a memory dynamically
  79:lvgl\src\lv_draw\../lv_misc/lv_mem.h ****  * @param size size of the memory to allocate in bytes
  80:lvgl\src\lv_draw\../lv_misc/lv_mem.h ****  * @return pointer to the allocated memory
  81:lvgl\src\lv_draw\../lv_misc/lv_mem.h ****  */
  82:lvgl\src\lv_draw\../lv_misc/lv_mem.h **** void * lv_mem_alloc(size_t size);
  83:lvgl\src\lv_draw\../lv_misc/lv_mem.h **** 
  84:lvgl\src\lv_draw\../lv_misc/lv_mem.h **** /**
  85:lvgl\src\lv_draw\../lv_misc/lv_mem.h ****  * Free an allocated data
ARM GAS  C:\Users\strap\AppData\Local\Temp\ccvWLEyq.s 			page 5


  86:lvgl\src\lv_draw\../lv_misc/lv_mem.h ****  * @param data pointer to an allocated memory
  87:lvgl\src\lv_draw\../lv_misc/lv_mem.h ****  */
  88:lvgl\src\lv_draw\../lv_misc/lv_mem.h **** void lv_mem_free(const void * data);
  89:lvgl\src\lv_draw\../lv_misc/lv_mem.h **** 
  90:lvgl\src\lv_draw\../lv_misc/lv_mem.h **** /**
  91:lvgl\src\lv_draw\../lv_misc/lv_mem.h ****  * Reallocate a memory with a new size. The old content will be kept.
  92:lvgl\src\lv_draw\../lv_misc/lv_mem.h ****  * @param data pointer to an allocated memory.
  93:lvgl\src\lv_draw\../lv_misc/lv_mem.h ****  * Its content will be copied to the new memory block and freed
  94:lvgl\src\lv_draw\../lv_misc/lv_mem.h ****  * @param new_size the desired new size in byte
  95:lvgl\src\lv_draw\../lv_misc/lv_mem.h ****  * @return pointer to the new memory
  96:lvgl\src\lv_draw\../lv_misc/lv_mem.h ****  */
  97:lvgl\src\lv_draw\../lv_misc/lv_mem.h **** void * lv_mem_realloc(void * data_p, size_t new_size);
  98:lvgl\src\lv_draw\../lv_misc/lv_mem.h **** 
  99:lvgl\src\lv_draw\../lv_misc/lv_mem.h **** /**
 100:lvgl\src\lv_draw\../lv_misc/lv_mem.h ****  * Join the adjacent free memory blocks
 101:lvgl\src\lv_draw\../lv_misc/lv_mem.h ****  */
 102:lvgl\src\lv_draw\../lv_misc/lv_mem.h **** void lv_mem_defrag(void);
 103:lvgl\src\lv_draw\../lv_misc/lv_mem.h **** 
 104:lvgl\src\lv_draw\../lv_misc/lv_mem.h **** /**
 105:lvgl\src\lv_draw\../lv_misc/lv_mem.h ****  *
 106:lvgl\src\lv_draw\../lv_misc/lv_mem.h ****  * @return
 107:lvgl\src\lv_draw\../lv_misc/lv_mem.h ****  */
 108:lvgl\src\lv_draw\../lv_misc/lv_mem.h **** lv_res_t lv_mem_test(void);
 109:lvgl\src\lv_draw\../lv_misc/lv_mem.h **** 
 110:lvgl\src\lv_draw\../lv_misc/lv_mem.h **** /**
 111:lvgl\src\lv_draw\../lv_misc/lv_mem.h ****  * Give information about the work memory of dynamic allocation
 112:lvgl\src\lv_draw\../lv_misc/lv_mem.h ****  * @param mon_p pointer to a dm_mon_p variable,
 113:lvgl\src\lv_draw\../lv_misc/lv_mem.h ****  *              the result of the analysis will be stored here
 114:lvgl\src\lv_draw\../lv_misc/lv_mem.h ****  */
 115:lvgl\src\lv_draw\../lv_misc/lv_mem.h **** void lv_mem_monitor(lv_mem_monitor_t * mon_p);
 116:lvgl\src\lv_draw\../lv_misc/lv_mem.h **** 
 117:lvgl\src\lv_draw\../lv_misc/lv_mem.h **** /**
 118:lvgl\src\lv_draw\../lv_misc/lv_mem.h ****  * Give the size of an allocated memory
 119:lvgl\src\lv_draw\../lv_misc/lv_mem.h ****  * @param data pointer to an allocated memory
 120:lvgl\src\lv_draw\../lv_misc/lv_mem.h ****  * @return the size of data memory in bytes
 121:lvgl\src\lv_draw\../lv_misc/lv_mem.h ****  */
 122:lvgl\src\lv_draw\../lv_misc/lv_mem.h **** uint32_t _lv_mem_get_size(const void * data);
 123:lvgl\src\lv_draw\../lv_misc/lv_mem.h **** 
 124:lvgl\src\lv_draw\../lv_misc/lv_mem.h **** /**
 125:lvgl\src\lv_draw\../lv_misc/lv_mem.h ****  * Get a temporal buffer with the given size.
 126:lvgl\src\lv_draw\../lv_misc/lv_mem.h ****  * @param size the required size
 127:lvgl\src\lv_draw\../lv_misc/lv_mem.h ****  */
 128:lvgl\src\lv_draw\../lv_misc/lv_mem.h **** void * _lv_mem_buf_get(uint32_t size);
 129:lvgl\src\lv_draw\../lv_misc/lv_mem.h **** 
 130:lvgl\src\lv_draw\../lv_misc/lv_mem.h **** /**
 131:lvgl\src\lv_draw\../lv_misc/lv_mem.h ****  * Release a memory buffer
 132:lvgl\src\lv_draw\../lv_misc/lv_mem.h ****  * @param p buffer to release
 133:lvgl\src\lv_draw\../lv_misc/lv_mem.h ****  */
 134:lvgl\src\lv_draw\../lv_misc/lv_mem.h **** void _lv_mem_buf_release(void * p);
 135:lvgl\src\lv_draw\../lv_misc/lv_mem.h **** 
 136:lvgl\src\lv_draw\../lv_misc/lv_mem.h **** /**
 137:lvgl\src\lv_draw\../lv_misc/lv_mem.h ****  * Free all memory buffers
 138:lvgl\src\lv_draw\../lv_misc/lv_mem.h ****  */
 139:lvgl\src\lv_draw\../lv_misc/lv_mem.h **** void _lv_mem_buf_free_all(void);
 140:lvgl\src\lv_draw\../lv_misc/lv_mem.h **** 
 141:lvgl\src\lv_draw\../lv_misc/lv_mem.h **** 
 142:lvgl\src\lv_draw\../lv_misc/lv_mem.h **** //! @cond Doxygen_Suppress
ARM GAS  C:\Users\strap\AppData\Local\Temp\ccvWLEyq.s 			page 6


 143:lvgl\src\lv_draw\../lv_misc/lv_mem.h **** 
 144:lvgl\src\lv_draw\../lv_misc/lv_mem.h **** #if LV_MEMCPY_MEMSET_STD
 145:lvgl\src\lv_draw\../lv_misc/lv_mem.h **** 
 146:lvgl\src\lv_draw\../lv_misc/lv_mem.h **** /**
 147:lvgl\src\lv_draw\../lv_misc/lv_mem.h ****  * Wrapper for the standard memcpy
 148:lvgl\src\lv_draw\../lv_misc/lv_mem.h ****  * @param dst pointer to the destination buffer
 149:lvgl\src\lv_draw\../lv_misc/lv_mem.h ****  * @param src pointer to the source buffer
 150:lvgl\src\lv_draw\../lv_misc/lv_mem.h ****  * @param len number of byte to copy
 151:lvgl\src\lv_draw\../lv_misc/lv_mem.h ****  */
 152:lvgl\src\lv_draw\../lv_misc/lv_mem.h **** static inline void * _lv_memcpy(void * dst, const void * src, size_t len)
 153:lvgl\src\lv_draw\../lv_misc/lv_mem.h **** {
 154:lvgl\src\lv_draw\../lv_misc/lv_mem.h ****     return memcpy(dst, src, len);
 155:lvgl\src\lv_draw\../lv_misc/lv_mem.h **** }
 156:lvgl\src\lv_draw\../lv_misc/lv_mem.h **** 
 157:lvgl\src\lv_draw\../lv_misc/lv_mem.h **** /**
 158:lvgl\src\lv_draw\../lv_misc/lv_mem.h ****  * Wrapper for the standard memcpy
 159:lvgl\src\lv_draw\../lv_misc/lv_mem.h ****  * @param dst pointer to the destination buffer
 160:lvgl\src\lv_draw\../lv_misc/lv_mem.h ****  * @param src pointer to the source buffer
 161:lvgl\src\lv_draw\../lv_misc/lv_mem.h ****  * @param len number of byte to copy
 162:lvgl\src\lv_draw\../lv_misc/lv_mem.h ****  */
 163:lvgl\src\lv_draw\../lv_misc/lv_mem.h **** static inline void * _lv_memcpy_small(void * dst, const void * src, size_t len)
 164:lvgl\src\lv_draw\../lv_misc/lv_mem.h **** {
 165:lvgl\src\lv_draw\../lv_misc/lv_mem.h ****     return memcpy(dst, src, len);
 166:lvgl\src\lv_draw\../lv_misc/lv_mem.h **** }
 167:lvgl\src\lv_draw\../lv_misc/lv_mem.h **** 
 168:lvgl\src\lv_draw\../lv_misc/lv_mem.h **** /**
 169:lvgl\src\lv_draw\../lv_misc/lv_mem.h ****  * Wrapper for the standard memset
 170:lvgl\src\lv_draw\../lv_misc/lv_mem.h ****  * @param dst pointer to the destination buffer
 171:lvgl\src\lv_draw\../lv_misc/lv_mem.h ****  * @param v value to set [0..255]
 172:lvgl\src\lv_draw\../lv_misc/lv_mem.h ****  * @param len number of byte to set
 173:lvgl\src\lv_draw\../lv_misc/lv_mem.h ****  */
 174:lvgl\src\lv_draw\../lv_misc/lv_mem.h **** static inline void _lv_memset(void * dst, uint8_t v, size_t len)
 175:lvgl\src\lv_draw\../lv_misc/lv_mem.h **** {
 176:lvgl\src\lv_draw\../lv_misc/lv_mem.h ****     memset(dst, v, len);
 177:lvgl\src\lv_draw\../lv_misc/lv_mem.h **** }
 178:lvgl\src\lv_draw\../lv_misc/lv_mem.h **** 
 179:lvgl\src\lv_draw\../lv_misc/lv_mem.h **** /**
 180:lvgl\src\lv_draw\../lv_misc/lv_mem.h ****  * Wrapper for the standard memset with fixed 0x00 value
 181:lvgl\src\lv_draw\../lv_misc/lv_mem.h ****  * @param dst pointer to the destination buffer
 182:lvgl\src\lv_draw\../lv_misc/lv_mem.h ****  * @param len number of byte to set
 183:lvgl\src\lv_draw\../lv_misc/lv_mem.h ****  */
 184:lvgl\src\lv_draw\../lv_misc/lv_mem.h **** static inline void _lv_memset_00(void * dst, size_t len)
 185:lvgl\src\lv_draw\../lv_misc/lv_mem.h **** {
 186:lvgl\src\lv_draw\../lv_misc/lv_mem.h ****     memset(dst, 0x00, len);
 187:lvgl\src\lv_draw\../lv_misc/lv_mem.h **** }
 188:lvgl\src\lv_draw\../lv_misc/lv_mem.h **** 
 189:lvgl\src\lv_draw\../lv_misc/lv_mem.h **** /**
 190:lvgl\src\lv_draw\../lv_misc/lv_mem.h ****  * Wrapper for the standard memset with fixed 0xFF value
 191:lvgl\src\lv_draw\../lv_misc/lv_mem.h ****  * @param dst pointer to the destination buffer
 192:lvgl\src\lv_draw\../lv_misc/lv_mem.h ****  * @param len number of byte to set
 193:lvgl\src\lv_draw\../lv_misc/lv_mem.h ****  */
 194:lvgl\src\lv_draw\../lv_misc/lv_mem.h **** static inline void _lv_memset_ff(void * dst, size_t len)
 195:lvgl\src\lv_draw\../lv_misc/lv_mem.h **** {
 196:lvgl\src\lv_draw\../lv_misc/lv_mem.h ****     memset(dst, 0xFF, len);
 197:lvgl\src\lv_draw\../lv_misc/lv_mem.h **** }
 198:lvgl\src\lv_draw\../lv_misc/lv_mem.h **** 
 199:lvgl\src\lv_draw\../lv_misc/lv_mem.h **** #else
ARM GAS  C:\Users\strap\AppData\Local\Temp\ccvWLEyq.s 			page 7


 200:lvgl\src\lv_draw\../lv_misc/lv_mem.h **** /**
 201:lvgl\src\lv_draw\../lv_misc/lv_mem.h ****  * Same as `memcpy` but optimized for 4 byte operation.
 202:lvgl\src\lv_draw\../lv_misc/lv_mem.h ****  * @param dst pointer to the destination buffer
 203:lvgl\src\lv_draw\../lv_misc/lv_mem.h ****  * @param src pointer to the source buffer
 204:lvgl\src\lv_draw\../lv_misc/lv_mem.h ****  * @param len number of byte to copy
 205:lvgl\src\lv_draw\../lv_misc/lv_mem.h ****  */
 206:lvgl\src\lv_draw\../lv_misc/lv_mem.h **** LV_ATTRIBUTE_FAST_MEM void * _lv_memcpy(void * dst, const void * src, size_t len);
 207:lvgl\src\lv_draw\../lv_misc/lv_mem.h **** 
 208:lvgl\src\lv_draw\../lv_misc/lv_mem.h **** /**
 209:lvgl\src\lv_draw\../lv_misc/lv_mem.h ****  * Same as `memcpy` but optimized to copy only a few bytes.
 210:lvgl\src\lv_draw\../lv_misc/lv_mem.h ****  * @param dst pointer to the destination buffer
 211:lvgl\src\lv_draw\../lv_misc/lv_mem.h ****  * @param src pointer to the source buffer
 212:lvgl\src\lv_draw\../lv_misc/lv_mem.h ****  * @param len number of byte to copy
 213:lvgl\src\lv_draw\../lv_misc/lv_mem.h ****  */
 214:lvgl\src\lv_draw\../lv_misc/lv_mem.h **** LV_ATTRIBUTE_FAST_MEM static inline void * _lv_memcpy_small(void * dst, const void * src, size_t le
 215:lvgl\src\lv_draw\../lv_misc/lv_mem.h **** {
 216:lvgl\src\lv_draw\../lv_misc/lv_mem.h ****     uint8_t * d8 = (uint8_t *)dst;
  83              		.loc 2 216 0
  84 0040 01AA     		add	r2, sp, #4
  85              	.LVL7:
  86              	.LBE32:
  87              	.LBE31:
  88              		.loc 1 61 0
  89 0042 0223     		movs	r3, #2
  90 0044 04E0     		b	.L4
  91              	.LVL8:
  92              	.L5:
  93              	.LBB34:
  94              	.LBB33:
 217:lvgl\src\lv_draw\../lv_misc/lv_mem.h ****     const uint8_t * s8 = (const uint8_t *)src;
 218:lvgl\src\lv_draw\../lv_misc/lv_mem.h **** 
 219:lvgl\src\lv_draw\../lv_misc/lv_mem.h ****     while(len) {
 220:lvgl\src\lv_draw\../lv_misc/lv_mem.h ****         *d8 = *s8;
  95              		.loc 2 220 0
  96 0046 10F8011B 		ldrb	r1, [r0], #1	@ zero_extendqisi2
  97              	.LVL9:
  98 004a 02F8011B 		strb	r1, [r2], #1
  99              	.LVL10:
 221:lvgl\src\lv_draw\../lv_misc/lv_mem.h ****         d8++;
 222:lvgl\src\lv_draw\../lv_misc/lv_mem.h ****         s8++;
 223:lvgl\src\lv_draw\../lv_misc/lv_mem.h ****         len--;
 100              		.loc 2 223 0
 101 004e 013B     		subs	r3, r3, #1
 102              	.LVL11:
 103              	.L4:
 219:lvgl\src\lv_draw\../lv_misc/lv_mem.h ****         *d8 = *s8;
 104              		.loc 2 219 0
 105 0050 002B     		cmp	r3, #0
 106 0052 F8D1     		bne	.L5
 107 0054 5FE0     		b	.L6
 108              	.LVL12:
 109              	.L3:
 110              	.LBE33:
 111              	.LBE34:
 112              	.LBE30:
  62:lvgl\src\lv_draw/lv_img_buf.c **** #if LV_COLOR_SIZE == 32
  63:lvgl\src\lv_draw/lv_img_buf.c ****         p_color.ch.alpha = 0xFF; /*Only the color should be get so use a default alpha value*/
ARM GAS  C:\Users\strap\AppData\Local\Temp\ccvWLEyq.s 			page 8


  64:lvgl\src\lv_draw/lv_img_buf.c **** #endif
  65:lvgl\src\lv_draw/lv_img_buf.c ****     }
  66:lvgl\src\lv_draw/lv_img_buf.c ****     else if(dsc->header.cf == LV_IMG_CF_INDEXED_1BIT) {
 113              		.loc 1 66 0
 114 0056 072C     		cmp	r4, #7
 115 0058 15D1     		bne	.L7
 116              	.LVL13:
 117              	.LBB35:
  67:lvgl\src\lv_draw/lv_img_buf.c ****         buf_u8 += 4 * 2;
  68:lvgl\src\lv_draw/lv_img_buf.c ****         uint8_t bit = x & 0x7;
 118              		.loc 1 68 0
 119 005a 01F00704 		and	r4, r1, #7
 120              	.LVL14:
  69:lvgl\src\lv_draw/lv_img_buf.c ****         x           = x >> 3;
  70:lvgl\src\lv_draw/lv_img_buf.c **** 
  71:lvgl\src\lv_draw/lv_img_buf.c ****         /* Get the current pixel.
  72:lvgl\src\lv_draw/lv_img_buf.c ****          * dsc->header.w + 7 means rounding up to 8 because the lines are byte aligned
  73:lvgl\src\lv_draw/lv_img_buf.c ****          * so the possible real width are 8, 16, 24 ...*/
  74:lvgl\src\lv_draw/lv_img_buf.c ****         uint32_t px  = ((dsc->header.w + 7) >> 3) * y + x;
 121              		.loc 1 74 0
 122 005e 0068     		ldr	r0, [r0]
 123              	.LVL15:
 124 0060 C0F38A20 		ubfx	r0, r0, #10, #11
 125 0064 0730     		adds	r0, r0, #7
 126 0066 C010     		asrs	r0, r0, #3
 127 0068 00FB02F2 		mul	r2, r0, r2
 128              	.LVL16:
 129 006c 02EBE101 		add	r1, r2, r1, asr #3
 130              	.LVL17:
  75:lvgl\src\lv_draw/lv_img_buf.c ****         p_color.full = (buf_u8[px] & (1 << (7 - bit))) >> (7 - bit);
 131              		.loc 1 75 0
 132 0070 6818     		adds	r0, r5, r1
 133 0072 037A     		ldrb	r3, [r0, #8]	@ zero_extendqisi2
 134              	.LVL18:
 135 0074 C4F10701 		rsb	r1, r4, #7
 136              	.LVL19:
 137 0078 0122     		movs	r2, #1
 138 007a 8A40     		lsls	r2, r2, r1
 139 007c 1340     		ands	r3, r3, r2
 140 007e 0B41     		asrs	r3, r3, r1
 141 0080 ADF80430 		strh	r3, [sp, #4]	@ movhi
 142              	.LBE35:
 143 0084 47E0     		b	.L6
 144              	.LVL20:
 145              	.L7:
  76:lvgl\src\lv_draw/lv_img_buf.c ****     }
  77:lvgl\src\lv_draw/lv_img_buf.c ****     else if(dsc->header.cf == LV_IMG_CF_INDEXED_2BIT) {
 146              		.loc 1 77 0
 147 0086 082C     		cmp	r4, #8
 148 0088 16D1     		bne	.L8
 149              	.LVL21:
 150              	.LBB36:
  78:lvgl\src\lv_draw/lv_img_buf.c ****         buf_u8 += 4 * 4;
  79:lvgl\src\lv_draw/lv_img_buf.c ****         uint8_t bit = (x & 0x3) * 2;
 151              		.loc 1 79 0
 152 008a 01F00304 		and	r4, r1, #3
 153 008e 6400     		lsls	r4, r4, #1
ARM GAS  C:\Users\strap\AppData\Local\Temp\ccvWLEyq.s 			page 9


 154              	.LVL22:
  80:lvgl\src\lv_draw/lv_img_buf.c ****         x           = x >> 2;
  81:lvgl\src\lv_draw/lv_img_buf.c **** 
  82:lvgl\src\lv_draw/lv_img_buf.c ****         /* Get the current pixel.
  83:lvgl\src\lv_draw/lv_img_buf.c ****          * dsc->header.w + 3 means rounding up to 4 because the lines are byte aligned
  84:lvgl\src\lv_draw/lv_img_buf.c ****          * so the possible real width are 4, 8, 12 ...*/
  85:lvgl\src\lv_draw/lv_img_buf.c ****         uint32_t px  = ((dsc->header.w + 3) >> 2) * y + x;
 155              		.loc 1 85 0
 156 0090 0068     		ldr	r0, [r0]
 157              	.LVL23:
 158 0092 C0F38A20 		ubfx	r0, r0, #10, #11
 159 0096 0330     		adds	r0, r0, #3
 160 0098 8010     		asrs	r0, r0, #2
 161 009a 00FB02F2 		mul	r2, r0, r2
 162              	.LVL24:
 163 009e 02EBA101 		add	r1, r2, r1, asr #2
 164              	.LVL25:
  86:lvgl\src\lv_draw/lv_img_buf.c ****         p_color.full = (buf_u8[px] & (3 << (6 - bit))) >> (6 - bit);
 165              		.loc 1 86 0
 166 00a2 6818     		adds	r0, r5, r1
 167 00a4 037C     		ldrb	r3, [r0, #16]	@ zero_extendqisi2
 168              	.LVL26:
 169 00a6 C4F10601 		rsb	r1, r4, #6
 170              	.LVL27:
 171 00aa 0322     		movs	r2, #3
 172 00ac 8A40     		lsls	r2, r2, r1
 173 00ae 1340     		ands	r3, r3, r2
 174 00b0 0B41     		asrs	r3, r3, r1
 175 00b2 ADF80430 		strh	r3, [sp, #4]	@ movhi
 176              	.LBE36:
 177 00b6 2EE0     		b	.L6
 178              	.LVL28:
 179              	.L8:
  87:lvgl\src\lv_draw/lv_img_buf.c ****     }
  88:lvgl\src\lv_draw/lv_img_buf.c ****     else if(dsc->header.cf == LV_IMG_CF_INDEXED_4BIT) {
 180              		.loc 1 88 0
 181 00b8 092C     		cmp	r4, #9
 182 00ba 19D1     		bne	.L9
 183              	.LVL29:
 184              	.LBB37:
  89:lvgl\src\lv_draw/lv_img_buf.c ****         buf_u8 += 4 * 16;
  90:lvgl\src\lv_draw/lv_img_buf.c ****         uint8_t bit = (x & 0x1) * 4;
 185              		.loc 1 90 0
 186 00bc 01F00103 		and	r3, r1, #1
 187              	.LVL30:
 188 00c0 9B00     		lsls	r3, r3, #2
 189 00c2 DBB2     		uxtb	r3, r3
 190              	.LVL31:
  91:lvgl\src\lv_draw/lv_img_buf.c ****         x           = x >> 1;
  92:lvgl\src\lv_draw/lv_img_buf.c **** 
  93:lvgl\src\lv_draw/lv_img_buf.c ****         /* Get the current pixel.
  94:lvgl\src\lv_draw/lv_img_buf.c ****          * dsc->header.w + 1 means rounding up to 2 because the lines are byte aligned
  95:lvgl\src\lv_draw/lv_img_buf.c ****          * so the possible real width are 2, 4, 6 ...*/
  96:lvgl\src\lv_draw/lv_img_buf.c ****         uint32_t px  = ((dsc->header.w + 1) >> 1) * y + x;
 191              		.loc 1 96 0
 192 00c4 0068     		ldr	r0, [r0]
 193              	.LVL32:
ARM GAS  C:\Users\strap\AppData\Local\Temp\ccvWLEyq.s 			page 10


 194 00c6 C0F38A20 		ubfx	r0, r0, #10, #11
 195 00ca 0130     		adds	r0, r0, #1
 196 00cc 4010     		asrs	r0, r0, #1
 197 00ce 00FB02F2 		mul	r2, r0, r2
 198              	.LVL33:
 199 00d2 02EB6101 		add	r1, r2, r1, asr #1
 200              	.LVL34:
  97:lvgl\src\lv_draw/lv_img_buf.c ****         p_color.full = (buf_u8[px] & (0xF << (4 - bit))) >> (4 - bit);
 201              		.loc 1 97 0
 202 00d6 6818     		adds	r0, r5, r1
 203 00d8 90F84010 		ldrb	r1, [r0, #64]	@ zero_extendqisi2
 204              	.LVL35:
 205 00dc C3F10403 		rsb	r3, r3, #4
 206              	.LVL36:
 207 00e0 0F22     		movs	r2, #15
 208 00e2 9A40     		lsls	r2, r2, r3
 209 00e4 0A40     		ands	r2, r2, r1
 210 00e6 42FA03F3 		asr	r3, r2, r3
 211 00ea ADF80430 		strh	r3, [sp, #4]	@ movhi
 212              	.LBE37:
 213 00ee 12E0     		b	.L6
 214              	.LVL37:
 215              	.L9:
  98:lvgl\src\lv_draw/lv_img_buf.c ****     }
  99:lvgl\src\lv_draw/lv_img_buf.c ****     else if(dsc->header.cf == LV_IMG_CF_INDEXED_8BIT) {
 216              		.loc 1 99 0
 217 00f0 0A2C     		cmp	r4, #10
 218 00f2 0AD1     		bne	.L10
 219              	.LVL38:
 220              	.LBB38:
 100:lvgl\src\lv_draw/lv_img_buf.c ****         buf_u8 += 4 * 256;
 101:lvgl\src\lv_draw/lv_img_buf.c ****         uint32_t px  = dsc->header.w * y + x;
 221              		.loc 1 101 0
 222 00f4 0068     		ldr	r0, [r0]
 223              	.LVL39:
 224 00f6 C0F38A20 		ubfx	r0, r0, #10, #11
 225 00fa 02FB0012 		mla	r2, r2, r0, r1
 226              	.LVL40:
 102:lvgl\src\lv_draw/lv_img_buf.c ****         p_color.full = buf_u8[px];
 227              		.loc 1 102 0
 228 00fe A818     		adds	r0, r5, r2
 229 0100 90F80034 		ldrb	r3, [r0, #1024]	@ zero_extendqisi2
 230              	.LVL41:
 231 0104 ADF80430 		strh	r3, [sp, #4]	@ movhi
 232              	.LBE38:
 233 0108 05E0     		b	.L6
 234              	.LVL42:
 235              	.L10:
 103:lvgl\src\lv_draw/lv_img_buf.c ****     }
 104:lvgl\src\lv_draw/lv_img_buf.c ****     else if(dsc->header.cf == LV_IMG_CF_ALPHA_1BIT || dsc->header.cf == LV_IMG_CF_ALPHA_2BIT ||
 105:lvgl\src\lv_draw/lv_img_buf.c ****             dsc->header.cf == LV_IMG_CF_ALPHA_4BIT || dsc->header.cf == LV_IMG_CF_ALPHA_8BIT) {
 236              		.loc 1 105 0
 237 010a 0B3C     		subs	r4, r4, #11
 238 010c E4B2     		uxtb	r4, r4
 104:lvgl\src\lv_draw/lv_img_buf.c ****             dsc->header.cf == LV_IMG_CF_ALPHA_4BIT || dsc->header.cf == LV_IMG_CF_ALPHA_8BIT) {
 239              		.loc 1 104 0
 240 010e 032C     		cmp	r4, #3
ARM GAS  C:\Users\strap\AppData\Local\Temp\ccvWLEyq.s 			page 11


 241 0110 01D8     		bhi	.L6
 106:lvgl\src\lv_draw/lv_img_buf.c ****         p_color = color;
 242              		.loc 1 106 0
 243 0112 ADF80430 		strh	r3, [sp, #4]	@ movhi
 244              	.LVL43:
 245              	.L6:
 107:lvgl\src\lv_draw/lv_img_buf.c ****     }
 108:lvgl\src\lv_draw/lv_img_buf.c ****     return p_color;
 109:lvgl\src\lv_draw/lv_img_buf.c **** }
 246              		.loc 1 109 0
 247 0116 BDF80400 		ldrh	r0, [sp, #4]
 248 011a 03B0     		add	sp, sp, #12
 249              		.cfi_def_cfa_offset 20
 250              		@ sp needed
 251 011c F0BD     		pop	{r4, r5, r6, r7, pc}
 252              		.cfi_endproc
 253              	.LFE37:
 254              		.size	lv_img_buf_get_px_color, .-lv_img_buf_get_px_color
 255 011e 00BF     		.section	.text.lv_img_buf_get_px_alpha,"ax",%progbits
 256              		.align	2
 257              		.global	lv_img_buf_get_px_alpha
 258              		.thumb
 259              		.thumb_func
 260              		.type	lv_img_buf_get_px_alpha, %function
 261              	lv_img_buf_get_px_alpha:
 262              	.LFB38:
 110:lvgl\src\lv_draw/lv_img_buf.c **** 
 111:lvgl\src\lv_draw/lv_img_buf.c **** /**
 112:lvgl\src\lv_draw/lv_img_buf.c ****  * Get the alpha value of an image's pixel
 113:lvgl\src\lv_draw/lv_img_buf.c ****  * @param dsc pointer to an image descriptor
 114:lvgl\src\lv_draw/lv_img_buf.c ****  * @param x x coordinate of the point to set
 115:lvgl\src\lv_draw/lv_img_buf.c ****  * @param y x coordinate of the point to set
 116:lvgl\src\lv_draw/lv_img_buf.c ****  * @param safe true: check out of bounds
 117:lvgl\src\lv_draw/lv_img_buf.c ****  * @return alpha value of the point
 118:lvgl\src\lv_draw/lv_img_buf.c ****  */
 119:lvgl\src\lv_draw/lv_img_buf.c **** lv_opa_t lv_img_buf_get_px_alpha(lv_img_dsc_t * dsc, lv_coord_t x, lv_coord_t y)
 120:lvgl\src\lv_draw/lv_img_buf.c **** {
 263              		.loc 1 120 0
 264              		.cfi_startproc
 265              		@ args = 0, pretend = 0, frame = 16
 266              		@ frame_needed = 0, uses_anonymous_args = 0
 267              	.LVL44:
 268 0000 F0B5     		push	{r4, r5, r6, r7, lr}
 269              		.cfi_def_cfa_offset 20
 270              		.cfi_offset 4, -20
 271              		.cfi_offset 5, -16
 272              		.cfi_offset 6, -12
 273              		.cfi_offset 7, -8
 274              		.cfi_offset 14, -4
 275 0002 85B0     		sub	sp, sp, #20
 276              		.cfi_def_cfa_offset 40
 277 0004 0446     		mov	r4, r0
 278 0006 0E46     		mov	r6, r1
 279 0008 1746     		mov	r7, r2
 121:lvgl\src\lv_draw/lv_img_buf.c ****     uint8_t * buf_u8 = (uint8_t *)dsc->data;
 280              		.loc 1 121 0
 281 000a 8568     		ldr	r5, [r0, #8]
ARM GAS  C:\Users\strap\AppData\Local\Temp\ccvWLEyq.s 			page 12


 282              	.LVL45:
 122:lvgl\src\lv_draw/lv_img_buf.c **** 
 123:lvgl\src\lv_draw/lv_img_buf.c ****     if(dsc->header.cf == LV_IMG_CF_TRUE_COLOR_ALPHA) {
 283              		.loc 1 123 0
 284 000c 0378     		ldrb	r3, [r0]	@ zero_extendqisi2
 285 000e 03F01F03 		and	r3, r3, #31
 286 0012 052B     		cmp	r3, #5
 287 0014 09D1     		bne	.L13
 288              	.LBB39:
 124:lvgl\src\lv_draw/lv_img_buf.c ****         uint32_t px = dsc->header.w * y * LV_IMG_PX_SIZE_ALPHA_BYTE + x * LV_IMG_PX_SIZE_ALPHA_BYTE
 289              		.loc 1 124 0
 290 0016 0168     		ldr	r1, [r0]
 291              	.LVL46:
 292 0018 C1F38A21 		ubfx	r1, r1, #10, #11
 293 001c 02FB0161 		mla	r1, r2, r1, r6
 294 0020 01EB4101 		add	r1, r1, r1, lsl #1
 295              	.LVL47:
 125:lvgl\src\lv_draw/lv_img_buf.c ****         return buf_u8[px + LV_IMG_PX_SIZE_ALPHA_BYTE - 1];
 296              		.loc 1 125 0
 297 0024 0231     		adds	r1, r1, #2
 298              	.LVL48:
 299 0026 685C     		ldrb	r0, [r5, r1]	@ zero_extendqisi2
 300              	.LVL49:
 301 0028 66E0     		b	.L14
 302              	.LVL50:
 303              	.L13:
 304              	.LBE39:
 126:lvgl\src\lv_draw/lv_img_buf.c ****     }
 127:lvgl\src\lv_draw/lv_img_buf.c ****     else if(dsc->header.cf == LV_IMG_CF_ALPHA_1BIT) {
 305              		.loc 1 127 0
 306 002a 0B2B     		cmp	r3, #11
 307 002c 16D1     		bne	.L15
 308              	.LBB40:
 128:lvgl\src\lv_draw/lv_img_buf.c ****         uint8_t bit = x & 0x7;
 309              		.loc 1 128 0
 310 002e 01F00702 		and	r2, r1, #7
 311              	.LVL51:
 129:lvgl\src\lv_draw/lv_img_buf.c ****         x           = x >> 3;
 130:lvgl\src\lv_draw/lv_img_buf.c **** 
 131:lvgl\src\lv_draw/lv_img_buf.c ****         /* Get the current pixel.
 132:lvgl\src\lv_draw/lv_img_buf.c ****          * dsc->header.w + 7 means rounding up to 8 because the lines are byte aligned
 133:lvgl\src\lv_draw/lv_img_buf.c ****          * so the possible real width are 8 ,16, 24 ...*/
 134:lvgl\src\lv_draw/lv_img_buf.c ****         uint32_t px    = ((dsc->header.w + 7) >> 3) * y + x;
 312              		.loc 1 134 0
 313 0032 0168     		ldr	r1, [r0]
 314              	.LVL52:
 315 0034 C1F38A21 		ubfx	r1, r1, #10, #11
 316 0038 0731     		adds	r1, r1, #7
 317 003a C910     		asrs	r1, r1, #3
 318 003c 01FB07F1 		mul	r1, r1, r7
 319 0040 01EBE601 		add	r1, r1, r6, asr #3
 320              	.LVL53:
 135:lvgl\src\lv_draw/lv_img_buf.c ****         uint8_t px_opa = (buf_u8[px] & (1 << (7 - bit))) >> (7 - bit);
 321              		.loc 1 135 0
 322 0044 6B5C     		ldrb	r3, [r5, r1]	@ zero_extendqisi2
 323 0046 C2F10701 		rsb	r1, r2, #7
 324              	.LVL54:
ARM GAS  C:\Users\strap\AppData\Local\Temp\ccvWLEyq.s 			page 13


 325 004a 0122     		movs	r2, #1
 326              	.LVL55:
 327 004c 8A40     		lsls	r2, r2, r1
 328 004e 1340     		ands	r3, r3, r2
 329 0050 0B41     		asrs	r3, r3, r1
 330              	.LVL56:
 136:lvgl\src\lv_draw/lv_img_buf.c ****         return px_opa ? LV_OPA_TRANSP : LV_OPA_COVER;
 331              		.loc 1 136 0
 332 0052 13F0FF0F 		tst	r3, #255
 333 0056 4CD0     		beq	.L18
 334 0058 0020     		movs	r0, #0
 335              	.LVL57:
 336 005a 4DE0     		b	.L14
 337              	.LVL58:
 338              	.L15:
 339              	.LBE40:
 137:lvgl\src\lv_draw/lv_img_buf.c ****     }
 138:lvgl\src\lv_draw/lv_img_buf.c ****     else if(dsc->header.cf == LV_IMG_CF_ALPHA_2BIT) {
 340              		.loc 1 138 0
 341 005c 0C2B     		cmp	r3, #12
 342 005e 1BD1     		bne	.L16
 343              	.LBB41:
 139:lvgl\src\lv_draw/lv_img_buf.c ****         const uint8_t opa_table[4] = {0, 85, 170, 255}; /*Opacity mapping with bpp = 2*/
 344              		.loc 1 139 0
 345 0060 264B     		ldr	r3, .L21
 346 0062 1868     		ldr	r0, [r3]	@ unaligned
 347              	.LVL59:
 348 0064 0090     		str	r0, [sp]	@ unaligned
 140:lvgl\src\lv_draw/lv_img_buf.c **** 
 141:lvgl\src\lv_draw/lv_img_buf.c ****         uint8_t bit = (x & 0x3) * 2;
 349              		.loc 1 141 0
 350 0066 01F00301 		and	r1, r1, #3
 351              	.LVL60:
 352 006a 4A00     		lsls	r2, r1, #1
 353              	.LVL61:
 142:lvgl\src\lv_draw/lv_img_buf.c ****         x           = x >> 2;
 143:lvgl\src\lv_draw/lv_img_buf.c **** 
 144:lvgl\src\lv_draw/lv_img_buf.c ****         /* Get the current pixel.
 145:lvgl\src\lv_draw/lv_img_buf.c ****          * dsc->header.w + 4 means rounding up to 8 because the lines are byte aligned
 146:lvgl\src\lv_draw/lv_img_buf.c ****          * so the possible real width are 4 ,8, 12 ...*/
 147:lvgl\src\lv_draw/lv_img_buf.c ****         uint32_t px    = ((dsc->header.w + 3) >> 2) * y + x;
 354              		.loc 1 147 0
 355 006c 2168     		ldr	r1, [r4]
 356 006e C1F38A21 		ubfx	r1, r1, #10, #11
 357 0072 0331     		adds	r1, r1, #3
 358 0074 8910     		asrs	r1, r1, #2
 359 0076 01FB07F1 		mul	r1, r1, r7
 360 007a 01EBA601 		add	r1, r1, r6, asr #2
 361              	.LVL62:
 148:lvgl\src\lv_draw/lv_img_buf.c ****         uint8_t px_opa = (buf_u8[px] & (3 << (6 - bit))) >> (6 - bit);
 362              		.loc 1 148 0
 363 007e 6B5C     		ldrb	r3, [r5, r1]	@ zero_extendqisi2
 364 0080 C2F10601 		rsb	r1, r2, #6
 365              	.LVL63:
 366 0084 0322     		movs	r2, #3
 367              	.LVL64:
 368 0086 8A40     		lsls	r2, r2, r1
ARM GAS  C:\Users\strap\AppData\Local\Temp\ccvWLEyq.s 			page 14


 369 0088 1340     		ands	r3, r3, r2
 370 008a 0B41     		asrs	r3, r3, r1
 371              	.LVL65:
 149:lvgl\src\lv_draw/lv_img_buf.c ****         return opa_table[px_opa];
 372              		.loc 1 149 0
 373 008c DBB2     		uxtb	r3, r3
 374 008e 04AA     		add	r2, sp, #16
 375 0090 1344     		add	r3, r3, r2
 376              	.LVL66:
 377 0092 13F8100C 		ldrb	r0, [r3, #-16]	@ zero_extendqisi2
 378 0096 2FE0     		b	.L14
 379              	.LVL67:
 380              	.L16:
 381              	.LBE41:
 150:lvgl\src\lv_draw/lv_img_buf.c ****     }
 151:lvgl\src\lv_draw/lv_img_buf.c ****     else if(dsc->header.cf == LV_IMG_CF_ALPHA_4BIT) {
 382              		.loc 1 151 0
 383 0098 0D2B     		cmp	r3, #13
 384 009a 21D1     		bne	.L17
 385              	.LBB42:
 152:lvgl\src\lv_draw/lv_img_buf.c ****         const uint8_t opa_table[16] = {0,  17, 34,  51, /*Opacity mapping with bpp = 4*/
 386              		.loc 1 152 0
 387 009c EE46     		mov	lr, sp
 388 009e 174B     		ldr	r3, .L21
 389 00a0 53F8040F 		ldr	r0, [r3, #4]!	@ unaligned
 390              	.LVL68:
 391 00a4 5968     		ldr	r1, [r3, #4]	@ unaligned
 392              	.LVL69:
 393 00a6 9A68     		ldr	r2, [r3, #8]	@ unaligned
 394              	.LVL70:
 395 00a8 DB68     		ldr	r3, [r3, #12]	@ unaligned
 396 00aa AEE80F00 		stmia	lr!, {r0, r1, r2, r3}
 153:lvgl\src\lv_draw/lv_img_buf.c ****                                        68, 85, 102, 119, 136, 153, 170, 187, 204, 221, 238, 255
 154:lvgl\src\lv_draw/lv_img_buf.c ****                                       };
 155:lvgl\src\lv_draw/lv_img_buf.c **** 
 156:lvgl\src\lv_draw/lv_img_buf.c ****         uint8_t bit = (x & 0x1) * 4;
 397              		.loc 1 156 0
 398 00ae 06F00101 		and	r1, r6, #1
 399 00b2 8900     		lsls	r1, r1, #2
 400 00b4 CAB2     		uxtb	r2, r1
 401              	.LVL71:
 157:lvgl\src\lv_draw/lv_img_buf.c ****         x           = x >> 1;
 158:lvgl\src\lv_draw/lv_img_buf.c **** 
 159:lvgl\src\lv_draw/lv_img_buf.c ****         /* Get the current pixel.
 160:lvgl\src\lv_draw/lv_img_buf.c ****          * dsc->header.w + 1 means rounding up to 8 because the lines are byte aligned
 161:lvgl\src\lv_draw/lv_img_buf.c ****          * so the possible real width are 2 ,4, 6 ...*/
 162:lvgl\src\lv_draw/lv_img_buf.c ****         uint32_t px    = ((dsc->header.w + 1) >> 1) * y + x;
 402              		.loc 1 162 0
 403 00b6 2168     		ldr	r1, [r4]
 404 00b8 C1F38A21 		ubfx	r1, r1, #10, #11
 405 00bc 0131     		adds	r1, r1, #1
 406 00be 4910     		asrs	r1, r1, #1
 407 00c0 01FB07F1 		mul	r1, r1, r7
 408 00c4 01EB6601 		add	r1, r1, r6, asr #1
 409              	.LVL72:
 163:lvgl\src\lv_draw/lv_img_buf.c ****         uint8_t px_opa = (buf_u8[px] & (0xF << (4 - bit))) >> (4 - bit);
 410              		.loc 1 163 0
ARM GAS  C:\Users\strap\AppData\Local\Temp\ccvWLEyq.s 			page 15


 411 00c8 6B5C     		ldrb	r3, [r5, r1]	@ zero_extendqisi2
 412 00ca C2F10401 		rsb	r1, r2, #4
 413              	.LVL73:
 414 00ce 0F22     		movs	r2, #15
 415              	.LVL74:
 416 00d0 8A40     		lsls	r2, r2, r1
 417 00d2 1340     		ands	r3, r3, r2
 418 00d4 0B41     		asrs	r3, r3, r1
 419              	.LVL75:
 164:lvgl\src\lv_draw/lv_img_buf.c ****         return opa_table[px_opa];
 420              		.loc 1 164 0
 421 00d6 DBB2     		uxtb	r3, r3
 422 00d8 7344     		add	r3, r3, lr
 423              	.LVL76:
 424 00da 13F8100C 		ldrb	r0, [r3, #-16]	@ zero_extendqisi2
 425 00de 0BE0     		b	.L14
 426              	.LVL77:
 427              	.L17:
 428              	.LBE42:
 165:lvgl\src\lv_draw/lv_img_buf.c ****     }
 166:lvgl\src\lv_draw/lv_img_buf.c ****     else if(dsc->header.cf == LV_IMG_CF_ALPHA_8BIT) {
 429              		.loc 1 166 0
 430 00e0 0E2B     		cmp	r3, #14
 431 00e2 08D1     		bne	.L19
 432              	.LBB43:
 167:lvgl\src\lv_draw/lv_img_buf.c ****         uint32_t px = dsc->header.w * y + x;
 433              		.loc 1 167 0
 434 00e4 0168     		ldr	r1, [r0]
 435              	.LVL78:
 436 00e6 C1F38A21 		ubfx	r1, r1, #10, #11
 437 00ea 02FB0161 		mla	r1, r2, r1, r6
 438              	.LVL79:
 168:lvgl\src\lv_draw/lv_img_buf.c ****         return buf_u8[px];
 439              		.loc 1 168 0
 440 00ee 685C     		ldrb	r0, [r5, r1]	@ zero_extendqisi2
 441              	.LVL80:
 442 00f0 02E0     		b	.L14
 443              	.LVL81:
 444              	.L18:
 445              	.LBE43:
 446              	.LBB44:
 136:lvgl\src\lv_draw/lv_img_buf.c ****     }
 447              		.loc 1 136 0
 448 00f2 FF20     		movs	r0, #255
 449              	.LVL82:
 450 00f4 00E0     		b	.L14
 451              	.LVL83:
 452              	.L19:
 453              	.LBE44:
 169:lvgl\src\lv_draw/lv_img_buf.c ****     }
 170:lvgl\src\lv_draw/lv_img_buf.c **** 
 171:lvgl\src\lv_draw/lv_img_buf.c ****     return LV_OPA_COVER;
 454              		.loc 1 171 0
 455 00f6 FF20     		movs	r0, #255
 456              	.LVL84:
 457              	.L14:
 172:lvgl\src\lv_draw/lv_img_buf.c **** }
ARM GAS  C:\Users\strap\AppData\Local\Temp\ccvWLEyq.s 			page 16


 458              		.loc 1 172 0 discriminator 1
 459 00f8 05B0     		add	sp, sp, #20
 460              		.cfi_def_cfa_offset 20
 461              		@ sp needed
 462 00fa F0BD     		pop	{r4, r5, r6, r7, pc}
 463              	.LVL85:
 464              	.L22:
 465              		.align	2
 466              	.L21:
 467 00fc 00000000 		.word	.LANCHOR0
 468              		.cfi_endproc
 469              	.LFE38:
 470              		.size	lv_img_buf_get_px_alpha, .-lv_img_buf_get_px_alpha
 471              		.section	.text.lv_img_buf_set_px_alpha,"ax",%progbits
 472              		.align	2
 473              		.global	lv_img_buf_set_px_alpha
 474              		.thumb
 475              		.thumb_func
 476              		.type	lv_img_buf_set_px_alpha, %function
 477              	lv_img_buf_set_px_alpha:
 478              	.LFB39:
 173:lvgl\src\lv_draw/lv_img_buf.c **** 
 174:lvgl\src\lv_draw/lv_img_buf.c **** /**
 175:lvgl\src\lv_draw/lv_img_buf.c ****  * Set the alpha value of a pixel of an image. The color won't be affected
 176:lvgl\src\lv_draw/lv_img_buf.c ****  * @param dsc pointer to an image descriptor
 177:lvgl\src\lv_draw/lv_img_buf.c ****  * @param x x coordinate of the point to set
 178:lvgl\src\lv_draw/lv_img_buf.c ****  * @param y x coordinate of the point to set
 179:lvgl\src\lv_draw/lv_img_buf.c ****  * @param opa the desired opacity
 180:lvgl\src\lv_draw/lv_img_buf.c ****  * @param safe true: check out of bounds
 181:lvgl\src\lv_draw/lv_img_buf.c ****  */
 182:lvgl\src\lv_draw/lv_img_buf.c **** void lv_img_buf_set_px_alpha(lv_img_dsc_t * dsc, lv_coord_t x, lv_coord_t y, lv_opa_t opa)
 183:lvgl\src\lv_draw/lv_img_buf.c **** {
 479              		.loc 1 183 0
 480              		.cfi_startproc
 481              		@ args = 0, pretend = 0, frame = 0
 482              		@ frame_needed = 0, uses_anonymous_args = 0
 483              	.LVL86:
 484 0000 2DE9F041 		push	{r4, r5, r6, r7, r8, lr}
 485              		.cfi_def_cfa_offset 24
 486              		.cfi_offset 4, -24
 487              		.cfi_offset 5, -20
 488              		.cfi_offset 6, -16
 489              		.cfi_offset 7, -12
 490              		.cfi_offset 8, -8
 491              		.cfi_offset 14, -4
 184:lvgl\src\lv_draw/lv_img_buf.c ****     uint8_t * buf_u8 = (uint8_t *)dsc->data;
 492              		.loc 1 184 0
 493 0004 8568     		ldr	r5, [r0, #8]
 494              	.LVL87:
 185:lvgl\src\lv_draw/lv_img_buf.c **** 
 186:lvgl\src\lv_draw/lv_img_buf.c ****     if(dsc->header.cf == LV_IMG_CF_TRUE_COLOR_ALPHA) {
 495              		.loc 1 186 0
 496 0006 0478     		ldrb	r4, [r0]	@ zero_extendqisi2
 497 0008 04F01F04 		and	r4, r4, #31
 498 000c 052C     		cmp	r4, #5
 499 000e 16D1     		bne	.L24
 500 0010 1C46     		mov	r4, r3
ARM GAS  C:\Users\strap\AppData\Local\Temp\ccvWLEyq.s 			page 17


 501 0012 1646     		mov	r6, r2
 502 0014 0F46     		mov	r7, r1
 503 0016 8046     		mov	r8, r0
 504              	.LBB45:
 187:lvgl\src\lv_draw/lv_img_buf.c ****         uint8_t px_size          = lv_img_cf_get_px_size(dsc->header.cf) >> 3;
 505              		.loc 1 187 0
 506 0018 0078     		ldrb	r0, [r0]	@ zero_extendqisi2
 507              	.LVL88:
 508 001a 00F01F00 		and	r0, r0, #31
 509 001e FFF7FEFF 		bl	lv_img_cf_get_px_size
 510              	.LVL89:
 511 0022 C0F3C700 		ubfx	r0, r0, #3, #8
 512              	.LVL90:
 188:lvgl\src\lv_draw/lv_img_buf.c ****         uint32_t px              = dsc->header.w * y * px_size + x * px_size;
 513              		.loc 1 188 0
 514 0026 D8F80010 		ldr	r1, [r8]
 515 002a C1F38A21 		ubfx	r1, r1, #10, #11
 516 002e 06FB0171 		mla	r1, r6, r1, r7
 517              	.LVL91:
 189:lvgl\src\lv_draw/lv_img_buf.c ****         buf_u8[px + px_size - 1] = opa;
 518              		.loc 1 189 0
 519 0032 00FB0100 		mla	r0, r0, r1, r0
 520              	.LVL92:
 521 0036 0138     		subs	r0, r0, #1
 522 0038 2C54     		strb	r4, [r5, r0]
 523              	.LBE45:
 524 003a BDE8F081 		pop	{r4, r5, r6, r7, r8, pc}
 525              	.LVL93:
 526              	.L24:
 190:lvgl\src\lv_draw/lv_img_buf.c ****     }
 191:lvgl\src\lv_draw/lv_img_buf.c ****     else if(dsc->header.cf == LV_IMG_CF_ALPHA_1BIT) {
 527              		.loc 1 191 0
 528 003e 0B2C     		cmp	r4, #11
 529 0040 19D1     		bne	.L26
 530              	.LBB46:
 192:lvgl\src\lv_draw/lv_img_buf.c ****         opa         = opa >> 7; /*opa -> [0,1]*/
 531              		.loc 1 192 0
 532 0042 DC09     		lsrs	r4, r3, #7
 533              	.LVL94:
 193:lvgl\src\lv_draw/lv_img_buf.c ****         uint8_t bit = x & 0x7;
 534              		.loc 1 193 0
 535 0044 01F00703 		and	r3, r1, #7
 536              	.LVL95:
 194:lvgl\src\lv_draw/lv_img_buf.c ****         x           = x >> 3;
 195:lvgl\src\lv_draw/lv_img_buf.c **** 
 196:lvgl\src\lv_draw/lv_img_buf.c ****         /* Get the current pixel.
 197:lvgl\src\lv_draw/lv_img_buf.c ****          * dsc->header.w + 7 means rounding up to 8 because the lines are byte aligned
 198:lvgl\src\lv_draw/lv_img_buf.c ****          * so the possible real width are 8 ,16, 24 ...*/
 199:lvgl\src\lv_draw/lv_img_buf.c ****         uint32_t px = ((dsc->header.w + 7) >> 3) * y + x;
 537              		.loc 1 199 0
 538 0048 0068     		ldr	r0, [r0]
 539              	.LVL96:
 540 004a C0F38A20 		ubfx	r0, r0, #10, #11
 541 004e 0730     		adds	r0, r0, #7
 542 0050 C010     		asrs	r0, r0, #3
 543 0052 00FB02F2 		mul	r2, r0, r2
 544              	.LVL97:
ARM GAS  C:\Users\strap\AppData\Local\Temp\ccvWLEyq.s 			page 18


 545 0056 02EBE101 		add	r1, r2, r1, asr #3
 546              	.LVL98:
 200:lvgl\src\lv_draw/lv_img_buf.c ****         buf_u8[px]  = buf_u8[px] & ~(1 << (7 - bit));
 547              		.loc 1 200 0
 548 005a 685C     		ldrb	r0, [r5, r1]	@ zero_extendqisi2
 549 005c C3F10703 		rsb	r3, r3, #7
 550              	.LVL99:
 551 0060 0122     		movs	r2, #1
 552 0062 9A40     		lsls	r2, r2, r3
 553 0064 20EA0202 		bic	r2, r0, r2
 554 0068 52B2     		sxtb	r2, r2
 201:lvgl\src\lv_draw/lv_img_buf.c ****         buf_u8[px]  = buf_u8[px] | ((opa & 0x1) << (7 - bit));
 555              		.loc 1 201 0
 556 006a 04FA03F3 		lsl	r3, r4, r3
 557 006e 1343     		orrs	r3, r3, r2
 558 0070 6B54     		strb	r3, [r5, r1]
 559              	.LBE46:
 560 0072 BDE8F081 		pop	{r4, r5, r6, r7, r8, pc}
 561              	.LVL100:
 562              	.L26:
 202:lvgl\src\lv_draw/lv_img_buf.c ****     }
 203:lvgl\src\lv_draw/lv_img_buf.c ****     else if(dsc->header.cf == LV_IMG_CF_ALPHA_2BIT) {
 563              		.loc 1 203 0
 564 0076 0C2C     		cmp	r4, #12
 565 0078 1AD1     		bne	.L27
 566              	.LBB47:
 204:lvgl\src\lv_draw/lv_img_buf.c ****         opa         = opa >> 6; /*opa -> [0,3]*/
 567              		.loc 1 204 0
 568 007a 9C09     		lsrs	r4, r3, #6
 569              	.LVL101:
 205:lvgl\src\lv_draw/lv_img_buf.c ****         uint8_t bit = (x & 0x3) * 2;
 570              		.loc 1 205 0
 571 007c 01F00303 		and	r3, r1, #3
 572 0080 5B00     		lsls	r3, r3, #1
 573              	.LVL102:
 206:lvgl\src\lv_draw/lv_img_buf.c ****         x           = x >> 2;
 207:lvgl\src\lv_draw/lv_img_buf.c **** 
 208:lvgl\src\lv_draw/lv_img_buf.c ****         /* Get the current pixel.
 209:lvgl\src\lv_draw/lv_img_buf.c ****          * dsc->header.w + 4 means rounding up to 8 because the lines are byte aligned
 210:lvgl\src\lv_draw/lv_img_buf.c ****          * so the possible real width are 4 ,8, 12 ...*/
 211:lvgl\src\lv_draw/lv_img_buf.c ****         uint32_t px = ((dsc->header.w + 3) >> 2) * y + x;
 574              		.loc 1 211 0
 575 0082 0068     		ldr	r0, [r0]
 576              	.LVL103:
 577 0084 C0F38A20 		ubfx	r0, r0, #10, #11
 578 0088 0330     		adds	r0, r0, #3
 579 008a 8010     		asrs	r0, r0, #2
 580 008c 00FB02F2 		mul	r2, r0, r2
 581              	.LVL104:
 582 0090 02EBA101 		add	r1, r2, r1, asr #2
 583              	.LVL105:
 212:lvgl\src\lv_draw/lv_img_buf.c ****         buf_u8[px]  = buf_u8[px] & ~(3 << (6 - bit));
 584              		.loc 1 212 0
 585 0094 685C     		ldrb	r0, [r5, r1]	@ zero_extendqisi2
 586 0096 C3F10603 		rsb	r3, r3, #6
 587              	.LVL106:
 588 009a 0322     		movs	r2, #3
ARM GAS  C:\Users\strap\AppData\Local\Temp\ccvWLEyq.s 			page 19


 589 009c 9A40     		lsls	r2, r2, r3
 590 009e 20EA0202 		bic	r2, r0, r2
 591 00a2 52B2     		sxtb	r2, r2
 213:lvgl\src\lv_draw/lv_img_buf.c ****         buf_u8[px]  = buf_u8[px] | ((opa & 0x3) << (6 - bit));
 592              		.loc 1 213 0
 593 00a4 04FA03F3 		lsl	r3, r4, r3
 594 00a8 1343     		orrs	r3, r3, r2
 595 00aa 6B54     		strb	r3, [r5, r1]
 596              	.LBE47:
 597 00ac BDE8F081 		pop	{r4, r5, r6, r7, r8, pc}
 598              	.LVL107:
 599              	.L27:
 214:lvgl\src\lv_draw/lv_img_buf.c ****     }
 215:lvgl\src\lv_draw/lv_img_buf.c ****     else if(dsc->header.cf == LV_IMG_CF_ALPHA_4BIT) {
 600              		.loc 1 215 0
 601 00b0 0D2C     		cmp	r4, #13
 602 00b2 1BD1     		bne	.L28
 603              	.LBB48:
 216:lvgl\src\lv_draw/lv_img_buf.c ****         opa         = opa >> 4; /*opa -> [0,15]*/
 604              		.loc 1 216 0
 605 00b4 1C09     		lsrs	r4, r3, #4
 606              	.LVL108:
 217:lvgl\src\lv_draw/lv_img_buf.c ****         uint8_t bit = (x & 0x1) * 4;
 607              		.loc 1 217 0
 608 00b6 01F00103 		and	r3, r1, #1
 609 00ba 9B00     		lsls	r3, r3, #2
 610 00bc DBB2     		uxtb	r3, r3
 611              	.LVL109:
 218:lvgl\src\lv_draw/lv_img_buf.c ****         x           = x >> 1;
 219:lvgl\src\lv_draw/lv_img_buf.c **** 
 220:lvgl\src\lv_draw/lv_img_buf.c ****         /* Get the current pixel.
 221:lvgl\src\lv_draw/lv_img_buf.c ****          * dsc->header.w + 1 means rounding up to 8 because the lines are byte aligned
 222:lvgl\src\lv_draw/lv_img_buf.c ****          * so the possible real width are 2 ,4, 6 ...*/
 223:lvgl\src\lv_draw/lv_img_buf.c ****         uint32_t px = ((dsc->header.w + 1) >> 1) * y + x;
 612              		.loc 1 223 0
 613 00be 0068     		ldr	r0, [r0]
 614              	.LVL110:
 615 00c0 C0F38A20 		ubfx	r0, r0, #10, #11
 616 00c4 0130     		adds	r0, r0, #1
 617 00c6 4010     		asrs	r0, r0, #1
 618 00c8 00FB02F2 		mul	r2, r0, r2
 619              	.LVL111:
 620 00cc 02EB6101 		add	r1, r2, r1, asr #1
 621              	.LVL112:
 224:lvgl\src\lv_draw/lv_img_buf.c ****         buf_u8[px]  = buf_u8[px] & ~(0xF << (4 - bit));
 622              		.loc 1 224 0
 623 00d0 685C     		ldrb	r0, [r5, r1]	@ zero_extendqisi2
 624 00d2 C3F10403 		rsb	r3, r3, #4
 625              	.LVL113:
 626 00d6 0F22     		movs	r2, #15
 627 00d8 9A40     		lsls	r2, r2, r3
 628 00da 20EA0202 		bic	r2, r0, r2
 629 00de 52B2     		sxtb	r2, r2
 225:lvgl\src\lv_draw/lv_img_buf.c ****         buf_u8[px]  = buf_u8[px] | ((opa & 0xF) << (4 - bit));
 630              		.loc 1 225 0
 631 00e0 04FA03F3 		lsl	r3, r4, r3
 632 00e4 1343     		orrs	r3, r3, r2
ARM GAS  C:\Users\strap\AppData\Local\Temp\ccvWLEyq.s 			page 20


 633 00e6 6B54     		strb	r3, [r5, r1]
 634              	.LBE48:
 635 00e8 BDE8F081 		pop	{r4, r5, r6, r7, r8, pc}
 636              	.LVL114:
 637              	.L28:
 226:lvgl\src\lv_draw/lv_img_buf.c ****     }
 227:lvgl\src\lv_draw/lv_img_buf.c ****     else if(dsc->header.cf == LV_IMG_CF_ALPHA_8BIT) {
 638              		.loc 1 227 0
 639 00ec 0E2C     		cmp	r4, #14
 640 00ee 05D1     		bne	.L23
 641              	.LBB49:
 228:lvgl\src\lv_draw/lv_img_buf.c ****         uint32_t px = dsc->header.w * y + x;
 642              		.loc 1 228 0
 643 00f0 0068     		ldr	r0, [r0]
 644              	.LVL115:
 645 00f2 C0F38A20 		ubfx	r0, r0, #10, #11
 646 00f6 02FB0011 		mla	r1, r2, r0, r1
 647              	.LVL116:
 229:lvgl\src\lv_draw/lv_img_buf.c ****         buf_u8[px]  = opa;
 648              		.loc 1 229 0
 649 00fa 6B54     		strb	r3, [r5, r1]
 650              	.LVL117:
 651              	.L23:
 652 00fc BDE8F081 		pop	{r4, r5, r6, r7, r8, pc}
 653              	.LBE49:
 654              		.cfi_endproc
 655              	.LFE39:
 656              		.size	lv_img_buf_set_px_alpha, .-lv_img_buf_set_px_alpha
 657              		.section	.text.lv_img_buf_set_px_color,"ax",%progbits
 658              		.align	2
 659              		.global	lv_img_buf_set_px_color
 660              		.thumb
 661              		.thumb_func
 662              		.type	lv_img_buf_set_px_color, %function
 663              	lv_img_buf_set_px_color:
 664              	.LFB40:
 230:lvgl\src\lv_draw/lv_img_buf.c ****     }
 231:lvgl\src\lv_draw/lv_img_buf.c **** }
 232:lvgl\src\lv_draw/lv_img_buf.c **** 
 233:lvgl\src\lv_draw/lv_img_buf.c **** /**
 234:lvgl\src\lv_draw/lv_img_buf.c ****  * Set the color of a pixel of an image. The alpha channel won't be affected.
 235:lvgl\src\lv_draw/lv_img_buf.c ****  * @param dsc pointer to an image descriptor
 236:lvgl\src\lv_draw/lv_img_buf.c ****  * @param x x coordinate of the point to set
 237:lvgl\src\lv_draw/lv_img_buf.c ****  * @param y x coordinate of the point to set
 238:lvgl\src\lv_draw/lv_img_buf.c ****  * @param c color of the point
 239:lvgl\src\lv_draw/lv_img_buf.c ****  * @param safe true: check out of bounds
 240:lvgl\src\lv_draw/lv_img_buf.c ****  */
 241:lvgl\src\lv_draw/lv_img_buf.c **** void lv_img_buf_set_px_color(lv_img_dsc_t * dsc, lv_coord_t x, lv_coord_t y, lv_color_t c)
 242:lvgl\src\lv_draw/lv_img_buf.c **** {
 665              		.loc 1 242 0
 666              		.cfi_startproc
 667              		@ args = 0, pretend = 0, frame = 8
 668              		@ frame_needed = 0, uses_anonymous_args = 0
 669              	.LVL118:
 670 0000 F0B5     		push	{r4, r5, r6, r7, lr}
 671              		.cfi_def_cfa_offset 20
 672              		.cfi_offset 4, -20
ARM GAS  C:\Users\strap\AppData\Local\Temp\ccvWLEyq.s 			page 21


 673              		.cfi_offset 5, -16
 674              		.cfi_offset 6, -12
 675              		.cfi_offset 7, -8
 676              		.cfi_offset 14, -4
 677 0002 83B0     		sub	sp, sp, #12
 678              		.cfi_def_cfa_offset 32
 679 0004 0746     		mov	r7, r0
 680 0006 0D46     		mov	r5, r1
 681 0008 1646     		mov	r6, r2
 682 000a ADF80430 		strh	r3, [sp, #4]	@ movhi
 243:lvgl\src\lv_draw/lv_img_buf.c ****     uint8_t * buf_u8 = (uint8_t *)dsc->data;
 683              		.loc 1 243 0
 684 000e 8468     		ldr	r4, [r0, #8]
 685              	.LVL119:
 244:lvgl\src\lv_draw/lv_img_buf.c **** 
 245:lvgl\src\lv_draw/lv_img_buf.c ****     if(dsc->header.cf == LV_IMG_CF_TRUE_COLOR || dsc->header.cf == LV_IMG_CF_TRUE_COLOR_CHROMA_KEYE
 686              		.loc 1 245 0
 687 0010 0378     		ldrb	r3, [r0]	@ zero_extendqisi2
 688 0012 03F01F03 		and	r3, r3, #31
 689 0016 042B     		cmp	r3, #4
 690 0018 01D0     		beq	.L31
 691              		.loc 1 245 0 is_stmt 0 discriminator 1
 692 001a 062B     		cmp	r3, #6
 693 001c 17D1     		bne	.L32
 694              	.L31:
 695              	.LBB50:
 246:lvgl\src\lv_draw/lv_img_buf.c ****         uint8_t px_size = lv_img_cf_get_px_size(dsc->header.cf) >> 3;
 696              		.loc 1 246 0 is_stmt 1
 697 001e 3878     		ldrb	r0, [r7]	@ zero_extendqisi2
 698              	.LVL120:
 699 0020 00F01F00 		and	r0, r0, #31
 700 0024 FFF7FEFF 		bl	lv_img_cf_get_px_size
 701              	.LVL121:
 702 0028 C0F3C700 		ubfx	r0, r0, #3, #8
 703              	.LVL122:
 247:lvgl\src\lv_draw/lv_img_buf.c ****         uint32_t px     = dsc->header.w * y * px_size + x * px_size;
 704              		.loc 1 247 0
 705 002c 3A68     		ldr	r2, [r7]
 706 002e C2F38A22 		ubfx	r2, r2, #10, #11
 707 0032 06FB0252 		mla	r2, r6, r2, r5
 708              	.LVL123:
 248:lvgl\src\lv_draw/lv_img_buf.c ****         _lv_memcpy_small(&buf_u8[px], &c, px_size);
 709              		.loc 1 248 0
 710 0036 00FB0242 		mla	r2, r0, r2, r4
 711              	.LVL124:
 712              	.LBB51:
 713              	.LBB52:
 217:lvgl\src\lv_draw\../lv_misc/lv_mem.h **** 
 714              		.loc 2 217 0
 715 003a 01AB     		add	r3, sp, #4
 716              	.LVL125:
 717 003c 04E0     		b	.L33
 718              	.LVL126:
 719              	.L34:
 220:lvgl\src\lv_draw\../lv_misc/lv_mem.h ****         d8++;
 720              		.loc 2 220 0
 721 003e 13F8011B 		ldrb	r1, [r3], #1	@ zero_extendqisi2
ARM GAS  C:\Users\strap\AppData\Local\Temp\ccvWLEyq.s 			page 22


 722              	.LVL127:
 723 0042 02F8011B 		strb	r1, [r2], #1
 724              	.LVL128:
 725              		.loc 2 223 0
 726 0046 0138     		subs	r0, r0, #1
 727              	.LVL129:
 728              	.L33:
 219:lvgl\src\lv_draw\../lv_misc/lv_mem.h ****         *d8 = *s8;
 729              		.loc 2 219 0
 730 0048 0028     		cmp	r0, #0
 731 004a F8D1     		bne	.L34
 732 004c 8CE0     		b	.L30
 733              	.LVL130:
 734              	.L32:
 735              	.LBE52:
 736              	.LBE51:
 737              	.LBE50:
 249:lvgl\src\lv_draw/lv_img_buf.c ****     }
 250:lvgl\src\lv_draw/lv_img_buf.c ****     else if(dsc->header.cf == LV_IMG_CF_TRUE_COLOR_ALPHA) {
 738              		.loc 1 250 0
 739 004e 052B     		cmp	r3, #5
 740 0050 18D1     		bne	.L36
 741              	.LBB53:
 251:lvgl\src\lv_draw/lv_img_buf.c ****         uint8_t px_size = lv_img_cf_get_px_size(dsc->header.cf) >> 3;
 742              		.loc 1 251 0
 743 0052 0078     		ldrb	r0, [r0]	@ zero_extendqisi2
 744              	.LVL131:
 745 0054 00F01F00 		and	r0, r0, #31
 746 0058 FFF7FEFF 		bl	lv_img_cf_get_px_size
 747              	.LVL132:
 748 005c C0F3C700 		ubfx	r0, r0, #3, #8
 749              	.LVL133:
 252:lvgl\src\lv_draw/lv_img_buf.c ****         uint32_t px     = dsc->header.w * y * px_size + x * px_size;
 750              		.loc 1 252 0
 751 0060 3A68     		ldr	r2, [r7]
 752 0062 C2F38A22 		ubfx	r2, r2, #10, #11
 753 0066 06FB0252 		mla	r2, r6, r2, r5
 754              	.LVL134:
 253:lvgl\src\lv_draw/lv_img_buf.c ****         _lv_memcpy_small(&buf_u8[px], &c, px_size - 1); /*-1 to not overwrite the alpha value*/
 755              		.loc 1 253 0
 756 006a 00FB0242 		mla	r2, r0, r2, r4
 757              	.LVL135:
 758 006e 0138     		subs	r0, r0, #1
 759              	.LVL136:
 760              	.LBB54:
 761              	.LBB55:
 217:lvgl\src\lv_draw\../lv_misc/lv_mem.h **** 
 762              		.loc 2 217 0
 763 0070 01AB     		add	r3, sp, #4
 764              	.LVL137:
 765 0072 04E0     		b	.L37
 766              	.LVL138:
 767              	.L38:
 220:lvgl\src\lv_draw\../lv_misc/lv_mem.h ****         d8++;
 768              		.loc 2 220 0
 769 0074 13F8011B 		ldrb	r1, [r3], #1	@ zero_extendqisi2
 770              	.LVL139:
ARM GAS  C:\Users\strap\AppData\Local\Temp\ccvWLEyq.s 			page 23


 771 0078 02F8011B 		strb	r1, [r2], #1
 772              	.LVL140:
 773              		.loc 2 223 0
 774 007c 0138     		subs	r0, r0, #1
 775              	.LVL141:
 776              	.L37:
 219:lvgl\src\lv_draw\../lv_misc/lv_mem.h ****         *d8 = *s8;
 777              		.loc 2 219 0
 778 007e 0028     		cmp	r0, #0
 779 0080 F8D1     		bne	.L38
 780 0082 71E0     		b	.L30
 781              	.LVL142:
 782              	.L36:
 783              	.LBE55:
 784              	.LBE54:
 785              	.LBE53:
 254:lvgl\src\lv_draw/lv_img_buf.c ****     }
 255:lvgl\src\lv_draw/lv_img_buf.c ****     else if(dsc->header.cf == LV_IMG_CF_INDEXED_1BIT) {
 786              		.loc 1 255 0
 787 0084 072B     		cmp	r3, #7
 788 0086 1ED1     		bne	.L39
 789              	.LBB56:
 256:lvgl\src\lv_draw/lv_img_buf.c ****         buf_u8 += sizeof(lv_color32_t) * 2; /*Skip the palette*/
 790              		.loc 1 256 0
 791 0088 04F10802 		add	r2, r4, #8
 792              	.LVL143:
 257:lvgl\src\lv_draw/lv_img_buf.c **** 
 258:lvgl\src\lv_draw/lv_img_buf.c ****         uint8_t bit = x & 0x7;
 793              		.loc 1 258 0
 794 008c 01F00700 		and	r0, r1, #7
 795              	.LVL144:
 259:lvgl\src\lv_draw/lv_img_buf.c ****         x           = x >> 3;
 260:lvgl\src\lv_draw/lv_img_buf.c **** 
 261:lvgl\src\lv_draw/lv_img_buf.c ****         /* Get the current pixel.
 262:lvgl\src\lv_draw/lv_img_buf.c ****          * dsc->header.w + 7 means rounding up to 8 because the lines are byte aligned
 263:lvgl\src\lv_draw/lv_img_buf.c ****          * so the possible real width are 8 ,16, 24 ...*/
 264:lvgl\src\lv_draw/lv_img_buf.c ****         uint32_t px = ((dsc->header.w + 7) >> 3) * y + x;
 796              		.loc 1 264 0
 797 0090 3B68     		ldr	r3, [r7]
 798 0092 C3F38A23 		ubfx	r3, r3, #10, #11
 799 0096 0733     		adds	r3, r3, #7
 800 0098 DB10     		asrs	r3, r3, #3
 801 009a 03FB06F6 		mul	r6, r3, r6
 802 009e 06EBE105 		add	r5, r6, r1, asr #3
 803              	.LVL145:
 265:lvgl\src\lv_draw/lv_img_buf.c ****         buf_u8[px]  = buf_u8[px] & ~(1 << (7 - bit));
 804              		.loc 1 265 0
 805 00a2 515D     		ldrb	r1, [r2, r5]	@ zero_extendqisi2
 806              	.LVL146:
 807 00a4 C0F10703 		rsb	r3, r0, #7
 808 00a8 0120     		movs	r0, #1
 809              	.LVL147:
 810 00aa 9840     		lsls	r0, r0, r3
 811 00ac 21EA0000 		bic	r0, r1, r0
 812 00b0 40B2     		sxtb	r0, r0
 813 00b2 5055     		strb	r0, [r2, r5]
 266:lvgl\src\lv_draw/lv_img_buf.c ****         buf_u8[px]  = buf_u8[px] | ((c.full & 0x1) << (7 - bit));
ARM GAS  C:\Users\strap\AppData\Local\Temp\ccvWLEyq.s 			page 24


 814              		.loc 1 266 0
 815 00b4 BDF80410 		ldrh	r1, [sp, #4]
 816 00b8 01F00101 		and	r1, r1, #1
 817 00bc 01FA03F3 		lsl	r3, r1, r3
 818 00c0 0343     		orrs	r3, r3, r0
 819 00c2 5355     		strb	r3, [r2, r5]
 820              	.LBE56:
 821 00c4 50E0     		b	.L30
 822              	.LVL148:
 823              	.L39:
 267:lvgl\src\lv_draw/lv_img_buf.c ****     }
 268:lvgl\src\lv_draw/lv_img_buf.c ****     else if(dsc->header.cf == LV_IMG_CF_INDEXED_2BIT) {
 824              		.loc 1 268 0
 825 00c6 082B     		cmp	r3, #8
 826 00c8 1FD1     		bne	.L40
 827              	.LBB57:
 269:lvgl\src\lv_draw/lv_img_buf.c ****         buf_u8 += sizeof(lv_color32_t) * 4; /*Skip the palette*/
 828              		.loc 1 269 0
 829 00ca 04F11002 		add	r2, r4, #16
 830              	.LVL149:
 270:lvgl\src\lv_draw/lv_img_buf.c ****         uint8_t bit = (x & 0x3) * 2;
 831              		.loc 1 270 0
 832 00ce 01F00303 		and	r3, r1, #3
 833 00d2 5800     		lsls	r0, r3, #1
 834              	.LVL150:
 271:lvgl\src\lv_draw/lv_img_buf.c ****         x           = x >> 2;
 272:lvgl\src\lv_draw/lv_img_buf.c **** 
 273:lvgl\src\lv_draw/lv_img_buf.c ****         /* Get the current pixel.
 274:lvgl\src\lv_draw/lv_img_buf.c ****          * dsc->header.w + 3 means rounding up to 4 because the lines are byte aligned
 275:lvgl\src\lv_draw/lv_img_buf.c ****          * so the possible real width are 4, 8 ,12 ...*/
 276:lvgl\src\lv_draw/lv_img_buf.c ****         uint32_t px = ((dsc->header.w + 3) >> 2) * y + x;
 835              		.loc 1 276 0
 836 00d4 3B68     		ldr	r3, [r7]
 837 00d6 C3F38A23 		ubfx	r3, r3, #10, #11
 838 00da 0333     		adds	r3, r3, #3
 839 00dc 9B10     		asrs	r3, r3, #2
 840 00de 03FB06F6 		mul	r6, r3, r6
 841 00e2 06EBA105 		add	r5, r6, r1, asr #2
 842              	.LVL151:
 277:lvgl\src\lv_draw/lv_img_buf.c **** 
 278:lvgl\src\lv_draw/lv_img_buf.c ****         buf_u8[px] = buf_u8[px] & ~(3 << (6 - bit));
 843              		.loc 1 278 0
 844 00e6 515D     		ldrb	r1, [r2, r5]	@ zero_extendqisi2
 845              	.LVL152:
 846 00e8 C0F10603 		rsb	r3, r0, #6
 847 00ec 0320     		movs	r0, #3
 848              	.LVL153:
 849 00ee 9840     		lsls	r0, r0, r3
 850 00f0 21EA0000 		bic	r0, r1, r0
 851 00f4 40B2     		sxtb	r0, r0
 852 00f6 5055     		strb	r0, [r2, r5]
 279:lvgl\src\lv_draw/lv_img_buf.c ****         buf_u8[px] = buf_u8[px] | ((c.full & 0x3) << (6 - bit));
 853              		.loc 1 279 0
 854 00f8 BDF80410 		ldrh	r1, [sp, #4]
 855 00fc 01F00301 		and	r1, r1, #3
 856 0100 01FA03F3 		lsl	r3, r1, r3
 857 0104 0343     		orrs	r3, r3, r0
ARM GAS  C:\Users\strap\AppData\Local\Temp\ccvWLEyq.s 			page 25


 858 0106 5355     		strb	r3, [r2, r5]
 859              	.LBE57:
 860 0108 2EE0     		b	.L30
 861              	.LVL154:
 862              	.L40:
 280:lvgl\src\lv_draw/lv_img_buf.c ****     }
 281:lvgl\src\lv_draw/lv_img_buf.c ****     else if(dsc->header.cf == LV_IMG_CF_INDEXED_4BIT) {
 863              		.loc 1 281 0
 864 010a 092B     		cmp	r3, #9
 865 010c 20D1     		bne	.L41
 866              	.LBB58:
 282:lvgl\src\lv_draw/lv_img_buf.c ****         buf_u8 += sizeof(lv_color32_t) * 16; /*Skip the palette*/
 867              		.loc 1 282 0
 868 010e 04F14002 		add	r2, r4, #64
 869              	.LVL155:
 283:lvgl\src\lv_draw/lv_img_buf.c ****         uint8_t bit = (x & 0x1) * 4;
 870              		.loc 1 283 0
 871 0112 01F00103 		and	r3, r1, #1
 872 0116 9B00     		lsls	r3, r3, #2
 873 0118 D9B2     		uxtb	r1, r3
 874              	.LVL156:
 284:lvgl\src\lv_draw/lv_img_buf.c ****         x           = x >> 1;
 285:lvgl\src\lv_draw/lv_img_buf.c **** 
 286:lvgl\src\lv_draw/lv_img_buf.c ****         /* Get the current pixel.
 287:lvgl\src\lv_draw/lv_img_buf.c ****          * dsc->header.w + 1 means rounding up to 2 because the lines are byte aligned
 288:lvgl\src\lv_draw/lv_img_buf.c ****          * so the possible real width are 2 ,4, 6 ...*/
 289:lvgl\src\lv_draw/lv_img_buf.c ****         uint32_t px = ((dsc->header.w + 1) >> 1) * y + x;
 875              		.loc 1 289 0
 876 011a 0368     		ldr	r3, [r0]
 877 011c C3F38A23 		ubfx	r3, r3, #10, #11
 878 0120 0133     		adds	r3, r3, #1
 879 0122 5B10     		asrs	r3, r3, #1
 880 0124 03FB06F6 		mul	r6, r3, r6
 881 0128 06EB6505 		add	r5, r6, r5, asr #1
 882              	.LVL157:
 290:lvgl\src\lv_draw/lv_img_buf.c ****         buf_u8[px]  = buf_u8[px] & ~(0xF << (4 - bit));
 883              		.loc 1 290 0
 884 012c 545D     		ldrb	r4, [r2, r5]	@ zero_extendqisi2
 885 012e C1F10403 		rsb	r3, r1, #4
 886 0132 0F20     		movs	r0, #15
 887              	.LVL158:
 888 0134 9840     		lsls	r0, r0, r3
 889 0136 24EA0000 		bic	r0, r4, r0
 890 013a 40B2     		sxtb	r0, r0
 891 013c 5055     		strb	r0, [r2, r5]
 291:lvgl\src\lv_draw/lv_img_buf.c ****         buf_u8[px]  = buf_u8[px] | ((c.full & 0xF) << (4 - bit));
 892              		.loc 1 291 0
 893 013e BDF80410 		ldrh	r1, [sp, #4]
 894              	.LVL159:
 895 0142 01F00F01 		and	r1, r1, #15
 896 0146 01FA03F3 		lsl	r3, r1, r3
 897 014a 0343     		orrs	r3, r3, r0
 898 014c 5355     		strb	r3, [r2, r5]
 899              	.LBE58:
 900 014e 0BE0     		b	.L30
 901              	.LVL160:
 902              	.L41:
ARM GAS  C:\Users\strap\AppData\Local\Temp\ccvWLEyq.s 			page 26


 292:lvgl\src\lv_draw/lv_img_buf.c ****     }
 293:lvgl\src\lv_draw/lv_img_buf.c ****     else if(dsc->header.cf == LV_IMG_CF_INDEXED_8BIT) {
 903              		.loc 1 293 0
 904 0150 0A2B     		cmp	r3, #10
 905 0152 09D1     		bne	.L30
 906              	.LVL161:
 907              	.LBB59:
 294:lvgl\src\lv_draw/lv_img_buf.c ****         buf_u8 += sizeof(lv_color32_t) * 256; /*Skip the palette*/
 295:lvgl\src\lv_draw/lv_img_buf.c ****         uint32_t px = dsc->header.w * y + x;
 908              		.loc 1 295 0
 909 0154 0268     		ldr	r2, [r0]
 910              	.LVL162:
 911 0156 C2F38A22 		ubfx	r2, r2, #10, #11
 912 015a 06FB0212 		mla	r2, r6, r2, r1
 913              	.LVL163:
 296:lvgl\src\lv_draw/lv_img_buf.c ****         buf_u8[px]  = c.full;
 914              		.loc 1 296 0
 915 015e 02F58062 		add	r2, r2, #1024
 916              	.LVL164:
 917 0162 BDF80430 		ldrh	r3, [sp, #4]
 918 0166 A354     		strb	r3, [r4, r2]
 919              	.LVL165:
 920              	.L30:
 921              	.LBE59:
 297:lvgl\src\lv_draw/lv_img_buf.c ****     }
 298:lvgl\src\lv_draw/lv_img_buf.c **** }
 922              		.loc 1 298 0
 923 0168 03B0     		add	sp, sp, #12
 924              		.cfi_def_cfa_offset 20
 925              		@ sp needed
 926 016a F0BD     		pop	{r4, r5, r6, r7, pc}
 927              		.cfi_endproc
 928              	.LFE40:
 929              		.size	lv_img_buf_set_px_color, .-lv_img_buf_set_px_color
 930              		.section	.text.lv_img_buf_set_palette,"ax",%progbits
 931              		.align	2
 932              		.global	lv_img_buf_set_palette
 933              		.thumb
 934              		.thumb_func
 935              		.type	lv_img_buf_set_palette, %function
 936              	lv_img_buf_set_palette:
 937              	.LFB41:
 299:lvgl\src\lv_draw/lv_img_buf.c **** 
 300:lvgl\src\lv_draw/lv_img_buf.c **** /**
 301:lvgl\src\lv_draw/lv_img_buf.c ****  * Set the palette color of an indexed image. Valid only for `LV_IMG_CF_INDEXED1/2/4/8`
 302:lvgl\src\lv_draw/lv_img_buf.c ****  * @param dsc pointer to an image descriptor
 303:lvgl\src\lv_draw/lv_img_buf.c ****  * @param id the palette color to set:
 304:lvgl\src\lv_draw/lv_img_buf.c ****  *   - for `LV_IMG_CF_INDEXED1`: 0..1
 305:lvgl\src\lv_draw/lv_img_buf.c ****  *   - for `LV_IMG_CF_INDEXED2`: 0..3
 306:lvgl\src\lv_draw/lv_img_buf.c ****  *   - for `LV_IMG_CF_INDEXED4`: 0..15
 307:lvgl\src\lv_draw/lv_img_buf.c ****  *   - for `LV_IMG_CF_INDEXED8`: 0..255
 308:lvgl\src\lv_draw/lv_img_buf.c ****  * @param c the color to set
 309:lvgl\src\lv_draw/lv_img_buf.c ****  */
 310:lvgl\src\lv_draw/lv_img_buf.c **** void lv_img_buf_set_palette(lv_img_dsc_t * dsc, uint8_t id, lv_color_t c)
 311:lvgl\src\lv_draw/lv_img_buf.c **** {
 938              		.loc 1 311 0
 939              		.cfi_startproc
ARM GAS  C:\Users\strap\AppData\Local\Temp\ccvWLEyq.s 			page 27


 940              		@ args = 0, pretend = 0, frame = 8
 941              		@ frame_needed = 0, uses_anonymous_args = 0
 942              		@ link register save eliminated.
 943              	.LVL166:
 312:lvgl\src\lv_draw/lv_img_buf.c ****     if((dsc->header.cf == LV_IMG_CF_ALPHA_1BIT && id > 1) || (dsc->header.cf == LV_IMG_CF_ALPHA_2BI
 944              		.loc 1 312 0
 945 0000 0378     		ldrb	r3, [r0]	@ zero_extendqisi2
 946 0002 03F01F03 		and	r3, r3, #31
 947 0006 0B2B     		cmp	r3, #11
 948 0008 01D1     		bne	.L44
 949              		.loc 1 312 0 is_stmt 0 discriminator 1
 950 000a 0129     		cmp	r1, #1
 951 000c 41D8     		bhi	.L53
 952              	.L44:
 953              		.loc 1 312 0 discriminator 3
 954 000e 0C2B     		cmp	r3, #12
 955 0010 01D1     		bne	.L46
 956              		.loc 1 312 0 discriminator 4
 957 0012 0329     		cmp	r1, #3
 958 0014 3DD8     		bhi	.L53
 959              	.L46:
 960              		.loc 1 312 0 discriminator 6
 961 0016 0D2B     		cmp	r3, #13
 962 0018 01D1     		bne	.L47
 313:lvgl\src\lv_draw/lv_img_buf.c ****        (dsc->header.cf == LV_IMG_CF_ALPHA_4BIT && id > 15) || (dsc->header.cf == LV_IMG_CF_ALPHA_8B
 963              		.loc 1 313 0 is_stmt 1
 964 001a 0F29     		cmp	r1, #15
 965 001c 39D8     		bhi	.L53
 966              	.L47:
 967              		.loc 1 313 0 is_stmt 0 discriminator 1
 968 001e 0E2B     		cmp	r3, #14
 969 0020 37D0     		beq	.L53
 311:lvgl\src\lv_draw/lv_img_buf.c ****     if((dsc->header.cf == LV_IMG_CF_ALPHA_1BIT && id > 1) || (dsc->header.cf == LV_IMG_CF_ALPHA_2BI
 970              		.loc 1 311 0 is_stmt 1
 971 0022 30B4     		push	{r4, r5}
 972              		.cfi_def_cfa_offset 8
 973              		.cfi_offset 4, -8
 974              		.cfi_offset 5, -4
 975 0024 82B0     		sub	sp, sp, #8
 976              		.cfi_def_cfa_offset 16
 977              	.LBB60:
 978              	.LBB61:
 979              		.file 3 "lvgl\\src\\lv_draw\\../lv_misc/lv_color.h"
   1:lvgl\src\lv_draw\../lv_misc/lv_color.h **** /**
   2:lvgl\src\lv_draw\../lv_misc/lv_color.h ****  * @file lv_color.h
   3:lvgl\src\lv_draw\../lv_misc/lv_color.h ****  *
   4:lvgl\src\lv_draw\../lv_misc/lv_color.h ****  */
   5:lvgl\src\lv_draw\../lv_misc/lv_color.h **** 
   6:lvgl\src\lv_draw\../lv_misc/lv_color.h **** #ifndef LV_COLOR_H
   7:lvgl\src\lv_draw\../lv_misc/lv_color.h **** #define LV_COLOR_H
   8:lvgl\src\lv_draw\../lv_misc/lv_color.h **** 
   9:lvgl\src\lv_draw\../lv_misc/lv_color.h **** #ifdef __cplusplus
  10:lvgl\src\lv_draw\../lv_misc/lv_color.h **** extern "C" {
  11:lvgl\src\lv_draw\../lv_misc/lv_color.h **** #endif
  12:lvgl\src\lv_draw\../lv_misc/lv_color.h **** 
  13:lvgl\src\lv_draw\../lv_misc/lv_color.h **** /*********************
  14:lvgl\src\lv_draw\../lv_misc/lv_color.h ****  *      INCLUDES
ARM GAS  C:\Users\strap\AppData\Local\Temp\ccvWLEyq.s 			page 28


  15:lvgl\src\lv_draw\../lv_misc/lv_color.h ****  *********************/
  16:lvgl\src\lv_draw\../lv_misc/lv_color.h **** #include "../lv_conf_internal.h"
  17:lvgl\src\lv_draw\../lv_misc/lv_color.h **** #include "lv_math.h"
  18:lvgl\src\lv_draw\../lv_misc/lv_color.h **** 
  19:lvgl\src\lv_draw\../lv_misc/lv_color.h **** /*Error checking*/
  20:lvgl\src\lv_draw\../lv_misc/lv_color.h **** #if LV_COLOR_DEPTH == 24
  21:lvgl\src\lv_draw\../lv_misc/lv_color.h **** #error "LV_COLOR_DEPTH  24 is deprecated. Use LV_COLOR_DEPTH  32 instead (lv_conf.h)"
  22:lvgl\src\lv_draw\../lv_misc/lv_color.h **** #endif
  23:lvgl\src\lv_draw\../lv_misc/lv_color.h **** 
  24:lvgl\src\lv_draw\../lv_misc/lv_color.h **** #if LV_COLOR_DEPTH != 32 && LV_COLOR_SCREEN_TRANSP != 0
  25:lvgl\src\lv_draw\../lv_misc/lv_color.h **** #error "LV_COLOR_SCREEN_TRANSP requires LV_COLOR_DEPTH == 32. Set it in lv_conf.h"
  26:lvgl\src\lv_draw\../lv_misc/lv_color.h **** #endif
  27:lvgl\src\lv_draw\../lv_misc/lv_color.h **** 
  28:lvgl\src\lv_draw\../lv_misc/lv_color.h **** #if LV_COLOR_DEPTH != 16 && LV_COLOR_16_SWAP != 0
  29:lvgl\src\lv_draw\../lv_misc/lv_color.h **** #error "LV_COLOR_16_SWAP requires LV_COLOR_DEPTH == 16. Set it in lv_conf.h"
  30:lvgl\src\lv_draw\../lv_misc/lv_color.h **** #endif
  31:lvgl\src\lv_draw\../lv_misc/lv_color.h **** 
  32:lvgl\src\lv_draw\../lv_misc/lv_color.h **** #include <stdint.h>
  33:lvgl\src\lv_draw\../lv_misc/lv_color.h **** 
  34:lvgl\src\lv_draw\../lv_misc/lv_color.h **** /*********************
  35:lvgl\src\lv_draw\../lv_misc/lv_color.h ****  *      DEFINES
  36:lvgl\src\lv_draw\../lv_misc/lv_color.h ****  *********************/
  37:lvgl\src\lv_draw\../lv_misc/lv_color.h **** #define LV_COLOR_WHITE LV_COLOR_MAKE(0xFF, 0xFF, 0xFF)
  38:lvgl\src\lv_draw\../lv_misc/lv_color.h **** #define LV_COLOR_SILVER LV_COLOR_MAKE(0xC0, 0xC0, 0xC0)
  39:lvgl\src\lv_draw\../lv_misc/lv_color.h **** #define LV_COLOR_GRAY LV_COLOR_MAKE(0x80, 0x80, 0x80)
  40:lvgl\src\lv_draw\../lv_misc/lv_color.h **** #define LV_COLOR_BLACK LV_COLOR_MAKE(0x00, 0x00, 0x00)
  41:lvgl\src\lv_draw\../lv_misc/lv_color.h **** #define LV_COLOR_RED LV_COLOR_MAKE(0xFF, 0x00, 0x00)
  42:lvgl\src\lv_draw\../lv_misc/lv_color.h **** #define LV_COLOR_MAROON LV_COLOR_MAKE(0x80, 0x00, 0x00)
  43:lvgl\src\lv_draw\../lv_misc/lv_color.h **** #define LV_COLOR_YELLOW LV_COLOR_MAKE(0xFF, 0xFF, 0x00)
  44:lvgl\src\lv_draw\../lv_misc/lv_color.h **** #define LV_COLOR_OLIVE LV_COLOR_MAKE(0x80, 0x80, 0x00)
  45:lvgl\src\lv_draw\../lv_misc/lv_color.h **** #define LV_COLOR_LIME LV_COLOR_MAKE(0x00, 0xFF, 0x00)
  46:lvgl\src\lv_draw\../lv_misc/lv_color.h **** #define LV_COLOR_GREEN LV_COLOR_MAKE(0x00, 0x80, 0x00)
  47:lvgl\src\lv_draw\../lv_misc/lv_color.h **** #define LV_COLOR_CYAN LV_COLOR_MAKE(0x00, 0xFF, 0xFF)
  48:lvgl\src\lv_draw\../lv_misc/lv_color.h **** #define LV_COLOR_AQUA LV_COLOR_CYAN
  49:lvgl\src\lv_draw\../lv_misc/lv_color.h **** #define LV_COLOR_TEAL LV_COLOR_MAKE(0x00, 0x80, 0x80)
  50:lvgl\src\lv_draw\../lv_misc/lv_color.h **** #define LV_COLOR_BLUE LV_COLOR_MAKE(0x00, 0x00, 0xFF)
  51:lvgl\src\lv_draw\../lv_misc/lv_color.h **** #define LV_COLOR_NAVY LV_COLOR_MAKE(0x00, 0x00, 0x80)
  52:lvgl\src\lv_draw\../lv_misc/lv_color.h **** #define LV_COLOR_MAGENTA LV_COLOR_MAKE(0xFF, 0x00, 0xFF)
  53:lvgl\src\lv_draw\../lv_misc/lv_color.h **** #define LV_COLOR_PURPLE LV_COLOR_MAKE(0x80, 0x00, 0x80)
  54:lvgl\src\lv_draw\../lv_misc/lv_color.h **** #define LV_COLOR_ORANGE LV_COLOR_MAKE(0xFF, 0xA5, 0x00)
  55:lvgl\src\lv_draw\../lv_misc/lv_color.h **** 
  56:lvgl\src\lv_draw\../lv_misc/lv_color.h **** /**
  57:lvgl\src\lv_draw\../lv_misc/lv_color.h ****  * Opacity percentages.
  58:lvgl\src\lv_draw\../lv_misc/lv_color.h ****  */
  59:lvgl\src\lv_draw\../lv_misc/lv_color.h **** enum {
  60:lvgl\src\lv_draw\../lv_misc/lv_color.h ****     LV_OPA_TRANSP = 0,
  61:lvgl\src\lv_draw\../lv_misc/lv_color.h ****     LV_OPA_0      = 0,
  62:lvgl\src\lv_draw\../lv_misc/lv_color.h ****     LV_OPA_10     = 25,
  63:lvgl\src\lv_draw\../lv_misc/lv_color.h ****     LV_OPA_20     = 51,
  64:lvgl\src\lv_draw\../lv_misc/lv_color.h ****     LV_OPA_30     = 76,
  65:lvgl\src\lv_draw\../lv_misc/lv_color.h ****     LV_OPA_40     = 102,
  66:lvgl\src\lv_draw\../lv_misc/lv_color.h ****     LV_OPA_50     = 127,
  67:lvgl\src\lv_draw\../lv_misc/lv_color.h ****     LV_OPA_60     = 153,
  68:lvgl\src\lv_draw\../lv_misc/lv_color.h ****     LV_OPA_70     = 178,
  69:lvgl\src\lv_draw\../lv_misc/lv_color.h ****     LV_OPA_80     = 204,
  70:lvgl\src\lv_draw\../lv_misc/lv_color.h ****     LV_OPA_90     = 229,
  71:lvgl\src\lv_draw\../lv_misc/lv_color.h ****     LV_OPA_100    = 255,
ARM GAS  C:\Users\strap\AppData\Local\Temp\ccvWLEyq.s 			page 29


  72:lvgl\src\lv_draw\../lv_misc/lv_color.h ****     LV_OPA_COVER  = 255,
  73:lvgl\src\lv_draw\../lv_misc/lv_color.h **** };
  74:lvgl\src\lv_draw\../lv_misc/lv_color.h **** 
  75:lvgl\src\lv_draw\../lv_misc/lv_color.h **** #define LV_OPA_MIN 2    /*Opacities below this will be transparent*/
  76:lvgl\src\lv_draw\../lv_misc/lv_color.h **** #define LV_OPA_MAX 253  /*Opacities above this will fully cover*/
  77:lvgl\src\lv_draw\../lv_misc/lv_color.h **** 
  78:lvgl\src\lv_draw\../lv_misc/lv_color.h **** #if LV_COLOR_DEPTH == 1
  79:lvgl\src\lv_draw\../lv_misc/lv_color.h **** #define LV_COLOR_SIZE 8
  80:lvgl\src\lv_draw\../lv_misc/lv_color.h **** #elif LV_COLOR_DEPTH == 8
  81:lvgl\src\lv_draw\../lv_misc/lv_color.h **** #define LV_COLOR_SIZE 8
  82:lvgl\src\lv_draw\../lv_misc/lv_color.h **** #elif LV_COLOR_DEPTH == 16
  83:lvgl\src\lv_draw\../lv_misc/lv_color.h **** #define LV_COLOR_SIZE 16
  84:lvgl\src\lv_draw\../lv_misc/lv_color.h **** #elif LV_COLOR_DEPTH == 32
  85:lvgl\src\lv_draw\../lv_misc/lv_color.h **** #define LV_COLOR_SIZE 32
  86:lvgl\src\lv_draw\../lv_misc/lv_color.h **** #else
  87:lvgl\src\lv_draw\../lv_misc/lv_color.h **** #error "Invalid LV_COLOR_DEPTH in lv_conf.h! Set it to 1, 8, 16 or 32!"
  88:lvgl\src\lv_draw\../lv_misc/lv_color.h **** #endif
  89:lvgl\src\lv_draw\../lv_misc/lv_color.h **** 
  90:lvgl\src\lv_draw\../lv_misc/lv_color.h **** 
  91:lvgl\src\lv_draw\../lv_misc/lv_color.h **** /* Adjust color mix functions rounding.
  92:lvgl\src\lv_draw\../lv_misc/lv_color.h ****  * GPUs might calculate color mix (blending) differently.
  93:lvgl\src\lv_draw\../lv_misc/lv_color.h ****  * Should be in range of 0..254
  94:lvgl\src\lv_draw\../lv_misc/lv_color.h ****  * 0: no adjustment, get the integer part of the result (round down)
  95:lvgl\src\lv_draw\../lv_misc/lv_color.h ****  * 64: round up from x.75
  96:lvgl\src\lv_draw\../lv_misc/lv_color.h ****  * 128: round up from half
  97:lvgl\src\lv_draw\../lv_misc/lv_color.h ****  * 192: round up from x.25
  98:lvgl\src\lv_draw\../lv_misc/lv_color.h ****  * 254: round up */
  99:lvgl\src\lv_draw\../lv_misc/lv_color.h **** #ifndef LV_COLOR_MIX_ROUND_OFS
 100:lvgl\src\lv_draw\../lv_misc/lv_color.h **** #if LV_COLOR_DEPTH == 32
 101:lvgl\src\lv_draw\../lv_misc/lv_color.h **** #define LV_COLOR_MIX_ROUND_OFS 0
 102:lvgl\src\lv_draw\../lv_misc/lv_color.h **** #else
 103:lvgl\src\lv_draw\../lv_misc/lv_color.h **** #define LV_COLOR_MIX_ROUND_OFS 128
 104:lvgl\src\lv_draw\../lv_misc/lv_color.h **** #endif
 105:lvgl\src\lv_draw\../lv_misc/lv_color.h **** #endif
 106:lvgl\src\lv_draw\../lv_misc/lv_color.h **** 
 107:lvgl\src\lv_draw\../lv_misc/lv_color.h **** /*---------------------------------------
 108:lvgl\src\lv_draw\../lv_misc/lv_color.h ****  * Macros for all existing  color depths
 109:lvgl\src\lv_draw\../lv_misc/lv_color.h ****  * to set/get values of the color channels
 110:lvgl\src\lv_draw\../lv_misc/lv_color.h ****  *------------------------------------------*/
 111:lvgl\src\lv_draw\../lv_misc/lv_color.h **** # define LV_COLOR_SET_R1(c, v) (c).ch.red = (uint8_t)((v) & 0x1);
 112:lvgl\src\lv_draw\../lv_misc/lv_color.h **** # define LV_COLOR_SET_G1(c, v) (c).ch.green = (uint8_t)((v) & 0x1);
 113:lvgl\src\lv_draw\../lv_misc/lv_color.h **** # define LV_COLOR_SET_B1(c, v) (c).ch.blue = (uint8_t)((v) & 0x1);
 114:lvgl\src\lv_draw\../lv_misc/lv_color.h **** # define LV_COLOR_SET_A1(c, v)
 115:lvgl\src\lv_draw\../lv_misc/lv_color.h **** 
 116:lvgl\src\lv_draw\../lv_misc/lv_color.h **** # define LV_COLOR_GET_R1(c) (c).ch.red
 117:lvgl\src\lv_draw\../lv_misc/lv_color.h **** # define LV_COLOR_GET_G1(c) (c).ch.green
 118:lvgl\src\lv_draw\../lv_misc/lv_color.h **** # define LV_COLOR_GET_B1(c) (c).ch.blue
 119:lvgl\src\lv_draw\../lv_misc/lv_color.h **** # define LV_COLOR_GET_A1(c) 1
 120:lvgl\src\lv_draw\../lv_misc/lv_color.h **** 
 121:lvgl\src\lv_draw\../lv_misc/lv_color.h **** # define LV_COLOR_SET_R8(c, v) (c).ch.red = (uint8_t)(v) & 0x7U;
 122:lvgl\src\lv_draw\../lv_misc/lv_color.h **** # define LV_COLOR_SET_G8(c, v) (c).ch.green = (uint8_t)(v) & 0x7U;
 123:lvgl\src\lv_draw\../lv_misc/lv_color.h **** # define LV_COLOR_SET_B8(c, v) (c).ch.blue = (uint8_t)(v) & 0x3U;
 124:lvgl\src\lv_draw\../lv_misc/lv_color.h **** # define LV_COLOR_SET_A8(c, v) do {} while(0)
 125:lvgl\src\lv_draw\../lv_misc/lv_color.h **** 
 126:lvgl\src\lv_draw\../lv_misc/lv_color.h **** # define LV_COLOR_GET_R8(c) (c).ch.red
 127:lvgl\src\lv_draw\../lv_misc/lv_color.h **** # define LV_COLOR_GET_G8(c) (c).ch.green
 128:lvgl\src\lv_draw\../lv_misc/lv_color.h **** # define LV_COLOR_GET_B8(c) (c).ch.blue
ARM GAS  C:\Users\strap\AppData\Local\Temp\ccvWLEyq.s 			page 30


 129:lvgl\src\lv_draw\../lv_misc/lv_color.h **** # define LV_COLOR_GET_A8(c) 0xFF
 130:lvgl\src\lv_draw\../lv_misc/lv_color.h **** 
 131:lvgl\src\lv_draw\../lv_misc/lv_color.h **** # define LV_COLOR_SET_R16(c, v) (c).ch.red = (uint8_t)(v) & 0x1FU;
 132:lvgl\src\lv_draw\../lv_misc/lv_color.h **** # define LV_COLOR_SET_G16(c, v) (c).ch.green = (uint8_t)(v) & 0x3FU;
 133:lvgl\src\lv_draw\../lv_misc/lv_color.h **** # define LV_COLOR_SET_G16_SWAP(c, v) {(c).ch.green_h = (uint8_t)(((v) >> 3) & 0x7); (c).ch.green_l 
 134:lvgl\src\lv_draw\../lv_misc/lv_color.h **** # define LV_COLOR_SET_B16(c, v) (c).ch.blue = (uint8_t)(v) & 0x1FU;
 135:lvgl\src\lv_draw\../lv_misc/lv_color.h **** # define LV_COLOR_SET_A16(c, v) do {} while(0)
 136:lvgl\src\lv_draw\../lv_misc/lv_color.h **** 
 137:lvgl\src\lv_draw\../lv_misc/lv_color.h **** # define LV_COLOR_GET_R16(c) (c).ch.red
 138:lvgl\src\lv_draw\../lv_misc/lv_color.h **** # define LV_COLOR_GET_G16(c) (c).ch.green
 139:lvgl\src\lv_draw\../lv_misc/lv_color.h **** # define LV_COLOR_GET_G16_SWAP(c) (((c).ch.green_h << 3) + (c).ch.green_l)
 140:lvgl\src\lv_draw\../lv_misc/lv_color.h **** # define LV_COLOR_GET_B16(c) (c).ch.blue
 141:lvgl\src\lv_draw\../lv_misc/lv_color.h **** # define LV_COLOR_GET_A16(c) 0xFF
 142:lvgl\src\lv_draw\../lv_misc/lv_color.h **** 
 143:lvgl\src\lv_draw\../lv_misc/lv_color.h **** # define LV_COLOR_SET_R32(c, v) (c).ch.red = (uint32_t)((v) & 0xFF);
 144:lvgl\src\lv_draw\../lv_misc/lv_color.h **** # define LV_COLOR_SET_G32(c, v) (c).ch.green = (uint32_t)((v) & 0xFF);
 145:lvgl\src\lv_draw\../lv_misc/lv_color.h **** # define LV_COLOR_SET_B32(c, v) (c).ch.blue = (uint32_t)((v) & 0xFF);
 146:lvgl\src\lv_draw\../lv_misc/lv_color.h **** # define LV_COLOR_SET_A32(c, v) (c).ch.alpha = (uint32_t)((v) & 0xFF);
 147:lvgl\src\lv_draw\../lv_misc/lv_color.h **** 
 148:lvgl\src\lv_draw\../lv_misc/lv_color.h **** # define LV_COLOR_GET_R32(c) (c).ch.red
 149:lvgl\src\lv_draw\../lv_misc/lv_color.h **** # define LV_COLOR_GET_G32(c) (c).ch.green
 150:lvgl\src\lv_draw\../lv_misc/lv_color.h **** # define LV_COLOR_GET_B32(c) (c).ch.blue
 151:lvgl\src\lv_draw\../lv_misc/lv_color.h **** # define LV_COLOR_GET_A32(c) (c).ch.alpha
 152:lvgl\src\lv_draw\../lv_misc/lv_color.h **** 
 153:lvgl\src\lv_draw\../lv_misc/lv_color.h **** 
 154:lvgl\src\lv_draw\../lv_misc/lv_color.h **** /*---------------------------------------
 155:lvgl\src\lv_draw\../lv_misc/lv_color.h ****  * Macros for the current color depth
 156:lvgl\src\lv_draw\../lv_misc/lv_color.h ****  * to set/get values of the color channels
 157:lvgl\src\lv_draw\../lv_misc/lv_color.h ****  *------------------------------------------*/
 158:lvgl\src\lv_draw\../lv_misc/lv_color.h **** #if LV_COLOR_DEPTH == 1
 159:lvgl\src\lv_draw\../lv_misc/lv_color.h **** # define LV_COLOR_SET_R(c, v) LV_COLOR_SET_R1(c,v)
 160:lvgl\src\lv_draw\../lv_misc/lv_color.h **** # define LV_COLOR_SET_G(c, v) LV_COLOR_SET_G1(c,v)
 161:lvgl\src\lv_draw\../lv_misc/lv_color.h **** # define LV_COLOR_SET_B(c, v) LV_COLOR_SET_B1(c,v)
 162:lvgl\src\lv_draw\../lv_misc/lv_color.h **** # define LV_COLOR_SET_A(c, v) LV_COLOR_SET_A1(c,v)
 163:lvgl\src\lv_draw\../lv_misc/lv_color.h **** 
 164:lvgl\src\lv_draw\../lv_misc/lv_color.h **** # define LV_COLOR_GET_R(c) LV_COLOR_GET_R1(c)
 165:lvgl\src\lv_draw\../lv_misc/lv_color.h **** # define LV_COLOR_GET_G(c) LV_COLOR_GET_G1(c)
 166:lvgl\src\lv_draw\../lv_misc/lv_color.h **** # define LV_COLOR_GET_B(c) LV_COLOR_GET_B1(c)
 167:lvgl\src\lv_draw\../lv_misc/lv_color.h **** # define LV_COLOR_GET_A(c) LV_COLOR_GET_A1(c)
 168:lvgl\src\lv_draw\../lv_misc/lv_color.h **** 
 169:lvgl\src\lv_draw\../lv_misc/lv_color.h **** #elif LV_COLOR_DEPTH == 8
 170:lvgl\src\lv_draw\../lv_misc/lv_color.h **** # define LV_COLOR_SET_R(c, v) LV_COLOR_SET_R8(c,v)
 171:lvgl\src\lv_draw\../lv_misc/lv_color.h **** # define LV_COLOR_SET_G(c, v) LV_COLOR_SET_G8(c,v)
 172:lvgl\src\lv_draw\../lv_misc/lv_color.h **** # define LV_COLOR_SET_B(c, v) LV_COLOR_SET_B8(c,v)
 173:lvgl\src\lv_draw\../lv_misc/lv_color.h **** # define LV_COLOR_SET_A(c, v) LV_COLOR_SET_A8(c,v)
 174:lvgl\src\lv_draw\../lv_misc/lv_color.h **** 
 175:lvgl\src\lv_draw\../lv_misc/lv_color.h **** # define LV_COLOR_GET_R(c) LV_COLOR_GET_R8(c)
 176:lvgl\src\lv_draw\../lv_misc/lv_color.h **** # define LV_COLOR_GET_G(c) LV_COLOR_GET_G8(c)
 177:lvgl\src\lv_draw\../lv_misc/lv_color.h **** # define LV_COLOR_GET_B(c) LV_COLOR_GET_B8(c)
 178:lvgl\src\lv_draw\../lv_misc/lv_color.h **** # define LV_COLOR_GET_A(c) LV_COLOR_GET_A8(c)
 179:lvgl\src\lv_draw\../lv_misc/lv_color.h **** 
 180:lvgl\src\lv_draw\../lv_misc/lv_color.h **** #elif LV_COLOR_DEPTH == 16
 181:lvgl\src\lv_draw\../lv_misc/lv_color.h **** # define LV_COLOR_SET_R(c, v) LV_COLOR_SET_R16(c,v)
 182:lvgl\src\lv_draw\../lv_misc/lv_color.h **** # if LV_COLOR_16_SWAP == 0
 183:lvgl\src\lv_draw\../lv_misc/lv_color.h **** #   define LV_COLOR_SET_G(c, v) LV_COLOR_SET_G16(c,v)
 184:lvgl\src\lv_draw\../lv_misc/lv_color.h **** # else
 185:lvgl\src\lv_draw\../lv_misc/lv_color.h **** #   define LV_COLOR_SET_G(c, v) LV_COLOR_SET_G16_SWAP(c,v)
ARM GAS  C:\Users\strap\AppData\Local\Temp\ccvWLEyq.s 			page 31


 186:lvgl\src\lv_draw\../lv_misc/lv_color.h **** # endif
 187:lvgl\src\lv_draw\../lv_misc/lv_color.h **** # define LV_COLOR_SET_B(c, v) LV_COLOR_SET_B16(c,v)
 188:lvgl\src\lv_draw\../lv_misc/lv_color.h **** # define LV_COLOR_SET_A(c, v) LV_COLOR_SET_A16(c,v)
 189:lvgl\src\lv_draw\../lv_misc/lv_color.h **** 
 190:lvgl\src\lv_draw\../lv_misc/lv_color.h **** # define LV_COLOR_GET_R(c) LV_COLOR_GET_R16(c)
 191:lvgl\src\lv_draw\../lv_misc/lv_color.h **** # if LV_COLOR_16_SWAP == 0
 192:lvgl\src\lv_draw\../lv_misc/lv_color.h **** #   define LV_COLOR_GET_G(c) LV_COLOR_GET_G16(c)
 193:lvgl\src\lv_draw\../lv_misc/lv_color.h **** # else
 194:lvgl\src\lv_draw\../lv_misc/lv_color.h **** #   define LV_COLOR_GET_G(c) LV_COLOR_GET_G16_SWAP(c)
 195:lvgl\src\lv_draw\../lv_misc/lv_color.h **** # endif
 196:lvgl\src\lv_draw\../lv_misc/lv_color.h **** # define LV_COLOR_GET_B(c)   LV_COLOR_GET_B16(c)
 197:lvgl\src\lv_draw\../lv_misc/lv_color.h **** # define LV_COLOR_GET_A(c)   LV_COLOR_GET_A16(c)
 198:lvgl\src\lv_draw\../lv_misc/lv_color.h **** 
 199:lvgl\src\lv_draw\../lv_misc/lv_color.h **** #elif LV_COLOR_DEPTH == 32
 200:lvgl\src\lv_draw\../lv_misc/lv_color.h **** # define LV_COLOR_SET_R(c, v) LV_COLOR_SET_R32(c,v)
 201:lvgl\src\lv_draw\../lv_misc/lv_color.h **** # define LV_COLOR_SET_G(c, v) LV_COLOR_SET_G32(c,v)
 202:lvgl\src\lv_draw\../lv_misc/lv_color.h **** # define LV_COLOR_SET_B(c, v) LV_COLOR_SET_B32(c,v)
 203:lvgl\src\lv_draw\../lv_misc/lv_color.h **** # define LV_COLOR_SET_A(c, v) LV_COLOR_SET_A32(c,v)
 204:lvgl\src\lv_draw\../lv_misc/lv_color.h **** 
 205:lvgl\src\lv_draw\../lv_misc/lv_color.h **** # define LV_COLOR_GET_R(c) LV_COLOR_GET_R32(c)
 206:lvgl\src\lv_draw\../lv_misc/lv_color.h **** # define LV_COLOR_GET_G(c) LV_COLOR_GET_G32(c)
 207:lvgl\src\lv_draw\../lv_misc/lv_color.h **** # define LV_COLOR_GET_B(c) LV_COLOR_GET_B32(c)
 208:lvgl\src\lv_draw\../lv_misc/lv_color.h **** # define LV_COLOR_GET_A(c) LV_COLOR_GET_A32(c)
 209:lvgl\src\lv_draw\../lv_misc/lv_color.h **** #endif
 210:lvgl\src\lv_draw\../lv_misc/lv_color.h **** 
 211:lvgl\src\lv_draw\../lv_misc/lv_color.h **** /**********************
 212:lvgl\src\lv_draw\../lv_misc/lv_color.h ****  *      TYPEDEFS
 213:lvgl\src\lv_draw\../lv_misc/lv_color.h ****  **********************/
 214:lvgl\src\lv_draw\../lv_misc/lv_color.h **** 
 215:lvgl\src\lv_draw\../lv_misc/lv_color.h **** typedef union {
 216:lvgl\src\lv_draw\../lv_misc/lv_color.h ****     uint8_t full; /*must be declared first to set all bits of byte via initializer list */
 217:lvgl\src\lv_draw\../lv_misc/lv_color.h ****     union {
 218:lvgl\src\lv_draw\../lv_misc/lv_color.h ****         uint8_t blue : 1;
 219:lvgl\src\lv_draw\../lv_misc/lv_color.h ****         uint8_t green : 1;
 220:lvgl\src\lv_draw\../lv_misc/lv_color.h ****         uint8_t red : 1;
 221:lvgl\src\lv_draw\../lv_misc/lv_color.h ****     } ch;
 222:lvgl\src\lv_draw\../lv_misc/lv_color.h **** } lv_color1_t;
 223:lvgl\src\lv_draw\../lv_misc/lv_color.h **** 
 224:lvgl\src\lv_draw\../lv_misc/lv_color.h **** typedef union {
 225:lvgl\src\lv_draw\../lv_misc/lv_color.h ****     struct {
 226:lvgl\src\lv_draw\../lv_misc/lv_color.h ****         uint8_t blue : 2;
 227:lvgl\src\lv_draw\../lv_misc/lv_color.h ****         uint8_t green : 3;
 228:lvgl\src\lv_draw\../lv_misc/lv_color.h ****         uint8_t red : 3;
 229:lvgl\src\lv_draw\../lv_misc/lv_color.h ****     } ch;
 230:lvgl\src\lv_draw\../lv_misc/lv_color.h ****     uint8_t full;
 231:lvgl\src\lv_draw\../lv_misc/lv_color.h **** } lv_color8_t;
 232:lvgl\src\lv_draw\../lv_misc/lv_color.h **** 
 233:lvgl\src\lv_draw\../lv_misc/lv_color.h **** typedef union {
 234:lvgl\src\lv_draw\../lv_misc/lv_color.h ****     struct {
 235:lvgl\src\lv_draw\../lv_misc/lv_color.h **** #if LV_COLOR_16_SWAP == 0
 236:lvgl\src\lv_draw\../lv_misc/lv_color.h ****         uint16_t blue : 5;
 237:lvgl\src\lv_draw\../lv_misc/lv_color.h ****         uint16_t green : 6;
 238:lvgl\src\lv_draw\../lv_misc/lv_color.h ****         uint16_t red : 5;
 239:lvgl\src\lv_draw\../lv_misc/lv_color.h **** #else
 240:lvgl\src\lv_draw\../lv_misc/lv_color.h ****         uint16_t green_h : 3;
 241:lvgl\src\lv_draw\../lv_misc/lv_color.h ****         uint16_t red : 5;
 242:lvgl\src\lv_draw\../lv_misc/lv_color.h ****         uint16_t blue : 5;
ARM GAS  C:\Users\strap\AppData\Local\Temp\ccvWLEyq.s 			page 32


 243:lvgl\src\lv_draw\../lv_misc/lv_color.h ****         uint16_t green_l : 3;
 244:lvgl\src\lv_draw\../lv_misc/lv_color.h **** #endif
 245:lvgl\src\lv_draw\../lv_misc/lv_color.h ****     } ch;
 246:lvgl\src\lv_draw\../lv_misc/lv_color.h ****     uint16_t full;
 247:lvgl\src\lv_draw\../lv_misc/lv_color.h **** } lv_color16_t;
 248:lvgl\src\lv_draw\../lv_misc/lv_color.h **** 
 249:lvgl\src\lv_draw\../lv_misc/lv_color.h **** typedef union {
 250:lvgl\src\lv_draw\../lv_misc/lv_color.h ****     struct {
 251:lvgl\src\lv_draw\../lv_misc/lv_color.h ****         uint8_t blue;
 252:lvgl\src\lv_draw\../lv_misc/lv_color.h ****         uint8_t green;
 253:lvgl\src\lv_draw\../lv_misc/lv_color.h ****         uint8_t red;
 254:lvgl\src\lv_draw\../lv_misc/lv_color.h ****         uint8_t alpha;
 255:lvgl\src\lv_draw\../lv_misc/lv_color.h ****     } ch;
 256:lvgl\src\lv_draw\../lv_misc/lv_color.h ****     uint32_t full;
 257:lvgl\src\lv_draw\../lv_misc/lv_color.h **** } lv_color32_t;
 258:lvgl\src\lv_draw\../lv_misc/lv_color.h **** 
 259:lvgl\src\lv_draw\../lv_misc/lv_color.h **** #if LV_COLOR_DEPTH == 1
 260:lvgl\src\lv_draw\../lv_misc/lv_color.h **** typedef uint8_t lv_color_int_t;
 261:lvgl\src\lv_draw\../lv_misc/lv_color.h **** typedef lv_color1_t lv_color_t;
 262:lvgl\src\lv_draw\../lv_misc/lv_color.h **** #define _LV_COLOR_ZERO_INITIALIZER {0x00}
 263:lvgl\src\lv_draw\../lv_misc/lv_color.h **** #elif LV_COLOR_DEPTH == 8
 264:lvgl\src\lv_draw\../lv_misc/lv_color.h **** typedef uint8_t lv_color_int_t;
 265:lvgl\src\lv_draw\../lv_misc/lv_color.h **** typedef lv_color8_t lv_color_t;
 266:lvgl\src\lv_draw\../lv_misc/lv_color.h **** #define _LV_COLOR_ZERO_INITIALIZER {{0x00, 0x00, 0x00}}
 267:lvgl\src\lv_draw\../lv_misc/lv_color.h **** #elif LV_COLOR_DEPTH == 16
 268:lvgl\src\lv_draw\../lv_misc/lv_color.h **** typedef uint16_t lv_color_int_t;
 269:lvgl\src\lv_draw\../lv_misc/lv_color.h **** typedef lv_color16_t lv_color_t;
 270:lvgl\src\lv_draw\../lv_misc/lv_color.h **** #define _LV_COLOR_ZERO_INITIALIZER {{0x00, 0x00, 0x00}}
 271:lvgl\src\lv_draw\../lv_misc/lv_color.h **** #elif LV_COLOR_DEPTH == 32
 272:lvgl\src\lv_draw\../lv_misc/lv_color.h **** typedef uint32_t lv_color_int_t;
 273:lvgl\src\lv_draw\../lv_misc/lv_color.h **** typedef lv_color32_t lv_color_t;
 274:lvgl\src\lv_draw\../lv_misc/lv_color.h **** #define _LV_COLOR_ZERO_INITIALIZER {{0x00, 0x00, 0x00, 0x00}}
 275:lvgl\src\lv_draw\../lv_misc/lv_color.h **** #else
 276:lvgl\src\lv_draw\../lv_misc/lv_color.h **** #error "Invalid LV_COLOR_DEPTH in lv_conf.h! Set it to 1, 8, 16 or 32!"
 277:lvgl\src\lv_draw\../lv_misc/lv_color.h **** #endif
 278:lvgl\src\lv_draw\../lv_misc/lv_color.h **** 
 279:lvgl\src\lv_draw\../lv_misc/lv_color.h **** 
 280:lvgl\src\lv_draw\../lv_misc/lv_color.h **** typedef struct {
 281:lvgl\src\lv_draw\../lv_misc/lv_color.h ****     uint16_t h;
 282:lvgl\src\lv_draw\../lv_misc/lv_color.h ****     uint8_t s;
 283:lvgl\src\lv_draw\../lv_misc/lv_color.h ****     uint8_t v;
 284:lvgl\src\lv_draw\../lv_misc/lv_color.h **** } lv_color_hsv_t;
 285:lvgl\src\lv_draw\../lv_misc/lv_color.h **** 
 286:lvgl\src\lv_draw\../lv_misc/lv_color.h **** //! @cond Doxygen_Suppress
 287:lvgl\src\lv_draw\../lv_misc/lv_color.h **** /*No idea where the guard is required but else throws warnings in the docs*/
 288:lvgl\src\lv_draw\../lv_misc/lv_color.h **** typedef uint8_t lv_opa_t;
 289:lvgl\src\lv_draw\../lv_misc/lv_color.h **** //! @endcond
 290:lvgl\src\lv_draw\../lv_misc/lv_color.h **** 
 291:lvgl\src\lv_draw\../lv_misc/lv_color.h **** /**********************
 292:lvgl\src\lv_draw\../lv_misc/lv_color.h ****  * GLOBAL PROTOTYPES
 293:lvgl\src\lv_draw\../lv_misc/lv_color.h ****  **********************/
 294:lvgl\src\lv_draw\../lv_misc/lv_color.h **** 
 295:lvgl\src\lv_draw\../lv_misc/lv_color.h **** /*In color conversations:
 296:lvgl\src\lv_draw\../lv_misc/lv_color.h ****  * - When converting to bigger color type the LSB weight of 1 LSB is calculated
 297:lvgl\src\lv_draw\../lv_misc/lv_color.h ****  *   E.g. 16 bit Red has 5 bits
 298:lvgl\src\lv_draw\../lv_misc/lv_color.h ****  *         8 bit Red has 2 bits
 299:lvgl\src\lv_draw\../lv_misc/lv_color.h ****  *        ----------------------
ARM GAS  C:\Users\strap\AppData\Local\Temp\ccvWLEyq.s 			page 33


 300:lvgl\src\lv_draw\../lv_misc/lv_color.h ****  *        8 bit red LSB = (2^5 - 1) / (2^2 - 1) = 31 / 3 = 10
 301:lvgl\src\lv_draw\../lv_misc/lv_color.h ****  *
 302:lvgl\src\lv_draw\../lv_misc/lv_color.h ****  * - When calculating to smaller color type simply shift out the LSBs
 303:lvgl\src\lv_draw\../lv_misc/lv_color.h ****  *   E.g.  8 bit Red has 2 bits
 304:lvgl\src\lv_draw\../lv_misc/lv_color.h ****  *        16 bit Red has 5 bits
 305:lvgl\src\lv_draw\../lv_misc/lv_color.h ****  *        ----------------------
 306:lvgl\src\lv_draw\../lv_misc/lv_color.h ****  *         Shift right with 5 - 3 = 2
 307:lvgl\src\lv_draw\../lv_misc/lv_color.h ****  */
 308:lvgl\src\lv_draw\../lv_misc/lv_color.h **** static inline uint8_t lv_color_to1(lv_color_t color)
 309:lvgl\src\lv_draw\../lv_misc/lv_color.h **** {
 310:lvgl\src\lv_draw\../lv_misc/lv_color.h **** #if LV_COLOR_DEPTH == 1
 311:lvgl\src\lv_draw\../lv_misc/lv_color.h ****     return color.full;
 312:lvgl\src\lv_draw\../lv_misc/lv_color.h **** #elif LV_COLOR_DEPTH == 8
 313:lvgl\src\lv_draw\../lv_misc/lv_color.h ****     if((LV_COLOR_GET_R(color) & 0x4) || (LV_COLOR_GET_G(color) & 0x4) || (LV_COLOR_GET_B(color) & 0
 314:lvgl\src\lv_draw\../lv_misc/lv_color.h ****         return 1;
 315:lvgl\src\lv_draw\../lv_misc/lv_color.h ****     }
 316:lvgl\src\lv_draw\../lv_misc/lv_color.h ****     else {
 317:lvgl\src\lv_draw\../lv_misc/lv_color.h ****         return 0;
 318:lvgl\src\lv_draw\../lv_misc/lv_color.h ****     }
 319:lvgl\src\lv_draw\../lv_misc/lv_color.h **** #elif LV_COLOR_DEPTH == 16
 320:lvgl\src\lv_draw\../lv_misc/lv_color.h ****     if((LV_COLOR_GET_R(color) & 0x10) || (LV_COLOR_GET_G(color) & 0x20) || (LV_COLOR_GET_B(color) &
 321:lvgl\src\lv_draw\../lv_misc/lv_color.h ****         return 1;
 322:lvgl\src\lv_draw\../lv_misc/lv_color.h ****     }
 323:lvgl\src\lv_draw\../lv_misc/lv_color.h ****     else {
 324:lvgl\src\lv_draw\../lv_misc/lv_color.h ****         return 0;
 325:lvgl\src\lv_draw\../lv_misc/lv_color.h ****     }
 326:lvgl\src\lv_draw\../lv_misc/lv_color.h **** #elif LV_COLOR_DEPTH == 32
 327:lvgl\src\lv_draw\../lv_misc/lv_color.h ****     if((LV_COLOR_GET_R(color) & 0x80) || (LV_COLOR_GET_G(color) & 0x80) || (LV_COLOR_GET_B(color) &
 328:lvgl\src\lv_draw\../lv_misc/lv_color.h ****         return 1;
 329:lvgl\src\lv_draw\../lv_misc/lv_color.h ****     }
 330:lvgl\src\lv_draw\../lv_misc/lv_color.h ****     else {
 331:lvgl\src\lv_draw\../lv_misc/lv_color.h ****         return 0;
 332:lvgl\src\lv_draw\../lv_misc/lv_color.h ****     }
 333:lvgl\src\lv_draw\../lv_misc/lv_color.h **** #endif
 334:lvgl\src\lv_draw\../lv_misc/lv_color.h **** }
 335:lvgl\src\lv_draw\../lv_misc/lv_color.h **** 
 336:lvgl\src\lv_draw\../lv_misc/lv_color.h **** static inline uint8_t lv_color_to8(lv_color_t color)
 337:lvgl\src\lv_draw\../lv_misc/lv_color.h **** {
 338:lvgl\src\lv_draw\../lv_misc/lv_color.h **** #if LV_COLOR_DEPTH == 1
 339:lvgl\src\lv_draw\../lv_misc/lv_color.h ****     if(color.full == 0)
 340:lvgl\src\lv_draw\../lv_misc/lv_color.h ****         return 0;
 341:lvgl\src\lv_draw\../lv_misc/lv_color.h ****     else
 342:lvgl\src\lv_draw\../lv_misc/lv_color.h ****         return 0xFF;
 343:lvgl\src\lv_draw\../lv_misc/lv_color.h **** #elif LV_COLOR_DEPTH == 8
 344:lvgl\src\lv_draw\../lv_misc/lv_color.h ****     return color.full;
 345:lvgl\src\lv_draw\../lv_misc/lv_color.h **** #elif LV_COLOR_DEPTH == 16
 346:lvgl\src\lv_draw\../lv_misc/lv_color.h ****     lv_color8_t ret;
 347:lvgl\src\lv_draw\../lv_misc/lv_color.h ****     LV_COLOR_SET_R8(ret, LV_COLOR_GET_R(color) >> 2);   /* 5 - 3  = 2*/
 348:lvgl\src\lv_draw\../lv_misc/lv_color.h ****     LV_COLOR_SET_G8(ret, LV_COLOR_GET_G(color) >> 3); /* 6 - 3  = 3*/
 349:lvgl\src\lv_draw\../lv_misc/lv_color.h ****     LV_COLOR_SET_B8(ret, LV_COLOR_GET_B(color) >> 3);  /* 5 - 2  = 3*/
 350:lvgl\src\lv_draw\../lv_misc/lv_color.h ****     return ret.full;
 351:lvgl\src\lv_draw\../lv_misc/lv_color.h **** #elif LV_COLOR_DEPTH == 32
 352:lvgl\src\lv_draw\../lv_misc/lv_color.h ****     lv_color8_t ret;
 353:lvgl\src\lv_draw\../lv_misc/lv_color.h ****     LV_COLOR_SET_R8(ret, LV_COLOR_GET_R(color) >> 5);   /* 8 - 3  = 5*/
 354:lvgl\src\lv_draw\../lv_misc/lv_color.h ****     LV_COLOR_SET_G8(ret, LV_COLOR_GET_G(color) >> 5); /* 8 - 3  = 5*/
 355:lvgl\src\lv_draw\../lv_misc/lv_color.h ****     LV_COLOR_SET_B8(ret, LV_COLOR_GET_B(color) >> 6);  /* 8 - 2  = 6*/
 356:lvgl\src\lv_draw\../lv_misc/lv_color.h ****     return ret.full;
ARM GAS  C:\Users\strap\AppData\Local\Temp\ccvWLEyq.s 			page 34


 357:lvgl\src\lv_draw\../lv_misc/lv_color.h **** #endif
 358:lvgl\src\lv_draw\../lv_misc/lv_color.h **** }
 359:lvgl\src\lv_draw\../lv_misc/lv_color.h **** 
 360:lvgl\src\lv_draw\../lv_misc/lv_color.h **** static inline uint16_t lv_color_to16(lv_color_t color)
 361:lvgl\src\lv_draw\../lv_misc/lv_color.h **** {
 362:lvgl\src\lv_draw\../lv_misc/lv_color.h **** #if LV_COLOR_DEPTH == 1
 363:lvgl\src\lv_draw\../lv_misc/lv_color.h ****     if(color.full == 0)
 364:lvgl\src\lv_draw\../lv_misc/lv_color.h ****         return 0;
 365:lvgl\src\lv_draw\../lv_misc/lv_color.h ****     else
 366:lvgl\src\lv_draw\../lv_misc/lv_color.h ****         return 0xFFFF;
 367:lvgl\src\lv_draw\../lv_misc/lv_color.h **** #elif LV_COLOR_DEPTH == 8
 368:lvgl\src\lv_draw\../lv_misc/lv_color.h ****     lv_color16_t ret;
 369:lvgl\src\lv_draw\../lv_misc/lv_color.h ****     LV_COLOR_SET_R16(ret, LV_COLOR_GET_R(color) * 4);     /*(2^5 - 1)/(2^3 - 1) = 31/7 = 4*/
 370:lvgl\src\lv_draw\../lv_misc/lv_color.h **** #if LV_COLOR_16_SWAP == 0
 371:lvgl\src\lv_draw\../lv_misc/lv_color.h ****     LV_COLOR_SET_G16(ret,  LV_COLOR_GET_G(color) * 9); /*(2^6 - 1)/(2^3 - 1) = 63/7 = 9*/
 372:lvgl\src\lv_draw\../lv_misc/lv_color.h **** #else
 373:lvgl\src\lv_draw\../lv_misc/lv_color.h ****     LV_COLOR_SET_G16_SWAP(ret, (LV_COLOR_GET_G(color) * 9)); /*(2^6 - 1)/(2^3 - 1) = 63/7 = 9*/
 374:lvgl\src\lv_draw\../lv_misc/lv_color.h **** #endif
 375:lvgl\src\lv_draw\../lv_misc/lv_color.h ****     LV_COLOR_SET_B16(ret, LV_COLOR_GET_B(color) * 10);  /*(2^5 - 1)/(2^2 - 1) = 31/3 = 10*/
 376:lvgl\src\lv_draw\../lv_misc/lv_color.h ****     return ret.full;
 377:lvgl\src\lv_draw\../lv_misc/lv_color.h **** #elif LV_COLOR_DEPTH == 16
 378:lvgl\src\lv_draw\../lv_misc/lv_color.h ****     return color.full;
 379:lvgl\src\lv_draw\../lv_misc/lv_color.h **** #elif LV_COLOR_DEPTH == 32
 380:lvgl\src\lv_draw\../lv_misc/lv_color.h ****     lv_color16_t ret;
 381:lvgl\src\lv_draw\../lv_misc/lv_color.h ****     LV_COLOR_SET_R16(ret, LV_COLOR_GET_R(color) >> 3);   /* 8 - 5  = 3*/
 382:lvgl\src\lv_draw\../lv_misc/lv_color.h **** 
 383:lvgl\src\lv_draw\../lv_misc/lv_color.h **** #if LV_COLOR_16_SWAP == 0
 384:lvgl\src\lv_draw\../lv_misc/lv_color.h ****     LV_COLOR_SET_G16(ret, LV_COLOR_GET_G(color) >> 2); /* 8 - 6  = 2*/
 385:lvgl\src\lv_draw\../lv_misc/lv_color.h **** #else
 386:lvgl\src\lv_draw\../lv_misc/lv_color.h ****     LV_COLOR_SET_G16_SWAP(ret, ret.ch.green_h = (LV_COLOR_GET_G(color) >> 2); /*(2^6 - 1)/(2^3 - 1)
 387:lvgl\src\lv_draw\../lv_misc/lv_color.h **** #endif
 388:lvgl\src\lv_draw\../lv_misc/lv_color.h ****     LV_COLOR_SET_B16(ret, LV_COLOR_GET_B(color) >> 3);  /* 8 - 5  = 3*/
 389:lvgl\src\lv_draw\../lv_misc/lv_color.h ****     return ret.full;
 390:lvgl\src\lv_draw\../lv_misc/lv_color.h **** #endif
 391:lvgl\src\lv_draw\../lv_misc/lv_color.h **** }
 392:lvgl\src\lv_draw\../lv_misc/lv_color.h **** 
 393:lvgl\src\lv_draw\../lv_misc/lv_color.h **** static inline uint32_t lv_color_to32(lv_color_t color)
 394:lvgl\src\lv_draw\../lv_misc/lv_color.h **** {
 395:lvgl\src\lv_draw\../lv_misc/lv_color.h **** #if LV_COLOR_DEPTH == 1
 396:lvgl\src\lv_draw\../lv_misc/lv_color.h ****     if(color.full == 0)
 397:lvgl\src\lv_draw\../lv_misc/lv_color.h ****         return 0xFF000000;
 398:lvgl\src\lv_draw\../lv_misc/lv_color.h ****     else
 399:lvgl\src\lv_draw\../lv_misc/lv_color.h ****         return 0xFFFFFFFF;
 400:lvgl\src\lv_draw\../lv_misc/lv_color.h **** #elif LV_COLOR_DEPTH == 8
 401:lvgl\src\lv_draw\../lv_misc/lv_color.h ****     lv_color32_t ret;
 402:lvgl\src\lv_draw\../lv_misc/lv_color.h ****     LV_COLOR_SET_R32(ret, LV_COLOR_GET_R(color) * 36);     /*(2^8 - 1)/(2^3 - 1) = 255/7 = 36*/
 403:lvgl\src\lv_draw\../lv_misc/lv_color.h ****     LV_COLOR_SET_G32(ret, LV_COLOR_GET_G(color) * 36); /*(2^8 - 1)/(2^3 - 1) = 255/7 = 36*/
 404:lvgl\src\lv_draw\../lv_misc/lv_color.h ****     LV_COLOR_SET_B32(ret, LV_COLOR_GET_B(color) * 85);   /*(2^8 - 1)/(2^2 - 1) = 255/3 = 85*/
 405:lvgl\src\lv_draw\../lv_misc/lv_color.h ****     LV_COLOR_SET_A32(ret, 0xFF);
 406:lvgl\src\lv_draw\../lv_misc/lv_color.h ****     return ret.full;
 407:lvgl\src\lv_draw\../lv_misc/lv_color.h **** #elif LV_COLOR_DEPTH == 16
 408:lvgl\src\lv_draw\../lv_misc/lv_color.h ****     /**
 409:lvgl\src\lv_draw\../lv_misc/lv_color.h ****      * The floating point math for conversion is:
 410:lvgl\src\lv_draw\../lv_misc/lv_color.h ****      *  valueto = valuefrom * ( (2^bitsto - 1) / (float)(2^bitsfrom - 1) )
 411:lvgl\src\lv_draw\../lv_misc/lv_color.h ****      * The faster integer math for conversion is:
 412:lvgl\src\lv_draw\../lv_misc/lv_color.h ****      *  valueto = ( valuefrom * multiplier + adder ) >> divisor
 413:lvgl\src\lv_draw\../lv_misc/lv_color.h ****      *   multiplier = FLOOR( ( (2^bitsto - 1) << divisor ) / (float)(2^bitsfrom - 1) )
ARM GAS  C:\Users\strap\AppData\Local\Temp\ccvWLEyq.s 			page 35


 414:lvgl\src\lv_draw\../lv_misc/lv_color.h ****      *
 415:lvgl\src\lv_draw\../lv_misc/lv_color.h ****      * Find the first divisor where ( adder >> divisor ) <= 0
 416:lvgl\src\lv_draw\../lv_misc/lv_color.h ****      *
 417:lvgl\src\lv_draw\../lv_misc/lv_color.h ****      * 5-bit to 8-bit: ( 31 * multiplier + adder ) >> divisor = 255
 418:lvgl\src\lv_draw\../lv_misc/lv_color.h ****      * divisor  multiplier  adder  min (0)  max (31)
 419:lvgl\src\lv_draw\../lv_misc/lv_color.h ****      *       0           8      7        7       255
 420:lvgl\src\lv_draw\../lv_misc/lv_color.h ****      *       1          16     14        7       255
 421:lvgl\src\lv_draw\../lv_misc/lv_color.h ****      *       2          32     28        7       255
 422:lvgl\src\lv_draw\../lv_misc/lv_color.h ****      *       3          65     25        3       255
 423:lvgl\src\lv_draw\../lv_misc/lv_color.h ****      *       4         131     19        1       255
 424:lvgl\src\lv_draw\../lv_misc/lv_color.h ****      *       5         263      7        0       255
 425:lvgl\src\lv_draw\../lv_misc/lv_color.h ****      *
 426:lvgl\src\lv_draw\../lv_misc/lv_color.h ****      * 6-bit to 8-bit: 255 = ( 63 * multiplier + adder ) >> divisor
 427:lvgl\src\lv_draw\../lv_misc/lv_color.h ****      * divisor  multiplier  adder  min (0)  max (63)
 428:lvgl\src\lv_draw\../lv_misc/lv_color.h ****      *       0           4      3        3       255
 429:lvgl\src\lv_draw\../lv_misc/lv_color.h ****      *       1           8      6        3       255
 430:lvgl\src\lv_draw\../lv_misc/lv_color.h ****      *       2          16     12        3       255
 431:lvgl\src\lv_draw\../lv_misc/lv_color.h ****      *       3          32     24        3       255
 432:lvgl\src\lv_draw\../lv_misc/lv_color.h ****      *       4          64     48        3       255
 433:lvgl\src\lv_draw\../lv_misc/lv_color.h ****      *       5         129     33        1       255
 434:lvgl\src\lv_draw\../lv_misc/lv_color.h ****      *       6         259      3        0       255
 435:lvgl\src\lv_draw\../lv_misc/lv_color.h ****      */
 436:lvgl\src\lv_draw\../lv_misc/lv_color.h **** 
 437:lvgl\src\lv_draw\../lv_misc/lv_color.h ****     lv_color32_t ret;
 438:lvgl\src\lv_draw\../lv_misc/lv_color.h ****     LV_COLOR_SET_R32(ret, (LV_COLOR_GET_R(color) * 263 + 7) >> 5);
 980              		.loc 3 438 0
 981 0026 C2F3C403 		ubfx	r3, r2, #3, #5
 982 002a 03EB4314 		add	r4, r3, r3, lsl #5
 983 002e C3EBC403 		rsb	r3, r3, r4, lsl #3
 984 0032 0733     		adds	r3, r3, #7
 985 0034 5B11     		asrs	r3, r3, #5
 986 0036 0024     		movs	r4, #0
 987              	.LVL167:
 988 0038 63F31744 		bfi	r4, r3, #16, #8
 989              	.LVL168:
 439:lvgl\src\lv_draw\../lv_misc/lv_color.h ****     LV_COLOR_SET_G32(ret, (LV_COLOR_GET_G(color) * 259 + 3) >> 6);
 990              		.loc 3 439 0
 991 003c 02F00705 		and	r5, r2, #7
 992 0040 C2F34233 		ubfx	r3, r2, #13, #3
 993 0044 03EBC503 		add	r3, r3, r5, lsl #3
 994 0048 03EBC315 		add	r5, r3, r3, lsl #7
 995 004c 03EB4503 		add	r3, r3, r5, lsl #1
 996 0050 0333     		adds	r3, r3, #3
 997 0052 9B11     		asrs	r3, r3, #6
 998 0054 63F30F24 		bfi	r4, r3, #8, #8
 440:lvgl\src\lv_draw\../lv_misc/lv_color.h ****     LV_COLOR_SET_B32(ret, (LV_COLOR_GET_B(color) * 263 + 7) >> 5);
 999              		.loc 3 440 0
 1000 0058 C2F30422 		ubfx	r2, r2, #8, #5
 1001              	.LVL169:
 1002 005c 02EB4213 		add	r3, r2, r2, lsl #5
 1003 0060 C2EBC302 		rsb	r2, r2, r3, lsl #3
 1004 0064 0732     		adds	r2, r2, #7
 1005 0066 5211     		asrs	r2, r2, #5
 1006 0068 62F30704 		bfi	r4, r2, #0, #8
 441:lvgl\src\lv_draw\../lv_misc/lv_color.h ****     LV_COLOR_SET_A32(ret, 0xFF);
 1007              		.loc 3 441 0
 1008 006c 44F07F44 		orr	r4, r4, #-16777216
ARM GAS  C:\Users\strap\AppData\Local\Temp\ccvWLEyq.s 			page 36


 1009              	.LVL170:
 1010              	.LBE61:
 1011              	.LBE60:
 314:lvgl\src\lv_draw/lv_img_buf.c ****         LV_LOG_WARN("lv_img_buf_set_px_alpha: invalid 'id'");
 315:lvgl\src\lv_draw/lv_img_buf.c ****         return;
 316:lvgl\src\lv_draw/lv_img_buf.c ****     }
 317:lvgl\src\lv_draw/lv_img_buf.c **** 
 318:lvgl\src\lv_draw/lv_img_buf.c ****     lv_color32_t c32;
 319:lvgl\src\lv_draw/lv_img_buf.c ****     c32.full      = lv_color_to32(c);
 1012              		.loc 1 319 0
 1013 0070 02AA     		add	r2, sp, #8
 1014              	.LVL171:
 1015 0072 42F8044D 		str	r4, [r2, #-4]!
 320:lvgl\src\lv_draw/lv_img_buf.c ****     uint8_t * buf = (uint8_t *)dsc->data;
 1016              		.loc 1 320 0
 1017 0076 8368     		ldr	r3, [r0, #8]
 1018              	.LVL172:
 321:lvgl\src\lv_draw/lv_img_buf.c ****     _lv_memcpy_small(&buf[id * sizeof(c32)], &c32, sizeof(c32));
 1019              		.loc 1 321 0
 1020 0078 03EB8101 		add	r1, r3, r1, lsl #2
 1021              	.LVL173:
 1022 007c 0423     		movs	r3, #4
 1023              	.LVL174:
 1024 007e 04E0     		b	.L48
 1025              	.LVL175:
 1026              	.L49:
 1027              	.LBB62:
 1028              	.LBB63:
 220:lvgl\src\lv_draw\../lv_misc/lv_mem.h ****         d8++;
 1029              		.loc 2 220 0
 1030 0080 12F8010B 		ldrb	r0, [r2], #1	@ zero_extendqisi2
 1031              	.LVL176:
 1032 0084 01F8010B 		strb	r0, [r1], #1
 1033              	.LVL177:
 1034              		.loc 2 223 0
 1035 0088 013B     		subs	r3, r3, #1
 1036              	.LVL178:
 1037              	.L48:
 219:lvgl\src\lv_draw\../lv_misc/lv_mem.h ****         *d8 = *s8;
 1038              		.loc 2 219 0
 1039 008a 002B     		cmp	r3, #0
 1040 008c F8D1     		bne	.L49
 1041              	.LBE63:
 1042              	.LBE62:
 322:lvgl\src\lv_draw/lv_img_buf.c **** }
 1043              		.loc 1 322 0
 1044 008e 02B0     		add	sp, sp, #8
 1045              		.cfi_def_cfa_offset 8
 1046              		@ sp needed
 1047 0090 30BC     		pop	{r4, r5}
 1048              		.cfi_restore 5
 1049              		.cfi_restore 4
 1050              		.cfi_def_cfa_offset 0
 1051              	.LVL179:
 1052              	.L53:
 1053 0092 7047     		bx	lr
 1054              		.cfi_endproc
ARM GAS  C:\Users\strap\AppData\Local\Temp\ccvWLEyq.s 			page 37


 1055              	.LFE41:
 1056              		.size	lv_img_buf_set_palette, .-lv_img_buf_set_palette
 1057              		.section	.text.lv_img_buf_free,"ax",%progbits
 1058              		.align	2
 1059              		.global	lv_img_buf_free
 1060              		.thumb
 1061              		.thumb_func
 1062              		.type	lv_img_buf_free, %function
 1063              	lv_img_buf_free:
 1064              	.LFB43:
 323:lvgl\src\lv_draw/lv_img_buf.c **** 
 324:lvgl\src\lv_draw/lv_img_buf.c **** /**
 325:lvgl\src\lv_draw/lv_img_buf.c ****  * Allocate an image buffer in RAM
 326:lvgl\src\lv_draw/lv_img_buf.c ****  * @param w width of image
 327:lvgl\src\lv_draw/lv_img_buf.c ****  * @param h height of image
 328:lvgl\src\lv_draw/lv_img_buf.c ****  * @param cf a color format (`LV_IMG_CF_...`)
 329:lvgl\src\lv_draw/lv_img_buf.c ****  * @return an allocated image, or NULL on failure
 330:lvgl\src\lv_draw/lv_img_buf.c ****  */
 331:lvgl\src\lv_draw/lv_img_buf.c **** lv_img_dsc_t * lv_img_buf_alloc(lv_coord_t w, lv_coord_t h, lv_img_cf_t cf)
 332:lvgl\src\lv_draw/lv_img_buf.c **** {
 333:lvgl\src\lv_draw/lv_img_buf.c ****     /* Allocate image descriptor */
 334:lvgl\src\lv_draw/lv_img_buf.c ****     lv_img_dsc_t * dsc = lv_mem_alloc(sizeof(lv_img_dsc_t));
 335:lvgl\src\lv_draw/lv_img_buf.c ****     if(dsc == NULL)
 336:lvgl\src\lv_draw/lv_img_buf.c ****         return NULL;
 337:lvgl\src\lv_draw/lv_img_buf.c **** 
 338:lvgl\src\lv_draw/lv_img_buf.c ****     _lv_memset_00(dsc, sizeof(lv_img_dsc_t));
 339:lvgl\src\lv_draw/lv_img_buf.c **** 
 340:lvgl\src\lv_draw/lv_img_buf.c ****     /* Get image data size */
 341:lvgl\src\lv_draw/lv_img_buf.c ****     dsc->data_size = lv_img_buf_get_img_size(w, h, cf);
 342:lvgl\src\lv_draw/lv_img_buf.c ****     if(dsc->data_size == 0) {
 343:lvgl\src\lv_draw/lv_img_buf.c ****         lv_mem_free(dsc);
 344:lvgl\src\lv_draw/lv_img_buf.c ****         return NULL;
 345:lvgl\src\lv_draw/lv_img_buf.c ****     }
 346:lvgl\src\lv_draw/lv_img_buf.c **** 
 347:lvgl\src\lv_draw/lv_img_buf.c ****     /* Allocate raw buffer */
 348:lvgl\src\lv_draw/lv_img_buf.c ****     dsc->data = lv_mem_alloc(dsc->data_size);
 349:lvgl\src\lv_draw/lv_img_buf.c ****     if(dsc->data == NULL) {
 350:lvgl\src\lv_draw/lv_img_buf.c ****         lv_mem_free(dsc);
 351:lvgl\src\lv_draw/lv_img_buf.c ****         return NULL;
 352:lvgl\src\lv_draw/lv_img_buf.c ****     }
 353:lvgl\src\lv_draw/lv_img_buf.c ****     _lv_memset_00((uint8_t *)dsc->data, dsc->data_size);
 354:lvgl\src\lv_draw/lv_img_buf.c **** 
 355:lvgl\src\lv_draw/lv_img_buf.c ****     /* Fill in header */
 356:lvgl\src\lv_draw/lv_img_buf.c ****     dsc->header.always_zero = 0;
 357:lvgl\src\lv_draw/lv_img_buf.c ****     dsc->header.w = w;
 358:lvgl\src\lv_draw/lv_img_buf.c ****     dsc->header.h = h;
 359:lvgl\src\lv_draw/lv_img_buf.c ****     dsc->header.cf = cf;
 360:lvgl\src\lv_draw/lv_img_buf.c ****     return dsc;
 361:lvgl\src\lv_draw/lv_img_buf.c **** }
 362:lvgl\src\lv_draw/lv_img_buf.c **** 
 363:lvgl\src\lv_draw/lv_img_buf.c **** /**
 364:lvgl\src\lv_draw/lv_img_buf.c ****  * Free an allocated image buffer
 365:lvgl\src\lv_draw/lv_img_buf.c ****  * @param dsc image buffer to free
 366:lvgl\src\lv_draw/lv_img_buf.c ****  */
 367:lvgl\src\lv_draw/lv_img_buf.c **** void lv_img_buf_free(lv_img_dsc_t * dsc)
 368:lvgl\src\lv_draw/lv_img_buf.c **** {
 1065              		.loc 1 368 0
ARM GAS  C:\Users\strap\AppData\Local\Temp\ccvWLEyq.s 			page 38


 1066              		.cfi_startproc
 1067              		@ args = 0, pretend = 0, frame = 0
 1068              		@ frame_needed = 0, uses_anonymous_args = 0
 1069              	.LVL180:
 369:lvgl\src\lv_draw/lv_img_buf.c ****     if(dsc != NULL) {
 1070              		.loc 1 369 0
 1071 0000 48B1     		cbz	r0, .L58
 368:lvgl\src\lv_draw/lv_img_buf.c ****     if(dsc != NULL) {
 1072              		.loc 1 368 0
 1073 0002 10B5     		push	{r4, lr}
 1074              		.cfi_def_cfa_offset 8
 1075              		.cfi_offset 4, -8
 1076              		.cfi_offset 14, -4
 1077 0004 0446     		mov	r4, r0
 370:lvgl\src\lv_draw/lv_img_buf.c ****         if(dsc->data != NULL)
 1078              		.loc 1 370 0
 1079 0006 8068     		ldr	r0, [r0, #8]
 1080              	.LVL181:
 1081 0008 08B1     		cbz	r0, .L56
 371:lvgl\src\lv_draw/lv_img_buf.c ****             lv_mem_free(dsc->data);
 1082              		.loc 1 371 0
 1083 000a FFF7FEFF 		bl	lv_mem_free
 1084              	.LVL182:
 1085              	.L56:
 372:lvgl\src\lv_draw/lv_img_buf.c **** 
 373:lvgl\src\lv_draw/lv_img_buf.c ****         lv_mem_free(dsc);
 1086              		.loc 1 373 0
 1087 000e 2046     		mov	r0, r4
 1088 0010 FFF7FEFF 		bl	lv_mem_free
 1089              	.LVL183:
 1090 0014 10BD     		pop	{r4, pc}
 1091              	.LVL184:
 1092              	.L58:
 1093              		.cfi_def_cfa_offset 0
 1094              		.cfi_restore 4
 1095              		.cfi_restore 14
 1096 0016 7047     		bx	lr
 1097              		.cfi_endproc
 1098              	.LFE43:
 1099              		.size	lv_img_buf_free, .-lv_img_buf_free
 1100              		.section	.text.lv_img_buf_get_img_size,"ax",%progbits
 1101              		.align	2
 1102              		.global	lv_img_buf_get_img_size
 1103              		.thumb
 1104              		.thumb_func
 1105              		.type	lv_img_buf_get_img_size, %function
 1106              	lv_img_buf_get_img_size:
 1107              	.LFB44:
 374:lvgl\src\lv_draw/lv_img_buf.c ****     }
 375:lvgl\src\lv_draw/lv_img_buf.c **** }
 376:lvgl\src\lv_draw/lv_img_buf.c **** 
 377:lvgl\src\lv_draw/lv_img_buf.c **** /**
 378:lvgl\src\lv_draw/lv_img_buf.c ****  * Get the memory consumption of a raw bitmap, given color format and dimensions.
 379:lvgl\src\lv_draw/lv_img_buf.c ****  * @param w width
 380:lvgl\src\lv_draw/lv_img_buf.c ****  * @param h height
 381:lvgl\src\lv_draw/lv_img_buf.c ****  * @param cf color format
 382:lvgl\src\lv_draw/lv_img_buf.c ****  * @return size in bytes
ARM GAS  C:\Users\strap\AppData\Local\Temp\ccvWLEyq.s 			page 39


 383:lvgl\src\lv_draw/lv_img_buf.c ****  */
 384:lvgl\src\lv_draw/lv_img_buf.c **** uint32_t lv_img_buf_get_img_size(lv_coord_t w, lv_coord_t h, lv_img_cf_t cf)
 385:lvgl\src\lv_draw/lv_img_buf.c **** {
 1108              		.loc 1 385 0
 1109              		.cfi_startproc
 1110              		@ args = 0, pretend = 0, frame = 0
 1111              		@ frame_needed = 0, uses_anonymous_args = 0
 1112              		@ link register save eliminated.
 1113              	.LVL185:
 386:lvgl\src\lv_draw/lv_img_buf.c ****     switch(cf) {
 1114              		.loc 1 386 0
 1115 0000 043A     		subs	r2, r2, #4
 1116              	.LVL186:
 1117 0002 0A2A     		cmp	r2, #10
 1118 0004 4ED8     		bhi	.L77
 1119 0006 DFE802F0 		tbb	[pc, r2]
 1120              	.L62:
 1121 000a 06       		.byte	(.L61-.L62)/2
 1122 000b 0A       		.byte	(.L63-.L62)/2
 1123 000c 0F       		.byte	(.L64-.L62)/2
 1124 000d 2C       		.byte	(.L65-.L62)/2
 1125 000e 36       		.byte	(.L66-.L62)/2
 1126 000f 40       		.byte	(.L67-.L62)/2
 1127 0010 48       		.byte	(.L68-.L62)/2
 1128 0011 13       		.byte	(.L69-.L62)/2
 1129 0012 1B       		.byte	(.L70-.L62)/2
 1130 0013 23       		.byte	(.L71-.L62)/2
 1131 0014 29       		.byte	(.L72-.L62)/2
 1132 0015 00       		.p2align 1
 1133              	.L61:
 387:lvgl\src\lv_draw/lv_img_buf.c ****         case LV_IMG_CF_TRUE_COLOR:
 388:lvgl\src\lv_draw/lv_img_buf.c ****             return LV_IMG_BUF_SIZE_TRUE_COLOR(w, h);
 1134              		.loc 1 388 0
 1135 0016 4000     		lsls	r0, r0, #1
 1136              	.LVL187:
 1137 0018 00FB01F0 		mul	r0, r0, r1
 1138 001c 7047     		bx	lr
 1139              	.LVL188:
 1140              	.L63:
 389:lvgl\src\lv_draw/lv_img_buf.c ****         case LV_IMG_CF_TRUE_COLOR_ALPHA:
 390:lvgl\src\lv_draw/lv_img_buf.c ****             return LV_IMG_BUF_SIZE_TRUE_COLOR_ALPHA(w, h);
 1141              		.loc 1 390 0
 1142 001e 00EB4000 		add	r0, r0, r0, lsl #1
 1143              	.LVL189:
 1144 0022 00FB01F0 		mul	r0, r0, r1
 1145 0026 7047     		bx	lr
 1146              	.LVL190:
 1147              	.L64:
 391:lvgl\src\lv_draw/lv_img_buf.c ****         case LV_IMG_CF_TRUE_COLOR_CHROMA_KEYED:
 392:lvgl\src\lv_draw/lv_img_buf.c ****             return LV_IMG_BUF_SIZE_TRUE_COLOR_CHROMA_KEYED(w, h);
 1148              		.loc 1 392 0
 1149 0028 4000     		lsls	r0, r0, #1
 1150              	.LVL191:
 1151 002a 00FB01F0 		mul	r0, r0, r1
 1152 002e 7047     		bx	lr
 1153              	.LVL192:
 1154              	.L69:
ARM GAS  C:\Users\strap\AppData\Local\Temp\ccvWLEyq.s 			page 40


 393:lvgl\src\lv_draw/lv_img_buf.c ****         case LV_IMG_CF_ALPHA_1BIT:
 394:lvgl\src\lv_draw/lv_img_buf.c ****             return LV_IMG_BUF_SIZE_ALPHA_1BIT(w, h);
 1155              		.loc 1 394 0
 1156 0030 0346     		mov	r3, r0
 1157 0032 0028     		cmp	r0, #0
 1158 0034 00DA     		bge	.L73
 1159 0036 C31D     		adds	r3, r0, #7
 1160              	.L73:
 1161 0038 D810     		asrs	r0, r3, #3
 1162              	.LVL193:
 1163 003a 00FB0110 		mla	r0, r0, r1, r1
 1164 003e 7047     		bx	lr
 1165              	.LVL194:
 1166              	.L70:
 395:lvgl\src\lv_draw/lv_img_buf.c ****         case LV_IMG_CF_ALPHA_2BIT:
 396:lvgl\src\lv_draw/lv_img_buf.c ****             return LV_IMG_BUF_SIZE_ALPHA_2BIT(w, h);
 1167              		.loc 1 396 0
 1168 0040 0346     		mov	r3, r0
 1169 0042 0028     		cmp	r0, #0
 1170 0044 00DA     		bge	.L74
 1171 0046 C31C     		adds	r3, r0, #3
 1172              	.L74:
 1173 0048 9810     		asrs	r0, r3, #2
 1174              	.LVL195:
 1175 004a 00FB0110 		mla	r0, r0, r1, r1
 1176 004e 7047     		bx	lr
 1177              	.LVL196:
 1178              	.L71:
 397:lvgl\src\lv_draw/lv_img_buf.c ****         case LV_IMG_CF_ALPHA_4BIT:
 398:lvgl\src\lv_draw/lv_img_buf.c ****             return LV_IMG_BUF_SIZE_ALPHA_4BIT(w, h);
 1179              		.loc 1 398 0
 1180 0050 00EBD070 		add	r0, r0, r0, lsr #31
 1181              	.LVL197:
 1182 0054 4010     		asrs	r0, r0, #1
 1183 0056 00FB0110 		mla	r0, r0, r1, r1
 1184 005a 7047     		bx	lr
 1185              	.LVL198:
 1186              	.L72:
 399:lvgl\src\lv_draw/lv_img_buf.c ****         case LV_IMG_CF_ALPHA_8BIT:
 400:lvgl\src\lv_draw/lv_img_buf.c ****             return LV_IMG_BUF_SIZE_ALPHA_8BIT(w, h);
 1187              		.loc 1 400 0
 1188 005c 01FB00F0 		mul	r0, r1, r0
 1189              	.LVL199:
 1190 0060 7047     		bx	lr
 1191              	.LVL200:
 1192              	.L65:
 401:lvgl\src\lv_draw/lv_img_buf.c ****         case LV_IMG_CF_INDEXED_1BIT:
 402:lvgl\src\lv_draw/lv_img_buf.c ****             return LV_IMG_BUF_SIZE_INDEXED_1BIT(w, h);
 1193              		.loc 1 402 0
 1194 0062 0346     		mov	r3, r0
 1195 0064 0028     		cmp	r0, #0
 1196 0066 00DA     		bge	.L75
 1197 0068 C31D     		adds	r3, r0, #7
 1198              	.L75:
 1199 006a D810     		asrs	r0, r3, #3
 1200              	.LVL201:
 1201 006c 00FB0111 		mla	r1, r0, r1, r1
ARM GAS  C:\Users\strap\AppData\Local\Temp\ccvWLEyq.s 			page 41


 1202              	.LVL202:
 1203 0070 01F10800 		add	r0, r1, #8
 1204 0074 7047     		bx	lr
 1205              	.LVL203:
 1206              	.L66:
 403:lvgl\src\lv_draw/lv_img_buf.c ****         case LV_IMG_CF_INDEXED_2BIT:
 404:lvgl\src\lv_draw/lv_img_buf.c ****             return LV_IMG_BUF_SIZE_INDEXED_2BIT(w, h);
 1207              		.loc 1 404 0
 1208 0076 0346     		mov	r3, r0
 1209 0078 0028     		cmp	r0, #0
 1210 007a 00DA     		bge	.L76
 1211 007c C31C     		adds	r3, r0, #3
 1212              	.L76:
 1213 007e 9810     		asrs	r0, r3, #2
 1214              	.LVL204:
 1215 0080 00FB0111 		mla	r1, r0, r1, r1
 1216              	.LVL205:
 1217 0084 01F11000 		add	r0, r1, #16
 1218 0088 7047     		bx	lr
 1219              	.LVL206:
 1220              	.L67:
 405:lvgl\src\lv_draw/lv_img_buf.c ****         case LV_IMG_CF_INDEXED_4BIT:
 406:lvgl\src\lv_draw/lv_img_buf.c ****             return LV_IMG_BUF_SIZE_INDEXED_4BIT(w, h);
 1221              		.loc 1 406 0
 1222 008a 00EBD070 		add	r0, r0, r0, lsr #31
 1223              	.LVL207:
 1224 008e 4010     		asrs	r0, r0, #1
 1225 0090 00FB0111 		mla	r1, r0, r1, r1
 1226              	.LVL208:
 1227 0094 01F14000 		add	r0, r1, #64
 1228 0098 7047     		bx	lr
 1229              	.LVL209:
 1230              	.L68:
 407:lvgl\src\lv_draw/lv_img_buf.c ****         case LV_IMG_CF_INDEXED_8BIT:
 408:lvgl\src\lv_draw/lv_img_buf.c ****             return LV_IMG_BUF_SIZE_INDEXED_8BIT(w, h);
 1231              		.loc 1 408 0
 1232 009a 01FB00F1 		mul	r1, r1, r0
 1233              	.LVL210:
 1234 009e 01F58060 		add	r0, r1, #1024
 1235              	.LVL211:
 1236 00a2 7047     		bx	lr
 1237              	.LVL212:
 1238              	.L77:
 409:lvgl\src\lv_draw/lv_img_buf.c ****         default:
 410:lvgl\src\lv_draw/lv_img_buf.c ****             return 0;
 1239              		.loc 1 410 0
 1240 00a4 0020     		movs	r0, #0
 1241              	.LVL213:
 411:lvgl\src\lv_draw/lv_img_buf.c ****     }
 412:lvgl\src\lv_draw/lv_img_buf.c **** }
 1242              		.loc 1 412 0
 1243 00a6 7047     		bx	lr
 1244              		.cfi_endproc
 1245              	.LFE44:
 1246              		.size	lv_img_buf_get_img_size, .-lv_img_buf_get_img_size
 1247              		.section	.text.lv_img_buf_alloc,"ax",%progbits
 1248              		.align	2
ARM GAS  C:\Users\strap\AppData\Local\Temp\ccvWLEyq.s 			page 42


 1249              		.global	lv_img_buf_alloc
 1250              		.thumb
 1251              		.thumb_func
 1252              		.type	lv_img_buf_alloc, %function
 1253              	lv_img_buf_alloc:
 1254              	.LFB42:
 332:lvgl\src\lv_draw/lv_img_buf.c ****     /* Allocate image descriptor */
 1255              		.loc 1 332 0
 1256              		.cfi_startproc
 1257              		@ args = 0, pretend = 0, frame = 0
 1258              		@ frame_needed = 0, uses_anonymous_args = 0
 1259              	.LVL214:
 1260 0000 F8B5     		push	{r3, r4, r5, r6, r7, lr}
 1261              		.cfi_def_cfa_offset 24
 1262              		.cfi_offset 3, -24
 1263              		.cfi_offset 4, -20
 1264              		.cfi_offset 5, -16
 1265              		.cfi_offset 6, -12
 1266              		.cfi_offset 7, -8
 1267              		.cfi_offset 14, -4
 1268 0002 0746     		mov	r7, r0
 1269 0004 0E46     		mov	r6, r1
 1270 0006 1546     		mov	r5, r2
 334:lvgl\src\lv_draw/lv_img_buf.c ****     if(dsc == NULL)
 1271              		.loc 1 334 0
 1272 0008 0C20     		movs	r0, #12
 1273              	.LVL215:
 1274 000a FFF7FEFF 		bl	lv_mem_alloc
 1275              	.LVL216:
 335:lvgl\src\lv_draw/lv_img_buf.c ****         return NULL;
 1276              		.loc 1 335 0
 1277 000e 60B3     		cbz	r0, .L82
 1278 0010 0446     		mov	r4, r0
 338:lvgl\src\lv_draw/lv_img_buf.c **** 
 1279              		.loc 1 338 0
 1280 0012 0C21     		movs	r1, #12
 1281 0014 FFF7FEFF 		bl	_lv_memset_00
 1282              	.LVL217:
 341:lvgl\src\lv_draw/lv_img_buf.c ****     if(dsc->data_size == 0) {
 1283              		.loc 1 341 0
 1284 0018 2A46     		mov	r2, r5
 1285 001a 3146     		mov	r1, r6
 1286 001c 3846     		mov	r0, r7
 1287 001e FFF7FEFF 		bl	lv_img_buf_get_img_size
 1288              	.LVL218:
 1289 0022 6060     		str	r0, [r4, #4]
 342:lvgl\src\lv_draw/lv_img_buf.c ****         lv_mem_free(dsc);
 1290              		.loc 1 342 0
 1291 0024 20B9     		cbnz	r0, .L80
 343:lvgl\src\lv_draw/lv_img_buf.c ****         return NULL;
 1292              		.loc 1 343 0
 1293 0026 2046     		mov	r0, r4
 1294 0028 FFF7FEFF 		bl	lv_mem_free
 1295              	.LVL219:
 344:lvgl\src\lv_draw/lv_img_buf.c ****     }
 1296              		.loc 1 344 0
 1297 002c 0020     		movs	r0, #0
ARM GAS  C:\Users\strap\AppData\Local\Temp\ccvWLEyq.s 			page 43


 1298 002e F8BD     		pop	{r3, r4, r5, r6, r7, pc}
 1299              	.LVL220:
 1300              	.L80:
 348:lvgl\src\lv_draw/lv_img_buf.c ****     if(dsc->data == NULL) {
 1301              		.loc 1 348 0
 1302 0030 FFF7FEFF 		bl	lv_mem_alloc
 1303              	.LVL221:
 1304 0034 A060     		str	r0, [r4, #8]
 349:lvgl\src\lv_draw/lv_img_buf.c ****         lv_mem_free(dsc);
 1305              		.loc 1 349 0
 1306 0036 20B9     		cbnz	r0, .L81
 350:lvgl\src\lv_draw/lv_img_buf.c ****         return NULL;
 1307              		.loc 1 350 0
 1308 0038 2046     		mov	r0, r4
 1309 003a FFF7FEFF 		bl	lv_mem_free
 1310              	.LVL222:
 351:lvgl\src\lv_draw/lv_img_buf.c ****     }
 1311              		.loc 1 351 0
 1312 003e 0020     		movs	r0, #0
 1313 0040 F8BD     		pop	{r3, r4, r5, r6, r7, pc}
 1314              	.LVL223:
 1315              	.L81:
 353:lvgl\src\lv_draw/lv_img_buf.c **** 
 1316              		.loc 1 353 0
 1317 0042 6168     		ldr	r1, [r4, #4]
 1318 0044 FFF7FEFF 		bl	_lv_memset_00
 1319              	.LVL224:
 356:lvgl\src\lv_draw/lv_img_buf.c ****     dsc->header.w = w;
 1320              		.loc 1 356 0
 1321 0048 2378     		ldrb	r3, [r4]	@ zero_extendqisi2
 1322 004a 6FF34713 		bfc	r3, #5, #3
 1323 004e 2370     		strb	r3, [r4]
 357:lvgl\src\lv_draw/lv_img_buf.c ****     dsc->header.h = h;
 1324              		.loc 1 357 0
 1325 0050 2368     		ldr	r3, [r4]
 1326 0052 67F39423 		bfi	r3, r7, #10, #11
 1327 0056 2360     		str	r3, [r4]
 358:lvgl\src\lv_draw/lv_img_buf.c ****     dsc->header.cf = cf;
 1328              		.loc 1 358 0
 1329 0058 1A0C     		lsrs	r2, r3, #16
 1330 005a 66F34F12 		bfi	r2, r6, #5, #11
 1331 005e 6280     		strh	r2, [r4, #2]	@ movhi
 359:lvgl\src\lv_draw/lv_img_buf.c ****     return dsc;
 1332              		.loc 1 359 0
 1333 0060 65F30403 		bfi	r3, r5, #0, #5
 1334 0064 2370     		strb	r3, [r4]
 360:lvgl\src\lv_draw/lv_img_buf.c **** }
 1335              		.loc 1 360 0
 1336 0066 2046     		mov	r0, r4
 1337 0068 F8BD     		pop	{r3, r4, r5, r6, r7, pc}
 1338              	.LVL225:
 1339              	.L82:
 336:lvgl\src\lv_draw/lv_img_buf.c **** 
 1340              		.loc 1 336 0
 1341 006a 0020     		movs	r0, #0
 1342              	.LVL226:
 361:lvgl\src\lv_draw/lv_img_buf.c **** 
ARM GAS  C:\Users\strap\AppData\Local\Temp\ccvWLEyq.s 			page 44


 1343              		.loc 1 361 0
 1344 006c F8BD     		pop	{r3, r4, r5, r6, r7, pc}
 1345              		.cfi_endproc
 1346              	.LFE42:
 1347              		.size	lv_img_buf_alloc, .-lv_img_buf_alloc
 1348 006e 00BF     		.section	.text._lv_img_buf_transform_init,"ax",%progbits
 1349              		.align	2
 1350              		.global	_lv_img_buf_transform_init
 1351              		.thumb
 1352              		.thumb_func
 1353              		.type	_lv_img_buf_transform_init, %function
 1354              	_lv_img_buf_transform_init:
 1355              	.LFB45:
 413:lvgl\src\lv_draw/lv_img_buf.c **** 
 414:lvgl\src\lv_draw/lv_img_buf.c **** 
 415:lvgl\src\lv_draw/lv_img_buf.c **** #if LV_USE_IMG_TRANSFORM
 416:lvgl\src\lv_draw/lv_img_buf.c **** /**
 417:lvgl\src\lv_draw/lv_img_buf.c ****  * Initialize a descriptor to transform an image
 418:lvgl\src\lv_draw/lv_img_buf.c ****  * @param dsc pointer to an `lv_img_transform_dsc_t` variable whose `cfg` field is initialized
 419:lvgl\src\lv_draw/lv_img_buf.c ****  */
 420:lvgl\src\lv_draw/lv_img_buf.c **** void _lv_img_buf_transform_init(lv_img_transform_dsc_t * dsc)
 421:lvgl\src\lv_draw/lv_img_buf.c **** {
 1356              		.loc 1 421 0
 1357              		.cfi_startproc
 1358              		@ args = 0, pretend = 0, frame = 0
 1359              		@ frame_needed = 0, uses_anonymous_args = 0
 1360              	.LVL227:
 1361 0000 2DE9F047 		push	{r4, r5, r6, r7, r8, r9, r10, lr}
 1362              		.cfi_def_cfa_offset 32
 1363              		.cfi_offset 4, -32
 1364              		.cfi_offset 5, -28
 1365              		.cfi_offset 6, -24
 1366              		.cfi_offset 7, -20
 1367              		.cfi_offset 8, -16
 1368              		.cfi_offset 9, -12
 1369              		.cfi_offset 10, -8
 1370              		.cfi_offset 14, -4
 1371 0004 0446     		mov	r4, r0
 422:lvgl\src\lv_draw/lv_img_buf.c ****     dsc->tmp.pivot_x_256 = dsc->cfg.pivot_x * 256;
 1372              		.loc 1 422 0
 1373 0006 B0F90830 		ldrsh	r3, [r0, #8]
 1374 000a 1B02     		lsls	r3, r3, #8
 1375 000c 4362     		str	r3, [r0, #36]
 423:lvgl\src\lv_draw/lv_img_buf.c ****     dsc->tmp.pivot_y_256 = dsc->cfg.pivot_y * 256;
 1376              		.loc 1 423 0
 1377 000e B0F90A30 		ldrsh	r3, [r0, #10]
 1378 0012 1B02     		lsls	r3, r3, #8
 1379 0014 8362     		str	r3, [r0, #40]
 424:lvgl\src\lv_draw/lv_img_buf.c **** 
 425:lvgl\src\lv_draw/lv_img_buf.c ****     int32_t angle_low = dsc->cfg.angle / 10;
 1380              		.loc 1 425 0
 1381 0016 B0F90C20 		ldrsh	r2, [r0, #12]
 1382 001a 414E     		ldr	r6, .L88
 1383 001c 86FB0230 		smull	r3, r0, r6, r2
 1384              	.LVL228:
 1385 0020 D317     		asrs	r3, r2, #31
 1386 0022 C3EBA003 		rsb	r3, r3, r0, asr #2
ARM GAS  C:\Users\strap\AppData\Local\Temp\ccvWLEyq.s 			page 45


 1387 0026 1BB2     		sxth	r3, r3
 1388              	.LVL229:
 426:lvgl\src\lv_draw/lv_img_buf.c ****     int32_t angle_hight = angle_low + 1;
 1389              		.loc 1 426 0
 1390 0028 03F10109 		add	r9, r3, #1
 1391              	.LVL230:
 427:lvgl\src\lv_draw/lv_img_buf.c ****     int32_t angle_rem = dsc->cfg.angle  - (angle_low * 10);
 1392              		.loc 1 427 0
 1393 002c 6FF00907 		mvn	r7, #9
 1394 0030 07FB0327 		mla	r7, r7, r3, r2
 1395              	.LVL231:
 428:lvgl\src\lv_draw/lv_img_buf.c **** 
 429:lvgl\src\lv_draw/lv_img_buf.c ****     int32_t s1 = _lv_trigo_sin(-angle_low);
 1396              		.loc 1 429 0
 1397 0034 9DB2     		uxth	r5, r3
 1398 0036 6842     		negs	r0, r5
 1399 0038 00B2     		sxth	r0, r0
 1400 003a FFF7FEFF 		bl	_lv_trigo_sin
 1401              	.LVL232:
 1402 003e 8046     		mov	r8, r0
 1403              	.LVL233:
 430:lvgl\src\lv_draw/lv_img_buf.c ****     int32_t s2 = _lv_trigo_sin(-angle_hight);
 1404              		.loc 1 430 0
 1405 0040 1FFA89F9 		uxth	r9, r9
 1406              	.LVL234:
 1407 0044 C9F10000 		rsb	r0, r9, #0
 1408              	.LVL235:
 1409 0048 00B2     		sxth	r0, r0
 1410 004a FFF7FEFF 		bl	_lv_trigo_sin
 1411              	.LVL236:
 1412 004e 8246     		mov	r10, r0
 1413              	.LVL237:
 431:lvgl\src\lv_draw/lv_img_buf.c **** 
 432:lvgl\src\lv_draw/lv_img_buf.c ****     int32_t c1 = _lv_trigo_sin(-angle_low + 90);
 1414              		.loc 1 432 0
 1415 0050 C5F15A00 		rsb	r0, r5, #90
 1416              	.LVL238:
 1417 0054 00B2     		sxth	r0, r0
 1418 0056 FFF7FEFF 		bl	_lv_trigo_sin
 1419              	.LVL239:
 1420 005a 0546     		mov	r5, r0
 1421              	.LVL240:
 433:lvgl\src\lv_draw/lv_img_buf.c ****     int32_t c2 = _lv_trigo_sin(-angle_hight + 90);
 1422              		.loc 1 433 0
 1423 005c C9F15A00 		rsb	r0, r9, #90
 1424              	.LVL241:
 1425 0060 00B2     		sxth	r0, r0
 1426 0062 FFF7FEFF 		bl	_lv_trigo_sin
 1427              	.LVL242:
 434:lvgl\src\lv_draw/lv_img_buf.c **** 
 435:lvgl\src\lv_draw/lv_img_buf.c ****     dsc->tmp.sinma = (s1 * (10 - angle_rem) + s2 * angle_rem) / 10;
 1428              		.loc 1 435 0
 1429 0066 C7F10A02 		rsb	r2, r7, #10
 1430 006a 0AFB07F3 		mul	r3, r10, r7
 1431 006e 02FB0833 		mla	r3, r2, r8, r3
 1432 0072 86FB03E1 		smull	lr, r1, r6, r3
 1433 0076 DB17     		asrs	r3, r3, #31
ARM GAS  C:\Users\strap\AppData\Local\Temp\ccvWLEyq.s 			page 46


 1434 0078 C3EBA103 		rsb	r3, r3, r1, asr #2
 436:lvgl\src\lv_draw/lv_img_buf.c ****     dsc->tmp.cosma = (c1 * (10 - angle_rem) + c2 * angle_rem) / 10;
 1435              		.loc 1 436 0
 1436 007c 00FB07F0 		mul	r0, r0, r7
 1437              	.LVL243:
 1438 0080 02FB0500 		mla	r0, r2, r5, r0
 1439 0084 86FB0026 		smull	r2, r6, r6, r0
 1440 0088 C017     		asrs	r0, r0, #31
 1441 008a C0EBA600 		rsb	r0, r0, r6, asr #2
 437:lvgl\src\lv_draw/lv_img_buf.c **** 
 438:lvgl\src\lv_draw/lv_img_buf.c ****     /*Use smaller value to avoid overflow*/
 439:lvgl\src\lv_draw/lv_img_buf.c ****     dsc->tmp.sinma = dsc->tmp.sinma >> (LV_TRIGO_SHIFT - _LV_TRANSFORM_TRIGO_SHIFT);
 1442              		.loc 1 439 0
 1443 008e 5B11     		asrs	r3, r3, #5
 1444 0090 E362     		str	r3, [r4, #44]
 440:lvgl\src\lv_draw/lv_img_buf.c ****     dsc->tmp.cosma = dsc->tmp.cosma >> (LV_TRIGO_SHIFT - _LV_TRANSFORM_TRIGO_SHIFT);
 1445              		.loc 1 440 0
 1446 0092 4011     		asrs	r0, r0, #5
 1447 0094 2063     		str	r0, [r4, #48]
 441:lvgl\src\lv_draw/lv_img_buf.c **** 
 442:lvgl\src\lv_draw/lv_img_buf.c ****     dsc->tmp.chroma_keyed = lv_img_cf_is_chroma_keyed(dsc->cfg.cf) ? 1 : 0;
 1448              		.loc 1 442 0
 1449 0096 A07C     		ldrb	r0, [r4, #18]	@ zero_extendqisi2
 1450 0098 FFF7FEFF 		bl	lv_img_cf_is_chroma_keyed
 1451              	.LVL244:
 1452 009c 94F83430 		ldrb	r3, [r4, #52]	@ zero_extendqisi2
 1453 00a0 60F30003 		bfi	r3, r0, #0, #1
 1454 00a4 84F83430 		strb	r3, [r4, #52]
 443:lvgl\src\lv_draw/lv_img_buf.c ****     dsc->tmp.has_alpha = lv_img_cf_has_alpha(dsc->cfg.cf) ? 1 : 0;
 1455              		.loc 1 443 0
 1456 00a8 A07C     		ldrb	r0, [r4, #18]	@ zero_extendqisi2
 1457 00aa FFF7FEFF 		bl	lv_img_cf_has_alpha
 1458              	.LVL245:
 1459 00ae 94F83430 		ldrb	r3, [r4, #52]	@ zero_extendqisi2
 1460 00b2 60F34103 		bfi	r3, r0, #1, #1
 1461 00b6 84F83430 		strb	r3, [r4, #52]
 444:lvgl\src\lv_draw/lv_img_buf.c ****     if(dsc->cfg.cf == LV_IMG_CF_TRUE_COLOR || dsc->cfg.cf == LV_IMG_CF_TRUE_COLOR_ALPHA ||
 1462              		.loc 1 444 0
 1463 00ba A27C     		ldrb	r2, [r4, #18]	@ zero_extendqisi2
 1464 00bc 131F     		subs	r3, r2, #4
 1465 00be DBB2     		uxtb	r3, r3
 1466 00c0 022B     		cmp	r3, #2
 1467 00c2 06D8     		bhi	.L85
 445:lvgl\src\lv_draw/lv_img_buf.c ****        dsc->cfg.cf == LV_IMG_CF_TRUE_COLOR_CHROMA_KEYED) {
 446:lvgl\src\lv_draw/lv_img_buf.c ****         dsc->tmp.native_color = 1;
 1468              		.loc 1 446 0
 1469 00c4 94F83430 		ldrb	r3, [r4, #52]	@ zero_extendqisi2
 1470 00c8 43F00403 		orr	r3, r3, #4
 1471 00cc 84F83430 		strb	r3, [r4, #52]
 1472 00d0 05E0     		b	.L86
 1473              	.L85:
 447:lvgl\src\lv_draw/lv_img_buf.c ****     }
 448:lvgl\src\lv_draw/lv_img_buf.c ****     else {
 449:lvgl\src\lv_draw/lv_img_buf.c ****         dsc->tmp.native_color = 0;
 1474              		.loc 1 449 0
 1475 00d2 94F83430 		ldrb	r3, [r4, #52]	@ zero_extendqisi2
 1476 00d6 6FF38203 		bfc	r3, #2, #1
ARM GAS  C:\Users\strap\AppData\Local\Temp\ccvWLEyq.s 			page 47


 1477 00da 84F83430 		strb	r3, [r4, #52]
 1478              	.L86:
 450:lvgl\src\lv_draw/lv_img_buf.c ****     }
 451:lvgl\src\lv_draw/lv_img_buf.c **** 
 452:lvgl\src\lv_draw/lv_img_buf.c ****     dsc->tmp.img_dsc.data = dsc->cfg.src;
 1479              		.loc 1 452 0
 1480 00de 2368     		ldr	r3, [r4]
 1481 00e0 2362     		str	r3, [r4, #32]
 453:lvgl\src\lv_draw/lv_img_buf.c ****     dsc->tmp.img_dsc.header.always_zero = 0;
 1482              		.loc 1 453 0
 1483 00e2 237E     		ldrb	r3, [r4, #24]	@ zero_extendqisi2
 454:lvgl\src\lv_draw/lv_img_buf.c ****     dsc->tmp.img_dsc.header.cf = dsc->cfg.cf;
 1484              		.loc 1 454 0
 1485 00e4 03F01F03 		and	r3, r3, #31
 1486 00e8 62F30403 		bfi	r3, r2, #0, #5
 1487 00ec 2376     		strb	r3, [r4, #24]
 455:lvgl\src\lv_draw/lv_img_buf.c ****     dsc->tmp.img_dsc.header.w = dsc->cfg.src_w;
 1488              		.loc 1 455 0
 1489 00ee B4F90420 		ldrsh	r2, [r4, #4]
 1490 00f2 A369     		ldr	r3, [r4, #24]
 1491 00f4 62F39423 		bfi	r3, r2, #10, #11
 1492 00f8 A361     		str	r3, [r4, #24]
 456:lvgl\src\lv_draw/lv_img_buf.c ****     dsc->tmp.img_dsc.header.h = dsc->cfg.src_h;
 1493              		.loc 1 456 0
 1494 00fa B4F90620 		ldrsh	r2, [r4, #6]
 1495 00fe 1B0C     		lsrs	r3, r3, #16
 1496 0100 62F34F13 		bfi	r3, r2, #5, #11
 1497 0104 6383     		strh	r3, [r4, #26]	@ movhi
 457:lvgl\src\lv_draw/lv_img_buf.c **** 
 458:lvgl\src\lv_draw/lv_img_buf.c ****     /* The inverse of the zoom will be sued during the transformation
 459:lvgl\src\lv_draw/lv_img_buf.c ****      *  + dsc->cfg.zoom / 2 for rounding*/
 460:lvgl\src\lv_draw/lv_img_buf.c ****     dsc->tmp.zoom_inv = (((256 * 256) << _LV_ZOOM_INV_UPSCALE) + dsc->cfg.zoom / 2) / dsc->cfg.zoom
 1498              		.loc 1 460 0
 1499 0106 E289     		ldrh	r2, [r4, #14]
 1500 0108 5308     		lsrs	r3, r2, #1
 1501 010a 03F50013 		add	r3, r3, #2097152
 1502 010e 93FBF2F3 		sdiv	r3, r3, r2
 1503 0112 A363     		str	r3, [r4, #56]
 461:lvgl\src\lv_draw/lv_img_buf.c **** 
 462:lvgl\src\lv_draw/lv_img_buf.c ****     dsc->res.opa = LV_OPA_COVER;
 1504              		.loc 1 462 0
 1505 0114 FF23     		movs	r3, #255
 1506 0116 A375     		strb	r3, [r4, #22]
 463:lvgl\src\lv_draw/lv_img_buf.c ****     dsc->res.color = dsc->cfg.color;
 1507              		.loc 1 463 0
 1508 0118 238A     		ldrh	r3, [r4, #16]
 1509 011a A382     		strh	r3, [r4, #20]	@ movhi
 1510 011c BDE8F087 		pop	{r4, r5, r6, r7, r8, r9, r10, pc}
 1511              	.LVL246:
 1512              	.L89:
 1513              		.align	2
 1514              	.L88:
 1515 0120 67666666 		.word	1717986919
 1516              		.cfi_endproc
 1517              	.LFE45:
 1518              		.size	_lv_img_buf_transform_init, .-_lv_img_buf_transform_init
 1519              		.section	.text._lv_img_buf_get_transformed_area,"ax",%progbits
ARM GAS  C:\Users\strap\AppData\Local\Temp\ccvWLEyq.s 			page 48


 1520              		.align	2
 1521              		.global	_lv_img_buf_get_transformed_area
 1522              		.thumb
 1523              		.thumb_func
 1524              		.type	_lv_img_buf_get_transformed_area, %function
 1525              	_lv_img_buf_get_transformed_area:
 1526              	.LFB46:
 464:lvgl\src\lv_draw/lv_img_buf.c **** }
 465:lvgl\src\lv_draw/lv_img_buf.c **** #endif
 466:lvgl\src\lv_draw/lv_img_buf.c **** 
 467:lvgl\src\lv_draw/lv_img_buf.c **** /**
 468:lvgl\src\lv_draw/lv_img_buf.c ****  * Get the area of a rectangle if its rotated and scaled
 469:lvgl\src\lv_draw/lv_img_buf.c ****  * @param res store the coordinates here
 470:lvgl\src\lv_draw/lv_img_buf.c ****  * @param w width of the rectangle to transform
 471:lvgl\src\lv_draw/lv_img_buf.c ****  * @param h height of the rectangle to transform
 472:lvgl\src\lv_draw/lv_img_buf.c ****  * @param angle angle of rotation
 473:lvgl\src\lv_draw/lv_img_buf.c ****  * @param zoom zoom, (256 no zoom)
 474:lvgl\src\lv_draw/lv_img_buf.c ****  * @param pivot x,y pivot coordinates of rotation
 475:lvgl\src\lv_draw/lv_img_buf.c ****  */
 476:lvgl\src\lv_draw/lv_img_buf.c **** void _lv_img_buf_get_transformed_area(lv_area_t * res, lv_coord_t w, lv_coord_t h, int16_t angle, u
 477:lvgl\src\lv_draw/lv_img_buf.c ****                                       const lv_point_t * pivot)
 478:lvgl\src\lv_draw/lv_img_buf.c **** {
 1527              		.loc 1 478 0
 1528              		.cfi_startproc
 1529              		@ args = 8, pretend = 0, frame = 0
 1530              		@ frame_needed = 0, uses_anonymous_args = 0
 1531              	.LVL247:
 1532 0000 2DE9F84F 		push	{r3, r4, r5, r6, r7, r8, r9, r10, fp, lr}
 1533              		.cfi_def_cfa_offset 40
 1534              		.cfi_offset 3, -40
 1535              		.cfi_offset 4, -36
 1536              		.cfi_offset 5, -32
 1537              		.cfi_offset 6, -28
 1538              		.cfi_offset 7, -24
 1539              		.cfi_offset 8, -20
 1540              		.cfi_offset 9, -16
 1541              		.cfi_offset 10, -12
 1542              		.cfi_offset 11, -8
 1543              		.cfi_offset 14, -4
 1544 0004 BDF828E0 		ldrh	lr, [sp, #40]
 1545 0008 0B9C     		ldr	r4, [sp, #44]
 479:lvgl\src\lv_draw/lv_img_buf.c **** #if LV_USE_IMG_TRANSFORM
 480:lvgl\src\lv_draw/lv_img_buf.c ****     if(angle == 0 && zoom == LV_IMG_ZOOM_NONE) {
 1546              		.loc 1 480 0
 1547 000a 1E46     		mov	r6, r3
 1548 000c 53B9     		cbnz	r3, .L91
 1549              		.loc 1 480 0 is_stmt 0 discriminator 1
 1550 000e BEF5807F 		cmp	lr, #256
 1551 0012 07D1     		bne	.L91
 481:lvgl\src\lv_draw/lv_img_buf.c ****         res->x1 = 0;
 1552              		.loc 1 481 0 is_stmt 1
 1553 0014 0380     		strh	r3, [r0]	@ movhi
 482:lvgl\src\lv_draw/lv_img_buf.c ****         res->y1 = 0;
 1554              		.loc 1 482 0
 1555 0016 4380     		strh	r3, [r0, #2]	@ movhi
 483:lvgl\src\lv_draw/lv_img_buf.c ****         res->x2 = w - 1;
 1556              		.loc 1 483 0
ARM GAS  C:\Users\strap\AppData\Local\Temp\ccvWLEyq.s 			page 49


 1557 0018 0139     		subs	r1, r1, #1
 1558              	.LVL248:
 1559 001a 8180     		strh	r1, [r0, #4]	@ movhi
 484:lvgl\src\lv_draw/lv_img_buf.c ****         res->y2 = h - 1;
 1560              		.loc 1 484 0
 1561 001c 013A     		subs	r2, r2, #1
 1562              	.LVL249:
 1563 001e C280     		strh	r2, [r0, #6]	@ movhi
 485:lvgl\src\lv_draw/lv_img_buf.c ****         return;
 1564              		.loc 1 485 0
 1565 0020 BDE8F88F 		pop	{r3, r4, r5, r6, r7, r8, r9, r10, fp, pc}
 1566              	.LVL250:
 1567              	.L91:
 486:lvgl\src\lv_draw/lv_img_buf.c ****     }
 487:lvgl\src\lv_draw/lv_img_buf.c **** 
 488:lvgl\src\lv_draw/lv_img_buf.c **** 
 489:lvgl\src\lv_draw/lv_img_buf.c ****     res->x1 = (((-pivot->x) * zoom) >> 8) - 1;
 1568              		.loc 1 489 0
 1569 0024 B4F90070 		ldrsh	r7, [r4]
 1570 0028 7F42     		negs	r7, r7
 1571 002a 0EFB07F7 		mul	r7, lr, r7
 1572 002e 3F12     		asrs	r7, r7, #8
 1573 0030 013F     		subs	r7, r7, #1
 1574 0032 BFB2     		uxth	r7, r7
 1575 0034 0780     		strh	r7, [r0]	@ movhi
 490:lvgl\src\lv_draw/lv_img_buf.c ****     res->y1 = (((-pivot->y) * zoom) >> 8) - 1;
 1576              		.loc 1 490 0
 1577 0036 B4F90250 		ldrsh	r5, [r4, #2]
 1578 003a 6D42     		negs	r5, r5
 1579 003c 05FB0EF5 		mul	r5, r5, lr
 1580 0040 2D12     		asrs	r5, r5, #8
 1581 0042 013D     		subs	r5, r5, #1
 1582 0044 ADB2     		uxth	r5, r5
 1583 0046 4580     		strh	r5, [r0, #2]	@ movhi
 491:lvgl\src\lv_draw/lv_img_buf.c ****     res->x2 = (((w - pivot->x) * zoom) >> 8) + 2;
 1584              		.loc 1 491 0
 1585 0048 B4F90030 		ldrsh	r3, [r4]
 1586              	.LVL251:
 1587 004c C91A     		subs	r1, r1, r3
 1588              	.LVL252:
 1589 004e 01FB0EF1 		mul	r1, r1, lr
 1590 0052 0912     		asrs	r1, r1, #8
 1591 0054 0231     		adds	r1, r1, #2
 1592 0056 89B2     		uxth	r1, r1
 1593 0058 8180     		strh	r1, [r0, #4]	@ movhi
 492:lvgl\src\lv_draw/lv_img_buf.c ****     res->y2 = (((h - pivot->y) * zoom) >> 8) + 2;
 1594              		.loc 1 492 0
 1595 005a B4F90230 		ldrsh	r3, [r4, #2]
 1596 005e D31A     		subs	r3, r2, r3
 1597 0060 03FB0EF3 		mul	r3, r3, lr
 1598 0064 1B12     		asrs	r3, r3, #8
 1599 0066 0233     		adds	r3, r3, #2
 1600 0068 9BB2     		uxth	r3, r3
 1601 006a C380     		strh	r3, [r0, #6]	@ movhi
 493:lvgl\src\lv_draw/lv_img_buf.c **** 
 494:lvgl\src\lv_draw/lv_img_buf.c ****     if(angle == 0) {
 1602              		.loc 1 494 0
ARM GAS  C:\Users\strap\AppData\Local\Temp\ccvWLEyq.s 			page 50


 1603 006c 8EB9     		cbnz	r6, .L93
 495:lvgl\src\lv_draw/lv_img_buf.c ****         res->x1 += pivot->x;
 1604              		.loc 1 495 0
 1605 006e B4F90020 		ldrsh	r2, [r4]
 1606              	.LVL253:
 1607 0072 1744     		add	r7, r7, r2
 1608 0074 0780     		strh	r7, [r0]	@ movhi
 496:lvgl\src\lv_draw/lv_img_buf.c ****         res->y1 += pivot->y;
 1609              		.loc 1 496 0
 1610 0076 B4F90220 		ldrsh	r2, [r4, #2]
 1611 007a 1544     		add	r5, r5, r2
 1612 007c 4580     		strh	r5, [r0, #2]	@ movhi
 497:lvgl\src\lv_draw/lv_img_buf.c ****         res->x2 += pivot->x;
 1613              		.loc 1 497 0
 1614 007e B4F90020 		ldrsh	r2, [r4]
 1615 0082 1144     		add	r1, r1, r2
 1616 0084 8180     		strh	r1, [r0, #4]	@ movhi
 498:lvgl\src\lv_draw/lv_img_buf.c ****         res->y2 += pivot->y;
 1617              		.loc 1 498 0
 1618 0086 B4F90220 		ldrsh	r2, [r4, #2]
 1619 008a 1344     		add	r3, r3, r2
 1620 008c C380     		strh	r3, [r0, #6]	@ movhi
 499:lvgl\src\lv_draw/lv_img_buf.c ****         return;
 1621              		.loc 1 499 0
 1622 008e BDE8F88F 		pop	{r3, r4, r5, r6, r7, r8, r9, r10, fp, pc}
 1623              	.LVL254:
 1624              	.L93:
 1625 0092 0546     		mov	r5, r0
 500:lvgl\src\lv_draw/lv_img_buf.c ****     }
 501:lvgl\src\lv_draw/lv_img_buf.c **** 
 502:lvgl\src\lv_draw/lv_img_buf.c ****     int32_t angle_low = angle / 10;
 1626              		.loc 1 502 0
 1627 0094 DFF85491 		ldr	r9, .L96
 1628 0098 89FB0637 		smull	r3, r7, r9, r6
 1629 009c F317     		asrs	r3, r6, #31
 1630 009e C3EBA707 		rsb	r7, r3, r7, asr #2
 1631 00a2 3FB2     		sxth	r7, r7
 1632              	.LVL255:
 503:lvgl\src\lv_draw/lv_img_buf.c ****     int32_t angle_hight = angle_low + 1;
 1633              		.loc 1 503 0
 1634 00a4 07F1010A 		add	r10, r7, #1
 1635              	.LVL256:
 504:lvgl\src\lv_draw/lv_img_buf.c ****     int32_t angle_rem = angle  - (angle_low * 10);
 1636              		.loc 1 504 0
 1637 00a8 6FF00900 		mvn	r0, #9
 1638              	.LVL257:
 1639 00ac 00FB0766 		mla	r6, r0, r7, r6
 1640              	.LVL258:
 505:lvgl\src\lv_draw/lv_img_buf.c **** 
 506:lvgl\src\lv_draw/lv_img_buf.c ****     int32_t s1 = _lv_trigo_sin(angle_low);
 1641              		.loc 1 506 0
 1642 00b0 3846     		mov	r0, r7
 1643 00b2 FFF7FEFF 		bl	_lv_trigo_sin
 1644              	.LVL259:
 1645 00b6 8046     		mov	r8, r0
 1646              	.LVL260:
 507:lvgl\src\lv_draw/lv_img_buf.c ****     int32_t s2 = _lv_trigo_sin(angle_hight);
ARM GAS  C:\Users\strap\AppData\Local\Temp\ccvWLEyq.s 			page 51


 1647              		.loc 1 507 0
 1648 00b8 0FFA8AF0 		sxth	r0, r10
 1649              	.LVL261:
 1650 00bc FFF7FEFF 		bl	_lv_trigo_sin
 1651              	.LVL262:
 1652 00c0 8346     		mov	fp, r0
 1653              	.LVL263:
 508:lvgl\src\lv_draw/lv_img_buf.c **** 
 509:lvgl\src\lv_draw/lv_img_buf.c ****     int32_t c1 = _lv_trigo_sin(angle_low + 90);
 1654              		.loc 1 509 0
 1655 00c2 07F15A00 		add	r0, r7, #90
 1656              	.LVL264:
 1657 00c6 00B2     		sxth	r0, r0
 1658 00c8 FFF7FEFF 		bl	_lv_trigo_sin
 1659              	.LVL265:
 1660 00cc 0746     		mov	r7, r0
 1661              	.LVL266:
 510:lvgl\src\lv_draw/lv_img_buf.c ****     int32_t c2 = _lv_trigo_sin(angle_hight + 90);
 1662              		.loc 1 510 0
 1663 00ce 0AF15A00 		add	r0, r10, #90
 1664              	.LVL267:
 1665 00d2 00B2     		sxth	r0, r0
 1666 00d4 FFF7FEFF 		bl	_lv_trigo_sin
 1667              	.LVL268:
 511:lvgl\src\lv_draw/lv_img_buf.c **** 
 512:lvgl\src\lv_draw/lv_img_buf.c ****     int32_t sinma = (s1 * (10 - angle_rem) + s2 * angle_rem) / 10;
 1668              		.loc 1 512 0
 1669 00d8 C6F10A03 		rsb	r3, r6, #10
 1670 00dc 0BFB06FB 		mul	fp, fp, r6
 1671              	.LVL269:
 1672 00e0 03FB08B8 		mla	r8, r3, r8, fp
 1673              	.LVL270:
 1674 00e4 89FB0812 		smull	r1, r2, r9, r8
 1675 00e8 4FEAE878 		asr	r8, r8, #31
 1676 00ec C8EBA202 		rsb	r2, r8, r2, asr #2
 1677              	.LVL271:
 513:lvgl\src\lv_draw/lv_img_buf.c ****     int32_t cosma = (c1 * (10 - angle_rem) + c2 * angle_rem) / 10;
 1678              		.loc 1 513 0
 1679 00f0 00FB06F0 		mul	r0, r0, r6
 1680              	.LVL272:
 1681 00f4 03FB0700 		mla	r0, r3, r7, r0
 1682 00f8 89FB0039 		smull	r3, r9, r9, r0
 1683 00fc C017     		asrs	r0, r0, #31
 1684 00fe C0EBA900 		rsb	r0, r0, r9, asr #2
 1685              	.LVL273:
 514:lvgl\src\lv_draw/lv_img_buf.c **** 
 515:lvgl\src\lv_draw/lv_img_buf.c ****     /*Use smaller value to avoid overflow*/
 516:lvgl\src\lv_draw/lv_img_buf.c ****     sinma = sinma >> (LV_TRIGO_SHIFT - _LV_TRANSFORM_TRIGO_SHIFT);
 1686              		.loc 1 516 0
 1687 0102 5211     		asrs	r2, r2, #5
 1688              	.LVL274:
 517:lvgl\src\lv_draw/lv_img_buf.c ****     cosma = cosma >> (LV_TRIGO_SHIFT - _LV_TRANSFORM_TRIGO_SHIFT);
 1689              		.loc 1 517 0
 1690 0104 4011     		asrs	r0, r0, #5
 1691              	.LVL275:
 518:lvgl\src\lv_draw/lv_img_buf.c **** 
 519:lvgl\src\lv_draw/lv_img_buf.c ****     lv_point_t lt;
ARM GAS  C:\Users\strap\AppData\Local\Temp\ccvWLEyq.s 			page 52


 520:lvgl\src\lv_draw/lv_img_buf.c ****     lv_point_t rt;
 521:lvgl\src\lv_draw/lv_img_buf.c ****     lv_point_t lb;
 522:lvgl\src\lv_draw/lv_img_buf.c ****     lv_point_t rb;
 523:lvgl\src\lv_draw/lv_img_buf.c **** 
 524:lvgl\src\lv_draw/lv_img_buf.c ****     lv_coord_t xt;
 525:lvgl\src\lv_draw/lv_img_buf.c ****     lv_coord_t yt;
 526:lvgl\src\lv_draw/lv_img_buf.c **** 
 527:lvgl\src\lv_draw/lv_img_buf.c ****     xt = res->x1;
 1692              		.loc 1 527 0
 1693 0106 B5F90030 		ldrsh	r3, [r5]
 1694              	.LVL276:
 528:lvgl\src\lv_draw/lv_img_buf.c ****     yt = res->y1;
 1695              		.loc 1 528 0
 1696 010a B5F902C0 		ldrsh	ip, [r5, #2]
 1697              	.LVL277:
 529:lvgl\src\lv_draw/lv_img_buf.c ****     lt.x = ((cosma * xt - sinma * yt) >> _LV_TRANSFORM_TRIGO_SHIFT) + pivot->x;
 1698              		.loc 1 529 0
 1699 010e 03FB00F1 		mul	r1, r3, r0
 1700 0112 0CFB02FE 		mul	lr, ip, r2
 1701 0116 CEEB0109 		rsb	r9, lr, r1
 1702 011a 2788     		ldrh	r7, [r4]
 1703              	.LVL278:
 1704 011c 07EBA929 		add	r9, r7, r9, asr #10
 1705 0120 0FFA89F9 		sxth	r9, r9
 530:lvgl\src\lv_draw/lv_img_buf.c ****     lt.y = ((sinma * xt + cosma * yt) >> _LV_TRANSFORM_TRIGO_SHIFT) + pivot->y;
 1706              		.loc 1 530 0
 1707 0124 03FB02F3 		mul	r3, r3, r2
 1708              	.LVL279:
 1709 0128 0CFB00FC 		mul	ip, ip, r0
 1710              	.LVL280:
 1711 012c 03EB0C08 		add	r8, r3, ip
 1712 0130 6688     		ldrh	r6, [r4, #2]
 1713              	.LVL281:
 1714 0132 06EBA828 		add	r8, r6, r8, asr #10
 1715 0136 0FFA88F8 		sxth	r8, r8
 531:lvgl\src\lv_draw/lv_img_buf.c **** 
 532:lvgl\src\lv_draw/lv_img_buf.c ****     xt = res->x2;
 1716              		.loc 1 532 0
 1717 013a B5F904A0 		ldrsh	r10, [r5, #4]
 1718              	.LVL282:
 533:lvgl\src\lv_draw/lv_img_buf.c ****     yt = res->y1;
 534:lvgl\src\lv_draw/lv_img_buf.c ****     rt.x = ((cosma * xt - sinma * yt) >> _LV_TRANSFORM_TRIGO_SHIFT) + pivot->x;
 1719              		.loc 1 534 0
 1720 013e 0AFB00FB 		mul	fp, r10, r0
 1721 0142 CEEB0B0E 		rsb	lr, lr, fp
 1722 0146 07EBAE2E 		add	lr, r7, lr, asr #10
 1723 014a 0FFA8EFE 		sxth	lr, lr
 535:lvgl\src\lv_draw/lv_img_buf.c ****     rt.y = ((sinma * xt + cosma * yt) >> _LV_TRANSFORM_TRIGO_SHIFT) + pivot->y;
 1724              		.loc 1 535 0
 1725 014e 0AFB02FA 		mul	r10, r10, r2
 1726              	.LVL283:
 1727 0152 0CEB0A04 		add	r4, ip, r10
 1728 0156 06EBA424 		add	r4, r6, r4, asr #10
 1729 015a 24B2     		sxth	r4, r4
 1730              	.LVL284:
 536:lvgl\src\lv_draw/lv_img_buf.c **** 
 537:lvgl\src\lv_draw/lv_img_buf.c ****     xt = res->x1;
ARM GAS  C:\Users\strap\AppData\Local\Temp\ccvWLEyq.s 			page 53


 538:lvgl\src\lv_draw/lv_img_buf.c ****     yt = res->y2;
 1731              		.loc 1 538 0
 1732 015c B5F906C0 		ldrsh	ip, [r5, #6]
 1733              	.LVL285:
 539:lvgl\src\lv_draw/lv_img_buf.c ****     lb.x = ((cosma * xt - sinma * yt) >> _LV_TRANSFORM_TRIGO_SHIFT) + pivot->x;
 1734              		.loc 1 539 0
 1735 0160 0CFB02F2 		mul	r2, ip, r2
 1736              	.LVL286:
 1737 0164 891A     		subs	r1, r1, r2
 1738 0166 07EBA121 		add	r1, r7, r1, asr #10
 1739 016a 09B2     		sxth	r1, r1
 540:lvgl\src\lv_draw/lv_img_buf.c ****     lb.y = ((sinma * xt + cosma * yt) >> _LV_TRANSFORM_TRIGO_SHIFT) + pivot->y;
 1740              		.loc 1 540 0
 1741 016c 0CFB00F0 		mul	r0, ip, r0
 1742              	.LVL287:
 1743 0170 0344     		add	r3, r3, r0
 1744 0172 06EBA323 		add	r3, r6, r3, asr #10
 1745 0176 1BB2     		sxth	r3, r3
 1746              	.LVL288:
 541:lvgl\src\lv_draw/lv_img_buf.c **** 
 542:lvgl\src\lv_draw/lv_img_buf.c ****     xt = res->x2;
 543:lvgl\src\lv_draw/lv_img_buf.c ****     yt = res->y2;
 544:lvgl\src\lv_draw/lv_img_buf.c ****     rb.x = ((cosma * xt - sinma * yt) >> _LV_TRANSFORM_TRIGO_SHIFT) + pivot->x;
 1747              		.loc 1 544 0
 1748 0178 C2EB0B02 		rsb	r2, r2, fp
 1749 017c 07EBA227 		add	r7, r7, r2, asr #10
 1750 0180 3FB2     		sxth	r7, r7
 545:lvgl\src\lv_draw/lv_img_buf.c ****     rb.y = ((sinma * xt + cosma * yt) >> _LV_TRANSFORM_TRIGO_SHIFT) + pivot->y;
 1751              		.loc 1 545 0
 1752 0182 5044     		add	r0, r0, r10
 1753 0184 06EBA026 		add	r6, r6, r0, asr #10
 1754 0188 36B2     		sxth	r6, r6
 546:lvgl\src\lv_draw/lv_img_buf.c **** 
 547:lvgl\src\lv_draw/lv_img_buf.c ****     res->x1 = LV_MATH_MIN4(lb.x, lt.x, rb.x, rt.x);
 1755              		.loc 1 547 0
 1756 018a 7046     		mov	r0, lr
 1757 018c BE45     		cmp	lr, r7
 1758 018e A8BF     		it	ge
 1759 0190 3846     		movge	r0, r7
 1760 0192 4A46     		mov	r2, r9
 1761 0194 8945     		cmp	r9, r1
 1762 0196 A8BF     		it	ge
 1763 0198 0A46     		movge	r2, r1
 1764 019a 8242     		cmp	r2, r0
 1765 019c A8BF     		it	ge
 1766 019e 0246     		movge	r2, r0
 1767 01a0 2A80     		strh	r2, [r5]	@ movhi
 548:lvgl\src\lv_draw/lv_img_buf.c ****     res->x2 = LV_MATH_MAX4(lb.x, lt.x, rb.x, rt.x);
 1768              		.loc 1 548 0
 1769 01a2 7745     		cmp	r7, lr
 1770 01a4 B8BF     		it	lt
 1771 01a6 7746     		movlt	r7, lr
 1772 01a8 8945     		cmp	r9, r1
 1773 01aa B8BF     		it	lt
 1774 01ac 8946     		movlt	r9, r1
 1775 01ae B945     		cmp	r9, r7
 1776 01b0 B8BF     		it	lt
ARM GAS  C:\Users\strap\AppData\Local\Temp\ccvWLEyq.s 			page 54


 1777 01b2 B946     		movlt	r9, r7
 1778 01b4 A5F80490 		strh	r9, [r5, #4]	@ movhi
 1779              	.LVL289:
 549:lvgl\src\lv_draw/lv_img_buf.c ****     res->y1 = LV_MATH_MIN4(lb.y, lt.y, rb.y, rt.y);
 1780              		.loc 1 549 0
 1781 01b8 2146     		mov	r1, r4
 1782 01ba B442     		cmp	r4, r6
 1783 01bc A8BF     		it	ge
 1784 01be 3146     		movge	r1, r6
 1785 01c0 4246     		mov	r2, r8
 1786 01c2 9845     		cmp	r8, r3
 1787 01c4 A8BF     		it	ge
 1788 01c6 1A46     		movge	r2, r3
 1789 01c8 8A42     		cmp	r2, r1
 1790 01ca A8BF     		it	ge
 1791 01cc 0A46     		movge	r2, r1
 1792 01ce 6A80     		strh	r2, [r5, #2]	@ movhi
 550:lvgl\src\lv_draw/lv_img_buf.c ****     res->y2 = LV_MATH_MAX4(lb.y, lt.y, rb.y, rt.y);
 1793              		.loc 1 550 0
 1794 01d0 A642     		cmp	r6, r4
 1795 01d2 B8BF     		it	lt
 1796 01d4 2646     		movlt	r6, r4
 1797 01d6 9845     		cmp	r8, r3
 1798 01d8 B8BF     		it	lt
 1799 01da 9846     		movlt	r8, r3
 1800 01dc B045     		cmp	r8, r6
 1801 01de B8BF     		it	lt
 1802 01e0 B046     		movlt	r8, r6
 1803 01e2 A5F80680 		strh	r8, [r5, #6]	@ movhi
 1804 01e6 BDE8F88F 		pop	{r3, r4, r5, r6, r7, r8, r9, r10, fp, pc}
 1805              	.LVL290:
 1806              	.L97:
 1807 01ea 00BF     		.align	2
 1808              	.L96:
 1809 01ec 67666666 		.word	1717986919
 1810              		.cfi_endproc
 1811              	.LFE46:
 1812              		.size	_lv_img_buf_get_transformed_area, .-_lv_img_buf_get_transformed_area
 1813              		.section	.text._lv_img_buf_transform_anti_alias,"ax",%progbits
 1814              		.align	2
 1815              		.global	_lv_img_buf_transform_anti_alias
 1816              		.thumb
 1817              		.thumb_func
 1818              		.type	_lv_img_buf_transform_anti_alias, %function
 1819              	_lv_img_buf_transform_anti_alias:
 1820              	.LFB47:
 551:lvgl\src\lv_draw/lv_img_buf.c **** #else
 552:lvgl\src\lv_draw/lv_img_buf.c ****     LV_UNUSED(angle);
 553:lvgl\src\lv_draw/lv_img_buf.c ****     LV_UNUSED(zoom);
 554:lvgl\src\lv_draw/lv_img_buf.c ****     LV_UNUSED(pivot);
 555:lvgl\src\lv_draw/lv_img_buf.c ****     res->x1 = 0;
 556:lvgl\src\lv_draw/lv_img_buf.c ****     res->y1 = 0;
 557:lvgl\src\lv_draw/lv_img_buf.c ****     res->x2 = w - 1;
 558:lvgl\src\lv_draw/lv_img_buf.c ****     res->y2 = h - 1;
 559:lvgl\src\lv_draw/lv_img_buf.c **** #endif
 560:lvgl\src\lv_draw/lv_img_buf.c **** }
 561:lvgl\src\lv_draw/lv_img_buf.c **** 
ARM GAS  C:\Users\strap\AppData\Local\Temp\ccvWLEyq.s 			page 55


 562:lvgl\src\lv_draw/lv_img_buf.c **** #if LV_USE_IMG_TRANSFORM
 563:lvgl\src\lv_draw/lv_img_buf.c **** /**
 564:lvgl\src\lv_draw/lv_img_buf.c ****  * Continue transformation by taking the neighbors into account
 565:lvgl\src\lv_draw/lv_img_buf.c ****  * @param dsc pointer to the transformation descriptor
 566:lvgl\src\lv_draw/lv_img_buf.c ****  */
 567:lvgl\src\lv_draw/lv_img_buf.c **** bool _lv_img_buf_transform_anti_alias(lv_img_transform_dsc_t * dsc)
 568:lvgl\src\lv_draw/lv_img_buf.c **** {
 1821              		.loc 1 568 0
 1822              		.cfi_startproc
 1823              		@ args = 0, pretend = 0, frame = 32
 1824              		@ frame_needed = 0, uses_anonymous_args = 0
 1825              	.LVL291:
 1826 0000 2DE9F04F 		push	{r4, r5, r6, r7, r8, r9, r10, fp, lr}
 1827              		.cfi_def_cfa_offset 36
 1828              		.cfi_offset 4, -36
 1829              		.cfi_offset 5, -32
 1830              		.cfi_offset 6, -28
 1831              		.cfi_offset 7, -24
 1832              		.cfi_offset 8, -20
 1833              		.cfi_offset 9, -16
 1834              		.cfi_offset 10, -12
 1835              		.cfi_offset 11, -8
 1836              		.cfi_offset 14, -4
 1837 0004 89B0     		sub	sp, sp, #36
 1838              		.cfi_def_cfa_offset 72
 1839 0006 0446     		mov	r4, r0
 569:lvgl\src\lv_draw/lv_img_buf.c ****     const uint8_t * src_u8 = dsc->cfg.src;
 1840              		.loc 1 569 0
 1841 0008 0168     		ldr	r1, [r0]
 1842              	.LVL292:
 570:lvgl\src\lv_draw/lv_img_buf.c **** 
 571:lvgl\src\lv_draw/lv_img_buf.c ****     /*Get the fractional part of the source pixel*/
 572:lvgl\src\lv_draw/lv_img_buf.c ****     int xs_fract = dsc->tmp.xs & 0xff;
 1843              		.loc 1 572 0
 1844 000a B0F93C50 		ldrsh	r5, [r0, #60]
 1845 000e EAB2     		uxtb	r2, r5
 1846              	.LVL293:
 573:lvgl\src\lv_draw/lv_img_buf.c ****     int ys_fract = dsc->tmp.ys & 0xff;
 1847              		.loc 1 573 0
 1848 0010 B0F93E60 		ldrsh	r6, [r0, #62]
 1849 0014 F3B2     		uxtb	r3, r6
 1850              	.LVL294:
 574:lvgl\src\lv_draw/lv_img_buf.c ****     int32_t xn;      /*x neighbor*/
 575:lvgl\src\lv_draw/lv_img_buf.c ****     lv_opa_t xr; /*x mix ratio*/
 576:lvgl\src\lv_draw/lv_img_buf.c **** 
 577:lvgl\src\lv_draw/lv_img_buf.c ****     if(xs_fract < 0x70) {
 1851              		.loc 1 577 0
 1852 0016 6F2A     		cmp	r2, #111
 1853 0018 0BDC     		bgt	.L99
 1854              	.LVL295:
 578:lvgl\src\lv_draw/lv_img_buf.c ****         xn = - 1;
 579:lvgl\src\lv_draw/lv_img_buf.c ****         if(dsc->tmp.xs_int + xn < 0) xn = 0;
 1855              		.loc 1 579 0
 1856 001a B0F94020 		ldrsh	r2, [r0, #64]
 1857              	.LVL296:
 1858 001e 012A     		cmp	r2, #1
 1859 0020 02D4     		bmi	.L132
ARM GAS  C:\Users\strap\AppData\Local\Temp\ccvWLEyq.s 			page 56


 578:lvgl\src\lv_draw/lv_img_buf.c ****         xn = - 1;
 1860              		.loc 1 578 0
 1861 0022 4FF0FF38 		mov	r8, #-1
 1862 0026 01E0     		b	.L100
 1863              	.L132:
 1864              		.loc 1 579 0
 1865 0028 4FF00008 		mov	r8, #0
 1866              	.L100:
 1867              	.LVL297:
 580:lvgl\src\lv_draw/lv_img_buf.c ****         xr = xs_fract + 0x80;
 1868              		.loc 1 580 0
 1869 002c 803D     		subs	r5, r5, #128
 1870              	.LVL298:
 1871 002e EDB2     		uxtb	r5, r5
 1872              	.LVL299:
 1873 0030 14E0     		b	.L101
 1874              	.LVL300:
 1875              	.L99:
 581:lvgl\src\lv_draw/lv_img_buf.c ****     }
 582:lvgl\src\lv_draw/lv_img_buf.c ****     else if(xs_fract > 0x90) {
 1876              		.loc 1 582 0
 1877 0032 902A     		cmp	r2, #144
 1878 0034 0FDD     		ble	.L133
 1879              	.LVL301:
 583:lvgl\src\lv_draw/lv_img_buf.c ****         xn =  1;
 584:lvgl\src\lv_draw/lv_img_buf.c ****         if(dsc->tmp.xs_int + xn >= dsc->cfg.src_w) xn = 0;
 1880              		.loc 1 584 0
 1881 0036 B0F94020 		ldrsh	r2, [r0, #64]
 1882              	.LVL302:
 1883 003a 0132     		adds	r2, r2, #1
 1884 003c B0F90400 		ldrsh	r0, [r0, #4]
 1885              	.LVL303:
 1886 0040 8242     		cmp	r2, r0
 1887 0042 02DA     		bge	.L134
 583:lvgl\src\lv_draw/lv_img_buf.c ****         xn =  1;
 1888              		.loc 1 583 0
 1889 0044 4FF00108 		mov	r8, #1
 1890 0048 01E0     		b	.L102
 1891              	.L134:
 1892              		.loc 1 584 0
 1893 004a 4FF00008 		mov	r8, #0
 1894              	.L102:
 1895              	.LVL304:
 585:lvgl\src\lv_draw/lv_img_buf.c ****         xr = (0xFF - xs_fract) + 0x80;
 1896              		.loc 1 585 0
 1897 004e C5F17F05 		rsb	r5, r5, #127
 1898              	.LVL305:
 1899 0052 EDB2     		uxtb	r5, r5
 1900              	.LVL306:
 1901 0054 02E0     		b	.L101
 1902              	.LVL307:
 1903              	.L133:
 586:lvgl\src\lv_draw/lv_img_buf.c ****     }
 587:lvgl\src\lv_draw/lv_img_buf.c ****     else {
 588:lvgl\src\lv_draw/lv_img_buf.c ****         xn = 0;
 589:lvgl\src\lv_draw/lv_img_buf.c ****         xr = 0xFF;
 1904              		.loc 1 589 0
ARM GAS  C:\Users\strap\AppData\Local\Temp\ccvWLEyq.s 			page 57


 1905 0056 FF25     		movs	r5, #255
 588:lvgl\src\lv_draw/lv_img_buf.c ****         xr = 0xFF;
 1906              		.loc 1 588 0
 1907 0058 4FF00008 		mov	r8, #0
 1908              	.LVL308:
 1909              	.L101:
 590:lvgl\src\lv_draw/lv_img_buf.c ****     }
 591:lvgl\src\lv_draw/lv_img_buf.c **** 
 592:lvgl\src\lv_draw/lv_img_buf.c ****     int32_t yn;      /*x neighbor*/
 593:lvgl\src\lv_draw/lv_img_buf.c ****     lv_opa_t yr; /*x mix ratio*/
 594:lvgl\src\lv_draw/lv_img_buf.c **** 
 595:lvgl\src\lv_draw/lv_img_buf.c ****     if(ys_fract < 0x70) {
 1910              		.loc 1 595 0
 1911 005c 6F2B     		cmp	r3, #111
 1912 005e 0BDC     		bgt	.L103
 1913              	.LVL309:
 596:lvgl\src\lv_draw/lv_img_buf.c ****         yn = - 1;
 597:lvgl\src\lv_draw/lv_img_buf.c ****         if(dsc->tmp.ys_int + yn < 0) yn = 0;
 1914              		.loc 1 597 0
 1915 0060 B4F94230 		ldrsh	r3, [r4, #66]
 1916              	.LVL310:
 1917 0064 012B     		cmp	r3, #1
 1918 0066 02D4     		bmi	.L135
 596:lvgl\src\lv_draw/lv_img_buf.c ****         yn = - 1;
 1919              		.loc 1 596 0
 1920 0068 4FF0FF39 		mov	r9, #-1
 1921 006c 01E0     		b	.L104
 1922              	.L135:
 1923              		.loc 1 597 0
 1924 006e 4FF00009 		mov	r9, #0
 1925              	.L104:
 1926              	.LVL311:
 598:lvgl\src\lv_draw/lv_img_buf.c **** 
 599:lvgl\src\lv_draw/lv_img_buf.c ****         yr = ys_fract + 0x80;
 1927              		.loc 1 599 0
 1928 0072 803E     		subs	r6, r6, #128
 1929              	.LVL312:
 1930 0074 F6B2     		uxtb	r6, r6
 1931              	.LVL313:
 1932 0076 14E0     		b	.L105
 1933              	.LVL314:
 1934              	.L103:
 600:lvgl\src\lv_draw/lv_img_buf.c ****     }
 601:lvgl\src\lv_draw/lv_img_buf.c ****     else if(ys_fract > 0x90) {
 1935              		.loc 1 601 0
 1936 0078 902B     		cmp	r3, #144
 1937 007a 0FDD     		ble	.L136
 1938              	.LVL315:
 602:lvgl\src\lv_draw/lv_img_buf.c ****         yn =  1;
 603:lvgl\src\lv_draw/lv_img_buf.c ****         if(dsc->tmp.ys_int + yn >= dsc->cfg.src_h) yn = 0;
 1939              		.loc 1 603 0
 1940 007c B4F94230 		ldrsh	r3, [r4, #66]
 1941              	.LVL316:
 1942 0080 0133     		adds	r3, r3, #1
 1943 0082 B4F90620 		ldrsh	r2, [r4, #6]
 1944 0086 9342     		cmp	r3, r2
 1945 0088 02DA     		bge	.L137
ARM GAS  C:\Users\strap\AppData\Local\Temp\ccvWLEyq.s 			page 58


 602:lvgl\src\lv_draw/lv_img_buf.c ****         yn =  1;
 1946              		.loc 1 602 0
 1947 008a 4FF00109 		mov	r9, #1
 1948 008e 01E0     		b	.L106
 1949              	.L137:
 1950              		.loc 1 603 0
 1951 0090 4FF00009 		mov	r9, #0
 1952              	.L106:
 1953              	.LVL317:
 604:lvgl\src\lv_draw/lv_img_buf.c **** 
 605:lvgl\src\lv_draw/lv_img_buf.c ****         yr = (0xFF - ys_fract) + 0x80;
 1954              		.loc 1 605 0
 1955 0094 C6F17F06 		rsb	r6, r6, #127
 1956              	.LVL318:
 1957 0098 F6B2     		uxtb	r6, r6
 1958              	.LVL319:
 1959 009a 02E0     		b	.L105
 1960              	.LVL320:
 1961              	.L136:
 606:lvgl\src\lv_draw/lv_img_buf.c ****     }
 607:lvgl\src\lv_draw/lv_img_buf.c ****     else {
 608:lvgl\src\lv_draw/lv_img_buf.c ****         yn = 0;
 609:lvgl\src\lv_draw/lv_img_buf.c ****         yr = 0xFF;
 1962              		.loc 1 609 0
 1963 009c FF26     		movs	r6, #255
 608:lvgl\src\lv_draw/lv_img_buf.c ****         yr = 0xFF;
 1964              		.loc 1 608 0
 1965 009e 4FF00009 		mov	r9, #0
 1966              	.LVL321:
 1967              	.L105:
 610:lvgl\src\lv_draw/lv_img_buf.c ****     }
 611:lvgl\src\lv_draw/lv_img_buf.c **** 
 612:lvgl\src\lv_draw/lv_img_buf.c ****     lv_color_t c00 = dsc->res.color;
 1968              		.loc 1 612 0
 1969 00a2 A78A     		ldrh	r7, [r4, #20]
 613:lvgl\src\lv_draw/lv_img_buf.c ****     lv_color_t c01;
 614:lvgl\src\lv_draw/lv_img_buf.c ****     lv_color_t c10;
 615:lvgl\src\lv_draw/lv_img_buf.c ****     lv_color_t c11;
 616:lvgl\src\lv_draw/lv_img_buf.c **** 
 617:lvgl\src\lv_draw/lv_img_buf.c ****     lv_opa_t a00 = dsc->res.opa;
 1970              		.loc 1 617 0
 1971 00a4 94F816A0 		ldrb	r10, [r4, #22]	@ zero_extendqisi2
 1972              	.LVL322:
 618:lvgl\src\lv_draw/lv_img_buf.c ****     lv_opa_t a10 = 0;
 619:lvgl\src\lv_draw/lv_img_buf.c ****     lv_opa_t a01 = 0;
 620:lvgl\src\lv_draw/lv_img_buf.c ****     lv_opa_t a11 = 0;
 621:lvgl\src\lv_draw/lv_img_buf.c **** 
 622:lvgl\src\lv_draw/lv_img_buf.c ****     if(dsc->tmp.native_color) {
 1973              		.loc 1 622 0
 1974 00a8 94F83430 		ldrb	r3, [r4, #52]	@ zero_extendqisi2
 1975 00ac 13F0040F 		tst	r3, #4
 1976 00b0 5FD0     		beq	.L107
 623:lvgl\src\lv_draw/lv_img_buf.c ****         _lv_memcpy_small(&c01, &src_u8[dsc->tmp.pxi + dsc->tmp.px_size * xn], sizeof(lv_color_t));
 1977              		.loc 1 623 0
 1978 00b2 626C     		ldr	r2, [r4, #68]
 1979 00b4 94F84830 		ldrb	r3, [r4, #72]	@ zero_extendqisi2
 1980 00b8 08FB0323 		mla	r3, r8, r3, r2
ARM GAS  C:\Users\strap\AppData\Local\Temp\ccvWLEyq.s 			page 59


 1981 00bc 0B44     		add	r3, r3, r1
 1982              	.LVL323:
 1983              	.LBB77:
 1984              	.LBB78:
 216:lvgl\src\lv_draw\../lv_misc/lv_mem.h ****     const uint8_t * s8 = (const uint8_t *)src;
 1985              		.loc 2 216 0
 1986 00be 07A8     		add	r0, sp, #28
 1987              	.LVL324:
 1988              	.LBE78:
 1989              	.LBE77:
 1990              		.loc 1 623 0
 1991 00c0 0222     		movs	r2, #2
 1992 00c2 04E0     		b	.L108
 1993              	.LVL325:
 1994              	.L109:
 1995              	.LBB80:
 1996              	.LBB79:
 220:lvgl\src\lv_draw\../lv_misc/lv_mem.h ****         d8++;
 1997              		.loc 2 220 0
 1998 00c4 13F801EB 		ldrb	lr, [r3], #1	@ zero_extendqisi2
 1999              	.LVL326:
 2000 00c8 00F801EB 		strb	lr, [r0], #1
 2001              	.LVL327:
 2002              		.loc 2 223 0
 2003 00cc 013A     		subs	r2, r2, #1
 2004              	.LVL328:
 2005              	.L108:
 219:lvgl\src\lv_draw\../lv_misc/lv_mem.h ****         *d8 = *s8;
 2006              		.loc 2 219 0
 2007 00ce 002A     		cmp	r2, #0
 2008 00d0 F8D1     		bne	.L109
 2009              	.LVL329:
 2010              	.LBE79:
 2011              	.LBE80:
 624:lvgl\src\lv_draw/lv_img_buf.c ****         _lv_memcpy_small(&c10, &src_u8[dsc->tmp.pxi + dsc->cfg.src_w * dsc->tmp.px_size * yn], size
 2012              		.loc 1 624 0
 2013 00d2 626C     		ldr	r2, [r4, #68]
 2014 00d4 B4F90400 		ldrsh	r0, [r4, #4]
 2015              	.LVL330:
 2016 00d8 94F84830 		ldrb	r3, [r4, #72]	@ zero_extendqisi2
 2017              	.LVL331:
 2018 00dc 03FB00F3 		mul	r3, r3, r0
 2019 00e0 03FB0923 		mla	r3, r3, r9, r2
 2020 00e4 0B44     		add	r3, r3, r1
 2021              	.LVL332:
 2022              	.LBB81:
 2023              	.LBB82:
 216:lvgl\src\lv_draw\../lv_misc/lv_mem.h ****     const uint8_t * s8 = (const uint8_t *)src;
 2024              		.loc 2 216 0
 2025 00e6 06A8     		add	r0, sp, #24
 2026              	.LVL333:
 2027              	.LBE82:
 2028              	.LBE81:
 2029              		.loc 1 624 0
 2030 00e8 0222     		movs	r2, #2
 2031 00ea 04E0     		b	.L110
 2032              	.LVL334:
ARM GAS  C:\Users\strap\AppData\Local\Temp\ccvWLEyq.s 			page 60


 2033              	.L111:
 2034              	.LBB84:
 2035              	.LBB83:
 220:lvgl\src\lv_draw\../lv_misc/lv_mem.h ****         d8++;
 2036              		.loc 2 220 0
 2037 00ec 13F801EB 		ldrb	lr, [r3], #1	@ zero_extendqisi2
 2038              	.LVL335:
 2039 00f0 00F801EB 		strb	lr, [r0], #1
 2040              	.LVL336:
 2041              		.loc 2 223 0
 2042 00f4 013A     		subs	r2, r2, #1
 2043              	.LVL337:
 2044              	.L110:
 219:lvgl\src\lv_draw\../lv_misc/lv_mem.h ****         *d8 = *s8;
 2045              		.loc 2 219 0
 2046 00f6 002A     		cmp	r2, #0
 2047 00f8 F8D1     		bne	.L111
 2048              	.LVL338:
 2049              	.LBE83:
 2050              	.LBE84:
 625:lvgl\src\lv_draw/lv_img_buf.c ****         _lv_memcpy_small(&c11, &src_u8[dsc->tmp.pxi + dsc->cfg.src_w * dsc->tmp.px_size * yn + dsc-
 2051              		.loc 1 625 0
 2052 00fa 636C     		ldr	r3, [r4, #68]
 2053              	.LVL339:
 2054 00fc 94F84820 		ldrb	r2, [r4, #72]	@ zero_extendqisi2
 2055 0100 B4F90400 		ldrsh	r0, [r4, #4]
 2056              	.LVL340:
 2057 0104 00FB02F0 		mul	r0, r0, r2
 2058 0108 00FB09F0 		mul	r0, r0, r9
 2059 010c 02FB0802 		mla	r2, r2, r8, r0
 2060 0110 1344     		add	r3, r3, r2
 2061 0112 0B44     		add	r3, r3, r1
 2062              	.LVL341:
 2063              	.LBB85:
 2064              	.LBB86:
 216:lvgl\src\lv_draw\../lv_misc/lv_mem.h ****     const uint8_t * s8 = (const uint8_t *)src;
 2065              		.loc 2 216 0
 2066 0114 05A8     		add	r0, sp, #20
 2067              	.LVL342:
 2068              	.LBE86:
 2069              	.LBE85:
 2070              		.loc 1 625 0
 2071 0116 0222     		movs	r2, #2
 2072 0118 04E0     		b	.L112
 2073              	.LVL343:
 2074              	.L113:
 2075              	.LBB88:
 2076              	.LBB87:
 220:lvgl\src\lv_draw\../lv_misc/lv_mem.h ****         d8++;
 2077              		.loc 2 220 0
 2078 011a 13F801EB 		ldrb	lr, [r3], #1	@ zero_extendqisi2
 2079              	.LVL344:
 2080 011e 00F801EB 		strb	lr, [r0], #1
 2081              	.LVL345:
 2082              		.loc 2 223 0
 2083 0122 013A     		subs	r2, r2, #1
 2084              	.LVL346:
ARM GAS  C:\Users\strap\AppData\Local\Temp\ccvWLEyq.s 			page 61


 2085              	.L112:
 219:lvgl\src\lv_draw\../lv_misc/lv_mem.h ****         *d8 = *s8;
 2086              		.loc 2 219 0
 2087 0124 002A     		cmp	r2, #0
 2088 0126 F8D1     		bne	.L113
 2089              	.LVL347:
 2090              	.LBE87:
 2091              	.LBE88:
 626:lvgl\src\lv_draw/lv_img_buf.c ****                          sizeof(lv_color_t));
 627:lvgl\src\lv_draw/lv_img_buf.c ****         if(dsc->tmp.has_alpha) {
 2092              		.loc 1 627 0
 2093 0128 94F83430 		ldrb	r3, [r4, #52]	@ zero_extendqisi2
 2094              	.LVL348:
 2095 012c 13F0020F 		tst	r3, #2
 2096 0130 72D0     		beq	.L138
 628:lvgl\src\lv_draw/lv_img_buf.c ****             a10 = src_u8[dsc->tmp.pxi + dsc->tmp.px_size * xn + dsc->tmp.px_size - 1];
 2097              		.loc 1 628 0
 2098 0132 626C     		ldr	r2, [r4, #68]
 2099 0134 94F84800 		ldrb	r0, [r4, #72]	@ zero_extendqisi2
 2100              	.LVL349:
 2101 0138 00FB08F3 		mul	r3, r0, r8
 2102 013c 02EB030E 		add	lr, r2, r3
 2103 0140 8644     		add	lr, lr, r0
 2104 0142 0EF1FF3E 		add	lr, lr, #-1
 2105 0146 11F80EB0 		ldrb	fp, [r1, lr]	@ zero_extendqisi2
 2106              	.LVL350:
 629:lvgl\src\lv_draw/lv_img_buf.c ****             a01 = src_u8[dsc->tmp.pxi + dsc->cfg.src_w * dsc->tmp.px_size * yn + dsc->tmp.px_size -
 2107              		.loc 1 629 0
 2108 014a B4F90480 		ldrsh	r8, [r4, #4]
 2109              	.LVL351:
 2110 014e 08FB00F8 		mul	r8, r8, r0
 2111 0152 08FB09F9 		mul	r9, r8, r9
 2112              	.LVL352:
 2113 0156 02EB090E 		add	lr, r2, r9
 2114 015a 8644     		add	lr, lr, r0
 2115 015c 0EF1FF3E 		add	lr, lr, #-1
 2116 0160 11F80E80 		ldrb	r8, [r1, lr]	@ zero_extendqisi2
 2117              	.LVL353:
 630:lvgl\src\lv_draw/lv_img_buf.c ****             a11 = src_u8[dsc->tmp.pxi + dsc->cfg.src_w * dsc->tmp.px_size * yn + dsc->tmp.px_size *
 2118              		.loc 1 630 0
 2119 0164 9944     		add	r9, r9, r3
 2120 0166 9144     		add	r9, r9, r2
 2121 0168 00EB0903 		add	r3, r0, r9
 2122 016c 013B     		subs	r3, r3, #1
 2123 016e C85C     		ldrb	r0, [r1, r3]	@ zero_extendqisi2
 2124              	.LVL354:
 2125 0170 59E0     		b	.L114
 2126              	.LVL355:
 2127              	.L107:
 631:lvgl\src\lv_draw/lv_img_buf.c ****         }
 632:lvgl\src\lv_draw/lv_img_buf.c ****     }
 633:lvgl\src\lv_draw/lv_img_buf.c ****     else {
 634:lvgl\src\lv_draw/lv_img_buf.c ****         c01 = lv_img_buf_get_px_color(&dsc->tmp.img_dsc, dsc->tmp.xs_int + xn, dsc->tmp.ys_int, dsc
 2128              		.loc 1 634 0
 2129 0172 04F11803 		add	r3, r4, #24
 2130 0176 1846     		mov	r0, r3
 2131 0178 B4F94010 		ldrsh	r1, [r4, #64]
ARM GAS  C:\Users\strap\AppData\Local\Temp\ccvWLEyq.s 			page 62


 2132              	.LVL356:
 2133 017c 1FFA88F8 		uxth	r8, r8
 2134              	.LVL357:
 2135 0180 4144     		add	r1, r1, r8
 2136 0182 238A     		ldrh	r3, [r4, #16]
 2137 0184 B4F94220 		ldrsh	r2, [r4, #66]
 2138 0188 09B2     		sxth	r1, r1
 2139 018a 8346     		mov	fp, r0
 2140 018c FFF7FEFF 		bl	lv_img_buf_get_px_color
 2141              	.LVL358:
 2142 0190 ADF81C00 		strh	r0, [sp, #28]	@ movhi
 635:lvgl\src\lv_draw/lv_img_buf.c ****         c10 = lv_img_buf_get_px_color(&dsc->tmp.img_dsc, dsc->tmp.xs_int, dsc->tmp.ys_int + yn, dsc
 2143              		.loc 1 635 0
 2144 0194 B4F94220 		ldrsh	r2, [r4, #66]
 2145 0198 1FFA89F9 		uxth	r9, r9
 2146              	.LVL359:
 2147 019c 4A44     		add	r2, r2, r9
 2148 019e 238A     		ldrh	r3, [r4, #16]
 2149 01a0 12B2     		sxth	r2, r2
 2150 01a2 B4F94010 		ldrsh	r1, [r4, #64]
 2151 01a6 5846     		mov	r0, fp
 2152 01a8 FFF7FEFF 		bl	lv_img_buf_get_px_color
 2153              	.LVL360:
 2154 01ac ADF81800 		strh	r0, [sp, #24]	@ movhi
 636:lvgl\src\lv_draw/lv_img_buf.c ****         c11 = lv_img_buf_get_px_color(&dsc->tmp.img_dsc, dsc->tmp.xs_int + xn, dsc->tmp.ys_int + yn
 2155              		.loc 1 636 0
 2156 01b0 B4F94010 		ldrsh	r1, [r4, #64]
 2157 01b4 4144     		add	r1, r1, r8
 2158 01b6 B4F94220 		ldrsh	r2, [r4, #66]
 2159 01ba 4A44     		add	r2, r2, r9
 2160 01bc 238A     		ldrh	r3, [r4, #16]
 2161 01be 12B2     		sxth	r2, r2
 2162 01c0 09B2     		sxth	r1, r1
 2163 01c2 5846     		mov	r0, fp
 2164 01c4 FFF7FEFF 		bl	lv_img_buf_get_px_color
 2165              	.LVL361:
 2166 01c8 ADF81400 		strh	r0, [sp, #20]	@ movhi
 637:lvgl\src\lv_draw/lv_img_buf.c **** 
 638:lvgl\src\lv_draw/lv_img_buf.c ****         if(dsc->tmp.has_alpha) {
 2167              		.loc 1 638 0
 2168 01cc 94F83430 		ldrb	r3, [r4, #52]	@ zero_extendqisi2
 2169 01d0 13F0020F 		tst	r3, #2
 2170 01d4 24D0     		beq	.L139
 639:lvgl\src\lv_draw/lv_img_buf.c ****             a10 = lv_img_buf_get_px_alpha(&dsc->tmp.img_dsc, dsc->tmp.xs_int + xn, dsc->tmp.ys_int)
 2171              		.loc 1 639 0
 2172 01d6 B4F94020 		ldrsh	r2, [r4, #64]
 2173 01da 0292     		str	r2, [sp, #8]
 2174 01dc 9044     		add	r8, r8, r2
 2175 01de 0FFA88F2 		sxth	r2, r8
 2176 01e2 1046     		mov	r0, r2
 2177 01e4 B4F94280 		ldrsh	r8, [r4, #66]
 2178 01e8 4246     		mov	r2, r8
 2179 01ea 0390     		str	r0, [sp, #12]
 2180 01ec 0146     		mov	r1, r0
 2181 01ee CDF804B0 		str	fp, [sp, #4]
 2182 01f2 5846     		mov	r0, fp
 2183 01f4 FFF7FEFF 		bl	lv_img_buf_get_px_alpha
ARM GAS  C:\Users\strap\AppData\Local\Temp\ccvWLEyq.s 			page 63


 2184              	.LVL362:
 2185 01f8 8346     		mov	fp, r0
 2186              	.LVL363:
 640:lvgl\src\lv_draw/lv_img_buf.c ****             a01 = lv_img_buf_get_px_alpha(&dsc->tmp.img_dsc, dsc->tmp.xs_int, dsc->tmp.ys_int + yn)
 2187              		.loc 1 640 0
 2188 01fa C144     		add	r9, r9, r8
 2189 01fc 0FFA89F9 		sxth	r9, r9
 2190 0200 4A46     		mov	r2, r9
 2191 0202 0299     		ldr	r1, [sp, #8]
 2192 0204 0198     		ldr	r0, [sp, #4]
 2193 0206 FFF7FEFF 		bl	lv_img_buf_get_px_alpha
 2194              	.LVL364:
 2195 020a 8046     		mov	r8, r0
 2196              	.LVL365:
 641:lvgl\src\lv_draw/lv_img_buf.c ****             a11 = lv_img_buf_get_px_alpha(&dsc->tmp.img_dsc, dsc->tmp.xs_int + xn, dsc->tmp.ys_int 
 2197              		.loc 1 641 0
 2198 020c 4A46     		mov	r2, r9
 2199 020e 0399     		ldr	r1, [sp, #12]
 2200 0210 0198     		ldr	r0, [sp, #4]
 2201 0212 FFF7FEFF 		bl	lv_img_buf_get_px_alpha
 2202              	.LVL366:
 2203 0216 06E0     		b	.L114
 2204              	.LVL367:
 2205              	.L138:
 620:lvgl\src\lv_draw/lv_img_buf.c **** 
 2206              		.loc 1 620 0
 2207 0218 0020     		movs	r0, #0
 2208              	.LVL368:
 619:lvgl\src\lv_draw/lv_img_buf.c ****     lv_opa_t a11 = 0;
 2209              		.loc 1 619 0
 2210 021a 8046     		mov	r8, r0
 2211              	.LVL369:
 618:lvgl\src\lv_draw/lv_img_buf.c ****     lv_opa_t a01 = 0;
 2212              		.loc 1 618 0
 2213 021c 8346     		mov	fp, r0
 2214 021e 02E0     		b	.L114
 2215              	.LVL370:
 2216              	.L139:
 620:lvgl\src\lv_draw/lv_img_buf.c **** 
 2217              		.loc 1 620 0
 2218 0220 0020     		movs	r0, #0
 619:lvgl\src\lv_draw/lv_img_buf.c ****     lv_opa_t a11 = 0;
 2219              		.loc 1 619 0
 2220 0222 8046     		mov	r8, r0
 618:lvgl\src\lv_draw/lv_img_buf.c ****     lv_opa_t a01 = 0;
 2221              		.loc 1 618 0
 2222 0224 8346     		mov	fp, r0
 2223              	.LVL371:
 2224              	.L114:
 642:lvgl\src\lv_draw/lv_img_buf.c ****         }
 643:lvgl\src\lv_draw/lv_img_buf.c ****     }
 644:lvgl\src\lv_draw/lv_img_buf.c **** 
 645:lvgl\src\lv_draw/lv_img_buf.c ****     lv_opa_t xr0 = xr;
 646:lvgl\src\lv_draw/lv_img_buf.c ****     lv_opa_t xr1 = xr;
 647:lvgl\src\lv_draw/lv_img_buf.c ****     if(dsc->tmp.has_alpha) {
 2225              		.loc 1 647 0
 2226 0226 94F83430 		ldrb	r3, [r4, #52]	@ zero_extendqisi2
ARM GAS  C:\Users\strap\AppData\Local\Temp\ccvWLEyq.s 			page 64


 2227 022a 13F0020F 		tst	r3, #2
 2228 022e 31D0     		beq	.L115
 2229              	.LBB89:
 648:lvgl\src\lv_draw/lv_img_buf.c ****         lv_opa_t a0 = (a00 * xr + (a10 * (255 - xr))) >> 8;
 2230              		.loc 1 648 0
 2231 0230 C5F1FF03 		rsb	r3, r5, #255
 2232 0234 03FB0BF1 		mul	r1, r3, fp
 2233 0238 05FB0A11 		mla	r1, r5, r10, r1
 2234 023c C1F30721 		ubfx	r1, r1, #8, #8
 2235              	.LVL372:
 649:lvgl\src\lv_draw/lv_img_buf.c ****         lv_opa_t a1 = (a01 * xr + (a11 * (255 - xr))) >> 8;
 2236              		.loc 1 649 0
 2237 0240 03FB00F3 		mul	r3, r3, r0
 2238 0244 05FB0833 		mla	r3, r5, r8, r3
 2239 0248 C3F30723 		ubfx	r3, r3, #8, #8
 2240              	.LVL373:
 650:lvgl\src\lv_draw/lv_img_buf.c ****         dsc->res.opa = (a0 * yr + (a1 * (255 - yr))) >> 8;
 2241              		.loc 1 650 0
 2242 024c C6F1FF02 		rsb	r2, r6, #255
 2243 0250 02FB03F2 		mul	r2, r2, r3
 2244 0254 06FB0122 		mla	r2, r6, r1, r2
 2245 0258 1212     		asrs	r2, r2, #8
 2246 025a A275     		strb	r2, [r4, #22]
 651:lvgl\src\lv_draw/lv_img_buf.c **** 
 652:lvgl\src\lv_draw/lv_img_buf.c ****         if(a0 <= LV_OPA_MIN && a1 <= LV_OPA_MIN) return false;
 2247              		.loc 1 652 0
 2248 025c 0229     		cmp	r1, #2
 2249 025e 02D8     		bhi	.L116
 2250              		.loc 1 652 0 is_stmt 0 discriminator 1
 2251 0260 022B     		cmp	r3, #2
 2252 0262 40F2FB80 		bls	.L140
 2253              	.L116:
 653:lvgl\src\lv_draw/lv_img_buf.c ****         if(a0 <= LV_OPA_MIN) yr = LV_OPA_TRANSP;
 2254              		.loc 1 653 0 is_stmt 1
 2255 0266 0229     		cmp	r1, #2
 2256 0268 00D8     		bhi	.L118
 2257 026a 0026     		movs	r6, #0
 2258              	.LVL374:
 2259              	.L118:
 654:lvgl\src\lv_draw/lv_img_buf.c ****         if(a1 <= LV_OPA_MIN) yr = LV_OPA_COVER;
 2260              		.loc 1 654 0
 2261 026c 022B     		cmp	r3, #2
 2262 026e 00D8     		bhi	.L119
 2263 0270 FF26     		movs	r6, #255
 2264              	.LVL375:
 2265              	.L119:
 655:lvgl\src\lv_draw/lv_img_buf.c ****         if(a00 <= LV_OPA_MIN) xr0 = LV_OPA_TRANSP;
 2266              		.loc 1 655 0
 2267 0272 BAF1020F 		cmp	r10, #2
 2268 0276 01D9     		bls	.L143
 2269              	.LBE89:
 645:lvgl\src\lv_draw/lv_img_buf.c ****     lv_opa_t xr1 = xr;
 2270              		.loc 1 645 0
 2271 0278 2B46     		mov	r3, r5
 2272              	.LVL376:
 2273 027a 00E0     		b	.L120
 2274              	.LVL377:
ARM GAS  C:\Users\strap\AppData\Local\Temp\ccvWLEyq.s 			page 65


 2275              	.L143:
 2276              	.LBB90:
 2277              		.loc 1 655 0
 2278 027c 0023     		movs	r3, #0
 2279              	.LVL378:
 2280              	.L120:
 656:lvgl\src\lv_draw/lv_img_buf.c ****         if(a10 <= LV_OPA_MIN) xr0 = LV_OPA_COVER;
 2281              		.loc 1 656 0
 2282 027e BBF1020F 		cmp	fp, #2
 2283 0282 00D8     		bhi	.L121
 2284 0284 FF23     		movs	r3, #255
 2285              	.LVL379:
 2286              	.L121:
 657:lvgl\src\lv_draw/lv_img_buf.c ****         if(a01 <= LV_OPA_MIN) xr1 = LV_OPA_TRANSP;
 2287              		.loc 1 657 0
 2288 0286 B8F1020F 		cmp	r8, #2
 2289 028a 00D8     		bhi	.L122
 2290 028c 0025     		movs	r5, #0
 2291              	.LVL380:
 2292              	.L122:
 658:lvgl\src\lv_draw/lv_img_buf.c ****         if(a11 <= LV_OPA_MIN) xr1 = LV_OPA_COVER;
 2293              		.loc 1 658 0
 2294 028e 0228     		cmp	r0, #2
 2295 0290 04D9     		bls	.L146
 2296 0292 04E0     		b	.L123
 2297              	.LVL381:
 2298              	.L115:
 2299              	.LBE90:
 659:lvgl\src\lv_draw/lv_img_buf.c ****     }
 660:lvgl\src\lv_draw/lv_img_buf.c ****     else {
 661:lvgl\src\lv_draw/lv_img_buf.c ****         xr0 = xr;
 662:lvgl\src\lv_draw/lv_img_buf.c ****         xr1 = xr;
 663:lvgl\src\lv_draw/lv_img_buf.c ****         dsc->res.opa = LV_OPA_COVER;
 2300              		.loc 1 663 0
 2301 0294 FF23     		movs	r3, #255
 2302 0296 A375     		strb	r3, [r4, #22]
 661:lvgl\src\lv_draw/lv_img_buf.c ****         xr1 = xr;
 2303              		.loc 1 661 0
 2304 0298 2B46     		mov	r3, r5
 2305 029a 00E0     		b	.L123
 2306              	.LVL382:
 2307              	.L146:
 2308              	.LBB91:
 658:lvgl\src\lv_draw/lv_img_buf.c ****         if(a11 <= LV_OPA_MIN) xr1 = LV_OPA_COVER;
 2309              		.loc 1 658 0
 2310 029c FF25     		movs	r5, #255
 2311              	.LVL383:
 2312              	.L123:
 2313              	.LBE91:
 664:lvgl\src\lv_draw/lv_img_buf.c ****     }
 665:lvgl\src\lv_draw/lv_img_buf.c **** 
 666:lvgl\src\lv_draw/lv_img_buf.c ****     lv_color_t c0;
 667:lvgl\src\lv_draw/lv_img_buf.c ****     if(xr0 == LV_OPA_TRANSP) c0 = c01;
 2314              		.loc 1 667 0
 2315 029e 13B9     		cbnz	r3, .L124
 2316              		.loc 1 667 0 is_stmt 0 discriminator 1
 2317 02a0 BDF81C70 		ldrh	r7, [sp, #28]
ARM GAS  C:\Users\strap\AppData\Local\Temp\ccvWLEyq.s 			page 66


 2318 02a4 43E0     		b	.L125
 2319              	.L124:
 668:lvgl\src\lv_draw/lv_img_buf.c ****     else if(xr0 == LV_OPA_COVER) c0 = c00;
 2320              		.loc 1 668 0 is_stmt 1
 2321 02a6 FF2B     		cmp	r3, #255
 2322 02a8 41D0     		beq	.L125
 2323 02aa BDF81CE0 		ldrh	lr, [sp, #28]
 2324              	.LVL384:
 2325              	.LBB92:
 2326              	.LBB93:
 442:lvgl\src\lv_draw\../lv_misc/lv_color.h ****     return ret.full;
 443:lvgl\src\lv_draw\../lv_misc/lv_color.h **** #elif LV_COLOR_DEPTH == 32
 444:lvgl\src\lv_draw\../lv_misc/lv_color.h ****     return color.full;
 445:lvgl\src\lv_draw\../lv_misc/lv_color.h **** #endif
 446:lvgl\src\lv_draw\../lv_misc/lv_color.h **** }
 447:lvgl\src\lv_draw\../lv_misc/lv_color.h **** 
 448:lvgl\src\lv_draw\../lv_misc/lv_color.h **** 
 449:lvgl\src\lv_draw\../lv_misc/lv_color.h **** //! @cond Doxygen_Suppress
 450:lvgl\src\lv_draw\../lv_misc/lv_color.h **** 
 451:lvgl\src\lv_draw\../lv_misc/lv_color.h **** /**
 452:lvgl\src\lv_draw\../lv_misc/lv_color.h ****  * Mix two colors with a given ratio.
 453:lvgl\src\lv_draw\../lv_misc/lv_color.h ****  * @param c1 the first color to mix (usually the foreground)
 454:lvgl\src\lv_draw\../lv_misc/lv_color.h ****  * @param c2 the second color to mix (usually the background)
 455:lvgl\src\lv_draw\../lv_misc/lv_color.h ****  * @param mix The ratio of the colors. 0: full `c2`, 255: full `c1`, 127: half `c1` and half`c2`
 456:lvgl\src\lv_draw\../lv_misc/lv_color.h ****  * @return the mixed color
 457:lvgl\src\lv_draw\../lv_misc/lv_color.h ****  */
 458:lvgl\src\lv_draw\../lv_misc/lv_color.h **** LV_ATTRIBUTE_FAST_MEM static inline lv_color_t lv_color_mix(lv_color_t c1, lv_color_t c2, uint8_t m
 459:lvgl\src\lv_draw\../lv_misc/lv_color.h **** {
 460:lvgl\src\lv_draw\../lv_misc/lv_color.h ****     lv_color_t ret;
 461:lvgl\src\lv_draw\../lv_misc/lv_color.h **** #if LV_COLOR_DEPTH != 1
 462:lvgl\src\lv_draw\../lv_misc/lv_color.h ****     /*LV_COLOR_DEPTH == 8, 16 or 32*/
 463:lvgl\src\lv_draw\../lv_misc/lv_color.h ****     LV_COLOR_SET_R(ret, LV_MATH_UDIV255((uint16_t) LV_COLOR_GET_R(c1) * mix + LV_COLOR_GET_R(c2) *
 2327              		.loc 3 463 0
 2328 02ae C7F3C401 		ubfx	r1, r7, #3, #5
 2329              	.LVL385:
 2330 02b2 CEF3C402 		ubfx	r2, lr, #3, #5
 2331 02b6 C3F1FF0C 		rsb	ip, r3, #255
 2332 02ba 0CFB02F2 		mul	r2, ip, r2
 2333 02be 03FB0122 		mla	r2, r3, r1, r2
 2334 02c2 8032     		adds	r2, r2, #128
 2335 02c4 02EB0221 		add	r1, r2, r2, lsl #8
 2336 02c8 02EBC112 		add	r2, r2, r1, lsl #7
 2337 02cc D20D     		lsrs	r2, r2, #23
 2338 02ce 4FF00001 		mov	r1, #0	@ movhi
 2339              	.LVL386:
 2340 02d2 62F3C701 		bfi	r1, r2, #3, #5
 2341              	.LVL387:
 464:lvgl\src\lv_draw\../lv_misc/lv_color.h ****                                         (255 - mix) + LV_COLOR_MIX_ROUND_OFS));
 465:lvgl\src\lv_draw\../lv_misc/lv_color.h ****     LV_COLOR_SET_G(ret, LV_MATH_UDIV255((uint16_t) LV_COLOR_GET_G(c1) * mix + LV_COLOR_GET_G(c2) *
 2342              		.loc 3 465 0
 2343 02d6 07F00700 		and	r0, r7, #7
 2344              	.LVL388:
 2345 02da C7F34232 		ubfx	r2, r7, #13, #3
 2346 02de 02EBC000 		add	r0, r2, r0, lsl #3
 2347 02e2 0EF00708 		and	r8, lr, #7
 2348              	.LVL389:
 2349 02e6 CEF34232 		ubfx	r2, lr, #13, #3
ARM GAS  C:\Users\strap\AppData\Local\Temp\ccvWLEyq.s 			page 67


 2350 02ea 02EBC802 		add	r2, r2, r8, lsl #3
 2351 02ee 02FB0CF2 		mul	r2, r2, ip
 2352 02f2 03FB0022 		mla	r2, r3, r0, r2
 2353 02f6 8032     		adds	r2, r2, #128
 2354 02f8 02EB0220 		add	r0, r2, r2, lsl #8
 2355 02fc 02EBC012 		add	r2, r2, r0, lsl #7
 2356 0300 900E     		lsrs	r0, r2, #26
 2357 0302 60F30201 		bfi	r1, r0, #0, #3
 2358 0306 D20D     		lsrs	r2, r2, #23
 2359 0308 62F34F31 		bfi	r1, r2, #13, #3
 466:lvgl\src\lv_draw\../lv_misc/lv_color.h ****                                         (255 - mix) + LV_COLOR_MIX_ROUND_OFS));
 467:lvgl\src\lv_draw\../lv_misc/lv_color.h ****     LV_COLOR_SET_B(ret, LV_MATH_UDIV255((uint16_t) LV_COLOR_GET_B(c1) * mix + LV_COLOR_GET_B(c2) *
 2360              		.loc 3 467 0
 2361 030c C7F30422 		ubfx	r2, r7, #8, #5
 2362 0310 CEF3042E 		ubfx	lr, lr, #8, #5
 2363              	.LVL390:
 2364 0314 0CFB0EFE 		mul	lr, ip, lr
 2365 0318 03FB02E3 		mla	r3, r3, r2, lr
 2366              	.LVL391:
 2367 031c 8033     		adds	r3, r3, #128
 2368 031e 03EB0322 		add	r2, r3, r3, lsl #8
 2369 0322 03EBC213 		add	r3, r3, r2, lsl #7
 2370 0326 DB0D     		lsrs	r3, r3, #23
 2371 0328 63F30C21 		bfi	r1, r3, #8, #5
 2372 032c 0F46     		mov	r7, r1	@ movhi
 2373              	.LVL392:
 2374              	.L125:
 2375              	.LBE93:
 2376              	.LBE92:
 669:lvgl\src\lv_draw/lv_img_buf.c ****     else c0 = lv_color_mix(c00, c01, xr0);
 670:lvgl\src\lv_draw/lv_img_buf.c **** 
 671:lvgl\src\lv_draw/lv_img_buf.c ****     lv_color_t c1;
 672:lvgl\src\lv_draw/lv_img_buf.c ****     if(xr1 == LV_OPA_TRANSP) c1 = c11;
 2377              		.loc 1 672 0
 2378 032e 15B9     		cbnz	r5, .L127
 2379              		.loc 1 672 0 is_stmt 0 discriminator 1
 2380 0330 BDF81400 		ldrh	r0, [sp, #20]
 2381 0334 47E0     		b	.L128
 2382              	.L127:
 673:lvgl\src\lv_draw/lv_img_buf.c ****     else if(xr1 == LV_OPA_COVER) c1 = c10;
 2383              		.loc 1 673 0 is_stmt 1
 2384 0336 FF2D     		cmp	r5, #255
 2385 0338 02D1     		bne	.L129
 2386              		.loc 1 673 0 is_stmt 0 discriminator 1
 2387 033a BDF81800 		ldrh	r0, [sp, #24]
 2388 033e 42E0     		b	.L128
 2389              	.L129:
 2390 0340 BDF81830 		ldrh	r3, [sp, #24]
 2391 0344 BDF814E0 		ldrh	lr, [sp, #20]
 2392              	.LVL393:
 2393              	.LBB94:
 2394              	.LBB95:
 463:lvgl\src\lv_draw\../lv_misc/lv_color.h ****                                         (255 - mix) + LV_COLOR_MIX_ROUND_OFS));
 2395              		.loc 3 463 0 is_stmt 1
 2396 0348 C3F3C401 		ubfx	r1, r3, #3, #5
 2397              	.LVL394:
 2398 034c CEF3C402 		ubfx	r2, lr, #3, #5
ARM GAS  C:\Users\strap\AppData\Local\Temp\ccvWLEyq.s 			page 68


 2399 0350 C5F1FF0C 		rsb	ip, r5, #255
 2400 0354 0CFB02F2 		mul	r2, ip, r2
 2401 0358 05FB0122 		mla	r2, r5, r1, r2
 2402 035c 8032     		adds	r2, r2, #128
 2403 035e 02EB0221 		add	r1, r2, r2, lsl #8
 2404 0362 02EBC112 		add	r2, r2, r1, lsl #7
 2405 0366 D20D     		lsrs	r2, r2, #23
 2406 0368 4FF00000 		mov	r0, #0	@ movhi
 2407              	.LVL395:
 2408 036c 62F3C700 		bfi	r0, r2, #3, #5
 2409              	.LVL396:
 465:lvgl\src\lv_draw\../lv_misc/lv_color.h ****                                         (255 - mix) + LV_COLOR_MIX_ROUND_OFS));
 2410              		.loc 3 465 0
 2411 0370 03F00701 		and	r1, r3, #7
 2412 0374 C3F34232 		ubfx	r2, r3, #13, #3
 2413 0378 02EBC101 		add	r1, r2, r1, lsl #3
 2414 037c 0EF00708 		and	r8, lr, #7
 2415 0380 CEF34232 		ubfx	r2, lr, #13, #3
 2416 0384 02EBC802 		add	r2, r2, r8, lsl #3
 2417 0388 02FB0CF2 		mul	r2, r2, ip
 2418 038c 05FB0122 		mla	r2, r5, r1, r2
 2419 0390 8032     		adds	r2, r2, #128
 2420 0392 02EB0221 		add	r1, r2, r2, lsl #8
 2421 0396 02EBC112 		add	r2, r2, r1, lsl #7
 2422 039a 910E     		lsrs	r1, r2, #26
 2423 039c 61F30200 		bfi	r0, r1, #0, #3
 2424 03a0 D20D     		lsrs	r2, r2, #23
 2425 03a2 62F34F30 		bfi	r0, r2, #13, #3
 2426              		.loc 3 467 0
 2427 03a6 C3F30423 		ubfx	r3, r3, #8, #5
 2428              	.LVL397:
 2429 03aa CEF3042E 		ubfx	lr, lr, #8, #5
 2430              	.LVL398:
 2431 03ae 0CFB0EFE 		mul	lr, ip, lr
 2432 03b2 05FB03E5 		mla	r5, r5, r3, lr
 2433              	.LVL399:
 2434 03b6 8035     		adds	r5, r5, #128
 2435 03b8 05EB0523 		add	r3, r5, r5, lsl #8
 2436 03bc 05EBC315 		add	r5, r5, r3, lsl #7
 2437 03c0 ED0D     		lsrs	r5, r5, #23
 2438 03c2 65F30C20 		bfi	r0, r5, #8, #5
 2439              	.LVL400:
 2440              	.L128:
 2441              	.LBE95:
 2442              	.LBE94:
 674:lvgl\src\lv_draw/lv_img_buf.c ****     else c1 = lv_color_mix(c10, c11, xr1);
 675:lvgl\src\lv_draw/lv_img_buf.c **** 
 676:lvgl\src\lv_draw/lv_img_buf.c ****     if(yr == LV_OPA_TRANSP) dsc->res.color = c1;
 2443              		.loc 1 676 0
 2444 03c6 16B9     		cbnz	r6, .L130
 2445              	.LVL401:
 2446              		.loc 1 676 0 is_stmt 0 discriminator 1
 2447 03c8 A082     		strh	r0, [r4, #20]	@ movhi
 677:lvgl\src\lv_draw/lv_img_buf.c ****     else if(yr == LV_OPA_COVER) dsc->res.color = c0;
 678:lvgl\src\lv_draw/lv_img_buf.c ****     else dsc->res.color = lv_color_mix(c0, c1, yr);
 679:lvgl\src\lv_draw/lv_img_buf.c **** 
 680:lvgl\src\lv_draw/lv_img_buf.c ****     return true;
ARM GAS  C:\Users\strap\AppData\Local\Temp\ccvWLEyq.s 			page 69


 2448              		.loc 1 680 0 is_stmt 1 discriminator 1
 2449 03ca 0120     		movs	r0, #1
 2450              	.LVL402:
 2451 03cc 47E0     		b	.L117
 2452              	.LVL403:
 2453              	.L130:
 677:lvgl\src\lv_draw/lv_img_buf.c ****     else if(yr == LV_OPA_COVER) dsc->res.color = c0;
 2454              		.loc 1 677 0
 2455 03ce FF2E     		cmp	r6, #255
 2456 03d0 02D1     		bne	.L131
 2457              	.LVL404:
 677:lvgl\src\lv_draw/lv_img_buf.c ****     else if(yr == LV_OPA_COVER) dsc->res.color = c0;
 2458              		.loc 1 677 0 is_stmt 0 discriminator 1
 2459 03d2 A782     		strh	r7, [r4, #20]	@ movhi
 2460              		.loc 1 680 0 is_stmt 1 discriminator 1
 2461 03d4 0120     		movs	r0, #1
 2462              	.LVL405:
 2463 03d6 42E0     		b	.L117
 2464              	.LVL406:
 2465              	.L131:
 2466              	.LBB96:
 2467              	.LBB97:
 463:lvgl\src\lv_draw\../lv_misc/lv_color.h ****                                         (255 - mix) + LV_COLOR_MIX_ROUND_OFS));
 2468              		.loc 3 463 0
 2469 03d8 C7F3C402 		ubfx	r2, r7, #3, #5
 2470              	.LVL407:
 2471 03dc C0F3C403 		ubfx	r3, r0, #3, #5
 2472 03e0 C6F1FF05 		rsb	r5, r6, #255
 2473 03e4 05FB03F3 		mul	r3, r5, r3
 2474 03e8 06FB0233 		mla	r3, r6, r2, r3
 2475 03ec 8033     		adds	r3, r3, #128
 2476 03ee 03EB0322 		add	r2, r3, r3, lsl #8
 2477 03f2 03EBC213 		add	r3, r3, r2, lsl #7
 2478 03f6 DB0D     		lsrs	r3, r3, #23
 2479 03f8 4FF00001 		mov	r1, #0	@ movhi
 2480              	.LVL408:
 2481 03fc 63F3C701 		bfi	r1, r3, #3, #5
 2482              	.LVL409:
 465:lvgl\src\lv_draw\../lv_misc/lv_color.h ****                                         (255 - mix) + LV_COLOR_MIX_ROUND_OFS));
 2483              		.loc 3 465 0
 2484 0400 07F00702 		and	r2, r7, #7
 2485 0404 C7F34233 		ubfx	r3, r7, #13, #3
 2486 0408 03EBC202 		add	r2, r3, r2, lsl #3
 2487 040c 00F0070E 		and	lr, r0, #7
 2488 0410 C0F34233 		ubfx	r3, r0, #13, #3
 2489 0414 03EBCE03 		add	r3, r3, lr, lsl #3
 2490 0418 03FB05F3 		mul	r3, r3, r5
 2491 041c 06FB0233 		mla	r3, r6, r2, r3
 2492 0420 8033     		adds	r3, r3, #128
 2493 0422 03EB0322 		add	r2, r3, r3, lsl #8
 2494 0426 03EBC213 		add	r3, r3, r2, lsl #7
 2495 042a 9A0E     		lsrs	r2, r3, #26
 2496 042c 62F30201 		bfi	r1, r2, #0, #3
 2497 0430 DB0D     		lsrs	r3, r3, #23
 2498 0432 63F34F31 		bfi	r1, r3, #13, #3
 2499              		.loc 3 467 0
 2500 0436 C7F30427 		ubfx	r7, r7, #8, #5
ARM GAS  C:\Users\strap\AppData\Local\Temp\ccvWLEyq.s 			page 70


 2501              	.LVL410:
 2502 043a C0F30420 		ubfx	r0, r0, #8, #5
 2503              	.LVL411:
 2504 043e 05FB00F0 		mul	r0, r5, r0
 2505 0442 06FB0706 		mla	r6, r6, r7, r0
 2506              	.LVL412:
 2507 0446 8036     		adds	r6, r6, #128
 2508 0448 06EB0623 		add	r3, r6, r6, lsl #8
 2509 044c 06EBC316 		add	r6, r6, r3, lsl #7
 2510 0450 F60D     		lsrs	r6, r6, #23
 2511 0452 66F30C21 		bfi	r1, r6, #8, #5
 2512              	.LBE97:
 2513              	.LBE96:
 678:lvgl\src\lv_draw/lv_img_buf.c **** 
 2514              		.loc 1 678 0
 2515 0456 A182     		strh	r1, [r4, #20]	@ movhi
 2516              		.loc 1 680 0
 2517 0458 0120     		movs	r0, #1
 2518 045a 00E0     		b	.L117
 2519              	.LVL413:
 2520              	.L140:
 2521              	.LBB98:
 652:lvgl\src\lv_draw/lv_img_buf.c ****         if(a0 <= LV_OPA_MIN) yr = LV_OPA_TRANSP;
 2522              		.loc 1 652 0
 2523 045c 0020     		movs	r0, #0
 2524              	.LVL414:
 2525              	.L117:
 2526              	.LBE98:
 681:lvgl\src\lv_draw/lv_img_buf.c **** }
 2527              		.loc 1 681 0
 2528 045e 09B0     		add	sp, sp, #36
 2529              		.cfi_def_cfa_offset 36
 2530              		@ sp needed
 2531 0460 BDE8F08F 		pop	{r4, r5, r6, r7, r8, r9, r10, fp, pc}
 2532              		.cfi_endproc
 2533              	.LFE47:
 2534              		.size	_lv_img_buf_transform_anti_alias, .-_lv_img_buf_transform_anti_alias
 2535              		.section	.rodata
 2536              		.align	2
 2537              		.set	.LANCHOR0,. + 0
 2538              	.LC0:
 2539 0000 00       		.byte	0
 2540 0001 55       		.byte	85
 2541 0002 AA       		.byte	-86
 2542 0003 FF       		.byte	-1
 2543              	.LC1:
 2544 0004 00       		.byte	0
 2545 0005 11       		.byte	17
 2546 0006 22       		.byte	34
 2547 0007 33       		.byte	51
 2548 0008 44       		.byte	68
 2549 0009 55       		.byte	85
 2550 000a 66       		.byte	102
 2551 000b 77       		.byte	119
 2552 000c 88       		.byte	-120
 2553 000d 99       		.byte	-103
 2554 000e AA       		.byte	-86
ARM GAS  C:\Users\strap\AppData\Local\Temp\ccvWLEyq.s 			page 71


 2555 000f BB       		.byte	-69
 2556 0010 CC       		.byte	-52
 2557 0011 DD       		.byte	-35
 2558 0012 EE       		.byte	-18
 2559 0013 FF       		.byte	-1
 2560              		.text
 2561              	.Letext0:
 2562              		.file 4 "c:\\program files (x86)\\cypress\\psoc creator\\4.4\\psoc creator\\import\\gnu\\arm\\5.4.
 2563              		.file 5 "c:\\program files (x86)\\cypress\\psoc creator\\4.4\\psoc creator\\import\\gnu\\arm\\5.4.
 2564              		.file 6 "c:\\program files (x86)\\cypress\\psoc creator\\4.4\\psoc creator\\import\\gnu\\arm\\5.4.
 2565              		.file 7 "lvgl\\src\\lv_draw\\../lv_misc/../../../lv_conf.h"
 2566              		.file 8 "lvgl\\src\\lv_draw\\../lv_misc/lv_area.h"
 2567              		.file 9 "lvgl\\src\\lv_draw\\lv_img_buf.h"
 2568              		.file 10 "lvgl\\src\\lv_draw\\lv_draw_img.h"
 2569              		.file 11 "lvgl\\src\\lv_draw\\../lv_misc/lv_math.h"