ARM GAS  C:\Users\strap\AppData\Local\Temp\cc4VwSsz.s 			page 1


   1              		.syntax unified
   2              		.cpu cortex-m3
   3              		.fpu softvfp
   4              		.eabi_attribute 20, 1
   5              		.eabi_attribute 21, 1
   6              		.eabi_attribute 23, 3
   7              		.eabi_attribute 24, 1
   8              		.eabi_attribute 25, 1
   9              		.eabi_attribute 26, 1
  10              		.eabi_attribute 30, 1
  11              		.eabi_attribute 34, 1
  12              		.eabi_attribute 18, 4
  13              		.thumb
  14              		.syntax unified
  15              		.file	"lv_indev.c"
  16              		.text
  17              	.Ltext0:
  18              		.cfi_sections	.debug_frame
  19              		.section	.text.indev_proc_reset_query_handler,"ax",%progbits
  20              		.align	2
  21              		.thumb
  22              		.thumb_func
  23              		.type	indev_proc_reset_query_handler, %function
  24              	indev_proc_reset_query_handler:
  25              	.LFB358:
  26              		.file 1 "lvgl\\src\\lv_core\\lv_indev.c"
   1:lvgl\src\lv_core/lv_indev.c **** /**
   2:lvgl\src\lv_core/lv_indev.c ****  * @file lv_indev.c
   3:lvgl\src\lv_core/lv_indev.c ****  *
   4:lvgl\src\lv_core/lv_indev.c ****  */
   5:lvgl\src\lv_core/lv_indev.c **** 
   6:lvgl\src\lv_core/lv_indev.c **** /*********************
   7:lvgl\src\lv_core/lv_indev.c ****  *      INCLUDES
   8:lvgl\src\lv_core/lv_indev.c ****  ********************/
   9:lvgl\src\lv_core/lv_indev.c **** #include "lv_indev.h"
  10:lvgl\src\lv_core/lv_indev.c **** #include "lv_disp.h"
  11:lvgl\src\lv_core/lv_indev.c **** #include "lv_obj.h"
  12:lvgl\src\lv_core/lv_indev.c **** 
  13:lvgl\src\lv_core/lv_indev.c **** #include "../lv_hal/lv_hal_tick.h"
  14:lvgl\src\lv_core/lv_indev.c **** #include "../lv_core/lv_group.h"
  15:lvgl\src\lv_core/lv_indev.c **** #include "../lv_core/lv_refr.h"
  16:lvgl\src\lv_core/lv_indev.c **** #include "../lv_misc/lv_task.h"
  17:lvgl\src\lv_core/lv_indev.c **** #include "../lv_misc/lv_math.h"
  18:lvgl\src\lv_core/lv_indev.c **** 
  19:lvgl\src\lv_core/lv_indev.c **** /*********************
  20:lvgl\src\lv_core/lv_indev.c ****  *      DEFINES
  21:lvgl\src\lv_core/lv_indev.c ****  *********************/
  22:lvgl\src\lv_core/lv_indev.c **** 
  23:lvgl\src\lv_core/lv_indev.c **** #if LV_INDEV_DEF_DRAG_THROW <= 0
  24:lvgl\src\lv_core/lv_indev.c ****     #warning "LV_INDEV_DRAG_THROW must be greater than 0"
  25:lvgl\src\lv_core/lv_indev.c **** #endif
  26:lvgl\src\lv_core/lv_indev.c **** 
  27:lvgl\src\lv_core/lv_indev.c **** /**********************
  28:lvgl\src\lv_core/lv_indev.c ****  *      TYPEDEFS
  29:lvgl\src\lv_core/lv_indev.c ****  **********************/
  30:lvgl\src\lv_core/lv_indev.c **** 
  31:lvgl\src\lv_core/lv_indev.c **** /**********************
ARM GAS  C:\Users\strap\AppData\Local\Temp\cc4VwSsz.s 			page 2


  32:lvgl\src\lv_core/lv_indev.c ****  *  STATIC PROTOTYPES
  33:lvgl\src\lv_core/lv_indev.c ****  **********************/
  34:lvgl\src\lv_core/lv_indev.c **** 
  35:lvgl\src\lv_core/lv_indev.c **** static void indev_pointer_proc(lv_indev_t * i, lv_indev_data_t * data);
  36:lvgl\src\lv_core/lv_indev.c **** static void indev_keypad_proc(lv_indev_t * i, lv_indev_data_t * data);
  37:lvgl\src\lv_core/lv_indev.c **** static void indev_encoder_proc(lv_indev_t * i, lv_indev_data_t * data);
  38:lvgl\src\lv_core/lv_indev.c **** static void indev_button_proc(lv_indev_t * i, lv_indev_data_t * data);
  39:lvgl\src\lv_core/lv_indev.c **** static void indev_proc_press(lv_indev_proc_t * proc);
  40:lvgl\src\lv_core/lv_indev.c **** static void indev_proc_release(lv_indev_proc_t * proc);
  41:lvgl\src\lv_core/lv_indev.c **** static void indev_proc_reset_query_handler(lv_indev_t * indev);
  42:lvgl\src\lv_core/lv_indev.c **** static void indev_click_focus(lv_indev_proc_t * proc);
  43:lvgl\src\lv_core/lv_indev.c **** static void indev_drag(lv_indev_proc_t * proc);
  44:lvgl\src\lv_core/lv_indev.c **** static void indev_drag_throw(lv_indev_proc_t * proc);
  45:lvgl\src\lv_core/lv_indev.c **** static lv_obj_t * get_dragged_obj(lv_obj_t * obj);
  46:lvgl\src\lv_core/lv_indev.c **** static void indev_gesture(lv_indev_proc_t * proc);
  47:lvgl\src\lv_core/lv_indev.c **** static bool indev_reset_check(lv_indev_proc_t * proc);
  48:lvgl\src\lv_core/lv_indev.c **** 
  49:lvgl\src\lv_core/lv_indev.c **** /**********************
  50:lvgl\src\lv_core/lv_indev.c ****  *  STATIC VARIABLES
  51:lvgl\src\lv_core/lv_indev.c ****  **********************/
  52:lvgl\src\lv_core/lv_indev.c **** static lv_indev_t * indev_act;
  53:lvgl\src\lv_core/lv_indev.c **** static lv_obj_t * indev_obj_act = NULL;
  54:lvgl\src\lv_core/lv_indev.c **** 
  55:lvgl\src\lv_core/lv_indev.c **** /**********************
  56:lvgl\src\lv_core/lv_indev.c ****  *      MACROS
  57:lvgl\src\lv_core/lv_indev.c ****  **********************/
  58:lvgl\src\lv_core/lv_indev.c **** 
  59:lvgl\src\lv_core/lv_indev.c **** /**********************
  60:lvgl\src\lv_core/lv_indev.c ****  *   GLOBAL FUNCTIONS
  61:lvgl\src\lv_core/lv_indev.c ****  **********************/
  62:lvgl\src\lv_core/lv_indev.c **** 
  63:lvgl\src\lv_core/lv_indev.c **** /**
  64:lvgl\src\lv_core/lv_indev.c ****  * Initialize the display input device subsystem
  65:lvgl\src\lv_core/lv_indev.c ****  */
  66:lvgl\src\lv_core/lv_indev.c **** void _lv_indev_init(void)
  67:lvgl\src\lv_core/lv_indev.c **** {
  68:lvgl\src\lv_core/lv_indev.c ****     lv_indev_reset(NULL, NULL); /*Reset all input devices*/
  69:lvgl\src\lv_core/lv_indev.c **** }
  70:lvgl\src\lv_core/lv_indev.c **** 
  71:lvgl\src\lv_core/lv_indev.c **** /**
  72:lvgl\src\lv_core/lv_indev.c ****  * Called periodically to read the input devices
  73:lvgl\src\lv_core/lv_indev.c ****  * @param param pointer to and input device to read
  74:lvgl\src\lv_core/lv_indev.c ****  */
  75:lvgl\src\lv_core/lv_indev.c **** void _lv_indev_read_task(lv_task_t * task)
  76:lvgl\src\lv_core/lv_indev.c **** {
  77:lvgl\src\lv_core/lv_indev.c ****     LV_LOG_TRACE("indev read task started");
  78:lvgl\src\lv_core/lv_indev.c **** 
  79:lvgl\src\lv_core/lv_indev.c ****     lv_indev_data_t data;
  80:lvgl\src\lv_core/lv_indev.c **** 
  81:lvgl\src\lv_core/lv_indev.c ****     indev_act = task->user_data;
  82:lvgl\src\lv_core/lv_indev.c **** 
  83:lvgl\src\lv_core/lv_indev.c ****     /*Read and process all indevs*/
  84:lvgl\src\lv_core/lv_indev.c ****     if(indev_act->driver.disp == NULL) return; /*Not assigned to any displays*/
  85:lvgl\src\lv_core/lv_indev.c **** 
  86:lvgl\src\lv_core/lv_indev.c ****     /*Handle reset query before processing the point*/
  87:lvgl\src\lv_core/lv_indev.c ****     indev_proc_reset_query_handler(indev_act);
  88:lvgl\src\lv_core/lv_indev.c **** 
ARM GAS  C:\Users\strap\AppData\Local\Temp\cc4VwSsz.s 			page 3


  89:lvgl\src\lv_core/lv_indev.c ****     if(indev_act->proc.disabled) return;
  90:lvgl\src\lv_core/lv_indev.c ****     bool more_to_read;
  91:lvgl\src\lv_core/lv_indev.c ****     do {
  92:lvgl\src\lv_core/lv_indev.c ****         /*Read the data*/
  93:lvgl\src\lv_core/lv_indev.c ****         more_to_read = _lv_indev_read(indev_act, &data);
  94:lvgl\src\lv_core/lv_indev.c **** 
  95:lvgl\src\lv_core/lv_indev.c ****         /*The active object might deleted even in the read function*/
  96:lvgl\src\lv_core/lv_indev.c ****         indev_proc_reset_query_handler(indev_act);
  97:lvgl\src\lv_core/lv_indev.c ****         indev_obj_act = NULL;
  98:lvgl\src\lv_core/lv_indev.c **** 
  99:lvgl\src\lv_core/lv_indev.c ****         indev_act->proc.state = data.state;
 100:lvgl\src\lv_core/lv_indev.c **** 
 101:lvgl\src\lv_core/lv_indev.c ****         /*Save the last activity time*/
 102:lvgl\src\lv_core/lv_indev.c ****         if(indev_act->proc.state == LV_INDEV_STATE_PR) {
 103:lvgl\src\lv_core/lv_indev.c ****             indev_act->driver.disp->last_activity_time = lv_tick_get();
 104:lvgl\src\lv_core/lv_indev.c ****         }
 105:lvgl\src\lv_core/lv_indev.c ****         else if(indev_act->driver.type == LV_INDEV_TYPE_ENCODER && data.enc_diff) {
 106:lvgl\src\lv_core/lv_indev.c ****             indev_act->driver.disp->last_activity_time = lv_tick_get();
 107:lvgl\src\lv_core/lv_indev.c ****         }
 108:lvgl\src\lv_core/lv_indev.c **** 
 109:lvgl\src\lv_core/lv_indev.c ****         if(indev_act->driver.type == LV_INDEV_TYPE_POINTER) {
 110:lvgl\src\lv_core/lv_indev.c ****             indev_pointer_proc(indev_act, &data);
 111:lvgl\src\lv_core/lv_indev.c ****         }
 112:lvgl\src\lv_core/lv_indev.c ****         else if(indev_act->driver.type == LV_INDEV_TYPE_KEYPAD) {
 113:lvgl\src\lv_core/lv_indev.c ****             indev_keypad_proc(indev_act, &data);
 114:lvgl\src\lv_core/lv_indev.c ****         }
 115:lvgl\src\lv_core/lv_indev.c ****         else if(indev_act->driver.type == LV_INDEV_TYPE_ENCODER) {
 116:lvgl\src\lv_core/lv_indev.c ****             indev_encoder_proc(indev_act, &data);
 117:lvgl\src\lv_core/lv_indev.c ****         }
 118:lvgl\src\lv_core/lv_indev.c ****         else if(indev_act->driver.type == LV_INDEV_TYPE_BUTTON) {
 119:lvgl\src\lv_core/lv_indev.c ****             indev_button_proc(indev_act, &data);
 120:lvgl\src\lv_core/lv_indev.c ****         }
 121:lvgl\src\lv_core/lv_indev.c ****         /*Handle reset query if it happened in during processing*/
 122:lvgl\src\lv_core/lv_indev.c ****         indev_proc_reset_query_handler(indev_act);
 123:lvgl\src\lv_core/lv_indev.c ****     } while(more_to_read);
 124:lvgl\src\lv_core/lv_indev.c **** 
 125:lvgl\src\lv_core/lv_indev.c ****     /*End of indev processing, so no act indev*/
 126:lvgl\src\lv_core/lv_indev.c ****     indev_act     = NULL;
 127:lvgl\src\lv_core/lv_indev.c ****     indev_obj_act = NULL;
 128:lvgl\src\lv_core/lv_indev.c **** 
 129:lvgl\src\lv_core/lv_indev.c ****     LV_LOG_TRACE("indev read task finished");
 130:lvgl\src\lv_core/lv_indev.c **** }
 131:lvgl\src\lv_core/lv_indev.c **** 
 132:lvgl\src\lv_core/lv_indev.c **** /**
 133:lvgl\src\lv_core/lv_indev.c ****  * Get the currently processed input device. Can be used in action functions too.
 134:lvgl\src\lv_core/lv_indev.c ****  * @return pointer to the currently processed input device or NULL if no input device processing
 135:lvgl\src\lv_core/lv_indev.c ****  * right now
 136:lvgl\src\lv_core/lv_indev.c ****  */
 137:lvgl\src\lv_core/lv_indev.c **** lv_indev_t * lv_indev_get_act(void)
 138:lvgl\src\lv_core/lv_indev.c **** {
 139:lvgl\src\lv_core/lv_indev.c ****     return indev_act;
 140:lvgl\src\lv_core/lv_indev.c **** }
 141:lvgl\src\lv_core/lv_indev.c **** 
 142:lvgl\src\lv_core/lv_indev.c **** /**
 143:lvgl\src\lv_core/lv_indev.c ****  * Get the type of an input device
 144:lvgl\src\lv_core/lv_indev.c ****  * @param indev pointer to an input device
 145:lvgl\src\lv_core/lv_indev.c ****  * @return the type of the input device from `lv_hal_indev_type_t` (`LV_INDEV_TYPE_...`)
ARM GAS  C:\Users\strap\AppData\Local\Temp\cc4VwSsz.s 			page 4


 146:lvgl\src\lv_core/lv_indev.c ****  */
 147:lvgl\src\lv_core/lv_indev.c **** lv_indev_type_t lv_indev_get_type(const lv_indev_t * indev)
 148:lvgl\src\lv_core/lv_indev.c **** {
 149:lvgl\src\lv_core/lv_indev.c ****     if(indev == NULL) return LV_INDEV_TYPE_NONE;
 150:lvgl\src\lv_core/lv_indev.c **** 
 151:lvgl\src\lv_core/lv_indev.c ****     return indev->driver.type;
 152:lvgl\src\lv_core/lv_indev.c **** }
 153:lvgl\src\lv_core/lv_indev.c **** 
 154:lvgl\src\lv_core/lv_indev.c **** /**
 155:lvgl\src\lv_core/lv_indev.c ****  * Reset one or all input devices
 156:lvgl\src\lv_core/lv_indev.c ****  * @param indev pointer to an input device to reset or NULL to reset all of them
 157:lvgl\src\lv_core/lv_indev.c ****  * @param obj pointer to an object which triggers the reset.
 158:lvgl\src\lv_core/lv_indev.c ****  */
 159:lvgl\src\lv_core/lv_indev.c **** void lv_indev_reset(lv_indev_t * indev, lv_obj_t * obj)
 160:lvgl\src\lv_core/lv_indev.c **** {
 161:lvgl\src\lv_core/lv_indev.c ****     if(indev) {
 162:lvgl\src\lv_core/lv_indev.c ****         indev->proc.reset_query = 1;
 163:lvgl\src\lv_core/lv_indev.c ****         if(indev_act == indev) indev_obj_act = NULL;
 164:lvgl\src\lv_core/lv_indev.c ****         if(obj == NULL || indev->proc.types.pointer.last_pressed == obj) {
 165:lvgl\src\lv_core/lv_indev.c ****             indev->proc.types.pointer.last_pressed = NULL;
 166:lvgl\src\lv_core/lv_indev.c ****         }
 167:lvgl\src\lv_core/lv_indev.c ****     }
 168:lvgl\src\lv_core/lv_indev.c ****     else {
 169:lvgl\src\lv_core/lv_indev.c ****         lv_indev_t * i = lv_indev_get_next(NULL);
 170:lvgl\src\lv_core/lv_indev.c ****         while(i) {
 171:lvgl\src\lv_core/lv_indev.c ****             i->proc.reset_query = 1;
 172:lvgl\src\lv_core/lv_indev.c ****             if(indev_act == i) indev_obj_act = NULL;
 173:lvgl\src\lv_core/lv_indev.c ****             if(obj == NULL || i->proc.types.pointer.last_pressed == obj) {
 174:lvgl\src\lv_core/lv_indev.c ****                 i->proc.types.pointer.last_pressed = NULL;
 175:lvgl\src\lv_core/lv_indev.c ****             }
 176:lvgl\src\lv_core/lv_indev.c ****             i = lv_indev_get_next(i);
 177:lvgl\src\lv_core/lv_indev.c ****         }
 178:lvgl\src\lv_core/lv_indev.c ****     }
 179:lvgl\src\lv_core/lv_indev.c **** }
 180:lvgl\src\lv_core/lv_indev.c **** 
 181:lvgl\src\lv_core/lv_indev.c **** /**
 182:lvgl\src\lv_core/lv_indev.c ****  * Reset the long press state of an input device
 183:lvgl\src\lv_core/lv_indev.c ****  * @param indev pointer to an input device
 184:lvgl\src\lv_core/lv_indev.c ****  */
 185:lvgl\src\lv_core/lv_indev.c **** void lv_indev_reset_long_press(lv_indev_t * indev)
 186:lvgl\src\lv_core/lv_indev.c **** {
 187:lvgl\src\lv_core/lv_indev.c ****     indev->proc.long_pr_sent         = 0;
 188:lvgl\src\lv_core/lv_indev.c ****     indev->proc.longpr_rep_timestamp = lv_tick_get();
 189:lvgl\src\lv_core/lv_indev.c ****     indev->proc.pr_timestamp         = lv_tick_get();
 190:lvgl\src\lv_core/lv_indev.c **** }
 191:lvgl\src\lv_core/lv_indev.c **** 
 192:lvgl\src\lv_core/lv_indev.c **** /**
 193:lvgl\src\lv_core/lv_indev.c ****  * Enable or disable an input devices
 194:lvgl\src\lv_core/lv_indev.c ****  * @param indev pointer to an input device
 195:lvgl\src\lv_core/lv_indev.c ****  * @param en true: enable; false: disable
 196:lvgl\src\lv_core/lv_indev.c ****  */
 197:lvgl\src\lv_core/lv_indev.c **** void lv_indev_enable(lv_indev_t * indev, bool en)
 198:lvgl\src\lv_core/lv_indev.c **** {
 199:lvgl\src\lv_core/lv_indev.c ****     if(!indev) return;
 200:lvgl\src\lv_core/lv_indev.c **** 
 201:lvgl\src\lv_core/lv_indev.c ****     indev->proc.disabled = en ? 0 : 1;
 202:lvgl\src\lv_core/lv_indev.c **** }
ARM GAS  C:\Users\strap\AppData\Local\Temp\cc4VwSsz.s 			page 5


 203:lvgl\src\lv_core/lv_indev.c **** 
 204:lvgl\src\lv_core/lv_indev.c **** /**
 205:lvgl\src\lv_core/lv_indev.c ****  * Set a cursor for a pointer input device (for LV_INPUT_TYPE_POINTER and LV_INPUT_TYPE_BUTTON)
 206:lvgl\src\lv_core/lv_indev.c ****  * @param indev pointer to an input device
 207:lvgl\src\lv_core/lv_indev.c ****  * @param cur_obj pointer to an object to be used as cursor
 208:lvgl\src\lv_core/lv_indev.c ****  */
 209:lvgl\src\lv_core/lv_indev.c **** void lv_indev_set_cursor(lv_indev_t * indev, lv_obj_t * cur_obj)
 210:lvgl\src\lv_core/lv_indev.c **** {
 211:lvgl\src\lv_core/lv_indev.c ****     if(indev->driver.type != LV_INDEV_TYPE_POINTER) return;
 212:lvgl\src\lv_core/lv_indev.c **** 
 213:lvgl\src\lv_core/lv_indev.c ****     indev->cursor = cur_obj;
 214:lvgl\src\lv_core/lv_indev.c ****     lv_obj_set_parent(indev->cursor, lv_disp_get_layer_sys(indev->driver.disp));
 215:lvgl\src\lv_core/lv_indev.c ****     lv_obj_set_pos(indev->cursor, indev->proc.types.pointer.act_point.x, indev->proc.types.pointer.
 216:lvgl\src\lv_core/lv_indev.c ****     lv_obj_set_click(indev->cursor, false);
 217:lvgl\src\lv_core/lv_indev.c **** }
 218:lvgl\src\lv_core/lv_indev.c **** 
 219:lvgl\src\lv_core/lv_indev.c **** #if LV_USE_GROUP
 220:lvgl\src\lv_core/lv_indev.c **** /**
 221:lvgl\src\lv_core/lv_indev.c ****  * Set a destination group for a keypad input device (for LV_INDEV_TYPE_KEYPAD)
 222:lvgl\src\lv_core/lv_indev.c ****  * @param indev pointer to an input device
 223:lvgl\src\lv_core/lv_indev.c ****  * @param group point to a group
 224:lvgl\src\lv_core/lv_indev.c ****  */
 225:lvgl\src\lv_core/lv_indev.c **** void lv_indev_set_group(lv_indev_t * indev, lv_group_t * group)
 226:lvgl\src\lv_core/lv_indev.c **** {
 227:lvgl\src\lv_core/lv_indev.c ****     if(indev->driver.type == LV_INDEV_TYPE_KEYPAD || indev->driver.type == LV_INDEV_TYPE_ENCODER) {
 228:lvgl\src\lv_core/lv_indev.c ****         indev->group = group;
 229:lvgl\src\lv_core/lv_indev.c ****     }
 230:lvgl\src\lv_core/lv_indev.c **** }
 231:lvgl\src\lv_core/lv_indev.c **** #endif
 232:lvgl\src\lv_core/lv_indev.c **** 
 233:lvgl\src\lv_core/lv_indev.c **** /**
 234:lvgl\src\lv_core/lv_indev.c ****  * Set the an array of points for LV_INDEV_TYPE_BUTTON.
 235:lvgl\src\lv_core/lv_indev.c ****  * These points will be assigned to the buttons to press a specific point on the screen
 236:lvgl\src\lv_core/lv_indev.c ****  * @param indev pointer to an input device
 237:lvgl\src\lv_core/lv_indev.c ****  * @param group point to a group
 238:lvgl\src\lv_core/lv_indev.c ****  */
 239:lvgl\src\lv_core/lv_indev.c **** void lv_indev_set_button_points(lv_indev_t * indev, const lv_point_t points[])
 240:lvgl\src\lv_core/lv_indev.c **** {
 241:lvgl\src\lv_core/lv_indev.c ****     if(indev->driver.type == LV_INDEV_TYPE_BUTTON) {
 242:lvgl\src\lv_core/lv_indev.c ****         indev->btn_points = points;
 243:lvgl\src\lv_core/lv_indev.c ****     }
 244:lvgl\src\lv_core/lv_indev.c **** }
 245:lvgl\src\lv_core/lv_indev.c **** 
 246:lvgl\src\lv_core/lv_indev.c **** /**
 247:lvgl\src\lv_core/lv_indev.c ****  * Get the last point of an input device (for LV_INDEV_TYPE_POINTER and LV_INDEV_TYPE_BUTTON)
 248:lvgl\src\lv_core/lv_indev.c ****  * @param indev pointer to an input device
 249:lvgl\src\lv_core/lv_indev.c ****  * @param point pointer to a point to store the result
 250:lvgl\src\lv_core/lv_indev.c ****  */
 251:lvgl\src\lv_core/lv_indev.c **** void lv_indev_get_point(const lv_indev_t * indev, lv_point_t * point)
 252:lvgl\src\lv_core/lv_indev.c **** {
 253:lvgl\src\lv_core/lv_indev.c ****     if(indev == NULL) {
 254:lvgl\src\lv_core/lv_indev.c ****         point->x = 0;
 255:lvgl\src\lv_core/lv_indev.c ****         point->y = 0;
 256:lvgl\src\lv_core/lv_indev.c ****         return;
 257:lvgl\src\lv_core/lv_indev.c ****     }
 258:lvgl\src\lv_core/lv_indev.c ****     if(indev->driver.type != LV_INDEV_TYPE_POINTER && indev->driver.type != LV_INDEV_TYPE_BUTTON) {
 259:lvgl\src\lv_core/lv_indev.c ****         point->x = -1;
ARM GAS  C:\Users\strap\AppData\Local\Temp\cc4VwSsz.s 			page 6


 260:lvgl\src\lv_core/lv_indev.c ****         point->y = -1;
 261:lvgl\src\lv_core/lv_indev.c ****     }
 262:lvgl\src\lv_core/lv_indev.c ****     else {
 263:lvgl\src\lv_core/lv_indev.c ****         point->x = indev->proc.types.pointer.act_point.x;
 264:lvgl\src\lv_core/lv_indev.c ****         point->y = indev->proc.types.pointer.act_point.y;
 265:lvgl\src\lv_core/lv_indev.c ****     }
 266:lvgl\src\lv_core/lv_indev.c **** }
 267:lvgl\src\lv_core/lv_indev.c **** 
 268:lvgl\src\lv_core/lv_indev.c **** /**
 269:lvgl\src\lv_core/lv_indev.c **** * Get the current gesture direct
 270:lvgl\src\lv_core/lv_indev.c **** * @param indev pointer to an input device
 271:lvgl\src\lv_core/lv_indev.c **** * @return current gesture direct
 272:lvgl\src\lv_core/lv_indev.c **** */
 273:lvgl\src\lv_core/lv_indev.c **** lv_gesture_dir_t lv_indev_get_gesture_dir(const lv_indev_t * indev)
 274:lvgl\src\lv_core/lv_indev.c **** {
 275:lvgl\src\lv_core/lv_indev.c ****     return indev->proc.types.pointer.gesture_dir;
 276:lvgl\src\lv_core/lv_indev.c **** }
 277:lvgl\src\lv_core/lv_indev.c **** 
 278:lvgl\src\lv_core/lv_indev.c **** /**
 279:lvgl\src\lv_core/lv_indev.c ****  * Get the last pressed key of an input device (for LV_INDEV_TYPE_KEYPAD)
 280:lvgl\src\lv_core/lv_indev.c ****  * @param indev pointer to an input device
 281:lvgl\src\lv_core/lv_indev.c ****  * @return the last pressed key (0 on error)
 282:lvgl\src\lv_core/lv_indev.c ****  */
 283:lvgl\src\lv_core/lv_indev.c **** uint32_t lv_indev_get_key(const lv_indev_t * indev)
 284:lvgl\src\lv_core/lv_indev.c **** {
 285:lvgl\src\lv_core/lv_indev.c ****     if(indev->driver.type != LV_INDEV_TYPE_KEYPAD)
 286:lvgl\src\lv_core/lv_indev.c ****         return 0;
 287:lvgl\src\lv_core/lv_indev.c ****     else
 288:lvgl\src\lv_core/lv_indev.c ****         return indev->proc.types.keypad.last_key;
 289:lvgl\src\lv_core/lv_indev.c **** }
 290:lvgl\src\lv_core/lv_indev.c **** 
 291:lvgl\src\lv_core/lv_indev.c **** /**
 292:lvgl\src\lv_core/lv_indev.c ****  * Check if there is dragging with an input device or not (for LV_INDEV_TYPE_POINTER and
 293:lvgl\src\lv_core/lv_indev.c ****  * LV_INDEV_TYPE_BUTTON)
 294:lvgl\src\lv_core/lv_indev.c ****  * @param indev pointer to an input device
 295:lvgl\src\lv_core/lv_indev.c ****  * @return true: drag is in progress
 296:lvgl\src\lv_core/lv_indev.c ****  */
 297:lvgl\src\lv_core/lv_indev.c **** bool lv_indev_is_dragging(const lv_indev_t * indev)
 298:lvgl\src\lv_core/lv_indev.c **** {
 299:lvgl\src\lv_core/lv_indev.c ****     if(indev == NULL) return false;
 300:lvgl\src\lv_core/lv_indev.c ****     if(indev->driver.type != LV_INDEV_TYPE_POINTER && indev->driver.type != LV_INDEV_TYPE_BUTTON) r
 301:lvgl\src\lv_core/lv_indev.c ****     return indev->proc.types.pointer.drag_in_prog == 0 ? false : true;
 302:lvgl\src\lv_core/lv_indev.c **** }
 303:lvgl\src\lv_core/lv_indev.c **** 
 304:lvgl\src\lv_core/lv_indev.c **** /**
 305:lvgl\src\lv_core/lv_indev.c ****  * Get the types.pointer.vector of dragging of an input device (for LV_INDEV_TYPE_POINTER and
 306:lvgl\src\lv_core/lv_indev.c ****  * LV_INDEV_TYPE_BUTTON)
 307:lvgl\src\lv_core/lv_indev.c ****  * @param indev pointer to an input device
 308:lvgl\src\lv_core/lv_indev.c ****  * @param point pointer to a point to store the types.pointer.vector
 309:lvgl\src\lv_core/lv_indev.c ****  */
 310:lvgl\src\lv_core/lv_indev.c **** void lv_indev_get_vect(const lv_indev_t * indev, lv_point_t * point)
 311:lvgl\src\lv_core/lv_indev.c **** {
 312:lvgl\src\lv_core/lv_indev.c ****     if(indev == NULL) {
 313:lvgl\src\lv_core/lv_indev.c ****         point->x = 0;
 314:lvgl\src\lv_core/lv_indev.c ****         point->y = 0;
 315:lvgl\src\lv_core/lv_indev.c ****         return;
 316:lvgl\src\lv_core/lv_indev.c ****     }
ARM GAS  C:\Users\strap\AppData\Local\Temp\cc4VwSsz.s 			page 7


 317:lvgl\src\lv_core/lv_indev.c **** 
 318:lvgl\src\lv_core/lv_indev.c ****     if(indev->driver.type != LV_INDEV_TYPE_POINTER && indev->driver.type != LV_INDEV_TYPE_BUTTON) {
 319:lvgl\src\lv_core/lv_indev.c ****         point->x = 0;
 320:lvgl\src\lv_core/lv_indev.c ****         point->y = 0;
 321:lvgl\src\lv_core/lv_indev.c ****     }
 322:lvgl\src\lv_core/lv_indev.c ****     else {
 323:lvgl\src\lv_core/lv_indev.c ****         point->x = indev->proc.types.pointer.vect.x;
 324:lvgl\src\lv_core/lv_indev.c ****         point->y = indev->proc.types.pointer.vect.y;
 325:lvgl\src\lv_core/lv_indev.c ****     }
 326:lvgl\src\lv_core/lv_indev.c **** }
 327:lvgl\src\lv_core/lv_indev.c **** 
 328:lvgl\src\lv_core/lv_indev.c **** /**
 329:lvgl\src\lv_core/lv_indev.c ****  * Manually finish dragging.
 330:lvgl\src\lv_core/lv_indev.c ****  * `LV_SIGNAL_DRAG_END` and `LV_EVENT_DRAG_END` will be sent.
 331:lvgl\src\lv_core/lv_indev.c ****  * @param indev pointer to an input device
 332:lvgl\src\lv_core/lv_indev.c ****  * @return `LV_RES_INV` if the object being dragged was deleted. Else `LV_RES_OK`.
 333:lvgl\src\lv_core/lv_indev.c ****  */
 334:lvgl\src\lv_core/lv_indev.c **** lv_res_t lv_indev_finish_drag(lv_indev_t * indev)
 335:lvgl\src\lv_core/lv_indev.c **** {
 336:lvgl\src\lv_core/lv_indev.c ****     if(indev == NULL) return LV_RES_OK;
 337:lvgl\src\lv_core/lv_indev.c ****     if(indev->driver.type != LV_INDEV_TYPE_POINTER) return LV_RES_OK;
 338:lvgl\src\lv_core/lv_indev.c ****     if(indev->proc.types.pointer.drag_in_prog == 0) return LV_RES_OK;
 339:lvgl\src\lv_core/lv_indev.c **** 
 340:lvgl\src\lv_core/lv_indev.c ****     indev->proc.types.pointer.drag_in_prog = 0;
 341:lvgl\src\lv_core/lv_indev.c ****     indev->proc.types.pointer.drag_throw_vect.x = 0;
 342:lvgl\src\lv_core/lv_indev.c ****     indev->proc.types.pointer.drag_throw_vect.y = 0;
 343:lvgl\src\lv_core/lv_indev.c **** 
 344:lvgl\src\lv_core/lv_indev.c ****     lv_obj_t * drag_obj;
 345:lvgl\src\lv_core/lv_indev.c ****     drag_obj = get_dragged_obj(indev->proc.types.pointer.act_obj);
 346:lvgl\src\lv_core/lv_indev.c ****     if(drag_obj == NULL) return LV_RES_OK;
 347:lvgl\src\lv_core/lv_indev.c **** 
 348:lvgl\src\lv_core/lv_indev.c ****     lv_res_t res;
 349:lvgl\src\lv_core/lv_indev.c ****     res = drag_obj->signal_cb(drag_obj, LV_SIGNAL_DRAG_END, NULL);
 350:lvgl\src\lv_core/lv_indev.c ****     if(res != LV_RES_OK) return res;
 351:lvgl\src\lv_core/lv_indev.c **** 
 352:lvgl\src\lv_core/lv_indev.c ****     res = lv_event_send(drag_obj, LV_EVENT_DRAG_END, NULL);
 353:lvgl\src\lv_core/lv_indev.c ****     if(res != LV_RES_OK) return res;
 354:lvgl\src\lv_core/lv_indev.c **** 
 355:lvgl\src\lv_core/lv_indev.c ****     return res;
 356:lvgl\src\lv_core/lv_indev.c **** }
 357:lvgl\src\lv_core/lv_indev.c **** 
 358:lvgl\src\lv_core/lv_indev.c **** /**
 359:lvgl\src\lv_core/lv_indev.c ****  * Do nothing until the next release
 360:lvgl\src\lv_core/lv_indev.c ****  * @param indev pointer to an input device
 361:lvgl\src\lv_core/lv_indev.c ****  */
 362:lvgl\src\lv_core/lv_indev.c **** void lv_indev_wait_release(lv_indev_t * indev)
 363:lvgl\src\lv_core/lv_indev.c **** {
 364:lvgl\src\lv_core/lv_indev.c ****     if(indev == NULL)return;
 365:lvgl\src\lv_core/lv_indev.c ****     indev->proc.wait_until_release = 1;
 366:lvgl\src\lv_core/lv_indev.c **** }
 367:lvgl\src\lv_core/lv_indev.c **** 
 368:lvgl\src\lv_core/lv_indev.c **** /**
 369:lvgl\src\lv_core/lv_indev.c ****  * Gets a pointer to the currently active object in the currently processed input device.
 370:lvgl\src\lv_core/lv_indev.c ****  * @return pointer to currently active object or NULL if no active object
 371:lvgl\src\lv_core/lv_indev.c ****  */
 372:lvgl\src\lv_core/lv_indev.c **** lv_obj_t * lv_indev_get_obj_act(void)
 373:lvgl\src\lv_core/lv_indev.c **** {
ARM GAS  C:\Users\strap\AppData\Local\Temp\cc4VwSsz.s 			page 8


 374:lvgl\src\lv_core/lv_indev.c ****     return indev_obj_act;
 375:lvgl\src\lv_core/lv_indev.c **** }
 376:lvgl\src\lv_core/lv_indev.c **** 
 377:lvgl\src\lv_core/lv_indev.c **** /**
 378:lvgl\src\lv_core/lv_indev.c ****  * Get a pointer to the indev read task to
 379:lvgl\src\lv_core/lv_indev.c ****  * modify its parameters with `lv_task_...` functions.
 380:lvgl\src\lv_core/lv_indev.c ****  * @param indev pointer to an input device
 381:lvgl\src\lv_core/lv_indev.c ****  * @return pointer to the indev read refresher task. (NULL on error)
 382:lvgl\src\lv_core/lv_indev.c ****  */
 383:lvgl\src\lv_core/lv_indev.c **** lv_task_t * lv_indev_get_read_task(lv_disp_t * indev)
 384:lvgl\src\lv_core/lv_indev.c **** {
 385:lvgl\src\lv_core/lv_indev.c ****     if(!indev) {
 386:lvgl\src\lv_core/lv_indev.c ****         LV_LOG_WARN("lv_indev_get_read_task: indev was NULL");
 387:lvgl\src\lv_core/lv_indev.c ****         return NULL;
 388:lvgl\src\lv_core/lv_indev.c ****     }
 389:lvgl\src\lv_core/lv_indev.c **** 
 390:lvgl\src\lv_core/lv_indev.c ****     return indev->refr_task;
 391:lvgl\src\lv_core/lv_indev.c **** }
 392:lvgl\src\lv_core/lv_indev.c **** 
 393:lvgl\src\lv_core/lv_indev.c **** /**********************
 394:lvgl\src\lv_core/lv_indev.c ****  *   STATIC FUNCTIONS
 395:lvgl\src\lv_core/lv_indev.c ****  **********************/
 396:lvgl\src\lv_core/lv_indev.c **** 
 397:lvgl\src\lv_core/lv_indev.c **** /**
 398:lvgl\src\lv_core/lv_indev.c ****  * Process a new point from LV_INDEV_TYPE_POINTER input device
 399:lvgl\src\lv_core/lv_indev.c ****  * @param i pointer to an input device
 400:lvgl\src\lv_core/lv_indev.c ****  * @param data pointer to the data read from the input device
 401:lvgl\src\lv_core/lv_indev.c ****  */
 402:lvgl\src\lv_core/lv_indev.c **** static void indev_pointer_proc(lv_indev_t * i, lv_indev_data_t * data)
 403:lvgl\src\lv_core/lv_indev.c **** {
 404:lvgl\src\lv_core/lv_indev.c ****     /*Move the cursor if set and moved*/
 405:lvgl\src\lv_core/lv_indev.c ****     if(i->cursor != NULL &&
 406:lvgl\src\lv_core/lv_indev.c ****        (i->proc.types.pointer.last_point.x != data->point.x || i->proc.types.pointer.last_point.y !
 407:lvgl\src\lv_core/lv_indev.c ****         lv_obj_set_pos(i->cursor, data->point.x, data->point.y);
 408:lvgl\src\lv_core/lv_indev.c ****     }
 409:lvgl\src\lv_core/lv_indev.c **** 
 410:lvgl\src\lv_core/lv_indev.c ****     i->proc.types.pointer.act_point.x = data->point.x;
 411:lvgl\src\lv_core/lv_indev.c ****     i->proc.types.pointer.act_point.y = data->point.y;
 412:lvgl\src\lv_core/lv_indev.c **** 
 413:lvgl\src\lv_core/lv_indev.c ****     if(i->proc.state == LV_INDEV_STATE_PR) {
 414:lvgl\src\lv_core/lv_indev.c ****         indev_proc_press(&i->proc);
 415:lvgl\src\lv_core/lv_indev.c ****     }
 416:lvgl\src\lv_core/lv_indev.c ****     else {
 417:lvgl\src\lv_core/lv_indev.c ****         indev_proc_release(&i->proc);
 418:lvgl\src\lv_core/lv_indev.c ****     }
 419:lvgl\src\lv_core/lv_indev.c **** 
 420:lvgl\src\lv_core/lv_indev.c ****     i->proc.types.pointer.last_point.x = i->proc.types.pointer.act_point.x;
 421:lvgl\src\lv_core/lv_indev.c ****     i->proc.types.pointer.last_point.y = i->proc.types.pointer.act_point.y;
 422:lvgl\src\lv_core/lv_indev.c **** }
 423:lvgl\src\lv_core/lv_indev.c **** 
 424:lvgl\src\lv_core/lv_indev.c **** /**
 425:lvgl\src\lv_core/lv_indev.c ****  * Process a new point from LV_INDEV_TYPE_KEYPAD input device
 426:lvgl\src\lv_core/lv_indev.c ****  * @param i pointer to an input device
 427:lvgl\src\lv_core/lv_indev.c ****  * @param data pointer to the data read from the input device
 428:lvgl\src\lv_core/lv_indev.c ****  */
 429:lvgl\src\lv_core/lv_indev.c **** static void indev_keypad_proc(lv_indev_t * i, lv_indev_data_t * data)
 430:lvgl\src\lv_core/lv_indev.c **** {
ARM GAS  C:\Users\strap\AppData\Local\Temp\cc4VwSsz.s 			page 9


 431:lvgl\src\lv_core/lv_indev.c **** #if LV_USE_GROUP
 432:lvgl\src\lv_core/lv_indev.c ****     if(data->state == LV_INDEV_STATE_PR && i->proc.wait_until_release) return;
 433:lvgl\src\lv_core/lv_indev.c **** 
 434:lvgl\src\lv_core/lv_indev.c ****     if(i->proc.wait_until_release) {
 435:lvgl\src\lv_core/lv_indev.c ****         i->proc.wait_until_release      = 0;
 436:lvgl\src\lv_core/lv_indev.c ****         i->proc.pr_timestamp            = 0;
 437:lvgl\src\lv_core/lv_indev.c ****         i->proc.long_pr_sent            = 0;
 438:lvgl\src\lv_core/lv_indev.c ****         i->proc.types.keypad.last_state = LV_INDEV_STATE_REL; /*To skip the processing of release*/
 439:lvgl\src\lv_core/lv_indev.c ****     }
 440:lvgl\src\lv_core/lv_indev.c **** 
 441:lvgl\src\lv_core/lv_indev.c ****     lv_group_t * g = i->group;
 442:lvgl\src\lv_core/lv_indev.c ****     if(g == NULL) return;
 443:lvgl\src\lv_core/lv_indev.c **** 
 444:lvgl\src\lv_core/lv_indev.c ****     indev_obj_act = lv_group_get_focused(g);
 445:lvgl\src\lv_core/lv_indev.c ****     if(indev_obj_act == NULL) return;
 446:lvgl\src\lv_core/lv_indev.c **** 
 447:lvgl\src\lv_core/lv_indev.c ****     /*Save the last key to compare it with the current latter on RELEASE*/
 448:lvgl\src\lv_core/lv_indev.c ****     uint32_t prev_key = i->proc.types.keypad.last_key;
 449:lvgl\src\lv_core/lv_indev.c **** 
 450:lvgl\src\lv_core/lv_indev.c ****     /* Save the last key.
 451:lvgl\src\lv_core/lv_indev.c ****      * It must be done here else `lv_indev_get_key` will return the last key in events and signals*
 452:lvgl\src\lv_core/lv_indev.c ****     i->proc.types.keypad.last_key = data->key;
 453:lvgl\src\lv_core/lv_indev.c **** 
 454:lvgl\src\lv_core/lv_indev.c ****     /* Save the previous state so we can detect state changes below and also set the last state now
 455:lvgl\src\lv_core/lv_indev.c ****      * so if any signal/event handler on the way returns `LV_RES_INV` the last state is remembered
 456:lvgl\src\lv_core/lv_indev.c ****      * for the next time*/
 457:lvgl\src\lv_core/lv_indev.c ****     uint32_t prev_state             = i->proc.types.keypad.last_state;
 458:lvgl\src\lv_core/lv_indev.c ****     i->proc.types.keypad.last_state = data->state;
 459:lvgl\src\lv_core/lv_indev.c **** 
 460:lvgl\src\lv_core/lv_indev.c ****     /*Key press happened*/
 461:lvgl\src\lv_core/lv_indev.c ****     if(data->state == LV_INDEV_STATE_PR && prev_state == LV_INDEV_STATE_REL) {
 462:lvgl\src\lv_core/lv_indev.c ****         i->proc.pr_timestamp = lv_tick_get();
 463:lvgl\src\lv_core/lv_indev.c **** 
 464:lvgl\src\lv_core/lv_indev.c ****         /*Simulate a press on the object if ENTER was pressed*/
 465:lvgl\src\lv_core/lv_indev.c ****         if(data->key == LV_KEY_ENTER) {
 466:lvgl\src\lv_core/lv_indev.c ****             /*Send the ENTER as a normal KEY*/
 467:lvgl\src\lv_core/lv_indev.c ****             lv_group_send_data(g, LV_KEY_ENTER);
 468:lvgl\src\lv_core/lv_indev.c **** 
 469:lvgl\src\lv_core/lv_indev.c ****             indev_obj_act->signal_cb(indev_obj_act, LV_SIGNAL_PRESSED, NULL);
 470:lvgl\src\lv_core/lv_indev.c ****             if(indev_reset_check(&i->proc)) return;
 471:lvgl\src\lv_core/lv_indev.c ****             lv_event_send(indev_obj_act, LV_EVENT_PRESSED, NULL);
 472:lvgl\src\lv_core/lv_indev.c ****             if(indev_reset_check(&i->proc)) return;
 473:lvgl\src\lv_core/lv_indev.c ****         }
 474:lvgl\src\lv_core/lv_indev.c ****         else if(data->key == LV_KEY_ESC) {
 475:lvgl\src\lv_core/lv_indev.c ****             /*Send the ESC as a normal KEY*/
 476:lvgl\src\lv_core/lv_indev.c ****             lv_group_send_data(g, LV_KEY_ESC);
 477:lvgl\src\lv_core/lv_indev.c **** 
 478:lvgl\src\lv_core/lv_indev.c ****             lv_event_send(indev_obj_act, LV_EVENT_CANCEL, NULL);
 479:lvgl\src\lv_core/lv_indev.c ****             if(indev_reset_check(&i->proc)) return;
 480:lvgl\src\lv_core/lv_indev.c ****         }
 481:lvgl\src\lv_core/lv_indev.c ****         /*Move the focus on NEXT*/
 482:lvgl\src\lv_core/lv_indev.c ****         else if(data->key == LV_KEY_NEXT) {
 483:lvgl\src\lv_core/lv_indev.c ****             lv_group_set_editing(g, false); /*Editing is not used by KEYPAD is be sure it is disabl
 484:lvgl\src\lv_core/lv_indev.c ****             lv_group_focus_next(g);
 485:lvgl\src\lv_core/lv_indev.c ****             if(indev_reset_check(&i->proc)) return;
 486:lvgl\src\lv_core/lv_indev.c ****         }
 487:lvgl\src\lv_core/lv_indev.c ****         /*Move the focus on PREV*/
ARM GAS  C:\Users\strap\AppData\Local\Temp\cc4VwSsz.s 			page 10


 488:lvgl\src\lv_core/lv_indev.c ****         else if(data->key == LV_KEY_PREV) {
 489:lvgl\src\lv_core/lv_indev.c ****             lv_group_set_editing(g, false); /*Editing is not used by KEYPAD is be sure it is disabl
 490:lvgl\src\lv_core/lv_indev.c ****             lv_group_focus_prev(g);
 491:lvgl\src\lv_core/lv_indev.c ****             if(indev_reset_check(&i->proc)) return;
 492:lvgl\src\lv_core/lv_indev.c ****         }
 493:lvgl\src\lv_core/lv_indev.c ****         /*Just send other keys to the object (e.g. 'A' or `LV_GROUP_KEY_RIGHT`)*/
 494:lvgl\src\lv_core/lv_indev.c ****         else {
 495:lvgl\src\lv_core/lv_indev.c ****             lv_group_send_data(g, data->key);
 496:lvgl\src\lv_core/lv_indev.c ****         }
 497:lvgl\src\lv_core/lv_indev.c ****     }
 498:lvgl\src\lv_core/lv_indev.c ****     /*Pressing*/
 499:lvgl\src\lv_core/lv_indev.c ****     else if(data->state == LV_INDEV_STATE_PR && prev_state == LV_INDEV_STATE_PR) {
 500:lvgl\src\lv_core/lv_indev.c **** 
 501:lvgl\src\lv_core/lv_indev.c ****         if(data->key == LV_KEY_ENTER) {
 502:lvgl\src\lv_core/lv_indev.c ****             indev_obj_act->signal_cb(indev_obj_act, LV_SIGNAL_PRESSING, NULL);
 503:lvgl\src\lv_core/lv_indev.c ****             if(indev_reset_check(&i->proc)) return;
 504:lvgl\src\lv_core/lv_indev.c ****             lv_event_send(indev_obj_act, LV_EVENT_PRESSING, NULL);
 505:lvgl\src\lv_core/lv_indev.c ****             if(indev_reset_check(&i->proc)) return;
 506:lvgl\src\lv_core/lv_indev.c ****         }
 507:lvgl\src\lv_core/lv_indev.c **** 
 508:lvgl\src\lv_core/lv_indev.c ****         /*Long press time has elapsed?*/
 509:lvgl\src\lv_core/lv_indev.c ****         if(i->proc.long_pr_sent == 0 && lv_tick_elaps(i->proc.pr_timestamp) > i->driver.long_press_
 510:lvgl\src\lv_core/lv_indev.c ****             i->proc.long_pr_sent = 1;
 511:lvgl\src\lv_core/lv_indev.c ****             if(data->key == LV_KEY_ENTER) {
 512:lvgl\src\lv_core/lv_indev.c ****                 i->proc.longpr_rep_timestamp = lv_tick_get();
 513:lvgl\src\lv_core/lv_indev.c ****                 indev_obj_act->signal_cb(indev_obj_act, LV_SIGNAL_LONG_PRESS, NULL);
 514:lvgl\src\lv_core/lv_indev.c ****                 if(indev_reset_check(&i->proc)) return;
 515:lvgl\src\lv_core/lv_indev.c ****                 lv_event_send(indev_obj_act, LV_EVENT_LONG_PRESSED, NULL);
 516:lvgl\src\lv_core/lv_indev.c ****                 if(indev_reset_check(&i->proc)) return;
 517:lvgl\src\lv_core/lv_indev.c ****             }
 518:lvgl\src\lv_core/lv_indev.c ****         }
 519:lvgl\src\lv_core/lv_indev.c ****         /*Long press repeated time has elapsed?*/
 520:lvgl\src\lv_core/lv_indev.c ****         else if(i->proc.long_pr_sent != 0 &&
 521:lvgl\src\lv_core/lv_indev.c ****                 lv_tick_elaps(i->proc.longpr_rep_timestamp) > i->driver.long_press_rep_time) {
 522:lvgl\src\lv_core/lv_indev.c **** 
 523:lvgl\src\lv_core/lv_indev.c ****             i->proc.longpr_rep_timestamp = lv_tick_get();
 524:lvgl\src\lv_core/lv_indev.c **** 
 525:lvgl\src\lv_core/lv_indev.c ****             /*Send LONG_PRESS_REP on ENTER*/
 526:lvgl\src\lv_core/lv_indev.c ****             if(data->key == LV_KEY_ENTER) {
 527:lvgl\src\lv_core/lv_indev.c ****                 indev_obj_act->signal_cb(indev_obj_act, LV_SIGNAL_LONG_PRESS_REP, NULL);
 528:lvgl\src\lv_core/lv_indev.c ****                 if(indev_reset_check(&i->proc)) return;
 529:lvgl\src\lv_core/lv_indev.c ****                 lv_event_send(indev_obj_act, LV_EVENT_LONG_PRESSED_REPEAT, NULL);
 530:lvgl\src\lv_core/lv_indev.c ****                 if(indev_reset_check(&i->proc)) return;
 531:lvgl\src\lv_core/lv_indev.c ****             }
 532:lvgl\src\lv_core/lv_indev.c ****             /*Move the focus on NEXT again*/
 533:lvgl\src\lv_core/lv_indev.c ****             else if(data->key == LV_KEY_NEXT) {
 534:lvgl\src\lv_core/lv_indev.c ****                 lv_group_set_editing(g, false); /*Editing is not used by KEYPAD is be sure it is di
 535:lvgl\src\lv_core/lv_indev.c ****                 lv_group_focus_next(g);
 536:lvgl\src\lv_core/lv_indev.c ****                 if(indev_reset_check(&i->proc)) return;
 537:lvgl\src\lv_core/lv_indev.c ****             }
 538:lvgl\src\lv_core/lv_indev.c ****             /*Move the focus on PREV again*/
 539:lvgl\src\lv_core/lv_indev.c ****             else if(data->key == LV_KEY_PREV) {
 540:lvgl\src\lv_core/lv_indev.c ****                 lv_group_set_editing(g, false); /*Editing is not used by KEYPAD is be sure it is di
 541:lvgl\src\lv_core/lv_indev.c ****                 lv_group_focus_prev(g);
 542:lvgl\src\lv_core/lv_indev.c ****                 if(indev_reset_check(&i->proc)) return;
 543:lvgl\src\lv_core/lv_indev.c ****             }
 544:lvgl\src\lv_core/lv_indev.c ****             /*Just send other keys again to the object (e.g. 'A' or `LV_GORUP_KEY_RIGHT)*/
ARM GAS  C:\Users\strap\AppData\Local\Temp\cc4VwSsz.s 			page 11


 545:lvgl\src\lv_core/lv_indev.c ****             else {
 546:lvgl\src\lv_core/lv_indev.c ****                 lv_group_send_data(g, data->key);
 547:lvgl\src\lv_core/lv_indev.c ****                 if(indev_reset_check(&i->proc)) return;
 548:lvgl\src\lv_core/lv_indev.c ****             }
 549:lvgl\src\lv_core/lv_indev.c ****         }
 550:lvgl\src\lv_core/lv_indev.c ****     }
 551:lvgl\src\lv_core/lv_indev.c ****     /*Release happened*/
 552:lvgl\src\lv_core/lv_indev.c ****     else if(data->state == LV_INDEV_STATE_REL && prev_state == LV_INDEV_STATE_PR) {
 553:lvgl\src\lv_core/lv_indev.c ****         /*The user might clear the key when it was released. Always release the pressed key*/
 554:lvgl\src\lv_core/lv_indev.c ****         data->key = prev_key;
 555:lvgl\src\lv_core/lv_indev.c ****         if(data->key == LV_KEY_ENTER) {
 556:lvgl\src\lv_core/lv_indev.c **** 
 557:lvgl\src\lv_core/lv_indev.c ****             indev_obj_act->signal_cb(indev_obj_act, LV_SIGNAL_RELEASED, NULL);
 558:lvgl\src\lv_core/lv_indev.c ****             if(indev_reset_check(&i->proc)) return;
 559:lvgl\src\lv_core/lv_indev.c **** 
 560:lvgl\src\lv_core/lv_indev.c ****             if(i->proc.long_pr_sent == 0) {
 561:lvgl\src\lv_core/lv_indev.c ****                 lv_event_send(indev_obj_act, LV_EVENT_SHORT_CLICKED, NULL);
 562:lvgl\src\lv_core/lv_indev.c ****                 if(indev_reset_check(&i->proc)) return;
 563:lvgl\src\lv_core/lv_indev.c ****             }
 564:lvgl\src\lv_core/lv_indev.c **** 
 565:lvgl\src\lv_core/lv_indev.c ****             lv_event_send(indev_obj_act, LV_EVENT_CLICKED, NULL);
 566:lvgl\src\lv_core/lv_indev.c ****             if(indev_reset_check(&i->proc)) return;
 567:lvgl\src\lv_core/lv_indev.c **** 
 568:lvgl\src\lv_core/lv_indev.c ****             lv_event_send(indev_obj_act, LV_EVENT_RELEASED, NULL);
 569:lvgl\src\lv_core/lv_indev.c ****             if(indev_reset_check(&i->proc)) return;
 570:lvgl\src\lv_core/lv_indev.c ****         }
 571:lvgl\src\lv_core/lv_indev.c ****         i->proc.pr_timestamp = 0;
 572:lvgl\src\lv_core/lv_indev.c ****         i->proc.long_pr_sent = 0;
 573:lvgl\src\lv_core/lv_indev.c ****     }
 574:lvgl\src\lv_core/lv_indev.c ****     indev_obj_act = NULL;
 575:lvgl\src\lv_core/lv_indev.c **** #else
 576:lvgl\src\lv_core/lv_indev.c ****     (void)data; /*Unused*/
 577:lvgl\src\lv_core/lv_indev.c ****     (void)i;    /*Unused*/
 578:lvgl\src\lv_core/lv_indev.c **** #endif
 579:lvgl\src\lv_core/lv_indev.c **** }
 580:lvgl\src\lv_core/lv_indev.c **** 
 581:lvgl\src\lv_core/lv_indev.c **** /**
 582:lvgl\src\lv_core/lv_indev.c ****  * Process a new point from LV_INDEV_TYPE_ENCODER input device
 583:lvgl\src\lv_core/lv_indev.c ****  * @param i pointer to an input device
 584:lvgl\src\lv_core/lv_indev.c ****  * @param data pointer to the data read from the input device
 585:lvgl\src\lv_core/lv_indev.c ****  */
 586:lvgl\src\lv_core/lv_indev.c **** static void indev_encoder_proc(lv_indev_t * i, lv_indev_data_t * data)
 587:lvgl\src\lv_core/lv_indev.c **** {
 588:lvgl\src\lv_core/lv_indev.c **** #if LV_USE_GROUP
 589:lvgl\src\lv_core/lv_indev.c **** 
 590:lvgl\src\lv_core/lv_indev.c ****     if(data->state == LV_INDEV_STATE_PR && i->proc.wait_until_release) return;
 591:lvgl\src\lv_core/lv_indev.c **** 
 592:lvgl\src\lv_core/lv_indev.c ****     if(i->proc.wait_until_release) {
 593:lvgl\src\lv_core/lv_indev.c ****         i->proc.wait_until_release      = 0;
 594:lvgl\src\lv_core/lv_indev.c ****         i->proc.pr_timestamp            = 0;
 595:lvgl\src\lv_core/lv_indev.c ****         i->proc.long_pr_sent            = 0;
 596:lvgl\src\lv_core/lv_indev.c ****         i->proc.types.keypad.last_state = LV_INDEV_STATE_REL; /*To skip the processing of release*/
 597:lvgl\src\lv_core/lv_indev.c ****     }
 598:lvgl\src\lv_core/lv_indev.c **** 
 599:lvgl\src\lv_core/lv_indev.c ****     /* Save the last keys before anything else.
 600:lvgl\src\lv_core/lv_indev.c ****      * They need to be already saved if the the function returns for any reason*/
 601:lvgl\src\lv_core/lv_indev.c ****     lv_indev_state_t last_state     = i->proc.types.keypad.last_state;
ARM GAS  C:\Users\strap\AppData\Local\Temp\cc4VwSsz.s 			page 12


 602:lvgl\src\lv_core/lv_indev.c ****     i->proc.types.keypad.last_state = data->state;
 603:lvgl\src\lv_core/lv_indev.c ****     i->proc.types.keypad.last_key   = data->key;
 604:lvgl\src\lv_core/lv_indev.c **** 
 605:lvgl\src\lv_core/lv_indev.c ****     lv_group_t * g = i->group;
 606:lvgl\src\lv_core/lv_indev.c ****     if(g == NULL) return;
 607:lvgl\src\lv_core/lv_indev.c **** 
 608:lvgl\src\lv_core/lv_indev.c ****     indev_obj_act = lv_group_get_focused(g);
 609:lvgl\src\lv_core/lv_indev.c ****     if(indev_obj_act == NULL) return;
 610:lvgl\src\lv_core/lv_indev.c **** 
 611:lvgl\src\lv_core/lv_indev.c ****     /*Process the steps they are valid only with released button*/
 612:lvgl\src\lv_core/lv_indev.c ****     if(data->state != LV_INDEV_STATE_REL) {
 613:lvgl\src\lv_core/lv_indev.c ****         data->enc_diff = 0;
 614:lvgl\src\lv_core/lv_indev.c ****     }
 615:lvgl\src\lv_core/lv_indev.c **** 
 616:lvgl\src\lv_core/lv_indev.c ****     /*Refresh the focused object. It might change due to lv_group_focus_prev/next*/
 617:lvgl\src\lv_core/lv_indev.c ****     indev_obj_act = lv_group_get_focused(g);
 618:lvgl\src\lv_core/lv_indev.c ****     if(indev_obj_act == NULL) return;
 619:lvgl\src\lv_core/lv_indev.c **** 
 620:lvgl\src\lv_core/lv_indev.c ****     /*Button press happened*/
 621:lvgl\src\lv_core/lv_indev.c ****     if(data->state == LV_INDEV_STATE_PR && last_state == LV_INDEV_STATE_REL) {
 622:lvgl\src\lv_core/lv_indev.c **** 
 623:lvgl\src\lv_core/lv_indev.c ****         i->proc.pr_timestamp = lv_tick_get();
 624:lvgl\src\lv_core/lv_indev.c **** 
 625:lvgl\src\lv_core/lv_indev.c ****         if(data->key == LV_KEY_ENTER) {
 626:lvgl\src\lv_core/lv_indev.c ****             bool editable = false;
 627:lvgl\src\lv_core/lv_indev.c ****             indev_obj_act->signal_cb(indev_obj_act, LV_SIGNAL_GET_EDITABLE, &editable);
 628:lvgl\src\lv_core/lv_indev.c **** 
 629:lvgl\src\lv_core/lv_indev.c ****             if(lv_group_get_editing(g) == true || editable == false) {
 630:lvgl\src\lv_core/lv_indev.c ****                 indev_obj_act->signal_cb(indev_obj_act, LV_SIGNAL_PRESSED, NULL);
 631:lvgl\src\lv_core/lv_indev.c ****                 if(indev_reset_check(&i->proc)) return;
 632:lvgl\src\lv_core/lv_indev.c **** 
 633:lvgl\src\lv_core/lv_indev.c ****                 lv_event_send(indev_obj_act, LV_EVENT_PRESSED, NULL);
 634:lvgl\src\lv_core/lv_indev.c ****                 if(indev_reset_check(&i->proc)) return;
 635:lvgl\src\lv_core/lv_indev.c ****             }
 636:lvgl\src\lv_core/lv_indev.c ****         }
 637:lvgl\src\lv_core/lv_indev.c ****         else if(data->key == LV_KEY_LEFT) {
 638:lvgl\src\lv_core/lv_indev.c ****             /*emulate encoder left*/
 639:lvgl\src\lv_core/lv_indev.c ****             data->enc_diff--;
 640:lvgl\src\lv_core/lv_indev.c ****         }
 641:lvgl\src\lv_core/lv_indev.c ****         else if(data->key == LV_KEY_RIGHT) {
 642:lvgl\src\lv_core/lv_indev.c ****             /*emulate encoder right*/
 643:lvgl\src\lv_core/lv_indev.c ****             data->enc_diff++;
 644:lvgl\src\lv_core/lv_indev.c ****         }
 645:lvgl\src\lv_core/lv_indev.c ****         else if(data->key == LV_KEY_ESC) {
 646:lvgl\src\lv_core/lv_indev.c ****             /*Send the ESC as a normal KEY*/
 647:lvgl\src\lv_core/lv_indev.c ****             lv_group_send_data(g, LV_KEY_ESC);
 648:lvgl\src\lv_core/lv_indev.c **** 
 649:lvgl\src\lv_core/lv_indev.c ****             lv_event_send(indev_obj_act, LV_EVENT_CANCEL, NULL);
 650:lvgl\src\lv_core/lv_indev.c ****             if(indev_reset_check(&i->proc)) return;
 651:lvgl\src\lv_core/lv_indev.c ****         }
 652:lvgl\src\lv_core/lv_indev.c ****         /*Just send other keys to the object (e.g. 'A' or `LV_GROUP_KEY_RIGHT`)*/
 653:lvgl\src\lv_core/lv_indev.c ****         else {
 654:lvgl\src\lv_core/lv_indev.c ****             lv_group_send_data(g, data->key);
 655:lvgl\src\lv_core/lv_indev.c ****         }
 656:lvgl\src\lv_core/lv_indev.c ****     }
 657:lvgl\src\lv_core/lv_indev.c ****     /*Pressing*/
 658:lvgl\src\lv_core/lv_indev.c ****     else if(data->state == LV_INDEV_STATE_PR && last_state == LV_INDEV_STATE_PR) {
ARM GAS  C:\Users\strap\AppData\Local\Temp\cc4VwSsz.s 			page 13


 659:lvgl\src\lv_core/lv_indev.c ****         /* Long press*/
 660:lvgl\src\lv_core/lv_indev.c ****         if(i->proc.long_pr_sent == 0 && lv_tick_elaps(i->proc.pr_timestamp) > i->driver.long_press_
 661:lvgl\src\lv_core/lv_indev.c **** 
 662:lvgl\src\lv_core/lv_indev.c ****             i->proc.long_pr_sent = 1;
 663:lvgl\src\lv_core/lv_indev.c ****             i->proc.longpr_rep_timestamp = lv_tick_get();
 664:lvgl\src\lv_core/lv_indev.c **** 
 665:lvgl\src\lv_core/lv_indev.c ****             if(data->key == LV_KEY_ENTER) {
 666:lvgl\src\lv_core/lv_indev.c ****                 bool editable = false;
 667:lvgl\src\lv_core/lv_indev.c ****                 indev_obj_act->signal_cb(indev_obj_act, LV_SIGNAL_GET_EDITABLE, &editable);
 668:lvgl\src\lv_core/lv_indev.c **** 
 669:lvgl\src\lv_core/lv_indev.c ****                 /*On enter long press toggle edit mode.*/
 670:lvgl\src\lv_core/lv_indev.c ****                 if(editable) {
 671:lvgl\src\lv_core/lv_indev.c ****                     /*Don't leave edit mode if there is only one object (nowhere to navigate)*/
 672:lvgl\src\lv_core/lv_indev.c ****                     if(_lv_ll_is_empty(&g->obj_ll) == false) {
 673:lvgl\src\lv_core/lv_indev.c ****                         lv_group_set_editing(g, lv_group_get_editing(g) ? false : true); /*Toggle e
 674:lvgl\src\lv_core/lv_indev.c ****                     }
 675:lvgl\src\lv_core/lv_indev.c ****                 }
 676:lvgl\src\lv_core/lv_indev.c ****                 /*If not editable then just send a long press signal*/
 677:lvgl\src\lv_core/lv_indev.c ****                 else {
 678:lvgl\src\lv_core/lv_indev.c ****                     indev_obj_act->signal_cb(indev_obj_act, LV_SIGNAL_LONG_PRESS, NULL);
 679:lvgl\src\lv_core/lv_indev.c ****                     if(indev_reset_check(&i->proc)) return;
 680:lvgl\src\lv_core/lv_indev.c ****                     lv_event_send(indev_obj_act, LV_EVENT_LONG_PRESSED, NULL);
 681:lvgl\src\lv_core/lv_indev.c ****                     if(indev_reset_check(&i->proc)) return;
 682:lvgl\src\lv_core/lv_indev.c ****                 }
 683:lvgl\src\lv_core/lv_indev.c ****             }
 684:lvgl\src\lv_core/lv_indev.c **** 
 685:lvgl\src\lv_core/lv_indev.c ****             i->proc.long_pr_sent = 1;
 686:lvgl\src\lv_core/lv_indev.c ****         }
 687:lvgl\src\lv_core/lv_indev.c ****         /*Long press repeated time has elapsed?*/
 688:lvgl\src\lv_core/lv_indev.c ****         else if(i->proc.long_pr_sent != 0 && lv_tick_elaps(i->proc.longpr_rep_timestamp) > i->drive
 689:lvgl\src\lv_core/lv_indev.c **** 
 690:lvgl\src\lv_core/lv_indev.c ****             i->proc.longpr_rep_timestamp = lv_tick_get();
 691:lvgl\src\lv_core/lv_indev.c **** 
 692:lvgl\src\lv_core/lv_indev.c ****             if(data->key == LV_KEY_ENTER) {
 693:lvgl\src\lv_core/lv_indev.c ****                 indev_obj_act->signal_cb(indev_obj_act, LV_SIGNAL_LONG_PRESS_REP, NULL);
 694:lvgl\src\lv_core/lv_indev.c ****                 if(indev_reset_check(&i->proc)) return;
 695:lvgl\src\lv_core/lv_indev.c ****                 lv_event_send(indev_obj_act, LV_EVENT_LONG_PRESSED_REPEAT, NULL);
 696:lvgl\src\lv_core/lv_indev.c ****                 if(indev_reset_check(&i->proc)) return;
 697:lvgl\src\lv_core/lv_indev.c ****             }
 698:lvgl\src\lv_core/lv_indev.c ****             else if(data->key == LV_KEY_LEFT) {
 699:lvgl\src\lv_core/lv_indev.c ****                 /*emulate encoder left*/
 700:lvgl\src\lv_core/lv_indev.c ****                 data->enc_diff--;
 701:lvgl\src\lv_core/lv_indev.c ****             }
 702:lvgl\src\lv_core/lv_indev.c ****             else if(data->key == LV_KEY_RIGHT) {
 703:lvgl\src\lv_core/lv_indev.c ****                 /*emulate encoder right*/
 704:lvgl\src\lv_core/lv_indev.c ****                 data->enc_diff++;
 705:lvgl\src\lv_core/lv_indev.c ****             }
 706:lvgl\src\lv_core/lv_indev.c ****             else {
 707:lvgl\src\lv_core/lv_indev.c ****                 lv_group_send_data(g, data->key);
 708:lvgl\src\lv_core/lv_indev.c ****                 if(indev_reset_check(&i->proc)) return;
 709:lvgl\src\lv_core/lv_indev.c ****             }
 710:lvgl\src\lv_core/lv_indev.c **** 
 711:lvgl\src\lv_core/lv_indev.c ****         }
 712:lvgl\src\lv_core/lv_indev.c **** 
 713:lvgl\src\lv_core/lv_indev.c ****     }
 714:lvgl\src\lv_core/lv_indev.c ****     /*Release happened*/
 715:lvgl\src\lv_core/lv_indev.c ****     else if(data->state == LV_INDEV_STATE_REL && last_state == LV_INDEV_STATE_PR) {
ARM GAS  C:\Users\strap\AppData\Local\Temp\cc4VwSsz.s 			page 14


 716:lvgl\src\lv_core/lv_indev.c **** 
 717:lvgl\src\lv_core/lv_indev.c ****         if(data->key == LV_KEY_ENTER) {
 718:lvgl\src\lv_core/lv_indev.c ****             bool editable = false;
 719:lvgl\src\lv_core/lv_indev.c ****             indev_obj_act->signal_cb(indev_obj_act, LV_SIGNAL_GET_EDITABLE, &editable);
 720:lvgl\src\lv_core/lv_indev.c **** 
 721:lvgl\src\lv_core/lv_indev.c ****             /*The button was released on a non-editable object. Just send enter*/
 722:lvgl\src\lv_core/lv_indev.c ****             if(editable == false) {
 723:lvgl\src\lv_core/lv_indev.c ****                 indev_obj_act->signal_cb(indev_obj_act, LV_SIGNAL_RELEASED, NULL);
 724:lvgl\src\lv_core/lv_indev.c ****                 if(indev_reset_check(&i->proc)) return;
 725:lvgl\src\lv_core/lv_indev.c **** 
 726:lvgl\src\lv_core/lv_indev.c ****                 if(i->proc.long_pr_sent == 0) lv_event_send(indev_obj_act, LV_EVENT_SHORT_CLICKED, 
 727:lvgl\src\lv_core/lv_indev.c ****                 if(indev_reset_check(&i->proc)) return;
 728:lvgl\src\lv_core/lv_indev.c **** 
 729:lvgl\src\lv_core/lv_indev.c ****                 lv_event_send(indev_obj_act, LV_EVENT_CLICKED, NULL);
 730:lvgl\src\lv_core/lv_indev.c ****                 if(indev_reset_check(&i->proc)) return;
 731:lvgl\src\lv_core/lv_indev.c **** 
 732:lvgl\src\lv_core/lv_indev.c ****                 lv_event_send(indev_obj_act, LV_EVENT_RELEASED, NULL);
 733:lvgl\src\lv_core/lv_indev.c ****                 if(indev_reset_check(&i->proc)) return;
 734:lvgl\src\lv_core/lv_indev.c ****             }
 735:lvgl\src\lv_core/lv_indev.c ****             /*An object is being edited and the button is released. */
 736:lvgl\src\lv_core/lv_indev.c ****             else if(g->editing) {
 737:lvgl\src\lv_core/lv_indev.c ****                 /*Ignore long pressed enter release because it comes from mode switch*/
 738:lvgl\src\lv_core/lv_indev.c ****                 if(!i->proc.long_pr_sent || _lv_ll_is_empty(&g->obj_ll)) {
 739:lvgl\src\lv_core/lv_indev.c ****                     indev_obj_act->signal_cb(indev_obj_act, LV_SIGNAL_RELEASED, NULL);
 740:lvgl\src\lv_core/lv_indev.c ****                     if(indev_reset_check(&i->proc)) return;
 741:lvgl\src\lv_core/lv_indev.c **** 
 742:lvgl\src\lv_core/lv_indev.c ****                     lv_event_send(indev_obj_act, LV_EVENT_SHORT_CLICKED, NULL);
 743:lvgl\src\lv_core/lv_indev.c ****                     if(indev_reset_check(&i->proc)) return;
 744:lvgl\src\lv_core/lv_indev.c **** 
 745:lvgl\src\lv_core/lv_indev.c ****                     lv_event_send(indev_obj_act, LV_EVENT_CLICKED, NULL);
 746:lvgl\src\lv_core/lv_indev.c ****                     if(indev_reset_check(&i->proc)) return;
 747:lvgl\src\lv_core/lv_indev.c **** 
 748:lvgl\src\lv_core/lv_indev.c ****                     lv_event_send(indev_obj_act, LV_EVENT_RELEASED, NULL);
 749:lvgl\src\lv_core/lv_indev.c ****                     if(indev_reset_check(&i->proc)) return;
 750:lvgl\src\lv_core/lv_indev.c **** 
 751:lvgl\src\lv_core/lv_indev.c ****                     lv_group_send_data(g, LV_KEY_ENTER);
 752:lvgl\src\lv_core/lv_indev.c ****                 }
 753:lvgl\src\lv_core/lv_indev.c ****             }
 754:lvgl\src\lv_core/lv_indev.c ****             /*If the focused object is editable and now in navigate mode then on enter switch edit
 755:lvgl\src\lv_core/lv_indev.c ****                mode*/
 756:lvgl\src\lv_core/lv_indev.c ****             else if(editable && !g->editing && !i->proc.long_pr_sent) {
 757:lvgl\src\lv_core/lv_indev.c ****                 lv_group_set_editing(g, true); /*Set edit mode*/
 758:lvgl\src\lv_core/lv_indev.c ****             }
 759:lvgl\src\lv_core/lv_indev.c ****         }
 760:lvgl\src\lv_core/lv_indev.c **** 
 761:lvgl\src\lv_core/lv_indev.c ****         i->proc.pr_timestamp = 0;
 762:lvgl\src\lv_core/lv_indev.c ****         i->proc.long_pr_sent = 0;
 763:lvgl\src\lv_core/lv_indev.c ****     }
 764:lvgl\src\lv_core/lv_indev.c ****     indev_obj_act = NULL;
 765:lvgl\src\lv_core/lv_indev.c **** 
 766:lvgl\src\lv_core/lv_indev.c ****     /*if encoder steps or simulated steps via left/right keys*/
 767:lvgl\src\lv_core/lv_indev.c ****     if(data->enc_diff != 0) {
 768:lvgl\src\lv_core/lv_indev.c ****         /*In edit mode send LEFT/RIGHT keys*/
 769:lvgl\src\lv_core/lv_indev.c ****         if(lv_group_get_editing(g)) {
 770:lvgl\src\lv_core/lv_indev.c ****             int32_t s;
 771:lvgl\src\lv_core/lv_indev.c ****             if(data->enc_diff < 0) {
 772:lvgl\src\lv_core/lv_indev.c ****                 for(s = 0; s < -data->enc_diff; s++) lv_group_send_data(g, LV_KEY_LEFT);
ARM GAS  C:\Users\strap\AppData\Local\Temp\cc4VwSsz.s 			page 15


 773:lvgl\src\lv_core/lv_indev.c ****             }
 774:lvgl\src\lv_core/lv_indev.c ****             else if(data->enc_diff > 0) {
 775:lvgl\src\lv_core/lv_indev.c ****                 for(s = 0; s < data->enc_diff; s++) lv_group_send_data(g, LV_KEY_RIGHT);
 776:lvgl\src\lv_core/lv_indev.c ****             }
 777:lvgl\src\lv_core/lv_indev.c ****         }
 778:lvgl\src\lv_core/lv_indev.c ****         /*In navigate mode focus on the next/prev objects*/
 779:lvgl\src\lv_core/lv_indev.c ****         else {
 780:lvgl\src\lv_core/lv_indev.c ****             int32_t s;
 781:lvgl\src\lv_core/lv_indev.c ****             if(data->enc_diff < 0) {
 782:lvgl\src\lv_core/lv_indev.c ****                 for(s = 0; s < -data->enc_diff; s++) lv_group_focus_prev(g);
 783:lvgl\src\lv_core/lv_indev.c ****             }
 784:lvgl\src\lv_core/lv_indev.c ****             else if(data->enc_diff > 0) {
 785:lvgl\src\lv_core/lv_indev.c ****                 for(s = 0; s < data->enc_diff; s++) lv_group_focus_next(g);
 786:lvgl\src\lv_core/lv_indev.c ****             }
 787:lvgl\src\lv_core/lv_indev.c ****         }
 788:lvgl\src\lv_core/lv_indev.c ****     }
 789:lvgl\src\lv_core/lv_indev.c **** 
 790:lvgl\src\lv_core/lv_indev.c **** #else
 791:lvgl\src\lv_core/lv_indev.c ****     (void)data; /*Unused*/
 792:lvgl\src\lv_core/lv_indev.c ****     (void)i;    /*Unused*/
 793:lvgl\src\lv_core/lv_indev.c **** #endif
 794:lvgl\src\lv_core/lv_indev.c **** }
 795:lvgl\src\lv_core/lv_indev.c **** 
 796:lvgl\src\lv_core/lv_indev.c **** /**
 797:lvgl\src\lv_core/lv_indev.c ****  * Process new points from a input device. indev->state.pressed has to be set
 798:lvgl\src\lv_core/lv_indev.c ****  * @param indev pointer to an input device state
 799:lvgl\src\lv_core/lv_indev.c ****  * @param x x coordinate of the next point
 800:lvgl\src\lv_core/lv_indev.c ****  * @param y y coordinate of the next point
 801:lvgl\src\lv_core/lv_indev.c ****  */
 802:lvgl\src\lv_core/lv_indev.c **** static void indev_button_proc(lv_indev_t * i, lv_indev_data_t * data)
 803:lvgl\src\lv_core/lv_indev.c **** {
 804:lvgl\src\lv_core/lv_indev.c ****     /* Die gracefully if i->btn_points is NULL */
 805:lvgl\src\lv_core/lv_indev.c ****     if(i->btn_points == NULL) {
 806:lvgl\src\lv_core/lv_indev.c ****         LV_LOG_WARN("indev_button_proc: btn_points was  NULL");
 807:lvgl\src\lv_core/lv_indev.c ****         return;
 808:lvgl\src\lv_core/lv_indev.c ****     }
 809:lvgl\src\lv_core/lv_indev.c **** 
 810:lvgl\src\lv_core/lv_indev.c ****     i->proc.types.pointer.act_point.x = i->btn_points[data->btn_id].x;
 811:lvgl\src\lv_core/lv_indev.c ****     i->proc.types.pointer.act_point.y = i->btn_points[data->btn_id].y;
 812:lvgl\src\lv_core/lv_indev.c **** 
 813:lvgl\src\lv_core/lv_indev.c ****     /*Still the same point is pressed*/
 814:lvgl\src\lv_core/lv_indev.c ****     if(i->proc.types.pointer.last_point.x == i->proc.types.pointer.act_point.x &&
 815:lvgl\src\lv_core/lv_indev.c ****        i->proc.types.pointer.last_point.y == i->proc.types.pointer.act_point.y && data->state == LV
 816:lvgl\src\lv_core/lv_indev.c ****         indev_proc_press(&i->proc);
 817:lvgl\src\lv_core/lv_indev.c ****     }
 818:lvgl\src\lv_core/lv_indev.c ****     else {
 819:lvgl\src\lv_core/lv_indev.c ****         /*If a new point comes always make a release*/
 820:lvgl\src\lv_core/lv_indev.c ****         indev_proc_release(&i->proc);
 821:lvgl\src\lv_core/lv_indev.c ****     }
 822:lvgl\src\lv_core/lv_indev.c **** 
 823:lvgl\src\lv_core/lv_indev.c ****     i->proc.types.pointer.last_point.x = i->proc.types.pointer.act_point.x;
 824:lvgl\src\lv_core/lv_indev.c ****     i->proc.types.pointer.last_point.y = i->proc.types.pointer.act_point.y;
 825:lvgl\src\lv_core/lv_indev.c **** }
 826:lvgl\src\lv_core/lv_indev.c **** 
 827:lvgl\src\lv_core/lv_indev.c **** /**
 828:lvgl\src\lv_core/lv_indev.c ****  * Process the pressed state of LV_INDEV_TYPE_POINER input devices
 829:lvgl\src\lv_core/lv_indev.c ****  * @param indev pointer to an input device 'proc'
ARM GAS  C:\Users\strap\AppData\Local\Temp\cc4VwSsz.s 			page 16


 830:lvgl\src\lv_core/lv_indev.c ****  * @return LV_RES_OK: no indev reset required; LV_RES_INV: indev reset is required
 831:lvgl\src\lv_core/lv_indev.c ****  */
 832:lvgl\src\lv_core/lv_indev.c **** static void indev_proc_press(lv_indev_proc_t * proc)
 833:lvgl\src\lv_core/lv_indev.c **** {
 834:lvgl\src\lv_core/lv_indev.c ****     indev_obj_act = proc->types.pointer.act_obj;
 835:lvgl\src\lv_core/lv_indev.c **** 
 836:lvgl\src\lv_core/lv_indev.c ****     if(proc->wait_until_release != 0) return;
 837:lvgl\src\lv_core/lv_indev.c **** 
 838:lvgl\src\lv_core/lv_indev.c ****     lv_disp_t * disp = indev_act->driver.disp;
 839:lvgl\src\lv_core/lv_indev.c ****     bool new_obj_searched = false;
 840:lvgl\src\lv_core/lv_indev.c **** 
 841:lvgl\src\lv_core/lv_indev.c ****     /*If there is no last object then search*/
 842:lvgl\src\lv_core/lv_indev.c ****     if(indev_obj_act == NULL) {
 843:lvgl\src\lv_core/lv_indev.c ****         indev_obj_act = lv_indev_search_obj(lv_disp_get_layer_sys(disp), &proc->types.pointer.act_p
 844:lvgl\src\lv_core/lv_indev.c ****         if(indev_obj_act == NULL) indev_obj_act = lv_indev_search_obj(lv_disp_get_layer_top(disp),
 845:lvgl\src\lv_core/lv_indev.c ****                                                                           &proc->types.pointer.act_
 846:lvgl\src\lv_core/lv_indev.c ****         if(indev_obj_act == NULL) indev_obj_act = lv_indev_search_obj(lv_disp_get_scr_act(disp),
 847:lvgl\src\lv_core/lv_indev.c ****                                                                           &proc->types.pointer.act_
 848:lvgl\src\lv_core/lv_indev.c ****         new_obj_searched = true;
 849:lvgl\src\lv_core/lv_indev.c ****     }
 850:lvgl\src\lv_core/lv_indev.c ****     /*If there is last object but it is not dragged and not protected also search*/
 851:lvgl\src\lv_core/lv_indev.c ****     else if(proc->types.pointer.drag_in_prog == 0 &&
 852:lvgl\src\lv_core/lv_indev.c ****             lv_obj_is_protected(indev_obj_act, LV_PROTECT_PRESS_LOST) == false) {
 853:lvgl\src\lv_core/lv_indev.c ****         indev_obj_act = lv_indev_search_obj(lv_disp_get_layer_sys(disp), &proc->types.pointer.act_p
 854:lvgl\src\lv_core/lv_indev.c ****         if(indev_obj_act == NULL) indev_obj_act = lv_indev_search_obj(lv_disp_get_layer_top(disp),
 855:lvgl\src\lv_core/lv_indev.c ****                                                                           &proc->types.pointer.act_
 856:lvgl\src\lv_core/lv_indev.c ****         if(indev_obj_act == NULL) indev_obj_act = lv_indev_search_obj(lv_disp_get_scr_act(disp),
 857:lvgl\src\lv_core/lv_indev.c ****                                                                           &proc->types.pointer.act_
 858:lvgl\src\lv_core/lv_indev.c ****         new_obj_searched = true;
 859:lvgl\src\lv_core/lv_indev.c ****     }
 860:lvgl\src\lv_core/lv_indev.c ****     /*If a draggable or a protected object was the last then keep it*/
 861:lvgl\src\lv_core/lv_indev.c ****     else {
 862:lvgl\src\lv_core/lv_indev.c ****     }
 863:lvgl\src\lv_core/lv_indev.c **** 
 864:lvgl\src\lv_core/lv_indev.c ****     /*The last object might have drag throw. Stop it manually*/
 865:lvgl\src\lv_core/lv_indev.c ****     if(new_obj_searched && proc->types.pointer.last_obj) {
 866:lvgl\src\lv_core/lv_indev.c ****         proc->types.pointer.drag_throw_vect.x = 0;
 867:lvgl\src\lv_core/lv_indev.c ****         proc->types.pointer.drag_throw_vect.y = 0;
 868:lvgl\src\lv_core/lv_indev.c ****         indev_drag_throw(proc);
 869:lvgl\src\lv_core/lv_indev.c ****     }
 870:lvgl\src\lv_core/lv_indev.c **** 
 871:lvgl\src\lv_core/lv_indev.c ****     /*Do not use disabled objects*/
 872:lvgl\src\lv_core/lv_indev.c ****     if(indev_obj_act && (lv_obj_get_state(indev_obj_act, LV_OBJ_PART_MAIN) & LV_STATE_DISABLED)) {
 873:lvgl\src\lv_core/lv_indev.c ****         indev_obj_act = proc->types.pointer.act_obj;
 874:lvgl\src\lv_core/lv_indev.c ****     }
 875:lvgl\src\lv_core/lv_indev.c **** 
 876:lvgl\src\lv_core/lv_indev.c ****     /*If a new object was found reset some variables and send a pressed signal*/
 877:lvgl\src\lv_core/lv_indev.c ****     if(indev_obj_act != proc->types.pointer.act_obj) {
 878:lvgl\src\lv_core/lv_indev.c ****         proc->types.pointer.last_point.x = proc->types.pointer.act_point.x;
 879:lvgl\src\lv_core/lv_indev.c ****         proc->types.pointer.last_point.y = proc->types.pointer.act_point.y;
 880:lvgl\src\lv_core/lv_indev.c **** 
 881:lvgl\src\lv_core/lv_indev.c ****         /*If a new object found the previous was lost, so send a signal*/
 882:lvgl\src\lv_core/lv_indev.c ****         if(proc->types.pointer.act_obj != NULL) {
 883:lvgl\src\lv_core/lv_indev.c ****             /*Save the obj because in special cases `act_obj` can change in the signal function*/
 884:lvgl\src\lv_core/lv_indev.c ****             lv_obj_t * last_obj = proc->types.pointer.act_obj;
 885:lvgl\src\lv_core/lv_indev.c **** 
 886:lvgl\src\lv_core/lv_indev.c ****             last_obj->signal_cb(last_obj, LV_SIGNAL_PRESS_LOST, indev_act);
ARM GAS  C:\Users\strap\AppData\Local\Temp\cc4VwSsz.s 			page 17


 887:lvgl\src\lv_core/lv_indev.c ****             if(indev_reset_check(proc)) return;
 888:lvgl\src\lv_core/lv_indev.c ****             lv_event_send(last_obj, LV_EVENT_PRESS_LOST, NULL);
 889:lvgl\src\lv_core/lv_indev.c ****             if(indev_reset_check(proc)) return;
 890:lvgl\src\lv_core/lv_indev.c **** 
 891:lvgl\src\lv_core/lv_indev.c ****         }
 892:lvgl\src\lv_core/lv_indev.c **** 
 893:lvgl\src\lv_core/lv_indev.c ****         proc->types.pointer.act_obj  = indev_obj_act; /*Save the pressed object*/
 894:lvgl\src\lv_core/lv_indev.c ****         proc->types.pointer.last_obj = indev_obj_act;
 895:lvgl\src\lv_core/lv_indev.c **** 
 896:lvgl\src\lv_core/lv_indev.c ****         if(indev_obj_act != NULL) {
 897:lvgl\src\lv_core/lv_indev.c ****             /* Save the time when the obj pressed to count long press time.*/
 898:lvgl\src\lv_core/lv_indev.c ****             proc->pr_timestamp                 = lv_tick_get();
 899:lvgl\src\lv_core/lv_indev.c ****             proc->long_pr_sent                 = 0;
 900:lvgl\src\lv_core/lv_indev.c ****             proc->types.pointer.drag_limit_out = 0;
 901:lvgl\src\lv_core/lv_indev.c ****             proc->types.pointer.drag_in_prog   = 0;
 902:lvgl\src\lv_core/lv_indev.c ****             proc->types.pointer.drag_sum.x     = 0;
 903:lvgl\src\lv_core/lv_indev.c ****             proc->types.pointer.drag_sum.y     = 0;
 904:lvgl\src\lv_core/lv_indev.c ****             proc->types.pointer.drag_dir = LV_DRAG_DIR_BOTH;
 905:lvgl\src\lv_core/lv_indev.c ****             proc->types.pointer.gesture_sent   = 0;
 906:lvgl\src\lv_core/lv_indev.c ****             proc->types.pointer.gesture_sum.x  = 0;
 907:lvgl\src\lv_core/lv_indev.c ****             proc->types.pointer.gesture_sum.y  = 0;
 908:lvgl\src\lv_core/lv_indev.c ****             proc->types.pointer.vect.x         = 0;
 909:lvgl\src\lv_core/lv_indev.c ****             proc->types.pointer.vect.y         = 0;
 910:lvgl\src\lv_core/lv_indev.c **** 
 911:lvgl\src\lv_core/lv_indev.c ****             /*Search for 'top' attribute*/
 912:lvgl\src\lv_core/lv_indev.c ****             lv_obj_t * i        = indev_obj_act;
 913:lvgl\src\lv_core/lv_indev.c ****             lv_obj_t * last_top = NULL;
 914:lvgl\src\lv_core/lv_indev.c ****             while(i != NULL) {
 915:lvgl\src\lv_core/lv_indev.c ****                 if(i->top) last_top = i;
 916:lvgl\src\lv_core/lv_indev.c ****                 i = lv_obj_get_parent(i);
 917:lvgl\src\lv_core/lv_indev.c ****             }
 918:lvgl\src\lv_core/lv_indev.c **** 
 919:lvgl\src\lv_core/lv_indev.c ****             if(last_top != NULL) {
 920:lvgl\src\lv_core/lv_indev.c ****                 /*Move the last_top object to the foreground*/
 921:lvgl\src\lv_core/lv_indev.c ****                 lv_obj_move_foreground(last_top);
 922:lvgl\src\lv_core/lv_indev.c ****             }
 923:lvgl\src\lv_core/lv_indev.c **** 
 924:lvgl\src\lv_core/lv_indev.c ****             /*Send a signal about the press*/
 925:lvgl\src\lv_core/lv_indev.c ****             indev_obj_act->signal_cb(indev_obj_act, LV_SIGNAL_PRESSED, indev_act);
 926:lvgl\src\lv_core/lv_indev.c ****             if(indev_reset_check(proc)) return;
 927:lvgl\src\lv_core/lv_indev.c **** 
 928:lvgl\src\lv_core/lv_indev.c ****             lv_event_send(indev_obj_act, LV_EVENT_PRESSED, NULL);
 929:lvgl\src\lv_core/lv_indev.c ****             if(indev_reset_check(proc)) return;
 930:lvgl\src\lv_core/lv_indev.c **** 
 931:lvgl\src\lv_core/lv_indev.c ****             if(indev_act->proc.wait_until_release) return;
 932:lvgl\src\lv_core/lv_indev.c **** 
 933:lvgl\src\lv_core/lv_indev.c ****             /*Handle focus*/
 934:lvgl\src\lv_core/lv_indev.c ****             indev_click_focus(&indev_act->proc);
 935:lvgl\src\lv_core/lv_indev.c ****             if(indev_reset_check(proc)) return;
 936:lvgl\src\lv_core/lv_indev.c **** 
 937:lvgl\src\lv_core/lv_indev.c ****         }
 938:lvgl\src\lv_core/lv_indev.c ****     }
 939:lvgl\src\lv_core/lv_indev.c **** 
 940:lvgl\src\lv_core/lv_indev.c ****     /*Calculate the types.pointer.vector*/
 941:lvgl\src\lv_core/lv_indev.c ****     proc->types.pointer.vect.x = proc->types.pointer.act_point.x - proc->types.pointer.last_point.x
 942:lvgl\src\lv_core/lv_indev.c ****     proc->types.pointer.vect.y = proc->types.pointer.act_point.y - proc->types.pointer.last_point.y
 943:lvgl\src\lv_core/lv_indev.c **** 
ARM GAS  C:\Users\strap\AppData\Local\Temp\cc4VwSsz.s 			page 18


 944:lvgl\src\lv_core/lv_indev.c ****     proc->types.pointer.drag_throw_vect.x = (proc->types.pointer.drag_throw_vect.x * 5) >> 3;
 945:lvgl\src\lv_core/lv_indev.c ****     proc->types.pointer.drag_throw_vect.y = (proc->types.pointer.drag_throw_vect.y * 5) >> 3;
 946:lvgl\src\lv_core/lv_indev.c **** 
 947:lvgl\src\lv_core/lv_indev.c ****     if(proc->types.pointer.drag_throw_vect.x < 0)
 948:lvgl\src\lv_core/lv_indev.c ****         proc->types.pointer.drag_throw_vect.x++;
 949:lvgl\src\lv_core/lv_indev.c ****     else if(proc->types.pointer.drag_throw_vect.x > 0)
 950:lvgl\src\lv_core/lv_indev.c ****         proc->types.pointer.drag_throw_vect.x--;
 951:lvgl\src\lv_core/lv_indev.c **** 
 952:lvgl\src\lv_core/lv_indev.c ****     if(proc->types.pointer.drag_throw_vect.y < 0)
 953:lvgl\src\lv_core/lv_indev.c ****         proc->types.pointer.drag_throw_vect.y++;
 954:lvgl\src\lv_core/lv_indev.c ****     else if(proc->types.pointer.drag_throw_vect.y > 0)
 955:lvgl\src\lv_core/lv_indev.c ****         proc->types.pointer.drag_throw_vect.y--;
 956:lvgl\src\lv_core/lv_indev.c **** 
 957:lvgl\src\lv_core/lv_indev.c ****     proc->types.pointer.drag_throw_vect.x += (proc->types.pointer.vect.x * 4) >> 3;
 958:lvgl\src\lv_core/lv_indev.c ****     proc->types.pointer.drag_throw_vect.y += (proc->types.pointer.vect.y * 4) >> 3;
 959:lvgl\src\lv_core/lv_indev.c **** 
 960:lvgl\src\lv_core/lv_indev.c ****     /*If there is active object and it can be dragged run the drag*/
 961:lvgl\src\lv_core/lv_indev.c ****     if(indev_obj_act != NULL) {
 962:lvgl\src\lv_core/lv_indev.c ****         indev_obj_act->signal_cb(indev_obj_act, LV_SIGNAL_PRESSING, indev_act);
 963:lvgl\src\lv_core/lv_indev.c ****         if(indev_reset_check(proc)) return;
 964:lvgl\src\lv_core/lv_indev.c ****         lv_event_send(indev_obj_act, LV_EVENT_PRESSING, NULL);
 965:lvgl\src\lv_core/lv_indev.c ****         if(indev_reset_check(proc)) return;
 966:lvgl\src\lv_core/lv_indev.c ****         if(indev_act->proc.wait_until_release) return;
 967:lvgl\src\lv_core/lv_indev.c **** 
 968:lvgl\src\lv_core/lv_indev.c ****         indev_drag(proc);
 969:lvgl\src\lv_core/lv_indev.c ****         indev_gesture(proc);
 970:lvgl\src\lv_core/lv_indev.c ****         if(indev_reset_check(proc)) return;
 971:lvgl\src\lv_core/lv_indev.c **** 
 972:lvgl\src\lv_core/lv_indev.c ****         /*If there is no drag then check for long press time*/
 973:lvgl\src\lv_core/lv_indev.c ****         if(proc->types.pointer.drag_in_prog == 0 && proc->long_pr_sent == 0) {
 974:lvgl\src\lv_core/lv_indev.c ****             /*Send a signal about the long press if enough time elapsed*/
 975:lvgl\src\lv_core/lv_indev.c ****             if(lv_tick_elaps(proc->pr_timestamp) > indev_act->driver.long_press_time) {
 976:lvgl\src\lv_core/lv_indev.c ****                 indev_obj_act->signal_cb(indev_obj_act, LV_SIGNAL_LONG_PRESS, indev_act);
 977:lvgl\src\lv_core/lv_indev.c ****                 if(indev_reset_check(proc)) return;
 978:lvgl\src\lv_core/lv_indev.c ****                 lv_event_send(indev_obj_act, LV_EVENT_LONG_PRESSED, NULL);
 979:lvgl\src\lv_core/lv_indev.c ****                 if(indev_reset_check(proc)) return;
 980:lvgl\src\lv_core/lv_indev.c **** 
 981:lvgl\src\lv_core/lv_indev.c ****                 /*Mark the signal sending to do not send it again*/
 982:lvgl\src\lv_core/lv_indev.c ****                 proc->long_pr_sent = 1;
 983:lvgl\src\lv_core/lv_indev.c **** 
 984:lvgl\src\lv_core/lv_indev.c ****                 /*Save the long press time stamp for the long press repeat handler*/
 985:lvgl\src\lv_core/lv_indev.c ****                 proc->longpr_rep_timestamp = lv_tick_get();
 986:lvgl\src\lv_core/lv_indev.c ****             }
 987:lvgl\src\lv_core/lv_indev.c ****         }
 988:lvgl\src\lv_core/lv_indev.c ****         /*Send long press repeated signal*/
 989:lvgl\src\lv_core/lv_indev.c ****         if(proc->types.pointer.drag_in_prog == 0 && proc->long_pr_sent == 1) {
 990:lvgl\src\lv_core/lv_indev.c ****             /*Send a signal about the long press repeat if enough time elapsed*/
 991:lvgl\src\lv_core/lv_indev.c ****             if(lv_tick_elaps(proc->longpr_rep_timestamp) > indev_act->driver.long_press_rep_time) {
 992:lvgl\src\lv_core/lv_indev.c ****                 indev_obj_act->signal_cb(indev_obj_act, LV_SIGNAL_LONG_PRESS_REP, indev_act);
 993:lvgl\src\lv_core/lv_indev.c ****                 if(indev_reset_check(proc)) return;
 994:lvgl\src\lv_core/lv_indev.c ****                 lv_event_send(indev_obj_act, LV_EVENT_LONG_PRESSED_REPEAT, NULL);
 995:lvgl\src\lv_core/lv_indev.c ****                 if(indev_reset_check(proc)) return;
 996:lvgl\src\lv_core/lv_indev.c ****                 proc->longpr_rep_timestamp = lv_tick_get();
 997:lvgl\src\lv_core/lv_indev.c ****             }
 998:lvgl\src\lv_core/lv_indev.c ****         }
 999:lvgl\src\lv_core/lv_indev.c ****     }
1000:lvgl\src\lv_core/lv_indev.c **** }
ARM GAS  C:\Users\strap\AppData\Local\Temp\cc4VwSsz.s 			page 19


1001:lvgl\src\lv_core/lv_indev.c **** 
1002:lvgl\src\lv_core/lv_indev.c **** /**
1003:lvgl\src\lv_core/lv_indev.c ****  * Process the released state of LV_INDEV_TYPE_POINER input devices
1004:lvgl\src\lv_core/lv_indev.c ****  * @param proc pointer to an input device 'proc'
1005:lvgl\src\lv_core/lv_indev.c ****  */
1006:lvgl\src\lv_core/lv_indev.c **** static void indev_proc_release(lv_indev_proc_t * proc)
1007:lvgl\src\lv_core/lv_indev.c **** {
1008:lvgl\src\lv_core/lv_indev.c ****     if(proc->wait_until_release != 0) {
1009:lvgl\src\lv_core/lv_indev.c ****         proc->types.pointer.act_obj  = NULL;
1010:lvgl\src\lv_core/lv_indev.c ****         proc->types.pointer.last_obj = NULL;
1011:lvgl\src\lv_core/lv_indev.c ****         proc->pr_timestamp           = 0;
1012:lvgl\src\lv_core/lv_indev.c ****         proc->longpr_rep_timestamp   = 0;
1013:lvgl\src\lv_core/lv_indev.c ****         proc->wait_until_release     = 0;
1014:lvgl\src\lv_core/lv_indev.c ****     }
1015:lvgl\src\lv_core/lv_indev.c ****     indev_obj_act = proc->types.pointer.act_obj;
1016:lvgl\src\lv_core/lv_indev.c **** 
1017:lvgl\src\lv_core/lv_indev.c ****     /*Forget the act obj and send a released signal */
1018:lvgl\src\lv_core/lv_indev.c ****     if(indev_obj_act) {
1019:lvgl\src\lv_core/lv_indev.c **** 
1020:lvgl\src\lv_core/lv_indev.c ****         /* If the object was protected against press lost then it possible that
1021:lvgl\src\lv_core/lv_indev.c ****          * the object is already not pressed but still it is the `act_obj`.
1022:lvgl\src\lv_core/lv_indev.c ****          * In this case send the `LV_SIGNAL_RELEASED/CLICKED` instead of `LV_SIGNAL_PRESS_LOST` if
1023:lvgl\src\lv_core/lv_indev.c ****          * the indev is ON the `types.pointer.act_obj` */
1024:lvgl\src\lv_core/lv_indev.c ****         if(lv_obj_is_protected(indev_obj_act, LV_PROTECT_PRESS_LOST)) {
1025:lvgl\src\lv_core/lv_indev.c ****             indev_obj_act->signal_cb(indev_obj_act, LV_SIGNAL_RELEASED, indev_act);
1026:lvgl\src\lv_core/lv_indev.c ****             if(indev_reset_check(proc)) return;
1027:lvgl\src\lv_core/lv_indev.c **** 
1028:lvgl\src\lv_core/lv_indev.c ****             if(proc->types.pointer.drag_in_prog == 0) {
1029:lvgl\src\lv_core/lv_indev.c ****                 if(proc->long_pr_sent == 0) {
1030:lvgl\src\lv_core/lv_indev.c ****                     lv_event_send(indev_obj_act, LV_EVENT_SHORT_CLICKED, NULL);
1031:lvgl\src\lv_core/lv_indev.c ****                     if(indev_reset_check(proc)) return;
1032:lvgl\src\lv_core/lv_indev.c ****                 }
1033:lvgl\src\lv_core/lv_indev.c **** 
1034:lvgl\src\lv_core/lv_indev.c ****                 lv_event_send(indev_obj_act, LV_EVENT_CLICKED, NULL);
1035:lvgl\src\lv_core/lv_indev.c ****                 if(indev_reset_check(proc)) return;
1036:lvgl\src\lv_core/lv_indev.c ****             }
1037:lvgl\src\lv_core/lv_indev.c **** 
1038:lvgl\src\lv_core/lv_indev.c ****             lv_event_send(indev_obj_act, LV_EVENT_RELEASED, NULL);
1039:lvgl\src\lv_core/lv_indev.c ****             if(indev_reset_check(proc)) return;
1040:lvgl\src\lv_core/lv_indev.c ****         }
1041:lvgl\src\lv_core/lv_indev.c ****         /* The simple case: `act_obj` was not protected against press lost.
1042:lvgl\src\lv_core/lv_indev.c ****          * If it is already not pressed then `indev_proc_press` would set `indev_obj_act = NULL`*/
1043:lvgl\src\lv_core/lv_indev.c ****         else {
1044:lvgl\src\lv_core/lv_indev.c ****             indev_obj_act->signal_cb(indev_obj_act, LV_SIGNAL_RELEASED, indev_act);
1045:lvgl\src\lv_core/lv_indev.c ****             if(indev_reset_check(proc)) return;
1046:lvgl\src\lv_core/lv_indev.c **** 
1047:lvgl\src\lv_core/lv_indev.c ****             if(proc->long_pr_sent == 0 && proc->types.pointer.drag_in_prog == 0) {
1048:lvgl\src\lv_core/lv_indev.c ****                 lv_event_send(indev_obj_act, LV_EVENT_SHORT_CLICKED, NULL);
1049:lvgl\src\lv_core/lv_indev.c ****                 if(indev_reset_check(proc)) return;
1050:lvgl\src\lv_core/lv_indev.c ****             }
1051:lvgl\src\lv_core/lv_indev.c **** 
1052:lvgl\src\lv_core/lv_indev.c ****             if(proc->types.pointer.drag_in_prog == 0) {
1053:lvgl\src\lv_core/lv_indev.c ****                 lv_event_send(indev_obj_act, LV_EVENT_CLICKED, NULL);
1054:lvgl\src\lv_core/lv_indev.c ****                 if(indev_reset_check(proc)) return;
1055:lvgl\src\lv_core/lv_indev.c ****             }
1056:lvgl\src\lv_core/lv_indev.c **** 
1057:lvgl\src\lv_core/lv_indev.c ****             lv_event_send(indev_obj_act, LV_EVENT_RELEASED, NULL);
ARM GAS  C:\Users\strap\AppData\Local\Temp\cc4VwSsz.s 			page 20


1058:lvgl\src\lv_core/lv_indev.c ****             if(indev_reset_check(proc)) return;
1059:lvgl\src\lv_core/lv_indev.c ****         }
1060:lvgl\src\lv_core/lv_indev.c **** 
1061:lvgl\src\lv_core/lv_indev.c ****         /*Send LV_EVENT_DRAG_THROW_BEGIN if required */
1062:lvgl\src\lv_core/lv_indev.c ****         /*If drag parent is active check recursively the drag_parent attribute*/
1063:lvgl\src\lv_core/lv_indev.c ****         lv_obj_t * drag_obj = get_dragged_obj(indev_obj_act);
1064:lvgl\src\lv_core/lv_indev.c ****         if(drag_obj) {
1065:lvgl\src\lv_core/lv_indev.c ****             if(lv_obj_get_drag_throw(drag_obj) && proc->types.pointer.drag_in_prog) {
1066:lvgl\src\lv_core/lv_indev.c ****                 if(drag_obj->signal_cb) drag_obj->signal_cb(drag_obj, LV_SIGNAL_DRAG_THROW_BEGIN, N
1067:lvgl\src\lv_core/lv_indev.c ****                 if(indev_reset_check(proc)) return;
1068:lvgl\src\lv_core/lv_indev.c **** 
1069:lvgl\src\lv_core/lv_indev.c ****                 lv_event_send(drag_obj, LV_EVENT_DRAG_THROW_BEGIN, NULL);
1070:lvgl\src\lv_core/lv_indev.c ****                 if(indev_reset_check(proc)) return;
1071:lvgl\src\lv_core/lv_indev.c ****             }
1072:lvgl\src\lv_core/lv_indev.c ****         }
1073:lvgl\src\lv_core/lv_indev.c **** 
1074:lvgl\src\lv_core/lv_indev.c ****         proc->types.pointer.act_obj = NULL;
1075:lvgl\src\lv_core/lv_indev.c ****         proc->pr_timestamp          = 0;
1076:lvgl\src\lv_core/lv_indev.c ****         proc->longpr_rep_timestamp  = 0;
1077:lvgl\src\lv_core/lv_indev.c ****     }
1078:lvgl\src\lv_core/lv_indev.c **** 
1079:lvgl\src\lv_core/lv_indev.c ****     /*The reset can be set in the signal function.
1080:lvgl\src\lv_core/lv_indev.c ****      * In case of reset query ignore the remaining parts.*/
1081:lvgl\src\lv_core/lv_indev.c ****     if(proc->types.pointer.last_obj != NULL && proc->reset_query == 0) {
1082:lvgl\src\lv_core/lv_indev.c ****         indev_drag_throw(proc);
1083:lvgl\src\lv_core/lv_indev.c ****         if(indev_reset_check(proc)) return;
1084:lvgl\src\lv_core/lv_indev.c ****     }
1085:lvgl\src\lv_core/lv_indev.c **** }
1086:lvgl\src\lv_core/lv_indev.c **** 
1087:lvgl\src\lv_core/lv_indev.c **** /**
1088:lvgl\src\lv_core/lv_indev.c ****  * Process a new point from LV_INDEV_TYPE_BUTTON input device
1089:lvgl\src\lv_core/lv_indev.c ****  * @param i pointer to an input device
1090:lvgl\src\lv_core/lv_indev.c ****  * @param data pointer to the data read from the input device
1091:lvgl\src\lv_core/lv_indev.c ****  * Reset input device if a reset query has been sent to it
1092:lvgl\src\lv_core/lv_indev.c ****  * @param indev pointer to an input device
1093:lvgl\src\lv_core/lv_indev.c ****  */
1094:lvgl\src\lv_core/lv_indev.c **** static void indev_proc_reset_query_handler(lv_indev_t * indev)
1095:lvgl\src\lv_core/lv_indev.c **** {
  27              		.loc 1 1095 0
  28              		.cfi_startproc
  29              		@ args = 0, pretend = 0, frame = 0
  30              		@ frame_needed = 0, uses_anonymous_args = 0
  31              		@ link register save eliminated.
  32              	.LVL0:
1096:lvgl\src\lv_core/lv_indev.c ****     if(indev->proc.reset_query) {
  33              		.loc 1 1096 0
  34 0000 90F85430 		ldrb	r3, [r0, #84]	@ zero_extendqisi2
  35 0004 13F0020F 		tst	r3, #2
  36 0008 21D0     		beq	.L5
1095:lvgl\src\lv_core/lv_indev.c ****     if(indev->proc.reset_query) {
  37              		.loc 1 1095 0
  38 000a 10B4     		push	{r4}
  39              		.cfi_def_cfa_offset 4
  40              		.cfi_offset 4, -4
1097:lvgl\src\lv_core/lv_indev.c ****         indev->proc.types.pointer.act_obj           = NULL;
  41              		.loc 1 1097 0
  42 000c 0023     		movs	r3, #0
ARM GAS  C:\Users\strap\AppData\Local\Temp\cc4VwSsz.s 			page 21


  43 000e 8363     		str	r3, [r0, #56]
1098:lvgl\src\lv_core/lv_indev.c ****         indev->proc.types.pointer.last_obj          = NULL;
  44              		.loc 1 1098 0
  45 0010 C363     		str	r3, [r0, #60]
1099:lvgl\src\lv_core/lv_indev.c ****         indev->proc.types.pointer.drag_limit_out    = 0;
  46              		.loc 1 1099 0
  47 0012 90F84A10 		ldrb	r1, [r0, #74]	@ zero_extendqisi2
1100:lvgl\src\lv_core/lv_indev.c ****         indev->proc.types.pointer.drag_in_prog      = 0;
1101:lvgl\src\lv_core/lv_indev.c ****         indev->proc.long_pr_sent                    = 0;
  48              		.loc 1 1101 0
  49 0016 90F85420 		ldrb	r2, [r0, #84]	@ zero_extendqisi2
1102:lvgl\src\lv_core/lv_indev.c ****         indev->proc.pr_timestamp                    = 0;
  50              		.loc 1 1102 0
  51 001a C364     		str	r3, [r0, #76]
1103:lvgl\src\lv_core/lv_indev.c ****         indev->proc.longpr_rep_timestamp            = 0;
  52              		.loc 1 1103 0
  53 001c 0365     		str	r3, [r0, #80]
1104:lvgl\src\lv_core/lv_indev.c ****         indev->proc.types.pointer.drag_sum.x        = 0;
  54              		.loc 1 1104 0
  55 001e 0386     		strh	r3, [r0, #48]	@ movhi
1105:lvgl\src\lv_core/lv_indev.c ****         indev->proc.types.pointer.drag_sum.y        = 0;
  56              		.loc 1 1105 0
  57 0020 4386     		strh	r3, [r0, #50]	@ movhi
1106:lvgl\src\lv_core/lv_indev.c ****         indev->proc.types.pointer.drag_dir = LV_DRAG_DIR_BOTH;
  58              		.loc 1 1106 0
  59 0022 01F0FC01 		and	r1, r1, #252
  60 0026 0324     		movs	r4, #3
  61 0028 64F38401 		bfi	r1, r4, #2, #3
  62 002c 80F84A10 		strb	r1, [r0, #74]
1107:lvgl\src\lv_core/lv_indev.c ****         indev->proc.types.pointer.drag_throw_vect.x = 0;
  63              		.loc 1 1107 0
  64 0030 8386     		strh	r3, [r0, #52]	@ movhi
1108:lvgl\src\lv_core/lv_indev.c ****         indev->proc.types.pointer.drag_throw_vect.y = 0;
  65              		.loc 1 1108 0
  66 0032 C386     		strh	r3, [r0, #54]	@ movhi
1109:lvgl\src\lv_core/lv_indev.c ****         indev->proc.types.pointer.gesture_sum.x     = 0;
  67              		.loc 1 1109 0
  68 0034 A0F84630 		strh	r3, [r0, #70]	@ movhi
1110:lvgl\src\lv_core/lv_indev.c ****         indev->proc.types.pointer.gesture_sum.y     = 0;
  69              		.loc 1 1110 0
  70 0038 A0F84830 		strh	r3, [r0, #72]	@ movhi
1111:lvgl\src\lv_core/lv_indev.c ****         indev->proc.reset_query                     = 0;
  71              		.loc 1 1111 0
  72 003c 02F0FE02 		and	r2, r2, #254
  73 0040 63F34102 		bfi	r2, r3, #1, #1
  74 0044 80F85420 		strb	r2, [r0, #84]
1112:lvgl\src\lv_core/lv_indev.c ****         indev_obj_act                               = NULL;
  75              		.loc 1 1112 0
  76 0048 014A     		ldr	r2, .L6
  77 004a 1360     		str	r3, [r2]
1113:lvgl\src\lv_core/lv_indev.c ****     }
1114:lvgl\src\lv_core/lv_indev.c **** }
  78              		.loc 1 1114 0
  79 004c 10BC     		pop	{r4}
  80              		.cfi_restore 4
  81              		.cfi_def_cfa_offset 0
  82              	.L5:
ARM GAS  C:\Users\strap\AppData\Local\Temp\cc4VwSsz.s 			page 22


  83 004e 7047     		bx	lr
  84              	.L7:
  85              		.align	2
  86              	.L6:
  87 0050 00000000 		.word	.LANCHOR0
  88              		.cfi_endproc
  89              	.LFE358:
  90              		.size	indev_proc_reset_query_handler, .-indev_proc_reset_query_handler
  91              		.section	.text.indev_reset_check,"ax",%progbits
  92              		.align	2
  93              		.thumb
  94              		.thumb_func
  95              		.type	indev_reset_check, %function
  96              	indev_reset_check:
  97              	.LFB365:
1115:lvgl\src\lv_core/lv_indev.c **** /**
1116:lvgl\src\lv_core/lv_indev.c ****  * Search the most top, clickable object by a point
1117:lvgl\src\lv_core/lv_indev.c ****  * @param obj pointer to a start object, typically the screen
1118:lvgl\src\lv_core/lv_indev.c ****  * @param point pointer to a point for searching the most top child
1119:lvgl\src\lv_core/lv_indev.c ****  * @return pointer to the found object or NULL if there was no suitable object
1120:lvgl\src\lv_core/lv_indev.c ****  */
1121:lvgl\src\lv_core/lv_indev.c **** lv_obj_t * lv_indev_search_obj(lv_obj_t * obj, lv_point_t * point)
1122:lvgl\src\lv_core/lv_indev.c **** {
1123:lvgl\src\lv_core/lv_indev.c ****     lv_obj_t * found_p = NULL;
1124:lvgl\src\lv_core/lv_indev.c **** 
1125:lvgl\src\lv_core/lv_indev.c ****     /*If the point is on this object check its children too*/
1126:lvgl\src\lv_core/lv_indev.c ****     if(lv_obj_hittest(obj, point)) {
1127:lvgl\src\lv_core/lv_indev.c ****         lv_obj_t * i;
1128:lvgl\src\lv_core/lv_indev.c **** 
1129:lvgl\src\lv_core/lv_indev.c ****         _LV_LL_READ(obj->child_ll, i) {
1130:lvgl\src\lv_core/lv_indev.c ****             found_p = lv_indev_search_obj(i, point);
1131:lvgl\src\lv_core/lv_indev.c **** 
1132:lvgl\src\lv_core/lv_indev.c ****             /*If a child was found then break*/
1133:lvgl\src\lv_core/lv_indev.c ****             if(found_p != NULL) {
1134:lvgl\src\lv_core/lv_indev.c ****                 break;
1135:lvgl\src\lv_core/lv_indev.c ****             }
1136:lvgl\src\lv_core/lv_indev.c ****         }
1137:lvgl\src\lv_core/lv_indev.c **** 
1138:lvgl\src\lv_core/lv_indev.c ****         /*If then the children was not ok, and this obj is clickable
1139:lvgl\src\lv_core/lv_indev.c ****          * and it or its parent is not hidden then save this object*/
1140:lvgl\src\lv_core/lv_indev.c ****         if(found_p == NULL && lv_obj_get_click(obj) != false) {
1141:lvgl\src\lv_core/lv_indev.c ****             lv_obj_t * hidden_i = obj;
1142:lvgl\src\lv_core/lv_indev.c ****             while(hidden_i != NULL) {
1143:lvgl\src\lv_core/lv_indev.c ****                 if(lv_obj_get_hidden(hidden_i) == true) break;
1144:lvgl\src\lv_core/lv_indev.c ****                 hidden_i = lv_obj_get_parent(hidden_i);
1145:lvgl\src\lv_core/lv_indev.c ****             }
1146:lvgl\src\lv_core/lv_indev.c ****             /*No parent found with hidden == true*/
1147:lvgl\src\lv_core/lv_indev.c ****             if(hidden_i == NULL) found_p = obj;
1148:lvgl\src\lv_core/lv_indev.c ****         }
1149:lvgl\src\lv_core/lv_indev.c ****     }
1150:lvgl\src\lv_core/lv_indev.c **** 
1151:lvgl\src\lv_core/lv_indev.c ****     return found_p;
1152:lvgl\src\lv_core/lv_indev.c **** }
1153:lvgl\src\lv_core/lv_indev.c **** 
1154:lvgl\src\lv_core/lv_indev.c **** /**
1155:lvgl\src\lv_core/lv_indev.c ****  * Handle focus/defocus on click for POINTER input devices
1156:lvgl\src\lv_core/lv_indev.c ****  * @param proc pointer to the state of the indev
ARM GAS  C:\Users\strap\AppData\Local\Temp\cc4VwSsz.s 			page 23


1157:lvgl\src\lv_core/lv_indev.c ****  */
1158:lvgl\src\lv_core/lv_indev.c **** static void indev_click_focus(lv_indev_proc_t * proc)
1159:lvgl\src\lv_core/lv_indev.c **** {
1160:lvgl\src\lv_core/lv_indev.c ****     /*Handle click focus*/
1161:lvgl\src\lv_core/lv_indev.c ****     lv_obj_t * obj_to_focus = lv_obj_get_focused_obj(indev_obj_act);
1162:lvgl\src\lv_core/lv_indev.c ****     if(lv_obj_is_protected(indev_obj_act, LV_PROTECT_CLICK_FOCUS) == false &&
1163:lvgl\src\lv_core/lv_indev.c ****        proc->types.pointer.last_pressed != obj_to_focus) {
1164:lvgl\src\lv_core/lv_indev.c **** #if LV_USE_GROUP
1165:lvgl\src\lv_core/lv_indev.c ****         lv_group_t * g_act = lv_obj_get_group(obj_to_focus);
1166:lvgl\src\lv_core/lv_indev.c ****         lv_group_t * g_prev = proc->types.pointer.last_pressed ? lv_obj_get_group(proc->types.point
1167:lvgl\src\lv_core/lv_indev.c **** 
1168:lvgl\src\lv_core/lv_indev.c ****         /*If both the last and act. obj. are in the same group (or no group but it's also the same)
1169:lvgl\src\lv_core/lv_indev.c ****         if(g_act == g_prev) {
1170:lvgl\src\lv_core/lv_indev.c ****             /*The objects are in a group*/
1171:lvgl\src\lv_core/lv_indev.c ****             if(g_act) {
1172:lvgl\src\lv_core/lv_indev.c ****                 lv_group_focus_obj(obj_to_focus);
1173:lvgl\src\lv_core/lv_indev.c ****                 if(indev_reset_check(proc)) return;
1174:lvgl\src\lv_core/lv_indev.c ****             }
1175:lvgl\src\lv_core/lv_indev.c ****             /*The object are not in group*/
1176:lvgl\src\lv_core/lv_indev.c ****             else {
1177:lvgl\src\lv_core/lv_indev.c ****                 if(proc->types.pointer.last_pressed) {
1178:lvgl\src\lv_core/lv_indev.c ****                     lv_signal_send(proc->types.pointer.last_pressed, LV_SIGNAL_DEFOCUS, NULL);
1179:lvgl\src\lv_core/lv_indev.c ****                     if(indev_reset_check(proc)) return;
1180:lvgl\src\lv_core/lv_indev.c ****                     lv_event_send(proc->types.pointer.last_pressed, LV_EVENT_DEFOCUSED, NULL);
1181:lvgl\src\lv_core/lv_indev.c ****                     if(indev_reset_check(proc)) return;
1182:lvgl\src\lv_core/lv_indev.c ****                 }
1183:lvgl\src\lv_core/lv_indev.c **** 
1184:lvgl\src\lv_core/lv_indev.c ****                 lv_signal_send(obj_to_focus, LV_SIGNAL_FOCUS, NULL);
1185:lvgl\src\lv_core/lv_indev.c ****                 if(indev_reset_check(proc)) return;
1186:lvgl\src\lv_core/lv_indev.c ****                 lv_event_send(obj_to_focus, LV_EVENT_FOCUSED, NULL);
1187:lvgl\src\lv_core/lv_indev.c ****                 if(indev_reset_check(proc)) return;
1188:lvgl\src\lv_core/lv_indev.c ****             }
1189:lvgl\src\lv_core/lv_indev.c ****         }
1190:lvgl\src\lv_core/lv_indev.c ****         /*The object are not in the same group (in different group or one in not a group)*/
1191:lvgl\src\lv_core/lv_indev.c ****         else {
1192:lvgl\src\lv_core/lv_indev.c ****             /*If the prev. obj. is not in a group then defocus it.*/
1193:lvgl\src\lv_core/lv_indev.c ****             if(g_prev == NULL && proc->types.pointer.last_pressed) {
1194:lvgl\src\lv_core/lv_indev.c ****                 lv_signal_send(proc->types.pointer.last_pressed, LV_SIGNAL_DEFOCUS, NULL);
1195:lvgl\src\lv_core/lv_indev.c ****                 if(indev_reset_check(proc)) return;
1196:lvgl\src\lv_core/lv_indev.c ****                 lv_event_send(proc->types.pointer.last_pressed, LV_EVENT_DEFOCUSED, NULL);
1197:lvgl\src\lv_core/lv_indev.c ****                 if(indev_reset_check(proc)) return;
1198:lvgl\src\lv_core/lv_indev.c ****             }
1199:lvgl\src\lv_core/lv_indev.c ****             /*Focus on a non-group object*/
1200:lvgl\src\lv_core/lv_indev.c ****             else {
1201:lvgl\src\lv_core/lv_indev.c ****                 if(proc->types.pointer.last_pressed) {
1202:lvgl\src\lv_core/lv_indev.c ****                     /*If the prev. object also wasn't in a group defocus it*/
1203:lvgl\src\lv_core/lv_indev.c ****                     if(g_prev == NULL) {
1204:lvgl\src\lv_core/lv_indev.c ****                         lv_signal_send(proc->types.pointer.last_pressed, LV_SIGNAL_DEFOCUS, NULL);
1205:lvgl\src\lv_core/lv_indev.c ****                         if(indev_reset_check(proc)) return;
1206:lvgl\src\lv_core/lv_indev.c ****                         lv_event_send(proc->types.pointer.last_pressed, LV_EVENT_DEFOCUSED, NULL);
1207:lvgl\src\lv_core/lv_indev.c ****                         if(indev_reset_check(proc)) return;
1208:lvgl\src\lv_core/lv_indev.c ****                     }
1209:lvgl\src\lv_core/lv_indev.c ****                     /*If the prev. object also was in a group at least "LEAVE" it instead of defocu
1210:lvgl\src\lv_core/lv_indev.c ****                     else {
1211:lvgl\src\lv_core/lv_indev.c ****                         lv_signal_send(proc->types.pointer.last_pressed, LV_SIGNAL_LEAVE, NULL);
1212:lvgl\src\lv_core/lv_indev.c ****                         if(indev_reset_check(proc)) return;
1213:lvgl\src\lv_core/lv_indev.c ****                         lv_event_send(proc->types.pointer.last_pressed, LV_EVENT_LEAVE, NULL);
ARM GAS  C:\Users\strap\AppData\Local\Temp\cc4VwSsz.s 			page 24


1214:lvgl\src\lv_core/lv_indev.c ****                         if(indev_reset_check(proc)) return;
1215:lvgl\src\lv_core/lv_indev.c ****                     }
1216:lvgl\src\lv_core/lv_indev.c ****                 }
1217:lvgl\src\lv_core/lv_indev.c ****             }
1218:lvgl\src\lv_core/lv_indev.c **** 
1219:lvgl\src\lv_core/lv_indev.c ****             /*Focus to the act. in its group*/
1220:lvgl\src\lv_core/lv_indev.c ****             if(g_act) {
1221:lvgl\src\lv_core/lv_indev.c ****                 lv_group_focus_obj(obj_to_focus);
1222:lvgl\src\lv_core/lv_indev.c ****                 if(indev_reset_check(proc)) return;
1223:lvgl\src\lv_core/lv_indev.c ****             }
1224:lvgl\src\lv_core/lv_indev.c ****             else {
1225:lvgl\src\lv_core/lv_indev.c ****                 lv_signal_send(obj_to_focus, LV_SIGNAL_FOCUS, NULL);
1226:lvgl\src\lv_core/lv_indev.c ****                 if(indev_reset_check(proc)) return;
1227:lvgl\src\lv_core/lv_indev.c ****                 lv_event_send(obj_to_focus, LV_EVENT_FOCUSED, NULL);
1228:lvgl\src\lv_core/lv_indev.c ****                 if(indev_reset_check(proc)) return;
1229:lvgl\src\lv_core/lv_indev.c ****             }
1230:lvgl\src\lv_core/lv_indev.c ****         }
1231:lvgl\src\lv_core/lv_indev.c **** #else
1232:lvgl\src\lv_core/lv_indev.c ****         if(proc->types.pointer.last_pressed) {
1233:lvgl\src\lv_core/lv_indev.c ****             lv_signal_send(proc->types.pointer.last_pressed, LV_SIGNAL_DEFOCUS, NULL);
1234:lvgl\src\lv_core/lv_indev.c ****             if(indev_reset_check(proc)) return;
1235:lvgl\src\lv_core/lv_indev.c ****             lv_event_send(proc->types.pointer.last_pressed, LV_EVENT_DEFOCUSED, NULL);
1236:lvgl\src\lv_core/lv_indev.c ****             if(indev_reset_check(proc)) return;
1237:lvgl\src\lv_core/lv_indev.c ****         }
1238:lvgl\src\lv_core/lv_indev.c **** 
1239:lvgl\src\lv_core/lv_indev.c ****         lv_signal_send(obj_to_focus, LV_SIGNAL_FOCUS, NULL);
1240:lvgl\src\lv_core/lv_indev.c ****         if(indev_reset_check(proc)) return;
1241:lvgl\src\lv_core/lv_indev.c ****         lv_event_send(obj_to_focus, LV_EVENT_FOCUSED, NULL);
1242:lvgl\src\lv_core/lv_indev.c ****         if(indev_reset_check(proc)) return;
1243:lvgl\src\lv_core/lv_indev.c **** #endif
1244:lvgl\src\lv_core/lv_indev.c ****         proc->types.pointer.last_pressed = obj_to_focus;
1245:lvgl\src\lv_core/lv_indev.c ****     }
1246:lvgl\src\lv_core/lv_indev.c **** 
1247:lvgl\src\lv_core/lv_indev.c **** }
1248:lvgl\src\lv_core/lv_indev.c **** 
1249:lvgl\src\lv_core/lv_indev.c **** /**
1250:lvgl\src\lv_core/lv_indev.c ****  * Handle the dragging of indev_proc_p->types.pointer.act_obj
1251:lvgl\src\lv_core/lv_indev.c ****  * @param indev pointer to a input device state
1252:lvgl\src\lv_core/lv_indev.c ****  */
1253:lvgl\src\lv_core/lv_indev.c **** static void indev_drag(lv_indev_proc_t * proc)
1254:lvgl\src\lv_core/lv_indev.c **** {
1255:lvgl\src\lv_core/lv_indev.c ****     lv_obj_t * drag_obj    = get_dragged_obj(proc->types.pointer.act_obj);
1256:lvgl\src\lv_core/lv_indev.c ****     bool drag_just_started = false;
1257:lvgl\src\lv_core/lv_indev.c **** 
1258:lvgl\src\lv_core/lv_indev.c ****     if(drag_obj == NULL) return;
1259:lvgl\src\lv_core/lv_indev.c **** 
1260:lvgl\src\lv_core/lv_indev.c ****     if(lv_obj_get_drag(drag_obj) == false) return;
1261:lvgl\src\lv_core/lv_indev.c **** 
1262:lvgl\src\lv_core/lv_indev.c **** 
1263:lvgl\src\lv_core/lv_indev.c ****     lv_drag_dir_t allowed_dirs = lv_obj_get_drag_dir(drag_obj);
1264:lvgl\src\lv_core/lv_indev.c **** 
1265:lvgl\src\lv_core/lv_indev.c ****     /*Count the movement by drag*/
1266:lvgl\src\lv_core/lv_indev.c ****     if(proc->types.pointer.drag_limit_out == 0) {
1267:lvgl\src\lv_core/lv_indev.c ****         proc->types.pointer.drag_sum.x += proc->types.pointer.vect.x;
1268:lvgl\src\lv_core/lv_indev.c ****         proc->types.pointer.drag_sum.y += proc->types.pointer.vect.y;
1269:lvgl\src\lv_core/lv_indev.c **** 
1270:lvgl\src\lv_core/lv_indev.c ****         /*Enough move?*/
ARM GAS  C:\Users\strap\AppData\Local\Temp\cc4VwSsz.s 			page 25


1271:lvgl\src\lv_core/lv_indev.c ****         bool hor_en = false;
1272:lvgl\src\lv_core/lv_indev.c ****         bool ver_en = false;
1273:lvgl\src\lv_core/lv_indev.c ****         if(allowed_dirs == LV_DRAG_DIR_HOR || allowed_dirs == LV_DRAG_DIR_BOTH) {
1274:lvgl\src\lv_core/lv_indev.c ****             hor_en = true;
1275:lvgl\src\lv_core/lv_indev.c ****         }
1276:lvgl\src\lv_core/lv_indev.c **** 
1277:lvgl\src\lv_core/lv_indev.c ****         if(allowed_dirs == LV_DRAG_DIR_VER || allowed_dirs == LV_DRAG_DIR_BOTH) {
1278:lvgl\src\lv_core/lv_indev.c ****             ver_en = true;
1279:lvgl\src\lv_core/lv_indev.c ****         }
1280:lvgl\src\lv_core/lv_indev.c **** 
1281:lvgl\src\lv_core/lv_indev.c ****         if(allowed_dirs == LV_DRAG_DIR_ONE) {
1282:lvgl\src\lv_core/lv_indev.c ****             if(LV_MATH_ABS(proc->types.pointer.drag_sum.x) > LV_MATH_ABS(proc->types.pointer.drag_s
1283:lvgl\src\lv_core/lv_indev.c ****                 hor_en = true;
1284:lvgl\src\lv_core/lv_indev.c ****             }
1285:lvgl\src\lv_core/lv_indev.c ****             else {
1286:lvgl\src\lv_core/lv_indev.c ****                 ver_en = true;
1287:lvgl\src\lv_core/lv_indev.c ****             }
1288:lvgl\src\lv_core/lv_indev.c ****         }
1289:lvgl\src\lv_core/lv_indev.c **** 
1290:lvgl\src\lv_core/lv_indev.c ****         /*If a move is greater then LV_DRAG_LIMIT then begin the drag*/
1291:lvgl\src\lv_core/lv_indev.c ****         if((hor_en && LV_MATH_ABS(proc->types.pointer.drag_sum.x) >= indev_act->driver.drag_limit) 
1292:lvgl\src\lv_core/lv_indev.c ****            (ver_en && LV_MATH_ABS(proc->types.pointer.drag_sum.y) >= indev_act->driver.drag_limit))
1293:lvgl\src\lv_core/lv_indev.c ****             proc->types.pointer.drag_limit_out = 1;
1294:lvgl\src\lv_core/lv_indev.c ****             drag_just_started                   = true;
1295:lvgl\src\lv_core/lv_indev.c ****         }
1296:lvgl\src\lv_core/lv_indev.c ****     }
1297:lvgl\src\lv_core/lv_indev.c **** 
1298:lvgl\src\lv_core/lv_indev.c ****     /*If the drag limit is exceeded handle the dragging*/
1299:lvgl\src\lv_core/lv_indev.c ****     if(proc->types.pointer.drag_limit_out != 0) {
1300:lvgl\src\lv_core/lv_indev.c ****         /*Set new position if the vector is not zero*/
1301:lvgl\src\lv_core/lv_indev.c ****         if(proc->types.pointer.vect.x != 0 || proc->types.pointer.vect.y != 0) {
1302:lvgl\src\lv_core/lv_indev.c **** 
1303:lvgl\src\lv_core/lv_indev.c ****             lv_coord_t prev_x     = drag_obj->coords.x1;
1304:lvgl\src\lv_core/lv_indev.c ****             lv_coord_t prev_y     = drag_obj->coords.y1;
1305:lvgl\src\lv_core/lv_indev.c ****             lv_coord_t prev_par_w = lv_obj_get_width(lv_obj_get_parent(drag_obj));
1306:lvgl\src\lv_core/lv_indev.c ****             lv_coord_t prev_par_h = lv_obj_get_height(lv_obj_get_parent(drag_obj));
1307:lvgl\src\lv_core/lv_indev.c **** 
1308:lvgl\src\lv_core/lv_indev.c ****             /*Get the coordinates of the object and modify them*/
1309:lvgl\src\lv_core/lv_indev.c ****             lv_coord_t act_x = lv_obj_get_x(drag_obj);
1310:lvgl\src\lv_core/lv_indev.c ****             lv_coord_t act_y = lv_obj_get_y(drag_obj);
1311:lvgl\src\lv_core/lv_indev.c **** 
1312:lvgl\src\lv_core/lv_indev.c ****             if(allowed_dirs == LV_DRAG_DIR_BOTH) {
1313:lvgl\src\lv_core/lv_indev.c ****                 if(drag_just_started) {
1314:lvgl\src\lv_core/lv_indev.c ****                     proc->types.pointer.drag_dir = LV_DRAG_DIR_BOTH;
1315:lvgl\src\lv_core/lv_indev.c ****                     act_x += proc->types.pointer.drag_sum.x;
1316:lvgl\src\lv_core/lv_indev.c ****                     act_y += proc->types.pointer.drag_sum.y;
1317:lvgl\src\lv_core/lv_indev.c ****                 }
1318:lvgl\src\lv_core/lv_indev.c ****             }
1319:lvgl\src\lv_core/lv_indev.c ****             else if(allowed_dirs == LV_DRAG_DIR_HOR) {
1320:lvgl\src\lv_core/lv_indev.c ****                 if(drag_just_started) {
1321:lvgl\src\lv_core/lv_indev.c ****                     proc->types.pointer.drag_dir = LV_DRAG_DIR_HOR;
1322:lvgl\src\lv_core/lv_indev.c ****                     proc->types.pointer.drag_sum.y = 0;
1323:lvgl\src\lv_core/lv_indev.c ****                     act_x += proc->types.pointer.drag_sum.x;
1324:lvgl\src\lv_core/lv_indev.c ****                 }
1325:lvgl\src\lv_core/lv_indev.c ****             }
1326:lvgl\src\lv_core/lv_indev.c ****             else if(allowed_dirs == LV_DRAG_DIR_VER) {
1327:lvgl\src\lv_core/lv_indev.c ****                 if(drag_just_started) {
ARM GAS  C:\Users\strap\AppData\Local\Temp\cc4VwSsz.s 			page 26


1328:lvgl\src\lv_core/lv_indev.c ****                     proc->types.pointer.drag_dir = LV_DRAG_DIR_VER;
1329:lvgl\src\lv_core/lv_indev.c ****                     proc->types.pointer.drag_sum.x = 0;
1330:lvgl\src\lv_core/lv_indev.c ****                     act_y += proc->types.pointer.drag_sum.y;
1331:lvgl\src\lv_core/lv_indev.c ****                 }
1332:lvgl\src\lv_core/lv_indev.c ****             }
1333:lvgl\src\lv_core/lv_indev.c ****             else if(allowed_dirs == LV_DRAG_DIR_ONE) {
1334:lvgl\src\lv_core/lv_indev.c ****                 if(drag_just_started) {
1335:lvgl\src\lv_core/lv_indev.c ****                     if(LV_MATH_ABS(proc->types.pointer.drag_sum.x) > LV_MATH_ABS(proc->types.pointe
1336:lvgl\src\lv_core/lv_indev.c ****                         proc->types.pointer.drag_dir = LV_DRAG_DIR_HOR;
1337:lvgl\src\lv_core/lv_indev.c ****                         proc->types.pointer.drag_sum.y = 0;
1338:lvgl\src\lv_core/lv_indev.c ****                         act_x += proc->types.pointer.drag_sum.x;
1339:lvgl\src\lv_core/lv_indev.c ****                     }
1340:lvgl\src\lv_core/lv_indev.c ****                     else {
1341:lvgl\src\lv_core/lv_indev.c ****                         proc->types.pointer.drag_dir = LV_DRAG_DIR_VER;
1342:lvgl\src\lv_core/lv_indev.c ****                         proc->types.pointer.drag_sum.x = 0;
1343:lvgl\src\lv_core/lv_indev.c ****                         act_y += proc->types.pointer.drag_sum.y;
1344:lvgl\src\lv_core/lv_indev.c ****                     }
1345:lvgl\src\lv_core/lv_indev.c ****                 }
1346:lvgl\src\lv_core/lv_indev.c ****             }
1347:lvgl\src\lv_core/lv_indev.c **** 
1348:lvgl\src\lv_core/lv_indev.c ****             /*Move the object*/
1349:lvgl\src\lv_core/lv_indev.c ****             if(allowed_dirs == LV_DRAG_DIR_HOR ||
1350:lvgl\src\lv_core/lv_indev.c ****                allowed_dirs == LV_DRAG_DIR_BOTH ||
1351:lvgl\src\lv_core/lv_indev.c ****                (allowed_dirs == LV_DRAG_DIR_ONE &&
1352:lvgl\src\lv_core/lv_indev.c ****                 LV_MATH_ABS(proc->types.pointer.drag_sum.x) > LV_MATH_ABS(proc->types.pointer.drag_
1353:lvgl\src\lv_core/lv_indev.c ****                 act_x += proc->types.pointer.vect.x;
1354:lvgl\src\lv_core/lv_indev.c ****             }
1355:lvgl\src\lv_core/lv_indev.c ****             if(allowed_dirs == LV_DRAG_DIR_VER ||
1356:lvgl\src\lv_core/lv_indev.c ****                allowed_dirs == LV_DRAG_DIR_BOTH ||
1357:lvgl\src\lv_core/lv_indev.c ****                (allowed_dirs == LV_DRAG_DIR_ONE &&
1358:lvgl\src\lv_core/lv_indev.c ****                 LV_MATH_ABS(proc->types.pointer.drag_sum.x) < LV_MATH_ABS(proc->types.pointer.drag_
1359:lvgl\src\lv_core/lv_indev.c ****                 act_y += proc->types.pointer.vect.y;
1360:lvgl\src\lv_core/lv_indev.c ****             }
1361:lvgl\src\lv_core/lv_indev.c **** 
1362:lvgl\src\lv_core/lv_indev.c ****             uint16_t inv_buf_size =
1363:lvgl\src\lv_core/lv_indev.c ****                 lv_disp_get_inv_buf_size(indev_act->driver.disp); /*Get the number of currently inv
1364:lvgl\src\lv_core/lv_indev.c **** 
1365:lvgl\src\lv_core/lv_indev.c ****             lv_obj_set_pos(drag_obj, act_x, act_y);
1366:lvgl\src\lv_core/lv_indev.c ****             proc->types.pointer.drag_in_prog = 1;
1367:lvgl\src\lv_core/lv_indev.c **** 
1368:lvgl\src\lv_core/lv_indev.c ****             /*If the object didn't moved then clear the invalidated areas*/
1369:lvgl\src\lv_core/lv_indev.c ****             if(drag_obj->coords.x1 == prev_x && drag_obj->coords.y1 == prev_y) {
1370:lvgl\src\lv_core/lv_indev.c ****                 /*In a special case if the object is moved on a page and
1371:lvgl\src\lv_core/lv_indev.c ****                  * the scrollable has fit == true and the object is dragged of the page then
1372:lvgl\src\lv_core/lv_indev.c ****                  * while its coordinate is not changing only the parent's size is reduced */
1373:lvgl\src\lv_core/lv_indev.c ****                 lv_coord_t act_par_w = lv_obj_get_width(lv_obj_get_parent(drag_obj));
1374:lvgl\src\lv_core/lv_indev.c ****                 lv_coord_t act_par_h = lv_obj_get_height(lv_obj_get_parent(drag_obj));
1375:lvgl\src\lv_core/lv_indev.c ****                 if(act_par_w == prev_par_w && act_par_h == prev_par_h) {
1376:lvgl\src\lv_core/lv_indev.c ****                     uint16_t new_inv_buf_size = lv_disp_get_inv_buf_size(indev_act->driver.disp);
1377:lvgl\src\lv_core/lv_indev.c ****                     _lv_disp_pop_from_inv_buf(indev_act->driver.disp, new_inv_buf_size - inv_buf_si
1378:lvgl\src\lv_core/lv_indev.c ****                 }
1379:lvgl\src\lv_core/lv_indev.c ****             }
1380:lvgl\src\lv_core/lv_indev.c **** 
1381:lvgl\src\lv_core/lv_indev.c ****             /*Set the drag in progress flag*/
1382:lvgl\src\lv_core/lv_indev.c ****             /*Send the drag begin signal on first move*/
1383:lvgl\src\lv_core/lv_indev.c ****             if(drag_just_started) {
1384:lvgl\src\lv_core/lv_indev.c ****                 drag_obj->signal_cb(drag_obj, LV_SIGNAL_DRAG_BEGIN, indev_act);
ARM GAS  C:\Users\strap\AppData\Local\Temp\cc4VwSsz.s 			page 27


1385:lvgl\src\lv_core/lv_indev.c ****                 if(indev_reset_check(proc)) return;
1386:lvgl\src\lv_core/lv_indev.c **** 
1387:lvgl\src\lv_core/lv_indev.c ****                 lv_event_send(drag_obj, LV_EVENT_DRAG_BEGIN, NULL);
1388:lvgl\src\lv_core/lv_indev.c ****                 if(indev_reset_check(proc)) return;
1389:lvgl\src\lv_core/lv_indev.c ****             }
1390:lvgl\src\lv_core/lv_indev.c **** 
1391:lvgl\src\lv_core/lv_indev.c ****         }
1392:lvgl\src\lv_core/lv_indev.c ****     }
1393:lvgl\src\lv_core/lv_indev.c **** }
1394:lvgl\src\lv_core/lv_indev.c **** 
1395:lvgl\src\lv_core/lv_indev.c **** /**
1396:lvgl\src\lv_core/lv_indev.c ****  * Handle throwing by drag if the drag is ended
1397:lvgl\src\lv_core/lv_indev.c ****  * @param indev pointer to an input device state
1398:lvgl\src\lv_core/lv_indev.c ****  */
1399:lvgl\src\lv_core/lv_indev.c **** static void indev_drag_throw(lv_indev_proc_t * proc)
1400:lvgl\src\lv_core/lv_indev.c **** {
1401:lvgl\src\lv_core/lv_indev.c ****     if(proc->types.pointer.drag_in_prog == 0) return;
1402:lvgl\src\lv_core/lv_indev.c **** 
1403:lvgl\src\lv_core/lv_indev.c ****     lv_obj_t * drag_obj = get_dragged_obj(proc->types.pointer.last_obj);
1404:lvgl\src\lv_core/lv_indev.c **** 
1405:lvgl\src\lv_core/lv_indev.c ****     if(drag_obj == NULL) return;
1406:lvgl\src\lv_core/lv_indev.c **** 
1407:lvgl\src\lv_core/lv_indev.c ****     /*Return if the drag throw is not enabled*/
1408:lvgl\src\lv_core/lv_indev.c ****     if(lv_obj_get_drag_throw(drag_obj) == false) {
1409:lvgl\src\lv_core/lv_indev.c ****         proc->types.pointer.drag_in_prog = 0;
1410:lvgl\src\lv_core/lv_indev.c ****         drag_obj->signal_cb(drag_obj, LV_SIGNAL_DRAG_END, indev_act);
1411:lvgl\src\lv_core/lv_indev.c ****         if(indev_reset_check(proc)) return;
1412:lvgl\src\lv_core/lv_indev.c **** 
1413:lvgl\src\lv_core/lv_indev.c ****         lv_event_send(drag_obj, LV_EVENT_DRAG_END, NULL);
1414:lvgl\src\lv_core/lv_indev.c ****         return;
1415:lvgl\src\lv_core/lv_indev.c ****     }
1416:lvgl\src\lv_core/lv_indev.c **** 
1417:lvgl\src\lv_core/lv_indev.c ****     lv_drag_dir_t allowed_dirs = lv_obj_get_drag_dir(drag_obj);
1418:lvgl\src\lv_core/lv_indev.c **** 
1419:lvgl\src\lv_core/lv_indev.c ****     /*Reduce the vectors*/
1420:lvgl\src\lv_core/lv_indev.c ****     proc->types.pointer.drag_throw_vect.x =
1421:lvgl\src\lv_core/lv_indev.c ****         proc->types.pointer.drag_throw_vect.x * (100 - indev_act->driver.drag_throw) / 100;
1422:lvgl\src\lv_core/lv_indev.c ****     proc->types.pointer.drag_throw_vect.y =
1423:lvgl\src\lv_core/lv_indev.c ****         proc->types.pointer.drag_throw_vect.y * (100 - indev_act->driver.drag_throw) / 100;
1424:lvgl\src\lv_core/lv_indev.c **** 
1425:lvgl\src\lv_core/lv_indev.c ****     if(proc->types.pointer.drag_throw_vect.x != 0 || proc->types.pointer.drag_throw_vect.y != 0) {
1426:lvgl\src\lv_core/lv_indev.c ****         /*Get the coordinates and modify them*/
1427:lvgl\src\lv_core/lv_indev.c ****         lv_area_t coords_ori;
1428:lvgl\src\lv_core/lv_indev.c ****         lv_obj_get_coords(drag_obj, &coords_ori);
1429:lvgl\src\lv_core/lv_indev.c ****         lv_coord_t act_x = lv_obj_get_x(drag_obj) + proc->types.pointer.drag_throw_vect.x;
1430:lvgl\src\lv_core/lv_indev.c ****         lv_coord_t act_y = lv_obj_get_y(drag_obj) + proc->types.pointer.drag_throw_vect.y;
1431:lvgl\src\lv_core/lv_indev.c **** 
1432:lvgl\src\lv_core/lv_indev.c ****         if(allowed_dirs == LV_DRAG_DIR_BOTH) lv_obj_set_pos(drag_obj, act_x, act_y);
1433:lvgl\src\lv_core/lv_indev.c ****         else if(allowed_dirs == LV_DRAG_DIR_HOR) lv_obj_set_x(drag_obj, act_x);
1434:lvgl\src\lv_core/lv_indev.c ****         else if(allowed_dirs == LV_DRAG_DIR_VER) lv_obj_set_y(drag_obj, act_y);
1435:lvgl\src\lv_core/lv_indev.c ****         else if(allowed_dirs == LV_DRAG_DIR_ONE) {
1436:lvgl\src\lv_core/lv_indev.c ****             if(proc->types.pointer.drag_sum.x) lv_obj_set_x(drag_obj, act_x);
1437:lvgl\src\lv_core/lv_indev.c ****             else lv_obj_set_y(drag_obj, act_y);
1438:lvgl\src\lv_core/lv_indev.c ****         }
1439:lvgl\src\lv_core/lv_indev.c ****         lv_area_t coord_new;
1440:lvgl\src\lv_core/lv_indev.c ****         lv_obj_get_coords(drag_obj, &coord_new);
1441:lvgl\src\lv_core/lv_indev.c **** 
ARM GAS  C:\Users\strap\AppData\Local\Temp\cc4VwSsz.s 			page 28


1442:lvgl\src\lv_core/lv_indev.c ****         /*If non of the coordinates are changed then do not continue throwing*/
1443:lvgl\src\lv_core/lv_indev.c ****         if((coords_ori.x1 == coord_new.x1 || proc->types.pointer.drag_throw_vect.x == 0) &&
1444:lvgl\src\lv_core/lv_indev.c ****            (coords_ori.y1 == coord_new.y1 || proc->types.pointer.drag_throw_vect.y == 0)) {
1445:lvgl\src\lv_core/lv_indev.c ****             proc->types.pointer.drag_in_prog      = 0;
1446:lvgl\src\lv_core/lv_indev.c ****             proc->types.pointer.vect.x            = 0;
1447:lvgl\src\lv_core/lv_indev.c ****             proc->types.pointer.vect.y            = 0;
1448:lvgl\src\lv_core/lv_indev.c ****             proc->types.pointer.drag_throw_vect.x = 0;
1449:lvgl\src\lv_core/lv_indev.c ****             proc->types.pointer.drag_throw_vect.y = 0;
1450:lvgl\src\lv_core/lv_indev.c ****             drag_obj->signal_cb(drag_obj, LV_SIGNAL_DRAG_END, indev_act);
1451:lvgl\src\lv_core/lv_indev.c ****             if(indev_reset_check(proc)) return;
1452:lvgl\src\lv_core/lv_indev.c **** 
1453:lvgl\src\lv_core/lv_indev.c ****             lv_event_send(drag_obj, LV_EVENT_DRAG_END, NULL);
1454:lvgl\src\lv_core/lv_indev.c ****             if(indev_reset_check(proc)) return;
1455:lvgl\src\lv_core/lv_indev.c ****         }
1456:lvgl\src\lv_core/lv_indev.c ****     }
1457:lvgl\src\lv_core/lv_indev.c ****     /*If the types.pointer.vectors become 0 -> types.pointer.drag_in_prog = 0 and send a drag end
1458:lvgl\src\lv_core/lv_indev.c ****        signal*/
1459:lvgl\src\lv_core/lv_indev.c ****     else {
1460:lvgl\src\lv_core/lv_indev.c ****         proc->types.pointer.drag_in_prog = 0;
1461:lvgl\src\lv_core/lv_indev.c ****         drag_obj->signal_cb(drag_obj, LV_SIGNAL_DRAG_END, indev_act);
1462:lvgl\src\lv_core/lv_indev.c ****         if(indev_reset_check(proc)) return;
1463:lvgl\src\lv_core/lv_indev.c ****         lv_event_send(drag_obj, LV_EVENT_DRAG_END, NULL);
1464:lvgl\src\lv_core/lv_indev.c ****         if(indev_reset_check(proc)) return;
1465:lvgl\src\lv_core/lv_indev.c ****     }
1466:lvgl\src\lv_core/lv_indev.c **** }
1467:lvgl\src\lv_core/lv_indev.c **** 
1468:lvgl\src\lv_core/lv_indev.c **** 
1469:lvgl\src\lv_core/lv_indev.c **** /**
1470:lvgl\src\lv_core/lv_indev.c ****  * Get the really dragged object by taking `drag_parent` into account.
1471:lvgl\src\lv_core/lv_indev.c ****  * @param obj the start object
1472:lvgl\src\lv_core/lv_indev.c ****  * @return the object to really drag
1473:lvgl\src\lv_core/lv_indev.c ****  */
1474:lvgl\src\lv_core/lv_indev.c **** static lv_obj_t * get_dragged_obj(lv_obj_t * obj)
1475:lvgl\src\lv_core/lv_indev.c **** {
1476:lvgl\src\lv_core/lv_indev.c ****     if(obj == NULL) return NULL;
1477:lvgl\src\lv_core/lv_indev.c ****     lv_obj_t * drag_obj = obj;
1478:lvgl\src\lv_core/lv_indev.c ****     while(lv_obj_get_drag_parent(drag_obj) != false && drag_obj != NULL) {
1479:lvgl\src\lv_core/lv_indev.c ****         drag_obj = lv_obj_get_parent(drag_obj);
1480:lvgl\src\lv_core/lv_indev.c ****     }
1481:lvgl\src\lv_core/lv_indev.c **** 
1482:lvgl\src\lv_core/lv_indev.c ****     return drag_obj;
1483:lvgl\src\lv_core/lv_indev.c **** }
1484:lvgl\src\lv_core/lv_indev.c **** 
1485:lvgl\src\lv_core/lv_indev.c **** 
1486:lvgl\src\lv_core/lv_indev.c **** /**
1487:lvgl\src\lv_core/lv_indev.c **** * Handle the gesture of indev_proc_p->types.pointer.act_obj
1488:lvgl\src\lv_core/lv_indev.c **** * @param indev pointer to a input device state
1489:lvgl\src\lv_core/lv_indev.c **** */
1490:lvgl\src\lv_core/lv_indev.c **** static void indev_gesture(lv_indev_proc_t * proc)
1491:lvgl\src\lv_core/lv_indev.c **** {
1492:lvgl\src\lv_core/lv_indev.c **** 
1493:lvgl\src\lv_core/lv_indev.c ****     if(proc->types.pointer.gesture_sent) return;
1494:lvgl\src\lv_core/lv_indev.c **** 
1495:lvgl\src\lv_core/lv_indev.c ****     lv_obj_t * gesture_obj = proc->types.pointer.act_obj;
1496:lvgl\src\lv_core/lv_indev.c **** 
1497:lvgl\src\lv_core/lv_indev.c ****     /*If gesture parent is active check recursively the gesture attribute*/
1498:lvgl\src\lv_core/lv_indev.c ****     while(gesture_obj && lv_obj_get_gesture_parent(gesture_obj)) {
ARM GAS  C:\Users\strap\AppData\Local\Temp\cc4VwSsz.s 			page 29


1499:lvgl\src\lv_core/lv_indev.c ****         gesture_obj = lv_obj_get_parent(gesture_obj);
1500:lvgl\src\lv_core/lv_indev.c ****     }
1501:lvgl\src\lv_core/lv_indev.c **** 
1502:lvgl\src\lv_core/lv_indev.c ****     if(gesture_obj == NULL) return;
1503:lvgl\src\lv_core/lv_indev.c **** 
1504:lvgl\src\lv_core/lv_indev.c **** 
1505:lvgl\src\lv_core/lv_indev.c ****     if((LV_MATH_ABS(proc->types.pointer.vect.x) < indev_act->driver.gesture_min_velocity) &&
1506:lvgl\src\lv_core/lv_indev.c ****        (LV_MATH_ABS(proc->types.pointer.vect.y) < indev_act->driver.gesture_min_velocity)) {
1507:lvgl\src\lv_core/lv_indev.c ****         proc->types.pointer.gesture_sum.x = 0;
1508:lvgl\src\lv_core/lv_indev.c ****         proc->types.pointer.gesture_sum.y = 0;
1509:lvgl\src\lv_core/lv_indev.c ****     }
1510:lvgl\src\lv_core/lv_indev.c **** 
1511:lvgl\src\lv_core/lv_indev.c ****     /*Count the movement by gesture*/
1512:lvgl\src\lv_core/lv_indev.c ****     proc->types.pointer.gesture_sum.x += proc->types.pointer.vect.x;
1513:lvgl\src\lv_core/lv_indev.c ****     proc->types.pointer.gesture_sum.y += proc->types.pointer.vect.y;
1514:lvgl\src\lv_core/lv_indev.c **** 
1515:lvgl\src\lv_core/lv_indev.c ****     if((LV_MATH_ABS(proc->types.pointer.gesture_sum.x) > indev_act->driver.gesture_limit) ||
1516:lvgl\src\lv_core/lv_indev.c ****        (LV_MATH_ABS(proc->types.pointer.gesture_sum.y) > indev_act->driver.gesture_limit)) {
1517:lvgl\src\lv_core/lv_indev.c **** 
1518:lvgl\src\lv_core/lv_indev.c ****         proc->types.pointer.gesture_sent = 1;
1519:lvgl\src\lv_core/lv_indev.c **** 
1520:lvgl\src\lv_core/lv_indev.c ****         if(LV_MATH_ABS(proc->types.pointer.gesture_sum.x) > LV_MATH_ABS(proc->types.pointer.gesture
1521:lvgl\src\lv_core/lv_indev.c ****             if(proc->types.pointer.gesture_sum.x > 0)
1522:lvgl\src\lv_core/lv_indev.c ****                 proc->types.pointer.gesture_dir = LV_GESTURE_DIR_RIGHT;
1523:lvgl\src\lv_core/lv_indev.c ****             else
1524:lvgl\src\lv_core/lv_indev.c ****                 proc->types.pointer.gesture_dir = LV_GESTURE_DIR_LEFT;
1525:lvgl\src\lv_core/lv_indev.c ****         }
1526:lvgl\src\lv_core/lv_indev.c ****         else {
1527:lvgl\src\lv_core/lv_indev.c ****             if(proc->types.pointer.gesture_sum.y > 0)
1528:lvgl\src\lv_core/lv_indev.c ****                 proc->types.pointer.gesture_dir = LV_GESTURE_DIR_BOTTOM;
1529:lvgl\src\lv_core/lv_indev.c ****             else
1530:lvgl\src\lv_core/lv_indev.c ****                 proc->types.pointer.gesture_dir = LV_GESTURE_DIR_TOP;
1531:lvgl\src\lv_core/lv_indev.c ****         }
1532:lvgl\src\lv_core/lv_indev.c **** 
1533:lvgl\src\lv_core/lv_indev.c ****         gesture_obj->signal_cb(gesture_obj, LV_SIGNAL_GESTURE, indev_act);
1534:lvgl\src\lv_core/lv_indev.c ****         if(indev_reset_check(proc)) return;
1535:lvgl\src\lv_core/lv_indev.c ****         lv_event_send(gesture_obj, LV_EVENT_GESTURE, NULL);
1536:lvgl\src\lv_core/lv_indev.c ****         if(indev_reset_check(proc)) return;
1537:lvgl\src\lv_core/lv_indev.c ****     }
1538:lvgl\src\lv_core/lv_indev.c **** }
1539:lvgl\src\lv_core/lv_indev.c **** 
1540:lvgl\src\lv_core/lv_indev.c **** 
1541:lvgl\src\lv_core/lv_indev.c **** /**
1542:lvgl\src\lv_core/lv_indev.c ****  * Checks if the reset_query flag has been set. If so, perform necessary global indev cleanup actio
1543:lvgl\src\lv_core/lv_indev.c ****  * @param proc pointer to an input device 'proc'
1544:lvgl\src\lv_core/lv_indev.c ****  * @return true if indev query should be immediately truncated.
1545:lvgl\src\lv_core/lv_indev.c ****  */
1546:lvgl\src\lv_core/lv_indev.c **** static bool indev_reset_check(lv_indev_proc_t * proc)
1547:lvgl\src\lv_core/lv_indev.c **** {
  98              		.loc 1 1547 0
  99              		.cfi_startproc
 100              		@ args = 0, pretend = 0, frame = 0
 101              		@ frame_needed = 0, uses_anonymous_args = 0
 102              		@ link register save eliminated.
 103              	.LVL1:
1548:lvgl\src\lv_core/lv_indev.c ****     if(proc->reset_query) {
 104              		.loc 1 1548 0
ARM GAS  C:\Users\strap\AppData\Local\Temp\cc4VwSsz.s 			page 30


 105 0000 90F83430 		ldrb	r3, [r0, #52]	@ zero_extendqisi2
 106 0004 03F00203 		and	r3, r3, #2
 107 0008 03F0FF00 		and	r0, r3, #255
 108              	.LVL2:
 109 000c 13B1     		cbz	r3, .L9
1549:lvgl\src\lv_core/lv_indev.c ****         indev_obj_act = NULL;
 110              		.loc 1 1549 0
 111 000e 0022     		movs	r2, #0
 112 0010 024B     		ldr	r3, .L10
 113 0012 1A60     		str	r2, [r3]
 114              	.L9:
1550:lvgl\src\lv_core/lv_indev.c ****     }
1551:lvgl\src\lv_core/lv_indev.c **** 
1552:lvgl\src\lv_core/lv_indev.c ****     return proc->reset_query ? true : false;
1553:lvgl\src\lv_core/lv_indev.c **** }
 115              		.loc 1 1553 0
 116 0014 0030     		adds	r0, r0, #0
 117 0016 18BF     		it	ne
 118 0018 0120     		movne	r0, #1
 119 001a 7047     		bx	lr
 120              	.L11:
 121              		.align	2
 122              	.L10:
 123 001c 00000000 		.word	.LANCHOR0
 124              		.cfi_endproc
 125              	.LFE365:
 126              		.size	indev_reset_check, .-indev_reset_check
 127              		.section	.text.get_dragged_obj,"ax",%progbits
 128              		.align	2
 129              		.thumb
 130              		.thumb_func
 131              		.type	get_dragged_obj, %function
 132              	get_dragged_obj:
 133              	.LFB363:
1475:lvgl\src\lv_core/lv_indev.c ****     if(obj == NULL) return NULL;
 134              		.loc 1 1475 0
 135              		.cfi_startproc
 136              		@ args = 0, pretend = 0, frame = 0
 137              		@ frame_needed = 0, uses_anonymous_args = 0
 138              	.LVL3:
 139 0000 10B5     		push	{r4, lr}
 140              		.cfi_def_cfa_offset 8
 141              		.cfi_offset 4, -8
 142              		.cfi_offset 14, -4
1476:lvgl\src\lv_core/lv_indev.c ****     lv_obj_t * drag_obj = obj;
 143              		.loc 1 1476 0
 144 0002 0446     		mov	r4, r0
 145 0004 20B9     		cbnz	r0, .L14
 146 0006 0BE0     		b	.L16
 147              	.LVL4:
 148              	.L15:
1479:lvgl\src\lv_core/lv_indev.c ****     }
 149              		.loc 1 1479 0
 150 0008 2046     		mov	r0, r4
 151 000a FFF7FEFF 		bl	lv_obj_get_parent
 152              	.LVL5:
 153 000e 0446     		mov	r4, r0
ARM GAS  C:\Users\strap\AppData\Local\Temp\cc4VwSsz.s 			page 31


 154              	.LVL6:
 155              	.L14:
1478:lvgl\src\lv_core/lv_indev.c ****         drag_obj = lv_obj_get_parent(drag_obj);
 156              		.loc 1 1478 0
 157 0010 2046     		mov	r0, r4
 158 0012 FFF7FEFF 		bl	lv_obj_get_drag_parent
 159              	.LVL7:
 160 0016 28B1     		cbz	r0, .L17
1478:lvgl\src\lv_core/lv_indev.c ****         drag_obj = lv_obj_get_parent(drag_obj);
 161              		.loc 1 1478 0 is_stmt 0 discriminator 1
 162 0018 002C     		cmp	r4, #0
 163 001a F5D1     		bne	.L15
1482:lvgl\src\lv_core/lv_indev.c **** }
 164              		.loc 1 1482 0 is_stmt 1
 165 001c 2046     		mov	r0, r4
 166 001e 10BD     		pop	{r4, pc}
 167              	.LVL8:
 168              	.L16:
1476:lvgl\src\lv_core/lv_indev.c ****     lv_obj_t * drag_obj = obj;
 169              		.loc 1 1476 0
 170 0020 0020     		movs	r0, #0
 171              	.LVL9:
 172 0022 10BD     		pop	{r4, pc}
 173              	.LVL10:
 174              	.L17:
1482:lvgl\src\lv_core/lv_indev.c **** }
 175              		.loc 1 1482 0
 176 0024 2046     		mov	r0, r4
1483:lvgl\src\lv_core/lv_indev.c **** 
 177              		.loc 1 1483 0
 178 0026 10BD     		pop	{r4, pc}
 179              		.cfi_endproc
 180              	.LFE363:
 181              		.size	get_dragged_obj, .-get_dragged_obj
 182              		.section	.text.indev_drag_throw,"ax",%progbits
 183              		.align	2
 184              		.thumb
 185              		.thumb_func
 186              		.type	indev_drag_throw, %function
 187              	indev_drag_throw:
 188              	.LFB362:
1400:lvgl\src\lv_core/lv_indev.c ****     if(proc->types.pointer.drag_in_prog == 0) return;
 189              		.loc 1 1400 0
 190              		.cfi_startproc
 191              		@ args = 0, pretend = 0, frame = 16
 192              		@ frame_needed = 0, uses_anonymous_args = 0
 193              	.LVL11:
1401:lvgl\src\lv_core/lv_indev.c **** 
 194              		.loc 1 1401 0
 195 0000 90F82A30 		ldrb	r3, [r0, #42]	@ zero_extendqisi2
 196 0004 13F0020F 		tst	r3, #2
 197 0008 00F0CA80 		beq	.L33
1400:lvgl\src\lv_core/lv_indev.c ****     if(proc->types.pointer.drag_in_prog == 0) return;
 198              		.loc 1 1400 0
 199 000c F0B5     		push	{r4, r5, r6, r7, lr}
 200              		.cfi_def_cfa_offset 20
 201              		.cfi_offset 4, -20
ARM GAS  C:\Users\strap\AppData\Local\Temp\cc4VwSsz.s 			page 32


 202              		.cfi_offset 5, -16
 203              		.cfi_offset 6, -12
 204              		.cfi_offset 7, -8
 205              		.cfi_offset 14, -4
 206 000e 85B0     		sub	sp, sp, #20
 207              		.cfi_def_cfa_offset 40
 208 0010 0446     		mov	r4, r0
1403:lvgl\src\lv_core/lv_indev.c **** 
 209              		.loc 1 1403 0
 210 0012 C069     		ldr	r0, [r0, #28]
 211              	.LVL12:
 212 0014 FFF7FEFF 		bl	get_dragged_obj
 213              	.LVL13:
1405:lvgl\src\lv_core/lv_indev.c **** 
 214              		.loc 1 1405 0
 215 0018 0546     		mov	r5, r0
 216 001a 0028     		cmp	r0, #0
 217 001c 00F0BE80 		beq	.L19
1408:lvgl\src\lv_core/lv_indev.c ****         proc->types.pointer.drag_in_prog = 0;
 218              		.loc 1 1408 0
 219 0020 FFF7FEFF 		bl	lv_obj_get_drag_throw
 220              	.LVL14:
 221 0024 B8B9     		cbnz	r0, .L21
1409:lvgl\src\lv_core/lv_indev.c ****         drag_obj->signal_cb(drag_obj, LV_SIGNAL_DRAG_END, indev_act);
 222              		.loc 1 1409 0
 223 0026 94F82A30 		ldrb	r3, [r4, #42]	@ zero_extendqisi2
 224 002a 6FF34103 		bfc	r3, #1, #1
 225 002e 84F82A30 		strb	r3, [r4, #42]
1410:lvgl\src\lv_core/lv_indev.c ****         if(indev_reset_check(proc)) return;
 226              		.loc 1 1410 0
 227 0032 EB69     		ldr	r3, [r5, #28]
 228 0034 5B4A     		ldr	r2, .L34
 229 0036 5268     		ldr	r2, [r2, #4]
 230 0038 1321     		movs	r1, #19
 231 003a 2846     		mov	r0, r5
 232 003c 9847     		blx	r3
 233              	.LVL15:
1411:lvgl\src\lv_core/lv_indev.c **** 
 234              		.loc 1 1411 0
 235 003e 2046     		mov	r0, r4
 236 0040 FFF7FEFF 		bl	indev_reset_check
 237              	.LVL16:
 238 0044 0028     		cmp	r0, #0
 239 0046 40F0A980 		bne	.L19
1413:lvgl\src\lv_core/lv_indev.c ****         return;
 240              		.loc 1 1413 0
 241 004a 0022     		movs	r2, #0
 242 004c 0921     		movs	r1, #9
 243 004e 2846     		mov	r0, r5
 244 0050 FFF7FEFF 		bl	lv_event_send
 245              	.LVL17:
1414:lvgl\src\lv_core/lv_indev.c ****     }
 246              		.loc 1 1414 0
 247 0054 A2E0     		b	.L19
 248              	.L21:
1417:lvgl\src\lv_core/lv_indev.c **** 
 249              		.loc 1 1417 0
ARM GAS  C:\Users\strap\AppData\Local\Temp\cc4VwSsz.s 			page 33


 250 0056 2846     		mov	r0, r5
 251 0058 FFF7FEFF 		bl	lv_obj_get_drag_dir
 252              	.LVL18:
 253 005c 0646     		mov	r6, r0
 254              	.LVL19:
1421:lvgl\src\lv_core/lv_indev.c ****     proc->types.pointer.drag_throw_vect.y =
 255              		.loc 1 1421 0
 256 005e B4F91410 		ldrsh	r1, [r4, #20]
 257 0062 504B     		ldr	r3, .L34
 258 0064 5A68     		ldr	r2, [r3, #4]
 259 0066 537E     		ldrb	r3, [r2, #25]	@ zero_extendqisi2
 260 0068 C3F16403 		rsb	r3, r3, #100
 261 006c 03FB01F1 		mul	r1, r3, r1
 262 0070 4D48     		ldr	r0, .L34+4
 263 0072 80FB0173 		smull	r7, r3, r0, r1
 264 0076 C917     		asrs	r1, r1, #31
 265 0078 C1EB6311 		rsb	r1, r1, r3, asr #5
1420:lvgl\src\lv_core/lv_indev.c ****         proc->types.pointer.drag_throw_vect.x * (100 - indev_act->driver.drag_throw) / 100;
 266              		.loc 1 1420 0
 267 007c A182     		strh	r1, [r4, #20]	@ movhi
1423:lvgl\src\lv_core/lv_indev.c **** 
 268              		.loc 1 1423 0
 269 007e B4F91630 		ldrsh	r3, [r4, #22]
 270 0082 517E     		ldrb	r1, [r2, #25]	@ zero_extendqisi2
 271 0084 C1F16401 		rsb	r1, r1, #100
 272 0088 01FB03F3 		mul	r3, r1, r3
 273 008c 80FB0310 		smull	r1, r0, r0, r3
 274 0090 DB17     		asrs	r3, r3, #31
 275 0092 C3EB6013 		rsb	r3, r3, r0, asr #5
1422:lvgl\src\lv_core/lv_indev.c ****         proc->types.pointer.drag_throw_vect.y * (100 - indev_act->driver.drag_throw) / 100;
 276              		.loc 1 1422 0
 277 0096 E382     		strh	r3, [r4, #22]	@ movhi
1425:lvgl\src\lv_core/lv_indev.c ****         /*Get the coordinates and modify them*/
 278              		.loc 1 1425 0
 279 0098 6369     		ldr	r3, [r4, #20]
 280 009a 002B     		cmp	r3, #0
 281 009c 68D0     		beq	.L22
 282              	.LBB2:
1428:lvgl\src\lv_core/lv_indev.c ****         lv_coord_t act_x = lv_obj_get_x(drag_obj) + proc->types.pointer.drag_throw_vect.x;
 283              		.loc 1 1428 0
 284 009e 6946     		mov	r1, sp
 285 00a0 2846     		mov	r0, r5
 286 00a2 FFF7FEFF 		bl	lv_obj_get_coords
 287              	.LVL20:
1429:lvgl\src\lv_core/lv_indev.c ****         lv_coord_t act_y = lv_obj_get_y(drag_obj) + proc->types.pointer.drag_throw_vect.y;
 288              		.loc 1 1429 0
 289 00a6 2846     		mov	r0, r5
 290 00a8 FFF7FEFF 		bl	lv_obj_get_x
 291              	.LVL21:
 292 00ac B4F91430 		ldrsh	r3, [r4, #20]
 293 00b0 1844     		add	r0, r0, r3
 294 00b2 07B2     		sxth	r7, r0
 295              	.LVL22:
1430:lvgl\src\lv_core/lv_indev.c **** 
 296              		.loc 1 1430 0
 297 00b4 2846     		mov	r0, r5
 298 00b6 FFF7FEFF 		bl	lv_obj_get_y
ARM GAS  C:\Users\strap\AppData\Local\Temp\cc4VwSsz.s 			page 34


 299              	.LVL23:
 300 00ba B4F91620 		ldrsh	r2, [r4, #22]
 301 00be 1044     		add	r0, r0, r2
 302 00c0 01B2     		sxth	r1, r0
 303              	.LVL24:
1432:lvgl\src\lv_core/lv_indev.c ****         else if(allowed_dirs == LV_DRAG_DIR_HOR) lv_obj_set_x(drag_obj, act_x);
 304              		.loc 1 1432 0
 305 00c2 032E     		cmp	r6, #3
 306 00c4 05D1     		bne	.L23
1432:lvgl\src\lv_core/lv_indev.c ****         else if(allowed_dirs == LV_DRAG_DIR_HOR) lv_obj_set_x(drag_obj, act_x);
 307              		.loc 1 1432 0 is_stmt 0 discriminator 1
 308 00c6 0A46     		mov	r2, r1
 309 00c8 3946     		mov	r1, r7
 310              	.LVL25:
 311 00ca 2846     		mov	r0, r5
 312 00cc FFF7FEFF 		bl	lv_obj_set_pos
 313              	.LVL26:
 314 00d0 19E0     		b	.L24
 315              	.LVL27:
 316              	.L23:
1433:lvgl\src\lv_core/lv_indev.c ****         else if(allowed_dirs == LV_DRAG_DIR_VER) lv_obj_set_y(drag_obj, act_y);
 317              		.loc 1 1433 0 is_stmt 1
 318 00d2 012E     		cmp	r6, #1
 319 00d4 04D1     		bne	.L25
1433:lvgl\src\lv_core/lv_indev.c ****         else if(allowed_dirs == LV_DRAG_DIR_VER) lv_obj_set_y(drag_obj, act_y);
 320              		.loc 1 1433 0 is_stmt 0 discriminator 1
 321 00d6 3946     		mov	r1, r7
 322              	.LVL28:
 323 00d8 2846     		mov	r0, r5
 324              	.LVL29:
 325 00da FFF7FEFF 		bl	lv_obj_set_x
 326              	.LVL30:
 327 00de 12E0     		b	.L24
 328              	.LVL31:
 329              	.L25:
1434:lvgl\src\lv_core/lv_indev.c ****         else if(allowed_dirs == LV_DRAG_DIR_ONE) {
 330              		.loc 1 1434 0 is_stmt 1
 331 00e0 022E     		cmp	r6, #2
 332 00e2 03D1     		bne	.L26
1434:lvgl\src\lv_core/lv_indev.c ****         else if(allowed_dirs == LV_DRAG_DIR_ONE) {
 333              		.loc 1 1434 0 is_stmt 0 discriminator 1
 334 00e4 2846     		mov	r0, r5
 335 00e6 FFF7FEFF 		bl	lv_obj_set_y
 336              	.LVL32:
 337 00ea 0CE0     		b	.L24
 338              	.LVL33:
 339              	.L26:
1435:lvgl\src\lv_core/lv_indev.c ****             if(proc->types.pointer.drag_sum.x) lv_obj_set_x(drag_obj, act_x);
 340              		.loc 1 1435 0 is_stmt 1
 341 00ec 042E     		cmp	r6, #4
 342 00ee 0AD1     		bne	.L24
1436:lvgl\src\lv_core/lv_indev.c ****             else lv_obj_set_y(drag_obj, act_y);
 343              		.loc 1 1436 0
 344 00f0 B4F91030 		ldrsh	r3, [r4, #16]
 345 00f4 23B1     		cbz	r3, .L27
1436:lvgl\src\lv_core/lv_indev.c ****             else lv_obj_set_y(drag_obj, act_y);
 346              		.loc 1 1436 0 is_stmt 0 discriminator 1
ARM GAS  C:\Users\strap\AppData\Local\Temp\cc4VwSsz.s 			page 35


 347 00f6 3946     		mov	r1, r7
 348              	.LVL34:
 349 00f8 2846     		mov	r0, r5
 350              	.LVL35:
 351 00fa FFF7FEFF 		bl	lv_obj_set_x
 352              	.LVL36:
 353 00fe 02E0     		b	.L24
 354              	.LVL37:
 355              	.L27:
1437:lvgl\src\lv_core/lv_indev.c ****         }
 356              		.loc 1 1437 0 is_stmt 1
 357 0100 2846     		mov	r0, r5
 358 0102 FFF7FEFF 		bl	lv_obj_set_y
 359              	.LVL38:
 360              	.L24:
1440:lvgl\src\lv_core/lv_indev.c **** 
 361              		.loc 1 1440 0
 362 0106 02A9     		add	r1, sp, #8
 363 0108 2846     		mov	r0, r5
 364 010a FFF7FEFF 		bl	lv_obj_get_coords
 365              	.LVL39:
1443:lvgl\src\lv_core/lv_indev.c ****            (coords_ori.y1 == coord_new.y1 || proc->types.pointer.drag_throw_vect.y == 0)) {
 366              		.loc 1 1443 0
 367 010e BDF90020 		ldrsh	r2, [sp]
 368 0112 BDF90830 		ldrsh	r3, [sp, #8]
 369 0116 9A42     		cmp	r2, r3
 370 0118 03D0     		beq	.L28
1443:lvgl\src\lv_core/lv_indev.c ****            (coords_ori.y1 == coord_new.y1 || proc->types.pointer.drag_throw_vect.y == 0)) {
 371              		.loc 1 1443 0 is_stmt 0 discriminator 2
 372 011a B4F91430 		ldrsh	r3, [r4, #20]
 373 011e 002B     		cmp	r3, #0
 374 0120 3CD1     		bne	.L19
 375              	.L28:
1444:lvgl\src\lv_core/lv_indev.c ****             proc->types.pointer.drag_in_prog      = 0;
 376              		.loc 1 1444 0 is_stmt 1 discriminator 3
 377 0122 BDF90220 		ldrsh	r2, [sp, #2]
 378 0126 BDF90A30 		ldrsh	r3, [sp, #10]
1443:lvgl\src\lv_core/lv_indev.c ****            (coords_ori.y1 == coord_new.y1 || proc->types.pointer.drag_throw_vect.y == 0)) {
 379              		.loc 1 1443 0 discriminator 3
 380 012a 9A42     		cmp	r2, r3
 381 012c 02D0     		beq	.L30
1444:lvgl\src\lv_core/lv_indev.c ****             proc->types.pointer.drag_in_prog      = 0;
 382              		.loc 1 1444 0
 383 012e B4F91630 		ldrsh	r3, [r4, #22]
 384 0132 9BBB     		cbnz	r3, .L19
 385              	.L30:
1445:lvgl\src\lv_core/lv_indev.c ****             proc->types.pointer.vect.x            = 0;
 386              		.loc 1 1445 0
 387 0134 94F82A30 		ldrb	r3, [r4, #42]	@ zero_extendqisi2
 388 0138 6FF34103 		bfc	r3, #1, #1
 389 013c 84F82A30 		strb	r3, [r4, #42]
1446:lvgl\src\lv_core/lv_indev.c ****             proc->types.pointer.vect.y            = 0;
 390              		.loc 1 1446 0
 391 0140 0023     		movs	r3, #0
 392 0142 A381     		strh	r3, [r4, #12]	@ movhi
1447:lvgl\src\lv_core/lv_indev.c ****             proc->types.pointer.drag_throw_vect.x = 0;
 393              		.loc 1 1447 0
ARM GAS  C:\Users\strap\AppData\Local\Temp\cc4VwSsz.s 			page 36


 394 0144 E381     		strh	r3, [r4, #14]	@ movhi
1448:lvgl\src\lv_core/lv_indev.c ****             proc->types.pointer.drag_throw_vect.y = 0;
 395              		.loc 1 1448 0
 396 0146 A382     		strh	r3, [r4, #20]	@ movhi
1449:lvgl\src\lv_core/lv_indev.c ****             drag_obj->signal_cb(drag_obj, LV_SIGNAL_DRAG_END, indev_act);
 397              		.loc 1 1449 0
 398 0148 E382     		strh	r3, [r4, #22]	@ movhi
1450:lvgl\src\lv_core/lv_indev.c ****             if(indev_reset_check(proc)) return;
 399              		.loc 1 1450 0
 400 014a EB69     		ldr	r3, [r5, #28]
 401 014c 154A     		ldr	r2, .L34
 402 014e 5268     		ldr	r2, [r2, #4]
 403 0150 1321     		movs	r1, #19
 404 0152 2846     		mov	r0, r5
 405 0154 9847     		blx	r3
 406              	.LVL40:
1451:lvgl\src\lv_core/lv_indev.c **** 
 407              		.loc 1 1451 0
 408 0156 2046     		mov	r0, r4
 409 0158 FFF7FEFF 		bl	indev_reset_check
 410              	.LVL41:
 411 015c F0B9     		cbnz	r0, .L19
1453:lvgl\src\lv_core/lv_indev.c ****             if(indev_reset_check(proc)) return;
 412              		.loc 1 1453 0
 413 015e 0022     		movs	r2, #0
 414 0160 0921     		movs	r1, #9
 415 0162 2846     		mov	r0, r5
 416 0164 FFF7FEFF 		bl	lv_event_send
 417              	.LVL42:
1454:lvgl\src\lv_core/lv_indev.c ****         }
 418              		.loc 1 1454 0
 419 0168 2046     		mov	r0, r4
 420 016a FFF7FEFF 		bl	indev_reset_check
 421              	.LVL43:
 422 016e 15E0     		b	.L19
 423              	.LVL44:
 424              	.L22:
 425              	.LBE2:
1460:lvgl\src\lv_core/lv_indev.c ****         drag_obj->signal_cb(drag_obj, LV_SIGNAL_DRAG_END, indev_act);
 426              		.loc 1 1460 0
 427 0170 94F82A30 		ldrb	r3, [r4, #42]	@ zero_extendqisi2
 428 0174 6FF34103 		bfc	r3, #1, #1
 429 0178 84F82A30 		strb	r3, [r4, #42]
1461:lvgl\src\lv_core/lv_indev.c ****         if(indev_reset_check(proc)) return;
 430              		.loc 1 1461 0
 431 017c EB69     		ldr	r3, [r5, #28]
 432 017e 1321     		movs	r1, #19
 433 0180 2846     		mov	r0, r5
 434 0182 9847     		blx	r3
 435              	.LVL45:
1462:lvgl\src\lv_core/lv_indev.c ****         lv_event_send(drag_obj, LV_EVENT_DRAG_END, NULL);
 436              		.loc 1 1462 0
 437 0184 2046     		mov	r0, r4
 438 0186 FFF7FEFF 		bl	indev_reset_check
 439              	.LVL46:
 440 018a 38B9     		cbnz	r0, .L19
1463:lvgl\src\lv_core/lv_indev.c ****         if(indev_reset_check(proc)) return;
ARM GAS  C:\Users\strap\AppData\Local\Temp\cc4VwSsz.s 			page 37


 441              		.loc 1 1463 0
 442 018c 0022     		movs	r2, #0
 443 018e 0921     		movs	r1, #9
 444 0190 2846     		mov	r0, r5
 445 0192 FFF7FEFF 		bl	lv_event_send
 446              	.LVL47:
1464:lvgl\src\lv_core/lv_indev.c ****     }
 447              		.loc 1 1464 0
 448 0196 2046     		mov	r0, r4
 449 0198 FFF7FEFF 		bl	indev_reset_check
 450              	.LVL48:
 451              	.L19:
1466:lvgl\src\lv_core/lv_indev.c **** 
 452              		.loc 1 1466 0
 453 019c 05B0     		add	sp, sp, #20
 454              		.cfi_def_cfa_offset 20
 455              		@ sp needed
 456 019e F0BD     		pop	{r4, r5, r6, r7, pc}
 457              	.LVL49:
 458              	.L33:
 459              		.cfi_def_cfa_offset 0
 460              		.cfi_restore 4
 461              		.cfi_restore 5
 462              		.cfi_restore 6
 463              		.cfi_restore 7
 464              		.cfi_restore 14
 465 01a0 7047     		bx	lr
 466              	.L35:
 467 01a2 00BF     		.align	2
 468              	.L34:
 469 01a4 00000000 		.word	.LANCHOR0
 470 01a8 1F85EB51 		.word	1374389535
 471              		.cfi_endproc
 472              	.LFE362:
 473              		.size	indev_drag_throw, .-indev_drag_throw
 474              		.section	.text.indev_proc_release,"ax",%progbits
 475              		.align	2
 476              		.thumb
 477              		.thumb_func
 478              		.type	indev_proc_release, %function
 479              	indev_proc_release:
 480              	.LFB357:
1007:lvgl\src\lv_core/lv_indev.c ****     if(proc->wait_until_release != 0) {
 481              		.loc 1 1007 0
 482              		.cfi_startproc
 483              		@ args = 0, pretend = 0, frame = 0
 484              		@ frame_needed = 0, uses_anonymous_args = 0
 485              	.LVL50:
 486 0000 38B5     		push	{r3, r4, r5, lr}
 487              		.cfi_def_cfa_offset 16
 488              		.cfi_offset 3, -16
 489              		.cfi_offset 4, -12
 490              		.cfi_offset 5, -8
 491              		.cfi_offset 14, -4
 492 0002 0446     		mov	r4, r0
1008:lvgl\src\lv_core/lv_indev.c ****         proc->types.pointer.act_obj  = NULL;
 493              		.loc 1 1008 0
ARM GAS  C:\Users\strap\AppData\Local\Temp\cc4VwSsz.s 			page 38


 494 0004 90F83430 		ldrb	r3, [r0, #52]	@ zero_extendqisi2
 495 0008 13F0080F 		tst	r3, #8
 496 000c 0AD0     		beq	.L37
1009:lvgl\src\lv_core/lv_indev.c ****         proc->types.pointer.last_obj = NULL;
 497              		.loc 1 1009 0
 498 000e 0023     		movs	r3, #0
 499 0010 8361     		str	r3, [r0, #24]
1010:lvgl\src\lv_core/lv_indev.c ****         proc->pr_timestamp           = 0;
 500              		.loc 1 1010 0
 501 0012 C361     		str	r3, [r0, #28]
1011:lvgl\src\lv_core/lv_indev.c ****         proc->longpr_rep_timestamp   = 0;
 502              		.loc 1 1011 0
 503 0014 C362     		str	r3, [r0, #44]
1012:lvgl\src\lv_core/lv_indev.c ****         proc->wait_until_release     = 0;
 504              		.loc 1 1012 0
 505 0016 0363     		str	r3, [r0, #48]
1013:lvgl\src\lv_core/lv_indev.c ****     }
 506              		.loc 1 1013 0
 507 0018 90F83420 		ldrb	r2, [r0, #52]	@ zero_extendqisi2
 508 001c 63F3C302 		bfi	r2, r3, #3, #1
 509 0020 80F83420 		strb	r2, [r0, #52]
 510              	.L37:
1015:lvgl\src\lv_core/lv_indev.c **** 
 511              		.loc 1 1015 0
 512 0024 A069     		ldr	r0, [r4, #24]
 513              	.LVL51:
 514 0026 584B     		ldr	r3, .L49
 515 0028 1860     		str	r0, [r3]
1018:lvgl\src\lv_core/lv_indev.c **** 
 516              		.loc 1 1018 0
 517 002a 0028     		cmp	r0, #0
 518 002c 00F09D80 		beq	.L38
 519              	.LBB3:
1024:lvgl\src\lv_core/lv_indev.c ****             indev_obj_act->signal_cb(indev_obj_act, LV_SIGNAL_RELEASED, indev_act);
 520              		.loc 1 1024 0
 521 0030 1021     		movs	r1, #16
 522 0032 FFF7FEFF 		bl	lv_obj_is_protected
 523              	.LVL52:
 524 0036 0028     		cmp	r0, #0
 525 0038 38D0     		beq	.L39
1025:lvgl\src\lv_core/lv_indev.c ****             if(indev_reset_check(proc)) return;
 526              		.loc 1 1025 0
 527 003a 534B     		ldr	r3, .L49
 528 003c 1868     		ldr	r0, [r3]
 529 003e C569     		ldr	r5, [r0, #28]
 530 0040 5A68     		ldr	r2, [r3, #4]
 531 0042 0E21     		movs	r1, #14
 532 0044 A847     		blx	r5
 533              	.LVL53:
1026:lvgl\src\lv_core/lv_indev.c **** 
 534              		.loc 1 1026 0
 535 0046 2046     		mov	r0, r4
 536 0048 FFF7FEFF 		bl	indev_reset_check
 537              	.LVL54:
 538 004c 0028     		cmp	r0, #0
 539 004e 40F09980 		bne	.L36
1028:lvgl\src\lv_core/lv_indev.c ****                 if(proc->long_pr_sent == 0) {
ARM GAS  C:\Users\strap\AppData\Local\Temp\cc4VwSsz.s 			page 39


 540              		.loc 1 1028 0
 541 0052 94F82A30 		ldrb	r3, [r4, #42]	@ zero_extendqisi2
 542 0056 13F0020F 		tst	r3, #2
 543 005a 1BD1     		bne	.L41
1029:lvgl\src\lv_core/lv_indev.c ****                     lv_event_send(indev_obj_act, LV_EVENT_SHORT_CLICKED, NULL);
 544              		.loc 1 1029 0
 545 005c 94F83430 		ldrb	r3, [r4, #52]	@ zero_extendqisi2
 546 0060 13F0010F 		tst	r3, #1
 547 0064 0BD1     		bne	.L42
1030:lvgl\src\lv_core/lv_indev.c ****                     if(indev_reset_check(proc)) return;
 548              		.loc 1 1030 0
 549 0066 0022     		movs	r2, #0
 550 0068 0321     		movs	r1, #3
 551 006a 474B     		ldr	r3, .L49
 552 006c 1868     		ldr	r0, [r3]
 553 006e FFF7FEFF 		bl	lv_event_send
 554              	.LVL55:
1031:lvgl\src\lv_core/lv_indev.c ****                 }
 555              		.loc 1 1031 0
 556 0072 2046     		mov	r0, r4
 557 0074 FFF7FEFF 		bl	indev_reset_check
 558              	.LVL56:
 559 0078 0028     		cmp	r0, #0
 560 007a 40F08380 		bne	.L36
 561              	.L42:
1034:lvgl\src\lv_core/lv_indev.c ****                 if(indev_reset_check(proc)) return;
 562              		.loc 1 1034 0
 563 007e 0022     		movs	r2, #0
 564 0080 0621     		movs	r1, #6
 565 0082 414B     		ldr	r3, .L49
 566 0084 1868     		ldr	r0, [r3]
 567 0086 FFF7FEFF 		bl	lv_event_send
 568              	.LVL57:
1035:lvgl\src\lv_core/lv_indev.c ****             }
 569              		.loc 1 1035 0
 570 008a 2046     		mov	r0, r4
 571 008c FFF7FEFF 		bl	indev_reset_check
 572              	.LVL58:
 573 0090 0028     		cmp	r0, #0
 574 0092 77D1     		bne	.L36
 575              	.L41:
1038:lvgl\src\lv_core/lv_indev.c ****             if(indev_reset_check(proc)) return;
 576              		.loc 1 1038 0
 577 0094 0022     		movs	r2, #0
 578 0096 0721     		movs	r1, #7
 579 0098 3B4B     		ldr	r3, .L49
 580 009a 1868     		ldr	r0, [r3]
 581 009c FFF7FEFF 		bl	lv_event_send
 582              	.LVL59:
1039:lvgl\src\lv_core/lv_indev.c ****         }
 583              		.loc 1 1039 0
 584 00a0 2046     		mov	r0, r4
 585 00a2 FFF7FEFF 		bl	indev_reset_check
 586              	.LVL60:
 587 00a6 0028     		cmp	r0, #0
 588 00a8 3AD0     		beq	.L43
 589 00aa 38BD     		pop	{r3, r4, r5, pc}
ARM GAS  C:\Users\strap\AppData\Local\Temp\cc4VwSsz.s 			page 40


 590              	.LVL61:
 591              	.L39:
1044:lvgl\src\lv_core/lv_indev.c ****             if(indev_reset_check(proc)) return;
 592              		.loc 1 1044 0
 593 00ac 364B     		ldr	r3, .L49
 594 00ae 1868     		ldr	r0, [r3]
 595 00b0 C569     		ldr	r5, [r0, #28]
 596 00b2 5A68     		ldr	r2, [r3, #4]
 597 00b4 0E21     		movs	r1, #14
 598 00b6 A847     		blx	r5
 599              	.LVL62:
1045:lvgl\src\lv_core/lv_indev.c **** 
 600              		.loc 1 1045 0
 601 00b8 2046     		mov	r0, r4
 602 00ba FFF7FEFF 		bl	indev_reset_check
 603              	.LVL63:
 604 00be 0028     		cmp	r0, #0
 605 00c0 60D1     		bne	.L36
1047:lvgl\src\lv_core/lv_indev.c ****                 lv_event_send(indev_obj_act, LV_EVENT_SHORT_CLICKED, NULL);
 606              		.loc 1 1047 0
 607 00c2 94F83430 		ldrb	r3, [r4, #52]	@ zero_extendqisi2
 608 00c6 13F0010F 		tst	r3, #1
 609 00ca 0FD1     		bne	.L44
1047:lvgl\src\lv_core/lv_indev.c ****                 lv_event_send(indev_obj_act, LV_EVENT_SHORT_CLICKED, NULL);
 610              		.loc 1 1047 0 is_stmt 0 discriminator 1
 611 00cc 94F82A30 		ldrb	r3, [r4, #42]	@ zero_extendqisi2
 612 00d0 13F0020F 		tst	r3, #2
 613 00d4 0AD1     		bne	.L44
1048:lvgl\src\lv_core/lv_indev.c ****                 if(indev_reset_check(proc)) return;
 614              		.loc 1 1048 0 is_stmt 1
 615 00d6 0022     		movs	r2, #0
 616 00d8 0321     		movs	r1, #3
 617 00da 2B4B     		ldr	r3, .L49
 618 00dc 1868     		ldr	r0, [r3]
 619 00de FFF7FEFF 		bl	lv_event_send
 620              	.LVL64:
1049:lvgl\src\lv_core/lv_indev.c ****             }
 621              		.loc 1 1049 0
 622 00e2 2046     		mov	r0, r4
 623 00e4 FFF7FEFF 		bl	indev_reset_check
 624              	.LVL65:
 625 00e8 0028     		cmp	r0, #0
 626 00ea 4BD1     		bne	.L36
 627              	.L44:
1052:lvgl\src\lv_core/lv_indev.c ****                 lv_event_send(indev_obj_act, LV_EVENT_CLICKED, NULL);
 628              		.loc 1 1052 0
 629 00ec 94F82A30 		ldrb	r3, [r4, #42]	@ zero_extendqisi2
 630 00f0 13F0020F 		tst	r3, #2
 631 00f4 0AD1     		bne	.L45
1053:lvgl\src\lv_core/lv_indev.c ****                 if(indev_reset_check(proc)) return;
 632              		.loc 1 1053 0
 633 00f6 0022     		movs	r2, #0
 634 00f8 0621     		movs	r1, #6
 635 00fa 234B     		ldr	r3, .L49
 636 00fc 1868     		ldr	r0, [r3]
 637 00fe FFF7FEFF 		bl	lv_event_send
 638              	.LVL66:
ARM GAS  C:\Users\strap\AppData\Local\Temp\cc4VwSsz.s 			page 41


1054:lvgl\src\lv_core/lv_indev.c ****             }
 639              		.loc 1 1054 0
 640 0102 2046     		mov	r0, r4
 641 0104 FFF7FEFF 		bl	indev_reset_check
 642              	.LVL67:
 643 0108 0028     		cmp	r0, #0
 644 010a 3BD1     		bne	.L36
 645              	.L45:
1057:lvgl\src\lv_core/lv_indev.c ****             if(indev_reset_check(proc)) return;
 646              		.loc 1 1057 0
 647 010c 0022     		movs	r2, #0
 648 010e 0721     		movs	r1, #7
 649 0110 1D4B     		ldr	r3, .L49
 650 0112 1868     		ldr	r0, [r3]
 651 0114 FFF7FEFF 		bl	lv_event_send
 652              	.LVL68:
1058:lvgl\src\lv_core/lv_indev.c ****         }
 653              		.loc 1 1058 0
 654 0118 2046     		mov	r0, r4
 655 011a FFF7FEFF 		bl	indev_reset_check
 656              	.LVL69:
 657 011e 88BB     		cbnz	r0, .L36
 658              	.L43:
1063:lvgl\src\lv_core/lv_indev.c ****         if(drag_obj) {
 659              		.loc 1 1063 0
 660 0120 194B     		ldr	r3, .L49
 661 0122 1868     		ldr	r0, [r3]
 662 0124 FFF7FEFF 		bl	get_dragged_obj
 663              	.LVL70:
1064:lvgl\src\lv_core/lv_indev.c ****             if(lv_obj_get_drag_throw(drag_obj) && proc->types.pointer.drag_in_prog) {
 664              		.loc 1 1064 0
 665 0128 0546     		mov	r5, r0
 666 012a D0B1     		cbz	r0, .L46
1065:lvgl\src\lv_core/lv_indev.c ****                 if(drag_obj->signal_cb) drag_obj->signal_cb(drag_obj, LV_SIGNAL_DRAG_THROW_BEGIN, N
 667              		.loc 1 1065 0
 668 012c FFF7FEFF 		bl	lv_obj_get_drag_throw
 669              	.LVL71:
 670 0130 B8B1     		cbz	r0, .L46
1065:lvgl\src\lv_core/lv_indev.c ****                 if(drag_obj->signal_cb) drag_obj->signal_cb(drag_obj, LV_SIGNAL_DRAG_THROW_BEGIN, N
 671              		.loc 1 1065 0 is_stmt 0 discriminator 1
 672 0132 94F82A30 		ldrb	r3, [r4, #42]	@ zero_extendqisi2
 673 0136 13F0020F 		tst	r3, #2
 674 013a 12D0     		beq	.L46
1066:lvgl\src\lv_core/lv_indev.c ****                 if(indev_reset_check(proc)) return;
 675              		.loc 1 1066 0 is_stmt 1
 676 013c EB69     		ldr	r3, [r5, #28]
 677 013e 1BB1     		cbz	r3, .L47
1066:lvgl\src\lv_core/lv_indev.c ****                 if(indev_reset_check(proc)) return;
 678              		.loc 1 1066 0 is_stmt 0 discriminator 1
 679 0140 0022     		movs	r2, #0
 680 0142 1221     		movs	r1, #18
 681 0144 2846     		mov	r0, r5
 682 0146 9847     		blx	r3
 683              	.LVL72:
 684              	.L47:
1067:lvgl\src\lv_core/lv_indev.c **** 
 685              		.loc 1 1067 0 is_stmt 1
ARM GAS  C:\Users\strap\AppData\Local\Temp\cc4VwSsz.s 			page 42


 686 0148 2046     		mov	r0, r4
 687 014a FFF7FEFF 		bl	indev_reset_check
 688              	.LVL73:
 689 014e C8B9     		cbnz	r0, .L36
1069:lvgl\src\lv_core/lv_indev.c ****                 if(indev_reset_check(proc)) return;
 690              		.loc 1 1069 0
 691 0150 0022     		movs	r2, #0
 692 0152 0A21     		movs	r1, #10
 693 0154 2846     		mov	r0, r5
 694 0156 FFF7FEFF 		bl	lv_event_send
 695              	.LVL74:
1070:lvgl\src\lv_core/lv_indev.c ****             }
 696              		.loc 1 1070 0
 697 015a 2046     		mov	r0, r4
 698 015c FFF7FEFF 		bl	indev_reset_check
 699              	.LVL75:
 700 0160 80B9     		cbnz	r0, .L36
 701              	.L46:
1074:lvgl\src\lv_core/lv_indev.c ****         proc->pr_timestamp          = 0;
 702              		.loc 1 1074 0
 703 0162 0023     		movs	r3, #0
 704 0164 A361     		str	r3, [r4, #24]
1075:lvgl\src\lv_core/lv_indev.c ****         proc->longpr_rep_timestamp  = 0;
 705              		.loc 1 1075 0
 706 0166 E362     		str	r3, [r4, #44]
1076:lvgl\src\lv_core/lv_indev.c ****     }
 707              		.loc 1 1076 0
 708 0168 2363     		str	r3, [r4, #48]
 709              	.LVL76:
 710              	.L38:
 711              	.LBE3:
1081:lvgl\src\lv_core/lv_indev.c ****         indev_drag_throw(proc);
 712              		.loc 1 1081 0
 713 016a E369     		ldr	r3, [r4, #28]
 714 016c 53B1     		cbz	r3, .L36
1081:lvgl\src\lv_core/lv_indev.c ****         indev_drag_throw(proc);
 715              		.loc 1 1081 0 is_stmt 0 discriminator 1
 716 016e 94F83430 		ldrb	r3, [r4, #52]	@ zero_extendqisi2
 717 0172 13F0020F 		tst	r3, #2
 718 0176 05D1     		bne	.L36
1082:lvgl\src\lv_core/lv_indev.c ****         if(indev_reset_check(proc)) return;
 719              		.loc 1 1082 0 is_stmt 1
 720 0178 2046     		mov	r0, r4
 721 017a FFF7FEFF 		bl	indev_drag_throw
 722              	.LVL77:
1083:lvgl\src\lv_core/lv_indev.c ****     }
 723              		.loc 1 1083 0
 724 017e 2046     		mov	r0, r4
 725 0180 FFF7FEFF 		bl	indev_reset_check
 726              	.LVL78:
 727              	.L36:
 728 0184 38BD     		pop	{r3, r4, r5, pc}
 729              	.LVL79:
 730              	.L50:
 731 0186 00BF     		.align	2
 732              	.L49:
 733 0188 00000000 		.word	.LANCHOR0
ARM GAS  C:\Users\strap\AppData\Local\Temp\cc4VwSsz.s 			page 43


 734              		.cfi_endproc
 735              	.LFE357:
 736              		.size	indev_proc_release, .-indev_proc_release
 737              		.section	.text.indev_click_focus,"ax",%progbits
 738              		.align	2
 739              		.thumb
 740              		.thumb_func
 741              		.type	indev_click_focus, %function
 742              	indev_click_focus:
 743              	.LFB360:
1159:lvgl\src\lv_core/lv_indev.c ****     /*Handle click focus*/
 744              		.loc 1 1159 0
 745              		.cfi_startproc
 746              		@ args = 0, pretend = 0, frame = 0
 747              		@ frame_needed = 0, uses_anonymous_args = 0
 748              	.LVL80:
 749 0000 70B5     		push	{r4, r5, r6, lr}
 750              		.cfi_def_cfa_offset 16
 751              		.cfi_offset 4, -16
 752              		.cfi_offset 5, -12
 753              		.cfi_offset 6, -8
 754              		.cfi_offset 14, -4
 755 0002 0446     		mov	r4, r0
1161:lvgl\src\lv_core/lv_indev.c ****     if(lv_obj_is_protected(indev_obj_act, LV_PROTECT_CLICK_FOCUS) == false &&
 756              		.loc 1 1161 0
 757 0004 554D     		ldr	r5, .L64
 758 0006 2868     		ldr	r0, [r5]
 759              	.LVL81:
 760 0008 FFF7FEFF 		bl	lv_obj_get_focused_obj
 761              	.LVL82:
 762 000c 0646     		mov	r6, r0
 763              	.LVL83:
1162:lvgl\src\lv_core/lv_indev.c ****        proc->types.pointer.last_pressed != obj_to_focus) {
 764              		.loc 1 1162 0
 765 000e 2021     		movs	r1, #32
 766 0010 2868     		ldr	r0, [r5]
 767              	.LVL84:
 768 0012 FFF7FEFF 		bl	lv_obj_is_protected
 769              	.LVL85:
 770 0016 0028     		cmp	r0, #0
 771 0018 40F09E80 		bne	.L51
1163:lvgl\src\lv_core/lv_indev.c **** #if LV_USE_GROUP
 772              		.loc 1 1163 0 discriminator 1
 773 001c 236A     		ldr	r3, [r4, #32]
1162:lvgl\src\lv_core/lv_indev.c ****        proc->types.pointer.last_pressed != obj_to_focus) {
 774              		.loc 1 1162 0 discriminator 1
 775 001e 9E42     		cmp	r6, r3
 776 0020 00F09A80 		beq	.L51
 777              	.LBB4:
1165:lvgl\src\lv_core/lv_indev.c ****         lv_group_t * g_prev = proc->types.pointer.last_pressed ? lv_obj_get_group(proc->types.point
 778              		.loc 1 1165 0
 779 0024 3046     		mov	r0, r6
 780 0026 FFF7FEFF 		bl	lv_obj_get_group
 781              	.LVL86:
 782 002a 0546     		mov	r5, r0
 783              	.LVL87:
1166:lvgl\src\lv_core/lv_indev.c **** 
ARM GAS  C:\Users\strap\AppData\Local\Temp\cc4VwSsz.s 			page 44


 784              		.loc 1 1166 0
 785 002c 206A     		ldr	r0, [r4, #32]
 786              	.LVL88:
 787 002e 18B1     		cbz	r0, .L62
1166:lvgl\src\lv_core/lv_indev.c **** 
 788              		.loc 1 1166 0 is_stmt 0 discriminator 1
 789 0030 FFF7FEFF 		bl	lv_obj_get_group
 790              	.LVL89:
 791 0034 0346     		mov	r3, r0
 792 0036 00E0     		b	.L53
 793              	.L62:
1166:lvgl\src\lv_core/lv_indev.c **** 
 794              		.loc 1 1166 0
 795 0038 0023     		movs	r3, #0
 796              	.L53:
 797              	.LVL90:
1169:lvgl\src\lv_core/lv_indev.c ****             /*The objects are in a group*/
 798              		.loc 1 1169 0 is_stmt 1 discriminator 4
 799 003a AB42     		cmp	r3, r5
 800 003c 34D1     		bne	.L54
1171:lvgl\src\lv_core/lv_indev.c ****                 lv_group_focus_obj(obj_to_focus);
 801              		.loc 1 1171 0
 802 003e 4DB1     		cbz	r5, .L55
1172:lvgl\src\lv_core/lv_indev.c ****                 if(indev_reset_check(proc)) return;
 803              		.loc 1 1172 0
 804 0040 3046     		mov	r0, r6
 805 0042 FFF7FEFF 		bl	lv_group_focus_obj
 806              	.LVL91:
1173:lvgl\src\lv_core/lv_indev.c ****             }
 807              		.loc 1 1173 0
 808 0046 2046     		mov	r0, r4
 809 0048 FFF7FEFF 		bl	indev_reset_check
 810              	.LVL92:
 811 004c 0028     		cmp	r0, #0
 812 004e 00F08280 		beq	.L56
 813 0052 70BD     		pop	{r4, r5, r6, pc}
 814              	.LVL93:
 815              	.L55:
1177:lvgl\src\lv_core/lv_indev.c ****                     lv_signal_send(proc->types.pointer.last_pressed, LV_SIGNAL_DEFOCUS, NULL);
 816              		.loc 1 1177 0
 817 0054 206A     		ldr	r0, [r4, #32]
 818 0056 90B1     		cbz	r0, .L57
1178:lvgl\src\lv_core/lv_indev.c ****                     if(indev_reset_check(proc)) return;
 819              		.loc 1 1178 0
 820 0058 0022     		movs	r2, #0
 821 005a 1721     		movs	r1, #23
 822 005c FFF7FEFF 		bl	lv_signal_send
 823              	.LVL94:
1179:lvgl\src\lv_core/lv_indev.c ****                     lv_event_send(proc->types.pointer.last_pressed, LV_EVENT_DEFOCUSED, NULL);
 824              		.loc 1 1179 0
 825 0060 2046     		mov	r0, r4
 826 0062 FFF7FEFF 		bl	indev_reset_check
 827              	.LVL95:
 828 0066 0028     		cmp	r0, #0
 829 0068 76D1     		bne	.L51
1180:lvgl\src\lv_core/lv_indev.c ****                     if(indev_reset_check(proc)) return;
 830              		.loc 1 1180 0
ARM GAS  C:\Users\strap\AppData\Local\Temp\cc4VwSsz.s 			page 45


 831 006a 0022     		movs	r2, #0
 832 006c 0E21     		movs	r1, #14
 833 006e 206A     		ldr	r0, [r4, #32]
 834 0070 FFF7FEFF 		bl	lv_event_send
 835              	.LVL96:
1181:lvgl\src\lv_core/lv_indev.c ****                 }
 836              		.loc 1 1181 0
 837 0074 2046     		mov	r0, r4
 838 0076 FFF7FEFF 		bl	indev_reset_check
 839              	.LVL97:
 840 007a 0028     		cmp	r0, #0
 841 007c 6CD1     		bne	.L51
 842              	.L57:
1184:lvgl\src\lv_core/lv_indev.c ****                 if(indev_reset_check(proc)) return;
 843              		.loc 1 1184 0
 844 007e 0022     		movs	r2, #0
 845 0080 1621     		movs	r1, #22
 846 0082 3046     		mov	r0, r6
 847 0084 FFF7FEFF 		bl	lv_signal_send
 848              	.LVL98:
1185:lvgl\src\lv_core/lv_indev.c ****                 lv_event_send(obj_to_focus, LV_EVENT_FOCUSED, NULL);
 849              		.loc 1 1185 0
 850 0088 2046     		mov	r0, r4
 851 008a FFF7FEFF 		bl	indev_reset_check
 852              	.LVL99:
 853 008e 0028     		cmp	r0, #0
 854 0090 62D1     		bne	.L51
1186:lvgl\src\lv_core/lv_indev.c ****                 if(indev_reset_check(proc)) return;
 855              		.loc 1 1186 0
 856 0092 0022     		movs	r2, #0
 857 0094 0D21     		movs	r1, #13
 858 0096 3046     		mov	r0, r6
 859 0098 FFF7FEFF 		bl	lv_event_send
 860              	.LVL100:
1187:lvgl\src\lv_core/lv_indev.c ****             }
 861              		.loc 1 1187 0
 862 009c 2046     		mov	r0, r4
 863 009e FFF7FEFF 		bl	indev_reset_check
 864              	.LVL101:
 865 00a2 0028     		cmp	r0, #0
 866 00a4 57D0     		beq	.L56
 867 00a6 70BD     		pop	{r4, r5, r6, pc}
 868              	.LVL102:
 869              	.L54:
1193:lvgl\src\lv_core/lv_indev.c ****                 lv_signal_send(proc->types.pointer.last_pressed, LV_SIGNAL_DEFOCUS, NULL);
 870              		.loc 1 1193 0
 871 00a8 A3B9     		cbnz	r3, .L58
1193:lvgl\src\lv_core/lv_indev.c ****                 lv_signal_send(proc->types.pointer.last_pressed, LV_SIGNAL_DEFOCUS, NULL);
 872              		.loc 1 1193 0 is_stmt 0 discriminator 1
 873 00aa 206A     		ldr	r0, [r4, #32]
 874 00ac 90B1     		cbz	r0, .L58
1194:lvgl\src\lv_core/lv_indev.c ****                 if(indev_reset_check(proc)) return;
 875              		.loc 1 1194 0 is_stmt 1
 876 00ae 0022     		movs	r2, #0
 877 00b0 1721     		movs	r1, #23
 878 00b2 FFF7FEFF 		bl	lv_signal_send
 879              	.LVL103:
ARM GAS  C:\Users\strap\AppData\Local\Temp\cc4VwSsz.s 			page 46


1195:lvgl\src\lv_core/lv_indev.c ****                 lv_event_send(proc->types.pointer.last_pressed, LV_EVENT_DEFOCUSED, NULL);
 880              		.loc 1 1195 0
 881 00b6 2046     		mov	r0, r4
 882 00b8 FFF7FEFF 		bl	indev_reset_check
 883              	.LVL104:
 884 00bc 0028     		cmp	r0, #0
 885 00be 4BD1     		bne	.L51
1196:lvgl\src\lv_core/lv_indev.c ****                 if(indev_reset_check(proc)) return;
 886              		.loc 1 1196 0
 887 00c0 0022     		movs	r2, #0
 888 00c2 0E21     		movs	r1, #14
 889 00c4 206A     		ldr	r0, [r4, #32]
 890 00c6 FFF7FEFF 		bl	lv_event_send
 891              	.LVL105:
1197:lvgl\src\lv_core/lv_indev.c ****             }
 892              		.loc 1 1197 0
 893 00ca 2046     		mov	r0, r4
 894 00cc FFF7FEFF 		bl	indev_reset_check
 895              	.LVL106:
 896 00d0 30B3     		cbz	r0, .L59
 897 00d2 70BD     		pop	{r4, r5, r6, pc}
 898              	.LVL107:
 899              	.L58:
1201:lvgl\src\lv_core/lv_indev.c ****                     /*If the prev. object also wasn't in a group defocus it*/
 900              		.loc 1 1201 0
 901 00d4 206A     		ldr	r0, [r4, #32]
 902 00d6 18B3     		cbz	r0, .L59
1203:lvgl\src\lv_core/lv_indev.c ****                         lv_signal_send(proc->types.pointer.last_pressed, LV_SIGNAL_DEFOCUS, NULL);
 903              		.loc 1 1203 0
 904 00d8 8BB9     		cbnz	r3, .L60
1204:lvgl\src\lv_core/lv_indev.c ****                         if(indev_reset_check(proc)) return;
 905              		.loc 1 1204 0
 906 00da 0022     		movs	r2, #0
 907 00dc 1721     		movs	r1, #23
 908 00de FFF7FEFF 		bl	lv_signal_send
 909              	.LVL108:
1205:lvgl\src\lv_core/lv_indev.c ****                         lv_event_send(proc->types.pointer.last_pressed, LV_EVENT_DEFOCUSED, NULL);
 910              		.loc 1 1205 0
 911 00e2 2046     		mov	r0, r4
 912 00e4 FFF7FEFF 		bl	indev_reset_check
 913              	.LVL109:
 914 00e8 B0BB     		cbnz	r0, .L51
1206:lvgl\src\lv_core/lv_indev.c ****                         if(indev_reset_check(proc)) return;
 915              		.loc 1 1206 0
 916 00ea 0022     		movs	r2, #0
 917 00ec 0E21     		movs	r1, #14
 918 00ee 206A     		ldr	r0, [r4, #32]
 919 00f0 FFF7FEFF 		bl	lv_event_send
 920              	.LVL110:
1207:lvgl\src\lv_core/lv_indev.c ****                     }
 921              		.loc 1 1207 0
 922 00f4 2046     		mov	r0, r4
 923 00f6 FFF7FEFF 		bl	indev_reset_check
 924              	.LVL111:
 925 00fa 88B1     		cbz	r0, .L59
 926 00fc 70BD     		pop	{r4, r5, r6, pc}
 927              	.LVL112:
ARM GAS  C:\Users\strap\AppData\Local\Temp\cc4VwSsz.s 			page 47


 928              	.L60:
1211:lvgl\src\lv_core/lv_indev.c ****                         if(indev_reset_check(proc)) return;
 929              		.loc 1 1211 0
 930 00fe 0022     		movs	r2, #0
 931 0100 1521     		movs	r1, #21
 932 0102 FFF7FEFF 		bl	lv_signal_send
 933              	.LVL113:
1212:lvgl\src\lv_core/lv_indev.c ****                         lv_event_send(proc->types.pointer.last_pressed, LV_EVENT_LEAVE, NULL);
 934              		.loc 1 1212 0
 935 0106 2046     		mov	r0, r4
 936 0108 FFF7FEFF 		bl	indev_reset_check
 937              	.LVL114:
 938 010c 20BB     		cbnz	r0, .L51
1213:lvgl\src\lv_core/lv_indev.c ****                         if(indev_reset_check(proc)) return;
 939              		.loc 1 1213 0
 940 010e 0022     		movs	r2, #0
 941 0110 0F21     		movs	r1, #15
 942 0112 206A     		ldr	r0, [r4, #32]
 943 0114 FFF7FEFF 		bl	lv_event_send
 944              	.LVL115:
1214:lvgl\src\lv_core/lv_indev.c ****                     }
 945              		.loc 1 1214 0
 946 0118 2046     		mov	r0, r4
 947 011a FFF7FEFF 		bl	indev_reset_check
 948              	.LVL116:
 949 011e D8B9     		cbnz	r0, .L51
 950              	.L59:
1220:lvgl\src\lv_core/lv_indev.c ****                 lv_group_focus_obj(obj_to_focus);
 951              		.loc 1 1220 0
 952 0120 3DB1     		cbz	r5, .L61
1221:lvgl\src\lv_core/lv_indev.c ****                 if(indev_reset_check(proc)) return;
 953              		.loc 1 1221 0
 954 0122 3046     		mov	r0, r6
 955 0124 FFF7FEFF 		bl	lv_group_focus_obj
 956              	.LVL117:
1222:lvgl\src\lv_core/lv_indev.c ****             }
 957              		.loc 1 1222 0
 958 0128 2046     		mov	r0, r4
 959 012a FFF7FEFF 		bl	indev_reset_check
 960              	.LVL118:
 961 012e 90B1     		cbz	r0, .L56
 962 0130 70BD     		pop	{r4, r5, r6, pc}
 963              	.LVL119:
 964              	.L61:
1225:lvgl\src\lv_core/lv_indev.c ****                 if(indev_reset_check(proc)) return;
 965              		.loc 1 1225 0
 966 0132 0022     		movs	r2, #0
 967 0134 1621     		movs	r1, #22
 968 0136 3046     		mov	r0, r6
 969 0138 FFF7FEFF 		bl	lv_signal_send
 970              	.LVL120:
1226:lvgl\src\lv_core/lv_indev.c ****                 lv_event_send(obj_to_focus, LV_EVENT_FOCUSED, NULL);
 971              		.loc 1 1226 0
 972 013c 2046     		mov	r0, r4
 973 013e FFF7FEFF 		bl	indev_reset_check
 974              	.LVL121:
 975 0142 48B9     		cbnz	r0, .L51
ARM GAS  C:\Users\strap\AppData\Local\Temp\cc4VwSsz.s 			page 48


1227:lvgl\src\lv_core/lv_indev.c ****                 if(indev_reset_check(proc)) return;
 976              		.loc 1 1227 0
 977 0144 0022     		movs	r2, #0
 978 0146 0D21     		movs	r1, #13
 979 0148 3046     		mov	r0, r6
 980 014a FFF7FEFF 		bl	lv_event_send
 981              	.LVL122:
1228:lvgl\src\lv_core/lv_indev.c ****             }
 982              		.loc 1 1228 0
 983 014e 2046     		mov	r0, r4
 984 0150 FFF7FEFF 		bl	indev_reset_check
 985              	.LVL123:
 986 0154 00B9     		cbnz	r0, .L51
 987              	.L56:
1244:lvgl\src\lv_core/lv_indev.c ****     }
 988              		.loc 1 1244 0
 989 0156 2662     		str	r6, [r4, #32]
 990              	.LVL124:
 991              	.L51:
 992 0158 70BD     		pop	{r4, r5, r6, pc}
 993              	.LVL125:
 994              	.L65:
 995 015a 00BF     		.align	2
 996              	.L64:
 997 015c 00000000 		.word	.LANCHOR0
 998              	.LBE4:
 999              		.cfi_endproc
 1000              	.LFE360:
 1001              		.size	indev_click_focus, .-indev_click_focus
 1002              		.section	.text.indev_drag,"ax",%progbits
 1003              		.align	2
 1004              		.thumb
 1005              		.thumb_func
 1006              		.type	indev_drag, %function
 1007              	indev_drag:
 1008              	.LFB361:
1254:lvgl\src\lv_core/lv_indev.c ****     lv_obj_t * drag_obj    = get_dragged_obj(proc->types.pointer.act_obj);
 1009              		.loc 1 1254 0
 1010              		.cfi_startproc
 1011              		@ args = 0, pretend = 0, frame = 8
 1012              		@ frame_needed = 0, uses_anonymous_args = 0
 1013              	.LVL126:
 1014 0000 2DE9F04F 		push	{r4, r5, r6, r7, r8, r9, r10, fp, lr}
 1015              		.cfi_def_cfa_offset 36
 1016              		.cfi_offset 4, -36
 1017              		.cfi_offset 5, -32
 1018              		.cfi_offset 6, -28
 1019              		.cfi_offset 7, -24
 1020              		.cfi_offset 8, -20
 1021              		.cfi_offset 9, -16
 1022              		.cfi_offset 10, -12
 1023              		.cfi_offset 11, -8
 1024              		.cfi_offset 14, -4
 1025 0004 83B0     		sub	sp, sp, #12
 1026              		.cfi_def_cfa_offset 48
 1027 0006 0446     		mov	r4, r0
1255:lvgl\src\lv_core/lv_indev.c ****     bool drag_just_started = false;
ARM GAS  C:\Users\strap\AppData\Local\Temp\cc4VwSsz.s 			page 49


 1028              		.loc 1 1255 0
 1029 0008 8069     		ldr	r0, [r0, #24]
 1030              	.LVL127:
 1031 000a FFF7FEFF 		bl	get_dragged_obj
 1032              	.LVL128:
1258:lvgl\src\lv_core/lv_indev.c **** 
 1033              		.loc 1 1258 0
 1034 000e 0028     		cmp	r0, #0
 1035 0010 00F05981 		beq	.L66
 1036 0014 0546     		mov	r5, r0
1260:lvgl\src\lv_core/lv_indev.c **** 
 1037              		.loc 1 1260 0
 1038 0016 FFF7FEFF 		bl	lv_obj_get_drag
 1039              	.LVL129:
 1040 001a 0028     		cmp	r0, #0
 1041 001c 00F05381 		beq	.L66
1263:lvgl\src\lv_core/lv_indev.c **** 
 1042              		.loc 1 1263 0
 1043 0020 2846     		mov	r0, r5
 1044 0022 FFF7FEFF 		bl	lv_obj_get_drag_dir
 1045              	.LVL130:
 1046 0026 0646     		mov	r6, r0
 1047              	.LVL131:
1266:lvgl\src\lv_core/lv_indev.c ****         proc->types.pointer.drag_sum.x += proc->types.pointer.vect.x;
 1048              		.loc 1 1266 0
 1049 0028 94F82A30 		ldrb	r3, [r4, #42]	@ zero_extendqisi2
 1050 002c 13F0010F 		tst	r3, #1
 1051 0030 44D1     		bne	.L84
 1052              	.LBB5:
1267:lvgl\src\lv_core/lv_indev.c ****         proc->types.pointer.drag_sum.y += proc->types.pointer.vect.y;
 1053              		.loc 1 1267 0
 1054 0032 B4F90C20 		ldrsh	r2, [r4, #12]
 1055 0036 238A     		ldrh	r3, [r4, #16]
 1056 0038 1344     		add	r3, r3, r2
 1057 003a 1BB2     		sxth	r3, r3
 1058 003c 2382     		strh	r3, [r4, #16]	@ movhi
1268:lvgl\src\lv_core/lv_indev.c **** 
 1059              		.loc 1 1268 0
 1060 003e B4F90E10 		ldrsh	r1, [r4, #14]
 1061 0042 628A     		ldrh	r2, [r4, #18]
 1062 0044 0A44     		add	r2, r2, r1
 1063 0046 12B2     		sxth	r2, r2
 1064 0048 6282     		strh	r2, [r4, #18]	@ movhi
 1065              	.LVL132:
1273:lvgl\src\lv_core/lv_indev.c ****             hor_en = true;
 1066              		.loc 1 1273 0
 1067 004a 0128     		cmp	r0, #1
 1068 004c 03D0     		beq	.L85
1273:lvgl\src\lv_core/lv_indev.c ****             hor_en = true;
 1069              		.loc 1 1273 0 is_stmt 0 discriminator 1
 1070 004e 0328     		cmp	r0, #3
 1071 0050 03D0     		beq	.L86
1271:lvgl\src\lv_core/lv_indev.c ****         bool ver_en = false;
 1072              		.loc 1 1271 0 is_stmt 1
 1073 0052 0020     		movs	r0, #0
 1074              	.LVL133:
 1075 0054 02E0     		b	.L69
ARM GAS  C:\Users\strap\AppData\Local\Temp\cc4VwSsz.s 			page 50


 1076              	.LVL134:
 1077              	.L85:
1274:lvgl\src\lv_core/lv_indev.c ****         }
 1078              		.loc 1 1274 0
 1079 0056 0120     		movs	r0, #1
 1080              	.LVL135:
 1081 0058 00E0     		b	.L69
 1082              	.LVL136:
 1083              	.L86:
 1084 005a 0120     		movs	r0, #1
 1085              	.LVL137:
 1086              	.L69:
1277:lvgl\src\lv_core/lv_indev.c ****             ver_en = true;
 1087              		.loc 1 1277 0
 1088 005c B11E     		subs	r1, r6, #2
 1089 005e C9B2     		uxtb	r1, r1
 1090 0060 0129     		cmp	r1, #1
 1091 0062 01D9     		bls	.L87
1272:lvgl\src\lv_core/lv_indev.c ****         if(allowed_dirs == LV_DRAG_DIR_HOR || allowed_dirs == LV_DRAG_DIR_BOTH) {
 1092              		.loc 1 1272 0
 1093 0064 0021     		movs	r1, #0
 1094 0066 00E0     		b	.L70
 1095              	.L87:
1278:lvgl\src\lv_core/lv_indev.c ****         }
 1096              		.loc 1 1278 0
 1097 0068 0121     		movs	r1, #1
 1098              	.L70:
 1099              	.LVL138:
1281:lvgl\src\lv_core/lv_indev.c ****             if(LV_MATH_ABS(proc->types.pointer.drag_sum.x) > LV_MATH_ABS(proc->types.pointer.drag_s
 1100              		.loc 1 1281 0
 1101 006a 042E     		cmp	r6, #4
 1102 006c 0CD1     		bne	.L71
1282:lvgl\src\lv_core/lv_indev.c ****                 hor_en = true;
 1103              		.loc 1 1282 0
 1104 006e 83EAE37E 		eor	lr, r3, r3, asr #31
 1105 0072 AEEBE37E 		sub	lr, lr, r3, asr #31
 1106 0076 82EAE277 		eor	r7, r2, r2, asr #31
 1107 007a A7EBE277 		sub	r7, r7, r2, asr #31
 1108 007e BE45     		cmp	lr, r7
 1109 0080 01DD     		ble	.L88
1283:lvgl\src\lv_core/lv_indev.c ****             }
 1110              		.loc 1 1283 0
 1111 0082 0120     		movs	r0, #1
 1112              	.LVL139:
 1113 0084 00E0     		b	.L71
 1114              	.LVL140:
 1115              	.L88:
1286:lvgl\src\lv_core/lv_indev.c ****             }
 1116              		.loc 1 1286 0
 1117 0086 0121     		movs	r1, #1
 1118              	.LVL141:
 1119              	.L71:
1291:lvgl\src\lv_core/lv_indev.c ****            (ver_en && LV_MATH_ABS(proc->types.pointer.drag_sum.y) >= indev_act->driver.drag_limit))
 1120              		.loc 1 1291 0
 1121 0088 38B1     		cbz	r0, .L72
1291:lvgl\src\lv_core/lv_indev.c ****            (ver_en && LV_MATH_ABS(proc->types.pointer.drag_sum.y) >= indev_act->driver.drag_limit))
 1122              		.loc 1 1291 0 is_stmt 0 discriminator 1
ARM GAS  C:\Users\strap\AppData\Local\Temp\cc4VwSsz.s 			page 51


 1123 008a 002B     		cmp	r3, #0
 1124 008c B8BF     		it	lt
 1125 008e 5B42     		rsblt	r3, r3, #0
 1126 0090 8E48     		ldr	r0, .L92
 1127              	.LVL142:
 1128 0092 4068     		ldr	r0, [r0, #4]
 1129 0094 007E     		ldrb	r0, [r0, #24]	@ zero_extendqisi2
 1130 0096 8342     		cmp	r3, r0
 1131 0098 08DA     		bge	.L73
 1132              	.L72:
1291:lvgl\src\lv_core/lv_indev.c ****            (ver_en && LV_MATH_ABS(proc->types.pointer.drag_sum.y) >= indev_act->driver.drag_limit))
 1133              		.loc 1 1291 0 discriminator 3
 1134 009a 89B1     		cbz	r1, .L89
1292:lvgl\src\lv_core/lv_indev.c ****             proc->types.pointer.drag_limit_out = 1;
 1135              		.loc 1 1292 0 is_stmt 1
 1136 009c 002A     		cmp	r2, #0
 1137 009e B8BF     		it	lt
 1138 00a0 5242     		rsblt	r2, r2, #0
 1139 00a2 8A4B     		ldr	r3, .L92
 1140 00a4 5B68     		ldr	r3, [r3, #4]
 1141 00a6 1B7E     		ldrb	r3, [r3, #24]	@ zero_extendqisi2
 1142 00a8 9A42     		cmp	r2, r3
 1143 00aa 0BDB     		blt	.L90
 1144              	.L73:
1293:lvgl\src\lv_core/lv_indev.c ****             drag_just_started                   = true;
 1145              		.loc 1 1293 0
 1146 00ac 94F82A30 		ldrb	r3, [r4, #42]	@ zero_extendqisi2
 1147 00b0 43F00103 		orr	r3, r3, #1
 1148 00b4 84F82A30 		strb	r3, [r4, #42]
 1149              	.LVL143:
1294:lvgl\src\lv_core/lv_indev.c ****         }
 1150              		.loc 1 1294 0
 1151 00b8 0127     		movs	r7, #1
 1152 00ba 04E0     		b	.L68
 1153              	.LVL144:
 1154              	.L84:
 1155              	.LBE5:
1256:lvgl\src\lv_core/lv_indev.c **** 
 1156              		.loc 1 1256 0
 1157 00bc 0027     		movs	r7, #0
 1158 00be 02E0     		b	.L68
 1159              	.LVL145:
 1160              	.L89:
 1161 00c0 0027     		movs	r7, #0
 1162 00c2 00E0     		b	.L68
 1163              	.L90:
 1164 00c4 0027     		movs	r7, #0
 1165              	.LVL146:
 1166              	.L68:
1299:lvgl\src\lv_core/lv_indev.c ****         /*Set new position if the vector is not zero*/
 1167              		.loc 1 1299 0
 1168 00c6 94F82A30 		ldrb	r3, [r4, #42]	@ zero_extendqisi2
 1169 00ca 13F0010F 		tst	r3, #1
 1170 00ce 00F0FA80 		beq	.L66
1301:lvgl\src\lv_core/lv_indev.c **** 
 1171              		.loc 1 1301 0
 1172 00d2 E368     		ldr	r3, [r4, #12]
ARM GAS  C:\Users\strap\AppData\Local\Temp\cc4VwSsz.s 			page 52


 1173 00d4 002B     		cmp	r3, #0
 1174 00d6 00F0F680 		beq	.L66
 1175              	.LBB6:
1303:lvgl\src\lv_core/lv_indev.c ****             lv_coord_t prev_y     = drag_obj->coords.y1;
 1176              		.loc 1 1303 0
 1177 00da B5F910A0 		ldrsh	r10, [r5, #16]
 1178              	.LVL147:
1304:lvgl\src\lv_core/lv_indev.c ****             lv_coord_t prev_par_w = lv_obj_get_width(lv_obj_get_parent(drag_obj));
 1179              		.loc 1 1304 0
 1180 00de B5F912B0 		ldrsh	fp, [r5, #18]
 1181              	.LVL148:
1305:lvgl\src\lv_core/lv_indev.c ****             lv_coord_t prev_par_h = lv_obj_get_height(lv_obj_get_parent(drag_obj));
 1182              		.loc 1 1305 0
 1183 00e2 2846     		mov	r0, r5
 1184 00e4 FFF7FEFF 		bl	lv_obj_get_parent
 1185              	.LVL149:
 1186 00e8 FFF7FEFF 		bl	lv_obj_get_width
 1187              	.LVL150:
 1188 00ec 0090     		str	r0, [sp]
 1189              	.LVL151:
1306:lvgl\src\lv_core/lv_indev.c **** 
 1190              		.loc 1 1306 0
 1191 00ee 2846     		mov	r0, r5
 1192 00f0 FFF7FEFF 		bl	lv_obj_get_parent
 1193              	.LVL152:
 1194 00f4 FFF7FEFF 		bl	lv_obj_get_height
 1195              	.LVL153:
 1196 00f8 0190     		str	r0, [sp, #4]
 1197              	.LVL154:
1309:lvgl\src\lv_core/lv_indev.c ****             lv_coord_t act_y = lv_obj_get_y(drag_obj);
 1198              		.loc 1 1309 0
 1199 00fa 2846     		mov	r0, r5
 1200 00fc FFF7FEFF 		bl	lv_obj_get_x
 1201              	.LVL155:
 1202 0100 8046     		mov	r8, r0
 1203              	.LVL156:
1310:lvgl\src\lv_core/lv_indev.c **** 
 1204              		.loc 1 1310 0
 1205 0102 2846     		mov	r0, r5
 1206 0104 FFF7FEFF 		bl	lv_obj_get_y
 1207              	.LVL157:
 1208 0108 8146     		mov	r9, r0
 1209              	.LVL158:
1312:lvgl\src\lv_core/lv_indev.c ****                 if(drag_just_started) {
 1210              		.loc 1 1312 0
 1211 010a 032E     		cmp	r6, #3
 1212 010c 13D1     		bne	.L74
1313:lvgl\src\lv_core/lv_indev.c ****                     proc->types.pointer.drag_dir = LV_DRAG_DIR_BOTH;
 1213              		.loc 1 1313 0
 1214 010e 002F     		cmp	r7, #0
 1215 0110 60D0     		beq	.L75
1314:lvgl\src\lv_core/lv_indev.c ****                     act_x += proc->types.pointer.drag_sum.x;
 1216              		.loc 1 1314 0
 1217 0112 94F82A30 		ldrb	r3, [r4, #42]	@ zero_extendqisi2
 1218 0116 0322     		movs	r2, #3
 1219 0118 62F38403 		bfi	r3, r2, #2, #3
 1220 011c 84F82A30 		strb	r3, [r4, #42]
ARM GAS  C:\Users\strap\AppData\Local\Temp\cc4VwSsz.s 			page 53


1315:lvgl\src\lv_core/lv_indev.c ****                     act_y += proc->types.pointer.drag_sum.y;
 1221              		.loc 1 1315 0
 1222 0120 B4F91030 		ldrsh	r3, [r4, #16]
 1223 0124 9844     		add	r8, r8, r3
 1224              	.LVL159:
 1225 0126 0FFA88F8 		sxth	r8, r8
 1226              	.LVL160:
1316:lvgl\src\lv_core/lv_indev.c ****                 }
 1227              		.loc 1 1316 0
 1228 012a B4F91230 		ldrsh	r3, [r4, #18]
 1229 012e 9944     		add	r9, r9, r3
 1230              	.LVL161:
 1231 0130 0FFA89F9 		sxth	r9, r9
 1232              	.LVL162:
 1233 0134 4EE0     		b	.L75
 1234              	.L74:
1319:lvgl\src\lv_core/lv_indev.c ****                 if(drag_just_started) {
 1235              		.loc 1 1319 0
 1236 0136 012E     		cmp	r6, #1
 1237 0138 10D1     		bne	.L76
1320:lvgl\src\lv_core/lv_indev.c ****                     proc->types.pointer.drag_dir = LV_DRAG_DIR_HOR;
 1238              		.loc 1 1320 0
 1239 013a 002F     		cmp	r7, #0
 1240 013c 4AD0     		beq	.L75
1321:lvgl\src\lv_core/lv_indev.c ****                     proc->types.pointer.drag_sum.y = 0;
 1241              		.loc 1 1321 0
 1242 013e 94F82A30 		ldrb	r3, [r4, #42]	@ zero_extendqisi2
 1243 0142 0122     		movs	r2, #1
 1244 0144 62F38403 		bfi	r3, r2, #2, #3
 1245 0148 84F82A30 		strb	r3, [r4, #42]
1322:lvgl\src\lv_core/lv_indev.c ****                     act_x += proc->types.pointer.drag_sum.x;
 1246              		.loc 1 1322 0
 1247 014c 0023     		movs	r3, #0
 1248 014e 6382     		strh	r3, [r4, #18]	@ movhi
1323:lvgl\src\lv_core/lv_indev.c ****                 }
 1249              		.loc 1 1323 0
 1250 0150 B4F91030 		ldrsh	r3, [r4, #16]
 1251 0154 9844     		add	r8, r8, r3
 1252              	.LVL163:
 1253 0156 0FFA88F8 		sxth	r8, r8
 1254              	.LVL164:
 1255 015a 3BE0     		b	.L75
 1256              	.L76:
1326:lvgl\src\lv_core/lv_indev.c ****                 if(drag_just_started) {
 1257              		.loc 1 1326 0
 1258 015c 022E     		cmp	r6, #2
 1259 015e 0FD1     		bne	.L77
1327:lvgl\src\lv_core/lv_indev.c ****                     proc->types.pointer.drag_dir = LV_DRAG_DIR_VER;
 1260              		.loc 1 1327 0
 1261 0160 C7B3     		cbz	r7, .L75
1328:lvgl\src\lv_core/lv_indev.c ****                     proc->types.pointer.drag_sum.x = 0;
 1262              		.loc 1 1328 0
 1263 0162 94F82A30 		ldrb	r3, [r4, #42]	@ zero_extendqisi2
 1264 0166 0222     		movs	r2, #2
 1265 0168 62F38403 		bfi	r3, r2, #2, #3
 1266 016c 84F82A30 		strb	r3, [r4, #42]
1329:lvgl\src\lv_core/lv_indev.c ****                     act_y += proc->types.pointer.drag_sum.y;
ARM GAS  C:\Users\strap\AppData\Local\Temp\cc4VwSsz.s 			page 54


 1267              		.loc 1 1329 0
 1268 0170 0023     		movs	r3, #0
 1269 0172 2382     		strh	r3, [r4, #16]	@ movhi
1330:lvgl\src\lv_core/lv_indev.c ****                 }
 1270              		.loc 1 1330 0
 1271 0174 B4F91230 		ldrsh	r3, [r4, #18]
 1272 0178 9944     		add	r9, r9, r3
 1273              	.LVL165:
 1274 017a 0FFA89F9 		sxth	r9, r9
 1275              	.LVL166:
 1276 017e 29E0     		b	.L75
 1277              	.L77:
1333:lvgl\src\lv_core/lv_indev.c ****                 if(drag_just_started) {
 1278              		.loc 1 1333 0
 1279 0180 042E     		cmp	r6, #4
 1280 0182 27D1     		bne	.L75
1334:lvgl\src\lv_core/lv_indev.c ****                     if(LV_MATH_ABS(proc->types.pointer.drag_sum.x) > LV_MATH_ABS(proc->types.pointe
 1281              		.loc 1 1334 0
 1282 0184 37B3     		cbz	r7, .L75
1335:lvgl\src\lv_core/lv_indev.c ****                         proc->types.pointer.drag_dir = LV_DRAG_DIR_HOR;
 1283              		.loc 1 1335 0
 1284 0186 B4F91020 		ldrsh	r2, [r4, #16]
 1285 018a 82EAE270 		eor	r0, r2, r2, asr #31
 1286 018e A0EBE270 		sub	r0, r0, r2, asr #31
 1287 0192 B4F91230 		ldrsh	r3, [r4, #18]
 1288 0196 83EAE371 		eor	r1, r3, r3, asr #31
 1289 019a A1EBE371 		sub	r1, r1, r3, asr #31
 1290 019e 8842     		cmp	r0, r1
 1291 01a0 0CDD     		ble	.L78
1336:lvgl\src\lv_core/lv_indev.c ****                         proc->types.pointer.drag_sum.y = 0;
 1292              		.loc 1 1336 0
 1293 01a2 94F82A30 		ldrb	r3, [r4, #42]	@ zero_extendqisi2
 1294 01a6 0121     		movs	r1, #1
 1295 01a8 61F38403 		bfi	r3, r1, #2, #3
 1296 01ac 84F82A30 		strb	r3, [r4, #42]
1337:lvgl\src\lv_core/lv_indev.c ****                         act_x += proc->types.pointer.drag_sum.x;
 1297              		.loc 1 1337 0
 1298 01b0 0023     		movs	r3, #0
 1299 01b2 6382     		strh	r3, [r4, #18]	@ movhi
1338:lvgl\src\lv_core/lv_indev.c ****                     }
 1300              		.loc 1 1338 0
 1301 01b4 9044     		add	r8, r8, r2
 1302              	.LVL167:
 1303 01b6 0FFA88F8 		sxth	r8, r8
 1304              	.LVL168:
 1305 01ba 0BE0     		b	.L75
 1306              	.L78:
1341:lvgl\src\lv_core/lv_indev.c ****                         proc->types.pointer.drag_sum.x = 0;
 1307              		.loc 1 1341 0
 1308 01bc 94F82A20 		ldrb	r2, [r4, #42]	@ zero_extendqisi2
 1309 01c0 0221     		movs	r1, #2
 1310 01c2 61F38402 		bfi	r2, r1, #2, #3
 1311 01c6 84F82A20 		strb	r2, [r4, #42]
1342:lvgl\src\lv_core/lv_indev.c ****                         act_y += proc->types.pointer.drag_sum.y;
 1312              		.loc 1 1342 0
 1313 01ca 0022     		movs	r2, #0
 1314 01cc 2282     		strh	r2, [r4, #16]	@ movhi
ARM GAS  C:\Users\strap\AppData\Local\Temp\cc4VwSsz.s 			page 55


1343:lvgl\src\lv_core/lv_indev.c ****                     }
 1315              		.loc 1 1343 0
 1316 01ce 9944     		add	r9, r9, r3
 1317              	.LVL169:
 1318 01d0 0FFA89F9 		sxth	r9, r9
 1319              	.LVL170:
 1320              	.L75:
1349:lvgl\src\lv_core/lv_indev.c ****                allowed_dirs == LV_DRAG_DIR_BOTH ||
 1321              		.loc 1 1349 0
 1322 01d4 012E     		cmp	r6, #1
 1323 01d6 0FD0     		beq	.L79
1349:lvgl\src\lv_core/lv_indev.c ****                allowed_dirs == LV_DRAG_DIR_BOTH ||
 1324              		.loc 1 1349 0 is_stmt 0 discriminator 1
 1325 01d8 032E     		cmp	r6, #3
 1326 01da 0DD0     		beq	.L79
1350:lvgl\src\lv_core/lv_indev.c ****                (allowed_dirs == LV_DRAG_DIR_ONE &&
 1327              		.loc 1 1350 0 is_stmt 1
 1328 01dc 042E     		cmp	r6, #4
 1329 01de 10D1     		bne	.L80
1352:lvgl\src\lv_core/lv_indev.c ****                 act_x += proc->types.pointer.vect.x;
 1330              		.loc 1 1352 0
 1331 01e0 B4F91020 		ldrsh	r2, [r4, #16]
 1332 01e4 002A     		cmp	r2, #0
 1333 01e6 B8BF     		it	lt
 1334 01e8 5242     		rsblt	r2, r2, #0
 1335 01ea B4F91230 		ldrsh	r3, [r4, #18]
 1336 01ee 002B     		cmp	r3, #0
 1337 01f0 B8BF     		it	lt
 1338 01f2 5B42     		rsblt	r3, r3, #0
1351:lvgl\src\lv_core/lv_indev.c ****                 LV_MATH_ABS(proc->types.pointer.drag_sum.x) > LV_MATH_ABS(proc->types.pointer.drag_
 1339              		.loc 1 1351 0
 1340 01f4 9A42     		cmp	r2, r3
 1341 01f6 04DD     		ble	.L80
 1342              	.L79:
1353:lvgl\src\lv_core/lv_indev.c ****             }
 1343              		.loc 1 1353 0
 1344 01f8 B4F90C30 		ldrsh	r3, [r4, #12]
 1345 01fc 9844     		add	r8, r8, r3
 1346              	.LVL171:
 1347 01fe 0FFA88F8 		sxth	r8, r8
 1348              	.LVL172:
 1349              	.L80:
1355:lvgl\src\lv_core/lv_indev.c ****                allowed_dirs == LV_DRAG_DIR_BOTH ||
 1350              		.loc 1 1355 0
 1351 0202 B31E     		subs	r3, r6, #2
 1352 0204 DBB2     		uxtb	r3, r3
 1353 0206 012B     		cmp	r3, #1
 1354 0208 0DD9     		bls	.L81
1356:lvgl\src\lv_core/lv_indev.c ****                (allowed_dirs == LV_DRAG_DIR_ONE &&
 1355              		.loc 1 1356 0
 1356 020a 042E     		cmp	r6, #4
 1357 020c 10D1     		bne	.L82
1358:lvgl\src\lv_core/lv_indev.c ****                 act_y += proc->types.pointer.vect.y;
 1358              		.loc 1 1358 0
 1359 020e B4F91020 		ldrsh	r2, [r4, #16]
 1360 0212 002A     		cmp	r2, #0
 1361 0214 B8BF     		it	lt
ARM GAS  C:\Users\strap\AppData\Local\Temp\cc4VwSsz.s 			page 56


 1362 0216 5242     		rsblt	r2, r2, #0
 1363 0218 B4F91230 		ldrsh	r3, [r4, #18]
 1364 021c 002B     		cmp	r3, #0
 1365 021e B8BF     		it	lt
 1366 0220 5B42     		rsblt	r3, r3, #0
1357:lvgl\src\lv_core/lv_indev.c ****                 LV_MATH_ABS(proc->types.pointer.drag_sum.x) < LV_MATH_ABS(proc->types.pointer.drag_
 1367              		.loc 1 1357 0
 1368 0222 9A42     		cmp	r2, r3
 1369 0224 04DA     		bge	.L82
 1370              	.L81:
1359:lvgl\src\lv_core/lv_indev.c ****             }
 1371              		.loc 1 1359 0
 1372 0226 B4F90E30 		ldrsh	r3, [r4, #14]
 1373 022a 9944     		add	r9, r9, r3
 1374              	.LVL173:
 1375 022c 0FFA89F9 		sxth	r9, r9
 1376              	.LVL174:
 1377              	.L82:
1363:lvgl\src\lv_core/lv_indev.c **** 
 1378              		.loc 1 1363 0
 1379 0230 264B     		ldr	r3, .L92
 1380 0232 5B68     		ldr	r3, [r3, #4]
1362:lvgl\src\lv_core/lv_indev.c ****                 lv_disp_get_inv_buf_size(indev_act->driver.disp); /*Get the number of currently inv
 1381              		.loc 1 1362 0
 1382 0234 1869     		ldr	r0, [r3, #16]
 1383 0236 FFF7FEFF 		bl	lv_disp_get_inv_buf_size
 1384              	.LVL175:
 1385 023a 0646     		mov	r6, r0
 1386              	.LVL176:
1365:lvgl\src\lv_core/lv_indev.c ****             proc->types.pointer.drag_in_prog = 1;
 1387              		.loc 1 1365 0
 1388 023c 4A46     		mov	r2, r9
 1389 023e 4146     		mov	r1, r8
 1390 0240 2846     		mov	r0, r5
 1391 0242 FFF7FEFF 		bl	lv_obj_set_pos
 1392              	.LVL177:
1366:lvgl\src\lv_core/lv_indev.c **** 
 1393              		.loc 1 1366 0
 1394 0246 94F82A30 		ldrb	r3, [r4, #42]	@ zero_extendqisi2
 1395 024a 43F00203 		orr	r3, r3, #2
 1396 024e 84F82A30 		strb	r3, [r4, #42]
1369:lvgl\src\lv_core/lv_indev.c ****                 /*In a special case if the object is moved on a page and
 1397              		.loc 1 1369 0
 1398 0252 B5F91030 		ldrsh	r3, [r5, #16]
 1399 0256 9A45     		cmp	r10, r3
 1400 0258 22D1     		bne	.L83
1369:lvgl\src\lv_core/lv_indev.c ****                 /*In a special case if the object is moved on a page and
 1401              		.loc 1 1369 0 is_stmt 0 discriminator 1
 1402 025a B5F91230 		ldrsh	r3, [r5, #18]
 1403 025e 9B45     		cmp	fp, r3
 1404 0260 1ED1     		bne	.L83
 1405              	.LBB7:
1373:lvgl\src\lv_core/lv_indev.c ****                 lv_coord_t act_par_h = lv_obj_get_height(lv_obj_get_parent(drag_obj));
 1406              		.loc 1 1373 0 is_stmt 1
 1407 0262 2846     		mov	r0, r5
 1408 0264 FFF7FEFF 		bl	lv_obj_get_parent
 1409              	.LVL178:
ARM GAS  C:\Users\strap\AppData\Local\Temp\cc4VwSsz.s 			page 57


 1410 0268 FFF7FEFF 		bl	lv_obj_get_width
 1411              	.LVL179:
 1412 026c 8046     		mov	r8, r0
 1413              	.LVL180:
1374:lvgl\src\lv_core/lv_indev.c ****                 if(act_par_w == prev_par_w && act_par_h == prev_par_h) {
 1414              		.loc 1 1374 0
 1415 026e 2846     		mov	r0, r5
 1416 0270 FFF7FEFF 		bl	lv_obj_get_parent
 1417              	.LVL181:
 1418 0274 FFF7FEFF 		bl	lv_obj_get_height
 1419              	.LVL182:
1375:lvgl\src\lv_core/lv_indev.c ****                     uint16_t new_inv_buf_size = lv_disp_get_inv_buf_size(indev_act->driver.disp);
 1420              		.loc 1 1375 0
 1421 0278 009B     		ldr	r3, [sp]
 1422 027a 4345     		cmp	r3, r8
 1423 027c 10D1     		bne	.L83
1375:lvgl\src\lv_core/lv_indev.c ****                     uint16_t new_inv_buf_size = lv_disp_get_inv_buf_size(indev_act->driver.disp);
 1424              		.loc 1 1375 0 is_stmt 0 discriminator 1
 1425 027e 019B     		ldr	r3, [sp, #4]
 1426 0280 8342     		cmp	r3, r0
 1427 0282 0DD1     		bne	.L83
 1428              	.LBB8:
1376:lvgl\src\lv_core/lv_indev.c ****                     _lv_disp_pop_from_inv_buf(indev_act->driver.disp, new_inv_buf_size - inv_buf_si
 1429              		.loc 1 1376 0 is_stmt 1
 1430 0284 DFF84480 		ldr	r8, .L92
 1431              	.LVL183:
 1432 0288 D8F80430 		ldr	r3, [r8, #4]
 1433 028c 1869     		ldr	r0, [r3, #16]
 1434              	.LVL184:
 1435 028e FFF7FEFF 		bl	lv_disp_get_inv_buf_size
 1436              	.LVL185:
1377:lvgl\src\lv_core/lv_indev.c ****                 }
 1437              		.loc 1 1377 0
 1438 0292 D8F80430 		ldr	r3, [r8, #4]
 1439 0296 811B     		subs	r1, r0, r6
 1440 0298 89B2     		uxth	r1, r1
 1441 029a 1869     		ldr	r0, [r3, #16]
 1442              	.LVL186:
 1443 029c FFF7FEFF 		bl	_lv_disp_pop_from_inv_buf
 1444              	.LVL187:
 1445              	.L83:
 1446              	.LBE8:
 1447              	.LBE7:
1383:lvgl\src\lv_core/lv_indev.c ****                 drag_obj->signal_cb(drag_obj, LV_SIGNAL_DRAG_BEGIN, indev_act);
 1448              		.loc 1 1383 0
 1449 02a0 8FB1     		cbz	r7, .L66
1384:lvgl\src\lv_core/lv_indev.c ****                 if(indev_reset_check(proc)) return;
 1450              		.loc 1 1384 0
 1451 02a2 EB69     		ldr	r3, [r5, #28]
 1452 02a4 094A     		ldr	r2, .L92
 1453 02a6 5268     		ldr	r2, [r2, #4]
 1454 02a8 1121     		movs	r1, #17
 1455 02aa 2846     		mov	r0, r5
 1456 02ac 9847     		blx	r3
 1457              	.LVL188:
1385:lvgl\src\lv_core/lv_indev.c **** 
 1458              		.loc 1 1385 0
ARM GAS  C:\Users\strap\AppData\Local\Temp\cc4VwSsz.s 			page 58


 1459 02ae 2046     		mov	r0, r4
 1460 02b0 FFF7FEFF 		bl	indev_reset_check
 1461              	.LVL189:
 1462 02b4 38B9     		cbnz	r0, .L66
1387:lvgl\src\lv_core/lv_indev.c ****                 if(indev_reset_check(proc)) return;
 1463              		.loc 1 1387 0
 1464 02b6 0022     		movs	r2, #0
 1465 02b8 0821     		movs	r1, #8
 1466 02ba 2846     		mov	r0, r5
 1467 02bc FFF7FEFF 		bl	lv_event_send
 1468              	.LVL190:
1388:lvgl\src\lv_core/lv_indev.c ****             }
 1469              		.loc 1 1388 0
 1470 02c0 2046     		mov	r0, r4
 1471 02c2 FFF7FEFF 		bl	indev_reset_check
 1472              	.LVL191:
 1473              	.L66:
 1474              	.LBE6:
1393:lvgl\src\lv_core/lv_indev.c **** 
 1475              		.loc 1 1393 0
 1476 02c6 03B0     		add	sp, sp, #12
 1477              		.cfi_def_cfa_offset 36
 1478              		@ sp needed
 1479 02c8 BDE8F08F 		pop	{r4, r5, r6, r7, r8, r9, r10, fp, pc}
 1480              	.LVL192:
 1481              	.L93:
 1482              		.align	2
 1483              	.L92:
 1484 02cc 00000000 		.word	.LANCHOR0
 1485              		.cfi_endproc
 1486              	.LFE361:
 1487              		.size	indev_drag, .-indev_drag
 1488              		.section	.text.indev_gesture,"ax",%progbits
 1489              		.align	2
 1490              		.thumb
 1491              		.thumb_func
 1492              		.type	indev_gesture, %function
 1493              	indev_gesture:
 1494              	.LFB364:
1491:lvgl\src\lv_core/lv_indev.c **** 
 1495              		.loc 1 1491 0
 1496              		.cfi_startproc
 1497              		@ args = 0, pretend = 0, frame = 0
 1498              		@ frame_needed = 0, uses_anonymous_args = 0
 1499              	.LVL193:
 1500 0000 F8B5     		push	{r3, r4, r5, r6, r7, lr}
 1501              		.cfi_def_cfa_offset 24
 1502              		.cfi_offset 3, -24
 1503              		.cfi_offset 4, -20
 1504              		.cfi_offset 5, -16
 1505              		.cfi_offset 6, -12
 1506              		.cfi_offset 7, -8
 1507              		.cfi_offset 14, -4
1493:lvgl\src\lv_core/lv_indev.c **** 
 1508              		.loc 1 1493 0
 1509 0002 90F82A30 		ldrb	r3, [r0, #42]	@ zero_extendqisi2
 1510 0006 13F0200F 		tst	r3, #32
ARM GAS  C:\Users\strap\AppData\Local\Temp\cc4VwSsz.s 			page 59


 1511 000a 69D1     		bne	.L94
 1512 000c 0546     		mov	r5, r0
1495:lvgl\src\lv_core/lv_indev.c **** 
 1513              		.loc 1 1495 0
 1514 000e 8469     		ldr	r4, [r0, #24]
 1515              	.LVL194:
1498:lvgl\src\lv_core/lv_indev.c ****         gesture_obj = lv_obj_get_parent(gesture_obj);
 1516              		.loc 1 1498 0
 1517 0010 03E0     		b	.L96
 1518              	.LVL195:
 1519              	.L98:
1499:lvgl\src\lv_core/lv_indev.c ****     }
 1520              		.loc 1 1499 0
 1521 0012 2046     		mov	r0, r4
 1522 0014 FFF7FEFF 		bl	lv_obj_get_parent
 1523              	.LVL196:
 1524 0018 0446     		mov	r4, r0
 1525              	.LVL197:
 1526              	.L96:
1498:lvgl\src\lv_core/lv_indev.c ****         gesture_obj = lv_obj_get_parent(gesture_obj);
 1527              		.loc 1 1498 0
 1528 001a 24B1     		cbz	r4, .L97
1498:lvgl\src\lv_core/lv_indev.c ****         gesture_obj = lv_obj_get_parent(gesture_obj);
 1529              		.loc 1 1498 0 is_stmt 0 discriminator 1
 1530 001c 2046     		mov	r0, r4
 1531 001e FFF7FEFF 		bl	lv_obj_get_gesture_parent
 1532              	.LVL198:
 1533 0022 0028     		cmp	r0, #0
 1534 0024 F5D1     		bne	.L98
 1535              	.L97:
1502:lvgl\src\lv_core/lv_indev.c **** 
 1536              		.loc 1 1502 0 is_stmt 1
 1537 0026 002C     		cmp	r4, #0
 1538 0028 5AD0     		beq	.L94
1505:lvgl\src\lv_core/lv_indev.c ****        (LV_MATH_ABS(proc->types.pointer.vect.y) < indev_act->driver.gesture_min_velocity)) {
 1539              		.loc 1 1505 0
 1540 002a B5F90C10 		ldrsh	r1, [r5, #12]
 1541 002e 81EAE170 		eor	r0, r1, r1, asr #31
 1542 0032 A0EBE170 		sub	r0, r0, r1, asr #31
 1543 0036 2B4B     		ldr	r3, .L106
 1544 0038 5A68     		ldr	r2, [r3, #4]
 1545 003a 937E     		ldrb	r3, [r2, #26]	@ zero_extendqisi2
 1546 003c 9842     		cmp	r0, r3
 1547 003e 09DA     		bge	.L99
1506:lvgl\src\lv_core/lv_indev.c ****         proc->types.pointer.gesture_sum.x = 0;
 1548              		.loc 1 1506 0 discriminator 1
 1549 0040 B5F90E00 		ldrsh	r0, [r5, #14]
 1550 0044 0028     		cmp	r0, #0
 1551 0046 B8BF     		it	lt
 1552 0048 4042     		rsblt	r0, r0, #0
1505:lvgl\src\lv_core/lv_indev.c ****        (LV_MATH_ABS(proc->types.pointer.vect.y) < indev_act->driver.gesture_min_velocity)) {
 1553              		.loc 1 1505 0 discriminator 1
 1554 004a 8342     		cmp	r3, r0
 1555 004c 02DD     		ble	.L99
1507:lvgl\src\lv_core/lv_indev.c ****         proc->types.pointer.gesture_sum.y = 0;
 1556              		.loc 1 1507 0
 1557 004e 0023     		movs	r3, #0
ARM GAS  C:\Users\strap\AppData\Local\Temp\cc4VwSsz.s 			page 60


 1558 0050 EB84     		strh	r3, [r5, #38]	@ movhi
1508:lvgl\src\lv_core/lv_indev.c ****     }
 1559              		.loc 1 1508 0
 1560 0052 2B85     		strh	r3, [r5, #40]	@ movhi
 1561              	.L99:
1512:lvgl\src\lv_core/lv_indev.c ****     proc->types.pointer.gesture_sum.y += proc->types.pointer.vect.y;
 1562              		.loc 1 1512 0
 1563 0054 EB8C     		ldrh	r3, [r5, #38]
 1564 0056 1944     		add	r1, r1, r3
 1565 0058 09B2     		sxth	r1, r1
 1566 005a E984     		strh	r1, [r5, #38]	@ movhi
1513:lvgl\src\lv_core/lv_indev.c **** 
 1567              		.loc 1 1513 0
 1568 005c B5F90E00 		ldrsh	r0, [r5, #14]
 1569 0060 2B8D     		ldrh	r3, [r5, #40]
 1570 0062 0344     		add	r3, r3, r0
 1571 0064 1BB2     		sxth	r3, r3
 1572 0066 2B85     		strh	r3, [r5, #40]	@ movhi
1515:lvgl\src\lv_core/lv_indev.c ****        (LV_MATH_ABS(proc->types.pointer.gesture_sum.y) > indev_act->driver.gesture_limit)) {
 1573              		.loc 1 1515 0
 1574 0068 81EAE176 		eor	r6, r1, r1, asr #31
 1575 006c A6EBE176 		sub	r6, r6, r1, asr #31
 1576 0070 D07E     		ldrb	r0, [r2, #27]	@ zero_extendqisi2
 1577 0072 8642     		cmp	r6, r0
 1578 0074 05DC     		bgt	.L100
1516:lvgl\src\lv_core/lv_indev.c **** 
 1579              		.loc 1 1516 0 discriminator 1
 1580 0076 83EAE377 		eor	r7, r3, r3, asr #31
 1581 007a A7EBE377 		sub	r7, r7, r3, asr #31
1515:lvgl\src\lv_core/lv_indev.c ****        (LV_MATH_ABS(proc->types.pointer.gesture_sum.y) > indev_act->driver.gesture_limit)) {
 1582              		.loc 1 1515 0 discriminator 1
 1583 007e B842     		cmp	r0, r7
 1584 0080 2EDA     		bge	.L94
 1585              	.L100:
1518:lvgl\src\lv_core/lv_indev.c **** 
 1586              		.loc 1 1518 0
 1587 0082 95F82A00 		ldrb	r0, [r5, #42]	@ zero_extendqisi2
 1588 0086 40F02000 		orr	r0, r0, #32
 1589 008a 85F82A00 		strb	r0, [r5, #42]
1520:lvgl\src\lv_core/lv_indev.c ****             if(proc->types.pointer.gesture_sum.x > 0)
 1590              		.loc 1 1520 0
 1591 008e 83EAE370 		eor	r0, r3, r3, asr #31
 1592 0092 A0EBE370 		sub	r0, r0, r3, asr #31
 1593 0096 8642     		cmp	r6, r0
 1594 0098 09DD     		ble	.L101
1521:lvgl\src\lv_core/lv_indev.c ****                 proc->types.pointer.gesture_dir = LV_GESTURE_DIR_RIGHT;
 1595              		.loc 1 1521 0
 1596 009a 0029     		cmp	r1, #0
 1597 009c 03DD     		ble	.L102
1522:lvgl\src\lv_core/lv_indev.c ****             else
 1598              		.loc 1 1522 0
 1599 009e 0323     		movs	r3, #3
 1600 00a0 85F82430 		strb	r3, [r5, #36]
 1601 00a4 0CE0     		b	.L103
 1602              	.L102:
1524:lvgl\src\lv_core/lv_indev.c ****         }
 1603              		.loc 1 1524 0
ARM GAS  C:\Users\strap\AppData\Local\Temp\cc4VwSsz.s 			page 61


 1604 00a6 0223     		movs	r3, #2
 1605 00a8 85F82430 		strb	r3, [r5, #36]
 1606 00ac 08E0     		b	.L103
 1607              	.L101:
1527:lvgl\src\lv_core/lv_indev.c ****                 proc->types.pointer.gesture_dir = LV_GESTURE_DIR_BOTTOM;
 1608              		.loc 1 1527 0
 1609 00ae 002B     		cmp	r3, #0
 1610 00b0 03DD     		ble	.L104
1528:lvgl\src\lv_core/lv_indev.c ****             else
 1611              		.loc 1 1528 0
 1612 00b2 0123     		movs	r3, #1
 1613 00b4 85F82430 		strb	r3, [r5, #36]
 1614 00b8 02E0     		b	.L103
 1615              	.L104:
1530:lvgl\src\lv_core/lv_indev.c ****         }
 1616              		.loc 1 1530 0
 1617 00ba 0023     		movs	r3, #0
 1618 00bc 85F82430 		strb	r3, [r5, #36]
 1619              	.L103:
1533:lvgl\src\lv_core/lv_indev.c ****         if(indev_reset_check(proc)) return;
 1620              		.loc 1 1533 0
 1621 00c0 E369     		ldr	r3, [r4, #28]
 1622 00c2 1421     		movs	r1, #20
 1623 00c4 2046     		mov	r0, r4
 1624 00c6 9847     		blx	r3
 1625              	.LVL199:
1534:lvgl\src\lv_core/lv_indev.c ****         lv_event_send(gesture_obj, LV_EVENT_GESTURE, NULL);
 1626              		.loc 1 1534 0
 1627 00c8 2846     		mov	r0, r5
 1628 00ca FFF7FEFF 		bl	indev_reset_check
 1629              	.LVL200:
 1630 00ce 38B9     		cbnz	r0, .L94
1535:lvgl\src\lv_core/lv_indev.c ****         if(indev_reset_check(proc)) return;
 1631              		.loc 1 1535 0
 1632 00d0 0022     		movs	r2, #0
 1633 00d2 0B21     		movs	r1, #11
 1634 00d4 2046     		mov	r0, r4
 1635 00d6 FFF7FEFF 		bl	lv_event_send
 1636              	.LVL201:
1536:lvgl\src\lv_core/lv_indev.c ****     }
 1637              		.loc 1 1536 0
 1638 00da 2846     		mov	r0, r5
 1639 00dc FFF7FEFF 		bl	indev_reset_check
 1640              	.LVL202:
 1641              	.L94:
 1642 00e0 F8BD     		pop	{r3, r4, r5, r6, r7, pc}
 1643              	.L107:
 1644 00e2 00BF     		.align	2
 1645              	.L106:
 1646 00e4 00000000 		.word	.LANCHOR0
 1647              		.cfi_endproc
 1648              	.LFE364:
 1649              		.size	indev_gesture, .-indev_gesture
 1650              		.section	.text.indev_keypad_proc,"ax",%progbits
 1651              		.align	2
 1652              		.thumb
 1653              		.thumb_func
ARM GAS  C:\Users\strap\AppData\Local\Temp\cc4VwSsz.s 			page 62


 1654              		.type	indev_keypad_proc, %function
 1655              	indev_keypad_proc:
 1656              	.LFB353:
 430:lvgl\src\lv_core/lv_indev.c **** #if LV_USE_GROUP
 1657              		.loc 1 430 0
 1658              		.cfi_startproc
 1659              		@ args = 0, pretend = 0, frame = 0
 1660              		@ frame_needed = 0, uses_anonymous_args = 0
 1661              	.LVL203:
 1662 0000 F8B5     		push	{r3, r4, r5, r6, r7, lr}
 1663              		.cfi_def_cfa_offset 24
 1664              		.cfi_offset 3, -24
 1665              		.cfi_offset 4, -20
 1666              		.cfi_offset 5, -16
 1667              		.cfi_offset 6, -12
 1668              		.cfi_offset 7, -8
 1669              		.cfi_offset 14, -4
 432:lvgl\src\lv_core/lv_indev.c **** 
 1670              		.loc 1 432 0
 1671 0002 8B7B     		ldrb	r3, [r1, #14]	@ zero_extendqisi2
 1672 0004 012B     		cmp	r3, #1
 1673 0006 05D1     		bne	.L109
 432:lvgl\src\lv_core/lv_indev.c **** 
 1674              		.loc 1 432 0 is_stmt 0 discriminator 1
 1675 0008 90F85430 		ldrb	r3, [r0, #84]	@ zero_extendqisi2
 1676 000c 13F0080F 		tst	r3, #8
 1677 0010 40F06F81 		bne	.L108
 1678              	.L109:
 434:lvgl\src\lv_core/lv_indev.c ****         i->proc.wait_until_release      = 0;
 1679              		.loc 1 434 0 is_stmt 1
 1680 0014 90F85430 		ldrb	r3, [r0, #84]	@ zero_extendqisi2
 1681 0018 13F0080F 		tst	r3, #8
 1682 001c 0BD0     		beq	.L111
 435:lvgl\src\lv_core/lv_indev.c ****         i->proc.pr_timestamp            = 0;
 1683              		.loc 1 435 0
 1684 001e 90F85430 		ldrb	r3, [r0, #84]	@ zero_extendqisi2
 436:lvgl\src\lv_core/lv_indev.c ****         i->proc.long_pr_sent            = 0;
 1685              		.loc 1 436 0
 1686 0022 0022     		movs	r2, #0
 1687 0024 C264     		str	r2, [r0, #76]
 437:lvgl\src\lv_core/lv_indev.c ****         i->proc.types.keypad.last_state = LV_INDEV_STATE_REL; /*To skip the processing of release*/
 1688              		.loc 1 437 0
 1689 0026 03F0F703 		and	r3, r3, #247
 1690 002a 62F30003 		bfi	r3, r2, #0, #1
 1691 002e 80F85430 		strb	r3, [r0, #84]
 438:lvgl\src\lv_core/lv_indev.c ****     }
 1692              		.loc 1 438 0
 1693 0032 80F82420 		strb	r2, [r0, #36]
 1694              	.L111:
 441:lvgl\src\lv_core/lv_indev.c ****     if(g == NULL) return;
 1695              		.loc 1 441 0
 1696 0036 C66D     		ldr	r6, [r0, #92]
 1697              	.LVL204:
 442:lvgl\src\lv_core/lv_indev.c **** 
 1698              		.loc 1 442 0
 1699 0038 002E     		cmp	r6, #0
 1700 003a 00F05A81 		beq	.L108
ARM GAS  C:\Users\strap\AppData\Local\Temp\cc4VwSsz.s 			page 63


 1701 003e 0D46     		mov	r5, r1
 1702 0040 0446     		mov	r4, r0
 444:lvgl\src\lv_core/lv_indev.c ****     if(indev_obj_act == NULL) return;
 1703              		.loc 1 444 0
 1704 0042 3046     		mov	r0, r6
 1705              	.LVL205:
 1706 0044 FFF7FEFF 		bl	lv_group_get_focused
 1707              	.LVL206:
 1708 0048 AA4B     		ldr	r3, .L127
 1709 004a 1860     		str	r0, [r3]
 445:lvgl\src\lv_core/lv_indev.c **** 
 1710              		.loc 1 445 0
 1711 004c 0028     		cmp	r0, #0
 1712 004e 00F05081 		beq	.L108
 448:lvgl\src\lv_core/lv_indev.c **** 
 1713              		.loc 1 448 0
 1714 0052 A16A     		ldr	r1, [r4, #40]
 1715              	.LVL207:
 452:lvgl\src\lv_core/lv_indev.c **** 
 1716              		.loc 1 452 0
 1717 0054 6B68     		ldr	r3, [r5, #4]
 1718 0056 A362     		str	r3, [r4, #40]
 457:lvgl\src\lv_core/lv_indev.c ****     i->proc.types.keypad.last_state = data->state;
 1719              		.loc 1 457 0
 1720 0058 94F82420 		ldrb	r2, [r4, #36]	@ zero_extendqisi2
 1721              	.LVL208:
 458:lvgl\src\lv_core/lv_indev.c **** 
 1722              		.loc 1 458 0
 1723 005c AB7B     		ldrb	r3, [r5, #14]	@ zero_extendqisi2
 1724 005e 84F82430 		strb	r3, [r4, #36]
 461:lvgl\src\lv_core/lv_indev.c ****         i->proc.pr_timestamp = lv_tick_get();
 1725              		.loc 1 461 0
 1726 0062 AB7B     		ldrb	r3, [r5, #14]	@ zero_extendqisi2
 1727 0064 012B     		cmp	r3, #1
 1728 0066 5DD1     		bne	.L112
 461:lvgl\src\lv_core/lv_indev.c ****         i->proc.pr_timestamp = lv_tick_get();
 1729              		.loc 1 461 0 is_stmt 0 discriminator 1
 1730 0068 002A     		cmp	r2, #0
 1731 006a 5BD1     		bne	.L112
 462:lvgl\src\lv_core/lv_indev.c **** 
 1732              		.loc 1 462 0 is_stmt 1
 1733 006c FFF7FEFF 		bl	lv_tick_get
 1734              	.LVL209:
 1735 0070 E064     		str	r0, [r4, #76]
 465:lvgl\src\lv_core/lv_indev.c ****             /*Send the ENTER as a normal KEY*/
 1736              		.loc 1 465 0
 1737 0072 6968     		ldr	r1, [r5, #4]
 1738 0074 0A29     		cmp	r1, #10
 1739 0076 1CD1     		bne	.L113
 467:lvgl\src\lv_core/lv_indev.c **** 
 1740              		.loc 1 467 0
 1741 0078 3046     		mov	r0, r6
 1742 007a FFF7FEFF 		bl	lv_group_send_data
 1743              	.LVL210:
 469:lvgl\src\lv_core/lv_indev.c ****             if(indev_reset_check(&i->proc)) return;
 1744              		.loc 1 469 0
 1745 007e 9D4B     		ldr	r3, .L127
ARM GAS  C:\Users\strap\AppData\Local\Temp\cc4VwSsz.s 			page 64


 1746 0080 1868     		ldr	r0, [r3]
 1747 0082 C369     		ldr	r3, [r0, #28]
 1748 0084 0022     		movs	r2, #0
 1749 0086 0B21     		movs	r1, #11
 1750 0088 9847     		blx	r3
 1751              	.LVL211:
 470:lvgl\src\lv_core/lv_indev.c ****             lv_event_send(indev_obj_act, LV_EVENT_PRESSED, NULL);
 1752              		.loc 1 470 0
 1753 008a 2034     		adds	r4, r4, #32
 1754              	.LVL212:
 1755 008c 2046     		mov	r0, r4
 1756 008e FFF7FEFF 		bl	indev_reset_check
 1757              	.LVL213:
 1758 0092 0028     		cmp	r0, #0
 1759 0094 40F02D81 		bne	.L108
 471:lvgl\src\lv_core/lv_indev.c ****             if(indev_reset_check(&i->proc)) return;
 1760              		.loc 1 471 0
 1761 0098 0022     		movs	r2, #0
 1762 009a 1146     		mov	r1, r2
 1763 009c 954B     		ldr	r3, .L127
 1764 009e 1868     		ldr	r0, [r3]
 1765 00a0 FFF7FEFF 		bl	lv_event_send
 1766              	.LVL214:
 472:lvgl\src\lv_core/lv_indev.c ****         }
 1767              		.loc 1 472 0
 1768 00a4 2046     		mov	r0, r4
 1769 00a6 FFF7FEFF 		bl	indev_reset_check
 1770              	.LVL215:
 1771 00aa 0028     		cmp	r0, #0
 1772 00ac 00F01E81 		beq	.L114
 1773 00b0 F8BD     		pop	{r3, r4, r5, r6, r7, pc}
 1774              	.LVL216:
 1775              	.L113:
 474:lvgl\src\lv_core/lv_indev.c ****             /*Send the ESC as a normal KEY*/
 1776              		.loc 1 474 0
 1777 00b2 1B29     		cmp	r1, #27
 1778 00b4 10D1     		bne	.L115
 476:lvgl\src\lv_core/lv_indev.c **** 
 1779              		.loc 1 476 0
 1780 00b6 3046     		mov	r0, r6
 1781 00b8 FFF7FEFF 		bl	lv_group_send_data
 1782              	.LVL217:
 478:lvgl\src\lv_core/lv_indev.c ****             if(indev_reset_check(&i->proc)) return;
 1783              		.loc 1 478 0
 1784 00bc 0022     		movs	r2, #0
 1785 00be 1421     		movs	r1, #20
 1786 00c0 8C4B     		ldr	r3, .L127
 1787 00c2 1868     		ldr	r0, [r3]
 1788 00c4 FFF7FEFF 		bl	lv_event_send
 1789              	.LVL218:
 479:lvgl\src\lv_core/lv_indev.c ****         }
 1790              		.loc 1 479 0
 1791 00c8 04F12000 		add	r0, r4, #32
 1792 00cc FFF7FEFF 		bl	indev_reset_check
 1793              	.LVL219:
 1794 00d0 0028     		cmp	r0, #0
 1795 00d2 00F00B81 		beq	.L114
ARM GAS  C:\Users\strap\AppData\Local\Temp\cc4VwSsz.s 			page 65


 1796 00d6 F8BD     		pop	{r3, r4, r5, r6, r7, pc}
 1797              	.LVL220:
 1798              	.L115:
 482:lvgl\src\lv_core/lv_indev.c ****             lv_group_set_editing(g, false); /*Editing is not used by KEYPAD is be sure it is disabl
 1799              		.loc 1 482 0
 1800 00d8 0929     		cmp	r1, #9
 1801 00da 0ED1     		bne	.L116
 483:lvgl\src\lv_core/lv_indev.c ****             lv_group_focus_next(g);
 1802              		.loc 1 483 0
 1803 00dc 0021     		movs	r1, #0
 1804 00de 3046     		mov	r0, r6
 1805 00e0 FFF7FEFF 		bl	lv_group_set_editing
 1806              	.LVL221:
 484:lvgl\src\lv_core/lv_indev.c ****             if(indev_reset_check(&i->proc)) return;
 1807              		.loc 1 484 0
 1808 00e4 3046     		mov	r0, r6
 1809 00e6 FFF7FEFF 		bl	lv_group_focus_next
 1810              	.LVL222:
 485:lvgl\src\lv_core/lv_indev.c ****         }
 1811              		.loc 1 485 0
 1812 00ea 04F12000 		add	r0, r4, #32
 1813 00ee FFF7FEFF 		bl	indev_reset_check
 1814              	.LVL223:
 1815 00f2 0028     		cmp	r0, #0
 1816 00f4 00F0FA80 		beq	.L114
 1817 00f8 F8BD     		pop	{r3, r4, r5, r6, r7, pc}
 1818              	.LVL224:
 1819              	.L116:
 488:lvgl\src\lv_core/lv_indev.c ****             lv_group_set_editing(g, false); /*Editing is not used by KEYPAD is be sure it is disabl
 1820              		.loc 1 488 0
 1821 00fa 0B29     		cmp	r1, #11
 1822 00fc 0ED1     		bne	.L117
 489:lvgl\src\lv_core/lv_indev.c ****             lv_group_focus_prev(g);
 1823              		.loc 1 489 0
 1824 00fe 0021     		movs	r1, #0
 1825 0100 3046     		mov	r0, r6
 1826 0102 FFF7FEFF 		bl	lv_group_set_editing
 1827              	.LVL225:
 490:lvgl\src\lv_core/lv_indev.c ****             if(indev_reset_check(&i->proc)) return;
 1828              		.loc 1 490 0
 1829 0106 3046     		mov	r0, r6
 1830 0108 FFF7FEFF 		bl	lv_group_focus_prev
 1831              	.LVL226:
 491:lvgl\src\lv_core/lv_indev.c ****         }
 1832              		.loc 1 491 0
 1833 010c 04F12000 		add	r0, r4, #32
 1834 0110 FFF7FEFF 		bl	indev_reset_check
 1835              	.LVL227:
 1836 0114 0028     		cmp	r0, #0
 1837 0116 00F0E980 		beq	.L114
 1838 011a F8BD     		pop	{r3, r4, r5, r6, r7, pc}
 1839              	.LVL228:
 1840              	.L117:
 495:lvgl\src\lv_core/lv_indev.c ****         }
 1841              		.loc 1 495 0
 1842 011c 3046     		mov	r0, r6
 1843 011e FFF7FEFF 		bl	lv_group_send_data
ARM GAS  C:\Users\strap\AppData\Local\Temp\cc4VwSsz.s 			page 66


 1844              	.LVL229:
 1845 0122 E3E0     		b	.L114
 1846              	.LVL230:
 1847              	.L112:
 499:lvgl\src\lv_core/lv_indev.c **** 
 1848              		.loc 1 499 0
 1849 0124 012B     		cmp	r3, #1
 1850 0126 40F0A580 		bne	.L118
 499:lvgl\src\lv_core/lv_indev.c **** 
 1851              		.loc 1 499 0 is_stmt 0 discriminator 1
 1852 012a 012A     		cmp	r2, #1
 1853 012c 40F0A280 		bne	.L118
 501:lvgl\src\lv_core/lv_indev.c ****             indev_obj_act->signal_cb(indev_obj_act, LV_SIGNAL_PRESSING, NULL);
 1854              		.loc 1 501 0 is_stmt 1
 1855 0130 6B68     		ldr	r3, [r5, #4]
 1856 0132 0A2B     		cmp	r3, #10
 1857 0134 17D1     		bne	.L119
 502:lvgl\src\lv_core/lv_indev.c ****             if(indev_reset_check(&i->proc)) return;
 1858              		.loc 1 502 0
 1859 0136 C369     		ldr	r3, [r0, #28]
 1860 0138 0022     		movs	r2, #0
 1861              	.LVL231:
 1862 013a 0C21     		movs	r1, #12
 1863              	.LVL232:
 1864 013c 9847     		blx	r3
 1865              	.LVL233:
 503:lvgl\src\lv_core/lv_indev.c ****             lv_event_send(indev_obj_act, LV_EVENT_PRESSING, NULL);
 1866              		.loc 1 503 0
 1867 013e 04F12007 		add	r7, r4, #32
 1868 0142 3846     		mov	r0, r7
 1869 0144 FFF7FEFF 		bl	indev_reset_check
 1870              	.LVL234:
 1871 0148 0028     		cmp	r0, #0
 1872 014a 40F0D280 		bne	.L108
 504:lvgl\src\lv_core/lv_indev.c ****             if(indev_reset_check(&i->proc)) return;
 1873              		.loc 1 504 0
 1874 014e 0022     		movs	r2, #0
 1875 0150 0121     		movs	r1, #1
 1876 0152 684B     		ldr	r3, .L127
 1877 0154 1868     		ldr	r0, [r3]
 1878 0156 FFF7FEFF 		bl	lv_event_send
 1879              	.LVL235:
 505:lvgl\src\lv_core/lv_indev.c ****         }
 1880              		.loc 1 505 0
 1881 015a 3846     		mov	r0, r7
 1882 015c FFF7FEFF 		bl	indev_reset_check
 1883              	.LVL236:
 1884 0160 0028     		cmp	r0, #0
 1885 0162 40F0C680 		bne	.L108
 1886              	.L119:
 509:lvgl\src\lv_core/lv_indev.c ****             i->proc.long_pr_sent = 1;
 1887              		.loc 1 509 0
 1888 0166 94F85430 		ldrb	r3, [r4, #84]	@ zero_extendqisi2
 1889 016a 13F0010F 		tst	r3, #1
 1890 016e 2CD1     		bne	.L120
 509:lvgl\src\lv_core/lv_indev.c ****             i->proc.long_pr_sent = 1;
 1891              		.loc 1 509 0 is_stmt 0 discriminator 1
ARM GAS  C:\Users\strap\AppData\Local\Temp\cc4VwSsz.s 			page 67


 1892 0170 E06C     		ldr	r0, [r4, #76]
 1893 0172 FFF7FEFF 		bl	lv_tick_elaps
 1894              	.LVL237:
 1895 0176 A38B     		ldrh	r3, [r4, #28]
 1896 0178 9842     		cmp	r0, r3
 1897 017a 26D9     		bls	.L120
 510:lvgl\src\lv_core/lv_indev.c ****             if(data->key == LV_KEY_ENTER) {
 1898              		.loc 1 510 0 is_stmt 1
 1899 017c 94F85430 		ldrb	r3, [r4, #84]	@ zero_extendqisi2
 1900 0180 43F00103 		orr	r3, r3, #1
 1901 0184 84F85430 		strb	r3, [r4, #84]
 511:lvgl\src\lv_core/lv_indev.c ****                 i->proc.longpr_rep_timestamp = lv_tick_get();
 1902              		.loc 1 511 0
 1903 0188 6B68     		ldr	r3, [r5, #4]
 1904 018a 0A2B     		cmp	r3, #10
 1905 018c 40F0AE80 		bne	.L114
 512:lvgl\src\lv_core/lv_indev.c ****                 indev_obj_act->signal_cb(indev_obj_act, LV_SIGNAL_LONG_PRESS, NULL);
 1906              		.loc 1 512 0
 1907 0190 FFF7FEFF 		bl	lv_tick_get
 1908              	.LVL238:
 1909 0194 2065     		str	r0, [r4, #80]
 513:lvgl\src\lv_core/lv_indev.c ****                 if(indev_reset_check(&i->proc)) return;
 1910              		.loc 1 513 0
 1911 0196 574B     		ldr	r3, .L127
 1912 0198 1868     		ldr	r0, [r3]
 1913 019a C369     		ldr	r3, [r0, #28]
 1914 019c 0022     		movs	r2, #0
 1915 019e 0F21     		movs	r1, #15
 1916 01a0 9847     		blx	r3
 1917              	.LVL239:
 514:lvgl\src\lv_core/lv_indev.c ****                 lv_event_send(indev_obj_act, LV_EVENT_LONG_PRESSED, NULL);
 1918              		.loc 1 514 0
 1919 01a2 2034     		adds	r4, r4, #32
 1920              	.LVL240:
 1921 01a4 2046     		mov	r0, r4
 1922 01a6 FFF7FEFF 		bl	indev_reset_check
 1923              	.LVL241:
 1924 01aa 0028     		cmp	r0, #0
 1925 01ac 40F0A180 		bne	.L108
 515:lvgl\src\lv_core/lv_indev.c ****                 if(indev_reset_check(&i->proc)) return;
 1926              		.loc 1 515 0
 1927 01b0 0022     		movs	r2, #0
 1928 01b2 0421     		movs	r1, #4
 1929 01b4 4F4B     		ldr	r3, .L127
 1930 01b6 1868     		ldr	r0, [r3]
 1931 01b8 FFF7FEFF 		bl	lv_event_send
 1932              	.LVL242:
 516:lvgl\src\lv_core/lv_indev.c ****             }
 1933              		.loc 1 516 0
 1934 01bc 2046     		mov	r0, r4
 1935 01be FFF7FEFF 		bl	indev_reset_check
 1936              	.LVL243:
 1937 01c2 0028     		cmp	r0, #0
 1938 01c4 00F09280 		beq	.L114
 1939 01c8 F8BD     		pop	{r3, r4, r5, r6, r7, pc}
 1940              	.LVL244:
 1941              	.L120:
ARM GAS  C:\Users\strap\AppData\Local\Temp\cc4VwSsz.s 			page 68


 520:lvgl\src\lv_core/lv_indev.c ****                 lv_tick_elaps(i->proc.longpr_rep_timestamp) > i->driver.long_press_rep_time) {
 1942              		.loc 1 520 0
 1943 01ca 94F85430 		ldrb	r3, [r4, #84]	@ zero_extendqisi2
 1944 01ce 13F0010F 		tst	r3, #1
 1945 01d2 00F08B80 		beq	.L114
 521:lvgl\src\lv_core/lv_indev.c **** 
 1946              		.loc 1 521 0 discriminator 1
 1947 01d6 206D     		ldr	r0, [r4, #80]
 1948 01d8 FFF7FEFF 		bl	lv_tick_elaps
 1949              	.LVL245:
 1950 01dc E38B     		ldrh	r3, [r4, #30]
 520:lvgl\src\lv_core/lv_indev.c ****                 lv_tick_elaps(i->proc.longpr_rep_timestamp) > i->driver.long_press_rep_time) {
 1951              		.loc 1 520 0 discriminator 1
 1952 01de 9842     		cmp	r0, r3
 1953 01e0 40F28480 		bls	.L114
 523:lvgl\src\lv_core/lv_indev.c **** 
 1954              		.loc 1 523 0
 1955 01e4 FFF7FEFF 		bl	lv_tick_get
 1956              	.LVL246:
 1957 01e8 2065     		str	r0, [r4, #80]
 526:lvgl\src\lv_core/lv_indev.c ****                 indev_obj_act->signal_cb(indev_obj_act, LV_SIGNAL_LONG_PRESS_REP, NULL);
 1958              		.loc 1 526 0
 1959 01ea 6968     		ldr	r1, [r5, #4]
 1960 01ec 0A29     		cmp	r1, #10
 1961 01ee 17D1     		bne	.L121
 527:lvgl\src\lv_core/lv_indev.c ****                 if(indev_reset_check(&i->proc)) return;
 1962              		.loc 1 527 0
 1963 01f0 404B     		ldr	r3, .L127
 1964 01f2 1868     		ldr	r0, [r3]
 1965 01f4 C369     		ldr	r3, [r0, #28]
 1966 01f6 0022     		movs	r2, #0
 1967 01f8 1021     		movs	r1, #16
 1968 01fa 9847     		blx	r3
 1969              	.LVL247:
 528:lvgl\src\lv_core/lv_indev.c ****                 lv_event_send(indev_obj_act, LV_EVENT_LONG_PRESSED_REPEAT, NULL);
 1970              		.loc 1 528 0
 1971 01fc 2034     		adds	r4, r4, #32
 1972              	.LVL248:
 1973 01fe 2046     		mov	r0, r4
 1974 0200 FFF7FEFF 		bl	indev_reset_check
 1975              	.LVL249:
 1976 0204 0028     		cmp	r0, #0
 1977 0206 74D1     		bne	.L108
 529:lvgl\src\lv_core/lv_indev.c ****                 if(indev_reset_check(&i->proc)) return;
 1978              		.loc 1 529 0
 1979 0208 0022     		movs	r2, #0
 1980 020a 0521     		movs	r1, #5
 1981 020c 394B     		ldr	r3, .L127
 1982 020e 1868     		ldr	r0, [r3]
 1983 0210 FFF7FEFF 		bl	lv_event_send
 1984              	.LVL250:
 530:lvgl\src\lv_core/lv_indev.c ****             }
 1985              		.loc 1 530 0
 1986 0214 2046     		mov	r0, r4
 1987 0216 FFF7FEFF 		bl	indev_reset_check
 1988              	.LVL251:
 1989 021a 0028     		cmp	r0, #0
ARM GAS  C:\Users\strap\AppData\Local\Temp\cc4VwSsz.s 			page 69


 1990 021c 66D0     		beq	.L114
 1991 021e F8BD     		pop	{r3, r4, r5, r6, r7, pc}
 1992              	.LVL252:
 1993              	.L121:
 533:lvgl\src\lv_core/lv_indev.c ****                 lv_group_set_editing(g, false); /*Editing is not used by KEYPAD is be sure it is di
 1994              		.loc 1 533 0
 1995 0220 0929     		cmp	r1, #9
 1996 0222 0DD1     		bne	.L122
 534:lvgl\src\lv_core/lv_indev.c ****                 lv_group_focus_next(g);
 1997              		.loc 1 534 0
 1998 0224 0021     		movs	r1, #0
 1999 0226 3046     		mov	r0, r6
 2000 0228 FFF7FEFF 		bl	lv_group_set_editing
 2001              	.LVL253:
 535:lvgl\src\lv_core/lv_indev.c ****                 if(indev_reset_check(&i->proc)) return;
 2002              		.loc 1 535 0
 2003 022c 3046     		mov	r0, r6
 2004 022e FFF7FEFF 		bl	lv_group_focus_next
 2005              	.LVL254:
 536:lvgl\src\lv_core/lv_indev.c ****             }
 2006              		.loc 1 536 0
 2007 0232 04F12000 		add	r0, r4, #32
 2008 0236 FFF7FEFF 		bl	indev_reset_check
 2009              	.LVL255:
 2010 023a 0028     		cmp	r0, #0
 2011 023c 56D0     		beq	.L114
 2012 023e F8BD     		pop	{r3, r4, r5, r6, r7, pc}
 2013              	.LVL256:
 2014              	.L122:
 539:lvgl\src\lv_core/lv_indev.c ****                 lv_group_set_editing(g, false); /*Editing is not used by KEYPAD is be sure it is di
 2015              		.loc 1 539 0
 2016 0240 0B29     		cmp	r1, #11
 2017 0242 0DD1     		bne	.L123
 540:lvgl\src\lv_core/lv_indev.c ****                 lv_group_focus_prev(g);
 2018              		.loc 1 540 0
 2019 0244 0021     		movs	r1, #0
 2020 0246 3046     		mov	r0, r6
 2021 0248 FFF7FEFF 		bl	lv_group_set_editing
 2022              	.LVL257:
 541:lvgl\src\lv_core/lv_indev.c ****                 if(indev_reset_check(&i->proc)) return;
 2023              		.loc 1 541 0
 2024 024c 3046     		mov	r0, r6
 2025 024e FFF7FEFF 		bl	lv_group_focus_prev
 2026              	.LVL258:
 542:lvgl\src\lv_core/lv_indev.c ****             }
 2027              		.loc 1 542 0
 2028 0252 04F12000 		add	r0, r4, #32
 2029 0256 FFF7FEFF 		bl	indev_reset_check
 2030              	.LVL259:
 2031 025a 0028     		cmp	r0, #0
 2032 025c 46D0     		beq	.L114
 2033 025e F8BD     		pop	{r3, r4, r5, r6, r7, pc}
 2034              	.LVL260:
 2035              	.L123:
 546:lvgl\src\lv_core/lv_indev.c ****                 if(indev_reset_check(&i->proc)) return;
 2036              		.loc 1 546 0
 2037 0260 3046     		mov	r0, r6
ARM GAS  C:\Users\strap\AppData\Local\Temp\cc4VwSsz.s 			page 70


 2038 0262 FFF7FEFF 		bl	lv_group_send_data
 2039              	.LVL261:
 547:lvgl\src\lv_core/lv_indev.c ****             }
 2040              		.loc 1 547 0
 2041 0266 04F12000 		add	r0, r4, #32
 2042 026a FFF7FEFF 		bl	indev_reset_check
 2043              	.LVL262:
 2044 026e 0028     		cmp	r0, #0
 2045 0270 3CD0     		beq	.L114
 2046 0272 F8BD     		pop	{r3, r4, r5, r6, r7, pc}
 2047              	.LVL263:
 2048              	.L118:
 552:lvgl\src\lv_core/lv_indev.c ****         /*The user might clear the key when it was released. Always release the pressed key*/
 2049              		.loc 1 552 0
 2050 0274 002B     		cmp	r3, #0
 2051 0276 39D1     		bne	.L114
 552:lvgl\src\lv_core/lv_indev.c ****         /*The user might clear the key when it was released. Always release the pressed key*/
 2052              		.loc 1 552 0 is_stmt 0 discriminator 1
 2053 0278 012A     		cmp	r2, #1
 2054 027a 37D1     		bne	.L114
 554:lvgl\src\lv_core/lv_indev.c ****         if(data->key == LV_KEY_ENTER) {
 2055              		.loc 1 554 0 is_stmt 1
 2056 027c 6960     		str	r1, [r5, #4]
 555:lvgl\src\lv_core/lv_indev.c **** 
 2057              		.loc 1 555 0
 2058 027e 0A29     		cmp	r1, #10
 2059 0280 2CD1     		bne	.L124
 557:lvgl\src\lv_core/lv_indev.c ****             if(indev_reset_check(&i->proc)) return;
 2060              		.loc 1 557 0
 2061 0282 C369     		ldr	r3, [r0, #28]
 2062 0284 0022     		movs	r2, #0
 2063              	.LVL264:
 2064 0286 0E21     		movs	r1, #14
 2065              	.LVL265:
 2066 0288 9847     		blx	r3
 2067              	.LVL266:
 558:lvgl\src\lv_core/lv_indev.c **** 
 2068              		.loc 1 558 0
 2069 028a 04F12005 		add	r5, r4, #32
 2070              	.LVL267:
 2071 028e 2846     		mov	r0, r5
 2072 0290 FFF7FEFF 		bl	indev_reset_check
 2073              	.LVL268:
 2074 0294 68BB     		cbnz	r0, .L108
 560:lvgl\src\lv_core/lv_indev.c ****                 lv_event_send(indev_obj_act, LV_EVENT_SHORT_CLICKED, NULL);
 2075              		.loc 1 560 0
 2076 0296 94F85430 		ldrb	r3, [r4, #84]	@ zero_extendqisi2
 2077 029a 13F0010F 		tst	r3, #1
 2078 029e 09D1     		bne	.L125
 561:lvgl\src\lv_core/lv_indev.c ****                 if(indev_reset_check(&i->proc)) return;
 2079              		.loc 1 561 0
 2080 02a0 0022     		movs	r2, #0
 2081 02a2 0321     		movs	r1, #3
 2082 02a4 134B     		ldr	r3, .L127
 2083 02a6 1868     		ldr	r0, [r3]
 2084 02a8 FFF7FEFF 		bl	lv_event_send
 2085              	.LVL269:
ARM GAS  C:\Users\strap\AppData\Local\Temp\cc4VwSsz.s 			page 71


 562:lvgl\src\lv_core/lv_indev.c ****             }
 2086              		.loc 1 562 0
 2087 02ac 2846     		mov	r0, r5
 2088 02ae FFF7FEFF 		bl	indev_reset_check
 2089              	.LVL270:
 2090 02b2 F0B9     		cbnz	r0, .L108
 2091              	.L125:
 565:lvgl\src\lv_core/lv_indev.c ****             if(indev_reset_check(&i->proc)) return;
 2092              		.loc 1 565 0
 2093 02b4 0022     		movs	r2, #0
 2094 02b6 0621     		movs	r1, #6
 2095 02b8 0E4B     		ldr	r3, .L127
 2096 02ba 1868     		ldr	r0, [r3]
 2097 02bc FFF7FEFF 		bl	lv_event_send
 2098              	.LVL271:
 566:lvgl\src\lv_core/lv_indev.c **** 
 2099              		.loc 1 566 0
 2100 02c0 2846     		mov	r0, r5
 2101 02c2 FFF7FEFF 		bl	indev_reset_check
 2102              	.LVL272:
 2103 02c6 A0B9     		cbnz	r0, .L108
 568:lvgl\src\lv_core/lv_indev.c ****             if(indev_reset_check(&i->proc)) return;
 2104              		.loc 1 568 0
 2105 02c8 0022     		movs	r2, #0
 2106 02ca 0721     		movs	r1, #7
 2107 02cc 094B     		ldr	r3, .L127
 2108 02ce 1868     		ldr	r0, [r3]
 2109 02d0 FFF7FEFF 		bl	lv_event_send
 2110              	.LVL273:
 569:lvgl\src\lv_core/lv_indev.c ****         }
 2111              		.loc 1 569 0
 2112 02d4 2846     		mov	r0, r5
 2113 02d6 FFF7FEFF 		bl	indev_reset_check
 2114              	.LVL274:
 2115 02da 50B9     		cbnz	r0, .L108
 2116              	.L124:
 571:lvgl\src\lv_core/lv_indev.c ****         i->proc.long_pr_sent = 0;
 2117              		.loc 1 571 0
 2118 02dc 0022     		movs	r2, #0
 2119 02de E264     		str	r2, [r4, #76]
 572:lvgl\src\lv_core/lv_indev.c ****     }
 2120              		.loc 1 572 0
 2121 02e0 94F85430 		ldrb	r3, [r4, #84]	@ zero_extendqisi2
 2122 02e4 62F30003 		bfi	r3, r2, #0, #1
 2123 02e8 84F85430 		strb	r3, [r4, #84]
 2124              	.LVL275:
 2125              	.L114:
 574:lvgl\src\lv_core/lv_indev.c **** #else
 2126              		.loc 1 574 0
 2127 02ec 0022     		movs	r2, #0
 2128 02ee 014B     		ldr	r3, .L127
 2129 02f0 1A60     		str	r2, [r3]
 2130              	.LVL276:
 2131              	.L108:
 2132 02f2 F8BD     		pop	{r3, r4, r5, r6, r7, pc}
 2133              	.L128:
 2134              		.align	2
ARM GAS  C:\Users\strap\AppData\Local\Temp\cc4VwSsz.s 			page 72


 2135              	.L127:
 2136 02f4 00000000 		.word	.LANCHOR0
 2137              		.cfi_endproc
 2138              	.LFE353:
 2139              		.size	indev_keypad_proc, .-indev_keypad_proc
 2140              		.section	.text.indev_encoder_proc,"ax",%progbits
 2141              		.align	2
 2142              		.thumb
 2143              		.thumb_func
 2144              		.type	indev_encoder_proc, %function
 2145              	indev_encoder_proc:
 2146              	.LFB354:
 587:lvgl\src\lv_core/lv_indev.c **** #if LV_USE_GROUP
 2147              		.loc 1 587 0
 2148              		.cfi_startproc
 2149              		@ args = 0, pretend = 0, frame = 8
 2150              		@ frame_needed = 0, uses_anonymous_args = 0
 2151              	.LVL277:
 2152 0000 2DE9F041 		push	{r4, r5, r6, r7, r8, lr}
 2153              		.cfi_def_cfa_offset 24
 2154              		.cfi_offset 4, -24
 2155              		.cfi_offset 5, -20
 2156              		.cfi_offset 6, -16
 2157              		.cfi_offset 7, -12
 2158              		.cfi_offset 8, -8
 2159              		.cfi_offset 14, -4
 2160 0004 82B0     		sub	sp, sp, #8
 2161              		.cfi_def_cfa_offset 32
 590:lvgl\src\lv_core/lv_indev.c **** 
 2162              		.loc 1 590 0
 2163 0006 8B7B     		ldrb	r3, [r1, #14]	@ zero_extendqisi2
 2164 0008 012B     		cmp	r3, #1
 2165 000a 05D1     		bne	.L130
 590:lvgl\src\lv_core/lv_indev.c **** 
 2166              		.loc 1 590 0 is_stmt 0 discriminator 1
 2167 000c 90F85430 		ldrb	r3, [r0, #84]	@ zero_extendqisi2
 2168 0010 13F0080F 		tst	r3, #8
 2169 0014 40F01C82 		bne	.L129
 2170              	.L130:
 592:lvgl\src\lv_core/lv_indev.c ****         i->proc.wait_until_release      = 0;
 2171              		.loc 1 592 0 is_stmt 1
 2172 0018 90F85430 		ldrb	r3, [r0, #84]	@ zero_extendqisi2
 2173 001c 13F0080F 		tst	r3, #8
 2174 0020 0BD0     		beq	.L132
 593:lvgl\src\lv_core/lv_indev.c ****         i->proc.pr_timestamp            = 0;
 2175              		.loc 1 593 0
 2176 0022 90F85430 		ldrb	r3, [r0, #84]	@ zero_extendqisi2
 594:lvgl\src\lv_core/lv_indev.c ****         i->proc.long_pr_sent            = 0;
 2177              		.loc 1 594 0
 2178 0026 0022     		movs	r2, #0
 2179 0028 C264     		str	r2, [r0, #76]
 595:lvgl\src\lv_core/lv_indev.c ****         i->proc.types.keypad.last_state = LV_INDEV_STATE_REL; /*To skip the processing of release*/
 2180              		.loc 1 595 0
 2181 002a 03F0F703 		and	r3, r3, #247
 2182 002e 62F30003 		bfi	r3, r2, #0, #1
 2183 0032 80F85430 		strb	r3, [r0, #84]
 596:lvgl\src\lv_core/lv_indev.c ****     }
ARM GAS  C:\Users\strap\AppData\Local\Temp\cc4VwSsz.s 			page 73


 2184              		.loc 1 596 0
 2185 0036 80F82420 		strb	r2, [r0, #36]
 2186              	.L132:
 601:lvgl\src\lv_core/lv_indev.c ****     i->proc.types.keypad.last_state = data->state;
 2187              		.loc 1 601 0
 2188 003a 90F82470 		ldrb	r7, [r0, #36]	@ zero_extendqisi2
 2189              	.LVL278:
 602:lvgl\src\lv_core/lv_indev.c ****     i->proc.types.keypad.last_key   = data->key;
 2190              		.loc 1 602 0
 2191 003e 8B7B     		ldrb	r3, [r1, #14]	@ zero_extendqisi2
 2192 0040 80F82430 		strb	r3, [r0, #36]
 603:lvgl\src\lv_core/lv_indev.c **** 
 2193              		.loc 1 603 0
 2194 0044 4B68     		ldr	r3, [r1, #4]
 2195 0046 8362     		str	r3, [r0, #40]
 605:lvgl\src\lv_core/lv_indev.c ****     if(g == NULL) return;
 2196              		.loc 1 605 0
 2197 0048 C66D     		ldr	r6, [r0, #92]
 2198              	.LVL279:
 606:lvgl\src\lv_core/lv_indev.c **** 
 2199              		.loc 1 606 0
 2200 004a 002E     		cmp	r6, #0
 2201 004c 00F00082 		beq	.L129
 2202 0050 0C46     		mov	r4, r1
 2203 0052 0546     		mov	r5, r0
 608:lvgl\src\lv_core/lv_indev.c ****     if(indev_obj_act == NULL) return;
 2204              		.loc 1 608 0
 2205 0054 3046     		mov	r0, r6
 2206              	.LVL280:
 2207 0056 FFF7FEFF 		bl	lv_group_get_focused
 2208              	.LVL281:
 2209 005a AB4B     		ldr	r3, .L178
 2210 005c 1860     		str	r0, [r3]
 609:lvgl\src\lv_core/lv_indev.c **** 
 2211              		.loc 1 609 0
 2212 005e 0028     		cmp	r0, #0
 2213 0060 00F0F681 		beq	.L129
 612:lvgl\src\lv_core/lv_indev.c ****         data->enc_diff = 0;
 2214              		.loc 1 612 0
 2215 0064 A37B     		ldrb	r3, [r4, #14]	@ zero_extendqisi2
 2216 0066 0BB1     		cbz	r3, .L133
 613:lvgl\src\lv_core/lv_indev.c ****     }
 2217              		.loc 1 613 0
 2218 0068 0023     		movs	r3, #0
 2219 006a A381     		strh	r3, [r4, #12]	@ movhi
 2220              	.L133:
 617:lvgl\src\lv_core/lv_indev.c ****     if(indev_obj_act == NULL) return;
 2221              		.loc 1 617 0
 2222 006c 3046     		mov	r0, r6
 2223 006e FFF7FEFF 		bl	lv_group_get_focused
 2224              	.LVL282:
 2225 0072 A54B     		ldr	r3, .L178
 2226 0074 1860     		str	r0, [r3]
 618:lvgl\src\lv_core/lv_indev.c **** 
 2227              		.loc 1 618 0
 2228 0076 0028     		cmp	r0, #0
 2229 0078 00F0EA81 		beq	.L129
ARM GAS  C:\Users\strap\AppData\Local\Temp\cc4VwSsz.s 			page 74


 621:lvgl\src\lv_core/lv_indev.c **** 
 2230              		.loc 1 621 0
 2231 007c A37B     		ldrb	r3, [r4, #14]	@ zero_extendqisi2
 2232 007e 012B     		cmp	r3, #1
 2233 0080 58D1     		bne	.L134
 621:lvgl\src\lv_core/lv_indev.c **** 
 2234              		.loc 1 621 0 is_stmt 0 discriminator 1
 2235 0082 002F     		cmp	r7, #0
 2236 0084 56D1     		bne	.L134
 623:lvgl\src\lv_core/lv_indev.c **** 
 2237              		.loc 1 623 0 is_stmt 1
 2238 0086 FFF7FEFF 		bl	lv_tick_get
 2239              	.LVL283:
 2240 008a E864     		str	r0, [r5, #76]
 625:lvgl\src\lv_core/lv_indev.c ****             bool editable = false;
 2241              		.loc 1 625 0
 2242 008c 6168     		ldr	r1, [r4, #4]
 2243 008e 0A29     		cmp	r1, #10
 2244 0090 2BD1     		bne	.L135
 2245              	.LBB9:
 626:lvgl\src\lv_core/lv_indev.c ****             indev_obj_act->signal_cb(indev_obj_act, LV_SIGNAL_GET_EDITABLE, &editable);
 2246              		.loc 1 626 0
 2247 0092 02AA     		add	r2, sp, #8
 2248 0094 0023     		movs	r3, #0
 2249 0096 02F8013D 		strb	r3, [r2, #-1]!
 627:lvgl\src\lv_core/lv_indev.c **** 
 2250              		.loc 1 627 0
 2251 009a 9B4B     		ldr	r3, .L178
 2252 009c 1868     		ldr	r0, [r3]
 2253 009e C369     		ldr	r3, [r0, #28]
 2254 00a0 1921     		movs	r1, #25
 2255 00a2 9847     		blx	r3
 2256              	.LVL284:
 629:lvgl\src\lv_core/lv_indev.c ****                 indev_obj_act->signal_cb(indev_obj_act, LV_SIGNAL_PRESSED, NULL);
 2257              		.loc 1 629 0
 2258 00a4 3046     		mov	r0, r6
 2259 00a6 FFF7FEFF 		bl	lv_group_get_editing
 2260              	.LVL285:
 2261 00aa 20B9     		cbnz	r0, .L136
 629:lvgl\src\lv_core/lv_indev.c ****                 indev_obj_act->signal_cb(indev_obj_act, LV_SIGNAL_PRESSED, NULL);
 2262              		.loc 1 629 0 is_stmt 0 discriminator 1
 2263 00ac 9DF80730 		ldrb	r3, [sp, #7]	@ zero_extendqisi2
 2264 00b0 002B     		cmp	r3, #0
 2265 00b2 40F08381 		bne	.L139
 2266              	.L136:
 630:lvgl\src\lv_core/lv_indev.c ****                 if(indev_reset_check(&i->proc)) return;
 2267              		.loc 1 630 0 is_stmt 1
 2268 00b6 944B     		ldr	r3, .L178
 2269 00b8 1868     		ldr	r0, [r3]
 2270 00ba C369     		ldr	r3, [r0, #28]
 2271 00bc 0022     		movs	r2, #0
 2272 00be 0B21     		movs	r1, #11
 2273 00c0 9847     		blx	r3
 2274              	.LVL286:
 631:lvgl\src\lv_core/lv_indev.c **** 
 2275              		.loc 1 631 0
 2276 00c2 2035     		adds	r5, r5, #32
ARM GAS  C:\Users\strap\AppData\Local\Temp\cc4VwSsz.s 			page 75


 2277              	.LVL287:
 2278 00c4 2846     		mov	r0, r5
 2279 00c6 FFF7FEFF 		bl	indev_reset_check
 2280              	.LVL288:
 2281 00ca 0028     		cmp	r0, #0
 2282 00cc 40F0C081 		bne	.L129
 633:lvgl\src\lv_core/lv_indev.c ****                 if(indev_reset_check(&i->proc)) return;
 2283              		.loc 1 633 0
 2284 00d0 0022     		movs	r2, #0
 2285 00d2 1146     		mov	r1, r2
 2286 00d4 8C4B     		ldr	r3, .L178
 2287 00d6 1868     		ldr	r0, [r3]
 2288 00d8 FFF7FEFF 		bl	lv_event_send
 2289              	.LVL289:
 634:lvgl\src\lv_core/lv_indev.c ****             }
 2290              		.loc 1 634 0
 2291 00dc 2846     		mov	r0, r5
 2292 00de FFF7FEFF 		bl	indev_reset_check
 2293              	.LVL290:
 2294 00e2 0028     		cmp	r0, #0
 2295 00e4 00F06A81 		beq	.L139
 2296 00e8 B2E1     		b	.L129
 2297              	.LVL291:
 2298              	.L135:
 2299              	.LBE9:
 637:lvgl\src\lv_core/lv_indev.c ****             /*emulate encoder left*/
 2300              		.loc 1 637 0
 2301 00ea 1429     		cmp	r1, #20
 2302 00ec 04D1     		bne	.L140
 639:lvgl\src\lv_core/lv_indev.c ****         }
 2303              		.loc 1 639 0
 2304 00ee B4F90C30 		ldrsh	r3, [r4, #12]
 2305 00f2 013B     		subs	r3, r3, #1
 2306 00f4 A381     		strh	r3, [r4, #12]	@ movhi
 2307 00f6 61E1     		b	.L139
 2308              	.L140:
 641:lvgl\src\lv_core/lv_indev.c ****             /*emulate encoder right*/
 2309              		.loc 1 641 0
 2310 00f8 1329     		cmp	r1, #19
 2311 00fa 04D1     		bne	.L141
 643:lvgl\src\lv_core/lv_indev.c ****         }
 2312              		.loc 1 643 0
 2313 00fc B4F90C30 		ldrsh	r3, [r4, #12]
 2314 0100 0133     		adds	r3, r3, #1
 2315 0102 A381     		strh	r3, [r4, #12]	@ movhi
 2316 0104 5AE1     		b	.L139
 2317              	.L141:
 645:lvgl\src\lv_core/lv_indev.c ****             /*Send the ESC as a normal KEY*/
 2318              		.loc 1 645 0
 2319 0106 1B29     		cmp	r1, #27
 2320 0108 10D1     		bne	.L142
 647:lvgl\src\lv_core/lv_indev.c **** 
 2321              		.loc 1 647 0
 2322 010a 3046     		mov	r0, r6
 2323 010c FFF7FEFF 		bl	lv_group_send_data
 2324              	.LVL292:
 649:lvgl\src\lv_core/lv_indev.c ****             if(indev_reset_check(&i->proc)) return;
ARM GAS  C:\Users\strap\AppData\Local\Temp\cc4VwSsz.s 			page 76


 2325              		.loc 1 649 0
 2326 0110 0022     		movs	r2, #0
 2327 0112 1421     		movs	r1, #20
 2328 0114 7C4B     		ldr	r3, .L178
 2329 0116 1868     		ldr	r0, [r3]
 2330 0118 FFF7FEFF 		bl	lv_event_send
 2331              	.LVL293:
 650:lvgl\src\lv_core/lv_indev.c ****         }
 2332              		.loc 1 650 0
 2333 011c 05F12000 		add	r0, r5, #32
 2334 0120 FFF7FEFF 		bl	indev_reset_check
 2335              	.LVL294:
 2336 0124 0028     		cmp	r0, #0
 2337 0126 00F04981 		beq	.L139
 2338 012a 91E1     		b	.L129
 2339              	.L142:
 654:lvgl\src\lv_core/lv_indev.c ****         }
 2340              		.loc 1 654 0
 2341 012c 3046     		mov	r0, r6
 2342 012e FFF7FEFF 		bl	lv_group_send_data
 2343              	.LVL295:
 2344 0132 43E1     		b	.L139
 2345              	.L134:
 658:lvgl\src\lv_core/lv_indev.c ****         /* Long press*/
 2346              		.loc 1 658 0
 2347 0134 012B     		cmp	r3, #1
 2348 0136 40F09C80 		bne	.L143
 658:lvgl\src\lv_core/lv_indev.c ****         /* Long press*/
 2349              		.loc 1 658 0 is_stmt 0 discriminator 1
 2350 013a 012F     		cmp	r7, #1
 2351 013c 40F09980 		bne	.L143
 660:lvgl\src\lv_core/lv_indev.c **** 
 2352              		.loc 1 660 0 is_stmt 1
 2353 0140 95F85430 		ldrb	r3, [r5, #84]	@ zero_extendqisi2
 2354 0144 13F0010F 		tst	r3, #1
 2355 0148 4DD1     		bne	.L144
 660:lvgl\src\lv_core/lv_indev.c **** 
 2356              		.loc 1 660 0 is_stmt 0 discriminator 1
 2357 014a E86C     		ldr	r0, [r5, #76]
 2358 014c FFF7FEFF 		bl	lv_tick_elaps
 2359              	.LVL296:
 2360 0150 AB8B     		ldrh	r3, [r5, #28]
 2361 0152 9842     		cmp	r0, r3
 2362 0154 47D9     		bls	.L144
 662:lvgl\src\lv_core/lv_indev.c ****             i->proc.longpr_rep_timestamp = lv_tick_get();
 2363              		.loc 1 662 0 is_stmt 1
 2364 0156 95F85430 		ldrb	r3, [r5, #84]	@ zero_extendqisi2
 2365 015a 43F00103 		orr	r3, r3, #1
 2366 015e 85F85430 		strb	r3, [r5, #84]
 663:lvgl\src\lv_core/lv_indev.c **** 
 2367              		.loc 1 663 0
 2368 0162 FFF7FEFF 		bl	lv_tick_get
 2369              	.LVL297:
 2370 0166 2865     		str	r0, [r5, #80]
 665:lvgl\src\lv_core/lv_indev.c ****                 bool editable = false;
 2371              		.loc 1 665 0
 2372 0168 6368     		ldr	r3, [r4, #4]
ARM GAS  C:\Users\strap\AppData\Local\Temp\cc4VwSsz.s 			page 77


 2373 016a 0A2B     		cmp	r3, #10
 2374 016c 34D1     		bne	.L145
 2375              	.LBB10:
 666:lvgl\src\lv_core/lv_indev.c ****                 indev_obj_act->signal_cb(indev_obj_act, LV_SIGNAL_GET_EDITABLE, &editable);
 2376              		.loc 1 666 0
 2377 016e 02AA     		add	r2, sp, #8
 2378 0170 0023     		movs	r3, #0
 2379 0172 02F8013D 		strb	r3, [r2, #-1]!
 667:lvgl\src\lv_core/lv_indev.c **** 
 2380              		.loc 1 667 0
 2381 0176 644B     		ldr	r3, .L178
 2382 0178 1868     		ldr	r0, [r3]
 2383 017a C369     		ldr	r3, [r0, #28]
 2384 017c 1921     		movs	r1, #25
 2385 017e 9847     		blx	r3
 2386              	.LVL298:
 670:lvgl\src\lv_core/lv_indev.c ****                     /*Don't leave edit mode if there is only one object (nowhere to navigate)*/
 2387              		.loc 1 670 0
 2388 0180 9DF80770 		ldrb	r7, [sp, #7]	@ zero_extendqisi2
 2389              	.LVL299:
 2390 0184 77B1     		cbz	r7, .L146
 672:lvgl\src\lv_core/lv_indev.c ****                         lv_group_set_editing(g, lv_group_get_editing(g) ? false : true); /*Toggle e
 2391              		.loc 1 672 0
 2392 0186 3046     		mov	r0, r6
 2393 0188 FFF7FEFF 		bl	_lv_ll_is_empty
 2394              	.LVL300:
 2395 018c 8046     		mov	r8, r0
 2396 018e 18BB     		cbnz	r0, .L145
 673:lvgl\src\lv_core/lv_indev.c ****                     }
 2397              		.loc 1 673 0
 2398 0190 3046     		mov	r0, r6
 2399 0192 FFF7FEFF 		bl	lv_group_get_editing
 2400              	.LVL301:
 2401 0196 00B1     		cbz	r0, .L148
 2402 0198 4746     		mov	r7, r8
 2403              	.L148:
 673:lvgl\src\lv_core/lv_indev.c ****                     }
 2404              		.loc 1 673 0 is_stmt 0 discriminator 4
 2405 019a 3946     		mov	r1, r7
 2406 019c 3046     		mov	r0, r6
 2407 019e FFF7FEFF 		bl	lv_group_set_editing
 2408              	.LVL302:
 2409 01a2 19E0     		b	.L145
 2410              	.L146:
 678:lvgl\src\lv_core/lv_indev.c ****                     if(indev_reset_check(&i->proc)) return;
 2411              		.loc 1 678 0 is_stmt 1
 2412 01a4 584B     		ldr	r3, .L178
 2413 01a6 1868     		ldr	r0, [r3]
 2414 01a8 C369     		ldr	r3, [r0, #28]
 2415 01aa 0022     		movs	r2, #0
 2416 01ac 0F21     		movs	r1, #15
 2417 01ae 9847     		blx	r3
 2418              	.LVL303:
 679:lvgl\src\lv_core/lv_indev.c ****                     lv_event_send(indev_obj_act, LV_EVENT_LONG_PRESSED, NULL);
 2419              		.loc 1 679 0
 2420 01b0 05F12007 		add	r7, r5, #32
 2421 01b4 3846     		mov	r0, r7
ARM GAS  C:\Users\strap\AppData\Local\Temp\cc4VwSsz.s 			page 78


 2422 01b6 FFF7FEFF 		bl	indev_reset_check
 2423              	.LVL304:
 2424 01ba 0028     		cmp	r0, #0
 2425 01bc 40F04881 		bne	.L129
 680:lvgl\src\lv_core/lv_indev.c ****                     if(indev_reset_check(&i->proc)) return;
 2426              		.loc 1 680 0
 2427 01c0 0022     		movs	r2, #0
 2428 01c2 0421     		movs	r1, #4
 2429 01c4 504B     		ldr	r3, .L178
 2430 01c6 1868     		ldr	r0, [r3]
 2431 01c8 FFF7FEFF 		bl	lv_event_send
 2432              	.LVL305:
 681:lvgl\src\lv_core/lv_indev.c ****                 }
 2433              		.loc 1 681 0
 2434 01cc 3846     		mov	r0, r7
 2435 01ce FFF7FEFF 		bl	indev_reset_check
 2436              	.LVL306:
 2437 01d2 0028     		cmp	r0, #0
 2438 01d4 40F03C81 		bne	.L129
 2439              	.L145:
 2440              	.LBE10:
 685:lvgl\src\lv_core/lv_indev.c ****         }
 2441              		.loc 1 685 0
 2442 01d8 95F85430 		ldrb	r3, [r5, #84]	@ zero_extendqisi2
 2443 01dc 43F00103 		orr	r3, r3, #1
 2444 01e0 85F85430 		strb	r3, [r5, #84]
 2445 01e4 EAE0     		b	.L139
 2446              	.LVL307:
 2447              	.L144:
 688:lvgl\src\lv_core/lv_indev.c **** 
 2448              		.loc 1 688 0
 2449 01e6 95F85430 		ldrb	r3, [r5, #84]	@ zero_extendqisi2
 2450 01ea 13F0010F 		tst	r3, #1
 2451 01ee 00F0E580 		beq	.L139
 688:lvgl\src\lv_core/lv_indev.c **** 
 2452              		.loc 1 688 0 is_stmt 0 discriminator 1
 2453 01f2 286D     		ldr	r0, [r5, #80]
 2454 01f4 FFF7FEFF 		bl	lv_tick_elaps
 2455              	.LVL308:
 2456 01f8 EB8B     		ldrh	r3, [r5, #30]
 2457 01fa 9842     		cmp	r0, r3
 2458 01fc 40F2DE80 		bls	.L139
 690:lvgl\src\lv_core/lv_indev.c **** 
 2459              		.loc 1 690 0 is_stmt 1
 2460 0200 FFF7FEFF 		bl	lv_tick_get
 2461              	.LVL309:
 2462 0204 2865     		str	r0, [r5, #80]
 692:lvgl\src\lv_core/lv_indev.c ****                 indev_obj_act->signal_cb(indev_obj_act, LV_SIGNAL_LONG_PRESS_REP, NULL);
 2463              		.loc 1 692 0
 2464 0206 6168     		ldr	r1, [r4, #4]
 2465 0208 0A29     		cmp	r1, #10
 2466 020a 19D1     		bne	.L150
 693:lvgl\src\lv_core/lv_indev.c ****                 if(indev_reset_check(&i->proc)) return;
 2467              		.loc 1 693 0
 2468 020c 3E4B     		ldr	r3, .L178
 2469 020e 1868     		ldr	r0, [r3]
 2470 0210 C369     		ldr	r3, [r0, #28]
ARM GAS  C:\Users\strap\AppData\Local\Temp\cc4VwSsz.s 			page 79


 2471 0212 0022     		movs	r2, #0
 2472 0214 1021     		movs	r1, #16
 2473 0216 9847     		blx	r3
 2474              	.LVL310:
 694:lvgl\src\lv_core/lv_indev.c ****                 lv_event_send(indev_obj_act, LV_EVENT_LONG_PRESSED_REPEAT, NULL);
 2475              		.loc 1 694 0
 2476 0218 2035     		adds	r5, r5, #32
 2477              	.LVL311:
 2478 021a 2846     		mov	r0, r5
 2479 021c FFF7FEFF 		bl	indev_reset_check
 2480              	.LVL312:
 2481 0220 0028     		cmp	r0, #0
 2482 0222 40F01581 		bne	.L129
 695:lvgl\src\lv_core/lv_indev.c ****                 if(indev_reset_check(&i->proc)) return;
 2483              		.loc 1 695 0
 2484 0226 0022     		movs	r2, #0
 2485 0228 0521     		movs	r1, #5
 2486 022a 374B     		ldr	r3, .L178
 2487 022c 1868     		ldr	r0, [r3]
 2488 022e FFF7FEFF 		bl	lv_event_send
 2489              	.LVL313:
 696:lvgl\src\lv_core/lv_indev.c ****             }
 2490              		.loc 1 696 0
 2491 0232 2846     		mov	r0, r5
 2492 0234 FFF7FEFF 		bl	indev_reset_check
 2493              	.LVL314:
 2494 0238 0028     		cmp	r0, #0
 2495 023a 00F0BF80 		beq	.L139
 2496 023e 07E1     		b	.L129
 2497              	.LVL315:
 2498              	.L150:
 698:lvgl\src\lv_core/lv_indev.c ****                 /*emulate encoder left*/
 2499              		.loc 1 698 0
 2500 0240 1429     		cmp	r1, #20
 2501 0242 04D1     		bne	.L151
 700:lvgl\src\lv_core/lv_indev.c ****             }
 2502              		.loc 1 700 0
 2503 0244 B4F90C30 		ldrsh	r3, [r4, #12]
 2504 0248 013B     		subs	r3, r3, #1
 2505 024a A381     		strh	r3, [r4, #12]	@ movhi
 2506 024c B6E0     		b	.L139
 2507              	.L151:
 702:lvgl\src\lv_core/lv_indev.c ****                 /*emulate encoder right*/
 2508              		.loc 1 702 0
 2509 024e 1329     		cmp	r1, #19
 2510 0250 04D1     		bne	.L152
 704:lvgl\src\lv_core/lv_indev.c ****             }
 2511              		.loc 1 704 0
 2512 0252 B4F90C30 		ldrsh	r3, [r4, #12]
 2513 0256 0133     		adds	r3, r3, #1
 2514 0258 A381     		strh	r3, [r4, #12]	@ movhi
 2515 025a AFE0     		b	.L139
 2516              	.L152:
 707:lvgl\src\lv_core/lv_indev.c ****                 if(indev_reset_check(&i->proc)) return;
 2517              		.loc 1 707 0
 2518 025c 3046     		mov	r0, r6
 2519 025e FFF7FEFF 		bl	lv_group_send_data
ARM GAS  C:\Users\strap\AppData\Local\Temp\cc4VwSsz.s 			page 80


 2520              	.LVL316:
 708:lvgl\src\lv_core/lv_indev.c ****             }
 2521              		.loc 1 708 0
 2522 0262 05F12000 		add	r0, r5, #32
 2523 0266 FFF7FEFF 		bl	indev_reset_check
 2524              	.LVL317:
 2525 026a 0028     		cmp	r0, #0
 2526 026c 00F0A680 		beq	.L139
 2527 0270 EEE0     		b	.L129
 2528              	.L143:
 715:lvgl\src\lv_core/lv_indev.c **** 
 2529              		.loc 1 715 0
 2530 0272 002B     		cmp	r3, #0
 2531 0274 40F0A280 		bne	.L139
 715:lvgl\src\lv_core/lv_indev.c **** 
 2532              		.loc 1 715 0 is_stmt 0 discriminator 1
 2533 0278 012F     		cmp	r7, #1
 2534 027a 40F09F80 		bne	.L139
 717:lvgl\src\lv_core/lv_indev.c ****             bool editable = false;
 2535              		.loc 1 717 0 is_stmt 1
 2536 027e 6368     		ldr	r3, [r4, #4]
 2537 0280 0A2B     		cmp	r3, #10
 2538 0282 40F09380 		bne	.L153
 2539              	.LBB11:
 718:lvgl\src\lv_core/lv_indev.c ****             indev_obj_act->signal_cb(indev_obj_act, LV_SIGNAL_GET_EDITABLE, &editable);
 2540              		.loc 1 718 0
 2541 0286 02AA     		add	r2, sp, #8
 2542 0288 0023     		movs	r3, #0
 2543 028a 02F8013D 		strb	r3, [r2, #-1]!
 719:lvgl\src\lv_core/lv_indev.c **** 
 2544              		.loc 1 719 0
 2545 028e C369     		ldr	r3, [r0, #28]
 2546 0290 1921     		movs	r1, #25
 2547 0292 9847     		blx	r3
 2548              	.LVL318:
 722:lvgl\src\lv_core/lv_indev.c ****                 indev_obj_act->signal_cb(indev_obj_act, LV_SIGNAL_RELEASED, NULL);
 2549              		.loc 1 722 0
 2550 0294 9DF80720 		ldrb	r2, [sp, #7]	@ zero_extendqisi2
 2551 0298 002A     		cmp	r2, #0
 2552 029a 37D1     		bne	.L154
 723:lvgl\src\lv_core/lv_indev.c ****                 if(indev_reset_check(&i->proc)) return;
 2553              		.loc 1 723 0
 2554 029c 1A4B     		ldr	r3, .L178
 2555 029e 1868     		ldr	r0, [r3]
 2556 02a0 C369     		ldr	r3, [r0, #28]
 2557 02a2 0E21     		movs	r1, #14
 2558 02a4 9847     		blx	r3
 2559              	.LVL319:
 724:lvgl\src\lv_core/lv_indev.c **** 
 2560              		.loc 1 724 0
 2561 02a6 05F12007 		add	r7, r5, #32
 2562              	.LVL320:
 2563 02aa 3846     		mov	r0, r7
 2564 02ac FFF7FEFF 		bl	indev_reset_check
 2565              	.LVL321:
 2566 02b0 0028     		cmp	r0, #0
 2567 02b2 40F0CD80 		bne	.L129
ARM GAS  C:\Users\strap\AppData\Local\Temp\cc4VwSsz.s 			page 81


 726:lvgl\src\lv_core/lv_indev.c ****                 if(indev_reset_check(&i->proc)) return;
 2568              		.loc 1 726 0
 2569 02b6 95F85430 		ldrb	r3, [r5, #84]	@ zero_extendqisi2
 2570 02ba 13F0010F 		tst	r3, #1
 2571 02be 05D1     		bne	.L156
 726:lvgl\src\lv_core/lv_indev.c ****                 if(indev_reset_check(&i->proc)) return;
 2572              		.loc 1 726 0 is_stmt 0 discriminator 1
 2573 02c0 0022     		movs	r2, #0
 2574 02c2 0321     		movs	r1, #3
 2575 02c4 104B     		ldr	r3, .L178
 2576 02c6 1868     		ldr	r0, [r3]
 2577 02c8 FFF7FEFF 		bl	lv_event_send
 2578              	.LVL322:
 2579              	.L156:
 727:lvgl\src\lv_core/lv_indev.c **** 
 2580              		.loc 1 727 0 is_stmt 1
 2581 02cc 3846     		mov	r0, r7
 2582 02ce FFF7FEFF 		bl	indev_reset_check
 2583              	.LVL323:
 2584 02d2 0028     		cmp	r0, #0
 2585 02d4 40F0BC80 		bne	.L129
 729:lvgl\src\lv_core/lv_indev.c ****                 if(indev_reset_check(&i->proc)) return;
 2586              		.loc 1 729 0
 2587 02d8 0022     		movs	r2, #0
 2588 02da 0621     		movs	r1, #6
 2589 02dc 0A4B     		ldr	r3, .L178
 2590 02de 1868     		ldr	r0, [r3]
 2591 02e0 FFF7FEFF 		bl	lv_event_send
 2592              	.LVL324:
 730:lvgl\src\lv_core/lv_indev.c **** 
 2593              		.loc 1 730 0
 2594 02e4 3846     		mov	r0, r7
 2595 02e6 FFF7FEFF 		bl	indev_reset_check
 2596              	.LVL325:
 2597 02ea 0028     		cmp	r0, #0
 2598 02ec 40F0B080 		bne	.L129
 732:lvgl\src\lv_core/lv_indev.c ****                 if(indev_reset_check(&i->proc)) return;
 2599              		.loc 1 732 0
 2600 02f0 0022     		movs	r2, #0
 2601 02f2 0721     		movs	r1, #7
 2602 02f4 044B     		ldr	r3, .L178
 2603 02f6 1868     		ldr	r0, [r3]
 2604 02f8 FFF7FEFF 		bl	lv_event_send
 2605              	.LVL326:
 733:lvgl\src\lv_core/lv_indev.c ****             }
 2606              		.loc 1 733 0
 2607 02fc 3846     		mov	r0, r7
 2608 02fe FFF7FEFF 		bl	indev_reset_check
 2609              	.LVL327:
 2610 0302 0028     		cmp	r0, #0
 2611 0304 52D0     		beq	.L153
 2612 0306 A3E0     		b	.L129
 2613              	.L179:
 2614              		.align	2
 2615              	.L178:
 2616 0308 00000000 		.word	.LANCHOR0
 2617              	.LVL328:
ARM GAS  C:\Users\strap\AppData\Local\Temp\cc4VwSsz.s 			page 82


 2618              	.L154:
 736:lvgl\src\lv_core/lv_indev.c ****                 /*Ignore long pressed enter release because it comes from mode switch*/
 2619              		.loc 1 736 0
 2620 030c 337E     		ldrb	r3, [r6, #24]	@ zero_extendqisi2
 2621 030e 03F00203 		and	r3, r3, #2
 2622 0312 03F0FF01 		and	r1, r3, #255
 2623 0316 002B     		cmp	r3, #0
 2624 0318 3DD0     		beq	.L158
 738:lvgl\src\lv_core/lv_indev.c ****                     indev_obj_act->signal_cb(indev_obj_act, LV_SIGNAL_RELEASED, NULL);
 2625              		.loc 1 738 0
 2626 031a 95F85430 		ldrb	r3, [r5, #84]	@ zero_extendqisi2
 2627 031e 13F0010F 		tst	r3, #1
 2628 0322 04D0     		beq	.L159
 738:lvgl\src\lv_core/lv_indev.c ****                     indev_obj_act->signal_cb(indev_obj_act, LV_SIGNAL_RELEASED, NULL);
 2629              		.loc 1 738 0 is_stmt 0 discriminator 1
 2630 0324 3046     		mov	r0, r6
 2631 0326 FFF7FEFF 		bl	_lv_ll_is_empty
 2632              	.LVL329:
 2633 032a 0028     		cmp	r0, #0
 2634 032c 3ED0     		beq	.L153
 2635              	.L159:
 739:lvgl\src\lv_core/lv_indev.c ****                     if(indev_reset_check(&i->proc)) return;
 2636              		.loc 1 739 0 is_stmt 1
 2637 032e 4A4B     		ldr	r3, .L180
 2638 0330 1868     		ldr	r0, [r3]
 2639 0332 C369     		ldr	r3, [r0, #28]
 2640 0334 0022     		movs	r2, #0
 2641 0336 0E21     		movs	r1, #14
 2642 0338 9847     		blx	r3
 2643              	.LVL330:
 740:lvgl\src\lv_core/lv_indev.c **** 
 2644              		.loc 1 740 0
 2645 033a 05F12007 		add	r7, r5, #32
 2646              	.LVL331:
 2647 033e 3846     		mov	r0, r7
 2648 0340 FFF7FEFF 		bl	indev_reset_check
 2649              	.LVL332:
 2650 0344 0028     		cmp	r0, #0
 2651 0346 40F08380 		bne	.L129
 742:lvgl\src\lv_core/lv_indev.c ****                     if(indev_reset_check(&i->proc)) return;
 2652              		.loc 1 742 0
 2653 034a 0022     		movs	r2, #0
 2654 034c 0321     		movs	r1, #3
 2655 034e 424B     		ldr	r3, .L180
 2656 0350 1868     		ldr	r0, [r3]
 2657 0352 FFF7FEFF 		bl	lv_event_send
 2658              	.LVL333:
 743:lvgl\src\lv_core/lv_indev.c **** 
 2659              		.loc 1 743 0
 2660 0356 3846     		mov	r0, r7
 2661 0358 FFF7FEFF 		bl	indev_reset_check
 2662              	.LVL334:
 2663 035c 0028     		cmp	r0, #0
 2664 035e 77D1     		bne	.L129
 745:lvgl\src\lv_core/lv_indev.c ****                     if(indev_reset_check(&i->proc)) return;
 2665              		.loc 1 745 0
 2666 0360 0022     		movs	r2, #0
ARM GAS  C:\Users\strap\AppData\Local\Temp\cc4VwSsz.s 			page 83


 2667 0362 0621     		movs	r1, #6
 2668 0364 3C4B     		ldr	r3, .L180
 2669 0366 1868     		ldr	r0, [r3]
 2670 0368 FFF7FEFF 		bl	lv_event_send
 2671              	.LVL335:
 746:lvgl\src\lv_core/lv_indev.c **** 
 2672              		.loc 1 746 0
 2673 036c 3846     		mov	r0, r7
 2674 036e FFF7FEFF 		bl	indev_reset_check
 2675              	.LVL336:
 2676 0372 0028     		cmp	r0, #0
 2677 0374 6CD1     		bne	.L129
 748:lvgl\src\lv_core/lv_indev.c ****                     if(indev_reset_check(&i->proc)) return;
 2678              		.loc 1 748 0
 2679 0376 0022     		movs	r2, #0
 2680 0378 0721     		movs	r1, #7
 2681 037a 374B     		ldr	r3, .L180
 2682 037c 1868     		ldr	r0, [r3]
 2683 037e FFF7FEFF 		bl	lv_event_send
 2684              	.LVL337:
 749:lvgl\src\lv_core/lv_indev.c **** 
 2685              		.loc 1 749 0
 2686 0382 3846     		mov	r0, r7
 2687 0384 FFF7FEFF 		bl	indev_reset_check
 2688              	.LVL338:
 2689 0388 0028     		cmp	r0, #0
 2690 038a 61D1     		bne	.L129
 751:lvgl\src\lv_core/lv_indev.c ****                 }
 2691              		.loc 1 751 0
 2692 038c 0A21     		movs	r1, #10
 2693 038e 3046     		mov	r0, r6
 2694 0390 FFF7FEFF 		bl	lv_group_send_data
 2695              	.LVL339:
 2696 0394 0AE0     		b	.L153
 2697              	.LVL340:
 2698              	.L158:
 756:lvgl\src\lv_core/lv_indev.c ****                 lv_group_set_editing(g, true); /*Set edit mode*/
 2699              		.loc 1 756 0
 2700 0396 4AB1     		cbz	r2, .L153
 756:lvgl\src\lv_core/lv_indev.c ****                 lv_group_set_editing(g, true); /*Set edit mode*/
 2701              		.loc 1 756 0 is_stmt 0 discriminator 1
 2702 0398 41B9     		cbnz	r1, .L153
 756:lvgl\src\lv_core/lv_indev.c ****                 lv_group_set_editing(g, true); /*Set edit mode*/
 2703              		.loc 1 756 0 discriminator 2
 2704 039a 95F85430 		ldrb	r3, [r5, #84]	@ zero_extendqisi2
 2705 039e 13F0010F 		tst	r3, #1
 2706 03a2 03D1     		bne	.L153
 757:lvgl\src\lv_core/lv_indev.c ****             }
 2707              		.loc 1 757 0 is_stmt 1
 2708 03a4 0121     		movs	r1, #1
 2709 03a6 3046     		mov	r0, r6
 2710 03a8 FFF7FEFF 		bl	lv_group_set_editing
 2711              	.LVL341:
 2712              	.L153:
 2713              	.LBE11:
 761:lvgl\src\lv_core/lv_indev.c ****         i->proc.long_pr_sent = 0;
 2714              		.loc 1 761 0
ARM GAS  C:\Users\strap\AppData\Local\Temp\cc4VwSsz.s 			page 84


 2715 03ac 0022     		movs	r2, #0
 2716 03ae EA64     		str	r2, [r5, #76]
 762:lvgl\src\lv_core/lv_indev.c ****     }
 2717              		.loc 1 762 0
 2718 03b0 95F85430 		ldrb	r3, [r5, #84]	@ zero_extendqisi2
 2719 03b4 62F30003 		bfi	r3, r2, #0, #1
 2720 03b8 85F85430 		strb	r3, [r5, #84]
 2721              	.LVL342:
 2722              	.L139:
 764:lvgl\src\lv_core/lv_indev.c **** 
 2723              		.loc 1 764 0
 2724 03bc 0022     		movs	r2, #0
 2725 03be 264B     		ldr	r3, .L180
 2726 03c0 1A60     		str	r2, [r3]
 767:lvgl\src\lv_core/lv_indev.c ****         /*In edit mode send LEFT/RIGHT keys*/
 2727              		.loc 1 767 0
 2728 03c2 B4F90C30 		ldrsh	r3, [r4, #12]
 2729 03c6 002B     		cmp	r3, #0
 2730 03c8 42D0     		beq	.L129
 769:lvgl\src\lv_core/lv_indev.c ****             int32_t s;
 2731              		.loc 1 769 0
 2732 03ca 3046     		mov	r0, r6
 2733 03cc FFF7FEFF 		bl	lv_group_get_editing
 2734              	.LVL343:
 2735 03d0 00B3     		cbz	r0, .L160
 2736              	.LBB12:
 771:lvgl\src\lv_core/lv_indev.c ****                 for(s = 0; s < -data->enc_diff; s++) lv_group_send_data(g, LV_KEY_LEFT);
 2737              		.loc 1 771 0
 2738 03d2 B4F90C30 		ldrsh	r3, [r4, #12]
 2739 03d6 002B     		cmp	r3, #0
 2740 03d8 0DDA     		bge	.L175
 2741 03da 05E0     		b	.L171
 2742              	.LVL344:
 2743              	.L163:
 772:lvgl\src\lv_core/lv_indev.c ****             }
 2744              		.loc 1 772 0 discriminator 3
 2745 03dc 1421     		movs	r1, #20
 2746 03de 3046     		mov	r0, r6
 2747 03e0 FFF7FEFF 		bl	lv_group_send_data
 2748              	.LVL345:
 2749 03e4 0135     		adds	r5, r5, #1
 2750              	.LVL346:
 2751 03e6 00E0     		b	.L161
 2752              	.LVL347:
 2753              	.L171:
 2754 03e8 0025     		movs	r5, #0
 2755              	.L161:
 2756              	.LVL348:
 772:lvgl\src\lv_core/lv_indev.c ****             }
 2757              		.loc 1 772 0 is_stmt 0 discriminator 1
 2758 03ea B4F90C30 		ldrsh	r3, [r4, #12]
 2759 03ee 5B42     		negs	r3, r3
 2760 03f0 9D42     		cmp	r5, r3
 2761 03f2 F3DB     		blt	.L163
 2762 03f4 2CE0     		b	.L129
 2763              	.LVL349:
 2764              	.L175:
ARM GAS  C:\Users\strap\AppData\Local\Temp\cc4VwSsz.s 			page 85


 774:lvgl\src\lv_core/lv_indev.c ****                 for(s = 0; s < data->enc_diff; s++) lv_group_send_data(g, LV_KEY_RIGHT);
 2765              		.loc 1 774 0 is_stmt 1
 2766 03f6 002B     		cmp	r3, #0
 2767 03f8 06DC     		bgt	.L172
 2768 03fa 29E0     		b	.L129
 2769              	.LVL350:
 2770              	.L165:
 775:lvgl\src\lv_core/lv_indev.c ****             }
 2771              		.loc 1 775 0 discriminator 3
 2772 03fc 1321     		movs	r1, #19
 2773 03fe 3046     		mov	r0, r6
 2774 0400 FFF7FEFF 		bl	lv_group_send_data
 2775              	.LVL351:
 2776 0404 0135     		adds	r5, r5, #1
 2777              	.LVL352:
 2778 0406 00E0     		b	.L164
 2779              	.LVL353:
 2780              	.L172:
 2781 0408 0025     		movs	r5, #0
 2782              	.L164:
 2783              	.LVL354:
 775:lvgl\src\lv_core/lv_indev.c ****             }
 2784              		.loc 1 775 0 is_stmt 0 discriminator 1
 2785 040a B4F90C30 		ldrsh	r3, [r4, #12]
 2786 040e 9D42     		cmp	r5, r3
 2787 0410 F4DB     		blt	.L165
 2788 0412 1DE0     		b	.L129
 2789              	.LVL355:
 2790              	.L160:
 2791              	.LBE12:
 2792              	.LBB13:
 781:lvgl\src\lv_core/lv_indev.c ****                 for(s = 0; s < -data->enc_diff; s++) lv_group_focus_prev(g);
 2793              		.loc 1 781 0 is_stmt 1
 2794 0414 B4F90C30 		ldrsh	r3, [r4, #12]
 2795 0418 002B     		cmp	r3, #0
 2796 041a 0CDA     		bge	.L176
 2797 041c 04E0     		b	.L173
 2798              	.LVL356:
 2799              	.L168:
 782:lvgl\src\lv_core/lv_indev.c ****             }
 2800              		.loc 1 782 0 discriminator 3
 2801 041e 3046     		mov	r0, r6
 2802 0420 FFF7FEFF 		bl	lv_group_focus_prev
 2803              	.LVL357:
 2804 0424 0135     		adds	r5, r5, #1
 2805              	.LVL358:
 2806 0426 00E0     		b	.L166
 2807              	.LVL359:
 2808              	.L173:
 2809 0428 0025     		movs	r5, #0
 2810              	.L166:
 2811              	.LVL360:
 782:lvgl\src\lv_core/lv_indev.c ****             }
 2812              		.loc 1 782 0 is_stmt 0 discriminator 1
 2813 042a B4F90C30 		ldrsh	r3, [r4, #12]
 2814 042e 5B42     		negs	r3, r3
 2815 0430 9D42     		cmp	r5, r3
ARM GAS  C:\Users\strap\AppData\Local\Temp\cc4VwSsz.s 			page 86


 2816 0432 F4DB     		blt	.L168
 2817 0434 0CE0     		b	.L129
 2818              	.LVL361:
 2819              	.L176:
 784:lvgl\src\lv_core/lv_indev.c ****                 for(s = 0; s < data->enc_diff; s++) lv_group_focus_next(g);
 2820              		.loc 1 784 0 is_stmt 1
 2821 0436 002B     		cmp	r3, #0
 2822 0438 05DC     		bgt	.L174
 2823 043a 09E0     		b	.L129
 2824              	.LVL362:
 2825              	.L170:
 785:lvgl\src\lv_core/lv_indev.c ****             }
 2826              		.loc 1 785 0 discriminator 3
 2827 043c 3046     		mov	r0, r6
 2828 043e FFF7FEFF 		bl	lv_group_focus_next
 2829              	.LVL363:
 2830 0442 0135     		adds	r5, r5, #1
 2831              	.LVL364:
 2832 0444 00E0     		b	.L169
 2833              	.LVL365:
 2834              	.L174:
 2835 0446 0025     		movs	r5, #0
 2836              	.L169:
 2837              	.LVL366:
 785:lvgl\src\lv_core/lv_indev.c ****             }
 2838              		.loc 1 785 0 is_stmt 0 discriminator 1
 2839 0448 B4F90C30 		ldrsh	r3, [r4, #12]
 2840 044c 9D42     		cmp	r5, r3
 2841 044e F5DB     		blt	.L170
 2842              	.LVL367:
 2843              	.L129:
 2844              	.LBE13:
 794:lvgl\src\lv_core/lv_indev.c **** 
 2845              		.loc 1 794 0 is_stmt 1
 2846 0450 02B0     		add	sp, sp, #8
 2847              		.cfi_def_cfa_offset 24
 2848              		@ sp needed
 2849 0452 BDE8F081 		pop	{r4, r5, r6, r7, r8, pc}
 2850              	.L181:
 2851 0456 00BF     		.align	2
 2852              	.L180:
 2853 0458 00000000 		.word	.LANCHOR0
 2854              		.cfi_endproc
 2855              	.LFE354:
 2856              		.size	indev_encoder_proc, .-indev_encoder_proc
 2857              		.section	.text.lv_indev_get_act,"ax",%progbits
 2858              		.align	2
 2859              		.global	lv_indev_get_act
 2860              		.thumb
 2861              		.thumb_func
 2862              		.type	lv_indev_get_act, %function
 2863              	lv_indev_get_act:
 2864              	.LFB335:
 138:lvgl\src\lv_core/lv_indev.c ****     return indev_act;
 2865              		.loc 1 138 0
 2866              		.cfi_startproc
 2867              		@ args = 0, pretend = 0, frame = 0
ARM GAS  C:\Users\strap\AppData\Local\Temp\cc4VwSsz.s 			page 87


 2868              		@ frame_needed = 0, uses_anonymous_args = 0
 2869              		@ link register save eliminated.
 140:lvgl\src\lv_core/lv_indev.c **** 
 2870              		.loc 1 140 0
 2871 0000 014B     		ldr	r3, .L183
 2872 0002 5868     		ldr	r0, [r3, #4]
 2873 0004 7047     		bx	lr
 2874              	.L184:
 2875 0006 00BF     		.align	2
 2876              	.L183:
 2877 0008 00000000 		.word	.LANCHOR0
 2878              		.cfi_endproc
 2879              	.LFE335:
 2880              		.size	lv_indev_get_act, .-lv_indev_get_act
 2881              		.section	.text.lv_indev_get_type,"ax",%progbits
 2882              		.align	2
 2883              		.global	lv_indev_get_type
 2884              		.thumb
 2885              		.thumb_func
 2886              		.type	lv_indev_get_type, %function
 2887              	lv_indev_get_type:
 2888              	.LFB336:
 148:lvgl\src\lv_core/lv_indev.c ****     if(indev == NULL) return LV_INDEV_TYPE_NONE;
 2889              		.loc 1 148 0
 2890              		.cfi_startproc
 2891              		@ args = 0, pretend = 0, frame = 0
 2892              		@ frame_needed = 0, uses_anonymous_args = 0
 2893              		@ link register save eliminated.
 2894              	.LVL368:
 149:lvgl\src\lv_core/lv_indev.c **** 
 2895              		.loc 1 149 0
 2896 0000 08B1     		cbz	r0, .L187
 151:lvgl\src\lv_core/lv_indev.c **** }
 2897              		.loc 1 151 0
 2898 0002 0078     		ldrb	r0, [r0]	@ zero_extendqisi2
 2899              	.LVL369:
 2900 0004 7047     		bx	lr
 2901              	.LVL370:
 2902              	.L187:
 149:lvgl\src\lv_core/lv_indev.c **** 
 2903              		.loc 1 149 0
 2904 0006 0020     		movs	r0, #0
 2905              	.LVL371:
 152:lvgl\src\lv_core/lv_indev.c **** 
 2906              		.loc 1 152 0
 2907 0008 7047     		bx	lr
 2908              		.cfi_endproc
 2909              	.LFE336:
 2910              		.size	lv_indev_get_type, .-lv_indev_get_type
 2911 000a 00BF     		.section	.text.lv_indev_reset,"ax",%progbits
 2912              		.align	2
 2913              		.global	lv_indev_reset
 2914              		.thumb
 2915              		.thumb_func
 2916              		.type	lv_indev_reset, %function
 2917              	lv_indev_reset:
 2918              	.LFB337:
ARM GAS  C:\Users\strap\AppData\Local\Temp\cc4VwSsz.s 			page 88


 160:lvgl\src\lv_core/lv_indev.c ****     if(indev) {
 2919              		.loc 1 160 0
 2920              		.cfi_startproc
 2921              		@ args = 0, pretend = 0, frame = 0
 2922              		@ frame_needed = 0, uses_anonymous_args = 0
 2923              	.LVL372:
 161:lvgl\src\lv_core/lv_indev.c ****         indev->proc.reset_query = 1;
 2924              		.loc 1 161 0
 2925 0000 A0B1     		cbz	r0, .L189
 2926 0002 0346     		mov	r3, r0
 162:lvgl\src\lv_core/lv_indev.c ****         if(indev_act == indev) indev_obj_act = NULL;
 2927              		.loc 1 162 0
 2928 0004 90F85420 		ldrb	r2, [r0, #84]	@ zero_extendqisi2
 2929 0008 42F00202 		orr	r2, r2, #2
 2930 000c 80F85420 		strb	r2, [r0, #84]
 163:lvgl\src\lv_core/lv_indev.c ****         if(obj == NULL || indev->proc.types.pointer.last_pressed == obj) {
 2931              		.loc 1 163 0
 2932 0010 154A     		ldr	r2, .L200
 2933 0012 5268     		ldr	r2, [r2, #4]
 2934 0014 9042     		cmp	r0, r2
 2935 0016 02D1     		bne	.L190
 163:lvgl\src\lv_core/lv_indev.c ****         if(obj == NULL || indev->proc.types.pointer.last_pressed == obj) {
 2936              		.loc 1 163 0 is_stmt 0 discriminator 1
 2937 0018 0020     		movs	r0, #0
 2938              	.LVL373:
 2939 001a 134A     		ldr	r2, .L200
 2940 001c 1060     		str	r0, [r2]
 2941              	.L190:
 164:lvgl\src\lv_core/lv_indev.c ****             indev->proc.types.pointer.last_pressed = NULL;
 2942              		.loc 1 164 0 is_stmt 1
 2943 001e 11B1     		cbz	r1, .L191
 164:lvgl\src\lv_core/lv_indev.c ****             indev->proc.types.pointer.last_pressed = NULL;
 2944              		.loc 1 164 0 is_stmt 0 discriminator 1
 2945 0020 1A6C     		ldr	r2, [r3, #64]
 2946 0022 9142     		cmp	r1, r2
 2947 0024 01D1     		bne	.L199
 2948              	.L191:
 165:lvgl\src\lv_core/lv_indev.c ****         }
 2949              		.loc 1 165 0 is_stmt 1
 2950 0026 0022     		movs	r2, #0
 2951 0028 1A64     		str	r2, [r3, #64]
 2952              	.L199:
 2953 002a 7047     		bx	lr
 2954              	.LVL374:
 2955              	.L189:
 160:lvgl\src\lv_core/lv_indev.c ****     if(indev) {
 2956              		.loc 1 160 0
 2957 002c 10B5     		push	{r4, lr}
 2958              		.cfi_def_cfa_offset 8
 2959              		.cfi_offset 4, -8
 2960              		.cfi_offset 14, -4
 2961 002e 0C46     		mov	r4, r1
 2962              	.LBB14:
 169:lvgl\src\lv_core/lv_indev.c ****         while(i) {
 2963              		.loc 1 169 0
 2964 0030 0020     		movs	r0, #0
 2965              	.LVL375:
ARM GAS  C:\Users\strap\AppData\Local\Temp\cc4VwSsz.s 			page 89


 2966 0032 FFF7FEFF 		bl	lv_indev_get_next
 2967              	.LVL376:
 170:lvgl\src\lv_core/lv_indev.c ****             i->proc.reset_query = 1;
 2968              		.loc 1 170 0
 2969 0036 14E0     		b	.L193
 2970              	.L197:
 171:lvgl\src\lv_core/lv_indev.c ****             if(indev_act == i) indev_obj_act = NULL;
 2971              		.loc 1 171 0
 2972 0038 90F85430 		ldrb	r3, [r0, #84]	@ zero_extendqisi2
 2973 003c 43F00203 		orr	r3, r3, #2
 2974 0040 80F85430 		strb	r3, [r0, #84]
 172:lvgl\src\lv_core/lv_indev.c ****             if(obj == NULL || i->proc.types.pointer.last_pressed == obj) {
 2975              		.loc 1 172 0
 2976 0044 084B     		ldr	r3, .L200
 2977 0046 5B68     		ldr	r3, [r3, #4]
 2978 0048 9842     		cmp	r0, r3
 2979 004a 02D1     		bne	.L194
 172:lvgl\src\lv_core/lv_indev.c ****             if(obj == NULL || i->proc.types.pointer.last_pressed == obj) {
 2980              		.loc 1 172 0 is_stmt 0 discriminator 1
 2981 004c 0022     		movs	r2, #0
 2982 004e 064B     		ldr	r3, .L200
 2983 0050 1A60     		str	r2, [r3]
 2984              	.L194:
 173:lvgl\src\lv_core/lv_indev.c ****                 i->proc.types.pointer.last_pressed = NULL;
 2985              		.loc 1 173 0 is_stmt 1
 2986 0052 14B1     		cbz	r4, .L195
 173:lvgl\src\lv_core/lv_indev.c ****                 i->proc.types.pointer.last_pressed = NULL;
 2987              		.loc 1 173 0 is_stmt 0 discriminator 1
 2988 0054 036C     		ldr	r3, [r0, #64]
 2989 0056 9C42     		cmp	r4, r3
 2990 0058 01D1     		bne	.L196
 2991              	.L195:
 174:lvgl\src\lv_core/lv_indev.c ****             }
 2992              		.loc 1 174 0 is_stmt 1
 2993 005a 0023     		movs	r3, #0
 2994 005c 0364     		str	r3, [r0, #64]
 2995              	.L196:
 176:lvgl\src\lv_core/lv_indev.c ****         }
 2996              		.loc 1 176 0
 2997 005e FFF7FEFF 		bl	lv_indev_get_next
 2998              	.LVL377:
 2999              	.L193:
 170:lvgl\src\lv_core/lv_indev.c ****             i->proc.reset_query = 1;
 3000              		.loc 1 170 0
 3001 0062 0028     		cmp	r0, #0
 3002 0064 E8D1     		bne	.L197
 3003 0066 10BD     		pop	{r4, pc}
 3004              	.LVL378:
 3005              	.L201:
 3006              		.align	2
 3007              	.L200:
 3008 0068 00000000 		.word	.LANCHOR0
 3009              	.LBE14:
 3010              		.cfi_endproc
 3011              	.LFE337:
 3012              		.size	lv_indev_reset, .-lv_indev_reset
 3013              		.section	.text._lv_indev_init,"ax",%progbits
ARM GAS  C:\Users\strap\AppData\Local\Temp\cc4VwSsz.s 			page 90


 3014              		.align	2
 3015              		.global	_lv_indev_init
 3016              		.thumb
 3017              		.thumb_func
 3018              		.type	_lv_indev_init, %function
 3019              	_lv_indev_init:
 3020              	.LFB333:
  67:lvgl\src\lv_core/lv_indev.c ****     lv_indev_reset(NULL, NULL); /*Reset all input devices*/
 3021              		.loc 1 67 0
 3022              		.cfi_startproc
 3023              		@ args = 0, pretend = 0, frame = 0
 3024              		@ frame_needed = 0, uses_anonymous_args = 0
 3025 0000 08B5     		push	{r3, lr}
 3026              		.cfi_def_cfa_offset 8
 3027              		.cfi_offset 3, -8
 3028              		.cfi_offset 14, -4
  68:lvgl\src\lv_core/lv_indev.c **** }
 3029              		.loc 1 68 0
 3030 0002 0021     		movs	r1, #0
 3031 0004 0846     		mov	r0, r1
 3032 0006 FFF7FEFF 		bl	lv_indev_reset
 3033              	.LVL379:
 3034 000a 08BD     		pop	{r3, pc}
 3035              		.cfi_endproc
 3036              	.LFE333:
 3037              		.size	_lv_indev_init, .-_lv_indev_init
 3038              		.section	.text.lv_indev_reset_long_press,"ax",%progbits
 3039              		.align	2
 3040              		.global	lv_indev_reset_long_press
 3041              		.thumb
 3042              		.thumb_func
 3043              		.type	lv_indev_reset_long_press, %function
 3044              	lv_indev_reset_long_press:
 3045              	.LFB338:
 186:lvgl\src\lv_core/lv_indev.c ****     indev->proc.long_pr_sent         = 0;
 3046              		.loc 1 186 0
 3047              		.cfi_startproc
 3048              		@ args = 0, pretend = 0, frame = 0
 3049              		@ frame_needed = 0, uses_anonymous_args = 0
 3050              	.LVL380:
 3051 0000 10B5     		push	{r4, lr}
 3052              		.cfi_def_cfa_offset 8
 3053              		.cfi_offset 4, -8
 3054              		.cfi_offset 14, -4
 3055 0002 0446     		mov	r4, r0
 187:lvgl\src\lv_core/lv_indev.c ****     indev->proc.longpr_rep_timestamp = lv_tick_get();
 3056              		.loc 1 187 0
 3057 0004 90F85430 		ldrb	r3, [r0, #84]	@ zero_extendqisi2
 3058 0008 6FF30003 		bfc	r3, #0, #1
 3059 000c 80F85430 		strb	r3, [r0, #84]
 188:lvgl\src\lv_core/lv_indev.c ****     indev->proc.pr_timestamp         = lv_tick_get();
 3060              		.loc 1 188 0
 3061 0010 FFF7FEFF 		bl	lv_tick_get
 3062              	.LVL381:
 3063 0014 2065     		str	r0, [r4, #80]
 189:lvgl\src\lv_core/lv_indev.c **** }
 3064              		.loc 1 189 0
ARM GAS  C:\Users\strap\AppData\Local\Temp\cc4VwSsz.s 			page 91


 3065 0016 FFF7FEFF 		bl	lv_tick_get
 3066              	.LVL382:
 3067 001a E064     		str	r0, [r4, #76]
 3068 001c 10BD     		pop	{r4, pc}
 3069              		.cfi_endproc
 3070              	.LFE338:
 3071              		.size	lv_indev_reset_long_press, .-lv_indev_reset_long_press
 3072 001e 00BF     		.section	.text.lv_indev_enable,"ax",%progbits
 3073              		.align	2
 3074              		.global	lv_indev_enable
 3075              		.thumb
 3076              		.thumb_func
 3077              		.type	lv_indev_enable, %function
 3078              	lv_indev_enable:
 3079              	.LFB339:
 198:lvgl\src\lv_core/lv_indev.c ****     if(!indev) return;
 3080              		.loc 1 198 0
 3081              		.cfi_startproc
 3082              		@ args = 0, pretend = 0, frame = 0
 3083              		@ frame_needed = 0, uses_anonymous_args = 0
 3084              		@ link register save eliminated.
 3085              	.LVL383:
 199:lvgl\src\lv_core/lv_indev.c **** 
 3086              		.loc 1 199 0
 3087 0000 0346     		mov	r3, r0
 3088 0002 48B1     		cbz	r0, .L206
 201:lvgl\src\lv_core/lv_indev.c **** }
 3089              		.loc 1 201 0
 3090 0004 09B1     		cbz	r1, .L209
 3091 0006 0021     		movs	r1, #0
 3092              	.LVL384:
 3093 0008 00E0     		b	.L208
 3094              	.LVL385:
 3095              	.L209:
 3096 000a 0121     		movs	r1, #1
 3097              	.LVL386:
 3098              	.L208:
 201:lvgl\src\lv_core/lv_indev.c **** }
 3099              		.loc 1 201 0 is_stmt 0 discriminator 4
 3100 000c 93F85420 		ldrb	r2, [r3, #84]	@ zero_extendqisi2
 3101 0010 61F38202 		bfi	r2, r1, #2, #1
 3102 0014 83F85420 		strb	r2, [r3, #84]
 3103              	.L206:
 3104 0018 7047     		bx	lr
 3105              		.cfi_endproc
 3106              	.LFE339:
 3107              		.size	lv_indev_enable, .-lv_indev_enable
 3108 001a 00BF     		.section	.text.lv_indev_set_cursor,"ax",%progbits
 3109              		.align	2
 3110              		.global	lv_indev_set_cursor
 3111              		.thumb
 3112              		.thumb_func
 3113              		.type	lv_indev_set_cursor, %function
 3114              	lv_indev_set_cursor:
 3115              	.LFB340:
 210:lvgl\src\lv_core/lv_indev.c ****     if(indev->driver.type != LV_INDEV_TYPE_POINTER) return;
 3116              		.loc 1 210 0 is_stmt 1
ARM GAS  C:\Users\strap\AppData\Local\Temp\cc4VwSsz.s 			page 92


 3117              		.cfi_startproc
 3118              		@ args = 0, pretend = 0, frame = 0
 3119              		@ frame_needed = 0, uses_anonymous_args = 0
 3120              	.LVL387:
 3121 0000 38B5     		push	{r3, r4, r5, lr}
 3122              		.cfi_def_cfa_offset 16
 3123              		.cfi_offset 3, -16
 3124              		.cfi_offset 4, -12
 3125              		.cfi_offset 5, -8
 3126              		.cfi_offset 14, -4
 211:lvgl\src\lv_core/lv_indev.c **** 
 3127              		.loc 1 211 0
 3128 0002 0378     		ldrb	r3, [r0]	@ zero_extendqisi2
 3129 0004 012B     		cmp	r3, #1
 3130 0006 14D1     		bne	.L210
 3131 0008 0D46     		mov	r5, r1
 3132 000a 0446     		mov	r4, r0
 213:lvgl\src\lv_core/lv_indev.c ****     lv_obj_set_parent(indev->cursor, lv_disp_get_layer_sys(indev->driver.disp));
 3133              		.loc 1 213 0
 3134 000c A165     		str	r1, [r4, #88]
 214:lvgl\src\lv_core/lv_indev.c ****     lv_obj_set_pos(indev->cursor, indev->proc.types.pointer.act_point.x, indev->proc.types.pointer.
 3135              		.loc 1 214 0
 3136 000e 0069     		ldr	r0, [r0, #16]
 3137              	.LVL388:
 3138 0010 FFF7FEFF 		bl	lv_disp_get_layer_sys
 3139              	.LVL389:
 3140 0014 0146     		mov	r1, r0
 3141 0016 2846     		mov	r0, r5
 3142 0018 FFF7FEFF 		bl	lv_obj_set_parent
 3143              	.LVL390:
 215:lvgl\src\lv_core/lv_indev.c ****     lv_obj_set_click(indev->cursor, false);
 3144              		.loc 1 215 0
 3145 001c B4F92620 		ldrsh	r2, [r4, #38]
 3146 0020 B4F92410 		ldrsh	r1, [r4, #36]
 3147 0024 A06D     		ldr	r0, [r4, #88]
 3148 0026 FFF7FEFF 		bl	lv_obj_set_pos
 3149              	.LVL391:
 216:lvgl\src\lv_core/lv_indev.c **** }
 3150              		.loc 1 216 0
 3151 002a 0021     		movs	r1, #0
 3152 002c A06D     		ldr	r0, [r4, #88]
 3153 002e FFF7FEFF 		bl	lv_obj_set_click
 3154              	.LVL392:
 3155              	.L210:
 3156 0032 38BD     		pop	{r3, r4, r5, pc}
 3157              		.cfi_endproc
 3158              	.LFE340:
 3159              		.size	lv_indev_set_cursor, .-lv_indev_set_cursor
 3160              		.section	.text.lv_indev_set_group,"ax",%progbits
 3161              		.align	2
 3162              		.global	lv_indev_set_group
 3163              		.thumb
 3164              		.thumb_func
 3165              		.type	lv_indev_set_group, %function
 3166              	lv_indev_set_group:
 3167              	.LFB341:
 226:lvgl\src\lv_core/lv_indev.c ****     if(indev->driver.type == LV_INDEV_TYPE_KEYPAD || indev->driver.type == LV_INDEV_TYPE_ENCODER) {
ARM GAS  C:\Users\strap\AppData\Local\Temp\cc4VwSsz.s 			page 93


 3168              		.loc 1 226 0
 3169              		.cfi_startproc
 3170              		@ args = 0, pretend = 0, frame = 0
 3171              		@ frame_needed = 0, uses_anonymous_args = 0
 3172              		@ link register save eliminated.
 3173              	.LVL393:
 227:lvgl\src\lv_core/lv_indev.c ****         indev->group = group;
 3174              		.loc 1 227 0
 3175 0000 0378     		ldrb	r3, [r0]	@ zero_extendqisi2
 3176 0002 022B     		cmp	r3, #2
 3177 0004 01D0     		beq	.L214
 227:lvgl\src\lv_core/lv_indev.c ****         indev->group = group;
 3178              		.loc 1 227 0 is_stmt 0 discriminator 1
 3179 0006 042B     		cmp	r3, #4
 3180 0008 00D1     		bne	.L213
 3181              	.L214:
 228:lvgl\src\lv_core/lv_indev.c ****     }
 3182              		.loc 1 228 0 is_stmt 1
 3183 000a C165     		str	r1, [r0, #92]
 3184              	.L213:
 3185 000c 7047     		bx	lr
 3186              		.cfi_endproc
 3187              	.LFE341:
 3188              		.size	lv_indev_set_group, .-lv_indev_set_group
 3189 000e 00BF     		.section	.text.lv_indev_set_button_points,"ax",%progbits
 3190              		.align	2
 3191              		.global	lv_indev_set_button_points
 3192              		.thumb
 3193              		.thumb_func
 3194              		.type	lv_indev_set_button_points, %function
 3195              	lv_indev_set_button_points:
 3196              	.LFB342:
 240:lvgl\src\lv_core/lv_indev.c ****     if(indev->driver.type == LV_INDEV_TYPE_BUTTON) {
 3197              		.loc 1 240 0
 3198              		.cfi_startproc
 3199              		@ args = 0, pretend = 0, frame = 0
 3200              		@ frame_needed = 0, uses_anonymous_args = 0
 3201              		@ link register save eliminated.
 3202              	.LVL394:
 241:lvgl\src\lv_core/lv_indev.c ****         indev->btn_points = points;
 3203              		.loc 1 241 0
 3204 0000 0378     		ldrb	r3, [r0]	@ zero_extendqisi2
 3205 0002 032B     		cmp	r3, #3
 3206 0004 00D1     		bne	.L216
 242:lvgl\src\lv_core/lv_indev.c ****     }
 3207              		.loc 1 242 0
 3208 0006 0166     		str	r1, [r0, #96]
 3209              	.L216:
 3210 0008 7047     		bx	lr
 3211              		.cfi_endproc
 3212              	.LFE342:
 3213              		.size	lv_indev_set_button_points, .-lv_indev_set_button_points
 3214 000a 00BF     		.section	.text.lv_indev_get_point,"ax",%progbits
 3215              		.align	2
 3216              		.global	lv_indev_get_point
 3217              		.thumb
 3218              		.thumb_func
ARM GAS  C:\Users\strap\AppData\Local\Temp\cc4VwSsz.s 			page 94


 3219              		.type	lv_indev_get_point, %function
 3220              	lv_indev_get_point:
 3221              	.LFB343:
 252:lvgl\src\lv_core/lv_indev.c ****     if(indev == NULL) {
 3222              		.loc 1 252 0
 3223              		.cfi_startproc
 3224              		@ args = 0, pretend = 0, frame = 0
 3225              		@ frame_needed = 0, uses_anonymous_args = 0
 3226              		@ link register save eliminated.
 3227              	.LVL395:
 253:lvgl\src\lv_core/lv_indev.c ****         point->x = 0;
 3228              		.loc 1 253 0
 3229 0000 0346     		mov	r3, r0
 3230 0002 18B9     		cbnz	r0, .L219
 254:lvgl\src\lv_core/lv_indev.c ****         point->y = 0;
 3231              		.loc 1 254 0
 3232 0004 0023     		movs	r3, #0
 3233 0006 0B80     		strh	r3, [r1]	@ movhi
 255:lvgl\src\lv_core/lv_indev.c ****         return;
 3234              		.loc 1 255 0
 3235 0008 4B80     		strh	r3, [r1, #2]	@ movhi
 256:lvgl\src\lv_core/lv_indev.c ****     }
 3236              		.loc 1 256 0
 3237 000a 7047     		bx	lr
 3238              	.L219:
 258:lvgl\src\lv_core/lv_indev.c ****         point->x = -1;
 3239              		.loc 1 258 0
 3240 000c 0278     		ldrb	r2, [r0]	@ zero_extendqisi2
 3241 000e 012A     		cmp	r2, #1
 3242 0010 06D0     		beq	.L221
 258:lvgl\src\lv_core/lv_indev.c ****         point->x = -1;
 3243              		.loc 1 258 0 is_stmt 0 discriminator 1
 3244 0012 032A     		cmp	r2, #3
 3245 0014 04D0     		beq	.L221
 259:lvgl\src\lv_core/lv_indev.c ****         point->y = -1;
 3246              		.loc 1 259 0 is_stmt 1
 3247 0016 4FF6FF73 		movw	r3, #65535
 3248 001a 0B80     		strh	r3, [r1]	@ movhi
 260:lvgl\src\lv_core/lv_indev.c ****     }
 3249              		.loc 1 260 0
 3250 001c 4B80     		strh	r3, [r1, #2]	@ movhi
 3251 001e 7047     		bx	lr
 3252              	.L221:
 263:lvgl\src\lv_core/lv_indev.c ****         point->y = indev->proc.types.pointer.act_point.y;
 3253              		.loc 1 263 0
 3254 0020 B3F92420 		ldrsh	r2, [r3, #36]
 3255 0024 0A80     		strh	r2, [r1]	@ movhi
 264:lvgl\src\lv_core/lv_indev.c ****     }
 3256              		.loc 1 264 0
 3257 0026 B3F92630 		ldrsh	r3, [r3, #38]
 3258 002a 4B80     		strh	r3, [r1, #2]	@ movhi
 3259 002c 7047     		bx	lr
 3260              		.cfi_endproc
 3261              	.LFE343:
 3262              		.size	lv_indev_get_point, .-lv_indev_get_point
 3263 002e 00BF     		.section	.text.lv_indev_get_gesture_dir,"ax",%progbits
 3264              		.align	2
ARM GAS  C:\Users\strap\AppData\Local\Temp\cc4VwSsz.s 			page 95


 3265              		.global	lv_indev_get_gesture_dir
 3266              		.thumb
 3267              		.thumb_func
 3268              		.type	lv_indev_get_gesture_dir, %function
 3269              	lv_indev_get_gesture_dir:
 3270              	.LFB344:
 274:lvgl\src\lv_core/lv_indev.c ****     return indev->proc.types.pointer.gesture_dir;
 3271              		.loc 1 274 0
 3272              		.cfi_startproc
 3273              		@ args = 0, pretend = 0, frame = 0
 3274              		@ frame_needed = 0, uses_anonymous_args = 0
 3275              		@ link register save eliminated.
 3276              	.LVL396:
 276:lvgl\src\lv_core/lv_indev.c **** 
 3277              		.loc 1 276 0
 3278 0000 90F84400 		ldrb	r0, [r0, #68]	@ zero_extendqisi2
 3279              	.LVL397:
 3280 0004 7047     		bx	lr
 3281              		.cfi_endproc
 3282              	.LFE344:
 3283              		.size	lv_indev_get_gesture_dir, .-lv_indev_get_gesture_dir
 3284 0006 00BF     		.section	.text.lv_indev_get_key,"ax",%progbits
 3285              		.align	2
 3286              		.global	lv_indev_get_key
 3287              		.thumb
 3288              		.thumb_func
 3289              		.type	lv_indev_get_key, %function
 3290              	lv_indev_get_key:
 3291              	.LFB345:
 284:lvgl\src\lv_core/lv_indev.c ****     if(indev->driver.type != LV_INDEV_TYPE_KEYPAD)
 3292              		.loc 1 284 0
 3293              		.cfi_startproc
 3294              		@ args = 0, pretend = 0, frame = 0
 3295              		@ frame_needed = 0, uses_anonymous_args = 0
 3296              		@ link register save eliminated.
 3297              	.LVL398:
 285:lvgl\src\lv_core/lv_indev.c ****         return 0;
 3298              		.loc 1 285 0
 3299 0000 0378     		ldrb	r3, [r0]	@ zero_extendqisi2
 3300 0002 022B     		cmp	r3, #2
 3301 0004 01D1     		bne	.L225
 288:lvgl\src\lv_core/lv_indev.c **** }
 3302              		.loc 1 288 0
 3303 0006 806A     		ldr	r0, [r0, #40]
 3304              	.LVL399:
 3305 0008 7047     		bx	lr
 3306              	.LVL400:
 3307              	.L225:
 286:lvgl\src\lv_core/lv_indev.c ****     else
 3308              		.loc 1 286 0
 3309 000a 0020     		movs	r0, #0
 3310              	.LVL401:
 289:lvgl\src\lv_core/lv_indev.c **** 
 3311              		.loc 1 289 0
 3312 000c 7047     		bx	lr
 3313              		.cfi_endproc
 3314              	.LFE345:
ARM GAS  C:\Users\strap\AppData\Local\Temp\cc4VwSsz.s 			page 96


 3315              		.size	lv_indev_get_key, .-lv_indev_get_key
 3316 000e 00BF     		.section	.text.lv_indev_is_dragging,"ax",%progbits
 3317              		.align	2
 3318              		.global	lv_indev_is_dragging
 3319              		.thumb
 3320              		.thumb_func
 3321              		.type	lv_indev_is_dragging, %function
 3322              	lv_indev_is_dragging:
 3323              	.LFB346:
 298:lvgl\src\lv_core/lv_indev.c ****     if(indev == NULL) return false;
 3324              		.loc 1 298 0
 3325              		.cfi_startproc
 3326              		@ args = 0, pretend = 0, frame = 0
 3327              		@ frame_needed = 0, uses_anonymous_args = 0
 3328              		@ link register save eliminated.
 3329              	.LVL402:
 299:lvgl\src\lv_core/lv_indev.c ****     if(indev->driver.type != LV_INDEV_TYPE_POINTER && indev->driver.type != LV_INDEV_TYPE_BUTTON) r
 3330              		.loc 1 299 0
 3331 0000 0246     		mov	r2, r0
 3332 0002 48B1     		cbz	r0, .L229
 300:lvgl\src\lv_core/lv_indev.c ****     return indev->proc.types.pointer.drag_in_prog == 0 ? false : true;
 3333              		.loc 1 300 0
 3334 0004 0378     		ldrb	r3, [r0]	@ zero_extendqisi2
 3335 0006 012B     		cmp	r3, #1
 3336 0008 01D0     		beq	.L228
 300:lvgl\src\lv_core/lv_indev.c ****     return indev->proc.types.pointer.drag_in_prog == 0 ? false : true;
 3337              		.loc 1 300 0 is_stmt 0 discriminator 1
 3338 000a 032B     		cmp	r3, #3
 3339 000c 06D1     		bne	.L230
 3340              	.L228:
 301:lvgl\src\lv_core/lv_indev.c **** }
 3341              		.loc 1 301 0 is_stmt 1
 3342 000e 92F84A00 		ldrb	r0, [r2, #74]	@ zero_extendqisi2
 3343              	.LVL403:
 3344 0012 C0F34000 		ubfx	r0, r0, #1, #1
 3345 0016 7047     		bx	lr
 3346              	.LVL404:
 3347              	.L229:
 299:lvgl\src\lv_core/lv_indev.c ****     if(indev->driver.type != LV_INDEV_TYPE_POINTER && indev->driver.type != LV_INDEV_TYPE_BUTTON) r
 3348              		.loc 1 299 0
 3349 0018 0020     		movs	r0, #0
 3350              	.LVL405:
 3351 001a 7047     		bx	lr
 3352              	.LVL406:
 3353              	.L230:
 300:lvgl\src\lv_core/lv_indev.c ****     return indev->proc.types.pointer.drag_in_prog == 0 ? false : true;
 3354              		.loc 1 300 0
 3355 001c 0020     		movs	r0, #0
 3356              	.LVL407:
 302:lvgl\src\lv_core/lv_indev.c **** 
 3357              		.loc 1 302 0
 3358 001e 7047     		bx	lr
 3359              		.cfi_endproc
 3360              	.LFE346:
 3361              		.size	lv_indev_is_dragging, .-lv_indev_is_dragging
 3362              		.section	.text.lv_indev_get_vect,"ax",%progbits
 3363              		.align	2
ARM GAS  C:\Users\strap\AppData\Local\Temp\cc4VwSsz.s 			page 97


 3364              		.global	lv_indev_get_vect
 3365              		.thumb
 3366              		.thumb_func
 3367              		.type	lv_indev_get_vect, %function
 3368              	lv_indev_get_vect:
 3369              	.LFB347:
 311:lvgl\src\lv_core/lv_indev.c ****     if(indev == NULL) {
 3370              		.loc 1 311 0
 3371              		.cfi_startproc
 3372              		@ args = 0, pretend = 0, frame = 0
 3373              		@ frame_needed = 0, uses_anonymous_args = 0
 3374              		@ link register save eliminated.
 3375              	.LVL408:
 312:lvgl\src\lv_core/lv_indev.c ****         point->x = 0;
 3376              		.loc 1 312 0
 3377 0000 0346     		mov	r3, r0
 3378 0002 18B9     		cbnz	r0, .L232
 313:lvgl\src\lv_core/lv_indev.c ****         point->y = 0;
 3379              		.loc 1 313 0
 3380 0004 0023     		movs	r3, #0
 3381 0006 0B80     		strh	r3, [r1]	@ movhi
 314:lvgl\src\lv_core/lv_indev.c ****         return;
 3382              		.loc 1 314 0
 3383 0008 4B80     		strh	r3, [r1, #2]	@ movhi
 315:lvgl\src\lv_core/lv_indev.c ****     }
 3384              		.loc 1 315 0
 3385 000a 7047     		bx	lr
 3386              	.L232:
 318:lvgl\src\lv_core/lv_indev.c ****         point->x = 0;
 3387              		.loc 1 318 0
 3388 000c 0278     		ldrb	r2, [r0]	@ zero_extendqisi2
 3389 000e 012A     		cmp	r2, #1
 3390 0010 05D0     		beq	.L234
 318:lvgl\src\lv_core/lv_indev.c ****         point->x = 0;
 3391              		.loc 1 318 0 is_stmt 0 discriminator 1
 3392 0012 032A     		cmp	r2, #3
 3393 0014 03D0     		beq	.L234
 319:lvgl\src\lv_core/lv_indev.c ****         point->y = 0;
 3394              		.loc 1 319 0 is_stmt 1
 3395 0016 0023     		movs	r3, #0
 3396 0018 0B80     		strh	r3, [r1]	@ movhi
 320:lvgl\src\lv_core/lv_indev.c ****     }
 3397              		.loc 1 320 0
 3398 001a 4B80     		strh	r3, [r1, #2]	@ movhi
 3399 001c 7047     		bx	lr
 3400              	.L234:
 323:lvgl\src\lv_core/lv_indev.c ****         point->y = indev->proc.types.pointer.vect.y;
 3401              		.loc 1 323 0
 3402 001e B3F92C20 		ldrsh	r2, [r3, #44]
 3403 0022 0A80     		strh	r2, [r1]	@ movhi
 324:lvgl\src\lv_core/lv_indev.c ****     }
 3404              		.loc 1 324 0
 3405 0024 B3F92E30 		ldrsh	r3, [r3, #46]
 3406 0028 4B80     		strh	r3, [r1, #2]	@ movhi
 3407 002a 7047     		bx	lr
 3408              		.cfi_endproc
 3409              	.LFE347:
ARM GAS  C:\Users\strap\AppData\Local\Temp\cc4VwSsz.s 			page 98


 3410              		.size	lv_indev_get_vect, .-lv_indev_get_vect
 3411              		.section	.text.lv_indev_finish_drag,"ax",%progbits
 3412              		.align	2
 3413              		.global	lv_indev_finish_drag
 3414              		.thumb
 3415              		.thumb_func
 3416              		.type	lv_indev_finish_drag, %function
 3417              	lv_indev_finish_drag:
 3418              	.LFB348:
 335:lvgl\src\lv_core/lv_indev.c ****     if(indev == NULL) return LV_RES_OK;
 3419              		.loc 1 335 0
 3420              		.cfi_startproc
 3421              		@ args = 0, pretend = 0, frame = 0
 3422              		@ frame_needed = 0, uses_anonymous_args = 0
 3423              	.LVL409:
 3424 0000 38B5     		push	{r3, r4, r5, lr}
 3425              		.cfi_def_cfa_offset 16
 3426              		.cfi_offset 3, -16
 3427              		.cfi_offset 4, -12
 3428              		.cfi_offset 5, -8
 3429              		.cfi_offset 14, -4
 336:lvgl\src\lv_core/lv_indev.c ****     if(indev->driver.type != LV_INDEV_TYPE_POINTER) return LV_RES_OK;
 3430              		.loc 1 336 0
 3431 0002 10B3     		cbz	r0, .L237
 337:lvgl\src\lv_core/lv_indev.c ****     if(indev->proc.types.pointer.drag_in_prog == 0) return LV_RES_OK;
 3432              		.loc 1 337 0
 3433 0004 0478     		ldrb	r4, [r0]	@ zero_extendqisi2
 3434 0006 012C     		cmp	r4, #1
 3435 0008 21D1     		bne	.L238
 338:lvgl\src\lv_core/lv_indev.c **** 
 3436              		.loc 1 338 0
 3437 000a 90F84A20 		ldrb	r2, [r0, #74]	@ zero_extendqisi2
 3438 000e 12F0020F 		tst	r2, #2
 3439 0012 1FD0     		beq	.L236
 340:lvgl\src\lv_core/lv_indev.c ****     indev->proc.types.pointer.drag_throw_vect.x = 0;
 3440              		.loc 1 340 0
 3441 0014 90F84A20 		ldrb	r2, [r0, #74]	@ zero_extendqisi2
 3442 0018 6FF34102 		bfc	r2, #1, #1
 3443 001c 80F84A20 		strb	r2, [r0, #74]
 341:lvgl\src\lv_core/lv_indev.c ****     indev->proc.types.pointer.drag_throw_vect.y = 0;
 3444              		.loc 1 341 0
 3445 0020 0022     		movs	r2, #0
 3446 0022 8286     		strh	r2, [r0, #52]	@ movhi
 342:lvgl\src\lv_core/lv_indev.c **** 
 3447              		.loc 1 342 0
 3448 0024 C286     		strh	r2, [r0, #54]	@ movhi
 345:lvgl\src\lv_core/lv_indev.c ****     if(drag_obj == NULL) return LV_RES_OK;
 3449              		.loc 1 345 0
 3450 0026 806B     		ldr	r0, [r0, #56]
 3451              	.LVL410:
 3452 0028 FFF7FEFF 		bl	get_dragged_obj
 3453              	.LVL411:
 346:lvgl\src\lv_core/lv_indev.c **** 
 3454              		.loc 1 346 0
 3455 002c 0546     		mov	r5, r0
 3456 002e 88B1     		cbz	r0, .L236
 349:lvgl\src\lv_core/lv_indev.c ****     if(res != LV_RES_OK) return res;
ARM GAS  C:\Users\strap\AppData\Local\Temp\cc4VwSsz.s 			page 99


 3457              		.loc 1 349 0
 3458 0030 C369     		ldr	r3, [r0, #28]
 3459 0032 0022     		movs	r2, #0
 3460 0034 1321     		movs	r1, #19
 3461 0036 9847     		blx	r3
 3462              	.LVL412:
 350:lvgl\src\lv_core/lv_indev.c **** 
 3463              		.loc 1 350 0
 3464 0038 0128     		cmp	r0, #1
 3465 003a 0AD1     		bne	.L239
 352:lvgl\src\lv_core/lv_indev.c ****     if(res != LV_RES_OK) return res;
 3466              		.loc 1 352 0
 3467 003c 0022     		movs	r2, #0
 3468 003e 0921     		movs	r1, #9
 3469 0040 2846     		mov	r0, r5
 3470              	.LVL413:
 3471 0042 FFF7FEFF 		bl	lv_event_send
 3472              	.LVL414:
 353:lvgl\src\lv_core/lv_indev.c **** 
 3473              		.loc 1 353 0
 3474 0046 0446     		mov	r4, r0
 3475 0048 04E0     		b	.L236
 3476              	.LVL415:
 3477              	.L237:
 336:lvgl\src\lv_core/lv_indev.c ****     if(indev->driver.type != LV_INDEV_TYPE_POINTER) return LV_RES_OK;
 3478              		.loc 1 336 0
 3479 004a 0124     		movs	r4, #1
 3480 004c 02E0     		b	.L236
 3481              	.L238:
 337:lvgl\src\lv_core/lv_indev.c ****     if(indev->proc.types.pointer.drag_in_prog == 0) return LV_RES_OK;
 3482              		.loc 1 337 0
 3483 004e 0124     		movs	r4, #1
 3484 0050 00E0     		b	.L236
 3485              	.LVL416:
 3486              	.L239:
 350:lvgl\src\lv_core/lv_indev.c **** 
 3487              		.loc 1 350 0
 3488 0052 0446     		mov	r4, r0
 3489              	.LVL417:
 3490              	.L236:
 356:lvgl\src\lv_core/lv_indev.c **** 
 3491              		.loc 1 356 0
 3492 0054 2046     		mov	r0, r4
 3493 0056 38BD     		pop	{r3, r4, r5, pc}
 3494              		.cfi_endproc
 3495              	.LFE348:
 3496              		.size	lv_indev_finish_drag, .-lv_indev_finish_drag
 3497              		.section	.text.lv_indev_wait_release,"ax",%progbits
 3498              		.align	2
 3499              		.global	lv_indev_wait_release
 3500              		.thumb
 3501              		.thumb_func
 3502              		.type	lv_indev_wait_release, %function
 3503              	lv_indev_wait_release:
 3504              	.LFB349:
 363:lvgl\src\lv_core/lv_indev.c ****     if(indev == NULL)return;
 3505              		.loc 1 363 0
ARM GAS  C:\Users\strap\AppData\Local\Temp\cc4VwSsz.s 			page 100


 3506              		.cfi_startproc
 3507              		@ args = 0, pretend = 0, frame = 0
 3508              		@ frame_needed = 0, uses_anonymous_args = 0
 3509              		@ link register save eliminated.
 3510              	.LVL418:
 364:lvgl\src\lv_core/lv_indev.c ****     indev->proc.wait_until_release = 1;
 3511              		.loc 1 364 0
 3512 0000 28B1     		cbz	r0, .L241
 365:lvgl\src\lv_core/lv_indev.c **** }
 3513              		.loc 1 365 0
 3514 0002 90F85430 		ldrb	r3, [r0, #84]	@ zero_extendqisi2
 3515 0006 43F00803 		orr	r3, r3, #8
 3516 000a 80F85430 		strb	r3, [r0, #84]
 3517              	.L241:
 3518 000e 7047     		bx	lr
 3519              		.cfi_endproc
 3520              	.LFE349:
 3521              		.size	lv_indev_wait_release, .-lv_indev_wait_release
 3522              		.section	.text.lv_indev_get_obj_act,"ax",%progbits
 3523              		.align	2
 3524              		.global	lv_indev_get_obj_act
 3525              		.thumb
 3526              		.thumb_func
 3527              		.type	lv_indev_get_obj_act, %function
 3528              	lv_indev_get_obj_act:
 3529              	.LFB350:
 373:lvgl\src\lv_core/lv_indev.c ****     return indev_obj_act;
 3530              		.loc 1 373 0
 3531              		.cfi_startproc
 3532              		@ args = 0, pretend = 0, frame = 0
 3533              		@ frame_needed = 0, uses_anonymous_args = 0
 3534              		@ link register save eliminated.
 375:lvgl\src\lv_core/lv_indev.c **** 
 3535              		.loc 1 375 0
 3536 0000 014B     		ldr	r3, .L244
 3537 0002 1868     		ldr	r0, [r3]
 3538 0004 7047     		bx	lr
 3539              	.L245:
 3540 0006 00BF     		.align	2
 3541              	.L244:
 3542 0008 00000000 		.word	.LANCHOR0
 3543              		.cfi_endproc
 3544              	.LFE350:
 3545              		.size	lv_indev_get_obj_act, .-lv_indev_get_obj_act
 3546              		.section	.text.lv_indev_get_read_task,"ax",%progbits
 3547              		.align	2
 3548              		.global	lv_indev_get_read_task
 3549              		.thumb
 3550              		.thumb_func
 3551              		.type	lv_indev_get_read_task, %function
 3552              	lv_indev_get_read_task:
 3553              	.LFB351:
 384:lvgl\src\lv_core/lv_indev.c ****     if(!indev) {
 3554              		.loc 1 384 0
 3555              		.cfi_startproc
 3556              		@ args = 0, pretend = 0, frame = 0
 3557              		@ frame_needed = 0, uses_anonymous_args = 0
ARM GAS  C:\Users\strap\AppData\Local\Temp\cc4VwSsz.s 			page 101


 3558              		@ link register save eliminated.
 3559              	.LVL419:
 385:lvgl\src\lv_core/lv_indev.c ****         LV_LOG_WARN("lv_indev_get_read_task: indev was NULL");
 3560              		.loc 1 385 0
 3561 0000 08B1     		cbz	r0, .L248
 390:lvgl\src\lv_core/lv_indev.c **** }
 3562              		.loc 1 390 0
 3563 0002 006B     		ldr	r0, [r0, #48]
 3564              	.LVL420:
 3565 0004 7047     		bx	lr
 3566              	.LVL421:
 3567              	.L248:
 387:lvgl\src\lv_core/lv_indev.c ****     }
 3568              		.loc 1 387 0
 3569 0006 0020     		movs	r0, #0
 3570              	.LVL422:
 391:lvgl\src\lv_core/lv_indev.c **** 
 3571              		.loc 1 391 0
 3572 0008 7047     		bx	lr
 3573              		.cfi_endproc
 3574              	.LFE351:
 3575              		.size	lv_indev_get_read_task, .-lv_indev_get_read_task
 3576 000a 00BF     		.section	.text.lv_indev_search_obj,"ax",%progbits
 3577              		.align	2
 3578              		.global	lv_indev_search_obj
 3579              		.thumb
 3580              		.thumb_func
 3581              		.type	lv_indev_search_obj, %function
 3582              	lv_indev_search_obj:
 3583              	.LFB359:
1122:lvgl\src\lv_core/lv_indev.c ****     lv_obj_t * found_p = NULL;
 3584              		.loc 1 1122 0
 3585              		.cfi_startproc
 3586              		@ args = 0, pretend = 0, frame = 0
 3587              		@ frame_needed = 0, uses_anonymous_args = 0
 3588              	.LVL423:
 3589 0000 2DE9F041 		push	{r4, r5, r6, r7, r8, lr}
 3590              		.cfi_def_cfa_offset 24
 3591              		.cfi_offset 4, -24
 3592              		.cfi_offset 5, -20
 3593              		.cfi_offset 6, -16
 3594              		.cfi_offset 7, -12
 3595              		.cfi_offset 8, -8
 3596              		.cfi_offset 14, -4
 3597 0004 8046     		mov	r8, r0
 3598 0006 0F46     		mov	r7, r1
 3599              	.LVL424:
1126:lvgl\src\lv_core/lv_indev.c ****         lv_obj_t * i;
 3600              		.loc 1 1126 0
 3601 0008 FFF7FEFF 		bl	lv_obj_hittest
 3602              	.LVL425:
 3603 000c 40B3     		cbz	r0, .L257
 3604              	.LBB15:
1129:lvgl\src\lv_core/lv_indev.c ****             found_p = lv_indev_search_obj(i, point);
 3605              		.loc 1 1129 0
 3606 000e 08F10406 		add	r6, r8, #4
 3607 0012 3046     		mov	r0, r6
ARM GAS  C:\Users\strap\AppData\Local\Temp\cc4VwSsz.s 			page 102


 3608 0014 FFF7FEFF 		bl	_lv_ll_get_head
 3609              	.LVL426:
 3610 0018 0446     		mov	r4, r0
 3611              	.LVL427:
 3612              	.LBE15:
1123:lvgl\src\lv_core/lv_indev.c **** 
 3613              		.loc 1 1123 0
 3614 001a 0025     		movs	r5, #0
 3615              	.LBB19:
1129:lvgl\src\lv_core/lv_indev.c ****             found_p = lv_indev_search_obj(i, point);
 3616              		.loc 1 1129 0
 3617 001c 0AE0     		b	.L251
 3618              	.LVL428:
 3619              	.L253:
1130:lvgl\src\lv_core/lv_indev.c **** 
 3620              		.loc 1 1130 0
 3621 001e 3946     		mov	r1, r7
 3622 0020 2046     		mov	r0, r4
 3623              	.LVL429:
 3624 0022 FFF7FEFF 		bl	lv_indev_search_obj
 3625              	.LVL430:
1133:lvgl\src\lv_core/lv_indev.c ****                 break;
 3626              		.loc 1 1133 0
 3627 0026 0546     		mov	r5, r0
 3628 0028 30B9     		cbnz	r0, .L252
1129:lvgl\src\lv_core/lv_indev.c ****             found_p = lv_indev_search_obj(i, point);
 3629              		.loc 1 1129 0 discriminator 2
 3630 002a 2146     		mov	r1, r4
 3631 002c 3046     		mov	r0, r6
 3632              	.LVL431:
 3633 002e FFF7FEFF 		bl	_lv_ll_get_next
 3634              	.LVL432:
 3635 0032 0446     		mov	r4, r0
 3636              	.LVL433:
 3637              	.L251:
1129:lvgl\src\lv_core/lv_indev.c ****             found_p = lv_indev_search_obj(i, point);
 3638              		.loc 1 1129 0 is_stmt 0 discriminator 1
 3639 0034 002C     		cmp	r4, #0
 3640 0036 F2D1     		bne	.L253
 3641              	.LVL434:
 3642              	.L252:
1140:lvgl\src\lv_core/lv_indev.c ****             lv_obj_t * hidden_i = obj;
 3643              		.loc 1 1140 0 is_stmt 1
 3644 0038 ADB9     		cbnz	r5, .L250
1140:lvgl\src\lv_core/lv_indev.c ****             lv_obj_t * hidden_i = obj;
 3645              		.loc 1 1140 0 is_stmt 0 discriminator 1
 3646 003a 4046     		mov	r0, r8
 3647 003c FFF7FEFF 		bl	lv_obj_get_click
 3648              	.LVL435:
 3649 0040 48B9     		cbnz	r0, .L258
 3650              	.LBB16:
 3651 0042 10E0     		b	.L250
 3652              	.LVL436:
 3653              	.L256:
1143:lvgl\src\lv_core/lv_indev.c ****                 hidden_i = lv_obj_get_parent(hidden_i);
 3654              		.loc 1 1143 0 is_stmt 1
 3655 0044 2046     		mov	r0, r4
ARM GAS  C:\Users\strap\AppData\Local\Temp\cc4VwSsz.s 			page 103


 3656 0046 FFF7FEFF 		bl	lv_obj_get_hidden
 3657              	.LVL437:
 3658 004a 38B9     		cbnz	r0, .L255
1144:lvgl\src\lv_core/lv_indev.c ****             }
 3659              		.loc 1 1144 0
 3660 004c 2046     		mov	r0, r4
 3661 004e FFF7FEFF 		bl	lv_obj_get_parent
 3662              	.LVL438:
 3663 0052 0446     		mov	r4, r0
 3664              	.LVL439:
 3665 0054 00E0     		b	.L254
 3666              	.LVL440:
 3667              	.L258:
 3668              	.LBE16:
 3669 0056 4446     		mov	r4, r8
 3670              	.LVL441:
 3671              	.L254:
 3672              	.LBB17:
1142:lvgl\src\lv_core/lv_indev.c ****                 if(lv_obj_get_hidden(hidden_i) == true) break;
 3673              		.loc 1 1142 0
 3674 0058 002C     		cmp	r4, #0
 3675 005a F3D1     		bne	.L256
 3676              	.L255:
1147:lvgl\src\lv_core/lv_indev.c ****         }
 3677              		.loc 1 1147 0
 3678 005c 1CB9     		cbnz	r4, .L250
 3679 005e 01E0     		b	.L259
 3680              	.LVL442:
 3681              	.L257:
 3682              	.LBE17:
 3683              	.LBE19:
1123:lvgl\src\lv_core/lv_indev.c **** 
 3684              		.loc 1 1123 0
 3685 0060 0025     		movs	r5, #0
 3686 0062 00E0     		b	.L250
 3687              	.LVL443:
 3688              	.L259:
 3689              	.LBB20:
 3690              	.LBB18:
1147:lvgl\src\lv_core/lv_indev.c ****         }
 3691              		.loc 1 1147 0
 3692 0064 4546     		mov	r5, r8
 3693              	.LVL444:
 3694              	.L250:
 3695              	.LBE18:
 3696              	.LBE20:
1152:lvgl\src\lv_core/lv_indev.c **** 
 3697              		.loc 1 1152 0
 3698 0066 2846     		mov	r0, r5
 3699 0068 BDE8F081 		pop	{r4, r5, r6, r7, r8, pc}
 3700              		.cfi_endproc
 3701              	.LFE359:
 3702              		.size	lv_indev_search_obj, .-lv_indev_search_obj
 3703              		.section	.text.indev_proc_press,"ax",%progbits
 3704              		.align	2
 3705              		.thumb
 3706              		.thumb_func
ARM GAS  C:\Users\strap\AppData\Local\Temp\cc4VwSsz.s 			page 104


 3707              		.type	indev_proc_press, %function
 3708              	indev_proc_press:
 3709              	.LFB356:
 833:lvgl\src\lv_core/lv_indev.c ****     indev_obj_act = proc->types.pointer.act_obj;
 3710              		.loc 1 833 0
 3711              		.cfi_startproc
 3712              		@ args = 0, pretend = 0, frame = 0
 3713              		@ frame_needed = 0, uses_anonymous_args = 0
 3714              	.LVL445:
 834:lvgl\src\lv_core/lv_indev.c **** 
 3715              		.loc 1 834 0
 3716 0000 8369     		ldr	r3, [r0, #24]
 3717 0002 8D4A     		ldr	r2, .L287
 3718 0004 1360     		str	r3, [r2]
 836:lvgl\src\lv_core/lv_indev.c **** 
 3719              		.loc 1 836 0
 3720 0006 90F83420 		ldrb	r2, [r0, #52]	@ zero_extendqisi2
 3721 000a 12F0080F 		tst	r2, #8
 3722 000e 40F0A481 		bne	.L286
 833:lvgl\src\lv_core/lv_indev.c ****     indev_obj_act = proc->types.pointer.act_obj;
 3723              		.loc 1 833 0
 3724 0012 70B5     		push	{r4, r5, r6, lr}
 3725              		.cfi_def_cfa_offset 16
 3726              		.cfi_offset 4, -16
 3727              		.cfi_offset 5, -12
 3728              		.cfi_offset 6, -8
 3729              		.cfi_offset 14, -4
 3730 0014 0446     		mov	r4, r0
 838:lvgl\src\lv_core/lv_indev.c ****     bool new_obj_searched = false;
 3731              		.loc 1 838 0
 3732 0016 884A     		ldr	r2, .L287
 3733 0018 5268     		ldr	r2, [r2, #4]
 3734 001a 1569     		ldr	r5, [r2, #16]
 3735              	.LVL446:
 842:lvgl\src\lv_core/lv_indev.c ****         indev_obj_act = lv_indev_search_obj(lv_disp_get_layer_sys(disp), &proc->types.pointer.act_p
 3736              		.loc 1 842 0
 3737 001c F3B9     		cbnz	r3, .L263
 843:lvgl\src\lv_core/lv_indev.c ****         if(indev_obj_act == NULL) indev_obj_act = lv_indev_search_obj(lv_disp_get_layer_top(disp),
 3738              		.loc 1 843 0
 3739 001e 2846     		mov	r0, r5
 3740              	.LVL447:
 3741 0020 FFF7FEFF 		bl	lv_disp_get_layer_sys
 3742              	.LVL448:
 3743 0024 261D     		adds	r6, r4, #4
 3744 0026 3146     		mov	r1, r6
 3745 0028 FFF7FEFF 		bl	lv_indev_search_obj
 3746              	.LVL449:
 3747 002c 824B     		ldr	r3, .L287
 3748 002e 1860     		str	r0, [r3]
 844:lvgl\src\lv_core/lv_indev.c ****                                                                           &proc->types.pointer.act_
 3749              		.loc 1 844 0
 3750 0030 38B9     		cbnz	r0, .L264
 844:lvgl\src\lv_core/lv_indev.c ****                                                                           &proc->types.pointer.act_
 3751              		.loc 1 844 0 is_stmt 0 discriminator 1
 3752 0032 2846     		mov	r0, r5
 3753 0034 FFF7FEFF 		bl	lv_disp_get_layer_top
 3754              	.LVL450:
ARM GAS  C:\Users\strap\AppData\Local\Temp\cc4VwSsz.s 			page 105


 3755 0038 3146     		mov	r1, r6
 3756 003a FFF7FEFF 		bl	lv_indev_search_obj
 3757              	.LVL451:
 3758 003e 7E4B     		ldr	r3, .L287
 3759 0040 1860     		str	r0, [r3]
 3760              	.L264:
 846:lvgl\src\lv_core/lv_indev.c ****                                                                           &proc->types.pointer.act_
 3761              		.loc 1 846 0 is_stmt 1
 3762 0042 7D4B     		ldr	r3, .L287
 3763 0044 1B68     		ldr	r3, [r3]
 3764 0046 93BB     		cbnz	r3, .L280
 846:lvgl\src\lv_core/lv_indev.c ****                                                                           &proc->types.pointer.act_
 3765              		.loc 1 846 0 is_stmt 0 discriminator 1
 3766 0048 2846     		mov	r0, r5
 3767 004a FFF7FEFF 		bl	lv_disp_get_scr_act
 3768              	.LVL452:
 3769 004e 3146     		mov	r1, r6
 3770 0050 FFF7FEFF 		bl	lv_indev_search_obj
 3771              	.LVL453:
 3772 0054 784B     		ldr	r3, .L287
 3773 0056 1860     		str	r0, [r3]
 848:lvgl\src\lv_core/lv_indev.c ****     }
 3774              		.loc 1 848 0 is_stmt 1 discriminator 1
 3775 0058 0123     		movs	r3, #1
 3776 005a 2FE0     		b	.L265
 3777              	.LVL454:
 3778              	.L263:
 851:lvgl\src\lv_core/lv_indev.c ****             lv_obj_is_protected(indev_obj_act, LV_PROTECT_PRESS_LOST) == false) {
 3779              		.loc 1 851 0
 3780 005c 90F82A20 		ldrb	r2, [r0, #42]	@ zero_extendqisi2
 3781 0060 12F0020F 		tst	r2, #2
 3782 0064 25D1     		bne	.L281
 852:lvgl\src\lv_core/lv_indev.c ****         indev_obj_act = lv_indev_search_obj(lv_disp_get_layer_sys(disp), &proc->types.pointer.act_p
 3783              		.loc 1 852 0 discriminator 1
 3784 0066 1021     		movs	r1, #16
 3785 0068 1846     		mov	r0, r3
 3786              	.LVL455:
 3787 006a FFF7FEFF 		bl	lv_obj_is_protected
 3788              	.LVL456:
 851:lvgl\src\lv_core/lv_indev.c ****             lv_obj_is_protected(indev_obj_act, LV_PROTECT_PRESS_LOST) == false) {
 3789              		.loc 1 851 0 discriminator 1
 3790 006e 10BB     		cbnz	r0, .L282
 853:lvgl\src\lv_core/lv_indev.c ****         if(indev_obj_act == NULL) indev_obj_act = lv_indev_search_obj(lv_disp_get_layer_top(disp),
 3791              		.loc 1 853 0
 3792 0070 2846     		mov	r0, r5
 3793 0072 FFF7FEFF 		bl	lv_disp_get_layer_sys
 3794              	.LVL457:
 3795 0076 261D     		adds	r6, r4, #4
 3796 0078 3146     		mov	r1, r6
 3797 007a FFF7FEFF 		bl	lv_indev_search_obj
 3798              	.LVL458:
 3799 007e 6E4B     		ldr	r3, .L287
 3800 0080 1860     		str	r0, [r3]
 854:lvgl\src\lv_core/lv_indev.c ****                                                                           &proc->types.pointer.act_
 3801              		.loc 1 854 0
 3802 0082 38B9     		cbnz	r0, .L266
 854:lvgl\src\lv_core/lv_indev.c ****                                                                           &proc->types.pointer.act_
ARM GAS  C:\Users\strap\AppData\Local\Temp\cc4VwSsz.s 			page 106


 3803              		.loc 1 854 0 is_stmt 0 discriminator 1
 3804 0084 2846     		mov	r0, r5
 3805 0086 FFF7FEFF 		bl	lv_disp_get_layer_top
 3806              	.LVL459:
 3807 008a 3146     		mov	r1, r6
 3808 008c FFF7FEFF 		bl	lv_indev_search_obj
 3809              	.LVL460:
 3810 0090 694B     		ldr	r3, .L287
 3811 0092 1860     		str	r0, [r3]
 3812              	.L266:
 856:lvgl\src\lv_core/lv_indev.c ****                                                                           &proc->types.pointer.act_
 3813              		.loc 1 856 0 is_stmt 1
 3814 0094 684B     		ldr	r3, .L287
 3815 0096 1B68     		ldr	r3, [r3]
 3816 0098 7BB9     		cbnz	r3, .L283
 856:lvgl\src\lv_core/lv_indev.c ****                                                                           &proc->types.pointer.act_
 3817              		.loc 1 856 0 is_stmt 0 discriminator 1
 3818 009a 2846     		mov	r0, r5
 3819 009c FFF7FEFF 		bl	lv_disp_get_scr_act
 3820              	.LVL461:
 3821 00a0 3146     		mov	r1, r6
 3822 00a2 FFF7FEFF 		bl	lv_indev_search_obj
 3823              	.LVL462:
 3824 00a6 644B     		ldr	r3, .L287
 3825 00a8 1860     		str	r0, [r3]
 858:lvgl\src\lv_core/lv_indev.c ****     }
 3826              		.loc 1 858 0 is_stmt 1 discriminator 1
 3827 00aa 0123     		movs	r3, #1
 3828 00ac 06E0     		b	.L265
 3829              	.L280:
 848:lvgl\src\lv_core/lv_indev.c ****     }
 3830              		.loc 1 848 0
 3831 00ae 0123     		movs	r3, #1
 3832 00b0 04E0     		b	.L265
 3833              	.LVL463:
 3834              	.L281:
 839:lvgl\src\lv_core/lv_indev.c **** 
 3835              		.loc 1 839 0
 3836 00b2 0023     		movs	r3, #0
 3837 00b4 02E0     		b	.L265
 3838              	.LVL464:
 3839              	.L282:
 3840 00b6 0023     		movs	r3, #0
 3841 00b8 00E0     		b	.L265
 3842              	.L283:
 858:lvgl\src\lv_core/lv_indev.c ****     }
 3843              		.loc 1 858 0
 3844 00ba 0123     		movs	r3, #1
 3845              	.L265:
 3846              	.LVL465:
 865:lvgl\src\lv_core/lv_indev.c ****         proc->types.pointer.drag_throw_vect.x = 0;
 3847              		.loc 1 865 0
 3848 00bc 3BB1     		cbz	r3, .L267
 865:lvgl\src\lv_core/lv_indev.c ****         proc->types.pointer.drag_throw_vect.x = 0;
 3849              		.loc 1 865 0 is_stmt 0 discriminator 1
 3850 00be E369     		ldr	r3, [r4, #28]
 3851              	.LVL466:
ARM GAS  C:\Users\strap\AppData\Local\Temp\cc4VwSsz.s 			page 107


 3852 00c0 2BB1     		cbz	r3, .L267
 866:lvgl\src\lv_core/lv_indev.c ****         proc->types.pointer.drag_throw_vect.y = 0;
 3853              		.loc 1 866 0 is_stmt 1
 3854 00c2 0023     		movs	r3, #0
 3855 00c4 A382     		strh	r3, [r4, #20]	@ movhi
 867:lvgl\src\lv_core/lv_indev.c ****         indev_drag_throw(proc);
 3856              		.loc 1 867 0
 3857 00c6 E382     		strh	r3, [r4, #22]	@ movhi
 868:lvgl\src\lv_core/lv_indev.c ****     }
 3858              		.loc 1 868 0
 3859 00c8 2046     		mov	r0, r4
 3860 00ca FFF7FEFF 		bl	indev_drag_throw
 3861              	.LVL467:
 3862              	.L267:
 872:lvgl\src\lv_core/lv_indev.c ****         indev_obj_act = proc->types.pointer.act_obj;
 3863              		.loc 1 872 0
 3864 00ce 5A4B     		ldr	r3, .L287
 3865 00d0 1868     		ldr	r0, [r3]
 3866 00d2 40B1     		cbz	r0, .L268
 872:lvgl\src\lv_core/lv_indev.c ****         indev_obj_act = proc->types.pointer.act_obj;
 3867              		.loc 1 872 0 is_stmt 0 discriminator 1
 3868 00d4 0021     		movs	r1, #0
 3869 00d6 FFF7FEFF 		bl	lv_obj_get_state
 3870              	.LVL468:
 3871 00da 10F0200F 		tst	r0, #32
 3872 00de 02D0     		beq	.L268
 873:lvgl\src\lv_core/lv_indev.c ****     }
 3873              		.loc 1 873 0 is_stmt 1
 3874 00e0 A269     		ldr	r2, [r4, #24]
 3875 00e2 554B     		ldr	r3, .L287
 3876 00e4 1A60     		str	r2, [r3]
 3877              	.L268:
 877:lvgl\src\lv_core/lv_indev.c ****         proc->types.pointer.last_point.x = proc->types.pointer.act_point.x;
 3878              		.loc 1 877 0
 3879 00e6 A569     		ldr	r5, [r4, #24]
 3880              	.LVL469:
 3881 00e8 534B     		ldr	r3, .L287
 3882 00ea 1B68     		ldr	r3, [r3]
 3883 00ec 9D42     		cmp	r5, r3
 3884 00ee 79D0     		beq	.L269
 878:lvgl\src\lv_core/lv_indev.c ****         proc->types.pointer.last_point.y = proc->types.pointer.act_point.y;
 3885              		.loc 1 878 0
 3886 00f0 B4F90430 		ldrsh	r3, [r4, #4]
 3887 00f4 2381     		strh	r3, [r4, #8]	@ movhi
 879:lvgl\src\lv_core/lv_indev.c **** 
 3888              		.loc 1 879 0
 3889 00f6 B4F90630 		ldrsh	r3, [r4, #6]
 3890 00fa 6381     		strh	r3, [r4, #10]	@ movhi
 882:lvgl\src\lv_core/lv_indev.c ****             /*Save the obj because in special cases `act_obj` can change in the signal function*/
 3891              		.loc 1 882 0
 3892 00fc B5B1     		cbz	r5, .L270
 3893              	.LVL470:
 3894              	.LBB21:
 886:lvgl\src\lv_core/lv_indev.c ****             if(indev_reset_check(proc)) return;
 3895              		.loc 1 886 0
 3896 00fe EB69     		ldr	r3, [r5, #28]
 3897 0100 4D4A     		ldr	r2, .L287
ARM GAS  C:\Users\strap\AppData\Local\Temp\cc4VwSsz.s 			page 108


 3898 0102 5268     		ldr	r2, [r2, #4]
 3899 0104 0D21     		movs	r1, #13
 3900 0106 2846     		mov	r0, r5
 3901 0108 9847     		blx	r3
 3902              	.LVL471:
 887:lvgl\src\lv_core/lv_indev.c ****             lv_event_send(last_obj, LV_EVENT_PRESS_LOST, NULL);
 3903              		.loc 1 887 0
 3904 010a 2046     		mov	r0, r4
 3905 010c FFF7FEFF 		bl	indev_reset_check
 3906              	.LVL472:
 3907 0110 0028     		cmp	r0, #0
 3908 0112 40F02181 		bne	.L261
 888:lvgl\src\lv_core/lv_indev.c ****             if(indev_reset_check(proc)) return;
 3909              		.loc 1 888 0
 3910 0116 0022     		movs	r2, #0
 3911 0118 0221     		movs	r1, #2
 3912 011a 2846     		mov	r0, r5
 3913 011c FFF7FEFF 		bl	lv_event_send
 3914              	.LVL473:
 889:lvgl\src\lv_core/lv_indev.c **** 
 3915              		.loc 1 889 0
 3916 0120 2046     		mov	r0, r4
 3917 0122 FFF7FEFF 		bl	indev_reset_check
 3918              	.LVL474:
 3919 0126 0028     		cmp	r0, #0
 3920 0128 40F01681 		bne	.L261
 3921              	.LVL475:
 3922              	.L270:
 3923              	.LBE21:
 893:lvgl\src\lv_core/lv_indev.c ****         proc->types.pointer.last_obj = indev_obj_act;
 3924              		.loc 1 893 0
 3925 012c 424B     		ldr	r3, .L287
 3926 012e 1B68     		ldr	r3, [r3]
 3927 0130 A361     		str	r3, [r4, #24]
 894:lvgl\src\lv_core/lv_indev.c **** 
 3928              		.loc 1 894 0
 3929 0132 E361     		str	r3, [r4, #28]
 896:lvgl\src\lv_core/lv_indev.c ****             /* Save the time when the obj pressed to count long press time.*/
 3930              		.loc 1 896 0
 3931 0134 002B     		cmp	r3, #0
 3932 0136 55D0     		beq	.L269
 3933              	.LBB22:
 898:lvgl\src\lv_core/lv_indev.c ****             proc->long_pr_sent                 = 0;
 3934              		.loc 1 898 0
 3935 0138 FFF7FEFF 		bl	lv_tick_get
 3936              	.LVL476:
 3937 013c E062     		str	r0, [r4, #44]
 899:lvgl\src\lv_core/lv_indev.c ****             proc->types.pointer.drag_limit_out = 0;
 3938              		.loc 1 899 0
 3939 013e 94F83430 		ldrb	r3, [r4, #52]	@ zero_extendqisi2
 3940 0142 6FF30003 		bfc	r3, #0, #1
 3941 0146 84F83430 		strb	r3, [r4, #52]
 900:lvgl\src\lv_core/lv_indev.c ****             proc->types.pointer.drag_in_prog   = 0;
 3942              		.loc 1 900 0
 3943 014a 94F82A20 		ldrb	r2, [r4, #42]	@ zero_extendqisi2
 902:lvgl\src\lv_core/lv_indev.c ****             proc->types.pointer.drag_sum.y     = 0;
 3944              		.loc 1 902 0
ARM GAS  C:\Users\strap\AppData\Local\Temp\cc4VwSsz.s 			page 109


 3945 014e 0023     		movs	r3, #0
 3946 0150 2382     		strh	r3, [r4, #16]	@ movhi
 903:lvgl\src\lv_core/lv_indev.c ****             proc->types.pointer.drag_dir = LV_DRAG_DIR_BOTH;
 3947              		.loc 1 903 0
 3948 0152 6382     		strh	r3, [r4, #18]	@ movhi
 904:lvgl\src\lv_core/lv_indev.c ****             proc->types.pointer.gesture_sent   = 0;
 3949              		.loc 1 904 0
 3950 0154 02F0FC02 		and	r2, r2, #252
 3951 0158 0321     		movs	r1, #3
 3952 015a 61F38402 		bfi	r2, r1, #2, #3
 905:lvgl\src\lv_core/lv_indev.c ****             proc->types.pointer.gesture_sum.x  = 0;
 3953              		.loc 1 905 0
 3954 015e 63F34512 		bfi	r2, r3, #5, #1
 3955 0162 84F82A20 		strb	r2, [r4, #42]
 906:lvgl\src\lv_core/lv_indev.c ****             proc->types.pointer.gesture_sum.y  = 0;
 3956              		.loc 1 906 0
 3957 0166 E384     		strh	r3, [r4, #38]	@ movhi
 907:lvgl\src\lv_core/lv_indev.c ****             proc->types.pointer.vect.x         = 0;
 3958              		.loc 1 907 0
 3959 0168 2385     		strh	r3, [r4, #40]	@ movhi
 908:lvgl\src\lv_core/lv_indev.c ****             proc->types.pointer.vect.y         = 0;
 3960              		.loc 1 908 0
 3961 016a A381     		strh	r3, [r4, #12]	@ movhi
 909:lvgl\src\lv_core/lv_indev.c **** 
 3962              		.loc 1 909 0
 3963 016c E381     		strh	r3, [r4, #14]	@ movhi
 912:lvgl\src\lv_core/lv_indev.c ****             lv_obj_t * last_top = NULL;
 3964              		.loc 1 912 0
 3965 016e 324A     		ldr	r2, .L287
 3966 0170 1068     		ldr	r0, [r2]
 3967              	.LVL477:
 913:lvgl\src\lv_core/lv_indev.c ****             while(i != NULL) {
 3968              		.loc 1 913 0
 3969 0172 1D46     		mov	r5, r3
 914:lvgl\src\lv_core/lv_indev.c ****                 if(i->top) last_top = i;
 3970              		.loc 1 914 0
 3971 0174 07E0     		b	.L271
 3972              	.LVL478:
 3973              	.L273:
 915:lvgl\src\lv_core/lv_indev.c ****                 i = lv_obj_get_parent(i);
 3974              		.loc 1 915 0
 3975 0176 90F83430 		ldrb	r3, [r0, #52]	@ zero_extendqisi2
 3976 017a 13F0200F 		tst	r3, #32
 3977 017e 00D0     		beq	.L272
 3978 0180 0546     		mov	r5, r0
 3979              	.LVL479:
 3980              	.L272:
 916:lvgl\src\lv_core/lv_indev.c ****             }
 3981              		.loc 1 916 0
 3982 0182 FFF7FEFF 		bl	lv_obj_get_parent
 3983              	.LVL480:
 3984              	.L271:
 914:lvgl\src\lv_core/lv_indev.c ****                 if(i->top) last_top = i;
 3985              		.loc 1 914 0
 3986 0186 0028     		cmp	r0, #0
 3987 0188 F5D1     		bne	.L273
 919:lvgl\src\lv_core/lv_indev.c ****                 /*Move the last_top object to the foreground*/
ARM GAS  C:\Users\strap\AppData\Local\Temp\cc4VwSsz.s 			page 110


 3988              		.loc 1 919 0
 3989 018a 15B1     		cbz	r5, .L274
 921:lvgl\src\lv_core/lv_indev.c ****             }
 3990              		.loc 1 921 0
 3991 018c 2846     		mov	r0, r5
 3992              	.LVL481:
 3993 018e FFF7FEFF 		bl	lv_obj_move_foreground
 3994              	.LVL482:
 3995              	.L274:
 925:lvgl\src\lv_core/lv_indev.c ****             if(indev_reset_check(proc)) return;
 3996              		.loc 1 925 0
 3997 0192 294B     		ldr	r3, .L287
 3998 0194 1868     		ldr	r0, [r3]
 3999 0196 C569     		ldr	r5, [r0, #28]
 4000              	.LVL483:
 4001 0198 5A68     		ldr	r2, [r3, #4]
 4002 019a 0B21     		movs	r1, #11
 4003 019c A847     		blx	r5
 4004              	.LVL484:
 926:lvgl\src\lv_core/lv_indev.c **** 
 4005              		.loc 1 926 0
 4006 019e 2046     		mov	r0, r4
 4007 01a0 FFF7FEFF 		bl	indev_reset_check
 4008              	.LVL485:
 4009 01a4 0028     		cmp	r0, #0
 4010 01a6 40F0D780 		bne	.L261
 928:lvgl\src\lv_core/lv_indev.c ****             if(indev_reset_check(proc)) return;
 4011              		.loc 1 928 0
 4012 01aa 0022     		movs	r2, #0
 4013 01ac 1146     		mov	r1, r2
 4014 01ae 224B     		ldr	r3, .L287
 4015 01b0 1868     		ldr	r0, [r3]
 4016 01b2 FFF7FEFF 		bl	lv_event_send
 4017              	.LVL486:
 929:lvgl\src\lv_core/lv_indev.c **** 
 4018              		.loc 1 929 0
 4019 01b6 2046     		mov	r0, r4
 4020 01b8 FFF7FEFF 		bl	indev_reset_check
 4021              	.LVL487:
 4022 01bc 0028     		cmp	r0, #0
 4023 01be 40F0CB80 		bne	.L261
 931:lvgl\src\lv_core/lv_indev.c **** 
 4024              		.loc 1 931 0
 4025 01c2 1D4B     		ldr	r3, .L287
 4026 01c4 5868     		ldr	r0, [r3, #4]
 4027 01c6 90F85430 		ldrb	r3, [r0, #84]	@ zero_extendqisi2
 4028 01ca 13F0080F 		tst	r3, #8
 4029 01ce 40F0C380 		bne	.L261
 934:lvgl\src\lv_core/lv_indev.c ****             if(indev_reset_check(proc)) return;
 4030              		.loc 1 934 0
 4031 01d2 2030     		adds	r0, r0, #32
 4032 01d4 FFF7FEFF 		bl	indev_click_focus
 4033              	.LVL488:
 935:lvgl\src\lv_core/lv_indev.c **** 
 4034              		.loc 1 935 0
 4035 01d8 2046     		mov	r0, r4
 4036 01da FFF7FEFF 		bl	indev_reset_check
ARM GAS  C:\Users\strap\AppData\Local\Temp\cc4VwSsz.s 			page 111


 4037              	.LVL489:
 4038 01de 0028     		cmp	r0, #0
 4039 01e0 40F0BA80 		bne	.L261
 4040              	.L269:
 4041              	.LBE22:
 941:lvgl\src\lv_core/lv_indev.c ****     proc->types.pointer.vect.y = proc->types.pointer.act_point.y - proc->types.pointer.last_point.y
 4042              		.loc 1 941 0
 4043 01e4 B4F90430 		ldrsh	r3, [r4, #4]
 4044 01e8 B4F90800 		ldrsh	r0, [r4, #8]
 4045 01ec 181A     		subs	r0, r3, r0
 4046 01ee 00B2     		sxth	r0, r0
 4047 01f0 A081     		strh	r0, [r4, #12]	@ movhi
 942:lvgl\src\lv_core/lv_indev.c **** 
 4048              		.loc 1 942 0
 4049 01f2 B4F90630 		ldrsh	r3, [r4, #6]
 4050 01f6 B4F90A10 		ldrsh	r1, [r4, #10]
 4051 01fa 591A     		subs	r1, r3, r1
 4052 01fc 09B2     		sxth	r1, r1
 4053 01fe E181     		strh	r1, [r4, #14]	@ movhi
 944:lvgl\src\lv_core/lv_indev.c ****     proc->types.pointer.drag_throw_vect.y = (proc->types.pointer.drag_throw_vect.y * 5) >> 3;
 4054              		.loc 1 944 0
 4055 0200 B4F91420 		ldrsh	r2, [r4, #20]
 4056 0204 02EB8202 		add	r2, r2, r2, lsl #2
 4057 0208 42F3CF02 		sbfx	r2, r2, #3, #16
 4058 020c A282     		strh	r2, [r4, #20]	@ movhi
 945:lvgl\src\lv_core/lv_indev.c **** 
 4059              		.loc 1 945 0
 4060 020e B4F91630 		ldrsh	r3, [r4, #22]
 4061 0212 03EB8303 		add	r3, r3, r3, lsl #2
 4062 0216 43F3CF03 		sbfx	r3, r3, #3, #16
 4063 021a E382     		strh	r3, [r4, #22]	@ movhi
 947:lvgl\src\lv_core/lv_indev.c ****         proc->types.pointer.drag_throw_vect.x++;
 4064              		.loc 1 947 0
 4065 021c 002A     		cmp	r2, #0
 4066 021e 02DA     		bge	.L275
 948:lvgl\src\lv_core/lv_indev.c ****     else if(proc->types.pointer.drag_throw_vect.x > 0)
 4067              		.loc 1 948 0
 4068 0220 0132     		adds	r2, r2, #1
 4069 0222 A282     		strh	r2, [r4, #20]	@ movhi
 4070 0224 03E0     		b	.L276
 4071              	.L275:
 949:lvgl\src\lv_core/lv_indev.c ****         proc->types.pointer.drag_throw_vect.x--;
 4072              		.loc 1 949 0
 4073 0226 002A     		cmp	r2, #0
 4074 0228 01DD     		ble	.L276
 950:lvgl\src\lv_core/lv_indev.c **** 
 4075              		.loc 1 950 0
 4076 022a 013A     		subs	r2, r2, #1
 4077 022c A282     		strh	r2, [r4, #20]	@ movhi
 4078              	.L276:
 952:lvgl\src\lv_core/lv_indev.c ****         proc->types.pointer.drag_throw_vect.y++;
 4079              		.loc 1 952 0
 4080 022e 002B     		cmp	r3, #0
 4081 0230 04DA     		bge	.L277
 953:lvgl\src\lv_core/lv_indev.c ****     else if(proc->types.pointer.drag_throw_vect.y > 0)
 4082              		.loc 1 953 0
 4083 0232 0133     		adds	r3, r3, #1
ARM GAS  C:\Users\strap\AppData\Local\Temp\cc4VwSsz.s 			page 112


 4084 0234 E382     		strh	r3, [r4, #22]	@ movhi
 4085 0236 05E0     		b	.L278
 4086              	.L288:
 4087              		.align	2
 4088              	.L287:
 4089 0238 00000000 		.word	.LANCHOR0
 4090              	.L277:
 954:lvgl\src\lv_core/lv_indev.c ****         proc->types.pointer.drag_throw_vect.y--;
 4091              		.loc 1 954 0
 4092 023c 002B     		cmp	r3, #0
 4093 023e 01DD     		ble	.L278
 955:lvgl\src\lv_core/lv_indev.c **** 
 4094              		.loc 1 955 0
 4095 0240 013B     		subs	r3, r3, #1
 4096 0242 E382     		strh	r3, [r4, #22]	@ movhi
 4097              	.L278:
 957:lvgl\src\lv_core/lv_indev.c ****     proc->types.pointer.drag_throw_vect.y += (proc->types.pointer.vect.y * 4) >> 3;
 4098              		.loc 1 957 0
 4099 0244 A38A     		ldrh	r3, [r4, #20]
 4100 0246 03EB6000 		add	r0, r3, r0, asr #1
 4101 024a A082     		strh	r0, [r4, #20]	@ movhi
 958:lvgl\src\lv_core/lv_indev.c **** 
 4102              		.loc 1 958 0
 4103 024c E38A     		ldrh	r3, [r4, #22]
 4104 024e 03EB6101 		add	r1, r3, r1, asr #1
 4105 0252 E182     		strh	r1, [r4, #22]	@ movhi
 961:lvgl\src\lv_core/lv_indev.c ****         indev_obj_act->signal_cb(indev_obj_act, LV_SIGNAL_PRESSING, indev_act);
 4106              		.loc 1 961 0
 4107 0254 414B     		ldr	r3, .L289
 4108 0256 1868     		ldr	r0, [r3]
 4109 0258 0028     		cmp	r0, #0
 4110 025a 7DD0     		beq	.L261
 962:lvgl\src\lv_core/lv_indev.c ****         if(indev_reset_check(proc)) return;
 4111              		.loc 1 962 0
 4112 025c C369     		ldr	r3, [r0, #28]
 4113 025e 3F4A     		ldr	r2, .L289
 4114 0260 5268     		ldr	r2, [r2, #4]
 4115 0262 0C21     		movs	r1, #12
 4116 0264 9847     		blx	r3
 4117              	.LVL490:
 963:lvgl\src\lv_core/lv_indev.c ****         lv_event_send(indev_obj_act, LV_EVENT_PRESSING, NULL);
 4118              		.loc 1 963 0
 4119 0266 2046     		mov	r0, r4
 4120 0268 FFF7FEFF 		bl	indev_reset_check
 4121              	.LVL491:
 4122 026c 0028     		cmp	r0, #0
 4123 026e 73D1     		bne	.L261
 964:lvgl\src\lv_core/lv_indev.c ****         if(indev_reset_check(proc)) return;
 4124              		.loc 1 964 0
 4125 0270 0022     		movs	r2, #0
 4126 0272 0121     		movs	r1, #1
 4127 0274 394B     		ldr	r3, .L289
 4128 0276 1868     		ldr	r0, [r3]
 4129 0278 FFF7FEFF 		bl	lv_event_send
 4130              	.LVL492:
 965:lvgl\src\lv_core/lv_indev.c ****         if(indev_act->proc.wait_until_release) return;
 4131              		.loc 1 965 0
ARM GAS  C:\Users\strap\AppData\Local\Temp\cc4VwSsz.s 			page 113


 4132 027c 2046     		mov	r0, r4
 4133 027e FFF7FEFF 		bl	indev_reset_check
 4134              	.LVL493:
 4135 0282 0028     		cmp	r0, #0
 4136 0284 68D1     		bne	.L261
 966:lvgl\src\lv_core/lv_indev.c **** 
 4137              		.loc 1 966 0
 4138 0286 354B     		ldr	r3, .L289
 4139 0288 5B68     		ldr	r3, [r3, #4]
 4140 028a 93F85430 		ldrb	r3, [r3, #84]	@ zero_extendqisi2
 4141 028e 13F0080F 		tst	r3, #8
 4142 0292 61D1     		bne	.L261
 968:lvgl\src\lv_core/lv_indev.c ****         indev_gesture(proc);
 4143              		.loc 1 968 0
 4144 0294 2046     		mov	r0, r4
 4145 0296 FFF7FEFF 		bl	indev_drag
 4146              	.LVL494:
 969:lvgl\src\lv_core/lv_indev.c ****         if(indev_reset_check(proc)) return;
 4147              		.loc 1 969 0
 4148 029a 2046     		mov	r0, r4
 4149 029c FFF7FEFF 		bl	indev_gesture
 4150              	.LVL495:
 970:lvgl\src\lv_core/lv_indev.c **** 
 4151              		.loc 1 970 0
 4152 02a0 2046     		mov	r0, r4
 4153 02a2 FFF7FEFF 		bl	indev_reset_check
 4154              	.LVL496:
 4155 02a6 0028     		cmp	r0, #0
 4156 02a8 56D1     		bne	.L261
 973:lvgl\src\lv_core/lv_indev.c ****             /*Send a signal about the long press if enough time elapsed*/
 4157              		.loc 1 973 0
 4158 02aa 94F82A30 		ldrb	r3, [r4, #42]	@ zero_extendqisi2
 4159 02ae 13F0020F 		tst	r3, #2
 4160 02b2 29D1     		bne	.L279
 973:lvgl\src\lv_core/lv_indev.c ****             /*Send a signal about the long press if enough time elapsed*/
 4161              		.loc 1 973 0 is_stmt 0 discriminator 1
 4162 02b4 94F83430 		ldrb	r3, [r4, #52]	@ zero_extendqisi2
 4163 02b8 13F0010F 		tst	r3, #1
 4164 02bc 24D1     		bne	.L279
 975:lvgl\src\lv_core/lv_indev.c ****                 indev_obj_act->signal_cb(indev_obj_act, LV_SIGNAL_LONG_PRESS, indev_act);
 4165              		.loc 1 975 0 is_stmt 1
 4166 02be E06A     		ldr	r0, [r4, #44]
 4167 02c0 FFF7FEFF 		bl	lv_tick_elaps
 4168              	.LVL497:
 4169 02c4 254B     		ldr	r3, .L289
 4170 02c6 5A68     		ldr	r2, [r3, #4]
 4171 02c8 938B     		ldrh	r3, [r2, #28]
 4172 02ca 9842     		cmp	r0, r3
 4173 02cc 1CD9     		bls	.L279
 976:lvgl\src\lv_core/lv_indev.c ****                 if(indev_reset_check(proc)) return;
 4174              		.loc 1 976 0
 4175 02ce 234B     		ldr	r3, .L289
 4176 02d0 1868     		ldr	r0, [r3]
 4177 02d2 C369     		ldr	r3, [r0, #28]
 4178 02d4 0F21     		movs	r1, #15
 4179 02d6 9847     		blx	r3
 4180              	.LVL498:
ARM GAS  C:\Users\strap\AppData\Local\Temp\cc4VwSsz.s 			page 114


 977:lvgl\src\lv_core/lv_indev.c ****                 lv_event_send(indev_obj_act, LV_EVENT_LONG_PRESSED, NULL);
 4181              		.loc 1 977 0
 4182 02d8 2046     		mov	r0, r4
 4183 02da FFF7FEFF 		bl	indev_reset_check
 4184              	.LVL499:
 4185 02de 0028     		cmp	r0, #0
 4186 02e0 3AD1     		bne	.L261
 978:lvgl\src\lv_core/lv_indev.c ****                 if(indev_reset_check(proc)) return;
 4187              		.loc 1 978 0
 4188 02e2 0022     		movs	r2, #0
 4189 02e4 0421     		movs	r1, #4
 4190 02e6 1D4B     		ldr	r3, .L289
 4191 02e8 1868     		ldr	r0, [r3]
 4192 02ea FFF7FEFF 		bl	lv_event_send
 4193              	.LVL500:
 979:lvgl\src\lv_core/lv_indev.c **** 
 4194              		.loc 1 979 0
 4195 02ee 2046     		mov	r0, r4
 4196 02f0 FFF7FEFF 		bl	indev_reset_check
 4197              	.LVL501:
 4198 02f4 80BB     		cbnz	r0, .L261
 982:lvgl\src\lv_core/lv_indev.c **** 
 4199              		.loc 1 982 0
 4200 02f6 94F83430 		ldrb	r3, [r4, #52]	@ zero_extendqisi2
 4201 02fa 43F00103 		orr	r3, r3, #1
 4202 02fe 84F83430 		strb	r3, [r4, #52]
 985:lvgl\src\lv_core/lv_indev.c ****             }
 4203              		.loc 1 985 0
 4204 0302 FFF7FEFF 		bl	lv_tick_get
 4205              	.LVL502:
 4206 0306 2063     		str	r0, [r4, #48]
 4207              	.L279:
 989:lvgl\src\lv_core/lv_indev.c ****             /*Send a signal about the long press repeat if enough time elapsed*/
 4208              		.loc 1 989 0
 4209 0308 94F82A30 		ldrb	r3, [r4, #42]	@ zero_extendqisi2
 4210 030c 13F0020F 		tst	r3, #2
 4211 0310 22D1     		bne	.L261
 989:lvgl\src\lv_core/lv_indev.c ****             /*Send a signal about the long press repeat if enough time elapsed*/
 4212              		.loc 1 989 0 is_stmt 0 discriminator 1
 4213 0312 94F83430 		ldrb	r3, [r4, #52]	@ zero_extendqisi2
 4214 0316 13F0010F 		tst	r3, #1
 4215 031a 1DD0     		beq	.L261
 991:lvgl\src\lv_core/lv_indev.c ****                 indev_obj_act->signal_cb(indev_obj_act, LV_SIGNAL_LONG_PRESS_REP, indev_act);
 4216              		.loc 1 991 0 is_stmt 1
 4217 031c 206B     		ldr	r0, [r4, #48]
 4218 031e FFF7FEFF 		bl	lv_tick_elaps
 4219              	.LVL503:
 4220 0322 0E4B     		ldr	r3, .L289
 4221 0324 5A68     		ldr	r2, [r3, #4]
 4222 0326 D38B     		ldrh	r3, [r2, #30]
 4223 0328 9842     		cmp	r0, r3
 4224 032a 15D9     		bls	.L261
 992:lvgl\src\lv_core/lv_indev.c ****                 if(indev_reset_check(proc)) return;
 4225              		.loc 1 992 0
 4226 032c 0B4B     		ldr	r3, .L289
 4227 032e 1868     		ldr	r0, [r3]
 4228 0330 C369     		ldr	r3, [r0, #28]
ARM GAS  C:\Users\strap\AppData\Local\Temp\cc4VwSsz.s 			page 115


 4229 0332 1021     		movs	r1, #16
 4230 0334 9847     		blx	r3
 4231              	.LVL504:
 993:lvgl\src\lv_core/lv_indev.c ****                 lv_event_send(indev_obj_act, LV_EVENT_LONG_PRESSED_REPEAT, NULL);
 4232              		.loc 1 993 0
 4233 0336 2046     		mov	r0, r4
 4234 0338 FFF7FEFF 		bl	indev_reset_check
 4235              	.LVL505:
 4236 033c 60B9     		cbnz	r0, .L261
 994:lvgl\src\lv_core/lv_indev.c ****                 if(indev_reset_check(proc)) return;
 4237              		.loc 1 994 0
 4238 033e 0022     		movs	r2, #0
 4239 0340 0521     		movs	r1, #5
 4240 0342 064B     		ldr	r3, .L289
 4241 0344 1868     		ldr	r0, [r3]
 4242 0346 FFF7FEFF 		bl	lv_event_send
 4243              	.LVL506:
 995:lvgl\src\lv_core/lv_indev.c ****                 proc->longpr_rep_timestamp = lv_tick_get();
 4244              		.loc 1 995 0
 4245 034a 2046     		mov	r0, r4
 4246 034c FFF7FEFF 		bl	indev_reset_check
 4247              	.LVL507:
 4248 0350 10B9     		cbnz	r0, .L261
 996:lvgl\src\lv_core/lv_indev.c ****             }
 4249              		.loc 1 996 0
 4250 0352 FFF7FEFF 		bl	lv_tick_get
 4251              	.LVL508:
 4252 0356 2063     		str	r0, [r4, #48]
 4253              	.L261:
 4254 0358 70BD     		pop	{r4, r5, r6, pc}
 4255              	.LVL509:
 4256              	.L286:
 4257              		.cfi_def_cfa_offset 0
 4258              		.cfi_restore 4
 4259              		.cfi_restore 5
 4260              		.cfi_restore 6
 4261              		.cfi_restore 14
 4262 035a 7047     		bx	lr
 4263              	.L290:
 4264              		.align	2
 4265              	.L289:
 4266 035c 00000000 		.word	.LANCHOR0
 4267              		.cfi_endproc
 4268              	.LFE356:
 4269              		.size	indev_proc_press, .-indev_proc_press
 4270              		.section	.text.indev_pointer_proc,"ax",%progbits
 4271              		.align	2
 4272              		.thumb
 4273              		.thumb_func
 4274              		.type	indev_pointer_proc, %function
 4275              	indev_pointer_proc:
 4276              	.LFB352:
 403:lvgl\src\lv_core/lv_indev.c ****     /*Move the cursor if set and moved*/
 4277              		.loc 1 403 0
 4278              		.cfi_startproc
 4279              		@ args = 0, pretend = 0, frame = 0
 4280              		@ frame_needed = 0, uses_anonymous_args = 0
ARM GAS  C:\Users\strap\AppData\Local\Temp\cc4VwSsz.s 			page 116


 4281              	.LVL510:
 4282 0000 38B5     		push	{r3, r4, r5, lr}
 4283              		.cfi_def_cfa_offset 16
 4284              		.cfi_offset 3, -16
 4285              		.cfi_offset 4, -12
 4286              		.cfi_offset 5, -8
 4287              		.cfi_offset 14, -4
 4288 0002 0446     		mov	r4, r0
 4289 0004 0D46     		mov	r5, r1
 405:lvgl\src\lv_core/lv_indev.c ****        (i->proc.types.pointer.last_point.x != data->point.x || i->proc.types.pointer.last_point.y !
 4290              		.loc 1 405 0
 4291 0006 806D     		ldr	r0, [r0, #88]
 4292              	.LVL511:
 4293 0008 48B1     		cbz	r0, .L292
 406:lvgl\src\lv_core/lv_indev.c ****         lv_obj_set_pos(i->cursor, data->point.x, data->point.y);
 4294              		.loc 1 406 0 discriminator 1
 4295 000a A26A     		ldr	r2, [r4, #40]
 4296 000c 0B68     		ldr	r3, [r1]
 405:lvgl\src\lv_core/lv_indev.c ****        (i->proc.types.pointer.last_point.x != data->point.x || i->proc.types.pointer.last_point.y !
 4297              		.loc 1 405 0 discriminator 1
 4298 000e 9A42     		cmp	r2, r3
 4299 0010 05D0     		beq	.L292
 407:lvgl\src\lv_core/lv_indev.c ****     }
 4300              		.loc 1 407 0
 4301 0012 B1F90220 		ldrsh	r2, [r1, #2]
 4302 0016 B1F90010 		ldrsh	r1, [r1]
 4303              	.LVL512:
 4304 001a FFF7FEFF 		bl	lv_obj_set_pos
 4305              	.LVL513:
 4306              	.L292:
 410:lvgl\src\lv_core/lv_indev.c ****     i->proc.types.pointer.act_point.y = data->point.y;
 4307              		.loc 1 410 0
 4308 001e B5F90030 		ldrsh	r3, [r5]
 4309 0022 A384     		strh	r3, [r4, #36]	@ movhi
 411:lvgl\src\lv_core/lv_indev.c **** 
 4310              		.loc 1 411 0
 4311 0024 B5F90230 		ldrsh	r3, [r5, #2]
 4312 0028 E384     		strh	r3, [r4, #38]	@ movhi
 413:lvgl\src\lv_core/lv_indev.c ****         indev_proc_press(&i->proc);
 4313              		.loc 1 413 0
 4314 002a 94F82030 		ldrb	r3, [r4, #32]	@ zero_extendqisi2
 4315 002e 012B     		cmp	r3, #1
 4316 0030 04D1     		bne	.L293
 414:lvgl\src\lv_core/lv_indev.c ****     }
 4317              		.loc 1 414 0
 4318 0032 04F12000 		add	r0, r4, #32
 4319 0036 FFF7FEFF 		bl	indev_proc_press
 4320              	.LVL514:
 4321 003a 03E0     		b	.L294
 4322              	.L293:
 417:lvgl\src\lv_core/lv_indev.c ****     }
 4323              		.loc 1 417 0
 4324 003c 04F12000 		add	r0, r4, #32
 4325 0040 FFF7FEFF 		bl	indev_proc_release
 4326              	.LVL515:
 4327              	.L294:
 420:lvgl\src\lv_core/lv_indev.c ****     i->proc.types.pointer.last_point.y = i->proc.types.pointer.act_point.y;
ARM GAS  C:\Users\strap\AppData\Local\Temp\cc4VwSsz.s 			page 117


 4328              		.loc 1 420 0
 4329 0044 B4F92430 		ldrsh	r3, [r4, #36]
 4330 0048 2385     		strh	r3, [r4, #40]	@ movhi
 421:lvgl\src\lv_core/lv_indev.c **** }
 4331              		.loc 1 421 0
 4332 004a B4F92630 		ldrsh	r3, [r4, #38]
 4333 004e 6385     		strh	r3, [r4, #42]	@ movhi
 4334 0050 38BD     		pop	{r3, r4, r5, pc}
 4335              		.cfi_endproc
 4336              	.LFE352:
 4337              		.size	indev_pointer_proc, .-indev_pointer_proc
 4338 0052 00BF     		.section	.text.indev_button_proc,"ax",%progbits
 4339              		.align	2
 4340              		.thumb
 4341              		.thumb_func
 4342              		.type	indev_button_proc, %function
 4343              	indev_button_proc:
 4344              	.LFB355:
 803:lvgl\src\lv_core/lv_indev.c ****     /* Die gracefully if i->btn_points is NULL */
 4345              		.loc 1 803 0
 4346              		.cfi_startproc
 4347              		@ args = 0, pretend = 0, frame = 0
 4348              		@ frame_needed = 0, uses_anonymous_args = 0
 4349              	.LVL516:
 805:lvgl\src\lv_core/lv_indev.c ****         LV_LOG_WARN("indev_button_proc: btn_points was  NULL");
 4350              		.loc 1 805 0
 4351 0000 036E     		ldr	r3, [r0, #96]
 4352 0002 0BB3     		cbz	r3, .L301
 803:lvgl\src\lv_core/lv_indev.c ****     /* Die gracefully if i->btn_points is NULL */
 4353              		.loc 1 803 0
 4354 0004 10B5     		push	{r4, lr}
 4355              		.cfi_def_cfa_offset 8
 4356              		.cfi_offset 4, -8
 4357              		.cfi_offset 14, -4
 4358 0006 0446     		mov	r4, r0
 810:lvgl\src\lv_core/lv_indev.c ****     i->proc.types.pointer.act_point.y = i->btn_points[data->btn_id].y;
 4359              		.loc 1 810 0
 4360 0008 8A68     		ldr	r2, [r1, #8]
 4361 000a 33F92220 		ldrsh	r2, [r3, r2, lsl #2]
 4362 000e 8284     		strh	r2, [r0, #36]	@ movhi
 811:lvgl\src\lv_core/lv_indev.c **** 
 4363              		.loc 1 811 0
 4364 0010 8A68     		ldr	r2, [r1, #8]
 4365 0012 03EB8203 		add	r3, r3, r2, lsl #2
 4366 0016 B3F90230 		ldrsh	r3, [r3, #2]
 4367 001a C384     		strh	r3, [r0, #38]	@ movhi
 814:lvgl\src\lv_core/lv_indev.c ****        i->proc.types.pointer.last_point.y == i->proc.types.pointer.act_point.y && data->state == LV
 4368              		.loc 1 814 0
 4369 001c 826A     		ldr	r2, [r0, #40]
 4370 001e 436A     		ldr	r3, [r0, #36]
 4371 0020 9A42     		cmp	r2, r3
 4372 0022 06D1     		bne	.L298
 815:lvgl\src\lv_core/lv_indev.c ****         indev_proc_press(&i->proc);
 4373              		.loc 1 815 0
 4374 0024 8B7B     		ldrb	r3, [r1, #14]	@ zero_extendqisi2
 4375 0026 012B     		cmp	r3, #1
 4376 0028 03D1     		bne	.L298
ARM GAS  C:\Users\strap\AppData\Local\Temp\cc4VwSsz.s 			page 118


 816:lvgl\src\lv_core/lv_indev.c ****     }
 4377              		.loc 1 816 0
 4378 002a 2030     		adds	r0, r0, #32
 4379              	.LVL517:
 4380 002c FFF7FEFF 		bl	indev_proc_press
 4381              	.LVL518:
 4382 0030 03E0     		b	.L299
 4383              	.LVL519:
 4384              	.L298:
 820:lvgl\src\lv_core/lv_indev.c ****     }
 4385              		.loc 1 820 0
 4386 0032 04F12000 		add	r0, r4, #32
 4387              	.LVL520:
 4388 0036 FFF7FEFF 		bl	indev_proc_release
 4389              	.LVL521:
 4390              	.L299:
 823:lvgl\src\lv_core/lv_indev.c ****     i->proc.types.pointer.last_point.y = i->proc.types.pointer.act_point.y;
 4391              		.loc 1 823 0
 4392 003a B4F92430 		ldrsh	r3, [r4, #36]
 4393 003e 2385     		strh	r3, [r4, #40]	@ movhi
 824:lvgl\src\lv_core/lv_indev.c **** }
 4394              		.loc 1 824 0
 4395 0040 B4F92630 		ldrsh	r3, [r4, #38]
 4396 0044 6385     		strh	r3, [r4, #42]	@ movhi
 4397 0046 10BD     		pop	{r4, pc}
 4398              	.LVL522:
 4399              	.L301:
 4400              		.cfi_def_cfa_offset 0
 4401              		.cfi_restore 4
 4402              		.cfi_restore 14
 4403 0048 7047     		bx	lr
 4404              		.cfi_endproc
 4405              	.LFE355:
 4406              		.size	indev_button_proc, .-indev_button_proc
 4407 004a 00BF     		.section	.text._lv_indev_read_task,"ax",%progbits
 4408              		.align	2
 4409              		.global	_lv_indev_read_task
 4410              		.thumb
 4411              		.thumb_func
 4412              		.type	_lv_indev_read_task, %function
 4413              	_lv_indev_read_task:
 4414              	.LFB334:
  76:lvgl\src\lv_core/lv_indev.c ****     LV_LOG_TRACE("indev read task started");
 4415              		.loc 1 76 0
 4416              		.cfi_startproc
 4417              		@ args = 0, pretend = 0, frame = 16
 4418              		@ frame_needed = 0, uses_anonymous_args = 0
 4419              	.LVL523:
  81:lvgl\src\lv_core/lv_indev.c **** 
 4420              		.loc 1 81 0
 4421 0000 C068     		ldr	r0, [r0, #12]
 4422              	.LVL524:
 4423 0002 2D4B     		ldr	r3, .L314
 4424 0004 5860     		str	r0, [r3, #4]
  84:lvgl\src\lv_core/lv_indev.c **** 
 4425              		.loc 1 84 0
 4426 0006 0369     		ldr	r3, [r0, #16]
ARM GAS  C:\Users\strap\AppData\Local\Temp\cc4VwSsz.s 			page 119


 4427 0008 002B     		cmp	r3, #0
 4428 000a 53D0     		beq	.L313
  76:lvgl\src\lv_core/lv_indev.c ****     LV_LOG_TRACE("indev read task started");
 4429              		.loc 1 76 0
 4430 000c 30B5     		push	{r4, r5, lr}
 4431              		.cfi_def_cfa_offset 12
 4432              		.cfi_offset 4, -12
 4433              		.cfi_offset 5, -8
 4434              		.cfi_offset 14, -4
 4435 000e 85B0     		sub	sp, sp, #20
 4436              		.cfi_def_cfa_offset 32
  87:lvgl\src\lv_core/lv_indev.c **** 
 4437              		.loc 1 87 0
 4438 0010 FFF7FEFF 		bl	indev_proc_reset_query_handler
 4439              	.LVL525:
  89:lvgl\src\lv_core/lv_indev.c ****     bool more_to_read;
 4440              		.loc 1 89 0
 4441 0014 284B     		ldr	r3, .L314
 4442 0016 5B68     		ldr	r3, [r3, #4]
 4443 0018 93F85430 		ldrb	r3, [r3, #84]	@ zero_extendqisi2
 4444 001c 13F0040F 		tst	r3, #4
 4445 0020 46D1     		bne	.L302
 4446              	.L310:
  93:lvgl\src\lv_core/lv_indev.c **** 
 4447              		.loc 1 93 0
 4448 0022 254C     		ldr	r4, .L314
 4449 0024 6946     		mov	r1, sp
 4450 0026 6068     		ldr	r0, [r4, #4]
 4451 0028 FFF7FEFF 		bl	_lv_indev_read
 4452              	.LVL526:
 4453 002c 0546     		mov	r5, r0
 4454              	.LVL527:
  96:lvgl\src\lv_core/lv_indev.c ****         indev_obj_act = NULL;
 4455              		.loc 1 96 0
 4456 002e 6068     		ldr	r0, [r4, #4]
 4457 0030 FFF7FEFF 		bl	indev_proc_reset_query_handler
 4458              	.LVL528:
  97:lvgl\src\lv_core/lv_indev.c **** 
 4459              		.loc 1 97 0
 4460 0034 0023     		movs	r3, #0
 4461 0036 2360     		str	r3, [r4]
  99:lvgl\src\lv_core/lv_indev.c **** 
 4462              		.loc 1 99 0
 4463 0038 6368     		ldr	r3, [r4, #4]
 4464 003a 9DF80E20 		ldrb	r2, [sp, #14]	@ zero_extendqisi2
 4465 003e 83F82020 		strb	r2, [r3, #32]
 102:lvgl\src\lv_core/lv_indev.c ****             indev_act->driver.disp->last_activity_time = lv_tick_get();
 4466              		.loc 1 102 0
 4467 0042 012A     		cmp	r2, #1
 4468 0044 05D1     		bne	.L304
 103:lvgl\src\lv_core/lv_indev.c ****         }
 4469              		.loc 1 103 0
 4470 0046 1C69     		ldr	r4, [r3, #16]
 4471 0048 FFF7FEFF 		bl	lv_tick_get
 4472              	.LVL529:
 4473 004c C4F87C01 		str	r0, [r4, #380]
 4474 0050 0AE0     		b	.L305
ARM GAS  C:\Users\strap\AppData\Local\Temp\cc4VwSsz.s 			page 120


 4475              	.L304:
 105:lvgl\src\lv_core/lv_indev.c ****             indev_act->driver.disp->last_activity_time = lv_tick_get();
 4476              		.loc 1 105 0
 4477 0052 1A78     		ldrb	r2, [r3]	@ zero_extendqisi2
 4478 0054 042A     		cmp	r2, #4
 4479 0056 07D1     		bne	.L305
 105:lvgl\src\lv_core/lv_indev.c ****             indev_act->driver.disp->last_activity_time = lv_tick_get();
 4480              		.loc 1 105 0 is_stmt 0 discriminator 1
 4481 0058 BDF90C20 		ldrsh	r2, [sp, #12]
 4482 005c 22B1     		cbz	r2, .L305
 106:lvgl\src\lv_core/lv_indev.c ****         }
 4483              		.loc 1 106 0 is_stmt 1
 4484 005e 1C69     		ldr	r4, [r3, #16]
 4485 0060 FFF7FEFF 		bl	lv_tick_get
 4486              	.LVL530:
 4487 0064 C4F87C01 		str	r0, [r4, #380]
 4488              	.L305:
 109:lvgl\src\lv_core/lv_indev.c ****             indev_pointer_proc(indev_act, &data);
 4489              		.loc 1 109 0
 4490 0068 134B     		ldr	r3, .L314
 4491 006a 5868     		ldr	r0, [r3, #4]
 4492 006c 0378     		ldrb	r3, [r0]	@ zero_extendqisi2
 4493 006e 012B     		cmp	r3, #1
 4494 0070 03D1     		bne	.L306
 110:lvgl\src\lv_core/lv_indev.c ****         }
 4495              		.loc 1 110 0
 4496 0072 6946     		mov	r1, sp
 4497 0074 FFF7FEFF 		bl	indev_pointer_proc
 4498              	.LVL531:
 4499 0078 10E0     		b	.L307
 4500              	.L306:
 112:lvgl\src\lv_core/lv_indev.c ****             indev_keypad_proc(indev_act, &data);
 4501              		.loc 1 112 0
 4502 007a 022B     		cmp	r3, #2
 4503 007c 03D1     		bne	.L308
 113:lvgl\src\lv_core/lv_indev.c ****         }
 4504              		.loc 1 113 0
 4505 007e 6946     		mov	r1, sp
 4506 0080 FFF7FEFF 		bl	indev_keypad_proc
 4507              	.LVL532:
 4508 0084 0AE0     		b	.L307
 4509              	.L308:
 115:lvgl\src\lv_core/lv_indev.c ****             indev_encoder_proc(indev_act, &data);
 4510              		.loc 1 115 0
 4511 0086 042B     		cmp	r3, #4
 4512 0088 03D1     		bne	.L309
 116:lvgl\src\lv_core/lv_indev.c ****         }
 4513              		.loc 1 116 0
 4514 008a 6946     		mov	r1, sp
 4515 008c FFF7FEFF 		bl	indev_encoder_proc
 4516              	.LVL533:
 4517 0090 04E0     		b	.L307
 4518              	.L309:
 118:lvgl\src\lv_core/lv_indev.c ****             indev_button_proc(indev_act, &data);
 4519              		.loc 1 118 0
 4520 0092 032B     		cmp	r3, #3
 4521 0094 02D1     		bne	.L307
ARM GAS  C:\Users\strap\AppData\Local\Temp\cc4VwSsz.s 			page 121


 119:lvgl\src\lv_core/lv_indev.c ****         }
 4522              		.loc 1 119 0
 4523 0096 6946     		mov	r1, sp
 4524 0098 FFF7FEFF 		bl	indev_button_proc
 4525              	.LVL534:
 4526              	.L307:
 122:lvgl\src\lv_core/lv_indev.c ****     } while(more_to_read);
 4527              		.loc 1 122 0
 4528 009c 064B     		ldr	r3, .L314
 4529 009e 5868     		ldr	r0, [r3, #4]
 4530 00a0 FFF7FEFF 		bl	indev_proc_reset_query_handler
 4531              	.LVL535:
 123:lvgl\src\lv_core/lv_indev.c **** 
 4532              		.loc 1 123 0
 4533 00a4 002D     		cmp	r5, #0
 4534 00a6 BCD1     		bne	.L310
 126:lvgl\src\lv_core/lv_indev.c ****     indev_obj_act = NULL;
 4535              		.loc 1 126 0
 4536 00a8 034B     		ldr	r3, .L314
 4537 00aa 0022     		movs	r2, #0
 4538 00ac 5A60     		str	r2, [r3, #4]
 127:lvgl\src\lv_core/lv_indev.c **** 
 4539              		.loc 1 127 0
 4540 00ae 1A60     		str	r2, [r3]
 4541              	.LVL536:
 4542              	.L302:
 130:lvgl\src\lv_core/lv_indev.c **** 
 4543              		.loc 1 130 0
 4544 00b0 05B0     		add	sp, sp, #20
 4545              		.cfi_def_cfa_offset 12
 4546              		@ sp needed
 4547 00b2 30BD     		pop	{r4, r5, pc}
 4548              	.L313:
 4549              		.cfi_def_cfa_offset 0
 4550              		.cfi_restore 4
 4551              		.cfi_restore 5
 4552              		.cfi_restore 14
 4553 00b4 7047     		bx	lr
 4554              	.L315:
 4555 00b6 00BF     		.align	2
 4556              	.L314:
 4557 00b8 00000000 		.word	.LANCHOR0
 4558              		.cfi_endproc
 4559              	.LFE334:
 4560              		.size	_lv_indev_read_task, .-_lv_indev_read_task
 4561              		.bss
 4562              		.align	2
 4563              		.set	.LANCHOR0,. + 0
 4564              		.type	indev_obj_act, %object
 4565              		.size	indev_obj_act, 4
 4566              	indev_obj_act:
 4567 0000 00000000 		.space	4
 4568              		.type	indev_act, %object
 4569              		.size	indev_act, 4
 4570              	indev_act:
 4571 0004 00000000 		.space	4
 4572              		.text
ARM GAS  C:\Users\strap\AppData\Local\Temp\cc4VwSsz.s 			page 122


 4573              	.Letext0:
 4574              		.file 2 "c:\\program files (x86)\\cypress\\psoc creator\\4.4\\psoc creator\\import\\gnu\\arm\\5.4.
 4575              		.file 3 "c:\\program files (x86)\\cypress\\psoc creator\\4.4\\psoc creator\\import\\gnu\\arm\\5.4.
 4576              		.file 4 "lvgl\\src\\lv_core\\../../../lv_conf.h"
 4577              		.file 5 "lvgl\\src\\lv_core\\../lv_font/../lv_misc/lv_types.h"
 4578              		.file 6 "lvgl\\src\\lv_core\\../lv_font/../lv_misc/lv_area.h"
 4579              		.file 7 "lvgl\\src\\lv_core\\../lv_misc/lv_color.h"
 4580              		.file 8 "lvgl\\src\\lv_core\\lv_style.h"
 4581              		.file 9 "lvgl\\src\\lv_core\\../lv_hal/../lv_misc/lv_ll.h"
 4582              		.file 10 "lvgl\\src\\lv_core\\../lv_hal/../lv_misc/lv_task.h"
 4583              		.file 11 "lvgl\\src\\lv_core\\../lv_hal/lv_hal_disp.h"
 4584              		.file 12 "lvgl\\src\\lv_core\\lv_obj.h"
 4585              		.file 13 "lvgl\\src\\lv_core\\../lv_hal/lv_hal_indev.h"
 4586              		.file 14 "lvgl\\src\\lv_core\\../lv_core/lv_group.h"
 4587              		.file 15 "lvgl\\src\\lv_core\\../lv_draw/../lv_misc/lv_bidi.h"
 4588              		.file 16 "lvgl\\src\\lv_core\\../lv_hal/lv_hal_tick.h"
 4589              		.file 17 "lvgl\\src\\lv_core\\lv_disp.h"
 4590              		.section	.debug_info,"",%progbits
 4591              	.Ldebug_info0:
 4592 0000 95330000 		.4byte	0x3395
 4593 0004 0400     		.2byte	0x4
 4594 0006 00000000 		.4byte	.Ldebug_abbrev0
 4595 000a 04       		.byte	0x4
 4596 000b 01       		.uleb128 0x1
 4597 000c 2B040000 		.4byte	.LASF441
 4598 0010 0C       		.byte	0xc
 4599 0011 AF100000 		.4byte	.LASF442
 4600 0015 9B010000 		.4byte	.LASF443
 4601 0019 40000000 		.4byte	.Ldebug_ranges0+0x40
 4602 001d 00000000 		.4byte	0
 4603 0021 00000000 		.4byte	.Ldebug_line0
 4604 0025 02       		.uleb128 0x2
 4605 0026 01       		.byte	0x1
 4606 0027 06       		.byte	0x6
 4607 0028 40050000 		.4byte	.LASF0
 4608 002c 03       		.uleb128 0x3
 4609 002d 07030000 		.4byte	.LASF2
 4610 0031 02       		.byte	0x2
 4611 0032 1D       		.byte	0x1d
 4612 0033 37000000 		.4byte	0x37
 4613 0037 02       		.uleb128 0x2
 4614 0038 01       		.byte	0x1
 4615 0039 08       		.byte	0x8
 4616 003a B5050000 		.4byte	.LASF1
 4617 003e 03       		.uleb128 0x3
 4618 003f 2C130000 		.4byte	.LASF3
 4619 0043 02       		.byte	0x2
 4620 0044 29       		.byte	0x29
 4621 0045 49000000 		.4byte	0x49
 4622 0049 02       		.uleb128 0x2
 4623 004a 02       		.byte	0x2
 4624 004b 05       		.byte	0x5
 4625 004c DD140000 		.4byte	.LASF4
 4626 0050 03       		.uleb128 0x3
 4627 0051 28070000 		.4byte	.LASF5
 4628 0055 02       		.byte	0x2
 4629 0056 2B       		.byte	0x2b
ARM GAS  C:\Users\strap\AppData\Local\Temp\cc4VwSsz.s 			page 123


 4630 0057 5B000000 		.4byte	0x5b
 4631 005b 02       		.uleb128 0x2
 4632 005c 02       		.byte	0x2
 4633 005d 07       		.byte	0x7
 4634 005e 78170000 		.4byte	.LASF6
 4635 0062 03       		.uleb128 0x3
 4636 0063 F2170000 		.4byte	.LASF7
 4637 0067 02       		.byte	0x2
 4638 0068 3F       		.byte	0x3f
 4639 0069 6D000000 		.4byte	0x6d
 4640 006d 02       		.uleb128 0x2
 4641 006e 04       		.byte	0x4
 4642 006f 05       		.byte	0x5
 4643 0070 87030000 		.4byte	.LASF8
 4644 0074 03       		.uleb128 0x3
 4645 0075 FF0B0000 		.4byte	.LASF9
 4646 0079 02       		.byte	0x2
 4647 007a 41       		.byte	0x41
 4648 007b 7F000000 		.4byte	0x7f
 4649 007f 02       		.uleb128 0x2
 4650 0080 04       		.byte	0x4
 4651 0081 07       		.byte	0x7
 4652 0082 3A0A0000 		.4byte	.LASF10
 4653 0086 02       		.uleb128 0x2
 4654 0087 08       		.byte	0x8
 4655 0088 05       		.byte	0x5
 4656 0089 2A0C0000 		.4byte	.LASF11
 4657 008d 02       		.uleb128 0x2
 4658 008e 08       		.byte	0x8
 4659 008f 07       		.byte	0x7
 4660 0090 B6110000 		.4byte	.LASF12
 4661 0094 04       		.uleb128 0x4
 4662 0095 04       		.byte	0x4
 4663 0096 05       		.byte	0x5
 4664 0097 696E7400 		.ascii	"int\000"
 4665 009b 02       		.uleb128 0x2
 4666 009c 04       		.byte	0x4
 4667 009d 07       		.byte	0x7
 4668 009e C30D0000 		.4byte	.LASF13
 4669 00a2 03       		.uleb128 0x3
 4670 00a3 4C050000 		.4byte	.LASF14
 4671 00a7 03       		.byte	0x3
 4672 00a8 18       		.byte	0x18
 4673 00a9 2C000000 		.4byte	0x2c
 4674 00ad 03       		.uleb128 0x3
 4675 00ae 49150000 		.4byte	.LASF15
 4676 00b2 03       		.byte	0x3
 4677 00b3 20       		.byte	0x20
 4678 00b4 3E000000 		.4byte	0x3e
 4679 00b8 03       		.uleb128 0x3
 4680 00b9 FE110000 		.4byte	.LASF16
 4681 00bd 03       		.byte	0x3
 4682 00be 24       		.byte	0x24
 4683 00bf 50000000 		.4byte	0x50
 4684 00c3 03       		.uleb128 0x3
 4685 00c4 BB000000 		.4byte	.LASF17
 4686 00c8 03       		.byte	0x3
ARM GAS  C:\Users\strap\AppData\Local\Temp\cc4VwSsz.s 			page 124


 4687 00c9 2C       		.byte	0x2c
 4688 00ca 62000000 		.4byte	0x62
 4689 00ce 03       		.uleb128 0x3
 4690 00cf ED160000 		.4byte	.LASF18
 4691 00d3 03       		.byte	0x3
 4692 00d4 30       		.byte	0x30
 4693 00d5 74000000 		.4byte	0x74
 4694 00d9 03       		.uleb128 0x3
 4695 00da 98170000 		.4byte	.LASF19
 4696 00de 04       		.byte	0x4
 4697 00df 46       		.byte	0x46
 4698 00e0 AD000000 		.4byte	0xad
 4699 00e4 05       		.uleb128 0x5
 4700 00e5 04       		.byte	0x4
 4701 00e6 03       		.uleb128 0x3
 4702 00e7 76110000 		.4byte	.LASF20
 4703 00eb 04       		.byte	0x4
 4704 00ec BC       		.byte	0xbc
 4705 00ed E4000000 		.4byte	0xe4
 4706 00f1 06       		.uleb128 0x6
 4707 00f2 6D020000 		.4byte	.LASF21
 4708 00f6 04       		.byte	0x4
 4709 00f7 2101     		.2byte	0x121
 4710 00f9 E4000000 		.4byte	0xe4
 4711 00fd 06       		.uleb128 0x6
 4712 00fe 3C100000 		.4byte	.LASF22
 4713 0102 04       		.byte	0x4
 4714 0103 2201     		.2byte	0x122
 4715 0105 E4000000 		.4byte	0xe4
 4716 0109 06       		.uleb128 0x6
 4717 010a 750A0000 		.4byte	.LASF23
 4718 010e 04       		.byte	0x4
 4719 010f 1202     		.2byte	0x212
 4720 0111 E4000000 		.4byte	0xe4
 4721 0115 02       		.uleb128 0x2
 4722 0116 08       		.byte	0x8
 4723 0117 04       		.byte	0x4
 4724 0118 930F0000 		.4byte	.LASF24
 4725 011c 02       		.uleb128 0x2
 4726 011d 04       		.byte	0x4
 4727 011e 07       		.byte	0x7
 4728 011f 39000000 		.4byte	.LASF25
 4729 0123 02       		.uleb128 0x2
 4730 0124 01       		.byte	0x1
 4731 0125 08       		.byte	0x8
 4732 0126 D2060000 		.4byte	.LASF26
 4733 012a 07       		.uleb128 0x7
 4734 012b 01       		.byte	0x1
 4735 012c 37000000 		.4byte	0x37
 4736 0130 05       		.byte	0x5
 4737 0131 2F       		.byte	0x2f
 4738 0132 43010000 		.4byte	0x143
 4739 0136 08       		.uleb128 0x8
 4740 0137 03020000 		.4byte	.LASF27
 4741 013b 00       		.byte	0
 4742 013c 08       		.uleb128 0x8
 4743 013d 07120000 		.4byte	.LASF28
ARM GAS  C:\Users\strap\AppData\Local\Temp\cc4VwSsz.s 			page 125


 4744 0141 01       		.byte	0x1
 4745 0142 00       		.byte	0
 4746 0143 03       		.uleb128 0x3
 4747 0144 6E0F0000 		.4byte	.LASF29
 4748 0148 05       		.byte	0x5
 4749 0149 34       		.byte	0x34
 4750 014a A2000000 		.4byte	0xa2
 4751 014e 09       		.uleb128 0x9
 4752 014f 04       		.byte	0x4
 4753 0150 06       		.byte	0x6
 4754 0151 27       		.byte	0x27
 4755 0152 6B010000 		.4byte	0x16b
 4756 0156 0A       		.uleb128 0xa
 4757 0157 7800     		.ascii	"x\000"
 4758 0159 06       		.byte	0x6
 4759 015a 28       		.byte	0x28
 4760 015b D9000000 		.4byte	0xd9
 4761 015f 00       		.byte	0
 4762 0160 0A       		.uleb128 0xa
 4763 0161 7900     		.ascii	"y\000"
 4764 0163 06       		.byte	0x6
 4765 0164 29       		.byte	0x29
 4766 0165 D9000000 		.4byte	0xd9
 4767 0169 02       		.byte	0x2
 4768 016a 00       		.byte	0
 4769 016b 03       		.uleb128 0x3
 4770 016c FE000000 		.4byte	.LASF30
 4771 0170 06       		.byte	0x6
 4772 0171 2A       		.byte	0x2a
 4773 0172 4E010000 		.4byte	0x14e
 4774 0176 09       		.uleb128 0x9
 4775 0177 08       		.byte	0x8
 4776 0178 06       		.byte	0x6
 4777 0179 2D       		.byte	0x2d
 4778 017a AB010000 		.4byte	0x1ab
 4779 017e 0A       		.uleb128 0xa
 4780 017f 783100   		.ascii	"x1\000"
 4781 0182 06       		.byte	0x6
 4782 0183 2E       		.byte	0x2e
 4783 0184 D9000000 		.4byte	0xd9
 4784 0188 00       		.byte	0
 4785 0189 0A       		.uleb128 0xa
 4786 018a 793100   		.ascii	"y1\000"
 4787 018d 06       		.byte	0x6
 4788 018e 2F       		.byte	0x2f
 4789 018f D9000000 		.4byte	0xd9
 4790 0193 02       		.byte	0x2
 4791 0194 0A       		.uleb128 0xa
 4792 0195 783200   		.ascii	"x2\000"
 4793 0198 06       		.byte	0x6
 4794 0199 30       		.byte	0x30
 4795 019a D9000000 		.4byte	0xd9
 4796 019e 04       		.byte	0x4
 4797 019f 0A       		.uleb128 0xa
 4798 01a0 793200   		.ascii	"y2\000"
 4799 01a3 06       		.byte	0x6
 4800 01a4 31       		.byte	0x31
ARM GAS  C:\Users\strap\AppData\Local\Temp\cc4VwSsz.s 			page 126


 4801 01a5 D9000000 		.4byte	0xd9
 4802 01a9 06       		.byte	0x6
 4803 01aa 00       		.byte	0
 4804 01ab 03       		.uleb128 0x3
 4805 01ac 9A080000 		.4byte	.LASF31
 4806 01b0 06       		.byte	0x6
 4807 01b1 32       		.byte	0x32
 4808 01b2 76010000 		.4byte	0x176
 4809 01b6 03       		.uleb128 0x3
 4810 01b7 27010000 		.4byte	.LASF32
 4811 01bb 06       		.byte	0x6
 4812 01bc 4E       		.byte	0x4e
 4813 01bd A2000000 		.4byte	0xa2
 4814 01c1 02       		.uleb128 0x2
 4815 01c2 01       		.byte	0x1
 4816 01c3 02       		.byte	0x2
 4817 01c4 6F060000 		.4byte	.LASF33
 4818 01c8 09       		.uleb128 0x9
 4819 01c9 02       		.byte	0x2
 4820 01ca 07       		.byte	0x7
 4821 01cb EA       		.byte	0xea
 4822 01cc 0D020000 		.4byte	0x20d
 4823 01d0 0B       		.uleb128 0xb
 4824 01d1 86090000 		.4byte	.LASF34
 4825 01d5 07       		.byte	0x7
 4826 01d6 F0       		.byte	0xf0
 4827 01d7 B8000000 		.4byte	0xb8
 4828 01db 02       		.byte	0x2
 4829 01dc 03       		.byte	0x3
 4830 01dd 0D       		.byte	0xd
 4831 01de 00       		.byte	0
 4832 01df 0C       		.uleb128 0xc
 4833 01e0 72656400 		.ascii	"red\000"
 4834 01e4 07       		.byte	0x7
 4835 01e5 F1       		.byte	0xf1
 4836 01e6 B8000000 		.4byte	0xb8
 4837 01ea 02       		.byte	0x2
 4838 01eb 05       		.byte	0x5
 4839 01ec 08       		.byte	0x8
 4840 01ed 00       		.byte	0
 4841 01ee 0B       		.uleb128 0xb
 4842 01ef 86050000 		.4byte	.LASF35
 4843 01f3 07       		.byte	0x7
 4844 01f4 F2       		.byte	0xf2
 4845 01f5 B8000000 		.4byte	0xb8
 4846 01f9 02       		.byte	0x2
 4847 01fa 05       		.byte	0x5
 4848 01fb 03       		.byte	0x3
 4849 01fc 00       		.byte	0
 4850 01fd 0B       		.uleb128 0xb
 4851 01fe 8E090000 		.4byte	.LASF36
 4852 0202 07       		.byte	0x7
 4853 0203 F3       		.byte	0xf3
 4854 0204 B8000000 		.4byte	0xb8
 4855 0208 02       		.byte	0x2
 4856 0209 03       		.byte	0x3
 4857 020a 00       		.byte	0
ARM GAS  C:\Users\strap\AppData\Local\Temp\cc4VwSsz.s 			page 127


 4858 020b 00       		.byte	0
 4859 020c 00       		.byte	0
 4860 020d 0D       		.uleb128 0xd
 4861 020e 02       		.byte	0x2
 4862 020f 07       		.byte	0x7
 4863 0210 E9       		.byte	0xe9
 4864 0211 2B020000 		.4byte	0x22b
 4865 0215 0E       		.uleb128 0xe
 4866 0216 636800   		.ascii	"ch\000"
 4867 0219 07       		.byte	0x7
 4868 021a F5       		.byte	0xf5
 4869 021b C8010000 		.4byte	0x1c8
 4870 021f 0F       		.uleb128 0xf
 4871 0220 80130000 		.4byte	.LASF37
 4872 0224 07       		.byte	0x7
 4873 0225 F6       		.byte	0xf6
 4874 0226 B8000000 		.4byte	0xb8
 4875 022a 00       		.byte	0
 4876 022b 03       		.uleb128 0x3
 4877 022c D0140000 		.4byte	.LASF38
 4878 0230 07       		.byte	0x7
 4879 0231 F7       		.byte	0xf7
 4880 0232 0D020000 		.4byte	0x20d
 4881 0236 06       		.uleb128 0x6
 4882 0237 1F120000 		.4byte	.LASF39
 4883 023b 07       		.byte	0x7
 4884 023c 0D01     		.2byte	0x10d
 4885 023e 2B020000 		.4byte	0x22b
 4886 0242 06       		.uleb128 0x6
 4887 0243 B2000000 		.4byte	.LASF40
 4888 0247 07       		.byte	0x7
 4889 0248 2001     		.2byte	0x120
 4890 024a A2000000 		.4byte	0xa2
 4891 024e 09       		.uleb128 0x9
 4892 024f 04       		.byte	0x4
 4893 0250 08       		.byte	0x8
 4894 0251 D3       		.byte	0xd3
 4895 0252 63020000 		.4byte	0x263
 4896 0256 0A       		.uleb128 0xa
 4897 0257 6D617000 		.ascii	"map\000"
 4898 025b 08       		.byte	0x8
 4899 025c D4       		.byte	0xd4
 4900 025d 63020000 		.4byte	0x263
 4901 0261 00       		.byte	0
 4902 0262 00       		.byte	0
 4903 0263 10       		.uleb128 0x10
 4904 0264 04       		.byte	0x4
 4905 0265 A2000000 		.4byte	0xa2
 4906 0269 03       		.uleb128 0x3
 4907 026a B6090000 		.4byte	.LASF41
 4908 026e 08       		.byte	0x8
 4909 026f D8       		.byte	0xd8
 4910 0270 4E020000 		.4byte	0x24e
 4911 0274 09       		.uleb128 0x9
 4912 0275 08       		.byte	0x8
 4913 0276 08       		.byte	0x8
 4914 0277 DC       		.byte	0xdc
ARM GAS  C:\Users\strap\AppData\Local\Temp\cc4VwSsz.s 			page 128


 4915 0278 1E040000 		.4byte	0x41e
 4916 027c 11       		.uleb128 0x11
 4917 027d B9040000 		.4byte	.LASF42
 4918 0281 08       		.byte	0x8
 4919 0282 DD       		.byte	0xdd
 4920 0283 1E040000 		.4byte	0x41e
 4921 0287 00       		.byte	0
 4922 0288 0B       		.uleb128 0xb
 4923 0289 01050000 		.4byte	.LASF43
 4924 028d 08       		.byte	0x8
 4925 028e E1       		.byte	0xe1
 4926 028f CE000000 		.4byte	0xce
 4927 0293 04       		.byte	0x4
 4928 0294 06       		.byte	0x6
 4929 0295 1A       		.byte	0x1a
 4930 0296 04       		.byte	0x4
 4931 0297 0B       		.uleb128 0xb
 4932 0298 A5100000 		.4byte	.LASF44
 4933 029c 08       		.byte	0x8
 4934 029d E2       		.byte	0xe2
 4935 029e CE000000 		.4byte	0xce
 4936 02a2 04       		.byte	0x4
 4937 02a3 01       		.byte	0x1
 4938 02a4 19       		.byte	0x19
 4939 02a5 04       		.byte	0x4
 4940 02a6 0B       		.uleb128 0xb
 4941 02a7 5F180000 		.4byte	.LASF45
 4942 02ab 08       		.byte	0x8
 4943 02ac E3       		.byte	0xe3
 4944 02ad CE000000 		.4byte	0xce
 4945 02b1 04       		.byte	0x4
 4946 02b2 01       		.byte	0x1
 4947 02b3 18       		.byte	0x18
 4948 02b4 04       		.byte	0x4
 4949 02b5 0B       		.uleb128 0xb
 4950 02b6 7B0D0000 		.4byte	.LASF46
 4951 02ba 08       		.byte	0x8
 4952 02bb E4       		.byte	0xe4
 4953 02bc CE000000 		.4byte	0xce
 4954 02c0 04       		.byte	0x4
 4955 02c1 01       		.byte	0x1
 4956 02c2 17       		.byte	0x17
 4957 02c3 04       		.byte	0x4
 4958 02c4 0B       		.uleb128 0xb
 4959 02c5 6B170000 		.4byte	.LASF47
 4960 02c9 08       		.byte	0x8
 4961 02ca E5       		.byte	0xe5
 4962 02cb CE000000 		.4byte	0xce
 4963 02cf 04       		.byte	0x4
 4964 02d0 01       		.byte	0x1
 4965 02d1 16       		.byte	0x16
 4966 02d2 04       		.byte	0x4
 4967 02d3 0B       		.uleb128 0xb
 4968 02d4 1E050000 		.4byte	.LASF48
 4969 02d8 08       		.byte	0x8
 4970 02d9 E6       		.byte	0xe6
 4971 02da CE000000 		.4byte	0xce
ARM GAS  C:\Users\strap\AppData\Local\Temp\cc4VwSsz.s 			page 129


 4972 02de 04       		.byte	0x4
 4973 02df 01       		.byte	0x1
 4974 02e0 15       		.byte	0x15
 4975 02e1 04       		.byte	0x4
 4976 02e2 0B       		.uleb128 0xb
 4977 02e3 0B040000 		.4byte	.LASF49
 4978 02e7 08       		.byte	0x8
 4979 02e8 E7       		.byte	0xe7
 4980 02e9 CE000000 		.4byte	0xce
 4981 02ed 04       		.byte	0x4
 4982 02ee 01       		.byte	0x1
 4983 02ef 14       		.byte	0x14
 4984 02f0 04       		.byte	0x4
 4985 02f1 0B       		.uleb128 0xb
 4986 02f2 800E0000 		.4byte	.LASF50
 4987 02f6 08       		.byte	0x8
 4988 02f7 E9       		.byte	0xe9
 4989 02f8 CE000000 		.4byte	0xce
 4990 02fc 04       		.byte	0x4
 4991 02fd 01       		.byte	0x1
 4992 02fe 13       		.byte	0x13
 4993 02ff 04       		.byte	0x4
 4994 0300 0B       		.uleb128 0xb
 4995 0301 B20F0000 		.4byte	.LASF51
 4996 0305 08       		.byte	0x8
 4997 0306 EA       		.byte	0xea
 4998 0307 CE000000 		.4byte	0xce
 4999 030b 04       		.byte	0x4
 5000 030c 01       		.byte	0x1
 5001 030d 12       		.byte	0x12
 5002 030e 04       		.byte	0x4
 5003 030f 0B       		.uleb128 0xb
 5004 0310 57010000 		.4byte	.LASF52
 5005 0314 08       		.byte	0x8
 5006 0315 EB       		.byte	0xeb
 5007 0316 CE000000 		.4byte	0xce
 5008 031a 04       		.byte	0x4
 5009 031b 01       		.byte	0x1
 5010 031c 11       		.byte	0x11
 5011 031d 04       		.byte	0x4
 5012 031e 0B       		.uleb128 0xb
 5013 031f 18040000 		.4byte	.LASF53
 5014 0323 08       		.byte	0x8
 5015 0324 EC       		.byte	0xec
 5016 0325 CE000000 		.4byte	0xce
 5017 0329 04       		.byte	0x4
 5018 032a 01       		.byte	0x1
 5019 032b 10       		.byte	0x10
 5020 032c 04       		.byte	0x4
 5021 032d 0B       		.uleb128 0xb
 5022 032e DE020000 		.4byte	.LASF54
 5023 0332 08       		.byte	0x8
 5024 0333 ED       		.byte	0xed
 5025 0334 CE000000 		.4byte	0xce
 5026 0338 04       		.byte	0x4
 5027 0339 01       		.byte	0x1
 5028 033a 0F       		.byte	0xf
ARM GAS  C:\Users\strap\AppData\Local\Temp\cc4VwSsz.s 			page 130


 5029 033b 04       		.byte	0x4
 5030 033c 0B       		.uleb128 0xb
 5031 033d C9040000 		.4byte	.LASF55
 5032 0341 08       		.byte	0x8
 5033 0342 EE       		.byte	0xee
 5034 0343 CE000000 		.4byte	0xce
 5035 0347 04       		.byte	0x4
 5036 0348 01       		.byte	0x1
 5037 0349 0E       		.byte	0xe
 5038 034a 04       		.byte	0x4
 5039 034b 0B       		.uleb128 0xb
 5040 034c 90110000 		.4byte	.LASF56
 5041 0350 08       		.byte	0x8
 5042 0351 EF       		.byte	0xef
 5043 0352 CE000000 		.4byte	0xce
 5044 0356 04       		.byte	0x4
 5045 0357 01       		.byte	0x1
 5046 0358 0D       		.byte	0xd
 5047 0359 04       		.byte	0x4
 5048 035a 0B       		.uleb128 0xb
 5049 035b 4C080000 		.4byte	.LASF57
 5050 035f 08       		.byte	0x8
 5051 0360 F0       		.byte	0xf0
 5052 0361 CE000000 		.4byte	0xce
 5053 0365 04       		.byte	0x4
 5054 0366 01       		.byte	0x1
 5055 0367 0C       		.byte	0xc
 5056 0368 04       		.byte	0x4
 5057 0369 0B       		.uleb128 0xb
 5058 036a 5E150000 		.4byte	.LASF58
 5059 036e 08       		.byte	0x8
 5060 036f F1       		.byte	0xf1
 5061 0370 CE000000 		.4byte	0xce
 5062 0374 04       		.byte	0x4
 5063 0375 01       		.byte	0x1
 5064 0376 0B       		.byte	0xb
 5065 0377 04       		.byte	0x4
 5066 0378 0B       		.uleb128 0xb
 5067 0379 A4090000 		.4byte	.LASF59
 5068 037d 08       		.byte	0x8
 5069 037e F3       		.byte	0xf3
 5070 037f CE000000 		.4byte	0xce
 5071 0383 04       		.byte	0x4
 5072 0384 01       		.byte	0x1
 5073 0385 0A       		.byte	0xa
 5074 0386 04       		.byte	0x4
 5075 0387 0B       		.uleb128 0xb
 5076 0388 F8070000 		.4byte	.LASF60
 5077 038c 08       		.byte	0x8
 5078 038d F4       		.byte	0xf4
 5079 038e CE000000 		.4byte	0xce
 5080 0392 04       		.byte	0x4
 5081 0393 01       		.byte	0x1
 5082 0394 09       		.byte	0x9
 5083 0395 04       		.byte	0x4
 5084 0396 0B       		.uleb128 0xb
 5085 0397 C1090000 		.4byte	.LASF61
ARM GAS  C:\Users\strap\AppData\Local\Temp\cc4VwSsz.s 			page 131


 5086 039b 08       		.byte	0x8
 5087 039c F5       		.byte	0xf5
 5088 039d CE000000 		.4byte	0xce
 5089 03a1 04       		.byte	0x4
 5090 03a2 01       		.byte	0x1
 5091 03a3 08       		.byte	0x8
 5092 03a4 04       		.byte	0x4
 5093 03a5 0B       		.uleb128 0xb
 5094 03a6 F3150000 		.4byte	.LASF62
 5095 03aa 08       		.byte	0x8
 5096 03ab F7       		.byte	0xf7
 5097 03ac CE000000 		.4byte	0xce
 5098 03b0 04       		.byte	0x4
 5099 03b1 01       		.byte	0x1
 5100 03b2 07       		.byte	0x7
 5101 03b3 04       		.byte	0x4
 5102 03b4 0B       		.uleb128 0xb
 5103 03b5 68080000 		.4byte	.LASF63
 5104 03b9 08       		.byte	0x8
 5105 03ba F8       		.byte	0xf8
 5106 03bb CE000000 		.4byte	0xce
 5107 03bf 04       		.byte	0x4
 5108 03c0 01       		.byte	0x1
 5109 03c1 06       		.byte	0x6
 5110 03c2 04       		.byte	0x4
 5111 03c3 0B       		.uleb128 0xb
 5112 03c4 94060000 		.4byte	.LASF64
 5113 03c8 08       		.byte	0x8
 5114 03c9 F9       		.byte	0xf9
 5115 03ca CE000000 		.4byte	0xce
 5116 03ce 04       		.byte	0x4
 5117 03cf 01       		.byte	0x1
 5118 03d0 05       		.byte	0x5
 5119 03d1 04       		.byte	0x4
 5120 03d2 0B       		.uleb128 0xb
 5121 03d3 26150000 		.4byte	.LASF65
 5122 03d7 08       		.byte	0x8
 5123 03d8 FA       		.byte	0xfa
 5124 03d9 CE000000 		.4byte	0xce
 5125 03dd 04       		.byte	0x4
 5126 03de 01       		.byte	0x1
 5127 03df 04       		.byte	0x4
 5128 03e0 04       		.byte	0x4
 5129 03e1 0B       		.uleb128 0xb
 5130 03e2 68160000 		.4byte	.LASF66
 5131 03e6 08       		.byte	0x8
 5132 03e7 FB       		.byte	0xfb
 5133 03e8 CE000000 		.4byte	0xce
 5134 03ec 04       		.byte	0x4
 5135 03ed 01       		.byte	0x1
 5136 03ee 03       		.byte	0x3
 5137 03ef 04       		.byte	0x4
 5138 03f0 0B       		.uleb128 0xb
 5139 03f1 96120000 		.4byte	.LASF67
 5140 03f5 08       		.byte	0x8
 5141 03f6 FD       		.byte	0xfd
 5142 03f7 CE000000 		.4byte	0xce
ARM GAS  C:\Users\strap\AppData\Local\Temp\cc4VwSsz.s 			page 132


 5143 03fb 04       		.byte	0x4
 5144 03fc 01       		.byte	0x1
 5145 03fd 02       		.byte	0x2
 5146 03fe 04       		.byte	0x4
 5147 03ff 0B       		.uleb128 0xb
 5148 0400 3E0F0000 		.4byte	.LASF68
 5149 0404 08       		.byte	0x8
 5150 0405 FE       		.byte	0xfe
 5151 0406 CE000000 		.4byte	0xce
 5152 040a 04       		.byte	0x4
 5153 040b 01       		.byte	0x1
 5154 040c 01       		.byte	0x1
 5155 040d 04       		.byte	0x4
 5156 040e 0B       		.uleb128 0xb
 5157 040f 380C0000 		.4byte	.LASF69
 5158 0413 08       		.byte	0x8
 5159 0414 FF       		.byte	0xff
 5160 0415 CE000000 		.4byte	0xce
 5161 0419 04       		.byte	0x4
 5162 041a 01       		.byte	0x1
 5163 041b 00       		.byte	0
 5164 041c 04       		.byte	0x4
 5165 041d 00       		.byte	0
 5166 041e 10       		.uleb128 0x10
 5167 041f 04       		.byte	0x4
 5168 0420 24040000 		.4byte	0x424
 5169 0424 10       		.uleb128 0x10
 5170 0425 04       		.byte	0x4
 5171 0426 69020000 		.4byte	0x269
 5172 042a 06       		.uleb128 0x6
 5173 042b 9B130000 		.4byte	.LASF70
 5174 042f 08       		.byte	0x8
 5175 0430 0001     		.2byte	0x100
 5176 0432 74020000 		.4byte	0x274
 5177 0436 03       		.uleb128 0x3
 5178 0437 11000000 		.4byte	.LASF71
 5179 043b 09       		.byte	0x9
 5180 043c 1E       		.byte	0x1e
 5181 043d A2000000 		.4byte	0xa2
 5182 0441 09       		.uleb128 0x9
 5183 0442 0C       		.byte	0xc
 5184 0443 09       		.byte	0x9
 5185 0444 21       		.byte	0x21
 5186 0445 6E040000 		.4byte	0x46e
 5187 0449 11       		.uleb128 0x11
 5188 044a BB180000 		.4byte	.LASF72
 5189 044e 09       		.byte	0x9
 5190 044f 22       		.byte	0x22
 5191 0450 CE000000 		.4byte	0xce
 5192 0454 00       		.byte	0
 5193 0455 11       		.uleb128 0x11
 5194 0456 C4040000 		.4byte	.LASF73
 5195 045a 09       		.byte	0x9
 5196 045b 23       		.byte	0x23
 5197 045c 6E040000 		.4byte	0x46e
 5198 0460 04       		.byte	0x4
 5199 0461 11       		.uleb128 0x11
ARM GAS  C:\Users\strap\AppData\Local\Temp\cc4VwSsz.s 			page 133


 5200 0462 6F000000 		.4byte	.LASF74
 5201 0466 09       		.byte	0x9
 5202 0467 24       		.byte	0x24
 5203 0468 6E040000 		.4byte	0x46e
 5204 046c 08       		.byte	0x8
 5205 046d 00       		.byte	0
 5206 046e 10       		.uleb128 0x10
 5207 046f 04       		.byte	0x4
 5208 0470 36040000 		.4byte	0x436
 5209 0474 03       		.uleb128 0x3
 5210 0475 F5140000 		.4byte	.LASF75
 5211 0479 09       		.byte	0x9
 5212 047a 25       		.byte	0x25
 5213 047b 41040000 		.4byte	0x441
 5214 047f 03       		.uleb128 0x3
 5215 0480 69180000 		.4byte	.LASF76
 5216 0484 0A       		.byte	0xa
 5217 0485 29       		.byte	0x29
 5218 0486 8A040000 		.4byte	0x48a
 5219 048a 10       		.uleb128 0x10
 5220 048b 04       		.byte	0x4
 5221 048c 90040000 		.4byte	0x490
 5222 0490 12       		.uleb128 0x12
 5223 0491 9B040000 		.4byte	0x49b
 5224 0495 13       		.uleb128 0x13
 5225 0496 9B040000 		.4byte	0x49b
 5226 049a 00       		.byte	0
 5227 049b 10       		.uleb128 0x10
 5228 049c 04       		.byte	0x4
 5229 049d A1040000 		.4byte	0x4a1
 5230 04a1 14       		.uleb128 0x14
 5231 04a2 1D070000 		.4byte	.LASF94
 5232 04a6 18       		.byte	0x18
 5233 04a7 0A       		.byte	0xa
 5234 04a8 3C       		.byte	0x3c
 5235 04a9 F9040000 		.4byte	0x4f9
 5236 04ad 11       		.uleb128 0x11
 5237 04ae F1120000 		.4byte	.LASF77
 5238 04b2 0A       		.byte	0xa
 5239 04b3 3D       		.byte	0x3d
 5240 04b4 CE000000 		.4byte	0xce
 5241 04b8 00       		.byte	0
 5242 04b9 11       		.uleb128 0x11
 5243 04ba 11120000 		.4byte	.LASF78
 5244 04be 0A       		.byte	0xa
 5245 04bf 3E       		.byte	0x3e
 5246 04c0 CE000000 		.4byte	0xce
 5247 04c4 04       		.byte	0x4
 5248 04c5 11       		.uleb128 0x11
 5249 04c6 17060000 		.4byte	.LASF79
 5250 04ca 0A       		.byte	0xa
 5251 04cb 3F       		.byte	0x3f
 5252 04cc 7F040000 		.4byte	0x47f
 5253 04d0 08       		.byte	0x8
 5254 04d1 11       		.uleb128 0x11
 5255 04d2 BF170000 		.4byte	.LASF80
 5256 04d6 0A       		.byte	0xa
ARM GAS  C:\Users\strap\AppData\Local\Temp\cc4VwSsz.s 			page 134


 5257 04d7 41       		.byte	0x41
 5258 04d8 E4000000 		.4byte	0xe4
 5259 04dc 0C       		.byte	0xc
 5260 04dd 11       		.uleb128 0x11
 5261 04de 8E010000 		.4byte	.LASF81
 5262 04e2 0A       		.byte	0xa
 5263 04e3 43       		.byte	0x43
 5264 04e4 C3000000 		.4byte	0xc3
 5265 04e8 10       		.byte	0x10
 5266 04e9 0B       		.uleb128 0xb
 5267 04ea EB020000 		.4byte	.LASF82
 5268 04ee 0A       		.byte	0xa
 5269 04ef 44       		.byte	0x44
 5270 04f0 A2000000 		.4byte	0xa2
 5271 04f4 01       		.byte	0x1
 5272 04f5 03       		.byte	0x3
 5273 04f6 05       		.byte	0x5
 5274 04f7 14       		.byte	0x14
 5275 04f8 00       		.byte	0
 5276 04f9 03       		.uleb128 0x3
 5277 04fa 66120000 		.4byte	.LASF83
 5278 04fe 0A       		.byte	0xa
 5279 04ff 45       		.byte	0x45
 5280 0500 A1040000 		.4byte	0x4a1
 5281 0504 09       		.uleb128 0x9
 5282 0505 24       		.byte	0x24
 5283 0506 0B       		.byte	0xb
 5284 0507 2F       		.byte	0x2f
 5285 0508 7F050000 		.4byte	0x57f
 5286 050c 11       		.uleb128 0x11
 5287 050d D30C0000 		.4byte	.LASF84
 5288 0511 0B       		.byte	0xb
 5289 0512 30       		.byte	0x30
 5290 0513 E4000000 		.4byte	0xe4
 5291 0517 00       		.byte	0
 5292 0518 11       		.uleb128 0x11
 5293 0519 D80C0000 		.4byte	.LASF85
 5294 051d 0B       		.byte	0xb
 5295 051e 31       		.byte	0x31
 5296 051f E4000000 		.4byte	0xe4
 5297 0523 04       		.byte	0x4
 5298 0524 11       		.uleb128 0x11
 5299 0525 840F0000 		.4byte	.LASF86
 5300 0529 0B       		.byte	0xb
 5301 052a 34       		.byte	0x34
 5302 052b E4000000 		.4byte	0xe4
 5303 052f 08       		.byte	0x8
 5304 0530 11       		.uleb128 0x11
 5305 0531 8B110000 		.4byte	.LASF87
 5306 0535 0B       		.byte	0xb
 5307 0536 35       		.byte	0x35
 5308 0537 CE000000 		.4byte	0xce
 5309 053b 0C       		.byte	0xc
 5310 053c 11       		.uleb128 0x11
 5311 053d 96090000 		.4byte	.LASF88
 5312 0541 0B       		.byte	0xb
 5313 0542 36       		.byte	0x36
ARM GAS  C:\Users\strap\AppData\Local\Temp\cc4VwSsz.s 			page 135


 5314 0543 AB010000 		.4byte	0x1ab
 5315 0547 10       		.byte	0x10
 5316 0548 11       		.uleb128 0x11
 5317 0549 C4070000 		.4byte	.LASF89
 5318 054d 0B       		.byte	0xb
 5319 054e 38       		.byte	0x38
 5320 054f 7F050000 		.4byte	0x57f
 5321 0553 18       		.byte	0x18
 5322 0554 11       		.uleb128 0x11
 5323 0555 61060000 		.4byte	.LASF90
 5324 0559 0B       		.byte	0xb
 5325 055a 3A       		.byte	0x3a
 5326 055b 7F050000 		.4byte	0x57f
 5327 055f 1C       		.byte	0x1c
 5328 0560 0B       		.uleb128 0xb
 5329 0561 7C150000 		.4byte	.LASF91
 5330 0565 0B       		.byte	0xb
 5331 0566 3B       		.byte	0x3b
 5332 0567 84050000 		.4byte	0x584
 5333 056b 04       		.byte	0x4
 5334 056c 01       		.byte	0x1
 5335 056d 1F       		.byte	0x1f
 5336 056e 20       		.byte	0x20
 5337 056f 0B       		.uleb128 0xb
 5338 0570 A80A0000 		.4byte	.LASF92
 5339 0574 0B       		.byte	0xb
 5340 0575 3C       		.byte	0x3c
 5341 0576 84050000 		.4byte	0x584
 5342 057a 04       		.byte	0x4
 5343 057b 01       		.byte	0x1
 5344 057c 1E       		.byte	0x1e
 5345 057d 20       		.byte	0x20
 5346 057e 00       		.byte	0
 5347 057f 15       		.uleb128 0x15
 5348 0580 94000000 		.4byte	0x94
 5349 0584 15       		.uleb128 0x15
 5350 0585 CE000000 		.4byte	0xce
 5351 0589 03       		.uleb128 0x3
 5352 058a AB0B0000 		.4byte	.LASF93
 5353 058e 0B       		.byte	0xb
 5354 058f 3D       		.byte	0x3d
 5355 0590 04050000 		.4byte	0x504
 5356 0594 14       		.uleb128 0x14
 5357 0595 410B0000 		.4byte	.LASF95
 5358 0599 30       		.byte	0x30
 5359 059a 0B       		.byte	0xb
 5360 059b 42       		.byte	0x42
 5361 059c 5E060000 		.4byte	0x65e
 5362 05a0 11       		.uleb128 0x11
 5363 05a1 CD050000 		.4byte	.LASF96
 5364 05a5 0B       		.byte	0xb
 5365 05a6 44       		.byte	0x44
 5366 05a7 D9000000 		.4byte	0xd9
 5367 05ab 00       		.byte	0
 5368 05ac 11       		.uleb128 0x11
 5369 05ad 11030000 		.4byte	.LASF97
 5370 05b1 0B       		.byte	0xb
ARM GAS  C:\Users\strap\AppData\Local\Temp\cc4VwSsz.s 			page 136


 5371 05b2 45       		.byte	0x45
 5372 05b3 D9000000 		.4byte	0xd9
 5373 05b7 02       		.byte	0x2
 5374 05b8 11       		.uleb128 0x11
 5375 05b9 B6080000 		.4byte	.LASF98
 5376 05bd 0B       		.byte	0xb
 5377 05be 49       		.byte	0x49
 5378 05bf 5E060000 		.4byte	0x65e
 5379 05c3 04       		.byte	0x4
 5380 05c4 0B       		.uleb128 0xb
 5381 05c5 10070000 		.4byte	.LASF99
 5382 05c9 0B       		.byte	0xb
 5383 05ca 4C       		.byte	0x4c
 5384 05cb CE000000 		.4byte	0xce
 5385 05cf 04       		.byte	0x4
 5386 05d0 01       		.byte	0x1
 5387 05d1 1F       		.byte	0x1f
 5388 05d2 08       		.byte	0x8
 5389 05d3 0B       		.uleb128 0xb
 5390 05d4 AA030000 		.4byte	.LASF100
 5391 05d8 0B       		.byte	0xb
 5392 05d9 4E       		.byte	0x4e
 5393 05da CE000000 		.4byte	0xce
 5394 05de 04       		.byte	0x4
 5395 05df 01       		.byte	0x1
 5396 05e0 1E       		.byte	0x1e
 5397 05e1 08       		.byte	0x8
 5398 05e2 0C       		.uleb128 0xc
 5399 05e3 64706900 		.ascii	"dpi\000"
 5400 05e7 0B       		.byte	0xb
 5401 05e8 59       		.byte	0x59
 5402 05e9 CE000000 		.4byte	0xce
 5403 05ed 04       		.byte	0x4
 5404 05ee 0A       		.byte	0xa
 5405 05ef 14       		.byte	0x14
 5406 05f0 08       		.byte	0x8
 5407 05f1 11       		.uleb128 0x11
 5408 05f2 B6170000 		.4byte	.LASF101
 5409 05f6 0B       		.byte	0xb
 5410 05f7 5D       		.byte	0x5d
 5411 05f8 90060000 		.4byte	0x690
 5412 05fc 0C       		.byte	0xc
 5413 05fd 11       		.uleb128 0x11
 5414 05fe F8120000 		.4byte	.LASF102
 5415 0602 0B       		.byte	0xb
 5416 0603 61       		.byte	0x61
 5417 0604 AC060000 		.4byte	0x6ac
 5418 0608 10       		.byte	0x10
 5419 0609 11       		.uleb128 0x11
 5420 060a 36050000 		.4byte	.LASF103
 5421 060e 0B       		.byte	0xb
 5422 060f 66       		.byte	0x66
 5423 0610 DB060000 		.4byte	0x6db
 5424 0614 14       		.byte	0x14
 5425 0615 11       		.uleb128 0x11
 5426 0616 700D0000 		.4byte	.LASF104
 5427 061a 0B       		.byte	0xb
ARM GAS  C:\Users\strap\AppData\Local\Temp\cc4VwSsz.s 			page 137


 5428 061b 6B       		.byte	0x6b
 5429 061c F6060000 		.4byte	0x6f6
 5430 0620 18       		.byte	0x18
 5431 0621 11       		.uleb128 0x11
 5432 0622 F70B0000 		.4byte	.LASF105
 5433 0626 0B       		.byte	0xb
 5434 0627 70       		.byte	0x70
 5435 0628 07070000 		.4byte	0x707
 5436 062c 1C       		.byte	0x1c
 5437 062d 11       		.uleb128 0x11
 5438 062e EE110000 		.4byte	.LASF106
 5439 0632 0B       		.byte	0xb
 5440 0633 73       		.byte	0x73
 5441 0634 07070000 		.4byte	0x707
 5442 0638 20       		.byte	0x20
 5443 0639 11       		.uleb128 0x11
 5444 063a 6A110000 		.4byte	.LASF107
 5445 063e 0B       		.byte	0xb
 5446 063f 76       		.byte	0x76
 5447 0640 07070000 		.4byte	0x707
 5448 0644 24       		.byte	0x24
 5449 0645 11       		.uleb128 0x11
 5450 0646 00000000 		.4byte	.LASF108
 5451 064a 0B       		.byte	0xb
 5452 064b 85       		.byte	0x85
 5453 064c 36020000 		.4byte	0x236
 5454 0650 28       		.byte	0x28
 5455 0651 11       		.uleb128 0x11
 5456 0652 BF170000 		.4byte	.LASF80
 5457 0656 0B       		.byte	0xb
 5458 0657 88       		.byte	0x88
 5459 0658 F1000000 		.4byte	0xf1
 5460 065c 2C       		.byte	0x2c
 5461 065d 00       		.byte	0
 5462 065e 10       		.uleb128 0x10
 5463 065f 04       		.byte	0x4
 5464 0660 89050000 		.4byte	0x589
 5465 0664 12       		.uleb128 0x12
 5466 0665 79060000 		.4byte	0x679
 5467 0669 13       		.uleb128 0x13
 5468 066a 79060000 		.4byte	0x679
 5469 066e 13       		.uleb128 0x13
 5470 066f 7F060000 		.4byte	0x67f
 5471 0673 13       		.uleb128 0x13
 5472 0674 8A060000 		.4byte	0x68a
 5473 0678 00       		.byte	0
 5474 0679 10       		.uleb128 0x10
 5475 067a 04       		.byte	0x4
 5476 067b 94050000 		.4byte	0x594
 5477 067f 10       		.uleb128 0x10
 5478 0680 04       		.byte	0x4
 5479 0681 85060000 		.4byte	0x685
 5480 0685 16       		.uleb128 0x16
 5481 0686 AB010000 		.4byte	0x1ab
 5482 068a 10       		.uleb128 0x10
 5483 068b 04       		.byte	0x4
 5484 068c 36020000 		.4byte	0x236
ARM GAS  C:\Users\strap\AppData\Local\Temp\cc4VwSsz.s 			page 138


 5485 0690 10       		.uleb128 0x10
 5486 0691 04       		.byte	0x4
 5487 0692 64060000 		.4byte	0x664
 5488 0696 12       		.uleb128 0x12
 5489 0697 A6060000 		.4byte	0x6a6
 5490 069b 13       		.uleb128 0x13
 5491 069c 79060000 		.4byte	0x679
 5492 06a0 13       		.uleb128 0x13
 5493 06a1 A6060000 		.4byte	0x6a6
 5494 06a5 00       		.byte	0
 5495 06a6 10       		.uleb128 0x10
 5496 06a7 04       		.byte	0x4
 5497 06a8 AB010000 		.4byte	0x1ab
 5498 06ac 10       		.uleb128 0x10
 5499 06ad 04       		.byte	0x4
 5500 06ae 96060000 		.4byte	0x696
 5501 06b2 12       		.uleb128 0x12
 5502 06b3 DB060000 		.4byte	0x6db
 5503 06b7 13       		.uleb128 0x13
 5504 06b8 79060000 		.4byte	0x679
 5505 06bc 13       		.uleb128 0x13
 5506 06bd 63020000 		.4byte	0x263
 5507 06c1 13       		.uleb128 0x13
 5508 06c2 D9000000 		.4byte	0xd9
 5509 06c6 13       		.uleb128 0x13
 5510 06c7 D9000000 		.4byte	0xd9
 5511 06cb 13       		.uleb128 0x13
 5512 06cc D9000000 		.4byte	0xd9
 5513 06d0 13       		.uleb128 0x13
 5514 06d1 36020000 		.4byte	0x236
 5515 06d5 13       		.uleb128 0x13
 5516 06d6 42020000 		.4byte	0x242
 5517 06da 00       		.byte	0
 5518 06db 10       		.uleb128 0x10
 5519 06dc 04       		.byte	0x4
 5520 06dd B2060000 		.4byte	0x6b2
 5521 06e1 12       		.uleb128 0x12
 5522 06e2 F6060000 		.4byte	0x6f6
 5523 06e6 13       		.uleb128 0x13
 5524 06e7 79060000 		.4byte	0x679
 5525 06eb 13       		.uleb128 0x13
 5526 06ec CE000000 		.4byte	0xce
 5527 06f0 13       		.uleb128 0x13
 5528 06f1 CE000000 		.4byte	0xce
 5529 06f5 00       		.byte	0
 5530 06f6 10       		.uleb128 0x10
 5531 06f7 04       		.byte	0x4
 5532 06f8 E1060000 		.4byte	0x6e1
 5533 06fc 12       		.uleb128 0x12
 5534 06fd 07070000 		.4byte	0x707
 5535 0701 13       		.uleb128 0x13
 5536 0702 79060000 		.4byte	0x679
 5537 0706 00       		.byte	0
 5538 0707 10       		.uleb128 0x10
 5539 0708 04       		.byte	0x4
 5540 0709 FC060000 		.4byte	0x6fc
 5541 070d 03       		.uleb128 0x3
ARM GAS  C:\Users\strap\AppData\Local\Temp\cc4VwSsz.s 			page 139


 5542 070e 5A160000 		.4byte	.LASF109
 5543 0712 0B       		.byte	0xb
 5544 0713 8B       		.byte	0x8b
 5545 0714 94050000 		.4byte	0x594
 5546 0718 17       		.uleb128 0x17
 5547 0719 B00E0000 		.4byte	.LASF110
 5548 071d 8001     		.2byte	0x180
 5549 071f 0B       		.byte	0xb
 5550 0720 93       		.byte	0x93
 5551 0721 E3070000 		.4byte	0x7e3
 5552 0725 11       		.uleb128 0x11
 5553 0726 46140000 		.4byte	.LASF111
 5554 072a 0B       		.byte	0xb
 5555 072b 95       		.byte	0x95
 5556 072c 0D070000 		.4byte	0x70d
 5557 0730 00       		.byte	0
 5558 0731 11       		.uleb128 0x11
 5559 0732 90030000 		.4byte	.LASF112
 5560 0736 0B       		.byte	0xb
 5561 0737 98       		.byte	0x98
 5562 0738 E3070000 		.4byte	0x7e3
 5563 073c 30       		.byte	0x30
 5564 073d 11       		.uleb128 0x11
 5565 073e F0020000 		.4byte	.LASF113
 5566 0742 0B       		.byte	0xb
 5567 0743 9B       		.byte	0x9b
 5568 0744 74040000 		.4byte	0x474
 5569 0748 34       		.byte	0x34
 5570 0749 11       		.uleb128 0x11
 5571 074a 97000000 		.4byte	.LASF114
 5572 074e 0B       		.byte	0xb
 5573 074f 9C       		.byte	0x9c
 5574 0750 6A090000 		.4byte	0x96a
 5575 0754 40       		.byte	0x40
 5576 0755 11       		.uleb128 0x11
 5577 0756 81140000 		.4byte	.LASF115
 5578 075a 0B       		.byte	0xb
 5579 075b 9D       		.byte	0x9d
 5580 075c 6A090000 		.4byte	0x96a
 5581 0760 44       		.byte	0x44
 5582 0761 11       		.uleb128 0x11
 5583 0762 C3050000 		.4byte	.LASF116
 5584 0766 0B       		.byte	0xb
 5585 0767 9E       		.byte	0x9e
 5586 0768 6A090000 		.4byte	0x96a
 5587 076c 48       		.byte	0x48
 5588 076d 11       		.uleb128 0x11
 5589 076e CD110000 		.4byte	.LASF117
 5590 0772 0B       		.byte	0xb
 5591 0773 9F       		.byte	0x9f
 5592 0774 6A090000 		.4byte	0x96a
 5593 0778 4C       		.byte	0x4c
 5594 0779 0B       		.uleb128 0xb
 5595 077a 95150000 		.4byte	.LASF118
 5596 077e 0B       		.byte	0xb
 5597 077f A1       		.byte	0xa1
 5598 0780 A2000000 		.4byte	0xa2
ARM GAS  C:\Users\strap\AppData\Local\Temp\cc4VwSsz.s 			page 140


 5599 0784 01       		.byte	0x1
 5600 0785 01       		.byte	0x1
 5601 0786 07       		.byte	0x7
 5602 0787 50       		.byte	0x50
 5603 0788 11       		.uleb128 0x11
 5604 0789 1E010000 		.4byte	.LASF119
 5605 078d 0B       		.byte	0xb
 5606 078e A4       		.byte	0xa4
 5607 078f 36020000 		.4byte	0x236
 5608 0793 52       		.byte	0x52
 5609 0794 11       		.uleb128 0x11
 5610 0795 AD150000 		.4byte	.LASF120
 5611 0799 0B       		.byte	0xb
 5612 079a A5       		.byte	0xa5
 5613 079b 70090000 		.4byte	0x970
 5614 079f 54       		.byte	0x54
 5615 07a0 11       		.uleb128 0x11
 5616 07a1 DF030000 		.4byte	.LASF121
 5617 07a5 0B       		.byte	0xb
 5618 07a6 A6       		.byte	0xa6
 5619 07a7 42020000 		.4byte	0x242
 5620 07ab 58       		.byte	0x58
 5621 07ac 11       		.uleb128 0x11
 5622 07ad 3C0E0000 		.4byte	.LASF122
 5623 07b1 0B       		.byte	0xb
 5624 07b2 A9       		.byte	0xa9
 5625 07b3 77090000 		.4byte	0x977
 5626 07b7 5A       		.byte	0x5a
 5627 07b8 18       		.uleb128 0x18
 5628 07b9 84060000 		.4byte	.LASF123
 5629 07bd 0B       		.byte	0xb
 5630 07be AA       		.byte	0xaa
 5631 07bf 87090000 		.4byte	0x987
 5632 07c3 5A01     		.2byte	0x15a
 5633 07c5 19       		.uleb128 0x19
 5634 07c6 EF140000 		.4byte	.LASF124
 5635 07ca 0B       		.byte	0xb
 5636 07cb AB       		.byte	0xab
 5637 07cc CE000000 		.4byte	0xce
 5638 07d0 04       		.byte	0x4
 5639 07d1 0A       		.byte	0xa
 5640 07d2 06       		.byte	0x6
 5641 07d3 7801     		.2byte	0x178
 5642 07d5 18       		.uleb128 0x18
 5643 07d6 74030000 		.4byte	.LASF125
 5644 07da 0B       		.byte	0xb
 5645 07db AE       		.byte	0xae
 5646 07dc CE000000 		.4byte	0xce
 5647 07e0 7C01     		.2byte	0x17c
 5648 07e2 00       		.byte	0
 5649 07e3 10       		.uleb128 0x10
 5650 07e4 04       		.byte	0x4
 5651 07e5 F9040000 		.4byte	0x4f9
 5652 07e9 14       		.uleb128 0x14
 5653 07ea 1B140000 		.4byte	.LASF126
 5654 07ee 50       		.byte	0x50
 5655 07ef 0C       		.byte	0xc
ARM GAS  C:\Users\strap\AppData\Local\Temp\cc4VwSsz.s 			page 141


 5656 07f0 C5       		.byte	0xc5
 5657 07f1 6A090000 		.4byte	0x96a
 5658 07f5 11       		.uleb128 0x11
 5659 07f6 1C0D0000 		.4byte	.LASF127
 5660 07fa 0C       		.byte	0xc
 5661 07fb C6       		.byte	0xc6
 5662 07fc 6A090000 		.4byte	0x96a
 5663 0800 00       		.byte	0
 5664 0801 11       		.uleb128 0x11
 5665 0802 B00C0000 		.4byte	.LASF128
 5666 0806 0C       		.byte	0xc
 5667 0807 C7       		.byte	0xc7
 5668 0808 74040000 		.4byte	0x474
 5669 080c 04       		.byte	0x4
 5670 080d 11       		.uleb128 0x11
 5671 080e 51150000 		.4byte	.LASF129
 5672 0812 0C       		.byte	0xc
 5673 0813 C9       		.byte	0xc9
 5674 0814 AB010000 		.4byte	0x1ab
 5675 0818 10       		.byte	0x10
 5676 0819 11       		.uleb128 0x11
 5677 081a 0A0C0000 		.4byte	.LASF130
 5678 081e 0C       		.byte	0xc
 5679 081f CB       		.byte	0xcb
 5680 0820 F10E0000 		.4byte	0xef1
 5681 0824 18       		.byte	0x18
 5682 0825 11       		.uleb128 0x11
 5683 0826 BB160000 		.4byte	.LASF131
 5684 082a 0C       		.byte	0xc
 5685 082b CC       		.byte	0xcc
 5686 082c C60F0000 		.4byte	0xfc6
 5687 0830 1C       		.byte	0x1c
 5688 0831 11       		.uleb128 0x11
 5689 0832 88070000 		.4byte	.LASF132
 5690 0836 0C       		.byte	0xc
 5691 0837 CD       		.byte	0xcd
 5692 0838 250E0000 		.4byte	0xe25
 5693 083c 20       		.byte	0x20
 5694 083d 11       		.uleb128 0x11
 5695 083e 9F020000 		.4byte	.LASF133
 5696 0842 0C       		.byte	0xc
 5697 0843 CF       		.byte	0xcf
 5698 0844 E4000000 		.4byte	0xe4
 5699 0848 24       		.byte	0x24
 5700 0849 11       		.uleb128 0x11
 5701 084a B9040000 		.4byte	.LASF42
 5702 084e 0C       		.byte	0xc
 5703 084f D0       		.byte	0xd0
 5704 0850 2A040000 		.4byte	0x42a
 5705 0854 28       		.byte	0x28
 5706 0855 11       		.uleb128 0x11
 5707 0856 4F060000 		.4byte	.LASF134
 5708 085a 0C       		.byte	0xc
 5709 085b D3       		.byte	0xd3
 5710 085c A2000000 		.4byte	0xa2
 5711 0860 30       		.byte	0x30
 5712 0861 11       		.uleb128 0x11
ARM GAS  C:\Users\strap\AppData\Local\Temp\cc4VwSsz.s 			page 142


 5713 0862 0A130000 		.4byte	.LASF135
 5714 0866 0C       		.byte	0xc
 5715 0867 D4       		.byte	0xd4
 5716 0868 A2000000 		.4byte	0xa2
 5717 086c 31       		.byte	0x31
 5718 086d 11       		.uleb128 0x11
 5719 086e 79080000 		.4byte	.LASF136
 5720 0872 0C       		.byte	0xc
 5721 0873 D9       		.byte	0xd9
 5722 0874 D9000000 		.4byte	0xd9
 5723 0878 32       		.byte	0x32
 5724 0879 0B       		.uleb128 0xb
 5725 087a 1F060000 		.4byte	.LASF137
 5726 087e 0C       		.byte	0xc
 5727 087f DC       		.byte	0xdc
 5728 0880 A2000000 		.4byte	0xa2
 5729 0884 01       		.byte	0x1
 5730 0885 01       		.byte	0x1
 5731 0886 07       		.byte	0x7
 5732 0887 34       		.byte	0x34
 5733 0888 0B       		.uleb128 0xb
 5734 0889 0B140000 		.4byte	.LASF138
 5735 088d 0C       		.byte	0xc
 5736 088e DD       		.byte	0xdd
 5737 088f A2000000 		.4byte	0xa2
 5738 0893 01       		.byte	0x1
 5739 0894 01       		.byte	0x1
 5740 0895 06       		.byte	0x6
 5741 0896 34       		.byte	0x34
 5742 0897 0B       		.uleb128 0xb
 5743 0898 25080000 		.4byte	.LASF139
 5744 089c 0C       		.byte	0xc
 5745 089d DE       		.byte	0xde
 5746 089e A2000000 		.4byte	0xa2
 5747 08a2 01       		.byte	0x1
 5748 08a3 01       		.byte	0x1
 5749 08a4 05       		.byte	0x5
 5750 08a5 34       		.byte	0x34
 5751 08a6 0B       		.uleb128 0xb
 5752 08a7 06160000 		.4byte	.LASF140
 5753 08ab 0C       		.byte	0xc
 5754 08ac DF       		.byte	0xdf
 5755 08ad A2000000 		.4byte	0xa2
 5756 08b1 01       		.byte	0x1
 5757 08b2 01       		.byte	0x1
 5758 08b3 04       		.byte	0x4
 5759 08b4 34       		.byte	0x34
 5760 08b5 0B       		.uleb128 0xb
 5761 08b6 6D030000 		.4byte	.LASF141
 5762 08ba 0C       		.byte	0xc
 5763 08bb E0       		.byte	0xe0
 5764 08bc A2000000 		.4byte	0xa2
 5765 08c0 01       		.byte	0x1
 5766 08c1 01       		.byte	0x1
 5767 08c2 03       		.byte	0x3
 5768 08c3 34       		.byte	0x34
 5769 08c4 0C       		.uleb128 0xc
ARM GAS  C:\Users\strap\AppData\Local\Temp\cc4VwSsz.s 			page 143


 5770 08c5 746F7000 		.ascii	"top\000"
 5771 08c9 0C       		.byte	0xc
 5772 08ca E1       		.byte	0xe1
 5773 08cb A2000000 		.4byte	0xa2
 5774 08cf 01       		.byte	0x1
 5775 08d0 01       		.byte	0x1
 5776 08d1 02       		.byte	0x2
 5777 08d2 34       		.byte	0x34
 5778 08d3 0B       		.uleb128 0xb
 5779 08d4 FD0C0000 		.4byte	.LASF142
 5780 08d8 0C       		.byte	0xc
 5781 08d9 E2       		.byte	0xe2
 5782 08da A2000000 		.4byte	0xa2
 5783 08de 01       		.byte	0x1
 5784 08df 01       		.byte	0x1
 5785 08e0 01       		.byte	0x1
 5786 08e1 34       		.byte	0x34
 5787 08e2 0B       		.uleb128 0xb
 5788 08e3 200A0000 		.4byte	.LASF143
 5789 08e7 0C       		.byte	0xc
 5790 08e8 E3       		.byte	0xe3
 5791 08e9 A2000000 		.4byte	0xa2
 5792 08ed 01       		.byte	0x1
 5793 08ee 01       		.byte	0x1
 5794 08ef 00       		.byte	0
 5795 08f0 34       		.byte	0x34
 5796 08f1 0B       		.uleb128 0xb
 5797 08f2 DE060000 		.4byte	.LASF144
 5798 08f6 0C       		.byte	0xc
 5799 08f7 E4       		.byte	0xe4
 5800 08f8 A2000000 		.4byte	0xa2
 5801 08fc 01       		.byte	0x1
 5802 08fd 01       		.byte	0x1
 5803 08fe 07       		.byte	0x7
 5804 08ff 35       		.byte	0x35
 5805 0900 0B       		.uleb128 0xb
 5806 0901 31060000 		.4byte	.LASF145
 5807 0905 0C       		.byte	0xc
 5808 0906 E5       		.byte	0xe5
 5809 0907 A2000000 		.4byte	0xa2
 5810 090b 01       		.byte	0x1
 5811 090c 01       		.byte	0x1
 5812 090d 06       		.byte	0x6
 5813 090e 35       		.byte	0x35
 5814 090f 0B       		.uleb128 0xb
 5815 0910 F1050000 		.4byte	.LASF146
 5816 0914 0C       		.byte	0xc
 5817 0915 E7       		.byte	0xe7
 5818 0916 210A0000 		.4byte	0xa21
 5819 091a 01       		.byte	0x1
 5820 091b 03       		.byte	0x3
 5821 091c 03       		.byte	0x3
 5822 091d 35       		.byte	0x35
 5823 091e 0B       		.uleb128 0xb
 5824 091f 4D140000 		.4byte	.LASF147
 5825 0923 0C       		.byte	0xc
 5826 0924 E8       		.byte	0xe8
ARM GAS  C:\Users\strap\AppData\Local\Temp\cc4VwSsz.s 			page 144


 5827 0925 040E0000 		.4byte	0xe04
 5828 0929 01       		.byte	0x1
 5829 092a 02       		.byte	0x2
 5830 092b 01       		.byte	0x1
 5831 092c 35       		.byte	0x35
 5832 092d 11       		.uleb128 0x11
 5833 092e 09080000 		.4byte	.LASF148
 5834 0932 0C       		.byte	0xc
 5835 0933 EB       		.byte	0xeb
 5836 0934 E4000000 		.4byte	0xe4
 5837 0938 38       		.byte	0x38
 5838 0939 11       		.uleb128 0x11
 5839 093a CB0C0000 		.4byte	.LASF149
 5840 093e 0C       		.byte	0xc
 5841 093f EE       		.byte	0xee
 5842 0940 A2000000 		.4byte	0xa2
 5843 0944 3C       		.byte	0x3c
 5844 0945 11       		.uleb128 0x11
 5845 0946 88010000 		.4byte	.LASF150
 5846 094a 0C       		.byte	0xc
 5847 094b F0       		.byte	0xf0
 5848 094c CB100000 		.4byte	0x10cb
 5849 0950 3D       		.byte	0x3d
 5850 0951 11       		.uleb128 0x11
 5851 0952 28090000 		.4byte	.LASF151
 5852 0956 0C       		.byte	0xc
 5853 0957 F3       		.byte	0xf3
 5854 0958 52100000 		.4byte	0x1052
 5855 095c 40       		.byte	0x40
 5856 095d 11       		.uleb128 0x11
 5857 095e BF170000 		.4byte	.LASF80
 5858 0962 0C       		.byte	0xc
 5859 0963 F7       		.byte	0xf7
 5860 0964 09010000 		.4byte	0x109
 5861 0968 4C       		.byte	0x4c
 5862 0969 00       		.byte	0
 5863 096a 10       		.uleb128 0x10
 5864 096b 04       		.byte	0x4
 5865 096c E9070000 		.4byte	0x7e9
 5866 0970 10       		.uleb128 0x10
 5867 0971 04       		.byte	0x4
 5868 0972 76090000 		.4byte	0x976
 5869 0976 1A       		.uleb128 0x1a
 5870 0977 1B       		.uleb128 0x1b
 5871 0978 AB010000 		.4byte	0x1ab
 5872 097c 87090000 		.4byte	0x987
 5873 0980 1C       		.uleb128 0x1c
 5874 0981 1C010000 		.4byte	0x11c
 5875 0985 1F       		.byte	0x1f
 5876 0986 00       		.byte	0
 5877 0987 1B       		.uleb128 0x1b
 5878 0988 A2000000 		.4byte	0xa2
 5879 098c 97090000 		.4byte	0x997
 5880 0990 1C       		.uleb128 0x1c
 5881 0991 1C010000 		.4byte	0x11c
 5882 0995 1F       		.byte	0x1f
 5883 0996 00       		.byte	0
ARM GAS  C:\Users\strap\AppData\Local\Temp\cc4VwSsz.s 			page 145


 5884 0997 03       		.uleb128 0x3
 5885 0998 4F000000 		.4byte	.LASF152
 5886 099c 0B       		.byte	0xb
 5887 099d AF       		.byte	0xaf
 5888 099e 18070000 		.4byte	0x718
 5889 09a2 07       		.uleb128 0x7
 5890 09a3 01       		.byte	0x1
 5891 09a4 37000000 		.4byte	0x37
 5892 09a8 0D       		.byte	0xd
 5893 09a9 27       		.byte	0x27
 5894 09aa CD090000 		.4byte	0x9cd
 5895 09ae 08       		.uleb128 0x8
 5896 09af A3170000 		.4byte	.LASF153
 5897 09b3 00       		.byte	0
 5898 09b4 08       		.uleb128 0x8
 5899 09b5 DB0F0000 		.4byte	.LASF154
 5900 09b9 01       		.byte	0x1
 5901 09ba 08       		.uleb128 0x8
 5902 09bb A6120000 		.4byte	.LASF155
 5903 09bf 02       		.byte	0x2
 5904 09c0 08       		.uleb128 0x8
 5905 09c1 B90B0000 		.4byte	.LASF156
 5906 09c5 03       		.byte	0x3
 5907 09c6 08       		.uleb128 0x8
 5908 09c7 03090000 		.4byte	.LASF157
 5909 09cb 04       		.byte	0x4
 5910 09cc 00       		.byte	0
 5911 09cd 03       		.uleb128 0x3
 5912 09ce 840B0000 		.4byte	.LASF158
 5913 09d2 0D       		.byte	0xd
 5914 09d3 2F       		.byte	0x2f
 5915 09d4 A2000000 		.4byte	0xa2
 5916 09d8 07       		.uleb128 0x7
 5917 09d9 01       		.byte	0x1
 5918 09da 37000000 		.4byte	0x37
 5919 09de 0D       		.byte	0xd
 5920 09df 32       		.byte	0x32
 5921 09e0 F1090000 		.4byte	0x9f1
 5922 09e4 08       		.uleb128 0x8
 5923 09e5 2A170000 		.4byte	.LASF159
 5924 09e9 00       		.byte	0
 5925 09ea 08       		.uleb128 0x8
 5926 09eb 76070000 		.4byte	.LASF160
 5927 09ef 01       		.byte	0x1
 5928 09f0 00       		.byte	0
 5929 09f1 03       		.uleb128 0x3
 5930 09f2 35140000 		.4byte	.LASF161
 5931 09f6 0D       		.byte	0xd
 5932 09f7 33       		.byte	0x33
 5933 09f8 A2000000 		.4byte	0xa2
 5934 09fc 07       		.uleb128 0x7
 5935 09fd 01       		.byte	0x1
 5936 09fe 37000000 		.4byte	0x37
 5937 0a02 0D       		.byte	0xd
 5938 0a03 36       		.byte	0x36
 5939 0a04 210A0000 		.4byte	0xa21
 5940 0a08 08       		.uleb128 0x8
ARM GAS  C:\Users\strap\AppData\Local\Temp\cc4VwSsz.s 			page 146


 5941 0a09 45030000 		.4byte	.LASF162
 5942 0a0d 01       		.byte	0x1
 5943 0a0e 08       		.uleb128 0x8
 5944 0a0f 250F0000 		.4byte	.LASF163
 5945 0a13 02       		.byte	0x2
 5946 0a14 08       		.uleb128 0x8
 5947 0a15 7D0C0000 		.4byte	.LASF164
 5948 0a19 03       		.byte	0x3
 5949 0a1a 08       		.uleb128 0x8
 5950 0a1b A00C0000 		.4byte	.LASF165
 5951 0a1f 04       		.byte	0x4
 5952 0a20 00       		.byte	0
 5953 0a21 03       		.uleb128 0x3
 5954 0a22 9F0F0000 		.4byte	.LASF166
 5955 0a26 0D       		.byte	0xd
 5956 0a27 3D       		.byte	0x3d
 5957 0a28 A2000000 		.4byte	0xa2
 5958 0a2c 07       		.uleb128 0x7
 5959 0a2d 01       		.byte	0x1
 5960 0a2e 37000000 		.4byte	0x37
 5961 0a32 0D       		.byte	0xd
 5962 0a33 3F       		.byte	0x3f
 5963 0a34 510A0000 		.4byte	0xa51
 5964 0a38 08       		.uleb128 0x8
 5965 0a39 F5100000 		.4byte	.LASF167
 5966 0a3d 00       		.byte	0
 5967 0a3e 08       		.uleb128 0x8
 5968 0a3f 72010000 		.4byte	.LASF168
 5969 0a43 01       		.byte	0x1
 5970 0a44 08       		.uleb128 0x8
 5971 0a45 49110000 		.4byte	.LASF169
 5972 0a49 02       		.byte	0x2
 5973 0a4a 08       		.uleb128 0x8
 5974 0a4b 34150000 		.4byte	.LASF170
 5975 0a4f 03       		.byte	0x3
 5976 0a50 00       		.byte	0
 5977 0a51 03       		.uleb128 0x3
 5978 0a52 65070000 		.4byte	.LASF171
 5979 0a56 0D       		.byte	0xd
 5980 0a57 45       		.byte	0x45
 5981 0a58 A2000000 		.4byte	0xa2
 5982 0a5c 09       		.uleb128 0x9
 5983 0a5d 10       		.byte	0x10
 5984 0a5e 0D       		.byte	0xd
 5985 0a5f 48       		.byte	0x48
 5986 0a60 A10A0000 		.4byte	0xaa1
 5987 0a64 11       		.uleb128 0x11
 5988 0a65 F7020000 		.4byte	.LASF172
 5989 0a69 0D       		.byte	0xd
 5990 0a6a 49       		.byte	0x49
 5991 0a6b 6B010000 		.4byte	0x16b
 5992 0a6f 00       		.byte	0
 5993 0a70 0A       		.uleb128 0xa
 5994 0a71 6B657900 		.ascii	"key\000"
 5995 0a75 0D       		.byte	0xd
 5996 0a76 4A       		.byte	0x4a
 5997 0a77 CE000000 		.4byte	0xce
ARM GAS  C:\Users\strap\AppData\Local\Temp\cc4VwSsz.s 			page 147


 5998 0a7b 04       		.byte	0x4
 5999 0a7c 11       		.uleb128 0x11
 6000 0a7d D7060000 		.4byte	.LASF173
 6001 0a81 0D       		.byte	0xd
 6002 0a82 4B       		.byte	0x4b
 6003 0a83 CE000000 		.4byte	0xce
 6004 0a87 08       		.byte	0x8
 6005 0a88 11       		.uleb128 0x11
 6006 0a89 110E0000 		.4byte	.LASF174
 6007 0a8d 0D       		.byte	0xd
 6008 0a8e 4C       		.byte	0x4c
 6009 0a8f AD000000 		.4byte	0xad
 6010 0a93 0C       		.byte	0xc
 6011 0a94 11       		.uleb128 0x11
 6012 0a95 88010000 		.4byte	.LASF150
 6013 0a99 0D       		.byte	0xd
 6014 0a9a 4E       		.byte	0x4e
 6015 0a9b F1090000 		.4byte	0x9f1
 6016 0a9f 0E       		.byte	0xe
 6017 0aa0 00       		.byte	0
 6018 0aa1 03       		.uleb128 0x3
 6019 0aa2 7F160000 		.4byte	.LASF175
 6020 0aa6 0D       		.byte	0xd
 6021 0aa7 4F       		.byte	0x4f
 6022 0aa8 5C0A0000 		.4byte	0xa5c
 6023 0aac 14       		.uleb128 0x14
 6024 0aad BB020000 		.4byte	.LASF176
 6025 0ab1 20       		.byte	0x20
 6026 0ab2 0D       		.byte	0xd
 6027 0ab3 53       		.byte	0x53
 6028 0ab4 490B0000 		.4byte	0xb49
 6029 0ab8 11       		.uleb128 0x11
 6030 0ab9 41020000 		.4byte	.LASF177
 6031 0abd 0D       		.byte	0xd
 6032 0abe 56       		.byte	0x56
 6033 0abf CD090000 		.4byte	0x9cd
 6034 0ac3 00       		.byte	0
 6035 0ac4 11       		.uleb128 0x11
 6036 0ac5 D9040000 		.4byte	.LASF178
 6037 0ac9 0D       		.byte	0xd
 6038 0aca 5B       		.byte	0x5b
 6039 0acb 690B0000 		.4byte	0xb69
 6040 0acf 04       		.byte	0x4
 6041 0ad0 11       		.uleb128 0x11
 6042 0ad1 75100000 		.4byte	.LASF179
 6043 0ad5 0D       		.byte	0xd
 6044 0ad6 5F       		.byte	0x5f
 6045 0ad7 7F0B0000 		.4byte	0xb7f
 6046 0adb 08       		.byte	0x8
 6047 0adc 11       		.uleb128 0x11
 6048 0add BF170000 		.4byte	.LASF80
 6049 0ae1 0D       		.byte	0xd
 6050 0ae2 62       		.byte	0x62
 6051 0ae3 FD000000 		.4byte	0xfd
 6052 0ae7 0C       		.byte	0xc
 6053 0ae8 11       		.uleb128 0x11
 6054 0ae9 F50D0000 		.4byte	.LASF180
ARM GAS  C:\Users\strap\AppData\Local\Temp\cc4VwSsz.s 			page 148


 6055 0aed 0D       		.byte	0xd
 6056 0aee 66       		.byte	0x66
 6057 0aef 850B0000 		.4byte	0xb85
 6058 0af3 10       		.byte	0x10
 6059 0af4 11       		.uleb128 0x11
 6060 0af5 32100000 		.4byte	.LASF181
 6061 0af9 0D       		.byte	0xd
 6062 0afa 69       		.byte	0x69
 6063 0afb E3070000 		.4byte	0x7e3
 6064 0aff 14       		.byte	0x14
 6065 0b00 11       		.uleb128 0x11
 6066 0b01 4F160000 		.4byte	.LASF182
 6067 0b05 0D       		.byte	0xd
 6068 0b06 6C       		.byte	0x6c
 6069 0b07 A2000000 		.4byte	0xa2
 6070 0b0b 18       		.byte	0x18
 6071 0b0c 11       		.uleb128 0x11
 6072 0b0d 25080000 		.4byte	.LASF139
 6073 0b11 0D       		.byte	0xd
 6074 0b12 6F       		.byte	0x6f
 6075 0b13 A2000000 		.4byte	0xa2
 6076 0b17 19       		.byte	0x19
 6077 0b18 11       		.uleb128 0x11
 6078 0b19 56170000 		.4byte	.LASF183
 6079 0b1d 0D       		.byte	0xd
 6080 0b1e 72       		.byte	0x72
 6081 0b1f A2000000 		.4byte	0xa2
 6082 0b23 1A       		.byte	0x1a
 6083 0b24 11       		.uleb128 0x11
 6084 0b25 51180000 		.4byte	.LASF184
 6085 0b29 0D       		.byte	0xd
 6086 0b2a 75       		.byte	0x75
 6087 0b2b A2000000 		.4byte	0xa2
 6088 0b2f 1B       		.byte	0x1b
 6089 0b30 11       		.uleb128 0x11
 6090 0b31 A6110000 		.4byte	.LASF185
 6091 0b35 0D       		.byte	0xd
 6092 0b36 78       		.byte	0x78
 6093 0b37 B8000000 		.4byte	0xb8
 6094 0b3b 1C       		.byte	0x1c
 6095 0b3c 11       		.uleb128 0x11
 6096 0b3d 86080000 		.4byte	.LASF186
 6097 0b41 0D       		.byte	0xd
 6098 0b42 7B       		.byte	0x7b
 6099 0b43 B8000000 		.4byte	0xb8
 6100 0b47 1E       		.byte	0x1e
 6101 0b48 00       		.byte	0
 6102 0b49 1D       		.uleb128 0x1d
 6103 0b4a C1010000 		.4byte	0x1c1
 6104 0b4e 5D0B0000 		.4byte	0xb5d
 6105 0b52 13       		.uleb128 0x13
 6106 0b53 5D0B0000 		.4byte	0xb5d
 6107 0b57 13       		.uleb128 0x13
 6108 0b58 630B0000 		.4byte	0xb63
 6109 0b5c 00       		.byte	0
 6110 0b5d 10       		.uleb128 0x10
 6111 0b5e 04       		.byte	0x4
ARM GAS  C:\Users\strap\AppData\Local\Temp\cc4VwSsz.s 			page 149


 6112 0b5f AC0A0000 		.4byte	0xaac
 6113 0b63 10       		.uleb128 0x10
 6114 0b64 04       		.byte	0x4
 6115 0b65 A10A0000 		.4byte	0xaa1
 6116 0b69 10       		.uleb128 0x10
 6117 0b6a 04       		.byte	0x4
 6118 0b6b 490B0000 		.4byte	0xb49
 6119 0b6f 12       		.uleb128 0x12
 6120 0b70 7F0B0000 		.4byte	0xb7f
 6121 0b74 13       		.uleb128 0x13
 6122 0b75 5D0B0000 		.4byte	0xb5d
 6123 0b79 13       		.uleb128 0x13
 6124 0b7a A2000000 		.4byte	0xa2
 6125 0b7e 00       		.byte	0
 6126 0b7f 10       		.uleb128 0x10
 6127 0b80 04       		.byte	0x4
 6128 0b81 6F0B0000 		.4byte	0xb6f
 6129 0b85 10       		.uleb128 0x10
 6130 0b86 04       		.byte	0x4
 6131 0b87 18070000 		.4byte	0x718
 6132 0b8b 03       		.uleb128 0x3
 6133 0b8c FC130000 		.4byte	.LASF187
 6134 0b90 0D       		.byte	0xd
 6135 0b91 7C       		.byte	0x7c
 6136 0b92 AC0A0000 		.4byte	0xaac
 6137 0b96 09       		.uleb128 0x9
 6138 0b97 28       		.byte	0x28
 6139 0b98 0D       		.byte	0xd
 6140 0b99 84       		.byte	0x84
 6141 0b9a 530C0000 		.4byte	0xc53
 6142 0b9e 11       		.uleb128 0x11
 6143 0b9f 600B0000 		.4byte	.LASF188
 6144 0ba3 0D       		.byte	0xd
 6145 0ba4 86       		.byte	0x86
 6146 0ba5 6B010000 		.4byte	0x16b
 6147 0ba9 00       		.byte	0
 6148 0baa 11       		.uleb128 0x11
 6149 0bab DD0C0000 		.4byte	.LASF189
 6150 0baf 0D       		.byte	0xd
 6151 0bb0 87       		.byte	0x87
 6152 0bb1 6B010000 		.4byte	0x16b
 6153 0bb5 04       		.byte	0x4
 6154 0bb6 11       		.uleb128 0x11
 6155 0bb7 AD0F0000 		.4byte	.LASF190
 6156 0bbb 0D       		.byte	0xd
 6157 0bbc 88       		.byte	0x88
 6158 0bbd 6B010000 		.4byte	0x16b
 6159 0bc1 08       		.byte	0x8
 6160 0bc2 11       		.uleb128 0x11
 6161 0bc3 C20F0000 		.4byte	.LASF191
 6162 0bc7 0D       		.byte	0xd
 6163 0bc8 89       		.byte	0x89
 6164 0bc9 6B010000 		.4byte	0x16b
 6165 0bcd 0C       		.byte	0xc
 6166 0bce 11       		.uleb128 0x11
 6167 0bcf F9060000 		.4byte	.LASF192
 6168 0bd3 0D       		.byte	0xd
ARM GAS  C:\Users\strap\AppData\Local\Temp\cc4VwSsz.s 			page 150


 6169 0bd4 8A       		.byte	0x8a
 6170 0bd5 6B010000 		.4byte	0x16b
 6171 0bd9 10       		.byte	0x10
 6172 0bda 11       		.uleb128 0x11
 6173 0bdb F50C0000 		.4byte	.LASF193
 6174 0bdf 0D       		.byte	0xd
 6175 0be0 8B       		.byte	0x8b
 6176 0be1 6A090000 		.4byte	0x96a
 6177 0be5 14       		.byte	0x14
 6178 0be6 11       		.uleb128 0x11
 6179 0be7 7B0B0000 		.4byte	.LASF194
 6180 0beb 0D       		.byte	0xd
 6181 0bec 8C       		.byte	0x8c
 6182 0bed 6A090000 		.4byte	0x96a
 6183 0bf1 18       		.byte	0x18
 6184 0bf2 11       		.uleb128 0x11
 6185 0bf3 F4040000 		.4byte	.LASF195
 6186 0bf7 0D       		.byte	0xd
 6187 0bf8 8E       		.byte	0x8e
 6188 0bf9 6A090000 		.4byte	0x96a
 6189 0bfd 1C       		.byte	0x1c
 6190 0bfe 11       		.uleb128 0x11
 6191 0bff CD130000 		.4byte	.LASF196
 6192 0c03 0D       		.byte	0xd
 6193 0c04 90       		.byte	0x90
 6194 0c05 510A0000 		.4byte	0xa51
 6195 0c09 20       		.byte	0x20
 6196 0c0a 11       		.uleb128 0x11
 6197 0c0b E8040000 		.4byte	.LASF197
 6198 0c0f 0D       		.byte	0xd
 6199 0c10 91       		.byte	0x91
 6200 0c11 6B010000 		.4byte	0x16b
 6201 0c15 22       		.byte	0x22
 6202 0c16 0B       		.uleb128 0xb
 6203 0c17 BE130000 		.4byte	.LASF198
 6204 0c1b 0D       		.byte	0xd
 6205 0c1c 93       		.byte	0x93
 6206 0c1d A2000000 		.4byte	0xa2
 6207 0c21 01       		.byte	0x1
 6208 0c22 01       		.byte	0x1
 6209 0c23 07       		.byte	0x7
 6210 0c24 26       		.byte	0x26
 6211 0c25 0B       		.uleb128 0xb
 6212 0c26 55130000 		.4byte	.LASF199
 6213 0c2a 0D       		.byte	0xd
 6214 0c2b 94       		.byte	0x94
 6215 0c2c A2000000 		.4byte	0xa2
 6216 0c30 01       		.byte	0x1
 6217 0c31 01       		.byte	0x1
 6218 0c32 06       		.byte	0x6
 6219 0c33 26       		.byte	0x26
 6220 0c34 0B       		.uleb128 0xb
 6221 0c35 F1050000 		.4byte	.LASF146
 6222 0c39 0D       		.byte	0xd
 6223 0c3a 95       		.byte	0x95
 6224 0c3b 210A0000 		.4byte	0xa21
 6225 0c3f 01       		.byte	0x1
ARM GAS  C:\Users\strap\AppData\Local\Temp\cc4VwSsz.s 			page 151


 6226 0c40 03       		.byte	0x3
 6227 0c41 03       		.byte	0x3
 6228 0c42 26       		.byte	0x26
 6229 0c43 0B       		.uleb128 0xb
 6230 0c44 EF130000 		.4byte	.LASF200
 6231 0c48 0D       		.byte	0xd
 6232 0c49 96       		.byte	0x96
 6233 0c4a A2000000 		.4byte	0xa2
 6234 0c4e 01       		.byte	0x1
 6235 0c4f 01       		.byte	0x1
 6236 0c50 02       		.byte	0x2
 6237 0c51 26       		.byte	0x26
 6238 0c52 00       		.byte	0
 6239 0c53 09       		.uleb128 0x9
 6240 0c54 08       		.byte	0x8
 6241 0c55 0D       		.byte	0xd
 6242 0c56 98       		.byte	0x98
 6243 0c57 740C0000 		.4byte	0xc74
 6244 0c5b 11       		.uleb128 0x11
 6245 0c5c C3030000 		.4byte	.LASF201
 6246 0c60 0D       		.byte	0xd
 6247 0c61 9A       		.byte	0x9a
 6248 0c62 F1090000 		.4byte	0x9f1
 6249 0c66 00       		.byte	0
 6250 0c67 11       		.uleb128 0x11
 6251 0c68 9B090000 		.4byte	.LASF202
 6252 0c6c 0D       		.byte	0xd
 6253 0c6d 9B       		.byte	0x9b
 6254 0c6e CE000000 		.4byte	0xce
 6255 0c72 04       		.byte	0x4
 6256 0c73 00       		.byte	0
 6257 0c74 0D       		.uleb128 0xd
 6258 0c75 28       		.byte	0x28
 6259 0c76 0D       		.byte	0xd
 6260 0c77 83       		.byte	0x83
 6261 0c78 930C0000 		.4byte	0xc93
 6262 0c7c 0F       		.uleb128 0xf
 6263 0c7d F0070000 		.4byte	.LASF203
 6264 0c81 0D       		.byte	0xd
 6265 0c82 97       		.byte	0x97
 6266 0c83 960B0000 		.4byte	0xb96
 6267 0c87 0F       		.uleb128 0xf
 6268 0c88 4F170000 		.4byte	.LASF204
 6269 0c8c 0D       		.byte	0xd
 6270 0c8d 9C       		.byte	0x9c
 6271 0c8e 530C0000 		.4byte	0xc53
 6272 0c92 00       		.byte	0
 6273 0c93 14       		.uleb128 0x14
 6274 0c94 38110000 		.4byte	.LASF205
 6275 0c98 38       		.byte	0x38
 6276 0c99 0D       		.byte	0xd
 6277 0c9a 81       		.byte	0x81
 6278 0c9b 0C0D0000 		.4byte	0xd0c
 6279 0c9f 11       		.uleb128 0x11
 6280 0ca0 88010000 		.4byte	.LASF150
 6281 0ca4 0D       		.byte	0xd
 6282 0ca5 82       		.byte	0x82
ARM GAS  C:\Users\strap\AppData\Local\Temp\cc4VwSsz.s 			page 152


 6283 0ca6 F1090000 		.4byte	0x9f1
 6284 0caa 00       		.byte	0
 6285 0cab 11       		.uleb128 0x11
 6286 0cac A1180000 		.4byte	.LASF206
 6287 0cb0 0D       		.byte	0xd
 6288 0cb1 9D       		.byte	0x9d
 6289 0cb2 740C0000 		.4byte	0xc74
 6290 0cb6 04       		.byte	0x4
 6291 0cb7 11       		.uleb128 0x11
 6292 0cb8 F10F0000 		.4byte	.LASF207
 6293 0cbc 0D       		.byte	0xd
 6294 0cbd 9F       		.byte	0x9f
 6295 0cbe CE000000 		.4byte	0xce
 6296 0cc2 2C       		.byte	0x2c
 6297 0cc3 11       		.uleb128 0x11
 6298 0cc4 36130000 		.4byte	.LASF208
 6299 0cc8 0D       		.byte	0xd
 6300 0cc9 A0       		.byte	0xa0
 6301 0cca CE000000 		.4byte	0xce
 6302 0cce 30       		.byte	0x30
 6303 0ccf 0B       		.uleb128 0xb
 6304 0cd0 1B180000 		.4byte	.LASF209
 6305 0cd4 0D       		.byte	0xd
 6306 0cd5 A3       		.byte	0xa3
 6307 0cd6 A2000000 		.4byte	0xa2
 6308 0cda 01       		.byte	0x1
 6309 0cdb 01       		.byte	0x1
 6310 0cdc 07       		.byte	0x7
 6311 0cdd 34       		.byte	0x34
 6312 0cde 0B       		.uleb128 0xb
 6313 0cdf 5A120000 		.4byte	.LASF210
 6314 0ce3 0D       		.byte	0xd
 6315 0ce4 A4       		.byte	0xa4
 6316 0ce5 A2000000 		.4byte	0xa2
 6317 0ce9 01       		.byte	0x1
 6318 0cea 01       		.byte	0x1
 6319 0ceb 06       		.byte	0x6
 6320 0cec 34       		.byte	0x34
 6321 0ced 0B       		.uleb128 0xb
 6322 0cee E0090000 		.4byte	.LASF211
 6323 0cf2 0D       		.byte	0xd
 6324 0cf3 A5       		.byte	0xa5
 6325 0cf4 A2000000 		.4byte	0xa2
 6326 0cf8 01       		.byte	0x1
 6327 0cf9 01       		.byte	0x1
 6328 0cfa 05       		.byte	0x5
 6329 0cfb 34       		.byte	0x34
 6330 0cfc 0B       		.uleb128 0xb
 6331 0cfd 73090000 		.4byte	.LASF212
 6332 0d01 0D       		.byte	0xd
 6333 0d02 A6       		.byte	0xa6
 6334 0d03 A2000000 		.4byte	0xa2
 6335 0d07 01       		.byte	0x1
 6336 0d08 01       		.byte	0x1
 6337 0d09 04       		.byte	0x4
 6338 0d0a 34       		.byte	0x34
 6339 0d0b 00       		.byte	0
ARM GAS  C:\Users\strap\AppData\Local\Temp\cc4VwSsz.s 			page 153


 6340 0d0c 03       		.uleb128 0x3
 6341 0d0d B9150000 		.4byte	.LASF213
 6342 0d11 0D       		.byte	0xd
 6343 0d12 A7       		.byte	0xa7
 6344 0d13 930C0000 		.4byte	0xc93
 6345 0d17 14       		.uleb128 0x14
 6346 0d18 2B030000 		.4byte	.LASF214
 6347 0d1c 64       		.byte	0x64
 6348 0d1d 0D       		.byte	0xd
 6349 0d1e AE       		.byte	0xae
 6350 0d1f 600D0000 		.4byte	0xd60
 6351 0d23 11       		.uleb128 0x11
 6352 0d24 46140000 		.4byte	.LASF111
 6353 0d28 0D       		.byte	0xd
 6354 0d29 AF       		.byte	0xaf
 6355 0d2a 8B0B0000 		.4byte	0xb8b
 6356 0d2e 00       		.byte	0
 6357 0d2f 11       		.uleb128 0x11
 6358 0d30 46070000 		.4byte	.LASF215
 6359 0d34 0D       		.byte	0xd
 6360 0d35 B0       		.byte	0xb0
 6361 0d36 0C0D0000 		.4byte	0xd0c
 6362 0d3a 20       		.byte	0x20
 6363 0d3b 11       		.uleb128 0x11
 6364 0d3c C2180000 		.4byte	.LASF216
 6365 0d40 0D       		.byte	0xd
 6366 0d41 B1       		.byte	0xb1
 6367 0d42 6A090000 		.4byte	0x96a
 6368 0d46 58       		.byte	0x58
 6369 0d47 11       		.uleb128 0x11
 6370 0d48 4D0B0000 		.4byte	.LASF217
 6371 0d4c 0D       		.byte	0xd
 6372 0d4d B2       		.byte	0xb2
 6373 0d4e E80D0000 		.4byte	0xde8
 6374 0d52 5C       		.byte	0x5c
 6375 0d53 11       		.uleb128 0x11
 6376 0d54 55090000 		.4byte	.LASF218
 6377 0d58 0D       		.byte	0xd
 6378 0d59 B3       		.byte	0xb3
 6379 0d5a EE0D0000 		.4byte	0xdee
 6380 0d5e 60       		.byte	0x60
 6381 0d5f 00       		.byte	0
 6382 0d60 14       		.uleb128 0x14
 6383 0d61 C9180000 		.4byte	.LASF219
 6384 0d65 1C       		.byte	0x1c
 6385 0d66 0E       		.byte	0xe
 6386 0d67 36       		.byte	0x36
 6387 0d68 E80D0000 		.4byte	0xde8
 6388 0d6c 11       		.uleb128 0x11
 6389 0d6d 010B0000 		.4byte	.LASF220
 6390 0d71 0E       		.byte	0xe
 6391 0d72 37       		.byte	0x37
 6392 0d73 74040000 		.4byte	0x474
 6393 0d77 00       		.byte	0
 6394 0d78 11       		.uleb128 0x11
 6395 0d79 0A190000 		.4byte	.LASF221
 6396 0d7d 0E       		.byte	0xe
ARM GAS  C:\Users\strap\AppData\Local\Temp\cc4VwSsz.s 			page 154


 6397 0d7e 38       		.byte	0x38
 6398 0d7f 7D110000 		.4byte	0x117d
 6399 0d83 0C       		.byte	0xc
 6400 0d84 11       		.uleb128 0x11
 6401 0d85 350F0000 		.4byte	.LASF222
 6402 0d89 0E       		.byte	0xe
 6403 0d8a 3A       		.byte	0x3a
 6404 0d8b 61110000 		.4byte	0x1161
 6405 0d8f 10       		.byte	0x10
 6406 0d90 11       		.uleb128 0x11
 6407 0d91 BF170000 		.4byte	.LASF80
 6408 0d95 0E       		.byte	0xe
 6409 0d96 3C       		.byte	0x3c
 6410 0d97 E6000000 		.4byte	0xe6
 6411 0d9b 14       		.byte	0x14
 6412 0d9c 0B       		.uleb128 0xb
 6413 0d9d E1040000 		.4byte	.LASF223
 6414 0da1 0E       		.byte	0xe
 6415 0da2 3F       		.byte	0x3f
 6416 0da3 A2000000 		.4byte	0xa2
 6417 0da7 01       		.byte	0x1
 6418 0da8 01       		.byte	0x1
 6419 0da9 07       		.byte	0x7
 6420 0daa 18       		.byte	0x18
 6421 0dab 0B       		.uleb128 0xb
 6422 0dac E7140000 		.4byte	.LASF224
 6423 0db0 0E       		.byte	0xe
 6424 0db1 40       		.byte	0x40
 6425 0db2 A2000000 		.4byte	0xa2
 6426 0db6 01       		.byte	0x1
 6427 0db7 01       		.byte	0x1
 6428 0db8 06       		.byte	0x6
 6429 0db9 18       		.byte	0x18
 6430 0dba 0B       		.uleb128 0xb
 6431 0dbb 25060000 		.4byte	.LASF225
 6432 0dbf 0E       		.byte	0xe
 6433 0dc0 41       		.byte	0x41
 6434 0dc1 A2000000 		.4byte	0xa2
 6435 0dc5 01       		.byte	0x1
 6436 0dc6 01       		.byte	0x1
 6437 0dc7 05       		.byte	0x5
 6438 0dc8 18       		.byte	0x18
 6439 0dc9 0B       		.uleb128 0xb
 6440 0dca 0C180000 		.4byte	.LASF226
 6441 0dce 0E       		.byte	0xe
 6442 0dcf 43       		.byte	0x43
 6443 0dd0 A2000000 		.4byte	0xa2
 6444 0dd4 01       		.byte	0x1
 6445 0dd5 01       		.byte	0x1
 6446 0dd6 04       		.byte	0x4
 6447 0dd7 18       		.byte	0x18
 6448 0dd8 0B       		.uleb128 0xb
 6449 0dd9 1A120000 		.4byte	.LASF227
 6450 0ddd 0E       		.byte	0xe
 6451 0dde 45       		.byte	0x45
 6452 0ddf A2000000 		.4byte	0xa2
 6453 0de3 01       		.byte	0x1
ARM GAS  C:\Users\strap\AppData\Local\Temp\cc4VwSsz.s 			page 155


 6454 0de4 01       		.byte	0x1
 6455 0de5 03       		.byte	0x3
 6456 0de6 18       		.byte	0x18
 6457 0de7 00       		.byte	0
 6458 0de8 10       		.uleb128 0x10
 6459 0de9 04       		.byte	0x4
 6460 0dea 600D0000 		.4byte	0xd60
 6461 0dee 10       		.uleb128 0x10
 6462 0def 04       		.byte	0x4
 6463 0df0 F40D0000 		.4byte	0xdf4
 6464 0df4 16       		.uleb128 0x16
 6465 0df5 6B010000 		.4byte	0x16b
 6466 0df9 03       		.uleb128 0x3
 6467 0dfa 4A090000 		.4byte	.LASF228
 6468 0dfe 0D       		.byte	0xd
 6469 0dff B5       		.byte	0xb5
 6470 0e00 170D0000 		.4byte	0xd17
 6471 0e04 03       		.uleb128 0x3
 6472 0e05 5A080000 		.4byte	.LASF229
 6473 0e09 0F       		.byte	0xf
 6474 0e0a 2B       		.byte	0x2b
 6475 0e0b A2000000 		.4byte	0xa2
 6476 0e0f 03       		.uleb128 0x3
 6477 0e10 FE0F0000 		.4byte	.LASF230
 6478 0e14 0C       		.byte	0xc
 6479 0e15 42       		.byte	0x42
 6480 0e16 A2000000 		.4byte	0xa2
 6481 0e1a 03       		.uleb128 0x3
 6482 0e1b 47010000 		.4byte	.LASF231
 6483 0e1f 0C       		.byte	0xc
 6484 0e20 4C       		.byte	0x4c
 6485 0e21 A2000000 		.4byte	0xa2
 6486 0e25 03       		.uleb128 0x3
 6487 0e26 FB180000 		.4byte	.LASF232
 6488 0e2a 0C       		.byte	0xc
 6489 0e2b 52       		.byte	0x52
 6490 0e2c 300E0000 		.4byte	0xe30
 6491 0e30 10       		.uleb128 0x10
 6492 0e31 04       		.byte	0x4
 6493 0e32 360E0000 		.4byte	0xe36
 6494 0e36 1D       		.uleb128 0x1d
 6495 0e37 1A0E0000 		.4byte	0xe1a
 6496 0e3b 4F0E0000 		.4byte	0xe4f
 6497 0e3f 13       		.uleb128 0x13
 6498 0e40 6A090000 		.4byte	0x96a
 6499 0e44 13       		.uleb128 0x13
 6500 0e45 7F060000 		.4byte	0x67f
 6501 0e49 13       		.uleb128 0x13
 6502 0e4a 0F0E0000 		.4byte	0xe0f
 6503 0e4e 00       		.byte	0
 6504 0e4f 07       		.uleb128 0x7
 6505 0e50 01       		.byte	0x1
 6506 0e51 37000000 		.4byte	0x37
 6507 0e55 0C       		.byte	0xc
 6508 0e56 54       		.byte	0x54
 6509 0e57 E60E0000 		.4byte	0xee6
 6510 0e5b 08       		.uleb128 0x8
ARM GAS  C:\Users\strap\AppData\Local\Temp\cc4VwSsz.s 			page 156


 6511 0e5c E40D0000 		.4byte	.LASF233
 6512 0e60 00       		.byte	0
 6513 0e61 08       		.uleb128 0x8
 6514 0e62 9E0E0000 		.4byte	.LASF234
 6515 0e66 01       		.byte	0x1
 6516 0e67 08       		.uleb128 0x8
 6517 0e68 C9170000 		.4byte	.LASF235
 6518 0e6c 02       		.byte	0x2
 6519 0e6d 08       		.uleb128 0x8
 6520 0e6e DF0E0000 		.4byte	.LASF236
 6521 0e72 03       		.byte	0x3
 6522 0e73 08       		.uleb128 0x8
 6523 0e74 57020000 		.4byte	.LASF237
 6524 0e78 04       		.byte	0x4
 6525 0e79 08       		.uleb128 0x8
 6526 0e7a 080F0000 		.4byte	.LASF238
 6527 0e7e 05       		.byte	0x5
 6528 0e7f 08       		.uleb128 0x8
 6529 0e80 D1080000 		.4byte	.LASF239
 6530 0e84 06       		.byte	0x6
 6531 0e85 08       		.uleb128 0x8
 6532 0e86 D5180000 		.4byte	.LASF240
 6533 0e8a 07       		.byte	0x7
 6534 0e8b 08       		.uleb128 0x8
 6535 0e8c 11080000 		.4byte	.LASF241
 6536 0e90 08       		.byte	0x8
 6537 0e91 08       		.uleb128 0x8
 6538 0e92 0F100000 		.4byte	.LASF242
 6539 0e96 09       		.byte	0x9
 6540 0e97 08       		.uleb128 0x8
 6541 0e98 30090000 		.4byte	.LASF243
 6542 0e9c 0A       		.byte	0xa
 6543 0e9d 08       		.uleb128 0x8
 6544 0e9e 46020000 		.4byte	.LASF244
 6545 0ea2 0B       		.byte	0xb
 6546 0ea3 08       		.uleb128 0x8
 6547 0ea4 8B170000 		.4byte	.LASF245
 6548 0ea8 0C       		.byte	0xc
 6549 0ea9 08       		.uleb128 0x8
 6550 0eaa DF070000 		.4byte	.LASF246
 6551 0eae 0D       		.byte	0xd
 6552 0eaf 08       		.uleb128 0x8
 6553 0eb0 C9150000 		.4byte	.LASF247
 6554 0eb4 0E       		.byte	0xe
 6555 0eb5 08       		.uleb128 0x8
 6556 0eb6 110A0000 		.4byte	.LASF248
 6557 0eba 0F       		.byte	0xf
 6558 0ebb 08       		.uleb128 0x8
 6559 0ebc 250E0000 		.4byte	.LASF249
 6560 0ec0 10       		.byte	0x10
 6561 0ec1 08       		.uleb128 0x8
 6562 0ec2 EE000000 		.4byte	.LASF250
 6563 0ec6 11       		.byte	0x11
 6564 0ec7 08       		.uleb128 0x8
 6565 0ec8 300B0000 		.4byte	.LASF251
 6566 0ecc 12       		.byte	0x12
 6567 0ecd 08       		.uleb128 0x8
ARM GAS  C:\Users\strap\AppData\Local\Temp\cc4VwSsz.s 			page 157


 6568 0ece 19090000 		.4byte	.LASF252
 6569 0ed2 13       		.byte	0x13
 6570 0ed3 08       		.uleb128 0x8
 6571 0ed4 E5100000 		.4byte	.LASF253
 6572 0ed8 14       		.byte	0x14
 6573 0ed9 08       		.uleb128 0x8
 6574 0eda 9D0D0000 		.4byte	.LASF254
 6575 0ede 15       		.byte	0x15
 6576 0edf 08       		.uleb128 0x8
 6577 0ee0 9E150000 		.4byte	.LASF255
 6578 0ee4 16       		.byte	0x16
 6579 0ee5 00       		.byte	0
 6580 0ee6 03       		.uleb128 0x3
 6581 0ee7 67010000 		.4byte	.LASF256
 6582 0eeb 0C       		.byte	0xc
 6583 0eec 6E       		.byte	0x6e
 6584 0eed A2000000 		.4byte	0xa2
 6585 0ef1 03       		.uleb128 0x3
 6586 0ef2 28180000 		.4byte	.LASF257
 6587 0ef6 0C       		.byte	0xc
 6588 0ef7 75       		.byte	0x75
 6589 0ef8 FC0E0000 		.4byte	0xefc
 6590 0efc 10       		.uleb128 0x10
 6591 0efd 04       		.byte	0x4
 6592 0efe 020F0000 		.4byte	0xf02
 6593 0f02 12       		.uleb128 0x12
 6594 0f03 120F0000 		.4byte	0xf12
 6595 0f07 13       		.uleb128 0x13
 6596 0f08 6A090000 		.4byte	0x96a
 6597 0f0c 13       		.uleb128 0x13
 6598 0f0d E60E0000 		.4byte	0xee6
 6599 0f11 00       		.byte	0
 6600 0f12 07       		.uleb128 0x7
 6601 0f13 01       		.byte	0x1
 6602 0f14 37000000 		.4byte	0x37
 6603 0f18 0C       		.byte	0xc
 6604 0f19 7A       		.byte	0x7a
 6605 0f1a BB0F0000 		.4byte	0xfbb
 6606 0f1e 08       		.uleb128 0x8
 6607 0f1f 0A0D0000 		.4byte	.LASF258
 6608 0f23 00       		.byte	0
 6609 0f24 08       		.uleb128 0x8
 6610 0f25 D00D0000 		.4byte	.LASF259
 6611 0f29 01       		.byte	0x1
 6612 0f2a 08       		.uleb128 0x8
 6613 0f2b 7B180000 		.4byte	.LASF260
 6614 0f2f 02       		.byte	0x2
 6615 0f30 08       		.uleb128 0x8
 6616 0f31 CB100000 		.4byte	.LASF261
 6617 0f35 03       		.byte	0x3
 6618 0f36 08       		.uleb128 0x8
 6619 0f37 83000000 		.4byte	.LASF262
 6620 0f3b 04       		.byte	0x4
 6621 0f3c 08       		.uleb128 0x8
 6622 0f3d 26160000 		.4byte	.LASF263
 6623 0f41 05       		.byte	0x5
 6624 0f42 08       		.uleb128 0x8
ARM GAS  C:\Users\strap\AppData\Local\Temp\cc4VwSsz.s 			page 158


 6625 0f43 D5050000 		.4byte	.LASF264
 6626 0f47 06       		.byte	0x6
 6627 0f48 08       		.uleb128 0x8
 6628 0f49 60090000 		.4byte	.LASF265
 6629 0f4d 07       		.byte	0x7
 6630 0f4e 08       		.uleb128 0x8
 6631 0f4f FD090000 		.4byte	.LASF266
 6632 0f53 08       		.byte	0x8
 6633 0f54 08       		.uleb128 0x8
 6634 0f55 55030000 		.4byte	.LASF267
 6635 0f59 09       		.byte	0x9
 6636 0f5a 08       		.uleb128 0x8
 6637 0f5b 33070000 		.4byte	.LASF268
 6638 0f5f 0A       		.byte	0xa
 6639 0f60 08       		.uleb128 0x8
 6640 0f61 1E020000 		.4byte	.LASF269
 6641 0f65 0B       		.byte	0xb
 6642 0f66 08       		.uleb128 0x8
 6643 0f67 CC0E0000 		.4byte	.LASF270
 6644 0f6b 0C       		.byte	0xc
 6645 0f6c 08       		.uleb128 0x8
 6646 0f6d 55100000 		.4byte	.LASF271
 6647 0f71 0D       		.byte	0xd
 6648 0f72 08       		.uleb128 0x8
 6649 0f73 08110000 		.4byte	.LASF272
 6650 0f77 0E       		.byte	0xe
 6651 0f78 08       		.uleb128 0x8
 6652 0f79 09010000 		.4byte	.LASF273
 6653 0f7d 0F       		.byte	0xf
 6654 0f7e 08       		.uleb128 0x8
 6655 0f7f 94050000 		.4byte	.LASF274
 6656 0f83 10       		.byte	0x10
 6657 0f84 08       		.uleb128 0x8
 6658 0f85 32010000 		.4byte	.LASF275
 6659 0f89 11       		.byte	0x11
 6660 0f8a 08       		.uleb128 0x8
 6661 0f8b 1E000000 		.4byte	.LASF276
 6662 0f8f 12       		.byte	0x12
 6663 0f90 08       		.uleb128 0x8
 6664 0f91 81100000 		.4byte	.LASF277
 6665 0f95 13       		.byte	0x13
 6666 0f96 08       		.uleb128 0x8
 6667 0f97 6B0C0000 		.4byte	.LASF278
 6668 0f9b 14       		.byte	0x14
 6669 0f9c 08       		.uleb128 0x8
 6670 0f9d 0E020000 		.4byte	.LASF279
 6671 0fa1 15       		.byte	0x15
 6672 0fa2 08       		.uleb128 0x8
 6673 0fa3 080B0000 		.4byte	.LASF280
 6674 0fa7 16       		.byte	0x16
 6675 0fa8 08       		.uleb128 0x8
 6676 0fa9 CD070000 		.4byte	.LASF281
 6677 0fad 17       		.byte	0x17
 6678 0fae 08       		.uleb128 0x8
 6679 0faf 8E0C0000 		.4byte	.LASF282
 6680 0fb3 18       		.byte	0x18
 6681 0fb4 08       		.uleb128 0x8
ARM GAS  C:\Users\strap\AppData\Local\Temp\cc4VwSsz.s 			page 159


 6682 0fb5 940B0000 		.4byte	.LASF283
 6683 0fb9 19       		.byte	0x19
 6684 0fba 00       		.byte	0
 6685 0fbb 03       		.uleb128 0x3
 6686 0fbc 550E0000 		.4byte	.LASF284
 6687 0fc0 0C       		.byte	0xc
 6688 0fc1 9B       		.byte	0x9b
 6689 0fc2 A2000000 		.4byte	0xa2
 6690 0fc6 03       		.uleb128 0x3
 6691 0fc7 75060000 		.4byte	.LASF285
 6692 0fcb 0C       		.byte	0xc
 6693 0fcc 9D       		.byte	0x9d
 6694 0fcd D10F0000 		.4byte	0xfd1
 6695 0fd1 10       		.uleb128 0x10
 6696 0fd2 04       		.byte	0x4
 6697 0fd3 D70F0000 		.4byte	0xfd7
 6698 0fd7 1D       		.uleb128 0x1d
 6699 0fd8 43010000 		.4byte	0x143
 6700 0fdc F00F0000 		.4byte	0xff0
 6701 0fe0 13       		.uleb128 0x13
 6702 0fe1 6A090000 		.4byte	0x96a
 6703 0fe5 13       		.uleb128 0x13
 6704 0fe6 BB0F0000 		.4byte	0xfbb
 6705 0fea 13       		.uleb128 0x13
 6706 0feb E4000000 		.4byte	0xe4
 6707 0fef 00       		.byte	0
 6708 0ff0 09       		.uleb128 0x9
 6709 0ff1 0C       		.byte	0xc
 6710 0ff2 0C       		.byte	0xc
 6711 0ff3 A0       		.byte	0xa0
 6712 0ff4 47100000 		.4byte	0x1047
 6713 0ff8 11       		.uleb128 0x11
 6714 0ff9 CB140000 		.4byte	.LASF286
 6715 0ffd 0C       		.byte	0xc
 6716 0ffe A1       		.byte	0xa1
 6717 0fff 47100000 		.4byte	0x1047
 6718 1003 00       		.byte	0
 6719 1004 11       		.uleb128 0x11
 6720 1005 980D0000 		.4byte	.LASF287
 6721 1009 0C       		.byte	0xc
 6722 100a A2       		.byte	0xa2
 6723 100b D9000000 		.4byte	0xd9
 6724 100f 04       		.byte	0x4
 6725 1010 11       		.uleb128 0x11
 6726 1011 38120000 		.4byte	.LASF288
 6727 1015 0C       		.byte	0xc
 6728 1016 A3       		.byte	0xa3
 6729 1017 D9000000 		.4byte	0xd9
 6730 101b 06       		.byte	0x6
 6731 101c 11       		.uleb128 0x11
 6732 101d 3D0D0000 		.4byte	.LASF289
 6733 1021 0C       		.byte	0xc
 6734 1022 A4       		.byte	0xa4
 6735 1023 B6010000 		.4byte	0x1b6
 6736 1027 08       		.byte	0x8
 6737 1028 0B       		.uleb128 0xb
 6738 1029 610E0000 		.4byte	.LASF290
ARM GAS  C:\Users\strap\AppData\Local\Temp\cc4VwSsz.s 			page 160


 6739 102d 0C       		.byte	0xc
 6740 102e A5       		.byte	0xa5
 6741 102f A2000000 		.4byte	0xa2
 6742 1033 01       		.byte	0x1
 6743 1034 01       		.byte	0x1
 6744 1035 07       		.byte	0x7
 6745 1036 09       		.byte	0x9
 6746 1037 0B       		.uleb128 0xb
 6747 1038 70120000 		.4byte	.LASF291
 6748 103c 0C       		.byte	0xc
 6749 103d A6       		.byte	0xa6
 6750 103e A2000000 		.4byte	0xa2
 6751 1042 01       		.byte	0x1
 6752 1043 01       		.byte	0x1
 6753 1044 06       		.byte	0x6
 6754 1045 09       		.byte	0x9
 6755 1046 00       		.byte	0
 6756 1047 10       		.uleb128 0x10
 6757 1048 04       		.byte	0x4
 6758 1049 4D100000 		.4byte	0x104d
 6759 104d 16       		.uleb128 0x16
 6760 104e E9070000 		.4byte	0x7e9
 6761 1052 03       		.uleb128 0x3
 6762 1053 5D110000 		.4byte	.LASF292
 6763 1057 0C       		.byte	0xc
 6764 1058 A8       		.byte	0xa8
 6765 1059 F00F0000 		.4byte	0xff0
 6766 105d 07       		.uleb128 0x7
 6767 105e 01       		.byte	0x1
 6768 105f 37000000 		.4byte	0x37
 6769 1063 0C       		.byte	0xc
 6770 1064 AC       		.byte	0xac
 6771 1065 94100000 		.4byte	0x1094
 6772 1069 08       		.uleb128 0x8
 6773 106a CB0F0000 		.4byte	.LASF293
 6774 106e 00       		.byte	0
 6775 106f 08       		.uleb128 0x8
 6776 1070 56140000 		.4byte	.LASF294
 6777 1074 01       		.byte	0x1
 6778 1075 08       		.uleb128 0x8
 6779 1076 FA050000 		.4byte	.LASF295
 6780 107a 02       		.byte	0x2
 6781 107b 08       		.uleb128 0x8
 6782 107c 74000000 		.4byte	.LASF296
 6783 1080 04       		.byte	0x4
 6784 1081 08       		.uleb128 0x8
 6785 1082 A4080000 		.4byte	.LASF297
 6786 1086 08       		.byte	0x8
 6787 1087 08       		.uleb128 0x8
 6788 1088 6B140000 		.4byte	.LASF298
 6789 108c 10       		.byte	0x10
 6790 108d 08       		.uleb128 0x8
 6791 108e D7110000 		.4byte	.LASF299
 6792 1092 20       		.byte	0x20
 6793 1093 00       		.byte	0
 6794 1094 07       		.uleb128 0x7
 6795 1095 01       		.byte	0x1
ARM GAS  C:\Users\strap\AppData\Local\Temp\cc4VwSsz.s 			page 161


 6796 1096 37000000 		.4byte	0x37
 6797 109a 0C       		.byte	0xc
 6798 109b B9       		.byte	0xb9
 6799 109c CB100000 		.4byte	0x10cb
 6800 10a0 08       		.uleb128 0x8
 6801 10a1 9B140000 		.4byte	.LASF300
 6802 10a5 00       		.byte	0
 6803 10a6 08       		.uleb128 0x8
 6804 10a7 6B150000 		.4byte	.LASF301
 6805 10ab 01       		.byte	0x1
 6806 10ac 08       		.uleb128 0x8
 6807 10ad 36180000 		.4byte	.LASF302
 6808 10b1 02       		.byte	0x2
 6809 10b2 08       		.uleb128 0x8
 6810 10b3 A7070000 		.4byte	.LASF303
 6811 10b7 04       		.byte	0x4
 6812 10b8 08       		.uleb128 0x8
 6813 10b9 CE030000 		.4byte	.LASF304
 6814 10bd 08       		.byte	0x8
 6815 10be 08       		.uleb128 0x8
 6816 10bf 5D0F0000 		.4byte	.LASF305
 6817 10c3 10       		.byte	0x10
 6818 10c4 08       		.uleb128 0x8
 6819 10c5 1E0B0000 		.4byte	.LASF306
 6820 10c9 20       		.byte	0x20
 6821 10ca 00       		.byte	0
 6822 10cb 03       		.uleb128 0x3
 6823 10cc E6030000 		.4byte	.LASF307
 6824 10d0 0C       		.byte	0xc
 6825 10d1 C3       		.byte	0xc3
 6826 10d2 A2000000 		.4byte	0xa2
 6827 10d6 03       		.uleb128 0x3
 6828 10d7 E6130000 		.4byte	.LASF308
 6829 10db 0C       		.byte	0xc
 6830 10dc FA       		.byte	0xfa
 6831 10dd E9070000 		.4byte	0x7e9
 6832 10e1 07       		.uleb128 0x7
 6833 10e2 01       		.byte	0x1
 6834 10e3 37000000 		.4byte	0x37
 6835 10e7 0C       		.byte	0xc
 6836 10e8 FC       		.byte	0xfc
 6837 10e9 06110000 		.4byte	0x1106
 6838 10ed 08       		.uleb128 0x8
 6839 10ee 6A0B0000 		.4byte	.LASF309
 6840 10f2 00       		.byte	0
 6841 10f3 08       		.uleb128 0x8
 6842 10f4 F1030000 		.4byte	.LASF310
 6843 10f8 01       		.byte	0x1
 6844 10f9 08       		.uleb128 0x8
 6845 10fa FA0D0000 		.4byte	.LASF311
 6846 10fe 40       		.byte	0x40
 6847 10ff 08       		.uleb128 0x8
 6848 1100 25140000 		.4byte	.LASF312
 6849 1104 FF       		.byte	0xff
 6850 1105 00       		.byte	0
 6851 1106 10       		.uleb128 0x10
 6852 1107 04       		.byte	0x4
ARM GAS  C:\Users\strap\AppData\Local\Temp\cc4VwSsz.s 			page 162


 6853 1108 6B010000 		.4byte	0x16b
 6854 110c 07       		.uleb128 0x7
 6855 110d 01       		.byte	0x1
 6856 110e 37000000 		.4byte	0x37
 6857 1112 0E       		.byte	0xe
 6858 1113 19       		.byte	0x19
 6859 1114 61110000 		.4byte	0x1161
 6860 1118 08       		.uleb128 0x8
 6861 1119 47180000 		.4byte	.LASF313
 6862 111d 11       		.byte	0x11
 6863 111e 08       		.uleb128 0x8
 6864 111f BB120000 		.4byte	.LASF314
 6865 1123 12       		.byte	0x12
 6866 1124 08       		.uleb128 0x8
 6867 1125 42000000 		.4byte	.LASF315
 6868 1129 13       		.byte	0x13
 6869 112a 08       		.uleb128 0x8
 6870 112b 2A050000 		.4byte	.LASF316
 6871 112f 14       		.byte	0x14
 6872 1130 08       		.uleb128 0x8
 6873 1131 C7120000 		.4byte	.LASF317
 6874 1135 1B       		.byte	0x1b
 6875 1136 08       		.uleb128 0x8
 6876 1137 4C0A0000 		.4byte	.LASF318
 6877 113b 7F       		.byte	0x7f
 6878 113c 08       		.uleb128 0x8
 6879 113d 3E060000 		.4byte	.LASF319
 6880 1141 08       		.byte	0x8
 6881 1142 08       		.uleb128 0x8
 6882 1143 E80C0000 		.4byte	.LASF320
 6883 1147 0A       		.byte	0xa
 6884 1148 08       		.uleb128 0x8
 6885 1149 C00E0000 		.4byte	.LASF321
 6886 114d 09       		.byte	0x9
 6887 114e 08       		.uleb128 0x8
 6888 114f BF140000 		.4byte	.LASF322
 6889 1153 0B       		.byte	0xb
 6890 1154 08       		.uleb128 0x8
 6891 1155 570A0000 		.4byte	.LASF323
 6892 1159 02       		.byte	0x2
 6893 115a 08       		.uleb128 0x8
 6894 115b 6A100000 		.4byte	.LASF324
 6895 115f 03       		.byte	0x3
 6896 1160 00       		.byte	0
 6897 1161 03       		.uleb128 0x3
 6898 1162 E7180000 		.4byte	.LASF325
 6899 1166 0E       		.byte	0xe
 6900 1167 30       		.byte	0x30
 6901 1168 6C110000 		.4byte	0x116c
 6902 116c 10       		.uleb128 0x10
 6903 116d 04       		.byte	0x4
 6904 116e 72110000 		.4byte	0x1172
 6905 1172 12       		.uleb128 0x12
 6906 1173 7D110000 		.4byte	0x117d
 6907 1177 13       		.uleb128 0x13
 6908 1178 E80D0000 		.4byte	0xde8
 6909 117c 00       		.byte	0
ARM GAS  C:\Users\strap\AppData\Local\Temp\cc4VwSsz.s 			page 163


 6910 117d 10       		.uleb128 0x10
 6911 117e 04       		.byte	0x4
 6912 117f 83110000 		.4byte	0x1183
 6913 1183 10       		.uleb128 0x10
 6914 1184 04       		.byte	0x4
 6915 1185 D6100000 		.4byte	0x10d6
 6916 1189 03       		.uleb128 0x3
 6917 118a 0C060000 		.4byte	.LASF326
 6918 118e 0E       		.byte	0xe
 6919 118f 47       		.byte	0x47
 6920 1190 600D0000 		.4byte	0xd60
 6921 1194 1E       		.uleb128 0x1e
 6922 1195 E20A0000 		.4byte	.LASF330
 6923 1199 01       		.byte	0x1
 6924 119a 4604     		.2byte	0x446
 6925 119c 00000000 		.4byte	.LFB358
 6926 11a0 54000000 		.4byte	.LFE358-.LFB358
 6927 11a4 01       		.uleb128 0x1
 6928 11a5 9C       		.byte	0x9c
 6929 11a6 B9110000 		.4byte	0x11b9
 6930 11aa 1F       		.uleb128 0x1f
 6931 11ab 58150000 		.4byte	.LASF327
 6932 11af 01       		.byte	0x1
 6933 11b0 4604     		.2byte	0x446
 6934 11b2 B9110000 		.4byte	0x11b9
 6935 11b6 01       		.uleb128 0x1
 6936 11b7 50       		.byte	0x50
 6937 11b8 00       		.byte	0
 6938 11b9 10       		.uleb128 0x10
 6939 11ba 04       		.byte	0x4
 6940 11bb F90D0000 		.4byte	0xdf9
 6941 11bf 20       		.uleb128 0x20
 6942 11c0 860D0000 		.4byte	.LASF328
 6943 11c4 01       		.byte	0x1
 6944 11c5 0A06     		.2byte	0x60a
 6945 11c7 C1010000 		.4byte	0x1c1
 6946 11cb 00000000 		.4byte	.LFB365
 6947 11cf 20000000 		.4byte	.LFE365-.LFB365
 6948 11d3 01       		.uleb128 0x1
 6949 11d4 9C       		.byte	0x9c
 6950 11d5 EA110000 		.4byte	0x11ea
 6951 11d9 21       		.uleb128 0x21
 6952 11da 46070000 		.4byte	.LASF215
 6953 11de 01       		.byte	0x1
 6954 11df 0A06     		.2byte	0x60a
 6955 11e1 EA110000 		.4byte	0x11ea
 6956 11e5 00000000 		.4byte	.LLST0
 6957 11e9 00       		.byte	0
 6958 11ea 10       		.uleb128 0x10
 6959 11eb 04       		.byte	0x4
 6960 11ec 0C0D0000 		.4byte	0xd0c
 6961 11f0 20       		.uleb128 0x20
 6962 11f1 F3080000 		.4byte	.LASF329
 6963 11f5 01       		.byte	0x1
 6964 11f6 C205     		.2byte	0x5c2
 6965 11f8 83110000 		.4byte	0x1183
 6966 11fc 00000000 		.4byte	.LFB363
ARM GAS  C:\Users\strap\AppData\Local\Temp\cc4VwSsz.s 			page 164


 6967 1200 28000000 		.4byte	.LFE363-.LFB363
 6968 1204 01       		.uleb128 0x1
 6969 1205 9C       		.byte	0x9c
 6970 1206 4F120000 		.4byte	0x124f
 6971 120a 22       		.uleb128 0x22
 6972 120b 6F626A00 		.ascii	"obj\000"
 6973 120f 01       		.byte	0x1
 6974 1210 C205     		.2byte	0x5c2
 6975 1212 83110000 		.4byte	0x1183
 6976 1216 21000000 		.4byte	.LLST1
 6977 121a 23       		.uleb128 0x23
 6978 121b 8B050000 		.4byte	.LASF332
 6979 121f 01       		.byte	0x1
 6980 1220 C505     		.2byte	0x5c5
 6981 1222 83110000 		.4byte	0x1183
 6982 1226 66000000 		.4byte	.LLST2
 6983 122a 24       		.uleb128 0x24
 6984 122b 0E000000 		.4byte	.LVL5
 6985 122f 8D310000 		.4byte	0x318d
 6986 1233 3E120000 		.4byte	0x123e
 6987 1237 25       		.uleb128 0x25
 6988 1238 01       		.uleb128 0x1
 6989 1239 50       		.byte	0x50
 6990 123a 02       		.uleb128 0x2
 6991 123b 74       		.byte	0x74
 6992 123c 00       		.sleb128 0
 6993 123d 00       		.byte	0
 6994 123e 26       		.uleb128 0x26
 6995 123f 16000000 		.4byte	.LVL7
 6996 1243 99310000 		.4byte	0x3199
 6997 1247 25       		.uleb128 0x25
 6998 1248 01       		.uleb128 0x1
 6999 1249 50       		.byte	0x50
 7000 124a 02       		.uleb128 0x2
 7001 124b 74       		.byte	0x74
 7002 124c 00       		.sleb128 0
 7003 124d 00       		.byte	0
 7004 124e 00       		.byte	0
 7005 124f 1E       		.uleb128 0x1e
 7006 1250 94100000 		.4byte	.LASF331
 7007 1254 01       		.byte	0x1
 7008 1255 7705     		.2byte	0x577
 7009 1257 00000000 		.4byte	.LFB362
 7010 125b AC010000 		.4byte	.LFE362-.LFB362
 7011 125f 01       		.uleb128 0x1
 7012 1260 9C       		.byte	0x9c
 7013 1261 DA140000 		.4byte	0x14da
 7014 1265 21       		.uleb128 0x21
 7015 1266 46070000 		.4byte	.LASF215
 7016 126a 01       		.byte	0x1
 7017 126b 7705     		.2byte	0x577
 7018 126d EA110000 		.4byte	0x11ea
 7019 1271 84000000 		.4byte	.LLST3
 7020 1275 23       		.uleb128 0x23
 7021 1276 8B050000 		.4byte	.LASF332
 7022 127a 01       		.byte	0x1
 7023 127b 7B05     		.2byte	0x57b
ARM GAS  C:\Users\strap\AppData\Local\Temp\cc4VwSsz.s 			page 165


 7024 127d 83110000 		.4byte	0x1183
 7025 1281 AD000000 		.4byte	.LLST4
 7026 1285 23       		.uleb128 0x23
 7027 1286 630D0000 		.4byte	.LASF333
 7028 128a 01       		.byte	0x1
 7029 128b 8905     		.2byte	0x589
 7030 128d 210A0000 		.4byte	0xa21
 7031 1291 CB000000 		.4byte	.LLST5
 7032 1295 27       		.uleb128 0x27
 7033 1296 9E000000 		.4byte	.LBB2
 7034 129a D2000000 		.4byte	.LBE2-.LBB2
 7035 129e 0A140000 		.4byte	0x140a
 7036 12a2 28       		.uleb128 0x28
 7037 12a3 10140000 		.4byte	.LASF334
 7038 12a7 01       		.byte	0x1
 7039 12a8 9305     		.2byte	0x593
 7040 12aa AB010000 		.4byte	0x1ab
 7041 12ae 02       		.uleb128 0x2
 7042 12af 91       		.byte	0x91
 7043 12b0 58       		.sleb128 -40
 7044 12b1 23       		.uleb128 0x23
 7045 12b2 A8020000 		.4byte	.LASF335
 7046 12b6 01       		.byte	0x1
 7047 12b7 9505     		.2byte	0x595
 7048 12b9 D9000000 		.4byte	0xd9
 7049 12bd DE000000 		.4byte	.LLST6
 7050 12c1 23       		.uleb128 0x23
 7051 12c2 AE020000 		.4byte	.LASF336
 7052 12c6 01       		.byte	0x1
 7053 12c7 9605     		.2byte	0x596
 7054 12c9 D9000000 		.4byte	0xd9
 7055 12cd F1000000 		.4byte	.LLST7
 7056 12d1 28       		.uleb128 0x28
 7057 12d2 4B130000 		.4byte	.LASF337
 7058 12d6 01       		.byte	0x1
 7059 12d7 9F05     		.2byte	0x59f
 7060 12d9 AB010000 		.4byte	0x1ab
 7061 12dd 02       		.uleb128 0x2
 7062 12de 91       		.byte	0x91
 7063 12df 60       		.sleb128 -32
 7064 12e0 24       		.uleb128 0x24
 7065 12e1 A6000000 		.4byte	.LVL20
 7066 12e5 A5310000 		.4byte	0x31a5
 7067 12e9 FA120000 		.4byte	0x12fa
 7068 12ed 25       		.uleb128 0x25
 7069 12ee 01       		.uleb128 0x1
 7070 12ef 50       		.byte	0x50
 7071 12f0 02       		.uleb128 0x2
 7072 12f1 75       		.byte	0x75
 7073 12f2 00       		.sleb128 0
 7074 12f3 25       		.uleb128 0x25
 7075 12f4 01       		.uleb128 0x1
 7076 12f5 51       		.byte	0x51
 7077 12f6 02       		.uleb128 0x2
 7078 12f7 7D       		.byte	0x7d
 7079 12f8 00       		.sleb128 0
 7080 12f9 00       		.byte	0
ARM GAS  C:\Users\strap\AppData\Local\Temp\cc4VwSsz.s 			page 166


 7081 12fa 24       		.uleb128 0x24
 7082 12fb AC000000 		.4byte	.LVL21
 7083 12ff B1310000 		.4byte	0x31b1
 7084 1303 0E130000 		.4byte	0x130e
 7085 1307 25       		.uleb128 0x25
 7086 1308 01       		.uleb128 0x1
 7087 1309 50       		.byte	0x50
 7088 130a 02       		.uleb128 0x2
 7089 130b 75       		.byte	0x75
 7090 130c 00       		.sleb128 0
 7091 130d 00       		.byte	0
 7092 130e 24       		.uleb128 0x24
 7093 130f BA000000 		.4byte	.LVL23
 7094 1313 BD310000 		.4byte	0x31bd
 7095 1317 22130000 		.4byte	0x1322
 7096 131b 25       		.uleb128 0x25
 7097 131c 01       		.uleb128 0x1
 7098 131d 50       		.byte	0x50
 7099 131e 02       		.uleb128 0x2
 7100 131f 75       		.byte	0x75
 7101 1320 00       		.sleb128 0
 7102 1321 00       		.byte	0
 7103 1322 24       		.uleb128 0x24
 7104 1323 D0000000 		.4byte	.LVL26
 7105 1327 C9310000 		.4byte	0x31c9
 7106 132b 3C130000 		.4byte	0x133c
 7107 132f 25       		.uleb128 0x25
 7108 1330 01       		.uleb128 0x1
 7109 1331 50       		.byte	0x50
 7110 1332 02       		.uleb128 0x2
 7111 1333 75       		.byte	0x75
 7112 1334 00       		.sleb128 0
 7113 1335 25       		.uleb128 0x25
 7114 1336 01       		.uleb128 0x1
 7115 1337 51       		.byte	0x51
 7116 1338 02       		.uleb128 0x2
 7117 1339 77       		.byte	0x77
 7118 133a 00       		.sleb128 0
 7119 133b 00       		.byte	0
 7120 133c 24       		.uleb128 0x24
 7121 133d DE000000 		.4byte	.LVL30
 7122 1341 D5310000 		.4byte	0x31d5
 7123 1345 56130000 		.4byte	0x1356
 7124 1349 25       		.uleb128 0x25
 7125 134a 01       		.uleb128 0x1
 7126 134b 50       		.byte	0x50
 7127 134c 02       		.uleb128 0x2
 7128 134d 75       		.byte	0x75
 7129 134e 00       		.sleb128 0
 7130 134f 25       		.uleb128 0x25
 7131 1350 01       		.uleb128 0x1
 7132 1351 51       		.byte	0x51
 7133 1352 02       		.uleb128 0x2
 7134 1353 77       		.byte	0x77
 7135 1354 00       		.sleb128 0
 7136 1355 00       		.byte	0
 7137 1356 24       		.uleb128 0x24
ARM GAS  C:\Users\strap\AppData\Local\Temp\cc4VwSsz.s 			page 167


 7138 1357 EA000000 		.4byte	.LVL32
 7139 135b E1310000 		.4byte	0x31e1
 7140 135f 6A130000 		.4byte	0x136a
 7141 1363 25       		.uleb128 0x25
 7142 1364 01       		.uleb128 0x1
 7143 1365 50       		.byte	0x50
 7144 1366 02       		.uleb128 0x2
 7145 1367 75       		.byte	0x75
 7146 1368 00       		.sleb128 0
 7147 1369 00       		.byte	0
 7148 136a 24       		.uleb128 0x24
 7149 136b FE000000 		.4byte	.LVL36
 7150 136f D5310000 		.4byte	0x31d5
 7151 1373 84130000 		.4byte	0x1384
 7152 1377 25       		.uleb128 0x25
 7153 1378 01       		.uleb128 0x1
 7154 1379 50       		.byte	0x50
 7155 137a 02       		.uleb128 0x2
 7156 137b 75       		.byte	0x75
 7157 137c 00       		.sleb128 0
 7158 137d 25       		.uleb128 0x25
 7159 137e 01       		.uleb128 0x1
 7160 137f 51       		.byte	0x51
 7161 1380 02       		.uleb128 0x2
 7162 1381 77       		.byte	0x77
 7163 1382 00       		.sleb128 0
 7164 1383 00       		.byte	0
 7165 1384 24       		.uleb128 0x24
 7166 1385 06010000 		.4byte	.LVL38
 7167 1389 E1310000 		.4byte	0x31e1
 7168 138d 98130000 		.4byte	0x1398
 7169 1391 25       		.uleb128 0x25
 7170 1392 01       		.uleb128 0x1
 7171 1393 50       		.byte	0x50
 7172 1394 02       		.uleb128 0x2
 7173 1395 75       		.byte	0x75
 7174 1396 00       		.sleb128 0
 7175 1397 00       		.byte	0
 7176 1398 24       		.uleb128 0x24
 7177 1399 0E010000 		.4byte	.LVL39
 7178 139d A5310000 		.4byte	0x31a5
 7179 13a1 B2130000 		.4byte	0x13b2
 7180 13a5 25       		.uleb128 0x25
 7181 13a6 01       		.uleb128 0x1
 7182 13a7 50       		.byte	0x50
 7183 13a8 02       		.uleb128 0x2
 7184 13a9 75       		.byte	0x75
 7185 13aa 00       		.sleb128 0
 7186 13ab 25       		.uleb128 0x25
 7187 13ac 01       		.uleb128 0x1
 7188 13ad 51       		.byte	0x51
 7189 13ae 02       		.uleb128 0x2
 7190 13af 91       		.byte	0x91
 7191 13b0 60       		.sleb128 -32
 7192 13b1 00       		.byte	0
 7193 13b2 29       		.uleb128 0x29
 7194 13b3 56010000 		.4byte	.LVL40
ARM GAS  C:\Users\strap\AppData\Local\Temp\cc4VwSsz.s 			page 168


 7195 13b7 C7130000 		.4byte	0x13c7
 7196 13bb 25       		.uleb128 0x25
 7197 13bc 01       		.uleb128 0x1
 7198 13bd 50       		.byte	0x50
 7199 13be 02       		.uleb128 0x2
 7200 13bf 75       		.byte	0x75
 7201 13c0 00       		.sleb128 0
 7202 13c1 25       		.uleb128 0x25
 7203 13c2 01       		.uleb128 0x1
 7204 13c3 51       		.byte	0x51
 7205 13c4 01       		.uleb128 0x1
 7206 13c5 43       		.byte	0x43
 7207 13c6 00       		.byte	0
 7208 13c7 24       		.uleb128 0x24
 7209 13c8 5C010000 		.4byte	.LVL41
 7210 13cc BF110000 		.4byte	0x11bf
 7211 13d0 DB130000 		.4byte	0x13db
 7212 13d4 25       		.uleb128 0x25
 7213 13d5 01       		.uleb128 0x1
 7214 13d6 50       		.byte	0x50
 7215 13d7 02       		.uleb128 0x2
 7216 13d8 74       		.byte	0x74
 7217 13d9 00       		.sleb128 0
 7218 13da 00       		.byte	0
 7219 13db 24       		.uleb128 0x24
 7220 13dc 68010000 		.4byte	.LVL42
 7221 13e0 ED310000 		.4byte	0x31ed
 7222 13e4 F9130000 		.4byte	0x13f9
 7223 13e8 25       		.uleb128 0x25
 7224 13e9 01       		.uleb128 0x1
 7225 13ea 50       		.byte	0x50
 7226 13eb 02       		.uleb128 0x2
 7227 13ec 75       		.byte	0x75
 7228 13ed 00       		.sleb128 0
 7229 13ee 25       		.uleb128 0x25
 7230 13ef 01       		.uleb128 0x1
 7231 13f0 51       		.byte	0x51
 7232 13f1 01       		.uleb128 0x1
 7233 13f2 39       		.byte	0x39
 7234 13f3 25       		.uleb128 0x25
 7235 13f4 01       		.uleb128 0x1
 7236 13f5 52       		.byte	0x52
 7237 13f6 01       		.uleb128 0x1
 7238 13f7 30       		.byte	0x30
 7239 13f8 00       		.byte	0
 7240 13f9 26       		.uleb128 0x26
 7241 13fa 6E010000 		.4byte	.LVL43
 7242 13fe BF110000 		.4byte	0x11bf
 7243 1402 25       		.uleb128 0x25
 7244 1403 01       		.uleb128 0x1
 7245 1404 50       		.byte	0x50
 7246 1405 02       		.uleb128 0x2
 7247 1406 74       		.byte	0x74
 7248 1407 00       		.sleb128 0
 7249 1408 00       		.byte	0
 7250 1409 00       		.byte	0
 7251 140a 2A       		.uleb128 0x2a
ARM GAS  C:\Users\strap\AppData\Local\Temp\cc4VwSsz.s 			page 169


 7252 140b 18000000 		.4byte	.LVL13
 7253 140f F0110000 		.4byte	0x11f0
 7254 1413 24       		.uleb128 0x24
 7255 1414 24000000 		.4byte	.LVL14
 7256 1418 F9310000 		.4byte	0x31f9
 7257 141c 27140000 		.4byte	0x1427
 7258 1420 25       		.uleb128 0x25
 7259 1421 01       		.uleb128 0x1
 7260 1422 50       		.byte	0x50
 7261 1423 02       		.uleb128 0x2
 7262 1424 75       		.byte	0x75
 7263 1425 00       		.sleb128 0
 7264 1426 00       		.byte	0
 7265 1427 29       		.uleb128 0x29
 7266 1428 3E000000 		.4byte	.LVL15
 7267 142c 3C140000 		.4byte	0x143c
 7268 1430 25       		.uleb128 0x25
 7269 1431 01       		.uleb128 0x1
 7270 1432 50       		.byte	0x50
 7271 1433 02       		.uleb128 0x2
 7272 1434 75       		.byte	0x75
 7273 1435 00       		.sleb128 0
 7274 1436 25       		.uleb128 0x25
 7275 1437 01       		.uleb128 0x1
 7276 1438 51       		.byte	0x51
 7277 1439 01       		.uleb128 0x1
 7278 143a 43       		.byte	0x43
 7279 143b 00       		.byte	0
 7280 143c 24       		.uleb128 0x24
 7281 143d 44000000 		.4byte	.LVL16
 7282 1441 BF110000 		.4byte	0x11bf
 7283 1445 50140000 		.4byte	0x1450
 7284 1449 25       		.uleb128 0x25
 7285 144a 01       		.uleb128 0x1
 7286 144b 50       		.byte	0x50
 7287 144c 02       		.uleb128 0x2
 7288 144d 74       		.byte	0x74
 7289 144e 00       		.sleb128 0
 7290 144f 00       		.byte	0
 7291 1450 24       		.uleb128 0x24
 7292 1451 54000000 		.4byte	.LVL17
 7293 1455 ED310000 		.4byte	0x31ed
 7294 1459 6E140000 		.4byte	0x146e
 7295 145d 25       		.uleb128 0x25
 7296 145e 01       		.uleb128 0x1
 7297 145f 50       		.byte	0x50
 7298 1460 02       		.uleb128 0x2
 7299 1461 75       		.byte	0x75
 7300 1462 00       		.sleb128 0
 7301 1463 25       		.uleb128 0x25
 7302 1464 01       		.uleb128 0x1
 7303 1465 51       		.byte	0x51
 7304 1466 01       		.uleb128 0x1
 7305 1467 39       		.byte	0x39
 7306 1468 25       		.uleb128 0x25
 7307 1469 01       		.uleb128 0x1
 7308 146a 52       		.byte	0x52
ARM GAS  C:\Users\strap\AppData\Local\Temp\cc4VwSsz.s 			page 170


 7309 146b 01       		.uleb128 0x1
 7310 146c 30       		.byte	0x30
 7311 146d 00       		.byte	0
 7312 146e 24       		.uleb128 0x24
 7313 146f 5C000000 		.4byte	.LVL18
 7314 1473 05320000 		.4byte	0x3205
 7315 1477 82140000 		.4byte	0x1482
 7316 147b 25       		.uleb128 0x25
 7317 147c 01       		.uleb128 0x1
 7318 147d 50       		.byte	0x50
 7319 147e 02       		.uleb128 0x2
 7320 147f 75       		.byte	0x75
 7321 1480 00       		.sleb128 0
 7322 1481 00       		.byte	0
 7323 1482 29       		.uleb128 0x29
 7324 1483 84010000 		.4byte	.LVL45
 7325 1487 97140000 		.4byte	0x1497
 7326 148b 25       		.uleb128 0x25
 7327 148c 01       		.uleb128 0x1
 7328 148d 50       		.byte	0x50
 7329 148e 02       		.uleb128 0x2
 7330 148f 75       		.byte	0x75
 7331 1490 00       		.sleb128 0
 7332 1491 25       		.uleb128 0x25
 7333 1492 01       		.uleb128 0x1
 7334 1493 51       		.byte	0x51
 7335 1494 01       		.uleb128 0x1
 7336 1495 43       		.byte	0x43
 7337 1496 00       		.byte	0
 7338 1497 24       		.uleb128 0x24
 7339 1498 8A010000 		.4byte	.LVL46
 7340 149c BF110000 		.4byte	0x11bf
 7341 14a0 AB140000 		.4byte	0x14ab
 7342 14a4 25       		.uleb128 0x25
 7343 14a5 01       		.uleb128 0x1
 7344 14a6 50       		.byte	0x50
 7345 14a7 02       		.uleb128 0x2
 7346 14a8 74       		.byte	0x74
 7347 14a9 00       		.sleb128 0
 7348 14aa 00       		.byte	0
 7349 14ab 24       		.uleb128 0x24
 7350 14ac 96010000 		.4byte	.LVL47
 7351 14b0 ED310000 		.4byte	0x31ed
 7352 14b4 C9140000 		.4byte	0x14c9
 7353 14b8 25       		.uleb128 0x25
 7354 14b9 01       		.uleb128 0x1
 7355 14ba 50       		.byte	0x50
 7356 14bb 02       		.uleb128 0x2
 7357 14bc 75       		.byte	0x75
 7358 14bd 00       		.sleb128 0
 7359 14be 25       		.uleb128 0x25
 7360 14bf 01       		.uleb128 0x1
 7361 14c0 51       		.byte	0x51
 7362 14c1 01       		.uleb128 0x1
 7363 14c2 39       		.byte	0x39
 7364 14c3 25       		.uleb128 0x25
 7365 14c4 01       		.uleb128 0x1
ARM GAS  C:\Users\strap\AppData\Local\Temp\cc4VwSsz.s 			page 171


 7366 14c5 52       		.byte	0x52
 7367 14c6 01       		.uleb128 0x1
 7368 14c7 30       		.byte	0x30
 7369 14c8 00       		.byte	0
 7370 14c9 26       		.uleb128 0x26
 7371 14ca 9C010000 		.4byte	.LVL48
 7372 14ce BF110000 		.4byte	0x11bf
 7373 14d2 25       		.uleb128 0x25
 7374 14d3 01       		.uleb128 0x1
 7375 14d4 50       		.byte	0x50
 7376 14d5 02       		.uleb128 0x2
 7377 14d6 74       		.byte	0x74
 7378 14d7 00       		.sleb128 0
 7379 14d8 00       		.byte	0
 7380 14d9 00       		.byte	0
 7381 14da 1E       		.uleb128 0x1e
 7382 14db 3D120000 		.4byte	.LASF338
 7383 14df 01       		.byte	0x1
 7384 14e0 EE03     		.2byte	0x3ee
 7385 14e2 00000000 		.4byte	.LFB357
 7386 14e6 8C010000 		.4byte	.LFE357-.LFB357
 7387 14ea 01       		.uleb128 0x1
 7388 14eb 9C       		.byte	0x9c
 7389 14ec 23170000 		.4byte	0x1723
 7390 14f0 21       		.uleb128 0x21
 7391 14f1 46070000 		.4byte	.LASF215
 7392 14f5 01       		.byte	0x1
 7393 14f6 EE03     		.2byte	0x3ee
 7394 14f8 EA110000 		.4byte	0x11ea
 7395 14fc 51010000 		.4byte	.LLST8
 7396 1500 27       		.uleb128 0x27
 7397 1501 30000000 		.4byte	.LBB3
 7398 1505 3A010000 		.4byte	.LBE3-.LBB3
 7399 1509 FE160000 		.4byte	0x16fe
 7400 150d 23       		.uleb128 0x23
 7401 150e 8B050000 		.4byte	.LASF332
 7402 1512 01       		.byte	0x1
 7403 1513 2704     		.2byte	0x427
 7404 1515 83110000 		.4byte	0x1183
 7405 1519 7D010000 		.4byte	.LLST9
 7406 151d 24       		.uleb128 0x24
 7407 151e 36000000 		.4byte	.LVL52
 7408 1522 11320000 		.4byte	0x3211
 7409 1526 30150000 		.4byte	0x1530
 7410 152a 25       		.uleb128 0x25
 7411 152b 01       		.uleb128 0x1
 7412 152c 51       		.byte	0x51
 7413 152d 01       		.uleb128 0x1
 7414 152e 40       		.byte	0x40
 7415 152f 00       		.byte	0
 7416 1530 2B       		.uleb128 0x2b
 7417 1531 46000000 		.4byte	.LVL53
 7418 1535 02       		.uleb128 0x2
 7419 1536 75       		.byte	0x75
 7420 1537 00       		.sleb128 0
 7421 1538 42150000 		.4byte	0x1542
 7422 153c 25       		.uleb128 0x25
ARM GAS  C:\Users\strap\AppData\Local\Temp\cc4VwSsz.s 			page 172


 7423 153d 01       		.uleb128 0x1
 7424 153e 51       		.byte	0x51
 7425 153f 01       		.uleb128 0x1
 7426 1540 3E       		.byte	0x3e
 7427 1541 00       		.byte	0
 7428 1542 24       		.uleb128 0x24
 7429 1543 4C000000 		.4byte	.LVL54
 7430 1547 BF110000 		.4byte	0x11bf
 7431 154b 56150000 		.4byte	0x1556
 7432 154f 25       		.uleb128 0x25
 7433 1550 01       		.uleb128 0x1
 7434 1551 50       		.byte	0x50
 7435 1552 02       		.uleb128 0x2
 7436 1553 74       		.byte	0x74
 7437 1554 00       		.sleb128 0
 7438 1555 00       		.byte	0
 7439 1556 24       		.uleb128 0x24
 7440 1557 72000000 		.4byte	.LVL55
 7441 155b ED310000 		.4byte	0x31ed
 7442 155f 6E150000 		.4byte	0x156e
 7443 1563 25       		.uleb128 0x25
 7444 1564 01       		.uleb128 0x1
 7445 1565 51       		.byte	0x51
 7446 1566 01       		.uleb128 0x1
 7447 1567 33       		.byte	0x33
 7448 1568 25       		.uleb128 0x25
 7449 1569 01       		.uleb128 0x1
 7450 156a 52       		.byte	0x52
 7451 156b 01       		.uleb128 0x1
 7452 156c 30       		.byte	0x30
 7453 156d 00       		.byte	0
 7454 156e 24       		.uleb128 0x24
 7455 156f 78000000 		.4byte	.LVL56
 7456 1573 BF110000 		.4byte	0x11bf
 7457 1577 82150000 		.4byte	0x1582
 7458 157b 25       		.uleb128 0x25
 7459 157c 01       		.uleb128 0x1
 7460 157d 50       		.byte	0x50
 7461 157e 02       		.uleb128 0x2
 7462 157f 74       		.byte	0x74
 7463 1580 00       		.sleb128 0
 7464 1581 00       		.byte	0
 7465 1582 24       		.uleb128 0x24
 7466 1583 8A000000 		.4byte	.LVL57
 7467 1587 ED310000 		.4byte	0x31ed
 7468 158b 9A150000 		.4byte	0x159a
 7469 158f 25       		.uleb128 0x25
 7470 1590 01       		.uleb128 0x1
 7471 1591 51       		.byte	0x51
 7472 1592 01       		.uleb128 0x1
 7473 1593 36       		.byte	0x36
 7474 1594 25       		.uleb128 0x25
 7475 1595 01       		.uleb128 0x1
 7476 1596 52       		.byte	0x52
 7477 1597 01       		.uleb128 0x1
 7478 1598 30       		.byte	0x30
 7479 1599 00       		.byte	0
ARM GAS  C:\Users\strap\AppData\Local\Temp\cc4VwSsz.s 			page 173


 7480 159a 24       		.uleb128 0x24
 7481 159b 90000000 		.4byte	.LVL58
 7482 159f BF110000 		.4byte	0x11bf
 7483 15a3 AE150000 		.4byte	0x15ae
 7484 15a7 25       		.uleb128 0x25
 7485 15a8 01       		.uleb128 0x1
 7486 15a9 50       		.byte	0x50
 7487 15aa 02       		.uleb128 0x2
 7488 15ab 74       		.byte	0x74
 7489 15ac 00       		.sleb128 0
 7490 15ad 00       		.byte	0
 7491 15ae 24       		.uleb128 0x24
 7492 15af A0000000 		.4byte	.LVL59
 7493 15b3 ED310000 		.4byte	0x31ed
 7494 15b7 C6150000 		.4byte	0x15c6
 7495 15bb 25       		.uleb128 0x25
 7496 15bc 01       		.uleb128 0x1
 7497 15bd 51       		.byte	0x51
 7498 15be 01       		.uleb128 0x1
 7499 15bf 37       		.byte	0x37
 7500 15c0 25       		.uleb128 0x25
 7501 15c1 01       		.uleb128 0x1
 7502 15c2 52       		.byte	0x52
 7503 15c3 01       		.uleb128 0x1
 7504 15c4 30       		.byte	0x30
 7505 15c5 00       		.byte	0
 7506 15c6 24       		.uleb128 0x24
 7507 15c7 A6000000 		.4byte	.LVL60
 7508 15cb BF110000 		.4byte	0x11bf
 7509 15cf DA150000 		.4byte	0x15da
 7510 15d3 25       		.uleb128 0x25
 7511 15d4 01       		.uleb128 0x1
 7512 15d5 50       		.byte	0x50
 7513 15d6 02       		.uleb128 0x2
 7514 15d7 74       		.byte	0x74
 7515 15d8 00       		.sleb128 0
 7516 15d9 00       		.byte	0
 7517 15da 2B       		.uleb128 0x2b
 7518 15db B8000000 		.4byte	.LVL62
 7519 15df 02       		.uleb128 0x2
 7520 15e0 75       		.byte	0x75
 7521 15e1 00       		.sleb128 0
 7522 15e2 EC150000 		.4byte	0x15ec
 7523 15e6 25       		.uleb128 0x25
 7524 15e7 01       		.uleb128 0x1
 7525 15e8 51       		.byte	0x51
 7526 15e9 01       		.uleb128 0x1
 7527 15ea 3E       		.byte	0x3e
 7528 15eb 00       		.byte	0
 7529 15ec 24       		.uleb128 0x24
 7530 15ed BE000000 		.4byte	.LVL63
 7531 15f1 BF110000 		.4byte	0x11bf
 7532 15f5 00160000 		.4byte	0x1600
 7533 15f9 25       		.uleb128 0x25
 7534 15fa 01       		.uleb128 0x1
 7535 15fb 50       		.byte	0x50
 7536 15fc 02       		.uleb128 0x2
ARM GAS  C:\Users\strap\AppData\Local\Temp\cc4VwSsz.s 			page 174


 7537 15fd 74       		.byte	0x74
 7538 15fe 00       		.sleb128 0
 7539 15ff 00       		.byte	0
 7540 1600 24       		.uleb128 0x24
 7541 1601 E2000000 		.4byte	.LVL64
 7542 1605 ED310000 		.4byte	0x31ed
 7543 1609 18160000 		.4byte	0x1618
 7544 160d 25       		.uleb128 0x25
 7545 160e 01       		.uleb128 0x1
 7546 160f 51       		.byte	0x51
 7547 1610 01       		.uleb128 0x1
 7548 1611 33       		.byte	0x33
 7549 1612 25       		.uleb128 0x25
 7550 1613 01       		.uleb128 0x1
 7551 1614 52       		.byte	0x52
 7552 1615 01       		.uleb128 0x1
 7553 1616 30       		.byte	0x30
 7554 1617 00       		.byte	0
 7555 1618 24       		.uleb128 0x24
 7556 1619 E8000000 		.4byte	.LVL65
 7557 161d BF110000 		.4byte	0x11bf
 7558 1621 2C160000 		.4byte	0x162c
 7559 1625 25       		.uleb128 0x25
 7560 1626 01       		.uleb128 0x1
 7561 1627 50       		.byte	0x50
 7562 1628 02       		.uleb128 0x2
 7563 1629 74       		.byte	0x74
 7564 162a 00       		.sleb128 0
 7565 162b 00       		.byte	0
 7566 162c 24       		.uleb128 0x24
 7567 162d 02010000 		.4byte	.LVL66
 7568 1631 ED310000 		.4byte	0x31ed
 7569 1635 44160000 		.4byte	0x1644
 7570 1639 25       		.uleb128 0x25
 7571 163a 01       		.uleb128 0x1
 7572 163b 51       		.byte	0x51
 7573 163c 01       		.uleb128 0x1
 7574 163d 36       		.byte	0x36
 7575 163e 25       		.uleb128 0x25
 7576 163f 01       		.uleb128 0x1
 7577 1640 52       		.byte	0x52
 7578 1641 01       		.uleb128 0x1
 7579 1642 30       		.byte	0x30
 7580 1643 00       		.byte	0
 7581 1644 24       		.uleb128 0x24
 7582 1645 08010000 		.4byte	.LVL67
 7583 1649 BF110000 		.4byte	0x11bf
 7584 164d 58160000 		.4byte	0x1658
 7585 1651 25       		.uleb128 0x25
 7586 1652 01       		.uleb128 0x1
 7587 1653 50       		.byte	0x50
 7588 1654 02       		.uleb128 0x2
 7589 1655 74       		.byte	0x74
 7590 1656 00       		.sleb128 0
 7591 1657 00       		.byte	0
 7592 1658 24       		.uleb128 0x24
 7593 1659 18010000 		.4byte	.LVL68
ARM GAS  C:\Users\strap\AppData\Local\Temp\cc4VwSsz.s 			page 175


 7594 165d ED310000 		.4byte	0x31ed
 7595 1661 70160000 		.4byte	0x1670
 7596 1665 25       		.uleb128 0x25
 7597 1666 01       		.uleb128 0x1
 7598 1667 51       		.byte	0x51
 7599 1668 01       		.uleb128 0x1
 7600 1669 37       		.byte	0x37
 7601 166a 25       		.uleb128 0x25
 7602 166b 01       		.uleb128 0x1
 7603 166c 52       		.byte	0x52
 7604 166d 01       		.uleb128 0x1
 7605 166e 30       		.byte	0x30
 7606 166f 00       		.byte	0
 7607 1670 24       		.uleb128 0x24
 7608 1671 1E010000 		.4byte	.LVL69
 7609 1675 BF110000 		.4byte	0x11bf
 7610 1679 84160000 		.4byte	0x1684
 7611 167d 25       		.uleb128 0x25
 7612 167e 01       		.uleb128 0x1
 7613 167f 50       		.byte	0x50
 7614 1680 02       		.uleb128 0x2
 7615 1681 74       		.byte	0x74
 7616 1682 00       		.sleb128 0
 7617 1683 00       		.byte	0
 7618 1684 2A       		.uleb128 0x2a
 7619 1685 28010000 		.4byte	.LVL70
 7620 1689 F0110000 		.4byte	0x11f0
 7621 168d 24       		.uleb128 0x24
 7622 168e 30010000 		.4byte	.LVL71
 7623 1692 F9310000 		.4byte	0x31f9
 7624 1696 A1160000 		.4byte	0x16a1
 7625 169a 25       		.uleb128 0x25
 7626 169b 01       		.uleb128 0x1
 7627 169c 50       		.byte	0x50
 7628 169d 02       		.uleb128 0x2
 7629 169e 75       		.byte	0x75
 7630 169f 00       		.sleb128 0
 7631 16a0 00       		.byte	0
 7632 16a1 29       		.uleb128 0x29
 7633 16a2 48010000 		.4byte	.LVL72
 7634 16a6 BB160000 		.4byte	0x16bb
 7635 16aa 25       		.uleb128 0x25
 7636 16ab 01       		.uleb128 0x1
 7637 16ac 50       		.byte	0x50
 7638 16ad 02       		.uleb128 0x2
 7639 16ae 75       		.byte	0x75
 7640 16af 00       		.sleb128 0
 7641 16b0 25       		.uleb128 0x25
 7642 16b1 01       		.uleb128 0x1
 7643 16b2 51       		.byte	0x51
 7644 16b3 01       		.uleb128 0x1
 7645 16b4 42       		.byte	0x42
 7646 16b5 25       		.uleb128 0x25
 7647 16b6 01       		.uleb128 0x1
 7648 16b7 52       		.byte	0x52
 7649 16b8 01       		.uleb128 0x1
 7650 16b9 30       		.byte	0x30
ARM GAS  C:\Users\strap\AppData\Local\Temp\cc4VwSsz.s 			page 176


 7651 16ba 00       		.byte	0
 7652 16bb 24       		.uleb128 0x24
 7653 16bc 4E010000 		.4byte	.LVL73
 7654 16c0 BF110000 		.4byte	0x11bf
 7655 16c4 CF160000 		.4byte	0x16cf
 7656 16c8 25       		.uleb128 0x25
 7657 16c9 01       		.uleb128 0x1
 7658 16ca 50       		.byte	0x50
 7659 16cb 02       		.uleb128 0x2
 7660 16cc 74       		.byte	0x74
 7661 16cd 00       		.sleb128 0
 7662 16ce 00       		.byte	0
 7663 16cf 24       		.uleb128 0x24
 7664 16d0 5A010000 		.4byte	.LVL74
 7665 16d4 ED310000 		.4byte	0x31ed
 7666 16d8 ED160000 		.4byte	0x16ed
 7667 16dc 25       		.uleb128 0x25
 7668 16dd 01       		.uleb128 0x1
 7669 16de 50       		.byte	0x50
 7670 16df 02       		.uleb128 0x2
 7671 16e0 75       		.byte	0x75
 7672 16e1 00       		.sleb128 0
 7673 16e2 25       		.uleb128 0x25
 7674 16e3 01       		.uleb128 0x1
 7675 16e4 51       		.byte	0x51
 7676 16e5 01       		.uleb128 0x1
 7677 16e6 3A       		.byte	0x3a
 7678 16e7 25       		.uleb128 0x25
 7679 16e8 01       		.uleb128 0x1
 7680 16e9 52       		.byte	0x52
 7681 16ea 01       		.uleb128 0x1
 7682 16eb 30       		.byte	0x30
 7683 16ec 00       		.byte	0
 7684 16ed 26       		.uleb128 0x26
 7685 16ee 60010000 		.4byte	.LVL75
 7686 16f2 BF110000 		.4byte	0x11bf
 7687 16f6 25       		.uleb128 0x25
 7688 16f7 01       		.uleb128 0x1
 7689 16f8 50       		.byte	0x50
 7690 16f9 02       		.uleb128 0x2
 7691 16fa 74       		.byte	0x74
 7692 16fb 00       		.sleb128 0
 7693 16fc 00       		.byte	0
 7694 16fd 00       		.byte	0
 7695 16fe 24       		.uleb128 0x24
 7696 16ff 7E010000 		.4byte	.LVL77
 7697 1703 4F120000 		.4byte	0x124f
 7698 1707 12170000 		.4byte	0x1712
 7699 170b 25       		.uleb128 0x25
 7700 170c 01       		.uleb128 0x1
 7701 170d 50       		.byte	0x50
 7702 170e 02       		.uleb128 0x2
 7703 170f 74       		.byte	0x74
 7704 1710 00       		.sleb128 0
 7705 1711 00       		.byte	0
 7706 1712 26       		.uleb128 0x26
 7707 1713 84010000 		.4byte	.LVL78
ARM GAS  C:\Users\strap\AppData\Local\Temp\cc4VwSsz.s 			page 177


 7708 1717 BF110000 		.4byte	0x11bf
 7709 171b 25       		.uleb128 0x25
 7710 171c 01       		.uleb128 0x1
 7711 171d 50       		.byte	0x50
 7712 171e 02       		.uleb128 0x2
 7713 171f 74       		.byte	0x74
 7714 1720 00       		.sleb128 0
 7715 1721 00       		.byte	0
 7716 1722 00       		.byte	0
 7717 1723 1E       		.uleb128 0x1e
 7718 1724 6E0E0000 		.4byte	.LASF339
 7719 1728 01       		.byte	0x1
 7720 1729 8604     		.2byte	0x486
 7721 172b 00000000 		.4byte	.LFB360
 7722 172f 60010000 		.4byte	.LFE360-.LFB360
 7723 1733 01       		.uleb128 0x1
 7724 1734 9C       		.byte	0x9c
 7725 1735 321A0000 		.4byte	0x1a32
 7726 1739 21       		.uleb128 0x21
 7727 173a 46070000 		.4byte	.LASF215
 7728 173e 01       		.byte	0x1
 7729 173f 8604     		.2byte	0x486
 7730 1741 EA110000 		.4byte	0x11ea
 7731 1745 9B010000 		.4byte	.LLST10
 7732 1749 23       		.uleb128 0x23
 7733 174a 79050000 		.4byte	.LASF340
 7734 174e 01       		.byte	0x1
 7735 174f 8904     		.2byte	0x489
 7736 1751 83110000 		.4byte	0x1183
 7737 1755 C7010000 		.4byte	.LLST11
 7738 1759 27       		.uleb128 0x27
 7739 175a 24000000 		.4byte	.LBB4
 7740 175e 3C010000 		.4byte	.LBE4-.LBB4
 7741 1762 181A0000 		.4byte	0x1a18
 7742 1766 23       		.uleb128 0x23
 7743 1767 180B0000 		.4byte	.LASF341
 7744 176b 01       		.byte	0x1
 7745 176c 8D04     		.2byte	0x48d
 7746 176e 321A0000 		.4byte	0x1a32
 7747 1772 E5010000 		.4byte	.LLST12
 7748 1776 23       		.uleb128 0x23
 7749 1777 8C0F0000 		.4byte	.LASF342
 7750 177b 01       		.byte	0x1
 7751 177c 8E04     		.2byte	0x48e
 7752 177e 321A0000 		.4byte	0x1a32
 7753 1782 03020000 		.4byte	.LLST13
 7754 1786 24       		.uleb128 0x24
 7755 1787 2A000000 		.4byte	.LVL86
 7756 178b 1D320000 		.4byte	0x321d
 7757 178f 9A170000 		.4byte	0x179a
 7758 1793 25       		.uleb128 0x25
 7759 1794 01       		.uleb128 0x1
 7760 1795 50       		.byte	0x50
 7761 1796 02       		.uleb128 0x2
 7762 1797 76       		.byte	0x76
 7763 1798 00       		.sleb128 0
 7764 1799 00       		.byte	0
ARM GAS  C:\Users\strap\AppData\Local\Temp\cc4VwSsz.s 			page 178


 7765 179a 2A       		.uleb128 0x2a
 7766 179b 34000000 		.4byte	.LVL89
 7767 179f 1D320000 		.4byte	0x321d
 7768 17a3 24       		.uleb128 0x24
 7769 17a4 46000000 		.4byte	.LVL91
 7770 17a8 29320000 		.4byte	0x3229
 7771 17ac B7170000 		.4byte	0x17b7
 7772 17b0 25       		.uleb128 0x25
 7773 17b1 01       		.uleb128 0x1
 7774 17b2 50       		.byte	0x50
 7775 17b3 02       		.uleb128 0x2
 7776 17b4 76       		.byte	0x76
 7777 17b5 00       		.sleb128 0
 7778 17b6 00       		.byte	0
 7779 17b7 24       		.uleb128 0x24
 7780 17b8 4C000000 		.4byte	.LVL92
 7781 17bc BF110000 		.4byte	0x11bf
 7782 17c0 CB170000 		.4byte	0x17cb
 7783 17c4 25       		.uleb128 0x25
 7784 17c5 01       		.uleb128 0x1
 7785 17c6 50       		.byte	0x50
 7786 17c7 02       		.uleb128 0x2
 7787 17c8 74       		.byte	0x74
 7788 17c9 00       		.sleb128 0
 7789 17ca 00       		.byte	0
 7790 17cb 24       		.uleb128 0x24
 7791 17cc 60000000 		.4byte	.LVL94
 7792 17d0 34320000 		.4byte	0x3234
 7793 17d4 E3170000 		.4byte	0x17e3
 7794 17d8 25       		.uleb128 0x25
 7795 17d9 01       		.uleb128 0x1
 7796 17da 51       		.byte	0x51
 7797 17db 01       		.uleb128 0x1
 7798 17dc 47       		.byte	0x47
 7799 17dd 25       		.uleb128 0x25
 7800 17de 01       		.uleb128 0x1
 7801 17df 52       		.byte	0x52
 7802 17e0 01       		.uleb128 0x1
 7803 17e1 30       		.byte	0x30
 7804 17e2 00       		.byte	0
 7805 17e3 24       		.uleb128 0x24
 7806 17e4 66000000 		.4byte	.LVL95
 7807 17e8 BF110000 		.4byte	0x11bf
 7808 17ec F7170000 		.4byte	0x17f7
 7809 17f0 25       		.uleb128 0x25
 7810 17f1 01       		.uleb128 0x1
 7811 17f2 50       		.byte	0x50
 7812 17f3 02       		.uleb128 0x2
 7813 17f4 74       		.byte	0x74
 7814 17f5 00       		.sleb128 0
 7815 17f6 00       		.byte	0
 7816 17f7 24       		.uleb128 0x24
 7817 17f8 74000000 		.4byte	.LVL96
 7818 17fc ED310000 		.4byte	0x31ed
 7819 1800 0F180000 		.4byte	0x180f
 7820 1804 25       		.uleb128 0x25
 7821 1805 01       		.uleb128 0x1
ARM GAS  C:\Users\strap\AppData\Local\Temp\cc4VwSsz.s 			page 179


 7822 1806 51       		.byte	0x51
 7823 1807 01       		.uleb128 0x1
 7824 1808 3E       		.byte	0x3e
 7825 1809 25       		.uleb128 0x25
 7826 180a 01       		.uleb128 0x1
 7827 180b 52       		.byte	0x52
 7828 180c 01       		.uleb128 0x1
 7829 180d 30       		.byte	0x30
 7830 180e 00       		.byte	0
 7831 180f 24       		.uleb128 0x24
 7832 1810 7A000000 		.4byte	.LVL97
 7833 1814 BF110000 		.4byte	0x11bf
 7834 1818 23180000 		.4byte	0x1823
 7835 181c 25       		.uleb128 0x25
 7836 181d 01       		.uleb128 0x1
 7837 181e 50       		.byte	0x50
 7838 181f 02       		.uleb128 0x2
 7839 1820 74       		.byte	0x74
 7840 1821 00       		.sleb128 0
 7841 1822 00       		.byte	0
 7842 1823 24       		.uleb128 0x24
 7843 1824 88000000 		.4byte	.LVL98
 7844 1828 34320000 		.4byte	0x3234
 7845 182c 41180000 		.4byte	0x1841
 7846 1830 25       		.uleb128 0x25
 7847 1831 01       		.uleb128 0x1
 7848 1832 50       		.byte	0x50
 7849 1833 02       		.uleb128 0x2
 7850 1834 76       		.byte	0x76
 7851 1835 00       		.sleb128 0
 7852 1836 25       		.uleb128 0x25
 7853 1837 01       		.uleb128 0x1
 7854 1838 51       		.byte	0x51
 7855 1839 01       		.uleb128 0x1
 7856 183a 46       		.byte	0x46
 7857 183b 25       		.uleb128 0x25
 7858 183c 01       		.uleb128 0x1
 7859 183d 52       		.byte	0x52
 7860 183e 01       		.uleb128 0x1
 7861 183f 30       		.byte	0x30
 7862 1840 00       		.byte	0
 7863 1841 24       		.uleb128 0x24
 7864 1842 8E000000 		.4byte	.LVL99
 7865 1846 BF110000 		.4byte	0x11bf
 7866 184a 55180000 		.4byte	0x1855
 7867 184e 25       		.uleb128 0x25
 7868 184f 01       		.uleb128 0x1
 7869 1850 50       		.byte	0x50
 7870 1851 02       		.uleb128 0x2
 7871 1852 74       		.byte	0x74
 7872 1853 00       		.sleb128 0
 7873 1854 00       		.byte	0
 7874 1855 24       		.uleb128 0x24
 7875 1856 9C000000 		.4byte	.LVL100
 7876 185a ED310000 		.4byte	0x31ed
 7877 185e 73180000 		.4byte	0x1873
 7878 1862 25       		.uleb128 0x25
ARM GAS  C:\Users\strap\AppData\Local\Temp\cc4VwSsz.s 			page 180


 7879 1863 01       		.uleb128 0x1
 7880 1864 50       		.byte	0x50
 7881 1865 02       		.uleb128 0x2
 7882 1866 76       		.byte	0x76
 7883 1867 00       		.sleb128 0
 7884 1868 25       		.uleb128 0x25
 7885 1869 01       		.uleb128 0x1
 7886 186a 51       		.byte	0x51
 7887 186b 01       		.uleb128 0x1
 7888 186c 3D       		.byte	0x3d
 7889 186d 25       		.uleb128 0x25
 7890 186e 01       		.uleb128 0x1
 7891 186f 52       		.byte	0x52
 7892 1870 01       		.uleb128 0x1
 7893 1871 30       		.byte	0x30
 7894 1872 00       		.byte	0
 7895 1873 24       		.uleb128 0x24
 7896 1874 A2000000 		.4byte	.LVL101
 7897 1878 BF110000 		.4byte	0x11bf
 7898 187c 87180000 		.4byte	0x1887
 7899 1880 25       		.uleb128 0x25
 7900 1881 01       		.uleb128 0x1
 7901 1882 50       		.byte	0x50
 7902 1883 02       		.uleb128 0x2
 7903 1884 74       		.byte	0x74
 7904 1885 00       		.sleb128 0
 7905 1886 00       		.byte	0
 7906 1887 24       		.uleb128 0x24
 7907 1888 B6000000 		.4byte	.LVL103
 7908 188c 34320000 		.4byte	0x3234
 7909 1890 9F180000 		.4byte	0x189f
 7910 1894 25       		.uleb128 0x25
 7911 1895 01       		.uleb128 0x1
 7912 1896 51       		.byte	0x51
 7913 1897 01       		.uleb128 0x1
 7914 1898 47       		.byte	0x47
 7915 1899 25       		.uleb128 0x25
 7916 189a 01       		.uleb128 0x1
 7917 189b 52       		.byte	0x52
 7918 189c 01       		.uleb128 0x1
 7919 189d 30       		.byte	0x30
 7920 189e 00       		.byte	0
 7921 189f 24       		.uleb128 0x24
 7922 18a0 BC000000 		.4byte	.LVL104
 7923 18a4 BF110000 		.4byte	0x11bf
 7924 18a8 B3180000 		.4byte	0x18b3
 7925 18ac 25       		.uleb128 0x25
 7926 18ad 01       		.uleb128 0x1
 7927 18ae 50       		.byte	0x50
 7928 18af 02       		.uleb128 0x2
 7929 18b0 74       		.byte	0x74
 7930 18b1 00       		.sleb128 0
 7931 18b2 00       		.byte	0
 7932 18b3 24       		.uleb128 0x24
 7933 18b4 CA000000 		.4byte	.LVL105
 7934 18b8 ED310000 		.4byte	0x31ed
 7935 18bc CB180000 		.4byte	0x18cb
ARM GAS  C:\Users\strap\AppData\Local\Temp\cc4VwSsz.s 			page 181


 7936 18c0 25       		.uleb128 0x25
 7937 18c1 01       		.uleb128 0x1
 7938 18c2 51       		.byte	0x51
 7939 18c3 01       		.uleb128 0x1
 7940 18c4 3E       		.byte	0x3e
 7941 18c5 25       		.uleb128 0x25
 7942 18c6 01       		.uleb128 0x1
 7943 18c7 52       		.byte	0x52
 7944 18c8 01       		.uleb128 0x1
 7945 18c9 30       		.byte	0x30
 7946 18ca 00       		.byte	0
 7947 18cb 24       		.uleb128 0x24
 7948 18cc D0000000 		.4byte	.LVL106
 7949 18d0 BF110000 		.4byte	0x11bf
 7950 18d4 DF180000 		.4byte	0x18df
 7951 18d8 25       		.uleb128 0x25
 7952 18d9 01       		.uleb128 0x1
 7953 18da 50       		.byte	0x50
 7954 18db 02       		.uleb128 0x2
 7955 18dc 74       		.byte	0x74
 7956 18dd 00       		.sleb128 0
 7957 18de 00       		.byte	0
 7958 18df 24       		.uleb128 0x24
 7959 18e0 E2000000 		.4byte	.LVL108
 7960 18e4 34320000 		.4byte	0x3234
 7961 18e8 F7180000 		.4byte	0x18f7
 7962 18ec 25       		.uleb128 0x25
 7963 18ed 01       		.uleb128 0x1
 7964 18ee 51       		.byte	0x51
 7965 18ef 01       		.uleb128 0x1
 7966 18f0 47       		.byte	0x47
 7967 18f1 25       		.uleb128 0x25
 7968 18f2 01       		.uleb128 0x1
 7969 18f3 52       		.byte	0x52
 7970 18f4 01       		.uleb128 0x1
 7971 18f5 30       		.byte	0x30
 7972 18f6 00       		.byte	0
 7973 18f7 24       		.uleb128 0x24
 7974 18f8 E8000000 		.4byte	.LVL109
 7975 18fc BF110000 		.4byte	0x11bf
 7976 1900 0B190000 		.4byte	0x190b
 7977 1904 25       		.uleb128 0x25
 7978 1905 01       		.uleb128 0x1
 7979 1906 50       		.byte	0x50
 7980 1907 02       		.uleb128 0x2
 7981 1908 74       		.byte	0x74
 7982 1909 00       		.sleb128 0
 7983 190a 00       		.byte	0
 7984 190b 24       		.uleb128 0x24
 7985 190c F4000000 		.4byte	.LVL110
 7986 1910 ED310000 		.4byte	0x31ed
 7987 1914 23190000 		.4byte	0x1923
 7988 1918 25       		.uleb128 0x25
 7989 1919 01       		.uleb128 0x1
 7990 191a 51       		.byte	0x51
 7991 191b 01       		.uleb128 0x1
 7992 191c 3E       		.byte	0x3e
ARM GAS  C:\Users\strap\AppData\Local\Temp\cc4VwSsz.s 			page 182


 7993 191d 25       		.uleb128 0x25
 7994 191e 01       		.uleb128 0x1
 7995 191f 52       		.byte	0x52
 7996 1920 01       		.uleb128 0x1
 7997 1921 30       		.byte	0x30
 7998 1922 00       		.byte	0
 7999 1923 24       		.uleb128 0x24
 8000 1924 FA000000 		.4byte	.LVL111
 8001 1928 BF110000 		.4byte	0x11bf
 8002 192c 37190000 		.4byte	0x1937
 8003 1930 25       		.uleb128 0x25
 8004 1931 01       		.uleb128 0x1
 8005 1932 50       		.byte	0x50
 8006 1933 02       		.uleb128 0x2
 8007 1934 74       		.byte	0x74
 8008 1935 00       		.sleb128 0
 8009 1936 00       		.byte	0
 8010 1937 24       		.uleb128 0x24
 8011 1938 06010000 		.4byte	.LVL113
 8012 193c 34320000 		.4byte	0x3234
 8013 1940 4F190000 		.4byte	0x194f
 8014 1944 25       		.uleb128 0x25
 8015 1945 01       		.uleb128 0x1
 8016 1946 51       		.byte	0x51
 8017 1947 01       		.uleb128 0x1
 8018 1948 45       		.byte	0x45
 8019 1949 25       		.uleb128 0x25
 8020 194a 01       		.uleb128 0x1
 8021 194b 52       		.byte	0x52
 8022 194c 01       		.uleb128 0x1
 8023 194d 30       		.byte	0x30
 8024 194e 00       		.byte	0
 8025 194f 24       		.uleb128 0x24
 8026 1950 0C010000 		.4byte	.LVL114
 8027 1954 BF110000 		.4byte	0x11bf
 8028 1958 63190000 		.4byte	0x1963
 8029 195c 25       		.uleb128 0x25
 8030 195d 01       		.uleb128 0x1
 8031 195e 50       		.byte	0x50
 8032 195f 02       		.uleb128 0x2
 8033 1960 74       		.byte	0x74
 8034 1961 00       		.sleb128 0
 8035 1962 00       		.byte	0
 8036 1963 24       		.uleb128 0x24
 8037 1964 18010000 		.4byte	.LVL115
 8038 1968 ED310000 		.4byte	0x31ed
 8039 196c 7B190000 		.4byte	0x197b
 8040 1970 25       		.uleb128 0x25
 8041 1971 01       		.uleb128 0x1
 8042 1972 51       		.byte	0x51
 8043 1973 01       		.uleb128 0x1
 8044 1974 3F       		.byte	0x3f
 8045 1975 25       		.uleb128 0x25
 8046 1976 01       		.uleb128 0x1
 8047 1977 52       		.byte	0x52
 8048 1978 01       		.uleb128 0x1
 8049 1979 30       		.byte	0x30
ARM GAS  C:\Users\strap\AppData\Local\Temp\cc4VwSsz.s 			page 183


 8050 197a 00       		.byte	0
 8051 197b 24       		.uleb128 0x24
 8052 197c 1E010000 		.4byte	.LVL116
 8053 1980 BF110000 		.4byte	0x11bf
 8054 1984 8F190000 		.4byte	0x198f
 8055 1988 25       		.uleb128 0x25
 8056 1989 01       		.uleb128 0x1
 8057 198a 50       		.byte	0x50
 8058 198b 02       		.uleb128 0x2
 8059 198c 74       		.byte	0x74
 8060 198d 00       		.sleb128 0
 8061 198e 00       		.byte	0
 8062 198f 24       		.uleb128 0x24
 8063 1990 28010000 		.4byte	.LVL117
 8064 1994 29320000 		.4byte	0x3229
 8065 1998 A3190000 		.4byte	0x19a3
 8066 199c 25       		.uleb128 0x25
 8067 199d 01       		.uleb128 0x1
 8068 199e 50       		.byte	0x50
 8069 199f 02       		.uleb128 0x2
 8070 19a0 76       		.byte	0x76
 8071 19a1 00       		.sleb128 0
 8072 19a2 00       		.byte	0
 8073 19a3 24       		.uleb128 0x24
 8074 19a4 2E010000 		.4byte	.LVL118
 8075 19a8 BF110000 		.4byte	0x11bf
 8076 19ac B7190000 		.4byte	0x19b7
 8077 19b0 25       		.uleb128 0x25
 8078 19b1 01       		.uleb128 0x1
 8079 19b2 50       		.byte	0x50
 8080 19b3 02       		.uleb128 0x2
 8081 19b4 74       		.byte	0x74
 8082 19b5 00       		.sleb128 0
 8083 19b6 00       		.byte	0
 8084 19b7 24       		.uleb128 0x24
 8085 19b8 3C010000 		.4byte	.LVL120
 8086 19bc 34320000 		.4byte	0x3234
 8087 19c0 D5190000 		.4byte	0x19d5
 8088 19c4 25       		.uleb128 0x25
 8089 19c5 01       		.uleb128 0x1
 8090 19c6 50       		.byte	0x50
 8091 19c7 02       		.uleb128 0x2
 8092 19c8 76       		.byte	0x76
 8093 19c9 00       		.sleb128 0
 8094 19ca 25       		.uleb128 0x25
 8095 19cb 01       		.uleb128 0x1
 8096 19cc 51       		.byte	0x51
 8097 19cd 01       		.uleb128 0x1
 8098 19ce 46       		.byte	0x46
 8099 19cf 25       		.uleb128 0x25
 8100 19d0 01       		.uleb128 0x1
 8101 19d1 52       		.byte	0x52
 8102 19d2 01       		.uleb128 0x1
 8103 19d3 30       		.byte	0x30
 8104 19d4 00       		.byte	0
 8105 19d5 24       		.uleb128 0x24
 8106 19d6 42010000 		.4byte	.LVL121
ARM GAS  C:\Users\strap\AppData\Local\Temp\cc4VwSsz.s 			page 184


 8107 19da BF110000 		.4byte	0x11bf
 8108 19de E9190000 		.4byte	0x19e9
 8109 19e2 25       		.uleb128 0x25
 8110 19e3 01       		.uleb128 0x1
 8111 19e4 50       		.byte	0x50
 8112 19e5 02       		.uleb128 0x2
 8113 19e6 74       		.byte	0x74
 8114 19e7 00       		.sleb128 0
 8115 19e8 00       		.byte	0
 8116 19e9 24       		.uleb128 0x24
 8117 19ea 4E010000 		.4byte	.LVL122
 8118 19ee ED310000 		.4byte	0x31ed
 8119 19f2 071A0000 		.4byte	0x1a07
 8120 19f6 25       		.uleb128 0x25
 8121 19f7 01       		.uleb128 0x1
 8122 19f8 50       		.byte	0x50
 8123 19f9 02       		.uleb128 0x2
 8124 19fa 76       		.byte	0x76
 8125 19fb 00       		.sleb128 0
 8126 19fc 25       		.uleb128 0x25
 8127 19fd 01       		.uleb128 0x1
 8128 19fe 51       		.byte	0x51
 8129 19ff 01       		.uleb128 0x1
 8130 1a00 3D       		.byte	0x3d
 8131 1a01 25       		.uleb128 0x25
 8132 1a02 01       		.uleb128 0x1
 8133 1a03 52       		.byte	0x52
 8134 1a04 01       		.uleb128 0x1
 8135 1a05 30       		.byte	0x30
 8136 1a06 00       		.byte	0
 8137 1a07 26       		.uleb128 0x26
 8138 1a08 54010000 		.4byte	.LVL123
 8139 1a0c BF110000 		.4byte	0x11bf
 8140 1a10 25       		.uleb128 0x25
 8141 1a11 01       		.uleb128 0x1
 8142 1a12 50       		.byte	0x50
 8143 1a13 02       		.uleb128 0x2
 8144 1a14 74       		.byte	0x74
 8145 1a15 00       		.sleb128 0
 8146 1a16 00       		.byte	0
 8147 1a17 00       		.byte	0
 8148 1a18 2A       		.uleb128 0x2a
 8149 1a19 0C000000 		.4byte	.LVL82
 8150 1a1d 40320000 		.4byte	0x3240
 8151 1a21 26       		.uleb128 0x26
 8152 1a22 16000000 		.4byte	.LVL85
 8153 1a26 11320000 		.4byte	0x3211
 8154 1a2a 25       		.uleb128 0x25
 8155 1a2b 01       		.uleb128 0x1
 8156 1a2c 51       		.byte	0x51
 8157 1a2d 02       		.uleb128 0x2
 8158 1a2e 08       		.byte	0x8
 8159 1a2f 20       		.byte	0x20
 8160 1a30 00       		.byte	0
 8161 1a31 00       		.byte	0
 8162 1a32 10       		.uleb128 0x10
 8163 1a33 04       		.byte	0x4
ARM GAS  C:\Users\strap\AppData\Local\Temp\cc4VwSsz.s 			page 185


 8164 1a34 89110000 		.4byte	0x1189
 8165 1a38 1E       		.uleb128 0x1e
 8166 1a39 1A0E0000 		.4byte	.LASF343
 8167 1a3d 01       		.byte	0x1
 8168 1a3e E504     		.2byte	0x4e5
 8169 1a40 00000000 		.4byte	.LFB361
 8170 1a44 D0020000 		.4byte	.LFE361-.LFB361
 8171 1a48 01       		.uleb128 0x1
 8172 1a49 9C       		.byte	0x9c
 8173 1a4a E21C0000 		.4byte	0x1ce2
 8174 1a4e 21       		.uleb128 0x21
 8175 1a4f 46070000 		.4byte	.LASF215
 8176 1a53 01       		.byte	0x1
 8177 1a54 E504     		.2byte	0x4e5
 8178 1a56 EA110000 		.4byte	0x11ea
 8179 1a5a 42020000 		.4byte	.LLST14
 8180 1a5e 23       		.uleb128 0x23
 8181 1a5f 8B050000 		.4byte	.LASF332
 8182 1a63 01       		.byte	0x1
 8183 1a64 E704     		.2byte	0x4e7
 8184 1a66 83110000 		.4byte	0x1183
 8185 1a6a 6E020000 		.4byte	.LLST15
 8186 1a6e 23       		.uleb128 0x23
 8187 1a6f 84120000 		.4byte	.LASF344
 8188 1a73 01       		.byte	0x1
 8189 1a74 E804     		.2byte	0x4e8
 8190 1a76 C1010000 		.4byte	0x1c1
 8191 1a7a 8C020000 		.4byte	.LLST16
 8192 1a7e 23       		.uleb128 0x23
 8193 1a7f 630D0000 		.4byte	.LASF333
 8194 1a83 01       		.byte	0x1
 8195 1a84 EF04     		.2byte	0x4ef
 8196 1a86 210A0000 		.4byte	0xa21
 8197 1a8a C3020000 		.4byte	.LLST17
 8198 1a8e 27       		.uleb128 0x27
 8199 1a8f 32000000 		.4byte	.LBB5
 8200 1a93 8A000000 		.4byte	.LBE5-.LBB5
 8201 1a97 BC1A0000 		.4byte	0x1abc
 8202 1a9b 23       		.uleb128 0x23
 8203 1a9c 09070000 		.4byte	.LASF345
 8204 1aa0 01       		.byte	0x1
 8205 1aa1 F704     		.2byte	0x4f7
 8206 1aa3 C1010000 		.4byte	0x1c1
 8207 1aa7 F7020000 		.4byte	.LLST18
 8208 1aab 23       		.uleb128 0x23
 8209 1aac 03130000 		.4byte	.LASF346
 8210 1ab0 01       		.byte	0x1
 8211 1ab1 F804     		.2byte	0x4f8
 8212 1ab3 C1010000 		.4byte	0x1c1
 8213 1ab7 21030000 		.4byte	.LLST19
 8214 1abb 00       		.byte	0
 8215 1abc 27       		.uleb128 0x27
 8216 1abd DA000000 		.4byte	.LBB6
 8217 1ac1 EC010000 		.4byte	.LBE6-.LBB6
 8218 1ac5 B41C0000 		.4byte	0x1cb4
 8219 1ac9 23       		.uleb128 0x23
 8220 1aca C4060000 		.4byte	.LASF347
ARM GAS  C:\Users\strap\AppData\Local\Temp\cc4VwSsz.s 			page 186


 8221 1ace 01       		.byte	0x1
 8222 1acf 1705     		.2byte	0x517
 8223 1ad1 D9000000 		.4byte	0xd9
 8224 1ad5 4B030000 		.4byte	.LLST20
 8225 1ad9 23       		.uleb128 0x23
 8226 1ada CB060000 		.4byte	.LASF348
 8227 1ade 01       		.byte	0x1
 8228 1adf 1805     		.2byte	0x518
 8229 1ae1 D9000000 		.4byte	0xd9
 8230 1ae5 5E030000 		.4byte	.LLST21
 8231 1ae9 23       		.uleb128 0x23
 8232 1aea 580D0000 		.4byte	.LASF349
 8233 1aee 01       		.byte	0x1
 8234 1aef 1905     		.2byte	0x519
 8235 1af1 D9000000 		.4byte	0xd9
 8236 1af5 71030000 		.4byte	.LLST22
 8237 1af9 23       		.uleb128 0x23
 8238 1afa 41080000 		.4byte	.LASF350
 8239 1afe 01       		.byte	0x1
 8240 1aff 1A05     		.2byte	0x51a
 8241 1b01 D9000000 		.4byte	0xd9
 8242 1b05 85030000 		.4byte	.LLST23
 8243 1b09 23       		.uleb128 0x23
 8244 1b0a A8020000 		.4byte	.LASF335
 8245 1b0e 01       		.byte	0x1
 8246 1b0f 1D05     		.2byte	0x51d
 8247 1b11 D9000000 		.4byte	0xd9
 8248 1b15 99030000 		.4byte	.LLST24
 8249 1b19 23       		.uleb128 0x23
 8250 1b1a AE020000 		.4byte	.LASF336
 8251 1b1e 01       		.byte	0x1
 8252 1b1f 1E05     		.2byte	0x51e
 8253 1b21 D9000000 		.4byte	0xd9
 8254 1b25 D8030000 		.4byte	.LLST25
 8255 1b29 23       		.uleb128 0x23
 8256 1b2a 530B0000 		.4byte	.LASF351
 8257 1b2e 01       		.byte	0x1
 8258 1b2f 5205     		.2byte	0x552
 8259 1b31 B8000000 		.4byte	0xb8
 8260 1b35 17040000 		.4byte	.LLST26
 8261 1b39 27       		.uleb128 0x27
 8262 1b3a 62020000 		.4byte	.LBB7
 8263 1b3e 3E000000 		.4byte	.LBE7-.LBB7
 8264 1b42 D11B0000 		.4byte	0x1bd1
 8265 1b46 23       		.uleb128 0x23
 8266 1b47 7A120000 		.4byte	.LASF352
 8267 1b4b 01       		.byte	0x1
 8268 1b4c 5D05     		.2byte	0x55d
 8269 1b4e D9000000 		.4byte	0xd9
 8270 1b52 2A040000 		.4byte	.LLST27
 8271 1b56 23       		.uleb128 0x23
 8272 1b57 50120000 		.4byte	.LASF353
 8273 1b5b 01       		.byte	0x1
 8274 1b5c 5E05     		.2byte	0x55e
 8275 1b5e D9000000 		.4byte	0xd9
 8276 1b62 3D040000 		.4byte	.LLST28
 8277 1b66 27       		.uleb128 0x27
ARM GAS  C:\Users\strap\AppData\Local\Temp\cc4VwSsz.s 			page 187


 8278 1b67 84020000 		.4byte	.LBB8
 8279 1b6b 1C000000 		.4byte	.LBE8-.LBB8
 8280 1b6f 961B0000 		.4byte	0x1b96
 8281 1b73 23       		.uleb128 0x23
 8282 1b74 5A0C0000 		.4byte	.LASF354
 8283 1b78 01       		.byte	0x1
 8284 1b79 6005     		.2byte	0x560
 8285 1b7b B8000000 		.4byte	0xb8
 8286 1b7f 50040000 		.4byte	.LLST29
 8287 1b83 2A       		.uleb128 0x2a
 8288 1b84 92020000 		.4byte	.LVL185
 8289 1b88 4C320000 		.4byte	0x324c
 8290 1b8c 2A       		.uleb128 0x2a
 8291 1b8d A0020000 		.4byte	.LVL187
 8292 1b91 58320000 		.4byte	0x3258
 8293 1b95 00       		.byte	0
 8294 1b96 24       		.uleb128 0x24
 8295 1b97 68020000 		.4byte	.LVL178
 8296 1b9b 8D310000 		.4byte	0x318d
 8297 1b9f AA1B0000 		.4byte	0x1baa
 8298 1ba3 25       		.uleb128 0x25
 8299 1ba4 01       		.uleb128 0x1
 8300 1ba5 50       		.byte	0x50
 8301 1ba6 02       		.uleb128 0x2
 8302 1ba7 75       		.byte	0x75
 8303 1ba8 00       		.sleb128 0
 8304 1ba9 00       		.byte	0
 8305 1baa 2A       		.uleb128 0x2a
 8306 1bab 6C020000 		.4byte	.LVL179
 8307 1baf 64320000 		.4byte	0x3264
 8308 1bb3 24       		.uleb128 0x24
 8309 1bb4 74020000 		.4byte	.LVL181
 8310 1bb8 8D310000 		.4byte	0x318d
 8311 1bbc C71B0000 		.4byte	0x1bc7
 8312 1bc0 25       		.uleb128 0x25
 8313 1bc1 01       		.uleb128 0x1
 8314 1bc2 50       		.byte	0x50
 8315 1bc3 02       		.uleb128 0x2
 8316 1bc4 75       		.byte	0x75
 8317 1bc5 00       		.sleb128 0
 8318 1bc6 00       		.byte	0
 8319 1bc7 2A       		.uleb128 0x2a
 8320 1bc8 78020000 		.4byte	.LVL182
 8321 1bcc 70320000 		.4byte	0x3270
 8322 1bd0 00       		.byte	0
 8323 1bd1 24       		.uleb128 0x24
 8324 1bd2 E8000000 		.4byte	.LVL149
 8325 1bd6 8D310000 		.4byte	0x318d
 8326 1bda E51B0000 		.4byte	0x1be5
 8327 1bde 25       		.uleb128 0x25
 8328 1bdf 01       		.uleb128 0x1
 8329 1be0 50       		.byte	0x50
 8330 1be1 02       		.uleb128 0x2
 8331 1be2 75       		.byte	0x75
 8332 1be3 00       		.sleb128 0
 8333 1be4 00       		.byte	0
 8334 1be5 2A       		.uleb128 0x2a
ARM GAS  C:\Users\strap\AppData\Local\Temp\cc4VwSsz.s 			page 188


 8335 1be6 EC000000 		.4byte	.LVL150
 8336 1bea 64320000 		.4byte	0x3264
 8337 1bee 24       		.uleb128 0x24
 8338 1bef F4000000 		.4byte	.LVL152
 8339 1bf3 8D310000 		.4byte	0x318d
 8340 1bf7 021C0000 		.4byte	0x1c02
 8341 1bfb 25       		.uleb128 0x25
 8342 1bfc 01       		.uleb128 0x1
 8343 1bfd 50       		.byte	0x50
 8344 1bfe 02       		.uleb128 0x2
 8345 1bff 75       		.byte	0x75
 8346 1c00 00       		.sleb128 0
 8347 1c01 00       		.byte	0
 8348 1c02 2A       		.uleb128 0x2a
 8349 1c03 F8000000 		.4byte	.LVL153
 8350 1c07 70320000 		.4byte	0x3270
 8351 1c0b 24       		.uleb128 0x24
 8352 1c0c 00010000 		.4byte	.LVL155
 8353 1c10 B1310000 		.4byte	0x31b1
 8354 1c14 1F1C0000 		.4byte	0x1c1f
 8355 1c18 25       		.uleb128 0x25
 8356 1c19 01       		.uleb128 0x1
 8357 1c1a 50       		.byte	0x50
 8358 1c1b 02       		.uleb128 0x2
 8359 1c1c 75       		.byte	0x75
 8360 1c1d 00       		.sleb128 0
 8361 1c1e 00       		.byte	0
 8362 1c1f 24       		.uleb128 0x24
 8363 1c20 08010000 		.4byte	.LVL157
 8364 1c24 BD310000 		.4byte	0x31bd
 8365 1c28 331C0000 		.4byte	0x1c33
 8366 1c2c 25       		.uleb128 0x25
 8367 1c2d 01       		.uleb128 0x1
 8368 1c2e 50       		.byte	0x50
 8369 1c2f 02       		.uleb128 0x2
 8370 1c30 75       		.byte	0x75
 8371 1c31 00       		.sleb128 0
 8372 1c32 00       		.byte	0
 8373 1c33 2A       		.uleb128 0x2a
 8374 1c34 3A020000 		.4byte	.LVL175
 8375 1c38 4C320000 		.4byte	0x324c
 8376 1c3c 24       		.uleb128 0x24
 8377 1c3d 46020000 		.4byte	.LVL177
 8378 1c41 C9310000 		.4byte	0x31c9
 8379 1c45 5C1C0000 		.4byte	0x1c5c
 8380 1c49 25       		.uleb128 0x25
 8381 1c4a 01       		.uleb128 0x1
 8382 1c4b 50       		.byte	0x50
 8383 1c4c 02       		.uleb128 0x2
 8384 1c4d 75       		.byte	0x75
 8385 1c4e 00       		.sleb128 0
 8386 1c4f 25       		.uleb128 0x25
 8387 1c50 01       		.uleb128 0x1
 8388 1c51 51       		.byte	0x51
 8389 1c52 02       		.uleb128 0x2
 8390 1c53 78       		.byte	0x78
 8391 1c54 00       		.sleb128 0
ARM GAS  C:\Users\strap\AppData\Local\Temp\cc4VwSsz.s 			page 189


 8392 1c55 25       		.uleb128 0x25
 8393 1c56 01       		.uleb128 0x1
 8394 1c57 52       		.byte	0x52
 8395 1c58 02       		.uleb128 0x2
 8396 1c59 79       		.byte	0x79
 8397 1c5a 00       		.sleb128 0
 8398 1c5b 00       		.byte	0
 8399 1c5c 29       		.uleb128 0x29
 8400 1c5d AE020000 		.4byte	.LVL188
 8401 1c61 711C0000 		.4byte	0x1c71
 8402 1c65 25       		.uleb128 0x25
 8403 1c66 01       		.uleb128 0x1
 8404 1c67 50       		.byte	0x50
 8405 1c68 02       		.uleb128 0x2
 8406 1c69 75       		.byte	0x75
 8407 1c6a 00       		.sleb128 0
 8408 1c6b 25       		.uleb128 0x25
 8409 1c6c 01       		.uleb128 0x1
 8410 1c6d 51       		.byte	0x51
 8411 1c6e 01       		.uleb128 0x1
 8412 1c6f 41       		.byte	0x41
 8413 1c70 00       		.byte	0
 8414 1c71 24       		.uleb128 0x24
 8415 1c72 B4020000 		.4byte	.LVL189
 8416 1c76 BF110000 		.4byte	0x11bf
 8417 1c7a 851C0000 		.4byte	0x1c85
 8418 1c7e 25       		.uleb128 0x25
 8419 1c7f 01       		.uleb128 0x1
 8420 1c80 50       		.byte	0x50
 8421 1c81 02       		.uleb128 0x2
 8422 1c82 74       		.byte	0x74
 8423 1c83 00       		.sleb128 0
 8424 1c84 00       		.byte	0
 8425 1c85 24       		.uleb128 0x24
 8426 1c86 C0020000 		.4byte	.LVL190
 8427 1c8a ED310000 		.4byte	0x31ed
 8428 1c8e A31C0000 		.4byte	0x1ca3
 8429 1c92 25       		.uleb128 0x25
 8430 1c93 01       		.uleb128 0x1
 8431 1c94 50       		.byte	0x50
 8432 1c95 02       		.uleb128 0x2
 8433 1c96 75       		.byte	0x75
 8434 1c97 00       		.sleb128 0
 8435 1c98 25       		.uleb128 0x25
 8436 1c99 01       		.uleb128 0x1
 8437 1c9a 51       		.byte	0x51
 8438 1c9b 01       		.uleb128 0x1
 8439 1c9c 38       		.byte	0x38
 8440 1c9d 25       		.uleb128 0x25
 8441 1c9e 01       		.uleb128 0x1
 8442 1c9f 52       		.byte	0x52
 8443 1ca0 01       		.uleb128 0x1
 8444 1ca1 30       		.byte	0x30
 8445 1ca2 00       		.byte	0
 8446 1ca3 26       		.uleb128 0x26
 8447 1ca4 C6020000 		.4byte	.LVL191
 8448 1ca8 BF110000 		.4byte	0x11bf
ARM GAS  C:\Users\strap\AppData\Local\Temp\cc4VwSsz.s 			page 190


 8449 1cac 25       		.uleb128 0x25
 8450 1cad 01       		.uleb128 0x1
 8451 1cae 50       		.byte	0x50
 8452 1caf 02       		.uleb128 0x2
 8453 1cb0 74       		.byte	0x74
 8454 1cb1 00       		.sleb128 0
 8455 1cb2 00       		.byte	0
 8456 1cb3 00       		.byte	0
 8457 1cb4 2A       		.uleb128 0x2a
 8458 1cb5 0E000000 		.4byte	.LVL128
 8459 1cb9 F0110000 		.4byte	0x11f0
 8460 1cbd 24       		.uleb128 0x24
 8461 1cbe 1A000000 		.4byte	.LVL129
 8462 1cc2 7C320000 		.4byte	0x327c
 8463 1cc6 D11C0000 		.4byte	0x1cd1
 8464 1cca 25       		.uleb128 0x25
 8465 1ccb 01       		.uleb128 0x1
 8466 1ccc 50       		.byte	0x50
 8467 1ccd 02       		.uleb128 0x2
 8468 1cce 75       		.byte	0x75
 8469 1ccf 00       		.sleb128 0
 8470 1cd0 00       		.byte	0
 8471 1cd1 26       		.uleb128 0x26
 8472 1cd2 26000000 		.4byte	.LVL130
 8473 1cd6 05320000 		.4byte	0x3205
 8474 1cda 25       		.uleb128 0x25
 8475 1cdb 01       		.uleb128 0x1
 8476 1cdc 50       		.byte	0x50
 8477 1cdd 02       		.uleb128 0x2
 8478 1cde 75       		.byte	0x75
 8479 1cdf 00       		.sleb128 0
 8480 1ce0 00       		.byte	0
 8481 1ce1 00       		.byte	0
 8482 1ce2 1E       		.uleb128 0x1e
 8483 1ce3 2A120000 		.4byte	.LASF355
 8484 1ce7 01       		.byte	0x1
 8485 1ce8 D205     		.2byte	0x5d2
 8486 1cea 00000000 		.4byte	.LFB364
 8487 1cee E8000000 		.4byte	.LFE364-.LFB364
 8488 1cf2 01       		.uleb128 0x1
 8489 1cf3 9C       		.byte	0x9c
 8490 1cf4 981D0000 		.4byte	0x1d98
 8491 1cf8 21       		.uleb128 0x21
 8492 1cf9 46070000 		.4byte	.LASF215
 8493 1cfd 01       		.byte	0x1
 8494 1cfe D205     		.2byte	0x5d2
 8495 1d00 EA110000 		.4byte	0x11ea
 8496 1d04 63040000 		.4byte	.LLST30
 8497 1d08 23       		.uleb128 0x23
 8498 1d09 62130000 		.4byte	.LASF356
 8499 1d0d 01       		.byte	0x1
 8500 1d0e D705     		.2byte	0x5d7
 8501 1d10 83110000 		.4byte	0x1183
 8502 1d14 8F040000 		.4byte	.LLST31
 8503 1d18 24       		.uleb128 0x24
 8504 1d19 18000000 		.4byte	.LVL196
 8505 1d1d 8D310000 		.4byte	0x318d
ARM GAS  C:\Users\strap\AppData\Local\Temp\cc4VwSsz.s 			page 191


 8506 1d21 2C1D0000 		.4byte	0x1d2c
 8507 1d25 25       		.uleb128 0x25
 8508 1d26 01       		.uleb128 0x1
 8509 1d27 50       		.byte	0x50
 8510 1d28 02       		.uleb128 0x2
 8511 1d29 74       		.byte	0x74
 8512 1d2a 00       		.sleb128 0
 8513 1d2b 00       		.byte	0
 8514 1d2c 24       		.uleb128 0x24
 8515 1d2d 22000000 		.4byte	.LVL198
 8516 1d31 88320000 		.4byte	0x3288
 8517 1d35 401D0000 		.4byte	0x1d40
 8518 1d39 25       		.uleb128 0x25
 8519 1d3a 01       		.uleb128 0x1
 8520 1d3b 50       		.byte	0x50
 8521 1d3c 02       		.uleb128 0x2
 8522 1d3d 74       		.byte	0x74
 8523 1d3e 00       		.sleb128 0
 8524 1d3f 00       		.byte	0
 8525 1d40 29       		.uleb128 0x29
 8526 1d41 C8000000 		.4byte	.LVL199
 8527 1d45 551D0000 		.4byte	0x1d55
 8528 1d49 25       		.uleb128 0x25
 8529 1d4a 01       		.uleb128 0x1
 8530 1d4b 50       		.byte	0x50
 8531 1d4c 02       		.uleb128 0x2
 8532 1d4d 74       		.byte	0x74
 8533 1d4e 00       		.sleb128 0
 8534 1d4f 25       		.uleb128 0x25
 8535 1d50 01       		.uleb128 0x1
 8536 1d51 51       		.byte	0x51
 8537 1d52 01       		.uleb128 0x1
 8538 1d53 44       		.byte	0x44
 8539 1d54 00       		.byte	0
 8540 1d55 24       		.uleb128 0x24
 8541 1d56 CE000000 		.4byte	.LVL200
 8542 1d5a BF110000 		.4byte	0x11bf
 8543 1d5e 691D0000 		.4byte	0x1d69
 8544 1d62 25       		.uleb128 0x25
 8545 1d63 01       		.uleb128 0x1
 8546 1d64 50       		.byte	0x50
 8547 1d65 02       		.uleb128 0x2
 8548 1d66 75       		.byte	0x75
 8549 1d67 00       		.sleb128 0
 8550 1d68 00       		.byte	0
 8551 1d69 24       		.uleb128 0x24
 8552 1d6a DA000000 		.4byte	.LVL201
 8553 1d6e ED310000 		.4byte	0x31ed
 8554 1d72 871D0000 		.4byte	0x1d87
 8555 1d76 25       		.uleb128 0x25
 8556 1d77 01       		.uleb128 0x1
 8557 1d78 50       		.byte	0x50
 8558 1d79 02       		.uleb128 0x2
 8559 1d7a 74       		.byte	0x74
 8560 1d7b 00       		.sleb128 0
 8561 1d7c 25       		.uleb128 0x25
 8562 1d7d 01       		.uleb128 0x1
ARM GAS  C:\Users\strap\AppData\Local\Temp\cc4VwSsz.s 			page 192


 8563 1d7e 51       		.byte	0x51
 8564 1d7f 01       		.uleb128 0x1
 8565 1d80 3B       		.byte	0x3b
 8566 1d81 25       		.uleb128 0x25
 8567 1d82 01       		.uleb128 0x1
 8568 1d83 52       		.byte	0x52
 8569 1d84 01       		.uleb128 0x1
 8570 1d85 30       		.byte	0x30
 8571 1d86 00       		.byte	0
 8572 1d87 26       		.uleb128 0x26
 8573 1d88 E0000000 		.4byte	.LVL202
 8574 1d8c BF110000 		.4byte	0x11bf
 8575 1d90 25       		.uleb128 0x25
 8576 1d91 01       		.uleb128 0x1
 8577 1d92 50       		.byte	0x50
 8578 1d93 02       		.uleb128 0x2
 8579 1d94 75       		.byte	0x75
 8580 1d95 00       		.sleb128 0
 8581 1d96 00       		.byte	0
 8582 1d97 00       		.byte	0
 8583 1d98 1E       		.uleb128 0x1e
 8584 1d99 D00A0000 		.4byte	.LASF357
 8585 1d9d 01       		.byte	0x1
 8586 1d9e AD01     		.2byte	0x1ad
 8587 1da0 00000000 		.4byte	.LFB353
 8588 1da4 F8020000 		.4byte	.LFE353-.LFB353
 8589 1da8 01       		.uleb128 0x1
 8590 1da9 9C       		.byte	0x9c
 8591 1daa C8210000 		.4byte	0x21c8
 8592 1dae 22       		.uleb128 0x22
 8593 1daf 6900     		.ascii	"i\000"
 8594 1db1 01       		.byte	0x1
 8595 1db2 AD01     		.2byte	0x1ad
 8596 1db4 B9110000 		.4byte	0x11b9
 8597 1db8 A2040000 		.4byte	.LLST32
 8598 1dbc 21       		.uleb128 0x21
 8599 1dbd 76180000 		.4byte	.LASF358
 8600 1dc1 01       		.byte	0x1
 8601 1dc2 AD01     		.2byte	0x1ad
 8602 1dc4 630B0000 		.4byte	0xb63
 8603 1dc8 16050000 		.4byte	.LLST33
 8604 1dcc 2C       		.uleb128 0x2c
 8605 1dcd 6700     		.ascii	"g\000"
 8606 1dcf 01       		.byte	0x1
 8607 1dd0 B901     		.2byte	0x1b9
 8608 1dd2 321A0000 		.4byte	0x1a32
 8609 1dd6 42050000 		.4byte	.LLST34
 8610 1dda 23       		.uleb128 0x23
 8611 1ddb A6060000 		.4byte	.LASF359
 8612 1ddf 01       		.byte	0x1
 8613 1de0 C001     		.2byte	0x1c0
 8614 1de2 CE000000 		.4byte	0xce
 8615 1de6 55050000 		.4byte	.LLST35
 8616 1dea 23       		.uleb128 0x23
 8617 1deb E6120000 		.4byte	.LASF360
 8618 1def 01       		.byte	0x1
 8619 1df0 C901     		.2byte	0x1c9
ARM GAS  C:\Users\strap\AppData\Local\Temp\cc4VwSsz.s 			page 193


 8620 1df2 CE000000 		.4byte	0xce
 8621 1df6 8A050000 		.4byte	.LLST36
 8622 1dfa 24       		.uleb128 0x24
 8623 1dfb 48000000 		.4byte	.LVL206
 8624 1dff 94320000 		.4byte	0x3294
 8625 1e03 0E1E0000 		.4byte	0x1e0e
 8626 1e07 25       		.uleb128 0x25
 8627 1e08 01       		.uleb128 0x1
 8628 1e09 50       		.byte	0x50
 8629 1e0a 02       		.uleb128 0x2
 8630 1e0b 76       		.byte	0x76
 8631 1e0c 00       		.sleb128 0
 8632 1e0d 00       		.byte	0
 8633 1e0e 2A       		.uleb128 0x2a
 8634 1e0f 70000000 		.4byte	.LVL209
 8635 1e13 9F320000 		.4byte	0x329f
 8636 1e17 24       		.uleb128 0x24
 8637 1e18 7E000000 		.4byte	.LVL210
 8638 1e1c AA320000 		.4byte	0x32aa
 8639 1e20 2B1E0000 		.4byte	0x1e2b
 8640 1e24 25       		.uleb128 0x25
 8641 1e25 01       		.uleb128 0x1
 8642 1e26 50       		.byte	0x50
 8643 1e27 02       		.uleb128 0x2
 8644 1e28 76       		.byte	0x76
 8645 1e29 00       		.sleb128 0
 8646 1e2a 00       		.byte	0
 8647 1e2b 29       		.uleb128 0x29
 8648 1e2c 8A000000 		.4byte	.LVL211
 8649 1e30 3F1E0000 		.4byte	0x1e3f
 8650 1e34 25       		.uleb128 0x25
 8651 1e35 01       		.uleb128 0x1
 8652 1e36 51       		.byte	0x51
 8653 1e37 01       		.uleb128 0x1
 8654 1e38 3B       		.byte	0x3b
 8655 1e39 25       		.uleb128 0x25
 8656 1e3a 01       		.uleb128 0x1
 8657 1e3b 52       		.byte	0x52
 8658 1e3c 01       		.uleb128 0x1
 8659 1e3d 30       		.byte	0x30
 8660 1e3e 00       		.byte	0
 8661 1e3f 24       		.uleb128 0x24
 8662 1e40 92000000 		.4byte	.LVL213
 8663 1e44 BF110000 		.4byte	0x11bf
 8664 1e48 531E0000 		.4byte	0x1e53
 8665 1e4c 25       		.uleb128 0x25
 8666 1e4d 01       		.uleb128 0x1
 8667 1e4e 50       		.byte	0x50
 8668 1e4f 02       		.uleb128 0x2
 8669 1e50 74       		.byte	0x74
 8670 1e51 00       		.sleb128 0
 8671 1e52 00       		.byte	0
 8672 1e53 24       		.uleb128 0x24
 8673 1e54 A4000000 		.4byte	.LVL214
 8674 1e58 ED310000 		.4byte	0x31ed
 8675 1e5c 6B1E0000 		.4byte	0x1e6b
 8676 1e60 25       		.uleb128 0x25
ARM GAS  C:\Users\strap\AppData\Local\Temp\cc4VwSsz.s 			page 194


 8677 1e61 01       		.uleb128 0x1
 8678 1e62 51       		.byte	0x51
 8679 1e63 01       		.uleb128 0x1
 8680 1e64 30       		.byte	0x30
 8681 1e65 25       		.uleb128 0x25
 8682 1e66 01       		.uleb128 0x1
 8683 1e67 52       		.byte	0x52
 8684 1e68 01       		.uleb128 0x1
 8685 1e69 30       		.byte	0x30
 8686 1e6a 00       		.byte	0
 8687 1e6b 24       		.uleb128 0x24
 8688 1e6c AA000000 		.4byte	.LVL215
 8689 1e70 BF110000 		.4byte	0x11bf
 8690 1e74 7F1E0000 		.4byte	0x1e7f
 8691 1e78 25       		.uleb128 0x25
 8692 1e79 01       		.uleb128 0x1
 8693 1e7a 50       		.byte	0x50
 8694 1e7b 02       		.uleb128 0x2
 8695 1e7c 74       		.byte	0x74
 8696 1e7d 00       		.sleb128 0
 8697 1e7e 00       		.byte	0
 8698 1e7f 24       		.uleb128 0x24
 8699 1e80 BC000000 		.4byte	.LVL217
 8700 1e84 AA320000 		.4byte	0x32aa
 8701 1e88 931E0000 		.4byte	0x1e93
 8702 1e8c 25       		.uleb128 0x25
 8703 1e8d 01       		.uleb128 0x1
 8704 1e8e 50       		.byte	0x50
 8705 1e8f 02       		.uleb128 0x2
 8706 1e90 76       		.byte	0x76
 8707 1e91 00       		.sleb128 0
 8708 1e92 00       		.byte	0
 8709 1e93 24       		.uleb128 0x24
 8710 1e94 C8000000 		.4byte	.LVL218
 8711 1e98 ED310000 		.4byte	0x31ed
 8712 1e9c AB1E0000 		.4byte	0x1eab
 8713 1ea0 25       		.uleb128 0x25
 8714 1ea1 01       		.uleb128 0x1
 8715 1ea2 51       		.byte	0x51
 8716 1ea3 01       		.uleb128 0x1
 8717 1ea4 44       		.byte	0x44
 8718 1ea5 25       		.uleb128 0x25
 8719 1ea6 01       		.uleb128 0x1
 8720 1ea7 52       		.byte	0x52
 8721 1ea8 01       		.uleb128 0x1
 8722 1ea9 30       		.byte	0x30
 8723 1eaa 00       		.byte	0
 8724 1eab 24       		.uleb128 0x24
 8725 1eac D0000000 		.4byte	.LVL219
 8726 1eb0 BF110000 		.4byte	0x11bf
 8727 1eb4 BF1E0000 		.4byte	0x1ebf
 8728 1eb8 25       		.uleb128 0x25
 8729 1eb9 01       		.uleb128 0x1
 8730 1eba 50       		.byte	0x50
 8731 1ebb 02       		.uleb128 0x2
 8732 1ebc 74       		.byte	0x74
 8733 1ebd 20       		.sleb128 32
ARM GAS  C:\Users\strap\AppData\Local\Temp\cc4VwSsz.s 			page 195


 8734 1ebe 00       		.byte	0
 8735 1ebf 24       		.uleb128 0x24
 8736 1ec0 E4000000 		.4byte	.LVL221
 8737 1ec4 B5320000 		.4byte	0x32b5
 8738 1ec8 D81E0000 		.4byte	0x1ed8
 8739 1ecc 25       		.uleb128 0x25
 8740 1ecd 01       		.uleb128 0x1
 8741 1ece 50       		.byte	0x50
 8742 1ecf 02       		.uleb128 0x2
 8743 1ed0 76       		.byte	0x76
 8744 1ed1 00       		.sleb128 0
 8745 1ed2 25       		.uleb128 0x25
 8746 1ed3 01       		.uleb128 0x1
 8747 1ed4 51       		.byte	0x51
 8748 1ed5 01       		.uleb128 0x1
 8749 1ed6 30       		.byte	0x30
 8750 1ed7 00       		.byte	0
 8751 1ed8 24       		.uleb128 0x24
 8752 1ed9 EA000000 		.4byte	.LVL222
 8753 1edd C0320000 		.4byte	0x32c0
 8754 1ee1 EC1E0000 		.4byte	0x1eec
 8755 1ee5 25       		.uleb128 0x25
 8756 1ee6 01       		.uleb128 0x1
 8757 1ee7 50       		.byte	0x50
 8758 1ee8 02       		.uleb128 0x2
 8759 1ee9 76       		.byte	0x76
 8760 1eea 00       		.sleb128 0
 8761 1eeb 00       		.byte	0
 8762 1eec 24       		.uleb128 0x24
 8763 1eed F2000000 		.4byte	.LVL223
 8764 1ef1 BF110000 		.4byte	0x11bf
 8765 1ef5 001F0000 		.4byte	0x1f00
 8766 1ef9 25       		.uleb128 0x25
 8767 1efa 01       		.uleb128 0x1
 8768 1efb 50       		.byte	0x50
 8769 1efc 02       		.uleb128 0x2
 8770 1efd 74       		.byte	0x74
 8771 1efe 20       		.sleb128 32
 8772 1eff 00       		.byte	0
 8773 1f00 24       		.uleb128 0x24
 8774 1f01 06010000 		.4byte	.LVL225
 8775 1f05 B5320000 		.4byte	0x32b5
 8776 1f09 191F0000 		.4byte	0x1f19
 8777 1f0d 25       		.uleb128 0x25
 8778 1f0e 01       		.uleb128 0x1
 8779 1f0f 50       		.byte	0x50
 8780 1f10 02       		.uleb128 0x2
 8781 1f11 76       		.byte	0x76
 8782 1f12 00       		.sleb128 0
 8783 1f13 25       		.uleb128 0x25
 8784 1f14 01       		.uleb128 0x1
 8785 1f15 51       		.byte	0x51
 8786 1f16 01       		.uleb128 0x1
 8787 1f17 30       		.byte	0x30
 8788 1f18 00       		.byte	0
 8789 1f19 24       		.uleb128 0x24
 8790 1f1a 0C010000 		.4byte	.LVL226
ARM GAS  C:\Users\strap\AppData\Local\Temp\cc4VwSsz.s 			page 196


 8791 1f1e CB320000 		.4byte	0x32cb
 8792 1f22 2D1F0000 		.4byte	0x1f2d
 8793 1f26 25       		.uleb128 0x25
 8794 1f27 01       		.uleb128 0x1
 8795 1f28 50       		.byte	0x50
 8796 1f29 02       		.uleb128 0x2
 8797 1f2a 76       		.byte	0x76
 8798 1f2b 00       		.sleb128 0
 8799 1f2c 00       		.byte	0
 8800 1f2d 24       		.uleb128 0x24
 8801 1f2e 14010000 		.4byte	.LVL227
 8802 1f32 BF110000 		.4byte	0x11bf
 8803 1f36 411F0000 		.4byte	0x1f41
 8804 1f3a 25       		.uleb128 0x25
 8805 1f3b 01       		.uleb128 0x1
 8806 1f3c 50       		.byte	0x50
 8807 1f3d 02       		.uleb128 0x2
 8808 1f3e 74       		.byte	0x74
 8809 1f3f 20       		.sleb128 32
 8810 1f40 00       		.byte	0
 8811 1f41 24       		.uleb128 0x24
 8812 1f42 22010000 		.4byte	.LVL229
 8813 1f46 AA320000 		.4byte	0x32aa
 8814 1f4a 551F0000 		.4byte	0x1f55
 8815 1f4e 25       		.uleb128 0x25
 8816 1f4f 01       		.uleb128 0x1
 8817 1f50 50       		.byte	0x50
 8818 1f51 02       		.uleb128 0x2
 8819 1f52 76       		.byte	0x76
 8820 1f53 00       		.sleb128 0
 8821 1f54 00       		.byte	0
 8822 1f55 29       		.uleb128 0x29
 8823 1f56 3E010000 		.4byte	.LVL233
 8824 1f5a 691F0000 		.4byte	0x1f69
 8825 1f5e 25       		.uleb128 0x25
 8826 1f5f 01       		.uleb128 0x1
 8827 1f60 51       		.byte	0x51
 8828 1f61 01       		.uleb128 0x1
 8829 1f62 3C       		.byte	0x3c
 8830 1f63 25       		.uleb128 0x25
 8831 1f64 01       		.uleb128 0x1
 8832 1f65 52       		.byte	0x52
 8833 1f66 01       		.uleb128 0x1
 8834 1f67 30       		.byte	0x30
 8835 1f68 00       		.byte	0
 8836 1f69 24       		.uleb128 0x24
 8837 1f6a 48010000 		.4byte	.LVL234
 8838 1f6e BF110000 		.4byte	0x11bf
 8839 1f72 7D1F0000 		.4byte	0x1f7d
 8840 1f76 25       		.uleb128 0x25
 8841 1f77 01       		.uleb128 0x1
 8842 1f78 50       		.byte	0x50
 8843 1f79 02       		.uleb128 0x2
 8844 1f7a 77       		.byte	0x77
 8845 1f7b 00       		.sleb128 0
 8846 1f7c 00       		.byte	0
 8847 1f7d 24       		.uleb128 0x24
ARM GAS  C:\Users\strap\AppData\Local\Temp\cc4VwSsz.s 			page 197


 8848 1f7e 5A010000 		.4byte	.LVL235
 8849 1f82 ED310000 		.4byte	0x31ed
 8850 1f86 951F0000 		.4byte	0x1f95
 8851 1f8a 25       		.uleb128 0x25
 8852 1f8b 01       		.uleb128 0x1
 8853 1f8c 51       		.byte	0x51
 8854 1f8d 01       		.uleb128 0x1
 8855 1f8e 31       		.byte	0x31
 8856 1f8f 25       		.uleb128 0x25
 8857 1f90 01       		.uleb128 0x1
 8858 1f91 52       		.byte	0x52
 8859 1f92 01       		.uleb128 0x1
 8860 1f93 30       		.byte	0x30
 8861 1f94 00       		.byte	0
 8862 1f95 24       		.uleb128 0x24
 8863 1f96 60010000 		.4byte	.LVL236
 8864 1f9a BF110000 		.4byte	0x11bf
 8865 1f9e A91F0000 		.4byte	0x1fa9
 8866 1fa2 25       		.uleb128 0x25
 8867 1fa3 01       		.uleb128 0x1
 8868 1fa4 50       		.byte	0x50
 8869 1fa5 02       		.uleb128 0x2
 8870 1fa6 77       		.byte	0x77
 8871 1fa7 00       		.sleb128 0
 8872 1fa8 00       		.byte	0
 8873 1fa9 2A       		.uleb128 0x2a
 8874 1faa 76010000 		.4byte	.LVL237
 8875 1fae D6320000 		.4byte	0x32d6
 8876 1fb2 2A       		.uleb128 0x2a
 8877 1fb3 94010000 		.4byte	.LVL238
 8878 1fb7 9F320000 		.4byte	0x329f
 8879 1fbb 29       		.uleb128 0x29
 8880 1fbc A2010000 		.4byte	.LVL239
 8881 1fc0 CF1F0000 		.4byte	0x1fcf
 8882 1fc4 25       		.uleb128 0x25
 8883 1fc5 01       		.uleb128 0x1
 8884 1fc6 51       		.byte	0x51
 8885 1fc7 01       		.uleb128 0x1
 8886 1fc8 3F       		.byte	0x3f
 8887 1fc9 25       		.uleb128 0x25
 8888 1fca 01       		.uleb128 0x1
 8889 1fcb 52       		.byte	0x52
 8890 1fcc 01       		.uleb128 0x1
 8891 1fcd 30       		.byte	0x30
 8892 1fce 00       		.byte	0
 8893 1fcf 24       		.uleb128 0x24
 8894 1fd0 AA010000 		.4byte	.LVL241
 8895 1fd4 BF110000 		.4byte	0x11bf
 8896 1fd8 E31F0000 		.4byte	0x1fe3
 8897 1fdc 25       		.uleb128 0x25
 8898 1fdd 01       		.uleb128 0x1
 8899 1fde 50       		.byte	0x50
 8900 1fdf 02       		.uleb128 0x2
 8901 1fe0 74       		.byte	0x74
 8902 1fe1 00       		.sleb128 0
 8903 1fe2 00       		.byte	0
 8904 1fe3 24       		.uleb128 0x24
ARM GAS  C:\Users\strap\AppData\Local\Temp\cc4VwSsz.s 			page 198


 8905 1fe4 BC010000 		.4byte	.LVL242
 8906 1fe8 ED310000 		.4byte	0x31ed
 8907 1fec FB1F0000 		.4byte	0x1ffb
 8908 1ff0 25       		.uleb128 0x25
 8909 1ff1 01       		.uleb128 0x1
 8910 1ff2 51       		.byte	0x51
 8911 1ff3 01       		.uleb128 0x1
 8912 1ff4 34       		.byte	0x34
 8913 1ff5 25       		.uleb128 0x25
 8914 1ff6 01       		.uleb128 0x1
 8915 1ff7 52       		.byte	0x52
 8916 1ff8 01       		.uleb128 0x1
 8917 1ff9 30       		.byte	0x30
 8918 1ffa 00       		.byte	0
 8919 1ffb 24       		.uleb128 0x24
 8920 1ffc C2010000 		.4byte	.LVL243
 8921 2000 BF110000 		.4byte	0x11bf
 8922 2004 0F200000 		.4byte	0x200f
 8923 2008 25       		.uleb128 0x25
 8924 2009 01       		.uleb128 0x1
 8925 200a 50       		.byte	0x50
 8926 200b 02       		.uleb128 0x2
 8927 200c 74       		.byte	0x74
 8928 200d 00       		.sleb128 0
 8929 200e 00       		.byte	0
 8930 200f 2A       		.uleb128 0x2a
 8931 2010 DC010000 		.4byte	.LVL245
 8932 2014 D6320000 		.4byte	0x32d6
 8933 2018 2A       		.uleb128 0x2a
 8934 2019 E8010000 		.4byte	.LVL246
 8935 201d 9F320000 		.4byte	0x329f
 8936 2021 29       		.uleb128 0x29
 8937 2022 FC010000 		.4byte	.LVL247
 8938 2026 35200000 		.4byte	0x2035
 8939 202a 25       		.uleb128 0x25
 8940 202b 01       		.uleb128 0x1
 8941 202c 51       		.byte	0x51
 8942 202d 01       		.uleb128 0x1
 8943 202e 40       		.byte	0x40
 8944 202f 25       		.uleb128 0x25
 8945 2030 01       		.uleb128 0x1
 8946 2031 52       		.byte	0x52
 8947 2032 01       		.uleb128 0x1
 8948 2033 30       		.byte	0x30
 8949 2034 00       		.byte	0
 8950 2035 24       		.uleb128 0x24
 8951 2036 04020000 		.4byte	.LVL249
 8952 203a BF110000 		.4byte	0x11bf
 8953 203e 49200000 		.4byte	0x2049
 8954 2042 25       		.uleb128 0x25
 8955 2043 01       		.uleb128 0x1
 8956 2044 50       		.byte	0x50
 8957 2045 02       		.uleb128 0x2
 8958 2046 74       		.byte	0x74
 8959 2047 00       		.sleb128 0
 8960 2048 00       		.byte	0
 8961 2049 24       		.uleb128 0x24
ARM GAS  C:\Users\strap\AppData\Local\Temp\cc4VwSsz.s 			page 199


 8962 204a 14020000 		.4byte	.LVL250
 8963 204e ED310000 		.4byte	0x31ed
 8964 2052 61200000 		.4byte	0x2061
 8965 2056 25       		.uleb128 0x25
 8966 2057 01       		.uleb128 0x1
 8967 2058 51       		.byte	0x51
 8968 2059 01       		.uleb128 0x1
 8969 205a 35       		.byte	0x35
 8970 205b 25       		.uleb128 0x25
 8971 205c 01       		.uleb128 0x1
 8972 205d 52       		.byte	0x52
 8973 205e 01       		.uleb128 0x1
 8974 205f 30       		.byte	0x30
 8975 2060 00       		.byte	0
 8976 2061 24       		.uleb128 0x24
 8977 2062 1A020000 		.4byte	.LVL251
 8978 2066 BF110000 		.4byte	0x11bf
 8979 206a 75200000 		.4byte	0x2075
 8980 206e 25       		.uleb128 0x25
 8981 206f 01       		.uleb128 0x1
 8982 2070 50       		.byte	0x50
 8983 2071 02       		.uleb128 0x2
 8984 2072 74       		.byte	0x74
 8985 2073 00       		.sleb128 0
 8986 2074 00       		.byte	0
 8987 2075 24       		.uleb128 0x24
 8988 2076 2C020000 		.4byte	.LVL253
 8989 207a B5320000 		.4byte	0x32b5
 8990 207e 8E200000 		.4byte	0x208e
 8991 2082 25       		.uleb128 0x25
 8992 2083 01       		.uleb128 0x1
 8993 2084 50       		.byte	0x50
 8994 2085 02       		.uleb128 0x2
 8995 2086 76       		.byte	0x76
 8996 2087 00       		.sleb128 0
 8997 2088 25       		.uleb128 0x25
 8998 2089 01       		.uleb128 0x1
 8999 208a 51       		.byte	0x51
 9000 208b 01       		.uleb128 0x1
 9001 208c 30       		.byte	0x30
 9002 208d 00       		.byte	0
 9003 208e 24       		.uleb128 0x24
 9004 208f 32020000 		.4byte	.LVL254
 9005 2093 C0320000 		.4byte	0x32c0
 9006 2097 A2200000 		.4byte	0x20a2
 9007 209b 25       		.uleb128 0x25
 9008 209c 01       		.uleb128 0x1
 9009 209d 50       		.byte	0x50
 9010 209e 02       		.uleb128 0x2
 9011 209f 76       		.byte	0x76
 9012 20a0 00       		.sleb128 0
 9013 20a1 00       		.byte	0
 9014 20a2 24       		.uleb128 0x24
 9015 20a3 3A020000 		.4byte	.LVL255
 9016 20a7 BF110000 		.4byte	0x11bf
 9017 20ab B6200000 		.4byte	0x20b6
 9018 20af 25       		.uleb128 0x25
ARM GAS  C:\Users\strap\AppData\Local\Temp\cc4VwSsz.s 			page 200


 9019 20b0 01       		.uleb128 0x1
 9020 20b1 50       		.byte	0x50
 9021 20b2 02       		.uleb128 0x2
 9022 20b3 74       		.byte	0x74
 9023 20b4 20       		.sleb128 32
 9024 20b5 00       		.byte	0
 9025 20b6 24       		.uleb128 0x24
 9026 20b7 4C020000 		.4byte	.LVL257
 9027 20bb B5320000 		.4byte	0x32b5
 9028 20bf CF200000 		.4byte	0x20cf
 9029 20c3 25       		.uleb128 0x25
 9030 20c4 01       		.uleb128 0x1
 9031 20c5 50       		.byte	0x50
 9032 20c6 02       		.uleb128 0x2
 9033 20c7 76       		.byte	0x76
 9034 20c8 00       		.sleb128 0
 9035 20c9 25       		.uleb128 0x25
 9036 20ca 01       		.uleb128 0x1
 9037 20cb 51       		.byte	0x51
 9038 20cc 01       		.uleb128 0x1
 9039 20cd 30       		.byte	0x30
 9040 20ce 00       		.byte	0
 9041 20cf 24       		.uleb128 0x24
 9042 20d0 52020000 		.4byte	.LVL258
 9043 20d4 CB320000 		.4byte	0x32cb
 9044 20d8 E3200000 		.4byte	0x20e3
 9045 20dc 25       		.uleb128 0x25
 9046 20dd 01       		.uleb128 0x1
 9047 20de 50       		.byte	0x50
 9048 20df 02       		.uleb128 0x2
 9049 20e0 76       		.byte	0x76
 9050 20e1 00       		.sleb128 0
 9051 20e2 00       		.byte	0
 9052 20e3 24       		.uleb128 0x24
 9053 20e4 5A020000 		.4byte	.LVL259
 9054 20e8 BF110000 		.4byte	0x11bf
 9055 20ec F7200000 		.4byte	0x20f7
 9056 20f0 25       		.uleb128 0x25
 9057 20f1 01       		.uleb128 0x1
 9058 20f2 50       		.byte	0x50
 9059 20f3 02       		.uleb128 0x2
 9060 20f4 74       		.byte	0x74
 9061 20f5 20       		.sleb128 32
 9062 20f6 00       		.byte	0
 9063 20f7 24       		.uleb128 0x24
 9064 20f8 66020000 		.4byte	.LVL261
 9065 20fc AA320000 		.4byte	0x32aa
 9066 2100 0B210000 		.4byte	0x210b
 9067 2104 25       		.uleb128 0x25
 9068 2105 01       		.uleb128 0x1
 9069 2106 50       		.byte	0x50
 9070 2107 02       		.uleb128 0x2
 9071 2108 76       		.byte	0x76
 9072 2109 00       		.sleb128 0
 9073 210a 00       		.byte	0
 9074 210b 24       		.uleb128 0x24
 9075 210c 6E020000 		.4byte	.LVL262
ARM GAS  C:\Users\strap\AppData\Local\Temp\cc4VwSsz.s 			page 201


 9076 2110 BF110000 		.4byte	0x11bf
 9077 2114 1F210000 		.4byte	0x211f
 9078 2118 25       		.uleb128 0x25
 9079 2119 01       		.uleb128 0x1
 9080 211a 50       		.byte	0x50
 9081 211b 02       		.uleb128 0x2
 9082 211c 74       		.byte	0x74
 9083 211d 20       		.sleb128 32
 9084 211e 00       		.byte	0
 9085 211f 29       		.uleb128 0x29
 9086 2120 8A020000 		.4byte	.LVL266
 9087 2124 33210000 		.4byte	0x2133
 9088 2128 25       		.uleb128 0x25
 9089 2129 01       		.uleb128 0x1
 9090 212a 51       		.byte	0x51
 9091 212b 01       		.uleb128 0x1
 9092 212c 3E       		.byte	0x3e
 9093 212d 25       		.uleb128 0x25
 9094 212e 01       		.uleb128 0x1
 9095 212f 52       		.byte	0x52
 9096 2130 01       		.uleb128 0x1
 9097 2131 30       		.byte	0x30
 9098 2132 00       		.byte	0
 9099 2133 24       		.uleb128 0x24
 9100 2134 94020000 		.4byte	.LVL268
 9101 2138 BF110000 		.4byte	0x11bf
 9102 213c 47210000 		.4byte	0x2147
 9103 2140 25       		.uleb128 0x25
 9104 2141 01       		.uleb128 0x1
 9105 2142 50       		.byte	0x50
 9106 2143 02       		.uleb128 0x2
 9107 2144 75       		.byte	0x75
 9108 2145 00       		.sleb128 0
 9109 2146 00       		.byte	0
 9110 2147 24       		.uleb128 0x24
 9111 2148 AC020000 		.4byte	.LVL269
 9112 214c ED310000 		.4byte	0x31ed
 9113 2150 5F210000 		.4byte	0x215f
 9114 2154 25       		.uleb128 0x25
 9115 2155 01       		.uleb128 0x1
 9116 2156 51       		.byte	0x51
 9117 2157 01       		.uleb128 0x1
 9118 2158 33       		.byte	0x33
 9119 2159 25       		.uleb128 0x25
 9120 215a 01       		.uleb128 0x1
 9121 215b 52       		.byte	0x52
 9122 215c 01       		.uleb128 0x1
 9123 215d 30       		.byte	0x30
 9124 215e 00       		.byte	0
 9125 215f 24       		.uleb128 0x24
 9126 2160 B2020000 		.4byte	.LVL270
 9127 2164 BF110000 		.4byte	0x11bf
 9128 2168 73210000 		.4byte	0x2173
 9129 216c 25       		.uleb128 0x25
 9130 216d 01       		.uleb128 0x1
 9131 216e 50       		.byte	0x50
 9132 216f 02       		.uleb128 0x2
ARM GAS  C:\Users\strap\AppData\Local\Temp\cc4VwSsz.s 			page 202


 9133 2170 75       		.byte	0x75
 9134 2171 00       		.sleb128 0
 9135 2172 00       		.byte	0
 9136 2173 24       		.uleb128 0x24
 9137 2174 C0020000 		.4byte	.LVL271
 9138 2178 ED310000 		.4byte	0x31ed
 9139 217c 8B210000 		.4byte	0x218b
 9140 2180 25       		.uleb128 0x25
 9141 2181 01       		.uleb128 0x1
 9142 2182 51       		.byte	0x51
 9143 2183 01       		.uleb128 0x1
 9144 2184 36       		.byte	0x36
 9145 2185 25       		.uleb128 0x25
 9146 2186 01       		.uleb128 0x1
 9147 2187 52       		.byte	0x52
 9148 2188 01       		.uleb128 0x1
 9149 2189 30       		.byte	0x30
 9150 218a 00       		.byte	0
 9151 218b 24       		.uleb128 0x24
 9152 218c C6020000 		.4byte	.LVL272
 9153 2190 BF110000 		.4byte	0x11bf
 9154 2194 9F210000 		.4byte	0x219f
 9155 2198 25       		.uleb128 0x25
 9156 2199 01       		.uleb128 0x1
 9157 219a 50       		.byte	0x50
 9158 219b 02       		.uleb128 0x2
 9159 219c 75       		.byte	0x75
 9160 219d 00       		.sleb128 0
 9161 219e 00       		.byte	0
 9162 219f 24       		.uleb128 0x24
 9163 21a0 D4020000 		.4byte	.LVL273
 9164 21a4 ED310000 		.4byte	0x31ed
 9165 21a8 B7210000 		.4byte	0x21b7
 9166 21ac 25       		.uleb128 0x25
 9167 21ad 01       		.uleb128 0x1
 9168 21ae 51       		.byte	0x51
 9169 21af 01       		.uleb128 0x1
 9170 21b0 37       		.byte	0x37
 9171 21b1 25       		.uleb128 0x25
 9172 21b2 01       		.uleb128 0x1
 9173 21b3 52       		.byte	0x52
 9174 21b4 01       		.uleb128 0x1
 9175 21b5 30       		.byte	0x30
 9176 21b6 00       		.byte	0
 9177 21b7 26       		.uleb128 0x26
 9178 21b8 DA020000 		.4byte	.LVL274
 9179 21bc BF110000 		.4byte	0x11bf
 9180 21c0 25       		.uleb128 0x25
 9181 21c1 01       		.uleb128 0x1
 9182 21c2 50       		.byte	0x50
 9183 21c3 02       		.uleb128 0x2
 9184 21c4 75       		.byte	0x75
 9185 21c5 00       		.sleb128 0
 9186 21c6 00       		.byte	0
 9187 21c7 00       		.byte	0
 9188 21c8 1E       		.uleb128 0x1e
 9189 21c9 0B050000 		.4byte	.LASF361
ARM GAS  C:\Users\strap\AppData\Local\Temp\cc4VwSsz.s 			page 203


 9190 21cd 01       		.byte	0x1
 9191 21ce 4A02     		.2byte	0x24a
 9192 21d0 00000000 		.4byte	.LFB354
 9193 21d4 5C040000 		.4byte	.LFE354-.LFB354
 9194 21d8 01       		.uleb128 0x1
 9195 21d9 9C       		.byte	0x9c
 9196 21da FB260000 		.4byte	0x26fb
 9197 21de 22       		.uleb128 0x22
 9198 21df 6900     		.ascii	"i\000"
 9199 21e1 01       		.byte	0x1
 9200 21e2 4A02     		.2byte	0x24a
 9201 21e4 B9110000 		.4byte	0x11b9
 9202 21e8 B3050000 		.4byte	.LLST37
 9203 21ec 21       		.uleb128 0x21
 9204 21ed 76180000 		.4byte	.LASF358
 9205 21f1 01       		.byte	0x1
 9206 21f2 4A02     		.2byte	0x24a
 9207 21f4 630B0000 		.4byte	0xb63
 9208 21f8 0F060000 		.4byte	.LLST38
 9209 21fc 23       		.uleb128 0x23
 9210 21fd C3030000 		.4byte	.LASF201
 9211 2201 01       		.byte	0x1
 9212 2202 5902     		.2byte	0x259
 9213 2204 F1090000 		.4byte	0x9f1
 9214 2208 3B060000 		.4byte	.LLST39
 9215 220c 2C       		.uleb128 0x2c
 9216 220d 6700     		.ascii	"g\000"
 9217 220f 01       		.byte	0x1
 9218 2210 5D02     		.2byte	0x25d
 9219 2212 321A0000 		.4byte	0x1a32
 9220 2216 6F060000 		.4byte	.LLST40
 9221 221a 27       		.uleb128 0x27
 9222 221b 92000000 		.4byte	.LBB9
 9223 221f 58000000 		.4byte	.LBE9-.LBB9
 9224 2223 B0220000 		.4byte	0x22b0
 9225 2227 28       		.uleb128 0x28
 9226 2228 C70A0000 		.4byte	.LASF362
 9227 222c 01       		.byte	0x1
 9228 222d 7202     		.2byte	0x272
 9229 222f C1010000 		.4byte	0x1c1
 9230 2233 02       		.uleb128 0x2
 9231 2234 91       		.byte	0x91
 9232 2235 67       		.sleb128 -25
 9233 2236 29       		.uleb128 0x29
 9234 2237 A4000000 		.4byte	.LVL284
 9235 223b 4B220000 		.4byte	0x224b
 9236 223f 25       		.uleb128 0x25
 9237 2240 01       		.uleb128 0x1
 9238 2241 51       		.byte	0x51
 9239 2242 01       		.uleb128 0x1
 9240 2243 49       		.byte	0x49
 9241 2244 25       		.uleb128 0x25
 9242 2245 01       		.uleb128 0x1
 9243 2246 52       		.byte	0x52
 9244 2247 02       		.uleb128 0x2
 9245 2248 91       		.byte	0x91
 9246 2249 67       		.sleb128 -25
ARM GAS  C:\Users\strap\AppData\Local\Temp\cc4VwSsz.s 			page 204


 9247 224a 00       		.byte	0
 9248 224b 24       		.uleb128 0x24
 9249 224c AA000000 		.4byte	.LVL285
 9250 2250 E1320000 		.4byte	0x32e1
 9251 2254 5F220000 		.4byte	0x225f
 9252 2258 25       		.uleb128 0x25
 9253 2259 01       		.uleb128 0x1
 9254 225a 50       		.byte	0x50
 9255 225b 02       		.uleb128 0x2
 9256 225c 76       		.byte	0x76
 9257 225d 00       		.sleb128 0
 9258 225e 00       		.byte	0
 9259 225f 29       		.uleb128 0x29
 9260 2260 C2000000 		.4byte	.LVL286
 9261 2264 73220000 		.4byte	0x2273
 9262 2268 25       		.uleb128 0x25
 9263 2269 01       		.uleb128 0x1
 9264 226a 51       		.byte	0x51
 9265 226b 01       		.uleb128 0x1
 9266 226c 3B       		.byte	0x3b
 9267 226d 25       		.uleb128 0x25
 9268 226e 01       		.uleb128 0x1
 9269 226f 52       		.byte	0x52
 9270 2270 01       		.uleb128 0x1
 9271 2271 30       		.byte	0x30
 9272 2272 00       		.byte	0
 9273 2273 24       		.uleb128 0x24
 9274 2274 CA000000 		.4byte	.LVL288
 9275 2278 BF110000 		.4byte	0x11bf
 9276 227c 87220000 		.4byte	0x2287
 9277 2280 25       		.uleb128 0x25
 9278 2281 01       		.uleb128 0x1
 9279 2282 50       		.byte	0x50
 9280 2283 02       		.uleb128 0x2
 9281 2284 75       		.byte	0x75
 9282 2285 00       		.sleb128 0
 9283 2286 00       		.byte	0
 9284 2287 24       		.uleb128 0x24
 9285 2288 DC000000 		.4byte	.LVL289
 9286 228c ED310000 		.4byte	0x31ed
 9287 2290 9F220000 		.4byte	0x229f
 9288 2294 25       		.uleb128 0x25
 9289 2295 01       		.uleb128 0x1
 9290 2296 51       		.byte	0x51
 9291 2297 01       		.uleb128 0x1
 9292 2298 30       		.byte	0x30
 9293 2299 25       		.uleb128 0x25
 9294 229a 01       		.uleb128 0x1
 9295 229b 52       		.byte	0x52
 9296 229c 01       		.uleb128 0x1
 9297 229d 30       		.byte	0x30
 9298 229e 00       		.byte	0
 9299 229f 26       		.uleb128 0x26
 9300 22a0 E2000000 		.4byte	.LVL290
 9301 22a4 BF110000 		.4byte	0x11bf
 9302 22a8 25       		.uleb128 0x25
 9303 22a9 01       		.uleb128 0x1
ARM GAS  C:\Users\strap\AppData\Local\Temp\cc4VwSsz.s 			page 205


 9304 22aa 50       		.byte	0x50
 9305 22ab 02       		.uleb128 0x2
 9306 22ac 75       		.byte	0x75
 9307 22ad 00       		.sleb128 0
 9308 22ae 00       		.byte	0
 9309 22af 00       		.byte	0
 9310 22b0 27       		.uleb128 0x27
 9311 22b1 6E010000 		.4byte	.LBB10
 9312 22b5 6A000000 		.4byte	.LBE10-.LBB10
 9313 22b9 74230000 		.4byte	0x2374
 9314 22bd 28       		.uleb128 0x28
 9315 22be C70A0000 		.4byte	.LASF362
 9316 22c2 01       		.byte	0x1
 9317 22c3 9A02     		.2byte	0x29a
 9318 22c5 C1010000 		.4byte	0x1c1
 9319 22c9 02       		.uleb128 0x2
 9320 22ca 91       		.byte	0x91
 9321 22cb 67       		.sleb128 -25
 9322 22cc 29       		.uleb128 0x29
 9323 22cd 80010000 		.4byte	.LVL298
 9324 22d1 E1220000 		.4byte	0x22e1
 9325 22d5 25       		.uleb128 0x25
 9326 22d6 01       		.uleb128 0x1
 9327 22d7 51       		.byte	0x51
 9328 22d8 01       		.uleb128 0x1
 9329 22d9 49       		.byte	0x49
 9330 22da 25       		.uleb128 0x25
 9331 22db 01       		.uleb128 0x1
 9332 22dc 52       		.byte	0x52
 9333 22dd 02       		.uleb128 0x2
 9334 22de 91       		.byte	0x91
 9335 22df 67       		.sleb128 -25
 9336 22e0 00       		.byte	0
 9337 22e1 24       		.uleb128 0x24
 9338 22e2 8C010000 		.4byte	.LVL300
 9339 22e6 EC320000 		.4byte	0x32ec
 9340 22ea F5220000 		.4byte	0x22f5
 9341 22ee 25       		.uleb128 0x25
 9342 22ef 01       		.uleb128 0x1
 9343 22f0 50       		.byte	0x50
 9344 22f1 02       		.uleb128 0x2
 9345 22f2 76       		.byte	0x76
 9346 22f3 00       		.sleb128 0
 9347 22f4 00       		.byte	0
 9348 22f5 24       		.uleb128 0x24
 9349 22f6 96010000 		.4byte	.LVL301
 9350 22fa E1320000 		.4byte	0x32e1
 9351 22fe 09230000 		.4byte	0x2309
 9352 2302 25       		.uleb128 0x25
 9353 2303 01       		.uleb128 0x1
 9354 2304 50       		.byte	0x50
 9355 2305 02       		.uleb128 0x2
 9356 2306 76       		.byte	0x76
 9357 2307 00       		.sleb128 0
 9358 2308 00       		.byte	0
 9359 2309 24       		.uleb128 0x24
 9360 230a A2010000 		.4byte	.LVL302
ARM GAS  C:\Users\strap\AppData\Local\Temp\cc4VwSsz.s 			page 206


 9361 230e B5320000 		.4byte	0x32b5
 9362 2312 23230000 		.4byte	0x2323
 9363 2316 25       		.uleb128 0x25
 9364 2317 01       		.uleb128 0x1
 9365 2318 50       		.byte	0x50
 9366 2319 02       		.uleb128 0x2
 9367 231a 76       		.byte	0x76
 9368 231b 00       		.sleb128 0
 9369 231c 25       		.uleb128 0x25
 9370 231d 01       		.uleb128 0x1
 9371 231e 51       		.byte	0x51
 9372 231f 02       		.uleb128 0x2
 9373 2320 77       		.byte	0x77
 9374 2321 00       		.sleb128 0
 9375 2322 00       		.byte	0
 9376 2323 29       		.uleb128 0x29
 9377 2324 B0010000 		.4byte	.LVL303
 9378 2328 37230000 		.4byte	0x2337
 9379 232c 25       		.uleb128 0x25
 9380 232d 01       		.uleb128 0x1
 9381 232e 51       		.byte	0x51
 9382 232f 01       		.uleb128 0x1
 9383 2330 3F       		.byte	0x3f
 9384 2331 25       		.uleb128 0x25
 9385 2332 01       		.uleb128 0x1
 9386 2333 52       		.byte	0x52
 9387 2334 01       		.uleb128 0x1
 9388 2335 30       		.byte	0x30
 9389 2336 00       		.byte	0
 9390 2337 24       		.uleb128 0x24
 9391 2338 BA010000 		.4byte	.LVL304
 9392 233c BF110000 		.4byte	0x11bf
 9393 2340 4B230000 		.4byte	0x234b
 9394 2344 25       		.uleb128 0x25
 9395 2345 01       		.uleb128 0x1
 9396 2346 50       		.byte	0x50
 9397 2347 02       		.uleb128 0x2
 9398 2348 77       		.byte	0x77
 9399 2349 00       		.sleb128 0
 9400 234a 00       		.byte	0
 9401 234b 24       		.uleb128 0x24
 9402 234c CC010000 		.4byte	.LVL305
 9403 2350 ED310000 		.4byte	0x31ed
 9404 2354 63230000 		.4byte	0x2363
 9405 2358 25       		.uleb128 0x25
 9406 2359 01       		.uleb128 0x1
 9407 235a 51       		.byte	0x51
 9408 235b 01       		.uleb128 0x1
 9409 235c 34       		.byte	0x34
 9410 235d 25       		.uleb128 0x25
 9411 235e 01       		.uleb128 0x1
 9412 235f 52       		.byte	0x52
 9413 2360 01       		.uleb128 0x1
 9414 2361 30       		.byte	0x30
 9415 2362 00       		.byte	0
 9416 2363 26       		.uleb128 0x26
 9417 2364 D2010000 		.4byte	.LVL306
ARM GAS  C:\Users\strap\AppData\Local\Temp\cc4VwSsz.s 			page 207


 9418 2368 BF110000 		.4byte	0x11bf
 9419 236c 25       		.uleb128 0x25
 9420 236d 01       		.uleb128 0x1
 9421 236e 50       		.byte	0x50
 9422 236f 02       		.uleb128 0x2
 9423 2370 77       		.byte	0x77
 9424 2371 00       		.sleb128 0
 9425 2372 00       		.byte	0
 9426 2373 00       		.byte	0
 9427 2374 27       		.uleb128 0x27
 9428 2375 86020000 		.4byte	.LBB11
 9429 2379 26010000 		.4byte	.LBE11-.LBB11
 9430 237d 3B250000 		.4byte	0x253b
 9431 2381 28       		.uleb128 0x28
 9432 2382 C70A0000 		.4byte	.LASF362
 9433 2386 01       		.byte	0x1
 9434 2387 CE02     		.2byte	0x2ce
 9435 2389 C1010000 		.4byte	0x1c1
 9436 238d 02       		.uleb128 0x2
 9437 238e 91       		.byte	0x91
 9438 238f 67       		.sleb128 -25
 9439 2390 29       		.uleb128 0x29
 9440 2391 94020000 		.4byte	.LVL318
 9441 2395 A5230000 		.4byte	0x23a5
 9442 2399 25       		.uleb128 0x25
 9443 239a 01       		.uleb128 0x1
 9444 239b 51       		.byte	0x51
 9445 239c 01       		.uleb128 0x1
 9446 239d 49       		.byte	0x49
 9447 239e 25       		.uleb128 0x25
 9448 239f 01       		.uleb128 0x1
 9449 23a0 52       		.byte	0x52
 9450 23a1 02       		.uleb128 0x2
 9451 23a2 91       		.byte	0x91
 9452 23a3 67       		.sleb128 -25
 9453 23a4 00       		.byte	0
 9454 23a5 29       		.uleb128 0x29
 9455 23a6 A6020000 		.4byte	.LVL319
 9456 23aa B4230000 		.4byte	0x23b4
 9457 23ae 25       		.uleb128 0x25
 9458 23af 01       		.uleb128 0x1
 9459 23b0 51       		.byte	0x51
 9460 23b1 01       		.uleb128 0x1
 9461 23b2 3E       		.byte	0x3e
 9462 23b3 00       		.byte	0
 9463 23b4 24       		.uleb128 0x24
 9464 23b5 B0020000 		.4byte	.LVL321
 9465 23b9 BF110000 		.4byte	0x11bf
 9466 23bd C8230000 		.4byte	0x23c8
 9467 23c1 25       		.uleb128 0x25
 9468 23c2 01       		.uleb128 0x1
 9469 23c3 50       		.byte	0x50
 9470 23c4 02       		.uleb128 0x2
 9471 23c5 77       		.byte	0x77
 9472 23c6 00       		.sleb128 0
 9473 23c7 00       		.byte	0
 9474 23c8 24       		.uleb128 0x24
ARM GAS  C:\Users\strap\AppData\Local\Temp\cc4VwSsz.s 			page 208


 9475 23c9 CC020000 		.4byte	.LVL322
 9476 23cd ED310000 		.4byte	0x31ed
 9477 23d1 E0230000 		.4byte	0x23e0
 9478 23d5 25       		.uleb128 0x25
 9479 23d6 01       		.uleb128 0x1
 9480 23d7 51       		.byte	0x51
 9481 23d8 01       		.uleb128 0x1
 9482 23d9 33       		.byte	0x33
 9483 23da 25       		.uleb128 0x25
 9484 23db 01       		.uleb128 0x1
 9485 23dc 52       		.byte	0x52
 9486 23dd 01       		.uleb128 0x1
 9487 23de 30       		.byte	0x30
 9488 23df 00       		.byte	0
 9489 23e0 24       		.uleb128 0x24
 9490 23e1 D2020000 		.4byte	.LVL323
 9491 23e5 BF110000 		.4byte	0x11bf
 9492 23e9 F4230000 		.4byte	0x23f4
 9493 23ed 25       		.uleb128 0x25
 9494 23ee 01       		.uleb128 0x1
 9495 23ef 50       		.byte	0x50
 9496 23f0 02       		.uleb128 0x2
 9497 23f1 77       		.byte	0x77
 9498 23f2 00       		.sleb128 0
 9499 23f3 00       		.byte	0
 9500 23f4 24       		.uleb128 0x24
 9501 23f5 E4020000 		.4byte	.LVL324
 9502 23f9 ED310000 		.4byte	0x31ed
 9503 23fd 0C240000 		.4byte	0x240c
 9504 2401 25       		.uleb128 0x25
 9505 2402 01       		.uleb128 0x1
 9506 2403 51       		.byte	0x51
 9507 2404 01       		.uleb128 0x1
 9508 2405 36       		.byte	0x36
 9509 2406 25       		.uleb128 0x25
 9510 2407 01       		.uleb128 0x1
 9511 2408 52       		.byte	0x52
 9512 2409 01       		.uleb128 0x1
 9513 240a 30       		.byte	0x30
 9514 240b 00       		.byte	0
 9515 240c 24       		.uleb128 0x24
 9516 240d EA020000 		.4byte	.LVL325
 9517 2411 BF110000 		.4byte	0x11bf
 9518 2415 20240000 		.4byte	0x2420
 9519 2419 25       		.uleb128 0x25
 9520 241a 01       		.uleb128 0x1
 9521 241b 50       		.byte	0x50
 9522 241c 02       		.uleb128 0x2
 9523 241d 77       		.byte	0x77
 9524 241e 00       		.sleb128 0
 9525 241f 00       		.byte	0
 9526 2420 24       		.uleb128 0x24
 9527 2421 FC020000 		.4byte	.LVL326
 9528 2425 ED310000 		.4byte	0x31ed
 9529 2429 38240000 		.4byte	0x2438
 9530 242d 25       		.uleb128 0x25
 9531 242e 01       		.uleb128 0x1
ARM GAS  C:\Users\strap\AppData\Local\Temp\cc4VwSsz.s 			page 209


 9532 242f 51       		.byte	0x51
 9533 2430 01       		.uleb128 0x1
 9534 2431 37       		.byte	0x37
 9535 2432 25       		.uleb128 0x25
 9536 2433 01       		.uleb128 0x1
 9537 2434 52       		.byte	0x52
 9538 2435 01       		.uleb128 0x1
 9539 2436 30       		.byte	0x30
 9540 2437 00       		.byte	0
 9541 2438 24       		.uleb128 0x24
 9542 2439 02030000 		.4byte	.LVL327
 9543 243d BF110000 		.4byte	0x11bf
 9544 2441 4C240000 		.4byte	0x244c
 9545 2445 25       		.uleb128 0x25
 9546 2446 01       		.uleb128 0x1
 9547 2447 50       		.byte	0x50
 9548 2448 02       		.uleb128 0x2
 9549 2449 77       		.byte	0x77
 9550 244a 00       		.sleb128 0
 9551 244b 00       		.byte	0
 9552 244c 24       		.uleb128 0x24
 9553 244d 2A030000 		.4byte	.LVL329
 9554 2451 EC320000 		.4byte	0x32ec
 9555 2455 60240000 		.4byte	0x2460
 9556 2459 25       		.uleb128 0x25
 9557 245a 01       		.uleb128 0x1
 9558 245b 50       		.byte	0x50
 9559 245c 02       		.uleb128 0x2
 9560 245d 76       		.byte	0x76
 9561 245e 00       		.sleb128 0
 9562 245f 00       		.byte	0
 9563 2460 29       		.uleb128 0x29
 9564 2461 3A030000 		.4byte	.LVL330
 9565 2465 74240000 		.4byte	0x2474
 9566 2469 25       		.uleb128 0x25
 9567 246a 01       		.uleb128 0x1
 9568 246b 51       		.byte	0x51
 9569 246c 01       		.uleb128 0x1
 9570 246d 3E       		.byte	0x3e
 9571 246e 25       		.uleb128 0x25
 9572 246f 01       		.uleb128 0x1
 9573 2470 52       		.byte	0x52
 9574 2471 01       		.uleb128 0x1
 9575 2472 30       		.byte	0x30
 9576 2473 00       		.byte	0
 9577 2474 24       		.uleb128 0x24
 9578 2475 44030000 		.4byte	.LVL332
 9579 2479 BF110000 		.4byte	0x11bf
 9580 247d 88240000 		.4byte	0x2488
 9581 2481 25       		.uleb128 0x25
 9582 2482 01       		.uleb128 0x1
 9583 2483 50       		.byte	0x50
 9584 2484 02       		.uleb128 0x2
 9585 2485 77       		.byte	0x77
 9586 2486 00       		.sleb128 0
 9587 2487 00       		.byte	0
 9588 2488 24       		.uleb128 0x24
ARM GAS  C:\Users\strap\AppData\Local\Temp\cc4VwSsz.s 			page 210


 9589 2489 56030000 		.4byte	.LVL333
 9590 248d ED310000 		.4byte	0x31ed
 9591 2491 A0240000 		.4byte	0x24a0
 9592 2495 25       		.uleb128 0x25
 9593 2496 01       		.uleb128 0x1
 9594 2497 51       		.byte	0x51
 9595 2498 01       		.uleb128 0x1
 9596 2499 33       		.byte	0x33
 9597 249a 25       		.uleb128 0x25
 9598 249b 01       		.uleb128 0x1
 9599 249c 52       		.byte	0x52
 9600 249d 01       		.uleb128 0x1
 9601 249e 30       		.byte	0x30
 9602 249f 00       		.byte	0
 9603 24a0 24       		.uleb128 0x24
 9604 24a1 5C030000 		.4byte	.LVL334
 9605 24a5 BF110000 		.4byte	0x11bf
 9606 24a9 B4240000 		.4byte	0x24b4
 9607 24ad 25       		.uleb128 0x25
 9608 24ae 01       		.uleb128 0x1
 9609 24af 50       		.byte	0x50
 9610 24b0 02       		.uleb128 0x2
 9611 24b1 77       		.byte	0x77
 9612 24b2 00       		.sleb128 0
 9613 24b3 00       		.byte	0
 9614 24b4 24       		.uleb128 0x24
 9615 24b5 6C030000 		.4byte	.LVL335
 9616 24b9 ED310000 		.4byte	0x31ed
 9617 24bd CC240000 		.4byte	0x24cc
 9618 24c1 25       		.uleb128 0x25
 9619 24c2 01       		.uleb128 0x1
 9620 24c3 51       		.byte	0x51
 9621 24c4 01       		.uleb128 0x1
 9622 24c5 36       		.byte	0x36
 9623 24c6 25       		.uleb128 0x25
 9624 24c7 01       		.uleb128 0x1
 9625 24c8 52       		.byte	0x52
 9626 24c9 01       		.uleb128 0x1
 9627 24ca 30       		.byte	0x30
 9628 24cb 00       		.byte	0
 9629 24cc 24       		.uleb128 0x24
 9630 24cd 72030000 		.4byte	.LVL336
 9631 24d1 BF110000 		.4byte	0x11bf
 9632 24d5 E0240000 		.4byte	0x24e0
 9633 24d9 25       		.uleb128 0x25
 9634 24da 01       		.uleb128 0x1
 9635 24db 50       		.byte	0x50
 9636 24dc 02       		.uleb128 0x2
 9637 24dd 77       		.byte	0x77
 9638 24de 00       		.sleb128 0
 9639 24df 00       		.byte	0
 9640 24e0 24       		.uleb128 0x24
 9641 24e1 82030000 		.4byte	.LVL337
 9642 24e5 ED310000 		.4byte	0x31ed
 9643 24e9 F8240000 		.4byte	0x24f8
 9644 24ed 25       		.uleb128 0x25
 9645 24ee 01       		.uleb128 0x1
ARM GAS  C:\Users\strap\AppData\Local\Temp\cc4VwSsz.s 			page 211


 9646 24ef 51       		.byte	0x51
 9647 24f0 01       		.uleb128 0x1
 9648 24f1 37       		.byte	0x37
 9649 24f2 25       		.uleb128 0x25
 9650 24f3 01       		.uleb128 0x1
 9651 24f4 52       		.byte	0x52
 9652 24f5 01       		.uleb128 0x1
 9653 24f6 30       		.byte	0x30
 9654 24f7 00       		.byte	0
 9655 24f8 24       		.uleb128 0x24
 9656 24f9 88030000 		.4byte	.LVL338
 9657 24fd BF110000 		.4byte	0x11bf
 9658 2501 0C250000 		.4byte	0x250c
 9659 2505 25       		.uleb128 0x25
 9660 2506 01       		.uleb128 0x1
 9661 2507 50       		.byte	0x50
 9662 2508 02       		.uleb128 0x2
 9663 2509 77       		.byte	0x77
 9664 250a 00       		.sleb128 0
 9665 250b 00       		.byte	0
 9666 250c 24       		.uleb128 0x24
 9667 250d 94030000 		.4byte	.LVL339
 9668 2511 AA320000 		.4byte	0x32aa
 9669 2515 25250000 		.4byte	0x2525
 9670 2519 25       		.uleb128 0x25
 9671 251a 01       		.uleb128 0x1
 9672 251b 50       		.byte	0x50
 9673 251c 02       		.uleb128 0x2
 9674 251d 76       		.byte	0x76
 9675 251e 00       		.sleb128 0
 9676 251f 25       		.uleb128 0x25
 9677 2520 01       		.uleb128 0x1
 9678 2521 51       		.byte	0x51
 9679 2522 01       		.uleb128 0x1
 9680 2523 3A       		.byte	0x3a
 9681 2524 00       		.byte	0
 9682 2525 26       		.uleb128 0x26
 9683 2526 AC030000 		.4byte	.LVL341
 9684 252a B5320000 		.4byte	0x32b5
 9685 252e 25       		.uleb128 0x25
 9686 252f 01       		.uleb128 0x1
 9687 2530 50       		.byte	0x50
 9688 2531 02       		.uleb128 0x2
 9689 2532 76       		.byte	0x76
 9690 2533 00       		.sleb128 0
 9691 2534 25       		.uleb128 0x25
 9692 2535 01       		.uleb128 0x1
 9693 2536 51       		.byte	0x51
 9694 2537 01       		.uleb128 0x1
 9695 2538 31       		.byte	0x31
 9696 2539 00       		.byte	0
 9697 253a 00       		.byte	0
 9698 253b 27       		.uleb128 0x27
 9699 253c D2030000 		.4byte	.LBB12
 9700 2540 42000000 		.4byte	.LBE12-.LBB12
 9701 2544 85250000 		.4byte	0x2585
 9702 2548 2C       		.uleb128 0x2c
ARM GAS  C:\Users\strap\AppData\Local\Temp\cc4VwSsz.s 			page 212


 9703 2549 7300     		.ascii	"s\000"
 9704 254b 01       		.byte	0x1
 9705 254c 0203     		.2byte	0x302
 9706 254e C3000000 		.4byte	0xc3
 9707 2552 82060000 		.4byte	.LLST41
 9708 2556 24       		.uleb128 0x24
 9709 2557 E4030000 		.4byte	.LVL345
 9710 255b AA320000 		.4byte	0x32aa
 9711 255f 6F250000 		.4byte	0x256f
 9712 2563 25       		.uleb128 0x25
 9713 2564 01       		.uleb128 0x1
 9714 2565 50       		.byte	0x50
 9715 2566 02       		.uleb128 0x2
 9716 2567 76       		.byte	0x76
 9717 2568 00       		.sleb128 0
 9718 2569 25       		.uleb128 0x25
 9719 256a 01       		.uleb128 0x1
 9720 256b 51       		.byte	0x51
 9721 256c 01       		.uleb128 0x1
 9722 256d 44       		.byte	0x44
 9723 256e 00       		.byte	0
 9724 256f 26       		.uleb128 0x26
 9725 2570 04040000 		.4byte	.LVL351
 9726 2574 AA320000 		.4byte	0x32aa
 9727 2578 25       		.uleb128 0x25
 9728 2579 01       		.uleb128 0x1
 9729 257a 50       		.byte	0x50
 9730 257b 02       		.uleb128 0x2
 9731 257c 76       		.byte	0x76
 9732 257d 00       		.sleb128 0
 9733 257e 25       		.uleb128 0x25
 9734 257f 01       		.uleb128 0x1
 9735 2580 51       		.byte	0x51
 9736 2581 01       		.uleb128 0x1
 9737 2582 43       		.byte	0x43
 9738 2583 00       		.byte	0
 9739 2584 00       		.byte	0
 9740 2585 27       		.uleb128 0x27
 9741 2586 14040000 		.4byte	.LBB13
 9742 258a 3C000000 		.4byte	.LBE13-.LBB13
 9743 258e C5250000 		.4byte	0x25c5
 9744 2592 2C       		.uleb128 0x2c
 9745 2593 7300     		.ascii	"s\000"
 9746 2595 01       		.byte	0x1
 9747 2596 0C03     		.2byte	0x30c
 9748 2598 C3000000 		.4byte	0xc3
 9749 259c B6060000 		.4byte	.LLST42
 9750 25a0 24       		.uleb128 0x24
 9751 25a1 24040000 		.4byte	.LVL357
 9752 25a5 CB320000 		.4byte	0x32cb
 9753 25a9 B4250000 		.4byte	0x25b4
 9754 25ad 25       		.uleb128 0x25
 9755 25ae 01       		.uleb128 0x1
 9756 25af 50       		.byte	0x50
 9757 25b0 02       		.uleb128 0x2
 9758 25b1 76       		.byte	0x76
 9759 25b2 00       		.sleb128 0
ARM GAS  C:\Users\strap\AppData\Local\Temp\cc4VwSsz.s 			page 213


 9760 25b3 00       		.byte	0
 9761 25b4 26       		.uleb128 0x26
 9762 25b5 42040000 		.4byte	.LVL363
 9763 25b9 C0320000 		.4byte	0x32c0
 9764 25bd 25       		.uleb128 0x25
 9765 25be 01       		.uleb128 0x1
 9766 25bf 50       		.byte	0x50
 9767 25c0 02       		.uleb128 0x2
 9768 25c1 76       		.byte	0x76
 9769 25c2 00       		.sleb128 0
 9770 25c3 00       		.byte	0
 9771 25c4 00       		.byte	0
 9772 25c5 24       		.uleb128 0x24
 9773 25c6 5A000000 		.4byte	.LVL281
 9774 25ca 94320000 		.4byte	0x3294
 9775 25ce D9250000 		.4byte	0x25d9
 9776 25d2 25       		.uleb128 0x25
 9777 25d3 01       		.uleb128 0x1
 9778 25d4 50       		.byte	0x50
 9779 25d5 02       		.uleb128 0x2
 9780 25d6 76       		.byte	0x76
 9781 25d7 00       		.sleb128 0
 9782 25d8 00       		.byte	0
 9783 25d9 24       		.uleb128 0x24
 9784 25da 72000000 		.4byte	.LVL282
 9785 25de 94320000 		.4byte	0x3294
 9786 25e2 ED250000 		.4byte	0x25ed
 9787 25e6 25       		.uleb128 0x25
 9788 25e7 01       		.uleb128 0x1
 9789 25e8 50       		.byte	0x50
 9790 25e9 02       		.uleb128 0x2
 9791 25ea 76       		.byte	0x76
 9792 25eb 00       		.sleb128 0
 9793 25ec 00       		.byte	0
 9794 25ed 2A       		.uleb128 0x2a
 9795 25ee 8A000000 		.4byte	.LVL283
 9796 25f2 9F320000 		.4byte	0x329f
 9797 25f6 24       		.uleb128 0x24
 9798 25f7 10010000 		.4byte	.LVL292
 9799 25fb AA320000 		.4byte	0x32aa
 9800 25ff 0A260000 		.4byte	0x260a
 9801 2603 25       		.uleb128 0x25
 9802 2604 01       		.uleb128 0x1
 9803 2605 50       		.byte	0x50
 9804 2606 02       		.uleb128 0x2
 9805 2607 76       		.byte	0x76
 9806 2608 00       		.sleb128 0
 9807 2609 00       		.byte	0
 9808 260a 24       		.uleb128 0x24
 9809 260b 1C010000 		.4byte	.LVL293
 9810 260f ED310000 		.4byte	0x31ed
 9811 2613 22260000 		.4byte	0x2622
 9812 2617 25       		.uleb128 0x25
 9813 2618 01       		.uleb128 0x1
 9814 2619 51       		.byte	0x51
 9815 261a 01       		.uleb128 0x1
 9816 261b 44       		.byte	0x44
ARM GAS  C:\Users\strap\AppData\Local\Temp\cc4VwSsz.s 			page 214


 9817 261c 25       		.uleb128 0x25
 9818 261d 01       		.uleb128 0x1
 9819 261e 52       		.byte	0x52
 9820 261f 01       		.uleb128 0x1
 9821 2620 30       		.byte	0x30
 9822 2621 00       		.byte	0
 9823 2622 24       		.uleb128 0x24
 9824 2623 24010000 		.4byte	.LVL294
 9825 2627 BF110000 		.4byte	0x11bf
 9826 262b 36260000 		.4byte	0x2636
 9827 262f 25       		.uleb128 0x25
 9828 2630 01       		.uleb128 0x1
 9829 2631 50       		.byte	0x50
 9830 2632 02       		.uleb128 0x2
 9831 2633 75       		.byte	0x75
 9832 2634 20       		.sleb128 32
 9833 2635 00       		.byte	0
 9834 2636 24       		.uleb128 0x24
 9835 2637 32010000 		.4byte	.LVL295
 9836 263b AA320000 		.4byte	0x32aa
 9837 263f 4A260000 		.4byte	0x264a
 9838 2643 25       		.uleb128 0x25
 9839 2644 01       		.uleb128 0x1
 9840 2645 50       		.byte	0x50
 9841 2646 02       		.uleb128 0x2
 9842 2647 76       		.byte	0x76
 9843 2648 00       		.sleb128 0
 9844 2649 00       		.byte	0
 9845 264a 2A       		.uleb128 0x2a
 9846 264b 50010000 		.4byte	.LVL296
 9847 264f D6320000 		.4byte	0x32d6
 9848 2653 2A       		.uleb128 0x2a
 9849 2654 66010000 		.4byte	.LVL297
 9850 2658 9F320000 		.4byte	0x329f
 9851 265c 2A       		.uleb128 0x2a
 9852 265d F8010000 		.4byte	.LVL308
 9853 2661 D6320000 		.4byte	0x32d6
 9854 2665 2A       		.uleb128 0x2a
 9855 2666 04020000 		.4byte	.LVL309
 9856 266a 9F320000 		.4byte	0x329f
 9857 266e 29       		.uleb128 0x29
 9858 266f 18020000 		.4byte	.LVL310
 9859 2673 82260000 		.4byte	0x2682
 9860 2677 25       		.uleb128 0x25
 9861 2678 01       		.uleb128 0x1
 9862 2679 51       		.byte	0x51
 9863 267a 01       		.uleb128 0x1
 9864 267b 40       		.byte	0x40
 9865 267c 25       		.uleb128 0x25
 9866 267d 01       		.uleb128 0x1
 9867 267e 52       		.byte	0x52
 9868 267f 01       		.uleb128 0x1
 9869 2680 30       		.byte	0x30
 9870 2681 00       		.byte	0
 9871 2682 24       		.uleb128 0x24
 9872 2683 20020000 		.4byte	.LVL312
 9873 2687 BF110000 		.4byte	0x11bf
ARM GAS  C:\Users\strap\AppData\Local\Temp\cc4VwSsz.s 			page 215


 9874 268b 96260000 		.4byte	0x2696
 9875 268f 25       		.uleb128 0x25
 9876 2690 01       		.uleb128 0x1
 9877 2691 50       		.byte	0x50
 9878 2692 02       		.uleb128 0x2
 9879 2693 75       		.byte	0x75
 9880 2694 00       		.sleb128 0
 9881 2695 00       		.byte	0
 9882 2696 24       		.uleb128 0x24
 9883 2697 32020000 		.4byte	.LVL313
 9884 269b ED310000 		.4byte	0x31ed
 9885 269f AE260000 		.4byte	0x26ae
 9886 26a3 25       		.uleb128 0x25
 9887 26a4 01       		.uleb128 0x1
 9888 26a5 51       		.byte	0x51
 9889 26a6 01       		.uleb128 0x1
 9890 26a7 35       		.byte	0x35
 9891 26a8 25       		.uleb128 0x25
 9892 26a9 01       		.uleb128 0x1
 9893 26aa 52       		.byte	0x52
 9894 26ab 01       		.uleb128 0x1
 9895 26ac 30       		.byte	0x30
 9896 26ad 00       		.byte	0
 9897 26ae 24       		.uleb128 0x24
 9898 26af 38020000 		.4byte	.LVL314
 9899 26b3 BF110000 		.4byte	0x11bf
 9900 26b7 C2260000 		.4byte	0x26c2
 9901 26bb 25       		.uleb128 0x25
 9902 26bc 01       		.uleb128 0x1
 9903 26bd 50       		.byte	0x50
 9904 26be 02       		.uleb128 0x2
 9905 26bf 75       		.byte	0x75
 9906 26c0 00       		.sleb128 0
 9907 26c1 00       		.byte	0
 9908 26c2 24       		.uleb128 0x24
 9909 26c3 62020000 		.4byte	.LVL316
 9910 26c7 AA320000 		.4byte	0x32aa
 9911 26cb D6260000 		.4byte	0x26d6
 9912 26cf 25       		.uleb128 0x25
 9913 26d0 01       		.uleb128 0x1
 9914 26d1 50       		.byte	0x50
 9915 26d2 02       		.uleb128 0x2
 9916 26d3 76       		.byte	0x76
 9917 26d4 00       		.sleb128 0
 9918 26d5 00       		.byte	0
 9919 26d6 24       		.uleb128 0x24
 9920 26d7 6A020000 		.4byte	.LVL317
 9921 26db BF110000 		.4byte	0x11bf
 9922 26df EA260000 		.4byte	0x26ea
 9923 26e3 25       		.uleb128 0x25
 9924 26e4 01       		.uleb128 0x1
 9925 26e5 50       		.byte	0x50
 9926 26e6 02       		.uleb128 0x2
 9927 26e7 75       		.byte	0x75
 9928 26e8 20       		.sleb128 32
 9929 26e9 00       		.byte	0
 9930 26ea 26       		.uleb128 0x26
ARM GAS  C:\Users\strap\AppData\Local\Temp\cc4VwSsz.s 			page 216


 9931 26eb D0030000 		.4byte	.LVL343
 9932 26ef E1320000 		.4byte	0x32e1
 9933 26f3 25       		.uleb128 0x25
 9934 26f4 01       		.uleb128 0x1
 9935 26f5 50       		.byte	0x50
 9936 26f6 02       		.uleb128 0x2
 9937 26f7 76       		.byte	0x76
 9938 26f8 00       		.sleb128 0
 9939 26f9 00       		.byte	0
 9940 26fa 00       		.byte	0
 9941 26fb 2D       		.uleb128 0x2d
 9942 26fc 30080000 		.4byte	.LASF380
 9943 2700 01       		.byte	0x1
 9944 2701 89       		.byte	0x89
 9945 2702 B9110000 		.4byte	0x11b9
 9946 2706 00000000 		.4byte	.LFB335
 9947 270a 0C000000 		.4byte	.LFE335-.LFB335
 9948 270e 01       		.uleb128 0x1
 9949 270f 9C       		.byte	0x9c
 9950 2710 2E       		.uleb128 0x2e
 9951 2711 630A0000 		.4byte	.LASF373
 9952 2715 01       		.byte	0x1
 9953 2716 93       		.byte	0x93
 9954 2717 CD090000 		.4byte	0x9cd
 9955 271b 00000000 		.4byte	.LFB336
 9956 271f 0A000000 		.4byte	.LFE336-.LFB336
 9957 2723 01       		.uleb128 0x1
 9958 2724 9C       		.byte	0x9c
 9959 2725 39270000 		.4byte	0x2739
 9960 2729 2F       		.uleb128 0x2f
 9961 272a 58150000 		.4byte	.LASF327
 9962 272e 01       		.byte	0x1
 9963 272f 93       		.byte	0x93
 9964 2730 39270000 		.4byte	0x2739
 9965 2734 EA060000 		.4byte	.LLST43
 9966 2738 00       		.byte	0
 9967 2739 10       		.uleb128 0x10
 9968 273a 04       		.byte	0x4
 9969 273b 3F270000 		.4byte	0x273f
 9970 273f 16       		.uleb128 0x16
 9971 2740 F90D0000 		.4byte	0xdf9
 9972 2744 30       		.uleb128 0x30
 9973 2745 4E0F0000 		.4byte	.LASF363
 9974 2749 01       		.byte	0x1
 9975 274a 9F       		.byte	0x9f
 9976 274b 00000000 		.4byte	.LFB337
 9977 274f 6C000000 		.4byte	.LFE337-.LFB337
 9978 2753 01       		.uleb128 0x1
 9979 2754 9C       		.byte	0x9c
 9980 2755 AB270000 		.4byte	0x27ab
 9981 2759 2F       		.uleb128 0x2f
 9982 275a 58150000 		.4byte	.LASF327
 9983 275e 01       		.byte	0x1
 9984 275f 9F       		.byte	0x9f
 9985 2760 B9110000 		.4byte	0x11b9
 9986 2764 24070000 		.4byte	.LLST44
 9987 2768 31       		.uleb128 0x31
ARM GAS  C:\Users\strap\AppData\Local\Temp\cc4VwSsz.s 			page 217


 9988 2769 6F626A00 		.ascii	"obj\000"
 9989 276d 01       		.byte	0x1
 9990 276e 9F       		.byte	0x9f
 9991 276f 83110000 		.4byte	0x1183
 9992 2773 5B070000 		.4byte	.LLST45
 9993 2777 32       		.uleb128 0x32
 9994 2778 30000000 		.4byte	.LBB14
 9995 277c 3C000000 		.4byte	.LBE14-.LBB14
 9996 2780 33       		.uleb128 0x33
 9997 2781 6900     		.ascii	"i\000"
 9998 2783 01       		.byte	0x1
 9999 2784 A9       		.byte	0xa9
 10000 2785 B9110000 		.4byte	0x11b9
 10001 2789 87070000 		.4byte	.LLST46
 10002 278d 24       		.uleb128 0x24
 10003 278e 36000000 		.4byte	.LVL376
 10004 2792 F7320000 		.4byte	0x32f7
 10005 2796 A0270000 		.4byte	0x27a0
 10006 279a 25       		.uleb128 0x25
 10007 279b 01       		.uleb128 0x1
 10008 279c 50       		.byte	0x50
 10009 279d 01       		.uleb128 0x1
 10010 279e 30       		.byte	0x30
 10011 279f 00       		.byte	0
 10012 27a0 2A       		.uleb128 0x2a
 10013 27a1 62000000 		.4byte	.LVL377
 10014 27a5 F7320000 		.4byte	0x32f7
 10015 27a9 00       		.byte	0
 10016 27aa 00       		.byte	0
 10017 27ab 30       		.uleb128 0x30
 10018 27ac 460E0000 		.4byte	.LASF364
 10019 27b0 01       		.byte	0x1
 10020 27b1 42       		.byte	0x42
 10021 27b2 00000000 		.4byte	.LFB333
 10022 27b6 0C000000 		.4byte	.LFE333-.LFB333
 10023 27ba 01       		.uleb128 0x1
 10024 27bb 9C       		.byte	0x9c
 10025 27bc D5270000 		.4byte	0x27d5
 10026 27c0 26       		.uleb128 0x26
 10027 27c1 0A000000 		.4byte	.LVL379
 10028 27c5 44270000 		.4byte	0x2744
 10029 27c9 25       		.uleb128 0x25
 10030 27ca 01       		.uleb128 0x1
 10031 27cb 50       		.byte	0x50
 10032 27cc 01       		.uleb128 0x1
 10033 27cd 30       		.byte	0x30
 10034 27ce 25       		.uleb128 0x25
 10035 27cf 01       		.uleb128 0x1
 10036 27d0 51       		.byte	0x51
 10037 27d1 01       		.uleb128 0x1
 10038 27d2 30       		.byte	0x30
 10039 27d3 00       		.byte	0
 10040 27d4 00       		.byte	0
 10041 27d5 30       		.uleb128 0x30
 10042 27d6 85020000 		.4byte	.LASF365
 10043 27da 01       		.byte	0x1
 10044 27db B9       		.byte	0xb9
ARM GAS  C:\Users\strap\AppData\Local\Temp\cc4VwSsz.s 			page 218


 10045 27dc 00000000 		.4byte	.LFB338
 10046 27e0 1E000000 		.4byte	.LFE338-.LFB338
 10047 27e4 01       		.uleb128 0x1
 10048 27e5 9C       		.byte	0x9c
 10049 27e6 0C280000 		.4byte	0x280c
 10050 27ea 2F       		.uleb128 0x2f
 10051 27eb 58150000 		.4byte	.LASF327
 10052 27ef 01       		.byte	0x1
 10053 27f0 B9       		.byte	0xb9
 10054 27f1 B9110000 		.4byte	0x11b9
 10055 27f5 A5070000 		.4byte	.LLST47
 10056 27f9 2A       		.uleb128 0x2a
 10057 27fa 14000000 		.4byte	.LVL381
 10058 27fe 9F320000 		.4byte	0x329f
 10059 2802 2A       		.uleb128 0x2a
 10060 2803 1A000000 		.4byte	.LVL382
 10061 2807 9F320000 		.4byte	0x329f
 10062 280b 00       		.byte	0
 10063 280c 30       		.uleb128 0x30
 10064 280d 9A030000 		.4byte	.LASF366
 10065 2811 01       		.byte	0x1
 10066 2812 C5       		.byte	0xc5
 10067 2813 00000000 		.4byte	.LFB339
 10068 2817 1A000000 		.4byte	.LFE339-.LFB339
 10069 281b 01       		.uleb128 0x1
 10070 281c 9C       		.byte	0x9c
 10071 281d 3D280000 		.4byte	0x283d
 10072 2821 34       		.uleb128 0x34
 10073 2822 58150000 		.4byte	.LASF327
 10074 2826 01       		.byte	0x1
 10075 2827 C5       		.byte	0xc5
 10076 2828 B9110000 		.4byte	0x11b9
 10077 282c 01       		.uleb128 0x1
 10078 282d 50       		.byte	0x50
 10079 282e 31       		.uleb128 0x31
 10080 282f 656E00   		.ascii	"en\000"
 10081 2832 01       		.byte	0x1
 10082 2833 C5       		.byte	0xc5
 10083 2834 C1010000 		.4byte	0x1c1
 10084 2838 C3070000 		.4byte	.LLST48
 10085 283c 00       		.byte	0
 10086 283d 30       		.uleb128 0x30
 10087 283e BD080000 		.4byte	.LASF367
 10088 2842 01       		.byte	0x1
 10089 2843 D1       		.byte	0xd1
 10090 2844 00000000 		.4byte	.LFB340
 10091 2848 34000000 		.4byte	.LFE340-.LFB340
 10092 284c 01       		.uleb128 0x1
 10093 284d 9C       		.byte	0x9c
 10094 284e A6280000 		.4byte	0x28a6
 10095 2852 2F       		.uleb128 0x2f
 10096 2853 58150000 		.4byte	.LASF327
 10097 2857 01       		.byte	0x1
 10098 2858 D1       		.byte	0xd1
 10099 2859 B9110000 		.4byte	0x11b9
 10100 285d FD070000 		.4byte	.LLST49
 10101 2861 2F       		.uleb128 0x2f
ARM GAS  C:\Users\strap\AppData\Local\Temp\cc4VwSsz.s 			page 219


 10102 2862 B80E0000 		.4byte	.LASF368
 10103 2866 01       		.byte	0x1
 10104 2867 D1       		.byte	0xd1
 10105 2868 83110000 		.4byte	0x1183
 10106 286c 29080000 		.4byte	.LLST50
 10107 2870 2A       		.uleb128 0x2a
 10108 2871 14000000 		.4byte	.LVL389
 10109 2875 02330000 		.4byte	0x3302
 10110 2879 24       		.uleb128 0x24
 10111 287a 1C000000 		.4byte	.LVL390
 10112 287e 0D330000 		.4byte	0x330d
 10113 2882 8D280000 		.4byte	0x288d
 10114 2886 25       		.uleb128 0x25
 10115 2887 01       		.uleb128 0x1
 10116 2888 50       		.byte	0x50
 10117 2889 02       		.uleb128 0x2
 10118 288a 75       		.byte	0x75
 10119 288b 00       		.sleb128 0
 10120 288c 00       		.byte	0
 10121 288d 2A       		.uleb128 0x2a
 10122 288e 2A000000 		.4byte	.LVL391
 10123 2892 C9310000 		.4byte	0x31c9
 10124 2896 26       		.uleb128 0x26
 10125 2897 32000000 		.4byte	.LVL392
 10126 289b 19330000 		.4byte	0x3319
 10127 289f 25       		.uleb128 0x25
 10128 28a0 01       		.uleb128 0x1
 10129 28a1 51       		.byte	0x51
 10130 28a2 01       		.uleb128 0x1
 10131 28a3 30       		.byte	0x30
 10132 28a4 00       		.byte	0
 10133 28a5 00       		.byte	0
 10134 28a6 30       		.uleb128 0x30
 10135 28a7 9F000000 		.4byte	.LASF369
 10136 28ab 01       		.byte	0x1
 10137 28ac E1       		.byte	0xe1
 10138 28ad 00000000 		.4byte	.LFB341
 10139 28b1 0E000000 		.4byte	.LFE341-.LFB341
 10140 28b5 01       		.uleb128 0x1
 10141 28b6 9C       		.byte	0x9c
 10142 28b7 D6280000 		.4byte	0x28d6
 10143 28bb 34       		.uleb128 0x34
 10144 28bc 58150000 		.4byte	.LASF327
 10145 28c0 01       		.byte	0x1
 10146 28c1 E1       		.byte	0xe1
 10147 28c2 B9110000 		.4byte	0x11b9
 10148 28c6 01       		.uleb128 0x1
 10149 28c7 50       		.byte	0x50
 10150 28c8 34       		.uleb128 0x34
 10151 28c9 4D0B0000 		.4byte	.LASF217
 10152 28cd 01       		.byte	0x1
 10153 28ce E1       		.byte	0xe1
 10154 28cf 321A0000 		.4byte	0x1a32
 10155 28d3 01       		.uleb128 0x1
 10156 28d4 51       		.byte	0x51
 10157 28d5 00       		.byte	0
 10158 28d6 30       		.uleb128 0x30
ARM GAS  C:\Users\strap\AppData\Local\Temp\cc4VwSsz.s 			page 220


 10159 28d7 C3000000 		.4byte	.LASF370
 10160 28db 01       		.byte	0x1
 10161 28dc EF       		.byte	0xef
 10162 28dd 00000000 		.4byte	.LFB342
 10163 28e1 0A000000 		.4byte	.LFE342-.LFB342
 10164 28e5 01       		.uleb128 0x1
 10165 28e6 9C       		.byte	0x9c
 10166 28e7 06290000 		.4byte	0x2906
 10167 28eb 34       		.uleb128 0x34
 10168 28ec 58150000 		.4byte	.LASF327
 10169 28f0 01       		.byte	0x1
 10170 28f1 EF       		.byte	0xef
 10171 28f2 B9110000 		.4byte	0x11b9
 10172 28f6 01       		.uleb128 0x1
 10173 28f7 50       		.byte	0x50
 10174 28f8 34       		.uleb128 0x34
 10175 28f9 B4020000 		.4byte	.LASF371
 10176 28fd 01       		.byte	0x1
 10177 28fe EF       		.byte	0xef
 10178 28ff EE0D0000 		.4byte	0xdee
 10179 2903 01       		.uleb128 0x1
 10180 2904 51       		.byte	0x51
 10181 2905 00       		.byte	0
 10182 2906 30       		.uleb128 0x30
 10183 2907 CB020000 		.4byte	.LASF372
 10184 290b 01       		.byte	0x1
 10185 290c FB       		.byte	0xfb
 10186 290d 00000000 		.4byte	.LFB343
 10187 2911 2E000000 		.4byte	.LFE343-.LFB343
 10188 2915 01       		.uleb128 0x1
 10189 2916 9C       		.byte	0x9c
 10190 2917 36290000 		.4byte	0x2936
 10191 291b 34       		.uleb128 0x34
 10192 291c 58150000 		.4byte	.LASF327
 10193 2920 01       		.byte	0x1
 10194 2921 FB       		.byte	0xfb
 10195 2922 39270000 		.4byte	0x2739
 10196 2926 01       		.uleb128 0x1
 10197 2927 50       		.byte	0x50
 10198 2928 34       		.uleb128 0x34
 10199 2929 F7020000 		.4byte	.LASF172
 10200 292d 01       		.byte	0x1
 10201 292e FB       		.byte	0xfb
 10202 292f 06110000 		.4byte	0x1106
 10203 2933 01       		.uleb128 0x1
 10204 2934 51       		.byte	0x51
 10205 2935 00       		.byte	0
 10206 2936 35       		.uleb128 0x35
 10207 2937 D4160000 		.4byte	.LASF374
 10208 293b 01       		.byte	0x1
 10209 293c 1101     		.2byte	0x111
 10210 293e 510A0000 		.4byte	0xa51
 10211 2942 00000000 		.4byte	.LFB344
 10212 2946 06000000 		.4byte	.LFE344-.LFB344
 10213 294a 01       		.uleb128 0x1
 10214 294b 9C       		.byte	0x9c
 10215 294c 61290000 		.4byte	0x2961
ARM GAS  C:\Users\strap\AppData\Local\Temp\cc4VwSsz.s 			page 221


 10216 2950 21       		.uleb128 0x21
 10217 2951 58150000 		.4byte	.LASF327
 10218 2955 01       		.byte	0x1
 10219 2956 1101     		.2byte	0x111
 10220 2958 39270000 		.4byte	0x2739
 10221 295c 55080000 		.4byte	.LLST51
 10222 2960 00       		.byte	0
 10223 2961 35       		.uleb128 0x35
 10224 2962 880A0000 		.4byte	.LASF375
 10225 2966 01       		.byte	0x1
 10226 2967 1B01     		.2byte	0x11b
 10227 2969 CE000000 		.4byte	0xce
 10228 296d 00000000 		.4byte	.LFB345
 10229 2971 0E000000 		.4byte	.LFE345-.LFB345
 10230 2975 01       		.uleb128 0x1
 10231 2976 9C       		.byte	0x9c
 10232 2977 8C290000 		.4byte	0x298c
 10233 297b 21       		.uleb128 0x21
 10234 297c 58150000 		.4byte	.LASF327
 10235 2980 01       		.byte	0x1
 10236 2981 1B01     		.2byte	0x11b
 10237 2983 39270000 		.4byte	0x2739
 10238 2987 76080000 		.4byte	.LLST52
 10239 298b 00       		.byte	0
 10240 298c 35       		.uleb128 0x35
 10241 298d DD170000 		.4byte	.LASF376
 10242 2991 01       		.byte	0x1
 10243 2992 2901     		.2byte	0x129
 10244 2994 C1010000 		.4byte	0x1c1
 10245 2998 00000000 		.4byte	.LFB346
 10246 299c 20000000 		.4byte	.LFE346-.LFB346
 10247 29a0 01       		.uleb128 0x1
 10248 29a1 9C       		.byte	0x9c
 10249 29a2 B7290000 		.4byte	0x29b7
 10250 29a6 21       		.uleb128 0x21
 10251 29a7 58150000 		.4byte	.LASF327
 10252 29ab 01       		.byte	0x1
 10253 29ac 2901     		.2byte	0x129
 10254 29ae 39270000 		.4byte	0x2739
 10255 29b2 B0080000 		.4byte	.LLST53
 10256 29b6 00       		.byte	0
 10257 29b7 36       		.uleb128 0x36
 10258 29b8 8F180000 		.4byte	.LASF377
 10259 29bc 01       		.byte	0x1
 10260 29bd 3601     		.2byte	0x136
 10261 29bf 00000000 		.4byte	.LFB347
 10262 29c3 2C000000 		.4byte	.LFE347-.LFB347
 10263 29c7 01       		.uleb128 0x1
 10264 29c8 9C       		.byte	0x9c
 10265 29c9 EA290000 		.4byte	0x29ea
 10266 29cd 1F       		.uleb128 0x1f
 10267 29ce 58150000 		.4byte	.LASF327
 10268 29d2 01       		.byte	0x1
 10269 29d3 3601     		.2byte	0x136
 10270 29d5 39270000 		.4byte	0x2739
 10271 29d9 01       		.uleb128 0x1
 10272 29da 50       		.byte	0x50
ARM GAS  C:\Users\strap\AppData\Local\Temp\cc4VwSsz.s 			page 222


 10273 29db 1F       		.uleb128 0x1f
 10274 29dc F7020000 		.4byte	.LASF172
 10275 29e0 01       		.byte	0x1
 10276 29e1 3601     		.2byte	0x136
 10277 29e3 06110000 		.4byte	0x1106
 10278 29e7 01       		.uleb128 0x1
 10279 29e8 51       		.byte	0x51
 10280 29e9 00       		.byte	0
 10281 29ea 35       		.uleb128 0x35
 10282 29eb A6160000 		.4byte	.LASF378
 10283 29ef 01       		.byte	0x1
 10284 29f0 4E01     		.2byte	0x14e
 10285 29f2 43010000 		.4byte	0x143
 10286 29f6 00000000 		.4byte	.LFB348
 10287 29fa 58000000 		.4byte	.LFE348-.LFB348
 10288 29fe 01       		.uleb128 0x1
 10289 29ff 9C       		.byte	0x9c
 10290 2a00 722A0000 		.4byte	0x2a72
 10291 2a04 21       		.uleb128 0x21
 10292 2a05 58150000 		.4byte	.LASF327
 10293 2a09 01       		.byte	0x1
 10294 2a0a 4E01     		.2byte	0x14e
 10295 2a0c B9110000 		.4byte	0x11b9
 10296 2a10 FA080000 		.4byte	.LLST54
 10297 2a14 23       		.uleb128 0x23
 10298 2a15 8B050000 		.4byte	.LASF332
 10299 2a19 01       		.byte	0x1
 10300 2a1a 5801     		.2byte	0x158
 10301 2a1c 83110000 		.4byte	0x1183
 10302 2a20 34090000 		.4byte	.LLST55
 10303 2a24 2C       		.uleb128 0x2c
 10304 2a25 72657300 		.ascii	"res\000"
 10305 2a29 01       		.byte	0x1
 10306 2a2a 5C01     		.2byte	0x15c
 10307 2a2c 43010000 		.4byte	0x143
 10308 2a30 5D090000 		.4byte	.LLST56
 10309 2a34 2A       		.uleb128 0x2a
 10310 2a35 2C000000 		.4byte	.LVL411
 10311 2a39 F0110000 		.4byte	0x11f0
 10312 2a3d 29       		.uleb128 0x29
 10313 2a3e 38000000 		.4byte	.LVL412
 10314 2a42 572A0000 		.4byte	0x2a57
 10315 2a46 25       		.uleb128 0x25
 10316 2a47 01       		.uleb128 0x1
 10317 2a48 50       		.byte	0x50
 10318 2a49 02       		.uleb128 0x2
 10319 2a4a 75       		.byte	0x75
 10320 2a4b 00       		.sleb128 0
 10321 2a4c 25       		.uleb128 0x25
 10322 2a4d 01       		.uleb128 0x1
 10323 2a4e 51       		.byte	0x51
 10324 2a4f 01       		.uleb128 0x1
 10325 2a50 43       		.byte	0x43
 10326 2a51 25       		.uleb128 0x25
 10327 2a52 01       		.uleb128 0x1
 10328 2a53 52       		.byte	0x52
 10329 2a54 01       		.uleb128 0x1
ARM GAS  C:\Users\strap\AppData\Local\Temp\cc4VwSsz.s 			page 223


 10330 2a55 30       		.byte	0x30
 10331 2a56 00       		.byte	0
 10332 2a57 26       		.uleb128 0x26
 10333 2a58 46000000 		.4byte	.LVL414
 10334 2a5c ED310000 		.4byte	0x31ed
 10335 2a60 25       		.uleb128 0x25
 10336 2a61 01       		.uleb128 0x1
 10337 2a62 50       		.byte	0x50
 10338 2a63 02       		.uleb128 0x2
 10339 2a64 75       		.byte	0x75
 10340 2a65 00       		.sleb128 0
 10341 2a66 25       		.uleb128 0x25
 10342 2a67 01       		.uleb128 0x1
 10343 2a68 51       		.byte	0x51
 10344 2a69 01       		.uleb128 0x1
 10345 2a6a 39       		.byte	0x39
 10346 2a6b 25       		.uleb128 0x25
 10347 2a6c 01       		.uleb128 0x1
 10348 2a6d 52       		.byte	0x52
 10349 2a6e 01       		.uleb128 0x1
 10350 2a6f 30       		.byte	0x30
 10351 2a70 00       		.byte	0
 10352 2a71 00       		.byte	0
 10353 2a72 36       		.uleb128 0x36
 10354 2a73 AD0D0000 		.4byte	.LASF379
 10355 2a77 01       		.byte	0x1
 10356 2a78 6A01     		.2byte	0x16a
 10357 2a7a 00000000 		.4byte	.LFB349
 10358 2a7e 10000000 		.4byte	.LFE349-.LFB349
 10359 2a82 01       		.uleb128 0x1
 10360 2a83 9C       		.byte	0x9c
 10361 2a84 972A0000 		.4byte	0x2a97
 10362 2a88 1F       		.uleb128 0x1f
 10363 2a89 58150000 		.4byte	.LASF327
 10364 2a8d 01       		.byte	0x1
 10365 2a8e 6A01     		.2byte	0x16a
 10366 2a90 B9110000 		.4byte	0x11b9
 10367 2a94 01       		.uleb128 0x1
 10368 2a95 50       		.byte	0x50
 10369 2a96 00       		.byte	0
 10370 2a97 37       		.uleb128 0x37
 10371 2a98 B20A0000 		.4byte	.LASF381
 10372 2a9c 01       		.byte	0x1
 10373 2a9d 7401     		.2byte	0x174
 10374 2a9f 83110000 		.4byte	0x1183
 10375 2aa3 00000000 		.4byte	.LFB350
 10376 2aa7 0C000000 		.4byte	.LFE350-.LFB350
 10377 2aab 01       		.uleb128 0x1
 10378 2aac 9C       		.byte	0x9c
 10379 2aad 35       		.uleb128 0x35
 10380 2aae 8F160000 		.4byte	.LASF382
 10381 2ab2 01       		.byte	0x1
 10382 2ab3 7F01     		.2byte	0x17f
 10383 2ab5 E3070000 		.4byte	0x7e3
 10384 2ab9 00000000 		.4byte	.LFB351
 10385 2abd 0A000000 		.4byte	.LFE351-.LFB351
 10386 2ac1 01       		.uleb128 0x1
ARM GAS  C:\Users\strap\AppData\Local\Temp\cc4VwSsz.s 			page 224


 10387 2ac2 9C       		.byte	0x9c
 10388 2ac3 D82A0000 		.4byte	0x2ad8
 10389 2ac7 21       		.uleb128 0x21
 10390 2ac8 58150000 		.4byte	.LASF327
 10391 2acc 01       		.byte	0x1
 10392 2acd 7F01     		.2byte	0x17f
 10393 2acf D82A0000 		.4byte	0x2ad8
 10394 2ad3 86090000 		.4byte	.LLST57
 10395 2ad7 00       		.byte	0
 10396 2ad8 10       		.uleb128 0x10
 10397 2ad9 04       		.byte	0x4
 10398 2ada 97090000 		.4byte	0x997
 10399 2ade 35       		.uleb128 0x35
 10400 2adf DB010000 		.4byte	.LASF383
 10401 2ae3 01       		.byte	0x1
 10402 2ae4 6104     		.2byte	0x461
 10403 2ae6 83110000 		.4byte	0x1183
 10404 2aea 00000000 		.4byte	.LFB359
 10405 2aee 6C000000 		.4byte	.LFE359-.LFB359
 10406 2af2 01       		.uleb128 0x1
 10407 2af3 9C       		.byte	0x9c
 10408 2af4 ED2B0000 		.4byte	0x2bed
 10409 2af8 22       		.uleb128 0x22
 10410 2af9 6F626A00 		.ascii	"obj\000"
 10411 2afd 01       		.byte	0x1
 10412 2afe 6104     		.2byte	0x461
 10413 2b00 83110000 		.4byte	0x1183
 10414 2b04 C0090000 		.4byte	.LLST58
 10415 2b08 21       		.uleb128 0x21
 10416 2b09 F7020000 		.4byte	.LASF172
 10417 2b0d 01       		.byte	0x1
 10418 2b0e 6104     		.2byte	0x461
 10419 2b10 06110000 		.4byte	0x1106
 10420 2b14 DE090000 		.4byte	.LLST59
 10421 2b18 23       		.uleb128 0x23
 10422 2b19 AD050000 		.4byte	.LASF384
 10423 2b1d 01       		.byte	0x1
 10424 2b1e 6304     		.2byte	0x463
 10425 2b20 83110000 		.4byte	0x1183
 10426 2b24 FC090000 		.4byte	.LLST60
 10427 2b28 38       		.uleb128 0x38
 10428 2b29 00000000 		.4byte	.Ldebug_ranges0+0
 10429 2b2d D62B0000 		.4byte	0x2bd6
 10430 2b31 2C       		.uleb128 0x2c
 10431 2b32 6900     		.ascii	"i\000"
 10432 2b34 01       		.byte	0x1
 10433 2b35 6704     		.2byte	0x467
 10434 2b37 83110000 		.4byte	0x1183
 10435 2b3b 480A0000 		.4byte	.LLST61
 10436 2b3f 38       		.uleb128 0x38
 10437 2b40 20000000 		.4byte	.Ldebug_ranges0+0x20
 10438 2b44 7D2B0000 		.4byte	0x2b7d
 10439 2b48 23       		.uleb128 0x23
 10440 2b49 2F110000 		.4byte	.LASF385
 10441 2b4d 01       		.byte	0x1
 10442 2b4e 7504     		.2byte	0x475
 10443 2b50 83110000 		.4byte	0x1183
ARM GAS  C:\Users\strap\AppData\Local\Temp\cc4VwSsz.s 			page 225


 10444 2b54 870A0000 		.4byte	.LLST62
 10445 2b58 24       		.uleb128 0x24
 10446 2b59 4A000000 		.4byte	.LVL437
 10447 2b5d 25330000 		.4byte	0x3325
 10448 2b61 6C2B0000 		.4byte	0x2b6c
 10449 2b65 25       		.uleb128 0x25
 10450 2b66 01       		.uleb128 0x1
 10451 2b67 50       		.byte	0x50
 10452 2b68 02       		.uleb128 0x2
 10453 2b69 74       		.byte	0x74
 10454 2b6a 00       		.sleb128 0
 10455 2b6b 00       		.byte	0
 10456 2b6c 26       		.uleb128 0x26
 10457 2b6d 52000000 		.4byte	.LVL438
 10458 2b71 8D310000 		.4byte	0x318d
 10459 2b75 25       		.uleb128 0x25
 10460 2b76 01       		.uleb128 0x1
 10461 2b77 50       		.byte	0x50
 10462 2b78 02       		.uleb128 0x2
 10463 2b79 74       		.byte	0x74
 10464 2b7a 00       		.sleb128 0
 10465 2b7b 00       		.byte	0
 10466 2b7c 00       		.byte	0
 10467 2b7d 24       		.uleb128 0x24
 10468 2b7e 18000000 		.4byte	.LVL426
 10469 2b82 31330000 		.4byte	0x3331
 10470 2b86 912B0000 		.4byte	0x2b91
 10471 2b8a 25       		.uleb128 0x25
 10472 2b8b 01       		.uleb128 0x1
 10473 2b8c 50       		.byte	0x50
 10474 2b8d 02       		.uleb128 0x2
 10475 2b8e 76       		.byte	0x76
 10476 2b8f 00       		.sleb128 0
 10477 2b90 00       		.byte	0
 10478 2b91 24       		.uleb128 0x24
 10479 2b92 26000000 		.4byte	.LVL430
 10480 2b96 DE2A0000 		.4byte	0x2ade
 10481 2b9a AB2B0000 		.4byte	0x2bab
 10482 2b9e 25       		.uleb128 0x25
 10483 2b9f 01       		.uleb128 0x1
 10484 2ba0 50       		.byte	0x50
 10485 2ba1 02       		.uleb128 0x2
 10486 2ba2 74       		.byte	0x74
 10487 2ba3 00       		.sleb128 0
 10488 2ba4 25       		.uleb128 0x25
 10489 2ba5 01       		.uleb128 0x1
 10490 2ba6 51       		.byte	0x51
 10491 2ba7 02       		.uleb128 0x2
 10492 2ba8 77       		.byte	0x77
 10493 2ba9 00       		.sleb128 0
 10494 2baa 00       		.byte	0
 10495 2bab 24       		.uleb128 0x24
 10496 2bac 32000000 		.4byte	.LVL432
 10497 2bb0 3C330000 		.4byte	0x333c
 10498 2bb4 C52B0000 		.4byte	0x2bc5
 10499 2bb8 25       		.uleb128 0x25
 10500 2bb9 01       		.uleb128 0x1
ARM GAS  C:\Users\strap\AppData\Local\Temp\cc4VwSsz.s 			page 226


 10501 2bba 50       		.byte	0x50
 10502 2bbb 02       		.uleb128 0x2
 10503 2bbc 76       		.byte	0x76
 10504 2bbd 00       		.sleb128 0
 10505 2bbe 25       		.uleb128 0x25
 10506 2bbf 01       		.uleb128 0x1
 10507 2bc0 51       		.byte	0x51
 10508 2bc1 02       		.uleb128 0x2
 10509 2bc2 74       		.byte	0x74
 10510 2bc3 00       		.sleb128 0
 10511 2bc4 00       		.byte	0
 10512 2bc5 26       		.uleb128 0x26
 10513 2bc6 40000000 		.4byte	.LVL435
 10514 2bca 47330000 		.4byte	0x3347
 10515 2bce 25       		.uleb128 0x25
 10516 2bcf 01       		.uleb128 0x1
 10517 2bd0 50       		.byte	0x50
 10518 2bd1 02       		.uleb128 0x2
 10519 2bd2 78       		.byte	0x78
 10520 2bd3 00       		.sleb128 0
 10521 2bd4 00       		.byte	0
 10522 2bd5 00       		.byte	0
 10523 2bd6 26       		.uleb128 0x26
 10524 2bd7 0C000000 		.4byte	.LVL425
 10525 2bdb 53330000 		.4byte	0x3353
 10526 2bdf 25       		.uleb128 0x25
 10527 2be0 01       		.uleb128 0x1
 10528 2be1 50       		.byte	0x50
 10529 2be2 02       		.uleb128 0x2
 10530 2be3 78       		.byte	0x78
 10531 2be4 00       		.sleb128 0
 10532 2be5 25       		.uleb128 0x25
 10533 2be6 01       		.uleb128 0x1
 10534 2be7 51       		.byte	0x51
 10535 2be8 02       		.uleb128 0x2
 10536 2be9 77       		.byte	0x77
 10537 2bea 00       		.sleb128 0
 10538 2beb 00       		.byte	0
 10539 2bec 00       		.byte	0
 10540 2bed 1E       		.uleb128 0x1e
 10541 2bee 490C0000 		.4byte	.LASF386
 10542 2bf2 01       		.byte	0x1
 10543 2bf3 4003     		.2byte	0x340
 10544 2bf5 00000000 		.4byte	.LFB356
 10545 2bf9 60030000 		.4byte	.LFE356-.LFB356
 10546 2bfd 01       		.uleb128 0x1
 10547 2bfe 9C       		.byte	0x9c
 10548 2bff DD2F0000 		.4byte	0x2fdd
 10549 2c03 21       		.uleb128 0x21
 10550 2c04 46070000 		.4byte	.LASF215
 10551 2c08 01       		.byte	0x1
 10552 2c09 4003     		.2byte	0x340
 10553 2c0b EA110000 		.4byte	0x11ea
 10554 2c0f BB0A0000 		.4byte	.LLST63
 10555 2c13 23       		.uleb128 0x23
 10556 2c14 F50D0000 		.4byte	.LASF180
 10557 2c18 01       		.byte	0x1
ARM GAS  C:\Users\strap\AppData\Local\Temp\cc4VwSsz.s 			page 227


 10558 2c19 4603     		.2byte	0x346
 10559 2c1b D82A0000 		.4byte	0x2ad8
 10560 2c1f 100B0000 		.4byte	.LLST64
 10561 2c23 23       		.uleb128 0x23
 10562 2c24 F6160000 		.4byte	.LASF387
 10563 2c28 01       		.byte	0x1
 10564 2c29 4703     		.2byte	0x347
 10565 2c2b C1010000 		.4byte	0x1c1
 10566 2c2f 230B0000 		.4byte	.LLST65
 10567 2c33 27       		.uleb128 0x27
 10568 2c34 FE000000 		.4byte	.LBB21
 10569 2c38 2E000000 		.4byte	.LBE21-.LBB21
 10570 2c3c A82C0000 		.4byte	0x2ca8
 10571 2c40 23       		.uleb128 0x23
 10572 2c41 7B0B0000 		.4byte	.LASF194
 10573 2c45 01       		.byte	0x1
 10574 2c46 7403     		.2byte	0x374
 10575 2c48 83110000 		.4byte	0x1183
 10576 2c4c 420B0000 		.4byte	.LLST66
 10577 2c50 29       		.uleb128 0x29
 10578 2c51 0A010000 		.4byte	.LVL471
 10579 2c55 652C0000 		.4byte	0x2c65
 10580 2c59 25       		.uleb128 0x25
 10581 2c5a 01       		.uleb128 0x1
 10582 2c5b 50       		.byte	0x50
 10583 2c5c 02       		.uleb128 0x2
 10584 2c5d 75       		.byte	0x75
 10585 2c5e 00       		.sleb128 0
 10586 2c5f 25       		.uleb128 0x25
 10587 2c60 01       		.uleb128 0x1
 10588 2c61 51       		.byte	0x51
 10589 2c62 01       		.uleb128 0x1
 10590 2c63 3D       		.byte	0x3d
 10591 2c64 00       		.byte	0
 10592 2c65 24       		.uleb128 0x24
 10593 2c66 10010000 		.4byte	.LVL472
 10594 2c6a BF110000 		.4byte	0x11bf
 10595 2c6e 792C0000 		.4byte	0x2c79
 10596 2c72 25       		.uleb128 0x25
 10597 2c73 01       		.uleb128 0x1
 10598 2c74 50       		.byte	0x50
 10599 2c75 02       		.uleb128 0x2
 10600 2c76 74       		.byte	0x74
 10601 2c77 00       		.sleb128 0
 10602 2c78 00       		.byte	0
 10603 2c79 24       		.uleb128 0x24
 10604 2c7a 20010000 		.4byte	.LVL473
 10605 2c7e ED310000 		.4byte	0x31ed
 10606 2c82 972C0000 		.4byte	0x2c97
 10607 2c86 25       		.uleb128 0x25
 10608 2c87 01       		.uleb128 0x1
 10609 2c88 50       		.byte	0x50
 10610 2c89 02       		.uleb128 0x2
 10611 2c8a 75       		.byte	0x75
 10612 2c8b 00       		.sleb128 0
 10613 2c8c 25       		.uleb128 0x25
 10614 2c8d 01       		.uleb128 0x1
ARM GAS  C:\Users\strap\AppData\Local\Temp\cc4VwSsz.s 			page 228


 10615 2c8e 51       		.byte	0x51
 10616 2c8f 01       		.uleb128 0x1
 10617 2c90 32       		.byte	0x32
 10618 2c91 25       		.uleb128 0x25
 10619 2c92 01       		.uleb128 0x1
 10620 2c93 52       		.byte	0x52
 10621 2c94 01       		.uleb128 0x1
 10622 2c95 30       		.byte	0x30
 10623 2c96 00       		.byte	0
 10624 2c97 26       		.uleb128 0x26
 10625 2c98 26010000 		.4byte	.LVL474
 10626 2c9c BF110000 		.4byte	0x11bf
 10627 2ca0 25       		.uleb128 0x25
 10628 2ca1 01       		.uleb128 0x1
 10629 2ca2 50       		.byte	0x50
 10630 2ca3 02       		.uleb128 0x2
 10631 2ca4 74       		.byte	0x74
 10632 2ca5 00       		.sleb128 0
 10633 2ca6 00       		.byte	0
 10634 2ca7 00       		.byte	0
 10635 2ca8 27       		.uleb128 0x27
 10636 2ca9 38010000 		.4byte	.LBB22
 10637 2cad AC000000 		.4byte	.LBE22-.LBB22
 10638 2cb1 652D0000 		.4byte	0x2d65
 10639 2cb5 2C       		.uleb128 0x2c
 10640 2cb6 6900     		.ascii	"i\000"
 10641 2cb8 01       		.byte	0x1
 10642 2cb9 9003     		.2byte	0x390
 10643 2cbb 83110000 		.4byte	0x1183
 10644 2cbf 550B0000 		.4byte	.LLST67
 10645 2cc3 23       		.uleb128 0x23
 10646 2cc4 07170000 		.4byte	.LASF388
 10647 2cc8 01       		.byte	0x1
 10648 2cc9 9103     		.2byte	0x391
 10649 2ccb 83110000 		.4byte	0x1183
 10650 2ccf 730B0000 		.4byte	.LLST68
 10651 2cd3 2A       		.uleb128 0x2a
 10652 2cd4 3C010000 		.4byte	.LVL476
 10653 2cd8 9F320000 		.4byte	0x329f
 10654 2cdc 2A       		.uleb128 0x2a
 10655 2cdd 86010000 		.4byte	.LVL480
 10656 2ce1 8D310000 		.4byte	0x318d
 10657 2ce5 24       		.uleb128 0x24
 10658 2ce6 92010000 		.4byte	.LVL482
 10659 2cea 5F330000 		.4byte	0x335f
 10660 2cee F92C0000 		.4byte	0x2cf9
 10661 2cf2 25       		.uleb128 0x25
 10662 2cf3 01       		.uleb128 0x1
 10663 2cf4 50       		.byte	0x50
 10664 2cf5 02       		.uleb128 0x2
 10665 2cf6 75       		.byte	0x75
 10666 2cf7 00       		.sleb128 0
 10667 2cf8 00       		.byte	0
 10668 2cf9 2B       		.uleb128 0x2b
 10669 2cfa 9E010000 		.4byte	.LVL484
 10670 2cfe 02       		.uleb128 0x2
 10671 2cff 75       		.byte	0x75
ARM GAS  C:\Users\strap\AppData\Local\Temp\cc4VwSsz.s 			page 229


 10672 2d00 00       		.sleb128 0
 10673 2d01 0B2D0000 		.4byte	0x2d0b
 10674 2d05 25       		.uleb128 0x25
 10675 2d06 01       		.uleb128 0x1
 10676 2d07 51       		.byte	0x51
 10677 2d08 01       		.uleb128 0x1
 10678 2d09 3B       		.byte	0x3b
 10679 2d0a 00       		.byte	0
 10680 2d0b 24       		.uleb128 0x24
 10681 2d0c A4010000 		.4byte	.LVL485
 10682 2d10 BF110000 		.4byte	0x11bf
 10683 2d14 1F2D0000 		.4byte	0x2d1f
 10684 2d18 25       		.uleb128 0x25
 10685 2d19 01       		.uleb128 0x1
 10686 2d1a 50       		.byte	0x50
 10687 2d1b 02       		.uleb128 0x2
 10688 2d1c 74       		.byte	0x74
 10689 2d1d 00       		.sleb128 0
 10690 2d1e 00       		.byte	0
 10691 2d1f 24       		.uleb128 0x24
 10692 2d20 B6010000 		.4byte	.LVL486
 10693 2d24 ED310000 		.4byte	0x31ed
 10694 2d28 372D0000 		.4byte	0x2d37
 10695 2d2c 25       		.uleb128 0x25
 10696 2d2d 01       		.uleb128 0x1
 10697 2d2e 51       		.byte	0x51
 10698 2d2f 01       		.uleb128 0x1
 10699 2d30 30       		.byte	0x30
 10700 2d31 25       		.uleb128 0x25
 10701 2d32 01       		.uleb128 0x1
 10702 2d33 52       		.byte	0x52
 10703 2d34 01       		.uleb128 0x1
 10704 2d35 30       		.byte	0x30
 10705 2d36 00       		.byte	0
 10706 2d37 24       		.uleb128 0x24
 10707 2d38 BC010000 		.4byte	.LVL487
 10708 2d3c BF110000 		.4byte	0x11bf
 10709 2d40 4B2D0000 		.4byte	0x2d4b
 10710 2d44 25       		.uleb128 0x25
 10711 2d45 01       		.uleb128 0x1
 10712 2d46 50       		.byte	0x50
 10713 2d47 02       		.uleb128 0x2
 10714 2d48 74       		.byte	0x74
 10715 2d49 00       		.sleb128 0
 10716 2d4a 00       		.byte	0
 10717 2d4b 2A       		.uleb128 0x2a
 10718 2d4c D8010000 		.4byte	.LVL488
 10719 2d50 23170000 		.4byte	0x1723
 10720 2d54 26       		.uleb128 0x26
 10721 2d55 DE010000 		.4byte	.LVL489
 10722 2d59 BF110000 		.4byte	0x11bf
 10723 2d5d 25       		.uleb128 0x25
 10724 2d5e 01       		.uleb128 0x1
 10725 2d5f 50       		.byte	0x50
 10726 2d60 02       		.uleb128 0x2
 10727 2d61 74       		.byte	0x74
 10728 2d62 00       		.sleb128 0
ARM GAS  C:\Users\strap\AppData\Local\Temp\cc4VwSsz.s 			page 230


 10729 2d63 00       		.byte	0
 10730 2d64 00       		.byte	0
 10731 2d65 24       		.uleb128 0x24
 10732 2d66 24000000 		.4byte	.LVL448
 10733 2d6a 02330000 		.4byte	0x3302
 10734 2d6e 792D0000 		.4byte	0x2d79
 10735 2d72 25       		.uleb128 0x25
 10736 2d73 01       		.uleb128 0x1
 10737 2d74 50       		.byte	0x50
 10738 2d75 02       		.uleb128 0x2
 10739 2d76 75       		.byte	0x75
 10740 2d77 00       		.sleb128 0
 10741 2d78 00       		.byte	0
 10742 2d79 24       		.uleb128 0x24
 10743 2d7a 2C000000 		.4byte	.LVL449
 10744 2d7e DE2A0000 		.4byte	0x2ade
 10745 2d82 8D2D0000 		.4byte	0x2d8d
 10746 2d86 25       		.uleb128 0x25
 10747 2d87 01       		.uleb128 0x1
 10748 2d88 51       		.byte	0x51
 10749 2d89 02       		.uleb128 0x2
 10750 2d8a 76       		.byte	0x76
 10751 2d8b 00       		.sleb128 0
 10752 2d8c 00       		.byte	0
 10753 2d8d 24       		.uleb128 0x24
 10754 2d8e 38000000 		.4byte	.LVL450
 10755 2d92 6B330000 		.4byte	0x336b
 10756 2d96 A12D0000 		.4byte	0x2da1
 10757 2d9a 25       		.uleb128 0x25
 10758 2d9b 01       		.uleb128 0x1
 10759 2d9c 50       		.byte	0x50
 10760 2d9d 02       		.uleb128 0x2
 10761 2d9e 75       		.byte	0x75
 10762 2d9f 00       		.sleb128 0
 10763 2da0 00       		.byte	0
 10764 2da1 24       		.uleb128 0x24
 10765 2da2 3E000000 		.4byte	.LVL451
 10766 2da6 DE2A0000 		.4byte	0x2ade
 10767 2daa B52D0000 		.4byte	0x2db5
 10768 2dae 25       		.uleb128 0x25
 10769 2daf 01       		.uleb128 0x1
 10770 2db0 51       		.byte	0x51
 10771 2db1 02       		.uleb128 0x2
 10772 2db2 76       		.byte	0x76
 10773 2db3 00       		.sleb128 0
 10774 2db4 00       		.byte	0
 10775 2db5 24       		.uleb128 0x24
 10776 2db6 4E000000 		.4byte	.LVL452
 10777 2dba 76330000 		.4byte	0x3376
 10778 2dbe C92D0000 		.4byte	0x2dc9
 10779 2dc2 25       		.uleb128 0x25
 10780 2dc3 01       		.uleb128 0x1
 10781 2dc4 50       		.byte	0x50
 10782 2dc5 02       		.uleb128 0x2
 10783 2dc6 75       		.byte	0x75
 10784 2dc7 00       		.sleb128 0
 10785 2dc8 00       		.byte	0
ARM GAS  C:\Users\strap\AppData\Local\Temp\cc4VwSsz.s 			page 231


 10786 2dc9 24       		.uleb128 0x24
 10787 2dca 54000000 		.4byte	.LVL453
 10788 2dce DE2A0000 		.4byte	0x2ade
 10789 2dd2 DD2D0000 		.4byte	0x2ddd
 10790 2dd6 25       		.uleb128 0x25
 10791 2dd7 01       		.uleb128 0x1
 10792 2dd8 51       		.byte	0x51
 10793 2dd9 02       		.uleb128 0x2
 10794 2dda 76       		.byte	0x76
 10795 2ddb 00       		.sleb128 0
 10796 2ddc 00       		.byte	0
 10797 2ddd 24       		.uleb128 0x24
 10798 2dde 6E000000 		.4byte	.LVL456
 10799 2de2 11320000 		.4byte	0x3211
 10800 2de6 F02D0000 		.4byte	0x2df0
 10801 2dea 25       		.uleb128 0x25
 10802 2deb 01       		.uleb128 0x1
 10803 2dec 51       		.byte	0x51
 10804 2ded 01       		.uleb128 0x1
 10805 2dee 40       		.byte	0x40
 10806 2def 00       		.byte	0
 10807 2df0 24       		.uleb128 0x24
 10808 2df1 76000000 		.4byte	.LVL457
 10809 2df5 02330000 		.4byte	0x3302
 10810 2df9 042E0000 		.4byte	0x2e04
 10811 2dfd 25       		.uleb128 0x25
 10812 2dfe 01       		.uleb128 0x1
 10813 2dff 50       		.byte	0x50
 10814 2e00 02       		.uleb128 0x2
 10815 2e01 75       		.byte	0x75
 10816 2e02 00       		.sleb128 0
 10817 2e03 00       		.byte	0
 10818 2e04 24       		.uleb128 0x24
 10819 2e05 7E000000 		.4byte	.LVL458
 10820 2e09 DE2A0000 		.4byte	0x2ade
 10821 2e0d 182E0000 		.4byte	0x2e18
 10822 2e11 25       		.uleb128 0x25
 10823 2e12 01       		.uleb128 0x1
 10824 2e13 51       		.byte	0x51
 10825 2e14 02       		.uleb128 0x2
 10826 2e15 76       		.byte	0x76
 10827 2e16 00       		.sleb128 0
 10828 2e17 00       		.byte	0
 10829 2e18 24       		.uleb128 0x24
 10830 2e19 8A000000 		.4byte	.LVL459
 10831 2e1d 6B330000 		.4byte	0x336b
 10832 2e21 2C2E0000 		.4byte	0x2e2c
 10833 2e25 25       		.uleb128 0x25
 10834 2e26 01       		.uleb128 0x1
 10835 2e27 50       		.byte	0x50
 10836 2e28 02       		.uleb128 0x2
 10837 2e29 75       		.byte	0x75
 10838 2e2a 00       		.sleb128 0
 10839 2e2b 00       		.byte	0
 10840 2e2c 24       		.uleb128 0x24
 10841 2e2d 90000000 		.4byte	.LVL460
 10842 2e31 DE2A0000 		.4byte	0x2ade
ARM GAS  C:\Users\strap\AppData\Local\Temp\cc4VwSsz.s 			page 232


 10843 2e35 402E0000 		.4byte	0x2e40
 10844 2e39 25       		.uleb128 0x25
 10845 2e3a 01       		.uleb128 0x1
 10846 2e3b 51       		.byte	0x51
 10847 2e3c 02       		.uleb128 0x2
 10848 2e3d 76       		.byte	0x76
 10849 2e3e 00       		.sleb128 0
 10850 2e3f 00       		.byte	0
 10851 2e40 24       		.uleb128 0x24
 10852 2e41 A0000000 		.4byte	.LVL461
 10853 2e45 76330000 		.4byte	0x3376
 10854 2e49 542E0000 		.4byte	0x2e54
 10855 2e4d 25       		.uleb128 0x25
 10856 2e4e 01       		.uleb128 0x1
 10857 2e4f 50       		.byte	0x50
 10858 2e50 02       		.uleb128 0x2
 10859 2e51 75       		.byte	0x75
 10860 2e52 00       		.sleb128 0
 10861 2e53 00       		.byte	0
 10862 2e54 24       		.uleb128 0x24
 10863 2e55 A6000000 		.4byte	.LVL462
 10864 2e59 DE2A0000 		.4byte	0x2ade
 10865 2e5d 682E0000 		.4byte	0x2e68
 10866 2e61 25       		.uleb128 0x25
 10867 2e62 01       		.uleb128 0x1
 10868 2e63 51       		.byte	0x51
 10869 2e64 02       		.uleb128 0x2
 10870 2e65 76       		.byte	0x76
 10871 2e66 00       		.sleb128 0
 10872 2e67 00       		.byte	0
 10873 2e68 24       		.uleb128 0x24
 10874 2e69 CE000000 		.4byte	.LVL467
 10875 2e6d 4F120000 		.4byte	0x124f
 10876 2e71 7C2E0000 		.4byte	0x2e7c
 10877 2e75 25       		.uleb128 0x25
 10878 2e76 01       		.uleb128 0x1
 10879 2e77 50       		.byte	0x50
 10880 2e78 02       		.uleb128 0x2
 10881 2e79 74       		.byte	0x74
 10882 2e7a 00       		.sleb128 0
 10883 2e7b 00       		.byte	0
 10884 2e7c 24       		.uleb128 0x24
 10885 2e7d DA000000 		.4byte	.LVL468
 10886 2e81 81330000 		.4byte	0x3381
 10887 2e85 8F2E0000 		.4byte	0x2e8f
 10888 2e89 25       		.uleb128 0x25
 10889 2e8a 01       		.uleb128 0x1
 10890 2e8b 51       		.byte	0x51
 10891 2e8c 01       		.uleb128 0x1
 10892 2e8d 30       		.byte	0x30
 10893 2e8e 00       		.byte	0
 10894 2e8f 29       		.uleb128 0x29
 10895 2e90 66020000 		.4byte	.LVL490
 10896 2e94 9E2E0000 		.4byte	0x2e9e
 10897 2e98 25       		.uleb128 0x25
 10898 2e99 01       		.uleb128 0x1
 10899 2e9a 51       		.byte	0x51
ARM GAS  C:\Users\strap\AppData\Local\Temp\cc4VwSsz.s 			page 233


 10900 2e9b 01       		.uleb128 0x1
 10901 2e9c 3C       		.byte	0x3c
 10902 2e9d 00       		.byte	0
 10903 2e9e 24       		.uleb128 0x24
 10904 2e9f 6C020000 		.4byte	.LVL491
 10905 2ea3 BF110000 		.4byte	0x11bf
 10906 2ea7 B22E0000 		.4byte	0x2eb2
 10907 2eab 25       		.uleb128 0x25
 10908 2eac 01       		.uleb128 0x1
 10909 2ead 50       		.byte	0x50
 10910 2eae 02       		.uleb128 0x2
 10911 2eaf 74       		.byte	0x74
 10912 2eb0 00       		.sleb128 0
 10913 2eb1 00       		.byte	0
 10914 2eb2 24       		.uleb128 0x24
 10915 2eb3 7C020000 		.4byte	.LVL492
 10916 2eb7 ED310000 		.4byte	0x31ed
 10917 2ebb CA2E0000 		.4byte	0x2eca
 10918 2ebf 25       		.uleb128 0x25
 10919 2ec0 01       		.uleb128 0x1
 10920 2ec1 51       		.byte	0x51
 10921 2ec2 01       		.uleb128 0x1
 10922 2ec3 31       		.byte	0x31
 10923 2ec4 25       		.uleb128 0x25
 10924 2ec5 01       		.uleb128 0x1
 10925 2ec6 52       		.byte	0x52
 10926 2ec7 01       		.uleb128 0x1
 10927 2ec8 30       		.byte	0x30
 10928 2ec9 00       		.byte	0
 10929 2eca 24       		.uleb128 0x24
 10930 2ecb 82020000 		.4byte	.LVL493
 10931 2ecf BF110000 		.4byte	0x11bf
 10932 2ed3 DE2E0000 		.4byte	0x2ede
 10933 2ed7 25       		.uleb128 0x25
 10934 2ed8 01       		.uleb128 0x1
 10935 2ed9 50       		.byte	0x50
 10936 2eda 02       		.uleb128 0x2
 10937 2edb 74       		.byte	0x74
 10938 2edc 00       		.sleb128 0
 10939 2edd 00       		.byte	0
 10940 2ede 24       		.uleb128 0x24
 10941 2edf 9A020000 		.4byte	.LVL494
 10942 2ee3 381A0000 		.4byte	0x1a38
 10943 2ee7 F22E0000 		.4byte	0x2ef2
 10944 2eeb 25       		.uleb128 0x25
 10945 2eec 01       		.uleb128 0x1
 10946 2eed 50       		.byte	0x50
 10947 2eee 02       		.uleb128 0x2
 10948 2eef 74       		.byte	0x74
 10949 2ef0 00       		.sleb128 0
 10950 2ef1 00       		.byte	0
 10951 2ef2 24       		.uleb128 0x24
 10952 2ef3 A0020000 		.4byte	.LVL495
 10953 2ef7 E21C0000 		.4byte	0x1ce2
 10954 2efb 062F0000 		.4byte	0x2f06
 10955 2eff 25       		.uleb128 0x25
 10956 2f00 01       		.uleb128 0x1
ARM GAS  C:\Users\strap\AppData\Local\Temp\cc4VwSsz.s 			page 234


 10957 2f01 50       		.byte	0x50
 10958 2f02 02       		.uleb128 0x2
 10959 2f03 74       		.byte	0x74
 10960 2f04 00       		.sleb128 0
 10961 2f05 00       		.byte	0
 10962 2f06 24       		.uleb128 0x24
 10963 2f07 A6020000 		.4byte	.LVL496
 10964 2f0b BF110000 		.4byte	0x11bf
 10965 2f0f 1A2F0000 		.4byte	0x2f1a
 10966 2f13 25       		.uleb128 0x25
 10967 2f14 01       		.uleb128 0x1
 10968 2f15 50       		.byte	0x50
 10969 2f16 02       		.uleb128 0x2
 10970 2f17 74       		.byte	0x74
 10971 2f18 00       		.sleb128 0
 10972 2f19 00       		.byte	0
 10973 2f1a 2A       		.uleb128 0x2a
 10974 2f1b C4020000 		.4byte	.LVL497
 10975 2f1f D6320000 		.4byte	0x32d6
 10976 2f23 29       		.uleb128 0x29
 10977 2f24 D8020000 		.4byte	.LVL498
 10978 2f28 322F0000 		.4byte	0x2f32
 10979 2f2c 25       		.uleb128 0x25
 10980 2f2d 01       		.uleb128 0x1
 10981 2f2e 51       		.byte	0x51
 10982 2f2f 01       		.uleb128 0x1
 10983 2f30 3F       		.byte	0x3f
 10984 2f31 00       		.byte	0
 10985 2f32 24       		.uleb128 0x24
 10986 2f33 DE020000 		.4byte	.LVL499
 10987 2f37 BF110000 		.4byte	0x11bf
 10988 2f3b 462F0000 		.4byte	0x2f46
 10989 2f3f 25       		.uleb128 0x25
 10990 2f40 01       		.uleb128 0x1
 10991 2f41 50       		.byte	0x50
 10992 2f42 02       		.uleb128 0x2
 10993 2f43 74       		.byte	0x74
 10994 2f44 00       		.sleb128 0
 10995 2f45 00       		.byte	0
 10996 2f46 24       		.uleb128 0x24
 10997 2f47 EE020000 		.4byte	.LVL500
 10998 2f4b ED310000 		.4byte	0x31ed
 10999 2f4f 5E2F0000 		.4byte	0x2f5e
 11000 2f53 25       		.uleb128 0x25
 11001 2f54 01       		.uleb128 0x1
 11002 2f55 51       		.byte	0x51
 11003 2f56 01       		.uleb128 0x1
 11004 2f57 34       		.byte	0x34
 11005 2f58 25       		.uleb128 0x25
 11006 2f59 01       		.uleb128 0x1
 11007 2f5a 52       		.byte	0x52
 11008 2f5b 01       		.uleb128 0x1
 11009 2f5c 30       		.byte	0x30
 11010 2f5d 00       		.byte	0
 11011 2f5e 24       		.uleb128 0x24
 11012 2f5f F4020000 		.4byte	.LVL501
 11013 2f63 BF110000 		.4byte	0x11bf
ARM GAS  C:\Users\strap\AppData\Local\Temp\cc4VwSsz.s 			page 235


 11014 2f67 722F0000 		.4byte	0x2f72
 11015 2f6b 25       		.uleb128 0x25
 11016 2f6c 01       		.uleb128 0x1
 11017 2f6d 50       		.byte	0x50
 11018 2f6e 02       		.uleb128 0x2
 11019 2f6f 74       		.byte	0x74
 11020 2f70 00       		.sleb128 0
 11021 2f71 00       		.byte	0
 11022 2f72 2A       		.uleb128 0x2a
 11023 2f73 06030000 		.4byte	.LVL502
 11024 2f77 9F320000 		.4byte	0x329f
 11025 2f7b 2A       		.uleb128 0x2a
 11026 2f7c 22030000 		.4byte	.LVL503
 11027 2f80 D6320000 		.4byte	0x32d6
 11028 2f84 29       		.uleb128 0x29
 11029 2f85 36030000 		.4byte	.LVL504
 11030 2f89 932F0000 		.4byte	0x2f93
 11031 2f8d 25       		.uleb128 0x25
 11032 2f8e 01       		.uleb128 0x1
 11033 2f8f 51       		.byte	0x51
 11034 2f90 01       		.uleb128 0x1
 11035 2f91 40       		.byte	0x40
 11036 2f92 00       		.byte	0
 11037 2f93 24       		.uleb128 0x24
 11038 2f94 3C030000 		.4byte	.LVL505
 11039 2f98 BF110000 		.4byte	0x11bf
 11040 2f9c A72F0000 		.4byte	0x2fa7
 11041 2fa0 25       		.uleb128 0x25
 11042 2fa1 01       		.uleb128 0x1
 11043 2fa2 50       		.byte	0x50
 11044 2fa3 02       		.uleb128 0x2
 11045 2fa4 74       		.byte	0x74
 11046 2fa5 00       		.sleb128 0
 11047 2fa6 00       		.byte	0
 11048 2fa7 24       		.uleb128 0x24
 11049 2fa8 4A030000 		.4byte	.LVL506
 11050 2fac ED310000 		.4byte	0x31ed
 11051 2fb0 BF2F0000 		.4byte	0x2fbf
 11052 2fb4 25       		.uleb128 0x25
 11053 2fb5 01       		.uleb128 0x1
 11054 2fb6 51       		.byte	0x51
 11055 2fb7 01       		.uleb128 0x1
 11056 2fb8 35       		.byte	0x35
 11057 2fb9 25       		.uleb128 0x25
 11058 2fba 01       		.uleb128 0x1
 11059 2fbb 52       		.byte	0x52
 11060 2fbc 01       		.uleb128 0x1
 11061 2fbd 30       		.byte	0x30
 11062 2fbe 00       		.byte	0
 11063 2fbf 24       		.uleb128 0x24
 11064 2fc0 50030000 		.4byte	.LVL507
 11065 2fc4 BF110000 		.4byte	0x11bf
 11066 2fc8 D32F0000 		.4byte	0x2fd3
 11067 2fcc 25       		.uleb128 0x25
 11068 2fcd 01       		.uleb128 0x1
 11069 2fce 50       		.byte	0x50
 11070 2fcf 02       		.uleb128 0x2
ARM GAS  C:\Users\strap\AppData\Local\Temp\cc4VwSsz.s 			page 236


 11071 2fd0 74       		.byte	0x74
 11072 2fd1 00       		.sleb128 0
 11073 2fd2 00       		.byte	0
 11074 2fd3 2A       		.uleb128 0x2a
 11075 2fd4 56030000 		.4byte	.LVL508
 11076 2fd8 9F320000 		.4byte	0x329f
 11077 2fdc 00       		.byte	0
 11078 2fdd 1E       		.uleb128 0x1e
 11079 2fde E40B0000 		.4byte	.LASF389
 11080 2fe2 01       		.byte	0x1
 11081 2fe3 9201     		.2byte	0x192
 11082 2fe5 00000000 		.4byte	.LFB352
 11083 2fe9 52000000 		.4byte	.LFE352-.LFB352
 11084 2fed 01       		.uleb128 0x1
 11085 2fee 9C       		.byte	0x9c
 11086 2fef 3F300000 		.4byte	0x303f
 11087 2ff3 22       		.uleb128 0x22
 11088 2ff4 6900     		.ascii	"i\000"
 11089 2ff6 01       		.byte	0x1
 11090 2ff7 9201     		.2byte	0x192
 11091 2ff9 B9110000 		.4byte	0x11b9
 11092 2ffd 920B0000 		.4byte	.LLST69
 11093 3001 21       		.uleb128 0x21
 11094 3002 76180000 		.4byte	.LASF358
 11095 3006 01       		.byte	0x1
 11096 3007 9201     		.2byte	0x192
 11097 3009 630B0000 		.4byte	0xb63
 11098 300d B00B0000 		.4byte	.LLST70
 11099 3011 2A       		.uleb128 0x2a
 11100 3012 1E000000 		.4byte	.LVL513
 11101 3016 C9310000 		.4byte	0x31c9
 11102 301a 24       		.uleb128 0x24
 11103 301b 3A000000 		.4byte	.LVL514
 11104 301f ED2B0000 		.4byte	0x2bed
 11105 3023 2E300000 		.4byte	0x302e
 11106 3027 25       		.uleb128 0x25
 11107 3028 01       		.uleb128 0x1
 11108 3029 50       		.byte	0x50
 11109 302a 02       		.uleb128 0x2
 11110 302b 74       		.byte	0x74
 11111 302c 20       		.sleb128 32
 11112 302d 00       		.byte	0
 11113 302e 26       		.uleb128 0x26
 11114 302f 44000000 		.4byte	.LVL515
 11115 3033 DA140000 		.4byte	0x14da
 11116 3037 25       		.uleb128 0x25
 11117 3038 01       		.uleb128 0x1
 11118 3039 50       		.byte	0x50
 11119 303a 02       		.uleb128 0x2
 11120 303b 74       		.byte	0x74
 11121 303c 20       		.sleb128 32
 11122 303d 00       		.byte	0
 11123 303e 00       		.byte	0
 11124 303f 1E       		.uleb128 0x1e
 11125 3040 8C0E0000 		.4byte	.LASF390
 11126 3044 01       		.byte	0x1
 11127 3045 2203     		.2byte	0x322
ARM GAS  C:\Users\strap\AppData\Local\Temp\cc4VwSsz.s 			page 237


 11128 3047 00000000 		.4byte	.LFB355
 11129 304b 4A000000 		.4byte	.LFE355-.LFB355
 11130 304f 01       		.uleb128 0x1
 11131 3050 9C       		.byte	0x9c
 11132 3051 98300000 		.4byte	0x3098
 11133 3055 22       		.uleb128 0x22
 11134 3056 6900     		.ascii	"i\000"
 11135 3058 01       		.byte	0x1
 11136 3059 2203     		.2byte	0x322
 11137 305b B9110000 		.4byte	0x11b9
 11138 305f CE0B0000 		.4byte	.LLST71
 11139 3063 21       		.uleb128 0x21
 11140 3064 76180000 		.4byte	.LASF358
 11141 3068 01       		.byte	0x1
 11142 3069 2203     		.2byte	0x322
 11143 306b 630B0000 		.4byte	0xb63
 11144 306f 0D0C0000 		.4byte	.LLST72
 11145 3073 24       		.uleb128 0x24
 11146 3074 30000000 		.4byte	.LVL518
 11147 3078 ED2B0000 		.4byte	0x2bed
 11148 307c 87300000 		.4byte	0x3087
 11149 3080 25       		.uleb128 0x25
 11150 3081 01       		.uleb128 0x1
 11151 3082 50       		.byte	0x50
 11152 3083 02       		.uleb128 0x2
 11153 3084 74       		.byte	0x74
 11154 3085 20       		.sleb128 32
 11155 3086 00       		.byte	0
 11156 3087 26       		.uleb128 0x26
 11157 3088 3A000000 		.4byte	.LVL521
 11158 308c DA140000 		.4byte	0x14da
 11159 3090 25       		.uleb128 0x25
 11160 3091 01       		.uleb128 0x1
 11161 3092 50       		.byte	0x50
 11162 3093 02       		.uleb128 0x2
 11163 3094 74       		.byte	0x74
 11164 3095 20       		.sleb128 32
 11165 3096 00       		.byte	0
 11166 3097 00       		.byte	0
 11167 3098 30       		.uleb128 0x30
 11168 3099 D2120000 		.4byte	.LASF391
 11169 309d 01       		.byte	0x1
 11170 309e 4B       		.byte	0x4b
 11171 309f 00000000 		.4byte	.LFB334
 11172 30a3 BC000000 		.4byte	.LFE334-.LFB334
 11173 30a7 01       		.uleb128 0x1
 11174 30a8 9C       		.byte	0x9c
 11175 30a9 6B310000 		.4byte	0x316b
 11176 30ad 2F       		.uleb128 0x2f
 11177 30ae B4150000 		.4byte	.LASF392
 11178 30b2 01       		.byte	0x1
 11179 30b3 4B       		.byte	0x4b
 11180 30b4 E3070000 		.4byte	0x7e3
 11181 30b8 520C0000 		.4byte	.LLST73
 11182 30bc 39       		.uleb128 0x39
 11183 30bd 76180000 		.4byte	.LASF358
 11184 30c1 01       		.byte	0x1
ARM GAS  C:\Users\strap\AppData\Local\Temp\cc4VwSsz.s 			page 238


 11185 30c2 4F       		.byte	0x4f
 11186 30c3 A10A0000 		.4byte	0xaa1
 11187 30c7 02       		.uleb128 0x2
 11188 30c8 91       		.byte	0x91
 11189 30c9 60       		.sleb128 -32
 11190 30ca 3A       		.uleb128 0x3a
 11191 30cb B7070000 		.4byte	.LASF393
 11192 30cf 01       		.byte	0x1
 11193 30d0 5A       		.byte	0x5a
 11194 30d1 C1010000 		.4byte	0x1c1
 11195 30d5 730C0000 		.4byte	.LLST74
 11196 30d9 2A       		.uleb128 0x2a
 11197 30da 14000000 		.4byte	.LVL525
 11198 30de 94110000 		.4byte	0x1194
 11199 30e2 24       		.uleb128 0x24
 11200 30e3 2C000000 		.4byte	.LVL526
 11201 30e7 8D330000 		.4byte	0x338d
 11202 30eb F6300000 		.4byte	0x30f6
 11203 30ef 25       		.uleb128 0x25
 11204 30f0 01       		.uleb128 0x1
 11205 30f1 51       		.byte	0x51
 11206 30f2 02       		.uleb128 0x2
 11207 30f3 7D       		.byte	0x7d
 11208 30f4 00       		.sleb128 0
 11209 30f5 00       		.byte	0
 11210 30f6 2A       		.uleb128 0x2a
 11211 30f7 34000000 		.4byte	.LVL528
 11212 30fb 94110000 		.4byte	0x1194
 11213 30ff 2A       		.uleb128 0x2a
 11214 3100 4C000000 		.4byte	.LVL529
 11215 3104 9F320000 		.4byte	0x329f
 11216 3108 2A       		.uleb128 0x2a
 11217 3109 64000000 		.4byte	.LVL530
 11218 310d 9F320000 		.4byte	0x329f
 11219 3111 24       		.uleb128 0x24
 11220 3112 78000000 		.4byte	.LVL531
 11221 3116 DD2F0000 		.4byte	0x2fdd
 11222 311a 25310000 		.4byte	0x3125
 11223 311e 25       		.uleb128 0x25
 11224 311f 01       		.uleb128 0x1
 11225 3120 51       		.byte	0x51
 11226 3121 02       		.uleb128 0x2
 11227 3122 7D       		.byte	0x7d
 11228 3123 00       		.sleb128 0
 11229 3124 00       		.byte	0
 11230 3125 24       		.uleb128 0x24
 11231 3126 84000000 		.4byte	.LVL532
 11232 312a 981D0000 		.4byte	0x1d98
 11233 312e 39310000 		.4byte	0x3139
 11234 3132 25       		.uleb128 0x25
 11235 3133 01       		.uleb128 0x1
 11236 3134 51       		.byte	0x51
 11237 3135 02       		.uleb128 0x2
 11238 3136 7D       		.byte	0x7d
 11239 3137 00       		.sleb128 0
 11240 3138 00       		.byte	0
 11241 3139 24       		.uleb128 0x24
ARM GAS  C:\Users\strap\AppData\Local\Temp\cc4VwSsz.s 			page 239


 11242 313a 90000000 		.4byte	.LVL533
 11243 313e C8210000 		.4byte	0x21c8
 11244 3142 4D310000 		.4byte	0x314d
 11245 3146 25       		.uleb128 0x25
 11246 3147 01       		.uleb128 0x1
 11247 3148 51       		.byte	0x51
 11248 3149 02       		.uleb128 0x2
 11249 314a 7D       		.byte	0x7d
 11250 314b 00       		.sleb128 0
 11251 314c 00       		.byte	0
 11252 314d 24       		.uleb128 0x24
 11253 314e 9C000000 		.4byte	.LVL534
 11254 3152 3F300000 		.4byte	0x303f
 11255 3156 61310000 		.4byte	0x3161
 11256 315a 25       		.uleb128 0x25
 11257 315b 01       		.uleb128 0x1
 11258 315c 51       		.byte	0x51
 11259 315d 02       		.uleb128 0x2
 11260 315e 7D       		.byte	0x7d
 11261 315f 00       		.sleb128 0
 11262 3160 00       		.byte	0
 11263 3161 2A       		.uleb128 0x2a
 11264 3162 A4000000 		.4byte	.LVL535
 11265 3166 94110000 		.4byte	0x1194
 11266 316a 00       		.byte	0
 11267 316b 39       		.uleb128 0x39
 11268 316c FD020000 		.4byte	.LASF394
 11269 3170 01       		.byte	0x1
 11270 3171 34       		.byte	0x34
 11271 3172 B9110000 		.4byte	0x11b9
 11272 3176 05       		.uleb128 0x5
 11273 3177 03       		.byte	0x3
 11274 3178 04000000 		.4byte	indev_act
 11275 317c 39       		.uleb128 0x39
 11276 317d 54050000 		.4byte	.LASF395
 11277 3181 01       		.byte	0x1
 11278 3182 35       		.byte	0x35
 11279 3183 83110000 		.4byte	0x1183
 11280 3187 05       		.uleb128 0x5
 11281 3188 03       		.byte	0x3
 11282 3189 00000000 		.4byte	indev_obj_act
 11283 318d 3B       		.uleb128 0x3b
 11284 318e 3D160000 		.4byte	.LASF396
 11285 3192 3D160000 		.4byte	.LASF396
 11286 3196 0C       		.byte	0xc
 11287 3197 B703     		.2byte	0x3b7
 11288 3199 3B       		.uleb128 0x3b
 11289 319a DC150000 		.4byte	.LASF397
 11290 319e DC150000 		.4byte	.LASF397
 11291 31a2 0C       		.byte	0xc
 11292 31a3 FB04     		.2byte	0x4fb
 11293 31a5 3B       		.uleb128 0x3b
 11294 31a6 3D170000 		.4byte	.LASF398
 11295 31aa 3D170000 		.4byte	.LASF398
 11296 31ae 0C       		.byte	0xc
 11297 31af E103     		.2byte	0x3e1
 11298 31b1 3B       		.uleb128 0x3b
ARM GAS  C:\Users\strap\AppData\Local\Temp\cc4VwSsz.s 			page 240


 11299 31b2 D9130000 		.4byte	.LASF399
 11300 31b6 D9130000 		.4byte	.LASF399
 11301 31ba 0C       		.byte	0xc
 11302 31bb EF03     		.2byte	0x3ef
 11303 31bd 3B       		.uleb128 0x3b
 11304 31be 770F0000 		.4byte	.LASF400
 11305 31c2 770F0000 		.4byte	.LASF400
 11306 31c6 0C       		.byte	0xc
 11307 31c7 F603     		.2byte	0x3f6
 11308 31c9 3B       		.uleb128 0x3b
 11309 31ca D1090000 		.4byte	.LASF401
 11310 31ce D1090000 		.4byte	.LASF401
 11311 31d2 0C       		.byte	0xc
 11312 31d3 9A01     		.2byte	0x19a
 11313 31d5 3B       		.uleb128 0x3b
 11314 31d6 10170000 		.4byte	.LASF402
 11315 31da 10170000 		.4byte	.LASF402
 11316 31de 0C       		.byte	0xc
 11317 31df A101     		.2byte	0x1a1
 11318 31e1 3B       		.uleb128 0x3b
 11319 31e2 1D170000 		.4byte	.LASF403
 11320 31e6 1D170000 		.4byte	.LASF403
 11321 31ea 0C       		.byte	0xc
 11322 31eb A801     		.2byte	0x1a8
 11323 31ed 3B       		.uleb128 0x3b
 11324 31ee 37030000 		.4byte	.LASF404
 11325 31f2 37030000 		.4byte	.LASF404
 11326 31f6 0C       		.byte	0xc
 11327 31f7 5003     		.2byte	0x350
 11328 31f9 3B       		.uleb128 0x3b
 11329 31fa CE0B0000 		.4byte	.LASF405
 11330 31fe CE0B0000 		.4byte	.LASF405
 11331 3202 0C       		.byte	0xc
 11332 3203 F404     		.2byte	0x4f4
 11333 3205 3B       		.uleb128 0x3b
 11334 3206 12160000 		.4byte	.LASF406
 11335 320a 12160000 		.4byte	.LASF406
 11336 320e 0C       		.byte	0xc
 11337 320f ED04     		.2byte	0x4ed
 11338 3211 3B       		.uleb128 0x3b
 11339 3212 EF010000 		.4byte	.LASF407
 11340 3216 EF010000 		.4byte	.LASF407
 11341 321a 0C       		.byte	0xc
 11342 321b 2305     		.2byte	0x523
 11343 321d 3B       		.uleb128 0x3b
 11344 321e E2080000 		.4byte	.LASF408
 11345 3222 E2080000 		.4byte	.LASF408
 11346 3226 0C       		.byte	0xc
 11347 3227 8005     		.2byte	0x580
 11348 3229 3C       		.uleb128 0x3c
 11349 322a AB130000 		.4byte	.LASF409
 11350 322e AB130000 		.4byte	.LASF409
 11351 3232 0E       		.byte	0xe
 11352 3233 79       		.byte	0x79
 11353 3234 3B       		.uleb128 0x3b
 11354 3235 990A0000 		.4byte	.LASF410
 11355 3239 990A0000 		.4byte	.LASF410
ARM GAS  C:\Users\strap\AppData\Local\Temp\cc4VwSsz.s 			page 241


 11356 323d 0C       		.byte	0xc
 11357 323e 8103     		.2byte	0x381
 11358 3240 3B       		.uleb128 0x3b
 11359 3241 130C0000 		.4byte	.LASF411
 11360 3245 130C0000 		.4byte	.LASF411
 11361 3249 0C       		.byte	0xc
 11362 324a 8E05     		.2byte	0x58e
 11363 324c 3B       		.uleb128 0x3b
 11364 324d 0D150000 		.4byte	.LASF412
 11365 3251 0D150000 		.4byte	.LASF412
 11366 3255 0B       		.byte	0xb
 11367 3256 3E01     		.2byte	0x13e
 11368 3258 3B       		.uleb128 0x3b
 11369 3259 230D0000 		.4byte	.LASF413
 11370 325d 230D0000 		.4byte	.LASF413
 11371 3261 0B       		.byte	0xb
 11372 3262 4401     		.2byte	0x144
 11373 3264 3B       		.uleb128 0x3b
 11374 3265 30020000 		.4byte	.LASF414
 11375 3269 30020000 		.4byte	.LASF414
 11376 326d 0C       		.byte	0xc
 11377 326e FD03     		.2byte	0x3fd
 11378 3270 3B       		.uleb128 0x3b
 11379 3271 6E130000 		.4byte	.LASF415
 11380 3275 6E130000 		.4byte	.LASF415
 11381 3279 0C       		.byte	0xc
 11382 327a 0404     		.2byte	0x404
 11383 327c 3B       		.uleb128 0x3b
 11384 327d DE000000 		.4byte	.LASF416
 11385 3281 DE000000 		.4byte	.LASF416
 11386 3285 0C       		.byte	0xc
 11387 3286 E604     		.2byte	0x4e6
 11388 3288 3B       		.uleb128 0x3b
 11389 3289 4B070000 		.4byte	.LASF417
 11390 328d 4B070000 		.4byte	.LASF417
 11391 3291 0C       		.byte	0xc
 11392 3292 1205     		.2byte	0x512
 11393 3294 3C       		.uleb128 0x3c
 11394 3295 430D0000 		.4byte	.LASF418
 11395 3299 430D0000 		.4byte	.LASF418
 11396 329d 0E       		.byte	0xe
 11397 329e BF       		.byte	0xbf
 11398 329f 3C       		.uleb128 0x3c
 11399 32a0 ED060000 		.4byte	.LASF419
 11400 32a4 ED060000 		.4byte	.LASF419
 11401 32a8 10       		.byte	0x10
 11402 32a9 32       		.byte	0x32
 11403 32aa 3C       		.uleb128 0x3c
 11404 32ab AC140000 		.4byte	.LASF420
 11405 32af AC140000 		.4byte	.LASF420
 11406 32b3 0E       		.byte	0xe
 11407 32b4 94       		.byte	0x94
 11408 32b5 3C       		.uleb128 0x3c
 11409 32b6 92070000 		.4byte	.LASF421
 11410 32ba 92070000 		.4byte	.LASF421
 11411 32be 0E       		.byte	0xe
 11412 32bf AA       		.byte	0xaa
ARM GAS  C:\Users\strap\AppData\Local\Temp\cc4VwSsz.s 			page 242


 11413 32c0 3C       		.uleb128 0x3c
 11414 32c1 E9090000 		.4byte	.LASF422
 11415 32c5 E9090000 		.4byte	.LASF422
 11416 32c9 0E       		.byte	0xe
 11417 32ca 7F       		.byte	0x7f
 11418 32cb 3C       		.uleb128 0x3c
 11419 32cc A7180000 		.4byte	.LASF423
 11420 32d0 A7180000 		.4byte	.LASF423
 11421 32d4 0E       		.byte	0xe
 11422 32d5 85       		.byte	0x85
 11423 32d6 3C       		.uleb128 0x3c
 11424 32d7 2C0A0000 		.4byte	.LASF424
 11425 32db 2C0A0000 		.4byte	.LASF424
 11426 32df 10       		.byte	0x10
 11427 32e0 39       		.byte	0x39
 11428 32e1 3C       		.uleb128 0x3c
 11429 32e2 AF060000 		.4byte	.LASF425
 11430 32e6 AF060000 		.4byte	.LASF425
 11431 32ea 0E       		.byte	0xe
 11432 32eb D7       		.byte	0xd7
 11433 32ec 3C       		.uleb128 0x3c
 11434 32ed FD140000 		.4byte	.LASF426
 11435 32f1 FD140000 		.4byte	.LASF426
 11436 32f5 09       		.byte	0x9
 11437 32f6 9A       		.byte	0x9a
 11438 32f7 3C       		.uleb128 0x3c
 11439 32f8 F60E0000 		.4byte	.LASF427
 11440 32fc F60E0000 		.4byte	.LASF427
 11441 3300 0D       		.byte	0xd
 11442 3301 D7       		.byte	0xd7
 11443 3302 3C       		.uleb128 0x3c
 11444 3303 59000000 		.4byte	.LASF428
 11445 3307 59000000 		.4byte	.LASF428
 11446 330b 11       		.byte	0x11
 11447 330c 4F       		.byte	0x4f
 11448 330d 3B       		.uleb128 0x3b
 11449 330e 19030000 		.4byte	.LASF429
 11450 3312 19030000 		.4byte	.LASF429
 11451 3316 0C       		.byte	0xc
 11452 3317 8201     		.2byte	0x182
 11453 3319 3B       		.uleb128 0x3b
 11454 331a 8A140000 		.4byte	.LASF430
 11455 331e 8A140000 		.4byte	.LASF430
 11456 3322 0C       		.byte	0xc
 11457 3323 CA02     		.2byte	0x2ca
 11458 3325 3B       		.uleb128 0x3b
 11459 3326 B90C0000 		.4byte	.LASF431
 11460 332a B90C0000 		.4byte	.LASF431
 11461 332e 0C       		.byte	0xc
 11462 332f CA04     		.2byte	0x4ca
 11463 3331 3C       		.uleb128 0x3c
 11464 3332 FC170000 		.4byte	.LASF432
 11465 3336 FC170000 		.4byte	.LASF432
 11466 333a 09       		.byte	0x9
 11467 333b 65       		.byte	0x65
 11468 333c 3C       		.uleb128 0x3c
 11469 333d 1C130000 		.4byte	.LASF433
ARM GAS  C:\Users\strap\AppData\Local\Temp\cc4VwSsz.s 			page 243


 11470 3341 1C130000 		.4byte	.LASF433
 11471 3345 09       		.byte	0x9
 11472 3346 74       		.byte	0x74
 11473 3347 3B       		.uleb128 0x3b
 11474 3348 B2030000 		.4byte	.LASF434
 11475 334c B2030000 		.4byte	.LASF434
 11476 3350 0C       		.byte	0xc
 11477 3351 D804     		.2byte	0x4d8
 11478 3353 3B       		.uleb128 0x3b
 11479 3354 86150000 		.4byte	.LASF435
 11480 3358 86150000 		.4byte	.LASF435
 11481 335c 0C       		.byte	0xc
 11482 335d 5105     		.2byte	0x551
 11483 335f 3B       		.uleb128 0x3b
 11484 3360 62050000 		.4byte	.LASF436
 11485 3364 62050000 		.4byte	.LASF436
 11486 3368 0C       		.byte	0xc
 11487 3369 8801     		.2byte	0x188
 11488 336b 3C       		.uleb128 0x3c
 11489 336c 85130000 		.4byte	.LASF437
 11490 3370 85130000 		.4byte	.LASF437
 11491 3374 11       		.byte	0x11
 11492 3375 47       		.byte	0x47
 11493 3376 3C       		.uleb128 0x3c
 11494 3377 1B110000 		.4byte	.LASF438
 11495 337b 1B110000 		.4byte	.LASF438
 11496 337f 11       		.byte	0x11
 11497 3380 32       		.byte	0x32
 11498 3381 3B       		.uleb128 0x3b
 11499 3382 21100000 		.4byte	.LASF439
 11500 3386 21100000 		.4byte	.LASF439
 11501 338a 0C       		.byte	0xc
 11502 338b 2605     		.2byte	0x526
 11503 338d 3C       		.uleb128 0x3c
 11504 338e C5160000 		.4byte	.LASF440
 11505 3392 C5160000 		.4byte	.LASF440
 11506 3396 0D       		.byte	0xd
 11507 3397 DF       		.byte	0xdf
 11508 3398 00       		.byte	0
 11509              		.section	.debug_abbrev,"",%progbits
 11510              	.Ldebug_abbrev0:
 11511 0000 01       		.uleb128 0x1
 11512 0001 11       		.uleb128 0x11
 11513 0002 01       		.byte	0x1
 11514 0003 25       		.uleb128 0x25
 11515 0004 0E       		.uleb128 0xe
 11516 0005 13       		.uleb128 0x13
 11517 0006 0B       		.uleb128 0xb
 11518 0007 03       		.uleb128 0x3
 11519 0008 0E       		.uleb128 0xe
 11520 0009 1B       		.uleb128 0x1b
 11521 000a 0E       		.uleb128 0xe
 11522 000b 55       		.uleb128 0x55
 11523 000c 17       		.uleb128 0x17
 11524 000d 11       		.uleb128 0x11
 11525 000e 01       		.uleb128 0x1
 11526 000f 10       		.uleb128 0x10
ARM GAS  C:\Users\strap\AppData\Local\Temp\cc4VwSsz.s 			page 244


 11527 0010 17       		.uleb128 0x17
 11528 0011 00       		.byte	0
 11529 0012 00       		.byte	0
 11530 0013 02       		.uleb128 0x2
 11531 0014 24       		.uleb128 0x24
 11532 0015 00       		.byte	0
 11533 0016 0B       		.uleb128 0xb
 11534 0017 0B       		.uleb128 0xb
 11535 0018 3E       		.uleb128 0x3e
 11536 0019 0B       		.uleb128 0xb
 11537 001a 03       		.uleb128 0x3
 11538 001b 0E       		.uleb128 0xe
 11539 001c 00       		.byte	0
 11540 001d 00       		.byte	0
 11541 001e 03       		.uleb128 0x3
 11542 001f 16       		.uleb128 0x16
 11543 0020 00       		.byte	0
 11544 0021 03       		.uleb128 0x3
 11545 0022 0E       		.uleb128 0xe
 11546 0023 3A       		.uleb128 0x3a
 11547 0024 0B       		.uleb128 0xb
 11548 0025 3B       		.uleb128 0x3b
 11549 0026 0B       		.uleb128 0xb
 11550 0027 49       		.uleb128 0x49
 11551 0028 13       		.uleb128 0x13
 11552 0029 00       		.byte	0
 11553 002a 00       		.byte	0
 11554 002b 04       		.uleb128 0x4
 11555 002c 24       		.uleb128 0x24
 11556 002d 00       		.byte	0
 11557 002e 0B       		.uleb128 0xb
 11558 002f 0B       		.uleb128 0xb
 11559 0030 3E       		.uleb128 0x3e
 11560 0031 0B       		.uleb128 0xb
 11561 0032 03       		.uleb128 0x3
 11562 0033 08       		.uleb128 0x8
 11563 0034 00       		.byte	0
 11564 0035 00       		.byte	0
 11565 0036 05       		.uleb128 0x5
 11566 0037 0F       		.uleb128 0xf
 11567 0038 00       		.byte	0
 11568 0039 0B       		.uleb128 0xb
 11569 003a 0B       		.uleb128 0xb
 11570 003b 00       		.byte	0
 11571 003c 00       		.byte	0
 11572 003d 06       		.uleb128 0x6
 11573 003e 16       		.uleb128 0x16
 11574 003f 00       		.byte	0
 11575 0040 03       		.uleb128 0x3
 11576 0041 0E       		.uleb128 0xe
 11577 0042 3A       		.uleb128 0x3a
 11578 0043 0B       		.uleb128 0xb
 11579 0044 3B       		.uleb128 0x3b
 11580 0045 05       		.uleb128 0x5
 11581 0046 49       		.uleb128 0x49
 11582 0047 13       		.uleb128 0x13
 11583 0048 00       		.byte	0
ARM GAS  C:\Users\strap\AppData\Local\Temp\cc4VwSsz.s 			page 245


 11584 0049 00       		.byte	0
 11585 004a 07       		.uleb128 0x7
 11586 004b 04       		.uleb128 0x4
 11587 004c 01       		.byte	0x1
 11588 004d 0B       		.uleb128 0xb
 11589 004e 0B       		.uleb128 0xb
 11590 004f 49       		.uleb128 0x49
 11591 0050 13       		.uleb128 0x13
 11592 0051 3A       		.uleb128 0x3a
 11593 0052 0B       		.uleb128 0xb
 11594 0053 3B       		.uleb128 0x3b
 11595 0054 0B       		.uleb128 0xb
 11596 0055 01       		.uleb128 0x1
 11597 0056 13       		.uleb128 0x13
 11598 0057 00       		.byte	0
 11599 0058 00       		.byte	0
 11600 0059 08       		.uleb128 0x8
 11601 005a 28       		.uleb128 0x28
 11602 005b 00       		.byte	0
 11603 005c 03       		.uleb128 0x3
 11604 005d 0E       		.uleb128 0xe
 11605 005e 1C       		.uleb128 0x1c
 11606 005f 0B       		.uleb128 0xb
 11607 0060 00       		.byte	0
 11608 0061 00       		.byte	0
 11609 0062 09       		.uleb128 0x9
 11610 0063 13       		.uleb128 0x13
 11611 0064 01       		.byte	0x1
 11612 0065 0B       		.uleb128 0xb
 11613 0066 0B       		.uleb128 0xb
 11614 0067 3A       		.uleb128 0x3a
 11615 0068 0B       		.uleb128 0xb
 11616 0069 3B       		.uleb128 0x3b
 11617 006a 0B       		.uleb128 0xb
 11618 006b 01       		.uleb128 0x1
 11619 006c 13       		.uleb128 0x13
 11620 006d 00       		.byte	0
 11621 006e 00       		.byte	0
 11622 006f 0A       		.uleb128 0xa
 11623 0070 0D       		.uleb128 0xd
 11624 0071 00       		.byte	0
 11625 0072 03       		.uleb128 0x3
 11626 0073 08       		.uleb128 0x8
 11627 0074 3A       		.uleb128 0x3a
 11628 0075 0B       		.uleb128 0xb
 11629 0076 3B       		.uleb128 0x3b
 11630 0077 0B       		.uleb128 0xb
 11631 0078 49       		.uleb128 0x49
 11632 0079 13       		.uleb128 0x13
 11633 007a 38       		.uleb128 0x38
 11634 007b 0B       		.uleb128 0xb
 11635 007c 00       		.byte	0
 11636 007d 00       		.byte	0
 11637 007e 0B       		.uleb128 0xb
 11638 007f 0D       		.uleb128 0xd
 11639 0080 00       		.byte	0
 11640 0081 03       		.uleb128 0x3
ARM GAS  C:\Users\strap\AppData\Local\Temp\cc4VwSsz.s 			page 246


 11641 0082 0E       		.uleb128 0xe
 11642 0083 3A       		.uleb128 0x3a
 11643 0084 0B       		.uleb128 0xb
 11644 0085 3B       		.uleb128 0x3b
 11645 0086 0B       		.uleb128 0xb
 11646 0087 49       		.uleb128 0x49
 11647 0088 13       		.uleb128 0x13
 11648 0089 0B       		.uleb128 0xb
 11649 008a 0B       		.uleb128 0xb
 11650 008b 0D       		.uleb128 0xd
 11651 008c 0B       		.uleb128 0xb
 11652 008d 0C       		.uleb128 0xc
 11653 008e 0B       		.uleb128 0xb
 11654 008f 38       		.uleb128 0x38
 11655 0090 0B       		.uleb128 0xb
 11656 0091 00       		.byte	0
 11657 0092 00       		.byte	0
 11658 0093 0C       		.uleb128 0xc
 11659 0094 0D       		.uleb128 0xd
 11660 0095 00       		.byte	0
 11661 0096 03       		.uleb128 0x3
 11662 0097 08       		.uleb128 0x8
 11663 0098 3A       		.uleb128 0x3a
 11664 0099 0B       		.uleb128 0xb
 11665 009a 3B       		.uleb128 0x3b
 11666 009b 0B       		.uleb128 0xb
 11667 009c 49       		.uleb128 0x49
 11668 009d 13       		.uleb128 0x13
 11669 009e 0B       		.uleb128 0xb
 11670 009f 0B       		.uleb128 0xb
 11671 00a0 0D       		.uleb128 0xd
 11672 00a1 0B       		.uleb128 0xb
 11673 00a2 0C       		.uleb128 0xc
 11674 00a3 0B       		.uleb128 0xb
 11675 00a4 38       		.uleb128 0x38
 11676 00a5 0B       		.uleb128 0xb
 11677 00a6 00       		.byte	0
 11678 00a7 00       		.byte	0
 11679 00a8 0D       		.uleb128 0xd
 11680 00a9 17       		.uleb128 0x17
 11681 00aa 01       		.byte	0x1
 11682 00ab 0B       		.uleb128 0xb
 11683 00ac 0B       		.uleb128 0xb
 11684 00ad 3A       		.uleb128 0x3a
 11685 00ae 0B       		.uleb128 0xb
 11686 00af 3B       		.uleb128 0x3b
 11687 00b0 0B       		.uleb128 0xb
 11688 00b1 01       		.uleb128 0x1
 11689 00b2 13       		.uleb128 0x13
 11690 00b3 00       		.byte	0
 11691 00b4 00       		.byte	0
 11692 00b5 0E       		.uleb128 0xe
 11693 00b6 0D       		.uleb128 0xd
 11694 00b7 00       		.byte	0
 11695 00b8 03       		.uleb128 0x3
 11696 00b9 08       		.uleb128 0x8
 11697 00ba 3A       		.uleb128 0x3a
ARM GAS  C:\Users\strap\AppData\Local\Temp\cc4VwSsz.s 			page 247


 11698 00bb 0B       		.uleb128 0xb
 11699 00bc 3B       		.uleb128 0x3b
 11700 00bd 0B       		.uleb128 0xb
 11701 00be 49       		.uleb128 0x49
 11702 00bf 13       		.uleb128 0x13
 11703 00c0 00       		.byte	0
 11704 00c1 00       		.byte	0
 11705 00c2 0F       		.uleb128 0xf
 11706 00c3 0D       		.uleb128 0xd
 11707 00c4 00       		.byte	0
 11708 00c5 03       		.uleb128 0x3
 11709 00c6 0E       		.uleb128 0xe
 11710 00c7 3A       		.uleb128 0x3a
 11711 00c8 0B       		.uleb128 0xb
 11712 00c9 3B       		.uleb128 0x3b
 11713 00ca 0B       		.uleb128 0xb
 11714 00cb 49       		.uleb128 0x49
 11715 00cc 13       		.uleb128 0x13
 11716 00cd 00       		.byte	0
 11717 00ce 00       		.byte	0
 11718 00cf 10       		.uleb128 0x10
 11719 00d0 0F       		.uleb128 0xf
 11720 00d1 00       		.byte	0
 11721 00d2 0B       		.uleb128 0xb
 11722 00d3 0B       		.uleb128 0xb
 11723 00d4 49       		.uleb128 0x49
 11724 00d5 13       		.uleb128 0x13
 11725 00d6 00       		.byte	0
 11726 00d7 00       		.byte	0
 11727 00d8 11       		.uleb128 0x11
 11728 00d9 0D       		.uleb128 0xd
 11729 00da 00       		.byte	0
 11730 00db 03       		.uleb128 0x3
 11731 00dc 0E       		.uleb128 0xe
 11732 00dd 3A       		.uleb128 0x3a
 11733 00de 0B       		.uleb128 0xb
 11734 00df 3B       		.uleb128 0x3b
 11735 00e0 0B       		.uleb128 0xb
 11736 00e1 49       		.uleb128 0x49
 11737 00e2 13       		.uleb128 0x13
 11738 00e3 38       		.uleb128 0x38
 11739 00e4 0B       		.uleb128 0xb
 11740 00e5 00       		.byte	0
 11741 00e6 00       		.byte	0
 11742 00e7 12       		.uleb128 0x12
 11743 00e8 15       		.uleb128 0x15
 11744 00e9 01       		.byte	0x1
 11745 00ea 27       		.uleb128 0x27
 11746 00eb 19       		.uleb128 0x19
 11747 00ec 01       		.uleb128 0x1
 11748 00ed 13       		.uleb128 0x13
 11749 00ee 00       		.byte	0
 11750 00ef 00       		.byte	0
 11751 00f0 13       		.uleb128 0x13
 11752 00f1 05       		.uleb128 0x5
 11753 00f2 00       		.byte	0
 11754 00f3 49       		.uleb128 0x49
ARM GAS  C:\Users\strap\AppData\Local\Temp\cc4VwSsz.s 			page 248


 11755 00f4 13       		.uleb128 0x13
 11756 00f5 00       		.byte	0
 11757 00f6 00       		.byte	0
 11758 00f7 14       		.uleb128 0x14
 11759 00f8 13       		.uleb128 0x13
 11760 00f9 01       		.byte	0x1
 11761 00fa 03       		.uleb128 0x3
 11762 00fb 0E       		.uleb128 0xe
 11763 00fc 0B       		.uleb128 0xb
 11764 00fd 0B       		.uleb128 0xb
 11765 00fe 3A       		.uleb128 0x3a
 11766 00ff 0B       		.uleb128 0xb
 11767 0100 3B       		.uleb128 0x3b
 11768 0101 0B       		.uleb128 0xb
 11769 0102 01       		.uleb128 0x1
 11770 0103 13       		.uleb128 0x13
 11771 0104 00       		.byte	0
 11772 0105 00       		.byte	0
 11773 0106 15       		.uleb128 0x15
 11774 0107 35       		.uleb128 0x35
 11775 0108 00       		.byte	0
 11776 0109 49       		.uleb128 0x49
 11777 010a 13       		.uleb128 0x13
 11778 010b 00       		.byte	0
 11779 010c 00       		.byte	0
 11780 010d 16       		.uleb128 0x16
 11781 010e 26       		.uleb128 0x26
 11782 010f 00       		.byte	0
 11783 0110 49       		.uleb128 0x49
 11784 0111 13       		.uleb128 0x13
 11785 0112 00       		.byte	0
 11786 0113 00       		.byte	0
 11787 0114 17       		.uleb128 0x17
 11788 0115 13       		.uleb128 0x13
 11789 0116 01       		.byte	0x1
 11790 0117 03       		.uleb128 0x3
 11791 0118 0E       		.uleb128 0xe
 11792 0119 0B       		.uleb128 0xb
 11793 011a 05       		.uleb128 0x5
 11794 011b 3A       		.uleb128 0x3a
 11795 011c 0B       		.uleb128 0xb
 11796 011d 3B       		.uleb128 0x3b
 11797 011e 0B       		.uleb128 0xb
 11798 011f 01       		.uleb128 0x1
 11799 0120 13       		.uleb128 0x13
 11800 0121 00       		.byte	0
 11801 0122 00       		.byte	0
 11802 0123 18       		.uleb128 0x18
 11803 0124 0D       		.uleb128 0xd
 11804 0125 00       		.byte	0
 11805 0126 03       		.uleb128 0x3
 11806 0127 0E       		.uleb128 0xe
 11807 0128 3A       		.uleb128 0x3a
 11808 0129 0B       		.uleb128 0xb
 11809 012a 3B       		.uleb128 0x3b
 11810 012b 0B       		.uleb128 0xb
 11811 012c 49       		.uleb128 0x49
ARM GAS  C:\Users\strap\AppData\Local\Temp\cc4VwSsz.s 			page 249


 11812 012d 13       		.uleb128 0x13
 11813 012e 38       		.uleb128 0x38
 11814 012f 05       		.uleb128 0x5
 11815 0130 00       		.byte	0
 11816 0131 00       		.byte	0
 11817 0132 19       		.uleb128 0x19
 11818 0133 0D       		.uleb128 0xd
 11819 0134 00       		.byte	0
 11820 0135 03       		.uleb128 0x3
 11821 0136 0E       		.uleb128 0xe
 11822 0137 3A       		.uleb128 0x3a
 11823 0138 0B       		.uleb128 0xb
 11824 0139 3B       		.uleb128 0x3b
 11825 013a 0B       		.uleb128 0xb
 11826 013b 49       		.uleb128 0x49
 11827 013c 13       		.uleb128 0x13
 11828 013d 0B       		.uleb128 0xb
 11829 013e 0B       		.uleb128 0xb
 11830 013f 0D       		.uleb128 0xd
 11831 0140 0B       		.uleb128 0xb
 11832 0141 0C       		.uleb128 0xc
 11833 0142 0B       		.uleb128 0xb
 11834 0143 38       		.uleb128 0x38
 11835 0144 05       		.uleb128 0x5
 11836 0145 00       		.byte	0
 11837 0146 00       		.byte	0
 11838 0147 1A       		.uleb128 0x1a
 11839 0148 26       		.uleb128 0x26
 11840 0149 00       		.byte	0
 11841 014a 00       		.byte	0
 11842 014b 00       		.byte	0
 11843 014c 1B       		.uleb128 0x1b
 11844 014d 01       		.uleb128 0x1
 11845 014e 01       		.byte	0x1
 11846 014f 49       		.uleb128 0x49
 11847 0150 13       		.uleb128 0x13
 11848 0151 01       		.uleb128 0x1
 11849 0152 13       		.uleb128 0x13
 11850 0153 00       		.byte	0
 11851 0154 00       		.byte	0
 11852 0155 1C       		.uleb128 0x1c
 11853 0156 21       		.uleb128 0x21
 11854 0157 00       		.byte	0
 11855 0158 49       		.uleb128 0x49
 11856 0159 13       		.uleb128 0x13
 11857 015a 2F       		.uleb128 0x2f
 11858 015b 0B       		.uleb128 0xb
 11859 015c 00       		.byte	0
 11860 015d 00       		.byte	0
 11861 015e 1D       		.uleb128 0x1d
 11862 015f 15       		.uleb128 0x15
 11863 0160 01       		.byte	0x1
 11864 0161 27       		.uleb128 0x27
 11865 0162 19       		.uleb128 0x19
 11866 0163 49       		.uleb128 0x49
 11867 0164 13       		.uleb128 0x13
 11868 0165 01       		.uleb128 0x1
ARM GAS  C:\Users\strap\AppData\Local\Temp\cc4VwSsz.s 			page 250


 11869 0166 13       		.uleb128 0x13
 11870 0167 00       		.byte	0
 11871 0168 00       		.byte	0
 11872 0169 1E       		.uleb128 0x1e
 11873 016a 2E       		.uleb128 0x2e
 11874 016b 01       		.byte	0x1
 11875 016c 03       		.uleb128 0x3
 11876 016d 0E       		.uleb128 0xe
 11877 016e 3A       		.uleb128 0x3a
 11878 016f 0B       		.uleb128 0xb
 11879 0170 3B       		.uleb128 0x3b
 11880 0171 05       		.uleb128 0x5
 11881 0172 27       		.uleb128 0x27
 11882 0173 19       		.uleb128 0x19
 11883 0174 11       		.uleb128 0x11
 11884 0175 01       		.uleb128 0x1
 11885 0176 12       		.uleb128 0x12
 11886 0177 06       		.uleb128 0x6
 11887 0178 40       		.uleb128 0x40
 11888 0179 18       		.uleb128 0x18
 11889 017a 9742     		.uleb128 0x2117
 11890 017c 19       		.uleb128 0x19
 11891 017d 01       		.uleb128 0x1
 11892 017e 13       		.uleb128 0x13
 11893 017f 00       		.byte	0
 11894 0180 00       		.byte	0
 11895 0181 1F       		.uleb128 0x1f
 11896 0182 05       		.uleb128 0x5
 11897 0183 00       		.byte	0
 11898 0184 03       		.uleb128 0x3
 11899 0185 0E       		.uleb128 0xe
 11900 0186 3A       		.uleb128 0x3a
 11901 0187 0B       		.uleb128 0xb
 11902 0188 3B       		.uleb128 0x3b
 11903 0189 05       		.uleb128 0x5
 11904 018a 49       		.uleb128 0x49
 11905 018b 13       		.uleb128 0x13
 11906 018c 02       		.uleb128 0x2
 11907 018d 18       		.uleb128 0x18
 11908 018e 00       		.byte	0
 11909 018f 00       		.byte	0
 11910 0190 20       		.uleb128 0x20
 11911 0191 2E       		.uleb128 0x2e
 11912 0192 01       		.byte	0x1
 11913 0193 03       		.uleb128 0x3
 11914 0194 0E       		.uleb128 0xe
 11915 0195 3A       		.uleb128 0x3a
 11916 0196 0B       		.uleb128 0xb
 11917 0197 3B       		.uleb128 0x3b
 11918 0198 05       		.uleb128 0x5
 11919 0199 27       		.uleb128 0x27
 11920 019a 19       		.uleb128 0x19
 11921 019b 49       		.uleb128 0x49
 11922 019c 13       		.uleb128 0x13
 11923 019d 11       		.uleb128 0x11
 11924 019e 01       		.uleb128 0x1
 11925 019f 12       		.uleb128 0x12
ARM GAS  C:\Users\strap\AppData\Local\Temp\cc4VwSsz.s 			page 251


 11926 01a0 06       		.uleb128 0x6
 11927 01a1 40       		.uleb128 0x40
 11928 01a2 18       		.uleb128 0x18
 11929 01a3 9742     		.uleb128 0x2117
 11930 01a5 19       		.uleb128 0x19
 11931 01a6 01       		.uleb128 0x1
 11932 01a7 13       		.uleb128 0x13
 11933 01a8 00       		.byte	0
 11934 01a9 00       		.byte	0
 11935 01aa 21       		.uleb128 0x21
 11936 01ab 05       		.uleb128 0x5
 11937 01ac 00       		.byte	0
 11938 01ad 03       		.uleb128 0x3
 11939 01ae 0E       		.uleb128 0xe
 11940 01af 3A       		.uleb128 0x3a
 11941 01b0 0B       		.uleb128 0xb
 11942 01b1 3B       		.uleb128 0x3b
 11943 01b2 05       		.uleb128 0x5
 11944 01b3 49       		.uleb128 0x49
 11945 01b4 13       		.uleb128 0x13
 11946 01b5 02       		.uleb128 0x2
 11947 01b6 17       		.uleb128 0x17
 11948 01b7 00       		.byte	0
 11949 01b8 00       		.byte	0
 11950 01b9 22       		.uleb128 0x22
 11951 01ba 05       		.uleb128 0x5
 11952 01bb 00       		.byte	0
 11953 01bc 03       		.uleb128 0x3
 11954 01bd 08       		.uleb128 0x8
 11955 01be 3A       		.uleb128 0x3a
 11956 01bf 0B       		.uleb128 0xb
 11957 01c0 3B       		.uleb128 0x3b
 11958 01c1 05       		.uleb128 0x5
 11959 01c2 49       		.uleb128 0x49
 11960 01c3 13       		.uleb128 0x13
 11961 01c4 02       		.uleb128 0x2
 11962 01c5 17       		.uleb128 0x17
 11963 01c6 00       		.byte	0
 11964 01c7 00       		.byte	0
 11965 01c8 23       		.uleb128 0x23
 11966 01c9 34       		.uleb128 0x34
 11967 01ca 00       		.byte	0
 11968 01cb 03       		.uleb128 0x3
 11969 01cc 0E       		.uleb128 0xe
 11970 01cd 3A       		.uleb128 0x3a
 11971 01ce 0B       		.uleb128 0xb
 11972 01cf 3B       		.uleb128 0x3b
 11973 01d0 05       		.uleb128 0x5
 11974 01d1 49       		.uleb128 0x49
 11975 01d2 13       		.uleb128 0x13
 11976 01d3 02       		.uleb128 0x2
 11977 01d4 17       		.uleb128 0x17
 11978 01d5 00       		.byte	0
 11979 01d6 00       		.byte	0
 11980 01d7 24       		.uleb128 0x24
 11981 01d8 898201   		.uleb128 0x4109
 11982 01db 01       		.byte	0x1
ARM GAS  C:\Users\strap\AppData\Local\Temp\cc4VwSsz.s 			page 252


 11983 01dc 11       		.uleb128 0x11
 11984 01dd 01       		.uleb128 0x1
 11985 01de 31       		.uleb128 0x31
 11986 01df 13       		.uleb128 0x13
 11987 01e0 01       		.uleb128 0x1
 11988 01e1 13       		.uleb128 0x13
 11989 01e2 00       		.byte	0
 11990 01e3 00       		.byte	0
 11991 01e4 25       		.uleb128 0x25
 11992 01e5 8A8201   		.uleb128 0x410a
 11993 01e8 00       		.byte	0
 11994 01e9 02       		.uleb128 0x2
 11995 01ea 18       		.uleb128 0x18
 11996 01eb 9142     		.uleb128 0x2111
 11997 01ed 18       		.uleb128 0x18
 11998 01ee 00       		.byte	0
 11999 01ef 00       		.byte	0
 12000 01f0 26       		.uleb128 0x26
 12001 01f1 898201   		.uleb128 0x4109
 12002 01f4 01       		.byte	0x1
 12003 01f5 11       		.uleb128 0x11
 12004 01f6 01       		.uleb128 0x1
 12005 01f7 31       		.uleb128 0x31
 12006 01f8 13       		.uleb128 0x13
 12007 01f9 00       		.byte	0
 12008 01fa 00       		.byte	0
 12009 01fb 27       		.uleb128 0x27
 12010 01fc 0B       		.uleb128 0xb
 12011 01fd 01       		.byte	0x1
 12012 01fe 11       		.uleb128 0x11
 12013 01ff 01       		.uleb128 0x1
 12014 0200 12       		.uleb128 0x12
 12015 0201 06       		.uleb128 0x6
 12016 0202 01       		.uleb128 0x1
 12017 0203 13       		.uleb128 0x13
 12018 0204 00       		.byte	0
 12019 0205 00       		.byte	0
 12020 0206 28       		.uleb128 0x28
 12021 0207 34       		.uleb128 0x34
 12022 0208 00       		.byte	0
 12023 0209 03       		.uleb128 0x3
 12024 020a 0E       		.uleb128 0xe
 12025 020b 3A       		.uleb128 0x3a
 12026 020c 0B       		.uleb128 0xb
 12027 020d 3B       		.uleb128 0x3b
 12028 020e 05       		.uleb128 0x5
 12029 020f 49       		.uleb128 0x49
 12030 0210 13       		.uleb128 0x13
 12031 0211 02       		.uleb128 0x2
 12032 0212 18       		.uleb128 0x18
 12033 0213 00       		.byte	0
 12034 0214 00       		.byte	0
 12035 0215 29       		.uleb128 0x29
 12036 0216 898201   		.uleb128 0x4109
 12037 0219 01       		.byte	0x1
 12038 021a 11       		.uleb128 0x11
 12039 021b 01       		.uleb128 0x1
ARM GAS  C:\Users\strap\AppData\Local\Temp\cc4VwSsz.s 			page 253


 12040 021c 01       		.uleb128 0x1
 12041 021d 13       		.uleb128 0x13
 12042 021e 00       		.byte	0
 12043 021f 00       		.byte	0
 12044 0220 2A       		.uleb128 0x2a
 12045 0221 898201   		.uleb128 0x4109
 12046 0224 00       		.byte	0
 12047 0225 11       		.uleb128 0x11
 12048 0226 01       		.uleb128 0x1
 12049 0227 31       		.uleb128 0x31
 12050 0228 13       		.uleb128 0x13
 12051 0229 00       		.byte	0
 12052 022a 00       		.byte	0
 12053 022b 2B       		.uleb128 0x2b
 12054 022c 898201   		.uleb128 0x4109
 12055 022f 01       		.byte	0x1
 12056 0230 11       		.uleb128 0x11
 12057 0231 01       		.uleb128 0x1
 12058 0232 9342     		.uleb128 0x2113
 12059 0234 18       		.uleb128 0x18
 12060 0235 01       		.uleb128 0x1
 12061 0236 13       		.uleb128 0x13
 12062 0237 00       		.byte	0
 12063 0238 00       		.byte	0
 12064 0239 2C       		.uleb128 0x2c
 12065 023a 34       		.uleb128 0x34
 12066 023b 00       		.byte	0
 12067 023c 03       		.uleb128 0x3
 12068 023d 08       		.uleb128 0x8
 12069 023e 3A       		.uleb128 0x3a
 12070 023f 0B       		.uleb128 0xb
 12071 0240 3B       		.uleb128 0x3b
 12072 0241 05       		.uleb128 0x5
 12073 0242 49       		.uleb128 0x49
 12074 0243 13       		.uleb128 0x13
 12075 0244 02       		.uleb128 0x2
 12076 0245 17       		.uleb128 0x17
 12077 0246 00       		.byte	0
 12078 0247 00       		.byte	0
 12079 0248 2D       		.uleb128 0x2d
 12080 0249 2E       		.uleb128 0x2e
 12081 024a 00       		.byte	0
 12082 024b 3F       		.uleb128 0x3f
 12083 024c 19       		.uleb128 0x19
 12084 024d 03       		.uleb128 0x3
 12085 024e 0E       		.uleb128 0xe
 12086 024f 3A       		.uleb128 0x3a
 12087 0250 0B       		.uleb128 0xb
 12088 0251 3B       		.uleb128 0x3b
 12089 0252 0B       		.uleb128 0xb
 12090 0253 27       		.uleb128 0x27
 12091 0254 19       		.uleb128 0x19
 12092 0255 49       		.uleb128 0x49
 12093 0256 13       		.uleb128 0x13
 12094 0257 11       		.uleb128 0x11
 12095 0258 01       		.uleb128 0x1
 12096 0259 12       		.uleb128 0x12
ARM GAS  C:\Users\strap\AppData\Local\Temp\cc4VwSsz.s 			page 254


 12097 025a 06       		.uleb128 0x6
 12098 025b 40       		.uleb128 0x40
 12099 025c 18       		.uleb128 0x18
 12100 025d 9742     		.uleb128 0x2117
 12101 025f 19       		.uleb128 0x19
 12102 0260 00       		.byte	0
 12103 0261 00       		.byte	0
 12104 0262 2E       		.uleb128 0x2e
 12105 0263 2E       		.uleb128 0x2e
 12106 0264 01       		.byte	0x1
 12107 0265 3F       		.uleb128 0x3f
 12108 0266 19       		.uleb128 0x19
 12109 0267 03       		.uleb128 0x3
 12110 0268 0E       		.uleb128 0xe
 12111 0269 3A       		.uleb128 0x3a
 12112 026a 0B       		.uleb128 0xb
 12113 026b 3B       		.uleb128 0x3b
 12114 026c 0B       		.uleb128 0xb
 12115 026d 27       		.uleb128 0x27
 12116 026e 19       		.uleb128 0x19
 12117 026f 49       		.uleb128 0x49
 12118 0270 13       		.uleb128 0x13
 12119 0271 11       		.uleb128 0x11
 12120 0272 01       		.uleb128 0x1
 12121 0273 12       		.uleb128 0x12
 12122 0274 06       		.uleb128 0x6
 12123 0275 40       		.uleb128 0x40
 12124 0276 18       		.uleb128 0x18
 12125 0277 9742     		.uleb128 0x2117
 12126 0279 19       		.uleb128 0x19
 12127 027a 01       		.uleb128 0x1
 12128 027b 13       		.uleb128 0x13
 12129 027c 00       		.byte	0
 12130 027d 00       		.byte	0
 12131 027e 2F       		.uleb128 0x2f
 12132 027f 05       		.uleb128 0x5
 12133 0280 00       		.byte	0
 12134 0281 03       		.uleb128 0x3
 12135 0282 0E       		.uleb128 0xe
 12136 0283 3A       		.uleb128 0x3a
 12137 0284 0B       		.uleb128 0xb
 12138 0285 3B       		.uleb128 0x3b
 12139 0286 0B       		.uleb128 0xb
 12140 0287 49       		.uleb128 0x49
 12141 0288 13       		.uleb128 0x13
 12142 0289 02       		.uleb128 0x2
 12143 028a 17       		.uleb128 0x17
 12144 028b 00       		.byte	0
 12145 028c 00       		.byte	0
 12146 028d 30       		.uleb128 0x30
 12147 028e 2E       		.uleb128 0x2e
 12148 028f 01       		.byte	0x1
 12149 0290 3F       		.uleb128 0x3f
 12150 0291 19       		.uleb128 0x19
 12151 0292 03       		.uleb128 0x3
 12152 0293 0E       		.uleb128 0xe
 12153 0294 3A       		.uleb128 0x3a
ARM GAS  C:\Users\strap\AppData\Local\Temp\cc4VwSsz.s 			page 255


 12154 0295 0B       		.uleb128 0xb
 12155 0296 3B       		.uleb128 0x3b
 12156 0297 0B       		.uleb128 0xb
 12157 0298 27       		.uleb128 0x27
 12158 0299 19       		.uleb128 0x19
 12159 029a 11       		.uleb128 0x11
 12160 029b 01       		.uleb128 0x1
 12161 029c 12       		.uleb128 0x12
 12162 029d 06       		.uleb128 0x6
 12163 029e 40       		.uleb128 0x40
 12164 029f 18       		.uleb128 0x18
 12165 02a0 9742     		.uleb128 0x2117
 12166 02a2 19       		.uleb128 0x19
 12167 02a3 01       		.uleb128 0x1
 12168 02a4 13       		.uleb128 0x13
 12169 02a5 00       		.byte	0
 12170 02a6 00       		.byte	0
 12171 02a7 31       		.uleb128 0x31
 12172 02a8 05       		.uleb128 0x5
 12173 02a9 00       		.byte	0
 12174 02aa 03       		.uleb128 0x3
 12175 02ab 08       		.uleb128 0x8
 12176 02ac 3A       		.uleb128 0x3a
 12177 02ad 0B       		.uleb128 0xb
 12178 02ae 3B       		.uleb128 0x3b
 12179 02af 0B       		.uleb128 0xb
 12180 02b0 49       		.uleb128 0x49
 12181 02b1 13       		.uleb128 0x13
 12182 02b2 02       		.uleb128 0x2
 12183 02b3 17       		.uleb128 0x17
 12184 02b4 00       		.byte	0
 12185 02b5 00       		.byte	0
 12186 02b6 32       		.uleb128 0x32
 12187 02b7 0B       		.uleb128 0xb
 12188 02b8 01       		.byte	0x1
 12189 02b9 11       		.uleb128 0x11
 12190 02ba 01       		.uleb128 0x1
 12191 02bb 12       		.uleb128 0x12
 12192 02bc 06       		.uleb128 0x6
 12193 02bd 00       		.byte	0
 12194 02be 00       		.byte	0
 12195 02bf 33       		.uleb128 0x33
 12196 02c0 34       		.uleb128 0x34
 12197 02c1 00       		.byte	0
 12198 02c2 03       		.uleb128 0x3
 12199 02c3 08       		.uleb128 0x8
 12200 02c4 3A       		.uleb128 0x3a
 12201 02c5 0B       		.uleb128 0xb
 12202 02c6 3B       		.uleb128 0x3b
 12203 02c7 0B       		.uleb128 0xb
 12204 02c8 49       		.uleb128 0x49
 12205 02c9 13       		.uleb128 0x13
 12206 02ca 02       		.uleb128 0x2
 12207 02cb 17       		.uleb128 0x17
 12208 02cc 00       		.byte	0
 12209 02cd 00       		.byte	0
 12210 02ce 34       		.uleb128 0x34
ARM GAS  C:\Users\strap\AppData\Local\Temp\cc4VwSsz.s 			page 256


 12211 02cf 05       		.uleb128 0x5
 12212 02d0 00       		.byte	0
 12213 02d1 03       		.uleb128 0x3
 12214 02d2 0E       		.uleb128 0xe
 12215 02d3 3A       		.uleb128 0x3a
 12216 02d4 0B       		.uleb128 0xb
 12217 02d5 3B       		.uleb128 0x3b
 12218 02d6 0B       		.uleb128 0xb
 12219 02d7 49       		.uleb128 0x49
 12220 02d8 13       		.uleb128 0x13
 12221 02d9 02       		.uleb128 0x2
 12222 02da 18       		.uleb128 0x18
 12223 02db 00       		.byte	0
 12224 02dc 00       		.byte	0
 12225 02dd 35       		.uleb128 0x35
 12226 02de 2E       		.uleb128 0x2e
 12227 02df 01       		.byte	0x1
 12228 02e0 3F       		.uleb128 0x3f
 12229 02e1 19       		.uleb128 0x19
 12230 02e2 03       		.uleb128 0x3
 12231 02e3 0E       		.uleb128 0xe
 12232 02e4 3A       		.uleb128 0x3a
 12233 02e5 0B       		.uleb128 0xb
 12234 02e6 3B       		.uleb128 0x3b
 12235 02e7 05       		.uleb128 0x5
 12236 02e8 27       		.uleb128 0x27
 12237 02e9 19       		.uleb128 0x19
 12238 02ea 49       		.uleb128 0x49
 12239 02eb 13       		.uleb128 0x13
 12240 02ec 11       		.uleb128 0x11
 12241 02ed 01       		.uleb128 0x1
 12242 02ee 12       		.uleb128 0x12
 12243 02ef 06       		.uleb128 0x6
 12244 02f0 40       		.uleb128 0x40
 12245 02f1 18       		.uleb128 0x18
 12246 02f2 9742     		.uleb128 0x2117
 12247 02f4 19       		.uleb128 0x19
 12248 02f5 01       		.uleb128 0x1
 12249 02f6 13       		.uleb128 0x13
 12250 02f7 00       		.byte	0
 12251 02f8 00       		.byte	0
 12252 02f9 36       		.uleb128 0x36
 12253 02fa 2E       		.uleb128 0x2e
 12254 02fb 01       		.byte	0x1
 12255 02fc 3F       		.uleb128 0x3f
 12256 02fd 19       		.uleb128 0x19
 12257 02fe 03       		.uleb128 0x3
 12258 02ff 0E       		.uleb128 0xe
 12259 0300 3A       		.uleb128 0x3a
 12260 0301 0B       		.uleb128 0xb
 12261 0302 3B       		.uleb128 0x3b
 12262 0303 05       		.uleb128 0x5
 12263 0304 27       		.uleb128 0x27
 12264 0305 19       		.uleb128 0x19
 12265 0306 11       		.uleb128 0x11
 12266 0307 01       		.uleb128 0x1
 12267 0308 12       		.uleb128 0x12
ARM GAS  C:\Users\strap\AppData\Local\Temp\cc4VwSsz.s 			page 257


 12268 0309 06       		.uleb128 0x6
 12269 030a 40       		.uleb128 0x40
 12270 030b 18       		.uleb128 0x18
 12271 030c 9742     		.uleb128 0x2117
 12272 030e 19       		.uleb128 0x19
 12273 030f 01       		.uleb128 0x1
 12274 0310 13       		.uleb128 0x13
 12275 0311 00       		.byte	0
 12276 0312 00       		.byte	0
 12277 0313 37       		.uleb128 0x37
 12278 0314 2E       		.uleb128 0x2e
 12279 0315 00       		.byte	0
 12280 0316 3F       		.uleb128 0x3f
 12281 0317 19       		.uleb128 0x19
 12282 0318 03       		.uleb128 0x3
 12283 0319 0E       		.uleb128 0xe
 12284 031a 3A       		.uleb128 0x3a
 12285 031b 0B       		.uleb128 0xb
 12286 031c 3B       		.uleb128 0x3b
 12287 031d 05       		.uleb128 0x5
 12288 031e 27       		.uleb128 0x27
 12289 031f 19       		.uleb128 0x19
 12290 0320 49       		.uleb128 0x49
 12291 0321 13       		.uleb128 0x13
 12292 0322 11       		.uleb128 0x11
 12293 0323 01       		.uleb128 0x1
 12294 0324 12       		.uleb128 0x12
 12295 0325 06       		.uleb128 0x6
 12296 0326 40       		.uleb128 0x40
 12297 0327 18       		.uleb128 0x18
 12298 0328 9742     		.uleb128 0x2117
 12299 032a 19       		.uleb128 0x19
 12300 032b 00       		.byte	0
 12301 032c 00       		.byte	0
 12302 032d 38       		.uleb128 0x38
 12303 032e 0B       		.uleb128 0xb
 12304 032f 01       		.byte	0x1
 12305 0330 55       		.uleb128 0x55
 12306 0331 17       		.uleb128 0x17
 12307 0332 01       		.uleb128 0x1
 12308 0333 13       		.uleb128 0x13
 12309 0334 00       		.byte	0
 12310 0335 00       		.byte	0
 12311 0336 39       		.uleb128 0x39
 12312 0337 34       		.uleb128 0x34
 12313 0338 00       		.byte	0
 12314 0339 03       		.uleb128 0x3
 12315 033a 0E       		.uleb128 0xe
 12316 033b 3A       		.uleb128 0x3a
 12317 033c 0B       		.uleb128 0xb
 12318 033d 3B       		.uleb128 0x3b
 12319 033e 0B       		.uleb128 0xb
 12320 033f 49       		.uleb128 0x49
 12321 0340 13       		.uleb128 0x13
 12322 0341 02       		.uleb128 0x2
 12323 0342 18       		.uleb128 0x18
 12324 0343 00       		.byte	0
ARM GAS  C:\Users\strap\AppData\Local\Temp\cc4VwSsz.s 			page 258


 12325 0344 00       		.byte	0
 12326 0345 3A       		.uleb128 0x3a
 12327 0346 34       		.uleb128 0x34
 12328 0347 00       		.byte	0
 12329 0348 03       		.uleb128 0x3
 12330 0349 0E       		.uleb128 0xe
 12331 034a 3A       		.uleb128 0x3a
 12332 034b 0B       		.uleb128 0xb
 12333 034c 3B       		.uleb128 0x3b
 12334 034d 0B       		.uleb128 0xb
 12335 034e 49       		.uleb128 0x49
 12336 034f 13       		.uleb128 0x13
 12337 0350 02       		.uleb128 0x2
 12338 0351 17       		.uleb128 0x17
 12339 0352 00       		.byte	0
 12340 0353 00       		.byte	0
 12341 0354 3B       		.uleb128 0x3b
 12342 0355 2E       		.uleb128 0x2e
 12343 0356 00       		.byte	0
 12344 0357 3F       		.uleb128 0x3f
 12345 0358 19       		.uleb128 0x19
 12346 0359 3C       		.uleb128 0x3c
 12347 035a 19       		.uleb128 0x19
 12348 035b 6E       		.uleb128 0x6e
 12349 035c 0E       		.uleb128 0xe
 12350 035d 03       		.uleb128 0x3
 12351 035e 0E       		.uleb128 0xe
 12352 035f 3A       		.uleb128 0x3a
 12353 0360 0B       		.uleb128 0xb
 12354 0361 3B       		.uleb128 0x3b
 12355 0362 05       		.uleb128 0x5
 12356 0363 00       		.byte	0
 12357 0364 00       		.byte	0
 12358 0365 3C       		.uleb128 0x3c
 12359 0366 2E       		.uleb128 0x2e
 12360 0367 00       		.byte	0
 12361 0368 3F       		.uleb128 0x3f
 12362 0369 19       		.uleb128 0x19
 12363 036a 3C       		.uleb128 0x3c
 12364 036b 19       		.uleb128 0x19
 12365 036c 6E       		.uleb128 0x6e
 12366 036d 0E       		.uleb128 0xe
 12367 036e 03       		.uleb128 0x3
 12368 036f 0E       		.uleb128 0xe
 12369 0370 3A       		.uleb128 0x3a
 12370 0371 0B       		.uleb128 0xb
 12371 0372 3B       		.uleb128 0x3b
 12372 0373 0B       		.uleb128 0xb
 12373 0374 00       		.byte	0
 12374 0375 00       		.byte	0
 12375 0376 00       		.byte	0
 12376              		.section	.debug_loc,"",%progbits
 12377              	.Ldebug_loc0:
 12378              	.LLST0:
 12379 0000 00000000 		.4byte	.LVL1
 12380 0004 0C000000 		.4byte	.LVL2
 12381 0008 0100     		.2byte	0x1
ARM GAS  C:\Users\strap\AppData\Local\Temp\cc4VwSsz.s 			page 259


 12382 000a 50       		.byte	0x50
 12383 000b 0C000000 		.4byte	.LVL2
 12384 000f 20000000 		.4byte	.LFE365
 12385 0013 0400     		.2byte	0x4
 12386 0015 F3       		.byte	0xf3
 12387 0016 01       		.uleb128 0x1
 12388 0017 50       		.byte	0x50
 12389 0018 9F       		.byte	0x9f
 12390 0019 00000000 		.4byte	0
 12391 001d 00000000 		.4byte	0
 12392              	.LLST1:
 12393 0021 00000000 		.4byte	.LVL3
 12394 0025 08000000 		.4byte	.LVL4
 12395 0029 0100     		.2byte	0x1
 12396 002b 50       		.byte	0x50
 12397 002c 08000000 		.4byte	.LVL4
 12398 0030 20000000 		.4byte	.LVL8
 12399 0034 0400     		.2byte	0x4
 12400 0036 F3       		.byte	0xf3
 12401 0037 01       		.uleb128 0x1
 12402 0038 50       		.byte	0x50
 12403 0039 9F       		.byte	0x9f
 12404 003a 20000000 		.4byte	.LVL8
 12405 003e 22000000 		.4byte	.LVL9
 12406 0042 0100     		.2byte	0x1
 12407 0044 50       		.byte	0x50
 12408 0045 22000000 		.4byte	.LVL9
 12409 0049 24000000 		.4byte	.LVL10
 12410 004d 0100     		.2byte	0x1
 12411 004f 54       		.byte	0x54
 12412 0050 24000000 		.4byte	.LVL10
 12413 0054 28000000 		.4byte	.LFE363
 12414 0058 0400     		.2byte	0x4
 12415 005a F3       		.byte	0xf3
 12416 005b 01       		.uleb128 0x1
 12417 005c 50       		.byte	0x50
 12418 005d 9F       		.byte	0x9f
 12419 005e 00000000 		.4byte	0
 12420 0062 00000000 		.4byte	0
 12421              	.LLST2:
 12422 0066 08000000 		.4byte	.LVL4
 12423 006a 20000000 		.4byte	.LVL8
 12424 006e 0100     		.2byte	0x1
 12425 0070 54       		.byte	0x54
 12426 0071 24000000 		.4byte	.LVL10
 12427 0075 28000000 		.4byte	.LFE363
 12428 0079 0100     		.2byte	0x1
 12429 007b 54       		.byte	0x54
 12430 007c 00000000 		.4byte	0
 12431 0080 00000000 		.4byte	0
 12432              	.LLST3:
 12433 0084 00000000 		.4byte	.LVL11
 12434 0088 14000000 		.4byte	.LVL12
 12435 008c 0100     		.2byte	0x1
 12436 008e 50       		.byte	0x50
 12437 008f 14000000 		.4byte	.LVL12
 12438 0093 A0010000 		.4byte	.LVL49
ARM GAS  C:\Users\strap\AppData\Local\Temp\cc4VwSsz.s 			page 260


 12439 0097 0100     		.2byte	0x1
 12440 0099 54       		.byte	0x54
 12441 009a A0010000 		.4byte	.LVL49
 12442 009e AC010000 		.4byte	.LFE362
 12443 00a2 0100     		.2byte	0x1
 12444 00a4 50       		.byte	0x50
 12445 00a5 00000000 		.4byte	0
 12446 00a9 00000000 		.4byte	0
 12447              	.LLST4:
 12448 00ad 18000000 		.4byte	.LVL13
 12449 00b1 23000000 		.4byte	.LVL14-1
 12450 00b5 0100     		.2byte	0x1
 12451 00b7 50       		.byte	0x50
 12452 00b8 23000000 		.4byte	.LVL14-1
 12453 00bc A0010000 		.4byte	.LVL49
 12454 00c0 0100     		.2byte	0x1
 12455 00c2 55       		.byte	0x55
 12456 00c3 00000000 		.4byte	0
 12457 00c7 00000000 		.4byte	0
 12458              	.LLST5:
 12459 00cb 5E000000 		.4byte	.LVL19
 12460 00cf 9C010000 		.4byte	.LVL48
 12461 00d3 0100     		.2byte	0x1
 12462 00d5 56       		.byte	0x56
 12463 00d6 00000000 		.4byte	0
 12464 00da 00000000 		.4byte	0
 12465              	.LLST6:
 12466 00de B4000000 		.4byte	.LVL22
 12467 00e2 70010000 		.4byte	.LVL44
 12468 00e6 0100     		.2byte	0x1
 12469 00e8 57       		.byte	0x57
 12470 00e9 00000000 		.4byte	0
 12471 00ed 00000000 		.4byte	0
 12472              	.LLST7:
 12473 00f1 C2000000 		.4byte	.LVL24
 12474 00f5 CA000000 		.4byte	.LVL25
 12475 00f9 0100     		.2byte	0x1
 12476 00fb 51       		.byte	0x51
 12477 00fc CA000000 		.4byte	.LVL25
 12478 0100 CF000000 		.4byte	.LVL26-1
 12479 0104 0100     		.2byte	0x1
 12480 0106 52       		.byte	0x52
 12481 0107 D2000000 		.4byte	.LVL27
 12482 010b D8000000 		.4byte	.LVL28
 12483 010f 0100     		.2byte	0x1
 12484 0111 51       		.byte	0x51
 12485 0112 D8000000 		.4byte	.LVL28
 12486 0116 DA000000 		.4byte	.LVL29
 12487 011a 0100     		.2byte	0x1
 12488 011c 50       		.byte	0x50
 12489 011d E0000000 		.4byte	.LVL31
 12490 0121 E9000000 		.4byte	.LVL32-1
 12491 0125 0100     		.2byte	0x1
 12492 0127 51       		.byte	0x51
 12493 0128 EC000000 		.4byte	.LVL33
 12494 012c F8000000 		.4byte	.LVL34
 12495 0130 0100     		.2byte	0x1
ARM GAS  C:\Users\strap\AppData\Local\Temp\cc4VwSsz.s 			page 261


 12496 0132 51       		.byte	0x51
 12497 0133 F8000000 		.4byte	.LVL34
 12498 0137 FA000000 		.4byte	.LVL35
 12499 013b 0100     		.2byte	0x1
 12500 013d 50       		.byte	0x50
 12501 013e 00010000 		.4byte	.LVL37
 12502 0142 05010000 		.4byte	.LVL38-1
 12503 0146 0100     		.2byte	0x1
 12504 0148 51       		.byte	0x51
 12505 0149 00000000 		.4byte	0
 12506 014d 00000000 		.4byte	0
 12507              	.LLST8:
 12508 0151 00000000 		.4byte	.LVL50
 12509 0155 26000000 		.4byte	.LVL51
 12510 0159 0100     		.2byte	0x1
 12511 015b 50       		.byte	0x50
 12512 015c 26000000 		.4byte	.LVL51
 12513 0160 86010000 		.4byte	.LVL79
 12514 0164 0100     		.2byte	0x1
 12515 0166 54       		.byte	0x54
 12516 0167 86010000 		.4byte	.LVL79
 12517 016b 8C010000 		.4byte	.LFE357
 12518 016f 0400     		.2byte	0x4
 12519 0171 F3       		.byte	0xf3
 12520 0172 01       		.uleb128 0x1
 12521 0173 50       		.byte	0x50
 12522 0174 9F       		.byte	0x9f
 12523 0175 00000000 		.4byte	0
 12524 0179 00000000 		.4byte	0
 12525              	.LLST9:
 12526 017d 28010000 		.4byte	.LVL70
 12527 0181 2F010000 		.4byte	.LVL71-1
 12528 0185 0100     		.2byte	0x1
 12529 0187 50       		.byte	0x50
 12530 0188 2F010000 		.4byte	.LVL71-1
 12531 018c 6A010000 		.4byte	.LVL76
 12532 0190 0100     		.2byte	0x1
 12533 0192 55       		.byte	0x55
 12534 0193 00000000 		.4byte	0
 12535 0197 00000000 		.4byte	0
 12536              	.LLST10:
 12537 019b 00000000 		.4byte	.LVL80
 12538 019f 08000000 		.4byte	.LVL81
 12539 01a3 0100     		.2byte	0x1
 12540 01a5 50       		.byte	0x50
 12541 01a6 08000000 		.4byte	.LVL81
 12542 01aa 5A010000 		.4byte	.LVL125
 12543 01ae 0100     		.2byte	0x1
 12544 01b0 54       		.byte	0x54
 12545 01b1 5A010000 		.4byte	.LVL125
 12546 01b5 60010000 		.4byte	.LFE360
 12547 01b9 0400     		.2byte	0x4
 12548 01bb F3       		.byte	0xf3
 12549 01bc 01       		.uleb128 0x1
 12550 01bd 50       		.byte	0x50
 12551 01be 9F       		.byte	0x9f
 12552 01bf 00000000 		.4byte	0
ARM GAS  C:\Users\strap\AppData\Local\Temp\cc4VwSsz.s 			page 262


 12553 01c3 00000000 		.4byte	0
 12554              	.LLST11:
 12555 01c7 0E000000 		.4byte	.LVL83
 12556 01cb 12000000 		.4byte	.LVL84
 12557 01cf 0100     		.2byte	0x1
 12558 01d1 50       		.byte	0x50
 12559 01d2 12000000 		.4byte	.LVL84
 12560 01d6 5A010000 		.4byte	.LVL125
 12561 01da 0100     		.2byte	0x1
 12562 01dc 56       		.byte	0x56
 12563 01dd 00000000 		.4byte	0
 12564 01e1 00000000 		.4byte	0
 12565              	.LLST12:
 12566 01e5 2C000000 		.4byte	.LVL87
 12567 01e9 2E000000 		.4byte	.LVL88
 12568 01ed 0100     		.2byte	0x1
 12569 01ef 50       		.byte	0x50
 12570 01f0 2E000000 		.4byte	.LVL88
 12571 01f4 58010000 		.4byte	.LVL124
 12572 01f8 0100     		.2byte	0x1
 12573 01fa 55       		.byte	0x55
 12574 01fb 00000000 		.4byte	0
 12575 01ff 00000000 		.4byte	0
 12576              	.LLST13:
 12577 0203 3A000000 		.4byte	.LVL90
 12578 0207 45000000 		.4byte	.LVL91-1
 12579 020b 0100     		.2byte	0x1
 12580 020d 53       		.byte	0x53
 12581 020e 54000000 		.4byte	.LVL93
 12582 0212 5F000000 		.4byte	.LVL94-1
 12583 0216 0100     		.2byte	0x1
 12584 0218 53       		.byte	0x53
 12585 0219 A8000000 		.4byte	.LVL102
 12586 021d B5000000 		.4byte	.LVL103-1
 12587 0221 0100     		.2byte	0x1
 12588 0223 53       		.byte	0x53
 12589 0224 D4000000 		.4byte	.LVL107
 12590 0228 E1000000 		.4byte	.LVL108-1
 12591 022c 0100     		.2byte	0x1
 12592 022e 53       		.byte	0x53
 12593 022f FE000000 		.4byte	.LVL112
 12594 0233 05010000 		.4byte	.LVL113-1
 12595 0237 0100     		.2byte	0x1
 12596 0239 53       		.byte	0x53
 12597 023a 00000000 		.4byte	0
 12598 023e 00000000 		.4byte	0
 12599              	.LLST14:
 12600 0242 00000000 		.4byte	.LVL126
 12601 0246 0A000000 		.4byte	.LVL127
 12602 024a 0100     		.2byte	0x1
 12603 024c 50       		.byte	0x50
 12604 024d 0A000000 		.4byte	.LVL127
 12605 0251 CC020000 		.4byte	.LVL192
 12606 0255 0100     		.2byte	0x1
 12607 0257 54       		.byte	0x54
 12608 0258 CC020000 		.4byte	.LVL192
 12609 025c D0020000 		.4byte	.LFE361
ARM GAS  C:\Users\strap\AppData\Local\Temp\cc4VwSsz.s 			page 263


 12610 0260 0400     		.2byte	0x4
 12611 0262 F3       		.byte	0xf3
 12612 0263 01       		.uleb128 0x1
 12613 0264 50       		.byte	0x50
 12614 0265 9F       		.byte	0x9f
 12615 0266 00000000 		.4byte	0
 12616 026a 00000000 		.4byte	0
 12617              	.LLST15:
 12618 026e 0E000000 		.4byte	.LVL128
 12619 0272 19000000 		.4byte	.LVL129-1
 12620 0276 0100     		.2byte	0x1
 12621 0278 50       		.byte	0x50
 12622 0279 19000000 		.4byte	.LVL129-1
 12623 027d C6020000 		.4byte	.LVL191
 12624 0281 0100     		.2byte	0x1
 12625 0283 55       		.byte	0x55
 12626 0284 00000000 		.4byte	0
 12627 0288 00000000 		.4byte	0
 12628              	.LLST16:
 12629 028c 0E000000 		.4byte	.LVL128
 12630 0290 B8000000 		.4byte	.LVL143
 12631 0294 0200     		.2byte	0x2
 12632 0296 30       		.byte	0x30
 12633 0297 9F       		.byte	0x9f
 12634 0298 B8000000 		.4byte	.LVL143
 12635 029c BC000000 		.4byte	.LVL144
 12636 02a0 0200     		.2byte	0x2
 12637 02a2 31       		.byte	0x31
 12638 02a3 9F       		.byte	0x9f
 12639 02a4 BC000000 		.4byte	.LVL144
 12640 02a8 C6000000 		.4byte	.LVL146
 12641 02ac 0200     		.2byte	0x2
 12642 02ae 30       		.byte	0x30
 12643 02af 9F       		.byte	0x9f
 12644 02b0 C6000000 		.4byte	.LVL146
 12645 02b4 C6020000 		.4byte	.LVL191
 12646 02b8 0100     		.2byte	0x1
 12647 02ba 57       		.byte	0x57
 12648 02bb 00000000 		.4byte	0
 12649 02bf 00000000 		.4byte	0
 12650              	.LLST17:
 12651 02c3 28000000 		.4byte	.LVL131
 12652 02c7 54000000 		.4byte	.LVL133
 12653 02cb 0100     		.2byte	0x1
 12654 02cd 50       		.byte	0x50
 12655 02ce 56000000 		.4byte	.LVL134
 12656 02d2 58000000 		.4byte	.LVL135
 12657 02d6 0100     		.2byte	0x1
 12658 02d8 50       		.byte	0x50
 12659 02d9 5A000000 		.4byte	.LVL136
 12660 02dd 5C000000 		.4byte	.LVL137
 12661 02e1 0100     		.2byte	0x1
 12662 02e3 50       		.byte	0x50
 12663 02e4 BC000000 		.4byte	.LVL144
 12664 02e8 C0000000 		.4byte	.LVL145
 12665 02ec 0100     		.2byte	0x1
 12666 02ee 50       		.byte	0x50
ARM GAS  C:\Users\strap\AppData\Local\Temp\cc4VwSsz.s 			page 264


 12667 02ef 00000000 		.4byte	0
 12668 02f3 00000000 		.4byte	0
 12669              	.LLST18:
 12670 02f7 4A000000 		.4byte	.LVL132
 12671 02fb 5C000000 		.4byte	.LVL137
 12672 02ff 0200     		.2byte	0x2
 12673 0301 30       		.byte	0x30
 12674 0302 9F       		.byte	0x9f
 12675 0303 5C000000 		.4byte	.LVL137
 12676 0307 84000000 		.4byte	.LVL139
 12677 030b 0100     		.2byte	0x1
 12678 030d 50       		.byte	0x50
 12679 030e 86000000 		.4byte	.LVL140
 12680 0312 92000000 		.4byte	.LVL142
 12681 0316 0100     		.2byte	0x1
 12682 0318 50       		.byte	0x50
 12683 0319 00000000 		.4byte	0
 12684 031d 00000000 		.4byte	0
 12685              	.LLST19:
 12686 0321 4A000000 		.4byte	.LVL132
 12687 0325 6A000000 		.4byte	.LVL138
 12688 0329 0200     		.2byte	0x2
 12689 032b 30       		.byte	0x30
 12690 032c 9F       		.byte	0x9f
 12691 032d 6A000000 		.4byte	.LVL138
 12692 0331 BC000000 		.4byte	.LVL144
 12693 0335 0100     		.2byte	0x1
 12694 0337 51       		.byte	0x51
 12695 0338 C0000000 		.4byte	.LVL145
 12696 033c C6000000 		.4byte	.LVL146
 12697 0340 0100     		.2byte	0x1
 12698 0342 51       		.byte	0x51
 12699 0343 00000000 		.4byte	0
 12700 0347 00000000 		.4byte	0
 12701              	.LLST20:
 12702 034b DE000000 		.4byte	.LVL147
 12703 034f C6020000 		.4byte	.LVL191
 12704 0353 0100     		.2byte	0x1
 12705 0355 5A       		.byte	0x5a
 12706 0356 00000000 		.4byte	0
 12707 035a 00000000 		.4byte	0
 12708              	.LLST21:
 12709 035e E2000000 		.4byte	.LVL148
 12710 0362 C6020000 		.4byte	.LVL191
 12711 0366 0100     		.2byte	0x1
 12712 0368 5B       		.byte	0x5b
 12713 0369 00000000 		.4byte	0
 12714 036d 00000000 		.4byte	0
 12715              	.LLST22:
 12716 0371 EE000000 		.4byte	.LVL151
 12717 0375 C6020000 		.4byte	.LVL191
 12718 0379 0200     		.2byte	0x2
 12719 037b 7D       		.byte	0x7d
 12720 037c 00       		.sleb128 0
 12721 037d 00000000 		.4byte	0
 12722 0381 00000000 		.4byte	0
 12723              	.LLST23:
ARM GAS  C:\Users\strap\AppData\Local\Temp\cc4VwSsz.s 			page 265


 12724 0385 FA000000 		.4byte	.LVL154
 12725 0389 C6020000 		.4byte	.LVL191
 12726 038d 0200     		.2byte	0x2
 12727 038f 91       		.byte	0x91
 12728 0390 54       		.sleb128 -44
 12729 0391 00000000 		.4byte	0
 12730 0395 00000000 		.4byte	0
 12731              	.LLST24:
 12732 0399 02010000 		.4byte	.LVL156
 12733 039d 26010000 		.4byte	.LVL159
 12734 03a1 0100     		.2byte	0x1
 12735 03a3 58       		.byte	0x58
 12736 03a4 2A010000 		.4byte	.LVL160
 12737 03a8 56010000 		.4byte	.LVL163
 12738 03ac 0100     		.2byte	0x1
 12739 03ae 58       		.byte	0x58
 12740 03af 5A010000 		.4byte	.LVL164
 12741 03b3 B6010000 		.4byte	.LVL167
 12742 03b7 0100     		.2byte	0x1
 12743 03b9 58       		.byte	0x58
 12744 03ba BA010000 		.4byte	.LVL168
 12745 03be FE010000 		.4byte	.LVL171
 12746 03c2 0100     		.2byte	0x1
 12747 03c4 58       		.byte	0x58
 12748 03c5 02020000 		.4byte	.LVL172
 12749 03c9 6E020000 		.4byte	.LVL180
 12750 03cd 0100     		.2byte	0x1
 12751 03cf 58       		.byte	0x58
 12752 03d0 00000000 		.4byte	0
 12753 03d4 00000000 		.4byte	0
 12754              	.LLST25:
 12755 03d8 0A010000 		.4byte	.LVL158
 12756 03dc 30010000 		.4byte	.LVL161
 12757 03e0 0100     		.2byte	0x1
 12758 03e2 59       		.byte	0x59
 12759 03e3 34010000 		.4byte	.LVL162
 12760 03e7 7A010000 		.4byte	.LVL165
 12761 03eb 0100     		.2byte	0x1
 12762 03ed 59       		.byte	0x59
 12763 03ee 7E010000 		.4byte	.LVL166
 12764 03f2 D0010000 		.4byte	.LVL169
 12765 03f6 0100     		.2byte	0x1
 12766 03f8 59       		.byte	0x59
 12767 03f9 D4010000 		.4byte	.LVL170
 12768 03fd 2C020000 		.4byte	.LVL173
 12769 0401 0100     		.2byte	0x1
 12770 0403 59       		.byte	0x59
 12771 0404 30020000 		.4byte	.LVL174
 12772 0408 C6020000 		.4byte	.LVL191
 12773 040c 0100     		.2byte	0x1
 12774 040e 59       		.byte	0x59
 12775 040f 00000000 		.4byte	0
 12776 0413 00000000 		.4byte	0
 12777              	.LLST26:
 12778 0417 3C020000 		.4byte	.LVL176
 12779 041b C6020000 		.4byte	.LVL191
 12780 041f 0100     		.2byte	0x1
ARM GAS  C:\Users\strap\AppData\Local\Temp\cc4VwSsz.s 			page 266


 12781 0421 56       		.byte	0x56
 12782 0422 00000000 		.4byte	0
 12783 0426 00000000 		.4byte	0
 12784              	.LLST27:
 12785 042a 6E020000 		.4byte	.LVL180
 12786 042e 88020000 		.4byte	.LVL183
 12787 0432 0100     		.2byte	0x1
 12788 0434 58       		.byte	0x58
 12789 0435 00000000 		.4byte	0
 12790 0439 00000000 		.4byte	0
 12791              	.LLST28:
 12792 043d 78020000 		.4byte	.LVL182
 12793 0441 8E020000 		.4byte	.LVL184
 12794 0445 0100     		.2byte	0x1
 12795 0447 50       		.byte	0x50
 12796 0448 00000000 		.4byte	0
 12797 044c 00000000 		.4byte	0
 12798              	.LLST29:
 12799 0450 92020000 		.4byte	.LVL185
 12800 0454 9C020000 		.4byte	.LVL186
 12801 0458 0100     		.2byte	0x1
 12802 045a 50       		.byte	0x50
 12803 045b 00000000 		.4byte	0
 12804 045f 00000000 		.4byte	0
 12805              	.LLST30:
 12806 0463 00000000 		.4byte	.LVL193
 12807 0467 12000000 		.4byte	.LVL195
 12808 046b 0100     		.2byte	0x1
 12809 046d 50       		.byte	0x50
 12810 046e 12000000 		.4byte	.LVL195
 12811 0472 E0000000 		.4byte	.LVL202
 12812 0476 0100     		.2byte	0x1
 12813 0478 55       		.byte	0x55
 12814 0479 E0000000 		.4byte	.LVL202
 12815 047d E8000000 		.4byte	.LFE364
 12816 0481 0400     		.2byte	0x4
 12817 0483 F3       		.byte	0xf3
 12818 0484 01       		.uleb128 0x1
 12819 0485 50       		.byte	0x50
 12820 0486 9F       		.byte	0x9f
 12821 0487 00000000 		.4byte	0
 12822 048b 00000000 		.4byte	0
 12823              	.LLST31:
 12824 048f 10000000 		.4byte	.LVL194
 12825 0493 E0000000 		.4byte	.LVL202
 12826 0497 0100     		.2byte	0x1
 12827 0499 54       		.byte	0x54
 12828 049a 00000000 		.4byte	0
 12829 049e 00000000 		.4byte	0
 12830              	.LLST32:
 12831 04a2 00000000 		.4byte	.LVL203
 12832 04a6 44000000 		.4byte	.LVL205
 12833 04aa 0100     		.2byte	0x1
 12834 04ac 50       		.byte	0x50
 12835 04ad 44000000 		.4byte	.LVL205
 12836 04b1 8C000000 		.4byte	.LVL212
 12837 04b5 0100     		.2byte	0x1
ARM GAS  C:\Users\strap\AppData\Local\Temp\cc4VwSsz.s 			page 267


 12838 04b7 54       		.byte	0x54
 12839 04b8 8C000000 		.4byte	.LVL212
 12840 04bc B2000000 		.4byte	.LVL216
 12841 04c0 0300     		.2byte	0x3
 12842 04c2 74       		.byte	0x74
 12843 04c3 60       		.sleb128 -32
 12844 04c4 9F       		.byte	0x9f
 12845 04c5 B2000000 		.4byte	.LVL216
 12846 04c9 A4010000 		.4byte	.LVL240
 12847 04cd 0100     		.2byte	0x1
 12848 04cf 54       		.byte	0x54
 12849 04d0 A4010000 		.4byte	.LVL240
 12850 04d4 CA010000 		.4byte	.LVL244
 12851 04d8 0300     		.2byte	0x3
 12852 04da 74       		.byte	0x74
 12853 04db 60       		.sleb128 -32
 12854 04dc 9F       		.byte	0x9f
 12855 04dd CA010000 		.4byte	.LVL244
 12856 04e1 FE010000 		.4byte	.LVL248
 12857 04e5 0100     		.2byte	0x1
 12858 04e7 54       		.byte	0x54
 12859 04e8 FE010000 		.4byte	.LVL248
 12860 04ec 20020000 		.4byte	.LVL252
 12861 04f0 0300     		.2byte	0x3
 12862 04f2 74       		.byte	0x74
 12863 04f3 60       		.sleb128 -32
 12864 04f4 9F       		.byte	0x9f
 12865 04f5 20020000 		.4byte	.LVL252
 12866 04f9 EC020000 		.4byte	.LVL275
 12867 04fd 0100     		.2byte	0x1
 12868 04ff 54       		.byte	0x54
 12869 0500 EC020000 		.4byte	.LVL275
 12870 0504 F8020000 		.4byte	.LFE353
 12871 0508 0400     		.2byte	0x4
 12872 050a F3       		.byte	0xf3
 12873 050b 01       		.uleb128 0x1
 12874 050c 50       		.byte	0x50
 12875 050d 9F       		.byte	0x9f
 12876 050e 00000000 		.4byte	0
 12877 0512 00000000 		.4byte	0
 12878              	.LLST33:
 12879 0516 00000000 		.4byte	.LVL203
 12880 051a 47000000 		.4byte	.LVL206-1
 12881 051e 0100     		.2byte	0x1
 12882 0520 51       		.byte	0x51
 12883 0521 47000000 		.4byte	.LVL206-1
 12884 0525 8E020000 		.4byte	.LVL267
 12885 0529 0100     		.2byte	0x1
 12886 052b 55       		.byte	0x55
 12887 052c 8E020000 		.4byte	.LVL267
 12888 0530 F8020000 		.4byte	.LFE353
 12889 0534 0400     		.2byte	0x4
 12890 0536 F3       		.byte	0xf3
 12891 0537 01       		.uleb128 0x1
 12892 0538 51       		.byte	0x51
 12893 0539 9F       		.byte	0x9f
 12894 053a 00000000 		.4byte	0
ARM GAS  C:\Users\strap\AppData\Local\Temp\cc4VwSsz.s 			page 268


 12895 053e 00000000 		.4byte	0
 12896              	.LLST34:
 12897 0542 38000000 		.4byte	.LVL204
 12898 0546 F2020000 		.4byte	.LVL276
 12899 054a 0100     		.2byte	0x1
 12900 054c 56       		.byte	0x56
 12901 054d 00000000 		.4byte	0
 12902 0551 00000000 		.4byte	0
 12903              	.LLST35:
 12904 0555 54000000 		.4byte	.LVL207
 12905 0559 6F000000 		.4byte	.LVL209-1
 12906 055d 0100     		.2byte	0x1
 12907 055f 51       		.byte	0x51
 12908 0560 24010000 		.4byte	.LVL230
 12909 0564 3C010000 		.4byte	.LVL232
 12910 0568 0100     		.2byte	0x1
 12911 056a 51       		.byte	0x51
 12912 056b 74020000 		.4byte	.LVL263
 12913 056f 88020000 		.4byte	.LVL265
 12914 0573 0100     		.2byte	0x1
 12915 0575 51       		.byte	0x51
 12916 0576 88020000 		.4byte	.LVL265
 12917 057a 89020000 		.4byte	.LVL266-1
 12918 057e 0200     		.2byte	0x2
 12919 0580 75       		.byte	0x75
 12920 0581 04       		.sleb128 4
 12921 0582 00000000 		.4byte	0
 12922 0586 00000000 		.4byte	0
 12923              	.LLST36:
 12924 058a 5C000000 		.4byte	.LVL208
 12925 058e 6F000000 		.4byte	.LVL209-1
 12926 0592 0100     		.2byte	0x1
 12927 0594 52       		.byte	0x52
 12928 0595 24010000 		.4byte	.LVL230
 12929 0599 3A010000 		.4byte	.LVL231
 12930 059d 0100     		.2byte	0x1
 12931 059f 52       		.byte	0x52
 12932 05a0 74020000 		.4byte	.LVL263
 12933 05a4 86020000 		.4byte	.LVL264
 12934 05a8 0100     		.2byte	0x1
 12935 05aa 52       		.byte	0x52
 12936 05ab 00000000 		.4byte	0
 12937 05af 00000000 		.4byte	0
 12938              	.LLST37:
 12939 05b3 00000000 		.4byte	.LVL277
 12940 05b7 56000000 		.4byte	.LVL280
 12941 05bb 0100     		.2byte	0x1
 12942 05bd 50       		.byte	0x50
 12943 05be 56000000 		.4byte	.LVL280
 12944 05c2 C4000000 		.4byte	.LVL287
 12945 05c6 0100     		.2byte	0x1
 12946 05c8 55       		.byte	0x55
 12947 05c9 C4000000 		.4byte	.LVL287
 12948 05cd EA000000 		.4byte	.LVL291
 12949 05d1 0300     		.2byte	0x3
 12950 05d3 75       		.byte	0x75
 12951 05d4 60       		.sleb128 -32
ARM GAS  C:\Users\strap\AppData\Local\Temp\cc4VwSsz.s 			page 269


 12952 05d5 9F       		.byte	0x9f
 12953 05d6 EA000000 		.4byte	.LVL291
 12954 05da 1A020000 		.4byte	.LVL311
 12955 05de 0100     		.2byte	0x1
 12956 05e0 55       		.byte	0x55
 12957 05e1 1A020000 		.4byte	.LVL311
 12958 05e5 40020000 		.4byte	.LVL315
 12959 05e9 0300     		.2byte	0x3
 12960 05eb 75       		.byte	0x75
 12961 05ec 60       		.sleb128 -32
 12962 05ed 9F       		.byte	0x9f
 12963 05ee 40020000 		.4byte	.LVL315
 12964 05f2 BC030000 		.4byte	.LVL342
 12965 05f6 0100     		.2byte	0x1
 12966 05f8 55       		.byte	0x55
 12967 05f9 BC030000 		.4byte	.LVL342
 12968 05fd 5C040000 		.4byte	.LFE354
 12969 0601 0400     		.2byte	0x4
 12970 0603 F3       		.byte	0xf3
 12971 0604 01       		.uleb128 0x1
 12972 0605 50       		.byte	0x50
 12973 0606 9F       		.byte	0x9f
 12974 0607 00000000 		.4byte	0
 12975 060b 00000000 		.4byte	0
 12976              	.LLST38:
 12977 060f 00000000 		.4byte	.LVL277
 12978 0613 59000000 		.4byte	.LVL281-1
 12979 0617 0100     		.2byte	0x1
 12980 0619 51       		.byte	0x51
 12981 061a 59000000 		.4byte	.LVL281-1
 12982 061e 50040000 		.4byte	.LVL367
 12983 0622 0100     		.2byte	0x1
 12984 0624 54       		.byte	0x54
 12985 0625 50040000 		.4byte	.LVL367
 12986 0629 5C040000 		.4byte	.LFE354
 12987 062d 0400     		.2byte	0x4
 12988 062f F3       		.byte	0xf3
 12989 0630 01       		.uleb128 0x1
 12990 0631 51       		.byte	0x51
 12991 0632 9F       		.byte	0x9f
 12992 0633 00000000 		.4byte	0
 12993 0637 00000000 		.4byte	0
 12994              	.LLST39:
 12995 063b 3E000000 		.4byte	.LVL278
 12996 063f 84010000 		.4byte	.LVL299
 12997 0643 0100     		.2byte	0x1
 12998 0645 57       		.byte	0x57
 12999 0646 E6010000 		.4byte	.LVL307
 13000 064a AA020000 		.4byte	.LVL320
 13001 064e 0100     		.2byte	0x1
 13002 0650 57       		.byte	0x57
 13003 0651 0C030000 		.4byte	.LVL328
 13004 0655 3E030000 		.4byte	.LVL331
 13005 0659 0100     		.2byte	0x1
 13006 065b 57       		.byte	0x57
 13007 065c 96030000 		.4byte	.LVL340
 13008 0660 AC030000 		.4byte	.LVL341
ARM GAS  C:\Users\strap\AppData\Local\Temp\cc4VwSsz.s 			page 270


 13009 0664 0100     		.2byte	0x1
 13010 0666 57       		.byte	0x57
 13011 0667 00000000 		.4byte	0
 13012 066b 00000000 		.4byte	0
 13013              	.LLST40:
 13014 066f 4A000000 		.4byte	.LVL279
 13015 0673 50040000 		.4byte	.LVL367
 13016 0677 0100     		.2byte	0x1
 13017 0679 56       		.byte	0x56
 13018 067a 00000000 		.4byte	0
 13019 067e 00000000 		.4byte	0
 13020              	.LLST41:
 13021 0682 DC030000 		.4byte	.LVL344
 13022 0686 E8030000 		.4byte	.LVL347
 13023 068a 0100     		.2byte	0x1
 13024 068c 55       		.byte	0x55
 13025 068d EA030000 		.4byte	.LVL348
 13026 0691 F6030000 		.4byte	.LVL349
 13027 0695 0100     		.2byte	0x1
 13028 0697 55       		.byte	0x55
 13029 0698 FC030000 		.4byte	.LVL350
 13030 069c 08040000 		.4byte	.LVL353
 13031 06a0 0100     		.2byte	0x1
 13032 06a2 55       		.byte	0x55
 13033 06a3 0A040000 		.4byte	.LVL354
 13034 06a7 14040000 		.4byte	.LVL355
 13035 06ab 0100     		.2byte	0x1
 13036 06ad 55       		.byte	0x55
 13037 06ae 00000000 		.4byte	0
 13038 06b2 00000000 		.4byte	0
 13039              	.LLST42:
 13040 06b6 1E040000 		.4byte	.LVL356
 13041 06ba 28040000 		.4byte	.LVL359
 13042 06be 0100     		.2byte	0x1
 13043 06c0 55       		.byte	0x55
 13044 06c1 2A040000 		.4byte	.LVL360
 13045 06c5 36040000 		.4byte	.LVL361
 13046 06c9 0100     		.2byte	0x1
 13047 06cb 55       		.byte	0x55
 13048 06cc 3C040000 		.4byte	.LVL362
 13049 06d0 46040000 		.4byte	.LVL365
 13050 06d4 0100     		.2byte	0x1
 13051 06d6 55       		.byte	0x55
 13052 06d7 48040000 		.4byte	.LVL366
 13053 06db 50040000 		.4byte	.LVL367
 13054 06df 0100     		.2byte	0x1
 13055 06e1 55       		.byte	0x55
 13056 06e2 00000000 		.4byte	0
 13057 06e6 00000000 		.4byte	0
 13058              	.LLST43:
 13059 06ea 00000000 		.4byte	.LVL368
 13060 06ee 04000000 		.4byte	.LVL369
 13061 06f2 0100     		.2byte	0x1
 13062 06f4 50       		.byte	0x50
 13063 06f5 04000000 		.4byte	.LVL369
 13064 06f9 06000000 		.4byte	.LVL370
 13065 06fd 0400     		.2byte	0x4
ARM GAS  C:\Users\strap\AppData\Local\Temp\cc4VwSsz.s 			page 271


 13066 06ff F3       		.byte	0xf3
 13067 0700 01       		.uleb128 0x1
 13068 0701 50       		.byte	0x50
 13069 0702 9F       		.byte	0x9f
 13070 0703 06000000 		.4byte	.LVL370
 13071 0707 08000000 		.4byte	.LVL371
 13072 070b 0100     		.2byte	0x1
 13073 070d 50       		.byte	0x50
 13074 070e 08000000 		.4byte	.LVL371
 13075 0712 0A000000 		.4byte	.LFE336
 13076 0716 0400     		.2byte	0x4
 13077 0718 F3       		.byte	0xf3
 13078 0719 01       		.uleb128 0x1
 13079 071a 50       		.byte	0x50
 13080 071b 9F       		.byte	0x9f
 13081 071c 00000000 		.4byte	0
 13082 0720 00000000 		.4byte	0
 13083              	.LLST44:
 13084 0724 00000000 		.4byte	.LVL372
 13085 0728 1A000000 		.4byte	.LVL373
 13086 072c 0100     		.2byte	0x1
 13087 072e 50       		.byte	0x50
 13088 072f 1A000000 		.4byte	.LVL373
 13089 0733 2C000000 		.4byte	.LVL374
 13090 0737 0100     		.2byte	0x1
 13091 0739 53       		.byte	0x53
 13092 073a 2C000000 		.4byte	.LVL374
 13093 073e 32000000 		.4byte	.LVL375
 13094 0742 0100     		.2byte	0x1
 13095 0744 50       		.byte	0x50
 13096 0745 32000000 		.4byte	.LVL375
 13097 0749 6C000000 		.4byte	.LFE337
 13098 074d 0400     		.2byte	0x4
 13099 074f F3       		.byte	0xf3
 13100 0750 01       		.uleb128 0x1
 13101 0751 50       		.byte	0x50
 13102 0752 9F       		.byte	0x9f
 13103 0753 00000000 		.4byte	0
 13104 0757 00000000 		.4byte	0
 13105              	.LLST45:
 13106 075b 00000000 		.4byte	.LVL372
 13107 075f 35000000 		.4byte	.LVL376-1
 13108 0763 0100     		.2byte	0x1
 13109 0765 51       		.byte	0x51
 13110 0766 35000000 		.4byte	.LVL376-1
 13111 076a 68000000 		.4byte	.LVL378
 13112 076e 0100     		.2byte	0x1
 13113 0770 54       		.byte	0x54
 13114 0771 68000000 		.4byte	.LVL378
 13115 0775 6C000000 		.4byte	.LFE337
 13116 0779 0400     		.2byte	0x4
 13117 077b F3       		.byte	0xf3
 13118 077c 01       		.uleb128 0x1
 13119 077d 51       		.byte	0x51
 13120 077e 9F       		.byte	0x9f
 13121 077f 00000000 		.4byte	0
 13122 0783 00000000 		.4byte	0
ARM GAS  C:\Users\strap\AppData\Local\Temp\cc4VwSsz.s 			page 272


 13123              	.LLST46:
 13124 0787 36000000 		.4byte	.LVL376
 13125 078b 61000000 		.4byte	.LVL377-1
 13126 078f 0100     		.2byte	0x1
 13127 0791 50       		.byte	0x50
 13128 0792 62000000 		.4byte	.LVL377
 13129 0796 6C000000 		.4byte	.LFE337
 13130 079a 0100     		.2byte	0x1
 13131 079c 50       		.byte	0x50
 13132 079d 00000000 		.4byte	0
 13133 07a1 00000000 		.4byte	0
 13134              	.LLST47:
 13135 07a5 00000000 		.4byte	.LVL380
 13136 07a9 13000000 		.4byte	.LVL381-1
 13137 07ad 0100     		.2byte	0x1
 13138 07af 50       		.byte	0x50
 13139 07b0 13000000 		.4byte	.LVL381-1
 13140 07b4 1E000000 		.4byte	.LFE338
 13141 07b8 0100     		.2byte	0x1
 13142 07ba 54       		.byte	0x54
 13143 07bb 00000000 		.4byte	0
 13144 07bf 00000000 		.4byte	0
 13145              	.LLST48:
 13146 07c3 00000000 		.4byte	.LVL383
 13147 07c7 08000000 		.4byte	.LVL384
 13148 07cb 0100     		.2byte	0x1
 13149 07cd 51       		.byte	0x51
 13150 07ce 08000000 		.4byte	.LVL384
 13151 07d2 0A000000 		.4byte	.LVL385
 13152 07d6 0400     		.2byte	0x4
 13153 07d8 F3       		.byte	0xf3
 13154 07d9 01       		.uleb128 0x1
 13155 07da 51       		.byte	0x51
 13156 07db 9F       		.byte	0x9f
 13157 07dc 0A000000 		.4byte	.LVL385
 13158 07e0 0C000000 		.4byte	.LVL386
 13159 07e4 0100     		.2byte	0x1
 13160 07e6 51       		.byte	0x51
 13161 07e7 0C000000 		.4byte	.LVL386
 13162 07eb 1A000000 		.4byte	.LFE339
 13163 07ef 0400     		.2byte	0x4
 13164 07f1 F3       		.byte	0xf3
 13165 07f2 01       		.uleb128 0x1
 13166 07f3 51       		.byte	0x51
 13167 07f4 9F       		.byte	0x9f
 13168 07f5 00000000 		.4byte	0
 13169 07f9 00000000 		.4byte	0
 13170              	.LLST49:
 13171 07fd 00000000 		.4byte	.LVL387
 13172 0801 10000000 		.4byte	.LVL388
 13173 0805 0100     		.2byte	0x1
 13174 0807 50       		.byte	0x50
 13175 0808 10000000 		.4byte	.LVL388
 13176 080c 32000000 		.4byte	.LVL392
 13177 0810 0100     		.2byte	0x1
 13178 0812 54       		.byte	0x54
 13179 0813 32000000 		.4byte	.LVL392
ARM GAS  C:\Users\strap\AppData\Local\Temp\cc4VwSsz.s 			page 273


 13180 0817 34000000 		.4byte	.LFE340
 13181 081b 0400     		.2byte	0x4
 13182 081d F3       		.byte	0xf3
 13183 081e 01       		.uleb128 0x1
 13184 081f 50       		.byte	0x50
 13185 0820 9F       		.byte	0x9f
 13186 0821 00000000 		.4byte	0
 13187 0825 00000000 		.4byte	0
 13188              	.LLST50:
 13189 0829 00000000 		.4byte	.LVL387
 13190 082d 13000000 		.4byte	.LVL389-1
 13191 0831 0100     		.2byte	0x1
 13192 0833 51       		.byte	0x51
 13193 0834 13000000 		.4byte	.LVL389-1
 13194 0838 32000000 		.4byte	.LVL392
 13195 083c 0100     		.2byte	0x1
 13196 083e 55       		.byte	0x55
 13197 083f 32000000 		.4byte	.LVL392
 13198 0843 34000000 		.4byte	.LFE340
 13199 0847 0400     		.2byte	0x4
 13200 0849 F3       		.byte	0xf3
 13201 084a 01       		.uleb128 0x1
 13202 084b 51       		.byte	0x51
 13203 084c 9F       		.byte	0x9f
 13204 084d 00000000 		.4byte	0
 13205 0851 00000000 		.4byte	0
 13206              	.LLST51:
 13207 0855 00000000 		.4byte	.LVL396
 13208 0859 04000000 		.4byte	.LVL397
 13209 085d 0100     		.2byte	0x1
 13210 085f 50       		.byte	0x50
 13211 0860 04000000 		.4byte	.LVL397
 13212 0864 06000000 		.4byte	.LFE344
 13213 0868 0400     		.2byte	0x4
 13214 086a F3       		.byte	0xf3
 13215 086b 01       		.uleb128 0x1
 13216 086c 50       		.byte	0x50
 13217 086d 9F       		.byte	0x9f
 13218 086e 00000000 		.4byte	0
 13219 0872 00000000 		.4byte	0
 13220              	.LLST52:
 13221 0876 00000000 		.4byte	.LVL398
 13222 087a 08000000 		.4byte	.LVL399
 13223 087e 0100     		.2byte	0x1
 13224 0880 50       		.byte	0x50
 13225 0881 08000000 		.4byte	.LVL399
 13226 0885 0A000000 		.4byte	.LVL400
 13227 0889 0400     		.2byte	0x4
 13228 088b F3       		.byte	0xf3
 13229 088c 01       		.uleb128 0x1
 13230 088d 50       		.byte	0x50
 13231 088e 9F       		.byte	0x9f
 13232 088f 0A000000 		.4byte	.LVL400
 13233 0893 0C000000 		.4byte	.LVL401
 13234 0897 0100     		.2byte	0x1
 13235 0899 50       		.byte	0x50
 13236 089a 0C000000 		.4byte	.LVL401
ARM GAS  C:\Users\strap\AppData\Local\Temp\cc4VwSsz.s 			page 274


 13237 089e 0E000000 		.4byte	.LFE345
 13238 08a2 0400     		.2byte	0x4
 13239 08a4 F3       		.byte	0xf3
 13240 08a5 01       		.uleb128 0x1
 13241 08a6 50       		.byte	0x50
 13242 08a7 9F       		.byte	0x9f
 13243 08a8 00000000 		.4byte	0
 13244 08ac 00000000 		.4byte	0
 13245              	.LLST53:
 13246 08b0 00000000 		.4byte	.LVL402
 13247 08b4 12000000 		.4byte	.LVL403
 13248 08b8 0100     		.2byte	0x1
 13249 08ba 50       		.byte	0x50
 13250 08bb 12000000 		.4byte	.LVL403
 13251 08bf 18000000 		.4byte	.LVL404
 13252 08c3 0100     		.2byte	0x1
 13253 08c5 52       		.byte	0x52
 13254 08c6 18000000 		.4byte	.LVL404
 13255 08ca 1A000000 		.4byte	.LVL405
 13256 08ce 0100     		.2byte	0x1
 13257 08d0 50       		.byte	0x50
 13258 08d1 1A000000 		.4byte	.LVL405
 13259 08d5 1C000000 		.4byte	.LVL406
 13260 08d9 0100     		.2byte	0x1
 13261 08db 52       		.byte	0x52
 13262 08dc 1C000000 		.4byte	.LVL406
 13263 08e0 1E000000 		.4byte	.LVL407
 13264 08e4 0100     		.2byte	0x1
 13265 08e6 50       		.byte	0x50
 13266 08e7 1E000000 		.4byte	.LVL407
 13267 08eb 20000000 		.4byte	.LFE346
 13268 08ef 0100     		.2byte	0x1
 13269 08f1 52       		.byte	0x52
 13270 08f2 00000000 		.4byte	0
 13271 08f6 00000000 		.4byte	0
 13272              	.LLST54:
 13273 08fa 00000000 		.4byte	.LVL409
 13274 08fe 28000000 		.4byte	.LVL410
 13275 0902 0100     		.2byte	0x1
 13276 0904 50       		.byte	0x50
 13277 0905 28000000 		.4byte	.LVL410
 13278 0909 4A000000 		.4byte	.LVL415
 13279 090d 0400     		.2byte	0x4
 13280 090f F3       		.byte	0xf3
 13281 0910 01       		.uleb128 0x1
 13282 0911 50       		.byte	0x50
 13283 0912 9F       		.byte	0x9f
 13284 0913 4A000000 		.4byte	.LVL415
 13285 0917 52000000 		.4byte	.LVL416
 13286 091b 0100     		.2byte	0x1
 13287 091d 50       		.byte	0x50
 13288 091e 52000000 		.4byte	.LVL416
 13289 0922 58000000 		.4byte	.LFE348
 13290 0926 0400     		.2byte	0x4
 13291 0928 F3       		.byte	0xf3
 13292 0929 01       		.uleb128 0x1
 13293 092a 50       		.byte	0x50
ARM GAS  C:\Users\strap\AppData\Local\Temp\cc4VwSsz.s 			page 275


 13294 092b 9F       		.byte	0x9f
 13295 092c 00000000 		.4byte	0
 13296 0930 00000000 		.4byte	0
 13297              	.LLST55:
 13298 0934 2C000000 		.4byte	.LVL411
 13299 0938 37000000 		.4byte	.LVL412-1
 13300 093c 0100     		.2byte	0x1
 13301 093e 50       		.byte	0x50
 13302 093f 37000000 		.4byte	.LVL412-1
 13303 0943 4A000000 		.4byte	.LVL415
 13304 0947 0100     		.2byte	0x1
 13305 0949 55       		.byte	0x55
 13306 094a 52000000 		.4byte	.LVL416
 13307 094e 54000000 		.4byte	.LVL417
 13308 0952 0100     		.2byte	0x1
 13309 0954 55       		.byte	0x55
 13310 0955 00000000 		.4byte	0
 13311 0959 00000000 		.4byte	0
 13312              	.LLST56:
 13313 095d 38000000 		.4byte	.LVL412
 13314 0961 42000000 		.4byte	.LVL413
 13315 0965 0100     		.2byte	0x1
 13316 0967 50       		.byte	0x50
 13317 0968 46000000 		.4byte	.LVL414
 13318 096c 4A000000 		.4byte	.LVL415
 13319 0970 0100     		.2byte	0x1
 13320 0972 50       		.byte	0x50
 13321 0973 52000000 		.4byte	.LVL416
 13322 0977 54000000 		.4byte	.LVL417
 13323 097b 0100     		.2byte	0x1
 13324 097d 50       		.byte	0x50
 13325 097e 00000000 		.4byte	0
 13326 0982 00000000 		.4byte	0
 13327              	.LLST57:
 13328 0986 00000000 		.4byte	.LVL419
 13329 098a 04000000 		.4byte	.LVL420
 13330 098e 0100     		.2byte	0x1
 13331 0990 50       		.byte	0x50
 13332 0991 04000000 		.4byte	.LVL420
 13333 0995 06000000 		.4byte	.LVL421
 13334 0999 0400     		.2byte	0x4
 13335 099b F3       		.byte	0xf3
 13336 099c 01       		.uleb128 0x1
 13337 099d 50       		.byte	0x50
 13338 099e 9F       		.byte	0x9f
 13339 099f 06000000 		.4byte	.LVL421
 13340 09a3 08000000 		.4byte	.LVL422
 13341 09a7 0100     		.2byte	0x1
 13342 09a9 50       		.byte	0x50
 13343 09aa 08000000 		.4byte	.LVL422
 13344 09ae 0A000000 		.4byte	.LFE351
 13345 09b2 0400     		.2byte	0x4
 13346 09b4 F3       		.byte	0xf3
 13347 09b5 01       		.uleb128 0x1
 13348 09b6 50       		.byte	0x50
 13349 09b7 9F       		.byte	0x9f
 13350 09b8 00000000 		.4byte	0
ARM GAS  C:\Users\strap\AppData\Local\Temp\cc4VwSsz.s 			page 276


 13351 09bc 00000000 		.4byte	0
 13352              	.LLST58:
 13353 09c0 00000000 		.4byte	.LVL423
 13354 09c4 0B000000 		.4byte	.LVL425-1
 13355 09c8 0100     		.2byte	0x1
 13356 09ca 50       		.byte	0x50
 13357 09cb 0B000000 		.4byte	.LVL425-1
 13358 09cf 6C000000 		.4byte	.LFE359
 13359 09d3 0100     		.2byte	0x1
 13360 09d5 58       		.byte	0x58
 13361 09d6 00000000 		.4byte	0
 13362 09da 00000000 		.4byte	0
 13363              	.LLST59:
 13364 09de 00000000 		.4byte	.LVL423
 13365 09e2 0B000000 		.4byte	.LVL425-1
 13366 09e6 0100     		.2byte	0x1
 13367 09e8 51       		.byte	0x51
 13368 09e9 0B000000 		.4byte	.LVL425-1
 13369 09ed 6C000000 		.4byte	.LFE359
 13370 09f1 0100     		.2byte	0x1
 13371 09f3 57       		.byte	0x57
 13372 09f4 00000000 		.4byte	0
 13373 09f8 00000000 		.4byte	0
 13374              	.LLST60:
 13375 09fc 08000000 		.4byte	.LVL424
 13376 0a00 1E000000 		.4byte	.LVL428
 13377 0a04 0200     		.2byte	0x2
 13378 0a06 30       		.byte	0x30
 13379 0a07 9F       		.byte	0x9f
 13380 0a08 1E000000 		.4byte	.LVL428
 13381 0a0c 26000000 		.4byte	.LVL430
 13382 0a10 0100     		.2byte	0x1
 13383 0a12 55       		.byte	0x55
 13384 0a13 26000000 		.4byte	.LVL430
 13385 0a17 2E000000 		.4byte	.LVL431
 13386 0a1b 0100     		.2byte	0x1
 13387 0a1d 50       		.byte	0x50
 13388 0a1e 2E000000 		.4byte	.LVL431
 13389 0a22 60000000 		.4byte	.LVL442
 13390 0a26 0100     		.2byte	0x1
 13391 0a28 55       		.byte	0x55
 13392 0a29 60000000 		.4byte	.LVL442
 13393 0a2d 64000000 		.4byte	.LVL443
 13394 0a31 0200     		.2byte	0x2
 13395 0a33 30       		.byte	0x30
 13396 0a34 9F       		.byte	0x9f
 13397 0a35 64000000 		.4byte	.LVL443
 13398 0a39 6C000000 		.4byte	.LFE359
 13399 0a3d 0100     		.2byte	0x1
 13400 0a3f 55       		.byte	0x55
 13401 0a40 00000000 		.4byte	0
 13402 0a44 00000000 		.4byte	0
 13403              	.LLST61:
 13404 0a48 1A000000 		.4byte	.LVL427
 13405 0a4c 22000000 		.4byte	.LVL429
 13406 0a50 0100     		.2byte	0x1
 13407 0a52 50       		.byte	0x50
ARM GAS  C:\Users\strap\AppData\Local\Temp\cc4VwSsz.s 			page 277


 13408 0a53 22000000 		.4byte	.LVL429
 13409 0a57 34000000 		.4byte	.LVL433
 13410 0a5b 0100     		.2byte	0x1
 13411 0a5d 54       		.byte	0x54
 13412 0a5e 34000000 		.4byte	.LVL433
 13413 0a62 38000000 		.4byte	.LVL434
 13414 0a66 0100     		.2byte	0x1
 13415 0a68 50       		.byte	0x50
 13416 0a69 38000000 		.4byte	.LVL434
 13417 0a6d 44000000 		.4byte	.LVL436
 13418 0a71 0100     		.2byte	0x1
 13419 0a73 54       		.byte	0x54
 13420 0a74 56000000 		.4byte	.LVL440
 13421 0a78 58000000 		.4byte	.LVL441
 13422 0a7c 0100     		.2byte	0x1
 13423 0a7e 54       		.byte	0x54
 13424 0a7f 00000000 		.4byte	0
 13425 0a83 00000000 		.4byte	0
 13426              	.LLST62:
 13427 0a87 44000000 		.4byte	.LVL436
 13428 0a8b 54000000 		.4byte	.LVL439
 13429 0a8f 0100     		.2byte	0x1
 13430 0a91 54       		.byte	0x54
 13431 0a92 54000000 		.4byte	.LVL439
 13432 0a96 56000000 		.4byte	.LVL440
 13433 0a9a 0100     		.2byte	0x1
 13434 0a9c 50       		.byte	0x50
 13435 0a9d 58000000 		.4byte	.LVL441
 13436 0aa1 60000000 		.4byte	.LVL442
 13437 0aa5 0100     		.2byte	0x1
 13438 0aa7 54       		.byte	0x54
 13439 0aa8 64000000 		.4byte	.LVL443
 13440 0aac 66000000 		.4byte	.LVL444
 13441 0ab0 0100     		.2byte	0x1
 13442 0ab2 54       		.byte	0x54
 13443 0ab3 00000000 		.4byte	0
 13444 0ab7 00000000 		.4byte	0
 13445              	.LLST63:
 13446 0abb 00000000 		.4byte	.LVL445
 13447 0abf 20000000 		.4byte	.LVL447
 13448 0ac3 0100     		.2byte	0x1
 13449 0ac5 50       		.byte	0x50
 13450 0ac6 20000000 		.4byte	.LVL447
 13451 0aca 5C000000 		.4byte	.LVL454
 13452 0ace 0100     		.2byte	0x1
 13453 0ad0 54       		.byte	0x54
 13454 0ad1 5C000000 		.4byte	.LVL454
 13455 0ad5 6A000000 		.4byte	.LVL455
 13456 0ad9 0100     		.2byte	0x1
 13457 0adb 50       		.byte	0x50
 13458 0adc 6A000000 		.4byte	.LVL455
 13459 0ae0 B2000000 		.4byte	.LVL463
 13460 0ae4 0100     		.2byte	0x1
 13461 0ae6 54       		.byte	0x54
 13462 0ae7 B2000000 		.4byte	.LVL463
 13463 0aeb B6000000 		.4byte	.LVL464
 13464 0aef 0100     		.2byte	0x1
ARM GAS  C:\Users\strap\AppData\Local\Temp\cc4VwSsz.s 			page 278


 13465 0af1 50       		.byte	0x50
 13466 0af2 B6000000 		.4byte	.LVL464
 13467 0af6 5A030000 		.4byte	.LVL509
 13468 0afa 0100     		.2byte	0x1
 13469 0afc 54       		.byte	0x54
 13470 0afd 5A030000 		.4byte	.LVL509
 13471 0b01 60030000 		.4byte	.LFE356
 13472 0b05 0100     		.2byte	0x1
 13473 0b07 50       		.byte	0x50
 13474 0b08 00000000 		.4byte	0
 13475 0b0c 00000000 		.4byte	0
 13476              	.LLST64:
 13477 0b10 1C000000 		.4byte	.LVL446
 13478 0b14 E8000000 		.4byte	.LVL469
 13479 0b18 0100     		.2byte	0x1
 13480 0b1a 55       		.byte	0x55
 13481 0b1b 00000000 		.4byte	0
 13482 0b1f 00000000 		.4byte	0
 13483              	.LLST65:
 13484 0b23 1C000000 		.4byte	.LVL446
 13485 0b27 BC000000 		.4byte	.LVL465
 13486 0b2b 0200     		.2byte	0x2
 13487 0b2d 30       		.byte	0x30
 13488 0b2e 9F       		.byte	0x9f
 13489 0b2f BC000000 		.4byte	.LVL465
 13490 0b33 C0000000 		.4byte	.LVL466
 13491 0b37 0100     		.2byte	0x1
 13492 0b39 53       		.byte	0x53
 13493 0b3a 00000000 		.4byte	0
 13494 0b3e 00000000 		.4byte	0
 13495              	.LLST66:
 13496 0b42 FE000000 		.4byte	.LVL470
 13497 0b46 2C010000 		.4byte	.LVL475
 13498 0b4a 0100     		.2byte	0x1
 13499 0b4c 55       		.byte	0x55
 13500 0b4d 00000000 		.4byte	0
 13501 0b51 00000000 		.4byte	0
 13502              	.LLST67:
 13503 0b55 72010000 		.4byte	.LVL477
 13504 0b59 85010000 		.4byte	.LVL480-1
 13505 0b5d 0100     		.2byte	0x1
 13506 0b5f 50       		.byte	0x50
 13507 0b60 86010000 		.4byte	.LVL480
 13508 0b64 8E010000 		.4byte	.LVL481
 13509 0b68 0100     		.2byte	0x1
 13510 0b6a 50       		.byte	0x50
 13511 0b6b 00000000 		.4byte	0
 13512 0b6f 00000000 		.4byte	0
 13513              	.LLST68:
 13514 0b73 72010000 		.4byte	.LVL477
 13515 0b77 76010000 		.4byte	.LVL478
 13516 0b7b 0200     		.2byte	0x2
 13517 0b7d 30       		.byte	0x30
 13518 0b7e 9F       		.byte	0x9f
 13519 0b7f 76010000 		.4byte	.LVL478
 13520 0b83 98010000 		.4byte	.LVL483
 13521 0b87 0100     		.2byte	0x1
ARM GAS  C:\Users\strap\AppData\Local\Temp\cc4VwSsz.s 			page 279


 13522 0b89 55       		.byte	0x55
 13523 0b8a 00000000 		.4byte	0
 13524 0b8e 00000000 		.4byte	0
 13525              	.LLST69:
 13526 0b92 00000000 		.4byte	.LVL510
 13527 0b96 08000000 		.4byte	.LVL511
 13528 0b9a 0100     		.2byte	0x1
 13529 0b9c 50       		.byte	0x50
 13530 0b9d 08000000 		.4byte	.LVL511
 13531 0ba1 52000000 		.4byte	.LFE352
 13532 0ba5 0100     		.2byte	0x1
 13533 0ba7 54       		.byte	0x54
 13534 0ba8 00000000 		.4byte	0
 13535 0bac 00000000 		.4byte	0
 13536              	.LLST70:
 13537 0bb0 00000000 		.4byte	.LVL510
 13538 0bb4 1A000000 		.4byte	.LVL512
 13539 0bb8 0100     		.2byte	0x1
 13540 0bba 51       		.byte	0x51
 13541 0bbb 1A000000 		.4byte	.LVL512
 13542 0bbf 52000000 		.4byte	.LFE352
 13543 0bc3 0100     		.2byte	0x1
 13544 0bc5 55       		.byte	0x55
 13545 0bc6 00000000 		.4byte	0
 13546 0bca 00000000 		.4byte	0
 13547              	.LLST71:
 13548 0bce 00000000 		.4byte	.LVL516
 13549 0bd2 2C000000 		.4byte	.LVL517
 13550 0bd6 0100     		.2byte	0x1
 13551 0bd8 50       		.byte	0x50
 13552 0bd9 2C000000 		.4byte	.LVL517
 13553 0bdd 32000000 		.4byte	.LVL519
 13554 0be1 0100     		.2byte	0x1
 13555 0be3 54       		.byte	0x54
 13556 0be4 32000000 		.4byte	.LVL519
 13557 0be8 36000000 		.4byte	.LVL520
 13558 0bec 0100     		.2byte	0x1
 13559 0bee 50       		.byte	0x50
 13560 0bef 36000000 		.4byte	.LVL520
 13561 0bf3 48000000 		.4byte	.LVL522
 13562 0bf7 0100     		.2byte	0x1
 13563 0bf9 54       		.byte	0x54
 13564 0bfa 48000000 		.4byte	.LVL522
 13565 0bfe 4A000000 		.4byte	.LFE355
 13566 0c02 0100     		.2byte	0x1
 13567 0c04 50       		.byte	0x50
 13568 0c05 00000000 		.4byte	0
 13569 0c09 00000000 		.4byte	0
 13570              	.LLST72:
 13571 0c0d 00000000 		.4byte	.LVL516
 13572 0c11 2F000000 		.4byte	.LVL518-1
 13573 0c15 0100     		.2byte	0x1
 13574 0c17 51       		.byte	0x51
 13575 0c18 2F000000 		.4byte	.LVL518-1
 13576 0c1c 32000000 		.4byte	.LVL519
 13577 0c20 0400     		.2byte	0x4
 13578 0c22 F3       		.byte	0xf3
ARM GAS  C:\Users\strap\AppData\Local\Temp\cc4VwSsz.s 			page 280


 13579 0c23 01       		.uleb128 0x1
 13580 0c24 51       		.byte	0x51
 13581 0c25 9F       		.byte	0x9f
 13582 0c26 32000000 		.4byte	.LVL519
 13583 0c2a 39000000 		.4byte	.LVL521-1
 13584 0c2e 0100     		.2byte	0x1
 13585 0c30 51       		.byte	0x51
 13586 0c31 39000000 		.4byte	.LVL521-1
 13587 0c35 48000000 		.4byte	.LVL522
 13588 0c39 0400     		.2byte	0x4
 13589 0c3b F3       		.byte	0xf3
 13590 0c3c 01       		.uleb128 0x1
 13591 0c3d 51       		.byte	0x51
 13592 0c3e 9F       		.byte	0x9f
 13593 0c3f 48000000 		.4byte	.LVL522
 13594 0c43 4A000000 		.4byte	.LFE355
 13595 0c47 0100     		.2byte	0x1
 13596 0c49 51       		.byte	0x51
 13597 0c4a 00000000 		.4byte	0
 13598 0c4e 00000000 		.4byte	0
 13599              	.LLST73:
 13600 0c52 00000000 		.4byte	.LVL523
 13601 0c56 02000000 		.4byte	.LVL524
 13602 0c5a 0100     		.2byte	0x1
 13603 0c5c 50       		.byte	0x50
 13604 0c5d 02000000 		.4byte	.LVL524
 13605 0c61 BC000000 		.4byte	.LFE334
 13606 0c65 0400     		.2byte	0x4
 13607 0c67 F3       		.byte	0xf3
 13608 0c68 01       		.uleb128 0x1
 13609 0c69 50       		.byte	0x50
 13610 0c6a 9F       		.byte	0x9f
 13611 0c6b 00000000 		.4byte	0
 13612 0c6f 00000000 		.4byte	0
 13613              	.LLST74:
 13614 0c73 2E000000 		.4byte	.LVL527
 13615 0c77 B0000000 		.4byte	.LVL536
 13616 0c7b 0100     		.2byte	0x1
 13617 0c7d 55       		.byte	0x55
 13618 0c7e 00000000 		.4byte	0
 13619 0c82 00000000 		.4byte	0
 13620              		.section	.debug_aranges,"",%progbits
 13621 0000 1C010000 		.4byte	0x11c
 13622 0004 0200     		.2byte	0x2
 13623 0006 00000000 		.4byte	.Ldebug_info0
 13624 000a 04       		.byte	0x4
 13625 000b 00       		.byte	0
 13626 000c 0000     		.2byte	0
 13627 000e 0000     		.2byte	0
 13628 0010 00000000 		.4byte	.LFB358
 13629 0014 54000000 		.4byte	.LFE358-.LFB358
 13630 0018 00000000 		.4byte	.LFB365
 13631 001c 20000000 		.4byte	.LFE365-.LFB365
 13632 0020 00000000 		.4byte	.LFB363
 13633 0024 28000000 		.4byte	.LFE363-.LFB363
 13634 0028 00000000 		.4byte	.LFB362
 13635 002c AC010000 		.4byte	.LFE362-.LFB362
ARM GAS  C:\Users\strap\AppData\Local\Temp\cc4VwSsz.s 			page 281


 13636 0030 00000000 		.4byte	.LFB357
 13637 0034 8C010000 		.4byte	.LFE357-.LFB357
 13638 0038 00000000 		.4byte	.LFB360
 13639 003c 60010000 		.4byte	.LFE360-.LFB360
 13640 0040 00000000 		.4byte	.LFB361
 13641 0044 D0020000 		.4byte	.LFE361-.LFB361
 13642 0048 00000000 		.4byte	.LFB364
 13643 004c E8000000 		.4byte	.LFE364-.LFB364
 13644 0050 00000000 		.4byte	.LFB353
 13645 0054 F8020000 		.4byte	.LFE353-.LFB353
 13646 0058 00000000 		.4byte	.LFB354
 13647 005c 5C040000 		.4byte	.LFE354-.LFB354
 13648 0060 00000000 		.4byte	.LFB335
 13649 0064 0C000000 		.4byte	.LFE335-.LFB335
 13650 0068 00000000 		.4byte	.LFB336
 13651 006c 0A000000 		.4byte	.LFE336-.LFB336
 13652 0070 00000000 		.4byte	.LFB337
 13653 0074 6C000000 		.4byte	.LFE337-.LFB337
 13654 0078 00000000 		.4byte	.LFB333
 13655 007c 0C000000 		.4byte	.LFE333-.LFB333
 13656 0080 00000000 		.4byte	.LFB338
 13657 0084 1E000000 		.4byte	.LFE338-.LFB338
 13658 0088 00000000 		.4byte	.LFB339
 13659 008c 1A000000 		.4byte	.LFE339-.LFB339
 13660 0090 00000000 		.4byte	.LFB340
 13661 0094 34000000 		.4byte	.LFE340-.LFB340
 13662 0098 00000000 		.4byte	.LFB341
 13663 009c 0E000000 		.4byte	.LFE341-.LFB341
 13664 00a0 00000000 		.4byte	.LFB342
 13665 00a4 0A000000 		.4byte	.LFE342-.LFB342
 13666 00a8 00000000 		.4byte	.LFB343
 13667 00ac 2E000000 		.4byte	.LFE343-.LFB343
 13668 00b0 00000000 		.4byte	.LFB344
 13669 00b4 06000000 		.4byte	.LFE344-.LFB344
 13670 00b8 00000000 		.4byte	.LFB345
 13671 00bc 0E000000 		.4byte	.LFE345-.LFB345
 13672 00c0 00000000 		.4byte	.LFB346
 13673 00c4 20000000 		.4byte	.LFE346-.LFB346
 13674 00c8 00000000 		.4byte	.LFB347
 13675 00cc 2C000000 		.4byte	.LFE347-.LFB347
 13676 00d0 00000000 		.4byte	.LFB348
 13677 00d4 58000000 		.4byte	.LFE348-.LFB348
 13678 00d8 00000000 		.4byte	.LFB349
 13679 00dc 10000000 		.4byte	.LFE349-.LFB349
 13680 00e0 00000000 		.4byte	.LFB350
 13681 00e4 0C000000 		.4byte	.LFE350-.LFB350
 13682 00e8 00000000 		.4byte	.LFB351
 13683 00ec 0A000000 		.4byte	.LFE351-.LFB351
 13684 00f0 00000000 		.4byte	.LFB359
 13685 00f4 6C000000 		.4byte	.LFE359-.LFB359
 13686 00f8 00000000 		.4byte	.LFB356
 13687 00fc 60030000 		.4byte	.LFE356-.LFB356
 13688 0100 00000000 		.4byte	.LFB352
 13689 0104 52000000 		.4byte	.LFE352-.LFB352
 13690 0108 00000000 		.4byte	.LFB355
 13691 010c 4A000000 		.4byte	.LFE355-.LFB355
 13692 0110 00000000 		.4byte	.LFB334
ARM GAS  C:\Users\strap\AppData\Local\Temp\cc4VwSsz.s 			page 282


 13693 0114 BC000000 		.4byte	.LFE334-.LFB334
 13694 0118 00000000 		.4byte	0
 13695 011c 00000000 		.4byte	0
 13696              		.section	.debug_ranges,"",%progbits
 13697              	.Ldebug_ranges0:
 13698 0000 0E000000 		.4byte	.LBB15
 13699 0004 1A000000 		.4byte	.LBE15
 13700 0008 1C000000 		.4byte	.LBB19
 13701 000c 60000000 		.4byte	.LBE19
 13702 0010 64000000 		.4byte	.LBB20
 13703 0014 66000000 		.4byte	.LBE20
 13704 0018 00000000 		.4byte	0
 13705 001c 00000000 		.4byte	0
 13706 0020 42000000 		.4byte	.LBB16
 13707 0024 56000000 		.4byte	.LBE16
 13708 0028 58000000 		.4byte	.LBB17
 13709 002c 60000000 		.4byte	.LBE17
 13710 0030 64000000 		.4byte	.LBB18
 13711 0034 66000000 		.4byte	.LBE18
 13712 0038 00000000 		.4byte	0
 13713 003c 00000000 		.4byte	0
 13714 0040 00000000 		.4byte	.LFB358
 13715 0044 54000000 		.4byte	.LFE358
 13716 0048 00000000 		.4byte	.LFB365
 13717 004c 20000000 		.4byte	.LFE365
 13718 0050 00000000 		.4byte	.LFB363
 13719 0054 28000000 		.4byte	.LFE363
 13720 0058 00000000 		.4byte	.LFB362
 13721 005c AC010000 		.4byte	.LFE362
 13722 0060 00000000 		.4byte	.LFB357
 13723 0064 8C010000 		.4byte	.LFE357
 13724 0068 00000000 		.4byte	.LFB360
 13725 006c 60010000 		.4byte	.LFE360
 13726 0070 00000000 		.4byte	.LFB361
 13727 0074 D0020000 		.4byte	.LFE361
 13728 0078 00000000 		.4byte	.LFB364
 13729 007c E8000000 		.4byte	.LFE364
 13730 0080 00000000 		.4byte	.LFB353
 13731 0084 F8020000 		.4byte	.LFE353
 13732 0088 00000000 		.4byte	.LFB354
 13733 008c 5C040000 		.4byte	.LFE354
 13734 0090 00000000 		.4byte	.LFB335
 13735 0094 0C000000 		.4byte	.LFE335
 13736 0098 00000000 		.4byte	.LFB336
 13737 009c 0A000000 		.4byte	.LFE336
 13738 00a0 00000000 		.4byte	.LFB337
 13739 00a4 6C000000 		.4byte	.LFE337
 13740 00a8 00000000 		.4byte	.LFB333
 13741 00ac 0C000000 		.4byte	.LFE333
 13742 00b0 00000000 		.4byte	.LFB338
 13743 00b4 1E000000 		.4byte	.LFE338
 13744 00b8 00000000 		.4byte	.LFB339
 13745 00bc 1A000000 		.4byte	.LFE339
 13746 00c0 00000000 		.4byte	.LFB340
 13747 00c4 34000000 		.4byte	.LFE340
 13748 00c8 00000000 		.4byte	.LFB341
 13749 00cc 0E000000 		.4byte	.LFE341
ARM GAS  C:\Users\strap\AppData\Local\Temp\cc4VwSsz.s 			page 283


 13750 00d0 00000000 		.4byte	.LFB342
 13751 00d4 0A000000 		.4byte	.LFE342
 13752 00d8 00000000 		.4byte	.LFB343
 13753 00dc 2E000000 		.4byte	.LFE343
 13754 00e0 00000000 		.4byte	.LFB344
 13755 00e4 06000000 		.4byte	.LFE344
 13756 00e8 00000000 		.4byte	.LFB345
 13757 00ec 0E000000 		.4byte	.LFE345
 13758 00f0 00000000 		.4byte	.LFB346
 13759 00f4 20000000 		.4byte	.LFE346
 13760 00f8 00000000 		.4byte	.LFB347
 13761 00fc 2C000000 		.4byte	.LFE347
 13762 0100 00000000 		.4byte	.LFB348
 13763 0104 58000000 		.4byte	.LFE348
 13764 0108 00000000 		.4byte	.LFB349
 13765 010c 10000000 		.4byte	.LFE349
 13766 0110 00000000 		.4byte	.LFB350
 13767 0114 0C000000 		.4byte	.LFE350
 13768 0118 00000000 		.4byte	.LFB351
 13769 011c 0A000000 		.4byte	.LFE351
 13770 0120 00000000 		.4byte	.LFB359
 13771 0124 6C000000 		.4byte	.LFE359
 13772 0128 00000000 		.4byte	.LFB356
 13773 012c 60030000 		.4byte	.LFE356
 13774 0130 00000000 		.4byte	.LFB352
 13775 0134 52000000 		.4byte	.LFE352
 13776 0138 00000000 		.4byte	.LFB355
 13777 013c 4A000000 		.4byte	.LFE355
 13778 0140 00000000 		.4byte	.LFB334
 13779 0144 BC000000 		.4byte	.LFE334
 13780 0148 00000000 		.4byte	0
 13781 014c 00000000 		.4byte	0
 13782              		.section	.debug_line,"",%progbits
 13783              	.Ldebug_line0:
 13784 0000 C2090000 		.section	.debug_str,"MS",%progbits,1
 13784      0200D402 
 13784      00000201 
 13784      FB0E0D00 
 13784      01010101 
 13785              	.LASF108:
 13786 0000 636F6C6F 		.ascii	"color_chroma_key\000"
 13786      725F6368 
 13786      726F6D61 
 13786      5F6B6579 
 13786      00
 13787              	.LASF71:
 13788 0011 6C765F6C 		.ascii	"lv_ll_node_t\000"
 13788      6C5F6E6F 
 13788      64655F74 
 13788      00
 13789              	.LASF276:
 13790 001e 4C565F53 		.ascii	"LV_SIGNAL_DRAG_THROW_BEGIN\000"
 13790      49474E41 
 13790      4C5F4452 
 13790      41475F54 
 13790      48524F57 
 13791              	.LASF25:
ARM GAS  C:\Users\strap\AppData\Local\Temp\cc4VwSsz.s 			page 284


 13792 0039 73697A65 		.ascii	"sizetype\000"
 13792      74797065 
 13792      00
 13793              	.LASF315:
 13794 0042 4C565F4B 		.ascii	"LV_KEY_RIGHT\000"
 13794      45595F52 
 13794      49474854 
 13794      00
 13795              	.LASF152:
 13796 004f 6C765F64 		.ascii	"lv_disp_t\000"
 13796      6973705F 
 13796      7400
 13797              	.LASF428:
 13798 0059 6C765F64 		.ascii	"lv_disp_get_layer_sys\000"
 13798      6973705F 
 13798      6765745F 
 13798      6C617965 
 13798      725F7379 
 13799              	.LASF74:
 13800 006f 7461696C 		.ascii	"tail\000"
 13800      00
 13801              	.LASF296:
 13802 0074 4C565F50 		.ascii	"LV_PROTECT_POS\000"
 13802      524F5445 
 13802      43545F50 
 13802      4F5300
 13803              	.LASF262:
 13804 0083 4C565F53 		.ascii	"LV_SIGNAL_STYLE_CHG\000"
 13804      49474E41 
 13804      4C5F5354 
 13804      594C455F 
 13804      43484700 
 13805              	.LASF114:
 13806 0097 6163745F 		.ascii	"act_scr\000"
 13806      73637200 
 13807              	.LASF369:
 13808 009f 6C765F69 		.ascii	"lv_indev_set_group\000"
 13808      6E646576 
 13808      5F736574 
 13808      5F67726F 
 13808      757000
 13809              	.LASF40:
 13810 00b2 6C765F6F 		.ascii	"lv_opa_t\000"
 13810      70615F74 
 13810      00
 13811              	.LASF17:
 13812 00bb 696E7433 		.ascii	"int32_t\000"
 13812      325F7400 
 13813              	.LASF370:
 13814 00c3 6C765F69 		.ascii	"lv_indev_set_button_points\000"
 13814      6E646576 
 13814      5F736574 
 13814      5F627574 
 13814      746F6E5F 
 13815              	.LASF416:
 13816 00de 6C765F6F 		.ascii	"lv_obj_get_drag\000"
 13816      626A5F67 
ARM GAS  C:\Users\strap\AppData\Local\Temp\cc4VwSsz.s 			page 285


 13816      65745F64 
 13816      72616700 
 13817              	.LASF250:
 13818 00ee 4C565F45 		.ascii	"LV_EVENT_INSERT\000"
 13818      56454E54 
 13818      5F494E53 
 13818      45525400 
 13819              	.LASF30:
 13820 00fe 6C765F70 		.ascii	"lv_point_t\000"
 13820      6F696E74 
 13820      5F7400
 13821              	.LASF273:
 13822 0109 4C565F53 		.ascii	"LV_SIGNAL_LONG_PRESS\000"
 13822      49474E41 
 13822      4C5F4C4F 
 13822      4E475F50 
 13822      52455353 
 13823              	.LASF119:
 13824 011e 62675F63 		.ascii	"bg_color\000"
 13824      6F6C6F72 
 13824      00
 13825              	.LASF32:
 13826 0127 6C765F61 		.ascii	"lv_align_t\000"
 13826      6C69676E 
 13826      5F7400
 13827              	.LASF275:
 13828 0132 4C565F53 		.ascii	"LV_SIGNAL_DRAG_BEGIN\000"
 13828      49474E41 
 13828      4C5F4452 
 13828      41475F42 
 13828      4547494E 
 13829              	.LASF231:
 13830 0147 6C765F64 		.ascii	"lv_design_res_t\000"
 13830      65736967 
 13830      6E5F7265 
 13830      735F7400 
 13831              	.LASF52:
 13832 0157 636C6970 		.ascii	"clip_corner_off\000"
 13832      5F636F72 
 13832      6E65725F 
 13832      6F666600 
 13833              	.LASF256:
 13834 0167 6C765F65 		.ascii	"lv_event_t\000"
 13834      76656E74 
 13834      5F7400
 13835              	.LASF168:
 13836 0172 4C565F47 		.ascii	"LV_GESTURE_DIR_BOTTOM\000"
 13836      45535455 
 13836      52455F44 
 13836      49525F42 
 13836      4F54544F 
 13837              	.LASF150:
 13838 0188 73746174 		.ascii	"state\000"
 13838      6500
 13839              	.LASF81:
 13840 018e 72657065 		.ascii	"repeat_count\000"
 13840      61745F63 
ARM GAS  C:\Users\strap\AppData\Local\Temp\cc4VwSsz.s 			page 286


 13840      6F756E74 
 13840      00
 13841              	.LASF443:
 13842 019b 433A5C55 		.ascii	"C:\\Users\\strap\\Documents\\Creator\\test_lvgl\\il"
 13842      73657273 
 13842      5C737472 
 13842      61705C44 
 13842      6F63756D 
 13843 01c8 69393334 		.ascii	"i9341_master.cydsn\000"
 13843      315F6D61 
 13843      73746572 
 13843      2E637964 
 13843      736E00
 13844              	.LASF383:
 13845 01db 6C765F69 		.ascii	"lv_indev_search_obj\000"
 13845      6E646576 
 13845      5F736561 
 13845      7263685F 
 13845      6F626A00 
 13846              	.LASF407:
 13847 01ef 6C765F6F 		.ascii	"lv_obj_is_protected\000"
 13847      626A5F69 
 13847      735F7072 
 13847      6F746563 
 13847      74656400 
 13848              	.LASF27:
 13849 0203 4C565F52 		.ascii	"LV_RES_INV\000"
 13849      45535F49 
 13849      4E5600
 13850              	.LASF279:
 13851 020e 4C565F53 		.ascii	"LV_SIGNAL_LEAVE\000"
 13851      49474E41 
 13851      4C5F4C45 
 13851      41564500 
 13852              	.LASF269:
 13853 021e 4C565F53 		.ascii	"LV_SIGNAL_PRESSED\000"
 13853      49474E41 
 13853      4C5F5052 
 13853      45535345 
 13853      4400
 13854              	.LASF414:
 13855 0230 6C765F6F 		.ascii	"lv_obj_get_width\000"
 13855      626A5F67 
 13855      65745F77 
 13855      69647468 
 13855      00
 13856              	.LASF177:
 13857 0241 74797065 		.ascii	"type\000"
 13857      00
 13858              	.LASF244:
 13859 0246 4C565F45 		.ascii	"LV_EVENT_GESTURE\000"
 13859      56454E54 
 13859      5F474553 
 13859      54555245 
 13859      00
 13860              	.LASF237:
 13861 0257 4C565F45 		.ascii	"LV_EVENT_LONG_PRESSED\000"
ARM GAS  C:\Users\strap\AppData\Local\Temp\cc4VwSsz.s 			page 287


 13861      56454E54 
 13861      5F4C4F4E 
 13861      475F5052 
 13861      45535345 
 13862              	.LASF21:
 13863 026d 6C765F64 		.ascii	"lv_disp_drv_user_data_t\000"
 13863      6973705F 
 13863      6472765F 
 13863      75736572 
 13863      5F646174 
 13864              	.LASF365:
 13865 0285 6C765F69 		.ascii	"lv_indev_reset_long_press\000"
 13865      6E646576 
 13865      5F726573 
 13865      65745F6C 
 13865      6F6E675F 
 13866              	.LASF133:
 13867 029f 6578745F 		.ascii	"ext_attr\000"
 13867      61747472 
 13867      00
 13868              	.LASF335:
 13869 02a8 6163745F 		.ascii	"act_x\000"
 13869      7800
 13870              	.LASF336:
 13871 02ae 6163745F 		.ascii	"act_y\000"
 13871      7900
 13872              	.LASF371:
 13873 02b4 706F696E 		.ascii	"points\000"
 13873      747300
 13874              	.LASF176:
 13875 02bb 5F6C765F 		.ascii	"_lv_indev_drv_t\000"
 13875      696E6465 
 13875      765F6472 
 13875      765F7400 
 13876              	.LASF372:
 13877 02cb 6C765F69 		.ascii	"lv_indev_get_point\000"
 13877      6E646576 
 13877      5F676574 
 13877      5F706F69 
 13877      6E7400
 13878              	.LASF54:
 13879 02de 7061645F 		.ascii	"pad_all_zero\000"
 13879      616C6C5F 
 13879      7A65726F 
 13879      00
 13880              	.LASF82:
 13881 02eb 7072696F 		.ascii	"prio\000"
 13881      00
 13882              	.LASF113:
 13883 02f0 7363725F 		.ascii	"scr_ll\000"
 13883      6C6C00
 13884              	.LASF172:
 13885 02f7 706F696E 		.ascii	"point\000"
 13885      7400
 13886              	.LASF394:
 13887 02fd 696E6465 		.ascii	"indev_act\000"
 13887      765F6163 
ARM GAS  C:\Users\strap\AppData\Local\Temp\cc4VwSsz.s 			page 288


 13887      7400
 13888              	.LASF2:
 13889 0307 5F5F7569 		.ascii	"__uint8_t\000"
 13889      6E74385F 
 13889      7400
 13890              	.LASF97:
 13891 0311 7665725F 		.ascii	"ver_res\000"
 13891      72657300 
 13892              	.LASF429:
 13893 0319 6C765F6F 		.ascii	"lv_obj_set_parent\000"
 13893      626A5F73 
 13893      65745F70 
 13893      6172656E 
 13893      7400
 13894              	.LASF214:
 13895 032b 5F6C765F 		.ascii	"_lv_indev_t\000"
 13895      696E6465 
 13895      765F7400 
 13896              	.LASF404:
 13897 0337 6C765F65 		.ascii	"lv_event_send\000"
 13897      76656E74 
 13897      5F73656E 
 13897      6400
 13898              	.LASF162:
 13899 0345 4C565F44 		.ascii	"LV_DRAG_DIR_HOR\000"
 13899      5241475F 
 13899      4449525F 
 13899      484F5200 
 13900              	.LASF267:
 13901 0355 4C565F53 		.ascii	"LV_SIGNAL_GET_STATE_DSC\000"
 13901      49474E41 
 13901      4C5F4745 
 13901      545F5354 
 13901      4154455F 
 13902              	.LASF141:
 13903 036d 68696464 		.ascii	"hidden\000"
 13903      656E00
 13904              	.LASF125:
 13905 0374 6C617374 		.ascii	"last_activity_time\000"
 13905      5F616374 
 13905      69766974 
 13905      795F7469 
 13905      6D6500
 13906              	.LASF8:
 13907 0387 6C6F6E67 		.ascii	"long int\000"
 13907      20696E74 
 13907      00
 13908              	.LASF112:
 13909 0390 72656672 		.ascii	"refr_task\000"
 13909      5F746173 
 13909      6B00
 13910              	.LASF366:
 13911 039a 6C765F69 		.ascii	"lv_indev_enable\000"
 13911      6E646576 
 13911      5F656E61 
 13911      626C6500 
 13912              	.LASF100:
ARM GAS  C:\Users\strap\AppData\Local\Temp\cc4VwSsz.s 			page 289


 13913 03aa 726F7461 		.ascii	"rotated\000"
 13913      74656400 
 13914              	.LASF434:
 13915 03b2 6C765F6F 		.ascii	"lv_obj_get_click\000"
 13915      626A5F67 
 13915      65745F63 
 13915      6C69636B 
 13915      00
 13916              	.LASF201:
 13917 03c3 6C617374 		.ascii	"last_state\000"
 13917      5F737461 
 13917      746500
 13918              	.LASF304:
 13919 03ce 4C565F53 		.ascii	"LV_STATE_HOVERED\000"
 13919      54415445 
 13919      5F484F56 
 13919      45524544 
 13919      00
 13920              	.LASF121:
 13921 03df 62675F6F 		.ascii	"bg_opa\000"
 13921      706100
 13922              	.LASF307:
 13923 03e6 6C765F73 		.ascii	"lv_state_t\000"
 13923      74617465 
 13923      5F7400
 13924              	.LASF310:
 13925 03f1 5F4C565F 		.ascii	"_LV_OBJ_PART_VIRTUAL_LAST\000"
 13925      4F424A5F 
 13925      50415254 
 13925      5F564952 
 13925      5455414C 
 13926              	.LASF49:
 13927 040b 69676E6F 		.ascii	"ignore_cache\000"
 13927      72655F63 
 13927      61636865 
 13927      00
 13928              	.LASF53:
 13929 0418 7472616E 		.ascii	"transform_all_zero\000"
 13929      73666F72 
 13929      6D5F616C 
 13929      6C5F7A65 
 13929      726F00
 13930              	.LASF441:
 13931 042b 474E5520 		.ascii	"GNU C11 5.4.1 20160609 (release) [ARM/embedded-5-br"
 13931      43313120 
 13931      352E342E 
 13931      31203230 
 13931      31363036 
 13932 045e 616E6368 		.ascii	"anch revision 237715] -mcpu=cortex-m3 -mthumb -g -O"
 13932      20726576 
 13932      6973696F 
 13932      6E203233 
 13932      37373135 
 13933 0491 67202D66 		.ascii	"g -ffunction-sections -ffat-lto-objects\000"
 13933      66756E63 
 13933      74696F6E 
 13933      2D736563 
ARM GAS  C:\Users\strap\AppData\Local\Temp\cc4VwSsz.s 			page 290


 13933      74696F6E 
 13934              	.LASF42:
 13935 04b9 7374796C 		.ascii	"style_list\000"
 13935      655F6C69 
 13935      737400
 13936              	.LASF73:
 13937 04c4 68656164 		.ascii	"head\000"
 13937      00
 13938              	.LASF55:
 13939 04c9 6D617267 		.ascii	"margin_all_zero\000"
 13939      696E5F61 
 13939      6C6C5F7A 
 13939      65726F00 
 13940              	.LASF178:
 13941 04d9 72656164 		.ascii	"read_cb\000"
 13941      5F636200 
 13942              	.LASF223:
 13943 04e1 66726F7A 		.ascii	"frozen\000"
 13943      656E00
 13944              	.LASF197:
 13945 04e8 67657374 		.ascii	"gesture_sum\000"
 13945      7572655F 
 13945      73756D00 
 13946              	.LASF195:
 13947 04f4 6C617374 		.ascii	"last_pressed\000"
 13947      5F707265 
 13947      73736564 
 13947      00
 13948              	.LASF43:
 13949 0501 7374796C 		.ascii	"style_cnt\000"
 13949      655F636E 
 13949      7400
 13950              	.LASF361:
 13951 050b 696E6465 		.ascii	"indev_encoder_proc\000"
 13951      765F656E 
 13951      636F6465 
 13951      725F7072 
 13951      6F6300
 13952              	.LASF48:
 13953 051e 76616C69 		.ascii	"valid_cache\000"
 13953      645F6361 
 13953      63686500 
 13954              	.LASF316:
 13955 052a 4C565F4B 		.ascii	"LV_KEY_LEFT\000"
 13955      45595F4C 
 13955      45465400 
 13956              	.LASF103:
 13957 0536 7365745F 		.ascii	"set_px_cb\000"
 13957      70785F63 
 13957      6200
 13958              	.LASF0:
 13959 0540 7369676E 		.ascii	"signed char\000"
 13959      65642063 
 13959      68617200 
 13960              	.LASF14:
 13961 054c 75696E74 		.ascii	"uint8_t\000"
 13961      385F7400 
ARM GAS  C:\Users\strap\AppData\Local\Temp\cc4VwSsz.s 			page 291


 13962              	.LASF395:
 13963 0554 696E6465 		.ascii	"indev_obj_act\000"
 13963      765F6F62 
 13963      6A5F6163 
 13963      7400
 13964              	.LASF436:
 13965 0562 6C765F6F 		.ascii	"lv_obj_move_foreground\000"
 13965      626A5F6D 
 13965      6F76655F 
 13965      666F7265 
 13965      67726F75 
 13966              	.LASF340:
 13967 0579 6F626A5F 		.ascii	"obj_to_focus\000"
 13967      746F5F66 
 13967      6F637573 
 13967      00
 13968              	.LASF35:
 13969 0586 626C7565 		.ascii	"blue\000"
 13969      00
 13970              	.LASF332:
 13971 058b 64726167 		.ascii	"drag_obj\000"
 13971      5F6F626A 
 13971      00
 13972              	.LASF274:
 13973 0594 4C565F53 		.ascii	"LV_SIGNAL_LONG_PRESS_REP\000"
 13973      49474E41 
 13973      4C5F4C4F 
 13973      4E475F50 
 13973      52455353 
 13974              	.LASF384:
 13975 05ad 666F756E 		.ascii	"found_p\000"
 13975      645F7000 
 13976              	.LASF1:
 13977 05b5 756E7369 		.ascii	"unsigned char\000"
 13977      676E6564 
 13977      20636861 
 13977      7200
 13978              	.LASF116:
 13979 05c3 746F705F 		.ascii	"top_layer\000"
 13979      6C617965 
 13979      7200
 13980              	.LASF96:
 13981 05cd 686F725F 		.ascii	"hor_res\000"
 13981      72657300 
 13982              	.LASF264:
 13983 05d5 4C565F53 		.ascii	"LV_SIGNAL_REFR_EXT_DRAW_PAD\000"
 13983      49474E41 
 13983      4C5F5245 
 13983      46525F45 
 13983      58545F44 
 13984              	.LASF146:
 13985 05f1 64726167 		.ascii	"drag_dir\000"
 13985      5F646972 
 13985      00
 13986              	.LASF295:
 13987 05fa 4C565F50 		.ascii	"LV_PROTECT_PARENT\000"
 13987      524F5445 
ARM GAS  C:\Users\strap\AppData\Local\Temp\cc4VwSsz.s 			page 292


 13987      43545F50 
 13987      4152454E 
 13987      5400
 13988              	.LASF326:
 13989 060c 6C765F67 		.ascii	"lv_group_t\000"
 13989      726F7570 
 13989      5F7400
 13990              	.LASF79:
 13991 0617 7461736B 		.ascii	"task_cb\000"
 13991      5F636200 
 13992              	.LASF137:
 13993 061f 636C6963 		.ascii	"click\000"
 13993      6B00
 13994              	.LASF225:
 13995 0625 636C6963 		.ascii	"click_focus\000"
 13995      6B5F666F 
 13995      63757300 
 13996              	.LASF145:
 13997 0631 666F6375 		.ascii	"focus_parent\000"
 13997      735F7061 
 13997      72656E74 
 13997      00
 13998              	.LASF319:
 13999 063e 4C565F4B 		.ascii	"LV_KEY_BACKSPACE\000"
 13999      45595F42 
 13999      41434B53 
 13999      50414345 
 13999      00
 14000              	.LASF134:
 14001 064f 6578745F 		.ascii	"ext_click_pad_hor\000"
 14001      636C6963 
 14001      6B5F7061 
 14001      645F686F 
 14001      7200
 14002              	.LASF90:
 14003 0661 666C7573 		.ascii	"flushing_last\000"
 14003      68696E67 
 14003      5F6C6173 
 14003      7400
 14004              	.LASF33:
 14005 066f 5F426F6F 		.ascii	"_Bool\000"
 14005      6C00
 14006              	.LASF285:
 14007 0675 6C765F73 		.ascii	"lv_signal_cb_t\000"
 14007      69676E61 
 14007      6C5F6362 
 14007      5F7400
 14008              	.LASF123:
 14009 0684 696E765F 		.ascii	"inv_area_joined\000"
 14009      61726561 
 14009      5F6A6F69 
 14009      6E656400 
 14010              	.LASF64:
 14011 0694 73686164 		.ascii	"shadow_width_zero\000"
 14011      6F775F77 
 14011      69647468 
 14011      5F7A6572 
ARM GAS  C:\Users\strap\AppData\Local\Temp\cc4VwSsz.s 			page 293


 14011      6F00
 14012              	.LASF359:
 14013 06a6 70726576 		.ascii	"prev_key\000"
 14013      5F6B6579 
 14013      00
 14014              	.LASF425:
 14015 06af 6C765F67 		.ascii	"lv_group_get_editing\000"
 14015      726F7570 
 14015      5F676574 
 14015      5F656469 
 14015      74696E67 
 14016              	.LASF347:
 14017 06c4 70726576 		.ascii	"prev_x\000"
 14017      5F7800
 14018              	.LASF348:
 14019 06cb 70726576 		.ascii	"prev_y\000"
 14019      5F7900
 14020              	.LASF26:
 14021 06d2 63686172 		.ascii	"char\000"
 14021      00
 14022              	.LASF173:
 14023 06d7 62746E5F 		.ascii	"btn_id\000"
 14023      696400
 14024              	.LASF144:
 14025 06de 67657374 		.ascii	"gesture_parent\000"
 14025      7572655F 
 14025      70617265 
 14025      6E7400
 14026              	.LASF419:
 14027 06ed 6C765F74 		.ascii	"lv_tick_get\000"
 14027      69636B5F 
 14027      67657400 
 14028              	.LASF192:
 14029 06f9 64726167 		.ascii	"drag_throw_vect\000"
 14029      5F746872 
 14029      6F775F76 
 14029      65637400 
 14030              	.LASF345:
 14031 0709 686F725F 		.ascii	"hor_en\000"
 14031      656E00
 14032              	.LASF99:
 14033 0710 616E7469 		.ascii	"antialiasing\000"
 14033      616C6961 
 14033      73696E67 
 14033      00
 14034              	.LASF94:
 14035 071d 5F6C765F 		.ascii	"_lv_task_t\000"
 14035      7461736B 
 14035      5F7400
 14036              	.LASF5:
 14037 0728 5F5F7569 		.ascii	"__uint16_t\000"
 14037      6E743136 
 14037      5F7400
 14038              	.LASF268:
 14039 0733 4C565F53 		.ascii	"LV_SIGNAL_HIT_TEST\000"
 14039      49474E41 
 14039      4C5F4849 
ARM GAS  C:\Users\strap\AppData\Local\Temp\cc4VwSsz.s 			page 294


 14039      545F5445 
 14039      535400
 14040              	.LASF215:
 14041 0746 70726F63 		.ascii	"proc\000"
 14041      00
 14042              	.LASF417:
 14043 074b 6C765F6F 		.ascii	"lv_obj_get_gesture_parent\000"
 14043      626A5F67 
 14043      65745F67 
 14043      65737475 
 14043      72655F70 
 14044              	.LASF171:
 14045 0765 6C765F67 		.ascii	"lv_gesture_dir_t\000"
 14045      65737475 
 14045      72655F64 
 14045      69725F74 
 14045      00
 14046              	.LASF160:
 14047 0776 4C565F49 		.ascii	"LV_INDEV_STATE_PR\000"
 14047      4E444556 
 14047      5F535441 
 14047      54455F50 
 14047      5200
 14048              	.LASF132:
 14049 0788 64657369 		.ascii	"design_cb\000"
 14049      676E5F63 
 14049      6200
 14050              	.LASF421:
 14051 0792 6C765F67 		.ascii	"lv_group_set_editing\000"
 14051      726F7570 
 14051      5F736574 
 14051      5F656469 
 14051      74696E67 
 14052              	.LASF303:
 14053 07a7 4C565F53 		.ascii	"LV_STATE_EDITED\000"
 14053      54415445 
 14053      5F454449 
 14053      54454400 
 14054              	.LASF393:
 14055 07b7 6D6F7265 		.ascii	"more_to_read\000"
 14055      5F746F5F 
 14055      72656164 
 14055      00
 14056              	.LASF89:
 14057 07c4 666C7573 		.ascii	"flushing\000"
 14057      68696E67 
 14057      00
 14058              	.LASF281:
 14059 07cd 4C565F53 		.ascii	"LV_SIGNAL_DEFOCUS\000"
 14059      49474E41 
 14059      4C5F4445 
 14059      464F4355 
 14059      5300
 14060              	.LASF246:
 14061 07df 4C565F45 		.ascii	"LV_EVENT_FOCUSED\000"
 14061      56454E54 
 14061      5F464F43 
ARM GAS  C:\Users\strap\AppData\Local\Temp\cc4VwSsz.s 			page 295


 14061      55534544 
 14061      00
 14062              	.LASF203:
 14063 07f0 706F696E 		.ascii	"pointer\000"
 14063      74657200 
 14064              	.LASF60:
 14065 07f8 626F7264 		.ascii	"border_side_full\000"
 14065      65725F73 
 14065      6964655F 
 14065      66756C6C 
 14065      00
 14066              	.LASF148:
 14067 0809 67726F75 		.ascii	"group_p\000"
 14067      705F7000 
 14068              	.LASF241:
 14069 0811 4C565F45 		.ascii	"LV_EVENT_DRAG_BEGIN\000"
 14069      56454E54 
 14069      5F445241 
 14069      475F4245 
 14069      47494E00 
 14070              	.LASF139:
 14071 0825 64726167 		.ascii	"drag_throw\000"
 14071      5F746872 
 14071      6F7700
 14072              	.LASF380:
 14073 0830 6C765F69 		.ascii	"lv_indev_get_act\000"
 14073      6E646576 
 14073      5F676574 
 14073      5F616374 
 14073      00
 14074              	.LASF350:
 14075 0841 70726576 		.ascii	"prev_par_h\000"
 14075      5F706172 
 14075      5F6800
 14076              	.LASF57:
 14077 084c 62675F6F 		.ascii	"bg_opa_transp\000"
 14077      70615F74 
 14077      72616E73 
 14077      7000
 14078              	.LASF229:
 14079 085a 6C765F62 		.ascii	"lv_bidi_dir_t\000"
 14079      6964695F 
 14079      6469725F 
 14079      7400
 14080              	.LASF63:
 14081 0868 70617474 		.ascii	"pattern_img_null\000"
 14081      65726E5F 
 14081      696D675F 
 14081      6E756C6C 
 14081      00
 14082              	.LASF136:
 14083 0879 6578745F 		.ascii	"ext_draw_pad\000"
 14083      64726177 
 14083      5F706164 
 14083      00
 14084              	.LASF186:
 14085 0886 6C6F6E67 		.ascii	"long_press_rep_time\000"
ARM GAS  C:\Users\strap\AppData\Local\Temp\cc4VwSsz.s 			page 296


 14085      5F707265 
 14085      73735F72 
 14085      65705F74 
 14085      696D6500 
 14086              	.LASF31:
 14087 089a 6C765F61 		.ascii	"lv_area_t\000"
 14087      7265615F 
 14087      7400
 14088              	.LASF297:
 14089 08a4 4C565F50 		.ascii	"LV_PROTECT_FOLLOW\000"
 14089      524F5445 
 14089      43545F46 
 14089      4F4C4C4F 
 14089      5700
 14090              	.LASF98:
 14091 08b6 62756666 		.ascii	"buffer\000"
 14091      657200
 14092              	.LASF367:
 14093 08bd 6C765F69 		.ascii	"lv_indev_set_cursor\000"
 14093      6E646576 
 14093      5F736574 
 14093      5F637572 
 14093      736F7200 
 14094              	.LASF239:
 14095 08d1 4C565F45 		.ascii	"LV_EVENT_CLICKED\000"
 14095      56454E54 
 14095      5F434C49 
 14095      434B4544 
 14095      00
 14096              	.LASF408:
 14097 08e2 6C765F6F 		.ascii	"lv_obj_get_group\000"
 14097      626A5F67 
 14097      65745F67 
 14097      726F7570 
 14097      00
 14098              	.LASF329:
 14099 08f3 6765745F 		.ascii	"get_dragged_obj\000"
 14099      64726167 
 14099      6765645F 
 14099      6F626A00 
 14100              	.LASF157:
 14101 0903 4C565F49 		.ascii	"LV_INDEV_TYPE_ENCODER\000"
 14101      4E444556 
 14101      5F545950 
 14101      455F454E 
 14101      434F4445 
 14102              	.LASF252:
 14103 0919 4C565F45 		.ascii	"LV_EVENT_APPLY\000"
 14103      56454E54 
 14103      5F415050 
 14103      4C5900
 14104              	.LASF151:
 14105 0928 7265616C 		.ascii	"realign\000"
 14105      69676E00 
 14106              	.LASF243:
 14107 0930 4C565F45 		.ascii	"LV_EVENT_DRAG_THROW_BEGIN\000"
 14107      56454E54 
ARM GAS  C:\Users\strap\AppData\Local\Temp\cc4VwSsz.s 			page 297


 14107      5F445241 
 14107      475F5448 
 14107      524F575F 
 14108              	.LASF228:
 14109 094a 6C765F69 		.ascii	"lv_indev_t\000"
 14109      6E646576 
 14109      5F7400
 14110              	.LASF218:
 14111 0955 62746E5F 		.ascii	"btn_points\000"
 14111      706F696E 
 14111      747300
 14112              	.LASF265:
 14113 0960 4C565F53 		.ascii	"LV_SIGNAL_GET_TYPE\000"
 14113      49474E41 
 14113      4C5F4745 
 14113      545F5459 
 14113      504500
 14114              	.LASF212:
 14115 0973 77616974 		.ascii	"wait_until_release\000"
 14115      5F756E74 
 14115      696C5F72 
 14115      656C6561 
 14115      736500
 14116              	.LASF34:
 14117 0986 67726565 		.ascii	"green_h\000"
 14117      6E5F6800 
 14118              	.LASF36:
 14119 098e 67726565 		.ascii	"green_l\000"
 14119      6E5F6C00 
 14120              	.LASF88:
 14121 0996 61726561 		.ascii	"area\000"
 14121      00
 14122              	.LASF202:
 14123 099b 6C617374 		.ascii	"last_key\000"
 14123      5F6B6579 
 14123      00
 14124              	.LASF59:
 14125 09a4 626F7264 		.ascii	"border_width_zero\000"
 14125      65725F77 
 14125      69647468 
 14125      5F7A6572 
 14125      6F00
 14126              	.LASF41:
 14127 09b6 6C765F73 		.ascii	"lv_style_t\000"
 14127      74796C65 
 14127      5F7400
 14128              	.LASF61:
 14129 09c1 626F7264 		.ascii	"border_post_off\000"
 14129      65725F70 
 14129      6F73745F 
 14129      6F666600 
 14130              	.LASF401:
 14131 09d1 6C765F6F 		.ascii	"lv_obj_set_pos\000"
 14131      626A5F73 
 14131      65745F70 
 14131      6F7300
 14132              	.LASF211:
ARM GAS  C:\Users\strap\AppData\Local\Temp\cc4VwSsz.s 			page 298


 14133 09e0 64697361 		.ascii	"disabled\000"
 14133      626C6564 
 14133      00
 14134              	.LASF422:
 14135 09e9 6C765F67 		.ascii	"lv_group_focus_next\000"
 14135      726F7570 
 14135      5F666F63 
 14135      75735F6E 
 14135      65787400 
 14136              	.LASF266:
 14137 09fd 4C565F53 		.ascii	"LV_SIGNAL_GET_STYLE\000"
 14137      49474E41 
 14137      4C5F4745 
 14137      545F5354 
 14137      594C4500 
 14138              	.LASF248:
 14139 0a11 4C565F45 		.ascii	"LV_EVENT_LEAVE\000"
 14139      56454E54 
 14139      5F4C4541 
 14139      564500
 14140              	.LASF143:
 14141 0a20 6164765F 		.ascii	"adv_hittest\000"
 14141      68697474 
 14141      65737400 
 14142              	.LASF424:
 14143 0a2c 6C765F74 		.ascii	"lv_tick_elaps\000"
 14143      69636B5F 
 14143      656C6170 
 14143      7300
 14144              	.LASF10:
 14145 0a3a 6C6F6E67 		.ascii	"long unsigned int\000"
 14145      20756E73 
 14145      69676E65 
 14145      6420696E 
 14145      7400
 14146              	.LASF318:
 14147 0a4c 4C565F4B 		.ascii	"LV_KEY_DEL\000"
 14147      45595F44 
 14147      454C00
 14148              	.LASF323:
 14149 0a57 4C565F4B 		.ascii	"LV_KEY_HOME\000"
 14149      45595F48 
 14149      4F4D4500 
 14150              	.LASF373:
 14151 0a63 6C765F69 		.ascii	"lv_indev_get_type\000"
 14151      6E646576 
 14151      5F676574 
 14151      5F747970 
 14151      6500
 14152              	.LASF23:
 14153 0a75 6C765F6F 		.ascii	"lv_obj_user_data_t\000"
 14153      626A5F75 
 14153      7365725F 
 14153      64617461 
 14153      5F7400
 14154              	.LASF375:
 14155 0a88 6C765F69 		.ascii	"lv_indev_get_key\000"
ARM GAS  C:\Users\strap\AppData\Local\Temp\cc4VwSsz.s 			page 299


 14155      6E646576 
 14155      5F676574 
 14155      5F6B6579 
 14155      00
 14156              	.LASF410:
 14157 0a99 6C765F73 		.ascii	"lv_signal_send\000"
 14157      69676E61 
 14157      6C5F7365 
 14157      6E6400
 14158              	.LASF92:
 14159 0aa8 6C617374 		.ascii	"last_part\000"
 14159      5F706172 
 14159      7400
 14160              	.LASF381:
 14161 0ab2 6C765F69 		.ascii	"lv_indev_get_obj_act\000"
 14161      6E646576 
 14161      5F676574 
 14161      5F6F626A 
 14161      5F616374 
 14162              	.LASF362:
 14163 0ac7 65646974 		.ascii	"editable\000"
 14163      61626C65 
 14163      00
 14164              	.LASF357:
 14165 0ad0 696E6465 		.ascii	"indev_keypad_proc\000"
 14165      765F6B65 
 14165      79706164 
 14165      5F70726F 
 14165      6300
 14166              	.LASF330:
 14167 0ae2 696E6465 		.ascii	"indev_proc_reset_query_handler\000"
 14167      765F7072 
 14167      6F635F72 
 14167      65736574 
 14167      5F717565 
 14168              	.LASF220:
 14169 0b01 6F626A5F 		.ascii	"obj_ll\000"
 14169      6C6C00
 14170              	.LASF280:
 14171 0b08 4C565F53 		.ascii	"LV_SIGNAL_FOCUS\000"
 14171      49474E41 
 14171      4C5F464F 
 14171      43555300 
 14172              	.LASF341:
 14173 0b18 675F6163 		.ascii	"g_act\000"
 14173      7400
 14174              	.LASF306:
 14175 0b1e 4C565F53 		.ascii	"LV_STATE_DISABLED\000"
 14175      54415445 
 14175      5F444953 
 14175      41424C45 
 14175      4400
 14176              	.LASF251:
 14177 0b30 4C565F45 		.ascii	"LV_EVENT_REFRESH\000"
 14177      56454E54 
 14177      5F524546 
 14177      52455348 
ARM GAS  C:\Users\strap\AppData\Local\Temp\cc4VwSsz.s 			page 300


 14177      00
 14178              	.LASF95:
 14179 0b41 5F646973 		.ascii	"_disp_drv_t\000"
 14179      705F6472 
 14179      765F7400 
 14180              	.LASF217:
 14181 0b4d 67726F75 		.ascii	"group\000"
 14181      7000
 14182              	.LASF351:
 14183 0b53 696E765F 		.ascii	"inv_buf_size\000"
 14183      6275665F 
 14183      73697A65 
 14183      00
 14184              	.LASF188:
 14185 0b60 6163745F 		.ascii	"act_point\000"
 14185      706F696E 
 14185      7400
 14186              	.LASF309:
 14187 0b6a 4C565F4F 		.ascii	"LV_OBJ_PART_MAIN\000"
 14187      424A5F50 
 14187      4152545F 
 14187      4D41494E 
 14187      00
 14188              	.LASF194:
 14189 0b7b 6C617374 		.ascii	"last_obj\000"
 14189      5F6F626A 
 14189      00
 14190              	.LASF158:
 14191 0b84 6C765F69 		.ascii	"lv_indev_type_t\000"
 14191      6E646576 
 14191      5F747970 
 14191      655F7400 
 14192              	.LASF283:
 14193 0b94 4C565F53 		.ascii	"LV_SIGNAL_GET_EDITABLE\000"
 14193      49474E41 
 14193      4C5F4745 
 14193      545F4544 
 14193      49544142 
 14194              	.LASF93:
 14195 0bab 6C765F64 		.ascii	"lv_disp_buf_t\000"
 14195      6973705F 
 14195      6275665F 
 14195      7400
 14196              	.LASF156:
 14197 0bb9 4C565F49 		.ascii	"LV_INDEV_TYPE_BUTTON\000"
 14197      4E444556 
 14197      5F545950 
 14197      455F4255 
 14197      54544F4E 
 14198              	.LASF405:
 14199 0bce 6C765F6F 		.ascii	"lv_obj_get_drag_throw\000"
 14199      626A5F67 
 14199      65745F64 
 14199      7261675F 
 14199      7468726F 
 14200              	.LASF389:
 14201 0be4 696E6465 		.ascii	"indev_pointer_proc\000"
ARM GAS  C:\Users\strap\AppData\Local\Temp\cc4VwSsz.s 			page 301


 14201      765F706F 
 14201      696E7465 
 14201      725F7072 
 14201      6F6300
 14202              	.LASF105:
 14203 0bf7 77616974 		.ascii	"wait_cb\000"
 14203      5F636200 
 14204              	.LASF9:
 14205 0bff 5F5F7569 		.ascii	"__uint32_t\000"
 14205      6E743332 
 14205      5F7400
 14206              	.LASF130:
 14207 0c0a 6576656E 		.ascii	"event_cb\000"
 14207      745F6362 
 14207      00
 14208              	.LASF411:
 14209 0c13 6C765F6F 		.ascii	"lv_obj_get_focused_obj\000"
 14209      626A5F67 
 14209      65745F66 
 14209      6F637573 
 14209      65645F6F 
 14210              	.LASF11:
 14211 0c2a 6C6F6E67 		.ascii	"long long int\000"
 14211      206C6F6E 
 14211      6720696E 
 14211      7400
 14212              	.LASF69:
 14213 0c38 74657874 		.ascii	"text_font_normal\000"
 14213      5F666F6E 
 14213      745F6E6F 
 14213      726D616C 
 14213      00
 14214              	.LASF386:
 14215 0c49 696E6465 		.ascii	"indev_proc_press\000"
 14215      765F7072 
 14215      6F635F70 
 14215      72657373 
 14215      00
 14216              	.LASF354:
 14217 0c5a 6E65775F 		.ascii	"new_inv_buf_size\000"
 14217      696E765F 
 14217      6275665F 
 14217      73697A65 
 14217      00
 14218              	.LASF278:
 14219 0c6b 4C565F53 		.ascii	"LV_SIGNAL_GESTURE\000"
 14219      49474E41 
 14219      4C5F4745 
 14219      53545552 
 14219      4500
 14220              	.LASF164:
 14221 0c7d 4C565F44 		.ascii	"LV_DRAG_DIR_BOTH\000"
 14221      5241475F 
 14221      4449525F 
 14221      424F5448 
 14221      00
 14222              	.LASF282:
ARM GAS  C:\Users\strap\AppData\Local\Temp\cc4VwSsz.s 			page 302


 14223 0c8e 4C565F53 		.ascii	"LV_SIGNAL_CONTROL\000"
 14223      49474E41 
 14223      4C5F434F 
 14223      4E54524F 
 14223      4C00
 14224              	.LASF165:
 14225 0ca0 4C565F44 		.ascii	"LV_DRAG_DIR_ONE\000"
 14225      5241475F 
 14225      4449525F 
 14225      4F4E4500 
 14226              	.LASF128:
 14227 0cb0 6368696C 		.ascii	"child_ll\000"
 14227      645F6C6C 
 14227      00
 14228              	.LASF431:
 14229 0cb9 6C765F6F 		.ascii	"lv_obj_get_hidden\000"
 14229      626A5F67 
 14229      65745F68 
 14229      69646465 
 14229      6E00
 14230              	.LASF149:
 14231 0ccb 70726F74 		.ascii	"protect\000"
 14231      65637400 
 14232              	.LASF84:
 14233 0cd3 62756631 		.ascii	"buf1\000"
 14233      00
 14234              	.LASF85:
 14235 0cd8 62756632 		.ascii	"buf2\000"
 14235      00
 14236              	.LASF189:
 14237 0cdd 6C617374 		.ascii	"last_point\000"
 14237      5F706F69 
 14237      6E7400
 14238              	.LASF320:
 14239 0ce8 4C565F4B 		.ascii	"LV_KEY_ENTER\000"
 14239      45595F45 
 14239      4E544552 
 14239      00
 14240              	.LASF193:
 14241 0cf5 6163745F 		.ascii	"act_obj\000"
 14241      6F626A00 
 14242              	.LASF142:
 14243 0cfd 70617265 		.ascii	"parent_event\000"
 14243      6E745F65 
 14243      76656E74 
 14243      00
 14244              	.LASF258:
 14245 0d0a 4C565F53 		.ascii	"LV_SIGNAL_CLEANUP\000"
 14245      49474E41 
 14245      4C5F434C 
 14245      45414E55 
 14245      5000
 14246              	.LASF127:
 14247 0d1c 70617265 		.ascii	"parent\000"
 14247      6E7400
 14248              	.LASF413:
 14249 0d23 5F6C765F 		.ascii	"_lv_disp_pop_from_inv_buf\000"
ARM GAS  C:\Users\strap\AppData\Local\Temp\cc4VwSsz.s 			page 303


 14249      64697370 
 14249      5F706F70 
 14249      5F66726F 
 14249      6D5F696E 
 14250              	.LASF289:
 14251 0d3d 616C6967 		.ascii	"align\000"
 14251      6E00
 14252              	.LASF418:
 14253 0d43 6C765F67 		.ascii	"lv_group_get_focused\000"
 14253      726F7570 
 14253      5F676574 
 14253      5F666F63 
 14253      75736564 
 14254              	.LASF349:
 14255 0d58 70726576 		.ascii	"prev_par_w\000"
 14255      5F706172 
 14255      5F7700
 14256              	.LASF333:
 14257 0d63 616C6C6F 		.ascii	"allowed_dirs\000"
 14257      7765645F 
 14257      64697273 
 14257      00
 14258              	.LASF104:
 14259 0d70 6D6F6E69 		.ascii	"monitor_cb\000"
 14259      746F725F 
 14259      636200
 14260              	.LASF46:
 14261 0d7b 736B6970 		.ascii	"skip_trans\000"
 14261      5F747261 
 14261      6E7300
 14262              	.LASF328:
 14263 0d86 696E6465 		.ascii	"indev_reset_check\000"
 14263      765F7265 
 14263      7365745F 
 14263      63686563 
 14263      6B00
 14264              	.LASF287:
 14265 0d98 786F6673 		.ascii	"xofs\000"
 14265      00
 14266              	.LASF254:
 14267 0d9d 4C565F45 		.ascii	"LV_EVENT_DELETE\000"
 14267      56454E54 
 14267      5F44454C 
 14267      45544500 
 14268              	.LASF379:
 14269 0dad 6C765F69 		.ascii	"lv_indev_wait_release\000"
 14269      6E646576 
 14269      5F776169 
 14269      745F7265 
 14269      6C656173 
 14270              	.LASF13:
 14271 0dc3 756E7369 		.ascii	"unsigned int\000"
 14271      676E6564 
 14271      20696E74 
 14271      00
 14272              	.LASF259:
 14273 0dd0 4C565F53 		.ascii	"LV_SIGNAL_CHILD_CHG\000"
ARM GAS  C:\Users\strap\AppData\Local\Temp\cc4VwSsz.s 			page 304


 14273      49474E41 
 14273      4C5F4348 
 14273      494C445F 
 14273      43484700 
 14274              	.LASF233:
 14275 0de4 4C565F45 		.ascii	"LV_EVENT_PRESSED\000"
 14275      56454E54 
 14275      5F505245 
 14275      53534544 
 14275      00
 14276              	.LASF180:
 14277 0df5 64697370 		.ascii	"disp\000"
 14277      00
 14278              	.LASF311:
 14279 0dfa 5F4C565F 		.ascii	"_LV_OBJ_PART_REAL_LAST\000"
 14279      4F424A5F 
 14279      50415254 
 14279      5F524541 
 14279      4C5F4C41 
 14280              	.LASF174:
 14281 0e11 656E635F 		.ascii	"enc_diff\000"
 14281      64696666 
 14281      00
 14282              	.LASF343:
 14283 0e1a 696E6465 		.ascii	"indev_drag\000"
 14283      765F6472 
 14283      616700
 14284              	.LASF249:
 14285 0e25 4C565F45 		.ascii	"LV_EVENT_VALUE_CHANGED\000"
 14285      56454E54 
 14285      5F56414C 
 14285      55455F43 
 14285      48414E47 
 14286              	.LASF122:
 14287 0e3c 696E765F 		.ascii	"inv_areas\000"
 14287      61726561 
 14287      7300
 14288              	.LASF364:
 14289 0e46 5F6C765F 		.ascii	"_lv_indev_init\000"
 14289      696E6465 
 14289      765F696E 
 14289      697400
 14290              	.LASF284:
 14291 0e55 6C765F73 		.ascii	"lv_signal_t\000"
 14291      69676E61 
 14291      6C5F7400 
 14292              	.LASF290:
 14293 0e61 6175746F 		.ascii	"auto_realign\000"
 14293      5F726561 
 14293      6C69676E 
 14293      00
 14294              	.LASF339:
 14295 0e6e 696E6465 		.ascii	"indev_click_focus\000"
 14295      765F636C 
 14295      69636B5F 
 14295      666F6375 
 14295      7300
ARM GAS  C:\Users\strap\AppData\Local\Temp\cc4VwSsz.s 			page 305


 14296              	.LASF50:
 14297 0e80 72616469 		.ascii	"radius_zero\000"
 14297      75735F7A 
 14297      65726F00 
 14298              	.LASF390:
 14299 0e8c 696E6465 		.ascii	"indev_button_proc\000"
 14299      765F6275 
 14299      74746F6E 
 14299      5F70726F 
 14299      6300
 14300              	.LASF234:
 14301 0e9e 4C565F45 		.ascii	"LV_EVENT_PRESSING\000"
 14301      56454E54 
 14301      5F505245 
 14301      5353494E 
 14301      4700
 14302              	.LASF110:
 14303 0eb0 5F646973 		.ascii	"_disp_t\000"
 14303      705F7400 
 14304              	.LASF368:
 14305 0eb8 6375725F 		.ascii	"cur_obj\000"
 14305      6F626A00 
 14306              	.LASF321:
 14307 0ec0 4C565F4B 		.ascii	"LV_KEY_NEXT\000"
 14307      45595F4E 
 14307      45585400 
 14308              	.LASF270:
 14309 0ecc 4C565F53 		.ascii	"LV_SIGNAL_PRESSING\000"
 14309      49474E41 
 14309      4C5F5052 
 14309      45535349 
 14309      4E4700
 14310              	.LASF236:
 14311 0edf 4C565F45 		.ascii	"LV_EVENT_SHORT_CLICKED\000"
 14311      56454E54 
 14311      5F53484F 
 14311      52545F43 
 14311      4C49434B 
 14312              	.LASF427:
 14313 0ef6 6C765F69 		.ascii	"lv_indev_get_next\000"
 14313      6E646576 
 14313      5F676574 
 14313      5F6E6578 
 14313      7400
 14314              	.LASF238:
 14315 0f08 4C565F45 		.ascii	"LV_EVENT_LONG_PRESSED_REPEAT\000"
 14315      56454E54 
 14315      5F4C4F4E 
 14315      475F5052 
 14315      45535345 
 14316              	.LASF163:
 14317 0f25 4C565F44 		.ascii	"LV_DRAG_DIR_VER\000"
 14317      5241475F 
 14317      4449525F 
 14317      56455200 
 14318              	.LASF222:
 14319 0f35 666F6375 		.ascii	"focus_cb\000"
ARM GAS  C:\Users\strap\AppData\Local\Temp\cc4VwSsz.s 			page 306


 14319      735F6362 
 14319      00
 14320              	.LASF68:
 14321 0f3e 74657874 		.ascii	"text_decor_none\000"
 14321      5F646563 
 14321      6F725F6E 
 14321      6F6E6500 
 14322              	.LASF363:
 14323 0f4e 6C765F69 		.ascii	"lv_indev_reset\000"
 14323      6E646576 
 14323      5F726573 
 14323      657400
 14324              	.LASF305:
 14325 0f5d 4C565F53 		.ascii	"LV_STATE_PRESSED\000"
 14325      54415445 
 14325      5F505245 
 14325      53534544 
 14325      00
 14326              	.LASF29:
 14327 0f6e 6C765F72 		.ascii	"lv_res_t\000"
 14327      65735F74 
 14327      00
 14328              	.LASF400:
 14329 0f77 6C765F6F 		.ascii	"lv_obj_get_y\000"
 14329      626A5F67 
 14329      65745F79 
 14329      00
 14330              	.LASF86:
 14331 0f84 6275665F 		.ascii	"buf_act\000"
 14331      61637400 
 14332              	.LASF342:
 14333 0f8c 675F7072 		.ascii	"g_prev\000"
 14333      657600
 14334              	.LASF24:
 14335 0f93 6C6F6E67 		.ascii	"long double\000"
 14335      20646F75 
 14335      626C6500 
 14336              	.LASF166:
 14337 0f9f 6C765F64 		.ascii	"lv_drag_dir_t\000"
 14337      7261675F 
 14337      6469725F 
 14337      7400
 14338              	.LASF190:
 14339 0fad 76656374 		.ascii	"vect\000"
 14339      00
 14340              	.LASF51:
 14341 0fb2 6F70615F 		.ascii	"opa_scale_cover\000"
 14341      7363616C 
 14341      655F636F 
 14341      76657200 
 14342              	.LASF191:
 14343 0fc2 64726167 		.ascii	"drag_sum\000"
 14343      5F73756D 
 14343      00
 14344              	.LASF293:
 14345 0fcb 4C565F50 		.ascii	"LV_PROTECT_NONE\000"
 14345      524F5445 
ARM GAS  C:\Users\strap\AppData\Local\Temp\cc4VwSsz.s 			page 307


 14345      43545F4E 
 14345      4F4E4500 
 14346              	.LASF154:
 14347 0fdb 4C565F49 		.ascii	"LV_INDEV_TYPE_POINTER\000"
 14347      4E444556 
 14347      5F545950 
 14347      455F504F 
 14347      494E5445 
 14348              	.LASF207:
 14349 0ff1 70725F74 		.ascii	"pr_timestamp\000"
 14349      696D6573 
 14349      74616D70 
 14349      00
 14350              	.LASF230:
 14351 0ffe 6C765F64 		.ascii	"lv_design_mode_t\000"
 14351      65736967 
 14351      6E5F6D6F 
 14351      64655F74 
 14351      00
 14352              	.LASF242:
 14353 100f 4C565F45 		.ascii	"LV_EVENT_DRAG_END\000"
 14353      56454E54 
 14353      5F445241 
 14353      475F454E 
 14353      4400
 14354              	.LASF439:
 14355 1021 6C765F6F 		.ascii	"lv_obj_get_state\000"
 14355      626A5F67 
 14355      65745F73 
 14355      74617465 
 14355      00
 14356              	.LASF181:
 14357 1032 72656164 		.ascii	"read_task\000"
 14357      5F746173 
 14357      6B00
 14358              	.LASF22:
 14359 103c 6C765F69 		.ascii	"lv_indev_drv_user_data_t\000"
 14359      6E646576 
 14359      5F647276 
 14359      5F757365 
 14359      725F6461 
 14360              	.LASF271:
 14361 1055 4C565F53 		.ascii	"LV_SIGNAL_PRESS_LOST\000"
 14361      49474E41 
 14361      4C5F5052 
 14361      4553535F 
 14361      4C4F5354 
 14362              	.LASF324:
 14363 106a 4C565F4B 		.ascii	"LV_KEY_END\000"
 14363      45595F45 
 14363      4E4400
 14364              	.LASF179:
 14365 1075 66656564 		.ascii	"feedback_cb\000"
 14365      6261636B 
 14365      5F636200 
 14366              	.LASF277:
 14367 1081 4C565F53 		.ascii	"LV_SIGNAL_DRAG_END\000"
ARM GAS  C:\Users\strap\AppData\Local\Temp\cc4VwSsz.s 			page 308


 14367      49474E41 
 14367      4C5F4452 
 14367      41475F45 
 14367      4E4400
 14368              	.LASF331:
 14369 1094 696E6465 		.ascii	"indev_drag_throw\000"
 14369      765F6472 
 14369      61675F74 
 14369      68726F77 
 14369      00
 14370              	.LASF44:
 14371 10a5 6861735F 		.ascii	"has_local\000"
 14371      6C6F6361 
 14371      6C00
 14372              	.LASF442:
 14373 10af 6C76676C 		.ascii	"lvgl\\src\\lv_core\\lv_indev.c\000"
 14373      5C737263 
 14373      5C6C765F 
 14373      636F7265 
 14373      5C6C765F 
 14374              	.LASF261:
 14375 10cb 4C565F53 		.ascii	"LV_SIGNAL_PARENT_SIZE_CHG\000"
 14375      49474E41 
 14375      4C5F5041 
 14375      52454E54 
 14375      5F53495A 
 14376              	.LASF253:
 14377 10e5 4C565F45 		.ascii	"LV_EVENT_CANCEL\000"
 14377      56454E54 
 14377      5F43414E 
 14377      43454C00 
 14378              	.LASF167:
 14379 10f5 4C565F47 		.ascii	"LV_GESTURE_DIR_TOP\000"
 14379      45535455 
 14379      52455F44 
 14379      49525F54 
 14379      4F5000
 14380              	.LASF272:
 14381 1108 4C565F53 		.ascii	"LV_SIGNAL_RELEASED\000"
 14381      49474E41 
 14381      4C5F5245 
 14381      4C454153 
 14381      454400
 14382              	.LASF438:
 14383 111b 6C765F64 		.ascii	"lv_disp_get_scr_act\000"
 14383      6973705F 
 14383      6765745F 
 14383      7363725F 
 14383      61637400 
 14384              	.LASF385:
 14385 112f 68696464 		.ascii	"hidden_i\000"
 14385      656E5F69 
 14385      00
 14386              	.LASF205:
 14387 1138 5F6C765F 		.ascii	"_lv_indev_proc_t\000"
 14387      696E6465 
 14387      765F7072 
ARM GAS  C:\Users\strap\AppData\Local\Temp\cc4VwSsz.s 			page 309


 14387      6F635F74 
 14387      00
 14388              	.LASF169:
 14389 1149 4C565F47 		.ascii	"LV_GESTURE_DIR_LEFT\000"
 14389      45535455 
 14389      52455F44 
 14389      49525F4C 
 14389      45465400 
 14390              	.LASF292:
 14391 115d 6C765F72 		.ascii	"lv_realign_t\000"
 14391      65616C69 
 14391      676E5F74 
 14391      00
 14392              	.LASF107:
 14393 116a 6770755F 		.ascii	"gpu_wait_cb\000"
 14393      77616974 
 14393      5F636200 
 14394              	.LASF20:
 14395 1176 6C765F67 		.ascii	"lv_group_user_data_t\000"
 14395      726F7570 
 14395      5F757365 
 14395      725F6461 
 14395      74615F74 
 14396              	.LASF87:
 14397 118b 73697A65 		.ascii	"size\000"
 14397      00
 14398              	.LASF56:
 14399 1190 626C656E 		.ascii	"blend_mode_all_normal\000"
 14399      645F6D6F 
 14399      64655F61 
 14399      6C6C5F6E 
 14399      6F726D61 
 14400              	.LASF185:
 14401 11a6 6C6F6E67 		.ascii	"long_press_time\000"
 14401      5F707265 
 14401      73735F74 
 14401      696D6500 
 14402              	.LASF12:
 14403 11b6 6C6F6E67 		.ascii	"long long unsigned int\000"
 14403      206C6F6E 
 14403      6720756E 
 14403      7369676E 
 14403      65642069 
 14404              	.LASF117:
 14405 11cd 7379735F 		.ascii	"sys_layer\000"
 14405      6C617965 
 14405      7200
 14406              	.LASF299:
 14407 11d7 4C565F50 		.ascii	"LV_PROTECT_CLICK_FOCUS\000"
 14407      524F5445 
 14407      43545F43 
 14407      4C49434B 
 14407      5F464F43 
 14408              	.LASF106:
 14409 11ee 636C6561 		.ascii	"clean_dcache_cb\000"
 14409      6E5F6463 
 14409      61636865 
ARM GAS  C:\Users\strap\AppData\Local\Temp\cc4VwSsz.s 			page 310


 14409      5F636200 
 14410              	.LASF16:
 14411 11fe 75696E74 		.ascii	"uint16_t\000"
 14411      31365F74 
 14411      00
 14412              	.LASF28:
 14413 1207 4C565F52 		.ascii	"LV_RES_OK\000"
 14413      45535F4F 
 14413      4B00
 14414              	.LASF78:
 14415 1211 6C617374 		.ascii	"last_run\000"
 14415      5F72756E 
 14415      00
 14416              	.LASF227:
 14417 121a 77726170 		.ascii	"wrap\000"
 14417      00
 14418              	.LASF39:
 14419 121f 6C765F63 		.ascii	"lv_color_t\000"
 14419      6F6C6F72 
 14419      5F7400
 14420              	.LASF355:
 14421 122a 696E6465 		.ascii	"indev_gesture\000"
 14421      765F6765 
 14421      73747572 
 14421      6500
 14422              	.LASF288:
 14423 1238 796F6673 		.ascii	"yofs\000"
 14423      00
 14424              	.LASF338:
 14425 123d 696E6465 		.ascii	"indev_proc_release\000"
 14425      765F7072 
 14425      6F635F72 
 14425      656C6561 
 14425      736500
 14426              	.LASF353:
 14427 1250 6163745F 		.ascii	"act_par_h\000"
 14427      7061725F 
 14427      6800
 14428              	.LASF210:
 14429 125a 72657365 		.ascii	"reset_query\000"
 14429      745F7175 
 14429      65727900 
 14430              	.LASF83:
 14431 1266 6C765F74 		.ascii	"lv_task_t\000"
 14431      61736B5F 
 14431      7400
 14432              	.LASF291:
 14433 1270 6D69645F 		.ascii	"mid_align\000"
 14433      616C6967 
 14433      6E00
 14434              	.LASF352:
 14435 127a 6163745F 		.ascii	"act_par_w\000"
 14435      7061725F 
 14435      7700
 14436              	.LASF344:
 14437 1284 64726167 		.ascii	"drag_just_started\000"
 14437      5F6A7573 
ARM GAS  C:\Users\strap\AppData\Local\Temp\cc4VwSsz.s 			page 311


 14437      745F7374 
 14437      61727465 
 14437      6400
 14438              	.LASF67:
 14439 1296 74657874 		.ascii	"text_space_zero\000"
 14439      5F737061 
 14439      63655F7A 
 14439      65726F00 
 14440              	.LASF155:
 14441 12a6 4C565F49 		.ascii	"LV_INDEV_TYPE_KEYPAD\000"
 14441      4E444556 
 14441      5F545950 
 14441      455F4B45 
 14441      59504144 
 14442              	.LASF314:
 14443 12bb 4C565F4B 		.ascii	"LV_KEY_DOWN\000"
 14443      45595F44 
 14443      4F574E00 
 14444              	.LASF317:
 14445 12c7 4C565F4B 		.ascii	"LV_KEY_ESC\000"
 14445      45595F45 
 14445      534300
 14446              	.LASF391:
 14447 12d2 5F6C765F 		.ascii	"_lv_indev_read_task\000"
 14447      696E6465 
 14447      765F7265 
 14447      61645F74 
 14447      61736B00 
 14448              	.LASF360:
 14449 12e6 70726576 		.ascii	"prev_state\000"
 14449      5F737461 
 14449      746500
 14450              	.LASF77:
 14451 12f1 70657269 		.ascii	"period\000"
 14451      6F6400
 14452              	.LASF102:
 14453 12f8 726F756E 		.ascii	"rounder_cb\000"
 14453      6465725F 
 14453      636200
 14454              	.LASF346:
 14455 1303 7665725F 		.ascii	"ver_en\000"
 14455      656E00
 14456              	.LASF135:
 14457 130a 6578745F 		.ascii	"ext_click_pad_ver\000"
 14457      636C6963 
 14457      6B5F7061 
 14457      645F7665 
 14457      7200
 14458              	.LASF433:
 14459 131c 5F6C765F 		.ascii	"_lv_ll_get_next\000"
 14459      6C6C5F67 
 14459      65745F6E 
 14459      65787400 
 14460              	.LASF3:
 14461 132c 5F5F696E 		.ascii	"__int16_t\000"
 14461      7431365F 
 14461      7400
ARM GAS  C:\Users\strap\AppData\Local\Temp\cc4VwSsz.s 			page 312


 14462              	.LASF208:
 14463 1336 6C6F6E67 		.ascii	"longpr_rep_timestamp\000"
 14463      70725F72 
 14463      65705F74 
 14463      696D6573 
 14463      74616D70 
 14464              	.LASF337:
 14465 134b 636F6F72 		.ascii	"coord_new\000"
 14465      645F6E65 
 14465      7700
 14466              	.LASF199:
 14467 1355 64726167 		.ascii	"drag_in_prog\000"
 14467      5F696E5F 
 14467      70726F67 
 14467      00
 14468              	.LASF356:
 14469 1362 67657374 		.ascii	"gesture_obj\000"
 14469      7572655F 
 14469      6F626A00 
 14470              	.LASF415:
 14471 136e 6C765F6F 		.ascii	"lv_obj_get_height\000"
 14471      626A5F67 
 14471      65745F68 
 14471      65696768 
 14471      7400
 14472              	.LASF37:
 14473 1380 66756C6C 		.ascii	"full\000"
 14473      00
 14474              	.LASF437:
 14475 1385 6C765F64 		.ascii	"lv_disp_get_layer_top\000"
 14475      6973705F 
 14475      6765745F 
 14475      6C617965 
 14475      725F746F 
 14476              	.LASF70:
 14477 139b 6C765F73 		.ascii	"lv_style_list_t\000"
 14477      74796C65 
 14477      5F6C6973 
 14477      745F7400 
 14478              	.LASF409:
 14479 13ab 6C765F67 		.ascii	"lv_group_focus_obj\000"
 14479      726F7570 
 14479      5F666F63 
 14479      75735F6F 
 14479      626A00
 14480              	.LASF198:
 14481 13be 64726167 		.ascii	"drag_limit_out\000"
 14481      5F6C696D 
 14481      69745F6F 
 14481      757400
 14482              	.LASF196:
 14483 13cd 67657374 		.ascii	"gesture_dir\000"
 14483      7572655F 
 14483      64697200 
 14484              	.LASF399:
 14485 13d9 6C765F6F 		.ascii	"lv_obj_get_x\000"
 14485      626A5F67 
ARM GAS  C:\Users\strap\AppData\Local\Temp\cc4VwSsz.s 			page 313


 14485      65745F78 
 14485      00
 14486              	.LASF308:
 14487 13e6 6C765F6F 		.ascii	"lv_obj_t\000"
 14487      626A5F74 
 14487      00
 14488              	.LASF200:
 14489 13ef 67657374 		.ascii	"gesture_sent\000"
 14489      7572655F 
 14489      73656E74 
 14489      00
 14490              	.LASF187:
 14491 13fc 6C765F69 		.ascii	"lv_indev_drv_t\000"
 14491      6E646576 
 14491      5F647276 
 14491      5F7400
 14492              	.LASF138:
 14493 140b 64726167 		.ascii	"drag\000"
 14493      00
 14494              	.LASF334:
 14495 1410 636F6F72 		.ascii	"coords_ori\000"
 14495      64735F6F 
 14495      726900
 14496              	.LASF126:
 14497 141b 5F6C765F 		.ascii	"_lv_obj_t\000"
 14497      6F626A5F 
 14497      7400
 14498              	.LASF312:
 14499 1425 4C565F4F 		.ascii	"LV_OBJ_PART_ALL\000"
 14499      424A5F50 
 14499      4152545F 
 14499      414C4C00 
 14500              	.LASF161:
 14501 1435 6C765F69 		.ascii	"lv_indev_state_t\000"
 14501      6E646576 
 14501      5F737461 
 14501      74655F74 
 14501      00
 14502              	.LASF111:
 14503 1446 64726976 		.ascii	"driver\000"
 14503      657200
 14504              	.LASF147:
 14505 144d 62617365 		.ascii	"base_dir\000"
 14505      5F646972 
 14505      00
 14506              	.LASF294:
 14507 1456 4C565F50 		.ascii	"LV_PROTECT_CHILD_CHG\000"
 14507      524F5445 
 14507      43545F43 
 14507      48494C44 
 14507      5F434847 
 14508              	.LASF298:
 14509 146b 4C565F50 		.ascii	"LV_PROTECT_PRESS_LOST\000"
 14509      524F5445 
 14509      43545F50 
 14509      52455353 
 14509      5F4C4F53 
ARM GAS  C:\Users\strap\AppData\Local\Temp\cc4VwSsz.s 			page 314


 14510              	.LASF115:
 14511 1481 70726576 		.ascii	"prev_scr\000"
 14511      5F736372 
 14511      00
 14512              	.LASF430:
 14513 148a 6C765F6F 		.ascii	"lv_obj_set_click\000"
 14513      626A5F73 
 14513      65745F63 
 14513      6C69636B 
 14513      00
 14514              	.LASF300:
 14515 149b 4C565F53 		.ascii	"LV_STATE_DEFAULT\000"
 14515      54415445 
 14515      5F444546 
 14515      41554C54 
 14515      00
 14516              	.LASF420:
 14517 14ac 6C765F67 		.ascii	"lv_group_send_data\000"
 14517      726F7570 
 14517      5F73656E 
 14517      645F6461 
 14517      746100
 14518              	.LASF322:
 14519 14bf 4C565F4B 		.ascii	"LV_KEY_PREV\000"
 14519      45595F50 
 14519      52455600 
 14520              	.LASF286:
 14521 14cb 62617365 		.ascii	"base\000"
 14521      00
 14522              	.LASF38:
 14523 14d0 6C765F63 		.ascii	"lv_color16_t\000"
 14523      6F6C6F72 
 14523      31365F74 
 14523      00
 14524              	.LASF4:
 14525 14dd 73686F72 		.ascii	"short int\000"
 14525      7420696E 
 14525      7400
 14526              	.LASF224:
 14527 14e7 65646974 		.ascii	"editing\000"
 14527      696E6700 
 14528              	.LASF124:
 14529 14ef 696E765F 		.ascii	"inv_p\000"
 14529      7000
 14530              	.LASF75:
 14531 14f5 6C765F6C 		.ascii	"lv_ll_t\000"
 14531      6C5F7400 
 14532              	.LASF426:
 14533 14fd 5F6C765F 		.ascii	"_lv_ll_is_empty\000"
 14533      6C6C5F69 
 14533      735F656D 
 14533      70747900 
 14534              	.LASF412:
 14535 150d 6C765F64 		.ascii	"lv_disp_get_inv_buf_size\000"
 14535      6973705F 
 14535      6765745F 
 14535      696E765F 
ARM GAS  C:\Users\strap\AppData\Local\Temp\cc4VwSsz.s 			page 315


 14535      6275665F 
 14536              	.LASF65:
 14537 1526 76616C75 		.ascii	"value_txt_str\000"
 14537      655F7478 
 14537      745F7374 
 14537      7200
 14538              	.LASF170:
 14539 1534 4C565F47 		.ascii	"LV_GESTURE_DIR_RIGHT\000"
 14539      45535455 
 14539      52455F44 
 14539      49525F52 
 14539      49474854 
 14540              	.LASF15:
 14541 1549 696E7431 		.ascii	"int16_t\000"
 14541      365F7400 
 14542              	.LASF129:
 14543 1551 636F6F72 		.ascii	"coords\000"
 14543      647300
 14544              	.LASF327:
 14545 1558 696E6465 		.ascii	"indev\000"
 14545      7600
 14546              	.LASF58:
 14547 155e 62675F6F 		.ascii	"bg_opa_cover\000"
 14547      70615F63 
 14547      6F766572 
 14547      00
 14548              	.LASF301:
 14549 156b 4C565F53 		.ascii	"LV_STATE_CHECKED\000"
 14549      54415445 
 14549      5F434845 
 14549      434B4544 
 14549      00
 14550              	.LASF91:
 14551 157c 6C617374 		.ascii	"last_area\000"
 14551      5F617265 
 14551      6100
 14552              	.LASF435:
 14553 1586 6C765F6F 		.ascii	"lv_obj_hittest\000"
 14553      626A5F68 
 14553      69747465 
 14553      737400
 14554              	.LASF118:
 14555 1595 64656C5F 		.ascii	"del_prev\000"
 14555      70726576 
 14555      00
 14556              	.LASF255:
 14557 159e 5F4C565F 		.ascii	"_LV_EVENT_LAST\000"
 14557      4556454E 
 14557      545F4C41 
 14557      535400
 14558              	.LASF120:
 14559 15ad 62675F69 		.ascii	"bg_img\000"
 14559      6D6700
 14560              	.LASF392:
 14561 15b4 7461736B 		.ascii	"task\000"
 14561      00
 14562              	.LASF213:
ARM GAS  C:\Users\strap\AppData\Local\Temp\cc4VwSsz.s 			page 316


 14563 15b9 6C765F69 		.ascii	"lv_indev_proc_t\000"
 14563      6E646576 
 14563      5F70726F 
 14563      635F7400 
 14564              	.LASF247:
 14565 15c9 4C565F45 		.ascii	"LV_EVENT_DEFOCUSED\000"
 14565      56454E54 
 14565      5F444546 
 14565      4F435553 
 14565      454400
 14566              	.LASF397:
 14567 15dc 6C765F6F 		.ascii	"lv_obj_get_drag_parent\000"
 14567      626A5F67 
 14567      65745F64 
 14567      7261675F 
 14567      70617265 
 14568              	.LASF62:
 14569 15f3 6F75746C 		.ascii	"outline_width_zero\000"
 14569      696E655F 
 14569      77696474 
 14569      685F7A65 
 14569      726F00
 14570              	.LASF140:
 14571 1606 64726167 		.ascii	"drag_parent\000"
 14571      5F706172 
 14571      656E7400 
 14572              	.LASF406:
 14573 1612 6C765F6F 		.ascii	"lv_obj_get_drag_dir\000"
 14573      626A5F67 
 14573      65745F64 
 14573      7261675F 
 14573      64697200 
 14574              	.LASF263:
 14575 1626 4C565F53 		.ascii	"LV_SIGNAL_BASE_DIR_CHG\000"
 14575      49474E41 
 14575      4C5F4241 
 14575      53455F44 
 14575      49525F43 
 14576              	.LASF396:
 14577 163d 6C765F6F 		.ascii	"lv_obj_get_parent\000"
 14577      626A5F67 
 14577      65745F70 
 14577      6172656E 
 14577      7400
 14578              	.LASF182:
 14579 164f 64726167 		.ascii	"drag_limit\000"
 14579      5F6C696D 
 14579      697400
 14580              	.LASF109:
 14581 165a 6C765F64 		.ascii	"lv_disp_drv_t\000"
 14581      6973705F 
 14581      6472765F 
 14581      7400
 14582              	.LASF66:
 14583 1668 696D675F 		.ascii	"img_recolor_opa_transp\000"
 14583      7265636F 
 14583      6C6F725F 
ARM GAS  C:\Users\strap\AppData\Local\Temp\cc4VwSsz.s 			page 317


 14583      6F70615F 
 14583      7472616E 
 14584              	.LASF175:
 14585 167f 6C765F69 		.ascii	"lv_indev_data_t\000"
 14585      6E646576 
 14585      5F646174 
 14585      615F7400 
 14586              	.LASF382:
 14587 168f 6C765F69 		.ascii	"lv_indev_get_read_task\000"
 14587      6E646576 
 14587      5F676574 
 14587      5F726561 
 14587      645F7461 
 14588              	.LASF378:
 14589 16a6 6C765F69 		.ascii	"lv_indev_finish_drag\000"
 14589      6E646576 
 14589      5F66696E 
 14589      6973685F 
 14589      64726167 
 14590              	.LASF131:
 14591 16bb 7369676E 		.ascii	"signal_cb\000"
 14591      616C5F63 
 14591      6200
 14592              	.LASF440:
 14593 16c5 5F6C765F 		.ascii	"_lv_indev_read\000"
 14593      696E6465 
 14593      765F7265 
 14593      616400
 14594              	.LASF374:
 14595 16d4 6C765F69 		.ascii	"lv_indev_get_gesture_dir\000"
 14595      6E646576 
 14595      5F676574 
 14595      5F676573 
 14595      74757265 
 14596              	.LASF18:
 14597 16ed 75696E74 		.ascii	"uint32_t\000"
 14597      33325F74 
 14597      00
 14598              	.LASF387:
 14599 16f6 6E65775F 		.ascii	"new_obj_searched\000"
 14599      6F626A5F 
 14599      73656172 
 14599      63686564 
 14599      00
 14600              	.LASF388:
 14601 1707 6C617374 		.ascii	"last_top\000"
 14601      5F746F70 
 14601      00
 14602              	.LASF402:
 14603 1710 6C765F6F 		.ascii	"lv_obj_set_x\000"
 14603      626A5F73 
 14603      65745F78 
 14603      00
 14604              	.LASF403:
 14605 171d 6C765F6F 		.ascii	"lv_obj_set_y\000"
 14605      626A5F73 
 14605      65745F79 
ARM GAS  C:\Users\strap\AppData\Local\Temp\cc4VwSsz.s 			page 318


 14605      00
 14606              	.LASF159:
 14607 172a 4C565F49 		.ascii	"LV_INDEV_STATE_REL\000"
 14607      4E444556 
 14607      5F535441 
 14607      54455F52 
 14607      454C00
 14608              	.LASF398:
 14609 173d 6C765F6F 		.ascii	"lv_obj_get_coords\000"
 14609      626A5F67 
 14609      65745F63 
 14609      6F6F7264 
 14609      7300
 14610              	.LASF204:
 14611 174f 6B657970 		.ascii	"keypad\000"
 14611      616400
 14612              	.LASF183:
 14613 1756 67657374 		.ascii	"gesture_min_velocity\000"
 14613      7572655F 
 14613      6D696E5F 
 14613      76656C6F 
 14613      63697479 
 14614              	.LASF47:
 14615 176b 69676E6F 		.ascii	"ignore_trans\000"
 14615      72655F74 
 14615      72616E73 
 14615      00
 14616              	.LASF6:
 14617 1778 73686F72 		.ascii	"short unsigned int\000"
 14617      7420756E 
 14617      7369676E 
 14617      65642069 
 14617      6E7400
 14618              	.LASF245:
 14619 178b 4C565F45 		.ascii	"LV_EVENT_KEY\000"
 14619      56454E54 
 14619      5F4B4559 
 14619      00
 14620              	.LASF19:
 14621 1798 6C765F63 		.ascii	"lv_coord_t\000"
 14621      6F6F7264 
 14621      5F7400
 14622              	.LASF153:
 14623 17a3 4C565F49 		.ascii	"LV_INDEV_TYPE_NONE\000"
 14623      4E444556 
 14623      5F545950 
 14623      455F4E4F 
 14623      4E4500
 14624              	.LASF101:
 14625 17b6 666C7573 		.ascii	"flush_cb\000"
 14625      685F6362 
 14625      00
 14626              	.LASF80:
 14627 17bf 75736572 		.ascii	"user_data\000"
 14627      5F646174 
 14627      6100
 14628              	.LASF235:
ARM GAS  C:\Users\strap\AppData\Local\Temp\cc4VwSsz.s 			page 319


 14629 17c9 4C565F45 		.ascii	"LV_EVENT_PRESS_LOST\000"
 14629      56454E54 
 14629      5F505245 
 14629      53535F4C 
 14629      4F535400 
 14630              	.LASF376:
 14631 17dd 6C765F69 		.ascii	"lv_indev_is_dragging\000"
 14631      6E646576 
 14631      5F69735F 
 14631      64726167 
 14631      67696E67 
 14632              	.LASF7:
 14633 17f2 5F5F696E 		.ascii	"__int32_t\000"
 14633      7433325F 
 14633      7400
 14634              	.LASF432:
 14635 17fc 5F6C765F 		.ascii	"_lv_ll_get_head\000"
 14635      6C6C5F67 
 14635      65745F68 
 14635      65616400 
 14636              	.LASF226:
 14637 180c 7265666F 		.ascii	"refocus_policy\000"
 14637      6375735F 
 14637      706F6C69 
 14637      637900
 14638              	.LASF209:
 14639 181b 6C6F6E67 		.ascii	"long_pr_sent\000"
 14639      5F70725F 
 14639      73656E74 
 14639      00
 14640              	.LASF257:
 14641 1828 6C765F65 		.ascii	"lv_event_cb_t\000"
 14641      76656E74 
 14641      5F63625F 
 14641      7400
 14642              	.LASF302:
 14643 1836 4C565F53 		.ascii	"LV_STATE_FOCUSED\000"
 14643      54415445 
 14643      5F464F43 
 14643      55534544 
 14643      00
 14644              	.LASF313:
 14645 1847 4C565F4B 		.ascii	"LV_KEY_UP\000"
 14645      45595F55 
 14645      5000
 14646              	.LASF184:
 14647 1851 67657374 		.ascii	"gesture_limit\000"
 14647      7572655F 
 14647      6C696D69 
 14647      7400
 14648              	.LASF45:
 14649 185f 6861735F 		.ascii	"has_trans\000"
 14649      7472616E 
 14649      7300
 14650              	.LASF76:
 14651 1869 6C765F74 		.ascii	"lv_task_cb_t\000"
 14651      61736B5F 
ARM GAS  C:\Users\strap\AppData\Local\Temp\cc4VwSsz.s 			page 320


 14651      63625F74 
 14651      00
 14652              	.LASF358:
 14653 1876 64617461 		.ascii	"data\000"
 14653      00
 14654              	.LASF260:
 14655 187b 4C565F53 		.ascii	"LV_SIGNAL_COORD_CHG\000"
 14655      49474E41 
 14655      4C5F434F 
 14655      4F52445F 
 14655      43484700 
 14656              	.LASF377:
 14657 188f 6C765F69 		.ascii	"lv_indev_get_vect\000"
 14657      6E646576 
 14657      5F676574 
 14657      5F766563 
 14657      7400
 14658              	.LASF206:
 14659 18a1 74797065 		.ascii	"types\000"
 14659      7300
 14660              	.LASF423:
 14661 18a7 6C765F67 		.ascii	"lv_group_focus_prev\000"
 14661      726F7570 
 14661      5F666F63 
 14661      75735F70 
 14661      72657600 
 14662              	.LASF72:
 14663 18bb 6E5F7369 		.ascii	"n_size\000"
 14663      7A6500
 14664              	.LASF216:
 14665 18c2 63757273 		.ascii	"cursor\000"
 14665      6F7200
 14666              	.LASF219:
 14667 18c9 5F6C765F 		.ascii	"_lv_group_t\000"
 14667      67726F75 
 14667      705F7400 
 14668              	.LASF240:
 14669 18d5 4C565F45 		.ascii	"LV_EVENT_RELEASED\000"
 14669      56454E54 
 14669      5F52454C 
 14669      45415345 
 14669      4400
 14670              	.LASF325:
 14671 18e7 6C765F67 		.ascii	"lv_group_focus_cb_t\000"
 14671      726F7570 
 14671      5F666F63 
 14671      75735F63 
 14671      625F7400 
 14672              	.LASF232:
 14673 18fb 6C765F64 		.ascii	"lv_design_cb_t\000"
 14673      65736967 
 14673      6E5F6362 
 14673      5F7400
 14674              	.LASF221:
 14675 190a 6F626A5F 		.ascii	"obj_focus\000"
 14675      666F6375 
 14675      7300
ARM GAS  C:\Users\strap\AppData\Local\Temp\cc4VwSsz.s 			page 321


 14676              		.ident	"GCC: (GNU Tools for ARM Embedded Processors) 5.4.1 20160609 (release) [ARM/embedded-5-bran
