ARM GAS  C:\Users\strap\AppData\Local\Temp\cctVSytp.s 			page 1


   1              		.syntax unified
   2              		.cpu cortex-m3
   3              		.fpu softvfp
   4              		.eabi_attribute 20, 1
   5              		.eabi_attribute 21, 1
   6              		.eabi_attribute 23, 3
   7              		.eabi_attribute 24, 1
   8              		.eabi_attribute 25, 1
   9              		.eabi_attribute 26, 1
  10              		.eabi_attribute 30, 1
  11              		.eabi_attribute 34, 1
  12              		.eabi_attribute 18, 4
  13              		.thumb
  14              		.syntax unified
  15              		.file	"lv_led.c"
  16              		.text
  17              	.Ltext0:
  18              		.cfi_sections	.debug_frame
  19              		.section	.text.lv_led_signal,"ax",%progbits
  20              		.align	2
  21              		.thumb
  22              		.thumb_func
  23              		.type	lv_led_signal, %function
  24              	lv_led_signal:
  25              	.LFB335:
  26              		.file 1 "lvgl\\src\\lv_widgets\\lv_led.c"
   1:lvgl\src\lv_widgets/lv_led.c **** /**
   2:lvgl\src\lv_widgets/lv_led.c ****  * @file lv_led.c
   3:lvgl\src\lv_widgets/lv_led.c ****  *
   4:lvgl\src\lv_widgets/lv_led.c ****  */
   5:lvgl\src\lv_widgets/lv_led.c **** 
   6:lvgl\src\lv_widgets/lv_led.c **** /*********************
   7:lvgl\src\lv_widgets/lv_led.c ****  *      INCLUDES
   8:lvgl\src\lv_widgets/lv_led.c ****  *********************/
   9:lvgl\src\lv_widgets/lv_led.c **** #include "lv_led.h"
  10:lvgl\src\lv_widgets/lv_led.c **** #if LV_USE_LED != 0
  11:lvgl\src\lv_widgets/lv_led.c **** 
  12:lvgl\src\lv_widgets/lv_led.c **** #include "../lv_misc/lv_debug.h"
  13:lvgl\src\lv_widgets/lv_led.c **** #include "../lv_themes/lv_theme.h"
  14:lvgl\src\lv_widgets/lv_led.c **** #include "../lv_draw/lv_draw.h"
  15:lvgl\src\lv_widgets/lv_led.c **** 
  16:lvgl\src\lv_widgets/lv_led.c **** /*********************
  17:lvgl\src\lv_widgets/lv_led.c ****  *      DEFINES
  18:lvgl\src\lv_widgets/lv_led.c ****  *********************/
  19:lvgl\src\lv_widgets/lv_led.c **** #define LV_OBJX_NAME "lv_led"
  20:lvgl\src\lv_widgets/lv_led.c **** 
  21:lvgl\src\lv_widgets/lv_led.c **** #define LV_LED_WIDTH_DEF (LV_DPI / 3)
  22:lvgl\src\lv_widgets/lv_led.c **** #define LV_LED_HEIGHT_DEF (LV_DPI / 3)
  23:lvgl\src\lv_widgets/lv_led.c **** 
  24:lvgl\src\lv_widgets/lv_led.c **** /**********************
  25:lvgl\src\lv_widgets/lv_led.c ****  *      TYPEDEFS
  26:lvgl\src\lv_widgets/lv_led.c ****  **********************/
  27:lvgl\src\lv_widgets/lv_led.c **** 
  28:lvgl\src\lv_widgets/lv_led.c **** /**********************
  29:lvgl\src\lv_widgets/lv_led.c ****  *  STATIC PROTOTYPES
  30:lvgl\src\lv_widgets/lv_led.c ****  **********************/
  31:lvgl\src\lv_widgets/lv_led.c **** static lv_design_res_t lv_led_design(lv_obj_t * led, const lv_area_t * clip_area, lv_design_mode_t 
ARM GAS  C:\Users\strap\AppData\Local\Temp\cctVSytp.s 			page 2


  32:lvgl\src\lv_widgets/lv_led.c **** static lv_res_t lv_led_signal(lv_obj_t * led, lv_signal_t sign, void * param);
  33:lvgl\src\lv_widgets/lv_led.c **** 
  34:lvgl\src\lv_widgets/lv_led.c **** /**********************
  35:lvgl\src\lv_widgets/lv_led.c ****  *  STATIC VARIABLES
  36:lvgl\src\lv_widgets/lv_led.c ****  **********************/
  37:lvgl\src\lv_widgets/lv_led.c **** static lv_design_cb_t ancestor_design;
  38:lvgl\src\lv_widgets/lv_led.c **** static lv_signal_cb_t ancestor_signal;
  39:lvgl\src\lv_widgets/lv_led.c **** 
  40:lvgl\src\lv_widgets/lv_led.c **** /**********************
  41:lvgl\src\lv_widgets/lv_led.c ****  *      MACROS
  42:lvgl\src\lv_widgets/lv_led.c ****  **********************/
  43:lvgl\src\lv_widgets/lv_led.c **** 
  44:lvgl\src\lv_widgets/lv_led.c **** /**********************
  45:lvgl\src\lv_widgets/lv_led.c ****  *   GLOBAL FUNCTIONS
  46:lvgl\src\lv_widgets/lv_led.c ****  **********************/
  47:lvgl\src\lv_widgets/lv_led.c **** 
  48:lvgl\src\lv_widgets/lv_led.c **** /**
  49:lvgl\src\lv_widgets/lv_led.c ****  * Create a led objects
  50:lvgl\src\lv_widgets/lv_led.c ****  * @param par pointer to an object, it will be the parent of the new led
  51:lvgl\src\lv_widgets/lv_led.c ****  * @param copy pointer to a led object, if not NULL then the new object will be copied from it
  52:lvgl\src\lv_widgets/lv_led.c ****  * @return pointer to the created led
  53:lvgl\src\lv_widgets/lv_led.c ****  */
  54:lvgl\src\lv_widgets/lv_led.c **** lv_obj_t * lv_led_create(lv_obj_t * par, const lv_obj_t * copy)
  55:lvgl\src\lv_widgets/lv_led.c **** {
  56:lvgl\src\lv_widgets/lv_led.c ****     LV_LOG_TRACE("led create started");
  57:lvgl\src\lv_widgets/lv_led.c **** 
  58:lvgl\src\lv_widgets/lv_led.c ****     /*Create the ancestor basic object*/
  59:lvgl\src\lv_widgets/lv_led.c ****     lv_obj_t * led = lv_obj_create(par, copy);
  60:lvgl\src\lv_widgets/lv_led.c ****     LV_ASSERT_MEM(led);
  61:lvgl\src\lv_widgets/lv_led.c ****     if(led == NULL) return NULL;
  62:lvgl\src\lv_widgets/lv_led.c **** 
  63:lvgl\src\lv_widgets/lv_led.c ****     if(ancestor_signal == NULL) ancestor_signal = lv_obj_get_signal_cb(led);
  64:lvgl\src\lv_widgets/lv_led.c ****     if(ancestor_design == NULL) ancestor_design = lv_obj_get_design_cb(led);
  65:lvgl\src\lv_widgets/lv_led.c **** 
  66:lvgl\src\lv_widgets/lv_led.c ****     /*Allocate the object type specific extended data*/
  67:lvgl\src\lv_widgets/lv_led.c ****     lv_led_ext_t * ext = lv_obj_allocate_ext_attr(led, sizeof(lv_led_ext_t));
  68:lvgl\src\lv_widgets/lv_led.c ****     LV_ASSERT_MEM(ext);
  69:lvgl\src\lv_widgets/lv_led.c ****     if(ext == NULL) {
  70:lvgl\src\lv_widgets/lv_led.c ****         lv_obj_del(led);
  71:lvgl\src\lv_widgets/lv_led.c ****         return NULL;
  72:lvgl\src\lv_widgets/lv_led.c ****     }
  73:lvgl\src\lv_widgets/lv_led.c **** 
  74:lvgl\src\lv_widgets/lv_led.c ****     ext->bright = LV_LED_BRIGHT_MAX;
  75:lvgl\src\lv_widgets/lv_led.c **** 
  76:lvgl\src\lv_widgets/lv_led.c ****     lv_obj_set_signal_cb(led, lv_led_signal);
  77:lvgl\src\lv_widgets/lv_led.c ****     lv_obj_set_design_cb(led, lv_led_design);
  78:lvgl\src\lv_widgets/lv_led.c **** 
  79:lvgl\src\lv_widgets/lv_led.c ****     /*Init the new led object*/
  80:lvgl\src\lv_widgets/lv_led.c ****     if(copy == NULL) {
  81:lvgl\src\lv_widgets/lv_led.c ****         lv_obj_set_size(led, LV_LED_WIDTH_DEF, LV_LED_HEIGHT_DEF);
  82:lvgl\src\lv_widgets/lv_led.c **** 
  83:lvgl\src\lv_widgets/lv_led.c ****         lv_theme_apply(led, LV_THEME_LED);
  84:lvgl\src\lv_widgets/lv_led.c ****     }
  85:lvgl\src\lv_widgets/lv_led.c ****     /*Copy an existing object*/
  86:lvgl\src\lv_widgets/lv_led.c ****     else {
  87:lvgl\src\lv_widgets/lv_led.c ****         lv_led_ext_t * copy_ext = lv_obj_get_ext_attr(copy);
  88:lvgl\src\lv_widgets/lv_led.c ****         ext->bright             = copy_ext->bright;
ARM GAS  C:\Users\strap\AppData\Local\Temp\cctVSytp.s 			page 3


  89:lvgl\src\lv_widgets/lv_led.c **** 
  90:lvgl\src\lv_widgets/lv_led.c ****         /*Refresh the style with new signal function*/
  91:lvgl\src\lv_widgets/lv_led.c ****         lv_obj_refresh_style(led, LV_OBJ_PART_ALL, LV_STYLE_PROP_ALL);
  92:lvgl\src\lv_widgets/lv_led.c ****     }
  93:lvgl\src\lv_widgets/lv_led.c **** 
  94:lvgl\src\lv_widgets/lv_led.c ****     LV_LOG_INFO("led created");
  95:lvgl\src\lv_widgets/lv_led.c **** 
  96:lvgl\src\lv_widgets/lv_led.c ****     return led;
  97:lvgl\src\lv_widgets/lv_led.c **** }
  98:lvgl\src\lv_widgets/lv_led.c **** 
  99:lvgl\src\lv_widgets/lv_led.c **** /*=====================
 100:lvgl\src\lv_widgets/lv_led.c ****  * Setter functions
 101:lvgl\src\lv_widgets/lv_led.c ****  *====================*/
 102:lvgl\src\lv_widgets/lv_led.c **** 
 103:lvgl\src\lv_widgets/lv_led.c **** /**
 104:lvgl\src\lv_widgets/lv_led.c ****  * Set the brightness of a LED object
 105:lvgl\src\lv_widgets/lv_led.c ****  * @param led pointer to a LED object
 106:lvgl\src\lv_widgets/lv_led.c ****  * @param bright LV_LED_BRIGHT_MIN (max. dark) ... LV_LED_BRIGHT_MAX (max. light)
 107:lvgl\src\lv_widgets/lv_led.c ****  */
 108:lvgl\src\lv_widgets/lv_led.c **** void lv_led_set_bright(lv_obj_t * led, uint8_t bright)
 109:lvgl\src\lv_widgets/lv_led.c **** {
 110:lvgl\src\lv_widgets/lv_led.c ****     LV_ASSERT_OBJ(led, LV_OBJX_NAME);
 111:lvgl\src\lv_widgets/lv_led.c **** 
 112:lvgl\src\lv_widgets/lv_led.c ****     /*Set the brightness*/
 113:lvgl\src\lv_widgets/lv_led.c ****     lv_led_ext_t * ext = lv_obj_get_ext_attr(led);
 114:lvgl\src\lv_widgets/lv_led.c ****     if(ext->bright == bright) return;
 115:lvgl\src\lv_widgets/lv_led.c **** 
 116:lvgl\src\lv_widgets/lv_led.c ****     if(bright <= LV_LED_BRIGHT_MIN) bright = LV_LED_BRIGHT_MIN;
 117:lvgl\src\lv_widgets/lv_led.c ****     if(bright >= LV_LED_BRIGHT_MAX) bright = LV_LED_BRIGHT_MAX;
 118:lvgl\src\lv_widgets/lv_led.c **** 
 119:lvgl\src\lv_widgets/lv_led.c ****     ext->bright = bright;
 120:lvgl\src\lv_widgets/lv_led.c **** 
 121:lvgl\src\lv_widgets/lv_led.c ****     /*Invalidate the object there fore it will be redrawn*/
 122:lvgl\src\lv_widgets/lv_led.c ****     lv_obj_invalidate(led);
 123:lvgl\src\lv_widgets/lv_led.c **** }
 124:lvgl\src\lv_widgets/lv_led.c **** 
 125:lvgl\src\lv_widgets/lv_led.c **** /**
 126:lvgl\src\lv_widgets/lv_led.c ****  * Light on a LED
 127:lvgl\src\lv_widgets/lv_led.c ****  * @param led pointer to a LED object
 128:lvgl\src\lv_widgets/lv_led.c ****  */
 129:lvgl\src\lv_widgets/lv_led.c **** void lv_led_on(lv_obj_t * led)
 130:lvgl\src\lv_widgets/lv_led.c **** {
 131:lvgl\src\lv_widgets/lv_led.c ****     LV_ASSERT_OBJ(led, LV_OBJX_NAME);
 132:lvgl\src\lv_widgets/lv_led.c **** 
 133:lvgl\src\lv_widgets/lv_led.c ****     lv_led_set_bright(led, LV_LED_BRIGHT_MAX);
 134:lvgl\src\lv_widgets/lv_led.c **** }
 135:lvgl\src\lv_widgets/lv_led.c **** 
 136:lvgl\src\lv_widgets/lv_led.c **** /**
 137:lvgl\src\lv_widgets/lv_led.c ****  * Light off a LED
 138:lvgl\src\lv_widgets/lv_led.c ****  * @param led pointer to a LED object
 139:lvgl\src\lv_widgets/lv_led.c ****  */
 140:lvgl\src\lv_widgets/lv_led.c **** void lv_led_off(lv_obj_t * led)
 141:lvgl\src\lv_widgets/lv_led.c **** {
 142:lvgl\src\lv_widgets/lv_led.c ****     LV_ASSERT_OBJ(led, LV_OBJX_NAME);
 143:lvgl\src\lv_widgets/lv_led.c **** 
 144:lvgl\src\lv_widgets/lv_led.c ****     lv_led_set_bright(led, LV_LED_BRIGHT_MIN);
 145:lvgl\src\lv_widgets/lv_led.c **** }
ARM GAS  C:\Users\strap\AppData\Local\Temp\cctVSytp.s 			page 4


 146:lvgl\src\lv_widgets/lv_led.c **** 
 147:lvgl\src\lv_widgets/lv_led.c **** /**
 148:lvgl\src\lv_widgets/lv_led.c ****  * Toggle the state of a LED
 149:lvgl\src\lv_widgets/lv_led.c ****  * @param led pointer to a LED object
 150:lvgl\src\lv_widgets/lv_led.c ****  */
 151:lvgl\src\lv_widgets/lv_led.c **** void lv_led_toggle(lv_obj_t * led)
 152:lvgl\src\lv_widgets/lv_led.c **** {
 153:lvgl\src\lv_widgets/lv_led.c ****     LV_ASSERT_OBJ(led, LV_OBJX_NAME);
 154:lvgl\src\lv_widgets/lv_led.c **** 
 155:lvgl\src\lv_widgets/lv_led.c ****     uint8_t bright = lv_led_get_bright(led);
 156:lvgl\src\lv_widgets/lv_led.c ****     if(bright > (LV_LED_BRIGHT_MIN + LV_LED_BRIGHT_MAX) >> 1)
 157:lvgl\src\lv_widgets/lv_led.c ****         lv_led_off(led);
 158:lvgl\src\lv_widgets/lv_led.c ****     else
 159:lvgl\src\lv_widgets/lv_led.c ****         lv_led_on(led);
 160:lvgl\src\lv_widgets/lv_led.c **** }
 161:lvgl\src\lv_widgets/lv_led.c **** 
 162:lvgl\src\lv_widgets/lv_led.c **** /*=====================
 163:lvgl\src\lv_widgets/lv_led.c ****  * Getter functions
 164:lvgl\src\lv_widgets/lv_led.c ****  *====================*/
 165:lvgl\src\lv_widgets/lv_led.c **** 
 166:lvgl\src\lv_widgets/lv_led.c **** /**
 167:lvgl\src\lv_widgets/lv_led.c ****  * Get the brightness of a LEd object
 168:lvgl\src\lv_widgets/lv_led.c ****  * @param led pointer to LED object
 169:lvgl\src\lv_widgets/lv_led.c ****  * @return bright 0 (max. dark) ... 255 (max. light)
 170:lvgl\src\lv_widgets/lv_led.c ****  */
 171:lvgl\src\lv_widgets/lv_led.c **** uint8_t lv_led_get_bright(const lv_obj_t * led)
 172:lvgl\src\lv_widgets/lv_led.c **** {
 173:lvgl\src\lv_widgets/lv_led.c ****     LV_ASSERT_OBJ(led, LV_OBJX_NAME);
 174:lvgl\src\lv_widgets/lv_led.c **** 
 175:lvgl\src\lv_widgets/lv_led.c ****     lv_led_ext_t * ext = lv_obj_get_ext_attr(led);
 176:lvgl\src\lv_widgets/lv_led.c ****     return ext->bright;
 177:lvgl\src\lv_widgets/lv_led.c **** }
 178:lvgl\src\lv_widgets/lv_led.c **** 
 179:lvgl\src\lv_widgets/lv_led.c **** /**********************
 180:lvgl\src\lv_widgets/lv_led.c ****  *   STATIC FUNCTIONS
 181:lvgl\src\lv_widgets/lv_led.c ****  **********************/
 182:lvgl\src\lv_widgets/lv_led.c **** 
 183:lvgl\src\lv_widgets/lv_led.c **** /**
 184:lvgl\src\lv_widgets/lv_led.c ****  * Handle the drawing related tasks of the leds
 185:lvgl\src\lv_widgets/lv_led.c ****  * @param led pointer to an object
 186:lvgl\src\lv_widgets/lv_led.c ****  * @param clip_area the object will be drawn only in this area
 187:lvgl\src\lv_widgets/lv_led.c ****  * @param mode LV_DESIGN_COVER_CHK: only check if the object fully covers the 'mask_p' area
 188:lvgl\src\lv_widgets/lv_led.c ****  *                                  (return 'true' if yes)
 189:lvgl\src\lv_widgets/lv_led.c ****  *             LV_DESIGN_DRAW: draw the object (always return 'true')
 190:lvgl\src\lv_widgets/lv_led.c ****  *             LV_DESIGN_DRAW_POST: drawing after every children are drawn
 191:lvgl\src\lv_widgets/lv_led.c ****  * @param return an element of `lv_design_res_t`
 192:lvgl\src\lv_widgets/lv_led.c ****  */
 193:lvgl\src\lv_widgets/lv_led.c **** static lv_design_res_t lv_led_design(lv_obj_t * led, const lv_area_t * clip_area, lv_design_mode_t 
 194:lvgl\src\lv_widgets/lv_led.c **** {
 195:lvgl\src\lv_widgets/lv_led.c ****     if(mode == LV_DESIGN_COVER_CHK) {
 196:lvgl\src\lv_widgets/lv_led.c ****         /*Return false if the object is not covers the clip_area area*/
 197:lvgl\src\lv_widgets/lv_led.c ****         return ancestor_design(led, clip_area, mode);
 198:lvgl\src\lv_widgets/lv_led.c ****     }
 199:lvgl\src\lv_widgets/lv_led.c ****     else if(mode == LV_DESIGN_DRAW_MAIN) {
 200:lvgl\src\lv_widgets/lv_led.c ****         /*Make darker colors in a temporary style according to the brightness*/
 201:lvgl\src\lv_widgets/lv_led.c ****         lv_led_ext_t * ext       = lv_obj_get_ext_attr(led);
 202:lvgl\src\lv_widgets/lv_led.c **** 
ARM GAS  C:\Users\strap\AppData\Local\Temp\cctVSytp.s 			page 5


 203:lvgl\src\lv_widgets/lv_led.c ****         lv_draw_rect_dsc_t rect_dsc;
 204:lvgl\src\lv_widgets/lv_led.c ****         lv_draw_rect_dsc_init(&rect_dsc);
 205:lvgl\src\lv_widgets/lv_led.c ****         lv_obj_init_draw_rect_dsc(led, LV_LED_PART_MAIN, &rect_dsc);
 206:lvgl\src\lv_widgets/lv_led.c **** 
 207:lvgl\src\lv_widgets/lv_led.c ****         /*Mix. the color with black proportionally with brightness*/
 208:lvgl\src\lv_widgets/lv_led.c ****         rect_dsc.bg_color   = lv_color_mix(rect_dsc.bg_color, LV_COLOR_BLACK, ext->bright);
 209:lvgl\src\lv_widgets/lv_led.c ****         rect_dsc.bg_grad_color   = lv_color_mix(rect_dsc.bg_grad_color, LV_COLOR_BLACK, ext->bright
 210:lvgl\src\lv_widgets/lv_led.c ****         rect_dsc.border_color = lv_color_mix(rect_dsc.border_color, LV_COLOR_BLACK, ext->bright);
 211:lvgl\src\lv_widgets/lv_led.c ****         rect_dsc.shadow_color = lv_color_mix(rect_dsc.shadow_color, LV_COLOR_BLACK, ext->bright);
 212:lvgl\src\lv_widgets/lv_led.c **** 
 213:lvgl\src\lv_widgets/lv_led.c ****         /*Set the current shadow width according to brightness proportionally between LV_LED_BRIGHT
 214:lvgl\src\lv_widgets/lv_led.c ****          * and LV_LED_BRIGHT_ON*/
 215:lvgl\src\lv_widgets/lv_led.c ****         rect_dsc.shadow_width = ((ext->bright - LV_LED_BRIGHT_MIN) * rect_dsc.shadow_width) /
 216:lvgl\src\lv_widgets/lv_led.c ****                                 (LV_LED_BRIGHT_MAX - LV_LED_BRIGHT_MIN);
 217:lvgl\src\lv_widgets/lv_led.c ****         rect_dsc.shadow_spread = ((ext->bright - LV_LED_BRIGHT_MIN) * rect_dsc.shadow_spread) /
 218:lvgl\src\lv_widgets/lv_led.c ****                                  (LV_LED_BRIGHT_MAX - LV_LED_BRIGHT_MIN);
 219:lvgl\src\lv_widgets/lv_led.c **** 
 220:lvgl\src\lv_widgets/lv_led.c ****         lv_draw_rect(&led->coords, clip_area, &rect_dsc);
 221:lvgl\src\lv_widgets/lv_led.c ****     }
 222:lvgl\src\lv_widgets/lv_led.c ****     return LV_DESIGN_RES_OK;
 223:lvgl\src\lv_widgets/lv_led.c **** }
 224:lvgl\src\lv_widgets/lv_led.c **** 
 225:lvgl\src\lv_widgets/lv_led.c **** /**
 226:lvgl\src\lv_widgets/lv_led.c ****  * Signal function of the led
 227:lvgl\src\lv_widgets/lv_led.c ****  * @param led pointer to a led object
 228:lvgl\src\lv_widgets/lv_led.c ****  * @param sign a signal type from lv_signal_t enum
 229:lvgl\src\lv_widgets/lv_led.c ****  * @param param pointer to a signal specific variable
 230:lvgl\src\lv_widgets/lv_led.c ****  * @return LV_RES_OK: the object is not deleted in the function; LV_RES_INV: the object is deleted
 231:lvgl\src\lv_widgets/lv_led.c ****  */
 232:lvgl\src\lv_widgets/lv_led.c **** static lv_res_t lv_led_signal(lv_obj_t * led, lv_signal_t sign, void * param)
 233:lvgl\src\lv_widgets/lv_led.c **** {
  27              		.loc 1 233 0
  28              		.cfi_startproc
  29              		@ args = 0, pretend = 0, frame = 0
  30              		@ frame_needed = 0, uses_anonymous_args = 0
  31              	.LVL0:
  32 0000 38B5     		push	{r3, r4, r5, lr}
  33              		.cfi_def_cfa_offset 16
  34              		.cfi_offset 3, -16
  35              		.cfi_offset 4, -12
  36              		.cfi_offset 5, -8
  37              		.cfi_offset 14, -4
  38 0002 0D46     		mov	r5, r1
  39 0004 1446     		mov	r4, r2
 234:lvgl\src\lv_widgets/lv_led.c ****     lv_res_t res;
 235:lvgl\src\lv_widgets/lv_led.c **** 
 236:lvgl\src\lv_widgets/lv_led.c ****     /* Include the ancient signal function */
 237:lvgl\src\lv_widgets/lv_led.c ****     res = ancestor_signal(led, sign, param);
  40              		.loc 1 237 0
  41 0006 0A4B     		ldr	r3, .L8
  42 0008 1B68     		ldr	r3, [r3]
  43 000a 9847     		blx	r3
  44              	.LVL1:
 238:lvgl\src\lv_widgets/lv_led.c ****     if(res != LV_RES_OK) return res;
  45              		.loc 1 238 0
  46 000c 0128     		cmp	r0, #1
  47 000e 0ED1     		bne	.L2
ARM GAS  C:\Users\strap\AppData\Local\Temp\cctVSytp.s 			page 6


 239:lvgl\src\lv_widgets/lv_led.c **** 
 240:lvgl\src\lv_widgets/lv_led.c ****     if(sign == LV_SIGNAL_GET_TYPE) {
  48              		.loc 1 240 0
  49 0010 072D     		cmp	r5, #7
  50 0012 0CD1     		bne	.L2
  51 0014 05E0     		b	.L6
  52              	.LVL2:
  53              	.L5:
  54              	.LBB2:
 241:lvgl\src\lv_widgets/lv_led.c ****         lv_obj_type_t * buf = param;
 242:lvgl\src\lv_widgets/lv_led.c ****         uint8_t i;
 243:lvgl\src\lv_widgets/lv_led.c ****         for(i = 0; i < LV_MAX_ANCESTOR_NUM - 1; i++) { /*Find the last set data*/
 244:lvgl\src\lv_widgets/lv_led.c ****             if(buf->type[i] == NULL) break;
  55              		.loc 1 244 0
  56 0016 54F82320 		ldr	r2, [r4, r3, lsl #2]
  57 001a 2AB1     		cbz	r2, .L4
 243:lvgl\src\lv_widgets/lv_led.c ****             if(buf->type[i] == NULL) break;
  58              		.loc 1 243 0 discriminator 2
  59 001c 0133     		adds	r3, r3, #1
  60              	.LVL3:
  61 001e DBB2     		uxtb	r3, r3
  62              	.LVL4:
  63 0020 00E0     		b	.L3
  64              	.LVL5:
  65              	.L6:
  66              	.LBE2:
  67 0022 0023     		movs	r3, #0
  68              	.L3:
  69              	.LVL6:
  70              	.LBB3:
 243:lvgl\src\lv_widgets/lv_led.c ****             if(buf->type[i] == NULL) break;
  71              		.loc 1 243 0 is_stmt 0 discriminator 1
  72 0024 062B     		cmp	r3, #6
  73 0026 F6D9     		bls	.L5
  74              	.L4:
 245:lvgl\src\lv_widgets/lv_led.c ****         }
 246:lvgl\src\lv_widgets/lv_led.c ****         buf->type[i] = "lv_led";
  75              		.loc 1 246 0 is_stmt 1
  76 0028 024A     		ldr	r2, .L8+4
  77 002a 44F82320 		str	r2, [r4, r3, lsl #2]
  78              	.LVL7:
  79              	.L2:
  80              	.LBE3:
 247:lvgl\src\lv_widgets/lv_led.c ****     }
 248:lvgl\src\lv_widgets/lv_led.c **** 
 249:lvgl\src\lv_widgets/lv_led.c ****     return res;
 250:lvgl\src\lv_widgets/lv_led.c **** }
  81              		.loc 1 250 0
  82 002e 38BD     		pop	{r3, r4, r5, pc}
  83              	.LVL8:
  84              	.L9:
  85              		.align	2
  86              	.L8:
  87 0030 00000000 		.word	.LANCHOR0
  88 0034 00000000 		.word	.LC0
  89              		.cfi_endproc
  90              	.LFE335:
ARM GAS  C:\Users\strap\AppData\Local\Temp\cctVSytp.s 			page 7


  91              		.size	lv_led_signal, .-lv_led_signal
  92              		.section	.text.lv_led_design,"ax",%progbits
  93              		.align	2
  94              		.thumb
  95              		.thumb_func
  96              		.type	lv_led_design, %function
  97              	lv_led_design:
  98              	.LFB334:
 194:lvgl\src\lv_widgets/lv_led.c ****     if(mode == LV_DESIGN_COVER_CHK) {
  99              		.loc 1 194 0
 100              		.cfi_startproc
 101              		@ args = 0, pretend = 0, frame = 88
 102              		@ frame_needed = 0, uses_anonymous_args = 0
 103              	.LVL9:
 104 0000 F0B5     		push	{r4, r5, r6, r7, lr}
 105              		.cfi_def_cfa_offset 20
 106              		.cfi_offset 4, -20
 107              		.cfi_offset 5, -16
 108              		.cfi_offset 6, -12
 109              		.cfi_offset 7, -8
 110              		.cfi_offset 14, -4
 111 0002 97B0     		sub	sp, sp, #92
 112              		.cfi_def_cfa_offset 112
 113 0004 0546     		mov	r5, r0
 114 0006 0E46     		mov	r6, r1
 195:lvgl\src\lv_widgets/lv_led.c ****         /*Return false if the object is not covers the clip_area area*/
 115              		.loc 1 195 0
 116 0008 022A     		cmp	r2, #2
 117 000a 03D1     		bne	.L11
 197:lvgl\src\lv_widgets/lv_led.c ****     }
 118              		.loc 1 197 0
 119 000c 814B     		ldr	r3, .L15
 120 000e 5B68     		ldr	r3, [r3, #4]
 121 0010 9847     		blx	r3
 122              	.LVL10:
 123 0012 FDE0     		b	.L12
 124              	.LVL11:
 125              	.L11:
 199:lvgl\src\lv_widgets/lv_led.c ****         /*Make darker colors in a temporary style according to the brightness*/
 126              		.loc 1 199 0
 127 0014 002A     		cmp	r2, #0
 128 0016 40F0FA80 		bne	.L13
 129              	.LBB13:
 201:lvgl\src\lv_widgets/lv_led.c **** 
 130              		.loc 1 201 0
 131 001a FFF7FEFF 		bl	lv_obj_get_ext_attr
 132              	.LVL12:
 133 001e 0446     		mov	r4, r0
 134              	.LVL13:
 204:lvgl\src\lv_widgets/lv_led.c ****         lv_obj_init_draw_rect_dsc(led, LV_LED_PART_MAIN, &rect_dsc);
 135              		.loc 1 204 0
 136 0020 01A8     		add	r0, sp, #4
 137              	.LVL14:
 138 0022 FFF7FEFF 		bl	lv_draw_rect_dsc_init
 139              	.LVL15:
 205:lvgl\src\lv_widgets/lv_led.c **** 
 140              		.loc 1 205 0
ARM GAS  C:\Users\strap\AppData\Local\Temp\cctVSytp.s 			page 8


 141 0026 01AA     		add	r2, sp, #4
 142 0028 0021     		movs	r1, #0
 143 002a 2846     		mov	r0, r5
 144 002c FFF7FEFF 		bl	lv_obj_init_draw_rect_dsc
 145              	.LVL16:
 208:lvgl\src\lv_widgets/lv_led.c ****         rect_dsc.bg_grad_color   = lv_color_mix(rect_dsc.bg_grad_color, LV_COLOR_BLACK, ext->bright
 146              		.loc 1 208 0
 147 0030 2278     		ldrb	r2, [r4]	@ zero_extendqisi2
 148 0032 BDF80670 		ldrh	r7, [sp, #6]
 149              	.LVL17:
 150              	.LBB14:
 151              	.LBB15:
 152              		.file 2 "lvgl\\src\\lv_widgets\\../lv_core/../lv_misc/lv_color.h"
   1:lvgl\src\lv_widgets\../lv_core/../lv_misc/lv_color.h **** /**
   2:lvgl\src\lv_widgets\../lv_core/../lv_misc/lv_color.h ****  * @file lv_color.h
   3:lvgl\src\lv_widgets\../lv_core/../lv_misc/lv_color.h ****  *
   4:lvgl\src\lv_widgets\../lv_core/../lv_misc/lv_color.h ****  */
   5:lvgl\src\lv_widgets\../lv_core/../lv_misc/lv_color.h **** 
   6:lvgl\src\lv_widgets\../lv_core/../lv_misc/lv_color.h **** #ifndef LV_COLOR_H
   7:lvgl\src\lv_widgets\../lv_core/../lv_misc/lv_color.h **** #define LV_COLOR_H
   8:lvgl\src\lv_widgets\../lv_core/../lv_misc/lv_color.h **** 
   9:lvgl\src\lv_widgets\../lv_core/../lv_misc/lv_color.h **** #ifdef __cplusplus
  10:lvgl\src\lv_widgets\../lv_core/../lv_misc/lv_color.h **** extern "C" {
  11:lvgl\src\lv_widgets\../lv_core/../lv_misc/lv_color.h **** #endif
  12:lvgl\src\lv_widgets\../lv_core/../lv_misc/lv_color.h **** 
  13:lvgl\src\lv_widgets\../lv_core/../lv_misc/lv_color.h **** /*********************
  14:lvgl\src\lv_widgets\../lv_core/../lv_misc/lv_color.h ****  *      INCLUDES
  15:lvgl\src\lv_widgets\../lv_core/../lv_misc/lv_color.h ****  *********************/
  16:lvgl\src\lv_widgets\../lv_core/../lv_misc/lv_color.h **** #include "../lv_conf_internal.h"
  17:lvgl\src\lv_widgets\../lv_core/../lv_misc/lv_color.h **** #include "lv_math.h"
  18:lvgl\src\lv_widgets\../lv_core/../lv_misc/lv_color.h **** 
  19:lvgl\src\lv_widgets\../lv_core/../lv_misc/lv_color.h **** /*Error checking*/
  20:lvgl\src\lv_widgets\../lv_core/../lv_misc/lv_color.h **** #if LV_COLOR_DEPTH == 24
  21:lvgl\src\lv_widgets\../lv_core/../lv_misc/lv_color.h **** #error "LV_COLOR_DEPTH  24 is deprecated. Use LV_COLOR_DEPTH  32 instead (lv_conf.h)"
  22:lvgl\src\lv_widgets\../lv_core/../lv_misc/lv_color.h **** #endif
  23:lvgl\src\lv_widgets\../lv_core/../lv_misc/lv_color.h **** 
  24:lvgl\src\lv_widgets\../lv_core/../lv_misc/lv_color.h **** #if LV_COLOR_DEPTH != 32 && LV_COLOR_SCREEN_TRANSP != 0
  25:lvgl\src\lv_widgets\../lv_core/../lv_misc/lv_color.h **** #error "LV_COLOR_SCREEN_TRANSP requires LV_COLOR_DEPTH == 32. Set it in lv_conf.h"
  26:lvgl\src\lv_widgets\../lv_core/../lv_misc/lv_color.h **** #endif
  27:lvgl\src\lv_widgets\../lv_core/../lv_misc/lv_color.h **** 
  28:lvgl\src\lv_widgets\../lv_core/../lv_misc/lv_color.h **** #if LV_COLOR_DEPTH != 16 && LV_COLOR_16_SWAP != 0
  29:lvgl\src\lv_widgets\../lv_core/../lv_misc/lv_color.h **** #error "LV_COLOR_16_SWAP requires LV_COLOR_DEPTH == 16. Set it in lv_conf.h"
  30:lvgl\src\lv_widgets\../lv_core/../lv_misc/lv_color.h **** #endif
  31:lvgl\src\lv_widgets\../lv_core/../lv_misc/lv_color.h **** 
  32:lvgl\src\lv_widgets\../lv_core/../lv_misc/lv_color.h **** #include <stdint.h>
  33:lvgl\src\lv_widgets\../lv_core/../lv_misc/lv_color.h **** 
  34:lvgl\src\lv_widgets\../lv_core/../lv_misc/lv_color.h **** /*********************
  35:lvgl\src\lv_widgets\../lv_core/../lv_misc/lv_color.h ****  *      DEFINES
  36:lvgl\src\lv_widgets\../lv_core/../lv_misc/lv_color.h ****  *********************/
  37:lvgl\src\lv_widgets\../lv_core/../lv_misc/lv_color.h **** #define LV_COLOR_WHITE LV_COLOR_MAKE(0xFF, 0xFF, 0xFF)
  38:lvgl\src\lv_widgets\../lv_core/../lv_misc/lv_color.h **** #define LV_COLOR_SILVER LV_COLOR_MAKE(0xC0, 0xC0, 0xC0)
  39:lvgl\src\lv_widgets\../lv_core/../lv_misc/lv_color.h **** #define LV_COLOR_GRAY LV_COLOR_MAKE(0x80, 0x80, 0x80)
  40:lvgl\src\lv_widgets\../lv_core/../lv_misc/lv_color.h **** #define LV_COLOR_BLACK LV_COLOR_MAKE(0x00, 0x00, 0x00)
  41:lvgl\src\lv_widgets\../lv_core/../lv_misc/lv_color.h **** #define LV_COLOR_RED LV_COLOR_MAKE(0xFF, 0x00, 0x00)
  42:lvgl\src\lv_widgets\../lv_core/../lv_misc/lv_color.h **** #define LV_COLOR_MAROON LV_COLOR_MAKE(0x80, 0x00, 0x00)
  43:lvgl\src\lv_widgets\../lv_core/../lv_misc/lv_color.h **** #define LV_COLOR_YELLOW LV_COLOR_MAKE(0xFF, 0xFF, 0x00)
  44:lvgl\src\lv_widgets\../lv_core/../lv_misc/lv_color.h **** #define LV_COLOR_OLIVE LV_COLOR_MAKE(0x80, 0x80, 0x00)
ARM GAS  C:\Users\strap\AppData\Local\Temp\cctVSytp.s 			page 9


  45:lvgl\src\lv_widgets\../lv_core/../lv_misc/lv_color.h **** #define LV_COLOR_LIME LV_COLOR_MAKE(0x00, 0xFF, 0x00)
  46:lvgl\src\lv_widgets\../lv_core/../lv_misc/lv_color.h **** #define LV_COLOR_GREEN LV_COLOR_MAKE(0x00, 0x80, 0x00)
  47:lvgl\src\lv_widgets\../lv_core/../lv_misc/lv_color.h **** #define LV_COLOR_CYAN LV_COLOR_MAKE(0x00, 0xFF, 0xFF)
  48:lvgl\src\lv_widgets\../lv_core/../lv_misc/lv_color.h **** #define LV_COLOR_AQUA LV_COLOR_CYAN
  49:lvgl\src\lv_widgets\../lv_core/../lv_misc/lv_color.h **** #define LV_COLOR_TEAL LV_COLOR_MAKE(0x00, 0x80, 0x80)
  50:lvgl\src\lv_widgets\../lv_core/../lv_misc/lv_color.h **** #define LV_COLOR_BLUE LV_COLOR_MAKE(0x00, 0x00, 0xFF)
  51:lvgl\src\lv_widgets\../lv_core/../lv_misc/lv_color.h **** #define LV_COLOR_NAVY LV_COLOR_MAKE(0x00, 0x00, 0x80)
  52:lvgl\src\lv_widgets\../lv_core/../lv_misc/lv_color.h **** #define LV_COLOR_MAGENTA LV_COLOR_MAKE(0xFF, 0x00, 0xFF)
  53:lvgl\src\lv_widgets\../lv_core/../lv_misc/lv_color.h **** #define LV_COLOR_PURPLE LV_COLOR_MAKE(0x80, 0x00, 0x80)
  54:lvgl\src\lv_widgets\../lv_core/../lv_misc/lv_color.h **** #define LV_COLOR_ORANGE LV_COLOR_MAKE(0xFF, 0xA5, 0x00)
  55:lvgl\src\lv_widgets\../lv_core/../lv_misc/lv_color.h **** 
  56:lvgl\src\lv_widgets\../lv_core/../lv_misc/lv_color.h **** /**
  57:lvgl\src\lv_widgets\../lv_core/../lv_misc/lv_color.h ****  * Opacity percentages.
  58:lvgl\src\lv_widgets\../lv_core/../lv_misc/lv_color.h ****  */
  59:lvgl\src\lv_widgets\../lv_core/../lv_misc/lv_color.h **** enum {
  60:lvgl\src\lv_widgets\../lv_core/../lv_misc/lv_color.h ****     LV_OPA_TRANSP = 0,
  61:lvgl\src\lv_widgets\../lv_core/../lv_misc/lv_color.h ****     LV_OPA_0      = 0,
  62:lvgl\src\lv_widgets\../lv_core/../lv_misc/lv_color.h ****     LV_OPA_10     = 25,
  63:lvgl\src\lv_widgets\../lv_core/../lv_misc/lv_color.h ****     LV_OPA_20     = 51,
  64:lvgl\src\lv_widgets\../lv_core/../lv_misc/lv_color.h ****     LV_OPA_30     = 76,
  65:lvgl\src\lv_widgets\../lv_core/../lv_misc/lv_color.h ****     LV_OPA_40     = 102,
  66:lvgl\src\lv_widgets\../lv_core/../lv_misc/lv_color.h ****     LV_OPA_50     = 127,
  67:lvgl\src\lv_widgets\../lv_core/../lv_misc/lv_color.h ****     LV_OPA_60     = 153,
  68:lvgl\src\lv_widgets\../lv_core/../lv_misc/lv_color.h ****     LV_OPA_70     = 178,
  69:lvgl\src\lv_widgets\../lv_core/../lv_misc/lv_color.h ****     LV_OPA_80     = 204,
  70:lvgl\src\lv_widgets\../lv_core/../lv_misc/lv_color.h ****     LV_OPA_90     = 229,
  71:lvgl\src\lv_widgets\../lv_core/../lv_misc/lv_color.h ****     LV_OPA_100    = 255,
  72:lvgl\src\lv_widgets\../lv_core/../lv_misc/lv_color.h ****     LV_OPA_COVER  = 255,
  73:lvgl\src\lv_widgets\../lv_core/../lv_misc/lv_color.h **** };
  74:lvgl\src\lv_widgets\../lv_core/../lv_misc/lv_color.h **** 
  75:lvgl\src\lv_widgets\../lv_core/../lv_misc/lv_color.h **** #define LV_OPA_MIN 2    /*Opacities below this will be transparent*/
  76:lvgl\src\lv_widgets\../lv_core/../lv_misc/lv_color.h **** #define LV_OPA_MAX 253  /*Opacities above this will fully cover*/
  77:lvgl\src\lv_widgets\../lv_core/../lv_misc/lv_color.h **** 
  78:lvgl\src\lv_widgets\../lv_core/../lv_misc/lv_color.h **** #if LV_COLOR_DEPTH == 1
  79:lvgl\src\lv_widgets\../lv_core/../lv_misc/lv_color.h **** #define LV_COLOR_SIZE 8
  80:lvgl\src\lv_widgets\../lv_core/../lv_misc/lv_color.h **** #elif LV_COLOR_DEPTH == 8
  81:lvgl\src\lv_widgets\../lv_core/../lv_misc/lv_color.h **** #define LV_COLOR_SIZE 8
  82:lvgl\src\lv_widgets\../lv_core/../lv_misc/lv_color.h **** #elif LV_COLOR_DEPTH == 16
  83:lvgl\src\lv_widgets\../lv_core/../lv_misc/lv_color.h **** #define LV_COLOR_SIZE 16
  84:lvgl\src\lv_widgets\../lv_core/../lv_misc/lv_color.h **** #elif LV_COLOR_DEPTH == 32
  85:lvgl\src\lv_widgets\../lv_core/../lv_misc/lv_color.h **** #define LV_COLOR_SIZE 32
  86:lvgl\src\lv_widgets\../lv_core/../lv_misc/lv_color.h **** #else
  87:lvgl\src\lv_widgets\../lv_core/../lv_misc/lv_color.h **** #error "Invalid LV_COLOR_DEPTH in lv_conf.h! Set it to 1, 8, 16 or 32!"
  88:lvgl\src\lv_widgets\../lv_core/../lv_misc/lv_color.h **** #endif
  89:lvgl\src\lv_widgets\../lv_core/../lv_misc/lv_color.h **** 
  90:lvgl\src\lv_widgets\../lv_core/../lv_misc/lv_color.h **** 
  91:lvgl\src\lv_widgets\../lv_core/../lv_misc/lv_color.h **** /* Adjust color mix functions rounding.
  92:lvgl\src\lv_widgets\../lv_core/../lv_misc/lv_color.h ****  * GPUs might calculate color mix (blending) differently.
  93:lvgl\src\lv_widgets\../lv_core/../lv_misc/lv_color.h ****  * Should be in range of 0..254
  94:lvgl\src\lv_widgets\../lv_core/../lv_misc/lv_color.h ****  * 0: no adjustment, get the integer part of the result (round down)
  95:lvgl\src\lv_widgets\../lv_core/../lv_misc/lv_color.h ****  * 64: round up from x.75
  96:lvgl\src\lv_widgets\../lv_core/../lv_misc/lv_color.h ****  * 128: round up from half
  97:lvgl\src\lv_widgets\../lv_core/../lv_misc/lv_color.h ****  * 192: round up from x.25
  98:lvgl\src\lv_widgets\../lv_core/../lv_misc/lv_color.h ****  * 254: round up */
  99:lvgl\src\lv_widgets\../lv_core/../lv_misc/lv_color.h **** #ifndef LV_COLOR_MIX_ROUND_OFS
 100:lvgl\src\lv_widgets\../lv_core/../lv_misc/lv_color.h **** #if LV_COLOR_DEPTH == 32
 101:lvgl\src\lv_widgets\../lv_core/../lv_misc/lv_color.h **** #define LV_COLOR_MIX_ROUND_OFS 0
ARM GAS  C:\Users\strap\AppData\Local\Temp\cctVSytp.s 			page 10


 102:lvgl\src\lv_widgets\../lv_core/../lv_misc/lv_color.h **** #else
 103:lvgl\src\lv_widgets\../lv_core/../lv_misc/lv_color.h **** #define LV_COLOR_MIX_ROUND_OFS 128
 104:lvgl\src\lv_widgets\../lv_core/../lv_misc/lv_color.h **** #endif
 105:lvgl\src\lv_widgets\../lv_core/../lv_misc/lv_color.h **** #endif
 106:lvgl\src\lv_widgets\../lv_core/../lv_misc/lv_color.h **** 
 107:lvgl\src\lv_widgets\../lv_core/../lv_misc/lv_color.h **** /*---------------------------------------
 108:lvgl\src\lv_widgets\../lv_core/../lv_misc/lv_color.h ****  * Macros for all existing  color depths
 109:lvgl\src\lv_widgets\../lv_core/../lv_misc/lv_color.h ****  * to set/get values of the color channels
 110:lvgl\src\lv_widgets\../lv_core/../lv_misc/lv_color.h ****  *------------------------------------------*/
 111:lvgl\src\lv_widgets\../lv_core/../lv_misc/lv_color.h **** # define LV_COLOR_SET_R1(c, v) (c).ch.red = (uint8_t)((v) & 0x1);
 112:lvgl\src\lv_widgets\../lv_core/../lv_misc/lv_color.h **** # define LV_COLOR_SET_G1(c, v) (c).ch.green = (uint8_t)((v) & 0x1);
 113:lvgl\src\lv_widgets\../lv_core/../lv_misc/lv_color.h **** # define LV_COLOR_SET_B1(c, v) (c).ch.blue = (uint8_t)((v) & 0x1);
 114:lvgl\src\lv_widgets\../lv_core/../lv_misc/lv_color.h **** # define LV_COLOR_SET_A1(c, v)
 115:lvgl\src\lv_widgets\../lv_core/../lv_misc/lv_color.h **** 
 116:lvgl\src\lv_widgets\../lv_core/../lv_misc/lv_color.h **** # define LV_COLOR_GET_R1(c) (c).ch.red
 117:lvgl\src\lv_widgets\../lv_core/../lv_misc/lv_color.h **** # define LV_COLOR_GET_G1(c) (c).ch.green
 118:lvgl\src\lv_widgets\../lv_core/../lv_misc/lv_color.h **** # define LV_COLOR_GET_B1(c) (c).ch.blue
 119:lvgl\src\lv_widgets\../lv_core/../lv_misc/lv_color.h **** # define LV_COLOR_GET_A1(c) 1
 120:lvgl\src\lv_widgets\../lv_core/../lv_misc/lv_color.h **** 
 121:lvgl\src\lv_widgets\../lv_core/../lv_misc/lv_color.h **** # define LV_COLOR_SET_R8(c, v) (c).ch.red = (uint8_t)(v) & 0x7U;
 122:lvgl\src\lv_widgets\../lv_core/../lv_misc/lv_color.h **** # define LV_COLOR_SET_G8(c, v) (c).ch.green = (uint8_t)(v) & 0x7U;
 123:lvgl\src\lv_widgets\../lv_core/../lv_misc/lv_color.h **** # define LV_COLOR_SET_B8(c, v) (c).ch.blue = (uint8_t)(v) & 0x3U;
 124:lvgl\src\lv_widgets\../lv_core/../lv_misc/lv_color.h **** # define LV_COLOR_SET_A8(c, v) do {} while(0)
 125:lvgl\src\lv_widgets\../lv_core/../lv_misc/lv_color.h **** 
 126:lvgl\src\lv_widgets\../lv_core/../lv_misc/lv_color.h **** # define LV_COLOR_GET_R8(c) (c).ch.red
 127:lvgl\src\lv_widgets\../lv_core/../lv_misc/lv_color.h **** # define LV_COLOR_GET_G8(c) (c).ch.green
 128:lvgl\src\lv_widgets\../lv_core/../lv_misc/lv_color.h **** # define LV_COLOR_GET_B8(c) (c).ch.blue
 129:lvgl\src\lv_widgets\../lv_core/../lv_misc/lv_color.h **** # define LV_COLOR_GET_A8(c) 0xFF
 130:lvgl\src\lv_widgets\../lv_core/../lv_misc/lv_color.h **** 
 131:lvgl\src\lv_widgets\../lv_core/../lv_misc/lv_color.h **** # define LV_COLOR_SET_R16(c, v) (c).ch.red = (uint8_t)(v) & 0x1FU;
 132:lvgl\src\lv_widgets\../lv_core/../lv_misc/lv_color.h **** # define LV_COLOR_SET_G16(c, v) (c).ch.green = (uint8_t)(v) & 0x3FU;
 133:lvgl\src\lv_widgets\../lv_core/../lv_misc/lv_color.h **** # define LV_COLOR_SET_G16_SWAP(c, v) {(c).ch.green_h = (uint8_t)(((v) >> 3) & 0x7); (c).ch.green_l 
 134:lvgl\src\lv_widgets\../lv_core/../lv_misc/lv_color.h **** # define LV_COLOR_SET_B16(c, v) (c).ch.blue = (uint8_t)(v) & 0x1FU;
 135:lvgl\src\lv_widgets\../lv_core/../lv_misc/lv_color.h **** # define LV_COLOR_SET_A16(c, v) do {} while(0)
 136:lvgl\src\lv_widgets\../lv_core/../lv_misc/lv_color.h **** 
 137:lvgl\src\lv_widgets\../lv_core/../lv_misc/lv_color.h **** # define LV_COLOR_GET_R16(c) (c).ch.red
 138:lvgl\src\lv_widgets\../lv_core/../lv_misc/lv_color.h **** # define LV_COLOR_GET_G16(c) (c).ch.green
 139:lvgl\src\lv_widgets\../lv_core/../lv_misc/lv_color.h **** # define LV_COLOR_GET_G16_SWAP(c) (((c).ch.green_h << 3) + (c).ch.green_l)
 140:lvgl\src\lv_widgets\../lv_core/../lv_misc/lv_color.h **** # define LV_COLOR_GET_B16(c) (c).ch.blue
 141:lvgl\src\lv_widgets\../lv_core/../lv_misc/lv_color.h **** # define LV_COLOR_GET_A16(c) 0xFF
 142:lvgl\src\lv_widgets\../lv_core/../lv_misc/lv_color.h **** 
 143:lvgl\src\lv_widgets\../lv_core/../lv_misc/lv_color.h **** # define LV_COLOR_SET_R32(c, v) (c).ch.red = (uint32_t)((v) & 0xFF);
 144:lvgl\src\lv_widgets\../lv_core/../lv_misc/lv_color.h **** # define LV_COLOR_SET_G32(c, v) (c).ch.green = (uint32_t)((v) & 0xFF);
 145:lvgl\src\lv_widgets\../lv_core/../lv_misc/lv_color.h **** # define LV_COLOR_SET_B32(c, v) (c).ch.blue = (uint32_t)((v) & 0xFF);
 146:lvgl\src\lv_widgets\../lv_core/../lv_misc/lv_color.h **** # define LV_COLOR_SET_A32(c, v) (c).ch.alpha = (uint32_t)((v) & 0xFF);
 147:lvgl\src\lv_widgets\../lv_core/../lv_misc/lv_color.h **** 
 148:lvgl\src\lv_widgets\../lv_core/../lv_misc/lv_color.h **** # define LV_COLOR_GET_R32(c) (c).ch.red
 149:lvgl\src\lv_widgets\../lv_core/../lv_misc/lv_color.h **** # define LV_COLOR_GET_G32(c) (c).ch.green
 150:lvgl\src\lv_widgets\../lv_core/../lv_misc/lv_color.h **** # define LV_COLOR_GET_B32(c) (c).ch.blue
 151:lvgl\src\lv_widgets\../lv_core/../lv_misc/lv_color.h **** # define LV_COLOR_GET_A32(c) (c).ch.alpha
 152:lvgl\src\lv_widgets\../lv_core/../lv_misc/lv_color.h **** 
 153:lvgl\src\lv_widgets\../lv_core/../lv_misc/lv_color.h **** 
 154:lvgl\src\lv_widgets\../lv_core/../lv_misc/lv_color.h **** /*---------------------------------------
 155:lvgl\src\lv_widgets\../lv_core/../lv_misc/lv_color.h ****  * Macros for the current color depth
 156:lvgl\src\lv_widgets\../lv_core/../lv_misc/lv_color.h ****  * to set/get values of the color channels
 157:lvgl\src\lv_widgets\../lv_core/../lv_misc/lv_color.h ****  *------------------------------------------*/
 158:lvgl\src\lv_widgets\../lv_core/../lv_misc/lv_color.h **** #if LV_COLOR_DEPTH == 1
ARM GAS  C:\Users\strap\AppData\Local\Temp\cctVSytp.s 			page 11


 159:lvgl\src\lv_widgets\../lv_core/../lv_misc/lv_color.h **** # define LV_COLOR_SET_R(c, v) LV_COLOR_SET_R1(c,v)
 160:lvgl\src\lv_widgets\../lv_core/../lv_misc/lv_color.h **** # define LV_COLOR_SET_G(c, v) LV_COLOR_SET_G1(c,v)
 161:lvgl\src\lv_widgets\../lv_core/../lv_misc/lv_color.h **** # define LV_COLOR_SET_B(c, v) LV_COLOR_SET_B1(c,v)
 162:lvgl\src\lv_widgets\../lv_core/../lv_misc/lv_color.h **** # define LV_COLOR_SET_A(c, v) LV_COLOR_SET_A1(c,v)
 163:lvgl\src\lv_widgets\../lv_core/../lv_misc/lv_color.h **** 
 164:lvgl\src\lv_widgets\../lv_core/../lv_misc/lv_color.h **** # define LV_COLOR_GET_R(c) LV_COLOR_GET_R1(c)
 165:lvgl\src\lv_widgets\../lv_core/../lv_misc/lv_color.h **** # define LV_COLOR_GET_G(c) LV_COLOR_GET_G1(c)
 166:lvgl\src\lv_widgets\../lv_core/../lv_misc/lv_color.h **** # define LV_COLOR_GET_B(c) LV_COLOR_GET_B1(c)
 167:lvgl\src\lv_widgets\../lv_core/../lv_misc/lv_color.h **** # define LV_COLOR_GET_A(c) LV_COLOR_GET_A1(c)
 168:lvgl\src\lv_widgets\../lv_core/../lv_misc/lv_color.h **** 
 169:lvgl\src\lv_widgets\../lv_core/../lv_misc/lv_color.h **** #elif LV_COLOR_DEPTH == 8
 170:lvgl\src\lv_widgets\../lv_core/../lv_misc/lv_color.h **** # define LV_COLOR_SET_R(c, v) LV_COLOR_SET_R8(c,v)
 171:lvgl\src\lv_widgets\../lv_core/../lv_misc/lv_color.h **** # define LV_COLOR_SET_G(c, v) LV_COLOR_SET_G8(c,v)
 172:lvgl\src\lv_widgets\../lv_core/../lv_misc/lv_color.h **** # define LV_COLOR_SET_B(c, v) LV_COLOR_SET_B8(c,v)
 173:lvgl\src\lv_widgets\../lv_core/../lv_misc/lv_color.h **** # define LV_COLOR_SET_A(c, v) LV_COLOR_SET_A8(c,v)
 174:lvgl\src\lv_widgets\../lv_core/../lv_misc/lv_color.h **** 
 175:lvgl\src\lv_widgets\../lv_core/../lv_misc/lv_color.h **** # define LV_COLOR_GET_R(c) LV_COLOR_GET_R8(c)
 176:lvgl\src\lv_widgets\../lv_core/../lv_misc/lv_color.h **** # define LV_COLOR_GET_G(c) LV_COLOR_GET_G8(c)
 177:lvgl\src\lv_widgets\../lv_core/../lv_misc/lv_color.h **** # define LV_COLOR_GET_B(c) LV_COLOR_GET_B8(c)
 178:lvgl\src\lv_widgets\../lv_core/../lv_misc/lv_color.h **** # define LV_COLOR_GET_A(c) LV_COLOR_GET_A8(c)
 179:lvgl\src\lv_widgets\../lv_core/../lv_misc/lv_color.h **** 
 180:lvgl\src\lv_widgets\../lv_core/../lv_misc/lv_color.h **** #elif LV_COLOR_DEPTH == 16
 181:lvgl\src\lv_widgets\../lv_core/../lv_misc/lv_color.h **** # define LV_COLOR_SET_R(c, v) LV_COLOR_SET_R16(c,v)
 182:lvgl\src\lv_widgets\../lv_core/../lv_misc/lv_color.h **** # if LV_COLOR_16_SWAP == 0
 183:lvgl\src\lv_widgets\../lv_core/../lv_misc/lv_color.h **** #   define LV_COLOR_SET_G(c, v) LV_COLOR_SET_G16(c,v)
 184:lvgl\src\lv_widgets\../lv_core/../lv_misc/lv_color.h **** # else
 185:lvgl\src\lv_widgets\../lv_core/../lv_misc/lv_color.h **** #   define LV_COLOR_SET_G(c, v) LV_COLOR_SET_G16_SWAP(c,v)
 186:lvgl\src\lv_widgets\../lv_core/../lv_misc/lv_color.h **** # endif
 187:lvgl\src\lv_widgets\../lv_core/../lv_misc/lv_color.h **** # define LV_COLOR_SET_B(c, v) LV_COLOR_SET_B16(c,v)
 188:lvgl\src\lv_widgets\../lv_core/../lv_misc/lv_color.h **** # define LV_COLOR_SET_A(c, v) LV_COLOR_SET_A16(c,v)
 189:lvgl\src\lv_widgets\../lv_core/../lv_misc/lv_color.h **** 
 190:lvgl\src\lv_widgets\../lv_core/../lv_misc/lv_color.h **** # define LV_COLOR_GET_R(c) LV_COLOR_GET_R16(c)
 191:lvgl\src\lv_widgets\../lv_core/../lv_misc/lv_color.h **** # if LV_COLOR_16_SWAP == 0
 192:lvgl\src\lv_widgets\../lv_core/../lv_misc/lv_color.h **** #   define LV_COLOR_GET_G(c) LV_COLOR_GET_G16(c)
 193:lvgl\src\lv_widgets\../lv_core/../lv_misc/lv_color.h **** # else
 194:lvgl\src\lv_widgets\../lv_core/../lv_misc/lv_color.h **** #   define LV_COLOR_GET_G(c) LV_COLOR_GET_G16_SWAP(c)
 195:lvgl\src\lv_widgets\../lv_core/../lv_misc/lv_color.h **** # endif
 196:lvgl\src\lv_widgets\../lv_core/../lv_misc/lv_color.h **** # define LV_COLOR_GET_B(c)   LV_COLOR_GET_B16(c)
 197:lvgl\src\lv_widgets\../lv_core/../lv_misc/lv_color.h **** # define LV_COLOR_GET_A(c)   LV_COLOR_GET_A16(c)
 198:lvgl\src\lv_widgets\../lv_core/../lv_misc/lv_color.h **** 
 199:lvgl\src\lv_widgets\../lv_core/../lv_misc/lv_color.h **** #elif LV_COLOR_DEPTH == 32
 200:lvgl\src\lv_widgets\../lv_core/../lv_misc/lv_color.h **** # define LV_COLOR_SET_R(c, v) LV_COLOR_SET_R32(c,v)
 201:lvgl\src\lv_widgets\../lv_core/../lv_misc/lv_color.h **** # define LV_COLOR_SET_G(c, v) LV_COLOR_SET_G32(c,v)
 202:lvgl\src\lv_widgets\../lv_core/../lv_misc/lv_color.h **** # define LV_COLOR_SET_B(c, v) LV_COLOR_SET_B32(c,v)
 203:lvgl\src\lv_widgets\../lv_core/../lv_misc/lv_color.h **** # define LV_COLOR_SET_A(c, v) LV_COLOR_SET_A32(c,v)
 204:lvgl\src\lv_widgets\../lv_core/../lv_misc/lv_color.h **** 
 205:lvgl\src\lv_widgets\../lv_core/../lv_misc/lv_color.h **** # define LV_COLOR_GET_R(c) LV_COLOR_GET_R32(c)
 206:lvgl\src\lv_widgets\../lv_core/../lv_misc/lv_color.h **** # define LV_COLOR_GET_G(c) LV_COLOR_GET_G32(c)
 207:lvgl\src\lv_widgets\../lv_core/../lv_misc/lv_color.h **** # define LV_COLOR_GET_B(c) LV_COLOR_GET_B32(c)
 208:lvgl\src\lv_widgets\../lv_core/../lv_misc/lv_color.h **** # define LV_COLOR_GET_A(c) LV_COLOR_GET_A32(c)
 209:lvgl\src\lv_widgets\../lv_core/../lv_misc/lv_color.h **** #endif
 210:lvgl\src\lv_widgets\../lv_core/../lv_misc/lv_color.h **** 
 211:lvgl\src\lv_widgets\../lv_core/../lv_misc/lv_color.h **** /**********************
 212:lvgl\src\lv_widgets\../lv_core/../lv_misc/lv_color.h ****  *      TYPEDEFS
 213:lvgl\src\lv_widgets\../lv_core/../lv_misc/lv_color.h ****  **********************/
 214:lvgl\src\lv_widgets\../lv_core/../lv_misc/lv_color.h **** 
 215:lvgl\src\lv_widgets\../lv_core/../lv_misc/lv_color.h **** typedef union {
ARM GAS  C:\Users\strap\AppData\Local\Temp\cctVSytp.s 			page 12


 216:lvgl\src\lv_widgets\../lv_core/../lv_misc/lv_color.h ****     uint8_t full; /*must be declared first to set all bits of byte via initializer list */
 217:lvgl\src\lv_widgets\../lv_core/../lv_misc/lv_color.h ****     union {
 218:lvgl\src\lv_widgets\../lv_core/../lv_misc/lv_color.h ****         uint8_t blue : 1;
 219:lvgl\src\lv_widgets\../lv_core/../lv_misc/lv_color.h ****         uint8_t green : 1;
 220:lvgl\src\lv_widgets\../lv_core/../lv_misc/lv_color.h ****         uint8_t red : 1;
 221:lvgl\src\lv_widgets\../lv_core/../lv_misc/lv_color.h ****     } ch;
 222:lvgl\src\lv_widgets\../lv_core/../lv_misc/lv_color.h **** } lv_color1_t;
 223:lvgl\src\lv_widgets\../lv_core/../lv_misc/lv_color.h **** 
 224:lvgl\src\lv_widgets\../lv_core/../lv_misc/lv_color.h **** typedef union {
 225:lvgl\src\lv_widgets\../lv_core/../lv_misc/lv_color.h ****     struct {
 226:lvgl\src\lv_widgets\../lv_core/../lv_misc/lv_color.h ****         uint8_t blue : 2;
 227:lvgl\src\lv_widgets\../lv_core/../lv_misc/lv_color.h ****         uint8_t green : 3;
 228:lvgl\src\lv_widgets\../lv_core/../lv_misc/lv_color.h ****         uint8_t red : 3;
 229:lvgl\src\lv_widgets\../lv_core/../lv_misc/lv_color.h ****     } ch;
 230:lvgl\src\lv_widgets\../lv_core/../lv_misc/lv_color.h ****     uint8_t full;
 231:lvgl\src\lv_widgets\../lv_core/../lv_misc/lv_color.h **** } lv_color8_t;
 232:lvgl\src\lv_widgets\../lv_core/../lv_misc/lv_color.h **** 
 233:lvgl\src\lv_widgets\../lv_core/../lv_misc/lv_color.h **** typedef union {
 234:lvgl\src\lv_widgets\../lv_core/../lv_misc/lv_color.h ****     struct {
 235:lvgl\src\lv_widgets\../lv_core/../lv_misc/lv_color.h **** #if LV_COLOR_16_SWAP == 0
 236:lvgl\src\lv_widgets\../lv_core/../lv_misc/lv_color.h ****         uint16_t blue : 5;
 237:lvgl\src\lv_widgets\../lv_core/../lv_misc/lv_color.h ****         uint16_t green : 6;
 238:lvgl\src\lv_widgets\../lv_core/../lv_misc/lv_color.h ****         uint16_t red : 5;
 239:lvgl\src\lv_widgets\../lv_core/../lv_misc/lv_color.h **** #else
 240:lvgl\src\lv_widgets\../lv_core/../lv_misc/lv_color.h ****         uint16_t green_h : 3;
 241:lvgl\src\lv_widgets\../lv_core/../lv_misc/lv_color.h ****         uint16_t red : 5;
 242:lvgl\src\lv_widgets\../lv_core/../lv_misc/lv_color.h ****         uint16_t blue : 5;
 243:lvgl\src\lv_widgets\../lv_core/../lv_misc/lv_color.h ****         uint16_t green_l : 3;
 244:lvgl\src\lv_widgets\../lv_core/../lv_misc/lv_color.h **** #endif
 245:lvgl\src\lv_widgets\../lv_core/../lv_misc/lv_color.h ****     } ch;
 246:lvgl\src\lv_widgets\../lv_core/../lv_misc/lv_color.h ****     uint16_t full;
 247:lvgl\src\lv_widgets\../lv_core/../lv_misc/lv_color.h **** } lv_color16_t;
 248:lvgl\src\lv_widgets\../lv_core/../lv_misc/lv_color.h **** 
 249:lvgl\src\lv_widgets\../lv_core/../lv_misc/lv_color.h **** typedef union {
 250:lvgl\src\lv_widgets\../lv_core/../lv_misc/lv_color.h ****     struct {
 251:lvgl\src\lv_widgets\../lv_core/../lv_misc/lv_color.h ****         uint8_t blue;
 252:lvgl\src\lv_widgets\../lv_core/../lv_misc/lv_color.h ****         uint8_t green;
 253:lvgl\src\lv_widgets\../lv_core/../lv_misc/lv_color.h ****         uint8_t red;
 254:lvgl\src\lv_widgets\../lv_core/../lv_misc/lv_color.h ****         uint8_t alpha;
 255:lvgl\src\lv_widgets\../lv_core/../lv_misc/lv_color.h ****     } ch;
 256:lvgl\src\lv_widgets\../lv_core/../lv_misc/lv_color.h ****     uint32_t full;
 257:lvgl\src\lv_widgets\../lv_core/../lv_misc/lv_color.h **** } lv_color32_t;
 258:lvgl\src\lv_widgets\../lv_core/../lv_misc/lv_color.h **** 
 259:lvgl\src\lv_widgets\../lv_core/../lv_misc/lv_color.h **** #if LV_COLOR_DEPTH == 1
 260:lvgl\src\lv_widgets\../lv_core/../lv_misc/lv_color.h **** typedef uint8_t lv_color_int_t;
 261:lvgl\src\lv_widgets\../lv_core/../lv_misc/lv_color.h **** typedef lv_color1_t lv_color_t;
 262:lvgl\src\lv_widgets\../lv_core/../lv_misc/lv_color.h **** #define _LV_COLOR_ZERO_INITIALIZER {0x00}
 263:lvgl\src\lv_widgets\../lv_core/../lv_misc/lv_color.h **** #elif LV_COLOR_DEPTH == 8
 264:lvgl\src\lv_widgets\../lv_core/../lv_misc/lv_color.h **** typedef uint8_t lv_color_int_t;
 265:lvgl\src\lv_widgets\../lv_core/../lv_misc/lv_color.h **** typedef lv_color8_t lv_color_t;
 266:lvgl\src\lv_widgets\../lv_core/../lv_misc/lv_color.h **** #define _LV_COLOR_ZERO_INITIALIZER {{0x00, 0x00, 0x00}}
 267:lvgl\src\lv_widgets\../lv_core/../lv_misc/lv_color.h **** #elif LV_COLOR_DEPTH == 16
 268:lvgl\src\lv_widgets\../lv_core/../lv_misc/lv_color.h **** typedef uint16_t lv_color_int_t;
 269:lvgl\src\lv_widgets\../lv_core/../lv_misc/lv_color.h **** typedef lv_color16_t lv_color_t;
 270:lvgl\src\lv_widgets\../lv_core/../lv_misc/lv_color.h **** #define _LV_COLOR_ZERO_INITIALIZER {{0x00, 0x00, 0x00}}
 271:lvgl\src\lv_widgets\../lv_core/../lv_misc/lv_color.h **** #elif LV_COLOR_DEPTH == 32
 272:lvgl\src\lv_widgets\../lv_core/../lv_misc/lv_color.h **** typedef uint32_t lv_color_int_t;
ARM GAS  C:\Users\strap\AppData\Local\Temp\cctVSytp.s 			page 13


 273:lvgl\src\lv_widgets\../lv_core/../lv_misc/lv_color.h **** typedef lv_color32_t lv_color_t;
 274:lvgl\src\lv_widgets\../lv_core/../lv_misc/lv_color.h **** #define _LV_COLOR_ZERO_INITIALIZER {{0x00, 0x00, 0x00, 0x00}}
 275:lvgl\src\lv_widgets\../lv_core/../lv_misc/lv_color.h **** #else
 276:lvgl\src\lv_widgets\../lv_core/../lv_misc/lv_color.h **** #error "Invalid LV_COLOR_DEPTH in lv_conf.h! Set it to 1, 8, 16 or 32!"
 277:lvgl\src\lv_widgets\../lv_core/../lv_misc/lv_color.h **** #endif
 278:lvgl\src\lv_widgets\../lv_core/../lv_misc/lv_color.h **** 
 279:lvgl\src\lv_widgets\../lv_core/../lv_misc/lv_color.h **** 
 280:lvgl\src\lv_widgets\../lv_core/../lv_misc/lv_color.h **** typedef struct {
 281:lvgl\src\lv_widgets\../lv_core/../lv_misc/lv_color.h ****     uint16_t h;
 282:lvgl\src\lv_widgets\../lv_core/../lv_misc/lv_color.h ****     uint8_t s;
 283:lvgl\src\lv_widgets\../lv_core/../lv_misc/lv_color.h ****     uint8_t v;
 284:lvgl\src\lv_widgets\../lv_core/../lv_misc/lv_color.h **** } lv_color_hsv_t;
 285:lvgl\src\lv_widgets\../lv_core/../lv_misc/lv_color.h **** 
 286:lvgl\src\lv_widgets\../lv_core/../lv_misc/lv_color.h **** //! @cond Doxygen_Suppress
 287:lvgl\src\lv_widgets\../lv_core/../lv_misc/lv_color.h **** /*No idea where the guard is required but else throws warnings in the docs*/
 288:lvgl\src\lv_widgets\../lv_core/../lv_misc/lv_color.h **** typedef uint8_t lv_opa_t;
 289:lvgl\src\lv_widgets\../lv_core/../lv_misc/lv_color.h **** //! @endcond
 290:lvgl\src\lv_widgets\../lv_core/../lv_misc/lv_color.h **** 
 291:lvgl\src\lv_widgets\../lv_core/../lv_misc/lv_color.h **** /**********************
 292:lvgl\src\lv_widgets\../lv_core/../lv_misc/lv_color.h ****  * GLOBAL PROTOTYPES
 293:lvgl\src\lv_widgets\../lv_core/../lv_misc/lv_color.h ****  **********************/
 294:lvgl\src\lv_widgets\../lv_core/../lv_misc/lv_color.h **** 
 295:lvgl\src\lv_widgets\../lv_core/../lv_misc/lv_color.h **** /*In color conversations:
 296:lvgl\src\lv_widgets\../lv_core/../lv_misc/lv_color.h ****  * - When converting to bigger color type the LSB weight of 1 LSB is calculated
 297:lvgl\src\lv_widgets\../lv_core/../lv_misc/lv_color.h ****  *   E.g. 16 bit Red has 5 bits
 298:lvgl\src\lv_widgets\../lv_core/../lv_misc/lv_color.h ****  *         8 bit Red has 2 bits
 299:lvgl\src\lv_widgets\../lv_core/../lv_misc/lv_color.h ****  *        ----------------------
 300:lvgl\src\lv_widgets\../lv_core/../lv_misc/lv_color.h ****  *        8 bit red LSB = (2^5 - 1) / (2^2 - 1) = 31 / 3 = 10
 301:lvgl\src\lv_widgets\../lv_core/../lv_misc/lv_color.h ****  *
 302:lvgl\src\lv_widgets\../lv_core/../lv_misc/lv_color.h ****  * - When calculating to smaller color type simply shift out the LSBs
 303:lvgl\src\lv_widgets\../lv_core/../lv_misc/lv_color.h ****  *   E.g.  8 bit Red has 2 bits
 304:lvgl\src\lv_widgets\../lv_core/../lv_misc/lv_color.h ****  *        16 bit Red has 5 bits
 305:lvgl\src\lv_widgets\../lv_core/../lv_misc/lv_color.h ****  *        ----------------------
 306:lvgl\src\lv_widgets\../lv_core/../lv_misc/lv_color.h ****  *         Shift right with 5 - 3 = 2
 307:lvgl\src\lv_widgets\../lv_core/../lv_misc/lv_color.h ****  */
 308:lvgl\src\lv_widgets\../lv_core/../lv_misc/lv_color.h **** static inline uint8_t lv_color_to1(lv_color_t color)
 309:lvgl\src\lv_widgets\../lv_core/../lv_misc/lv_color.h **** {
 310:lvgl\src\lv_widgets\../lv_core/../lv_misc/lv_color.h **** #if LV_COLOR_DEPTH == 1
 311:lvgl\src\lv_widgets\../lv_core/../lv_misc/lv_color.h ****     return color.full;
 312:lvgl\src\lv_widgets\../lv_core/../lv_misc/lv_color.h **** #elif LV_COLOR_DEPTH == 8
 313:lvgl\src\lv_widgets\../lv_core/../lv_misc/lv_color.h ****     if((LV_COLOR_GET_R(color) & 0x4) || (LV_COLOR_GET_G(color) & 0x4) || (LV_COLOR_GET_B(color) & 0
 314:lvgl\src\lv_widgets\../lv_core/../lv_misc/lv_color.h ****         return 1;
 315:lvgl\src\lv_widgets\../lv_core/../lv_misc/lv_color.h ****     }
 316:lvgl\src\lv_widgets\../lv_core/../lv_misc/lv_color.h ****     else {
 317:lvgl\src\lv_widgets\../lv_core/../lv_misc/lv_color.h ****         return 0;
 318:lvgl\src\lv_widgets\../lv_core/../lv_misc/lv_color.h ****     }
 319:lvgl\src\lv_widgets\../lv_core/../lv_misc/lv_color.h **** #elif LV_COLOR_DEPTH == 16
 320:lvgl\src\lv_widgets\../lv_core/../lv_misc/lv_color.h ****     if((LV_COLOR_GET_R(color) & 0x10) || (LV_COLOR_GET_G(color) & 0x20) || (LV_COLOR_GET_B(color) &
 321:lvgl\src\lv_widgets\../lv_core/../lv_misc/lv_color.h ****         return 1;
 322:lvgl\src\lv_widgets\../lv_core/../lv_misc/lv_color.h ****     }
 323:lvgl\src\lv_widgets\../lv_core/../lv_misc/lv_color.h ****     else {
 324:lvgl\src\lv_widgets\../lv_core/../lv_misc/lv_color.h ****         return 0;
 325:lvgl\src\lv_widgets\../lv_core/../lv_misc/lv_color.h ****     }
 326:lvgl\src\lv_widgets\../lv_core/../lv_misc/lv_color.h **** #elif LV_COLOR_DEPTH == 32
 327:lvgl\src\lv_widgets\../lv_core/../lv_misc/lv_color.h ****     if((LV_COLOR_GET_R(color) & 0x80) || (LV_COLOR_GET_G(color) & 0x80) || (LV_COLOR_GET_B(color) &
 328:lvgl\src\lv_widgets\../lv_core/../lv_misc/lv_color.h ****         return 1;
 329:lvgl\src\lv_widgets\../lv_core/../lv_misc/lv_color.h ****     }
ARM GAS  C:\Users\strap\AppData\Local\Temp\cctVSytp.s 			page 14


 330:lvgl\src\lv_widgets\../lv_core/../lv_misc/lv_color.h ****     else {
 331:lvgl\src\lv_widgets\../lv_core/../lv_misc/lv_color.h ****         return 0;
 332:lvgl\src\lv_widgets\../lv_core/../lv_misc/lv_color.h ****     }
 333:lvgl\src\lv_widgets\../lv_core/../lv_misc/lv_color.h **** #endif
 334:lvgl\src\lv_widgets\../lv_core/../lv_misc/lv_color.h **** }
 335:lvgl\src\lv_widgets\../lv_core/../lv_misc/lv_color.h **** 
 336:lvgl\src\lv_widgets\../lv_core/../lv_misc/lv_color.h **** static inline uint8_t lv_color_to8(lv_color_t color)
 337:lvgl\src\lv_widgets\../lv_core/../lv_misc/lv_color.h **** {
 338:lvgl\src\lv_widgets\../lv_core/../lv_misc/lv_color.h **** #if LV_COLOR_DEPTH == 1
 339:lvgl\src\lv_widgets\../lv_core/../lv_misc/lv_color.h ****     if(color.full == 0)
 340:lvgl\src\lv_widgets\../lv_core/../lv_misc/lv_color.h ****         return 0;
 341:lvgl\src\lv_widgets\../lv_core/../lv_misc/lv_color.h ****     else
 342:lvgl\src\lv_widgets\../lv_core/../lv_misc/lv_color.h ****         return 0xFF;
 343:lvgl\src\lv_widgets\../lv_core/../lv_misc/lv_color.h **** #elif LV_COLOR_DEPTH == 8
 344:lvgl\src\lv_widgets\../lv_core/../lv_misc/lv_color.h ****     return color.full;
 345:lvgl\src\lv_widgets\../lv_core/../lv_misc/lv_color.h **** #elif LV_COLOR_DEPTH == 16
 346:lvgl\src\lv_widgets\../lv_core/../lv_misc/lv_color.h ****     lv_color8_t ret;
 347:lvgl\src\lv_widgets\../lv_core/../lv_misc/lv_color.h ****     LV_COLOR_SET_R8(ret, LV_COLOR_GET_R(color) >> 2);   /* 5 - 3  = 2*/
 348:lvgl\src\lv_widgets\../lv_core/../lv_misc/lv_color.h ****     LV_COLOR_SET_G8(ret, LV_COLOR_GET_G(color) >> 3); /* 6 - 3  = 3*/
 349:lvgl\src\lv_widgets\../lv_core/../lv_misc/lv_color.h ****     LV_COLOR_SET_B8(ret, LV_COLOR_GET_B(color) >> 3);  /* 5 - 2  = 3*/
 350:lvgl\src\lv_widgets\../lv_core/../lv_misc/lv_color.h ****     return ret.full;
 351:lvgl\src\lv_widgets\../lv_core/../lv_misc/lv_color.h **** #elif LV_COLOR_DEPTH == 32
 352:lvgl\src\lv_widgets\../lv_core/../lv_misc/lv_color.h ****     lv_color8_t ret;
 353:lvgl\src\lv_widgets\../lv_core/../lv_misc/lv_color.h ****     LV_COLOR_SET_R8(ret, LV_COLOR_GET_R(color) >> 5);   /* 8 - 3  = 5*/
 354:lvgl\src\lv_widgets\../lv_core/../lv_misc/lv_color.h ****     LV_COLOR_SET_G8(ret, LV_COLOR_GET_G(color) >> 5); /* 8 - 3  = 5*/
 355:lvgl\src\lv_widgets\../lv_core/../lv_misc/lv_color.h ****     LV_COLOR_SET_B8(ret, LV_COLOR_GET_B(color) >> 6);  /* 8 - 2  = 6*/
 356:lvgl\src\lv_widgets\../lv_core/../lv_misc/lv_color.h ****     return ret.full;
 357:lvgl\src\lv_widgets\../lv_core/../lv_misc/lv_color.h **** #endif
 358:lvgl\src\lv_widgets\../lv_core/../lv_misc/lv_color.h **** }
 359:lvgl\src\lv_widgets\../lv_core/../lv_misc/lv_color.h **** 
 360:lvgl\src\lv_widgets\../lv_core/../lv_misc/lv_color.h **** static inline uint16_t lv_color_to16(lv_color_t color)
 361:lvgl\src\lv_widgets\../lv_core/../lv_misc/lv_color.h **** {
 362:lvgl\src\lv_widgets\../lv_core/../lv_misc/lv_color.h **** #if LV_COLOR_DEPTH == 1
 363:lvgl\src\lv_widgets\../lv_core/../lv_misc/lv_color.h ****     if(color.full == 0)
 364:lvgl\src\lv_widgets\../lv_core/../lv_misc/lv_color.h ****         return 0;
 365:lvgl\src\lv_widgets\../lv_core/../lv_misc/lv_color.h ****     else
 366:lvgl\src\lv_widgets\../lv_core/../lv_misc/lv_color.h ****         return 0xFFFF;
 367:lvgl\src\lv_widgets\../lv_core/../lv_misc/lv_color.h **** #elif LV_COLOR_DEPTH == 8
 368:lvgl\src\lv_widgets\../lv_core/../lv_misc/lv_color.h ****     lv_color16_t ret;
 369:lvgl\src\lv_widgets\../lv_core/../lv_misc/lv_color.h ****     LV_COLOR_SET_R16(ret, LV_COLOR_GET_R(color) * 4);     /*(2^5 - 1)/(2^3 - 1) = 31/7 = 4*/
 370:lvgl\src\lv_widgets\../lv_core/../lv_misc/lv_color.h **** #if LV_COLOR_16_SWAP == 0
 371:lvgl\src\lv_widgets\../lv_core/../lv_misc/lv_color.h ****     LV_COLOR_SET_G16(ret,  LV_COLOR_GET_G(color) * 9); /*(2^6 - 1)/(2^3 - 1) = 63/7 = 9*/
 372:lvgl\src\lv_widgets\../lv_core/../lv_misc/lv_color.h **** #else
 373:lvgl\src\lv_widgets\../lv_core/../lv_misc/lv_color.h ****     LV_COLOR_SET_G16_SWAP(ret, (LV_COLOR_GET_G(color) * 9)); /*(2^6 - 1)/(2^3 - 1) = 63/7 = 9*/
 374:lvgl\src\lv_widgets\../lv_core/../lv_misc/lv_color.h **** #endif
 375:lvgl\src\lv_widgets\../lv_core/../lv_misc/lv_color.h ****     LV_COLOR_SET_B16(ret, LV_COLOR_GET_B(color) * 10);  /*(2^5 - 1)/(2^2 - 1) = 31/3 = 10*/
 376:lvgl\src\lv_widgets\../lv_core/../lv_misc/lv_color.h ****     return ret.full;
 377:lvgl\src\lv_widgets\../lv_core/../lv_misc/lv_color.h **** #elif LV_COLOR_DEPTH == 16
 378:lvgl\src\lv_widgets\../lv_core/../lv_misc/lv_color.h ****     return color.full;
 379:lvgl\src\lv_widgets\../lv_core/../lv_misc/lv_color.h **** #elif LV_COLOR_DEPTH == 32
 380:lvgl\src\lv_widgets\../lv_core/../lv_misc/lv_color.h ****     lv_color16_t ret;
 381:lvgl\src\lv_widgets\../lv_core/../lv_misc/lv_color.h ****     LV_COLOR_SET_R16(ret, LV_COLOR_GET_R(color) >> 3);   /* 8 - 5  = 3*/
 382:lvgl\src\lv_widgets\../lv_core/../lv_misc/lv_color.h **** 
 383:lvgl\src\lv_widgets\../lv_core/../lv_misc/lv_color.h **** #if LV_COLOR_16_SWAP == 0
 384:lvgl\src\lv_widgets\../lv_core/../lv_misc/lv_color.h ****     LV_COLOR_SET_G16(ret, LV_COLOR_GET_G(color) >> 2); /* 8 - 6  = 2*/
 385:lvgl\src\lv_widgets\../lv_core/../lv_misc/lv_color.h **** #else
 386:lvgl\src\lv_widgets\../lv_core/../lv_misc/lv_color.h ****     LV_COLOR_SET_G16_SWAP(ret, ret.ch.green_h = (LV_COLOR_GET_G(color) >> 2); /*(2^6 - 1)/(2^3 - 1)
ARM GAS  C:\Users\strap\AppData\Local\Temp\cctVSytp.s 			page 15


 387:lvgl\src\lv_widgets\../lv_core/../lv_misc/lv_color.h **** #endif
 388:lvgl\src\lv_widgets\../lv_core/../lv_misc/lv_color.h ****     LV_COLOR_SET_B16(ret, LV_COLOR_GET_B(color) >> 3);  /* 8 - 5  = 3*/
 389:lvgl\src\lv_widgets\../lv_core/../lv_misc/lv_color.h ****     return ret.full;
 390:lvgl\src\lv_widgets\../lv_core/../lv_misc/lv_color.h **** #endif
 391:lvgl\src\lv_widgets\../lv_core/../lv_misc/lv_color.h **** }
 392:lvgl\src\lv_widgets\../lv_core/../lv_misc/lv_color.h **** 
 393:lvgl\src\lv_widgets\../lv_core/../lv_misc/lv_color.h **** static inline uint32_t lv_color_to32(lv_color_t color)
 394:lvgl\src\lv_widgets\../lv_core/../lv_misc/lv_color.h **** {
 395:lvgl\src\lv_widgets\../lv_core/../lv_misc/lv_color.h **** #if LV_COLOR_DEPTH == 1
 396:lvgl\src\lv_widgets\../lv_core/../lv_misc/lv_color.h ****     if(color.full == 0)
 397:lvgl\src\lv_widgets\../lv_core/../lv_misc/lv_color.h ****         return 0xFF000000;
 398:lvgl\src\lv_widgets\../lv_core/../lv_misc/lv_color.h ****     else
 399:lvgl\src\lv_widgets\../lv_core/../lv_misc/lv_color.h ****         return 0xFFFFFFFF;
 400:lvgl\src\lv_widgets\../lv_core/../lv_misc/lv_color.h **** #elif LV_COLOR_DEPTH == 8
 401:lvgl\src\lv_widgets\../lv_core/../lv_misc/lv_color.h ****     lv_color32_t ret;
 402:lvgl\src\lv_widgets\../lv_core/../lv_misc/lv_color.h ****     LV_COLOR_SET_R32(ret, LV_COLOR_GET_R(color) * 36);     /*(2^8 - 1)/(2^3 - 1) = 255/7 = 36*/
 403:lvgl\src\lv_widgets\../lv_core/../lv_misc/lv_color.h ****     LV_COLOR_SET_G32(ret, LV_COLOR_GET_G(color) * 36); /*(2^8 - 1)/(2^3 - 1) = 255/7 = 36*/
 404:lvgl\src\lv_widgets\../lv_core/../lv_misc/lv_color.h ****     LV_COLOR_SET_B32(ret, LV_COLOR_GET_B(color) * 85);   /*(2^8 - 1)/(2^2 - 1) = 255/3 = 85*/
 405:lvgl\src\lv_widgets\../lv_core/../lv_misc/lv_color.h ****     LV_COLOR_SET_A32(ret, 0xFF);
 406:lvgl\src\lv_widgets\../lv_core/../lv_misc/lv_color.h ****     return ret.full;
 407:lvgl\src\lv_widgets\../lv_core/../lv_misc/lv_color.h **** #elif LV_COLOR_DEPTH == 16
 408:lvgl\src\lv_widgets\../lv_core/../lv_misc/lv_color.h ****     /**
 409:lvgl\src\lv_widgets\../lv_core/../lv_misc/lv_color.h ****      * The floating point math for conversion is:
 410:lvgl\src\lv_widgets\../lv_core/../lv_misc/lv_color.h ****      *  valueto = valuefrom * ( (2^bitsto - 1) / (float)(2^bitsfrom - 1) )
 411:lvgl\src\lv_widgets\../lv_core/../lv_misc/lv_color.h ****      * The faster integer math for conversion is:
 412:lvgl\src\lv_widgets\../lv_core/../lv_misc/lv_color.h ****      *  valueto = ( valuefrom * multiplier + adder ) >> divisor
 413:lvgl\src\lv_widgets\../lv_core/../lv_misc/lv_color.h ****      *   multiplier = FLOOR( ( (2^bitsto - 1) << divisor ) / (float)(2^bitsfrom - 1) )
 414:lvgl\src\lv_widgets\../lv_core/../lv_misc/lv_color.h ****      *
 415:lvgl\src\lv_widgets\../lv_core/../lv_misc/lv_color.h ****      * Find the first divisor where ( adder >> divisor ) <= 0
 416:lvgl\src\lv_widgets\../lv_core/../lv_misc/lv_color.h ****      *
 417:lvgl\src\lv_widgets\../lv_core/../lv_misc/lv_color.h ****      * 5-bit to 8-bit: ( 31 * multiplier + adder ) >> divisor = 255
 418:lvgl\src\lv_widgets\../lv_core/../lv_misc/lv_color.h ****      * divisor  multiplier  adder  min (0)  max (31)
 419:lvgl\src\lv_widgets\../lv_core/../lv_misc/lv_color.h ****      *       0           8      7        7       255
 420:lvgl\src\lv_widgets\../lv_core/../lv_misc/lv_color.h ****      *       1          16     14        7       255
 421:lvgl\src\lv_widgets\../lv_core/../lv_misc/lv_color.h ****      *       2          32     28        7       255
 422:lvgl\src\lv_widgets\../lv_core/../lv_misc/lv_color.h ****      *       3          65     25        3       255
 423:lvgl\src\lv_widgets\../lv_core/../lv_misc/lv_color.h ****      *       4         131     19        1       255
 424:lvgl\src\lv_widgets\../lv_core/../lv_misc/lv_color.h ****      *       5         263      7        0       255
 425:lvgl\src\lv_widgets\../lv_core/../lv_misc/lv_color.h ****      *
 426:lvgl\src\lv_widgets\../lv_core/../lv_misc/lv_color.h ****      * 6-bit to 8-bit: 255 = ( 63 * multiplier + adder ) >> divisor
 427:lvgl\src\lv_widgets\../lv_core/../lv_misc/lv_color.h ****      * divisor  multiplier  adder  min (0)  max (63)
 428:lvgl\src\lv_widgets\../lv_core/../lv_misc/lv_color.h ****      *       0           4      3        3       255
 429:lvgl\src\lv_widgets\../lv_core/../lv_misc/lv_color.h ****      *       1           8      6        3       255
 430:lvgl\src\lv_widgets\../lv_core/../lv_misc/lv_color.h ****      *       2          16     12        3       255
 431:lvgl\src\lv_widgets\../lv_core/../lv_misc/lv_color.h ****      *       3          32     24        3       255
 432:lvgl\src\lv_widgets\../lv_core/../lv_misc/lv_color.h ****      *       4          64     48        3       255
 433:lvgl\src\lv_widgets\../lv_core/../lv_misc/lv_color.h ****      *       5         129     33        1       255
 434:lvgl\src\lv_widgets\../lv_core/../lv_misc/lv_color.h ****      *       6         259      3        0       255
 435:lvgl\src\lv_widgets\../lv_core/../lv_misc/lv_color.h ****      */
 436:lvgl\src\lv_widgets\../lv_core/../lv_misc/lv_color.h **** 
 437:lvgl\src\lv_widgets\../lv_core/../lv_misc/lv_color.h ****     lv_color32_t ret;
 438:lvgl\src\lv_widgets\../lv_core/../lv_misc/lv_color.h ****     LV_COLOR_SET_R32(ret, (LV_COLOR_GET_R(color) * 263 + 7) >> 5);
 439:lvgl\src\lv_widgets\../lv_core/../lv_misc/lv_color.h ****     LV_COLOR_SET_G32(ret, (LV_COLOR_GET_G(color) * 259 + 3) >> 6);
 440:lvgl\src\lv_widgets\../lv_core/../lv_misc/lv_color.h ****     LV_COLOR_SET_B32(ret, (LV_COLOR_GET_B(color) * 263 + 7) >> 5);
 441:lvgl\src\lv_widgets\../lv_core/../lv_misc/lv_color.h ****     LV_COLOR_SET_A32(ret, 0xFF);
 442:lvgl\src\lv_widgets\../lv_core/../lv_misc/lv_color.h ****     return ret.full;
 443:lvgl\src\lv_widgets\../lv_core/../lv_misc/lv_color.h **** #elif LV_COLOR_DEPTH == 32
ARM GAS  C:\Users\strap\AppData\Local\Temp\cctVSytp.s 			page 16


 444:lvgl\src\lv_widgets\../lv_core/../lv_misc/lv_color.h ****     return color.full;
 445:lvgl\src\lv_widgets\../lv_core/../lv_misc/lv_color.h **** #endif
 446:lvgl\src\lv_widgets\../lv_core/../lv_misc/lv_color.h **** }
 447:lvgl\src\lv_widgets\../lv_core/../lv_misc/lv_color.h **** 
 448:lvgl\src\lv_widgets\../lv_core/../lv_misc/lv_color.h **** 
 449:lvgl\src\lv_widgets\../lv_core/../lv_misc/lv_color.h **** //! @cond Doxygen_Suppress
 450:lvgl\src\lv_widgets\../lv_core/../lv_misc/lv_color.h **** 
 451:lvgl\src\lv_widgets\../lv_core/../lv_misc/lv_color.h **** /**
 452:lvgl\src\lv_widgets\../lv_core/../lv_misc/lv_color.h ****  * Mix two colors with a given ratio.
 453:lvgl\src\lv_widgets\../lv_core/../lv_misc/lv_color.h ****  * @param c1 the first color to mix (usually the foreground)
 454:lvgl\src\lv_widgets\../lv_core/../lv_misc/lv_color.h ****  * @param c2 the second color to mix (usually the background)
 455:lvgl\src\lv_widgets\../lv_core/../lv_misc/lv_color.h ****  * @param mix The ratio of the colors. 0: full `c2`, 255: full `c1`, 127: half `c1` and half`c2`
 456:lvgl\src\lv_widgets\../lv_core/../lv_misc/lv_color.h ****  * @return the mixed color
 457:lvgl\src\lv_widgets\../lv_core/../lv_misc/lv_color.h ****  */
 458:lvgl\src\lv_widgets\../lv_core/../lv_misc/lv_color.h **** LV_ATTRIBUTE_FAST_MEM static inline lv_color_t lv_color_mix(lv_color_t c1, lv_color_t c2, uint8_t m
 459:lvgl\src\lv_widgets\../lv_core/../lv_misc/lv_color.h **** {
 460:lvgl\src\lv_widgets\../lv_core/../lv_misc/lv_color.h ****     lv_color_t ret;
 461:lvgl\src\lv_widgets\../lv_core/../lv_misc/lv_color.h **** #if LV_COLOR_DEPTH != 1
 462:lvgl\src\lv_widgets\../lv_core/../lv_misc/lv_color.h ****     /*LV_COLOR_DEPTH == 8, 16 or 32*/
 463:lvgl\src\lv_widgets\../lv_core/../lv_misc/lv_color.h ****     LV_COLOR_SET_R(ret, LV_MATH_UDIV255((uint16_t) LV_COLOR_GET_R(c1) * mix + LV_COLOR_GET_R(c2) *
 153              		.loc 2 463 0
 154 0036 C7F3C401 		ubfx	r1, r7, #3, #5
 155 003a 02FB01F1 		mul	r1, r2, r1
 156 003e 8031     		adds	r1, r1, #128
 157 0040 01EB0120 		add	r0, r1, r1, lsl #8
 158 0044 01EBC011 		add	r1, r1, r0, lsl #7
 159 0048 C80D     		lsrs	r0, r1, #23
 160 004a 4FF00001 		mov	r1, #0	@ movhi
 161              	.LVL18:
 162 004e 60F3C701 		bfi	r1, r0, #3, #5
 163              	.LVL19:
 464:lvgl\src\lv_widgets\../lv_core/../lv_misc/lv_color.h ****                                         (255 - mix) + LV_COLOR_MIX_ROUND_OFS));
 465:lvgl\src\lv_widgets\../lv_core/../lv_misc/lv_color.h ****     LV_COLOR_SET_G(ret, LV_MATH_UDIV255((uint16_t) LV_COLOR_GET_G(c1) * mix + LV_COLOR_GET_G(c2) *
 164              		.loc 2 465 0
 165 0052 07F00700 		and	r0, r7, #7
 166 0056 C7F34233 		ubfx	r3, r7, #13, #3
 167 005a 03EBC003 		add	r3, r3, r0, lsl #3
 168 005e 02FB03F3 		mul	r3, r2, r3
 169 0062 8033     		adds	r3, r3, #128
 170 0064 03EB0320 		add	r0, r3, r3, lsl #8
 171 0068 03EBC013 		add	r3, r3, r0, lsl #7
 172 006c 980E     		lsrs	r0, r3, #26
 173 006e 60F30201 		bfi	r1, r0, #0, #3
 174 0072 DB0D     		lsrs	r3, r3, #23
 175 0074 63F34F31 		bfi	r1, r3, #13, #3
 466:lvgl\src\lv_widgets\../lv_core/../lv_misc/lv_color.h ****                                         (255 - mix) + LV_COLOR_MIX_ROUND_OFS));
 467:lvgl\src\lv_widgets\../lv_core/../lv_misc/lv_color.h ****     LV_COLOR_SET_B(ret, LV_MATH_UDIV255((uint16_t) LV_COLOR_GET_B(c1) * mix + LV_COLOR_GET_B(c2) *
 176              		.loc 2 467 0
 177 0078 C7F30423 		ubfx	r3, r7, #8, #5
 178 007c 02FB03F3 		mul	r3, r2, r3
 179 0080 8033     		adds	r3, r3, #128
 180 0082 03EB0322 		add	r2, r3, r3, lsl #8
 181              	.LVL20:
 182 0086 03EBC213 		add	r3, r3, r2, lsl #7
 183 008a DB0D     		lsrs	r3, r3, #23
 184 008c 63F30C21 		bfi	r1, r3, #8, #5
 185              	.LVL21:
ARM GAS  C:\Users\strap\AppData\Local\Temp\cctVSytp.s 			page 17


 186              	.LBE15:
 187              	.LBE14:
 208:lvgl\src\lv_widgets/lv_led.c ****         rect_dsc.bg_grad_color   = lv_color_mix(rect_dsc.bg_grad_color, LV_COLOR_BLACK, ext->bright
 188              		.loc 1 208 0
 189 0090 ADF80610 		strh	r1, [sp, #6]	@ movhi
 209:lvgl\src\lv_widgets/lv_led.c ****         rect_dsc.border_color = lv_color_mix(rect_dsc.border_color, LV_COLOR_BLACK, ext->bright);
 190              		.loc 1 209 0
 191 0094 2278     		ldrb	r2, [r4]	@ zero_extendqisi2
 192 0096 BDF80870 		ldrh	r7, [sp, #8]
 193              	.LVL22:
 194              	.LBB16:
 195              	.LBB17:
 463:lvgl\src\lv_widgets\../lv_core/../lv_misc/lv_color.h ****                                         (255 - mix) + LV_COLOR_MIX_ROUND_OFS));
 196              		.loc 2 463 0
 197 009a C7F3C401 		ubfx	r1, r7, #3, #5
 198              	.LVL23:
 199 009e 02FB01F1 		mul	r1, r2, r1
 200 00a2 8031     		adds	r1, r1, #128
 201 00a4 01EB0120 		add	r0, r1, r1, lsl #8
 202 00a8 01EBC011 		add	r1, r1, r0, lsl #7
 203 00ac C80D     		lsrs	r0, r1, #23
 204 00ae 4FF00001 		mov	r1, #0	@ movhi
 205              	.LVL24:
 206 00b2 60F3C701 		bfi	r1, r0, #3, #5
 207              	.LVL25:
 465:lvgl\src\lv_widgets\../lv_core/../lv_misc/lv_color.h ****                                         (255 - mix) + LV_COLOR_MIX_ROUND_OFS));
 208              		.loc 2 465 0
 209 00b6 07F00700 		and	r0, r7, #7
 210 00ba C7F34233 		ubfx	r3, r7, #13, #3
 211 00be 03EBC003 		add	r3, r3, r0, lsl #3
 212 00c2 02FB03F3 		mul	r3, r2, r3
 213 00c6 8033     		adds	r3, r3, #128
 214 00c8 03EB0320 		add	r0, r3, r3, lsl #8
 215 00cc 03EBC013 		add	r3, r3, r0, lsl #7
 216 00d0 980E     		lsrs	r0, r3, #26
 217 00d2 60F30201 		bfi	r1, r0, #0, #3
 218 00d6 DB0D     		lsrs	r3, r3, #23
 219 00d8 63F34F31 		bfi	r1, r3, #13, #3
 220              		.loc 2 467 0
 221 00dc C7F30423 		ubfx	r3, r7, #8, #5
 222 00e0 02FB03F3 		mul	r3, r2, r3
 223 00e4 8033     		adds	r3, r3, #128
 224 00e6 03EB0322 		add	r2, r3, r3, lsl #8
 225              	.LVL26:
 226 00ea 03EBC213 		add	r3, r3, r2, lsl #7
 227 00ee DB0D     		lsrs	r3, r3, #23
 228 00f0 63F30C21 		bfi	r1, r3, #8, #5
 229              	.LVL27:
 230              	.LBE17:
 231              	.LBE16:
 209:lvgl\src\lv_widgets/lv_led.c ****         rect_dsc.border_color = lv_color_mix(rect_dsc.border_color, LV_COLOR_BLACK, ext->bright);
 232              		.loc 1 209 0
 233 00f4 ADF80810 		strh	r1, [sp, #8]	@ movhi
 210:lvgl\src\lv_widgets/lv_led.c ****         rect_dsc.shadow_color = lv_color_mix(rect_dsc.shadow_color, LV_COLOR_BLACK, ext->bright);
 234              		.loc 1 210 0
 235 00f8 2278     		ldrb	r2, [r4]	@ zero_extendqisi2
 236 00fa BDF81270 		ldrh	r7, [sp, #18]
ARM GAS  C:\Users\strap\AppData\Local\Temp\cctVSytp.s 			page 18


 237              	.LVL28:
 238              	.LBB18:
 239              	.LBB19:
 463:lvgl\src\lv_widgets\../lv_core/../lv_misc/lv_color.h ****                                         (255 - mix) + LV_COLOR_MIX_ROUND_OFS));
 240              		.loc 2 463 0
 241 00fe C7F3C401 		ubfx	r1, r7, #3, #5
 242              	.LVL29:
 243 0102 02FB01F1 		mul	r1, r2, r1
 244 0106 8031     		adds	r1, r1, #128
 245 0108 01EB0120 		add	r0, r1, r1, lsl #8
 246 010c 01EBC011 		add	r1, r1, r0, lsl #7
 247 0110 C80D     		lsrs	r0, r1, #23
 248 0112 4FF00001 		mov	r1, #0	@ movhi
 249              	.LVL30:
 250 0116 60F3C701 		bfi	r1, r0, #3, #5
 251              	.LVL31:
 465:lvgl\src\lv_widgets\../lv_core/../lv_misc/lv_color.h ****                                         (255 - mix) + LV_COLOR_MIX_ROUND_OFS));
 252              		.loc 2 465 0
 253 011a 07F00700 		and	r0, r7, #7
 254 011e C7F34233 		ubfx	r3, r7, #13, #3
 255 0122 03EBC003 		add	r3, r3, r0, lsl #3
 256 0126 02FB03F3 		mul	r3, r2, r3
 257 012a 8033     		adds	r3, r3, #128
 258 012c 03EB0320 		add	r0, r3, r3, lsl #8
 259 0130 03EBC013 		add	r3, r3, r0, lsl #7
 260 0134 980E     		lsrs	r0, r3, #26
 261 0136 60F30201 		bfi	r1, r0, #0, #3
 262 013a DB0D     		lsrs	r3, r3, #23
 263 013c 63F34F31 		bfi	r1, r3, #13, #3
 264              		.loc 2 467 0
 265 0140 C7F30423 		ubfx	r3, r7, #8, #5
 266 0144 02FB03F3 		mul	r3, r2, r3
 267 0148 8033     		adds	r3, r3, #128
 268 014a 03EB0322 		add	r2, r3, r3, lsl #8
 269              	.LVL32:
 270 014e 03EBC213 		add	r3, r3, r2, lsl #7
 271 0152 DB0D     		lsrs	r3, r3, #23
 272 0154 63F30C21 		bfi	r1, r3, #8, #5
 273              	.LVL33:
 274              	.LBE19:
 275              	.LBE18:
 210:lvgl\src\lv_widgets/lv_led.c ****         rect_dsc.shadow_color = lv_color_mix(rect_dsc.shadow_color, LV_COLOR_BLACK, ext->bright);
 276              		.loc 1 210 0
 277 0158 ADF81210 		strh	r1, [sp, #18]	@ movhi
 211:lvgl\src\lv_widgets/lv_led.c **** 
 278              		.loc 1 211 0
 279 015c 2278     		ldrb	r2, [r4]	@ zero_extendqisi2
 280 015e BDF82470 		ldrh	r7, [sp, #36]
 281              	.LVL34:
 282              	.LBB20:
 283              	.LBB21:
 463:lvgl\src\lv_widgets\../lv_core/../lv_misc/lv_color.h ****                                         (255 - mix) + LV_COLOR_MIX_ROUND_OFS));
 284              		.loc 2 463 0
 285 0162 C7F3C401 		ubfx	r1, r7, #3, #5
 286              	.LVL35:
 287 0166 02FB01F1 		mul	r1, r2, r1
 288 016a 8031     		adds	r1, r1, #128
ARM GAS  C:\Users\strap\AppData\Local\Temp\cctVSytp.s 			page 19


 289 016c 01EB0120 		add	r0, r1, r1, lsl #8
 290 0170 01EBC011 		add	r1, r1, r0, lsl #7
 291 0174 C80D     		lsrs	r0, r1, #23
 292 0176 4FF00001 		mov	r1, #0	@ movhi
 293              	.LVL36:
 294 017a 60F3C701 		bfi	r1, r0, #3, #5
 295              	.LVL37:
 465:lvgl\src\lv_widgets\../lv_core/../lv_misc/lv_color.h ****                                         (255 - mix) + LV_COLOR_MIX_ROUND_OFS));
 296              		.loc 2 465 0
 297 017e 07F00700 		and	r0, r7, #7
 298 0182 C7F34233 		ubfx	r3, r7, #13, #3
 299 0186 03EBC003 		add	r3, r3, r0, lsl #3
 300 018a 02FB03F3 		mul	r3, r2, r3
 301 018e 8033     		adds	r3, r3, #128
 302 0190 03EB0320 		add	r0, r3, r3, lsl #8
 303 0194 03EBC013 		add	r3, r3, r0, lsl #7
 304 0198 980E     		lsrs	r0, r3, #26
 305 019a 60F30201 		bfi	r1, r0, #0, #3
 306 019e DB0D     		lsrs	r3, r3, #23
 307 01a0 63F34F31 		bfi	r1, r3, #13, #3
 308              		.loc 2 467 0
 309 01a4 C7F30423 		ubfx	r3, r7, #8, #5
 310 01a8 02FB03F3 		mul	r3, r2, r3
 311 01ac 8033     		adds	r3, r3, #128
 312 01ae 03EB0322 		add	r2, r3, r3, lsl #8
 313              	.LVL38:
 314 01b2 03EBC213 		add	r3, r3, r2, lsl #7
 315 01b6 DB0D     		lsrs	r3, r3, #23
 316 01b8 63F30C21 		bfi	r1, r3, #8, #5
 317              	.LVL39:
 318              	.LBE21:
 319              	.LBE20:
 211:lvgl\src\lv_widgets/lv_led.c **** 
 320              		.loc 1 211 0
 321 01bc ADF82410 		strh	r1, [sp, #36]	@ movhi
 215:lvgl\src\lv_widgets/lv_led.c ****                                 (LV_LED_BRIGHT_MAX - LV_LED_BRIGHT_MIN);
 322              		.loc 1 215 0
 323 01c0 2278     		ldrb	r2, [r4]	@ zero_extendqisi2
 324 01c2 A2F17803 		sub	r3, r2, #120
 325 01c6 BDF92620 		ldrsh	r2, [sp, #38]
 326 01ca 03FB02F2 		mul	r2, r3, r2
 327 01ce 1249     		ldr	r1, .L15+4
 328              	.LVL40:
 329 01d0 81FB0203 		smull	r0, r3, r1, r2
 330 01d4 1344     		add	r3, r3, r2
 331 01d6 D217     		asrs	r2, r2, #31
 332 01d8 C2EBE312 		rsb	r2, r2, r3, asr #7
 333 01dc ADF82620 		strh	r2, [sp, #38]	@ movhi
 217:lvgl\src\lv_widgets/lv_led.c ****                                  (LV_LED_BRIGHT_MAX - LV_LED_BRIGHT_MIN);
 334              		.loc 1 217 0
 335 01e0 2378     		ldrb	r3, [r4]	@ zero_extendqisi2
 336 01e2 A3F17802 		sub	r2, r3, #120
 337 01e6 BDF92C30 		ldrsh	r3, [sp, #44]
 338 01ea 02FB03F3 		mul	r3, r2, r3
 339 01ee 81FB0321 		smull	r2, r1, r1, r3
 340 01f2 1944     		add	r1, r1, r3
 341 01f4 DB17     		asrs	r3, r3, #31
ARM GAS  C:\Users\strap\AppData\Local\Temp\cctVSytp.s 			page 20


 342 01f6 C3EBE113 		rsb	r3, r3, r1, asr #7
 343 01fa ADF82C30 		strh	r3, [sp, #44]	@ movhi
 220:lvgl\src\lv_widgets/lv_led.c ****     }
 344              		.loc 1 220 0
 345 01fe 01AA     		add	r2, sp, #4
 346 0200 3146     		mov	r1, r6
 347 0202 05F11000 		add	r0, r5, #16
 348 0206 FFF7FEFF 		bl	lv_draw_rect
 349              	.LVL41:
 350              	.LBE13:
 222:lvgl\src\lv_widgets/lv_led.c **** }
 351              		.loc 1 222 0
 352 020a 0020     		movs	r0, #0
 353 020c 00E0     		b	.L12
 354              	.LVL42:
 355              	.L13:
 356 020e 0020     		movs	r0, #0
 357              	.LVL43:
 358              	.L12:
 223:lvgl\src\lv_widgets/lv_led.c **** 
 359              		.loc 1 223 0
 360 0210 17B0     		add	sp, sp, #92
 361              		.cfi_def_cfa_offset 20
 362              		@ sp needed
 363 0212 F0BD     		pop	{r4, r5, r6, r7, pc}
 364              	.LVL44:
 365              	.L16:
 366              		.align	2
 367              	.L15:
 368 0214 00000000 		.word	.LANCHOR0
 369 0218 49D6B9F2 		.word	-222702007
 370              		.cfi_endproc
 371              	.LFE334:
 372              		.size	lv_led_design, .-lv_led_design
 373              		.section	.text.lv_led_create,"ax",%progbits
 374              		.align	2
 375              		.global	lv_led_create
 376              		.thumb
 377              		.thumb_func
 378              		.type	lv_led_create, %function
 379              	lv_led_create:
 380              	.LFB328:
  55:lvgl\src\lv_widgets/lv_led.c ****     LV_LOG_TRACE("led create started");
 381              		.loc 1 55 0
 382              		.cfi_startproc
 383              		@ args = 0, pretend = 0, frame = 0
 384              		@ frame_needed = 0, uses_anonymous_args = 0
 385              	.LVL45:
 386 0000 70B5     		push	{r4, r5, r6, lr}
 387              		.cfi_def_cfa_offset 16
 388              		.cfi_offset 4, -16
 389              		.cfi_offset 5, -12
 390              		.cfi_offset 6, -8
 391              		.cfi_offset 14, -4
 392 0002 0E46     		mov	r6, r1
  59:lvgl\src\lv_widgets/lv_led.c ****     LV_ASSERT_MEM(led);
 393              		.loc 1 59 0
ARM GAS  C:\Users\strap\AppData\Local\Temp\cctVSytp.s 			page 21


 394 0004 FFF7FEFF 		bl	lv_obj_create
 395              	.LVL46:
 396 0008 0446     		mov	r4, r0
 397              	.LVL47:
  60:lvgl\src\lv_widgets/lv_led.c ****     if(led == NULL) return NULL;
 398              		.loc 1 60 0
 399 000a FFF7FEFF 		bl	lv_debug_check_null
 400              	.LVL48:
 401 000e 28B9     		cbnz	r0, .L18
  60:lvgl\src\lv_widgets/lv_led.c ****     if(led == NULL) return NULL;
 402              		.loc 1 60 0 is_stmt 0 discriminator 1
 403 0010 2246     		mov	r2, r4
 404 0012 0023     		movs	r3, #0
 405 0014 2648     		ldr	r0, .L29
 406 0016 FFF7FEFF 		bl	lv_debug_log_error
 407              	.LVL49:
 408              	.L19:
 409 001a FEE7     		b	.L19
 410              	.L18:
  61:lvgl\src\lv_widgets/lv_led.c **** 
 411              		.loc 1 61 0 is_stmt 1
 412 001c 002C     		cmp	r4, #0
 413 001e 45D0     		beq	.L27
  63:lvgl\src\lv_widgets/lv_led.c ****     if(ancestor_design == NULL) ancestor_design = lv_obj_get_design_cb(led);
 414              		.loc 1 63 0
 415 0020 244B     		ldr	r3, .L29+4
 416 0022 1B68     		ldr	r3, [r3]
 417 0024 23B9     		cbnz	r3, .L21
  63:lvgl\src\lv_widgets/lv_led.c ****     if(ancestor_design == NULL) ancestor_design = lv_obj_get_design_cb(led);
 418              		.loc 1 63 0 is_stmt 0 discriminator 1
 419 0026 2046     		mov	r0, r4
 420 0028 FFF7FEFF 		bl	lv_obj_get_signal_cb
 421              	.LVL50:
 422 002c 214B     		ldr	r3, .L29+4
 423 002e 1860     		str	r0, [r3]
 424              	.L21:
  64:lvgl\src\lv_widgets/lv_led.c **** 
 425              		.loc 1 64 0 is_stmt 1
 426 0030 204B     		ldr	r3, .L29+4
 427 0032 5B68     		ldr	r3, [r3, #4]
 428 0034 23B9     		cbnz	r3, .L22
  64:lvgl\src\lv_widgets/lv_led.c **** 
 429              		.loc 1 64 0 is_stmt 0 discriminator 1
 430 0036 2046     		mov	r0, r4
 431 0038 FFF7FEFF 		bl	lv_obj_get_design_cb
 432              	.LVL51:
 433 003c 1D4B     		ldr	r3, .L29+4
 434 003e 5860     		str	r0, [r3, #4]
 435              	.L22:
  67:lvgl\src\lv_widgets/lv_led.c ****     LV_ASSERT_MEM(ext);
 436              		.loc 1 67 0 is_stmt 1
 437 0040 0121     		movs	r1, #1
 438 0042 2046     		mov	r0, r4
 439 0044 FFF7FEFF 		bl	lv_obj_allocate_ext_attr
 440              	.LVL52:
 441 0048 0546     		mov	r5, r0
 442              	.LVL53:
ARM GAS  C:\Users\strap\AppData\Local\Temp\cctVSytp.s 			page 22


  68:lvgl\src\lv_widgets/lv_led.c ****     if(ext == NULL) {
 443              		.loc 1 68 0
 444 004a FFF7FEFF 		bl	lv_debug_check_null
 445              	.LVL54:
 446 004e 28B9     		cbnz	r0, .L23
  68:lvgl\src\lv_widgets/lv_led.c ****     if(ext == NULL) {
 447              		.loc 1 68 0 is_stmt 0 discriminator 1
 448 0050 2A46     		mov	r2, r5
 449 0052 0023     		movs	r3, #0
 450 0054 1648     		ldr	r0, .L29
 451 0056 FFF7FEFF 		bl	lv_debug_log_error
 452              	.LVL55:
 453              	.L24:
 454 005a FEE7     		b	.L24
 455              	.L23:
  69:lvgl\src\lv_widgets/lv_led.c ****         lv_obj_del(led);
 456              		.loc 1 69 0 is_stmt 1
 457 005c 25B9     		cbnz	r5, .L25
  70:lvgl\src\lv_widgets/lv_led.c ****         return NULL;
 458              		.loc 1 70 0
 459 005e 2046     		mov	r0, r4
 460 0060 FFF7FEFF 		bl	lv_obj_del
 461              	.LVL56:
  71:lvgl\src\lv_widgets/lv_led.c ****     }
 462              		.loc 1 71 0
 463 0064 0020     		movs	r0, #0
 464 0066 70BD     		pop	{r4, r5, r6, pc}
 465              	.LVL57:
 466              	.L25:
  74:lvgl\src\lv_widgets/lv_led.c **** 
 467              		.loc 1 74 0
 468 0068 FF23     		movs	r3, #255
 469 006a 2B70     		strb	r3, [r5]
  76:lvgl\src\lv_widgets/lv_led.c ****     lv_obj_set_design_cb(led, lv_led_design);
 470              		.loc 1 76 0
 471 006c 1249     		ldr	r1, .L29+8
 472 006e 2046     		mov	r0, r4
 473 0070 FFF7FEFF 		bl	lv_obj_set_signal_cb
 474              	.LVL58:
  77:lvgl\src\lv_widgets/lv_led.c **** 
 475              		.loc 1 77 0
 476 0074 1149     		ldr	r1, .L29+12
 477 0076 2046     		mov	r0, r4
 478 0078 FFF7FEFF 		bl	lv_obj_set_design_cb
 479              	.LVL59:
  80:lvgl\src\lv_widgets/lv_led.c ****         lv_obj_set_size(led, LV_LED_WIDTH_DEF, LV_LED_HEIGHT_DEF);
 480              		.loc 1 80 0
 481 007c 56B9     		cbnz	r6, .L26
  81:lvgl\src\lv_widgets/lv_led.c **** 
 482              		.loc 1 81 0
 483 007e 2B22     		movs	r2, #43
 484 0080 1146     		mov	r1, r2
 485 0082 2046     		mov	r0, r4
 486 0084 FFF7FEFF 		bl	lv_obj_set_size
 487              	.LVL60:
  83:lvgl\src\lv_widgets/lv_led.c ****     }
 488              		.loc 1 83 0
ARM GAS  C:\Users\strap\AppData\Local\Temp\cctVSytp.s 			page 23


 489 0088 0921     		movs	r1, #9
 490 008a 2046     		mov	r0, r4
 491 008c FFF7FEFF 		bl	lv_theme_apply
 492              	.LVL61:
  96:lvgl\src\lv_widgets/lv_led.c **** }
 493              		.loc 1 96 0
 494 0090 2046     		mov	r0, r4
 495 0092 70BD     		pop	{r4, r5, r6, pc}
 496              	.LVL62:
 497              	.L26:
 498              	.LBB22:
  87:lvgl\src\lv_widgets/lv_led.c ****         ext->bright             = copy_ext->bright;
 499              		.loc 1 87 0
 500 0094 3046     		mov	r0, r6
 501 0096 FFF7FEFF 		bl	lv_obj_get_ext_attr
 502              	.LVL63:
  88:lvgl\src\lv_widgets/lv_led.c **** 
 503              		.loc 1 88 0
 504 009a 0378     		ldrb	r3, [r0]	@ zero_extendqisi2
 505 009c 2B70     		strb	r3, [r5]
  91:lvgl\src\lv_widgets/lv_led.c ****     }
 506              		.loc 1 91 0
 507 009e FF22     		movs	r2, #255
 508 00a0 1146     		mov	r1, r2
 509 00a2 2046     		mov	r0, r4
 510              	.LVL64:
 511 00a4 FFF7FEFF 		bl	lv_obj_refresh_style
 512              	.LVL65:
 513              	.LBE22:
  96:lvgl\src\lv_widgets/lv_led.c **** }
 514              		.loc 1 96 0
 515 00a8 2046     		mov	r0, r4
 516 00aa 70BD     		pop	{r4, r5, r6, pc}
 517              	.LVL66:
 518              	.L27:
  61:lvgl\src\lv_widgets/lv_led.c **** 
 519              		.loc 1 61 0
 520 00ac 0020     		movs	r0, #0
  97:lvgl\src\lv_widgets/lv_led.c **** 
 521              		.loc 1 97 0
 522 00ae 70BD     		pop	{r4, r5, r6, pc}
 523              	.LVL67:
 524              	.L30:
 525              		.align	2
 526              	.L29:
 527 00b0 08000000 		.word	.LC1
 528 00b4 00000000 		.word	.LANCHOR0
 529 00b8 00000000 		.word	lv_led_signal
 530 00bc 00000000 		.word	lv_led_design
 531              		.cfi_endproc
 532              	.LFE328:
 533              		.size	lv_led_create, .-lv_led_create
 534              		.section	.text.lv_led_set_bright,"ax",%progbits
 535              		.align	2
 536              		.global	lv_led_set_bright
 537              		.thumb
 538              		.thumb_func
ARM GAS  C:\Users\strap\AppData\Local\Temp\cctVSytp.s 			page 24


 539              		.type	lv_led_set_bright, %function
 540              	lv_led_set_bright:
 541              	.LFB329:
 109:lvgl\src\lv_widgets/lv_led.c ****     LV_ASSERT_OBJ(led, LV_OBJX_NAME);
 542              		.loc 1 109 0
 543              		.cfi_startproc
 544              		@ args = 0, pretend = 0, frame = 0
 545              		@ frame_needed = 0, uses_anonymous_args = 0
 546              	.LVL68:
 547 0000 38B5     		push	{r3, r4, r5, lr}
 548              		.cfi_def_cfa_offset 16
 549              		.cfi_offset 3, -16
 550              		.cfi_offset 4, -12
 551              		.cfi_offset 5, -8
 552              		.cfi_offset 14, -4
 553 0002 0546     		mov	r5, r0
 554 0004 0C46     		mov	r4, r1
 110:lvgl\src\lv_widgets/lv_led.c **** 
 555              		.loc 1 110 0
 556 0006 FFF7FEFF 		bl	lv_debug_check_null
 557              	.LVL69:
 558 000a 28B9     		cbnz	r0, .L32
 110:lvgl\src\lv_widgets/lv_led.c **** 
 559              		.loc 1 110 0 is_stmt 0 discriminator 1
 560 000c 2A46     		mov	r2, r5
 561 000e 0023     		movs	r3, #0
 562 0010 0848     		ldr	r0, .L38
 563 0012 FFF7FEFF 		bl	lv_debug_log_error
 564              	.LVL70:
 565              	.L33:
 566 0016 FEE7     		b	.L33
 567              	.L32:
 113:lvgl\src\lv_widgets/lv_led.c ****     if(ext->bright == bright) return;
 568              		.loc 1 113 0 is_stmt 1
 569 0018 2846     		mov	r0, r5
 570 001a FFF7FEFF 		bl	lv_obj_get_ext_attr
 571              	.LVL71:
 114:lvgl\src\lv_widgets/lv_led.c **** 
 572              		.loc 1 114 0
 573 001e 0378     		ldrb	r3, [r0]	@ zero_extendqisi2
 574 0020 A342     		cmp	r3, r4
 575 0022 06D0     		beq	.L31
 116:lvgl\src\lv_widgets/lv_led.c ****     if(bright >= LV_LED_BRIGHT_MAX) bright = LV_LED_BRIGHT_MAX;
 576              		.loc 1 116 0
 577 0024 782C     		cmp	r4, #120
 578 0026 00D8     		bhi	.L35
 579 0028 7824     		movs	r4, #120
 580              	.L35:
 581              	.LVL72:
 119:lvgl\src\lv_widgets/lv_led.c **** 
 582              		.loc 1 119 0
 583 002a 0470     		strb	r4, [r0]
 122:lvgl\src\lv_widgets/lv_led.c **** }
 584              		.loc 1 122 0
 585 002c 2846     		mov	r0, r5
 586              	.LVL73:
 587 002e FFF7FEFF 		bl	lv_obj_invalidate
ARM GAS  C:\Users\strap\AppData\Local\Temp\cctVSytp.s 			page 25


 588              	.LVL74:
 589              	.L31:
 590 0032 38BD     		pop	{r3, r4, r5, pc}
 591              	.LVL75:
 592              	.L39:
 593              		.align	2
 594              	.L38:
 595 0034 18000000 		.word	.LC2
 596              		.cfi_endproc
 597              	.LFE329:
 598              		.size	lv_led_set_bright, .-lv_led_set_bright
 599              		.section	.text.lv_led_on,"ax",%progbits
 600              		.align	2
 601              		.global	lv_led_on
 602              		.thumb
 603              		.thumb_func
 604              		.type	lv_led_on, %function
 605              	lv_led_on:
 606              	.LFB330:
 130:lvgl\src\lv_widgets/lv_led.c ****     LV_ASSERT_OBJ(led, LV_OBJX_NAME);
 607              		.loc 1 130 0
 608              		.cfi_startproc
 609              		@ args = 0, pretend = 0, frame = 0
 610              		@ frame_needed = 0, uses_anonymous_args = 0
 611              	.LVL76:
 612 0000 10B5     		push	{r4, lr}
 613              		.cfi_def_cfa_offset 8
 614              		.cfi_offset 4, -8
 615              		.cfi_offset 14, -4
 616 0002 0446     		mov	r4, r0
 131:lvgl\src\lv_widgets/lv_led.c **** 
 617              		.loc 1 131 0
 618 0004 FFF7FEFF 		bl	lv_debug_check_null
 619              	.LVL77:
 620 0008 28B9     		cbnz	r0, .L41
 131:lvgl\src\lv_widgets/lv_led.c **** 
 621              		.loc 1 131 0 is_stmt 0 discriminator 1
 622 000a 2246     		mov	r2, r4
 623 000c 0023     		movs	r3, #0
 624 000e 0448     		ldr	r0, .L44
 625 0010 FFF7FEFF 		bl	lv_debug_log_error
 626              	.LVL78:
 627              	.L42:
 628 0014 FEE7     		b	.L42
 629              	.L41:
 133:lvgl\src\lv_widgets/lv_led.c **** }
 630              		.loc 1 133 0 is_stmt 1
 631 0016 FF21     		movs	r1, #255
 632 0018 2046     		mov	r0, r4
 633 001a FFF7FEFF 		bl	lv_led_set_bright
 634              	.LVL79:
 635 001e 10BD     		pop	{r4, pc}
 636              	.LVL80:
 637              	.L45:
 638              		.align	2
 639              	.L44:
 640 0020 18000000 		.word	.LC2
ARM GAS  C:\Users\strap\AppData\Local\Temp\cctVSytp.s 			page 26


 641              		.cfi_endproc
 642              	.LFE330:
 643              		.size	lv_led_on, .-lv_led_on
 644              		.section	.text.lv_led_off,"ax",%progbits
 645              		.align	2
 646              		.global	lv_led_off
 647              		.thumb
 648              		.thumb_func
 649              		.type	lv_led_off, %function
 650              	lv_led_off:
 651              	.LFB331:
 141:lvgl\src\lv_widgets/lv_led.c ****     LV_ASSERT_OBJ(led, LV_OBJX_NAME);
 652              		.loc 1 141 0
 653              		.cfi_startproc
 654              		@ args = 0, pretend = 0, frame = 0
 655              		@ frame_needed = 0, uses_anonymous_args = 0
 656              	.LVL81:
 657 0000 10B5     		push	{r4, lr}
 658              		.cfi_def_cfa_offset 8
 659              		.cfi_offset 4, -8
 660              		.cfi_offset 14, -4
 661 0002 0446     		mov	r4, r0
 142:lvgl\src\lv_widgets/lv_led.c **** 
 662              		.loc 1 142 0
 663 0004 FFF7FEFF 		bl	lv_debug_check_null
 664              	.LVL82:
 665 0008 28B9     		cbnz	r0, .L47
 142:lvgl\src\lv_widgets/lv_led.c **** 
 666              		.loc 1 142 0 is_stmt 0 discriminator 1
 667 000a 2246     		mov	r2, r4
 668 000c 0023     		movs	r3, #0
 669 000e 0448     		ldr	r0, .L50
 670 0010 FFF7FEFF 		bl	lv_debug_log_error
 671              	.LVL83:
 672              	.L48:
 673 0014 FEE7     		b	.L48
 674              	.L47:
 144:lvgl\src\lv_widgets/lv_led.c **** }
 675              		.loc 1 144 0 is_stmt 1
 676 0016 7821     		movs	r1, #120
 677 0018 2046     		mov	r0, r4
 678 001a FFF7FEFF 		bl	lv_led_set_bright
 679              	.LVL84:
 680 001e 10BD     		pop	{r4, pc}
 681              	.LVL85:
 682              	.L51:
 683              		.align	2
 684              	.L50:
 685 0020 18000000 		.word	.LC2
 686              		.cfi_endproc
 687              	.LFE331:
 688              		.size	lv_led_off, .-lv_led_off
 689              		.section	.text.lv_led_get_bright,"ax",%progbits
 690              		.align	2
 691              		.global	lv_led_get_bright
 692              		.thumb
 693              		.thumb_func
ARM GAS  C:\Users\strap\AppData\Local\Temp\cctVSytp.s 			page 27


 694              		.type	lv_led_get_bright, %function
 695              	lv_led_get_bright:
 696              	.LFB333:
 172:lvgl\src\lv_widgets/lv_led.c ****     LV_ASSERT_OBJ(led, LV_OBJX_NAME);
 697              		.loc 1 172 0
 698              		.cfi_startproc
 699              		@ args = 0, pretend = 0, frame = 0
 700              		@ frame_needed = 0, uses_anonymous_args = 0
 701              	.LVL86:
 702 0000 10B5     		push	{r4, lr}
 703              		.cfi_def_cfa_offset 8
 704              		.cfi_offset 4, -8
 705              		.cfi_offset 14, -4
 706 0002 0446     		mov	r4, r0
 173:lvgl\src\lv_widgets/lv_led.c **** 
 707              		.loc 1 173 0
 708 0004 FFF7FEFF 		bl	lv_debug_check_null
 709              	.LVL87:
 710 0008 28B9     		cbnz	r0, .L53
 173:lvgl\src\lv_widgets/lv_led.c **** 
 711              		.loc 1 173 0 is_stmt 0 discriminator 1
 712 000a 2246     		mov	r2, r4
 713 000c 0023     		movs	r3, #0
 714 000e 0448     		ldr	r0, .L56
 715 0010 FFF7FEFF 		bl	lv_debug_log_error
 716              	.LVL88:
 717              	.L54:
 718 0014 FEE7     		b	.L54
 719              	.L53:
 175:lvgl\src\lv_widgets/lv_led.c ****     return ext->bright;
 720              		.loc 1 175 0 is_stmt 1
 721 0016 2046     		mov	r0, r4
 722 0018 FFF7FEFF 		bl	lv_obj_get_ext_attr
 723              	.LVL89:
 177:lvgl\src\lv_widgets/lv_led.c **** 
 724              		.loc 1 177 0
 725 001c 0078     		ldrb	r0, [r0]	@ zero_extendqisi2
 726              	.LVL90:
 727 001e 10BD     		pop	{r4, pc}
 728              	.LVL91:
 729              	.L57:
 730              		.align	2
 731              	.L56:
 732 0020 18000000 		.word	.LC2
 733              		.cfi_endproc
 734              	.LFE333:
 735              		.size	lv_led_get_bright, .-lv_led_get_bright
 736              		.section	.text.lv_led_toggle,"ax",%progbits
 737              		.align	2
 738              		.global	lv_led_toggle
 739              		.thumb
 740              		.thumb_func
 741              		.type	lv_led_toggle, %function
 742              	lv_led_toggle:
 743              	.LFB332:
 152:lvgl\src\lv_widgets/lv_led.c ****     LV_ASSERT_OBJ(led, LV_OBJX_NAME);
 744              		.loc 1 152 0
ARM GAS  C:\Users\strap\AppData\Local\Temp\cctVSytp.s 			page 28


 745              		.cfi_startproc
 746              		@ args = 0, pretend = 0, frame = 0
 747              		@ frame_needed = 0, uses_anonymous_args = 0
 748              	.LVL92:
 749 0000 10B5     		push	{r4, lr}
 750              		.cfi_def_cfa_offset 8
 751              		.cfi_offset 4, -8
 752              		.cfi_offset 14, -4
 753 0002 0446     		mov	r4, r0
 153:lvgl\src\lv_widgets/lv_led.c **** 
 754              		.loc 1 153 0
 755 0004 FFF7FEFF 		bl	lv_debug_check_null
 756              	.LVL93:
 757 0008 28B9     		cbnz	r0, .L59
 153:lvgl\src\lv_widgets/lv_led.c **** 
 758              		.loc 1 153 0 is_stmt 0 discriminator 1
 759 000a 2246     		mov	r2, r4
 760 000c 0023     		movs	r3, #0
 761 000e 0848     		ldr	r0, .L64
 762 0010 FFF7FEFF 		bl	lv_debug_log_error
 763              	.LVL94:
 764              	.L60:
 765 0014 FEE7     		b	.L60
 766              	.L59:
 155:lvgl\src\lv_widgets/lv_led.c ****     if(bright > (LV_LED_BRIGHT_MIN + LV_LED_BRIGHT_MAX) >> 1)
 767              		.loc 1 155 0 is_stmt 1
 768 0016 2046     		mov	r0, r4
 769 0018 FFF7FEFF 		bl	lv_led_get_bright
 770              	.LVL95:
 156:lvgl\src\lv_widgets/lv_led.c ****         lv_led_off(led);
 771              		.loc 1 156 0
 772 001c BB28     		cmp	r0, #187
 773 001e 03D9     		bls	.L61
 157:lvgl\src\lv_widgets/lv_led.c ****     else
 774              		.loc 1 157 0
 775 0020 2046     		mov	r0, r4
 776              	.LVL96:
 777 0022 FFF7FEFF 		bl	lv_led_off
 778              	.LVL97:
 779 0026 10BD     		pop	{r4, pc}
 780              	.LVL98:
 781              	.L61:
 159:lvgl\src\lv_widgets/lv_led.c **** }
 782              		.loc 1 159 0
 783 0028 2046     		mov	r0, r4
 784              	.LVL99:
 785 002a FFF7FEFF 		bl	lv_led_on
 786              	.LVL100:
 787 002e 10BD     		pop	{r4, pc}
 788              	.LVL101:
 789              	.L65:
 790              		.align	2
 791              	.L64:
 792 0030 18000000 		.word	.LC2
 793              		.cfi_endproc
 794              	.LFE332:
 795              		.size	lv_led_toggle, .-lv_led_toggle
ARM GAS  C:\Users\strap\AppData\Local\Temp\cctVSytp.s 			page 29


 796              		.section	.rodata.str1.4,"aMS",%progbits,1
 797              		.align	2
 798              	.LC0:
 799 0000 6C765F6C 		.ascii	"lv_led\000"
 799      656400
 800 0007 00       		.space	1
 801              	.LC1:
 802 0008 4F757420 		.ascii	"Out of memory\000"
 802      6F66206D 
 802      656D6F72 
 802      7900
 803 0016 0000     		.space	2
 804              	.LC2:
 805 0018 4E554C4C 		.ascii	"NULL pointer\000"
 805      20706F69 
 805      6E746572 
 805      00
 806              		.bss
 807              		.align	2
 808              		.set	.LANCHOR0,. + 0
 809              		.type	ancestor_signal, %object
 810              		.size	ancestor_signal, 4
 811              	ancestor_signal:
 812 0000 00000000 		.space	4
 813              		.type	ancestor_design, %object
 814              		.size	ancestor_design, 4
 815              	ancestor_design:
 816 0004 00000000 		.space	4
 817              		.text
 818              	.Letext0:
 819              		.file 3 "c:\\program files (x86)\\cypress\\psoc creator\\4.4\\psoc creator\\import\\gnu\\arm\\5.4.
 820              		.file 4 "c:\\program files (x86)\\cypress\\psoc creator\\4.4\\psoc creator\\import\\gnu\\arm\\5.4.
 821              		.file 5 "lvgl\\src\\lv_widgets\\../../../lv_conf.h"
 822              		.file 6 "lvgl\\src\\lv_widgets\\../lv_core/../lv_font/../lv_misc/lv_types.h"
 823              		.file 7 "lvgl\\src\\lv_widgets\\../lv_core/../lv_font/../lv_misc/lv_area.h"
 824              		.file 8 "lvgl\\src\\lv_widgets\\../lv_core/../lv_font/lv_font.h"
 825              		.file 9 "lvgl\\src\\lv_widgets\\../lv_core/../lv_draw/lv_draw_blend.h"
 826              		.file 10 "lvgl\\src\\lv_widgets\\../lv_core/lv_style.h"
 827              		.file 11 "lvgl\\src\\lv_widgets\\../lv_core/../lv_hal/../lv_misc/lv_ll.h"
 828              		.file 12 "lvgl\\src\\lv_widgets\\../lv_core/lv_obj.h"
 829              		.file 13 "lvgl\\src\\lv_widgets\\../lv_core/../lv_hal/lv_hal_indev.h"
 830              		.file 14 "lvgl\\src\\lv_widgets\\../lv_core/../lv_draw/lv_draw_rect.h"
 831              		.file 15 "lvgl\\src\\lv_widgets\\../lv_core/../lv_draw/../lv_misc/lv_bidi.h"
 832              		.file 16 "lvgl\\src\\lv_widgets\\lv_led.h"
 833              		.file 17 "lvgl\\src\\lv_widgets\\../lv_themes/lv_theme.h"
 834              		.file 18 "lvgl\\src\\lv_widgets\\../lv_core/../lv_misc/lv_debug.h"