ARM GAS  C:\Users\strap\AppData\Local\Temp\cc9W5PrE.s 			page 1


   1              		.syntax unified
   2              		.cpu cortex-m3
   3              		.fpu softvfp
   4              		.eabi_attribute 20, 1
   5              		.eabi_attribute 21, 1
   6              		.eabi_attribute 23, 3
   7              		.eabi_attribute 24, 1
   8              		.eabi_attribute 25, 1
   9              		.eabi_attribute 26, 1
  10              		.eabi_attribute 30, 1
  11              		.eabi_attribute 34, 1
  12              		.eabi_attribute 18, 4
  13              		.thumb
  14              		.syntax unified
  15              		.file	"lv_line.c"
  16              		.text
  17              	.Ltext0:
  18              		.cfi_sections	.debug_frame
  19              		.section	.text.lv_line_signal,"ax",%progbits
  20              		.align	2
  21              		.thumb
  22              		.thumb_func
  23              		.type	lv_line_signal, %function
  24              	lv_line_signal:
  25              	.LFB335:
  26              		.file 1 "lvgl\\src\\lv_widgets\\lv_line.c"
   1:lvgl\src\lv_widgets/lv_line.c **** /**
   2:lvgl\src\lv_widgets/lv_line.c ****  * @file lv_line.c
   3:lvgl\src\lv_widgets/lv_line.c ****  *
   4:lvgl\src\lv_widgets/lv_line.c ****  */
   5:lvgl\src\lv_widgets/lv_line.c **** 
   6:lvgl\src\lv_widgets/lv_line.c **** /*********************
   7:lvgl\src\lv_widgets/lv_line.c ****  *      INCLUDES
   8:lvgl\src\lv_widgets/lv_line.c ****  *********************/
   9:lvgl\src\lv_widgets/lv_line.c **** #include "lv_line.h"
  10:lvgl\src\lv_widgets/lv_line.c **** 
  11:lvgl\src\lv_widgets/lv_line.c **** #if LV_USE_LINE != 0
  12:lvgl\src\lv_widgets/lv_line.c **** #include "../lv_misc/lv_debug.h"
  13:lvgl\src\lv_widgets/lv_line.c **** #include "../lv_draw/lv_draw.h"
  14:lvgl\src\lv_widgets/lv_line.c **** #include "../lv_misc/lv_math.h"
  15:lvgl\src\lv_widgets/lv_line.c **** #include "../lv_themes/lv_theme.h"
  16:lvgl\src\lv_widgets/lv_line.c **** #include <stdbool.h>
  17:lvgl\src\lv_widgets/lv_line.c **** #include <stdint.h>
  18:lvgl\src\lv_widgets/lv_line.c **** #include <string.h>
  19:lvgl\src\lv_widgets/lv_line.c **** 
  20:lvgl\src\lv_widgets/lv_line.c **** /*********************
  21:lvgl\src\lv_widgets/lv_line.c ****  *      DEFINES
  22:lvgl\src\lv_widgets/lv_line.c ****  *********************/
  23:lvgl\src\lv_widgets/lv_line.c **** #define LV_OBJX_NAME "lv_line"
  24:lvgl\src\lv_widgets/lv_line.c **** 
  25:lvgl\src\lv_widgets/lv_line.c **** /**********************
  26:lvgl\src\lv_widgets/lv_line.c ****  *      TYPEDEFS
  27:lvgl\src\lv_widgets/lv_line.c ****  **********************/
  28:lvgl\src\lv_widgets/lv_line.c **** 
  29:lvgl\src\lv_widgets/lv_line.c **** /**********************
  30:lvgl\src\lv_widgets/lv_line.c ****  *  STATIC PROTOTYPES
  31:lvgl\src\lv_widgets/lv_line.c ****  **********************/
ARM GAS  C:\Users\strap\AppData\Local\Temp\cc9W5PrE.s 			page 2


  32:lvgl\src\lv_widgets/lv_line.c **** static lv_design_res_t lv_line_design(lv_obj_t * line, const lv_area_t * clip_area, lv_design_mode_
  33:lvgl\src\lv_widgets/lv_line.c **** static lv_res_t lv_line_signal(lv_obj_t * line, lv_signal_t sign, void * param);
  34:lvgl\src\lv_widgets/lv_line.c **** 
  35:lvgl\src\lv_widgets/lv_line.c **** /**********************
  36:lvgl\src\lv_widgets/lv_line.c ****  *  STATIC VARIABLES
  37:lvgl\src\lv_widgets/lv_line.c ****  **********************/
  38:lvgl\src\lv_widgets/lv_line.c **** static lv_signal_cb_t ancestor_signal;
  39:lvgl\src\lv_widgets/lv_line.c **** 
  40:lvgl\src\lv_widgets/lv_line.c **** /**********************
  41:lvgl\src\lv_widgets/lv_line.c ****  *      MACROS
  42:lvgl\src\lv_widgets/lv_line.c ****  **********************/
  43:lvgl\src\lv_widgets/lv_line.c **** 
  44:lvgl\src\lv_widgets/lv_line.c **** /**********************
  45:lvgl\src\lv_widgets/lv_line.c ****  *   GLOBAL FUNCTIONS
  46:lvgl\src\lv_widgets/lv_line.c ****  **********************/
  47:lvgl\src\lv_widgets/lv_line.c **** 
  48:lvgl\src\lv_widgets/lv_line.c **** /**
  49:lvgl\src\lv_widgets/lv_line.c ****  * Create a line objects
  50:lvgl\src\lv_widgets/lv_line.c ****  * @param par pointer to an object, it will be the parent of the new line
  51:lvgl\src\lv_widgets/lv_line.c ****  * @return pointer to the created line
  52:lvgl\src\lv_widgets/lv_line.c ****  */
  53:lvgl\src\lv_widgets/lv_line.c **** lv_obj_t * lv_line_create(lv_obj_t * par, const lv_obj_t * copy)
  54:lvgl\src\lv_widgets/lv_line.c **** {
  55:lvgl\src\lv_widgets/lv_line.c ****     LV_LOG_TRACE("line create started");
  56:lvgl\src\lv_widgets/lv_line.c **** 
  57:lvgl\src\lv_widgets/lv_line.c ****     /*Create a basic object*/
  58:lvgl\src\lv_widgets/lv_line.c ****     lv_obj_t * line = lv_obj_create(par, copy);
  59:lvgl\src\lv_widgets/lv_line.c ****     LV_ASSERT_MEM(line);
  60:lvgl\src\lv_widgets/lv_line.c ****     if(line == NULL) return NULL;
  61:lvgl\src\lv_widgets/lv_line.c **** 
  62:lvgl\src\lv_widgets/lv_line.c ****     if(ancestor_signal == NULL) ancestor_signal = lv_obj_get_signal_cb(line);
  63:lvgl\src\lv_widgets/lv_line.c **** 
  64:lvgl\src\lv_widgets/lv_line.c ****     /*Extend the basic object to line object*/
  65:lvgl\src\lv_widgets/lv_line.c ****     lv_line_ext_t * ext = lv_obj_allocate_ext_attr(line, sizeof(lv_line_ext_t));
  66:lvgl\src\lv_widgets/lv_line.c ****     LV_ASSERT_MEM(ext);
  67:lvgl\src\lv_widgets/lv_line.c ****     if(ext == NULL) {
  68:lvgl\src\lv_widgets/lv_line.c ****         lv_obj_del(line);
  69:lvgl\src\lv_widgets/lv_line.c ****         return NULL;
  70:lvgl\src\lv_widgets/lv_line.c ****     }
  71:lvgl\src\lv_widgets/lv_line.c **** 
  72:lvgl\src\lv_widgets/lv_line.c ****     ext->point_num   = 0;
  73:lvgl\src\lv_widgets/lv_line.c ****     ext->point_array = NULL;
  74:lvgl\src\lv_widgets/lv_line.c ****     ext->auto_size   = 1;
  75:lvgl\src\lv_widgets/lv_line.c ****     ext->y_inv       = 0;
  76:lvgl\src\lv_widgets/lv_line.c **** 
  77:lvgl\src\lv_widgets/lv_line.c ****     lv_obj_set_design_cb(line, lv_line_design);
  78:lvgl\src\lv_widgets/lv_line.c ****     lv_obj_set_signal_cb(line, lv_line_signal);
  79:lvgl\src\lv_widgets/lv_line.c **** 
  80:lvgl\src\lv_widgets/lv_line.c ****     /*Init the new line*/
  81:lvgl\src\lv_widgets/lv_line.c ****     if(copy == NULL) {
  82:lvgl\src\lv_widgets/lv_line.c ****         lv_obj_set_size(line, LV_DPI,
  83:lvgl\src\lv_widgets/lv_line.c ****                         LV_DPI);          /*Auto size is enables, but set default size until no poi
  84:lvgl\src\lv_widgets/lv_line.c **** 
  85:lvgl\src\lv_widgets/lv_line.c ****         lv_obj_set_click(line, false);
  86:lvgl\src\lv_widgets/lv_line.c **** 
  87:lvgl\src\lv_widgets/lv_line.c ****         lv_theme_apply(line, LV_THEME_LINE);
  88:lvgl\src\lv_widgets/lv_line.c ****     }
ARM GAS  C:\Users\strap\AppData\Local\Temp\cc9W5PrE.s 			page 3


  89:lvgl\src\lv_widgets/lv_line.c ****     /*Copy an existing object*/
  90:lvgl\src\lv_widgets/lv_line.c ****     else {
  91:lvgl\src\lv_widgets/lv_line.c ****         lv_line_ext_t * copy_ext = lv_obj_get_ext_attr(copy);
  92:lvgl\src\lv_widgets/lv_line.c ****         lv_line_set_auto_size(line, lv_line_get_auto_size(copy));
  93:lvgl\src\lv_widgets/lv_line.c ****         lv_line_set_y_invert(line, lv_line_get_y_invert(copy));
  94:lvgl\src\lv_widgets/lv_line.c ****         lv_line_set_auto_size(line, lv_line_get_auto_size(copy));
  95:lvgl\src\lv_widgets/lv_line.c ****         lv_line_set_points(line, copy_ext->point_array, copy_ext->point_num);
  96:lvgl\src\lv_widgets/lv_line.c **** 
  97:lvgl\src\lv_widgets/lv_line.c ****         /*Refresh the style with new signal function*/
  98:lvgl\src\lv_widgets/lv_line.c ****         lv_obj_refresh_style(line, LV_OBJ_PART_ALL, LV_STYLE_PROP_ALL);
  99:lvgl\src\lv_widgets/lv_line.c ****     }
 100:lvgl\src\lv_widgets/lv_line.c **** 
 101:lvgl\src\lv_widgets/lv_line.c ****     LV_LOG_INFO("line created");
 102:lvgl\src\lv_widgets/lv_line.c **** 
 103:lvgl\src\lv_widgets/lv_line.c ****     return line;
 104:lvgl\src\lv_widgets/lv_line.c **** }
 105:lvgl\src\lv_widgets/lv_line.c **** 
 106:lvgl\src\lv_widgets/lv_line.c **** /*=====================
 107:lvgl\src\lv_widgets/lv_line.c ****  * Setter functions
 108:lvgl\src\lv_widgets/lv_line.c ****  *====================*/
 109:lvgl\src\lv_widgets/lv_line.c **** 
 110:lvgl\src\lv_widgets/lv_line.c **** /**
 111:lvgl\src\lv_widgets/lv_line.c ****  * Set an array of points. The line object will connect these points.
 112:lvgl\src\lv_widgets/lv_line.c ****  * @param line pointer to a line object
 113:lvgl\src\lv_widgets/lv_line.c ****  * @param point_a an array of points. Only the address is saved,
 114:lvgl\src\lv_widgets/lv_line.c ****  * so the array can NOT be a local variable which will be destroyed
 115:lvgl\src\lv_widgets/lv_line.c ****  * @param point_num number of points in 'point_a'
 116:lvgl\src\lv_widgets/lv_line.c ****  */
 117:lvgl\src\lv_widgets/lv_line.c **** void lv_line_set_points(lv_obj_t * line, const lv_point_t point_a[], uint16_t point_num)
 118:lvgl\src\lv_widgets/lv_line.c **** {
 119:lvgl\src\lv_widgets/lv_line.c ****     LV_ASSERT_OBJ(line, LV_OBJX_NAME);
 120:lvgl\src\lv_widgets/lv_line.c **** 
 121:lvgl\src\lv_widgets/lv_line.c ****     lv_line_ext_t * ext = lv_obj_get_ext_attr(line);
 122:lvgl\src\lv_widgets/lv_line.c ****     ext->point_array    = point_a;
 123:lvgl\src\lv_widgets/lv_line.c ****     ext->point_num      = point_num;
 124:lvgl\src\lv_widgets/lv_line.c **** 
 125:lvgl\src\lv_widgets/lv_line.c ****     if(point_num > 0 && ext->auto_size != 0) {
 126:lvgl\src\lv_widgets/lv_line.c ****         uint16_t i;
 127:lvgl\src\lv_widgets/lv_line.c ****         lv_coord_t xmax = LV_COORD_MIN;
 128:lvgl\src\lv_widgets/lv_line.c ****         lv_coord_t ymax = LV_COORD_MIN;
 129:lvgl\src\lv_widgets/lv_line.c ****         for(i = 0; i < point_num; i++) {
 130:lvgl\src\lv_widgets/lv_line.c ****             xmax = LV_MATH_MAX(point_a[i].x, xmax);
 131:lvgl\src\lv_widgets/lv_line.c ****             ymax = LV_MATH_MAX(point_a[i].y, ymax);
 132:lvgl\src\lv_widgets/lv_line.c ****         }
 133:lvgl\src\lv_widgets/lv_line.c **** 
 134:lvgl\src\lv_widgets/lv_line.c ****         lv_style_int_t line_width = lv_obj_get_style_line_width(line, LV_LINE_PART_MAIN);
 135:lvgl\src\lv_widgets/lv_line.c ****         lv_obj_set_size(line, xmax + line_width, ymax + line_width);
 136:lvgl\src\lv_widgets/lv_line.c ****     }
 137:lvgl\src\lv_widgets/lv_line.c **** 
 138:lvgl\src\lv_widgets/lv_line.c ****     lv_obj_invalidate(line);
 139:lvgl\src\lv_widgets/lv_line.c **** }
 140:lvgl\src\lv_widgets/lv_line.c **** 
 141:lvgl\src\lv_widgets/lv_line.c **** /**
 142:lvgl\src\lv_widgets/lv_line.c ****  * Enable (or disable) the auto-size option. The size of the object will fit to its points.
 143:lvgl\src\lv_widgets/lv_line.c ****  * (set width to x max and height to y max)
 144:lvgl\src\lv_widgets/lv_line.c ****  * @param line pointer to a line object
 145:lvgl\src\lv_widgets/lv_line.c ****  * @param en true: auto size is enabled, false: auto size is disabled
ARM GAS  C:\Users\strap\AppData\Local\Temp\cc9W5PrE.s 			page 4


 146:lvgl\src\lv_widgets/lv_line.c ****  */
 147:lvgl\src\lv_widgets/lv_line.c **** void lv_line_set_auto_size(lv_obj_t * line, bool en)
 148:lvgl\src\lv_widgets/lv_line.c **** {
 149:lvgl\src\lv_widgets/lv_line.c ****     LV_ASSERT_OBJ(line, LV_OBJX_NAME);
 150:lvgl\src\lv_widgets/lv_line.c **** 
 151:lvgl\src\lv_widgets/lv_line.c ****     lv_line_ext_t * ext = lv_obj_get_ext_attr(line);
 152:lvgl\src\lv_widgets/lv_line.c ****     if(ext->auto_size == en) return;
 153:lvgl\src\lv_widgets/lv_line.c **** 
 154:lvgl\src\lv_widgets/lv_line.c ****     ext->auto_size = en == false ? 0 : 1;
 155:lvgl\src\lv_widgets/lv_line.c **** 
 156:lvgl\src\lv_widgets/lv_line.c ****     /*Refresh the object*/
 157:lvgl\src\lv_widgets/lv_line.c ****     if(en) lv_line_set_points(line, ext->point_array, ext->point_num);
 158:lvgl\src\lv_widgets/lv_line.c **** }
 159:lvgl\src\lv_widgets/lv_line.c **** 
 160:lvgl\src\lv_widgets/lv_line.c **** /**
 161:lvgl\src\lv_widgets/lv_line.c ****  * Enable (or disable) the y coordinate inversion.
 162:lvgl\src\lv_widgets/lv_line.c ****  * If enabled then y will be subtracted from the height of the object,
 163:lvgl\src\lv_widgets/lv_line.c ****  * therefore the y=0 coordinate will be on the bottom.
 164:lvgl\src\lv_widgets/lv_line.c ****  * @param line pointer to a line object
 165:lvgl\src\lv_widgets/lv_line.c ****  * @param en true: enable the y inversion, false:disable the y inversion
 166:lvgl\src\lv_widgets/lv_line.c ****  */
 167:lvgl\src\lv_widgets/lv_line.c **** void lv_line_set_y_invert(lv_obj_t * line, bool en)
 168:lvgl\src\lv_widgets/lv_line.c **** {
 169:lvgl\src\lv_widgets/lv_line.c ****     LV_ASSERT_OBJ(line, LV_OBJX_NAME);
 170:lvgl\src\lv_widgets/lv_line.c **** 
 171:lvgl\src\lv_widgets/lv_line.c ****     lv_line_ext_t * ext = lv_obj_get_ext_attr(line);
 172:lvgl\src\lv_widgets/lv_line.c ****     if(ext->y_inv == en) return;
 173:lvgl\src\lv_widgets/lv_line.c **** 
 174:lvgl\src\lv_widgets/lv_line.c ****     ext->y_inv = en == false ? 0 : 1;
 175:lvgl\src\lv_widgets/lv_line.c **** 
 176:lvgl\src\lv_widgets/lv_line.c ****     lv_obj_invalidate(line);
 177:lvgl\src\lv_widgets/lv_line.c **** }
 178:lvgl\src\lv_widgets/lv_line.c **** 
 179:lvgl\src\lv_widgets/lv_line.c **** /*=====================
 180:lvgl\src\lv_widgets/lv_line.c ****  * Getter functions
 181:lvgl\src\lv_widgets/lv_line.c ****  *====================*/
 182:lvgl\src\lv_widgets/lv_line.c **** 
 183:lvgl\src\lv_widgets/lv_line.c **** /**
 184:lvgl\src\lv_widgets/lv_line.c ****  * Get the auto size attribute
 185:lvgl\src\lv_widgets/lv_line.c ****  * @param line pointer to a line object
 186:lvgl\src\lv_widgets/lv_line.c ****  * @return true: auto size is enabled, false: disabled
 187:lvgl\src\lv_widgets/lv_line.c ****  */
 188:lvgl\src\lv_widgets/lv_line.c **** bool lv_line_get_auto_size(const lv_obj_t * line)
 189:lvgl\src\lv_widgets/lv_line.c **** {
 190:lvgl\src\lv_widgets/lv_line.c ****     LV_ASSERT_OBJ(line, LV_OBJX_NAME);
 191:lvgl\src\lv_widgets/lv_line.c **** 
 192:lvgl\src\lv_widgets/lv_line.c ****     lv_line_ext_t * ext = lv_obj_get_ext_attr(line);
 193:lvgl\src\lv_widgets/lv_line.c **** 
 194:lvgl\src\lv_widgets/lv_line.c ****     return ext->auto_size == 0 ? false : true;
 195:lvgl\src\lv_widgets/lv_line.c **** }
 196:lvgl\src\lv_widgets/lv_line.c **** 
 197:lvgl\src\lv_widgets/lv_line.c **** /**
 198:lvgl\src\lv_widgets/lv_line.c ****  * Get the y inversion attribute
 199:lvgl\src\lv_widgets/lv_line.c ****  * @param line pointer to a line object
 200:lvgl\src\lv_widgets/lv_line.c ****  * @return true: y inversion is enabled, false: disabled
 201:lvgl\src\lv_widgets/lv_line.c ****  */
 202:lvgl\src\lv_widgets/lv_line.c **** bool lv_line_get_y_invert(const lv_obj_t * line)
ARM GAS  C:\Users\strap\AppData\Local\Temp\cc9W5PrE.s 			page 5


 203:lvgl\src\lv_widgets/lv_line.c **** {
 204:lvgl\src\lv_widgets/lv_line.c ****     LV_ASSERT_OBJ(line, LV_OBJX_NAME);
 205:lvgl\src\lv_widgets/lv_line.c **** 
 206:lvgl\src\lv_widgets/lv_line.c ****     lv_line_ext_t * ext = lv_obj_get_ext_attr(line);
 207:lvgl\src\lv_widgets/lv_line.c **** 
 208:lvgl\src\lv_widgets/lv_line.c ****     return ext->y_inv == 0 ? false : true;
 209:lvgl\src\lv_widgets/lv_line.c **** }
 210:lvgl\src\lv_widgets/lv_line.c **** 
 211:lvgl\src\lv_widgets/lv_line.c **** /**********************
 212:lvgl\src\lv_widgets/lv_line.c ****  *   STATIC FUNCTIONS
 213:lvgl\src\lv_widgets/lv_line.c ****  **********************/
 214:lvgl\src\lv_widgets/lv_line.c **** 
 215:lvgl\src\lv_widgets/lv_line.c **** /**
 216:lvgl\src\lv_widgets/lv_line.c ****  * Handle the drawing related tasks of the lines
 217:lvgl\src\lv_widgets/lv_line.c ****  * @param line pointer to an object
 218:lvgl\src\lv_widgets/lv_line.c ****  * @param clip_area the object will be drawn only in this area
 219:lvgl\src\lv_widgets/lv_line.c ****  * @param mode LV_DESIGN_COVER_CHK: only check if the object fully covers the 'mask_p' area
 220:lvgl\src\lv_widgets/lv_line.c ****  *                                  (return 'true' if yes)
 221:lvgl\src\lv_widgets/lv_line.c ****  *             LV_DESIGN_DRAW: draw the object (always return 'true')
 222:lvgl\src\lv_widgets/lv_line.c ****  *             LV_DESIGN_DRAW_POST: drawing after every children are drawn
 223:lvgl\src\lv_widgets/lv_line.c ****  * @param return an element of `lv_design_res_t`
 224:lvgl\src\lv_widgets/lv_line.c ****  */
 225:lvgl\src\lv_widgets/lv_line.c **** static lv_design_res_t lv_line_design(lv_obj_t * line, const lv_area_t * clip_area, lv_design_mode_
 226:lvgl\src\lv_widgets/lv_line.c **** {
 227:lvgl\src\lv_widgets/lv_line.c ****     /*A line never covers an area*/
 228:lvgl\src\lv_widgets/lv_line.c ****     if(mode == LV_DESIGN_COVER_CHK)
 229:lvgl\src\lv_widgets/lv_line.c ****         return LV_DESIGN_RES_NOT_COVER;
 230:lvgl\src\lv_widgets/lv_line.c ****     else if(mode == LV_DESIGN_DRAW_MAIN) {
 231:lvgl\src\lv_widgets/lv_line.c ****         lv_line_ext_t * ext = lv_obj_get_ext_attr(line);
 232:lvgl\src\lv_widgets/lv_line.c **** 
 233:lvgl\src\lv_widgets/lv_line.c ****         if(ext->point_num == 0 || ext->point_array == NULL) return false;
 234:lvgl\src\lv_widgets/lv_line.c **** 
 235:lvgl\src\lv_widgets/lv_line.c ****         lv_area_t area;
 236:lvgl\src\lv_widgets/lv_line.c ****         lv_obj_get_coords(line, &area);
 237:lvgl\src\lv_widgets/lv_line.c ****         lv_coord_t x_ofs = area.x1;
 238:lvgl\src\lv_widgets/lv_line.c ****         lv_coord_t y_ofs = area.y1;
 239:lvgl\src\lv_widgets/lv_line.c ****         lv_point_t p1;
 240:lvgl\src\lv_widgets/lv_line.c ****         lv_point_t p2;
 241:lvgl\src\lv_widgets/lv_line.c ****         lv_coord_t h = lv_obj_get_height(line);
 242:lvgl\src\lv_widgets/lv_line.c ****         uint16_t i;
 243:lvgl\src\lv_widgets/lv_line.c **** 
 244:lvgl\src\lv_widgets/lv_line.c ****         lv_draw_line_dsc_t line_dsc;
 245:lvgl\src\lv_widgets/lv_line.c ****         lv_draw_line_dsc_init(&line_dsc);
 246:lvgl\src\lv_widgets/lv_line.c ****         lv_obj_init_draw_line_dsc(line, LV_LINE_PART_MAIN, &line_dsc);
 247:lvgl\src\lv_widgets/lv_line.c **** 
 248:lvgl\src\lv_widgets/lv_line.c ****         /*Read all points and draw the lines*/
 249:lvgl\src\lv_widgets/lv_line.c ****         for(i = 0; i < ext->point_num - 1; i++) {
 250:lvgl\src\lv_widgets/lv_line.c **** 
 251:lvgl\src\lv_widgets/lv_line.c ****             p1.x = ext->point_array[i].x + x_ofs;
 252:lvgl\src\lv_widgets/lv_line.c ****             p2.x = ext->point_array[i + 1].x + x_ofs;
 253:lvgl\src\lv_widgets/lv_line.c **** 
 254:lvgl\src\lv_widgets/lv_line.c ****             if(ext->y_inv == 0) {
 255:lvgl\src\lv_widgets/lv_line.c ****                 p1.y = ext->point_array[i].y + y_ofs;
 256:lvgl\src\lv_widgets/lv_line.c ****                 p2.y = ext->point_array[i + 1].y + y_ofs;
 257:lvgl\src\lv_widgets/lv_line.c ****             }
 258:lvgl\src\lv_widgets/lv_line.c ****             else {
 259:lvgl\src\lv_widgets/lv_line.c ****                 p1.y = h - ext->point_array[i].y + y_ofs;
ARM GAS  C:\Users\strap\AppData\Local\Temp\cc9W5PrE.s 			page 6


 260:lvgl\src\lv_widgets/lv_line.c ****                 p2.y = h - ext->point_array[i + 1].y + y_ofs;
 261:lvgl\src\lv_widgets/lv_line.c ****             }
 262:lvgl\src\lv_widgets/lv_line.c ****             lv_draw_line(&p1, &p2, clip_area, &line_dsc);
 263:lvgl\src\lv_widgets/lv_line.c ****             line_dsc.round_start = 0;   /*Draw the rounding only on the end points after the first 
 264:lvgl\src\lv_widgets/lv_line.c ****         }
 265:lvgl\src\lv_widgets/lv_line.c **** 
 266:lvgl\src\lv_widgets/lv_line.c ****     }
 267:lvgl\src\lv_widgets/lv_line.c ****     return LV_DESIGN_RES_OK;
 268:lvgl\src\lv_widgets/lv_line.c **** }
 269:lvgl\src\lv_widgets/lv_line.c **** 
 270:lvgl\src\lv_widgets/lv_line.c **** /**
 271:lvgl\src\lv_widgets/lv_line.c ****  * Signal function of the line
 272:lvgl\src\lv_widgets/lv_line.c ****  * @param line pointer to a line object
 273:lvgl\src\lv_widgets/lv_line.c ****  * @param sign a signal type from lv_signal_t enum
 274:lvgl\src\lv_widgets/lv_line.c ****  * @return LV_RES_OK: the object is not deleted in the function; LV_RES_INV: the object is deleted
 275:lvgl\src\lv_widgets/lv_line.c ****  */
 276:lvgl\src\lv_widgets/lv_line.c **** static lv_res_t lv_line_signal(lv_obj_t * line, lv_signal_t sign, void * param)
 277:lvgl\src\lv_widgets/lv_line.c **** {
  27              		.loc 1 277 0
  28              		.cfi_startproc
  29              		@ args = 0, pretend = 0, frame = 0
  30              		@ frame_needed = 0, uses_anonymous_args = 0
  31              	.LVL0:
  32 0000 F8B5     		push	{r3, r4, r5, r6, r7, lr}
  33              		.cfi_def_cfa_offset 24
  34              		.cfi_offset 3, -24
  35              		.cfi_offset 4, -20
  36              		.cfi_offset 5, -16
  37              		.cfi_offset 6, -12
  38              		.cfi_offset 7, -8
  39              		.cfi_offset 14, -4
  40 0002 0646     		mov	r6, r0
  41 0004 0D46     		mov	r5, r1
  42 0006 1746     		mov	r7, r2
 278:lvgl\src\lv_widgets/lv_line.c ****     lv_res_t res;
 279:lvgl\src\lv_widgets/lv_line.c **** 
 280:lvgl\src\lv_widgets/lv_line.c ****     /* Include the ancient signal function */
 281:lvgl\src\lv_widgets/lv_line.c ****     res = ancestor_signal(line, sign, param);
  43              		.loc 1 281 0
  44 0008 0F4B     		ldr	r3, .L8
  45 000a 1B68     		ldr	r3, [r3]
  46 000c 9847     		blx	r3
  47              	.LVL1:
  48 000e 0446     		mov	r4, r0
  49              	.LVL2:
 282:lvgl\src\lv_widgets/lv_line.c ****     if(res != LV_RES_OK) return res;
  50              		.loc 1 282 0
  51 0010 0128     		cmp	r0, #1
  52 0012 14D1     		bne	.L4
 283:lvgl\src\lv_widgets/lv_line.c ****     if(sign == LV_SIGNAL_GET_TYPE) return lv_obj_handle_get_type_signal(param, LV_OBJX_NAME);
  53              		.loc 1 283 0
  54 0014 072D     		cmp	r5, #7
  55 0016 04D1     		bne	.L3
  56              		.loc 1 283 0 is_stmt 0 discriminator 1
  57 0018 0C49     		ldr	r1, .L8+4
  58 001a 3846     		mov	r0, r7
  59              	.LVL3:
ARM GAS  C:\Users\strap\AppData\Local\Temp\cc9W5PrE.s 			page 7


  60 001c FFF7FEFF 		bl	lv_obj_handle_get_type_signal
  61              	.LVL4:
  62 0020 F8BD     		pop	{r3, r4, r5, r6, r7, pc}
  63              	.LVL5:
  64              	.L3:
 284:lvgl\src\lv_widgets/lv_line.c **** 
 285:lvgl\src\lv_widgets/lv_line.c ****     if(sign == LV_SIGNAL_REFR_EXT_DRAW_PAD) {
  65              		.loc 1 285 0 is_stmt 1
  66 0022 062D     		cmp	r5, #6
  67 0024 0CD1     		bne	.L5
  68              	.LVL6:
  69              	.LBB8:
  70              	.LBB9:
  71              	.LBB10:
  72              		.file 2 "lvgl\\src\\lv_widgets\\../lv_core/lv_obj_style_dec.h"
   1:lvgl\src\lv_widgets\../lv_core/lv_obj_style_dec.h **** 
   2:lvgl\src\lv_widgets\../lv_core/lv_obj_style_dec.h **** /**
   3:lvgl\src\lv_widgets\../lv_core/lv_obj_style_dec.h ****  * @file lv_obj_style_dec.h
   4:lvgl\src\lv_widgets\../lv_core/lv_obj_style_dec.h ****  *
   5:lvgl\src\lv_widgets\../lv_core/lv_obj_style_dec.h ****  */
   6:lvgl\src\lv_widgets\../lv_core/lv_obj_style_dec.h **** 
   7:lvgl\src\lv_widgets\../lv_core/lv_obj_style_dec.h **** #ifndef LV_OBJ_STYLE_DEC_H
   8:lvgl\src\lv_widgets\../lv_core/lv_obj_style_dec.h **** #define LV_OBJ_STYLE_DEC_H
   9:lvgl\src\lv_widgets\../lv_core/lv_obj_style_dec.h **** 
  10:lvgl\src\lv_widgets\../lv_core/lv_obj_style_dec.h **** #ifdef __cplusplus
  11:lvgl\src\lv_widgets\../lv_core/lv_obj_style_dec.h **** extern "C" {
  12:lvgl\src\lv_widgets\../lv_core/lv_obj_style_dec.h **** #endif
  13:lvgl\src\lv_widgets\../lv_core/lv_obj_style_dec.h **** 
  14:lvgl\src\lv_widgets\../lv_core/lv_obj_style_dec.h **** /*********************
  15:lvgl\src\lv_widgets\../lv_core/lv_obj_style_dec.h ****  *      DEFINES
  16:lvgl\src\lv_widgets\../lv_core/lv_obj_style_dec.h ****  *********************/
  17:lvgl\src\lv_widgets\../lv_core/lv_obj_style_dec.h **** 
  18:lvgl\src\lv_widgets\../lv_core/lv_obj_style_dec.h **** /**
  19:lvgl\src\lv_widgets\../lv_core/lv_obj_style_dec.h ****  * Macro to declare the most important style set/get API functions.
  20:lvgl\src\lv_widgets\../lv_core/lv_obj_style_dec.h ****  *
  21:lvgl\src\lv_widgets\../lv_core/lv_obj_style_dec.h ****  * Get the value of a style property from an object in the object's current state
  22:lvgl\src\lv_widgets\../lv_core/lv_obj_style_dec.h ****  * -----------------------------------------------------------------------------
  23:lvgl\src\lv_widgets\../lv_core/lv_obj_style_dec.h ****  *  - Get the value of a style property from an object in the object's current state.
  24:lvgl\src\lv_widgets\../lv_core/lv_obj_style_dec.h ****  *  - Transition animation is taken into account.
  25:lvgl\src\lv_widgets\../lv_core/lv_obj_style_dec.h ****  *  - If the property is not set in the object's styles check the parent(s) if the property can be 
  26:lvgl\src\lv_widgets\../lv_core/lv_obj_style_dec.h ****  *  - If still not found return a default value.
  27:lvgl\src\lv_widgets\../lv_core/lv_obj_style_dec.h ****  *  - For example:
  28:lvgl\src\lv_widgets\../lv_core/lv_obj_style_dec.h ****  *      `lv_style_int_t w = lv_obj_get_style_border_width(btn1, LV_BTN_PART_MAIN);`
  29:lvgl\src\lv_widgets\../lv_core/lv_obj_style_dec.h ****  *
  30:lvgl\src\lv_widgets\../lv_core/lv_obj_style_dec.h ****  * Set a local style property for an object in a given state
  31:lvgl\src\lv_widgets\../lv_core/lv_obj_style_dec.h ****  * ---------------------------------------------------------
  32:lvgl\src\lv_widgets\../lv_core/lv_obj_style_dec.h ****  *  - For example:
  33:lvgl\src\lv_widgets\../lv_core/lv_obj_style_dec.h ****  *      `lv_obj_set_style_local_border_width(btn1, LV_BTN_PART_MAIN, LV_STATE_PRESSED, 2);`
  34:lvgl\src\lv_widgets\../lv_core/lv_obj_style_dec.h ****  *
  35:lvgl\src\lv_widgets\../lv_core/lv_obj_style_dec.h ****  * Get a local style property's value of an object in a given state
  36:lvgl\src\lv_widgets\../lv_core/lv_obj_style_dec.h ****  * ----------------------------------------------------------------
  37:lvgl\src\lv_widgets\../lv_core/lv_obj_style_dec.h ****  *  - Return the best matching property in the given state.
  38:lvgl\src\lv_widgets\../lv_core/lv_obj_style_dec.h ****  *  - E.g. if `state` parameter is LV_STATE_PRESSED | LV_STATE_CHECKED` but the property defined on
  39:lvgl\src\lv_widgets\../lv_core/lv_obj_style_dec.h ****  *    `LV_STATE_PRESSED` and `LV_STATE_DEFAULT` the best matching state is `LV_STATE_PRESSED`
  40:lvgl\src\lv_widgets\../lv_core/lv_obj_style_dec.h ****  *    (because it has higher precedence) and it will be returned.
  41:lvgl\src\lv_widgets\../lv_core/lv_obj_style_dec.h ****  *  - If the property is not found even in `LV_STATE_DEFAULT` `-1` is returned.
  42:lvgl\src\lv_widgets\../lv_core/lv_obj_style_dec.h ****  *  - For example:
ARM GAS  C:\Users\strap\AppData\Local\Temp\cc9W5PrE.s 			page 8


  43:lvgl\src\lv_widgets\../lv_core/lv_obj_style_dec.h ****  *      `//Type of result should be lv_style_int_t/lv_opa_t/lv_color_t/const void * according to th
  44:lvgl\src\lv_widgets\../lv_core/lv_obj_style_dec.h ****  *      `lv_style_int_t result;`
  45:lvgl\src\lv_widgets\../lv_core/lv_obj_style_dec.h ****  *      `lv_obj_get_style_local_border_width(btn1, LV_BTN_PART_MAIN, LV_STATE_PRESSED, &result);`
  46:lvgl\src\lv_widgets\../lv_core/lv_obj_style_dec.h ****  *      `if(weight > 0) ...the property is found and loaded into result...`
  47:lvgl\src\lv_widgets\../lv_core/lv_obj_style_dec.h ****  *
  48:lvgl\src\lv_widgets\../lv_core/lv_obj_style_dec.h ****  * Get the value from a style in a given state
  49:lvgl\src\lv_widgets\../lv_core/lv_obj_style_dec.h ****  * -------------------------------------------
  50:lvgl\src\lv_widgets\../lv_core/lv_obj_style_dec.h ****  * - The same rules applies to the return value then for "lv_obj_get_style_local_...()" above
  51:lvgl\src\lv_widgets\../lv_core/lv_obj_style_dec.h ****  * - For example
  52:lvgl\src\lv_widgets\../lv_core/lv_obj_style_dec.h ****  *      `int16_t weight = lv_style_get_border_width(&style1, LV_STATE_PRESSED, &result);`
  53:lvgl\src\lv_widgets\../lv_core/lv_obj_style_dec.h ****  *      `if(weight > 0) ...the property is found and loaded into result...`
  54:lvgl\src\lv_widgets\../lv_core/lv_obj_style_dec.h **** 
  55:lvgl\src\lv_widgets\../lv_core/lv_obj_style_dec.h ****  * Set a value in a style in a given state
  56:lvgl\src\lv_widgets\../lv_core/lv_obj_style_dec.h ****  * ---------------------------------------
  57:lvgl\src\lv_widgets\../lv_core/lv_obj_style_dec.h ****  * - For example
  58:lvgl\src\lv_widgets\../lv_core/lv_obj_style_dec.h ****  *      `lv_style_set_border_width(&style1, LV_STATE_PRESSED, 2);`
  59:lvgl\src\lv_widgets\../lv_core/lv_obj_style_dec.h ****  */
  60:lvgl\src\lv_widgets\../lv_core/lv_obj_style_dec.h **** 
  61:lvgl\src\lv_widgets\../lv_core/lv_obj_style_dec.h **** #define _OBJ_GET_STYLE_scalar(prop_name, func_name, value_type, style_type)                        
  62:lvgl\src\lv_widgets\../lv_core/lv_obj_style_dec.h ****     static inline value_type lv_obj_get_style_##func_name (const lv_obj_t * obj, uint8_t part)     
  63:lvgl\src\lv_widgets\../lv_core/lv_obj_style_dec.h ****     {                                                                                              
  64:lvgl\src\lv_widgets\../lv_core/lv_obj_style_dec.h ****         return (value_type) _lv_obj_get_style##style_type (obj, part, LV_STYLE_##prop_name);       
  65:lvgl\src\lv_widgets\../lv_core/lv_obj_style_dec.h ****     }
  66:lvgl\src\lv_widgets\../lv_core/lv_obj_style_dec.h **** 
  67:lvgl\src\lv_widgets\../lv_core/lv_obj_style_dec.h **** #define _OBJ_GET_STYLE_nonscalar(prop_name, func_name, value_type, style_type)                     
  68:lvgl\src\lv_widgets\../lv_core/lv_obj_style_dec.h ****     static inline value_type lv_obj_get_style_##func_name (const lv_obj_t * obj, uint8_t part)     
  69:lvgl\src\lv_widgets\../lv_core/lv_obj_style_dec.h ****     {                                                                                              
  70:lvgl\src\lv_widgets\../lv_core/lv_obj_style_dec.h ****         return _lv_obj_get_style##style_type (obj, part, LV_STYLE_##prop_name);                    
  71:lvgl\src\lv_widgets\../lv_core/lv_obj_style_dec.h ****     }
  72:lvgl\src\lv_widgets\../lv_core/lv_obj_style_dec.h **** 
  73:lvgl\src\lv_widgets\../lv_core/lv_obj_style_dec.h **** #define _OBJ_SET_STYLE_LOCAL_scalar(prop_name, func_name, value_type, style_type)                  
  74:lvgl\src\lv_widgets\../lv_core/lv_obj_style_dec.h ****     static inline void lv_obj_set_style_local_##func_name (lv_obj_t * obj, uint8_t part, lv_state_t
  75:lvgl\src\lv_widgets\../lv_core/lv_obj_style_dec.h ****     {                                                                                              
  76:lvgl\src\lv_widgets\../lv_core/lv_obj_style_dec.h ****         _lv_obj_set_style_local##style_type (obj, part, LV_STYLE_##prop_name | (state << LV_STYLE_S
  77:lvgl\src\lv_widgets\../lv_core/lv_obj_style_dec.h ****     }
  78:lvgl\src\lv_widgets\../lv_core/lv_obj_style_dec.h **** 
  79:lvgl\src\lv_widgets\../lv_core/lv_obj_style_dec.h **** #define _OBJ_SET_STYLE_LOCAL_nonscalar(prop_name, func_name, value_type, style_type)               
  80:lvgl\src\lv_widgets\../lv_core/lv_obj_style_dec.h ****     static inline void lv_obj_set_style_local_##func_name (lv_obj_t * obj, uint8_t part, lv_state_t
  81:lvgl\src\lv_widgets\../lv_core/lv_obj_style_dec.h ****     {                                                                                              
  82:lvgl\src\lv_widgets\../lv_core/lv_obj_style_dec.h ****         _lv_obj_set_style_local##style_type (obj, part, LV_STYLE_##prop_name | (state << LV_STYLE_S
  83:lvgl\src\lv_widgets\../lv_core/lv_obj_style_dec.h ****     }
  84:lvgl\src\lv_widgets\../lv_core/lv_obj_style_dec.h **** 
  85:lvgl\src\lv_widgets\../lv_core/lv_obj_style_dec.h **** #define _OBJ_SET_STYLE_scalar(prop_name, func_name, value_type, style_type)                        
  86:lvgl\src\lv_widgets\../lv_core/lv_obj_style_dec.h ****     static inline void lv_style_set_##func_name (lv_style_t * style, lv_state_t state, value_type v
  87:lvgl\src\lv_widgets\../lv_core/lv_obj_style_dec.h ****     {                                                                                              
  88:lvgl\src\lv_widgets\../lv_core/lv_obj_style_dec.h ****         _lv_style_set##style_type (style, LV_STYLE_##prop_name | (state << LV_STYLE_STATE_POS), val
  89:lvgl\src\lv_widgets\../lv_core/lv_obj_style_dec.h ****     }
  90:lvgl\src\lv_widgets\../lv_core/lv_obj_style_dec.h **** 
  91:lvgl\src\lv_widgets\../lv_core/lv_obj_style_dec.h **** #define _OBJ_SET_STYLE_nonscalar(prop_name, func_name, value_type, style_type)                     
  92:lvgl\src\lv_widgets\../lv_core/lv_obj_style_dec.h ****     static inline void lv_style_set_##func_name (lv_style_t * style, lv_state_t state, value_type v
  93:lvgl\src\lv_widgets\../lv_core/lv_obj_style_dec.h ****     {                                                                                              
  94:lvgl\src\lv_widgets\../lv_core/lv_obj_style_dec.h ****         _lv_style_set##style_type (style, LV_STYLE_##prop_name | (state << LV_STYLE_STATE_POS), val
  95:lvgl\src\lv_widgets\../lv_core/lv_obj_style_dec.h ****     }
  96:lvgl\src\lv_widgets\../lv_core/lv_obj_style_dec.h **** 
  97:lvgl\src\lv_widgets\../lv_core/lv_obj_style_dec.h **** #define _LV_OBJ_STYLE_SET_GET_DECLARE(prop_name, func_name, value_type, style_type, scalar)        
  98:lvgl\src\lv_widgets\../lv_core/lv_obj_style_dec.h ****     _OBJ_GET_STYLE_##scalar(prop_name, func_name, value_type, style_type)                          
  99:lvgl\src\lv_widgets\../lv_core/lv_obj_style_dec.h ****     _OBJ_SET_STYLE_LOCAL_##scalar(prop_name, func_name, value_type, style_type)                    
ARM GAS  C:\Users\strap\AppData\Local\Temp\cc9W5PrE.s 			page 9


 100:lvgl\src\lv_widgets\../lv_core/lv_obj_style_dec.h ****     _OBJ_SET_STYLE_##scalar(prop_name, func_name, value_type, style_type)
 101:lvgl\src\lv_widgets\../lv_core/lv_obj_style_dec.h **** 
 102:lvgl\src\lv_widgets\../lv_core/lv_obj_style_dec.h **** _LV_OBJ_STYLE_SET_GET_DECLARE(RADIUS, radius, lv_style_int_t, _int, scalar)
 103:lvgl\src\lv_widgets\../lv_core/lv_obj_style_dec.h **** _LV_OBJ_STYLE_SET_GET_DECLARE(CLIP_CORNER, clip_corner, bool, _int, scalar)
 104:lvgl\src\lv_widgets\../lv_core/lv_obj_style_dec.h **** _LV_OBJ_STYLE_SET_GET_DECLARE(SIZE, size, lv_style_int_t, _int, scalar)
 105:lvgl\src\lv_widgets\../lv_core/lv_obj_style_dec.h **** _LV_OBJ_STYLE_SET_GET_DECLARE(TRANSFORM_WIDTH, transform_width, lv_style_int_t, _int, scalar)
 106:lvgl\src\lv_widgets\../lv_core/lv_obj_style_dec.h **** _LV_OBJ_STYLE_SET_GET_DECLARE(TRANSFORM_HEIGHT, transform_height, lv_style_int_t, _int, scalar)
 107:lvgl\src\lv_widgets\../lv_core/lv_obj_style_dec.h **** _LV_OBJ_STYLE_SET_GET_DECLARE(TRANSFORM_ANGLE, transform_angle, lv_style_int_t, _int, scalar)
 108:lvgl\src\lv_widgets\../lv_core/lv_obj_style_dec.h **** _LV_OBJ_STYLE_SET_GET_DECLARE(TRANSFORM_ZOOM, transform_zoom, lv_style_int_t, _int, scalar)
 109:lvgl\src\lv_widgets\../lv_core/lv_obj_style_dec.h **** _LV_OBJ_STYLE_SET_GET_DECLARE(OPA_SCALE, opa_scale, lv_opa_t, _opa, scalar)
 110:lvgl\src\lv_widgets\../lv_core/lv_obj_style_dec.h **** _LV_OBJ_STYLE_SET_GET_DECLARE(PAD_TOP, pad_top, lv_style_int_t, _int, scalar)
 111:lvgl\src\lv_widgets\../lv_core/lv_obj_style_dec.h **** _LV_OBJ_STYLE_SET_GET_DECLARE(PAD_BOTTOM, pad_bottom, lv_style_int_t, _int, scalar)
 112:lvgl\src\lv_widgets\../lv_core/lv_obj_style_dec.h **** _LV_OBJ_STYLE_SET_GET_DECLARE(PAD_LEFT, pad_left, lv_style_int_t, _int, scalar)
 113:lvgl\src\lv_widgets\../lv_core/lv_obj_style_dec.h **** _LV_OBJ_STYLE_SET_GET_DECLARE(PAD_RIGHT, pad_right, lv_style_int_t, _int, scalar)
 114:lvgl\src\lv_widgets\../lv_core/lv_obj_style_dec.h **** _LV_OBJ_STYLE_SET_GET_DECLARE(PAD_INNER, pad_inner, lv_style_int_t, _int, scalar)
 115:lvgl\src\lv_widgets\../lv_core/lv_obj_style_dec.h **** _LV_OBJ_STYLE_SET_GET_DECLARE(MARGIN_TOP, margin_top, lv_style_int_t, _int, scalar)
 116:lvgl\src\lv_widgets\../lv_core/lv_obj_style_dec.h **** _LV_OBJ_STYLE_SET_GET_DECLARE(MARGIN_BOTTOM, margin_bottom, lv_style_int_t, _int, scalar)
 117:lvgl\src\lv_widgets\../lv_core/lv_obj_style_dec.h **** _LV_OBJ_STYLE_SET_GET_DECLARE(MARGIN_LEFT, margin_left, lv_style_int_t, _int, scalar)
 118:lvgl\src\lv_widgets\../lv_core/lv_obj_style_dec.h **** _LV_OBJ_STYLE_SET_GET_DECLARE(MARGIN_RIGHT, margin_right, lv_style_int_t, _int, scalar)
 119:lvgl\src\lv_widgets\../lv_core/lv_obj_style_dec.h **** _LV_OBJ_STYLE_SET_GET_DECLARE(BG_BLEND_MODE, bg_blend_mode, lv_blend_mode_t, _int, scalar)
 120:lvgl\src\lv_widgets\../lv_core/lv_obj_style_dec.h **** _LV_OBJ_STYLE_SET_GET_DECLARE(BG_MAIN_STOP, bg_main_stop, lv_style_int_t, _int, scalar)
 121:lvgl\src\lv_widgets\../lv_core/lv_obj_style_dec.h **** _LV_OBJ_STYLE_SET_GET_DECLARE(BG_GRAD_STOP, bg_grad_stop, lv_style_int_t, _int, scalar)
 122:lvgl\src\lv_widgets\../lv_core/lv_obj_style_dec.h **** _LV_OBJ_STYLE_SET_GET_DECLARE(BG_GRAD_DIR, bg_grad_dir, lv_grad_dir_t, _int, scalar)
 123:lvgl\src\lv_widgets\../lv_core/lv_obj_style_dec.h **** _LV_OBJ_STYLE_SET_GET_DECLARE(BG_COLOR, bg_color, lv_color_t, _color, nonscalar)
 124:lvgl\src\lv_widgets\../lv_core/lv_obj_style_dec.h **** _LV_OBJ_STYLE_SET_GET_DECLARE(BG_GRAD_COLOR, bg_grad_color, lv_color_t, _color, nonscalar)
 125:lvgl\src\lv_widgets\../lv_core/lv_obj_style_dec.h **** _LV_OBJ_STYLE_SET_GET_DECLARE(BG_OPA, bg_opa, lv_opa_t, _opa, scalar)
 126:lvgl\src\lv_widgets\../lv_core/lv_obj_style_dec.h **** _LV_OBJ_STYLE_SET_GET_DECLARE(BORDER_WIDTH, border_width, lv_style_int_t, _int, scalar)
 127:lvgl\src\lv_widgets\../lv_core/lv_obj_style_dec.h **** _LV_OBJ_STYLE_SET_GET_DECLARE(BORDER_SIDE, border_side, lv_border_side_t, _int, scalar)
 128:lvgl\src\lv_widgets\../lv_core/lv_obj_style_dec.h **** _LV_OBJ_STYLE_SET_GET_DECLARE(BORDER_BLEND_MODE, border_blend_mode, lv_blend_mode_t, _int, scalar)
 129:lvgl\src\lv_widgets\../lv_core/lv_obj_style_dec.h **** _LV_OBJ_STYLE_SET_GET_DECLARE(BORDER_POST, border_post, bool, _int, scalar)
 130:lvgl\src\lv_widgets\../lv_core/lv_obj_style_dec.h **** _LV_OBJ_STYLE_SET_GET_DECLARE(BORDER_COLOR, border_color, lv_color_t, _color, nonscalar)
 131:lvgl\src\lv_widgets\../lv_core/lv_obj_style_dec.h **** _LV_OBJ_STYLE_SET_GET_DECLARE(BORDER_OPA, border_opa, lv_opa_t, _opa, scalar)
 132:lvgl\src\lv_widgets\../lv_core/lv_obj_style_dec.h **** _LV_OBJ_STYLE_SET_GET_DECLARE(OUTLINE_WIDTH, outline_width, lv_style_int_t, _int, scalar)
 133:lvgl\src\lv_widgets\../lv_core/lv_obj_style_dec.h **** _LV_OBJ_STYLE_SET_GET_DECLARE(OUTLINE_PAD, outline_pad, lv_style_int_t, _int, scalar)
 134:lvgl\src\lv_widgets\../lv_core/lv_obj_style_dec.h **** _LV_OBJ_STYLE_SET_GET_DECLARE(OUTLINE_BLEND_MODE, outline_blend_mode, lv_blend_mode_t, _int, scalar
 135:lvgl\src\lv_widgets\../lv_core/lv_obj_style_dec.h **** _LV_OBJ_STYLE_SET_GET_DECLARE(OUTLINE_COLOR, outline_color, lv_color_t, _color, nonscalar)
 136:lvgl\src\lv_widgets\../lv_core/lv_obj_style_dec.h **** _LV_OBJ_STYLE_SET_GET_DECLARE(OUTLINE_OPA, outline_opa, lv_opa_t, _opa, scalar)
 137:lvgl\src\lv_widgets\../lv_core/lv_obj_style_dec.h **** _LV_OBJ_STYLE_SET_GET_DECLARE(SHADOW_WIDTH, shadow_width, lv_style_int_t, _int, scalar)
 138:lvgl\src\lv_widgets\../lv_core/lv_obj_style_dec.h **** _LV_OBJ_STYLE_SET_GET_DECLARE(SHADOW_OFS_X, shadow_ofs_x, lv_style_int_t, _int, scalar)
 139:lvgl\src\lv_widgets\../lv_core/lv_obj_style_dec.h **** _LV_OBJ_STYLE_SET_GET_DECLARE(SHADOW_OFS_Y, shadow_ofs_y, lv_style_int_t, _int, scalar)
 140:lvgl\src\lv_widgets\../lv_core/lv_obj_style_dec.h **** _LV_OBJ_STYLE_SET_GET_DECLARE(SHADOW_SPREAD, shadow_spread, lv_style_int_t, _int, scalar)
 141:lvgl\src\lv_widgets\../lv_core/lv_obj_style_dec.h **** _LV_OBJ_STYLE_SET_GET_DECLARE(SHADOW_BLEND_MODE, shadow_blend_mode, lv_blend_mode_t, _int, scalar)
 142:lvgl\src\lv_widgets\../lv_core/lv_obj_style_dec.h **** _LV_OBJ_STYLE_SET_GET_DECLARE(SHADOW_COLOR, shadow_color, lv_color_t, _color, nonscalar)
 143:lvgl\src\lv_widgets\../lv_core/lv_obj_style_dec.h **** _LV_OBJ_STYLE_SET_GET_DECLARE(SHADOW_OPA, shadow_opa, lv_opa_t, _opa, scalar)
 144:lvgl\src\lv_widgets\../lv_core/lv_obj_style_dec.h **** _LV_OBJ_STYLE_SET_GET_DECLARE(PATTERN_REPEAT, pattern_repeat, bool, _int, scalar)
 145:lvgl\src\lv_widgets\../lv_core/lv_obj_style_dec.h **** _LV_OBJ_STYLE_SET_GET_DECLARE(PATTERN_BLEND_MODE, pattern_blend_mode, lv_blend_mode_t, _int, scalar
 146:lvgl\src\lv_widgets\../lv_core/lv_obj_style_dec.h **** _LV_OBJ_STYLE_SET_GET_DECLARE(PATTERN_RECOLOR, pattern_recolor, lv_color_t, _color, nonscalar)
 147:lvgl\src\lv_widgets\../lv_core/lv_obj_style_dec.h **** _LV_OBJ_STYLE_SET_GET_DECLARE(PATTERN_OPA, pattern_opa, lv_opa_t, _opa, scalar)
 148:lvgl\src\lv_widgets\../lv_core/lv_obj_style_dec.h **** _LV_OBJ_STYLE_SET_GET_DECLARE(PATTERN_RECOLOR_OPA, pattern_recolor_opa, lv_opa_t, _opa, scalar)
 149:lvgl\src\lv_widgets\../lv_core/lv_obj_style_dec.h **** _LV_OBJ_STYLE_SET_GET_DECLARE(PATTERN_IMAGE, pattern_image, const void *, _ptr, scalar)
 150:lvgl\src\lv_widgets\../lv_core/lv_obj_style_dec.h **** _LV_OBJ_STYLE_SET_GET_DECLARE(VALUE_LETTER_SPACE, value_letter_space, lv_style_int_t, _int, scalar)
 151:lvgl\src\lv_widgets\../lv_core/lv_obj_style_dec.h **** _LV_OBJ_STYLE_SET_GET_DECLARE(VALUE_LINE_SPACE, value_line_space, lv_style_int_t, _int, scalar)
 152:lvgl\src\lv_widgets\../lv_core/lv_obj_style_dec.h **** _LV_OBJ_STYLE_SET_GET_DECLARE(VALUE_BLEND_MODE, value_blend_mode, lv_blend_mode_t, _int, scalar)
 153:lvgl\src\lv_widgets\../lv_core/lv_obj_style_dec.h **** _LV_OBJ_STYLE_SET_GET_DECLARE(VALUE_OFS_X, value_ofs_x, lv_style_int_t, _int, scalar)
 154:lvgl\src\lv_widgets\../lv_core/lv_obj_style_dec.h **** _LV_OBJ_STYLE_SET_GET_DECLARE(VALUE_OFS_Y, value_ofs_y, lv_style_int_t, _int, scalar)
 155:lvgl\src\lv_widgets\../lv_core/lv_obj_style_dec.h **** _LV_OBJ_STYLE_SET_GET_DECLARE(VALUE_ALIGN, value_align, lv_align_t, _int, scalar)
 156:lvgl\src\lv_widgets\../lv_core/lv_obj_style_dec.h **** _LV_OBJ_STYLE_SET_GET_DECLARE(VALUE_COLOR, value_color, lv_color_t, _color, nonscalar)
ARM GAS  C:\Users\strap\AppData\Local\Temp\cc9W5PrE.s 			page 10


 157:lvgl\src\lv_widgets\../lv_core/lv_obj_style_dec.h **** _LV_OBJ_STYLE_SET_GET_DECLARE(VALUE_OPA, value_opa, lv_opa_t, _opa, scalar)
 158:lvgl\src\lv_widgets\../lv_core/lv_obj_style_dec.h **** _LV_OBJ_STYLE_SET_GET_DECLARE(VALUE_FONT, value_font, const lv_font_t *, _ptr, scalar)
 159:lvgl\src\lv_widgets\../lv_core/lv_obj_style_dec.h **** _LV_OBJ_STYLE_SET_GET_DECLARE(VALUE_STR, value_str, const char *, _ptr, scalar)
 160:lvgl\src\lv_widgets\../lv_core/lv_obj_style_dec.h **** _LV_OBJ_STYLE_SET_GET_DECLARE(TEXT_LETTER_SPACE, text_letter_space, lv_style_int_t, _int, scalar)
 161:lvgl\src\lv_widgets\../lv_core/lv_obj_style_dec.h **** _LV_OBJ_STYLE_SET_GET_DECLARE(TEXT_LINE_SPACE, text_line_space, lv_style_int_t, _int, scalar)
 162:lvgl\src\lv_widgets\../lv_core/lv_obj_style_dec.h **** _LV_OBJ_STYLE_SET_GET_DECLARE(TEXT_DECOR, text_decor, lv_text_decor_t, _int, scalar)
 163:lvgl\src\lv_widgets\../lv_core/lv_obj_style_dec.h **** _LV_OBJ_STYLE_SET_GET_DECLARE(TEXT_BLEND_MODE, text_blend_mode, lv_blend_mode_t, _int, scalar)
 164:lvgl\src\lv_widgets\../lv_core/lv_obj_style_dec.h **** _LV_OBJ_STYLE_SET_GET_DECLARE(TEXT_COLOR, text_color, lv_color_t, _color, nonscalar)
 165:lvgl\src\lv_widgets\../lv_core/lv_obj_style_dec.h **** _LV_OBJ_STYLE_SET_GET_DECLARE(TEXT_SEL_COLOR, text_sel_color, lv_color_t, _color, nonscalar)
 166:lvgl\src\lv_widgets\../lv_core/lv_obj_style_dec.h **** _LV_OBJ_STYLE_SET_GET_DECLARE(TEXT_SEL_BG_COLOR, text_sel_bg_color, lv_color_t, _color, nonscalar)
 167:lvgl\src\lv_widgets\../lv_core/lv_obj_style_dec.h **** _LV_OBJ_STYLE_SET_GET_DECLARE(TEXT_OPA, text_opa, lv_opa_t, _opa, scalar)
 168:lvgl\src\lv_widgets\../lv_core/lv_obj_style_dec.h **** _LV_OBJ_STYLE_SET_GET_DECLARE(TEXT_FONT, text_font, const lv_font_t *, _ptr, scalar)
 169:lvgl\src\lv_widgets\../lv_core/lv_obj_style_dec.h **** _LV_OBJ_STYLE_SET_GET_DECLARE(LINE_WIDTH, line_width, lv_style_int_t, _int, scalar)
  73              		.loc 2 169 0
  74 0026 9022     		movs	r2, #144
  75 0028 0021     		movs	r1, #0
  76 002a 3046     		mov	r0, r6
  77              	.LVL7:
  78 002c FFF7FEFF 		bl	_lv_obj_get_style_int
  79              	.LVL8:
  80              	.LBE10:
  81              	.LBE9:
 286:lvgl\src\lv_widgets/lv_line.c ****         /*The corner of the skew lines is out of the intended area*/
 287:lvgl\src\lv_widgets/lv_line.c ****         lv_style_int_t line_width = lv_obj_get_style_line_width(line, LV_LINE_PART_MAIN);
 288:lvgl\src\lv_widgets/lv_line.c ****         if(line->ext_draw_pad < line_width) line->ext_draw_pad = line_width;
  82              		.loc 1 288 0
  83 0030 B6F93230 		ldrsh	r3, [r6, #50]
  84 0034 8342     		cmp	r3, r0
  85 0036 04DA     		bge	.L6
  86              		.loc 1 288 0 is_stmt 0 discriminator 1
  87 0038 7086     		strh	r0, [r6, #50]	@ movhi
  88              	.LBE8:
 289:lvgl\src\lv_widgets/lv_line.c ****     }
 290:lvgl\src\lv_widgets/lv_line.c **** 
 291:lvgl\src\lv_widgets/lv_line.c ****     return res;
  89              		.loc 1 291 0 is_stmt 1 discriminator 1
  90 003a 2046     		mov	r0, r4
  91 003c F8BD     		pop	{r3, r4, r5, r6, r7, pc}
  92              	.LVL9:
  93              	.L4:
  94 003e F8BD     		pop	{r3, r4, r5, r6, r7, pc}
  95              	.LVL10:
  96              	.L5:
  97 0040 F8BD     		pop	{r3, r4, r5, r6, r7, pc}
  98              	.LVL11:
  99              	.L6:
 100              		.loc 1 291 0 is_stmt 0
 101 0042 2046     		mov	r0, r4
 292:lvgl\src\lv_widgets/lv_line.c **** }
 102              		.loc 1 292 0 is_stmt 1
 103 0044 F8BD     		pop	{r3, r4, r5, r6, r7, pc}
 104              	.LVL12:
 105              	.L9:
 106 0046 00BF     		.align	2
 107              	.L8:
 108 0048 00000000 		.word	.LANCHOR0
 109 004c 00000000 		.word	.LC0
ARM GAS  C:\Users\strap\AppData\Local\Temp\cc9W5PrE.s 			page 11


 110              		.cfi_endproc
 111              	.LFE335:
 112              		.size	lv_line_signal, .-lv_line_signal
 113              		.section	.text.lv_line_design,"ax",%progbits
 114              		.align	2
 115              		.thumb
 116              		.thumb_func
 117              		.type	lv_line_design, %function
 118              	lv_line_design:
 119              	.LFB334:
 226:lvgl\src\lv_widgets/lv_line.c ****     /*A line never covers an area*/
 120              		.loc 1 226 0
 121              		.cfi_startproc
 122              		@ args = 0, pretend = 0, frame = 32
 123              		@ frame_needed = 0, uses_anonymous_args = 0
 124              	.LVL13:
 228:lvgl\src\lv_widgets/lv_line.c ****         return LV_DESIGN_RES_NOT_COVER;
 125              		.loc 1 228 0
 126 0000 022A     		cmp	r2, #2
 127 0002 73D0     		beq	.L18
 230:lvgl\src\lv_widgets/lv_line.c ****         lv_line_ext_t * ext = lv_obj_get_ext_attr(line);
 128              		.loc 1 230 0
 129 0004 002A     		cmp	r2, #0
 130 0006 73D1     		bne	.L19
 226:lvgl\src\lv_widgets/lv_line.c ****     /*A line never covers an area*/
 131              		.loc 1 226 0
 132 0008 2DE9F043 		push	{r4, r5, r6, r7, r8, r9, lr}
 133              		.cfi_def_cfa_offset 28
 134              		.cfi_offset 4, -28
 135              		.cfi_offset 5, -24
 136              		.cfi_offset 6, -20
 137              		.cfi_offset 7, -16
 138              		.cfi_offset 8, -12
 139              		.cfi_offset 9, -8
 140              		.cfi_offset 14, -4
 141 000c 89B0     		sub	sp, sp, #36
 142              		.cfi_def_cfa_offset 64
 143 000e 0E46     		mov	r6, r1
 144 0010 0446     		mov	r4, r0
 145              	.LBB11:
 231:lvgl\src\lv_widgets/lv_line.c **** 
 146              		.loc 1 231 0
 147 0012 FFF7FEFF 		bl	lv_obj_get_ext_attr
 148              	.LVL14:
 149 0016 0546     		mov	r5, r0
 150              	.LVL15:
 233:lvgl\src\lv_widgets/lv_line.c **** 
 151              		.loc 1 233 0
 152 0018 8388     		ldrh	r3, [r0, #4]
 153 001a 0BB1     		cbz	r3, .L12
 233:lvgl\src\lv_widgets/lv_line.c **** 
 154              		.loc 1 233 0 is_stmt 0 discriminator 2
 155 001c 0368     		ldr	r3, [r0]
 156 001e 0BB9     		cbnz	r3, .L13
 157              	.L12:
 233:lvgl\src\lv_widgets/lv_line.c **** 
 158              		.loc 1 233 0 discriminator 3
ARM GAS  C:\Users\strap\AppData\Local\Temp\cc9W5PrE.s 			page 12


 159 0020 0020     		movs	r0, #0
 160              	.LVL16:
 161 0022 67E0     		b	.L11
 162              	.LVL17:
 163              	.L13:
 236:lvgl\src\lv_widgets/lv_line.c ****         lv_coord_t x_ofs = area.x1;
 164              		.loc 1 236 0 is_stmt 1
 165 0024 03A9     		add	r1, sp, #12
 166 0026 2046     		mov	r0, r4
 167              	.LVL18:
 168 0028 FFF7FEFF 		bl	lv_obj_get_coords
 169              	.LVL19:
 237:lvgl\src\lv_widgets/lv_line.c ****         lv_coord_t y_ofs = area.y1;
 170              		.loc 1 237 0
 171 002c BDF90C80 		ldrsh	r8, [sp, #12]
 172              	.LVL20:
 238:lvgl\src\lv_widgets/lv_line.c ****         lv_point_t p1;
 173              		.loc 1 238 0
 174 0030 BDF90E70 		ldrsh	r7, [sp, #14]
 175              	.LVL21:
 241:lvgl\src\lv_widgets/lv_line.c ****         uint16_t i;
 176              		.loc 1 241 0
 177 0034 2046     		mov	r0, r4
 178 0036 FFF7FEFF 		bl	lv_obj_get_height
 179              	.LVL22:
 180 003a 8146     		mov	r9, r0
 181              	.LVL23:
 245:lvgl\src\lv_widgets/lv_line.c ****         lv_obj_init_draw_line_dsc(line, LV_LINE_PART_MAIN, &line_dsc);
 182              		.loc 1 245 0
 183 003c 05A8     		add	r0, sp, #20
 184 003e FFF7FEFF 		bl	lv_draw_line_dsc_init
 185              	.LVL24:
 246:lvgl\src\lv_widgets/lv_line.c **** 
 186              		.loc 1 246 0
 187 0042 05AA     		add	r2, sp, #20
 188 0044 0021     		movs	r1, #0
 189 0046 2046     		mov	r0, r4
 190 0048 FFF7FEFF 		bl	lv_obj_init_draw_line_dsc
 191              	.LVL25:
 249:lvgl\src\lv_widgets/lv_line.c **** 
 192              		.loc 1 249 0
 193 004c 0024     		movs	r4, #0
 194              	.LVL26:
 195 004e 47E0     		b	.L14
 196              	.LVL27:
 197              	.L17:
 251:lvgl\src\lv_widgets/lv_line.c ****             p2.x = ext->point_array[i + 1].x + x_ofs;
 198              		.loc 1 251 0
 199 0050 2B68     		ldr	r3, [r5]
 200 0052 A100     		lsls	r1, r4, #2
 201 0054 33F92420 		ldrsh	r2, [r3, r4, lsl #2]
 202 0058 1FFA88F0 		uxth	r0, r8
 203 005c 0244     		add	r2, r2, r0
 204 005e ADF80420 		strh	r2, [sp, #4]	@ movhi
 252:lvgl\src\lv_widgets/lv_line.c **** 
 205              		.loc 1 252 0
 206 0062 2B68     		ldr	r3, [r5]
ARM GAS  C:\Users\strap\AppData\Local\Temp\cc9W5PrE.s 			page 13


 207 0064 04F1010E 		add	lr, r4, #1
 208 0068 4FEA8E02 		lsl	r2, lr, #2
 209 006c 33F92E30 		ldrsh	r3, [r3, lr, lsl #2]
 210 0070 0344     		add	r3, r3, r0
 211 0072 ADF80830 		strh	r3, [sp, #8]	@ movhi
 254:lvgl\src\lv_widgets/lv_line.c ****                 p1.y = ext->point_array[i].y + y_ofs;
 212              		.loc 1 254 0
 213 0076 AB79     		ldrb	r3, [r5, #6]	@ zero_extendqisi2
 214 0078 13F0020F 		tst	r3, #2
 215 007c 0FD1     		bne	.L15
 255:lvgl\src\lv_widgets/lv_line.c ****                 p2.y = ext->point_array[i + 1].y + y_ofs;
 216              		.loc 1 255 0
 217 007e 2B68     		ldr	r3, [r5]
 218 0080 1944     		add	r1, r1, r3
 219 0082 B1F90210 		ldrsh	r1, [r1, #2]
 220 0086 B8B2     		uxth	r0, r7
 221 0088 0144     		add	r1, r1, r0
 222 008a ADF80610 		strh	r1, [sp, #6]	@ movhi
 256:lvgl\src\lv_widgets/lv_line.c ****             }
 223              		.loc 1 256 0
 224 008e 2968     		ldr	r1, [r5]
 225 0090 0A44     		add	r2, r2, r1
 226 0092 B2F90230 		ldrsh	r3, [r2, #2]
 227 0096 0344     		add	r3, r3, r0
 228 0098 ADF80A30 		strh	r3, [sp, #10]	@ movhi
 229 009c 12E0     		b	.L16
 230              	.L15:
 259:lvgl\src\lv_widgets/lv_line.c ****                 p2.y = h - ext->point_array[i + 1].y + y_ofs;
 231              		.loc 1 259 0
 232 009e 1FFA89F3 		uxth	r3, r9
 233 00a2 2868     		ldr	r0, [r5]
 234 00a4 0144     		add	r1, r1, r0
 235 00a6 B1F90210 		ldrsh	r1, [r1, #2]
 236 00aa B8B2     		uxth	r0, r7
 237 00ac 591A     		subs	r1, r3, r1
 238 00ae 0144     		add	r1, r1, r0
 239 00b0 ADF80610 		strh	r1, [sp, #6]	@ movhi
 260:lvgl\src\lv_widgets/lv_line.c ****             }
 240              		.loc 1 260 0
 241 00b4 2968     		ldr	r1, [r5]
 242 00b6 0A44     		add	r2, r2, r1
 243 00b8 B2F90220 		ldrsh	r2, [r2, #2]
 244 00bc 9B1A     		subs	r3, r3, r2
 245 00be 0344     		add	r3, r3, r0
 246 00c0 ADF80A30 		strh	r3, [sp, #10]	@ movhi
 247              	.L16:
 262:lvgl\src\lv_widgets/lv_line.c ****             line_dsc.round_start = 0;   /*Draw the rounding only on the end points after the first 
 248              		.loc 1 262 0 discriminator 2
 249 00c4 05AB     		add	r3, sp, #20
 250 00c6 3246     		mov	r2, r6
 251 00c8 02A9     		add	r1, sp, #8
 252 00ca 01A8     		add	r0, sp, #4
 253 00cc FFF7FEFF 		bl	lv_draw_line
 254              	.LVL28:
 263:lvgl\src\lv_widgets/lv_line.c ****         }
 255              		.loc 1 263 0 discriminator 2
 256 00d0 9DF81D30 		ldrb	r3, [sp, #29]	@ zero_extendqisi2
ARM GAS  C:\Users\strap\AppData\Local\Temp\cc9W5PrE.s 			page 14


 257 00d4 6FF38203 		bfc	r3, #2, #1
 258 00d8 8DF81D30 		strb	r3, [sp, #29]
 249:lvgl\src\lv_widgets/lv_line.c **** 
 259              		.loc 1 249 0 discriminator 2
 260 00dc 0134     		adds	r4, r4, #1
 261              	.LVL29:
 262 00de A4B2     		uxth	r4, r4
 263              	.LVL30:
 264              	.L14:
 249:lvgl\src\lv_widgets/lv_line.c **** 
 265              		.loc 1 249 0 is_stmt 0 discriminator 1
 266 00e0 AB88     		ldrh	r3, [r5, #4]
 267 00e2 013B     		subs	r3, r3, #1
 268 00e4 9C42     		cmp	r4, r3
 269 00e6 B3DB     		blt	.L17
 270              	.LBE11:
 267:lvgl\src\lv_widgets/lv_line.c **** }
 271              		.loc 1 267 0 is_stmt 1
 272 00e8 0020     		movs	r0, #0
 273              	.LBB12:
 274 00ea 03E0     		b	.L11
 275              	.LVL31:
 276              	.L18:
 277              		.cfi_def_cfa_offset 0
 278              		.cfi_restore 4
 279              		.cfi_restore 5
 280              		.cfi_restore 6
 281              		.cfi_restore 7
 282              		.cfi_restore 8
 283              		.cfi_restore 9
 284              		.cfi_restore 14
 285              	.LBE12:
 229:lvgl\src\lv_widgets/lv_line.c ****     else if(mode == LV_DESIGN_DRAW_MAIN) {
 286              		.loc 1 229 0
 287 00ec 0220     		movs	r0, #2
 288              	.LVL32:
 289 00ee 7047     		bx	lr
 290              	.LVL33:
 291              	.L19:
 267:lvgl\src\lv_widgets/lv_line.c **** }
 292              		.loc 1 267 0
 293 00f0 0020     		movs	r0, #0
 294              	.LVL34:
 295 00f2 7047     		bx	lr
 296              	.LVL35:
 297              	.L11:
 298              		.cfi_def_cfa_offset 64
 299              		.cfi_offset 4, -28
 300              		.cfi_offset 5, -24
 301              		.cfi_offset 6, -20
 302              		.cfi_offset 7, -16
 303              		.cfi_offset 8, -12
 304              		.cfi_offset 9, -8
 305              		.cfi_offset 14, -4
 268:lvgl\src\lv_widgets/lv_line.c **** 
 306              		.loc 1 268 0
 307 00f4 09B0     		add	sp, sp, #36
ARM GAS  C:\Users\strap\AppData\Local\Temp\cc9W5PrE.s 			page 15


 308              		.cfi_def_cfa_offset 28
 309              		@ sp needed
 310 00f6 BDE8F083 		pop	{r4, r5, r6, r7, r8, r9, pc}
 311              		.cfi_endproc
 312              	.LFE334:
 313              		.size	lv_line_design, .-lv_line_design
 314 00fa 00BF     		.section	.text.lv_line_set_points,"ax",%progbits
 315              		.align	2
 316              		.global	lv_line_set_points
 317              		.thumb
 318              		.thumb_func
 319              		.type	lv_line_set_points, %function
 320              	lv_line_set_points:
 321              	.LFB329:
 118:lvgl\src\lv_widgets/lv_line.c ****     LV_ASSERT_OBJ(line, LV_OBJX_NAME);
 322              		.loc 1 118 0
 323              		.cfi_startproc
 324              		@ args = 0, pretend = 0, frame = 0
 325              		@ frame_needed = 0, uses_anonymous_args = 0
 326              	.LVL36:
 327 0000 2DE9F041 		push	{r4, r5, r6, r7, r8, lr}
 328              		.cfi_def_cfa_offset 24
 329              		.cfi_offset 4, -24
 330              		.cfi_offset 5, -20
 331              		.cfi_offset 6, -16
 332              		.cfi_offset 7, -12
 333              		.cfi_offset 8, -8
 334              		.cfi_offset 14, -4
 335 0004 0546     		mov	r5, r0
 336 0006 0F46     		mov	r7, r1
 337 0008 9046     		mov	r8, r2
 119:lvgl\src\lv_widgets/lv_line.c **** 
 338              		.loc 1 119 0
 339 000a FFF7FEFF 		bl	lv_debug_check_null
 340              	.LVL37:
 341 000e 28B9     		cbnz	r0, .L23
 119:lvgl\src\lv_widgets/lv_line.c **** 
 342              		.loc 1 119 0 is_stmt 0 discriminator 1
 343 0010 2A46     		mov	r2, r5
 344 0012 0023     		movs	r3, #0
 345 0014 1B48     		ldr	r0, .L30
 346 0016 FFF7FEFF 		bl	lv_debug_log_error
 347              	.LVL38:
 348              	.L24:
 349 001a FEE7     		b	.L24
 350              	.L23:
 121:lvgl\src\lv_widgets/lv_line.c ****     ext->point_array    = point_a;
 351              		.loc 1 121 0 is_stmt 1
 352 001c 2846     		mov	r0, r5
 353 001e FFF7FEFF 		bl	lv_obj_get_ext_attr
 354              	.LVL39:
 122:lvgl\src\lv_widgets/lv_line.c ****     ext->point_num      = point_num;
 355              		.loc 1 122 0
 356 0022 0760     		str	r7, [r0]
 123:lvgl\src\lv_widgets/lv_line.c **** 
 357              		.loc 1 123 0
 358 0024 A0F80480 		strh	r8, [r0, #4]	@ movhi
ARM GAS  C:\Users\strap\AppData\Local\Temp\cc9W5PrE.s 			page 16


 125:lvgl\src\lv_widgets/lv_line.c ****         uint16_t i;
 359              		.loc 1 125 0
 360 0028 B8F1000F 		cmp	r8, #0
 361 002c 25D0     		beq	.L25
 125:lvgl\src\lv_widgets/lv_line.c ****         uint16_t i;
 362              		.loc 1 125 0 is_stmt 0 discriminator 1
 363 002e 8379     		ldrb	r3, [r0, #6]	@ zero_extendqisi2
 364 0030 13F0010F 		tst	r3, #1
 365 0034 0FD1     		bne	.L28
 366 0036 20E0     		b	.L25
 367              	.LVL40:
 368              	.L27:
 369              	.LBB13:
 130:lvgl\src\lv_widgets/lv_line.c ****             ymax = LV_MATH_MAX(point_a[i].y, ymax);
 370              		.loc 1 130 0 is_stmt 1 discriminator 3
 371 0038 07EB8302 		add	r2, r7, r3, lsl #2
 372 003c 37F92310 		ldrsh	r1, [r7, r3, lsl #2]
 373 0040 8E42     		cmp	r6, r1
 374 0042 B8BF     		it	lt
 375 0044 0E46     		movlt	r6, r1
 376              	.LVL41:
 131:lvgl\src\lv_widgets/lv_line.c ****         }
 377              		.loc 1 131 0 discriminator 3
 378 0046 B2F90220 		ldrsh	r2, [r2, #2]
 379 004a 9442     		cmp	r4, r2
 380 004c B8BF     		it	lt
 381 004e 1446     		movlt	r4, r2
 382              	.LVL42:
 129:lvgl\src\lv_widgets/lv_line.c ****             xmax = LV_MATH_MAX(point_a[i].x, xmax);
 383              		.loc 1 129 0 discriminator 3
 384 0050 0133     		adds	r3, r3, #1
 385              	.LVL43:
 386 0052 9BB2     		uxth	r3, r3
 387              	.LVL44:
 388 0054 02E0     		b	.L26
 389              	.LVL45:
 390              	.L28:
 391              	.LBE13:
 392 0056 0C4C     		ldr	r4, .L30+4
 393 0058 2646     		mov	r6, r4
 394 005a 0023     		movs	r3, #0
 395              	.L26:
 396              	.LVL46:
 397              	.LBB16:
 129:lvgl\src\lv_widgets/lv_line.c ****             xmax = LV_MATH_MAX(point_a[i].x, xmax);
 398              		.loc 1 129 0 is_stmt 0 discriminator 1
 399 005c 4345     		cmp	r3, r8
 400 005e EBD3     		bcc	.L27
 401              	.LVL47:
 402              	.LBB14:
 403              	.LBB15:
 404              		.loc 2 169 0 is_stmt 1
 405 0060 9022     		movs	r2, #144
 406 0062 0021     		movs	r1, #0
 407 0064 2846     		mov	r0, r5
 408              	.LVL48:
 409 0066 FFF7FEFF 		bl	_lv_obj_get_style_int
ARM GAS  C:\Users\strap\AppData\Local\Temp\cc9W5PrE.s 			page 17


 410              	.LVL49:
 411              	.LBE15:
 412              	.LBE14:
 135:lvgl\src\lv_widgets/lv_line.c ****     }
 413              		.loc 1 135 0
 414 006a 80B2     		uxth	r0, r0
 415 006c 0219     		adds	r2, r0, r4
 416 006e 8119     		adds	r1, r0, r6
 417 0070 12B2     		sxth	r2, r2
 418 0072 09B2     		sxth	r1, r1
 419 0074 2846     		mov	r0, r5
 420 0076 FFF7FEFF 		bl	lv_obj_set_size
 421              	.LVL50:
 422              	.L25:
 423              	.LBE16:
 138:lvgl\src\lv_widgets/lv_line.c **** }
 424              		.loc 1 138 0
 425 007a 2846     		mov	r0, r5
 426 007c FFF7FEFF 		bl	lv_obj_invalidate
 427              	.LVL51:
 428 0080 BDE8F081 		pop	{r4, r5, r6, r7, r8, pc}
 429              	.LVL52:
 430              	.L31:
 431              		.align	2
 432              	.L30:
 433 0084 08000000 		.word	.LC1
 434 0088 E883FFFF 		.word	-31768
 435              		.cfi_endproc
 436              	.LFE329:
 437              		.size	lv_line_set_points, .-lv_line_set_points
 438              		.section	.text.lv_line_set_auto_size,"ax",%progbits
 439              		.align	2
 440              		.global	lv_line_set_auto_size
 441              		.thumb
 442              		.thumb_func
 443              		.type	lv_line_set_auto_size, %function
 444              	lv_line_set_auto_size:
 445              	.LFB330:
 148:lvgl\src\lv_widgets/lv_line.c ****     LV_ASSERT_OBJ(line, LV_OBJX_NAME);
 446              		.loc 1 148 0
 447              		.cfi_startproc
 448              		@ args = 0, pretend = 0, frame = 0
 449              		@ frame_needed = 0, uses_anonymous_args = 0
 450              	.LVL53:
 451 0000 38B5     		push	{r3, r4, r5, lr}
 452              		.cfi_def_cfa_offset 16
 453              		.cfi_offset 3, -16
 454              		.cfi_offset 4, -12
 455              		.cfi_offset 5, -8
 456              		.cfi_offset 14, -4
 457 0002 0446     		mov	r4, r0
 458 0004 0D46     		mov	r5, r1
 149:lvgl\src\lv_widgets/lv_line.c **** 
 459              		.loc 1 149 0
 460 0006 FFF7FEFF 		bl	lv_debug_check_null
 461              	.LVL54:
 462 000a 28B9     		cbnz	r0, .L33
ARM GAS  C:\Users\strap\AppData\Local\Temp\cc9W5PrE.s 			page 18


 149:lvgl\src\lv_widgets/lv_line.c **** 
 463              		.loc 1 149 0 is_stmt 0 discriminator 1
 464 000c 2246     		mov	r2, r4
 465 000e 0023     		movs	r3, #0
 466 0010 0D48     		ldr	r0, .L39
 467 0012 FFF7FEFF 		bl	lv_debug_log_error
 468              	.LVL55:
 469              	.L34:
 470 0016 FEE7     		b	.L34
 471              	.L33:
 151:lvgl\src\lv_widgets/lv_line.c ****     if(ext->auto_size == en) return;
 472              		.loc 1 151 0 is_stmt 1
 473 0018 2046     		mov	r0, r4
 474 001a FFF7FEFF 		bl	lv_obj_get_ext_attr
 475              	.LVL56:
 152:lvgl\src\lv_widgets/lv_line.c **** 
 476              		.loc 1 152 0
 477 001e 8379     		ldrb	r3, [r0, #6]	@ zero_extendqisi2
 478 0020 03F00103 		and	r3, r3, #1
 479 0024 AB42     		cmp	r3, r5
 480 0026 0DD0     		beq	.L32
 154:lvgl\src\lv_widgets/lv_line.c **** 
 481              		.loc 1 154 0
 482 0028 0DB9     		cbnz	r5, .L37
 483 002a 0022     		movs	r2, #0
 484 002c 00E0     		b	.L36
 485              	.L37:
 486 002e 0122     		movs	r2, #1
 487              	.L36:
 154:lvgl\src\lv_widgets/lv_line.c **** 
 488              		.loc 1 154 0 is_stmt 0 discriminator 4
 489 0030 8379     		ldrb	r3, [r0, #6]	@ zero_extendqisi2
 490 0032 62F30003 		bfi	r3, r2, #0, #1
 491 0036 8371     		strb	r3, [r0, #6]
 157:lvgl\src\lv_widgets/lv_line.c **** }
 492              		.loc 1 157 0 is_stmt 1 discriminator 4
 493 0038 25B1     		cbz	r5, .L32
 157:lvgl\src\lv_widgets/lv_line.c **** }
 494              		.loc 1 157 0 is_stmt 0 discriminator 1
 495 003a 8288     		ldrh	r2, [r0, #4]
 496 003c 0168     		ldr	r1, [r0]
 497 003e 2046     		mov	r0, r4
 498              	.LVL57:
 499 0040 FFF7FEFF 		bl	lv_line_set_points
 500              	.LVL58:
 501              	.L32:
 502 0044 38BD     		pop	{r3, r4, r5, pc}
 503              	.LVL59:
 504              	.L40:
 505 0046 00BF     		.align	2
 506              	.L39:
 507 0048 08000000 		.word	.LC1
 508              		.cfi_endproc
 509              	.LFE330:
 510              		.size	lv_line_set_auto_size, .-lv_line_set_auto_size
 511              		.section	.text.lv_line_set_y_invert,"ax",%progbits
 512              		.align	2
ARM GAS  C:\Users\strap\AppData\Local\Temp\cc9W5PrE.s 			page 19


 513              		.global	lv_line_set_y_invert
 514              		.thumb
 515              		.thumb_func
 516              		.type	lv_line_set_y_invert, %function
 517              	lv_line_set_y_invert:
 518              	.LFB331:
 168:lvgl\src\lv_widgets/lv_line.c ****     LV_ASSERT_OBJ(line, LV_OBJX_NAME);
 519              		.loc 1 168 0 is_stmt 1
 520              		.cfi_startproc
 521              		@ args = 0, pretend = 0, frame = 0
 522              		@ frame_needed = 0, uses_anonymous_args = 0
 523              	.LVL60:
 524 0000 38B5     		push	{r3, r4, r5, lr}
 525              		.cfi_def_cfa_offset 16
 526              		.cfi_offset 3, -16
 527              		.cfi_offset 4, -12
 528              		.cfi_offset 5, -8
 529              		.cfi_offset 14, -4
 530 0002 0446     		mov	r4, r0
 531 0004 0D46     		mov	r5, r1
 169:lvgl\src\lv_widgets/lv_line.c **** 
 532              		.loc 1 169 0
 533 0006 FFF7FEFF 		bl	lv_debug_check_null
 534              	.LVL61:
 535 000a 28B9     		cbnz	r0, .L42
 169:lvgl\src\lv_widgets/lv_line.c **** 
 536              		.loc 1 169 0 is_stmt 0 discriminator 1
 537 000c 2246     		mov	r2, r4
 538 000e 0023     		movs	r3, #0
 539 0010 0B48     		ldr	r0, .L48
 540 0012 FFF7FEFF 		bl	lv_debug_log_error
 541              	.LVL62:
 542              	.L43:
 543 0016 FEE7     		b	.L43
 544              	.L42:
 171:lvgl\src\lv_widgets/lv_line.c ****     if(ext->y_inv == en) return;
 545              		.loc 1 171 0 is_stmt 1
 546 0018 2046     		mov	r0, r4
 547 001a FFF7FEFF 		bl	lv_obj_get_ext_attr
 548              	.LVL63:
 172:lvgl\src\lv_widgets/lv_line.c **** 
 549              		.loc 1 172 0
 550 001e 8379     		ldrb	r3, [r0, #6]	@ zero_extendqisi2
 551 0020 C3F34003 		ubfx	r3, r3, #1, #1
 552 0024 AB42     		cmp	r3, r5
 553 0026 0AD0     		beq	.L41
 174:lvgl\src\lv_widgets/lv_line.c **** 
 554              		.loc 1 174 0
 555 0028 0DB9     		cbnz	r5, .L46
 556 002a 0022     		movs	r2, #0
 557 002c 00E0     		b	.L45
 558              	.L46:
 559 002e 0122     		movs	r2, #1
 560              	.L45:
 174:lvgl\src\lv_widgets/lv_line.c **** 
 561              		.loc 1 174 0 is_stmt 0 discriminator 4
 562 0030 8379     		ldrb	r3, [r0, #6]	@ zero_extendqisi2
ARM GAS  C:\Users\strap\AppData\Local\Temp\cc9W5PrE.s 			page 20


 563 0032 62F34103 		bfi	r3, r2, #1, #1
 564 0036 8371     		strb	r3, [r0, #6]
 176:lvgl\src\lv_widgets/lv_line.c **** }
 565              		.loc 1 176 0 is_stmt 1 discriminator 4
 566 0038 2046     		mov	r0, r4
 567              	.LVL64:
 568 003a FFF7FEFF 		bl	lv_obj_invalidate
 569              	.LVL65:
 570              	.L41:
 571 003e 38BD     		pop	{r3, r4, r5, pc}
 572              	.LVL66:
 573              	.L49:
 574              		.align	2
 575              	.L48:
 576 0040 08000000 		.word	.LC1
 577              		.cfi_endproc
 578              	.LFE331:
 579              		.size	lv_line_set_y_invert, .-lv_line_set_y_invert
 580              		.section	.text.lv_line_get_auto_size,"ax",%progbits
 581              		.align	2
 582              		.global	lv_line_get_auto_size
 583              		.thumb
 584              		.thumb_func
 585              		.type	lv_line_get_auto_size, %function
 586              	lv_line_get_auto_size:
 587              	.LFB332:
 189:lvgl\src\lv_widgets/lv_line.c ****     LV_ASSERT_OBJ(line, LV_OBJX_NAME);
 588              		.loc 1 189 0
 589              		.cfi_startproc
 590              		@ args = 0, pretend = 0, frame = 0
 591              		@ frame_needed = 0, uses_anonymous_args = 0
 592              	.LVL67:
 593 0000 10B5     		push	{r4, lr}
 594              		.cfi_def_cfa_offset 8
 595              		.cfi_offset 4, -8
 596              		.cfi_offset 14, -4
 597 0002 0446     		mov	r4, r0
 190:lvgl\src\lv_widgets/lv_line.c **** 
 598              		.loc 1 190 0
 599 0004 FFF7FEFF 		bl	lv_debug_check_null
 600              	.LVL68:
 601 0008 28B9     		cbnz	r0, .L51
 190:lvgl\src\lv_widgets/lv_line.c **** 
 602              		.loc 1 190 0 is_stmt 0 discriminator 1
 603 000a 2246     		mov	r2, r4
 604 000c 0023     		movs	r3, #0
 605 000e 0548     		ldr	r0, .L54
 606 0010 FFF7FEFF 		bl	lv_debug_log_error
 607              	.LVL69:
 608              	.L52:
 609 0014 FEE7     		b	.L52
 610              	.L51:
 192:lvgl\src\lv_widgets/lv_line.c **** 
 611              		.loc 1 192 0 is_stmt 1
 612 0016 2046     		mov	r0, r4
 613 0018 FFF7FEFF 		bl	lv_obj_get_ext_attr
 614              	.LVL70:
ARM GAS  C:\Users\strap\AppData\Local\Temp\cc9W5PrE.s 			page 21


 194:lvgl\src\lv_widgets/lv_line.c **** }
 615              		.loc 1 194 0
 616 001c 8079     		ldrb	r0, [r0, #6]	@ zero_extendqisi2
 617              	.LVL71:
 195:lvgl\src\lv_widgets/lv_line.c **** 
 618              		.loc 1 195 0
 619 001e 00F00100 		and	r0, r0, #1
 620 0022 10BD     		pop	{r4, pc}
 621              	.LVL72:
 622              	.L55:
 623              		.align	2
 624              	.L54:
 625 0024 08000000 		.word	.LC1
 626              		.cfi_endproc
 627              	.LFE332:
 628              		.size	lv_line_get_auto_size, .-lv_line_get_auto_size
 629              		.section	.text.lv_line_get_y_invert,"ax",%progbits
 630              		.align	2
 631              		.global	lv_line_get_y_invert
 632              		.thumb
 633              		.thumb_func
 634              		.type	lv_line_get_y_invert, %function
 635              	lv_line_get_y_invert:
 636              	.LFB333:
 203:lvgl\src\lv_widgets/lv_line.c ****     LV_ASSERT_OBJ(line, LV_OBJX_NAME);
 637              		.loc 1 203 0
 638              		.cfi_startproc
 639              		@ args = 0, pretend = 0, frame = 0
 640              		@ frame_needed = 0, uses_anonymous_args = 0
 641              	.LVL73:
 642 0000 10B5     		push	{r4, lr}
 643              		.cfi_def_cfa_offset 8
 644              		.cfi_offset 4, -8
 645              		.cfi_offset 14, -4
 646 0002 0446     		mov	r4, r0
 204:lvgl\src\lv_widgets/lv_line.c **** 
 647              		.loc 1 204 0
 648 0004 FFF7FEFF 		bl	lv_debug_check_null
 649              	.LVL74:
 650 0008 28B9     		cbnz	r0, .L57
 204:lvgl\src\lv_widgets/lv_line.c **** 
 651              		.loc 1 204 0 is_stmt 0 discriminator 1
 652 000a 2246     		mov	r2, r4
 653 000c 0023     		movs	r3, #0
 654 000e 0548     		ldr	r0, .L60
 655 0010 FFF7FEFF 		bl	lv_debug_log_error
 656              	.LVL75:
 657              	.L58:
 658 0014 FEE7     		b	.L58
 659              	.L57:
 206:lvgl\src\lv_widgets/lv_line.c **** 
 660              		.loc 1 206 0 is_stmt 1
 661 0016 2046     		mov	r0, r4
 662 0018 FFF7FEFF 		bl	lv_obj_get_ext_attr
 663              	.LVL76:
 208:lvgl\src\lv_widgets/lv_line.c **** }
 664              		.loc 1 208 0
ARM GAS  C:\Users\strap\AppData\Local\Temp\cc9W5PrE.s 			page 22


 665 001c 8079     		ldrb	r0, [r0, #6]	@ zero_extendqisi2
 666              	.LVL77:
 209:lvgl\src\lv_widgets/lv_line.c **** 
 667              		.loc 1 209 0
 668 001e C0F34000 		ubfx	r0, r0, #1, #1
 669 0022 10BD     		pop	{r4, pc}
 670              	.LVL78:
 671              	.L61:
 672              		.align	2
 673              	.L60:
 674 0024 08000000 		.word	.LC1
 675              		.cfi_endproc
 676              	.LFE333:
 677              		.size	lv_line_get_y_invert, .-lv_line_get_y_invert
 678              		.section	.text.lv_line_create,"ax",%progbits
 679              		.align	2
 680              		.global	lv_line_create
 681              		.thumb
 682              		.thumb_func
 683              		.type	lv_line_create, %function
 684              	lv_line_create:
 685              	.LFB328:
  54:lvgl\src\lv_widgets/lv_line.c ****     LV_LOG_TRACE("line create started");
 686              		.loc 1 54 0
 687              		.cfi_startproc
 688              		@ args = 0, pretend = 0, frame = 0
 689              		@ frame_needed = 0, uses_anonymous_args = 0
 690              	.LVL79:
 691 0000 70B5     		push	{r4, r5, r6, lr}
 692              		.cfi_def_cfa_offset 16
 693              		.cfi_offset 4, -16
 694              		.cfi_offset 5, -12
 695              		.cfi_offset 6, -8
 696              		.cfi_offset 14, -4
 697 0002 0E46     		mov	r6, r1
  58:lvgl\src\lv_widgets/lv_line.c ****     LV_ASSERT_MEM(line);
 698              		.loc 1 58 0
 699 0004 FFF7FEFF 		bl	lv_obj_create
 700              	.LVL80:
 701 0008 0446     		mov	r4, r0
 702              	.LVL81:
  59:lvgl\src\lv_widgets/lv_line.c ****     if(line == NULL) return NULL;
 703              		.loc 1 59 0
 704 000a FFF7FEFF 		bl	lv_debug_check_null
 705              	.LVL82:
 706 000e 28B9     		cbnz	r0, .L63
  59:lvgl\src\lv_widgets/lv_line.c ****     if(line == NULL) return NULL;
 707              		.loc 1 59 0 is_stmt 0 discriminator 1
 708 0010 2246     		mov	r2, r4
 709 0012 0023     		movs	r3, #0
 710 0014 3448     		ldr	r0, .L73
 711 0016 FFF7FEFF 		bl	lv_debug_log_error
 712              	.LVL83:
 713              	.L64:
 714 001a FEE7     		b	.L64
 715              	.L63:
  60:lvgl\src\lv_widgets/lv_line.c **** 
ARM GAS  C:\Users\strap\AppData\Local\Temp\cc9W5PrE.s 			page 23


 716              		.loc 1 60 0 is_stmt 1
 717 001c 002C     		cmp	r4, #0
 718 001e 61D0     		beq	.L71
  62:lvgl\src\lv_widgets/lv_line.c **** 
 719              		.loc 1 62 0
 720 0020 324B     		ldr	r3, .L73+4
 721 0022 1B68     		ldr	r3, [r3]
 722 0024 23B9     		cbnz	r3, .L66
  62:lvgl\src\lv_widgets/lv_line.c **** 
 723              		.loc 1 62 0 is_stmt 0 discriminator 1
 724 0026 2046     		mov	r0, r4
 725 0028 FFF7FEFF 		bl	lv_obj_get_signal_cb
 726              	.LVL84:
 727 002c 2F4B     		ldr	r3, .L73+4
 728 002e 1860     		str	r0, [r3]
 729              	.L66:
  65:lvgl\src\lv_widgets/lv_line.c ****     LV_ASSERT_MEM(ext);
 730              		.loc 1 65 0 is_stmt 1
 731 0030 0821     		movs	r1, #8
 732 0032 2046     		mov	r0, r4
 733 0034 FFF7FEFF 		bl	lv_obj_allocate_ext_attr
 734              	.LVL85:
 735 0038 0546     		mov	r5, r0
 736              	.LVL86:
  66:lvgl\src\lv_widgets/lv_line.c ****     if(ext == NULL) {
 737              		.loc 1 66 0
 738 003a FFF7FEFF 		bl	lv_debug_check_null
 739              	.LVL87:
 740 003e 28B9     		cbnz	r0, .L67
  66:lvgl\src\lv_widgets/lv_line.c ****     if(ext == NULL) {
 741              		.loc 1 66 0 is_stmt 0 discriminator 1
 742 0040 2A46     		mov	r2, r5
 743 0042 0023     		movs	r3, #0
 744 0044 2848     		ldr	r0, .L73
 745 0046 FFF7FEFF 		bl	lv_debug_log_error
 746              	.LVL88:
 747              	.L68:
 748 004a FEE7     		b	.L68
 749              	.L67:
  67:lvgl\src\lv_widgets/lv_line.c ****         lv_obj_del(line);
 750              		.loc 1 67 0 is_stmt 1
 751 004c 25B9     		cbnz	r5, .L69
  68:lvgl\src\lv_widgets/lv_line.c ****         return NULL;
 752              		.loc 1 68 0
 753 004e 2046     		mov	r0, r4
 754 0050 FFF7FEFF 		bl	lv_obj_del
 755              	.LVL89:
  69:lvgl\src\lv_widgets/lv_line.c ****     }
 756              		.loc 1 69 0
 757 0054 0020     		movs	r0, #0
 758 0056 70BD     		pop	{r4, r5, r6, pc}
 759              	.LVL90:
 760              	.L69:
  72:lvgl\src\lv_widgets/lv_line.c ****     ext->point_array = NULL;
 761              		.loc 1 72 0
 762 0058 0022     		movs	r2, #0
 763 005a AA80     		strh	r2, [r5, #4]	@ movhi
ARM GAS  C:\Users\strap\AppData\Local\Temp\cc9W5PrE.s 			page 24


  73:lvgl\src\lv_widgets/lv_line.c ****     ext->auto_size   = 1;
 764              		.loc 1 73 0
 765 005c 2A60     		str	r2, [r5]
  74:lvgl\src\lv_widgets/lv_line.c ****     ext->y_inv       = 0;
 766              		.loc 1 74 0
 767 005e AB79     		ldrb	r3, [r5, #6]	@ zero_extendqisi2
  75:lvgl\src\lv_widgets/lv_line.c **** 
 768              		.loc 1 75 0
 769 0060 43F00103 		orr	r3, r3, #1
 770 0064 62F34103 		bfi	r3, r2, #1, #1
 771 0068 AB71     		strb	r3, [r5, #6]
  77:lvgl\src\lv_widgets/lv_line.c ****     lv_obj_set_signal_cb(line, lv_line_signal);
 772              		.loc 1 77 0
 773 006a 2149     		ldr	r1, .L73+8
 774 006c 2046     		mov	r0, r4
 775 006e FFF7FEFF 		bl	lv_obj_set_design_cb
 776              	.LVL91:
  78:lvgl\src\lv_widgets/lv_line.c **** 
 777              		.loc 1 78 0
 778 0072 2049     		ldr	r1, .L73+12
 779 0074 2046     		mov	r0, r4
 780 0076 FFF7FEFF 		bl	lv_obj_set_signal_cb
 781              	.LVL92:
  81:lvgl\src\lv_widgets/lv_line.c ****         lv_obj_set_size(line, LV_DPI,
 782              		.loc 1 81 0
 783 007a 76B9     		cbnz	r6, .L70
  82:lvgl\src\lv_widgets/lv_line.c ****                         LV_DPI);          /*Auto size is enables, but set default size until no poi
 784              		.loc 1 82 0
 785 007c 8222     		movs	r2, #130
 786 007e 1146     		mov	r1, r2
 787 0080 2046     		mov	r0, r4
 788 0082 FFF7FEFF 		bl	lv_obj_set_size
 789              	.LVL93:
  85:lvgl\src\lv_widgets/lv_line.c **** 
 790              		.loc 1 85 0
 791 0086 0021     		movs	r1, #0
 792 0088 2046     		mov	r0, r4
 793 008a FFF7FEFF 		bl	lv_obj_set_click
 794              	.LVL94:
  87:lvgl\src\lv_widgets/lv_line.c ****     }
 795              		.loc 1 87 0
 796 008e 0A21     		movs	r1, #10
 797 0090 2046     		mov	r0, r4
 798 0092 FFF7FEFF 		bl	lv_theme_apply
 799              	.LVL95:
 103:lvgl\src\lv_widgets/lv_line.c **** }
 800              		.loc 1 103 0
 801 0096 2046     		mov	r0, r4
 802 0098 70BD     		pop	{r4, r5, r6, pc}
 803              	.LVL96:
 804              	.L70:
 805              	.LBB17:
  91:lvgl\src\lv_widgets/lv_line.c ****         lv_line_set_auto_size(line, lv_line_get_auto_size(copy));
 806              		.loc 1 91 0
 807 009a 3046     		mov	r0, r6
 808 009c FFF7FEFF 		bl	lv_obj_get_ext_attr
 809              	.LVL97:
ARM GAS  C:\Users\strap\AppData\Local\Temp\cc9W5PrE.s 			page 25


 810 00a0 0546     		mov	r5, r0
 811              	.LVL98:
  92:lvgl\src\lv_widgets/lv_line.c ****         lv_line_set_y_invert(line, lv_line_get_y_invert(copy));
 812              		.loc 1 92 0
 813 00a2 3046     		mov	r0, r6
 814              	.LVL99:
 815 00a4 FFF7FEFF 		bl	lv_line_get_auto_size
 816              	.LVL100:
 817 00a8 0146     		mov	r1, r0
 818 00aa 2046     		mov	r0, r4
 819 00ac FFF7FEFF 		bl	lv_line_set_auto_size
 820              	.LVL101:
  93:lvgl\src\lv_widgets/lv_line.c ****         lv_line_set_auto_size(line, lv_line_get_auto_size(copy));
 821              		.loc 1 93 0
 822 00b0 3046     		mov	r0, r6
 823 00b2 FFF7FEFF 		bl	lv_line_get_y_invert
 824              	.LVL102:
 825 00b6 0146     		mov	r1, r0
 826 00b8 2046     		mov	r0, r4
 827 00ba FFF7FEFF 		bl	lv_line_set_y_invert
 828              	.LVL103:
  94:lvgl\src\lv_widgets/lv_line.c ****         lv_line_set_points(line, copy_ext->point_array, copy_ext->point_num);
 829              		.loc 1 94 0
 830 00be 3046     		mov	r0, r6
 831 00c0 FFF7FEFF 		bl	lv_line_get_auto_size
 832              	.LVL104:
 833 00c4 0146     		mov	r1, r0
 834 00c6 2046     		mov	r0, r4
 835 00c8 FFF7FEFF 		bl	lv_line_set_auto_size
 836              	.LVL105:
  95:lvgl\src\lv_widgets/lv_line.c **** 
 837              		.loc 1 95 0
 838 00cc AA88     		ldrh	r2, [r5, #4]
 839 00ce 2968     		ldr	r1, [r5]
 840 00d0 2046     		mov	r0, r4
 841 00d2 FFF7FEFF 		bl	lv_line_set_points
 842              	.LVL106:
  98:lvgl\src\lv_widgets/lv_line.c ****     }
 843              		.loc 1 98 0
 844 00d6 FF22     		movs	r2, #255
 845 00d8 1146     		mov	r1, r2
 846 00da 2046     		mov	r0, r4
 847 00dc FFF7FEFF 		bl	lv_obj_refresh_style
 848              	.LVL107:
 849              	.LBE17:
 103:lvgl\src\lv_widgets/lv_line.c **** }
 850              		.loc 1 103 0
 851 00e0 2046     		mov	r0, r4
 852 00e2 70BD     		pop	{r4, r5, r6, pc}
 853              	.LVL108:
 854              	.L71:
  60:lvgl\src\lv_widgets/lv_line.c **** 
 855              		.loc 1 60 0
 856 00e4 0020     		movs	r0, #0
 104:lvgl\src\lv_widgets/lv_line.c **** 
 857              		.loc 1 104 0
 858 00e6 70BD     		pop	{r4, r5, r6, pc}
ARM GAS  C:\Users\strap\AppData\Local\Temp\cc9W5PrE.s 			page 26


 859              	.LVL109:
 860              	.L74:
 861              		.align	2
 862              	.L73:
 863 00e8 18000000 		.word	.LC2
 864 00ec 00000000 		.word	.LANCHOR0
 865 00f0 00000000 		.word	lv_line_design
 866 00f4 00000000 		.word	lv_line_signal
 867              		.cfi_endproc
 868              	.LFE328:
 869              		.size	lv_line_create, .-lv_line_create
 870              		.section	.rodata.str1.4,"aMS",%progbits,1
 871              		.align	2
 872              	.LC0:
 873 0000 6C765F6C 		.ascii	"lv_line\000"
 873      696E6500 
 874              	.LC1:
 875 0008 4E554C4C 		.ascii	"NULL pointer\000"
 875      20706F69 
 875      6E746572 
 875      00
 876 0015 000000   		.space	3
 877              	.LC2:
 878 0018 4F757420 		.ascii	"Out of memory\000"
 878      6F66206D 
 878      656D6F72 
 878      7900
 879              		.bss
 880              		.align	2
 881              		.set	.LANCHOR0,. + 0
 882              		.type	ancestor_signal, %object
 883              		.size	ancestor_signal, 4
 884              	ancestor_signal:
 885 0000 00000000 		.space	4
 886              		.text
 887              	.Letext0:
 888              		.file 3 "c:\\program files (x86)\\cypress\\psoc creator\\4.4\\psoc creator\\import\\gnu\\arm\\5.4.
 889              		.file 4 "c:\\program files (x86)\\cypress\\psoc creator\\4.4\\psoc creator\\import\\gnu\\arm\\5.4.
 890              		.file 5 "lvgl\\src\\lv_widgets\\../../../lv_conf.h"
 891              		.file 6 "lvgl\\src\\lv_widgets\\../lv_core/../lv_font/../lv_misc/lv_types.h"
 892              		.file 7 "lvgl\\src\\lv_widgets\\../lv_core/../lv_font/../lv_misc/lv_area.h"
 893              		.file 8 "lvgl\\src\\lv_widgets\\../lv_core/../lv_misc/lv_color.h"
 894              		.file 9 "lvgl\\src\\lv_widgets\\../lv_core/../lv_draw/lv_draw_blend.h"
 895              		.file 10 "lvgl\\src\\lv_widgets\\../lv_core/lv_style.h"
 896              		.file 11 "lvgl\\src\\lv_widgets\\../lv_core/../lv_hal/../lv_misc/lv_ll.h"
 897              		.file 12 "lvgl\\src\\lv_widgets\\../lv_core/lv_obj.h"
 898              		.file 13 "lvgl\\src\\lv_widgets\\../lv_core/../lv_hal/lv_hal_indev.h"
 899              		.file 14 "lvgl\\src\\lv_widgets\\../lv_core/../lv_draw/../lv_misc/lv_bidi.h"
 900              		.file 15 "lvgl\\src\\lv_widgets\\../lv_core/../lv_draw/lv_draw_line.h"
 901              		.file 16 "lvgl\\src\\lv_widgets\\lv_line.h"
 902              		.file 17 "lvgl\\src\\lv_widgets\\../lv_themes/lv_theme.h"
 903              		.file 18 "lvgl\\src\\lv_widgets\\../lv_core/../lv_misc/lv_debug.h"