ARM GAS  C:\Users\strap\AppData\Local\Temp\ccO1095g.s 			page 1


   1              		.syntax unified
   2              		.cpu cortex-m3
   3              		.fpu softvfp
   4              		.eabi_attribute 20, 1
   5              		.eabi_attribute 21, 1
   6              		.eabi_attribute 23, 3
   7              		.eabi_attribute 24, 1
   8              		.eabi_attribute 25, 1
   9              		.eabi_attribute 26, 1
  10              		.eabi_attribute 30, 1
  11              		.eabi_attribute 34, 1
  12              		.eabi_attribute 18, 4
  13              		.thumb
  14              		.syntax unified
  15              		.file	"lv_ll.c"
  16              		.text
  17              	.Ltext0:
  18              		.cfi_sections	.debug_frame
  19              		.section	.text.node_set_prev,"ax",%progbits
  20              		.align	2
  21              		.thumb
  22              		.thumb_func
  23              		.type	node_set_prev, %function
  24              	node_set_prev:
  25              	.LFB15:
  26              		.file 1 "lvgl\\src\\lv_misc\\lv_ll.c"
   1:lvgl\src\lv_misc/lv_ll.c **** /**
   2:lvgl\src\lv_misc/lv_ll.c ****  * @file lv_ll.c
   3:lvgl\src\lv_misc/lv_ll.c ****  * Handle linked lists.
   4:lvgl\src\lv_misc/lv_ll.c ****  * The nodes are dynamically allocated by the 'lv_mem' module,
   5:lvgl\src\lv_misc/lv_ll.c ****  */
   6:lvgl\src\lv_misc/lv_ll.c **** 
   7:lvgl\src\lv_misc/lv_ll.c **** /*********************
   8:lvgl\src\lv_misc/lv_ll.c ****  *      INCLUDES
   9:lvgl\src\lv_misc/lv_ll.c ****  *********************/
  10:lvgl\src\lv_misc/lv_ll.c **** #include <stdint.h>
  11:lvgl\src\lv_misc/lv_ll.c **** #include <string.h>
  12:lvgl\src\lv_misc/lv_ll.c **** 
  13:lvgl\src\lv_misc/lv_ll.c **** #include "lv_ll.h"
  14:lvgl\src\lv_misc/lv_ll.c **** #include "lv_mem.h"
  15:lvgl\src\lv_misc/lv_ll.c **** 
  16:lvgl\src\lv_misc/lv_ll.c **** /*********************
  17:lvgl\src\lv_misc/lv_ll.c ****  *      DEFINES
  18:lvgl\src\lv_misc/lv_ll.c ****  *********************/
  19:lvgl\src\lv_misc/lv_ll.c **** #define LL_NODE_META_SIZE (sizeof(lv_ll_node_t *) + sizeof(lv_ll_node_t *))
  20:lvgl\src\lv_misc/lv_ll.c **** #define LL_PREV_P_OFFSET(ll_p) (ll_p->n_size)
  21:lvgl\src\lv_misc/lv_ll.c **** #define LL_NEXT_P_OFFSET(ll_p) (ll_p->n_size + sizeof(lv_ll_node_t *))
  22:lvgl\src\lv_misc/lv_ll.c **** 
  23:lvgl\src\lv_misc/lv_ll.c **** /**********************
  24:lvgl\src\lv_misc/lv_ll.c ****  *      TYPEDEFS
  25:lvgl\src\lv_misc/lv_ll.c ****  **********************/
  26:lvgl\src\lv_misc/lv_ll.c **** 
  27:lvgl\src\lv_misc/lv_ll.c **** /**********************
  28:lvgl\src\lv_misc/lv_ll.c ****  *  STATIC PROTOTYPES
  29:lvgl\src\lv_misc/lv_ll.c ****  **********************/
  30:lvgl\src\lv_misc/lv_ll.c **** static void node_set_prev(lv_ll_t * ll_p, lv_ll_node_t * act, lv_ll_node_t * prev);
  31:lvgl\src\lv_misc/lv_ll.c **** static void node_set_next(lv_ll_t * ll_p, lv_ll_node_t * act, lv_ll_node_t * next);
ARM GAS  C:\Users\strap\AppData\Local\Temp\ccO1095g.s 			page 2


  32:lvgl\src\lv_misc/lv_ll.c **** 
  33:lvgl\src\lv_misc/lv_ll.c **** /**********************
  34:lvgl\src\lv_misc/lv_ll.c ****  *  STATIC VARIABLES
  35:lvgl\src\lv_misc/lv_ll.c ****  **********************/
  36:lvgl\src\lv_misc/lv_ll.c **** 
  37:lvgl\src\lv_misc/lv_ll.c **** /**********************
  38:lvgl\src\lv_misc/lv_ll.c ****  *      MACROS
  39:lvgl\src\lv_misc/lv_ll.c ****  **********************/
  40:lvgl\src\lv_misc/lv_ll.c **** 
  41:lvgl\src\lv_misc/lv_ll.c **** /**********************
  42:lvgl\src\lv_misc/lv_ll.c ****  *   GLOBAL FUNCTIONS
  43:lvgl\src\lv_misc/lv_ll.c ****  **********************/
  44:lvgl\src\lv_misc/lv_ll.c **** 
  45:lvgl\src\lv_misc/lv_ll.c **** /**
  46:lvgl\src\lv_misc/lv_ll.c ****  * Initialize linked list
  47:lvgl\src\lv_misc/lv_ll.c ****  * @param ll_dsc pointer to ll_dsc variable
  48:lvgl\src\lv_misc/lv_ll.c ****  * @param node_size the size of 1 node in bytes
  49:lvgl\src\lv_misc/lv_ll.c ****  */
  50:lvgl\src\lv_misc/lv_ll.c **** void _lv_ll_init(lv_ll_t * ll_p, uint32_t node_size)
  51:lvgl\src\lv_misc/lv_ll.c **** {
  52:lvgl\src\lv_misc/lv_ll.c ****     ll_p->head = NULL;
  53:lvgl\src\lv_misc/lv_ll.c ****     ll_p->tail = NULL;
  54:lvgl\src\lv_misc/lv_ll.c **** #ifdef LV_ARCH_64
  55:lvgl\src\lv_misc/lv_ll.c ****     /*Round the size up to 8*/
  56:lvgl\src\lv_misc/lv_ll.c ****     node_size = (node_size + 7) & (~0x7);
  57:lvgl\src\lv_misc/lv_ll.c **** #else
  58:lvgl\src\lv_misc/lv_ll.c ****     /*Round the size up to 4*/
  59:lvgl\src\lv_misc/lv_ll.c ****     node_size = (node_size + 3) & (~0x3);
  60:lvgl\src\lv_misc/lv_ll.c **** #endif
  61:lvgl\src\lv_misc/lv_ll.c **** 
  62:lvgl\src\lv_misc/lv_ll.c ****     ll_p->n_size = node_size;
  63:lvgl\src\lv_misc/lv_ll.c **** }
  64:lvgl\src\lv_misc/lv_ll.c **** 
  65:lvgl\src\lv_misc/lv_ll.c **** /**
  66:lvgl\src\lv_misc/lv_ll.c ****  * Add a new head to a linked list
  67:lvgl\src\lv_misc/lv_ll.c ****  * @param ll_p pointer to linked list
  68:lvgl\src\lv_misc/lv_ll.c ****  * @return pointer to the new head
  69:lvgl\src\lv_misc/lv_ll.c ****  */
  70:lvgl\src\lv_misc/lv_ll.c **** void * _lv_ll_ins_head(lv_ll_t * ll_p)
  71:lvgl\src\lv_misc/lv_ll.c **** {
  72:lvgl\src\lv_misc/lv_ll.c ****     lv_ll_node_t * n_new;
  73:lvgl\src\lv_misc/lv_ll.c **** 
  74:lvgl\src\lv_misc/lv_ll.c ****     n_new = lv_mem_alloc(ll_p->n_size + LL_NODE_META_SIZE);
  75:lvgl\src\lv_misc/lv_ll.c **** 
  76:lvgl\src\lv_misc/lv_ll.c ****     if(n_new != NULL) {
  77:lvgl\src\lv_misc/lv_ll.c ****         node_set_prev(ll_p, n_new, NULL);       /*No prev. before the new head*/
  78:lvgl\src\lv_misc/lv_ll.c ****         node_set_next(ll_p, n_new, ll_p->head); /*After new comes the old head*/
  79:lvgl\src\lv_misc/lv_ll.c **** 
  80:lvgl\src\lv_misc/lv_ll.c ****         if(ll_p->head != NULL) { /*If there is old head then before it goes the new*/
  81:lvgl\src\lv_misc/lv_ll.c ****             node_set_prev(ll_p, ll_p->head, n_new);
  82:lvgl\src\lv_misc/lv_ll.c ****         }
  83:lvgl\src\lv_misc/lv_ll.c **** 
  84:lvgl\src\lv_misc/lv_ll.c ****         ll_p->head = n_new;      /*Set the new head in the dsc.*/
  85:lvgl\src\lv_misc/lv_ll.c ****         if(ll_p->tail == NULL) { /*If there is no tail (1. node) set the tail too*/
  86:lvgl\src\lv_misc/lv_ll.c ****             ll_p->tail = n_new;
  87:lvgl\src\lv_misc/lv_ll.c ****         }
  88:lvgl\src\lv_misc/lv_ll.c ****     }
ARM GAS  C:\Users\strap\AppData\Local\Temp\ccO1095g.s 			page 3


  89:lvgl\src\lv_misc/lv_ll.c **** 
  90:lvgl\src\lv_misc/lv_ll.c ****     return n_new;
  91:lvgl\src\lv_misc/lv_ll.c **** }
  92:lvgl\src\lv_misc/lv_ll.c **** 
  93:lvgl\src\lv_misc/lv_ll.c **** /**
  94:lvgl\src\lv_misc/lv_ll.c ****  * Insert a new node in front of the n_act node
  95:lvgl\src\lv_misc/lv_ll.c ****  * @param ll_p pointer to linked list
  96:lvgl\src\lv_misc/lv_ll.c ****  * @param n_act pointer a node
  97:lvgl\src\lv_misc/lv_ll.c ****  * @return pointer to the new head
  98:lvgl\src\lv_misc/lv_ll.c ****  */
  99:lvgl\src\lv_misc/lv_ll.c **** void * _lv_ll_ins_prev(lv_ll_t * ll_p, void * n_act)
 100:lvgl\src\lv_misc/lv_ll.c **** {
 101:lvgl\src\lv_misc/lv_ll.c ****     lv_ll_node_t * n_new;
 102:lvgl\src\lv_misc/lv_ll.c **** 
 103:lvgl\src\lv_misc/lv_ll.c ****     if(NULL == ll_p || NULL == n_act) return NULL;
 104:lvgl\src\lv_misc/lv_ll.c **** 
 105:lvgl\src\lv_misc/lv_ll.c ****     if(_lv_ll_get_head(ll_p) == n_act) {
 106:lvgl\src\lv_misc/lv_ll.c ****         n_new = _lv_ll_ins_head(ll_p);
 107:lvgl\src\lv_misc/lv_ll.c ****         if(n_new == NULL) return NULL;
 108:lvgl\src\lv_misc/lv_ll.c ****     }
 109:lvgl\src\lv_misc/lv_ll.c ****     else {
 110:lvgl\src\lv_misc/lv_ll.c ****         n_new = lv_mem_alloc(ll_p->n_size + LL_NODE_META_SIZE);
 111:lvgl\src\lv_misc/lv_ll.c ****         if(n_new == NULL) return NULL;
 112:lvgl\src\lv_misc/lv_ll.c **** 
 113:lvgl\src\lv_misc/lv_ll.c ****         lv_ll_node_t * n_prev;
 114:lvgl\src\lv_misc/lv_ll.c ****         n_prev = _lv_ll_get_prev(ll_p, n_act);
 115:lvgl\src\lv_misc/lv_ll.c ****         node_set_next(ll_p, n_prev, n_new);
 116:lvgl\src\lv_misc/lv_ll.c ****         node_set_prev(ll_p, n_new, n_prev);
 117:lvgl\src\lv_misc/lv_ll.c ****         node_set_prev(ll_p, n_act, n_new);
 118:lvgl\src\lv_misc/lv_ll.c ****         node_set_next(ll_p, n_new, n_act);
 119:lvgl\src\lv_misc/lv_ll.c ****     }
 120:lvgl\src\lv_misc/lv_ll.c **** 
 121:lvgl\src\lv_misc/lv_ll.c ****     return n_new;
 122:lvgl\src\lv_misc/lv_ll.c **** }
 123:lvgl\src\lv_misc/lv_ll.c **** 
 124:lvgl\src\lv_misc/lv_ll.c **** /**
 125:lvgl\src\lv_misc/lv_ll.c ****  * Add a new tail to a linked list
 126:lvgl\src\lv_misc/lv_ll.c ****  * @param ll_p pointer to linked list
 127:lvgl\src\lv_misc/lv_ll.c ****  * @return pointer to the new tail
 128:lvgl\src\lv_misc/lv_ll.c ****  */
 129:lvgl\src\lv_misc/lv_ll.c **** void * _lv_ll_ins_tail(lv_ll_t * ll_p)
 130:lvgl\src\lv_misc/lv_ll.c **** {
 131:lvgl\src\lv_misc/lv_ll.c ****     lv_ll_node_t * n_new;
 132:lvgl\src\lv_misc/lv_ll.c **** 
 133:lvgl\src\lv_misc/lv_ll.c ****     n_new = lv_mem_alloc(ll_p->n_size + LL_NODE_META_SIZE);
 134:lvgl\src\lv_misc/lv_ll.c **** 
 135:lvgl\src\lv_misc/lv_ll.c ****     if(n_new != NULL) {
 136:lvgl\src\lv_misc/lv_ll.c ****         node_set_next(ll_p, n_new, NULL);       /*No next after the new tail*/
 137:lvgl\src\lv_misc/lv_ll.c ****         node_set_prev(ll_p, n_new, ll_p->tail); /*The prev. before new is the old tail*/
 138:lvgl\src\lv_misc/lv_ll.c ****         if(ll_p->tail != NULL) {                /*If there is old tail then the new comes after it*
 139:lvgl\src\lv_misc/lv_ll.c ****             node_set_next(ll_p, ll_p->tail, n_new);
 140:lvgl\src\lv_misc/lv_ll.c ****         }
 141:lvgl\src\lv_misc/lv_ll.c **** 
 142:lvgl\src\lv_misc/lv_ll.c ****         ll_p->tail = n_new;      /*Set the new tail in the dsc.*/
 143:lvgl\src\lv_misc/lv_ll.c ****         if(ll_p->head == NULL) { /*If there is no head (1. node) set the head too*/
 144:lvgl\src\lv_misc/lv_ll.c ****             ll_p->head = n_new;
 145:lvgl\src\lv_misc/lv_ll.c ****         }
ARM GAS  C:\Users\strap\AppData\Local\Temp\ccO1095g.s 			page 4


 146:lvgl\src\lv_misc/lv_ll.c ****     }
 147:lvgl\src\lv_misc/lv_ll.c **** 
 148:lvgl\src\lv_misc/lv_ll.c ****     return n_new;
 149:lvgl\src\lv_misc/lv_ll.c **** }
 150:lvgl\src\lv_misc/lv_ll.c **** 
 151:lvgl\src\lv_misc/lv_ll.c **** /**
 152:lvgl\src\lv_misc/lv_ll.c ****  * Remove the node 'node_p' from 'll_p' linked list.
 153:lvgl\src\lv_misc/lv_ll.c ****  * It does not free the the memory of node.
 154:lvgl\src\lv_misc/lv_ll.c ****  * @param ll_p pointer to the linked list of 'node_p'
 155:lvgl\src\lv_misc/lv_ll.c ****  * @param node_p pointer to node in 'll_p' linked list
 156:lvgl\src\lv_misc/lv_ll.c ****  */
 157:lvgl\src\lv_misc/lv_ll.c **** void _lv_ll_remove(lv_ll_t * ll_p, void * node_p)
 158:lvgl\src\lv_misc/lv_ll.c **** {
 159:lvgl\src\lv_misc/lv_ll.c ****     if(_lv_ll_get_head(ll_p) == node_p) {
 160:lvgl\src\lv_misc/lv_ll.c ****         /*The new head will be the node after 'n_act'*/
 161:lvgl\src\lv_misc/lv_ll.c ****         ll_p->head = _lv_ll_get_next(ll_p, node_p);
 162:lvgl\src\lv_misc/lv_ll.c ****         if(ll_p->head == NULL) {
 163:lvgl\src\lv_misc/lv_ll.c ****             ll_p->tail = NULL;
 164:lvgl\src\lv_misc/lv_ll.c ****         }
 165:lvgl\src\lv_misc/lv_ll.c ****         else {
 166:lvgl\src\lv_misc/lv_ll.c ****             node_set_prev(ll_p, ll_p->head, NULL);
 167:lvgl\src\lv_misc/lv_ll.c ****         }
 168:lvgl\src\lv_misc/lv_ll.c ****     }
 169:lvgl\src\lv_misc/lv_ll.c ****     else if(_lv_ll_get_tail(ll_p) == node_p) {
 170:lvgl\src\lv_misc/lv_ll.c ****         /*The new tail will be the  node before 'n_act'*/
 171:lvgl\src\lv_misc/lv_ll.c ****         ll_p->tail = _lv_ll_get_prev(ll_p, node_p);
 172:lvgl\src\lv_misc/lv_ll.c ****         if(ll_p->tail == NULL) {
 173:lvgl\src\lv_misc/lv_ll.c ****             ll_p->head = NULL;
 174:lvgl\src\lv_misc/lv_ll.c ****         }
 175:lvgl\src\lv_misc/lv_ll.c ****         else {
 176:lvgl\src\lv_misc/lv_ll.c ****             node_set_next(ll_p, ll_p->tail, NULL);
 177:lvgl\src\lv_misc/lv_ll.c ****         }
 178:lvgl\src\lv_misc/lv_ll.c ****     }
 179:lvgl\src\lv_misc/lv_ll.c ****     else {
 180:lvgl\src\lv_misc/lv_ll.c ****         lv_ll_node_t * n_prev = _lv_ll_get_prev(ll_p, node_p);
 181:lvgl\src\lv_misc/lv_ll.c ****         lv_ll_node_t * n_next = _lv_ll_get_next(ll_p, node_p);
 182:lvgl\src\lv_misc/lv_ll.c **** 
 183:lvgl\src\lv_misc/lv_ll.c ****         node_set_next(ll_p, n_prev, n_next);
 184:lvgl\src\lv_misc/lv_ll.c ****         node_set_prev(ll_p, n_next, n_prev);
 185:lvgl\src\lv_misc/lv_ll.c ****     }
 186:lvgl\src\lv_misc/lv_ll.c **** }
 187:lvgl\src\lv_misc/lv_ll.c **** 
 188:lvgl\src\lv_misc/lv_ll.c **** /**
 189:lvgl\src\lv_misc/lv_ll.c ****  * Remove and free all elements from a linked list. The list remain valid but become empty.
 190:lvgl\src\lv_misc/lv_ll.c ****  * @param ll_p pointer to linked list
 191:lvgl\src\lv_misc/lv_ll.c ****  */
 192:lvgl\src\lv_misc/lv_ll.c **** void _lv_ll_clear(lv_ll_t * ll_p)
 193:lvgl\src\lv_misc/lv_ll.c **** {
 194:lvgl\src\lv_misc/lv_ll.c ****     void * i;
 195:lvgl\src\lv_misc/lv_ll.c ****     void * i_next;
 196:lvgl\src\lv_misc/lv_ll.c **** 
 197:lvgl\src\lv_misc/lv_ll.c ****     i      = _lv_ll_get_head(ll_p);
 198:lvgl\src\lv_misc/lv_ll.c ****     i_next = NULL;
 199:lvgl\src\lv_misc/lv_ll.c **** 
 200:lvgl\src\lv_misc/lv_ll.c ****     while(i != NULL) {
 201:lvgl\src\lv_misc/lv_ll.c ****         i_next = _lv_ll_get_next(ll_p, i);
 202:lvgl\src\lv_misc/lv_ll.c **** 
ARM GAS  C:\Users\strap\AppData\Local\Temp\ccO1095g.s 			page 5


 203:lvgl\src\lv_misc/lv_ll.c ****         _lv_ll_remove(ll_p, i);
 204:lvgl\src\lv_misc/lv_ll.c ****         lv_mem_free(i);
 205:lvgl\src\lv_misc/lv_ll.c **** 
 206:lvgl\src\lv_misc/lv_ll.c ****         i = i_next;
 207:lvgl\src\lv_misc/lv_ll.c ****     }
 208:lvgl\src\lv_misc/lv_ll.c **** }
 209:lvgl\src\lv_misc/lv_ll.c **** 
 210:lvgl\src\lv_misc/lv_ll.c **** /**
 211:lvgl\src\lv_misc/lv_ll.c ****  * Move a node to a new linked list
 212:lvgl\src\lv_misc/lv_ll.c ****  * @param ll_ori_p pointer to the original (old) linked list
 213:lvgl\src\lv_misc/lv_ll.c ****  * @param ll_new_p pointer to the new linked list
 214:lvgl\src\lv_misc/lv_ll.c ****  * @param node pointer to a node
 215:lvgl\src\lv_misc/lv_ll.c ****  * @param head true: be the head in the new list
 216:lvgl\src\lv_misc/lv_ll.c ****  *             false be the head in the new list
 217:lvgl\src\lv_misc/lv_ll.c ****  */
 218:lvgl\src\lv_misc/lv_ll.c **** void _lv_ll_chg_list(lv_ll_t * ll_ori_p, lv_ll_t * ll_new_p, void * node, bool head)
 219:lvgl\src\lv_misc/lv_ll.c **** {
 220:lvgl\src\lv_misc/lv_ll.c ****     _lv_ll_remove(ll_ori_p, node);
 221:lvgl\src\lv_misc/lv_ll.c **** 
 222:lvgl\src\lv_misc/lv_ll.c ****     if(head) {
 223:lvgl\src\lv_misc/lv_ll.c ****         /*Set node as head*/
 224:lvgl\src\lv_misc/lv_ll.c ****         node_set_prev(ll_new_p, node, NULL);
 225:lvgl\src\lv_misc/lv_ll.c ****         node_set_next(ll_new_p, node, ll_new_p->head);
 226:lvgl\src\lv_misc/lv_ll.c **** 
 227:lvgl\src\lv_misc/lv_ll.c ****         if(ll_new_p->head != NULL) { /*If there is old head then before it goes the new*/
 228:lvgl\src\lv_misc/lv_ll.c ****             node_set_prev(ll_new_p, ll_new_p->head, node);
 229:lvgl\src\lv_misc/lv_ll.c ****         }
 230:lvgl\src\lv_misc/lv_ll.c **** 
 231:lvgl\src\lv_misc/lv_ll.c ****         ll_new_p->head = node;       /*Set the new head in the dsc.*/
 232:lvgl\src\lv_misc/lv_ll.c ****         if(ll_new_p->tail == NULL) { /*If there is no tail (first node) set the tail too*/
 233:lvgl\src\lv_misc/lv_ll.c ****             ll_new_p->tail = node;
 234:lvgl\src\lv_misc/lv_ll.c ****         }
 235:lvgl\src\lv_misc/lv_ll.c ****     }
 236:lvgl\src\lv_misc/lv_ll.c ****     else {
 237:lvgl\src\lv_misc/lv_ll.c ****         /*Set node as tail*/
 238:lvgl\src\lv_misc/lv_ll.c ****         node_set_prev(ll_new_p, node, ll_new_p->tail);
 239:lvgl\src\lv_misc/lv_ll.c ****         node_set_next(ll_new_p, node, NULL);
 240:lvgl\src\lv_misc/lv_ll.c **** 
 241:lvgl\src\lv_misc/lv_ll.c ****         if(ll_new_p->tail != NULL) { /*If there is old tail then after it goes the new*/
 242:lvgl\src\lv_misc/lv_ll.c ****             node_set_next(ll_new_p, ll_new_p->tail, node);
 243:lvgl\src\lv_misc/lv_ll.c ****         }
 244:lvgl\src\lv_misc/lv_ll.c **** 
 245:lvgl\src\lv_misc/lv_ll.c ****         ll_new_p->tail = node;       /*Set the new tail in the dsc.*/
 246:lvgl\src\lv_misc/lv_ll.c ****         if(ll_new_p->head == NULL) { /*If there is no head (first node) set the head too*/
 247:lvgl\src\lv_misc/lv_ll.c ****             ll_new_p->head = node;
 248:lvgl\src\lv_misc/lv_ll.c ****         }
 249:lvgl\src\lv_misc/lv_ll.c ****     }
 250:lvgl\src\lv_misc/lv_ll.c **** }
 251:lvgl\src\lv_misc/lv_ll.c **** 
 252:lvgl\src\lv_misc/lv_ll.c **** /**
 253:lvgl\src\lv_misc/lv_ll.c ****  * Return with head node of the linked list
 254:lvgl\src\lv_misc/lv_ll.c ****  * @param ll_p pointer to linked list
 255:lvgl\src\lv_misc/lv_ll.c ****  * @return pointer to the head of 'll_p'
 256:lvgl\src\lv_misc/lv_ll.c ****  */
 257:lvgl\src\lv_misc/lv_ll.c **** void * _lv_ll_get_head(const lv_ll_t * ll_p)
 258:lvgl\src\lv_misc/lv_ll.c **** {
 259:lvgl\src\lv_misc/lv_ll.c ****     void * head = NULL;
ARM GAS  C:\Users\strap\AppData\Local\Temp\ccO1095g.s 			page 6


 260:lvgl\src\lv_misc/lv_ll.c **** 
 261:lvgl\src\lv_misc/lv_ll.c ****     if(ll_p != NULL) {
 262:lvgl\src\lv_misc/lv_ll.c ****         head = ll_p->head;
 263:lvgl\src\lv_misc/lv_ll.c ****     }
 264:lvgl\src\lv_misc/lv_ll.c **** 
 265:lvgl\src\lv_misc/lv_ll.c ****     return head;
 266:lvgl\src\lv_misc/lv_ll.c **** }
 267:lvgl\src\lv_misc/lv_ll.c **** 
 268:lvgl\src\lv_misc/lv_ll.c **** /**
 269:lvgl\src\lv_misc/lv_ll.c ****  * Return with tail node of the linked list
 270:lvgl\src\lv_misc/lv_ll.c ****  * @param ll_p pointer to linked list
 271:lvgl\src\lv_misc/lv_ll.c ****  * @return pointer to the head of 'll_p'
 272:lvgl\src\lv_misc/lv_ll.c ****  */
 273:lvgl\src\lv_misc/lv_ll.c **** void * _lv_ll_get_tail(const lv_ll_t * ll_p)
 274:lvgl\src\lv_misc/lv_ll.c **** {
 275:lvgl\src\lv_misc/lv_ll.c ****     void * tail = NULL;
 276:lvgl\src\lv_misc/lv_ll.c **** 
 277:lvgl\src\lv_misc/lv_ll.c ****     if(ll_p != NULL) {
 278:lvgl\src\lv_misc/lv_ll.c ****         tail = ll_p->tail;
 279:lvgl\src\lv_misc/lv_ll.c ****     }
 280:lvgl\src\lv_misc/lv_ll.c **** 
 281:lvgl\src\lv_misc/lv_ll.c ****     return tail;
 282:lvgl\src\lv_misc/lv_ll.c **** }
 283:lvgl\src\lv_misc/lv_ll.c **** 
 284:lvgl\src\lv_misc/lv_ll.c **** /**
 285:lvgl\src\lv_misc/lv_ll.c ****  * Return with the pointer of the next node after 'n_act'
 286:lvgl\src\lv_misc/lv_ll.c ****  * @param ll_p pointer to linked list
 287:lvgl\src\lv_misc/lv_ll.c ****  * @param n_act pointer a node
 288:lvgl\src\lv_misc/lv_ll.c ****  * @return pointer to the next node
 289:lvgl\src\lv_misc/lv_ll.c ****  */
 290:lvgl\src\lv_misc/lv_ll.c **** void * _lv_ll_get_next(const lv_ll_t * ll_p, const void * n_act)
 291:lvgl\src\lv_misc/lv_ll.c **** {
 292:lvgl\src\lv_misc/lv_ll.c ****     if(ll_p == NULL) return NULL;
 293:lvgl\src\lv_misc/lv_ll.c **** 
 294:lvgl\src\lv_misc/lv_ll.c ****     /* Pointer to the next node is stored in the end of this node.
 295:lvgl\src\lv_misc/lv_ll.c ****      * Go there and return the address found there */
 296:lvgl\src\lv_misc/lv_ll.c ****     const lv_ll_node_t * n_act_d = n_act;
 297:lvgl\src\lv_misc/lv_ll.c ****     n_act_d += LL_NEXT_P_OFFSET(ll_p);
 298:lvgl\src\lv_misc/lv_ll.c ****     return *((lv_ll_node_t **)n_act_d);
 299:lvgl\src\lv_misc/lv_ll.c **** }
 300:lvgl\src\lv_misc/lv_ll.c **** 
 301:lvgl\src\lv_misc/lv_ll.c **** /**
 302:lvgl\src\lv_misc/lv_ll.c ****  * Return with the pointer of the previous node after 'n_act'
 303:lvgl\src\lv_misc/lv_ll.c ****  * @param ll_p pointer to linked list
 304:lvgl\src\lv_misc/lv_ll.c ****  * @param n_act pointer a node
 305:lvgl\src\lv_misc/lv_ll.c ****  * @return pointer to the previous node
 306:lvgl\src\lv_misc/lv_ll.c ****  */
 307:lvgl\src\lv_misc/lv_ll.c **** void * _lv_ll_get_prev(const lv_ll_t * ll_p, const void * n_act)
 308:lvgl\src\lv_misc/lv_ll.c **** {
 309:lvgl\src\lv_misc/lv_ll.c ****     if(ll_p == NULL) return NULL;
 310:lvgl\src\lv_misc/lv_ll.c **** 
 311:lvgl\src\lv_misc/lv_ll.c ****     /* Pointer to the prev. node is stored in the end of this node.
 312:lvgl\src\lv_misc/lv_ll.c ****      * Go there and return the address found there */
 313:lvgl\src\lv_misc/lv_ll.c ****     const lv_ll_node_t * n_act_d = n_act;
 314:lvgl\src\lv_misc/lv_ll.c ****     n_act_d += LL_PREV_P_OFFSET(ll_p);
 315:lvgl\src\lv_misc/lv_ll.c ****     return *((lv_ll_node_t **)n_act_d);
 316:lvgl\src\lv_misc/lv_ll.c **** }
ARM GAS  C:\Users\strap\AppData\Local\Temp\ccO1095g.s 			page 7


 317:lvgl\src\lv_misc/lv_ll.c **** 
 318:lvgl\src\lv_misc/lv_ll.c **** /**
 319:lvgl\src\lv_misc/lv_ll.c ****  * Return the length of the linked list.
 320:lvgl\src\lv_misc/lv_ll.c ****  * @param ll_p pointer to linked list
 321:lvgl\src\lv_misc/lv_ll.c ****  * @return length of the linked list
 322:lvgl\src\lv_misc/lv_ll.c ****  */
 323:lvgl\src\lv_misc/lv_ll.c **** uint32_t _lv_ll_get_len(const lv_ll_t * ll_p)
 324:lvgl\src\lv_misc/lv_ll.c **** {
 325:lvgl\src\lv_misc/lv_ll.c ****     uint32_t len = 0;
 326:lvgl\src\lv_misc/lv_ll.c ****     void * node;
 327:lvgl\src\lv_misc/lv_ll.c **** 
 328:lvgl\src\lv_misc/lv_ll.c ****     for(node = _lv_ll_get_head(ll_p); node != NULL; node = _lv_ll_get_next(ll_p, node)) {
 329:lvgl\src\lv_misc/lv_ll.c ****         len++;
 330:lvgl\src\lv_misc/lv_ll.c ****     }
 331:lvgl\src\lv_misc/lv_ll.c **** 
 332:lvgl\src\lv_misc/lv_ll.c ****     return len;
 333:lvgl\src\lv_misc/lv_ll.c **** }
 334:lvgl\src\lv_misc/lv_ll.c **** 
 335:lvgl\src\lv_misc/lv_ll.c **** /**
 336:lvgl\src\lv_misc/lv_ll.c ****  * Move a node before an other node in the same linked list
 337:lvgl\src\lv_misc/lv_ll.c ****  * @param ll_p pointer to a linked list
 338:lvgl\src\lv_misc/lv_ll.c ****  * @param n_act pointer to node to move
 339:lvgl\src\lv_misc/lv_ll.c ****  * @param n_after pointer to a node which should be after `n_act`
 340:lvgl\src\lv_misc/lv_ll.c ****  */
 341:lvgl\src\lv_misc/lv_ll.c **** void _lv_ll_move_before(lv_ll_t * ll_p, void * n_act, void * n_after)
 342:lvgl\src\lv_misc/lv_ll.c **** {
 343:lvgl\src\lv_misc/lv_ll.c ****     if(n_act == n_after) return; /*Can't move before itself*/
 344:lvgl\src\lv_misc/lv_ll.c **** 
 345:lvgl\src\lv_misc/lv_ll.c ****     void * n_before;
 346:lvgl\src\lv_misc/lv_ll.c ****     if(n_after != NULL)
 347:lvgl\src\lv_misc/lv_ll.c ****         n_before = _lv_ll_get_prev(ll_p, n_after);
 348:lvgl\src\lv_misc/lv_ll.c ****     else
 349:lvgl\src\lv_misc/lv_ll.c ****         n_before = _lv_ll_get_tail(ll_p); /*if `n_after` is NULL `n_act` should be the new tail*/
 350:lvgl\src\lv_misc/lv_ll.c **** 
 351:lvgl\src\lv_misc/lv_ll.c ****     if(n_act == n_before) return; /*Already before `n_after`*/
 352:lvgl\src\lv_misc/lv_ll.c **** 
 353:lvgl\src\lv_misc/lv_ll.c ****     /*It's much easier to remove from the list and add again*/
 354:lvgl\src\lv_misc/lv_ll.c ****     _lv_ll_remove(ll_p, n_act);
 355:lvgl\src\lv_misc/lv_ll.c **** 
 356:lvgl\src\lv_misc/lv_ll.c ****     /*Add again by setting the prev. and next nodes*/
 357:lvgl\src\lv_misc/lv_ll.c ****     node_set_next(ll_p, n_before, n_act);
 358:lvgl\src\lv_misc/lv_ll.c ****     node_set_prev(ll_p, n_act, n_before);
 359:lvgl\src\lv_misc/lv_ll.c ****     node_set_prev(ll_p, n_after, n_act);
 360:lvgl\src\lv_misc/lv_ll.c ****     node_set_next(ll_p, n_act, n_after);
 361:lvgl\src\lv_misc/lv_ll.c **** 
 362:lvgl\src\lv_misc/lv_ll.c ****     /*If `n_act` was moved before NULL then it become the new tail*/
 363:lvgl\src\lv_misc/lv_ll.c ****     if(n_after == NULL) ll_p->tail = n_act;
 364:lvgl\src\lv_misc/lv_ll.c **** 
 365:lvgl\src\lv_misc/lv_ll.c ****     /*If `n_act` was moved before `NULL` then it's the new head*/
 366:lvgl\src\lv_misc/lv_ll.c ****     if(n_before == NULL) ll_p->head = n_act;
 367:lvgl\src\lv_misc/lv_ll.c **** }
 368:lvgl\src\lv_misc/lv_ll.c **** 
 369:lvgl\src\lv_misc/lv_ll.c **** /**
 370:lvgl\src\lv_misc/lv_ll.c ****  * Check if a linked list is empty
 371:lvgl\src\lv_misc/lv_ll.c ****  * @param ll_p pointer to a linked list
 372:lvgl\src\lv_misc/lv_ll.c ****  * @return true: the linked list is empty; false: not empty
 373:lvgl\src\lv_misc/lv_ll.c ****  */
ARM GAS  C:\Users\strap\AppData\Local\Temp\ccO1095g.s 			page 8


 374:lvgl\src\lv_misc/lv_ll.c **** bool _lv_ll_is_empty(lv_ll_t * ll_p)
 375:lvgl\src\lv_misc/lv_ll.c **** {
 376:lvgl\src\lv_misc/lv_ll.c ****     if(ll_p == NULL) return true;
 377:lvgl\src\lv_misc/lv_ll.c **** 
 378:lvgl\src\lv_misc/lv_ll.c ****     if(ll_p->head == NULL && ll_p->tail == NULL) return true;
 379:lvgl\src\lv_misc/lv_ll.c **** 
 380:lvgl\src\lv_misc/lv_ll.c ****     return false;
 381:lvgl\src\lv_misc/lv_ll.c **** }
 382:lvgl\src\lv_misc/lv_ll.c **** 
 383:lvgl\src\lv_misc/lv_ll.c **** /**********************
 384:lvgl\src\lv_misc/lv_ll.c ****  *   STATIC FUNCTIONS
 385:lvgl\src\lv_misc/lv_ll.c ****  **********************/
 386:lvgl\src\lv_misc/lv_ll.c **** 
 387:lvgl\src\lv_misc/lv_ll.c **** /**
 388:lvgl\src\lv_misc/lv_ll.c ****  * Set the previous node pointer of a node
 389:lvgl\src\lv_misc/lv_ll.c ****  * @param ll_p pointer to linked list
 390:lvgl\src\lv_misc/lv_ll.c ****  * @param act pointer to a node which prev. node pointer should be set
 391:lvgl\src\lv_misc/lv_ll.c ****  * @param prev pointer to a node which should be the previous node before 'act'
 392:lvgl\src\lv_misc/lv_ll.c ****  */
 393:lvgl\src\lv_misc/lv_ll.c **** static void node_set_prev(lv_ll_t * ll_p, lv_ll_node_t * act, lv_ll_node_t * prev)
 394:lvgl\src\lv_misc/lv_ll.c **** {
  27              		.loc 1 394 0
  28              		.cfi_startproc
  29              		@ args = 0, pretend = 0, frame = 0
  30              		@ frame_needed = 0, uses_anonymous_args = 0
  31              		@ link register save eliminated.
  32              	.LVL0:
 395:lvgl\src\lv_misc/lv_ll.c ****     if(act == NULL) return; /*Can't set the prev node of `NULL`*/
  33              		.loc 1 395 0
  34 0000 0B46     		mov	r3, r1
  35 0002 09B1     		cbz	r1, .L1
  36              	.LVL1:
 396:lvgl\src\lv_misc/lv_ll.c **** 
 397:lvgl\src\lv_misc/lv_ll.c ****     uint8_t * act8 = (uint8_t *) act;
 398:lvgl\src\lv_misc/lv_ll.c **** 
 399:lvgl\src\lv_misc/lv_ll.c ****     act8 += LL_PREV_P_OFFSET(ll_p);
  37              		.loc 1 399 0
  38 0004 0168     		ldr	r1, [r0]
  39              	.LVL2:
 400:lvgl\src\lv_misc/lv_ll.c **** 
 401:lvgl\src\lv_misc/lv_ll.c ****     lv_ll_node_t ** act_node_p = (lv_ll_node_t **) act8;
 402:lvgl\src\lv_misc/lv_ll.c ****     lv_ll_node_t ** prev_node_p = (lv_ll_node_t **) &prev;
 403:lvgl\src\lv_misc/lv_ll.c **** 
 404:lvgl\src\lv_misc/lv_ll.c ****     *act_node_p = *prev_node_p;
  40              		.loc 1 404 0
  41 0006 5A50     		str	r2, [r3, r1]
  42              	.LVL3:
  43              	.L1:
  44 0008 7047     		bx	lr
  45              		.cfi_endproc
  46              	.LFE15:
  47              		.size	node_set_prev, .-node_set_prev
  48 000a 00BF     		.section	.text.node_set_next,"ax",%progbits
  49              		.align	2
  50              		.thumb
  51              		.thumb_func
  52              		.type	node_set_next, %function
ARM GAS  C:\Users\strap\AppData\Local\Temp\ccO1095g.s 			page 9


  53              	node_set_next:
  54              	.LFB16:
 405:lvgl\src\lv_misc/lv_ll.c **** }
 406:lvgl\src\lv_misc/lv_ll.c **** 
 407:lvgl\src\lv_misc/lv_ll.c **** /**
 408:lvgl\src\lv_misc/lv_ll.c ****  * Set the 'next node pointer' of a node
 409:lvgl\src\lv_misc/lv_ll.c ****  * @param ll_p pointer to linked list
 410:lvgl\src\lv_misc/lv_ll.c ****  * @param act pointer to a node which next node pointer should be set
 411:lvgl\src\lv_misc/lv_ll.c ****  * @param next pointer to a node which should be the next node before 'act'
 412:lvgl\src\lv_misc/lv_ll.c ****  */
 413:lvgl\src\lv_misc/lv_ll.c **** static void node_set_next(lv_ll_t * ll_p, lv_ll_node_t * act, lv_ll_node_t * next)
 414:lvgl\src\lv_misc/lv_ll.c **** {
  55              		.loc 1 414 0
  56              		.cfi_startproc
  57              		@ args = 0, pretend = 0, frame = 0
  58              		@ frame_needed = 0, uses_anonymous_args = 0
  59              		@ link register save eliminated.
  60              	.LVL4:
 415:lvgl\src\lv_misc/lv_ll.c ****     if(act == NULL) return; /*Can't set the next node of `NULL`*/
  61              		.loc 1 415 0
  62 0000 21B1     		cbz	r1, .L7
 414:lvgl\src\lv_misc/lv_ll.c ****     if(act == NULL) return; /*Can't set the next node of `NULL`*/
  63              		.loc 1 414 0
  64 0002 10B4     		push	{r4}
  65              		.cfi_def_cfa_offset 4
  66              		.cfi_offset 4, -4
  67              	.LVL5:
 416:lvgl\src\lv_misc/lv_ll.c ****     uint8_t * act8 = (uint8_t *) act;
 417:lvgl\src\lv_misc/lv_ll.c **** 
 418:lvgl\src\lv_misc/lv_ll.c ****     act8 += LL_NEXT_P_OFFSET(ll_p);
  68              		.loc 1 418 0
  69 0004 0368     		ldr	r3, [r0]
  70 0006 0433     		adds	r3, r3, #4
  71              	.LVL6:
 419:lvgl\src\lv_misc/lv_ll.c ****     lv_ll_node_t ** act_node_p = (lv_ll_node_t **) act8;
 420:lvgl\src\lv_misc/lv_ll.c ****     lv_ll_node_t ** next_node_p = (lv_ll_node_t **) &next;
 421:lvgl\src\lv_misc/lv_ll.c **** 
 422:lvgl\src\lv_misc/lv_ll.c ****     *act_node_p = *next_node_p;
  72              		.loc 1 422 0
  73 0008 CA50     		str	r2, [r1, r3]
 423:lvgl\src\lv_misc/lv_ll.c **** }
  74              		.loc 1 423 0
  75 000a 10BC     		pop	{r4}
  76              		.cfi_restore 4
  77              		.cfi_def_cfa_offset 0
  78              	.LVL7:
  79              	.L7:
  80 000c 7047     		bx	lr
  81              		.cfi_endproc
  82              	.LFE16:
  83              		.size	node_set_next, .-node_set_next
  84 000e 00BF     		.section	.text._lv_ll_init,"ax",%progbits
  85              		.align	2
  86              		.global	_lv_ll_init
  87              		.thumb
  88              		.thumb_func
  89              		.type	_lv_ll_init, %function
ARM GAS  C:\Users\strap\AppData\Local\Temp\ccO1095g.s 			page 10


  90              	_lv_ll_init:
  91              	.LFB1:
  51:lvgl\src\lv_misc/lv_ll.c ****     ll_p->head = NULL;
  92              		.loc 1 51 0
  93              		.cfi_startproc
  94              		@ args = 0, pretend = 0, frame = 0
  95              		@ frame_needed = 0, uses_anonymous_args = 0
  96              		@ link register save eliminated.
  97              	.LVL8:
  52:lvgl\src\lv_misc/lv_ll.c ****     ll_p->tail = NULL;
  98              		.loc 1 52 0
  99 0000 0023     		movs	r3, #0
 100 0002 4360     		str	r3, [r0, #4]
  53:lvgl\src\lv_misc/lv_ll.c **** #ifdef LV_ARCH_64
 101              		.loc 1 53 0
 102 0004 8360     		str	r3, [r0, #8]
  59:lvgl\src\lv_misc/lv_ll.c **** #endif
 103              		.loc 1 59 0
 104 0006 0331     		adds	r1, r1, #3
 105              	.LVL9:
 106 0008 21F00301 		bic	r1, r1, #3
 107              	.LVL10:
  62:lvgl\src\lv_misc/lv_ll.c **** }
 108              		.loc 1 62 0
 109 000c 0160     		str	r1, [r0]
 110 000e 7047     		bx	lr
 111              		.cfi_endproc
 112              	.LFE1:
 113              		.size	_lv_ll_init, .-_lv_ll_init
 114              		.section	.text._lv_ll_ins_head,"ax",%progbits
 115              		.align	2
 116              		.global	_lv_ll_ins_head
 117              		.thumb
 118              		.thumb_func
 119              		.type	_lv_ll_ins_head, %function
 120              	_lv_ll_ins_head:
 121              	.LFB2:
  71:lvgl\src\lv_misc/lv_ll.c ****     lv_ll_node_t * n_new;
 122              		.loc 1 71 0
 123              		.cfi_startproc
 124              		@ args = 0, pretend = 0, frame = 0
 125              		@ frame_needed = 0, uses_anonymous_args = 0
 126              	.LVL11:
 127 0000 38B5     		push	{r3, r4, r5, lr}
 128              		.cfi_def_cfa_offset 16
 129              		.cfi_offset 3, -16
 130              		.cfi_offset 4, -12
 131              		.cfi_offset 5, -8
 132              		.cfi_offset 14, -4
 133 0002 0446     		mov	r4, r0
  74:lvgl\src\lv_misc/lv_ll.c **** 
 134              		.loc 1 74 0
 135 0004 0068     		ldr	r0, [r0]
 136              	.LVL12:
 137 0006 0830     		adds	r0, r0, #8
 138 0008 FFF7FEFF 		bl	lv_mem_alloc
 139              	.LVL13:
ARM GAS  C:\Users\strap\AppData\Local\Temp\ccO1095g.s 			page 11


  76:lvgl\src\lv_misc/lv_ll.c ****         node_set_prev(ll_p, n_new, NULL);       /*No prev. before the new head*/
 140              		.loc 1 76 0
 141 000c 0546     		mov	r5, r0
 142 000e 98B1     		cbz	r0, .L10
  77:lvgl\src\lv_misc/lv_ll.c ****         node_set_next(ll_p, n_new, ll_p->head); /*After new comes the old head*/
 143              		.loc 1 77 0
 144 0010 0022     		movs	r2, #0
 145 0012 0146     		mov	r1, r0
 146 0014 2046     		mov	r0, r4
 147              	.LVL14:
 148 0016 FFF7FEFF 		bl	node_set_prev
 149              	.LVL15:
  78:lvgl\src\lv_misc/lv_ll.c **** 
 150              		.loc 1 78 0
 151 001a 6268     		ldr	r2, [r4, #4]
 152 001c 2946     		mov	r1, r5
 153 001e 2046     		mov	r0, r4
 154 0020 FFF7FEFF 		bl	node_set_next
 155              	.LVL16:
  80:lvgl\src\lv_misc/lv_ll.c ****             node_set_prev(ll_p, ll_p->head, n_new);
 156              		.loc 1 80 0
 157 0024 6168     		ldr	r1, [r4, #4]
 158 0026 19B1     		cbz	r1, .L11
  81:lvgl\src\lv_misc/lv_ll.c ****         }
 159              		.loc 1 81 0
 160 0028 2A46     		mov	r2, r5
 161 002a 2046     		mov	r0, r4
 162 002c FFF7FEFF 		bl	node_set_prev
 163              	.LVL17:
 164              	.L11:
  84:lvgl\src\lv_misc/lv_ll.c ****         if(ll_p->tail == NULL) { /*If there is no tail (1. node) set the tail too*/
 165              		.loc 1 84 0
 166 0030 6560     		str	r5, [r4, #4]
  85:lvgl\src\lv_misc/lv_ll.c ****             ll_p->tail = n_new;
 167              		.loc 1 85 0
 168 0032 A368     		ldr	r3, [r4, #8]
 169 0034 03B9     		cbnz	r3, .L10
  86:lvgl\src\lv_misc/lv_ll.c ****         }
 170              		.loc 1 86 0
 171 0036 A560     		str	r5, [r4, #8]
 172              	.L10:
  91:lvgl\src\lv_misc/lv_ll.c **** 
 173              		.loc 1 91 0
 174 0038 2846     		mov	r0, r5
 175 003a 38BD     		pop	{r3, r4, r5, pc}
 176              		.cfi_endproc
 177              	.LFE2:
 178              		.size	_lv_ll_ins_head, .-_lv_ll_ins_head
 179              		.section	.text._lv_ll_ins_tail,"ax",%progbits
 180              		.align	2
 181              		.global	_lv_ll_ins_tail
 182              		.thumb
 183              		.thumb_func
 184              		.type	_lv_ll_ins_tail, %function
 185              	_lv_ll_ins_tail:
 186              	.LFB4:
 130:lvgl\src\lv_misc/lv_ll.c ****     lv_ll_node_t * n_new;
ARM GAS  C:\Users\strap\AppData\Local\Temp\ccO1095g.s 			page 12


 187              		.loc 1 130 0
 188              		.cfi_startproc
 189              		@ args = 0, pretend = 0, frame = 0
 190              		@ frame_needed = 0, uses_anonymous_args = 0
 191              	.LVL18:
 192 0000 38B5     		push	{r3, r4, r5, lr}
 193              		.cfi_def_cfa_offset 16
 194              		.cfi_offset 3, -16
 195              		.cfi_offset 4, -12
 196              		.cfi_offset 5, -8
 197              		.cfi_offset 14, -4
 198 0002 0446     		mov	r4, r0
 133:lvgl\src\lv_misc/lv_ll.c **** 
 199              		.loc 1 133 0
 200 0004 0068     		ldr	r0, [r0]
 201              	.LVL19:
 202 0006 0830     		adds	r0, r0, #8
 203 0008 FFF7FEFF 		bl	lv_mem_alloc
 204              	.LVL20:
 135:lvgl\src\lv_misc/lv_ll.c ****         node_set_next(ll_p, n_new, NULL);       /*No next after the new tail*/
 205              		.loc 1 135 0
 206 000c 0546     		mov	r5, r0
 207 000e 98B1     		cbz	r0, .L14
 136:lvgl\src\lv_misc/lv_ll.c ****         node_set_prev(ll_p, n_new, ll_p->tail); /*The prev. before new is the old tail*/
 208              		.loc 1 136 0
 209 0010 0022     		movs	r2, #0
 210 0012 0146     		mov	r1, r0
 211 0014 2046     		mov	r0, r4
 212              	.LVL21:
 213 0016 FFF7FEFF 		bl	node_set_next
 214              	.LVL22:
 137:lvgl\src\lv_misc/lv_ll.c ****         if(ll_p->tail != NULL) {                /*If there is old tail then the new comes after it*
 215              		.loc 1 137 0
 216 001a A268     		ldr	r2, [r4, #8]
 217 001c 2946     		mov	r1, r5
 218 001e 2046     		mov	r0, r4
 219 0020 FFF7FEFF 		bl	node_set_prev
 220              	.LVL23:
 138:lvgl\src\lv_misc/lv_ll.c ****             node_set_next(ll_p, ll_p->tail, n_new);
 221              		.loc 1 138 0
 222 0024 A168     		ldr	r1, [r4, #8]
 223 0026 19B1     		cbz	r1, .L15
 139:lvgl\src\lv_misc/lv_ll.c ****         }
 224              		.loc 1 139 0
 225 0028 2A46     		mov	r2, r5
 226 002a 2046     		mov	r0, r4
 227 002c FFF7FEFF 		bl	node_set_next
 228              	.LVL24:
 229              	.L15:
 142:lvgl\src\lv_misc/lv_ll.c ****         if(ll_p->head == NULL) { /*If there is no head (1. node) set the head too*/
 230              		.loc 1 142 0
 231 0030 A560     		str	r5, [r4, #8]
 143:lvgl\src\lv_misc/lv_ll.c ****             ll_p->head = n_new;
 232              		.loc 1 143 0
 233 0032 6368     		ldr	r3, [r4, #4]
 234 0034 03B9     		cbnz	r3, .L14
 144:lvgl\src\lv_misc/lv_ll.c ****         }
ARM GAS  C:\Users\strap\AppData\Local\Temp\ccO1095g.s 			page 13


 235              		.loc 1 144 0
 236 0036 6560     		str	r5, [r4, #4]
 237              	.L14:
 149:lvgl\src\lv_misc/lv_ll.c **** 
 238              		.loc 1 149 0
 239 0038 2846     		mov	r0, r5
 240 003a 38BD     		pop	{r3, r4, r5, pc}
 241              		.cfi_endproc
 242              	.LFE4:
 243              		.size	_lv_ll_ins_tail, .-_lv_ll_ins_tail
 244              		.section	.text._lv_ll_get_head,"ax",%progbits
 245              		.align	2
 246              		.global	_lv_ll_get_head
 247              		.thumb
 248              		.thumb_func
 249              		.type	_lv_ll_get_head, %function
 250              	_lv_ll_get_head:
 251              	.LFB8:
 258:lvgl\src\lv_misc/lv_ll.c ****     void * head = NULL;
 252              		.loc 1 258 0
 253              		.cfi_startproc
 254              		@ args = 0, pretend = 0, frame = 0
 255              		@ frame_needed = 0, uses_anonymous_args = 0
 256              		@ link register save eliminated.
 257              	.LVL25:
 261:lvgl\src\lv_misc/lv_ll.c ****         head = ll_p->head;
 258              		.loc 1 261 0
 259 0000 08B1     		cbz	r0, .L19
 262:lvgl\src\lv_misc/lv_ll.c ****     }
 260              		.loc 1 262 0
 261 0002 4068     		ldr	r0, [r0, #4]
 262              	.LVL26:
 263 0004 7047     		bx	lr
 264              	.LVL27:
 265              	.L19:
 259:lvgl\src\lv_misc/lv_ll.c **** 
 266              		.loc 1 259 0
 267 0006 0020     		movs	r0, #0
 268              	.LVL28:
 266:lvgl\src\lv_misc/lv_ll.c **** 
 269              		.loc 1 266 0
 270 0008 7047     		bx	lr
 271              		.cfi_endproc
 272              	.LFE8:
 273              		.size	_lv_ll_get_head, .-_lv_ll_get_head
 274 000a 00BF     		.section	.text._lv_ll_get_tail,"ax",%progbits
 275              		.align	2
 276              		.global	_lv_ll_get_tail
 277              		.thumb
 278              		.thumb_func
 279              		.type	_lv_ll_get_tail, %function
 280              	_lv_ll_get_tail:
 281              	.LFB9:
 274:lvgl\src\lv_misc/lv_ll.c ****     void * tail = NULL;
 282              		.loc 1 274 0
 283              		.cfi_startproc
 284              		@ args = 0, pretend = 0, frame = 0
ARM GAS  C:\Users\strap\AppData\Local\Temp\ccO1095g.s 			page 14


 285              		@ frame_needed = 0, uses_anonymous_args = 0
 286              		@ link register save eliminated.
 287              	.LVL29:
 277:lvgl\src\lv_misc/lv_ll.c ****         tail = ll_p->tail;
 288              		.loc 1 277 0
 289 0000 08B1     		cbz	r0, .L22
 278:lvgl\src\lv_misc/lv_ll.c ****     }
 290              		.loc 1 278 0
 291 0002 8068     		ldr	r0, [r0, #8]
 292              	.LVL30:
 293 0004 7047     		bx	lr
 294              	.LVL31:
 295              	.L22:
 275:lvgl\src\lv_misc/lv_ll.c **** 
 296              		.loc 1 275 0
 297 0006 0020     		movs	r0, #0
 298              	.LVL32:
 282:lvgl\src\lv_misc/lv_ll.c **** 
 299              		.loc 1 282 0
 300 0008 7047     		bx	lr
 301              		.cfi_endproc
 302              	.LFE9:
 303              		.size	_lv_ll_get_tail, .-_lv_ll_get_tail
 304 000a 00BF     		.section	.text._lv_ll_get_next,"ax",%progbits
 305              		.align	2
 306              		.global	_lv_ll_get_next
 307              		.thumb
 308              		.thumb_func
 309              		.type	_lv_ll_get_next, %function
 310              	_lv_ll_get_next:
 311              	.LFB10:
 291:lvgl\src\lv_misc/lv_ll.c ****     if(ll_p == NULL) return NULL;
 312              		.loc 1 291 0
 313              		.cfi_startproc
 314              		@ args = 0, pretend = 0, frame = 0
 315              		@ frame_needed = 0, uses_anonymous_args = 0
 316              		@ link register save eliminated.
 317              	.LVL33:
 292:lvgl\src\lv_misc/lv_ll.c **** 
 318              		.loc 1 292 0
 319 0000 18B1     		cbz	r0, .L25
 320              	.LVL34:
 297:lvgl\src\lv_misc/lv_ll.c ****     return *((lv_ll_node_t **)n_act_d);
 321              		.loc 1 297 0
 322 0002 0368     		ldr	r3, [r0]
 323 0004 0433     		adds	r3, r3, #4
 324              	.LVL35:
 298:lvgl\src\lv_misc/lv_ll.c **** }
 325              		.loc 1 298 0
 326 0006 C858     		ldr	r0, [r1, r3]
 327              	.LVL36:
 328 0008 7047     		bx	lr
 329              	.LVL37:
 330              	.L25:
 292:lvgl\src\lv_misc/lv_ll.c **** 
 331              		.loc 1 292 0
 332 000a 0020     		movs	r0, #0
ARM GAS  C:\Users\strap\AppData\Local\Temp\ccO1095g.s 			page 15


 333              	.LVL38:
 299:lvgl\src\lv_misc/lv_ll.c **** 
 334              		.loc 1 299 0
 335 000c 7047     		bx	lr
 336              		.cfi_endproc
 337              	.LFE10:
 338              		.size	_lv_ll_get_next, .-_lv_ll_get_next
 339 000e 00BF     		.section	.text._lv_ll_get_prev,"ax",%progbits
 340              		.align	2
 341              		.global	_lv_ll_get_prev
 342              		.thumb
 343              		.thumb_func
 344              		.type	_lv_ll_get_prev, %function
 345              	_lv_ll_get_prev:
 346              	.LFB11:
 308:lvgl\src\lv_misc/lv_ll.c ****     if(ll_p == NULL) return NULL;
 347              		.loc 1 308 0
 348              		.cfi_startproc
 349              		@ args = 0, pretend = 0, frame = 0
 350              		@ frame_needed = 0, uses_anonymous_args = 0
 351              		@ link register save eliminated.
 352              	.LVL39:
 309:lvgl\src\lv_misc/lv_ll.c **** 
 353              		.loc 1 309 0
 354 0000 10B1     		cbz	r0, .L28
 355              	.LVL40:
 314:lvgl\src\lv_misc/lv_ll.c ****     return *((lv_ll_node_t **)n_act_d);
 356              		.loc 1 314 0
 357 0002 0368     		ldr	r3, [r0]
 358              	.LVL41:
 315:lvgl\src\lv_misc/lv_ll.c **** }
 359              		.loc 1 315 0
 360 0004 C858     		ldr	r0, [r1, r3]
 361              	.LVL42:
 362 0006 7047     		bx	lr
 363              	.LVL43:
 364              	.L28:
 309:lvgl\src\lv_misc/lv_ll.c **** 
 365              		.loc 1 309 0
 366 0008 0020     		movs	r0, #0
 367              	.LVL44:
 316:lvgl\src\lv_misc/lv_ll.c **** 
 368              		.loc 1 316 0
 369 000a 7047     		bx	lr
 370              		.cfi_endproc
 371              	.LFE11:
 372              		.size	_lv_ll_get_prev, .-_lv_ll_get_prev
 373              		.section	.text._lv_ll_ins_prev,"ax",%progbits
 374              		.align	2
 375              		.global	_lv_ll_ins_prev
 376              		.thumb
 377              		.thumb_func
 378              		.type	_lv_ll_ins_prev, %function
 379              	_lv_ll_ins_prev:
 380              	.LFB3:
 100:lvgl\src\lv_misc/lv_ll.c ****     lv_ll_node_t * n_new;
 381              		.loc 1 100 0
ARM GAS  C:\Users\strap\AppData\Local\Temp\ccO1095g.s 			page 16


 382              		.cfi_startproc
 383              		@ args = 0, pretend = 0, frame = 0
 384              		@ frame_needed = 0, uses_anonymous_args = 0
 385              	.LVL45:
 103:lvgl\src\lv_misc/lv_ll.c **** 
 386              		.loc 1 103 0
 387 0000 68B3     		cbz	r0, .L32
 100:lvgl\src\lv_misc/lv_ll.c ****     lv_ll_node_t * n_new;
 388              		.loc 1 100 0 discriminator 2
 389 0002 F8B5     		push	{r3, r4, r5, r6, r7, lr}
 390              		.cfi_def_cfa_offset 24
 391              		.cfi_offset 3, -24
 392              		.cfi_offset 4, -20
 393              		.cfi_offset 5, -16
 394              		.cfi_offset 6, -12
 395              		.cfi_offset 7, -8
 396              		.cfi_offset 14, -4
 397 0004 0446     		mov	r4, r0
 103:lvgl\src\lv_misc/lv_ll.c **** 
 398              		.loc 1 103 0 discriminator 2
 399 0006 61B3     		cbz	r1, .L33
 400 0008 0D46     		mov	r5, r1
 105:lvgl\src\lv_misc/lv_ll.c ****         n_new = _lv_ll_ins_head(ll_p);
 401              		.loc 1 105 0
 402 000a FFF7FEFF 		bl	_lv_ll_get_head
 403              	.LVL46:
 404 000e 8542     		cmp	r5, r0
 405 0010 04D1     		bne	.L31
 106:lvgl\src\lv_misc/lv_ll.c ****         if(n_new == NULL) return NULL;
 406              		.loc 1 106 0
 407 0012 2046     		mov	r0, r4
 408 0014 FFF7FEFF 		bl	_lv_ll_ins_head
 409              	.LVL47:
 107:lvgl\src\lv_misc/lv_ll.c ****     }
 410              		.loc 1 107 0
 411 0018 28BB     		cbnz	r0, .L34
 412 001a F8BD     		pop	{r3, r4, r5, r6, r7, pc}
 413              	.LVL48:
 414              	.L31:
 415              	.LBB2:
 110:lvgl\src\lv_misc/lv_ll.c ****         if(n_new == NULL) return NULL;
 416              		.loc 1 110 0
 417 001c 2068     		ldr	r0, [r4]
 418 001e 0830     		adds	r0, r0, #8
 419 0020 FFF7FEFF 		bl	lv_mem_alloc
 420              	.LVL49:
 111:lvgl\src\lv_misc/lv_ll.c **** 
 421              		.loc 1 111 0
 422 0024 0646     		mov	r6, r0
 423 0026 F8B1     		cbz	r0, .L35
 114:lvgl\src\lv_misc/lv_ll.c ****         node_set_next(ll_p, n_prev, n_new);
 424              		.loc 1 114 0
 425 0028 2946     		mov	r1, r5
 426 002a 2046     		mov	r0, r4
 427              	.LVL50:
 428 002c FFF7FEFF 		bl	_lv_ll_get_prev
 429              	.LVL51:
ARM GAS  C:\Users\strap\AppData\Local\Temp\ccO1095g.s 			page 17


 430 0030 0746     		mov	r7, r0
 431              	.LVL52:
 115:lvgl\src\lv_misc/lv_ll.c ****         node_set_prev(ll_p, n_new, n_prev);
 432              		.loc 1 115 0
 433 0032 3246     		mov	r2, r6
 434 0034 0146     		mov	r1, r0
 435 0036 2046     		mov	r0, r4
 436              	.LVL53:
 437 0038 FFF7FEFF 		bl	node_set_next
 438              	.LVL54:
 116:lvgl\src\lv_misc/lv_ll.c ****         node_set_prev(ll_p, n_act, n_new);
 439              		.loc 1 116 0
 440 003c 3A46     		mov	r2, r7
 441 003e 3146     		mov	r1, r6
 442 0040 2046     		mov	r0, r4
 443 0042 FFF7FEFF 		bl	node_set_prev
 444              	.LVL55:
 117:lvgl\src\lv_misc/lv_ll.c ****         node_set_next(ll_p, n_new, n_act);
 445              		.loc 1 117 0
 446 0046 3246     		mov	r2, r6
 447 0048 2946     		mov	r1, r5
 448 004a 2046     		mov	r0, r4
 449 004c FFF7FEFF 		bl	node_set_prev
 450              	.LVL56:
 118:lvgl\src\lv_misc/lv_ll.c ****     }
 451              		.loc 1 118 0
 452 0050 2A46     		mov	r2, r5
 453 0052 3146     		mov	r1, r6
 454 0054 2046     		mov	r0, r4
 455 0056 FFF7FEFF 		bl	node_set_next
 456              	.LVL57:
 110:lvgl\src\lv_misc/lv_ll.c ****         if(n_new == NULL) return NULL;
 457              		.loc 1 110 0
 458 005a 3046     		mov	r0, r6
 459 005c F8BD     		pop	{r3, r4, r5, r6, r7, pc}
 460              	.LVL58:
 461              	.L32:
 462              		.cfi_def_cfa_offset 0
 463              		.cfi_restore 3
 464              		.cfi_restore 4
 465              		.cfi_restore 5
 466              		.cfi_restore 6
 467              		.cfi_restore 7
 468              		.cfi_restore 14
 469              	.LBE2:
 103:lvgl\src\lv_misc/lv_ll.c **** 
 470              		.loc 1 103 0
 471 005e 0020     		movs	r0, #0
 472              	.LVL59:
 122:lvgl\src\lv_misc/lv_ll.c **** 
 473              		.loc 1 122 0
 474 0060 7047     		bx	lr
 475              	.LVL60:
 476              	.L33:
 477              		.cfi_def_cfa_offset 24
 478              		.cfi_offset 3, -24
 479              		.cfi_offset 4, -20
ARM GAS  C:\Users\strap\AppData\Local\Temp\ccO1095g.s 			page 18


 480              		.cfi_offset 5, -16
 481              		.cfi_offset 6, -12
 482              		.cfi_offset 7, -8
 483              		.cfi_offset 14, -4
 103:lvgl\src\lv_misc/lv_ll.c **** 
 484              		.loc 1 103 0
 485 0062 0020     		movs	r0, #0
 486              	.LVL61:
 487 0064 F8BD     		pop	{r3, r4, r5, r6, r7, pc}
 488              	.LVL62:
 489              	.L34:
 490 0066 F8BD     		pop	{r3, r4, r5, r6, r7, pc}
 491              	.LVL63:
 492              	.L35:
 493              	.LBB3:
 111:lvgl\src\lv_misc/lv_ll.c **** 
 494              		.loc 1 111 0
 495 0068 0020     		movs	r0, #0
 496              	.LVL64:
 497              	.LBE3:
 122:lvgl\src\lv_misc/lv_ll.c **** 
 498              		.loc 1 122 0
 499 006a F8BD     		pop	{r3, r4, r5, r6, r7, pc}
 500              		.cfi_endproc
 501              	.LFE3:
 502              		.size	_lv_ll_ins_prev, .-_lv_ll_ins_prev
 503              		.section	.text._lv_ll_remove,"ax",%progbits
 504              		.align	2
 505              		.global	_lv_ll_remove
 506              		.thumb
 507              		.thumb_func
 508              		.type	_lv_ll_remove, %function
 509              	_lv_ll_remove:
 510              	.LFB5:
 158:lvgl\src\lv_misc/lv_ll.c ****     if(_lv_ll_get_head(ll_p) == node_p) {
 511              		.loc 1 158 0
 512              		.cfi_startproc
 513              		@ args = 0, pretend = 0, frame = 0
 514              		@ frame_needed = 0, uses_anonymous_args = 0
 515              	.LVL65:
 516 0000 70B5     		push	{r4, r5, r6, lr}
 517              		.cfi_def_cfa_offset 16
 518              		.cfi_offset 4, -16
 519              		.cfi_offset 5, -12
 520              		.cfi_offset 6, -8
 521              		.cfi_offset 14, -4
 522 0002 0446     		mov	r4, r0
 523 0004 0D46     		mov	r5, r1
 159:lvgl\src\lv_misc/lv_ll.c ****         /*The new head will be the node after 'n_act'*/
 524              		.loc 1 159 0
 525 0006 FFF7FEFF 		bl	_lv_ll_get_head
 526              	.LVL66:
 527 000a 8542     		cmp	r5, r0
 528 000c 0ED1     		bne	.L38
 161:lvgl\src\lv_misc/lv_ll.c ****         if(ll_p->head == NULL) {
 529              		.loc 1 161 0
 530 000e 2946     		mov	r1, r5
ARM GAS  C:\Users\strap\AppData\Local\Temp\ccO1095g.s 			page 19


 531 0010 2046     		mov	r0, r4
 532 0012 FFF7FEFF 		bl	_lv_ll_get_next
 533              	.LVL67:
 534 0016 6060     		str	r0, [r4, #4]
 162:lvgl\src\lv_misc/lv_ll.c ****             ll_p->tail = NULL;
 535              		.loc 1 162 0
 536 0018 10B9     		cbnz	r0, .L39
 163:lvgl\src\lv_misc/lv_ll.c ****         }
 537              		.loc 1 163 0
 538 001a 0023     		movs	r3, #0
 539 001c A360     		str	r3, [r4, #8]
 540 001e 70BD     		pop	{r4, r5, r6, pc}
 541              	.LVL68:
 542              	.L39:
 166:lvgl\src\lv_misc/lv_ll.c ****         }
 543              		.loc 1 166 0
 544 0020 0022     		movs	r2, #0
 545 0022 0146     		mov	r1, r0
 546 0024 2046     		mov	r0, r4
 547 0026 FFF7FEFF 		bl	node_set_prev
 548              	.LVL69:
 549 002a 70BD     		pop	{r4, r5, r6, pc}
 550              	.LVL70:
 551              	.L38:
 169:lvgl\src\lv_misc/lv_ll.c ****         /*The new tail will be the  node before 'n_act'*/
 552              		.loc 1 169 0
 553 002c 2046     		mov	r0, r4
 554 002e FFF7FEFF 		bl	_lv_ll_get_tail
 555              	.LVL71:
 556 0032 8542     		cmp	r5, r0
 557 0034 0ED1     		bne	.L41
 171:lvgl\src\lv_misc/lv_ll.c ****         if(ll_p->tail == NULL) {
 558              		.loc 1 171 0
 559 0036 2946     		mov	r1, r5
 560 0038 2046     		mov	r0, r4
 561 003a FFF7FEFF 		bl	_lv_ll_get_prev
 562              	.LVL72:
 563 003e A060     		str	r0, [r4, #8]
 172:lvgl\src\lv_misc/lv_ll.c ****             ll_p->head = NULL;
 564              		.loc 1 172 0
 565 0040 10B9     		cbnz	r0, .L42
 173:lvgl\src\lv_misc/lv_ll.c ****         }
 566              		.loc 1 173 0
 567 0042 0023     		movs	r3, #0
 568 0044 6360     		str	r3, [r4, #4]
 569 0046 70BD     		pop	{r4, r5, r6, pc}
 570              	.LVL73:
 571              	.L42:
 176:lvgl\src\lv_misc/lv_ll.c ****         }
 572              		.loc 1 176 0
 573 0048 0022     		movs	r2, #0
 574 004a 0146     		mov	r1, r0
 575 004c 2046     		mov	r0, r4
 576 004e FFF7FEFF 		bl	node_set_next
 577              	.LVL74:
 578 0052 70BD     		pop	{r4, r5, r6, pc}
 579              	.LVL75:
ARM GAS  C:\Users\strap\AppData\Local\Temp\ccO1095g.s 			page 20


 580              	.L41:
 581              	.LBB4:
 180:lvgl\src\lv_misc/lv_ll.c ****         lv_ll_node_t * n_next = _lv_ll_get_next(ll_p, node_p);
 582              		.loc 1 180 0
 583 0054 2946     		mov	r1, r5
 584 0056 2046     		mov	r0, r4
 585 0058 FFF7FEFF 		bl	_lv_ll_get_prev
 586              	.LVL76:
 587 005c 0646     		mov	r6, r0
 588              	.LVL77:
 181:lvgl\src\lv_misc/lv_ll.c **** 
 589              		.loc 1 181 0
 590 005e 2946     		mov	r1, r5
 591 0060 2046     		mov	r0, r4
 592              	.LVL78:
 593 0062 FFF7FEFF 		bl	_lv_ll_get_next
 594              	.LVL79:
 595 0066 0546     		mov	r5, r0
 596              	.LVL80:
 183:lvgl\src\lv_misc/lv_ll.c ****         node_set_prev(ll_p, n_next, n_prev);
 597              		.loc 1 183 0
 598 0068 0246     		mov	r2, r0
 599 006a 3146     		mov	r1, r6
 600 006c 2046     		mov	r0, r4
 601              	.LVL81:
 602 006e FFF7FEFF 		bl	node_set_next
 603              	.LVL82:
 184:lvgl\src\lv_misc/lv_ll.c ****     }
 604              		.loc 1 184 0
 605 0072 3246     		mov	r2, r6
 606 0074 2946     		mov	r1, r5
 607 0076 2046     		mov	r0, r4
 608 0078 FFF7FEFF 		bl	node_set_prev
 609              	.LVL83:
 610 007c 70BD     		pop	{r4, r5, r6, pc}
 611              	.LBE4:
 612              		.cfi_endproc
 613              	.LFE5:
 614              		.size	_lv_ll_remove, .-_lv_ll_remove
 615 007e 00BF     		.section	.text._lv_ll_clear,"ax",%progbits
 616              		.align	2
 617              		.global	_lv_ll_clear
 618              		.thumb
 619              		.thumb_func
 620              		.type	_lv_ll_clear, %function
 621              	_lv_ll_clear:
 622              	.LFB6:
 193:lvgl\src\lv_misc/lv_ll.c ****     void * i;
 623              		.loc 1 193 0
 624              		.cfi_startproc
 625              		@ args = 0, pretend = 0, frame = 0
 626              		@ frame_needed = 0, uses_anonymous_args = 0
 627              	.LVL84:
 628 0000 70B5     		push	{r4, r5, r6, lr}
 629              		.cfi_def_cfa_offset 16
 630              		.cfi_offset 4, -16
 631              		.cfi_offset 5, -12
ARM GAS  C:\Users\strap\AppData\Local\Temp\ccO1095g.s 			page 21


 632              		.cfi_offset 6, -8
 633              		.cfi_offset 14, -4
 634 0002 0546     		mov	r5, r0
 197:lvgl\src\lv_misc/lv_ll.c ****     i_next = NULL;
 635              		.loc 1 197 0
 636 0004 FFF7FEFF 		bl	_lv_ll_get_head
 637              	.LVL85:
 638 0008 0446     		mov	r4, r0
 639              	.LVL86:
 200:lvgl\src\lv_misc/lv_ll.c ****         i_next = _lv_ll_get_next(ll_p, i);
 640              		.loc 1 200 0
 641 000a 0CE0     		b	.L45
 642              	.LVL87:
 643              	.L46:
 201:lvgl\src\lv_misc/lv_ll.c **** 
 644              		.loc 1 201 0
 645 000c 2146     		mov	r1, r4
 646 000e 2846     		mov	r0, r5
 647 0010 FFF7FEFF 		bl	_lv_ll_get_next
 648              	.LVL88:
 649 0014 0646     		mov	r6, r0
 650              	.LVL89:
 203:lvgl\src\lv_misc/lv_ll.c ****         lv_mem_free(i);
 651              		.loc 1 203 0
 652 0016 2146     		mov	r1, r4
 653 0018 2846     		mov	r0, r5
 654              	.LVL90:
 655 001a FFF7FEFF 		bl	_lv_ll_remove
 656              	.LVL91:
 204:lvgl\src\lv_misc/lv_ll.c **** 
 657              		.loc 1 204 0
 658 001e 2046     		mov	r0, r4
 659 0020 FFF7FEFF 		bl	lv_mem_free
 660              	.LVL92:
 206:lvgl\src\lv_misc/lv_ll.c ****     }
 661              		.loc 1 206 0
 662 0024 3446     		mov	r4, r6
 663              	.LVL93:
 664              	.L45:
 200:lvgl\src\lv_misc/lv_ll.c ****         i_next = _lv_ll_get_next(ll_p, i);
 665              		.loc 1 200 0
 666 0026 002C     		cmp	r4, #0
 667 0028 F0D1     		bne	.L46
 208:lvgl\src\lv_misc/lv_ll.c **** 
 668              		.loc 1 208 0
 669 002a 70BD     		pop	{r4, r5, r6, pc}
 670              		.cfi_endproc
 671              	.LFE6:
 672              		.size	_lv_ll_clear, .-_lv_ll_clear
 673              		.section	.text._lv_ll_chg_list,"ax",%progbits
 674              		.align	2
 675              		.global	_lv_ll_chg_list
 676              		.thumb
 677              		.thumb_func
 678              		.type	_lv_ll_chg_list, %function
 679              	_lv_ll_chg_list:
 680              	.LFB7:
ARM GAS  C:\Users\strap\AppData\Local\Temp\ccO1095g.s 			page 22


 219:lvgl\src\lv_misc/lv_ll.c ****     _lv_ll_remove(ll_ori_p, node);
 681              		.loc 1 219 0
 682              		.cfi_startproc
 683              		@ args = 0, pretend = 0, frame = 0
 684              		@ frame_needed = 0, uses_anonymous_args = 0
 685              	.LVL94:
 686 0000 70B5     		push	{r4, r5, r6, lr}
 687              		.cfi_def_cfa_offset 16
 688              		.cfi_offset 4, -16
 689              		.cfi_offset 5, -12
 690              		.cfi_offset 6, -8
 691              		.cfi_offset 14, -4
 692 0002 0C46     		mov	r4, r1
 693 0004 1546     		mov	r5, r2
 694 0006 1E46     		mov	r6, r3
 220:lvgl\src\lv_misc/lv_ll.c **** 
 695              		.loc 1 220 0
 696 0008 1146     		mov	r1, r2
 697              	.LVL95:
 698 000a FFF7FEFF 		bl	_lv_ll_remove
 699              	.LVL96:
 222:lvgl\src\lv_misc/lv_ll.c ****         /*Set node as head*/
 700              		.loc 1 222 0
 701 000e A6B1     		cbz	r6, .L49
 224:lvgl\src\lv_misc/lv_ll.c ****         node_set_next(ll_new_p, node, ll_new_p->head);
 702              		.loc 1 224 0
 703 0010 0022     		movs	r2, #0
 704 0012 2946     		mov	r1, r5
 705 0014 2046     		mov	r0, r4
 706 0016 FFF7FEFF 		bl	node_set_prev
 707              	.LVL97:
 225:lvgl\src\lv_misc/lv_ll.c **** 
 708              		.loc 1 225 0
 709 001a 6268     		ldr	r2, [r4, #4]
 710 001c 2946     		mov	r1, r5
 711 001e 2046     		mov	r0, r4
 712 0020 FFF7FEFF 		bl	node_set_next
 713              	.LVL98:
 227:lvgl\src\lv_misc/lv_ll.c ****             node_set_prev(ll_new_p, ll_new_p->head, node);
 714              		.loc 1 227 0
 715 0024 6168     		ldr	r1, [r4, #4]
 716 0026 19B1     		cbz	r1, .L50
 228:lvgl\src\lv_misc/lv_ll.c ****         }
 717              		.loc 1 228 0
 718 0028 2A46     		mov	r2, r5
 719 002a 2046     		mov	r0, r4
 720 002c FFF7FEFF 		bl	node_set_prev
 721              	.LVL99:
 722              	.L50:
 231:lvgl\src\lv_misc/lv_ll.c ****         if(ll_new_p->tail == NULL) { /*If there is no tail (first node) set the tail too*/
 723              		.loc 1 231 0
 724 0030 6560     		str	r5, [r4, #4]
 232:lvgl\src\lv_misc/lv_ll.c ****             ll_new_p->tail = node;
 725              		.loc 1 232 0
 726 0032 A368     		ldr	r3, [r4, #8]
 727 0034 ABB9     		cbnz	r3, .L48
 233:lvgl\src\lv_misc/lv_ll.c ****         }
ARM GAS  C:\Users\strap\AppData\Local\Temp\ccO1095g.s 			page 23


 728              		.loc 1 233 0
 729 0036 A560     		str	r5, [r4, #8]
 730 0038 70BD     		pop	{r4, r5, r6, pc}
 731              	.LVL100:
 732              	.L49:
 238:lvgl\src\lv_misc/lv_ll.c ****         node_set_next(ll_new_p, node, NULL);
 733              		.loc 1 238 0
 734 003a A268     		ldr	r2, [r4, #8]
 735 003c 2946     		mov	r1, r5
 736 003e 2046     		mov	r0, r4
 737 0040 FFF7FEFF 		bl	node_set_prev
 738              	.LVL101:
 239:lvgl\src\lv_misc/lv_ll.c **** 
 739              		.loc 1 239 0
 740 0044 0022     		movs	r2, #0
 741 0046 2946     		mov	r1, r5
 742 0048 2046     		mov	r0, r4
 743 004a FFF7FEFF 		bl	node_set_next
 744              	.LVL102:
 241:lvgl\src\lv_misc/lv_ll.c ****             node_set_next(ll_new_p, ll_new_p->tail, node);
 745              		.loc 1 241 0
 746 004e A168     		ldr	r1, [r4, #8]
 747 0050 19B1     		cbz	r1, .L52
 242:lvgl\src\lv_misc/lv_ll.c ****         }
 748              		.loc 1 242 0
 749 0052 2A46     		mov	r2, r5
 750 0054 2046     		mov	r0, r4
 751 0056 FFF7FEFF 		bl	node_set_next
 752              	.LVL103:
 753              	.L52:
 245:lvgl\src\lv_misc/lv_ll.c ****         if(ll_new_p->head == NULL) { /*If there is no head (first node) set the head too*/
 754              		.loc 1 245 0
 755 005a A560     		str	r5, [r4, #8]
 246:lvgl\src\lv_misc/lv_ll.c ****             ll_new_p->head = node;
 756              		.loc 1 246 0
 757 005c 6368     		ldr	r3, [r4, #4]
 758 005e 03B9     		cbnz	r3, .L48
 247:lvgl\src\lv_misc/lv_ll.c ****         }
 759              		.loc 1 247 0
 760 0060 6560     		str	r5, [r4, #4]
 761              	.L48:
 762 0062 70BD     		pop	{r4, r5, r6, pc}
 763              		.cfi_endproc
 764              	.LFE7:
 765              		.size	_lv_ll_chg_list, .-_lv_ll_chg_list
 766              		.section	.text._lv_ll_get_len,"ax",%progbits
 767              		.align	2
 768              		.global	_lv_ll_get_len
 769              		.thumb
 770              		.thumb_func
 771              		.type	_lv_ll_get_len, %function
 772              	_lv_ll_get_len:
 773              	.LFB12:
 324:lvgl\src\lv_misc/lv_ll.c ****     uint32_t len = 0;
 774              		.loc 1 324 0
 775              		.cfi_startproc
 776              		@ args = 0, pretend = 0, frame = 0
ARM GAS  C:\Users\strap\AppData\Local\Temp\ccO1095g.s 			page 24


 777              		@ frame_needed = 0, uses_anonymous_args = 0
 778              	.LVL104:
 779 0000 38B5     		push	{r3, r4, r5, lr}
 780              		.cfi_def_cfa_offset 16
 781              		.cfi_offset 3, -16
 782              		.cfi_offset 4, -12
 783              		.cfi_offset 5, -8
 784              		.cfi_offset 14, -4
 785 0002 0546     		mov	r5, r0
 786              	.LVL105:
 328:lvgl\src\lv_misc/lv_ll.c ****         len++;
 787              		.loc 1 328 0
 788 0004 FFF7FEFF 		bl	_lv_ll_get_head
 789              	.LVL106:
 325:lvgl\src\lv_misc/lv_ll.c ****     void * node;
 790              		.loc 1 325 0
 791 0008 0024     		movs	r4, #0
 328:lvgl\src\lv_misc/lv_ll.c ****         len++;
 792              		.loc 1 328 0
 793 000a 04E0     		b	.L55
 794              	.LVL107:
 795              	.L56:
 329:lvgl\src\lv_misc/lv_ll.c ****     }
 796              		.loc 1 329 0 discriminator 3
 797 000c 0134     		adds	r4, r4, #1
 798              	.LVL108:
 328:lvgl\src\lv_misc/lv_ll.c ****         len++;
 799              		.loc 1 328 0 discriminator 3
 800 000e 0146     		mov	r1, r0
 801 0010 2846     		mov	r0, r5
 802              	.LVL109:
 803 0012 FFF7FEFF 		bl	_lv_ll_get_next
 804              	.LVL110:
 805              	.L55:
 328:lvgl\src\lv_misc/lv_ll.c ****         len++;
 806              		.loc 1 328 0 is_stmt 0 discriminator 1
 807 0016 0028     		cmp	r0, #0
 808 0018 F8D1     		bne	.L56
 333:lvgl\src\lv_misc/lv_ll.c **** 
 809              		.loc 1 333 0 is_stmt 1
 810 001a 2046     		mov	r0, r4
 811              	.LVL111:
 812 001c 38BD     		pop	{r3, r4, r5, pc}
 813              		.cfi_endproc
 814              	.LFE12:
 815              		.size	_lv_ll_get_len, .-_lv_ll_get_len
 816 001e 00BF     		.section	.text._lv_ll_move_before,"ax",%progbits
 817              		.align	2
 818              		.global	_lv_ll_move_before
 819              		.thumb
 820              		.thumb_func
 821              		.type	_lv_ll_move_before, %function
 822              	_lv_ll_move_before:
 823              	.LFB13:
 342:lvgl\src\lv_misc/lv_ll.c ****     if(n_act == n_after) return; /*Can't move before itself*/
 824              		.loc 1 342 0
 825              		.cfi_startproc
ARM GAS  C:\Users\strap\AppData\Local\Temp\ccO1095g.s 			page 25


 826              		@ args = 0, pretend = 0, frame = 0
 827              		@ frame_needed = 0, uses_anonymous_args = 0
 828              	.LVL112:
 343:lvgl\src\lv_misc/lv_ll.c **** 
 829              		.loc 1 343 0
 830 0000 9142     		cmp	r1, r2
 831 0002 2BD0     		beq	.L64
 342:lvgl\src\lv_misc/lv_ll.c ****     if(n_act == n_after) return; /*Can't move before itself*/
 832              		.loc 1 342 0
 833 0004 F8B5     		push	{r3, r4, r5, r6, r7, lr}
 834              		.cfi_def_cfa_offset 24
 835              		.cfi_offset 3, -24
 836              		.cfi_offset 4, -20
 837              		.cfi_offset 5, -16
 838              		.cfi_offset 6, -12
 839              		.cfi_offset 7, -8
 840              		.cfi_offset 14, -4
 841 0006 1546     		mov	r5, r2
 842 0008 0C46     		mov	r4, r1
 843 000a 0646     		mov	r6, r0
 346:lvgl\src\lv_misc/lv_ll.c ****         n_before = _lv_ll_get_prev(ll_p, n_after);
 844              		.loc 1 346 0
 845 000c 22B1     		cbz	r2, .L60
 347:lvgl\src\lv_misc/lv_ll.c ****     else
 846              		.loc 1 347 0
 847 000e 1146     		mov	r1, r2
 848              	.LVL113:
 849 0010 FFF7FEFF 		bl	_lv_ll_get_prev
 850              	.LVL114:
 851 0014 0746     		mov	r7, r0
 852              	.LVL115:
 853 0016 02E0     		b	.L61
 854              	.LVL116:
 855              	.L60:
 349:lvgl\src\lv_misc/lv_ll.c **** 
 856              		.loc 1 349 0
 857 0018 FFF7FEFF 		bl	_lv_ll_get_tail
 858              	.LVL117:
 859 001c 0746     		mov	r7, r0
 860              	.LVL118:
 861              	.L61:
 351:lvgl\src\lv_misc/lv_ll.c **** 
 862              		.loc 1 351 0
 863 001e A742     		cmp	r7, r4
 864 0020 1BD0     		beq	.L58
 354:lvgl\src\lv_misc/lv_ll.c **** 
 865              		.loc 1 354 0
 866 0022 2146     		mov	r1, r4
 867 0024 3046     		mov	r0, r6
 868              	.LVL119:
 869 0026 FFF7FEFF 		bl	_lv_ll_remove
 870              	.LVL120:
 357:lvgl\src\lv_misc/lv_ll.c ****     node_set_prev(ll_p, n_act, n_before);
 871              		.loc 1 357 0
 872 002a 2246     		mov	r2, r4
 873 002c 3946     		mov	r1, r7
 874 002e 3046     		mov	r0, r6
ARM GAS  C:\Users\strap\AppData\Local\Temp\ccO1095g.s 			page 26


 875 0030 FFF7FEFF 		bl	node_set_next
 876              	.LVL121:
 358:lvgl\src\lv_misc/lv_ll.c ****     node_set_prev(ll_p, n_after, n_act);
 877              		.loc 1 358 0
 878 0034 3A46     		mov	r2, r7
 879 0036 2146     		mov	r1, r4
 880 0038 3046     		mov	r0, r6
 881 003a FFF7FEFF 		bl	node_set_prev
 882              	.LVL122:
 359:lvgl\src\lv_misc/lv_ll.c ****     node_set_next(ll_p, n_act, n_after);
 883              		.loc 1 359 0
 884 003e 2246     		mov	r2, r4
 885 0040 2946     		mov	r1, r5
 886 0042 3046     		mov	r0, r6
 887 0044 FFF7FEFF 		bl	node_set_prev
 888              	.LVL123:
 360:lvgl\src\lv_misc/lv_ll.c **** 
 889              		.loc 1 360 0
 890 0048 2A46     		mov	r2, r5
 891 004a 2146     		mov	r1, r4
 892 004c 3046     		mov	r0, r6
 893 004e FFF7FEFF 		bl	node_set_next
 894              	.LVL124:
 363:lvgl\src\lv_misc/lv_ll.c **** 
 895              		.loc 1 363 0
 896 0052 05B9     		cbnz	r5, .L62
 363:lvgl\src\lv_misc/lv_ll.c **** 
 897              		.loc 1 363 0 is_stmt 0 discriminator 1
 898 0054 B460     		str	r4, [r6, #8]
 899              	.L62:
 366:lvgl\src\lv_misc/lv_ll.c **** }
 900              		.loc 1 366 0 is_stmt 1
 901 0056 07B9     		cbnz	r7, .L58
 366:lvgl\src\lv_misc/lv_ll.c **** }
 902              		.loc 1 366 0 is_stmt 0 discriminator 1
 903 0058 7460     		str	r4, [r6, #4]
 904              	.L58:
 905 005a F8BD     		pop	{r3, r4, r5, r6, r7, pc}
 906              	.LVL125:
 907              	.L64:
 908              		.cfi_def_cfa_offset 0
 909              		.cfi_restore 3
 910              		.cfi_restore 4
 911              		.cfi_restore 5
 912              		.cfi_restore 6
 913              		.cfi_restore 7
 914              		.cfi_restore 14
 915 005c 7047     		bx	lr
 916              		.cfi_endproc
 917              	.LFE13:
 918              		.size	_lv_ll_move_before, .-_lv_ll_move_before
 919 005e 00BF     		.section	.text._lv_ll_is_empty,"ax",%progbits
 920              		.align	2
 921              		.global	_lv_ll_is_empty
 922              		.thumb
 923              		.thumb_func
 924              		.type	_lv_ll_is_empty, %function
ARM GAS  C:\Users\strap\AppData\Local\Temp\ccO1095g.s 			page 27


 925              	_lv_ll_is_empty:
 926              	.LFB14:
 375:lvgl\src\lv_misc/lv_ll.c ****     if(ll_p == NULL) return true;
 927              		.loc 1 375 0 is_stmt 1
 928              		.cfi_startproc
 929              		@ args = 0, pretend = 0, frame = 0
 930              		@ frame_needed = 0, uses_anonymous_args = 0
 931              		@ link register save eliminated.
 932              	.LVL126:
 376:lvgl\src\lv_misc/lv_ll.c **** 
 933              		.loc 1 376 0
 934 0000 28B1     		cbz	r0, .L67
 378:lvgl\src\lv_misc/lv_ll.c **** 
 935              		.loc 1 378 0
 936 0002 4268     		ldr	r2, [r0, #4]
 937 0004 2AB9     		cbnz	r2, .L68
 378:lvgl\src\lv_misc/lv_ll.c **** 
 938              		.loc 1 378 0 is_stmt 0 discriminator 1
 939 0006 8368     		ldr	r3, [r0, #8]
 940 0008 2BB1     		cbz	r3, .L69
 380:lvgl\src\lv_misc/lv_ll.c **** }
 941              		.loc 1 380 0 is_stmt 1
 942 000a 0020     		movs	r0, #0
 943              	.LVL127:
 944 000c 7047     		bx	lr
 945              	.LVL128:
 946              	.L67:
 376:lvgl\src\lv_misc/lv_ll.c **** 
 947              		.loc 1 376 0
 948 000e 0120     		movs	r0, #1
 949              	.LVL129:
 950 0010 7047     		bx	lr
 951              	.LVL130:
 952              	.L68:
 380:lvgl\src\lv_misc/lv_ll.c **** }
 953              		.loc 1 380 0
 954 0012 0020     		movs	r0, #0
 955              	.LVL131:
 956 0014 7047     		bx	lr
 957              	.LVL132:
 958              	.L69:
 378:lvgl\src\lv_misc/lv_ll.c **** 
 959              		.loc 1 378 0
 960 0016 0120     		movs	r0, #1
 961              	.LVL133:
 381:lvgl\src\lv_misc/lv_ll.c **** 
 962              		.loc 1 381 0
 963 0018 7047     		bx	lr
 964              		.cfi_endproc
 965              	.LFE14:
 966              		.size	_lv_ll_is_empty, .-_lv_ll_is_empty
 967 001a 00BF     		.text
 968              	.Letext0:
 969              		.file 2 "c:\\program files (x86)\\cypress\\psoc creator\\4.4\\psoc creator\\import\\gnu\\arm\\5.4.
 970              		.file 3 "c:\\program files (x86)\\cypress\\psoc creator\\4.4\\psoc creator\\import\\gnu\\arm\\5.4.
 971              		.file 4 "lvgl\\src\\lv_misc\\lv_ll.h"
 972              		.file 5 "lvgl\\src\\lv_misc\\lv_mem.h"
ARM GAS  C:\Users\strap\AppData\Local\Temp\ccO1095g.s 			page 28

