ARM GAS  C:\Users\strap\AppData\Local\Temp\ccjJjp6v.s 			page 1


   1              		.syntax unified
   2              		.cpu cortex-m3
   3              		.fpu softvfp
   4              		.eabi_attribute 20, 1
   5              		.eabi_attribute 21, 1
   6              		.eabi_attribute 23, 3
   7              		.eabi_attribute 24, 1
   8              		.eabi_attribute 25, 1
   9              		.eabi_attribute 26, 1
  10              		.eabi_attribute 30, 1
  11              		.eabi_attribute 34, 1
  12              		.eabi_attribute 18, 4
  13              		.thumb
  14              		.syntax unified
  15              		.file	"lv_mem.c"
  16              		.text
  17              	.Ltext0:
  18              		.cfi_sections	.debug_frame
  19              		.section	.text.ent_get_next,"ax",%progbits
  20              		.align	2
  21              		.thumb
  22              		.thumb_func
  23              		.type	ent_get_next, %function
  24              	ent_get_next:
  25              	.LFB53:
  26              		.file 1 "lvgl\\src\\lv_misc\\lv_mem.c"
   1:lvgl\src\lv_misc/lv_mem.c **** /**
   2:lvgl\src\lv_misc/lv_mem.c ****  * @file lv_mem.c
   3:lvgl\src\lv_misc/lv_mem.c ****  * General and portable implementation of malloc and free.
   4:lvgl\src\lv_misc/lv_mem.c ****  * The dynamic memory monitoring is also supported.
   5:lvgl\src\lv_misc/lv_mem.c ****  */
   6:lvgl\src\lv_misc/lv_mem.c **** 
   7:lvgl\src\lv_misc/lv_mem.c **** /*********************
   8:lvgl\src\lv_misc/lv_mem.c ****  *      INCLUDES
   9:lvgl\src\lv_misc/lv_mem.c ****  *********************/
  10:lvgl\src\lv_misc/lv_mem.c **** #include "lv_mem.h"
  11:lvgl\src\lv_misc/lv_mem.c **** #include "lv_math.h"
  12:lvgl\src\lv_misc/lv_mem.c **** #include "lv_gc.h"
  13:lvgl\src\lv_misc/lv_mem.c **** #include <string.h>
  14:lvgl\src\lv_misc/lv_mem.c **** 
  15:lvgl\src\lv_misc/lv_mem.c **** #if LV_MEM_CUSTOM != 0
  16:lvgl\src\lv_misc/lv_mem.c ****     #include LV_MEM_CUSTOM_INCLUDE
  17:lvgl\src\lv_misc/lv_mem.c **** #endif
  18:lvgl\src\lv_misc/lv_mem.c **** 
  19:lvgl\src\lv_misc/lv_mem.c **** #if defined(LV_GC_INCLUDE)
  20:lvgl\src\lv_misc/lv_mem.c ****     #include LV_GC_INCLUDE
  21:lvgl\src\lv_misc/lv_mem.c **** #endif /* LV_ENABLE_GC */
  22:lvgl\src\lv_misc/lv_mem.c **** 
  23:lvgl\src\lv_misc/lv_mem.c **** /*********************
  24:lvgl\src\lv_misc/lv_mem.c ****  *      DEFINES
  25:lvgl\src\lv_misc/lv_mem.c ****  *********************/
  26:lvgl\src\lv_misc/lv_mem.c **** /*Add memory junk on alloc (0xaa) and free(0xbb) (just for testing purposes)*/
  27:lvgl\src\lv_misc/lv_mem.c **** #ifndef LV_MEM_ADD_JUNK
  28:lvgl\src\lv_misc/lv_mem.c ****     #define LV_MEM_ADD_JUNK 0
  29:lvgl\src\lv_misc/lv_mem.c **** #endif
  30:lvgl\src\lv_misc/lv_mem.c **** 
  31:lvgl\src\lv_misc/lv_mem.c **** #ifndef LV_MEM_FULL_DEFRAG_CNT
ARM GAS  C:\Users\strap\AppData\Local\Temp\ccjJjp6v.s 			page 2


  32:lvgl\src\lv_misc/lv_mem.c ****     #define LV_MEM_FULL_DEFRAG_CNT 16
  33:lvgl\src\lv_misc/lv_mem.c **** #endif
  34:lvgl\src\lv_misc/lv_mem.c **** 
  35:lvgl\src\lv_misc/lv_mem.c **** #ifdef LV_ARCH_64
  36:lvgl\src\lv_misc/lv_mem.c ****     #define MEM_UNIT uint64_t
  37:lvgl\src\lv_misc/lv_mem.c **** #else
  38:lvgl\src\lv_misc/lv_mem.c ****     #define MEM_UNIT uint32_t
  39:lvgl\src\lv_misc/lv_mem.c **** #endif
  40:lvgl\src\lv_misc/lv_mem.c **** 
  41:lvgl\src\lv_misc/lv_mem.c **** /**********************
  42:lvgl\src\lv_misc/lv_mem.c ****  *      TYPEDEFS
  43:lvgl\src\lv_misc/lv_mem.c ****  **********************/
  44:lvgl\src\lv_misc/lv_mem.c **** 
  45:lvgl\src\lv_misc/lv_mem.c **** #if LV_ENABLE_GC == 0 /*gc custom allocations must not include header*/
  46:lvgl\src\lv_misc/lv_mem.c **** 
  47:lvgl\src\lv_misc/lv_mem.c **** /*The size of this union must be 4 bytes (uint32_t)*/
  48:lvgl\src\lv_misc/lv_mem.c **** typedef union {
  49:lvgl\src\lv_misc/lv_mem.c ****     struct {
  50:lvgl\src\lv_misc/lv_mem.c ****         MEM_UNIT used : 1;    /* 1: if the entry is used*/
  51:lvgl\src\lv_misc/lv_mem.c ****         MEM_UNIT d_size : 31; /* Size off the data (1 means 4 bytes)*/
  52:lvgl\src\lv_misc/lv_mem.c ****     } s;
  53:lvgl\src\lv_misc/lv_mem.c ****     MEM_UNIT header; /* The header (used + d_size)*/
  54:lvgl\src\lv_misc/lv_mem.c **** } lv_mem_header_t;
  55:lvgl\src\lv_misc/lv_mem.c **** 
  56:lvgl\src\lv_misc/lv_mem.c **** typedef struct {
  57:lvgl\src\lv_misc/lv_mem.c ****     lv_mem_header_t header;
  58:lvgl\src\lv_misc/lv_mem.c ****     uint8_t first_data; /*First data byte in the allocated data (Just for easily create a pointer)*
  59:lvgl\src\lv_misc/lv_mem.c **** } lv_mem_ent_t;
  60:lvgl\src\lv_misc/lv_mem.c **** 
  61:lvgl\src\lv_misc/lv_mem.c **** #endif /* LV_ENABLE_GC */
  62:lvgl\src\lv_misc/lv_mem.c **** 
  63:lvgl\src\lv_misc/lv_mem.c **** #ifdef LV_ARCH_64
  64:lvgl\src\lv_misc/lv_mem.c ****     #define ALIGN_MASK  0x7
  65:lvgl\src\lv_misc/lv_mem.c **** #else
  66:lvgl\src\lv_misc/lv_mem.c ****     #define ALIGN_MASK  0x3
  67:lvgl\src\lv_misc/lv_mem.c **** #endif
  68:lvgl\src\lv_misc/lv_mem.c **** 
  69:lvgl\src\lv_misc/lv_mem.c **** #define MEM_BUF_SMALL_SIZE 16
  70:lvgl\src\lv_misc/lv_mem.c **** 
  71:lvgl\src\lv_misc/lv_mem.c **** /**********************
  72:lvgl\src\lv_misc/lv_mem.c ****  *  STATIC PROTOTYPES
  73:lvgl\src\lv_misc/lv_mem.c ****  **********************/
  74:lvgl\src\lv_misc/lv_mem.c **** #if LV_MEM_CUSTOM == 0
  75:lvgl\src\lv_misc/lv_mem.c ****     static lv_mem_ent_t * ent_get_next(lv_mem_ent_t * act_e);
  76:lvgl\src\lv_misc/lv_mem.c ****     static void * ent_alloc(lv_mem_ent_t * e, size_t size);
  77:lvgl\src\lv_misc/lv_mem.c ****     static void ent_trunc(lv_mem_ent_t * e, size_t size);
  78:lvgl\src\lv_misc/lv_mem.c **** #endif
  79:lvgl\src\lv_misc/lv_mem.c **** 
  80:lvgl\src\lv_misc/lv_mem.c **** /**********************
  81:lvgl\src\lv_misc/lv_mem.c ****  *  STATIC VARIABLES
  82:lvgl\src\lv_misc/lv_mem.c ****  **********************/
  83:lvgl\src\lv_misc/lv_mem.c **** #if LV_MEM_CUSTOM == 0
  84:lvgl\src\lv_misc/lv_mem.c ****     static uint8_t * work_mem;
  85:lvgl\src\lv_misc/lv_mem.c **** #endif
  86:lvgl\src\lv_misc/lv_mem.c **** 
  87:lvgl\src\lv_misc/lv_mem.c **** static uint32_t zero_mem; /*Give the address of this variable if 0 byte should be allocated*/
  88:lvgl\src\lv_misc/lv_mem.c **** 
ARM GAS  C:\Users\strap\AppData\Local\Temp\ccjJjp6v.s 			page 3


  89:lvgl\src\lv_misc/lv_mem.c **** #if LV_MEM_CUSTOM == 0
  90:lvgl\src\lv_misc/lv_mem.c ****     static uint32_t mem_max_size; /*Tracks the maximum total size of memory ever used from the inte
  91:lvgl\src\lv_misc/lv_mem.c **** #endif
  92:lvgl\src\lv_misc/lv_mem.c **** 
  93:lvgl\src\lv_misc/lv_mem.c **** static uint8_t mem_buf1_32[MEM_BUF_SMALL_SIZE];
  94:lvgl\src\lv_misc/lv_mem.c **** static uint8_t mem_buf2_32[MEM_BUF_SMALL_SIZE];
  95:lvgl\src\lv_misc/lv_mem.c **** 
  96:lvgl\src\lv_misc/lv_mem.c **** static lv_mem_buf_t mem_buf_small[] = {{.p = mem_buf1_32, .size = MEM_BUF_SMALL_SIZE, .used = 0},
  97:lvgl\src\lv_misc/lv_mem.c ****     {.p = mem_buf2_32, .size = MEM_BUF_SMALL_SIZE, .used = 0}
  98:lvgl\src\lv_misc/lv_mem.c **** };
  99:lvgl\src\lv_misc/lv_mem.c **** 
 100:lvgl\src\lv_misc/lv_mem.c **** /**********************
 101:lvgl\src\lv_misc/lv_mem.c ****  *      MACROS
 102:lvgl\src\lv_misc/lv_mem.c ****  **********************/
 103:lvgl\src\lv_misc/lv_mem.c **** 
 104:lvgl\src\lv_misc/lv_mem.c **** #define COPY32 *d32 = *s32; d32++; s32++;
 105:lvgl\src\lv_misc/lv_mem.c **** #define COPY8 *d8 = *s8; d8++; s8++;
 106:lvgl\src\lv_misc/lv_mem.c **** #define SET32(x) *d32 = x; d32++;
 107:lvgl\src\lv_misc/lv_mem.c **** #define REPEAT8(expr) expr expr expr expr expr expr expr expr
 108:lvgl\src\lv_misc/lv_mem.c **** 
 109:lvgl\src\lv_misc/lv_mem.c **** /**********************
 110:lvgl\src\lv_misc/lv_mem.c ****  *   GLOBAL FUNCTIONS
 111:lvgl\src\lv_misc/lv_mem.c ****  **********************/
 112:lvgl\src\lv_misc/lv_mem.c **** 
 113:lvgl\src\lv_misc/lv_mem.c **** /**
 114:lvgl\src\lv_misc/lv_mem.c ****  * Initialize the dyn_mem module (work memory and other variables)
 115:lvgl\src\lv_misc/lv_mem.c ****  */
 116:lvgl\src\lv_misc/lv_mem.c **** void _lv_mem_init(void)
 117:lvgl\src\lv_misc/lv_mem.c **** {
 118:lvgl\src\lv_misc/lv_mem.c **** #if LV_MEM_CUSTOM == 0
 119:lvgl\src\lv_misc/lv_mem.c **** 
 120:lvgl\src\lv_misc/lv_mem.c **** #if LV_MEM_ADR == 0
 121:lvgl\src\lv_misc/lv_mem.c ****     /*Allocate a large array to store the dynamically allocated data*/
 122:lvgl\src\lv_misc/lv_mem.c ****     static LV_MEM_ATTR MEM_UNIT work_mem_int[LV_MEM_SIZE / sizeof(MEM_UNIT)];
 123:lvgl\src\lv_misc/lv_mem.c ****     work_mem = (uint8_t *)work_mem_int;
 124:lvgl\src\lv_misc/lv_mem.c ****     mem_max_size = 0;
 125:lvgl\src\lv_misc/lv_mem.c **** #else
 126:lvgl\src\lv_misc/lv_mem.c ****     work_mem = (uint8_t *)LV_MEM_ADR;
 127:lvgl\src\lv_misc/lv_mem.c **** #endif
 128:lvgl\src\lv_misc/lv_mem.c **** 
 129:lvgl\src\lv_misc/lv_mem.c ****     lv_mem_ent_t * full = (lv_mem_ent_t *)work_mem;
 130:lvgl\src\lv_misc/lv_mem.c ****     full->header.s.used = 0;
 131:lvgl\src\lv_misc/lv_mem.c ****     /*The total mem size id reduced by the first header and the close patterns */
 132:lvgl\src\lv_misc/lv_mem.c ****     full->header.s.d_size = LV_MEM_SIZE - sizeof(lv_mem_header_t);
 133:lvgl\src\lv_misc/lv_mem.c **** #endif
 134:lvgl\src\lv_misc/lv_mem.c **** }
 135:lvgl\src\lv_misc/lv_mem.c **** 
 136:lvgl\src\lv_misc/lv_mem.c **** /**
 137:lvgl\src\lv_misc/lv_mem.c ****  * Clean up the memory buffer which frees all the allocated memories.
 138:lvgl\src\lv_misc/lv_mem.c ****  * @note It work only if `LV_MEM_CUSTOM == 0`
 139:lvgl\src\lv_misc/lv_mem.c ****  */
 140:lvgl\src\lv_misc/lv_mem.c **** void _lv_mem_deinit(void)
 141:lvgl\src\lv_misc/lv_mem.c **** {
 142:lvgl\src\lv_misc/lv_mem.c **** #if LV_MEM_CUSTOM == 0
 143:lvgl\src\lv_misc/lv_mem.c ****     _lv_memset_00(work_mem, (LV_MEM_SIZE / sizeof(MEM_UNIT)) * sizeof(MEM_UNIT));
 144:lvgl\src\lv_misc/lv_mem.c ****     lv_mem_ent_t * full = (lv_mem_ent_t *)work_mem;
 145:lvgl\src\lv_misc/lv_mem.c ****     full->header.s.used = 0;
ARM GAS  C:\Users\strap\AppData\Local\Temp\ccjJjp6v.s 			page 4


 146:lvgl\src\lv_misc/lv_mem.c ****     /*The total mem size id reduced by the first header and the close patterns */
 147:lvgl\src\lv_misc/lv_mem.c ****     full->header.s.d_size = LV_MEM_SIZE - sizeof(lv_mem_header_t);
 148:lvgl\src\lv_misc/lv_mem.c **** #endif
 149:lvgl\src\lv_misc/lv_mem.c **** }
 150:lvgl\src\lv_misc/lv_mem.c **** 
 151:lvgl\src\lv_misc/lv_mem.c **** /**
 152:lvgl\src\lv_misc/lv_mem.c ****  * Allocate a memory dynamically
 153:lvgl\src\lv_misc/lv_mem.c ****  * @param size size of the memory to allocate in bytes
 154:lvgl\src\lv_misc/lv_mem.c ****  * @return pointer to the allocated memory
 155:lvgl\src\lv_misc/lv_mem.c ****  */
 156:lvgl\src\lv_misc/lv_mem.c **** void * lv_mem_alloc(size_t size)
 157:lvgl\src\lv_misc/lv_mem.c **** {
 158:lvgl\src\lv_misc/lv_mem.c ****     if(size == 0) {
 159:lvgl\src\lv_misc/lv_mem.c ****         return &zero_mem;
 160:lvgl\src\lv_misc/lv_mem.c ****     }
 161:lvgl\src\lv_misc/lv_mem.c **** 
 162:lvgl\src\lv_misc/lv_mem.c **** #ifdef LV_ARCH_64
 163:lvgl\src\lv_misc/lv_mem.c ****     /*Round the size up to 8*/
 164:lvgl\src\lv_misc/lv_mem.c ****     size = (size + 7) & (~0x7);
 165:lvgl\src\lv_misc/lv_mem.c **** #else
 166:lvgl\src\lv_misc/lv_mem.c ****     /*Round the size up to 4*/
 167:lvgl\src\lv_misc/lv_mem.c ****     size = (size + 3) & (~0x3);
 168:lvgl\src\lv_misc/lv_mem.c **** #endif
 169:lvgl\src\lv_misc/lv_mem.c ****     void * alloc = NULL;
 170:lvgl\src\lv_misc/lv_mem.c **** 
 171:lvgl\src\lv_misc/lv_mem.c **** #if LV_MEM_CUSTOM == 0
 172:lvgl\src\lv_misc/lv_mem.c ****     /*Use the built-in allocators*/
 173:lvgl\src\lv_misc/lv_mem.c ****     lv_mem_ent_t * e = NULL;
 174:lvgl\src\lv_misc/lv_mem.c **** 
 175:lvgl\src\lv_misc/lv_mem.c ****     /* Search for a appropriate entry*/
 176:lvgl\src\lv_misc/lv_mem.c ****     do {
 177:lvgl\src\lv_misc/lv_mem.c ****         /* Get the next entry*/
 178:lvgl\src\lv_misc/lv_mem.c ****         e = ent_get_next(e);
 179:lvgl\src\lv_misc/lv_mem.c **** 
 180:lvgl\src\lv_misc/lv_mem.c ****         /*If there is next entry then try to allocate there*/
 181:lvgl\src\lv_misc/lv_mem.c ****         if(e != NULL) {
 182:lvgl\src\lv_misc/lv_mem.c ****             alloc = ent_alloc(e, size);
 183:lvgl\src\lv_misc/lv_mem.c ****         }
 184:lvgl\src\lv_misc/lv_mem.c ****         /* End if there is not next entry OR the alloc. is successful*/
 185:lvgl\src\lv_misc/lv_mem.c ****     } while(e != NULL && alloc == NULL);
 186:lvgl\src\lv_misc/lv_mem.c **** 
 187:lvgl\src\lv_misc/lv_mem.c **** #else
 188:lvgl\src\lv_misc/lv_mem.c ****     /*Use custom, user defined malloc function*/
 189:lvgl\src\lv_misc/lv_mem.c **** #if LV_ENABLE_GC == 1 /*gc must not include header*/
 190:lvgl\src\lv_misc/lv_mem.c ****     alloc = LV_MEM_CUSTOM_ALLOC(size);
 191:lvgl\src\lv_misc/lv_mem.c **** #else                 /* LV_ENABLE_GC */
 192:lvgl\src\lv_misc/lv_mem.c ****     /*Allocate a header too to store the size*/
 193:lvgl\src\lv_misc/lv_mem.c ****     alloc = LV_MEM_CUSTOM_ALLOC(size + sizeof(lv_mem_header_t));
 194:lvgl\src\lv_misc/lv_mem.c ****     if(alloc != NULL) {
 195:lvgl\src\lv_misc/lv_mem.c ****         ((lv_mem_ent_t *)alloc)->header.s.d_size = size;
 196:lvgl\src\lv_misc/lv_mem.c ****         ((lv_mem_ent_t *)alloc)->header.s.used   = 1;
 197:lvgl\src\lv_misc/lv_mem.c **** 
 198:lvgl\src\lv_misc/lv_mem.c ****         alloc = &((lv_mem_ent_t *)alloc)->first_data;
 199:lvgl\src\lv_misc/lv_mem.c ****     }
 200:lvgl\src\lv_misc/lv_mem.c **** #endif                /* LV_ENABLE_GC */
 201:lvgl\src\lv_misc/lv_mem.c **** #endif                /* LV_MEM_CUSTOM */
 202:lvgl\src\lv_misc/lv_mem.c **** 
ARM GAS  C:\Users\strap\AppData\Local\Temp\ccjJjp6v.s 			page 5


 203:lvgl\src\lv_misc/lv_mem.c **** #if LV_MEM_ADD_JUNK
 204:lvgl\src\lv_misc/lv_mem.c ****     if(alloc != NULL) _lv_memset(alloc, 0xaa, size);
 205:lvgl\src\lv_misc/lv_mem.c **** #endif
 206:lvgl\src\lv_misc/lv_mem.c **** 
 207:lvgl\src\lv_misc/lv_mem.c ****     if(alloc == NULL) {
 208:lvgl\src\lv_misc/lv_mem.c ****         LV_LOG_WARN("Couldn't allocate memory");
 209:lvgl\src\lv_misc/lv_mem.c ****     }
 210:lvgl\src\lv_misc/lv_mem.c ****     else {
 211:lvgl\src\lv_misc/lv_mem.c **** #if LV_MEM_CUSTOM == 0
 212:lvgl\src\lv_misc/lv_mem.c ****         /* just a safety check, should always be true */
 213:lvgl\src\lv_misc/lv_mem.c ****         if((uintptr_t) alloc > (uintptr_t) work_mem) {
 214:lvgl\src\lv_misc/lv_mem.c ****             if((((uintptr_t) alloc - (uintptr_t) work_mem) + size) > mem_max_size) {
 215:lvgl\src\lv_misc/lv_mem.c ****                 mem_max_size = ((uintptr_t) alloc - (uintptr_t) work_mem) + size;
 216:lvgl\src\lv_misc/lv_mem.c ****             }
 217:lvgl\src\lv_misc/lv_mem.c ****         }
 218:lvgl\src\lv_misc/lv_mem.c **** #endif
 219:lvgl\src\lv_misc/lv_mem.c ****     }
 220:lvgl\src\lv_misc/lv_mem.c **** 
 221:lvgl\src\lv_misc/lv_mem.c ****     return alloc;
 222:lvgl\src\lv_misc/lv_mem.c **** }
 223:lvgl\src\lv_misc/lv_mem.c **** 
 224:lvgl\src\lv_misc/lv_mem.c **** /**
 225:lvgl\src\lv_misc/lv_mem.c ****  * Free an allocated data
 226:lvgl\src\lv_misc/lv_mem.c ****  * @param data pointer to an allocated memory
 227:lvgl\src\lv_misc/lv_mem.c ****  */
 228:lvgl\src\lv_misc/lv_mem.c **** void lv_mem_free(const void * data)
 229:lvgl\src\lv_misc/lv_mem.c **** {
 230:lvgl\src\lv_misc/lv_mem.c ****     if(data == &zero_mem) return;
 231:lvgl\src\lv_misc/lv_mem.c ****     if(data == NULL) return;
 232:lvgl\src\lv_misc/lv_mem.c **** 
 233:lvgl\src\lv_misc/lv_mem.c **** #if LV_MEM_ADD_JUNK
 234:lvgl\src\lv_misc/lv_mem.c ****     _lv_memset((void *)data, 0xbb, _lv_mem_get_size(data));
 235:lvgl\src\lv_misc/lv_mem.c **** #endif
 236:lvgl\src\lv_misc/lv_mem.c **** 
 237:lvgl\src\lv_misc/lv_mem.c **** #if LV_ENABLE_GC == 0
 238:lvgl\src\lv_misc/lv_mem.c ****     /*e points to the header*/
 239:lvgl\src\lv_misc/lv_mem.c ****     lv_mem_ent_t * e = (lv_mem_ent_t *)((uint8_t *)data - sizeof(lv_mem_header_t));
 240:lvgl\src\lv_misc/lv_mem.c ****     e->header.s.used = 0;
 241:lvgl\src\lv_misc/lv_mem.c **** #endif
 242:lvgl\src\lv_misc/lv_mem.c **** 
 243:lvgl\src\lv_misc/lv_mem.c **** #if LV_MEM_CUSTOM == 0
 244:lvgl\src\lv_misc/lv_mem.c **** #if LV_MEM_AUTO_DEFRAG
 245:lvgl\src\lv_misc/lv_mem.c ****     static uint16_t full_defrag_cnt = 0;
 246:lvgl\src\lv_misc/lv_mem.c ****     full_defrag_cnt++;
 247:lvgl\src\lv_misc/lv_mem.c ****     if(full_defrag_cnt < LV_MEM_FULL_DEFRAG_CNT) {
 248:lvgl\src\lv_misc/lv_mem.c ****         /* Make a simple defrag.
 249:lvgl\src\lv_misc/lv_mem.c ****          * Join the following free entries after this*/
 250:lvgl\src\lv_misc/lv_mem.c ****         lv_mem_ent_t * e_next;
 251:lvgl\src\lv_misc/lv_mem.c ****         e_next = ent_get_next(e);
 252:lvgl\src\lv_misc/lv_mem.c ****         while(e_next != NULL) {
 253:lvgl\src\lv_misc/lv_mem.c ****             if(e_next->header.s.used == 0) {
 254:lvgl\src\lv_misc/lv_mem.c ****                 e->header.s.d_size += e_next->header.s.d_size + sizeof(e->header);
 255:lvgl\src\lv_misc/lv_mem.c ****             }
 256:lvgl\src\lv_misc/lv_mem.c ****             else {
 257:lvgl\src\lv_misc/lv_mem.c ****                 break;
 258:lvgl\src\lv_misc/lv_mem.c ****             }
 259:lvgl\src\lv_misc/lv_mem.c ****             e_next = ent_get_next(e_next);
ARM GAS  C:\Users\strap\AppData\Local\Temp\ccjJjp6v.s 			page 6


 260:lvgl\src\lv_misc/lv_mem.c ****         }
 261:lvgl\src\lv_misc/lv_mem.c ****     }
 262:lvgl\src\lv_misc/lv_mem.c ****     else {
 263:lvgl\src\lv_misc/lv_mem.c ****         full_defrag_cnt = 0;
 264:lvgl\src\lv_misc/lv_mem.c ****         lv_mem_defrag();
 265:lvgl\src\lv_misc/lv_mem.c **** 
 266:lvgl\src\lv_misc/lv_mem.c ****     }
 267:lvgl\src\lv_misc/lv_mem.c **** 
 268:lvgl\src\lv_misc/lv_mem.c **** 
 269:lvgl\src\lv_misc/lv_mem.c **** #endif /*LV_MEM_AUTO_DEFRAG*/
 270:lvgl\src\lv_misc/lv_mem.c **** #else /*Use custom, user defined free function*/
 271:lvgl\src\lv_misc/lv_mem.c **** #if LV_ENABLE_GC == 0
 272:lvgl\src\lv_misc/lv_mem.c ****     LV_MEM_CUSTOM_FREE(e);
 273:lvgl\src\lv_misc/lv_mem.c **** #else
 274:lvgl\src\lv_misc/lv_mem.c ****     LV_MEM_CUSTOM_FREE((void *)data);
 275:lvgl\src\lv_misc/lv_mem.c **** #endif /*LV_ENABLE_GC*/
 276:lvgl\src\lv_misc/lv_mem.c **** #endif
 277:lvgl\src\lv_misc/lv_mem.c **** }
 278:lvgl\src\lv_misc/lv_mem.c **** 
 279:lvgl\src\lv_misc/lv_mem.c **** /**
 280:lvgl\src\lv_misc/lv_mem.c ****  * Reallocate a memory with a new size. The old content will be kept.
 281:lvgl\src\lv_misc/lv_mem.c ****  * @param data pointer to an allocated memory.
 282:lvgl\src\lv_misc/lv_mem.c ****  * Its content will be copied to the new memory block and freed
 283:lvgl\src\lv_misc/lv_mem.c ****  * @param new_size the desired new size in byte
 284:lvgl\src\lv_misc/lv_mem.c ****  * @return pointer to the new memory
 285:lvgl\src\lv_misc/lv_mem.c ****  */
 286:lvgl\src\lv_misc/lv_mem.c **** 
 287:lvgl\src\lv_misc/lv_mem.c **** #if LV_ENABLE_GC == 0
 288:lvgl\src\lv_misc/lv_mem.c **** 
 289:lvgl\src\lv_misc/lv_mem.c **** void * lv_mem_realloc(void * data_p, size_t new_size)
 290:lvgl\src\lv_misc/lv_mem.c **** {
 291:lvgl\src\lv_misc/lv_mem.c **** 
 292:lvgl\src\lv_misc/lv_mem.c **** #ifdef LV_ARCH_64
 293:lvgl\src\lv_misc/lv_mem.c ****     /*Round the size up to 8*/
 294:lvgl\src\lv_misc/lv_mem.c ****     new_size = (new_size + 7) & (~0x7);
 295:lvgl\src\lv_misc/lv_mem.c **** #else
 296:lvgl\src\lv_misc/lv_mem.c ****     /*Round the size up to 4*/
 297:lvgl\src\lv_misc/lv_mem.c ****     new_size = (new_size + 3) & (~0x3);
 298:lvgl\src\lv_misc/lv_mem.c **** #endif
 299:lvgl\src\lv_misc/lv_mem.c **** 
 300:lvgl\src\lv_misc/lv_mem.c ****     /*data_p could be previously freed pointer (in this case it is invalid)*/
 301:lvgl\src\lv_misc/lv_mem.c ****     if(data_p != NULL) {
 302:lvgl\src\lv_misc/lv_mem.c ****         lv_mem_ent_t * e = (lv_mem_ent_t *)((uint8_t *)data_p - sizeof(lv_mem_header_t));
 303:lvgl\src\lv_misc/lv_mem.c ****         if(e->header.s.used == 0) {
 304:lvgl\src\lv_misc/lv_mem.c ****             data_p = NULL;
 305:lvgl\src\lv_misc/lv_mem.c ****         }
 306:lvgl\src\lv_misc/lv_mem.c ****     }
 307:lvgl\src\lv_misc/lv_mem.c **** 
 308:lvgl\src\lv_misc/lv_mem.c ****     uint32_t old_size = _lv_mem_get_size(data_p);
 309:lvgl\src\lv_misc/lv_mem.c ****     if(old_size == new_size) return data_p; /*Also avoid reallocating the same memory*/
 310:lvgl\src\lv_misc/lv_mem.c **** 
 311:lvgl\src\lv_misc/lv_mem.c **** #if LV_MEM_CUSTOM == 0
 312:lvgl\src\lv_misc/lv_mem.c ****     /* Truncate the memory if the new size is smaller. */
 313:lvgl\src\lv_misc/lv_mem.c ****     if(new_size < old_size) {
 314:lvgl\src\lv_misc/lv_mem.c ****         lv_mem_ent_t * e = (lv_mem_ent_t *)((uint8_t *)data_p - sizeof(lv_mem_header_t));
 315:lvgl\src\lv_misc/lv_mem.c ****         ent_trunc(e, new_size);
 316:lvgl\src\lv_misc/lv_mem.c ****         return &e->first_data;
ARM GAS  C:\Users\strap\AppData\Local\Temp\ccjJjp6v.s 			page 7


 317:lvgl\src\lv_misc/lv_mem.c ****     }
 318:lvgl\src\lv_misc/lv_mem.c **** #endif
 319:lvgl\src\lv_misc/lv_mem.c **** 
 320:lvgl\src\lv_misc/lv_mem.c ****     void * new_p;
 321:lvgl\src\lv_misc/lv_mem.c ****     new_p = lv_mem_alloc(new_size);
 322:lvgl\src\lv_misc/lv_mem.c ****     if(new_p == NULL) {
 323:lvgl\src\lv_misc/lv_mem.c ****         LV_LOG_WARN("Couldn't allocate memory");
 324:lvgl\src\lv_misc/lv_mem.c ****         return NULL;
 325:lvgl\src\lv_misc/lv_mem.c ****     }
 326:lvgl\src\lv_misc/lv_mem.c **** 
 327:lvgl\src\lv_misc/lv_mem.c ****     if(data_p != NULL) {
 328:lvgl\src\lv_misc/lv_mem.c ****         /*Copy the old data to the new. Use the smaller size*/
 329:lvgl\src\lv_misc/lv_mem.c ****         if(old_size != 0) {
 330:lvgl\src\lv_misc/lv_mem.c ****             _lv_memcpy(new_p, data_p, LV_MATH_MIN(new_size, old_size));
 331:lvgl\src\lv_misc/lv_mem.c ****             lv_mem_free(data_p);
 332:lvgl\src\lv_misc/lv_mem.c ****         }
 333:lvgl\src\lv_misc/lv_mem.c ****     }
 334:lvgl\src\lv_misc/lv_mem.c **** 
 335:lvgl\src\lv_misc/lv_mem.c **** 
 336:lvgl\src\lv_misc/lv_mem.c ****     return new_p;
 337:lvgl\src\lv_misc/lv_mem.c **** }
 338:lvgl\src\lv_misc/lv_mem.c **** 
 339:lvgl\src\lv_misc/lv_mem.c **** #else /* LV_ENABLE_GC */
 340:lvgl\src\lv_misc/lv_mem.c **** 
 341:lvgl\src\lv_misc/lv_mem.c **** void * lv_mem_realloc(void * data_p, size_t new_size)
 342:lvgl\src\lv_misc/lv_mem.c **** {
 343:lvgl\src\lv_misc/lv_mem.c ****     void * new_p = LV_MEM_CUSTOM_REALLOC(data_p, new_size);
 344:lvgl\src\lv_misc/lv_mem.c ****     if(new_p == NULL) LV_LOG_WARN("Couldn't allocate memory");
 345:lvgl\src\lv_misc/lv_mem.c ****     return new_p;
 346:lvgl\src\lv_misc/lv_mem.c **** }
 347:lvgl\src\lv_misc/lv_mem.c **** 
 348:lvgl\src\lv_misc/lv_mem.c **** #endif /* lv_enable_gc */
 349:lvgl\src\lv_misc/lv_mem.c **** 
 350:lvgl\src\lv_misc/lv_mem.c **** /**
 351:lvgl\src\lv_misc/lv_mem.c ****  * Join the adjacent free memory blocks
 352:lvgl\src\lv_misc/lv_mem.c ****  */
 353:lvgl\src\lv_misc/lv_mem.c **** void lv_mem_defrag(void)
 354:lvgl\src\lv_misc/lv_mem.c **** {
 355:lvgl\src\lv_misc/lv_mem.c **** #if LV_MEM_CUSTOM == 0
 356:lvgl\src\lv_misc/lv_mem.c ****     lv_mem_ent_t * e_free;
 357:lvgl\src\lv_misc/lv_mem.c ****     lv_mem_ent_t * e_next;
 358:lvgl\src\lv_misc/lv_mem.c ****     e_free = ent_get_next(NULL);
 359:lvgl\src\lv_misc/lv_mem.c **** 
 360:lvgl\src\lv_misc/lv_mem.c ****     while(1) {
 361:lvgl\src\lv_misc/lv_mem.c ****         /*Search the next free entry*/
 362:lvgl\src\lv_misc/lv_mem.c ****         while(e_free != NULL) {
 363:lvgl\src\lv_misc/lv_mem.c ****             if(e_free->header.s.used != 0) {
 364:lvgl\src\lv_misc/lv_mem.c ****                 e_free = ent_get_next(e_free);
 365:lvgl\src\lv_misc/lv_mem.c ****             }
 366:lvgl\src\lv_misc/lv_mem.c ****             else {
 367:lvgl\src\lv_misc/lv_mem.c ****                 break;
 368:lvgl\src\lv_misc/lv_mem.c ****             }
 369:lvgl\src\lv_misc/lv_mem.c ****         }
 370:lvgl\src\lv_misc/lv_mem.c **** 
 371:lvgl\src\lv_misc/lv_mem.c ****         if(e_free == NULL) return;
 372:lvgl\src\lv_misc/lv_mem.c **** 
 373:lvgl\src\lv_misc/lv_mem.c ****         /*Joint the following free entries to the free*/
ARM GAS  C:\Users\strap\AppData\Local\Temp\ccjJjp6v.s 			page 8


 374:lvgl\src\lv_misc/lv_mem.c ****         e_next = ent_get_next(e_free);
 375:lvgl\src\lv_misc/lv_mem.c ****         while(e_next != NULL) {
 376:lvgl\src\lv_misc/lv_mem.c ****             if(e_next->header.s.used == 0) {
 377:lvgl\src\lv_misc/lv_mem.c ****                 e_free->header.s.d_size += e_next->header.s.d_size + sizeof(e_next->header);
 378:lvgl\src\lv_misc/lv_mem.c ****             }
 379:lvgl\src\lv_misc/lv_mem.c ****             else {
 380:lvgl\src\lv_misc/lv_mem.c ****                 break;
 381:lvgl\src\lv_misc/lv_mem.c ****             }
 382:lvgl\src\lv_misc/lv_mem.c **** 
 383:lvgl\src\lv_misc/lv_mem.c ****             e_next = ent_get_next(e_next);
 384:lvgl\src\lv_misc/lv_mem.c ****         }
 385:lvgl\src\lv_misc/lv_mem.c **** 
 386:lvgl\src\lv_misc/lv_mem.c ****         if(e_next == NULL) return;
 387:lvgl\src\lv_misc/lv_mem.c **** 
 388:lvgl\src\lv_misc/lv_mem.c ****         /*Continue from the lastly checked entry*/
 389:lvgl\src\lv_misc/lv_mem.c ****         e_free = e_next;
 390:lvgl\src\lv_misc/lv_mem.c ****     }
 391:lvgl\src\lv_misc/lv_mem.c **** #endif
 392:lvgl\src\lv_misc/lv_mem.c **** }
 393:lvgl\src\lv_misc/lv_mem.c **** 
 394:lvgl\src\lv_misc/lv_mem.c **** lv_res_t lv_mem_test(void)
 395:lvgl\src\lv_misc/lv_mem.c **** {
 396:lvgl\src\lv_misc/lv_mem.c **** #if LV_MEM_CUSTOM == 0
 397:lvgl\src\lv_misc/lv_mem.c ****     lv_mem_ent_t * e;
 398:lvgl\src\lv_misc/lv_mem.c ****     e = ent_get_next(NULL);
 399:lvgl\src\lv_misc/lv_mem.c ****     while(e) {
 400:lvgl\src\lv_misc/lv_mem.c ****         if(e->header.s.d_size > LV_MEM_SIZE) {
 401:lvgl\src\lv_misc/lv_mem.c ****             return LV_RES_INV;
 402:lvgl\src\lv_misc/lv_mem.c ****         }
 403:lvgl\src\lv_misc/lv_mem.c ****         uint8_t * e8 = (uint8_t *) e;
 404:lvgl\src\lv_misc/lv_mem.c ****         if(e8 + e->header.s.d_size > work_mem + LV_MEM_SIZE) {
 405:lvgl\src\lv_misc/lv_mem.c ****             return LV_RES_INV;
 406:lvgl\src\lv_misc/lv_mem.c ****         }
 407:lvgl\src\lv_misc/lv_mem.c ****         e = ent_get_next(e);
 408:lvgl\src\lv_misc/lv_mem.c ****     }
 409:lvgl\src\lv_misc/lv_mem.c **** #endif
 410:lvgl\src\lv_misc/lv_mem.c ****     return LV_RES_OK;
 411:lvgl\src\lv_misc/lv_mem.c **** }
 412:lvgl\src\lv_misc/lv_mem.c **** 
 413:lvgl\src\lv_misc/lv_mem.c **** /**
 414:lvgl\src\lv_misc/lv_mem.c ****  * Give information about the work memory of dynamic allocation
 415:lvgl\src\lv_misc/lv_mem.c ****  * @param mon_p pointer to a dm_mon_p variable,
 416:lvgl\src\lv_misc/lv_mem.c ****  *              the result of the analysis will be stored here
 417:lvgl\src\lv_misc/lv_mem.c ****  */
 418:lvgl\src\lv_misc/lv_mem.c **** void lv_mem_monitor(lv_mem_monitor_t * mon_p)
 419:lvgl\src\lv_misc/lv_mem.c **** {
 420:lvgl\src\lv_misc/lv_mem.c ****     /*Init the data*/
 421:lvgl\src\lv_misc/lv_mem.c ****     _lv_memset(mon_p, 0, sizeof(lv_mem_monitor_t));
 422:lvgl\src\lv_misc/lv_mem.c **** #if LV_MEM_CUSTOM == 0
 423:lvgl\src\lv_misc/lv_mem.c ****     lv_mem_ent_t * e;
 424:lvgl\src\lv_misc/lv_mem.c ****     e = NULL;
 425:lvgl\src\lv_misc/lv_mem.c **** 
 426:lvgl\src\lv_misc/lv_mem.c ****     e = ent_get_next(e);
 427:lvgl\src\lv_misc/lv_mem.c **** 
 428:lvgl\src\lv_misc/lv_mem.c ****     while(e != NULL) {
 429:lvgl\src\lv_misc/lv_mem.c ****         if(e->header.s.used == 0) {
 430:lvgl\src\lv_misc/lv_mem.c ****             mon_p->free_cnt++;
ARM GAS  C:\Users\strap\AppData\Local\Temp\ccjJjp6v.s 			page 9


 431:lvgl\src\lv_misc/lv_mem.c ****             mon_p->free_size += e->header.s.d_size;
 432:lvgl\src\lv_misc/lv_mem.c ****             if(e->header.s.d_size > mon_p->free_biggest_size) {
 433:lvgl\src\lv_misc/lv_mem.c ****                 mon_p->free_biggest_size = e->header.s.d_size;
 434:lvgl\src\lv_misc/lv_mem.c ****             }
 435:lvgl\src\lv_misc/lv_mem.c ****         }
 436:lvgl\src\lv_misc/lv_mem.c ****         else {
 437:lvgl\src\lv_misc/lv_mem.c ****             mon_p->used_cnt++;
 438:lvgl\src\lv_misc/lv_mem.c ****         }
 439:lvgl\src\lv_misc/lv_mem.c **** 
 440:lvgl\src\lv_misc/lv_mem.c ****         e = ent_get_next(e);
 441:lvgl\src\lv_misc/lv_mem.c ****     }
 442:lvgl\src\lv_misc/lv_mem.c ****     mon_p->total_size = LV_MEM_SIZE;
 443:lvgl\src\lv_misc/lv_mem.c ****     mon_p->max_used = mem_max_size;
 444:lvgl\src\lv_misc/lv_mem.c ****     mon_p->used_pct   = 100 - (100U * mon_p->free_size) / mon_p->total_size;
 445:lvgl\src\lv_misc/lv_mem.c ****     if(mon_p->free_size > 0) {
 446:lvgl\src\lv_misc/lv_mem.c ****         mon_p->frag_pct   = (uint32_t)mon_p->free_biggest_size * 100U / mon_p->free_size;
 447:lvgl\src\lv_misc/lv_mem.c ****         mon_p->frag_pct   = 100 - mon_p->frag_pct;
 448:lvgl\src\lv_misc/lv_mem.c ****     }
 449:lvgl\src\lv_misc/lv_mem.c ****     else {
 450:lvgl\src\lv_misc/lv_mem.c ****         mon_p->frag_pct   = 0; /*no fragmentation if all the RAM is used*/
 451:lvgl\src\lv_misc/lv_mem.c ****     }
 452:lvgl\src\lv_misc/lv_mem.c **** #endif
 453:lvgl\src\lv_misc/lv_mem.c **** }
 454:lvgl\src\lv_misc/lv_mem.c **** 
 455:lvgl\src\lv_misc/lv_mem.c **** /**
 456:lvgl\src\lv_misc/lv_mem.c ****  * Give the size of an allocated memory
 457:lvgl\src\lv_misc/lv_mem.c ****  * @param data pointer to an allocated memory
 458:lvgl\src\lv_misc/lv_mem.c ****  * @return the size of data memory in bytes
 459:lvgl\src\lv_misc/lv_mem.c ****  */
 460:lvgl\src\lv_misc/lv_mem.c **** 
 461:lvgl\src\lv_misc/lv_mem.c **** #if LV_ENABLE_GC == 0
 462:lvgl\src\lv_misc/lv_mem.c **** 
 463:lvgl\src\lv_misc/lv_mem.c **** uint32_t _lv_mem_get_size(const void * data)
 464:lvgl\src\lv_misc/lv_mem.c **** {
 465:lvgl\src\lv_misc/lv_mem.c ****     if(data == NULL) return 0;
 466:lvgl\src\lv_misc/lv_mem.c ****     if(data == &zero_mem) return 0;
 467:lvgl\src\lv_misc/lv_mem.c **** 
 468:lvgl\src\lv_misc/lv_mem.c ****     lv_mem_ent_t * e = (lv_mem_ent_t *)((uint8_t *)data - sizeof(lv_mem_header_t));
 469:lvgl\src\lv_misc/lv_mem.c **** 
 470:lvgl\src\lv_misc/lv_mem.c ****     return e->header.s.d_size;
 471:lvgl\src\lv_misc/lv_mem.c **** }
 472:lvgl\src\lv_misc/lv_mem.c **** 
 473:lvgl\src\lv_misc/lv_mem.c **** #else /* LV_ENABLE_GC */
 474:lvgl\src\lv_misc/lv_mem.c **** 
 475:lvgl\src\lv_misc/lv_mem.c **** uint32_t _lv_mem_get_size(const void * data)
 476:lvgl\src\lv_misc/lv_mem.c **** {
 477:lvgl\src\lv_misc/lv_mem.c ****     return LV_MEM_CUSTOM_GET_SIZE(data);
 478:lvgl\src\lv_misc/lv_mem.c **** }
 479:lvgl\src\lv_misc/lv_mem.c **** 
 480:lvgl\src\lv_misc/lv_mem.c **** #endif /*LV_ENABLE_GC*/
 481:lvgl\src\lv_misc/lv_mem.c **** 
 482:lvgl\src\lv_misc/lv_mem.c **** /**
 483:lvgl\src\lv_misc/lv_mem.c ****  * Get a temporal buffer with the given size.
 484:lvgl\src\lv_misc/lv_mem.c ****  * @param size the required size
 485:lvgl\src\lv_misc/lv_mem.c ****  */
 486:lvgl\src\lv_misc/lv_mem.c **** void * _lv_mem_buf_get(uint32_t size)
 487:lvgl\src\lv_misc/lv_mem.c **** {
ARM GAS  C:\Users\strap\AppData\Local\Temp\ccjJjp6v.s 			page 10


 488:lvgl\src\lv_misc/lv_mem.c ****     if(size == 0) return NULL;
 489:lvgl\src\lv_misc/lv_mem.c **** 
 490:lvgl\src\lv_misc/lv_mem.c ****     /*Try small static buffers first*/
 491:lvgl\src\lv_misc/lv_mem.c ****     uint8_t i;
 492:lvgl\src\lv_misc/lv_mem.c ****     if(size <= MEM_BUF_SMALL_SIZE) {
 493:lvgl\src\lv_misc/lv_mem.c ****         for(i = 0; i < sizeof(mem_buf_small) / sizeof(mem_buf_small[0]); i++) {
 494:lvgl\src\lv_misc/lv_mem.c ****             if(mem_buf_small[i].used == 0) {
 495:lvgl\src\lv_misc/lv_mem.c ****                 mem_buf_small[i].used = 1;
 496:lvgl\src\lv_misc/lv_mem.c ****                 return mem_buf_small[i].p;
 497:lvgl\src\lv_misc/lv_mem.c ****             }
 498:lvgl\src\lv_misc/lv_mem.c ****         }
 499:lvgl\src\lv_misc/lv_mem.c ****     }
 500:lvgl\src\lv_misc/lv_mem.c **** 
 501:lvgl\src\lv_misc/lv_mem.c ****     /*Try to find a free buffer with suitable size */
 502:lvgl\src\lv_misc/lv_mem.c ****     int8_t i_guess = -1;
 503:lvgl\src\lv_misc/lv_mem.c ****     for(i = 0; i < LV_MEM_BUF_MAX_NUM; i++) {
 504:lvgl\src\lv_misc/lv_mem.c ****         if(LV_GC_ROOT(_lv_mem_buf[i]).used == 0 && LV_GC_ROOT(_lv_mem_buf[i]).size >= size) {
 505:lvgl\src\lv_misc/lv_mem.c ****             if(LV_GC_ROOT(_lv_mem_buf[i]).size == size) {
 506:lvgl\src\lv_misc/lv_mem.c ****                 LV_GC_ROOT(_lv_mem_buf[i]).used = 1;
 507:lvgl\src\lv_misc/lv_mem.c ****                 return LV_GC_ROOT(_lv_mem_buf[i]).p;
 508:lvgl\src\lv_misc/lv_mem.c ****             }
 509:lvgl\src\lv_misc/lv_mem.c ****             else if(i_guess < 0) {
 510:lvgl\src\lv_misc/lv_mem.c ****                 i_guess = i;
 511:lvgl\src\lv_misc/lv_mem.c ****             }
 512:lvgl\src\lv_misc/lv_mem.c ****             /*If size of `i` is closer to `size` prefer it*/
 513:lvgl\src\lv_misc/lv_mem.c ****             else if(LV_GC_ROOT(_lv_mem_buf[i]).size < LV_GC_ROOT(_lv_mem_buf[i_guess]).size) {
 514:lvgl\src\lv_misc/lv_mem.c ****                 i_guess = i;
 515:lvgl\src\lv_misc/lv_mem.c ****             }
 516:lvgl\src\lv_misc/lv_mem.c ****         }
 517:lvgl\src\lv_misc/lv_mem.c ****     }
 518:lvgl\src\lv_misc/lv_mem.c **** 
 519:lvgl\src\lv_misc/lv_mem.c ****     if(i_guess >= 0) {
 520:lvgl\src\lv_misc/lv_mem.c ****         LV_GC_ROOT(_lv_mem_buf[i_guess]).used = 1;
 521:lvgl\src\lv_misc/lv_mem.c ****         return LV_GC_ROOT(_lv_mem_buf[i_guess]).p;
 522:lvgl\src\lv_misc/lv_mem.c ****     }
 523:lvgl\src\lv_misc/lv_mem.c **** 
 524:lvgl\src\lv_misc/lv_mem.c **** 
 525:lvgl\src\lv_misc/lv_mem.c ****     /*Reallocate a free buffer*/
 526:lvgl\src\lv_misc/lv_mem.c ****     for(i = 0; i < LV_MEM_BUF_MAX_NUM; i++) {
 527:lvgl\src\lv_misc/lv_mem.c ****         if(LV_GC_ROOT(_lv_mem_buf[i]).used == 0) {
 528:lvgl\src\lv_misc/lv_mem.c ****             LV_GC_ROOT(_lv_mem_buf[i]).used = 1;
 529:lvgl\src\lv_misc/lv_mem.c ****             LV_GC_ROOT(_lv_mem_buf[i]).size = size;
 530:lvgl\src\lv_misc/lv_mem.c ****             /*if this fails you probably need to increase your LV_MEM_SIZE/heap size*/
 531:lvgl\src\lv_misc/lv_mem.c ****             LV_GC_ROOT(_lv_mem_buf[i]).p = lv_mem_realloc(LV_GC_ROOT(_lv_mem_buf[i]).p, size);
 532:lvgl\src\lv_misc/lv_mem.c ****             if(LV_GC_ROOT(_lv_mem_buf[i]).p == NULL) {
 533:lvgl\src\lv_misc/lv_mem.c ****                 LV_DEBUG_ASSERT(false, "Out of memory, can't allocate a new  buffer (increase your 
 534:lvgl\src\lv_misc/lv_mem.c ****             }
 535:lvgl\src\lv_misc/lv_mem.c ****             return  LV_GC_ROOT(_lv_mem_buf[i]).p;
 536:lvgl\src\lv_misc/lv_mem.c ****         }
 537:lvgl\src\lv_misc/lv_mem.c ****     }
 538:lvgl\src\lv_misc/lv_mem.c **** 
 539:lvgl\src\lv_misc/lv_mem.c ****     LV_DEBUG_ASSERT(false, "No free buffer. Increase LV_DRAW_BUF_MAX_NUM.", 0x00);
 540:lvgl\src\lv_misc/lv_mem.c ****     return NULL;
 541:lvgl\src\lv_misc/lv_mem.c **** }
 542:lvgl\src\lv_misc/lv_mem.c **** 
 543:lvgl\src\lv_misc/lv_mem.c **** /**
 544:lvgl\src\lv_misc/lv_mem.c ****  * Release a memory buffer
ARM GAS  C:\Users\strap\AppData\Local\Temp\ccjJjp6v.s 			page 11


 545:lvgl\src\lv_misc/lv_mem.c ****  * @param p buffer to release
 546:lvgl\src\lv_misc/lv_mem.c ****  */
 547:lvgl\src\lv_misc/lv_mem.c **** void _lv_mem_buf_release(void * p)
 548:lvgl\src\lv_misc/lv_mem.c **** {
 549:lvgl\src\lv_misc/lv_mem.c ****     uint8_t i;
 550:lvgl\src\lv_misc/lv_mem.c **** 
 551:lvgl\src\lv_misc/lv_mem.c ****     /*Try small static buffers first*/
 552:lvgl\src\lv_misc/lv_mem.c ****     for(i = 0; i < sizeof(mem_buf_small) / sizeof(mem_buf_small[0]); i++) {
 553:lvgl\src\lv_misc/lv_mem.c ****         if(mem_buf_small[i].p == p) {
 554:lvgl\src\lv_misc/lv_mem.c ****             mem_buf_small[i].used = 0;
 555:lvgl\src\lv_misc/lv_mem.c ****             return;
 556:lvgl\src\lv_misc/lv_mem.c ****         }
 557:lvgl\src\lv_misc/lv_mem.c ****     }
 558:lvgl\src\lv_misc/lv_mem.c **** 
 559:lvgl\src\lv_misc/lv_mem.c ****     for(i = 0; i < LV_MEM_BUF_MAX_NUM; i++) {
 560:lvgl\src\lv_misc/lv_mem.c ****         if(LV_GC_ROOT(_lv_mem_buf[i]).p == p) {
 561:lvgl\src\lv_misc/lv_mem.c ****             LV_GC_ROOT(_lv_mem_buf[i]).used = 0;
 562:lvgl\src\lv_misc/lv_mem.c ****             return;
 563:lvgl\src\lv_misc/lv_mem.c ****         }
 564:lvgl\src\lv_misc/lv_mem.c ****     }
 565:lvgl\src\lv_misc/lv_mem.c **** 
 566:lvgl\src\lv_misc/lv_mem.c ****     LV_LOG_ERROR("lv_mem_buf_release: p is not a known buffer")
 567:lvgl\src\lv_misc/lv_mem.c **** }
 568:lvgl\src\lv_misc/lv_mem.c **** 
 569:lvgl\src\lv_misc/lv_mem.c **** /**
 570:lvgl\src\lv_misc/lv_mem.c ****  * Free all memory buffers
 571:lvgl\src\lv_misc/lv_mem.c ****  */
 572:lvgl\src\lv_misc/lv_mem.c **** void _lv_mem_buf_free_all(void)
 573:lvgl\src\lv_misc/lv_mem.c **** {
 574:lvgl\src\lv_misc/lv_mem.c ****     uint8_t i;
 575:lvgl\src\lv_misc/lv_mem.c ****     for(i = 0; i < sizeof(mem_buf_small) / sizeof(mem_buf_small[0]); i++) {
 576:lvgl\src\lv_misc/lv_mem.c ****         mem_buf_small[i].used = 0;
 577:lvgl\src\lv_misc/lv_mem.c ****     }
 578:lvgl\src\lv_misc/lv_mem.c **** 
 579:lvgl\src\lv_misc/lv_mem.c ****     for(i = 0; i < LV_MEM_BUF_MAX_NUM; i++) {
 580:lvgl\src\lv_misc/lv_mem.c ****         if(LV_GC_ROOT(_lv_mem_buf[i]).p) {
 581:lvgl\src\lv_misc/lv_mem.c ****             lv_mem_free(LV_GC_ROOT(_lv_mem_buf[i]).p);
 582:lvgl\src\lv_misc/lv_mem.c ****             LV_GC_ROOT(_lv_mem_buf[i]).p = NULL;
 583:lvgl\src\lv_misc/lv_mem.c ****             LV_GC_ROOT(_lv_mem_buf[i]).used = 0;
 584:lvgl\src\lv_misc/lv_mem.c ****             LV_GC_ROOT(_lv_mem_buf[i]).size = 0;
 585:lvgl\src\lv_misc/lv_mem.c ****         }
 586:lvgl\src\lv_misc/lv_mem.c ****     }
 587:lvgl\src\lv_misc/lv_mem.c **** }
 588:lvgl\src\lv_misc/lv_mem.c **** 
 589:lvgl\src\lv_misc/lv_mem.c **** #if LV_MEMCPY_MEMSET_STD == 0
 590:lvgl\src\lv_misc/lv_mem.c **** /**
 591:lvgl\src\lv_misc/lv_mem.c ****  * Same as `memcpy` but optimized for 4 byte operation.
 592:lvgl\src\lv_misc/lv_mem.c ****  * @param dst pointer to the destination buffer
 593:lvgl\src\lv_misc/lv_mem.c ****  * @param src pointer to the source buffer
 594:lvgl\src\lv_misc/lv_mem.c ****  * @param len number of byte to copy
 595:lvgl\src\lv_misc/lv_mem.c ****  */
 596:lvgl\src\lv_misc/lv_mem.c **** LV_ATTRIBUTE_FAST_MEM void * _lv_memcpy(void * dst, const void * src, size_t len)
 597:lvgl\src\lv_misc/lv_mem.c **** {
 598:lvgl\src\lv_misc/lv_mem.c ****     uint8_t * d8 = dst;
 599:lvgl\src\lv_misc/lv_mem.c ****     const uint8_t * s8 = src;
 600:lvgl\src\lv_misc/lv_mem.c **** 
 601:lvgl\src\lv_misc/lv_mem.c ****     lv_uintptr_t d_align = (lv_uintptr_t)d8 & ALIGN_MASK;
ARM GAS  C:\Users\strap\AppData\Local\Temp\ccjJjp6v.s 			page 12


 602:lvgl\src\lv_misc/lv_mem.c ****     lv_uintptr_t s_align = (lv_uintptr_t)s8 & ALIGN_MASK;
 603:lvgl\src\lv_misc/lv_mem.c **** 
 604:lvgl\src\lv_misc/lv_mem.c ****     /*Byte copy for unaligned memories*/
 605:lvgl\src\lv_misc/lv_mem.c ****     if(s_align != d_align) {
 606:lvgl\src\lv_misc/lv_mem.c ****         while(len > 32) {
 607:lvgl\src\lv_misc/lv_mem.c ****             REPEAT8(COPY8);
 608:lvgl\src\lv_misc/lv_mem.c ****             REPEAT8(COPY8);
 609:lvgl\src\lv_misc/lv_mem.c ****             REPEAT8(COPY8);
 610:lvgl\src\lv_misc/lv_mem.c ****             REPEAT8(COPY8);
 611:lvgl\src\lv_misc/lv_mem.c ****             len -= 32;
 612:lvgl\src\lv_misc/lv_mem.c ****         }
 613:lvgl\src\lv_misc/lv_mem.c ****         while(len) {
 614:lvgl\src\lv_misc/lv_mem.c ****             COPY8
 615:lvgl\src\lv_misc/lv_mem.c ****             len--;
 616:lvgl\src\lv_misc/lv_mem.c ****         }
 617:lvgl\src\lv_misc/lv_mem.c ****         return dst;
 618:lvgl\src\lv_misc/lv_mem.c ****     }
 619:lvgl\src\lv_misc/lv_mem.c **** 
 620:lvgl\src\lv_misc/lv_mem.c **** 
 621:lvgl\src\lv_misc/lv_mem.c ****     /*Make the memories aligned*/
 622:lvgl\src\lv_misc/lv_mem.c ****     if(d_align) {
 623:lvgl\src\lv_misc/lv_mem.c ****         d_align = ALIGN_MASK + 1 - d_align;
 624:lvgl\src\lv_misc/lv_mem.c ****         while(d_align && len) {
 625:lvgl\src\lv_misc/lv_mem.c ****             COPY8;
 626:lvgl\src\lv_misc/lv_mem.c ****             d_align--;
 627:lvgl\src\lv_misc/lv_mem.c ****             len--;
 628:lvgl\src\lv_misc/lv_mem.c ****         }
 629:lvgl\src\lv_misc/lv_mem.c ****     }
 630:lvgl\src\lv_misc/lv_mem.c **** 
 631:lvgl\src\lv_misc/lv_mem.c ****     uint32_t * d32 = (uint32_t *)d8;
 632:lvgl\src\lv_misc/lv_mem.c ****     const uint32_t * s32 = (uint32_t *)s8;
 633:lvgl\src\lv_misc/lv_mem.c ****     while(len > 32) {
 634:lvgl\src\lv_misc/lv_mem.c ****         REPEAT8(COPY32)
 635:lvgl\src\lv_misc/lv_mem.c ****         len -= 32;
 636:lvgl\src\lv_misc/lv_mem.c ****     }
 637:lvgl\src\lv_misc/lv_mem.c **** 
 638:lvgl\src\lv_misc/lv_mem.c ****     while(len > 4) {
 639:lvgl\src\lv_misc/lv_mem.c ****         COPY32;
 640:lvgl\src\lv_misc/lv_mem.c ****         len -= 4;
 641:lvgl\src\lv_misc/lv_mem.c ****     }
 642:lvgl\src\lv_misc/lv_mem.c **** 
 643:lvgl\src\lv_misc/lv_mem.c ****     d8 = (uint8_t *)d32;
 644:lvgl\src\lv_misc/lv_mem.c ****     s8 = (const uint8_t *)s32;
 645:lvgl\src\lv_misc/lv_mem.c ****     while(len) {
 646:lvgl\src\lv_misc/lv_mem.c ****         COPY8
 647:lvgl\src\lv_misc/lv_mem.c ****         len--;
 648:lvgl\src\lv_misc/lv_mem.c ****     }
 649:lvgl\src\lv_misc/lv_mem.c **** 
 650:lvgl\src\lv_misc/lv_mem.c ****     return dst;
 651:lvgl\src\lv_misc/lv_mem.c **** }
 652:lvgl\src\lv_misc/lv_mem.c **** 
 653:lvgl\src\lv_misc/lv_mem.c **** 
 654:lvgl\src\lv_misc/lv_mem.c **** /**
 655:lvgl\src\lv_misc/lv_mem.c ****  * Same as `memset` but optimized for 4 byte operation.
 656:lvgl\src\lv_misc/lv_mem.c ****  * @param dst pointer to the destination buffer
 657:lvgl\src\lv_misc/lv_mem.c ****  * @param v value to set [0..255]
 658:lvgl\src\lv_misc/lv_mem.c ****  * @param len number of byte to set
ARM GAS  C:\Users\strap\AppData\Local\Temp\ccjJjp6v.s 			page 13


 659:lvgl\src\lv_misc/lv_mem.c ****  */
 660:lvgl\src\lv_misc/lv_mem.c **** LV_ATTRIBUTE_FAST_MEM void _lv_memset(void * dst, uint8_t v, size_t len)
 661:lvgl\src\lv_misc/lv_mem.c **** {
 662:lvgl\src\lv_misc/lv_mem.c **** 
 663:lvgl\src\lv_misc/lv_mem.c ****     uint8_t * d8 = (uint8_t *) dst;
 664:lvgl\src\lv_misc/lv_mem.c **** 
 665:lvgl\src\lv_misc/lv_mem.c ****     uintptr_t d_align = (lv_uintptr_t) d8 & ALIGN_MASK;
 666:lvgl\src\lv_misc/lv_mem.c **** 
 667:lvgl\src\lv_misc/lv_mem.c ****     /*Make the address aligned*/
 668:lvgl\src\lv_misc/lv_mem.c ****     if(d_align) {
 669:lvgl\src\lv_misc/lv_mem.c ****         d_align = ALIGN_MASK + 1 - d_align;
 670:lvgl\src\lv_misc/lv_mem.c ****         while(d_align && len) {
 671:lvgl\src\lv_misc/lv_mem.c ****             *d8 = v;
 672:lvgl\src\lv_misc/lv_mem.c ****             d8++;
 673:lvgl\src\lv_misc/lv_mem.c ****             len--;
 674:lvgl\src\lv_misc/lv_mem.c ****             d_align--;
 675:lvgl\src\lv_misc/lv_mem.c ****         }
 676:lvgl\src\lv_misc/lv_mem.c ****     }
 677:lvgl\src\lv_misc/lv_mem.c **** 
 678:lvgl\src\lv_misc/lv_mem.c ****     uint32_t v32 = v + (v << 8) + (v << 16) + (v << 24);
 679:lvgl\src\lv_misc/lv_mem.c **** 
 680:lvgl\src\lv_misc/lv_mem.c ****     uint32_t * d32 = (uint32_t *)d8;
 681:lvgl\src\lv_misc/lv_mem.c **** 
 682:lvgl\src\lv_misc/lv_mem.c ****     while(len > 32) {
 683:lvgl\src\lv_misc/lv_mem.c ****         SET32(v32);
 684:lvgl\src\lv_misc/lv_mem.c ****         SET32(v32);
 685:lvgl\src\lv_misc/lv_mem.c ****         SET32(v32);
 686:lvgl\src\lv_misc/lv_mem.c ****         SET32(v32);
 687:lvgl\src\lv_misc/lv_mem.c ****         SET32(v32);
 688:lvgl\src\lv_misc/lv_mem.c ****         SET32(v32);
 689:lvgl\src\lv_misc/lv_mem.c ****         SET32(v32);
 690:lvgl\src\lv_misc/lv_mem.c ****         SET32(v32);
 691:lvgl\src\lv_misc/lv_mem.c ****         len -= 32;
 692:lvgl\src\lv_misc/lv_mem.c ****     }
 693:lvgl\src\lv_misc/lv_mem.c **** 
 694:lvgl\src\lv_misc/lv_mem.c ****     while(len > 4) {
 695:lvgl\src\lv_misc/lv_mem.c ****         SET32(v32);
 696:lvgl\src\lv_misc/lv_mem.c ****         len -= 4;
 697:lvgl\src\lv_misc/lv_mem.c ****     }
 698:lvgl\src\lv_misc/lv_mem.c **** 
 699:lvgl\src\lv_misc/lv_mem.c **** 
 700:lvgl\src\lv_misc/lv_mem.c ****     d8 = (uint8_t *)d32;
 701:lvgl\src\lv_misc/lv_mem.c ****     while(len) {
 702:lvgl\src\lv_misc/lv_mem.c ****         *d8 = v;
 703:lvgl\src\lv_misc/lv_mem.c ****         d8++;
 704:lvgl\src\lv_misc/lv_mem.c ****         len--;
 705:lvgl\src\lv_misc/lv_mem.c ****     }
 706:lvgl\src\lv_misc/lv_mem.c **** }
 707:lvgl\src\lv_misc/lv_mem.c **** 
 708:lvgl\src\lv_misc/lv_mem.c **** /**
 709:lvgl\src\lv_misc/lv_mem.c ****  * Same as `memset(dst, 0x00, len)` but optimized for 4 byte operation.
 710:lvgl\src\lv_misc/lv_mem.c ****  * @param dst pointer to the destination buffer
 711:lvgl\src\lv_misc/lv_mem.c ****  * @param len number of byte to set
 712:lvgl\src\lv_misc/lv_mem.c ****  */
 713:lvgl\src\lv_misc/lv_mem.c **** LV_ATTRIBUTE_FAST_MEM void _lv_memset_00(void * dst, size_t len)
 714:lvgl\src\lv_misc/lv_mem.c **** {
 715:lvgl\src\lv_misc/lv_mem.c ****     uint8_t * d8 = (uint8_t *) dst;
ARM GAS  C:\Users\strap\AppData\Local\Temp\ccjJjp6v.s 			page 14


 716:lvgl\src\lv_misc/lv_mem.c ****     uintptr_t d_align = (lv_uintptr_t) d8 & ALIGN_MASK;
 717:lvgl\src\lv_misc/lv_mem.c **** 
 718:lvgl\src\lv_misc/lv_mem.c **** 
 719:lvgl\src\lv_misc/lv_mem.c ****     /*Make the address aligned*/
 720:lvgl\src\lv_misc/lv_mem.c ****     if(d_align) {
 721:lvgl\src\lv_misc/lv_mem.c ****         d_align = ALIGN_MASK + 1 - d_align;
 722:lvgl\src\lv_misc/lv_mem.c ****         while(d_align && len) {
 723:lvgl\src\lv_misc/lv_mem.c ****             *d8 = 0x00;
 724:lvgl\src\lv_misc/lv_mem.c ****             d8++;
 725:lvgl\src\lv_misc/lv_mem.c ****             len--;
 726:lvgl\src\lv_misc/lv_mem.c ****             d_align--;
 727:lvgl\src\lv_misc/lv_mem.c ****         }
 728:lvgl\src\lv_misc/lv_mem.c ****     }
 729:lvgl\src\lv_misc/lv_mem.c **** 
 730:lvgl\src\lv_misc/lv_mem.c ****     uint32_t * d32 = (uint32_t *)d8;
 731:lvgl\src\lv_misc/lv_mem.c ****     while(len > 32) {
 732:lvgl\src\lv_misc/lv_mem.c ****         SET32(0);
 733:lvgl\src\lv_misc/lv_mem.c ****         SET32(0);
 734:lvgl\src\lv_misc/lv_mem.c ****         SET32(0);
 735:lvgl\src\lv_misc/lv_mem.c ****         SET32(0);
 736:lvgl\src\lv_misc/lv_mem.c ****         SET32(0);
 737:lvgl\src\lv_misc/lv_mem.c ****         SET32(0);
 738:lvgl\src\lv_misc/lv_mem.c ****         SET32(0);
 739:lvgl\src\lv_misc/lv_mem.c ****         SET32(0);
 740:lvgl\src\lv_misc/lv_mem.c ****         len -= 32;
 741:lvgl\src\lv_misc/lv_mem.c ****     }
 742:lvgl\src\lv_misc/lv_mem.c **** 
 743:lvgl\src\lv_misc/lv_mem.c ****     while(len > 4) {
 744:lvgl\src\lv_misc/lv_mem.c ****         SET32(0);
 745:lvgl\src\lv_misc/lv_mem.c ****         len -= 4;
 746:lvgl\src\lv_misc/lv_mem.c ****     }
 747:lvgl\src\lv_misc/lv_mem.c **** 
 748:lvgl\src\lv_misc/lv_mem.c **** 
 749:lvgl\src\lv_misc/lv_mem.c ****     d8 = (uint8_t *)d32;
 750:lvgl\src\lv_misc/lv_mem.c ****     while(len) {
 751:lvgl\src\lv_misc/lv_mem.c ****         *d8 = 0;
 752:lvgl\src\lv_misc/lv_mem.c ****         d8++;
 753:lvgl\src\lv_misc/lv_mem.c ****         len--;
 754:lvgl\src\lv_misc/lv_mem.c ****     }
 755:lvgl\src\lv_misc/lv_mem.c **** }
 756:lvgl\src\lv_misc/lv_mem.c **** 
 757:lvgl\src\lv_misc/lv_mem.c **** /**
 758:lvgl\src\lv_misc/lv_mem.c ****  * Same as `memset(dst, 0xFF, len)` but optimized for 4 byte operation.
 759:lvgl\src\lv_misc/lv_mem.c ****  * @param dst pointer to the destination buffer
 760:lvgl\src\lv_misc/lv_mem.c ****  * @param len number of byte to set
 761:lvgl\src\lv_misc/lv_mem.c ****  */
 762:lvgl\src\lv_misc/lv_mem.c **** LV_ATTRIBUTE_FAST_MEM void _lv_memset_ff(void * dst, size_t len)
 763:lvgl\src\lv_misc/lv_mem.c **** {
 764:lvgl\src\lv_misc/lv_mem.c ****     uint8_t * d8 = (uint8_t *) dst;
 765:lvgl\src\lv_misc/lv_mem.c ****     uintptr_t d_align = (lv_uintptr_t) d8 & ALIGN_MASK;
 766:lvgl\src\lv_misc/lv_mem.c **** 
 767:lvgl\src\lv_misc/lv_mem.c **** 
 768:lvgl\src\lv_misc/lv_mem.c ****     /*Make the address aligned*/
 769:lvgl\src\lv_misc/lv_mem.c ****     if(d_align) {
 770:lvgl\src\lv_misc/lv_mem.c ****         d_align = ALIGN_MASK + 1 - d_align;
 771:lvgl\src\lv_misc/lv_mem.c ****         while(d_align && len) {
 772:lvgl\src\lv_misc/lv_mem.c ****             *d8 = 0xFF;
ARM GAS  C:\Users\strap\AppData\Local\Temp\ccjJjp6v.s 			page 15


 773:lvgl\src\lv_misc/lv_mem.c ****             d8++;
 774:lvgl\src\lv_misc/lv_mem.c ****             len--;
 775:lvgl\src\lv_misc/lv_mem.c ****             d_align--;
 776:lvgl\src\lv_misc/lv_mem.c ****         }
 777:lvgl\src\lv_misc/lv_mem.c ****     }
 778:lvgl\src\lv_misc/lv_mem.c **** 
 779:lvgl\src\lv_misc/lv_mem.c ****     uint32_t * d32 = (uint32_t *)d8;
 780:lvgl\src\lv_misc/lv_mem.c ****     while(len > 32) {
 781:lvgl\src\lv_misc/lv_mem.c ****         SET32(0xFFFFFFFF);
 782:lvgl\src\lv_misc/lv_mem.c ****         SET32(0xFFFFFFFF);
 783:lvgl\src\lv_misc/lv_mem.c ****         SET32(0xFFFFFFFF);
 784:lvgl\src\lv_misc/lv_mem.c ****         SET32(0xFFFFFFFF);
 785:lvgl\src\lv_misc/lv_mem.c ****         SET32(0xFFFFFFFF);
 786:lvgl\src\lv_misc/lv_mem.c ****         SET32(0xFFFFFFFF);
 787:lvgl\src\lv_misc/lv_mem.c ****         SET32(0xFFFFFFFF);
 788:lvgl\src\lv_misc/lv_mem.c ****         SET32(0xFFFFFFFF);
 789:lvgl\src\lv_misc/lv_mem.c ****         len -= 32;
 790:lvgl\src\lv_misc/lv_mem.c ****     }
 791:lvgl\src\lv_misc/lv_mem.c **** 
 792:lvgl\src\lv_misc/lv_mem.c ****     while(len > 4) {
 793:lvgl\src\lv_misc/lv_mem.c ****         SET32(0xFFFFFFFF);
 794:lvgl\src\lv_misc/lv_mem.c ****         len -= 4;
 795:lvgl\src\lv_misc/lv_mem.c ****     }
 796:lvgl\src\lv_misc/lv_mem.c **** 
 797:lvgl\src\lv_misc/lv_mem.c **** 
 798:lvgl\src\lv_misc/lv_mem.c ****     d8 = (uint8_t *)d32;
 799:lvgl\src\lv_misc/lv_mem.c ****     while(len) {
 800:lvgl\src\lv_misc/lv_mem.c ****         *d8 = 0xFF;
 801:lvgl\src\lv_misc/lv_mem.c ****         d8++;
 802:lvgl\src\lv_misc/lv_mem.c ****         len--;
 803:lvgl\src\lv_misc/lv_mem.c ****     }
 804:lvgl\src\lv_misc/lv_mem.c **** }
 805:lvgl\src\lv_misc/lv_mem.c **** 
 806:lvgl\src\lv_misc/lv_mem.c **** #endif /*LV_MEMCPY_MEMSET_STD*/
 807:lvgl\src\lv_misc/lv_mem.c **** 
 808:lvgl\src\lv_misc/lv_mem.c **** /**********************
 809:lvgl\src\lv_misc/lv_mem.c ****  *   STATIC FUNCTIONS
 810:lvgl\src\lv_misc/lv_mem.c ****  **********************/
 811:lvgl\src\lv_misc/lv_mem.c **** 
 812:lvgl\src\lv_misc/lv_mem.c **** #if LV_MEM_CUSTOM == 0
 813:lvgl\src\lv_misc/lv_mem.c **** /**
 814:lvgl\src\lv_misc/lv_mem.c ****  * Give the next entry after 'act_e'
 815:lvgl\src\lv_misc/lv_mem.c ****  * @param act_e pointer to an entry
 816:lvgl\src\lv_misc/lv_mem.c ****  * @return pointer to an entry after 'act_e'
 817:lvgl\src\lv_misc/lv_mem.c ****  */
 818:lvgl\src\lv_misc/lv_mem.c **** static lv_mem_ent_t * ent_get_next(lv_mem_ent_t * act_e)
 819:lvgl\src\lv_misc/lv_mem.c **** {
  27              		.loc 1 819 0
  28              		.cfi_startproc
  29              		@ args = 0, pretend = 0, frame = 0
  30              		@ frame_needed = 0, uses_anonymous_args = 0
  31              		@ link register save eliminated.
  32              	.LVL0:
 820:lvgl\src\lv_misc/lv_mem.c ****     lv_mem_ent_t * next_e = NULL;
 821:lvgl\src\lv_misc/lv_mem.c **** 
 822:lvgl\src\lv_misc/lv_mem.c ****     if(act_e == NULL) { /*NULL means: get the first entry*/
  33              		.loc 1 822 0
ARM GAS  C:\Users\strap\AppData\Local\Temp\ccjJjp6v.s 			page 16


  34 0000 10B9     		cbnz	r0, .L2
 823:lvgl\src\lv_misc/lv_mem.c ****         next_e = (lv_mem_ent_t *)work_mem;
  35              		.loc 1 823 0
  36 0002 084B     		ldr	r3, .L5
  37 0004 1868     		ldr	r0, [r3]
  38              	.LVL1:
  39 0006 7047     		bx	lr
  40              	.LVL2:
  41              	.L2:
  42              	.LBB2:
 824:lvgl\src\lv_misc/lv_mem.c ****     }
 825:lvgl\src\lv_misc/lv_mem.c ****     else {   /*Get the next entry */
 826:lvgl\src\lv_misc/lv_mem.c ****         uint8_t * data = &act_e->first_data;
  43              		.loc 1 826 0
  44 0008 031D     		adds	r3, r0, #4
  45              	.LVL3:
 827:lvgl\src\lv_misc/lv_mem.c ****         next_e         = (lv_mem_ent_t *)&data[act_e->header.s.d_size];
  46              		.loc 1 827 0
  47 000a 0068     		ldr	r0, [r0]
  48              	.LVL4:
  49 000c 03EB5000 		add	r0, r3, r0, lsr #1
  50              	.LVL5:
 828:lvgl\src\lv_misc/lv_mem.c **** 
 829:lvgl\src\lv_misc/lv_mem.c ****         if(&next_e->first_data >= &work_mem[LV_MEM_SIZE]) next_e = NULL;
  51              		.loc 1 829 0
  52 0010 021D     		adds	r2, r0, #4
  53 0012 044B     		ldr	r3, .L5
  54              	.LVL6:
  55 0014 1B68     		ldr	r3, [r3]
  56 0016 03F58043 		add	r3, r3, #16384
  57 001a 9A42     		cmp	r2, r3
  58 001c 00D3     		bcc	.L3
  59 001e 0020     		movs	r0, #0
  60              	.LVL7:
  61              	.L3:
  62              	.LBE2:
 830:lvgl\src\lv_misc/lv_mem.c ****     }
 831:lvgl\src\lv_misc/lv_mem.c **** 
 832:lvgl\src\lv_misc/lv_mem.c ****     return next_e;
 833:lvgl\src\lv_misc/lv_mem.c **** }
  63              		.loc 1 833 0
  64 0020 7047     		bx	lr
  65              	.L6:
  66 0022 00BF     		.align	2
  67              	.L5:
  68 0024 00000000 		.word	.LANCHOR0
  69              		.cfi_endproc
  70              	.LFE53:
  71              		.size	ent_get_next, .-ent_get_next
  72              		.section	.text.ent_trunc,"ax",%progbits
  73              		.align	2
  74              		.thumb
  75              		.thumb_func
  76              		.type	ent_trunc, %function
  77              	ent_trunc:
  78              	.LFB55:
 834:lvgl\src\lv_misc/lv_mem.c **** 
ARM GAS  C:\Users\strap\AppData\Local\Temp\ccjJjp6v.s 			page 17


 835:lvgl\src\lv_misc/lv_mem.c **** /**
 836:lvgl\src\lv_misc/lv_mem.c ****  * Try to do the real allocation with a given size
 837:lvgl\src\lv_misc/lv_mem.c ****  * @param e try to allocate to this entry
 838:lvgl\src\lv_misc/lv_mem.c ****  * @param size size of the new memory in bytes
 839:lvgl\src\lv_misc/lv_mem.c ****  * @return pointer to the allocated memory or NULL if not enough memory in the entry
 840:lvgl\src\lv_misc/lv_mem.c ****  */
 841:lvgl\src\lv_misc/lv_mem.c **** static void * ent_alloc(lv_mem_ent_t * e, size_t size)
 842:lvgl\src\lv_misc/lv_mem.c **** {
 843:lvgl\src\lv_misc/lv_mem.c ****     void * alloc = NULL;
 844:lvgl\src\lv_misc/lv_mem.c ****     /*If the memory is free and big enough then use it */
 845:lvgl\src\lv_misc/lv_mem.c ****     if(e->header.s.used == 0 && e->header.s.d_size >= size) {
 846:lvgl\src\lv_misc/lv_mem.c ****         /*Truncate the entry to the desired size */
 847:lvgl\src\lv_misc/lv_mem.c ****         ent_trunc(e, size);
 848:lvgl\src\lv_misc/lv_mem.c ****         e->header.s.used = 1;
 849:lvgl\src\lv_misc/lv_mem.c **** 
 850:lvgl\src\lv_misc/lv_mem.c ****         /*Save the allocated data*/
 851:lvgl\src\lv_misc/lv_mem.c ****         alloc = &e->first_data;
 852:lvgl\src\lv_misc/lv_mem.c ****     }
 853:lvgl\src\lv_misc/lv_mem.c **** 
 854:lvgl\src\lv_misc/lv_mem.c ****     return alloc;
 855:lvgl\src\lv_misc/lv_mem.c **** }
 856:lvgl\src\lv_misc/lv_mem.c **** 
 857:lvgl\src\lv_misc/lv_mem.c **** /**
 858:lvgl\src\lv_misc/lv_mem.c ****  * Truncate the data of entry to the given size
 859:lvgl\src\lv_misc/lv_mem.c ****  * @param e Pointer to an entry
 860:lvgl\src\lv_misc/lv_mem.c ****  * @param size new size in bytes
 861:lvgl\src\lv_misc/lv_mem.c ****  */
 862:lvgl\src\lv_misc/lv_mem.c **** static void ent_trunc(lv_mem_ent_t * e, size_t size)
 863:lvgl\src\lv_misc/lv_mem.c **** {
  79              		.loc 1 863 0
  80              		.cfi_startproc
  81              		@ args = 0, pretend = 0, frame = 0
  82              		@ frame_needed = 0, uses_anonymous_args = 0
  83              		@ link register save eliminated.
  84              	.LVL8:
 864:lvgl\src\lv_misc/lv_mem.c **** 
 865:lvgl\src\lv_misc/lv_mem.c **** #ifdef LV_ARCH_64
 866:lvgl\src\lv_misc/lv_mem.c ****     /*Round the size up to 8*/
 867:lvgl\src\lv_misc/lv_mem.c ****     size = (size + 7) & (~0x7);
 868:lvgl\src\lv_misc/lv_mem.c **** #else
 869:lvgl\src\lv_misc/lv_mem.c ****     /*Round the size up to 4*/
 870:lvgl\src\lv_misc/lv_mem.c ****     size = (size + 3) & (~0x3);
  85              		.loc 1 870 0
  86 0000 0331     		adds	r1, r1, #3
  87              	.LVL9:
  88 0002 21F00301 		bic	r1, r1, #3
  89              	.LVL10:
 871:lvgl\src\lv_misc/lv_mem.c **** #endif
 872:lvgl\src\lv_misc/lv_mem.c **** 
 873:lvgl\src\lv_misc/lv_mem.c ****     /*Don't let empty space only for a header without data*/
 874:lvgl\src\lv_misc/lv_mem.c ****     if(e->header.s.d_size == size + sizeof(lv_mem_header_t)) {
  90              		.loc 1 874 0
  91 0006 0368     		ldr	r3, [r0]
  92 0008 C3F35E03 		ubfx	r3, r3, #1, #31
  93 000c 0A1D     		adds	r2, r1, #4
  94 000e 9342     		cmp	r3, r2
  95 0010 00D1     		bne	.L8
ARM GAS  C:\Users\strap\AppData\Local\Temp\ccjJjp6v.s 			page 18


 875:lvgl\src\lv_misc/lv_mem.c ****         size = e->header.s.d_size;
  96              		.loc 1 875 0
  97 0012 1946     		mov	r1, r3
  98              	.LVL11:
  99              	.L8:
 876:lvgl\src\lv_misc/lv_mem.c ****     }
 877:lvgl\src\lv_misc/lv_mem.c **** 
 878:lvgl\src\lv_misc/lv_mem.c ****     /* Create the new entry after the current if there is space for it */
 879:lvgl\src\lv_misc/lv_mem.c ****     if(e->header.s.d_size != size) {
 100              		.loc 1 879 0
 101 0014 9942     		cmp	r1, r3
 102 0016 13D0     		beq	.L12
 863:lvgl\src\lv_misc/lv_mem.c **** 
 103              		.loc 1 863 0
 104 0018 10B4     		push	{r4}
 105              		.cfi_def_cfa_offset 4
 106              		.cfi_offset 4, -4
 107              	.LBB3:
 880:lvgl\src\lv_misc/lv_mem.c ****         uint8_t * e_data             = &e->first_data;
 108              		.loc 1 880 0
 109 001a 021D     		adds	r2, r0, #4
 110              	.LVL12:
 881:lvgl\src\lv_misc/lv_mem.c ****         lv_mem_ent_t * after_new_e   = (lv_mem_ent_t *)&e_data[size];
 882:lvgl\src\lv_misc/lv_mem.c ****         after_new_e->header.s.used   = 0;
 111              		.loc 1 882 0
 112 001c 535C     		ldrb	r3, [r2, r1]	@ zero_extendqisi2
 113 001e 6FF30003 		bfc	r3, #0, #1
 114 0022 5354     		strb	r3, [r2, r1]
 883:lvgl\src\lv_misc/lv_mem.c ****         after_new_e->header.s.d_size = (uint32_t)e->header.s.d_size - size - sizeof(lv_mem_header_t
 115              		.loc 1 883 0
 116 0024 0368     		ldr	r3, [r0]
 117 0026 C1EB5303 		rsb	r3, r1, r3, lsr #1
 118 002a 043B     		subs	r3, r3, #4
 119 002c 5458     		ldr	r4, [r2, r1]
 120 002e 63F35F04 		bfi	r4, r3, #1, #31
 121 0032 5450     		str	r4, [r2, r1]
 122              	.LBE3:
 884:lvgl\src\lv_misc/lv_mem.c ****     }
 885:lvgl\src\lv_misc/lv_mem.c **** 
 886:lvgl\src\lv_misc/lv_mem.c ****     /* Set the new size for the original entry */
 887:lvgl\src\lv_misc/lv_mem.c ****     e->header.s.d_size = (uint32_t)size;
 123              		.loc 1 887 0
 124 0034 0368     		ldr	r3, [r0]
 125 0036 61F35F03 		bfi	r3, r1, #1, #31
 126 003a 0360     		str	r3, [r0]
 888:lvgl\src\lv_misc/lv_mem.c **** }
 127              		.loc 1 888 0
 128 003c 10BC     		pop	{r4}
 129              		.cfi_restore 4
 130              		.cfi_def_cfa_offset 0
 131 003e 7047     		bx	lr
 132              	.LVL13:
 133              	.L12:
 887:lvgl\src\lv_misc/lv_mem.c **** }
 134              		.loc 1 887 0
 135 0040 0368     		ldr	r3, [r0]
 136 0042 61F35F03 		bfi	r3, r1, #1, #31
ARM GAS  C:\Users\strap\AppData\Local\Temp\ccjJjp6v.s 			page 19


 137 0046 0360     		str	r3, [r0]
 138 0048 7047     		bx	lr
 139              		.cfi_endproc
 140              	.LFE55:
 141              		.size	ent_trunc, .-ent_trunc
 142 004a 00BF     		.section	.text.ent_alloc,"ax",%progbits
 143              		.align	2
 144              		.thumb
 145              		.thumb_func
 146              		.type	ent_alloc, %function
 147              	ent_alloc:
 148              	.LFB54:
 842:lvgl\src\lv_misc/lv_mem.c ****     void * alloc = NULL;
 149              		.loc 1 842 0
 150              		.cfi_startproc
 151              		@ args = 0, pretend = 0, frame = 0
 152              		@ frame_needed = 0, uses_anonymous_args = 0
 153              	.LVL14:
 845:lvgl\src\lv_misc/lv_mem.c ****         /*Truncate the entry to the desired size */
 154              		.loc 1 845 0
 155 0000 0378     		ldrb	r3, [r0]	@ zero_extendqisi2
 156 0002 13F0010F 		tst	r3, #1
 157 0006 0FD1     		bne	.L15
 845:lvgl\src\lv_misc/lv_mem.c ****         /*Truncate the entry to the desired size */
 158              		.loc 1 845 0 is_stmt 0 discriminator 1
 159 0008 0368     		ldr	r3, [r0]
 160 000a C3F35E03 		ubfx	r3, r3, #1, #31
 161 000e 8B42     		cmp	r3, r1
 162 0010 0CD3     		bcc	.L16
 842:lvgl\src\lv_misc/lv_mem.c ****     void * alloc = NULL;
 163              		.loc 1 842 0 is_stmt 1
 164 0012 10B5     		push	{r4, lr}
 165              		.cfi_def_cfa_offset 8
 166              		.cfi_offset 4, -8
 167              		.cfi_offset 14, -4
 168 0014 0446     		mov	r4, r0
 847:lvgl\src\lv_misc/lv_mem.c ****         e->header.s.used = 1;
 169              		.loc 1 847 0
 170 0016 FFF7FEFF 		bl	ent_trunc
 171              	.LVL15:
 848:lvgl\src\lv_misc/lv_mem.c **** 
 172              		.loc 1 848 0
 173 001a 2378     		ldrb	r3, [r4]	@ zero_extendqisi2
 174 001c 43F00103 		orr	r3, r3, #1
 175 0020 2046     		mov	r0, r4
 176 0022 00F8043B 		strb	r3, [r0], #4
 177              	.LVL16:
 178 0026 10BD     		pop	{r4, pc}
 179              	.LVL17:
 180              	.L15:
 181              		.cfi_def_cfa_offset 0
 182              		.cfi_restore 4
 183              		.cfi_restore 14
 843:lvgl\src\lv_misc/lv_mem.c ****     /*If the memory is free and big enough then use it */
 184              		.loc 1 843 0
 185 0028 0020     		movs	r0, #0
 186              	.LVL18:
ARM GAS  C:\Users\strap\AppData\Local\Temp\ccjJjp6v.s 			page 20


 187 002a 7047     		bx	lr
 188              	.LVL19:
 189              	.L16:
 190 002c 0020     		movs	r0, #0
 191              	.LVL20:
 192 002e 7047     		bx	lr
 193              		.cfi_endproc
 194              	.LFE54:
 195              		.size	ent_alloc, .-ent_alloc
 196              		.section	.text._lv_mem_init,"ax",%progbits
 197              		.align	2
 198              		.global	_lv_mem_init
 199              		.thumb
 200              		.thumb_func
 201              		.type	_lv_mem_init, %function
 202              	_lv_mem_init:
 203              	.LFB37:
 117:lvgl\src\lv_misc/lv_mem.c **** #if LV_MEM_CUSTOM == 0
 204              		.loc 1 117 0
 205              		.cfi_startproc
 206              		@ args = 0, pretend = 0, frame = 0
 207              		@ frame_needed = 0, uses_anonymous_args = 0
 208              		@ link register save eliminated.
 123:lvgl\src\lv_misc/lv_mem.c ****     mem_max_size = 0;
 209              		.loc 1 123 0
 210 0000 084B     		ldr	r3, .L20
 211 0002 1A1D     		adds	r2, r3, #4
 212 0004 1A60     		str	r2, [r3]
 124:lvgl\src\lv_misc/lv_mem.c **** #else
 213              		.loc 1 124 0
 214 0006 0021     		movs	r1, #0
 215 0008 074A     		ldr	r2, .L20+4
 216 000a C2F81C1D 		str	r1, [r2, #3356]
 217              	.LVL21:
 130:lvgl\src\lv_misc/lv_mem.c ****     /*The total mem size id reduced by the first header and the close patterns */
 218              		.loc 1 130 0
 219 000e 1A79     		ldrb	r2, [r3, #4]	@ zero_extendqisi2
 220 0010 61F30002 		bfi	r2, r1, #0, #1
 221 0014 1A71     		strb	r2, [r3, #4]
 132:lvgl\src\lv_misc/lv_mem.c **** #endif
 222              		.loc 1 132 0
 223 0016 5A68     		ldr	r2, [r3, #4]
 224 0018 43F6FC71 		movw	r1, #16380
 225 001c 61F35F02 		bfi	r2, r1, #1, #31
 226 0020 5A60     		str	r2, [r3, #4]
 227 0022 7047     		bx	lr
 228              	.L21:
 229              		.align	2
 230              	.L20:
 231 0024 00000000 		.word	.LANCHOR0
 232 0028 E8320000 		.word	.LANCHOR1
 233              		.cfi_endproc
 234              	.LFE37:
 235              		.size	_lv_mem_init, .-_lv_mem_init
 236              		.section	.text.lv_mem_alloc,"ax",%progbits
 237              		.align	2
 238              		.global	lv_mem_alloc
ARM GAS  C:\Users\strap\AppData\Local\Temp\ccjJjp6v.s 			page 21


 239              		.thumb
 240              		.thumb_func
 241              		.type	lv_mem_alloc, %function
 242              	lv_mem_alloc:
 243              	.LFB39:
 157:lvgl\src\lv_misc/lv_mem.c ****     if(size == 0) {
 244              		.loc 1 157 0
 245              		.cfi_startproc
 246              		@ args = 0, pretend = 0, frame = 0
 247              		@ frame_needed = 0, uses_anonymous_args = 0
 248              	.LVL22:
 158:lvgl\src\lv_misc/lv_mem.c ****         return &zero_mem;
 249              		.loc 1 158 0
 250 0000 18B3     		cbz	r0, .L27
 157:lvgl\src\lv_misc/lv_mem.c ****     if(size == 0) {
 251              		.loc 1 157 0
 252 0002 70B5     		push	{r4, r5, r6, lr}
 253              		.cfi_def_cfa_offset 16
 254              		.cfi_offset 4, -16
 255              		.cfi_offset 5, -12
 256              		.cfi_offset 6, -8
 257              		.cfi_offset 14, -4
 258 0004 0646     		mov	r6, r0
 167:lvgl\src\lv_misc/lv_mem.c **** #endif
 259              		.loc 1 167 0
 260 0006 0336     		adds	r6, r6, #3
 261 0008 26F00306 		bic	r6, r6, #3
 262              	.LVL23:
 173:lvgl\src\lv_misc/lv_mem.c **** 
 263              		.loc 1 173 0
 264 000c 0024     		movs	r4, #0
 169:lvgl\src\lv_misc/lv_mem.c **** 
 265              		.loc 1 169 0
 266 000e 2546     		mov	r5, r4
 267              	.LVL24:
 268              	.L26:
 178:lvgl\src\lv_misc/lv_mem.c **** 
 269              		.loc 1 178 0
 270 0010 2046     		mov	r0, r4
 271 0012 FFF7FEFF 		bl	ent_get_next
 272              	.LVL25:
 181:lvgl\src\lv_misc/lv_mem.c ****             alloc = ent_alloc(e, size);
 273              		.loc 1 181 0
 274 0016 0446     		mov	r4, r0
 275 0018 18B1     		cbz	r0, .L24
 182:lvgl\src\lv_misc/lv_mem.c ****         }
 276              		.loc 1 182 0
 277 001a 3146     		mov	r1, r6
 278 001c FFF7FEFF 		bl	ent_alloc
 279              	.LVL26:
 280 0020 0546     		mov	r5, r0
 281              	.LVL27:
 282              	.L24:
 185:lvgl\src\lv_misc/lv_mem.c **** 
 283              		.loc 1 185 0
 284 0022 0CB1     		cbz	r4, .L25
 185:lvgl\src\lv_misc/lv_mem.c **** 
ARM GAS  C:\Users\strap\AppData\Local\Temp\ccjJjp6v.s 			page 22


 285              		.loc 1 185 0 is_stmt 0 discriminator 1
 286 0024 002D     		cmp	r5, #0
 287 0026 F3D0     		beq	.L26
 288              	.L25:
 207:lvgl\src\lv_misc/lv_mem.c ****         LV_LOG_WARN("Couldn't allocate memory");
 289              		.loc 1 207 0 is_stmt 1
 290 0028 8DB1     		cbz	r5, .L28
 213:lvgl\src\lv_misc/lv_mem.c ****             if((((uintptr_t) alloc - (uintptr_t) work_mem) + size) > mem_max_size) {
 291              		.loc 1 213 0
 292 002a 0C4B     		ldr	r3, .L32
 293 002c 1B68     		ldr	r3, [r3]
 294 002e 9D42     		cmp	r5, r3
 295 0030 0FD9     		bls	.L29
 214:lvgl\src\lv_misc/lv_mem.c ****                 mem_max_size = ((uintptr_t) alloc - (uintptr_t) work_mem) + size;
 296              		.loc 1 214 0
 297 0032 EB1A     		subs	r3, r5, r3
 298 0034 1E44     		add	r6, r6, r3
 299              	.LVL28:
 300 0036 0A4B     		ldr	r3, .L32+4
 301 0038 D3F81C3D 		ldr	r3, [r3, #3356]
 302 003c 9E42     		cmp	r6, r3
 303 003e 0AD9     		bls	.L30
 215:lvgl\src\lv_misc/lv_mem.c ****             }
 304              		.loc 1 215 0
 305 0040 074B     		ldr	r3, .L32+4
 306 0042 C3F81C6D 		str	r6, [r3, #3356]
 221:lvgl\src\lv_misc/lv_mem.c **** }
 307              		.loc 1 221 0
 308 0046 2846     		mov	r0, r5
 309 0048 70BD     		pop	{r4, r5, r6, pc}
 310              	.LVL29:
 311              	.L27:
 312              		.cfi_def_cfa_offset 0
 313              		.cfi_restore 4
 314              		.cfi_restore 5
 315              		.cfi_restore 6
 316              		.cfi_restore 14
 159:lvgl\src\lv_misc/lv_mem.c ****     }
 317              		.loc 1 159 0
 318 004a 0648     		ldr	r0, .L32+8
 319              	.LVL30:
 222:lvgl\src\lv_misc/lv_mem.c **** 
 320              		.loc 1 222 0
 321 004c 7047     		bx	lr
 322              	.LVL31:
 323              	.L28:
 324              		.cfi_def_cfa_offset 16
 325              		.cfi_offset 4, -16
 326              		.cfi_offset 5, -12
 327              		.cfi_offset 6, -8
 328              		.cfi_offset 14, -4
 221:lvgl\src\lv_misc/lv_mem.c **** }
 329              		.loc 1 221 0
 330 004e 2846     		mov	r0, r5
 331 0050 70BD     		pop	{r4, r5, r6, pc}
 332              	.LVL32:
 333              	.L29:
ARM GAS  C:\Users\strap\AppData\Local\Temp\ccjJjp6v.s 			page 23


 334 0052 2846     		mov	r0, r5
 335 0054 70BD     		pop	{r4, r5, r6, pc}
 336              	.LVL33:
 337              	.L30:
 338 0056 2846     		mov	r0, r5
 222:lvgl\src\lv_misc/lv_mem.c **** 
 339              		.loc 1 222 0
 340 0058 70BD     		pop	{r4, r5, r6, pc}
 341              	.LVL34:
 342              	.L33:
 343 005a 00BF     		.align	2
 344              	.L32:
 345 005c 00000000 		.word	.LANCHOR0
 346 0060 E8320000 		.word	.LANCHOR1
 347 0064 08400000 		.word	.LANCHOR1+3360
 348              		.cfi_endproc
 349              	.LFE39:
 350              		.size	lv_mem_alloc, .-lv_mem_alloc
 351              		.section	.text.lv_mem_defrag,"ax",%progbits
 352              		.align	2
 353              		.global	lv_mem_defrag
 354              		.thumb
 355              		.thumb_func
 356              		.type	lv_mem_defrag, %function
 357              	lv_mem_defrag:
 358              	.LFB42:
 354:lvgl\src\lv_misc/lv_mem.c **** #if LV_MEM_CUSTOM == 0
 359              		.loc 1 354 0
 360              		.cfi_startproc
 361              		@ args = 0, pretend = 0, frame = 0
 362              		@ frame_needed = 0, uses_anonymous_args = 0
 363 0000 10B5     		push	{r4, lr}
 364              		.cfi_def_cfa_offset 8
 365              		.cfi_offset 4, -8
 366              		.cfi_offset 14, -4
 358:lvgl\src\lv_misc/lv_mem.c **** 
 367              		.loc 1 358 0
 368 0002 0020     		movs	r0, #0
 369 0004 FFF7FEFF 		bl	ent_get_next
 370              	.LVL35:
 371 0008 0446     		mov	r4, r0
 372              	.LVL36:
 373 000a 07E0     		b	.L35
 374              	.LVL37:
 375              	.L37:
 363:lvgl\src\lv_misc/lv_mem.c ****                 e_free = ent_get_next(e_free);
 376              		.loc 1 363 0
 377 000c 2378     		ldrb	r3, [r4]	@ zero_extendqisi2
 378 000e 13F0010F 		tst	r3, #1
 379 0012 05D0     		beq	.L36
 364:lvgl\src\lv_misc/lv_mem.c ****             }
 380              		.loc 1 364 0
 381 0014 2046     		mov	r0, r4
 382 0016 FFF7FEFF 		bl	ent_get_next
 383              	.LVL38:
 384              	.L42:
 354:lvgl\src\lv_misc/lv_mem.c **** #if LV_MEM_CUSTOM == 0
ARM GAS  C:\Users\strap\AppData\Local\Temp\ccjJjp6v.s 			page 24


 385              		.loc 1 354 0
 386 001a 0446     		mov	r4, r0
 387              	.L35:
 388              	.LVL39:
 362:lvgl\src\lv_misc/lv_mem.c ****             if(e_free->header.s.used != 0) {
 389              		.loc 1 362 0
 390 001c 002C     		cmp	r4, #0
 391 001e F5D1     		bne	.L37
 392              	.L36:
 371:lvgl\src\lv_misc/lv_mem.c **** 
 393              		.loc 1 371 0
 394 0020 BCB1     		cbz	r4, .L34
 374:lvgl\src\lv_misc/lv_mem.c ****         while(e_next != NULL) {
 395              		.loc 1 374 0
 396 0022 2046     		mov	r0, r4
 397 0024 FFF7FEFF 		bl	ent_get_next
 398              	.LVL40:
 375:lvgl\src\lv_misc/lv_mem.c ****             if(e_next->header.s.used == 0) {
 399              		.loc 1 375 0
 400 0028 0FE0     		b	.L39
 401              	.L41:
 376:lvgl\src\lv_misc/lv_mem.c ****                 e_free->header.s.d_size += e_next->header.s.d_size + sizeof(e_next->header);
 402              		.loc 1 376 0
 403 002a 0378     		ldrb	r3, [r0]	@ zero_extendqisi2
 404 002c 13F0010F 		tst	r3, #1
 405 0030 0DD1     		bne	.L40
 377:lvgl\src\lv_misc/lv_mem.c ****             }
 406              		.loc 1 377 0
 407 0032 0168     		ldr	r1, [r0]
 408 0034 2368     		ldr	r3, [r4]
 409 0036 C3F35E02 		ubfx	r2, r3, #1, #31
 410 003a 02EB5102 		add	r2, r2, r1, lsr #1
 411 003e 0432     		adds	r2, r2, #4
 412 0040 62F35F03 		bfi	r3, r2, #1, #31
 413 0044 2360     		str	r3, [r4]
 383:lvgl\src\lv_misc/lv_mem.c ****         }
 414              		.loc 1 383 0
 415 0046 FFF7FEFF 		bl	ent_get_next
 416              	.LVL41:
 417              	.L39:
 375:lvgl\src\lv_misc/lv_mem.c ****             if(e_next->header.s.used == 0) {
 418              		.loc 1 375 0
 419 004a 0028     		cmp	r0, #0
 420 004c EDD1     		bne	.L41
 421              	.L40:
 386:lvgl\src\lv_misc/lv_mem.c **** 
 422              		.loc 1 386 0
 423 004e 0028     		cmp	r0, #0
 424 0050 E3D1     		bne	.L42
 425              	.LVL42:
 426              	.L34:
 427 0052 10BD     		pop	{r4, pc}
 428              		.cfi_endproc
 429              	.LFE42:
 430              		.size	lv_mem_defrag, .-lv_mem_defrag
 431              		.section	.text.lv_mem_free,"ax",%progbits
 432              		.align	2
ARM GAS  C:\Users\strap\AppData\Local\Temp\ccjJjp6v.s 			page 25


 433              		.global	lv_mem_free
 434              		.thumb
 435              		.thumb_func
 436              		.type	lv_mem_free, %function
 437              	lv_mem_free:
 438              	.LFB40:
 229:lvgl\src\lv_misc/lv_mem.c ****     if(data == &zero_mem) return;
 439              		.loc 1 229 0
 440              		.cfi_startproc
 441              		@ args = 0, pretend = 0, frame = 0
 442              		@ frame_needed = 0, uses_anonymous_args = 0
 443              	.LVL43:
 230:lvgl\src\lv_misc/lv_mem.c ****     if(data == NULL) return;
 444              		.loc 1 230 0
 445 0000 1A4B     		ldr	r3, .L51
 446 0002 9842     		cmp	r0, r3
 447 0004 31D0     		beq	.L50
 231:lvgl\src\lv_misc/lv_mem.c **** 
 448              		.loc 1 231 0
 449 0006 80B3     		cbz	r0, .L50
 229:lvgl\src\lv_misc/lv_mem.c ****     if(data == &zero_mem) return;
 450              		.loc 1 229 0
 451 0008 10B5     		push	{r4, lr}
 452              		.cfi_def_cfa_offset 8
 453              		.cfi_offset 4, -8
 454              		.cfi_offset 14, -4
 455 000a 0446     		mov	r4, r0
 239:lvgl\src\lv_misc/lv_mem.c ****     e->header.s.used = 0;
 456              		.loc 1 239 0
 457 000c 0438     		subs	r0, r0, #4
 458              	.LVL44:
 240:lvgl\src\lv_misc/lv_mem.c **** #endif
 459              		.loc 1 240 0
 460 000e 14F8043C 		ldrb	r3, [r4, #-4]	@ zero_extendqisi2
 461 0012 6FF30003 		bfc	r3, #0, #1
 462 0016 04F8043C 		strb	r3, [r4, #-4]
 246:lvgl\src\lv_misc/lv_mem.c ****     if(full_defrag_cnt < LV_MEM_FULL_DEFRAG_CNT) {
 463              		.loc 1 246 0
 464 001a 154A     		ldr	r2, .L51+4
 465 001c B2F8243D 		ldrh	r3, [r2, #3364]
 466 0020 0133     		adds	r3, r3, #1
 467 0022 9BB2     		uxth	r3, r3
 468 0024 A2F8243D 		strh	r3, [r2, #3364]	@ movhi
 247:lvgl\src\lv_misc/lv_mem.c ****         /* Make a simple defrag.
 469              		.loc 1 247 0
 470 0028 0F2B     		cmp	r3, #15
 471 002a 17D8     		bhi	.L46
 472              	.LBB4:
 251:lvgl\src\lv_misc/lv_mem.c ****         while(e_next != NULL) {
 473              		.loc 1 251 0
 474 002c FFF7FEFF 		bl	ent_get_next
 475              	.LVL45:
 252:lvgl\src\lv_misc/lv_mem.c ****             if(e_next->header.s.used == 0) {
 476              		.loc 1 252 0
 477 0030 11E0     		b	.L47
 478              	.L48:
 253:lvgl\src\lv_misc/lv_mem.c ****                 e->header.s.d_size += e_next->header.s.d_size + sizeof(e->header);
ARM GAS  C:\Users\strap\AppData\Local\Temp\ccjJjp6v.s 			page 26


 479              		.loc 1 253 0
 480 0032 0378     		ldrb	r3, [r0]	@ zero_extendqisi2
 481 0034 13F0010F 		tst	r3, #1
 482 0038 16D1     		bne	.L44
 254:lvgl\src\lv_misc/lv_mem.c ****             }
 483              		.loc 1 254 0
 484 003a 0168     		ldr	r1, [r0]
 485 003c 54F8043C 		ldr	r3, [r4, #-4]
 486 0040 C3F35E02 		ubfx	r2, r3, #1, #31
 487 0044 02EB5102 		add	r2, r2, r1, lsr #1
 488 0048 0432     		adds	r2, r2, #4
 489 004a 62F35F03 		bfi	r3, r2, #1, #31
 490 004e 44F8043C 		str	r3, [r4, #-4]
 259:lvgl\src\lv_misc/lv_mem.c ****         }
 491              		.loc 1 259 0
 492 0052 FFF7FEFF 		bl	ent_get_next
 493              	.LVL46:
 494              	.L47:
 252:lvgl\src\lv_misc/lv_mem.c ****             if(e_next->header.s.used == 0) {
 495              		.loc 1 252 0
 496 0056 0028     		cmp	r0, #0
 497 0058 EBD1     		bne	.L48
 498 005a 10BD     		pop	{r4, pc}
 499              	.LVL47:
 500              	.L46:
 501              	.LBE4:
 263:lvgl\src\lv_misc/lv_mem.c ****         lv_mem_defrag();
 502              		.loc 1 263 0
 503 005c 0022     		movs	r2, #0
 504 005e 044B     		ldr	r3, .L51+4
 505 0060 A3F8242D 		strh	r2, [r3, #3364]	@ movhi
 264:lvgl\src\lv_misc/lv_mem.c **** 
 506              		.loc 1 264 0
 507 0064 FFF7FEFF 		bl	lv_mem_defrag
 508              	.LVL48:
 509              	.L44:
 510 0068 10BD     		pop	{r4, pc}
 511              	.LVL49:
 512              	.L50:
 513              		.cfi_def_cfa_offset 0
 514              		.cfi_restore 4
 515              		.cfi_restore 14
 516 006a 7047     		bx	lr
 517              	.L52:
 518              		.align	2
 519              	.L51:
 520 006c 08400000 		.word	.LANCHOR1+3360
 521 0070 E8320000 		.word	.LANCHOR1
 522              		.cfi_endproc
 523              	.LFE40:
 524              		.size	lv_mem_free, .-lv_mem_free
 525              		.section	.text.lv_mem_test,"ax",%progbits
 526              		.align	2
 527              		.global	lv_mem_test
 528              		.thumb
 529              		.thumb_func
 530              		.type	lv_mem_test, %function
ARM GAS  C:\Users\strap\AppData\Local\Temp\ccjJjp6v.s 			page 27


 531              	lv_mem_test:
 532              	.LFB43:
 395:lvgl\src\lv_misc/lv_mem.c **** #if LV_MEM_CUSTOM == 0
 533              		.loc 1 395 0
 534              		.cfi_startproc
 535              		@ args = 0, pretend = 0, frame = 0
 536              		@ frame_needed = 0, uses_anonymous_args = 0
 537 0000 08B5     		push	{r3, lr}
 538              		.cfi_def_cfa_offset 8
 539              		.cfi_offset 3, -8
 540              		.cfi_offset 14, -4
 398:lvgl\src\lv_misc/lv_mem.c ****     while(e) {
 541              		.loc 1 398 0
 542 0002 0020     		movs	r0, #0
 543 0004 FFF7FEFF 		bl	ent_get_next
 544              	.LVL50:
 399:lvgl\src\lv_misc/lv_mem.c ****         if(e->header.s.d_size > LV_MEM_SIZE) {
 545              		.loc 1 399 0
 546 0008 0EE0     		b	.L54
 547              	.L56:
 548              	.LBB5:
 400:lvgl\src\lv_misc/lv_mem.c ****             return LV_RES_INV;
 549              		.loc 1 400 0
 550 000a 0368     		ldr	r3, [r0]
 551 000c C3F35E03 		ubfx	r3, r3, #1, #31
 552 0010 B3F5804F 		cmp	r3, #16384
 553 0014 0CD8     		bhi	.L57
 554              	.LVL51:
 404:lvgl\src\lv_misc/lv_mem.c ****             return LV_RES_INV;
 555              		.loc 1 404 0
 556 0016 0344     		add	r3, r3, r0
 557 0018 074A     		ldr	r2, .L60
 558 001a 1268     		ldr	r2, [r2]
 559 001c 02F58042 		add	r2, r2, #16384
 560 0020 9342     		cmp	r3, r2
 561 0022 07D8     		bhi	.L58
 407:lvgl\src\lv_misc/lv_mem.c ****     }
 562              		.loc 1 407 0
 563 0024 FFF7FEFF 		bl	ent_get_next
 564              	.LVL52:
 565              	.L54:
 566              	.LBE5:
 399:lvgl\src\lv_misc/lv_mem.c ****         if(e->header.s.d_size > LV_MEM_SIZE) {
 567              		.loc 1 399 0
 568 0028 0028     		cmp	r0, #0
 569 002a EED1     		bne	.L56
 410:lvgl\src\lv_misc/lv_mem.c **** }
 570              		.loc 1 410 0
 571 002c 0120     		movs	r0, #1
 572              	.LVL53:
 573 002e 08BD     		pop	{r3, pc}
 574              	.LVL54:
 575              	.L57:
 576              	.LBB6:
 401:lvgl\src\lv_misc/lv_mem.c ****         }
 577              		.loc 1 401 0
 578 0030 0020     		movs	r0, #0
ARM GAS  C:\Users\strap\AppData\Local\Temp\ccjJjp6v.s 			page 28


 579              	.LVL55:
 580 0032 08BD     		pop	{r3, pc}
 581              	.LVL56:
 582              	.L58:
 405:lvgl\src\lv_misc/lv_mem.c ****         }
 583              		.loc 1 405 0
 584 0034 0020     		movs	r0, #0
 585              	.LVL57:
 586              	.LBE6:
 411:lvgl\src\lv_misc/lv_mem.c **** 
 587              		.loc 1 411 0
 588 0036 08BD     		pop	{r3, pc}
 589              	.L61:
 590              		.align	2
 591              	.L60:
 592 0038 00000000 		.word	.LANCHOR0
 593              		.cfi_endproc
 594              	.LFE43:
 595              		.size	lv_mem_test, .-lv_mem_test
 596              		.section	.text._lv_mem_get_size,"ax",%progbits
 597              		.align	2
 598              		.global	_lv_mem_get_size
 599              		.thumb
 600              		.thumb_func
 601              		.type	_lv_mem_get_size, %function
 602              	_lv_mem_get_size:
 603              	.LFB45:
 464:lvgl\src\lv_misc/lv_mem.c ****     if(data == NULL) return 0;
 604              		.loc 1 464 0
 605              		.cfi_startproc
 606              		@ args = 0, pretend = 0, frame = 0
 607              		@ frame_needed = 0, uses_anonymous_args = 0
 608              		@ link register save eliminated.
 609              	.LVL58:
 465:lvgl\src\lv_misc/lv_mem.c ****     if(data == &zero_mem) return 0;
 610              		.loc 1 465 0
 611 0000 38B1     		cbz	r0, .L64
 466:lvgl\src\lv_misc/lv_mem.c **** 
 612              		.loc 1 466 0
 613 0002 064A     		ldr	r2, .L66
 614 0004 9042     		cmp	r0, r2
 615 0006 06D0     		beq	.L65
 616              	.LVL59:
 470:lvgl\src\lv_misc/lv_mem.c **** }
 617              		.loc 1 470 0
 618 0008 50F8040C 		ldr	r0, [r0, #-4]
 619              	.LVL60:
 620 000c C0F35E00 		ubfx	r0, r0, #1, #31
 621 0010 7047     		bx	lr
 622              	.LVL61:
 623              	.L64:
 465:lvgl\src\lv_misc/lv_mem.c ****     if(data == &zero_mem) return 0;
 624              		.loc 1 465 0
 625 0012 0020     		movs	r0, #0
 626              	.LVL62:
 627 0014 7047     		bx	lr
 628              	.LVL63:
ARM GAS  C:\Users\strap\AppData\Local\Temp\ccjJjp6v.s 			page 29


 629              	.L65:
 466:lvgl\src\lv_misc/lv_mem.c **** 
 630              		.loc 1 466 0
 631 0016 0020     		movs	r0, #0
 632              	.LVL64:
 471:lvgl\src\lv_misc/lv_mem.c **** 
 633              		.loc 1 471 0
 634 0018 7047     		bx	lr
 635              	.L67:
 636 001a 00BF     		.align	2
 637              	.L66:
 638 001c 08400000 		.word	.LANCHOR1+3360
 639              		.cfi_endproc
 640              	.LFE45:
 641              		.size	_lv_mem_get_size, .-_lv_mem_get_size
 642              		.section	.text._lv_mem_buf_release,"ax",%progbits
 643              		.align	2
 644              		.global	_lv_mem_buf_release
 645              		.thumb
 646              		.thumb_func
 647              		.type	_lv_mem_buf_release, %function
 648              	_lv_mem_buf_release:
 649              	.LFB47:
 548:lvgl\src\lv_misc/lv_mem.c ****     uint8_t i;
 650              		.loc 1 548 0
 651              		.cfi_startproc
 652              		@ args = 0, pretend = 0, frame = 0
 653              		@ frame_needed = 0, uses_anonymous_args = 0
 654              		@ link register save eliminated.
 655              	.LVL65:
 552:lvgl\src\lv_misc/lv_mem.c ****         if(mem_buf_small[i].p == p) {
 656              		.loc 1 552 0
 657 0000 0023     		movs	r3, #0
 658 0002 0FE0     		b	.L69
 659              	.LVL66:
 660              	.L72:
 553:lvgl\src\lv_misc/lv_mem.c ****             mem_buf_small[i].used = 0;
 661              		.loc 1 553 0
 662 0004 1946     		mov	r1, r3
 663 0006 134A     		ldr	r2, .L76
 664 0008 52F83320 		ldr	r2, [r2, r3, lsl #3]
 665 000c 8242     		cmp	r2, r0
 666 000e 07D1     		bne	.L70
 554:lvgl\src\lv_misc/lv_mem.c ****             return;
 667              		.loc 1 554 0
 668 0010 104B     		ldr	r3, .L76
 669              	.LVL67:
 670 0012 03EBC101 		add	r1, r3, r1, lsl #3
 671 0016 8B79     		ldrb	r3, [r1, #6]	@ zero_extendqisi2
 672 0018 6FF30003 		bfc	r3, #0, #1
 673 001c 8B71     		strb	r3, [r1, #6]
 555:lvgl\src\lv_misc/lv_mem.c ****         }
 674              		.loc 1 555 0
 675 001e 7047     		bx	lr
 676              	.LVL68:
 677              	.L70:
 552:lvgl\src\lv_misc/lv_mem.c ****         if(mem_buf_small[i].p == p) {
ARM GAS  C:\Users\strap\AppData\Local\Temp\ccjJjp6v.s 			page 30


 678              		.loc 1 552 0 discriminator 2
 679 0020 0133     		adds	r3, r3, #1
 680              	.LVL69:
 681 0022 DBB2     		uxtb	r3, r3
 682              	.LVL70:
 683              	.L69:
 552:lvgl\src\lv_misc/lv_mem.c ****         if(mem_buf_small[i].p == p) {
 684              		.loc 1 552 0 is_stmt 0 discriminator 1
 685 0024 012B     		cmp	r3, #1
 686 0026 EDD9     		bls	.L72
 687 0028 0023     		movs	r3, #0
 688              	.LVL71:
 689 002a 0FE0     		b	.L73
 690              	.LVL72:
 691              	.L75:
 560:lvgl\src\lv_misc/lv_mem.c ****             LV_GC_ROOT(_lv_mem_buf[i]).used = 0;
 692              		.loc 1 560 0 is_stmt 1
 693 002c 1946     		mov	r1, r3
 694 002e 0A4A     		ldr	r2, .L76+4
 695 0030 52F83320 		ldr	r2, [r2, r3, lsl #3]
 696 0034 9042     		cmp	r0, r2
 697 0036 07D1     		bne	.L74
 561:lvgl\src\lv_misc/lv_mem.c ****             return;
 698              		.loc 1 561 0
 699 0038 074B     		ldr	r3, .L76+4
 700              	.LVL73:
 701 003a 03EBC101 		add	r1, r3, r1, lsl #3
 702 003e 8B79     		ldrb	r3, [r1, #6]	@ zero_extendqisi2
 703 0040 6FF30003 		bfc	r3, #0, #1
 704 0044 8B71     		strb	r3, [r1, #6]
 562:lvgl\src\lv_misc/lv_mem.c ****         }
 705              		.loc 1 562 0
 706 0046 7047     		bx	lr
 707              	.LVL74:
 708              	.L74:
 559:lvgl\src\lv_misc/lv_mem.c ****         if(LV_GC_ROOT(_lv_mem_buf[i]).p == p) {
 709              		.loc 1 559 0 discriminator 2
 710 0048 0133     		adds	r3, r3, #1
 711              	.LVL75:
 712 004a DBB2     		uxtb	r3, r3
 713              	.LVL76:
 714              	.L73:
 559:lvgl\src\lv_misc/lv_mem.c ****         if(LV_GC_ROOT(_lv_mem_buf[i]).p == p) {
 715              		.loc 1 559 0 is_stmt 0 discriminator 1
 716 004c 0F2B     		cmp	r3, #15
 717 004e EDD9     		bls	.L75
 718 0050 7047     		bx	lr
 719              	.L77:
 720 0052 00BF     		.align	2
 721              	.L76:
 722 0054 00000000 		.word	.LANCHOR2
 723 0058 00000000 		.word	_lv_mem_buf
 724              		.cfi_endproc
 725              	.LFE47:
 726              		.size	_lv_mem_buf_release, .-_lv_mem_buf_release
 727              		.section	.text._lv_mem_buf_free_all,"ax",%progbits
 728              		.align	2
ARM GAS  C:\Users\strap\AppData\Local\Temp\ccjJjp6v.s 			page 31


 729              		.global	_lv_mem_buf_free_all
 730              		.thumb
 731              		.thumb_func
 732              		.type	_lv_mem_buf_free_all, %function
 733              	_lv_mem_buf_free_all:
 734              	.LFB48:
 573:lvgl\src\lv_misc/lv_mem.c ****     uint8_t i;
 735              		.loc 1 573 0 is_stmt 1
 736              		.cfi_startproc
 737              		@ args = 0, pretend = 0, frame = 0
 738              		@ frame_needed = 0, uses_anonymous_args = 0
 739              	.LVL77:
 575:lvgl\src\lv_misc/lv_mem.c ****         mem_buf_small[i].used = 0;
 740              		.loc 1 575 0
 741 0000 0023     		movs	r3, #0
 742 0002 08E0     		b	.L79
 743              	.LVL78:
 744              	.L80:
 576:lvgl\src\lv_misc/lv_mem.c ****     }
 745              		.loc 1 576 0 discriminator 3
 746 0004 114A     		ldr	r2, .L85
 747 0006 02EBC302 		add	r2, r2, r3, lsl #3
 748 000a 9179     		ldrb	r1, [r2, #6]	@ zero_extendqisi2
 749 000c 6FF30001 		bfc	r1, #0, #1
 750 0010 9171     		strb	r1, [r2, #6]
 575:lvgl\src\lv_misc/lv_mem.c ****         mem_buf_small[i].used = 0;
 751              		.loc 1 575 0 discriminator 3
 752 0012 0133     		adds	r3, r3, #1
 753              	.LVL79:
 754 0014 DBB2     		uxtb	r3, r3
 755              	.LVL80:
 756              	.L79:
 575:lvgl\src\lv_misc/lv_mem.c ****         mem_buf_small[i].used = 0;
 757              		.loc 1 575 0 is_stmt 0 discriminator 1
 758 0016 012B     		cmp	r3, #1
 759 0018 F4D9     		bls	.L80
 573:lvgl\src\lv_misc/lv_mem.c ****     uint8_t i;
 760              		.loc 1 573 0 is_stmt 1
 761 001a 10B5     		push	{r4, lr}
 762              		.cfi_def_cfa_offset 8
 763              		.cfi_offset 4, -8
 764              		.cfi_offset 14, -4
 765 001c 0024     		movs	r4, #0
 766 001e 12E0     		b	.L81
 767              	.LVL81:
 768              	.L83:
 580:lvgl\src\lv_misc/lv_mem.c ****             lv_mem_free(LV_GC_ROOT(_lv_mem_buf[i]).p);
 769              		.loc 1 580 0
 770 0020 0B4B     		ldr	r3, .L85+4
 771 0022 53F83400 		ldr	r0, [r3, r4, lsl #3]
 772 0026 60B1     		cbz	r0, .L82
 581:lvgl\src\lv_misc/lv_mem.c ****             LV_GC_ROOT(_lv_mem_buf[i]).p = NULL;
 773              		.loc 1 581 0
 774 0028 FFF7FEFF 		bl	lv_mem_free
 775              	.LVL82:
 582:lvgl\src\lv_misc/lv_mem.c ****             LV_GC_ROOT(_lv_mem_buf[i]).used = 0;
 776              		.loc 1 582 0
ARM GAS  C:\Users\strap\AppData\Local\Temp\ccjJjp6v.s 			page 32


 777 002c 084B     		ldr	r3, .L85+4
 778 002e 0022     		movs	r2, #0
 779 0030 43F83420 		str	r2, [r3, r4, lsl #3]
 583:lvgl\src\lv_misc/lv_mem.c ****             LV_GC_ROOT(_lv_mem_buf[i]).size = 0;
 780              		.loc 1 583 0
 781 0034 03EBC403 		add	r3, r3, r4, lsl #3
 782 0038 9979     		ldrb	r1, [r3, #6]	@ zero_extendqisi2
 783 003a 62F30001 		bfi	r1, r2, #0, #1
 784 003e 9971     		strb	r1, [r3, #6]
 584:lvgl\src\lv_misc/lv_mem.c ****         }
 785              		.loc 1 584 0
 786 0040 9A80     		strh	r2, [r3, #4]	@ movhi
 787              	.L82:
 579:lvgl\src\lv_misc/lv_mem.c ****         if(LV_GC_ROOT(_lv_mem_buf[i]).p) {
 788              		.loc 1 579 0 discriminator 2
 789 0042 0134     		adds	r4, r4, #1
 790              	.LVL83:
 791 0044 E4B2     		uxtb	r4, r4
 792              	.LVL84:
 793              	.L81:
 579:lvgl\src\lv_misc/lv_mem.c ****         if(LV_GC_ROOT(_lv_mem_buf[i]).p) {
 794              		.loc 1 579 0 is_stmt 0 discriminator 1
 795 0046 0F2C     		cmp	r4, #15
 796 0048 EAD9     		bls	.L83
 587:lvgl\src\lv_misc/lv_mem.c **** 
 797              		.loc 1 587 0 is_stmt 1
 798 004a 10BD     		pop	{r4, pc}
 799              	.LVL85:
 800              	.L86:
 801              		.align	2
 802              	.L85:
 803 004c 00000000 		.word	.LANCHOR2
 804 0050 00000000 		.word	_lv_mem_buf
 805              		.cfi_endproc
 806              	.LFE48:
 807              		.size	_lv_mem_buf_free_all, .-_lv_mem_buf_free_all
 808              		.section	.text._lv_memcpy,"ax",%progbits
 809              		.align	2
 810              		.global	_lv_memcpy
 811              		.thumb
 812              		.thumb_func
 813              		.type	_lv_memcpy, %function
 814              	_lv_memcpy:
 815              	.LFB49:
 597:lvgl\src\lv_misc/lv_mem.c ****     uint8_t * d8 = dst;
 816              		.loc 1 597 0
 817              		.cfi_startproc
 818              		@ args = 0, pretend = 0, frame = 0
 819              		@ frame_needed = 0, uses_anonymous_args = 0
 820              		@ link register save eliminated.
 821              	.LVL86:
 822 0000 30B4     		push	{r4, r5}
 823              		.cfi_def_cfa_offset 8
 824              		.cfi_offset 4, -8
 825              		.cfi_offset 5, -4
 826              	.LVL87:
 601:lvgl\src\lv_misc/lv_mem.c ****     lv_uintptr_t s_align = (lv_uintptr_t)s8 & ALIGN_MASK;
ARM GAS  C:\Users\strap\AppData\Local\Temp\ccjJjp6v.s 			page 33


 827              		.loc 1 601 0
 828 0002 00F00304 		and	r4, r0, #3
 829              	.LVL88:
 602:lvgl\src\lv_misc/lv_mem.c **** 
 830              		.loc 1 602 0
 831 0006 01F00303 		and	r3, r1, #3
 832              	.LVL89:
 605:lvgl\src\lv_misc/lv_mem.c ****         while(len > 32) {
 833              		.loc 1 605 0
 834 000a 9C42     		cmp	r4, r3
 835 000c 44D1     		bne	.L104
 836 000e 4FE0     		b	.L106
 837              	.LVL90:
 838              	.L90:
 607:lvgl\src\lv_misc/lv_mem.c ****             REPEAT8(COPY8);
 839              		.loc 1 607 0
 840 0010 0C78     		ldrb	r4, [r1]	@ zero_extendqisi2
 841 0012 1C70     		strb	r4, [r3]
 842              	.LVL91:
 843 0014 4C78     		ldrb	r4, [r1, #1]	@ zero_extendqisi2
 844 0016 5C70     		strb	r4, [r3, #1]
 845              	.LVL92:
 846 0018 8C78     		ldrb	r4, [r1, #2]	@ zero_extendqisi2
 847 001a 9C70     		strb	r4, [r3, #2]
 848              	.LVL93:
 849 001c CC78     		ldrb	r4, [r1, #3]	@ zero_extendqisi2
 850 001e DC70     		strb	r4, [r3, #3]
 851              	.LVL94:
 852 0020 0C79     		ldrb	r4, [r1, #4]	@ zero_extendqisi2
 853 0022 1C71     		strb	r4, [r3, #4]
 854              	.LVL95:
 855 0024 4C79     		ldrb	r4, [r1, #5]	@ zero_extendqisi2
 856 0026 5C71     		strb	r4, [r3, #5]
 857              	.LVL96:
 858 0028 8C79     		ldrb	r4, [r1, #6]	@ zero_extendqisi2
 859 002a 9C71     		strb	r4, [r3, #6]
 860              	.LVL97:
 861 002c CC79     		ldrb	r4, [r1, #7]	@ zero_extendqisi2
 862 002e DC71     		strb	r4, [r3, #7]
 863              	.LVL98:
 608:lvgl\src\lv_misc/lv_mem.c ****             REPEAT8(COPY8);
 864              		.loc 1 608 0
 865 0030 0C7A     		ldrb	r4, [r1, #8]	@ zero_extendqisi2
 866 0032 1C72     		strb	r4, [r3, #8]
 867              	.LVL99:
 868 0034 4C7A     		ldrb	r4, [r1, #9]	@ zero_extendqisi2
 869 0036 5C72     		strb	r4, [r3, #9]
 870              	.LVL100:
 871 0038 8C7A     		ldrb	r4, [r1, #10]	@ zero_extendqisi2
 872 003a 9C72     		strb	r4, [r3, #10]
 873              	.LVL101:
 874 003c CC7A     		ldrb	r4, [r1, #11]	@ zero_extendqisi2
 875 003e DC72     		strb	r4, [r3, #11]
 876              	.LVL102:
 877 0040 0C7B     		ldrb	r4, [r1, #12]	@ zero_extendqisi2
 878 0042 1C73     		strb	r4, [r3, #12]
 879              	.LVL103:
ARM GAS  C:\Users\strap\AppData\Local\Temp\ccjJjp6v.s 			page 34


 880 0044 4C7B     		ldrb	r4, [r1, #13]	@ zero_extendqisi2
 881 0046 5C73     		strb	r4, [r3, #13]
 882              	.LVL104:
 883 0048 8C7B     		ldrb	r4, [r1, #14]	@ zero_extendqisi2
 884 004a 9C73     		strb	r4, [r3, #14]
 885              	.LVL105:
 886 004c CC7B     		ldrb	r4, [r1, #15]	@ zero_extendqisi2
 887 004e DC73     		strb	r4, [r3, #15]
 888              	.LVL106:
 609:lvgl\src\lv_misc/lv_mem.c ****             REPEAT8(COPY8);
 889              		.loc 1 609 0
 890 0050 0C7C     		ldrb	r4, [r1, #16]	@ zero_extendqisi2
 891 0052 1C74     		strb	r4, [r3, #16]
 892              	.LVL107:
 893 0054 4C7C     		ldrb	r4, [r1, #17]	@ zero_extendqisi2
 894 0056 5C74     		strb	r4, [r3, #17]
 895              	.LVL108:
 896 0058 8C7C     		ldrb	r4, [r1, #18]	@ zero_extendqisi2
 897 005a 9C74     		strb	r4, [r3, #18]
 898              	.LVL109:
 899 005c CC7C     		ldrb	r4, [r1, #19]	@ zero_extendqisi2
 900 005e DC74     		strb	r4, [r3, #19]
 901              	.LVL110:
 902 0060 0C7D     		ldrb	r4, [r1, #20]	@ zero_extendqisi2
 903 0062 1C75     		strb	r4, [r3, #20]
 904              	.LVL111:
 905 0064 4C7D     		ldrb	r4, [r1, #21]	@ zero_extendqisi2
 906 0066 5C75     		strb	r4, [r3, #21]
 907              	.LVL112:
 908 0068 8C7D     		ldrb	r4, [r1, #22]	@ zero_extendqisi2
 909 006a 9C75     		strb	r4, [r3, #22]
 910              	.LVL113:
 911 006c CC7D     		ldrb	r4, [r1, #23]	@ zero_extendqisi2
 912 006e DC75     		strb	r4, [r3, #23]
 913              	.LVL114:
 610:lvgl\src\lv_misc/lv_mem.c ****             len -= 32;
 914              		.loc 1 610 0
 915 0070 0C7E     		ldrb	r4, [r1, #24]	@ zero_extendqisi2
 916 0072 1C76     		strb	r4, [r3, #24]
 917              	.LVL115:
 918 0074 4C7E     		ldrb	r4, [r1, #25]	@ zero_extendqisi2
 919 0076 5C76     		strb	r4, [r3, #25]
 920              	.LVL116:
 921 0078 8C7E     		ldrb	r4, [r1, #26]	@ zero_extendqisi2
 922 007a 9C76     		strb	r4, [r3, #26]
 923              	.LVL117:
 924 007c CC7E     		ldrb	r4, [r1, #27]	@ zero_extendqisi2
 925 007e DC76     		strb	r4, [r3, #27]
 926              	.LVL118:
 927 0080 0C7F     		ldrb	r4, [r1, #28]	@ zero_extendqisi2
 928 0082 1C77     		strb	r4, [r3, #28]
 929              	.LVL119:
 930 0084 4C7F     		ldrb	r4, [r1, #29]	@ zero_extendqisi2
 931 0086 5C77     		strb	r4, [r3, #29]
 932              	.LVL120:
 933 0088 8C7F     		ldrb	r4, [r1, #30]	@ zero_extendqisi2
 934 008a 9C77     		strb	r4, [r3, #30]
ARM GAS  C:\Users\strap\AppData\Local\Temp\ccjJjp6v.s 			page 35


 935              	.LVL121:
 936 008c CC7F     		ldrb	r4, [r1, #31]	@ zero_extendqisi2
 937 008e DC77     		strb	r4, [r3, #31]
 938 0090 2033     		adds	r3, r3, #32
 939              	.LVL122:
 940 0092 2031     		adds	r1, r1, #32
 941              	.LVL123:
 611:lvgl\src\lv_misc/lv_mem.c ****         }
 942              		.loc 1 611 0
 943 0094 203A     		subs	r2, r2, #32
 944              	.LVL124:
 945 0096 00E0     		b	.L88
 946              	.LVL125:
 947              	.L104:
 948 0098 0346     		mov	r3, r0
 949              	.LVL126:
 950              	.L88:
 606:lvgl\src\lv_misc/lv_mem.c ****             REPEAT8(COPY8);
 951              		.loc 1 606 0
 952 009a 202A     		cmp	r2, #32
 953 009c B8D8     		bhi	.L90
 954 009e 04E0     		b	.L91
 955              	.L92:
 614:lvgl\src\lv_misc/lv_mem.c ****             len--;
 956              		.loc 1 614 0
 957 00a0 11F8014B 		ldrb	r4, [r1], #1	@ zero_extendqisi2
 958              	.LVL127:
 959 00a4 03F8014B 		strb	r4, [r3], #1
 960              	.LVL128:
 615:lvgl\src\lv_misc/lv_mem.c ****         }
 961              		.loc 1 615 0
 962 00a8 013A     		subs	r2, r2, #1
 963              	.LVL129:
 964              	.L91:
 613:lvgl\src\lv_misc/lv_mem.c ****             COPY8
 965              		.loc 1 613 0
 966 00aa 002A     		cmp	r2, #0
 967 00ac F8D1     		bne	.L92
 968 00ae 36E0     		b	.L93
 969              	.LVL130:
 970              	.L106:
 622:lvgl\src\lv_misc/lv_mem.c ****         d_align = ALIGN_MASK + 1 - d_align;
 971              		.loc 1 622 0
 972 00b0 5CB1     		cbz	r4, .L105
 623:lvgl\src\lv_misc/lv_mem.c ****         while(d_align && len) {
 973              		.loc 1 623 0
 974 00b2 C4F10404 		rsb	r4, r4, #4
 975              	.LVL131:
 598:lvgl\src\lv_misc/lv_mem.c ****     const uint8_t * s8 = src;
 976              		.loc 1 598 0
 977 00b6 0346     		mov	r3, r0
 978              	.LVL132:
 624:lvgl\src\lv_misc/lv_mem.c ****             COPY8;
 979              		.loc 1 624 0
 980 00b8 05E0     		b	.L95
 981              	.LVL133:
 982              	.L98:
ARM GAS  C:\Users\strap\AppData\Local\Temp\ccjJjp6v.s 			page 36


 625:lvgl\src\lv_misc/lv_mem.c ****             d_align--;
 983              		.loc 1 625 0
 984 00ba 11F8015B 		ldrb	r5, [r1], #1	@ zero_extendqisi2
 985              	.LVL134:
 986 00be 03F8015B 		strb	r5, [r3], #1
 987              	.LVL135:
 626:lvgl\src\lv_misc/lv_mem.c ****             len--;
 988              		.loc 1 626 0
 989 00c2 013C     		subs	r4, r4, #1
 990              	.LVL136:
 627:lvgl\src\lv_misc/lv_mem.c ****         }
 991              		.loc 1 627 0
 992 00c4 013A     		subs	r2, r2, #1
 993              	.LVL137:
 994              	.L95:
 624:lvgl\src\lv_misc/lv_mem.c ****             COPY8;
 995              		.loc 1 624 0
 996 00c6 14B9     		cbnz	r4, .L96
 997 00c8 17E0     		b	.L97
 998              	.LVL138:
 999              	.L105:
 598:lvgl\src\lv_misc/lv_mem.c ****     const uint8_t * s8 = src;
 1000              		.loc 1 598 0
 1001 00ca 0346     		mov	r3, r0
 1002              	.LVL139:
 1003 00cc 15E0     		b	.L97
 1004              	.LVL140:
 1005              	.L96:
 624:lvgl\src\lv_misc/lv_mem.c ****             COPY8;
 1006              		.loc 1 624 0 discriminator 1
 1007 00ce 002A     		cmp	r2, #0
 1008 00d0 F3D1     		bne	.L98
 1009 00d2 12E0     		b	.L97
 1010              	.LVL141:
 1011              	.L99:
 634:lvgl\src\lv_misc/lv_mem.c ****         len -= 32;
 1012              		.loc 1 634 0
 1013 00d4 0C68     		ldr	r4, [r1]
 1014 00d6 1C60     		str	r4, [r3]
 1015              	.LVL142:
 1016 00d8 4C68     		ldr	r4, [r1, #4]
 1017 00da 5C60     		str	r4, [r3, #4]
 1018              	.LVL143:
 1019 00dc 8C68     		ldr	r4, [r1, #8]
 1020 00de 9C60     		str	r4, [r3, #8]
 1021              	.LVL144:
 1022 00e0 CC68     		ldr	r4, [r1, #12]
 1023 00e2 DC60     		str	r4, [r3, #12]
 1024              	.LVL145:
 1025 00e4 0C69     		ldr	r4, [r1, #16]
 1026 00e6 1C61     		str	r4, [r3, #16]
 1027              	.LVL146:
 1028 00e8 4C69     		ldr	r4, [r1, #20]
 1029 00ea 5C61     		str	r4, [r3, #20]
 1030              	.LVL147:
 1031 00ec 8C69     		ldr	r4, [r1, #24]
 1032 00ee 9C61     		str	r4, [r3, #24]
ARM GAS  C:\Users\strap\AppData\Local\Temp\ccjJjp6v.s 			page 37


 1033              	.LVL148:
 1034 00f0 CC69     		ldr	r4, [r1, #28]
 1035 00f2 DC61     		str	r4, [r3, #28]
 1036 00f4 2033     		adds	r3, r3, #32
 1037              	.LVL149:
 1038 00f6 2031     		adds	r1, r1, #32
 1039              	.LVL150:
 635:lvgl\src\lv_misc/lv_mem.c ****     }
 1040              		.loc 1 635 0
 1041 00f8 203A     		subs	r2, r2, #32
 1042              	.LVL151:
 1043              	.L97:
 633:lvgl\src\lv_misc/lv_mem.c ****         REPEAT8(COPY32)
 1044              		.loc 1 633 0
 1045 00fa 202A     		cmp	r2, #32
 1046 00fc EAD8     		bhi	.L99
 1047 00fe 04E0     		b	.L100
 1048              	.L101:
 639:lvgl\src\lv_misc/lv_mem.c ****         len -= 4;
 1049              		.loc 1 639 0
 1050 0100 51F8044B 		ldr	r4, [r1], #4
 1051              	.LVL152:
 1052 0104 43F8044B 		str	r4, [r3], #4
 1053              	.LVL153:
 640:lvgl\src\lv_misc/lv_mem.c ****     }
 1054              		.loc 1 640 0
 1055 0108 043A     		subs	r2, r2, #4
 1056              	.LVL154:
 1057              	.L100:
 638:lvgl\src\lv_misc/lv_mem.c ****         COPY32;
 1058              		.loc 1 638 0
 1059 010a 042A     		cmp	r2, #4
 1060 010c F8D8     		bhi	.L101
 1061 010e 04E0     		b	.L102
 1062              	.LVL155:
 1063              	.L103:
 646:lvgl\src\lv_misc/lv_mem.c ****         len--;
 1064              		.loc 1 646 0
 1065 0110 11F8014B 		ldrb	r4, [r1], #1	@ zero_extendqisi2
 1066              	.LVL156:
 1067 0114 03F8014B 		strb	r4, [r3], #1
 1068              	.LVL157:
 647:lvgl\src\lv_misc/lv_mem.c ****     }
 1069              		.loc 1 647 0
 1070 0118 013A     		subs	r2, r2, #1
 1071              	.LVL158:
 1072              	.L102:
 645:lvgl\src\lv_misc/lv_mem.c ****         COPY8
 1073              		.loc 1 645 0
 1074 011a 002A     		cmp	r2, #0
 1075 011c F8D1     		bne	.L103
 1076              	.L93:
 651:lvgl\src\lv_misc/lv_mem.c **** 
 1077              		.loc 1 651 0
 1078 011e 30BC     		pop	{r4, r5}
 1079              		.cfi_restore 5
 1080              		.cfi_restore 4
ARM GAS  C:\Users\strap\AppData\Local\Temp\ccjJjp6v.s 			page 38


 1081              		.cfi_def_cfa_offset 0
 1082 0120 7047     		bx	lr
 1083              		.cfi_endproc
 1084              	.LFE49:
 1085              		.size	_lv_memcpy, .-_lv_memcpy
 1086 0122 00BF     		.section	.text.lv_mem_realloc,"ax",%progbits
 1087              		.align	2
 1088              		.global	lv_mem_realloc
 1089              		.thumb
 1090              		.thumb_func
 1091              		.type	lv_mem_realloc, %function
 1092              	lv_mem_realloc:
 1093              	.LFB41:
 290:lvgl\src\lv_misc/lv_mem.c **** 
 1094              		.loc 1 290 0
 1095              		.cfi_startproc
 1096              		@ args = 0, pretend = 0, frame = 0
 1097              		@ frame_needed = 0, uses_anonymous_args = 0
 1098              	.LVL159:
 1099 0000 F8B5     		push	{r3, r4, r5, r6, r7, lr}
 1100              		.cfi_def_cfa_offset 24
 1101              		.cfi_offset 3, -24
 1102              		.cfi_offset 4, -20
 1103              		.cfi_offset 5, -16
 1104              		.cfi_offset 6, -12
 1105              		.cfi_offset 7, -8
 1106              		.cfi_offset 14, -4
 297:lvgl\src\lv_misc/lv_mem.c **** #endif
 1107              		.loc 1 297 0
 1108 0002 0331     		adds	r1, r1, #3
 1109              	.LVL160:
 1110 0004 21F00305 		bic	r5, r1, #3
 1111              	.LVL161:
 301:lvgl\src\lv_misc/lv_mem.c ****         lv_mem_ent_t * e = (lv_mem_ent_t *)((uint8_t *)data_p - sizeof(lv_mem_header_t));
 1112              		.loc 1 301 0
 1113 0008 0446     		mov	r4, r0
 1114 000a 28B1     		cbz	r0, .L109
 1115              	.LVL162:
 1116              	.LBB7:
 303:lvgl\src\lv_misc/lv_mem.c ****             data_p = NULL;
 1117              		.loc 1 303 0
 1118 000c 10F8043C 		ldrb	r3, [r0, #-4]	@ zero_extendqisi2
 1119 0010 13F0010F 		tst	r3, #1
 1120 0014 00D1     		bne	.L109
 304:lvgl\src\lv_misc/lv_mem.c ****         }
 1121              		.loc 1 304 0
 1122 0016 0024     		movs	r4, #0
 1123              	.LVL163:
 1124              	.L109:
 1125              	.LBE7:
 308:lvgl\src\lv_misc/lv_mem.c ****     if(old_size == new_size) return data_p; /*Also avoid reallocating the same memory*/
 1126              		.loc 1 308 0
 1127 0018 2046     		mov	r0, r4
 1128 001a FFF7FEFF 		bl	_lv_mem_get_size
 1129              	.LVL164:
 1130 001e 0646     		mov	r6, r0
 1131              	.LVL165:
ARM GAS  C:\Users\strap\AppData\Local\Temp\ccjJjp6v.s 			page 39


 309:lvgl\src\lv_misc/lv_mem.c **** 
 1132              		.loc 1 309 0
 1133 0020 8542     		cmp	r5, r0
 1134 0022 19D0     		beq	.L113
 313:lvgl\src\lv_misc/lv_mem.c ****         lv_mem_ent_t * e = (lv_mem_ent_t *)((uint8_t *)data_p - sizeof(lv_mem_header_t));
 1135              		.loc 1 313 0
 1136 0024 05D2     		bcs	.L111
 1137              	.LVL166:
 1138              	.LBB8:
 315:lvgl\src\lv_misc/lv_mem.c ****         return &e->first_data;
 1139              		.loc 1 315 0
 1140 0026 2946     		mov	r1, r5
 1141 0028 201F     		subs	r0, r4, #4
 1142              	.LVL167:
 1143 002a FFF7FEFF 		bl	ent_trunc
 1144              	.LVL168:
 316:lvgl\src\lv_misc/lv_mem.c ****     }
 1145              		.loc 1 316 0
 1146 002e 2046     		mov	r0, r4
 1147 0030 F8BD     		pop	{r3, r4, r5, r6, r7, pc}
 1148              	.LVL169:
 1149              	.L111:
 1150              	.LBE8:
 321:lvgl\src\lv_misc/lv_mem.c ****     if(new_p == NULL) {
 1151              		.loc 1 321 0
 1152 0032 2846     		mov	r0, r5
 1153              	.LVL170:
 1154 0034 FFF7FEFF 		bl	lv_mem_alloc
 1155              	.LVL171:
 322:lvgl\src\lv_misc/lv_mem.c ****         LV_LOG_WARN("Couldn't allocate memory");
 1156              		.loc 1 322 0
 1157 0038 0746     		mov	r7, r0
 1158 003a 78B1     		cbz	r0, .L114
 327:lvgl\src\lv_misc/lv_mem.c ****         /*Copy the old data to the new. Use the smaller size*/
 1159              		.loc 1 327 0
 1160 003c 84B1     		cbz	r4, .L115
 329:lvgl\src\lv_misc/lv_mem.c ****             _lv_memcpy(new_p, data_p, LV_MATH_MIN(new_size, old_size));
 1161              		.loc 1 329 0
 1162 003e 86B1     		cbz	r6, .L116
 330:lvgl\src\lv_misc/lv_mem.c ****             lv_mem_free(data_p);
 1163              		.loc 1 330 0
 1164 0040 2A46     		mov	r2, r5
 1165 0042 B542     		cmp	r5, r6
 1166 0044 28BF     		it	cs
 1167 0046 3246     		movcs	r2, r6
 1168 0048 2146     		mov	r1, r4
 1169 004a FFF7FEFF 		bl	_lv_memcpy
 1170              	.LVL172:
 331:lvgl\src\lv_misc/lv_mem.c ****         }
 1171              		.loc 1 331 0
 1172 004e 2046     		mov	r0, r4
 1173 0050 FFF7FEFF 		bl	lv_mem_free
 1174              	.LVL173:
 336:lvgl\src\lv_misc/lv_mem.c **** }
 1175              		.loc 1 336 0
 1176 0054 3846     		mov	r0, r7
 1177 0056 F8BD     		pop	{r3, r4, r5, r6, r7, pc}
ARM GAS  C:\Users\strap\AppData\Local\Temp\ccjJjp6v.s 			page 40


 1178              	.LVL174:
 1179              	.L113:
 309:lvgl\src\lv_misc/lv_mem.c **** 
 1180              		.loc 1 309 0
 1181 0058 2046     		mov	r0, r4
 1182              	.LVL175:
 1183 005a F8BD     		pop	{r3, r4, r5, r6, r7, pc}
 1184              	.LVL176:
 1185              	.L114:
 324:lvgl\src\lv_misc/lv_mem.c ****     }
 1186              		.loc 1 324 0
 1187 005c 0020     		movs	r0, #0
 1188              	.LVL177:
 1189 005e F8BD     		pop	{r3, r4, r5, r6, r7, pc}
 1190              	.LVL178:
 1191              	.L115:
 1192 0060 F8BD     		pop	{r3, r4, r5, r6, r7, pc}
 1193              	.LVL179:
 1194              	.L116:
 337:lvgl\src\lv_misc/lv_mem.c **** 
 1195              		.loc 1 337 0
 1196 0062 F8BD     		pop	{r3, r4, r5, r6, r7, pc}
 1197              		.cfi_endproc
 1198              	.LFE41:
 1199              		.size	lv_mem_realloc, .-lv_mem_realloc
 1200              		.section	.text._lv_mem_buf_get,"ax",%progbits
 1201              		.align	2
 1202              		.global	_lv_mem_buf_get
 1203              		.thumb
 1204              		.thumb_func
 1205              		.type	_lv_mem_buf_get, %function
 1206              	_lv_mem_buf_get:
 1207              	.LFB46:
 487:lvgl\src\lv_misc/lv_mem.c ****     if(size == 0) return NULL;
 1208              		.loc 1 487 0
 1209              		.cfi_startproc
 1210              		@ args = 0, pretend = 0, frame = 0
 1211              		@ frame_needed = 0, uses_anonymous_args = 0
 1212              	.LVL180:
 488:lvgl\src\lv_misc/lv_mem.c **** 
 1213              		.loc 1 488 0
 1214 0000 0028     		cmp	r0, #0
 1215 0002 7FD0     		beq	.L133
 487:lvgl\src\lv_misc/lv_mem.c ****     if(size == 0) return NULL;
 1216              		.loc 1 487 0
 1217 0004 38B5     		push	{r3, r4, r5, lr}
 1218              		.cfi_def_cfa_offset 16
 1219              		.cfi_offset 3, -16
 1220              		.cfi_offset 4, -12
 1221              		.cfi_offset 5, -8
 1222              		.cfi_offset 14, -4
 1223 0006 0146     		mov	r1, r0
 492:lvgl\src\lv_misc/lv_mem.c ****         for(i = 0; i < sizeof(mem_buf_small) / sizeof(mem_buf_small[0]); i++) {
 1224              		.loc 1 492 0
 1225 0008 1028     		cmp	r0, #16
 1226 000a 18D9     		bls	.L134
 1227 000c 4FF0FF30 		mov	r0, #-1
ARM GAS  C:\Users\strap\AppData\Local\Temp\ccjJjp6v.s 			page 41


 1228              	.LVL181:
 1229 0010 0023     		movs	r3, #0
 1230 0012 41E0     		b	.L121
 1231              	.LVL182:
 1232              	.L123:
 494:lvgl\src\lv_misc/lv_mem.c ****                 mem_buf_small[i].used = 1;
 1233              		.loc 1 494 0
 1234 0014 1846     		mov	r0, r3
 1235 0016 3D4A     		ldr	r2, .L138
 1236 0018 02EBC302 		add	r2, r2, r3, lsl #3
 1237 001c 9279     		ldrb	r2, [r2, #6]	@ zero_extendqisi2
 1238 001e 12F0010F 		tst	r2, #1
 1239 0022 09D1     		bne	.L122
 495:lvgl\src\lv_misc/lv_mem.c ****                 return mem_buf_small[i].p;
 1240              		.loc 1 495 0
 1241 0024 394A     		ldr	r2, .L138
 1242 0026 02EBC301 		add	r1, r2, r3, lsl #3
 1243              	.LVL183:
 1244 002a 8B79     		ldrb	r3, [r1, #6]	@ zero_extendqisi2
 1245              	.LVL184:
 1246 002c 43F00103 		orr	r3, r3, #1
 1247 0030 8B71     		strb	r3, [r1, #6]
 496:lvgl\src\lv_misc/lv_mem.c ****             }
 1248              		.loc 1 496 0
 1249 0032 52F83000 		ldr	r0, [r2, r0, lsl #3]
 1250 0036 38BD     		pop	{r3, r4, r5, pc}
 1251              	.LVL185:
 1252              	.L122:
 493:lvgl\src\lv_misc/lv_mem.c ****             if(mem_buf_small[i].used == 0) {
 1253              		.loc 1 493 0 discriminator 2
 1254 0038 0133     		adds	r3, r3, #1
 1255              	.LVL186:
 1256 003a DBB2     		uxtb	r3, r3
 1257              	.LVL187:
 1258 003c 00E0     		b	.L120
 1259              	.LVL188:
 1260              	.L134:
 1261 003e 0023     		movs	r3, #0
 1262              	.LVL189:
 1263              	.L120:
 493:lvgl\src\lv_misc/lv_mem.c ****             if(mem_buf_small[i].used == 0) {
 1264              		.loc 1 493 0 is_stmt 0 discriminator 1
 1265 0040 012B     		cmp	r3, #1
 1266 0042 E7D9     		bls	.L123
 1267 0044 4FF0FF30 		mov	r0, #-1
 1268 0048 0023     		movs	r3, #0
 1269              	.LVL190:
 1270 004a 25E0     		b	.L121
 1271              	.LVL191:
 1272              	.L127:
 504:lvgl\src\lv_misc/lv_mem.c ****             if(LV_GC_ROOT(_lv_mem_buf[i]).size == size) {
 1273              		.loc 1 504 0 is_stmt 1
 1274 004c 1C46     		mov	r4, r3
 1275 004e 304A     		ldr	r2, .L138+4
 1276 0050 02EBC302 		add	r2, r2, r3, lsl #3
 1277 0054 9279     		ldrb	r2, [r2, #6]	@ zero_extendqisi2
 1278 0056 12F0010F 		tst	r2, #1
ARM GAS  C:\Users\strap\AppData\Local\Temp\ccjJjp6v.s 			page 42


 1279 005a 1BD1     		bne	.L124
 504:lvgl\src\lv_misc/lv_mem.c ****             if(LV_GC_ROOT(_lv_mem_buf[i]).size == size) {
 1280              		.loc 1 504 0 is_stmt 0 discriminator 1
 1281 005c 2C4A     		ldr	r2, .L138+4
 1282 005e 02EBC302 		add	r2, r2, r3, lsl #3
 1283 0062 9288     		ldrh	r2, [r2, #4]
 1284 0064 9142     		cmp	r1, r2
 1285 0066 15D8     		bhi	.L124
 505:lvgl\src\lv_misc/lv_mem.c ****                 LV_GC_ROOT(_lv_mem_buf[i]).used = 1;
 1286              		.loc 1 505 0 is_stmt 1
 1287 0068 09D1     		bne	.L125
 506:lvgl\src\lv_misc/lv_mem.c ****                 return LV_GC_ROOT(_lv_mem_buf[i]).p;
 1288              		.loc 1 506 0
 1289 006a 294A     		ldr	r2, .L138+4
 1290 006c 02EBC301 		add	r1, r2, r3, lsl #3
 1291              	.LVL192:
 1292 0070 8B79     		ldrb	r3, [r1, #6]	@ zero_extendqisi2
 1293              	.LVL193:
 1294 0072 43F00103 		orr	r3, r3, #1
 1295 0076 8B71     		strb	r3, [r1, #6]
 507:lvgl\src\lv_misc/lv_mem.c ****             }
 1296              		.loc 1 507 0
 1297 0078 52F83400 		ldr	r0, [r2, r4, lsl #3]
 1298              	.LVL194:
 1299 007c 38BD     		pop	{r3, r4, r5, pc}
 1300              	.LVL195:
 1301              	.L125:
 509:lvgl\src\lv_misc/lv_mem.c ****                 i_guess = i;
 1302              		.loc 1 509 0
 1303 007e 0028     		cmp	r0, #0
 1304 0080 01DA     		bge	.L126
 510:lvgl\src\lv_misc/lv_mem.c ****             }
 1305              		.loc 1 510 0
 1306 0082 58B2     		sxtb	r0, r3
 1307              	.LVL196:
 1308 0084 06E0     		b	.L124
 1309              	.L126:
 513:lvgl\src\lv_misc/lv_mem.c ****                 i_guess = i;
 1310              		.loc 1 513 0
 1311 0086 224C     		ldr	r4, .L138+4
 1312 0088 04EBC004 		add	r4, r4, r0, lsl #3
 1313 008c A488     		ldrh	r4, [r4, #4]
 1314 008e A242     		cmp	r2, r4
 1315 0090 00D2     		bcs	.L124
 514:lvgl\src\lv_misc/lv_mem.c ****             }
 1316              		.loc 1 514 0
 1317 0092 58B2     		sxtb	r0, r3
 1318              	.LVL197:
 1319              	.L124:
 503:lvgl\src\lv_misc/lv_mem.c ****         if(LV_GC_ROOT(_lv_mem_buf[i]).used == 0 && LV_GC_ROOT(_lv_mem_buf[i]).size >= size) {
 1320              		.loc 1 503 0 discriminator 2
 1321 0094 0133     		adds	r3, r3, #1
 1322              	.LVL198:
 1323 0096 DBB2     		uxtb	r3, r3
 1324              	.LVL199:
 1325              	.L121:
 503:lvgl\src\lv_misc/lv_mem.c ****         if(LV_GC_ROOT(_lv_mem_buf[i]).used == 0 && LV_GC_ROOT(_lv_mem_buf[i]).size >= size) {
ARM GAS  C:\Users\strap\AppData\Local\Temp\ccjJjp6v.s 			page 43


 1326              		.loc 1 503 0 is_stmt 0 discriminator 1
 1327 0098 0F2B     		cmp	r3, #15
 1328 009a D7D9     		bls	.L127
 519:lvgl\src\lv_misc/lv_mem.c ****         LV_GC_ROOT(_lv_mem_buf[i_guess]).used = 1;
 1329              		.loc 1 519 0 is_stmt 1
 1330 009c 0028     		cmp	r0, #0
 1331 009e 28DB     		blt	.L135
 520:lvgl\src\lv_misc/lv_mem.c ****         return LV_GC_ROOT(_lv_mem_buf[i_guess]).p;
 1332              		.loc 1 520 0
 1333 00a0 1B4A     		ldr	r2, .L138+4
 1334 00a2 02EBC001 		add	r1, r2, r0, lsl #3
 1335              	.LVL200:
 1336 00a6 8B79     		ldrb	r3, [r1, #6]	@ zero_extendqisi2
 1337              	.LVL201:
 1338 00a8 43F00103 		orr	r3, r3, #1
 1339 00ac 8B71     		strb	r3, [r1, #6]
 521:lvgl\src\lv_misc/lv_mem.c ****     }
 1340              		.loc 1 521 0
 1341 00ae 52F83000 		ldr	r0, [r2, r0, lsl #3]
 1342              	.LVL202:
 1343 00b2 38BD     		pop	{r3, r4, r5, pc}
 1344              	.LVL203:
 1345              	.L131:
 527:lvgl\src\lv_misc/lv_mem.c ****             LV_GC_ROOT(_lv_mem_buf[i]).used = 1;
 1346              		.loc 1 527 0
 1347 00b4 1D46     		mov	r5, r3
 1348 00b6 164A     		ldr	r2, .L138+4
 1349 00b8 02EBC302 		add	r2, r2, r3, lsl #3
 1350 00bc 9279     		ldrb	r2, [r2, #6]	@ zero_extendqisi2
 1351 00be 12F0010F 		tst	r2, #1
 1352 00c2 13D1     		bne	.L129
 528:lvgl\src\lv_misc/lv_mem.c ****             LV_GC_ROOT(_lv_mem_buf[i]).size = size;
 1353              		.loc 1 528 0
 1354 00c4 124C     		ldr	r4, .L138+4
 1355 00c6 04EBC303 		add	r3, r4, r3, lsl #3
 1356              	.LVL204:
 1357 00ca 42F00102 		orr	r2, r2, #1
 1358 00ce 9A71     		strb	r2, [r3, #6]
 529:lvgl\src\lv_misc/lv_mem.c ****             /*if this fails you probably need to increase your LV_MEM_SIZE/heap size*/
 1359              		.loc 1 529 0
 1360 00d0 9980     		strh	r1, [r3, #4]	@ movhi
 531:lvgl\src\lv_misc/lv_mem.c ****             if(LV_GC_ROOT(_lv_mem_buf[i]).p == NULL) {
 1361              		.loc 1 531 0
 1362 00d2 54F83500 		ldr	r0, [r4, r5, lsl #3]
 1363              	.LVL205:
 1364 00d6 FFF7FEFF 		bl	lv_mem_realloc
 1365              	.LVL206:
 1366 00da 44F83500 		str	r0, [r4, r5, lsl #3]
 532:lvgl\src\lv_misc/lv_mem.c ****                 LV_DEBUG_ASSERT(false, "Out of memory, can't allocate a new  buffer (increase your 
 1367              		.loc 1 532 0
 1368 00de 98B9     		cbnz	r0, .L119
 533:lvgl\src\lv_misc/lv_mem.c ****             }
 1369              		.loc 1 533 0 discriminator 1
 1370 00e0 0022     		movs	r2, #0
 1371 00e2 0023     		movs	r3, #0
 1372 00e4 0B48     		ldr	r0, .L138+8
 1373 00e6 FFF7FEFF 		bl	lv_debug_log_error
ARM GAS  C:\Users\strap\AppData\Local\Temp\ccjJjp6v.s 			page 44


 1374              	.LVL207:
 1375              	.L130:
 1376 00ea FEE7     		b	.L130
 1377              	.LVL208:
 1378              	.L129:
 526:lvgl\src\lv_misc/lv_mem.c ****         if(LV_GC_ROOT(_lv_mem_buf[i]).used == 0) {
 1379              		.loc 1 526 0 discriminator 2
 1380 00ec 0133     		adds	r3, r3, #1
 1381              	.LVL209:
 1382 00ee DBB2     		uxtb	r3, r3
 1383              	.LVL210:
 1384 00f0 00E0     		b	.L128
 1385              	.L135:
 1386 00f2 0023     		movs	r3, #0
 1387              	.LVL211:
 1388              	.L128:
 526:lvgl\src\lv_misc/lv_mem.c ****         if(LV_GC_ROOT(_lv_mem_buf[i]).used == 0) {
 1389              		.loc 1 526 0 is_stmt 0 discriminator 1
 1390 00f4 0F2B     		cmp	r3, #15
 1391 00f6 DDD9     		bls	.L131
 539:lvgl\src\lv_misc/lv_mem.c ****     return NULL;
 1392              		.loc 1 539 0 is_stmt 1 discriminator 1
 1393 00f8 0022     		movs	r2, #0
 1394 00fa 0023     		movs	r3, #0
 1395              	.LVL212:
 1396 00fc 0648     		ldr	r0, .L138+12
 1397              	.LVL213:
 1398 00fe FFF7FEFF 		bl	lv_debug_log_error
 1399              	.LVL214:
 1400              	.L132:
 1401 0102 FEE7     		b	.L132
 1402              	.LVL215:
 1403              	.L133:
 1404              		.cfi_def_cfa_offset 0
 1405              		.cfi_restore 3
 1406              		.cfi_restore 4
 1407              		.cfi_restore 5
 1408              		.cfi_restore 14
 488:lvgl\src\lv_misc/lv_mem.c **** 
 1409              		.loc 1 488 0
 1410 0104 0020     		movs	r0, #0
 1411              	.LVL216:
 1412 0106 7047     		bx	lr
 1413              	.L119:
 1414              		.cfi_def_cfa_offset 16
 1415              		.cfi_offset 3, -16
 1416              		.cfi_offset 4, -12
 1417              		.cfi_offset 5, -8
 1418              		.cfi_offset 14, -4
 541:lvgl\src\lv_misc/lv_mem.c **** 
 1419              		.loc 1 541 0
 1420 0108 38BD     		pop	{r3, r4, r5, pc}
 1421              	.L139:
 1422 010a 00BF     		.align	2
 1423              	.L138:
 1424 010c 00000000 		.word	.LANCHOR2
 1425 0110 00000000 		.word	_lv_mem_buf
ARM GAS  C:\Users\strap\AppData\Local\Temp\ccjJjp6v.s 			page 45


 1426 0114 00000000 		.word	.LC0
 1427 0118 54000000 		.word	.LC1
 1428              		.cfi_endproc
 1429              	.LFE46:
 1430              		.size	_lv_mem_buf_get, .-_lv_mem_buf_get
 1431              		.section	.text._lv_memset,"ax",%progbits
 1432              		.align	2
 1433              		.global	_lv_memset
 1434              		.thumb
 1435              		.thumb_func
 1436              		.type	_lv_memset, %function
 1437              	_lv_memset:
 1438              	.LFB50:
 661:lvgl\src\lv_misc/lv_mem.c **** 
 1439              		.loc 1 661 0
 1440              		.cfi_startproc
 1441              		@ args = 0, pretend = 0, frame = 0
 1442              		@ frame_needed = 0, uses_anonymous_args = 0
 1443              		@ link register save eliminated.
 1444              	.LVL217:
 668:lvgl\src\lv_misc/lv_mem.c ****         d_align = ALIGN_MASK + 1 - d_align;
 1445              		.loc 1 668 0
 1446 0000 10F00303 		ands	r3, r0, #3
 1447              	.LVL218:
 1448 0004 09D0     		beq	.L141
 669:lvgl\src\lv_misc/lv_mem.c ****         while(d_align && len) {
 1449              		.loc 1 669 0
 1450 0006 C3F10403 		rsb	r3, r3, #4
 1451              	.LVL219:
 670:lvgl\src\lv_misc/lv_mem.c ****             *d8 = v;
 1452              		.loc 1 670 0
 1453 000a 03E0     		b	.L142
 1454              	.LVL220:
 1455              	.L143:
 671:lvgl\src\lv_misc/lv_mem.c ****             d8++;
 1456              		.loc 1 671 0
 1457 000c 00F8011B 		strb	r1, [r0], #1
 1458              	.LVL221:
 673:lvgl\src\lv_misc/lv_mem.c ****             d_align--;
 1459              		.loc 1 673 0
 1460 0010 013A     		subs	r2, r2, #1
 1461              	.LVL222:
 674:lvgl\src\lv_misc/lv_mem.c ****         }
 1462              		.loc 1 674 0
 1463 0012 013B     		subs	r3, r3, #1
 1464              	.LVL223:
 1465              	.L142:
 670:lvgl\src\lv_misc/lv_mem.c ****             *d8 = v;
 1466              		.loc 1 670 0
 1467 0014 0BB1     		cbz	r3, .L141
 670:lvgl\src\lv_misc/lv_mem.c ****             *d8 = v;
 1468              		.loc 1 670 0 is_stmt 0 discriminator 1
 1469 0016 002A     		cmp	r2, #0
 1470 0018 F8D1     		bne	.L143
 1471              	.L141:
 678:lvgl\src\lv_misc/lv_mem.c **** 
 1472              		.loc 1 678 0 is_stmt 1
ARM GAS  C:\Users\strap\AppData\Local\Temp\ccjJjp6v.s 			page 46


 1473 001a 01EB0123 		add	r3, r1, r1, lsl #8
 1474              	.LVL224:
 1475 001e 03EB0143 		add	r3, r3, r1, lsl #16
 1476 0022 03EB0163 		add	r3, r3, r1, lsl #24
 1477              	.LVL225:
 682:lvgl\src\lv_misc/lv_mem.c ****         SET32(v32);
 1478              		.loc 1 682 0
 1479 0026 09E0     		b	.L144
 1480              	.LVL226:
 1481              	.L145:
 683:lvgl\src\lv_misc/lv_mem.c ****         SET32(v32);
 1482              		.loc 1 683 0
 1483 0028 0360     		str	r3, [r0]
 1484              	.LVL227:
 684:lvgl\src\lv_misc/lv_mem.c ****         SET32(v32);
 1485              		.loc 1 684 0
 1486 002a 4360     		str	r3, [r0, #4]
 1487              	.LVL228:
 685:lvgl\src\lv_misc/lv_mem.c ****         SET32(v32);
 1488              		.loc 1 685 0
 1489 002c 8360     		str	r3, [r0, #8]
 1490              	.LVL229:
 686:lvgl\src\lv_misc/lv_mem.c ****         SET32(v32);
 1491              		.loc 1 686 0
 1492 002e C360     		str	r3, [r0, #12]
 1493              	.LVL230:
 687:lvgl\src\lv_misc/lv_mem.c ****         SET32(v32);
 1494              		.loc 1 687 0
 1495 0030 0361     		str	r3, [r0, #16]
 1496              	.LVL231:
 688:lvgl\src\lv_misc/lv_mem.c ****         SET32(v32);
 1497              		.loc 1 688 0
 1498 0032 4361     		str	r3, [r0, #20]
 1499              	.LVL232:
 689:lvgl\src\lv_misc/lv_mem.c ****         SET32(v32);
 1500              		.loc 1 689 0
 1501 0034 8361     		str	r3, [r0, #24]
 1502              	.LVL233:
 690:lvgl\src\lv_misc/lv_mem.c ****         len -= 32;
 1503              		.loc 1 690 0
 1504 0036 C361     		str	r3, [r0, #28]
 1505 0038 2030     		adds	r0, r0, #32
 1506              	.LVL234:
 691:lvgl\src\lv_misc/lv_mem.c ****     }
 1507              		.loc 1 691 0
 1508 003a 203A     		subs	r2, r2, #32
 1509              	.LVL235:
 1510              	.L144:
 682:lvgl\src\lv_misc/lv_mem.c ****         SET32(v32);
 1511              		.loc 1 682 0
 1512 003c 202A     		cmp	r2, #32
 1513 003e F3D8     		bhi	.L145
 1514 0040 02E0     		b	.L146
 1515              	.L147:
 695:lvgl\src\lv_misc/lv_mem.c ****         len -= 4;
 1516              		.loc 1 695 0
 1517 0042 40F8043B 		str	r3, [r0], #4
ARM GAS  C:\Users\strap\AppData\Local\Temp\ccjJjp6v.s 			page 47


 1518              	.LVL236:
 696:lvgl\src\lv_misc/lv_mem.c ****     }
 1519              		.loc 1 696 0
 1520 0046 043A     		subs	r2, r2, #4
 1521              	.LVL237:
 1522              	.L146:
 694:lvgl\src\lv_misc/lv_mem.c ****         SET32(v32);
 1523              		.loc 1 694 0
 1524 0048 042A     		cmp	r2, #4
 1525 004a FAD8     		bhi	.L147
 1526 004c 02E0     		b	.L148
 1527              	.LVL238:
 1528              	.L149:
 702:lvgl\src\lv_misc/lv_mem.c ****         d8++;
 1529              		.loc 1 702 0
 1530 004e 00F8011B 		strb	r1, [r0], #1
 1531              	.LVL239:
 704:lvgl\src\lv_misc/lv_mem.c ****     }
 1532              		.loc 1 704 0
 1533 0052 013A     		subs	r2, r2, #1
 1534              	.LVL240:
 1535              	.L148:
 701:lvgl\src\lv_misc/lv_mem.c ****         *d8 = v;
 1536              		.loc 1 701 0
 1537 0054 002A     		cmp	r2, #0
 1538 0056 FAD1     		bne	.L149
 706:lvgl\src\lv_misc/lv_mem.c **** 
 1539              		.loc 1 706 0
 1540 0058 7047     		bx	lr
 1541              		.cfi_endproc
 1542              	.LFE50:
 1543              		.size	_lv_memset, .-_lv_memset
 1544 005a 00BF     		.section	.text.lv_mem_monitor,"ax",%progbits
 1545              		.align	2
 1546              		.global	lv_mem_monitor
 1547              		.thumb
 1548              		.thumb_func
 1549              		.type	lv_mem_monitor, %function
 1550              	lv_mem_monitor:
 1551              	.LFB44:
 419:lvgl\src\lv_misc/lv_mem.c ****     /*Init the data*/
 1552              		.loc 1 419 0
 1553              		.cfi_startproc
 1554              		@ args = 0, pretend = 0, frame = 0
 1555              		@ frame_needed = 0, uses_anonymous_args = 0
 1556              	.LVL241:
 1557 0000 10B5     		push	{r4, lr}
 1558              		.cfi_def_cfa_offset 8
 1559              		.cfi_offset 4, -8
 1560              		.cfi_offset 14, -4
 1561 0002 0446     		mov	r4, r0
 421:lvgl\src\lv_misc/lv_mem.c **** #if LV_MEM_CUSTOM == 0
 1562              		.loc 1 421 0
 1563 0004 1C22     		movs	r2, #28
 1564 0006 0021     		movs	r1, #0
 1565 0008 FFF7FEFF 		bl	_lv_memset
 1566              	.LVL242:
ARM GAS  C:\Users\strap\AppData\Local\Temp\ccjJjp6v.s 			page 48


 426:lvgl\src\lv_misc/lv_mem.c **** 
 1567              		.loc 1 426 0
 1568 000c 0020     		movs	r0, #0
 1569 000e FFF7FEFF 		bl	ent_get_next
 1570              	.LVL243:
 428:lvgl\src\lv_misc/lv_mem.c ****         if(e->header.s.used == 0) {
 1571              		.loc 1 428 0
 1572 0012 18E0     		b	.L151
 1573              	.L154:
 429:lvgl\src\lv_misc/lv_mem.c ****             mon_p->free_cnt++;
 1574              		.loc 1 429 0
 1575 0014 0378     		ldrb	r3, [r0]	@ zero_extendqisi2
 1576 0016 13F0010F 		tst	r3, #1
 1577 001a 0FD1     		bne	.L152
 430:lvgl\src\lv_misc/lv_mem.c ****             mon_p->free_size += e->header.s.d_size;
 1578              		.loc 1 430 0
 1579 001c 6368     		ldr	r3, [r4, #4]
 1580 001e 0133     		adds	r3, r3, #1
 1581 0020 6360     		str	r3, [r4, #4]
 431:lvgl\src\lv_misc/lv_mem.c ****             if(e->header.s.d_size > mon_p->free_biggest_size) {
 1582              		.loc 1 431 0
 1583 0022 0268     		ldr	r2, [r0]
 1584 0024 A368     		ldr	r3, [r4, #8]
 1585 0026 03EB5203 		add	r3, r3, r2, lsr #1
 1586 002a A360     		str	r3, [r4, #8]
 432:lvgl\src\lv_misc/lv_mem.c ****                 mon_p->free_biggest_size = e->header.s.d_size;
 1587              		.loc 1 432 0
 1588 002c 0368     		ldr	r3, [r0]
 1589 002e C3F35E03 		ubfx	r3, r3, #1, #31
 1590 0032 E268     		ldr	r2, [r4, #12]
 1591 0034 9342     		cmp	r3, r2
 1592 0036 04D9     		bls	.L153
 433:lvgl\src\lv_misc/lv_mem.c ****             }
 1593              		.loc 1 433 0
 1594 0038 E360     		str	r3, [r4, #12]
 1595 003a 02E0     		b	.L153
 1596              	.L152:
 437:lvgl\src\lv_misc/lv_mem.c ****         }
 1597              		.loc 1 437 0
 1598 003c 2369     		ldr	r3, [r4, #16]
 1599 003e 0133     		adds	r3, r3, #1
 1600 0040 2361     		str	r3, [r4, #16]
 1601              	.L153:
 440:lvgl\src\lv_misc/lv_mem.c ****     }
 1602              		.loc 1 440 0
 1603 0042 FFF7FEFF 		bl	ent_get_next
 1604              	.LVL244:
 1605              	.L151:
 428:lvgl\src\lv_misc/lv_mem.c ****         if(e->header.s.used == 0) {
 1606              		.loc 1 428 0
 1607 0046 0028     		cmp	r0, #0
 1608 0048 E4D1     		bne	.L154
 442:lvgl\src\lv_misc/lv_mem.c ****     mon_p->max_used = mem_max_size;
 1609              		.loc 1 442 0
 1610 004a 4FF48043 		mov	r3, #16384
 1611 004e 2360     		str	r3, [r4]
 443:lvgl\src\lv_misc/lv_mem.c ****     mon_p->used_pct   = 100 - (100U * mon_p->free_size) / mon_p->total_size;
ARM GAS  C:\Users\strap\AppData\Local\Temp\ccjJjp6v.s 			page 49


 1612              		.loc 1 443 0
 1613 0050 0C4B     		ldr	r3, .L158
 1614 0052 D3F81C3D 		ldr	r3, [r3, #3356]
 1615 0056 6361     		str	r3, [r4, #20]
 444:lvgl\src\lv_misc/lv_mem.c ****     if(mon_p->free_size > 0) {
 1616              		.loc 1 444 0
 1617 0058 A168     		ldr	r1, [r4, #8]
 1618 005a 6423     		movs	r3, #100
 1619 005c 03FB01F3 		mul	r3, r3, r1
 1620 0060 9B0B     		lsrs	r3, r3, #14
 1621 0062 C3F16403 		rsb	r3, r3, #100
 1622 0066 2376     		strb	r3, [r4, #24]
 445:lvgl\src\lv_misc/lv_mem.c ****         mon_p->frag_pct   = (uint32_t)mon_p->free_biggest_size * 100U / mon_p->free_size;
 1623              		.loc 1 445 0
 1624 0068 49B1     		cbz	r1, .L155
 446:lvgl\src\lv_misc/lv_mem.c ****         mon_p->frag_pct   = 100 - mon_p->frag_pct;
 1625              		.loc 1 446 0
 1626 006a E368     		ldr	r3, [r4, #12]
 1627 006c 6422     		movs	r2, #100
 1628 006e 02FB03F3 		mul	r3, r2, r3
 1629 0072 B3FBF1F3 		udiv	r3, r3, r1
 1630 0076 DBB2     		uxtb	r3, r3
 447:lvgl\src\lv_misc/lv_mem.c ****     }
 1631              		.loc 1 447 0
 1632 0078 D31A     		subs	r3, r2, r3
 1633 007a 6376     		strb	r3, [r4, #25]
 1634 007c 10BD     		pop	{r4, pc}
 1635              	.LVL245:
 1636              	.L155:
 450:lvgl\src\lv_misc/lv_mem.c ****     }
 1637              		.loc 1 450 0
 1638 007e 0023     		movs	r3, #0
 1639 0080 6376     		strb	r3, [r4, #25]
 1640 0082 10BD     		pop	{r4, pc}
 1641              	.LVL246:
 1642              	.L159:
 1643              		.align	2
 1644              	.L158:
 1645 0084 E8320000 		.word	.LANCHOR1
 1646              		.cfi_endproc
 1647              	.LFE44:
 1648              		.size	lv_mem_monitor, .-lv_mem_monitor
 1649              		.section	.text._lv_memset_00,"ax",%progbits
 1650              		.align	2
 1651              		.global	_lv_memset_00
 1652              		.thumb
 1653              		.thumb_func
 1654              		.type	_lv_memset_00, %function
 1655              	_lv_memset_00:
 1656              	.LFB51:
 714:lvgl\src\lv_misc/lv_mem.c ****     uint8_t * d8 = (uint8_t *) dst;
 1657              		.loc 1 714 0
 1658              		.cfi_startproc
 1659              		@ args = 0, pretend = 0, frame = 0
 1660              		@ frame_needed = 0, uses_anonymous_args = 0
 1661              		@ link register save eliminated.
 1662              	.LVL247:
ARM GAS  C:\Users\strap\AppData\Local\Temp\ccjJjp6v.s 			page 50


 720:lvgl\src\lv_misc/lv_mem.c ****         d_align = ALIGN_MASK + 1 - d_align;
 1663              		.loc 1 720 0
 1664 0000 10F00303 		ands	r3, r0, #3
 1665              	.LVL248:
 1666 0004 16D0     		beq	.L164
 721:lvgl\src\lv_misc/lv_mem.c ****         while(d_align && len) {
 1667              		.loc 1 721 0
 1668 0006 C3F10403 		rsb	r3, r3, #4
 1669              	.LVL249:
 722:lvgl\src\lv_misc/lv_mem.c ****             *d8 = 0x00;
 1670              		.loc 1 722 0
 1671 000a 04E0     		b	.L162
 1672              	.LVL250:
 1673              	.L165:
 723:lvgl\src\lv_misc/lv_mem.c ****             d8++;
 1674              		.loc 1 723 0
 1675 000c 0022     		movs	r2, #0
 1676 000e 00F8012B 		strb	r2, [r0], #1
 1677              	.LVL251:
 725:lvgl\src\lv_misc/lv_mem.c ****             d_align--;
 1678              		.loc 1 725 0
 1679 0012 0139     		subs	r1, r1, #1
 1680              	.LVL252:
 726:lvgl\src\lv_misc/lv_mem.c ****         }
 1681              		.loc 1 726 0
 1682 0014 013B     		subs	r3, r3, #1
 1683              	.LVL253:
 1684              	.L162:
 722:lvgl\src\lv_misc/lv_mem.c ****             *d8 = 0x00;
 1685              		.loc 1 722 0
 1686 0016 6BB1     		cbz	r3, .L164
 722:lvgl\src\lv_misc/lv_mem.c ****             *d8 = 0x00;
 1687              		.loc 1 722 0 is_stmt 0 discriminator 1
 1688 0018 0029     		cmp	r1, #0
 1689 001a F7D1     		bne	.L165
 1690 001c 0AE0     		b	.L164
 1691              	.LVL254:
 1692              	.L166:
 732:lvgl\src\lv_misc/lv_mem.c ****         SET32(0);
 1693              		.loc 1 732 0 is_stmt 1
 1694 001e 0023     		movs	r3, #0
 1695 0020 0360     		str	r3, [r0]
 1696              	.LVL255:
 733:lvgl\src\lv_misc/lv_mem.c ****         SET32(0);
 1697              		.loc 1 733 0
 1698 0022 4360     		str	r3, [r0, #4]
 1699              	.LVL256:
 734:lvgl\src\lv_misc/lv_mem.c ****         SET32(0);
 1700              		.loc 1 734 0
 1701 0024 8360     		str	r3, [r0, #8]
 1702              	.LVL257:
 735:lvgl\src\lv_misc/lv_mem.c ****         SET32(0);
 1703              		.loc 1 735 0
 1704 0026 C360     		str	r3, [r0, #12]
 1705              	.LVL258:
 736:lvgl\src\lv_misc/lv_mem.c ****         SET32(0);
 1706              		.loc 1 736 0
ARM GAS  C:\Users\strap\AppData\Local\Temp\ccjJjp6v.s 			page 51


 1707 0028 0361     		str	r3, [r0, #16]
 1708              	.LVL259:
 737:lvgl\src\lv_misc/lv_mem.c ****         SET32(0);
 1709              		.loc 1 737 0
 1710 002a 4361     		str	r3, [r0, #20]
 1711              	.LVL260:
 738:lvgl\src\lv_misc/lv_mem.c ****         SET32(0);
 1712              		.loc 1 738 0
 1713 002c 8361     		str	r3, [r0, #24]
 1714              	.LVL261:
 739:lvgl\src\lv_misc/lv_mem.c ****         len -= 32;
 1715              		.loc 1 739 0
 1716 002e C361     		str	r3, [r0, #28]
 1717 0030 2030     		adds	r0, r0, #32
 1718              	.LVL262:
 740:lvgl\src\lv_misc/lv_mem.c ****     }
 1719              		.loc 1 740 0
 1720 0032 2039     		subs	r1, r1, #32
 1721              	.LVL263:
 1722              	.L164:
 731:lvgl\src\lv_misc/lv_mem.c ****         SET32(0);
 1723              		.loc 1 731 0
 1724 0034 2029     		cmp	r1, #32
 1725 0036 F2D8     		bhi	.L166
 1726 0038 03E0     		b	.L167
 1727              	.L168:
 744:lvgl\src\lv_misc/lv_mem.c ****         len -= 4;
 1728              		.loc 1 744 0
 1729 003a 0023     		movs	r3, #0
 1730 003c 40F8043B 		str	r3, [r0], #4
 1731              	.LVL264:
 745:lvgl\src\lv_misc/lv_mem.c ****     }
 1732              		.loc 1 745 0
 1733 0040 0439     		subs	r1, r1, #4
 1734              	.LVL265:
 1735              	.L167:
 743:lvgl\src\lv_misc/lv_mem.c ****         SET32(0);
 1736              		.loc 1 743 0
 1737 0042 0429     		cmp	r1, #4
 1738 0044 F9D8     		bhi	.L168
 1739 0046 03E0     		b	.L169
 1740              	.LVL266:
 1741              	.L170:
 751:lvgl\src\lv_misc/lv_mem.c ****         d8++;
 1742              		.loc 1 751 0
 1743 0048 0023     		movs	r3, #0
 1744 004a 00F8013B 		strb	r3, [r0], #1
 1745              	.LVL267:
 753:lvgl\src\lv_misc/lv_mem.c ****     }
 1746              		.loc 1 753 0
 1747 004e 0139     		subs	r1, r1, #1
 1748              	.LVL268:
 1749              	.L169:
 750:lvgl\src\lv_misc/lv_mem.c ****         *d8 = 0;
 1750              		.loc 1 750 0
 1751 0050 0029     		cmp	r1, #0
 1752 0052 F9D1     		bne	.L170
ARM GAS  C:\Users\strap\AppData\Local\Temp\ccjJjp6v.s 			page 52


 755:lvgl\src\lv_misc/lv_mem.c **** 
 1753              		.loc 1 755 0
 1754 0054 7047     		bx	lr
 1755              		.cfi_endproc
 1756              	.LFE51:
 1757              		.size	_lv_memset_00, .-_lv_memset_00
 1758 0056 00BF     		.section	.text._lv_mem_deinit,"ax",%progbits
 1759              		.align	2
 1760              		.global	_lv_mem_deinit
 1761              		.thumb
 1762              		.thumb_func
 1763              		.type	_lv_mem_deinit, %function
 1764              	_lv_mem_deinit:
 1765              	.LFB38:
 141:lvgl\src\lv_misc/lv_mem.c **** #if LV_MEM_CUSTOM == 0
 1766              		.loc 1 141 0
 1767              		.cfi_startproc
 1768              		@ args = 0, pretend = 0, frame = 0
 1769              		@ frame_needed = 0, uses_anonymous_args = 0
 1770 0000 10B5     		push	{r4, lr}
 1771              		.cfi_def_cfa_offset 8
 1772              		.cfi_offset 4, -8
 1773              		.cfi_offset 14, -4
 143:lvgl\src\lv_misc/lv_mem.c ****     lv_mem_ent_t * full = (lv_mem_ent_t *)work_mem;
 1774              		.loc 1 143 0
 1775 0002 094C     		ldr	r4, .L173
 1776 0004 4FF48041 		mov	r1, #16384
 1777 0008 2068     		ldr	r0, [r4]
 1778 000a FFF7FEFF 		bl	_lv_memset_00
 1779              	.LVL269:
 144:lvgl\src\lv_misc/lv_mem.c ****     full->header.s.used = 0;
 1780              		.loc 1 144 0
 1781 000e 2368     		ldr	r3, [r4]
 1782              	.LVL270:
 145:lvgl\src\lv_misc/lv_mem.c ****     /*The total mem size id reduced by the first header and the close patterns */
 1783              		.loc 1 145 0
 1784 0010 1A78     		ldrb	r2, [r3]	@ zero_extendqisi2
 1785 0012 6FF30002 		bfc	r2, #0, #1
 1786 0016 1A70     		strb	r2, [r3]
 147:lvgl\src\lv_misc/lv_mem.c **** #endif
 1787              		.loc 1 147 0
 1788 0018 1A68     		ldr	r2, [r3]
 1789 001a 43F6FC71 		movw	r1, #16380
 1790 001e 61F35F02 		bfi	r2, r1, #1, #31
 1791 0022 1A60     		str	r2, [r3]
 1792 0024 10BD     		pop	{r4, pc}
 1793              	.L174:
 1794 0026 00BF     		.align	2
 1795              	.L173:
 1796 0028 00000000 		.word	.LANCHOR0
 1797              		.cfi_endproc
 1798              	.LFE38:
 1799              		.size	_lv_mem_deinit, .-_lv_mem_deinit
 1800              		.section	.text._lv_memset_ff,"ax",%progbits
 1801              		.align	2
 1802              		.global	_lv_memset_ff
 1803              		.thumb
ARM GAS  C:\Users\strap\AppData\Local\Temp\ccjJjp6v.s 			page 53


 1804              		.thumb_func
 1805              		.type	_lv_memset_ff, %function
 1806              	_lv_memset_ff:
 1807              	.LFB52:
 763:lvgl\src\lv_misc/lv_mem.c ****     uint8_t * d8 = (uint8_t *) dst;
 1808              		.loc 1 763 0
 1809              		.cfi_startproc
 1810              		@ args = 0, pretend = 0, frame = 0
 1811              		@ frame_needed = 0, uses_anonymous_args = 0
 1812              		@ link register save eliminated.
 1813              	.LVL271:
 769:lvgl\src\lv_misc/lv_mem.c ****         d_align = ALIGN_MASK + 1 - d_align;
 1814              		.loc 1 769 0
 1815 0000 10F00303 		ands	r3, r0, #3
 1816              	.LVL272:
 1817 0004 17D0     		beq	.L179
 770:lvgl\src\lv_misc/lv_mem.c ****         while(d_align && len) {
 1818              		.loc 1 770 0
 1819 0006 C3F10403 		rsb	r3, r3, #4
 1820              	.LVL273:
 771:lvgl\src\lv_misc/lv_mem.c ****             *d8 = 0xFF;
 1821              		.loc 1 771 0
 1822 000a 04E0     		b	.L177
 1823              	.LVL274:
 1824              	.L180:
 772:lvgl\src\lv_misc/lv_mem.c ****             d8++;
 1825              		.loc 1 772 0
 1826 000c FF22     		movs	r2, #255
 1827 000e 00F8012B 		strb	r2, [r0], #1
 1828              	.LVL275:
 774:lvgl\src\lv_misc/lv_mem.c ****             d_align--;
 1829              		.loc 1 774 0
 1830 0012 0139     		subs	r1, r1, #1
 1831              	.LVL276:
 775:lvgl\src\lv_misc/lv_mem.c ****         }
 1832              		.loc 1 775 0
 1833 0014 013B     		subs	r3, r3, #1
 1834              	.LVL277:
 1835              	.L177:
 771:lvgl\src\lv_misc/lv_mem.c ****             *d8 = 0xFF;
 1836              		.loc 1 771 0
 1837 0016 73B1     		cbz	r3, .L179
 771:lvgl\src\lv_misc/lv_mem.c ****             *d8 = 0xFF;
 1838              		.loc 1 771 0 is_stmt 0 discriminator 1
 1839 0018 0029     		cmp	r1, #0
 1840 001a F7D1     		bne	.L180
 1841 001c 0BE0     		b	.L179
 1842              	.LVL278:
 1843              	.L181:
 781:lvgl\src\lv_misc/lv_mem.c ****         SET32(0xFFFFFFFF);
 1844              		.loc 1 781 0 is_stmt 1
 1845 001e 4FF0FF33 		mov	r3, #-1
 1846 0022 0360     		str	r3, [r0]
 1847              	.LVL279:
 782:lvgl\src\lv_misc/lv_mem.c ****         SET32(0xFFFFFFFF);
 1848              		.loc 1 782 0
 1849 0024 4360     		str	r3, [r0, #4]
ARM GAS  C:\Users\strap\AppData\Local\Temp\ccjJjp6v.s 			page 54


 1850              	.LVL280:
 783:lvgl\src\lv_misc/lv_mem.c ****         SET32(0xFFFFFFFF);
 1851              		.loc 1 783 0
 1852 0026 8360     		str	r3, [r0, #8]
 1853              	.LVL281:
 784:lvgl\src\lv_misc/lv_mem.c ****         SET32(0xFFFFFFFF);
 1854              		.loc 1 784 0
 1855 0028 C360     		str	r3, [r0, #12]
 1856              	.LVL282:
 785:lvgl\src\lv_misc/lv_mem.c ****         SET32(0xFFFFFFFF);
 1857              		.loc 1 785 0
 1858 002a 0361     		str	r3, [r0, #16]
 1859              	.LVL283:
 786:lvgl\src\lv_misc/lv_mem.c ****         SET32(0xFFFFFFFF);
 1860              		.loc 1 786 0
 1861 002c 4361     		str	r3, [r0, #20]
 1862              	.LVL284:
 787:lvgl\src\lv_misc/lv_mem.c ****         SET32(0xFFFFFFFF);
 1863              		.loc 1 787 0
 1864 002e 8361     		str	r3, [r0, #24]
 1865              	.LVL285:
 788:lvgl\src\lv_misc/lv_mem.c ****         len -= 32;
 1866              		.loc 1 788 0
 1867 0030 C361     		str	r3, [r0, #28]
 1868 0032 2030     		adds	r0, r0, #32
 1869              	.LVL286:
 789:lvgl\src\lv_misc/lv_mem.c ****     }
 1870              		.loc 1 789 0
 1871 0034 2039     		subs	r1, r1, #32
 1872              	.LVL287:
 1873              	.L179:
 780:lvgl\src\lv_misc/lv_mem.c ****         SET32(0xFFFFFFFF);
 1874              		.loc 1 780 0
 1875 0036 2029     		cmp	r1, #32
 1876 0038 F1D8     		bhi	.L181
 1877 003a 04E0     		b	.L182
 1878              	.L183:
 793:lvgl\src\lv_misc/lv_mem.c ****         len -= 4;
 1879              		.loc 1 793 0
 1880 003c 4FF0FF33 		mov	r3, #-1
 1881 0040 40F8043B 		str	r3, [r0], #4
 1882              	.LVL288:
 794:lvgl\src\lv_misc/lv_mem.c ****     }
 1883              		.loc 1 794 0
 1884 0044 0439     		subs	r1, r1, #4
 1885              	.LVL289:
 1886              	.L182:
 792:lvgl\src\lv_misc/lv_mem.c ****         SET32(0xFFFFFFFF);
 1887              		.loc 1 792 0
 1888 0046 0429     		cmp	r1, #4
 1889 0048 F8D8     		bhi	.L183
 1890 004a 03E0     		b	.L184
 1891              	.LVL290:
 1892              	.L185:
 800:lvgl\src\lv_misc/lv_mem.c ****         d8++;
 1893              		.loc 1 800 0
 1894 004c FF23     		movs	r3, #255
ARM GAS  C:\Users\strap\AppData\Local\Temp\ccjJjp6v.s 			page 55


 1895 004e 00F8013B 		strb	r3, [r0], #1
 1896              	.LVL291:
 802:lvgl\src\lv_misc/lv_mem.c ****     }
 1897              		.loc 1 802 0
 1898 0052 0139     		subs	r1, r1, #1
 1899              	.LVL292:
 1900              	.L184:
 799:lvgl\src\lv_misc/lv_mem.c ****         *d8 = 0xFF;
 1901              		.loc 1 799 0
 1902 0054 0029     		cmp	r1, #0
 1903 0056 F9D1     		bne	.L185
 804:lvgl\src\lv_misc/lv_mem.c **** 
 1904              		.loc 1 804 0
 1905 0058 7047     		bx	lr
 1906              		.cfi_endproc
 1907              	.LFE52:
 1908              		.size	_lv_memset_ff, .-_lv_memset_ff
 1909 005a 00BF     		.data
 1910              		.align	2
 1911              		.set	.LANCHOR2,. + 0
 1912              		.type	mem_buf_small, %object
 1913              		.size	mem_buf_small, 16
 1914              	mem_buf_small:
 1915 0000 20400000 		.word	mem_buf1_32
 1916 0004 1000     		.short	16
 1917 0006 00       		.byte	0
 1918 0007 00       		.space	1
 1919 0008 10400000 		.word	mem_buf2_32
 1920 000c 1000     		.short	16
 1921 000e 00       		.byte	0
 1922 000f 00       		.space	1
 1923              		.section	.rodata.str1.4,"aMS",%progbits,1
 1924              		.align	2
 1925              	.LC0:
 1926 0000 4F757420 		.ascii	"Out of memory, can't allocate a new  buffer (increa"
 1926      6F66206D 
 1926      656D6F72 
 1926      792C2063 
 1926      616E2774 
 1927 0033 73652079 		.ascii	"se your LV_MEM_SIZE/heap size\000"
 1927      6F757220 
 1927      4C565F4D 
 1927      454D5F53 
 1927      495A452F 
 1928 0051 000000   		.space	3
 1929              	.LC1:
 1930 0054 4E6F2066 		.ascii	"No free buffer. Increase LV_DRAW_BUF_MAX_NUM.\000"
 1930      72656520 
 1930      62756666 
 1930      65722E20 
 1930      496E6372 
 1931              		.bss
 1932              		.align	2
 1933              		.set	.LANCHOR0,. + 0
 1934              		.set	.LANCHOR1,. + 13032
 1935              		.type	work_mem, %object
 1936              		.size	work_mem, 4
ARM GAS  C:\Users\strap\AppData\Local\Temp\ccjJjp6v.s 			page 56


 1937              	work_mem:
 1938 0000 00000000 		.space	4
 1939              		.type	work_mem_int.5985, %object
 1940              		.size	work_mem_int.5985, 16384
 1941              	work_mem_int.5985:
 1942 0004 00000000 		.space	16384
 1942      00000000 
 1942      00000000 
 1942      00000000 
 1942      00000000 
 1943              		.type	mem_max_size, %object
 1944              		.size	mem_max_size, 4
 1945              	mem_max_size:
 1946 4004 00000000 		.space	4
 1947              		.type	zero_mem, %object
 1948              		.size	zero_mem, 4
 1949              	zero_mem:
 1950 4008 00000000 		.space	4
 1951              		.type	full_defrag_cnt.6002, %object
 1952              		.size	full_defrag_cnt.6002, 2
 1953              	full_defrag_cnt.6002:
 1954 400c 0000     		.space	2
 1955 400e 0000     		.space	2
 1956              		.type	mem_buf2_32, %object
 1957              		.size	mem_buf2_32, 16
 1958              	mem_buf2_32:
 1959 4010 00000000 		.space	16
 1959      00000000 
 1959      00000000 
 1959      00000000 
 1960              		.type	mem_buf1_32, %object
 1961              		.size	mem_buf1_32, 16
 1962              	mem_buf1_32:
 1963 4020 00000000 		.space	16
 1963      00000000 
 1963      00000000 
 1963      00000000 
 1964              		.text
 1965              	.Letext0:
 1966              		.file 2 "c:\\program files (x86)\\cypress\\psoc creator\\4.4\\psoc creator\\import\\gnu\\arm\\5.4.
 1967              		.file 3 "c:\\program files (x86)\\cypress\\psoc creator\\4.4\\psoc creator\\import\\gnu\\arm\\5.4.
 1968              		.file 4 "c:\\program files (x86)\\cypress\\psoc creator\\4.4\\psoc creator\\import\\gnu\\arm\\5.4.
 1969              		.file 5 "lvgl\\src\\lv_misc\\lv_types.h"
 1970              		.file 6 "lvgl\\src\\lv_misc\\lv_mem.h"
 1971              		.file 7 "lvgl\\src\\lv_misc\\lv_gc.h"
 1972              		.file 8 "lvgl\\src\\lv_misc\\../lv_draw/../lv_core/../lv_misc/lv_debug.h"