ARM GAS  C:\Users\strap\AppData\Local\Temp\ccjJjp6v.s 			page 1


   1              		.syntax unified
   2              		.cpu cortex-m3
   3              		.fpu softvfp
   4              		.eabi_attribute 20, 1
   5              		.eabi_attribute 21, 1
   6              		.eabi_attribute 23, 3
   7              		.eabi_attribute 24, 1
   8              		.eabi_attribute 25, 1
   9              		.eabi_attribute 26, 1
  10              		.eabi_attribute 30, 1
  11              		.eabi_attribute 34, 1
  12              		.eabi_attribute 18, 4
  13              		.thumb
  14              		.syntax unified
  15              		.file	"lv_mem.c"
  16              		.text
  17              	.Ltext0:
  18              		.cfi_sections	.debug_frame
  19              		.section	.text.ent_get_next,"ax",%progbits
  20              		.align	2
  21              		.thumb
  22              		.thumb_func
  23              		.type	ent_get_next, %function
  24              	ent_get_next:
  25              	.LFB53:
  26              		.file 1 "lvgl\\src\\lv_misc\\lv_mem.c"
   1:lvgl\src\lv_misc/lv_mem.c **** /**
   2:lvgl\src\lv_misc/lv_mem.c ****  * @file lv_mem.c
   3:lvgl\src\lv_misc/lv_mem.c ****  * General and portable implementation of malloc and free.
   4:lvgl\src\lv_misc/lv_mem.c ****  * The dynamic memory monitoring is also supported.
   5:lvgl\src\lv_misc/lv_mem.c ****  */
   6:lvgl\src\lv_misc/lv_mem.c **** 
   7:lvgl\src\lv_misc/lv_mem.c **** /*********************
   8:lvgl\src\lv_misc/lv_mem.c ****  *      INCLUDES
   9:lvgl\src\lv_misc/lv_mem.c ****  *********************/
  10:lvgl\src\lv_misc/lv_mem.c **** #include "lv_mem.h"
  11:lvgl\src\lv_misc/lv_mem.c **** #include "lv_math.h"
  12:lvgl\src\lv_misc/lv_mem.c **** #include "lv_gc.h"
  13:lvgl\src\lv_misc/lv_mem.c **** #include <string.h>
  14:lvgl\src\lv_misc/lv_mem.c **** 
  15:lvgl\src\lv_misc/lv_mem.c **** #if LV_MEM_CUSTOM != 0
  16:lvgl\src\lv_misc/lv_mem.c ****     #include LV_MEM_CUSTOM_INCLUDE
  17:lvgl\src\lv_misc/lv_mem.c **** #endif
  18:lvgl\src\lv_misc/lv_mem.c **** 
  19:lvgl\src\lv_misc/lv_mem.c **** #if defined(LV_GC_INCLUDE)
  20:lvgl\src\lv_misc/lv_mem.c ****     #include LV_GC_INCLUDE
  21:lvgl\src\lv_misc/lv_mem.c **** #endif /* LV_ENABLE_GC */
  22:lvgl\src\lv_misc/lv_mem.c **** 
  23:lvgl\src\lv_misc/lv_mem.c **** /*********************
  24:lvgl\src\lv_misc/lv_mem.c ****  *      DEFINES
  25:lvgl\src\lv_misc/lv_mem.c ****  *********************/
  26:lvgl\src\lv_misc/lv_mem.c **** /*Add memory junk on alloc (0xaa) and free(0xbb) (just for testing purposes)*/
  27:lvgl\src\lv_misc/lv_mem.c **** #ifndef LV_MEM_ADD_JUNK
  28:lvgl\src\lv_misc/lv_mem.c ****     #define LV_MEM_ADD_JUNK 0
  29:lvgl\src\lv_misc/lv_mem.c **** #endif
  30:lvgl\src\lv_misc/lv_mem.c **** 
  31:lvgl\src\lv_misc/lv_mem.c **** #ifndef LV_MEM_FULL_DEFRAG_CNT
ARM GAS  C:\Users\strap\AppData\Local\Temp\ccjJjp6v.s 			page 2


  32:lvgl\src\lv_misc/lv_mem.c ****     #define LV_MEM_FULL_DEFRAG_CNT 16
  33:lvgl\src\lv_misc/lv_mem.c **** #endif
  34:lvgl\src\lv_misc/lv_mem.c **** 
  35:lvgl\src\lv_misc/lv_mem.c **** #ifdef LV_ARCH_64
  36:lvgl\src\lv_misc/lv_mem.c ****     #define MEM_UNIT uint64_t
  37:lvgl\src\lv_misc/lv_mem.c **** #else
  38:lvgl\src\lv_misc/lv_mem.c ****     #define MEM_UNIT uint32_t
  39:lvgl\src\lv_misc/lv_mem.c **** #endif
  40:lvgl\src\lv_misc/lv_mem.c **** 
  41:lvgl\src\lv_misc/lv_mem.c **** /**********************
  42:lvgl\src\lv_misc/lv_mem.c ****  *      TYPEDEFS
  43:lvgl\src\lv_misc/lv_mem.c ****  **********************/
  44:lvgl\src\lv_misc/lv_mem.c **** 
  45:lvgl\src\lv_misc/lv_mem.c **** #if LV_ENABLE_GC == 0 /*gc custom allocations must not include header*/
  46:lvgl\src\lv_misc/lv_mem.c **** 
  47:lvgl\src\lv_misc/lv_mem.c **** /*The size of this union must be 4 bytes (uint32_t)*/
  48:lvgl\src\lv_misc/lv_mem.c **** typedef union {
  49:lvgl\src\lv_misc/lv_mem.c ****     struct {
  50:lvgl\src\lv_misc/lv_mem.c ****         MEM_UNIT used : 1;    /* 1: if the entry is used*/
  51:lvgl\src\lv_misc/lv_mem.c ****         MEM_UNIT d_size : 31; /* Size off the data (1 means 4 bytes)*/
  52:lvgl\src\lv_misc/lv_mem.c ****     } s;
  53:lvgl\src\lv_misc/lv_mem.c ****     MEM_UNIT header; /* The header (used + d_size)*/
  54:lvgl\src\lv_misc/lv_mem.c **** } lv_mem_header_t;
  55:lvgl\src\lv_misc/lv_mem.c **** 
  56:lvgl\src\lv_misc/lv_mem.c **** typedef struct {
  57:lvgl\src\lv_misc/lv_mem.c ****     lv_mem_header_t header;
  58:lvgl\src\lv_misc/lv_mem.c ****     uint8_t first_data; /*First data byte in the allocated data (Just for easily create a pointer)*
  59:lvgl\src\lv_misc/lv_mem.c **** } lv_mem_ent_t;
  60:lvgl\src\lv_misc/lv_mem.c **** 
  61:lvgl\src\lv_misc/lv_mem.c **** #endif /* LV_ENABLE_GC */
  62:lvgl\src\lv_misc/lv_mem.c **** 
  63:lvgl\src\lv_misc/lv_mem.c **** #ifdef LV_ARCH_64
  64:lvgl\src\lv_misc/lv_mem.c ****     #define ALIGN_MASK  0x7
  65:lvgl\src\lv_misc/lv_mem.c **** #else
  66:lvgl\src\lv_misc/lv_mem.c ****     #define ALIGN_MASK  0x3
  67:lvgl\src\lv_misc/lv_mem.c **** #endif
  68:lvgl\src\lv_misc/lv_mem.c **** 
  69:lvgl\src\lv_misc/lv_mem.c **** #define MEM_BUF_SMALL_SIZE 16
  70:lvgl\src\lv_misc/lv_mem.c **** 
  71:lvgl\src\lv_misc/lv_mem.c **** /**********************
  72:lvgl\src\lv_misc/lv_mem.c ****  *  STATIC PROTOTYPES
  73:lvgl\src\lv_misc/lv_mem.c ****  **********************/
  74:lvgl\src\lv_misc/lv_mem.c **** #if LV_MEM_CUSTOM == 0
  75:lvgl\src\lv_misc/lv_mem.c ****     static lv_mem_ent_t * ent_get_next(lv_mem_ent_t * act_e);
  76:lvgl\src\lv_misc/lv_mem.c ****     static void * ent_alloc(lv_mem_ent_t * e, size_t size);
  77:lvgl\src\lv_misc/lv_mem.c ****     static void ent_trunc(lv_mem_ent_t * e, size_t size);
  78:lvgl\src\lv_misc/lv_mem.c **** #endif
  79:lvgl\src\lv_misc/lv_mem.c **** 
  80:lvgl\src\lv_misc/lv_mem.c **** /**********************
  81:lvgl\src\lv_misc/lv_mem.c ****  *  STATIC VARIABLES
  82:lvgl\src\lv_misc/lv_mem.c ****  **********************/
  83:lvgl\src\lv_misc/lv_mem.c **** #if LV_MEM_CUSTOM == 0
  84:lvgl\src\lv_misc/lv_mem.c ****     static uint8_t * work_mem;
  85:lvgl\src\lv_misc/lv_mem.c **** #endif
  86:lvgl\src\lv_misc/lv_mem.c **** 
  87:lvgl\src\lv_misc/lv_mem.c **** static uint32_t zero_mem; /*Give the address of this variable if 0 byte should be allocated*/
  88:lvgl\src\lv_misc/lv_mem.c **** 
ARM GAS  C:\Users\strap\AppData\Local\Temp\ccjJjp6v.s 			page 3


  89:lvgl\src\lv_misc/lv_mem.c **** #if LV_MEM_CUSTOM == 0
  90:lvgl\src\lv_misc/lv_mem.c ****     static uint32_t mem_max_size; /*Tracks the maximum total size of memory ever used from the inte
  91:lvgl\src\lv_misc/lv_mem.c **** #endif
  92:lvgl\src\lv_misc/lv_mem.c **** 
  93:lvgl\src\lv_misc/lv_mem.c **** static uint8_t mem_buf1_32[MEM_BUF_SMALL_SIZE];
  94:lvgl\src\lv_misc/lv_mem.c **** static uint8_t mem_buf2_32[MEM_BUF_SMALL_SIZE];
  95:lvgl\src\lv_misc/lv_mem.c **** 
  96:lvgl\src\lv_misc/lv_mem.c **** static lv_mem_buf_t mem_buf_small[] = {{.p = mem_buf1_32, .size = MEM_BUF_SMALL_SIZE, .used = 0},
  97:lvgl\src\lv_misc/lv_mem.c ****     {.p = mem_buf2_32, .size = MEM_BUF_SMALL_SIZE, .used = 0}
  98:lvgl\src\lv_misc/lv_mem.c **** };
  99:lvgl\src\lv_misc/lv_mem.c **** 
 100:lvgl\src\lv_misc/lv_mem.c **** /**********************
 101:lvgl\src\lv_misc/lv_mem.c ****  *      MACROS
 102:lvgl\src\lv_misc/lv_mem.c ****  **********************/
 103:lvgl\src\lv_misc/lv_mem.c **** 
 104:lvgl\src\lv_misc/lv_mem.c **** #define COPY32 *d32 = *s32; d32++; s32++;
 105:lvgl\src\lv_misc/lv_mem.c **** #define COPY8 *d8 = *s8; d8++; s8++;
 106:lvgl\src\lv_misc/lv_mem.c **** #define SET32(x) *d32 = x; d32++;
 107:lvgl\src\lv_misc/lv_mem.c **** #define REPEAT8(expr) expr expr expr expr expr expr expr expr
 108:lvgl\src\lv_misc/lv_mem.c **** 
 109:lvgl\src\lv_misc/lv_mem.c **** /**********************
 110:lvgl\src\lv_misc/lv_mem.c ****  *   GLOBAL FUNCTIONS
 111:lvgl\src\lv_misc/lv_mem.c ****  **********************/
 112:lvgl\src\lv_misc/lv_mem.c **** 
 113:lvgl\src\lv_misc/lv_mem.c **** /**
 114:lvgl\src\lv_misc/lv_mem.c ****  * Initialize the dyn_mem module (work memory and other variables)
 115:lvgl\src\lv_misc/lv_mem.c ****  */
 116:lvgl\src\lv_misc/lv_mem.c **** void _lv_mem_init(void)
 117:lvgl\src\lv_misc/lv_mem.c **** {
 118:lvgl\src\lv_misc/lv_mem.c **** #if LV_MEM_CUSTOM == 0
 119:lvgl\src\lv_misc/lv_mem.c **** 
 120:lvgl\src\lv_misc/lv_mem.c **** #if LV_MEM_ADR == 0
 121:lvgl\src\lv_misc/lv_mem.c ****     /*Allocate a large array to store the dynamically allocated data*/
 122:lvgl\src\lv_misc/lv_mem.c ****     static LV_MEM_ATTR MEM_UNIT work_mem_int[LV_MEM_SIZE / sizeof(MEM_UNIT)];
 123:lvgl\src\lv_misc/lv_mem.c ****     work_mem = (uint8_t *)work_mem_int;
 124:lvgl\src\lv_misc/lv_mem.c ****     mem_max_size = 0;
 125:lvgl\src\lv_misc/lv_mem.c **** #else
 126:lvgl\src\lv_misc/lv_mem.c ****     work_mem = (uint8_t *)LV_MEM_ADR;
 127:lvgl\src\lv_misc/lv_mem.c **** #endif
 128:lvgl\src\lv_misc/lv_mem.c **** 
 129:lvgl\src\lv_misc/lv_mem.c ****     lv_mem_ent_t * full = (lv_mem_ent_t *)work_mem;
 130:lvgl\src\lv_misc/lv_mem.c ****     full->header.s.used = 0;
 131:lvgl\src\lv_misc/lv_mem.c ****     /*The total mem size id reduced by the first header and the close patterns */
 132:lvgl\src\lv_misc/lv_mem.c ****     full->header.s.d_size = LV_MEM_SIZE - sizeof(lv_mem_header_t);
 133:lvgl\src\lv_misc/lv_mem.c **** #endif
 134:lvgl\src\lv_misc/lv_mem.c **** }
 135:lvgl\src\lv_misc/lv_mem.c **** 
 136:lvgl\src\lv_misc/lv_mem.c **** /**
 137:lvgl\src\lv_misc/lv_mem.c ****  * Clean up the memory buffer which frees all the allocated memories.
 138:lvgl\src\lv_misc/lv_mem.c ****  * @note It work only if `LV_MEM_CUSTOM == 0`
 139:lvgl\src\lv_misc/lv_mem.c ****  */
 140:lvgl\src\lv_misc/lv_mem.c **** void _lv_mem_deinit(void)
 141:lvgl\src\lv_misc/lv_mem.c **** {
 142:lvgl\src\lv_misc/lv_mem.c **** #if LV_MEM_CUSTOM == 0
 143:lvgl\src\lv_misc/lv_mem.c ****     _lv_memset_00(work_mem, (LV_MEM_SIZE / sizeof(MEM_UNIT)) * sizeof(MEM_UNIT));
 144:lvgl\src\lv_misc/lv_mem.c ****     lv_mem_ent_t * full = (lv_mem_ent_t *)work_mem;
 145:lvgl\src\lv_misc/lv_mem.c ****     full->header.s.used = 0;
ARM GAS  C:\Users\strap\AppData\Local\Temp\ccjJjp6v.s 			page 4


 146:lvgl\src\lv_misc/lv_mem.c ****     /*The total mem size id reduced by the first header and the close patterns */
 147:lvgl\src\lv_misc/lv_mem.c ****     full->header.s.d_size = LV_MEM_SIZE - sizeof(lv_mem_header_t);
 148:lvgl\src\lv_misc/lv_mem.c **** #endif
 149:lvgl\src\lv_misc/lv_mem.c **** }
 150:lvgl\src\lv_misc/lv_mem.c **** 
 151:lvgl\src\lv_misc/lv_mem.c **** /**
 152:lvgl\src\lv_misc/lv_mem.c ****  * Allocate a memory dynamically
 153:lvgl\src\lv_misc/lv_mem.c ****  * @param size size of the memory to allocate in bytes
 154:lvgl\src\lv_misc/lv_mem.c ****  * @return pointer to the allocated memory
 155:lvgl\src\lv_misc/lv_mem.c ****  */
 156:lvgl\src\lv_misc/lv_mem.c **** void * lv_mem_alloc(size_t size)
 157:lvgl\src\lv_misc/lv_mem.c **** {
 158:lvgl\src\lv_misc/lv_mem.c ****     if(size == 0) {
 159:lvgl\src\lv_misc/lv_mem.c ****         return &zero_mem;
 160:lvgl\src\lv_misc/lv_mem.c ****     }
 161:lvgl\src\lv_misc/lv_mem.c **** 
 162:lvgl\src\lv_misc/lv_mem.c **** #ifdef LV_ARCH_64
 163:lvgl\src\lv_misc/lv_mem.c ****     /*Round the size up to 8*/
 164:lvgl\src\lv_misc/lv_mem.c ****     size = (size + 7) & (~0x7);
 165:lvgl\src\lv_misc/lv_mem.c **** #else
 166:lvgl\src\lv_misc/lv_mem.c ****     /*Round the size up to 4*/
 167:lvgl\src\lv_misc/lv_mem.c ****     size = (size + 3) & (~0x3);
 168:lvgl\src\lv_misc/lv_mem.c **** #endif
 169:lvgl\src\lv_misc/lv_mem.c ****     void * alloc = NULL;
 170:lvgl\src\lv_misc/lv_mem.c **** 
 171:lvgl\src\lv_misc/lv_mem.c **** #if LV_MEM_CUSTOM == 0
 172:lvgl\src\lv_misc/lv_mem.c ****     /*Use the built-in allocators*/
 173:lvgl\src\lv_misc/lv_mem.c ****     lv_mem_ent_t * e = NULL;
 174:lvgl\src\lv_misc/lv_mem.c **** 
 175:lvgl\src\lv_misc/lv_mem.c ****     /* Search for a appropriate entry*/
 176:lvgl\src\lv_misc/lv_mem.c ****     do {
 177:lvgl\src\lv_misc/lv_mem.c ****         /* Get the next entry*/
 178:lvgl\src\lv_misc/lv_mem.c ****         e = ent_get_next(e);
 179:lvgl\src\lv_misc/lv_mem.c **** 
 180:lvgl\src\lv_misc/lv_mem.c ****         /*If there is next entry then try to allocate there*/
 181:lvgl\src\lv_misc/lv_mem.c ****         if(e != NULL) {
 182:lvgl\src\lv_misc/lv_mem.c ****             alloc = ent_alloc(e, size);
 183:lvgl\src\lv_misc/lv_mem.c ****         }
 184:lvgl\src\lv_misc/lv_mem.c ****         /* End if there is not next entry OR the alloc. is successful*/
 185:lvgl\src\lv_misc/lv_mem.c ****     } while(e != NULL && alloc == NULL);
 186:lvgl\src\lv_misc/lv_mem.c **** 
 187:lvgl\src\lv_misc/lv_mem.c **** #else
 188:lvgl\src\lv_misc/lv_mem.c ****     /*Use custom, user defined malloc function*/
 189:lvgl\src\lv_misc/lv_mem.c **** #if LV_ENABLE_GC == 1 /*gc must not include header*/
 190:lvgl\src\lv_misc/lv_mem.c ****     alloc = LV_MEM_CUSTOM_ALLOC(size);
 191:lvgl\src\lv_misc/lv_mem.c **** #else                 /* LV_ENABLE_GC */
 192:lvgl\src\lv_misc/lv_mem.c ****     /*Allocate a header too to store the size*/
 193:lvgl\src\lv_misc/lv_mem.c ****     alloc = LV_MEM_CUSTOM_ALLOC(size + sizeof(lv_mem_header_t));
 194:lvgl\src\lv_misc/lv_mem.c ****     if(alloc != NULL) {
 195:lvgl\src\lv_misc/lv_mem.c ****         ((lv_mem_ent_t *)alloc)->header.s.d_size = size;
 196:lvgl\src\lv_misc/lv_mem.c ****         ((lv_mem_ent_t *)alloc)->header.s.used   = 1;
 197:lvgl\src\lv_misc/lv_mem.c **** 
 198:lvgl\src\lv_misc/lv_mem.c ****         alloc = &((lv_mem_ent_t *)alloc)->first_data;
 199:lvgl\src\lv_misc/lv_mem.c ****     }
 200:lvgl\src\lv_misc/lv_mem.c **** #endif                /* LV_ENABLE_GC */
 201:lvgl\src\lv_misc/lv_mem.c **** #endif                /* LV_MEM_CUSTOM */
 202:lvgl\src\lv_misc/lv_mem.c **** 
ARM GAS  C:\Users\strap\AppData\Local\Temp\ccjJjp6v.s 			page 5


 203:lvgl\src\lv_misc/lv_mem.c **** #if LV_MEM_ADD_JUNK
 204:lvgl\src\lv_misc/lv_mem.c ****     if(alloc != NULL) _lv_memset(alloc, 0xaa, size);
 205:lvgl\src\lv_misc/lv_mem.c **** #endif
 206:lvgl\src\lv_misc/lv_mem.c **** 
 207:lvgl\src\lv_misc/lv_mem.c ****     if(alloc == NULL) {
 208:lvgl\src\lv_misc/lv_mem.c ****         LV_LOG_WARN("Couldn't allocate memory");
 209:lvgl\src\lv_misc/lv_mem.c ****     }
 210:lvgl\src\lv_misc/lv_mem.c ****     else {
 211:lvgl\src\lv_misc/lv_mem.c **** #if LV_MEM_CUSTOM == 0
 212:lvgl\src\lv_misc/lv_mem.c ****         /* just a safety check, should always be true */
 213:lvgl\src\lv_misc/lv_mem.c ****         if((uintptr_t) alloc > (uintptr_t) work_mem) {
 214:lvgl\src\lv_misc/lv_mem.c ****             if((((uintptr_t) alloc - (uintptr_t) work_mem) + size) > mem_max_size) {
 215:lvgl\src\lv_misc/lv_mem.c ****                 mem_max_size = ((uintptr_t) alloc - (uintptr_t) work_mem) + size;
 216:lvgl\src\lv_misc/lv_mem.c ****             }
 217:lvgl\src\lv_misc/lv_mem.c ****         }
 218:lvgl\src\lv_misc/lv_mem.c **** #endif
 219:lvgl\src\lv_misc/lv_mem.c ****     }
 220:lvgl\src\lv_misc/lv_mem.c **** 
 221:lvgl\src\lv_misc/lv_mem.c ****     return alloc;
 222:lvgl\src\lv_misc/lv_mem.c **** }
 223:lvgl\src\lv_misc/lv_mem.c **** 
 224:lvgl\src\lv_misc/lv_mem.c **** /**
 225:lvgl\src\lv_misc/lv_mem.c ****  * Free an allocated data
 226:lvgl\src\lv_misc/lv_mem.c ****  * @param data pointer to an allocated memory
 227:lvgl\src\lv_misc/lv_mem.c ****  */
 228:lvgl\src\lv_misc/lv_mem.c **** void lv_mem_free(const void * data)
 229:lvgl\src\lv_misc/lv_mem.c **** {
 230:lvgl\src\lv_misc/lv_mem.c ****     if(data == &zero_mem) return;
 231:lvgl\src\lv_misc/lv_mem.c ****     if(data == NULL) return;
 232:lvgl\src\lv_misc/lv_mem.c **** 
 233:lvgl\src\lv_misc/lv_mem.c **** #if LV_MEM_ADD_JUNK
 234:lvgl\src\lv_misc/lv_mem.c ****     _lv_memset((void *)data, 0xbb, _lv_mem_get_size(data));
 235:lvgl\src\lv_misc/lv_mem.c **** #endif
 236:lvgl\src\lv_misc/lv_mem.c **** 
 237:lvgl\src\lv_misc/lv_mem.c **** #if LV_ENABLE_GC == 0
 238:lvgl\src\lv_misc/lv_mem.c ****     /*e points to the header*/
 239:lvgl\src\lv_misc/lv_mem.c ****     lv_mem_ent_t * e = (lv_mem_ent_t *)((uint8_t *)data - sizeof(lv_mem_header_t));
 240:lvgl\src\lv_misc/lv_mem.c ****     e->header.s.used = 0;
 241:lvgl\src\lv_misc/lv_mem.c **** #endif
 242:lvgl\src\lv_misc/lv_mem.c **** 
 243:lvgl\src\lv_misc/lv_mem.c **** #if LV_MEM_CUSTOM == 0
 244:lvgl\src\lv_misc/lv_mem.c **** #if LV_MEM_AUTO_DEFRAG
 245:lvgl\src\lv_misc/lv_mem.c ****     static uint16_t full_defrag_cnt = 0;
 246:lvgl\src\lv_misc/lv_mem.c ****     full_defrag_cnt++;
 247:lvgl\src\lv_misc/lv_mem.c ****     if(full_defrag_cnt < LV_MEM_FULL_DEFRAG_CNT) {
 248:lvgl\src\lv_misc/lv_mem.c ****         /* Make a simple defrag.
 249:lvgl\src\lv_misc/lv_mem.c ****          * Join the following free entries after this*/
 250:lvgl\src\lv_misc/lv_mem.c ****         lv_mem_ent_t * e_next;
 251:lvgl\src\lv_misc/lv_mem.c ****         e_next = ent_get_next(e);
 252:lvgl\src\lv_misc/lv_mem.c ****         while(e_next != NULL) {
 253:lvgl\src\lv_misc/lv_mem.c ****             if(e_next->header.s.used == 0) {
 254:lvgl\src\lv_misc/lv_mem.c ****                 e->header.s.d_size += e_next->header.s.d_size + sizeof(e->header);
 255:lvgl\src\lv_misc/lv_mem.c ****             }
 256:lvgl\src\lv_misc/lv_mem.c ****             else {
 257:lvgl\src\lv_misc/lv_mem.c ****                 break;
 258:lvgl\src\lv_misc/lv_mem.c ****             }
 259:lvgl\src\lv_misc/lv_mem.c ****             e_next = ent_get_next(e_next);
ARM GAS  C:\Users\strap\AppData\Local\Temp\ccjJjp6v.s 			page 6


 260:lvgl\src\lv_misc/lv_mem.c ****         }
 261:lvgl\src\lv_misc/lv_mem.c ****     }
 262:lvgl\src\lv_misc/lv_mem.c ****     else {
 263:lvgl\src\lv_misc/lv_mem.c ****         full_defrag_cnt = 0;
 264:lvgl\src\lv_misc/lv_mem.c ****         lv_mem_defrag();
 265:lvgl\src\lv_misc/lv_mem.c **** 
 266:lvgl\src\lv_misc/lv_mem.c ****     }
 267:lvgl\src\lv_misc/lv_mem.c **** 
 268:lvgl\src\lv_misc/lv_mem.c **** 
 269:lvgl\src\lv_misc/lv_mem.c **** #endif /*LV_MEM_AUTO_DEFRAG*/
 270:lvgl\src\lv_misc/lv_mem.c **** #else /*Use custom, user defined free function*/
 271:lvgl\src\lv_misc/lv_mem.c **** #if LV_ENABLE_GC == 0
 272:lvgl\src\lv_misc/lv_mem.c ****     LV_MEM_CUSTOM_FREE(e);
 273:lvgl\src\lv_misc/lv_mem.c **** #else
 274:lvgl\src\lv_misc/lv_mem.c ****     LV_MEM_CUSTOM_FREE((void *)data);
 275:lvgl\src\lv_misc/lv_mem.c **** #endif /*LV_ENABLE_GC*/
 276:lvgl\src\lv_misc/lv_mem.c **** #endif
 277:lvgl\src\lv_misc/lv_mem.c **** }
 278:lvgl\src\lv_misc/lv_mem.c **** 
 279:lvgl\src\lv_misc/lv_mem.c **** /**
 280:lvgl\src\lv_misc/lv_mem.c ****  * Reallocate a memory with a new size. The old content will be kept.
 281:lvgl\src\lv_misc/lv_mem.c ****  * @param data pointer to an allocated memory.
 282:lvgl\src\lv_misc/lv_mem.c ****  * Its content will be copied to the new memory block and freed
 283:lvgl\src\lv_misc/lv_mem.c ****  * @param new_size the desired new size in byte
 284:lvgl\src\lv_misc/lv_mem.c ****  * @return pointer to the new memory
 285:lvgl\src\lv_misc/lv_mem.c ****  */
 286:lvgl\src\lv_misc/lv_mem.c **** 
 287:lvgl\src\lv_misc/lv_mem.c **** #if LV_ENABLE_GC == 0
 288:lvgl\src\lv_misc/lv_mem.c **** 
 289:lvgl\src\lv_misc/lv_mem.c **** void * lv_mem_realloc(void * data_p, size_t new_size)
 290:lvgl\src\lv_misc/lv_mem.c **** {
 291:lvgl\src\lv_misc/lv_mem.c **** 
 292:lvgl\src\lv_misc/lv_mem.c **** #ifdef LV_ARCH_64
 293:lvgl\src\lv_misc/lv_mem.c ****     /*Round the size up to 8*/
 294:lvgl\src\lv_misc/lv_mem.c ****     new_size = (new_size + 7) & (~0x7);
 295:lvgl\src\lv_misc/lv_mem.c **** #else
 296:lvgl\src\lv_misc/lv_mem.c ****     /*Round the size up to 4*/
 297:lvgl\src\lv_misc/lv_mem.c ****     new_size = (new_size + 3) & (~0x3);
 298:lvgl\src\lv_misc/lv_mem.c **** #endif
 299:lvgl\src\lv_misc/lv_mem.c **** 
 300:lvgl\src\lv_misc/lv_mem.c ****     /*data_p could be previously freed pointer (in this case it is invalid)*/
 301:lvgl\src\lv_misc/lv_mem.c ****     if(data_p != NULL) {
 302:lvgl\src\lv_misc/lv_mem.c ****         lv_mem_ent_t * e = (lv_mem_ent_t *)((uint8_t *)data_p - sizeof(lv_mem_header_t));
 303:lvgl\src\lv_misc/lv_mem.c ****         if(e->header.s.used == 0) {
 304:lvgl\src\lv_misc/lv_mem.c ****             data_p = NULL;
 305:lvgl\src\lv_misc/lv_mem.c ****         }
 306:lvgl\src\lv_misc/lv_mem.c ****     }
 307:lvgl\src\lv_misc/lv_mem.c **** 
 308:lvgl\src\lv_misc/lv_mem.c ****     uint32_t old_size = _lv_mem_get_size(data_p);
 309:lvgl\src\lv_misc/lv_mem.c ****     if(old_size == new_size) return data_p; /*Also avoid reallocating the same memory*/
 310:lvgl\src\lv_misc/lv_mem.c **** 
 311:lvgl\src\lv_misc/lv_mem.c **** #if LV_MEM_CUSTOM == 0
 312:lvgl\src\lv_misc/lv_mem.c ****     /* Truncate the memory if the new size is smaller. */
 313:lvgl\src\lv_misc/lv_mem.c ****     if(new_size < old_size) {
 314:lvgl\src\lv_misc/lv_mem.c ****         lv_mem_ent_t * e = (lv_mem_ent_t *)((uint8_t *)data_p - sizeof(lv_mem_header_t));
 315:lvgl\src\lv_misc/lv_mem.c ****         ent_trunc(e, new_size);
 316:lvgl\src\lv_misc/lv_mem.c ****         return &e->first_data;
ARM GAS  C:\Users\strap\AppData\Local\Temp\ccjJjp6v.s 			page 7


 317:lvgl\src\lv_misc/lv_mem.c ****     }
 318:lvgl\src\lv_misc/lv_mem.c **** #endif
 319:lvgl\src\lv_misc/lv_mem.c **** 
 320:lvgl\src\lv_misc/lv_mem.c ****     void * new_p;
 321:lvgl\src\lv_misc/lv_mem.c ****     new_p = lv_mem_alloc(new_size);
 322:lvgl\src\lv_misc/lv_mem.c ****     if(new_p == NULL) {
 323:lvgl\src\lv_misc/lv_mem.c ****         LV_LOG_WARN("Couldn't allocate memory");
 324:lvgl\src\lv_misc/lv_mem.c ****         return NULL;
 325:lvgl\src\lv_misc/lv_mem.c ****     }
 326:lvgl\src\lv_misc/lv_mem.c **** 
 327:lvgl\src\lv_misc/lv_mem.c ****     if(data_p != NULL) {
 328:lvgl\src\lv_misc/lv_mem.c ****         /*Copy the old data to the new. Use the smaller size*/
 329:lvgl\src\lv_misc/lv_mem.c ****         if(old_size != 0) {
 330:lvgl\src\lv_misc/lv_mem.c ****             _lv_memcpy(new_p, data_p, LV_MATH_MIN(new_size, old_size));
 331:lvgl\src\lv_misc/lv_mem.c ****             lv_mem_free(data_p);
 332:lvgl\src\lv_misc/lv_mem.c ****         }
 333:lvgl\src\lv_misc/lv_mem.c ****     }
 334:lvgl\src\lv_misc/lv_mem.c **** 
 335:lvgl\src\lv_misc/lv_mem.c **** 
 336:lvgl\src\lv_misc/lv_mem.c ****     return new_p;
 337:lvgl\src\lv_misc/lv_mem.c **** }
 338:lvgl\src\lv_misc/lv_mem.c **** 
 339:lvgl\src\lv_misc/lv_mem.c **** #else /* LV_ENABLE_GC */
 340:lvgl\src\lv_misc/lv_mem.c **** 
 341:lvgl\src\lv_misc/lv_mem.c **** void * lv_mem_realloc(void * data_p, size_t new_size)
 342:lvgl\src\lv_misc/lv_mem.c **** {
 343:lvgl\src\lv_misc/lv_mem.c ****     void * new_p = LV_MEM_CUSTOM_REALLOC(data_p, new_size);
 344:lvgl\src\lv_misc/lv_mem.c ****     if(new_p == NULL) LV_LOG_WARN("Couldn't allocate memory");
 345:lvgl\src\lv_misc/lv_mem.c ****     return new_p;
 346:lvgl\src\lv_misc/lv_mem.c **** }
 347:lvgl\src\lv_misc/lv_mem.c **** 
 348:lvgl\src\lv_misc/lv_mem.c **** #endif /* lv_enable_gc */
 349:lvgl\src\lv_misc/lv_mem.c **** 
 350:lvgl\src\lv_misc/lv_mem.c **** /**
 351:lvgl\src\lv_misc/lv_mem.c ****  * Join the adjacent free memory blocks
 352:lvgl\src\lv_misc/lv_mem.c ****  */
 353:lvgl\src\lv_misc/lv_mem.c **** void lv_mem_defrag(void)
 354:lvgl\src\lv_misc/lv_mem.c **** {
 355:lvgl\src\lv_misc/lv_mem.c **** #if LV_MEM_CUSTOM == 0
 356:lvgl\src\lv_misc/lv_mem.c ****     lv_mem_ent_t * e_free;
 357:lvgl\src\lv_misc/lv_mem.c ****     lv_mem_ent_t * e_next;
 358:lvgl\src\lv_misc/lv_mem.c ****     e_free = ent_get_next(NULL);
 359:lvgl\src\lv_misc/lv_mem.c **** 
 360:lvgl\src\lv_misc/lv_mem.c ****     while(1) {
 361:lvgl\src\lv_misc/lv_mem.c ****         /*Search the next free entry*/
 362:lvgl\src\lv_misc/lv_mem.c ****         while(e_free != NULL) {
 363:lvgl\src\lv_misc/lv_mem.c ****             if(e_free->header.s.used != 0) {
 364:lvgl\src\lv_misc/lv_mem.c ****                 e_free = ent_get_next(e_free);
 365:lvgl\src\lv_misc/lv_mem.c ****             }
 366:lvgl\src\lv_misc/lv_mem.c ****             else {
 367:lvgl\src\lv_misc/lv_mem.c ****                 break;
 368:lvgl\src\lv_misc/lv_mem.c ****             }
 369:lvgl\src\lv_misc/lv_mem.c ****         }
 370:lvgl\src\lv_misc/lv_mem.c **** 
 371:lvgl\src\lv_misc/lv_mem.c ****         if(e_free == NULL) return;
 372:lvgl\src\lv_misc/lv_mem.c **** 
 373:lvgl\src\lv_misc/lv_mem.c ****         /*Joint the following free entries to the free*/
ARM GAS  C:\Users\strap\AppData\Local\Temp\ccjJjp6v.s 			page 8


 374:lvgl\src\lv_misc/lv_mem.c ****         e_next = ent_get_next(e_free);
 375:lvgl\src\lv_misc/lv_mem.c ****         while(e_next != NULL) {
 376:lvgl\src\lv_misc/lv_mem.c ****             if(e_next->header.s.used == 0) {
 377:lvgl\src\lv_misc/lv_mem.c ****                 e_free->header.s.d_size += e_next->header.s.d_size + sizeof(e_next->header);
 378:lvgl\src\lv_misc/lv_mem.c ****             }
 379:lvgl\src\lv_misc/lv_mem.c ****             else {
 380:lvgl\src\lv_misc/lv_mem.c ****                 break;
 381:lvgl\src\lv_misc/lv_mem.c ****             }
 382:lvgl\src\lv_misc/lv_mem.c **** 
 383:lvgl\src\lv_misc/lv_mem.c ****             e_next = ent_get_next(e_next);
 384:lvgl\src\lv_misc/lv_mem.c ****         }
 385:lvgl\src\lv_misc/lv_mem.c **** 
 386:lvgl\src\lv_misc/lv_mem.c ****         if(e_next == NULL) return;
 387:lvgl\src\lv_misc/lv_mem.c **** 
 388:lvgl\src\lv_misc/lv_mem.c ****         /*Continue from the lastly checked entry*/
 389:lvgl\src\lv_misc/lv_mem.c ****         e_free = e_next;
 390:lvgl\src\lv_misc/lv_mem.c ****     }
 391:lvgl\src\lv_misc/lv_mem.c **** #endif
 392:lvgl\src\lv_misc/lv_mem.c **** }
 393:lvgl\src\lv_misc/lv_mem.c **** 
 394:lvgl\src\lv_misc/lv_mem.c **** lv_res_t lv_mem_test(void)
 395:lvgl\src\lv_misc/lv_mem.c **** {
 396:lvgl\src\lv_misc/lv_mem.c **** #if LV_MEM_CUSTOM == 0
 397:lvgl\src\lv_misc/lv_mem.c ****     lv_mem_ent_t * e;
 398:lvgl\src\lv_misc/lv_mem.c ****     e = ent_get_next(NULL);
 399:lvgl\src\lv_misc/lv_mem.c ****     while(e) {
 400:lvgl\src\lv_misc/lv_mem.c ****         if(e->header.s.d_size > LV_MEM_SIZE) {
 401:lvgl\src\lv_misc/lv_mem.c ****             return LV_RES_INV;
 402:lvgl\src\lv_misc/lv_mem.c ****         }
 403:lvgl\src\lv_misc/lv_mem.c ****         uint8_t * e8 = (uint8_t *) e;
 404:lvgl\src\lv_misc/lv_mem.c ****         if(e8 + e->header.s.d_size > work_mem + LV_MEM_SIZE) {
 405:lvgl\src\lv_misc/lv_mem.c ****             return LV_RES_INV;
 406:lvgl\src\lv_misc/lv_mem.c ****         }
 407:lvgl\src\lv_misc/lv_mem.c ****         e = ent_get_next(e);
 408:lvgl\src\lv_misc/lv_mem.c ****     }
 409:lvgl\src\lv_misc/lv_mem.c **** #endif
 410:lvgl\src\lv_misc/lv_mem.c ****     return LV_RES_OK;
 411:lvgl\src\lv_misc/lv_mem.c **** }
 412:lvgl\src\lv_misc/lv_mem.c **** 
 413:lvgl\src\lv_misc/lv_mem.c **** /**
 414:lvgl\src\lv_misc/lv_mem.c ****  * Give information about the work memory of dynamic allocation
 415:lvgl\src\lv_misc/lv_mem.c ****  * @param mon_p pointer to a dm_mon_p variable,
 416:lvgl\src\lv_misc/lv_mem.c ****  *              the result of the analysis will be stored here
 417:lvgl\src\lv_misc/lv_mem.c ****  */
 418:lvgl\src\lv_misc/lv_mem.c **** void lv_mem_monitor(lv_mem_monitor_t * mon_p)
 419:lvgl\src\lv_misc/lv_mem.c **** {
 420:lvgl\src\lv_misc/lv_mem.c ****     /*Init the data*/
 421:lvgl\src\lv_misc/lv_mem.c ****     _lv_memset(mon_p, 0, sizeof(lv_mem_monitor_t));
 422:lvgl\src\lv_misc/lv_mem.c **** #if LV_MEM_CUSTOM == 0
 423:lvgl\src\lv_misc/lv_mem.c ****     lv_mem_ent_t * e;
 424:lvgl\src\lv_misc/lv_mem.c ****     e = NULL;
 425:lvgl\src\lv_misc/lv_mem.c **** 
 426:lvgl\src\lv_misc/lv_mem.c ****     e = ent_get_next(e);
 427:lvgl\src\lv_misc/lv_mem.c **** 
 428:lvgl\src\lv_misc/lv_mem.c ****     while(e != NULL) {
 429:lvgl\src\lv_misc/lv_mem.c ****         if(e->header.s.used == 0) {
 430:lvgl\src\lv_misc/lv_mem.c ****             mon_p->free_cnt++;
ARM GAS  C:\Users\strap\AppData\Local\Temp\ccjJjp6v.s 			page 9


 431:lvgl\src\lv_misc/lv_mem.c ****             mon_p->free_size += e->header.s.d_size;
 432:lvgl\src\lv_misc/lv_mem.c ****             if(e->header.s.d_size > mon_p->free_biggest_size) {
 433:lvgl\src\lv_misc/lv_mem.c ****                 mon_p->free_biggest_size = e->header.s.d_size;
 434:lvgl\src\lv_misc/lv_mem.c ****             }
 435:lvgl\src\lv_misc/lv_mem.c ****         }
 436:lvgl\src\lv_misc/lv_mem.c ****         else {
 437:lvgl\src\lv_misc/lv_mem.c ****             mon_p->used_cnt++;
 438:lvgl\src\lv_misc/lv_mem.c ****         }
 439:lvgl\src\lv_misc/lv_mem.c **** 
 440:lvgl\src\lv_misc/lv_mem.c ****         e = ent_get_next(e);
 441:lvgl\src\lv_misc/lv_mem.c ****     }
 442:lvgl\src\lv_misc/lv_mem.c ****     mon_p->total_size = LV_MEM_SIZE;
 443:lvgl\src\lv_misc/lv_mem.c ****     mon_p->max_used = mem_max_size;
 444:lvgl\src\lv_misc/lv_mem.c ****     mon_p->used_pct   = 100 - (100U * mon_p->free_size) / mon_p->total_size;
 445:lvgl\src\lv_misc/lv_mem.c ****     if(mon_p->free_size > 0) {
 446:lvgl\src\lv_misc/lv_mem.c ****         mon_p->frag_pct   = (uint32_t)mon_p->free_biggest_size * 100U / mon_p->free_size;
 447:lvgl\src\lv_misc/lv_mem.c ****         mon_p->frag_pct   = 100 - mon_p->frag_pct;
 448:lvgl\src\lv_misc/lv_mem.c ****     }
 449:lvgl\src\lv_misc/lv_mem.c ****     else {
 450:lvgl\src\lv_misc/lv_mem.c ****         mon_p->frag_pct   = 0; /*no fragmentation if all the RAM is used*/
 451:lvgl\src\lv_misc/lv_mem.c ****     }
 452:lvgl\src\lv_misc/lv_mem.c **** #endif
 453:lvgl\src\lv_misc/lv_mem.c **** }
 454:lvgl\src\lv_misc/lv_mem.c **** 
 455:lvgl\src\lv_misc/lv_mem.c **** /**
 456:lvgl\src\lv_misc/lv_mem.c ****  * Give the size of an allocated memory
 457:lvgl\src\lv_misc/lv_mem.c ****  * @param data pointer to an allocated memory
 458:lvgl\src\lv_misc/lv_mem.c ****  * @return the size of data memory in bytes
 459:lvgl\src\lv_misc/lv_mem.c ****  */
 460:lvgl\src\lv_misc/lv_mem.c **** 
 461:lvgl\src\lv_misc/lv_mem.c **** #if LV_ENABLE_GC == 0
 462:lvgl\src\lv_misc/lv_mem.c **** 
 463:lvgl\src\lv_misc/lv_mem.c **** uint32_t _lv_mem_get_size(const void * data)
 464:lvgl\src\lv_misc/lv_mem.c **** {
 465:lvgl\src\lv_misc/lv_mem.c ****     if(data == NULL) return 0;
 466:lvgl\src\lv_misc/lv_mem.c ****     if(data == &zero_mem) return 0;
 467:lvgl\src\lv_misc/lv_mem.c **** 
 468:lvgl\src\lv_misc/lv_mem.c ****     lv_mem_ent_t * e = (lv_mem_ent_t *)((uint8_t *)data - sizeof(lv_mem_header_t));
 469:lvgl\src\lv_misc/lv_mem.c **** 
 470:lvgl\src\lv_misc/lv_mem.c ****     return e->header.s.d_size;
 471:lvgl\src\lv_misc/lv_mem.c **** }
 472:lvgl\src\lv_misc/lv_mem.c **** 
 473:lvgl\src\lv_misc/lv_mem.c **** #else /* LV_ENABLE_GC */
 474:lvgl\src\lv_misc/lv_mem.c **** 
 475:lvgl\src\lv_misc/lv_mem.c **** uint32_t _lv_mem_get_size(const void * data)
 476:lvgl\src\lv_misc/lv_mem.c **** {
 477:lvgl\src\lv_misc/lv_mem.c ****     return LV_MEM_CUSTOM_GET_SIZE(data);
 478:lvgl\src\lv_misc/lv_mem.c **** }
 479:lvgl\src\lv_misc/lv_mem.c **** 
 480:lvgl\src\lv_misc/lv_mem.c **** #endif /*LV_ENABLE_GC*/
 481:lvgl\src\lv_misc/lv_mem.c **** 
 482:lvgl\src\lv_misc/lv_mem.c **** /**
 483:lvgl\src\lv_misc/lv_mem.c ****  * Get a temporal buffer with the given size.
 484:lvgl\src\lv_misc/lv_mem.c ****  * @param size the required size
 485:lvgl\src\lv_misc/lv_mem.c ****  */
 486:lvgl\src\lv_misc/lv_mem.c **** void * _lv_mem_buf_get(uint32_t size)
 487:lvgl\src\lv_misc/lv_mem.c **** {
ARM GAS  C:\Users\strap\AppData\Local\Temp\ccjJjp6v.s 			page 10


 488:lvgl\src\lv_misc/lv_mem.c ****     if(size == 0) return NULL;
 489:lvgl\src\lv_misc/lv_mem.c **** 
 490:lvgl\src\lv_misc/lv_mem.c ****     /*Try small static buffers first*/
 491:lvgl\src\lv_misc/lv_mem.c ****     uint8_t i;
 492:lvgl\src\lv_misc/lv_mem.c ****     if(size <= MEM_BUF_SMALL_SIZE) {
 493:lvgl\src\lv_misc/lv_mem.c ****         for(i = 0; i < sizeof(mem_buf_small) / sizeof(mem_buf_small[0]); i++) {
 494:lvgl\src\lv_misc/lv_mem.c ****             if(mem_buf_small[i].used == 0) {
 495:lvgl\src\lv_misc/lv_mem.c ****                 mem_buf_small[i].used = 1;
 496:lvgl\src\lv_misc/lv_mem.c ****                 return mem_buf_small[i].p;
 497:lvgl\src\lv_misc/lv_mem.c ****             }
 498:lvgl\src\lv_misc/lv_mem.c ****         }
 499:lvgl\src\lv_misc/lv_mem.c ****     }
 500:lvgl\src\lv_misc/lv_mem.c **** 
 501:lvgl\src\lv_misc/lv_mem.c ****     /*Try to find a free buffer with suitable size */
 502:lvgl\src\lv_misc/lv_mem.c ****     int8_t i_guess = -1;
 503:lvgl\src\lv_misc/lv_mem.c ****     for(i = 0; i < LV_MEM_BUF_MAX_NUM; i++) {
 504:lvgl\src\lv_misc/lv_mem.c ****         if(LV_GC_ROOT(_lv_mem_buf[i]).used == 0 && LV_GC_ROOT(_lv_mem_buf[i]).size >= size) {
 505:lvgl\src\lv_misc/lv_mem.c ****             if(LV_GC_ROOT(_lv_mem_buf[i]).size == size) {
 506:lvgl\src\lv_misc/lv_mem.c ****                 LV_GC_ROOT(_lv_mem_buf[i]).used = 1;
 507:lvgl\src\lv_misc/lv_mem.c ****                 return LV_GC_ROOT(_lv_mem_buf[i]).p;
 508:lvgl\src\lv_misc/lv_mem.c ****             }
 509:lvgl\src\lv_misc/lv_mem.c ****             else if(i_guess < 0) {
 510:lvgl\src\lv_misc/lv_mem.c ****                 i_guess = i;
 511:lvgl\src\lv_misc/lv_mem.c ****             }
 512:lvgl\src\lv_misc/lv_mem.c ****             /*If size of `i` is closer to `size` prefer it*/
 513:lvgl\src\lv_misc/lv_mem.c ****             else if(LV_GC_ROOT(_lv_mem_buf[i]).size < LV_GC_ROOT(_lv_mem_buf[i_guess]).size) {
 514:lvgl\src\lv_misc/lv_mem.c ****                 i_guess = i;
 515:lvgl\src\lv_misc/lv_mem.c ****             }
 516:lvgl\src\lv_misc/lv_mem.c ****         }
 517:lvgl\src\lv_misc/lv_mem.c ****     }
 518:lvgl\src\lv_misc/lv_mem.c **** 
 519:lvgl\src\lv_misc/lv_mem.c ****     if(i_guess >= 0) {
 520:lvgl\src\lv_misc/lv_mem.c ****         LV_GC_ROOT(_lv_mem_buf[i_guess]).used = 1;
 521:lvgl\src\lv_misc/lv_mem.c ****         return LV_GC_ROOT(_lv_mem_buf[i_guess]).p;
 522:lvgl\src\lv_misc/lv_mem.c ****     }
 523:lvgl\src\lv_misc/lv_mem.c **** 
 524:lvgl\src\lv_misc/lv_mem.c **** 
 525:lvgl\src\lv_misc/lv_mem.c ****     /*Reallocate a free buffer*/
 526:lvgl\src\lv_misc/lv_mem.c ****     for(i = 0; i < LV_MEM_BUF_MAX_NUM; i++) {
 527:lvgl\src\lv_misc/lv_mem.c ****         if(LV_GC_ROOT(_lv_mem_buf[i]).used == 0) {
 528:lvgl\src\lv_misc/lv_mem.c ****             LV_GC_ROOT(_lv_mem_buf[i]).used = 1;
 529:lvgl\src\lv_misc/lv_mem.c ****             LV_GC_ROOT(_lv_mem_buf[i]).size = size;
 530:lvgl\src\lv_misc/lv_mem.c ****             /*if this fails you probably need to increase your LV_MEM_SIZE/heap size*/
 531:lvgl\src\lv_misc/lv_mem.c ****             LV_GC_ROOT(_lv_mem_buf[i]).p = lv_mem_realloc(LV_GC_ROOT(_lv_mem_buf[i]).p, size);
 532:lvgl\src\lv_misc/lv_mem.c ****             if(LV_GC_ROOT(_lv_mem_buf[i]).p == NULL) {
 533:lvgl\src\lv_misc/lv_mem.c ****                 LV_DEBUG_ASSERT(false, "Out of memory, can't allocate a new  buffer (increase your 
 534:lvgl\src\lv_misc/lv_mem.c ****             }
 535:lvgl\src\lv_misc/lv_mem.c ****             return  LV_GC_ROOT(_lv_mem_buf[i]).p;
 536:lvgl\src\lv_misc/lv_mem.c ****         }
 537:lvgl\src\lv_misc/lv_mem.c ****     }
 538:lvgl\src\lv_misc/lv_mem.c **** 
 539:lvgl\src\lv_misc/lv_mem.c ****     LV_DEBUG_ASSERT(false, "No free buffer. Increase LV_DRAW_BUF_MAX_NUM.", 0x00);
 540:lvgl\src\lv_misc/lv_mem.c ****     return NULL;
 541:lvgl\src\lv_misc/lv_mem.c **** }
 542:lvgl\src\lv_misc/lv_mem.c **** 
 543:lvgl\src\lv_misc/lv_mem.c **** /**
 544:lvgl\src\lv_misc/lv_mem.c ****  * Release a memory buffer
ARM GAS  C:\Users\strap\AppData\Local\Temp\ccjJjp6v.s 			page 11


 545:lvgl\src\lv_misc/lv_mem.c ****  * @param p buffer to release
 546:lvgl\src\lv_misc/lv_mem.c ****  */
 547:lvgl\src\lv_misc/lv_mem.c **** void _lv_mem_buf_release(void * p)
 548:lvgl\src\lv_misc/lv_mem.c **** {
 549:lvgl\src\lv_misc/lv_mem.c ****     uint8_t i;
 550:lvgl\src\lv_misc/lv_mem.c **** 
 551:lvgl\src\lv_misc/lv_mem.c ****     /*Try small static buffers first*/
 552:lvgl\src\lv_misc/lv_mem.c ****     for(i = 0; i < sizeof(mem_buf_small) / sizeof(mem_buf_small[0]); i++) {
 553:lvgl\src\lv_misc/lv_mem.c ****         if(mem_buf_small[i].p == p) {
 554:lvgl\src\lv_misc/lv_mem.c ****             mem_buf_small[i].used = 0;
 555:lvgl\src\lv_misc/lv_mem.c ****             return;
 556:lvgl\src\lv_misc/lv_mem.c ****         }
 557:lvgl\src\lv_misc/lv_mem.c ****     }
 558:lvgl\src\lv_misc/lv_mem.c **** 
 559:lvgl\src\lv_misc/lv_mem.c ****     for(i = 0; i < LV_MEM_BUF_MAX_NUM; i++) {
 560:lvgl\src\lv_misc/lv_mem.c ****         if(LV_GC_ROOT(_lv_mem_buf[i]).p == p) {
 561:lvgl\src\lv_misc/lv_mem.c ****             LV_GC_ROOT(_lv_mem_buf[i]).used = 0;
 562:lvgl\src\lv_misc/lv_mem.c ****             return;
 563:lvgl\src\lv_misc/lv_mem.c ****         }
 564:lvgl\src\lv_misc/lv_mem.c ****     }
 565:lvgl\src\lv_misc/lv_mem.c **** 
 566:lvgl\src\lv_misc/lv_mem.c ****     LV_LOG_ERROR("lv_mem_buf_release: p is not a known buffer")
 567:lvgl\src\lv_misc/lv_mem.c **** }
 568:lvgl\src\lv_misc/lv_mem.c **** 
 569:lvgl\src\lv_misc/lv_mem.c **** /**
 570:lvgl\src\lv_misc/lv_mem.c ****  * Free all memory buffers
 571:lvgl\src\lv_misc/lv_mem.c ****  */
 572:lvgl\src\lv_misc/lv_mem.c **** void _lv_mem_buf_free_all(void)
 573:lvgl\src\lv_misc/lv_mem.c **** {
 574:lvgl\src\lv_misc/lv_mem.c ****     uint8_t i;
 575:lvgl\src\lv_misc/lv_mem.c ****     for(i = 0; i < sizeof(mem_buf_small) / sizeof(mem_buf_small[0]); i++) {
 576:lvgl\src\lv_misc/lv_mem.c ****         mem_buf_small[i].used = 0;
 577:lvgl\src\lv_misc/lv_mem.c ****     }
 578:lvgl\src\lv_misc/lv_mem.c **** 
 579:lvgl\src\lv_misc/lv_mem.c ****     for(i = 0; i < LV_MEM_BUF_MAX_NUM; i++) {
 580:lvgl\src\lv_misc/lv_mem.c ****         if(LV_GC_ROOT(_lv_mem_buf[i]).p) {
 581:lvgl\src\lv_misc/lv_mem.c ****             lv_mem_free(LV_GC_ROOT(_lv_mem_buf[i]).p);
 582:lvgl\src\lv_misc/lv_mem.c ****             LV_GC_ROOT(_lv_mem_buf[i]).p = NULL;
 583:lvgl\src\lv_misc/lv_mem.c ****             LV_GC_ROOT(_lv_mem_buf[i]).used = 0;
 584:lvgl\src\lv_misc/lv_mem.c ****             LV_GC_ROOT(_lv_mem_buf[i]).size = 0;
 585:lvgl\src\lv_misc/lv_mem.c ****         }
 586:lvgl\src\lv_misc/lv_mem.c ****     }
 587:lvgl\src\lv_misc/lv_mem.c **** }
 588:lvgl\src\lv_misc/lv_mem.c **** 
 589:lvgl\src\lv_misc/lv_mem.c **** #if LV_MEMCPY_MEMSET_STD == 0
 590:lvgl\src\lv_misc/lv_mem.c **** /**
 591:lvgl\src\lv_misc/lv_mem.c ****  * Same as `memcpy` but optimized for 4 byte operation.
 592:lvgl\src\lv_misc/lv_mem.c ****  * @param dst pointer to the destination buffer
 593:lvgl\src\lv_misc/lv_mem.c ****  * @param src pointer to the source buffer
 594:lvgl\src\lv_misc/lv_mem.c ****  * @param len number of byte to copy
 595:lvgl\src\lv_misc/lv_mem.c ****  */
 596:lvgl\src\lv_misc/lv_mem.c **** LV_ATTRIBUTE_FAST_MEM void * _lv_memcpy(void * dst, const void * src, size_t len)
 597:lvgl\src\lv_misc/lv_mem.c **** {
 598:lvgl\src\lv_misc/lv_mem.c ****     uint8_t * d8 = dst;
 599:lvgl\src\lv_misc/lv_mem.c ****     const uint8_t * s8 = src;
 600:lvgl\src\lv_misc/lv_mem.c **** 
 601:lvgl\src\lv_misc/lv_mem.c ****     lv_uintptr_t d_align = (lv_uintptr_t)d8 & ALIGN_MASK;
ARM GAS  C:\Users\strap\AppData\Local\Temp\ccjJjp6v.s 			page 12


 602:lvgl\src\lv_misc/lv_mem.c ****     lv_uintptr_t s_align = (lv_uintptr_t)s8 & ALIGN_MASK;
 603:lvgl\src\lv_misc/lv_mem.c **** 
 604:lvgl\src\lv_misc/lv_mem.c ****     /*Byte copy for unaligned memories*/
 605:lvgl\src\lv_misc/lv_mem.c ****     if(s_align != d_align) {
 606:lvgl\src\lv_misc/lv_mem.c ****         while(len > 32) {
 607:lvgl\src\lv_misc/lv_mem.c ****             REPEAT8(COPY8);
 608:lvgl\src\lv_misc/lv_mem.c ****             REPEAT8(COPY8);
 609:lvgl\src\lv_misc/lv_mem.c ****             REPEAT8(COPY8);
 610:lvgl\src\lv_misc/lv_mem.c ****             REPEAT8(COPY8);
 611:lvgl\src\lv_misc/lv_mem.c ****             len -= 32;
 612:lvgl\src\lv_misc/lv_mem.c ****         }
 613:lvgl\src\lv_misc/lv_mem.c ****         while(len) {
 614:lvgl\src\lv_misc/lv_mem.c ****             COPY8
 615:lvgl\src\lv_misc/lv_mem.c ****             len--;
 616:lvgl\src\lv_misc/lv_mem.c ****         }
 617:lvgl\src\lv_misc/lv_mem.c ****         return dst;
 618:lvgl\src\lv_misc/lv_mem.c ****     }
 619:lvgl\src\lv_misc/lv_mem.c **** 
 620:lvgl\src\lv_misc/lv_mem.c **** 
 621:lvgl\src\lv_misc/lv_mem.c ****     /*Make the memories aligned*/
 622:lvgl\src\lv_misc/lv_mem.c ****     if(d_align) {
 623:lvgl\src\lv_misc/lv_mem.c ****         d_align = ALIGN_MASK + 1 - d_align;
 624:lvgl\src\lv_misc/lv_mem.c ****         while(d_align && len) {
 625:lvgl\src\lv_misc/lv_mem.c ****             COPY8;
 626:lvgl\src\lv_misc/lv_mem.c ****             d_align--;
 627:lvgl\src\lv_misc/lv_mem.c ****             len--;
 628:lvgl\src\lv_misc/lv_mem.c ****         }
 629:lvgl\src\lv_misc/lv_mem.c ****     }
 630:lvgl\src\lv_misc/lv_mem.c **** 
 631:lvgl\src\lv_misc/lv_mem.c ****     uint32_t * d32 = (uint32_t *)d8;
 632:lvgl\src\lv_misc/lv_mem.c ****     const uint32_t * s32 = (uint32_t *)s8;
 633:lvgl\src\lv_misc/lv_mem.c ****     while(len > 32) {
 634:lvgl\src\lv_misc/lv_mem.c ****         REPEAT8(COPY32)
 635:lvgl\src\lv_misc/lv_mem.c ****         len -= 32;
 636:lvgl\src\lv_misc/lv_mem.c ****     }
 637:lvgl\src\lv_misc/lv_mem.c **** 
 638:lvgl\src\lv_misc/lv_mem.c ****     while(len > 4) {
 639:lvgl\src\lv_misc/lv_mem.c ****         COPY32;
 640:lvgl\src\lv_misc/lv_mem.c ****         len -= 4;
 641:lvgl\src\lv_misc/lv_mem.c ****     }
 642:lvgl\src\lv_misc/lv_mem.c **** 
 643:lvgl\src\lv_misc/lv_mem.c ****     d8 = (uint8_t *)d32;
 644:lvgl\src\lv_misc/lv_mem.c ****     s8 = (const uint8_t *)s32;
 645:lvgl\src\lv_misc/lv_mem.c ****     while(len) {
 646:lvgl\src\lv_misc/lv_mem.c ****         COPY8
 647:lvgl\src\lv_misc/lv_mem.c ****         len--;
 648:lvgl\src\lv_misc/lv_mem.c ****     }
 649:lvgl\src\lv_misc/lv_mem.c **** 
 650:lvgl\src\lv_misc/lv_mem.c ****     return dst;
 651:lvgl\src\lv_misc/lv_mem.c **** }
 652:lvgl\src\lv_misc/lv_mem.c **** 
 653:lvgl\src\lv_misc/lv_mem.c **** 
 654:lvgl\src\lv_misc/lv_mem.c **** /**
 655:lvgl\src\lv_misc/lv_mem.c ****  * Same as `memset` but optimized for 4 byte operation.
 656:lvgl\src\lv_misc/lv_mem.c ****  * @param dst pointer to the destination buffer
 657:lvgl\src\lv_misc/lv_mem.c ****  * @param v value to set [0..255]
 658:lvgl\src\lv_misc/lv_mem.c ****  * @param len number of byte to set
ARM GAS  C:\Users\strap\AppData\Local\Temp\ccjJjp6v.s 			page 13


 659:lvgl\src\lv_misc/lv_mem.c ****  */
 660:lvgl\src\lv_misc/lv_mem.c **** LV_ATTRIBUTE_FAST_MEM void _lv_memset(void * dst, uint8_t v, size_t len)
 661:lvgl\src\lv_misc/lv_mem.c **** {
 662:lvgl\src\lv_misc/lv_mem.c **** 
 663:lvgl\src\lv_misc/lv_mem.c ****     uint8_t * d8 = (uint8_t *) dst;
 664:lvgl\src\lv_misc/lv_mem.c **** 
 665:lvgl\src\lv_misc/lv_mem.c ****     uintptr_t d_align = (lv_uintptr_t) d8 & ALIGN_MASK;
 666:lvgl\src\lv_misc/lv_mem.c **** 
 667:lvgl\src\lv_misc/lv_mem.c ****     /*Make the address aligned*/
 668:lvgl\src\lv_misc/lv_mem.c ****     if(d_align) {
 669:lvgl\src\lv_misc/lv_mem.c ****         d_align = ALIGN_MASK + 1 - d_align;
 670:lvgl\src\lv_misc/lv_mem.c ****         while(d_align && len) {
 671:lvgl\src\lv_misc/lv_mem.c ****             *d8 = v;
 672:lvgl\src\lv_misc/lv_mem.c ****             d8++;
 673:lvgl\src\lv_misc/lv_mem.c ****             len--;
 674:lvgl\src\lv_misc/lv_mem.c ****             d_align--;
 675:lvgl\src\lv_misc/lv_mem.c ****         }
 676:lvgl\src\lv_misc/lv_mem.c ****     }
 677:lvgl\src\lv_misc/lv_mem.c **** 
 678:lvgl\src\lv_misc/lv_mem.c ****     uint32_t v32 = v + (v << 8) + (v << 16) + (v << 24);
 679:lvgl\src\lv_misc/lv_mem.c **** 
 680:lvgl\src\lv_misc/lv_mem.c ****     uint32_t * d32 = (uint32_t *)d8;
 681:lvgl\src\lv_misc/lv_mem.c **** 
 682:lvgl\src\lv_misc/lv_mem.c ****     while(len > 32) {
 683:lvgl\src\lv_misc/lv_mem.c ****         SET32(v32);
 684:lvgl\src\lv_misc/lv_mem.c ****         SET32(v32);
 685:lvgl\src\lv_misc/lv_mem.c ****         SET32(v32);
 686:lvgl\src\lv_misc/lv_mem.c ****         SET32(v32);
 687:lvgl\src\lv_misc/lv_mem.c ****         SET32(v32);
 688:lvgl\src\lv_misc/lv_mem.c ****         SET32(v32);
 689:lvgl\src\lv_misc/lv_mem.c ****         SET32(v32);
 690:lvgl\src\lv_misc/lv_mem.c ****         SET32(v32);
 691:lvgl\src\lv_misc/lv_mem.c ****         len -= 32;
 692:lvgl\src\lv_misc/lv_mem.c ****     }
 693:lvgl\src\lv_misc/lv_mem.c **** 
 694:lvgl\src\lv_misc/lv_mem.c ****     while(len > 4) {
 695:lvgl\src\lv_misc/lv_mem.c ****         SET32(v32);
 696:lvgl\src\lv_misc/lv_mem.c ****         len -= 4;
 697:lvgl\src\lv_misc/lv_mem.c ****     }
 698:lvgl\src\lv_misc/lv_mem.c **** 
 699:lvgl\src\lv_misc/lv_mem.c **** 
 700:lvgl\src\lv_misc/lv_mem.c ****     d8 = (uint8_t *)d32;
 701:lvgl\src\lv_misc/lv_mem.c ****     while(len) {
 702:lvgl\src\lv_misc/lv_mem.c ****         *d8 = v;
 703:lvgl\src\lv_misc/lv_mem.c ****         d8++;
 704:lvgl\src\lv_misc/lv_mem.c ****         len--;
 705:lvgl\src\lv_misc/lv_mem.c ****     }
 706:lvgl\src\lv_misc/lv_mem.c **** }
 707:lvgl\src\lv_misc/lv_mem.c **** 
 708:lvgl\src\lv_misc/lv_mem.c **** /**
 709:lvgl\src\lv_misc/lv_mem.c ****  * Same as `memset(dst, 0x00, len)` but optimized for 4 byte operation.
 710:lvgl\src\lv_misc/lv_mem.c ****  * @param dst pointer to the destination buffer
 711:lvgl\src\lv_misc/lv_mem.c ****  * @param len number of byte to set
 712:lvgl\src\lv_misc/lv_mem.c ****  */
 713:lvgl\src\lv_misc/lv_mem.c **** LV_ATTRIBUTE_FAST_MEM void _lv_memset_00(void * dst, size_t len)
 714:lvgl\src\lv_misc/lv_mem.c **** {
 715:lvgl\src\lv_misc/lv_mem.c ****     uint8_t * d8 = (uint8_t *) dst;
ARM GAS  C:\Users\strap\AppData\Local\Temp\ccjJjp6v.s 			page 14


 716:lvgl\src\lv_misc/lv_mem.c ****     uintptr_t d_align = (lv_uintptr_t) d8 & ALIGN_MASK;
 717:lvgl\src\lv_misc/lv_mem.c **** 
 718:lvgl\src\lv_misc/lv_mem.c **** 
 719:lvgl\src\lv_misc/lv_mem.c ****     /*Make the address aligned*/
 720:lvgl\src\lv_misc/lv_mem.c ****     if(d_align) {
 721:lvgl\src\lv_misc/lv_mem.c ****         d_align = ALIGN_MASK + 1 - d_align;
 722:lvgl\src\lv_misc/lv_mem.c ****         while(d_align && len) {
 723:lvgl\src\lv_misc/lv_mem.c ****             *d8 = 0x00;
 724:lvgl\src\lv_misc/lv_mem.c ****             d8++;
 725:lvgl\src\lv_misc/lv_mem.c ****             len--;
 726:lvgl\src\lv_misc/lv_mem.c ****             d_align--;
 727:lvgl\src\lv_misc/lv_mem.c ****         }
 728:lvgl\src\lv_misc/lv_mem.c ****     }
 729:lvgl\src\lv_misc/lv_mem.c **** 
 730:lvgl\src\lv_misc/lv_mem.c ****     uint32_t * d32 = (uint32_t *)d8;
 731:lvgl\src\lv_misc/lv_mem.c ****     while(len > 32) {
 732:lvgl\src\lv_misc/lv_mem.c ****         SET32(0);
 733:lvgl\src\lv_misc/lv_mem.c ****         SET32(0);
 734:lvgl\src\lv_misc/lv_mem.c ****         SET32(0);
 735:lvgl\src\lv_misc/lv_mem.c ****         SET32(0);
 736:lvgl\src\lv_misc/lv_mem.c ****         SET32(0);
 737:lvgl\src\lv_misc/lv_mem.c ****         SET32(0);
 738:lvgl\src\lv_misc/lv_mem.c ****         SET32(0);
 739:lvgl\src\lv_misc/lv_mem.c ****         SET32(0);
 740:lvgl\src\lv_misc/lv_mem.c ****         len -= 32;
 741:lvgl\src\lv_misc/lv_mem.c ****     }
 742:lvgl\src\lv_misc/lv_mem.c **** 
 743:lvgl\src\lv_misc/lv_mem.c ****     while(len > 4) {
 744:lvgl\src\lv_misc/lv_mem.c ****         SET32(0);
 745:lvgl\src\lv_misc/lv_mem.c ****         len -= 4;
 746:lvgl\src\lv_misc/lv_mem.c ****     }
 747:lvgl\src\lv_misc/lv_mem.c **** 
 748:lvgl\src\lv_misc/lv_mem.c **** 
 749:lvgl\src\lv_misc/lv_mem.c ****     d8 = (uint8_t *)d32;
 750:lvgl\src\lv_misc/lv_mem.c ****     while(len) {
 751:lvgl\src\lv_misc/lv_mem.c ****         *d8 = 0;
 752:lvgl\src\lv_misc/lv_mem.c ****         d8++;
 753:lvgl\src\lv_misc/lv_mem.c ****         len--;
 754:lvgl\src\lv_misc/lv_mem.c ****     }
 755:lvgl\src\lv_misc/lv_mem.c **** }
 756:lvgl\src\lv_misc/lv_mem.c **** 
 757:lvgl\src\lv_misc/lv_mem.c **** /**
 758:lvgl\src\lv_misc/lv_mem.c ****  * Same as `memset(dst, 0xFF, len)` but optimized for 4 byte operation.
 759:lvgl\src\lv_misc/lv_mem.c ****  * @param dst pointer to the destination buffer
 760:lvgl\src\lv_misc/lv_mem.c ****  * @param len number of byte to set
 761:lvgl\src\lv_misc/lv_mem.c ****  */
 762:lvgl\src\lv_misc/lv_mem.c **** LV_ATTRIBUTE_FAST_MEM void _lv_memset_ff(void * dst, size_t len)
 763:lvgl\src\lv_misc/lv_mem.c **** {
 764:lvgl\src\lv_misc/lv_mem.c ****     uint8_t * d8 = (uint8_t *) dst;
 765:lvgl\src\lv_misc/lv_mem.c ****     uintptr_t d_align = (lv_uintptr_t) d8 & ALIGN_MASK;
 766:lvgl\src\lv_misc/lv_mem.c **** 
 767:lvgl\src\lv_misc/lv_mem.c **** 
 768:lvgl\src\lv_misc/lv_mem.c ****     /*Make the address aligned*/
 769:lvgl\src\lv_misc/lv_mem.c ****     if(d_align) {
 770:lvgl\src\lv_misc/lv_mem.c ****         d_align = ALIGN_MASK + 1 - d_align;
 771:lvgl\src\lv_misc/lv_mem.c ****         while(d_align && len) {
 772:lvgl\src\lv_misc/lv_mem.c ****             *d8 = 0xFF;
ARM GAS  C:\Users\strap\AppData\Local\Temp\ccjJjp6v.s 			page 15


 773:lvgl\src\lv_misc/lv_mem.c ****             d8++;
 774:lvgl\src\lv_misc/lv_mem.c ****             len--;
 775:lvgl\src\lv_misc/lv_mem.c ****             d_align--;
 776:lvgl\src\lv_misc/lv_mem.c ****         }
 777:lvgl\src\lv_misc/lv_mem.c ****     }
 778:lvgl\src\lv_misc/lv_mem.c **** 
 779:lvgl\src\lv_misc/lv_mem.c ****     uint32_t * d32 = (uint32_t *)d8;
 780:lvgl\src\lv_misc/lv_mem.c ****     while(len > 32) {
 781:lvgl\src\lv_misc/lv_mem.c ****         SET32(0xFFFFFFFF);
 782:lvgl\src\lv_misc/lv_mem.c ****         SET32(0xFFFFFFFF);
 783:lvgl\src\lv_misc/lv_mem.c ****         SET32(0xFFFFFFFF);
 784:lvgl\src\lv_misc/lv_mem.c ****         SET32(0xFFFFFFFF);
 785:lvgl\src\lv_misc/lv_mem.c ****         SET32(0xFFFFFFFF);
 786:lvgl\src\lv_misc/lv_mem.c ****         SET32(0xFFFFFFFF);
 787:lvgl\src\lv_misc/lv_mem.c ****         SET32(0xFFFFFFFF);
 788:lvgl\src\lv_misc/lv_mem.c ****         SET32(0xFFFFFFFF);
 789:lvgl\src\lv_misc/lv_mem.c ****         len -= 32;
 790:lvgl\src\lv_misc/lv_mem.c ****     }
 791:lvgl\src\lv_misc/lv_mem.c **** 
 792:lvgl\src\lv_misc/lv_mem.c ****     while(len > 4) {
 793:lvgl\src\lv_misc/lv_mem.c ****         SET32(0xFFFFFFFF);
 794:lvgl\src\lv_misc/lv_mem.c ****         len -= 4;
 795:lvgl\src\lv_misc/lv_mem.c ****     }
 796:lvgl\src\lv_misc/lv_mem.c **** 
 797:lvgl\src\lv_misc/lv_mem.c **** 
 798:lvgl\src\lv_misc/lv_mem.c ****     d8 = (uint8_t *)d32;
 799:lvgl\src\lv_misc/lv_mem.c ****     while(len) {
 800:lvgl\src\lv_misc/lv_mem.c ****         *d8 = 0xFF;
 801:lvgl\src\lv_misc/lv_mem.c ****         d8++;
 802:lvgl\src\lv_misc/lv_mem.c ****         len--;
 803:lvgl\src\lv_misc/lv_mem.c ****     }
 804:lvgl\src\lv_misc/lv_mem.c **** }
 805:lvgl\src\lv_misc/lv_mem.c **** 
 806:lvgl\src\lv_misc/lv_mem.c **** #endif /*LV_MEMCPY_MEMSET_STD*/
 807:lvgl\src\lv_misc/lv_mem.c **** 
 808:lvgl\src\lv_misc/lv_mem.c **** /**********************
 809:lvgl\src\lv_misc/lv_mem.c ****  *   STATIC FUNCTIONS
 810:lvgl\src\lv_misc/lv_mem.c ****  **********************/
 811:lvgl\src\lv_misc/lv_mem.c **** 
 812:lvgl\src\lv_misc/lv_mem.c **** #if LV_MEM_CUSTOM == 0
 813:lvgl\src\lv_misc/lv_mem.c **** /**
 814:lvgl\src\lv_misc/lv_mem.c ****  * Give the next entry after 'act_e'
 815:lvgl\src\lv_misc/lv_mem.c ****  * @param act_e pointer to an entry
 816:lvgl\src\lv_misc/lv_mem.c ****  * @return pointer to an entry after 'act_e'
 817:lvgl\src\lv_misc/lv_mem.c ****  */
 818:lvgl\src\lv_misc/lv_mem.c **** static lv_mem_ent_t * ent_get_next(lv_mem_ent_t * act_e)
 819:lvgl\src\lv_misc/lv_mem.c **** {
  27              		.loc 1 819 0
  28              		.cfi_startproc
  29              		@ args = 0, pretend = 0, frame = 0
  30              		@ frame_needed = 0, uses_anonymous_args = 0
  31              		@ link register save eliminated.
  32              	.LVL0:
 820:lvgl\src\lv_misc/lv_mem.c ****     lv_mem_ent_t * next_e = NULL;
 821:lvgl\src\lv_misc/lv_mem.c **** 
 822:lvgl\src\lv_misc/lv_mem.c ****     if(act_e == NULL) { /*NULL means: get the first entry*/
  33              		.loc 1 822 0
ARM GAS  C:\Users\strap\AppData\Local\Temp\ccjJjp6v.s 			page 16


  34 0000 10B9     		cbnz	r0, .L2
 823:lvgl\src\lv_misc/lv_mem.c ****         next_e = (lv_mem_ent_t *)work_mem;
  35              		.loc 1 823 0
  36 0002 084B     		ldr	r3, .L5
  37 0004 1868     		ldr	r0, [r3]
  38              	.LVL1:
  39 0006 7047     		bx	lr
  40              	.LVL2:
  41              	.L2:
  42              	.LBB2:
 824:lvgl\src\lv_misc/lv_mem.c ****     }
 825:lvgl\src\lv_misc/lv_mem.c ****     else {   /*Get the next entry */
 826:lvgl\src\lv_misc/lv_mem.c ****         uint8_t * data = &act_e->first_data;
  43              		.loc 1 826 0
  44 0008 031D     		adds	r3, r0, #4
  45              	.LVL3:
 827:lvgl\src\lv_misc/lv_mem.c ****         next_e         = (lv_mem_ent_t *)&data[act_e->header.s.d_size];
  46              		.loc 1 827 0
  47 000a 0068     		ldr	r0, [r0]
  48              	.LVL4:
  49 000c 03EB5000 		add	r0, r3, r0, lsr #1
  50              	.LVL5:
 828:lvgl\src\lv_misc/lv_mem.c **** 
 829:lvgl\src\lv_misc/lv_mem.c ****         if(&next_e->first_data >= &work_mem[LV_MEM_SIZE]) next_e = NULL;
  51              		.loc 1 829 0
  52 0010 021D     		adds	r2, r0, #4
  53 0012 044B     		ldr	r3, .L5
  54              	.LVL6:
  55 0014 1B68     		ldr	r3, [r3]
  56 0016 03F58043 		add	r3, r3, #16384
  57 001a 9A42     		cmp	r2, r3
  58 001c 00D3     		bcc	.L3
  59 001e 0020     		movs	r0, #0
  60              	.LVL7:
  61              	.L3:
  62              	.LBE2:
 830:lvgl\src\lv_misc/lv_mem.c ****     }
 831:lvgl\src\lv_misc/lv_mem.c **** 
 832:lvgl\src\lv_misc/lv_mem.c ****     return next_e;
 833:lvgl\src\lv_misc/lv_mem.c **** }
  63              		.loc 1 833 0
  64 0020 7047     		bx	lr
  65              	.L6:
  66 0022 00BF     		.align	2
  67              	.L5:
  68 0024 00000000 		.word	.LANCHOR0
  69              		.cfi_endproc
  70              	.LFE53:
  71              		.size	ent_get_next, .-ent_get_next
  72              		.section	.text.ent_trunc,"ax",%progbits
  73              		.align	2
  74              		.thumb
  75              		.thumb_func
  76              		.type	ent_trunc, %function
  77              	ent_trunc:
  78              	.LFB55:
 834:lvgl\src\lv_misc/lv_mem.c **** 
ARM GAS  C:\Users\strap\AppData\Local\Temp\ccjJjp6v.s 			page 17


 835:lvgl\src\lv_misc/lv_mem.c **** /**
 836:lvgl\src\lv_misc/lv_mem.c ****  * Try to do the real allocation with a given size
 837:lvgl\src\lv_misc/lv_mem.c ****  * @param e try to allocate to this entry
 838:lvgl\src\lv_misc/lv_mem.c ****  * @param size size of the new memory in bytes
 839:lvgl\src\lv_misc/lv_mem.c ****  * @return pointer to the allocated memory or NULL if not enough memory in the entry
 840:lvgl\src\lv_misc/lv_mem.c ****  */
 841:lvgl\src\lv_misc/lv_mem.c **** static void * ent_alloc(lv_mem_ent_t * e, size_t size)
 842:lvgl\src\lv_misc/lv_mem.c **** {
 843:lvgl\src\lv_misc/lv_mem.c ****     void * alloc = NULL;
 844:lvgl\src\lv_misc/lv_mem.c ****     /*If the memory is free and big enough then use it */
 845:lvgl\src\lv_misc/lv_mem.c ****     if(e->header.s.used == 0 && e->header.s.d_size >= size) {
 846:lvgl\src\lv_misc/lv_mem.c ****         /*Truncate the entry to the desired size */
 847:lvgl\src\lv_misc/lv_mem.c ****         ent_trunc(e, size);
 848:lvgl\src\lv_misc/lv_mem.c ****         e->header.s.used = 1;
 849:lvgl\src\lv_misc/lv_mem.c **** 
 850:lvgl\src\lv_misc/lv_mem.c ****         /*Save the allocated data*/
 851:lvgl\src\lv_misc/lv_mem.c ****         alloc = &e->first_data;
 852:lvgl\src\lv_misc/lv_mem.c ****     }
 853:lvgl\src\lv_misc/lv_mem.c **** 
 854:lvgl\src\lv_misc/lv_mem.c ****     return alloc;
 855:lvgl\src\lv_misc/lv_mem.c **** }
 856:lvgl\src\lv_misc/lv_mem.c **** 
 857:lvgl\src\lv_misc/lv_mem.c **** /**
 858:lvgl\src\lv_misc/lv_mem.c ****  * Truncate the data of entry to the given size
 859:lvgl\src\lv_misc/lv_mem.c ****  * @param e Pointer to an entry
 860:lvgl\src\lv_misc/lv_mem.c ****  * @param size new size in bytes
 861:lvgl\src\lv_misc/lv_mem.c ****  */
 862:lvgl\src\lv_misc/lv_mem.c **** static void ent_trunc(lv_mem_ent_t * e, size_t size)
 863:lvgl\src\lv_misc/lv_mem.c **** {
  79              		.loc 1 863 0
  80              		.cfi_startproc
  81              		@ args = 0, pretend = 0, frame = 0
  82              		@ frame_needed = 0, uses_anonymous_args = 0
  83              		@ link register save eliminated.
  84              	.LVL8:
 864:lvgl\src\lv_misc/lv_mem.c **** 
 865:lvgl\src\lv_misc/lv_mem.c **** #ifdef LV_ARCH_64
 866:lvgl\src\lv_misc/lv_mem.c ****     /*Round the size up to 8*/
 867:lvgl\src\lv_misc/lv_mem.c ****     size = (size + 7) & (~0x7);
 868:lvgl\src\lv_misc/lv_mem.c **** #else
 869:lvgl\src\lv_misc/lv_mem.c ****     /*Round the size up to 4*/
 870:lvgl\src\lv_misc/lv_mem.c ****     size = (size + 3) & (~0x3);
  85              		.loc 1 870 0
  86 0000 0331     		adds	r1, r1, #3
  87              	.LVL9:
  88 0002 21F00301 		bic	r1, r1, #3
  89              	.LVL10:
 871:lvgl\src\lv_misc/lv_mem.c **** #endif
 872:lvgl\src\lv_misc/lv_mem.c **** 
 873:lvgl\src\lv_misc/lv_mem.c ****     /*Don't let empty space only for a header without data*/
 874:lvgl\src\lv_misc/lv_mem.c ****     if(e->header.s.d_size == size + sizeof(lv_mem_header_t)) {
  90              		.loc 1 874 0
  91 0006 0368     		ldr	r3, [r0]
  92 0008 C3F35E03 		ubfx	r3, r3, #1, #31
  93 000c 0A1D     		adds	r2, r1, #4
  94 000e 9342     		cmp	r3, r2
  95 0010 00D1     		bne	.L8
ARM GAS  C:\Users\strap\AppData\Local\Temp\ccjJjp6v.s 			page 18


 875:lvgl\src\lv_misc/lv_mem.c ****         size = e->header.s.d_size;
  96              		.loc 1 875 0
  97 0012 1946     		mov	r1, r3
  98              	.LVL11:
  99              	.L8:
 876:lvgl\src\lv_misc/lv_mem.c ****     }
 877:lvgl\src\lv_misc/lv_mem.c **** 
 878:lvgl\src\lv_misc/lv_mem.c ****     /* Create the new entry after the current if there is space for it */
 879:lvgl\src\lv_misc/lv_mem.c ****     if(e->header.s.d_size != size) {
 100              		.loc 1 879 0
 101 0014 9942     		cmp	r1, r3
 102 0016 13D0     		beq	.L12
 863:lvgl\src\lv_misc/lv_mem.c **** 
 103              		.loc 1 863 0
 104 0018 10B4     		push	{r4}
 105              		.cfi_def_cfa_offset 4
 106              		.cfi_offset 4, -4
 107              	.LBB3:
 880:lvgl\src\lv_misc/lv_mem.c ****         uint8_t * e_data             = &e->first_data;
 108              		.loc 1 880 0
 109 001a 021D     		adds	r2, r0, #4
 110              	.LVL12:
 881:lvgl\src\lv_misc/lv_mem.c ****         lv_mem_ent_t * after_new_e   = (lv_mem_ent_t *)&e_data[size];
 882:lvgl\src\lv_misc/lv_mem.c ****         after_new_e->header.s.used   = 0;
 111              		.loc 1 882 0
 112 001c 535C     		ldrb	r3, [r2, r1]	@ zero_extendqisi2
 113 001e 6FF30003 		bfc	r3, #0, #1
 114 0022 5354     		strb	r3, [r2, r1]
 883:lvgl\src\lv_misc/lv_mem.c ****         after_new_e->header.s.d_size = (uint32_t)e->header.s.d_size - size - sizeof(lv_mem_header_t
 115              		.loc 1 883 0
 116 0024 0368     		ldr	r3, [r0]
 117 0026 C1EB5303 		rsb	r3, r1, r3, lsr #1
 118 002a 043B     		subs	r3, r3, #4
 119 002c 5458     		ldr	r4, [r2, r1]
 120 002e 63F35F04 		bfi	r4, r3, #1, #31
 121 0032 5450     		str	r4, [r2, r1]
 122              	.LBE3:
 884:lvgl\src\lv_misc/lv_mem.c ****     }
 885:lvgl\src\lv_misc/lv_mem.c **** 
 886:lvgl\src\lv_misc/lv_mem.c ****     /* Set the new size for the original entry */
 887:lvgl\src\lv_misc/lv_mem.c ****     e->header.s.d_size = (uint32_t)size;
 123              		.loc 1 887 0
 124 0034 0368     		ldr	r3, [r0]
 125 0036 61F35F03 		bfi	r3, r1, #1, #31
 126 003a 0360     		str	r3, [r0]
 888:lvgl\src\lv_misc/lv_mem.c **** }
 127              		.loc 1 888 0
 128 003c 10BC     		pop	{r4}
 129              		.cfi_restore 4
 130              		.cfi_def_cfa_offset 0
 131 003e 7047     		bx	lr
 132              	.LVL13:
 133              	.L12:
 887:lvgl\src\lv_misc/lv_mem.c **** }
 134              		.loc 1 887 0
 135 0040 0368     		ldr	r3, [r0]
 136 0042 61F35F03 		bfi	r3, r1, #1, #31
ARM GAS  C:\Users\strap\AppData\Local\Temp\ccjJjp6v.s 			page 19


 137 0046 0360     		str	r3, [r0]
 138 0048 7047     		bx	lr
 139              		.cfi_endproc
 140              	.LFE55:
 141              		.size	ent_trunc, .-ent_trunc
 142 004a 00BF     		.section	.text.ent_alloc,"ax",%progbits
 143              		.align	2
 144              		.thumb
 145              		.thumb_func
 146              		.type	ent_alloc, %function
 147              	ent_alloc:
 148              	.LFB54:
 842:lvgl\src\lv_misc/lv_mem.c ****     void * alloc = NULL;
 149              		.loc 1 842 0
 150              		.cfi_startproc
 151              		@ args = 0, pretend = 0, frame = 0
 152              		@ frame_needed = 0, uses_anonymous_args = 0
 153              	.LVL14:
 845:lvgl\src\lv_misc/lv_mem.c ****         /*Truncate the entry to the desired size */
 154              		.loc 1 845 0
 155 0000 0378     		ldrb	r3, [r0]	@ zero_extendqisi2
 156 0002 13F0010F 		tst	r3, #1
 157 0006 0FD1     		bne	.L15
 845:lvgl\src\lv_misc/lv_mem.c ****         /*Truncate the entry to the desired size */
 158              		.loc 1 845 0 is_stmt 0 discriminator 1
 159 0008 0368     		ldr	r3, [r0]
 160 000a C3F35E03 		ubfx	r3, r3, #1, #31
 161 000e 8B42     		cmp	r3, r1
 162 0010 0CD3     		bcc	.L16
 842:lvgl\src\lv_misc/lv_mem.c ****     void * alloc = NULL;
 163              		.loc 1 842 0 is_stmt 1
 164 0012 10B5     		push	{r4, lr}
 165              		.cfi_def_cfa_offset 8
 166              		.cfi_offset 4, -8
 167              		.cfi_offset 14, -4
 168 0014 0446     		mov	r4, r0
 847:lvgl\src\lv_misc/lv_mem.c ****         e->header.s.used = 1;
 169              		.loc 1 847 0
 170 0016 FFF7FEFF 		bl	ent_trunc
 171              	.LVL15:
 848:lvgl\src\lv_misc/lv_mem.c **** 
 172              		.loc 1 848 0
 173 001a 2378     		ldrb	r3, [r4]	@ zero_extendqisi2
 174 001c 43F00103 		orr	r3, r3, #1
 175 0020 2046     		mov	r0, r4
 176 0022 00F8043B 		strb	r3, [r0], #4
 177              	.LVL16:
 178 0026 10BD     		pop	{r4, pc}
 179              	.LVL17:
 180              	.L15:
 181              		.cfi_def_cfa_offset 0
 182              		.cfi_restore 4
 183              		.cfi_restore 14
 843:lvgl\src\lv_misc/lv_mem.c ****     /*If the memory is free and big enough then use it */
 184              		.loc 1 843 0
 185 0028 0020     		movs	r0, #0
 186              	.LVL18:
ARM GAS  C:\Users\strap\AppData\Local\Temp\ccjJjp6v.s 			page 20


 187 002a 7047     		bx	lr
 188              	.LVL19:
 189              	.L16:
 190 002c 0020     		movs	r0, #0
 191              	.LVL20:
 192 002e 7047     		bx	lr
 193              		.cfi_endproc
 194              	.LFE54:
 195              		.size	ent_alloc, .-ent_alloc
 196              		.section	.text._lv_mem_init,"ax",%progbits
 197              		.align	2
 198              		.global	_lv_mem_init
 199              		.thumb
 200              		.thumb_func
 201              		.type	_lv_mem_init, %function
 202              	_lv_mem_init:
 203              	.LFB37:
 117:lvgl\src\lv_misc/lv_mem.c **** #if LV_MEM_CUSTOM == 0
 204              		.loc 1 117 0
 205              		.cfi_startproc
 206              		@ args = 0, pretend = 0, frame = 0
 207              		@ frame_needed = 0, uses_anonymous_args = 0
 208              		@ link register save eliminated.
 123:lvgl\src\lv_misc/lv_mem.c ****     mem_max_size = 0;
 209              		.loc 1 123 0
 210 0000 084B     		ldr	r3, .L20
 211 0002 1A1D     		adds	r2, r3, #4
 212 0004 1A60     		str	r2, [r3]
 124:lvgl\src\lv_misc/lv_mem.c **** #else
 213              		.loc 1 124 0
 214 0006 0021     		movs	r1, #0
 215 0008 074A     		ldr	r2, .L20+4
 216 000a C2F81C1D 		str	r1, [r2, #3356]
 217              	.LVL21:
 130:lvgl\src\lv_misc/lv_mem.c ****     /*The total mem size id reduced by the first header and the close patterns */
 218              		.loc 1 130 0
 219 000e 1A79     		ldrb	r2, [r3, #4]	@ zero_extendqisi2
 220 0010 61F30002 		bfi	r2, r1, #0, #1
 221 0014 1A71     		strb	r2, [r3, #4]
 132:lvgl\src\lv_misc/lv_mem.c **** #endif
 222              		.loc 1 132 0
 223 0016 5A68     		ldr	r2, [r3, #4]
 224 0018 43F6FC71 		movw	r1, #16380
 225 001c 61F35F02 		bfi	r2, r1, #1, #31
 226 0020 5A60     		str	r2, [r3, #4]
 227 0022 7047     		bx	lr
 228              	.L21:
 229              		.align	2
 230              	.L20:
 231 0024 00000000 		.word	.LANCHOR0
 232 0028 E8320000 		.word	.LANCHOR1
 233              		.cfi_endproc
 234              	.LFE37:
 235              		.size	_lv_mem_init, .-_lv_mem_init
 236              		.section	.text.lv_mem_alloc,"ax",%progbits
 237              		.align	2
 238              		.global	lv_mem_alloc
ARM GAS  C:\Users\strap\AppData\Local\Temp\ccjJjp6v.s 			page 21


 239              		.thumb
 240              		.thumb_func
 241              		.type	lv_mem_alloc, %function
 242              	lv_mem_alloc:
 243              	.LFB39:
 157:lvgl\src\lv_misc/lv_mem.c ****     if(size == 0) {
 244              		.loc 1 157 0
 245              		.cfi_startproc
 246              		@ args = 0, pretend = 0, frame = 0
 247              		@ frame_needed = 0, uses_anonymous_args = 0
 248              	.LVL22:
 158:lvgl\src\lv_misc/lv_mem.c ****         return &zero_mem;
 249              		.loc 1 158 0
 250 0000 18B3     		cbz	r0, .L27
 157:lvgl\src\lv_misc/lv_mem.c ****     if(size == 0) {
 251              		.loc 1 157 0
 252 0002 70B5     		push	{r4, r5, r6, lr}
 253              		.cfi_def_cfa_offset 16
 254              		.cfi_offset 4, -16
 255              		.cfi_offset 5, -12
 256              		.cfi_offset 6, -8
 257              		.cfi_offset 14, -4
 258 0004 0646     		mov	r6, r0
 167:lvgl\src\lv_misc/lv_mem.c **** #endif
 259              		.loc 1 167 0
 260 0006 0336     		adds	r6, r6, #3
 261 0008 26F00306 		bic	r6, r6, #3
 262              	.LVL23:
 173:lvgl\src\lv_misc/lv_mem.c **** 
 263              		.loc 1 173 0
 264 000c 0024     		movs	r4, #0
 169:lvgl\src\lv_misc/lv_mem.c **** 
 265              		.loc 1 169 0
 266 000e 2546     		mov	r5, r4
 267              	.LVL24:
 268              	.L26:
 178:lvgl\src\lv_misc/lv_mem.c **** 
 269              		.loc 1 178 0
 270 0010 2046     		mov	r0, r4
 271 0012 FFF7FEFF 		bl	ent_get_next
 272              	.LVL25:
 181:lvgl\src\lv_misc/lv_mem.c ****             alloc = ent_alloc(e, size);
 273              		.loc 1 181 0
 274 0016 0446     		mov	r4, r0
 275 0018 18B1     		cbz	r0, .L24
 182:lvgl\src\lv_misc/lv_mem.c ****         }
 276              		.loc 1 182 0
 277 001a 3146     		mov	r1, r6
 278 001c FFF7FEFF 		bl	ent_alloc
 279              	.LVL26:
 280 0020 0546     		mov	r5, r0
 281              	.LVL27:
 282              	.L24:
 185:lvgl\src\lv_misc/lv_mem.c **** 
 283              		.loc 1 185 0
 284 0022 0CB1     		cbz	r4, .L25
 185:lvgl\src\lv_misc/lv_mem.c **** 
ARM GAS  C:\Users\strap\AppData\Local\Temp\ccjJjp6v.s 			page 22


 285              		.loc 1 185 0 is_stmt 0 discriminator 1
 286 0024 002D     		cmp	r5, #0
 287 0026 F3D0     		beq	.L26
 288              	.L25:
 207:lvgl\src\lv_misc/lv_mem.c ****         LV_LOG_WARN("Couldn't allocate memory");
 289              		.loc 1 207 0 is_stmt 1
 290 0028 8DB1     		cbz	r5, .L28
 213:lvgl\src\lv_misc/lv_mem.c ****             if((((uintptr_t) alloc - (uintptr_t) work_mem) + size) > mem_max_size) {
 291              		.loc 1 213 0
 292 002a 0C4B     		ldr	r3, .L32
 293 002c 1B68     		ldr	r3, [r3]
 294 002e 9D42     		cmp	r5, r3
 295 0030 0FD9     		bls	.L29
 214:lvgl\src\lv_misc/lv_mem.c ****                 mem_max_size = ((uintptr_t) alloc - (uintptr_t) work_mem) + size;
 296              		.loc 1 214 0
 297 0032 EB1A     		subs	r3, r5, r3
 298 0034 1E44     		add	r6, r6, r3
 299              	.LVL28:
 300 0036 0A4B     		ldr	r3, .L32+4
 301 0038 D3F81C3D 		ldr	r3, [r3, #3356]
 302 003c 9E42     		cmp	r6, r3
 303 003e 0AD9     		bls	.L30
 215:lvgl\src\lv_misc/lv_mem.c ****             }
 304              		.loc 1 215 0
 305 0040 074B     		ldr	r3, .L32+4
 306 0042 C3F81C6D 		str	r6, [r3, #3356]
 221:lvgl\src\lv_misc/lv_mem.c **** }
 307              		.loc 1 221 0
 308 0046 2846     		mov	r0, r5
 309 0048 70BD     		pop	{r4, r5, r6, pc}
 310              	.LVL29:
 311              	.L27:
 312              		.cfi_def_cfa_offset 0
 313              		.cfi_restore 4
 314              		.cfi_restore 5
 315              		.cfi_restore 6
 316              		.cfi_restore 14
 159:lvgl\src\lv_misc/lv_mem.c ****     }
 317              		.loc 1 159 0
 318 004a 0648     		ldr	r0, .L32+8
 319              	.LVL30:
 222:lvgl\src\lv_misc/lv_mem.c **** 
 320              		.loc 1 222 0
 321 004c 7047     		bx	lr
 322              	.LVL31:
 323              	.L28:
 324              		.cfi_def_cfa_offset 16
 325              		.cfi_offset 4, -16
 326              		.cfi_offset 5, -12
 327              		.cfi_offset 6, -8
 328              		.cfi_offset 14, -4
 221:lvgl\src\lv_misc/lv_mem.c **** }
 329              		.loc 1 221 0
 330 004e 2846     		mov	r0, r5
 331 0050 70BD     		pop	{r4, r5, r6, pc}
 332              	.LVL32:
 333              	.L29:
ARM GAS  C:\Users\strap\AppData\Local\Temp\ccjJjp6v.s 			page 23


 334 0052 2846     		mov	r0, r5
 335 0054 70BD     		pop	{r4, r5, r6, pc}
 336              	.LVL33:
 337              	.L30:
 338 0056 2846     		mov	r0, r5
 222:lvgl\src\lv_misc/lv_mem.c **** 
 339              		.loc 1 222 0
 340 0058 70BD     		pop	{r4, r5, r6, pc}
 341              	.LVL34:
 342              	.L33:
 343 005a 00BF     		.align	2
 344              	.L32:
 345 005c 00000000 		.word	.LANCHOR0
 346 0060 E8320000 		.word	.LANCHOR1
 347 0064 08400000 		.word	.LANCHOR1+3360
 348              		.cfi_endproc
 349              	.LFE39:
 350              		.size	lv_mem_alloc, .-lv_mem_alloc
 351              		.section	.text.lv_mem_defrag,"ax",%progbits
 352              		.align	2
 353              		.global	lv_mem_defrag
 354              		.thumb
 355              		.thumb_func
 356              		.type	lv_mem_defrag, %function
 357              	lv_mem_defrag:
 358              	.LFB42:
 354:lvgl\src\lv_misc/lv_mem.c **** #if LV_MEM_CUSTOM == 0
 359              		.loc 1 354 0
 360              		.cfi_startproc
 361              		@ args = 0, pretend = 0, frame = 0
 362              		@ frame_needed = 0, uses_anonymous_args = 0
 363 0000 10B5     		push	{r4, lr}
 364              		.cfi_def_cfa_offset 8
 365              		.cfi_offset 4, -8
 366              		.cfi_offset 14, -4
 358:lvgl\src\lv_misc/lv_mem.c **** 
 367              		.loc 1 358 0
 368 0002 0020     		movs	r0, #0
 369 0004 FFF7FEFF 		bl	ent_get_next
 370              	.LVL35:
 371 0008 0446     		mov	r4, r0
 372              	.LVL36:
 373 000a 07E0     		b	.L35
 374              	.LVL37:
 375              	.L37:
 363:lvgl\src\lv_misc/lv_mem.c ****                 e_free = ent_get_next(e_free);
 376              		.loc 1 363 0
 377 000c 2378     		ldrb	r3, [r4]	@ zero_extendqisi2
 378 000e 13F0010F 		tst	r3, #1
 379 0012 05D0     		beq	.L36
 364:lvgl\src\lv_misc/lv_mem.c ****             }
 380              		.loc 1 364 0
 381 0014 2046     		mov	r0, r4
 382 0016 FFF7FEFF 		bl	ent_get_next
 383              	.LVL38:
 384              	.L42:
 354:lvgl\src\lv_misc/lv_mem.c **** #if LV_MEM_CUSTOM == 0
ARM GAS  C:\Users\strap\AppData\Local\Temp\ccjJjp6v.s 			page 24


 385              		.loc 1 354 0
 386 001a 0446     		mov	r4, r0
 387              	.L35:
 388              	.LVL39:
 362:lvgl\src\lv_misc/lv_mem.c ****             if(e_free->header.s.used != 0) {
 389              		.loc 1 362 0
 390 001c 002C     		cmp	r4, #0
 391 001e F5D1     		bne	.L37
 392              	.L36:
 371:lvgl\src\lv_misc/lv_mem.c **** 
 393              		.loc 1 371 0
 394 0020 BCB1     		cbz	r4, .L34
 374:lvgl\src\lv_misc/lv_mem.c ****         while(e_next != NULL) {
 395              		.loc 1 374 0
 396 0022 2046     		mov	r0, r4
 397 0024 FFF7FEFF 		bl	ent_get_next
 398              	.LVL40:
 375:lvgl\src\lv_misc/lv_mem.c ****             if(e_next->header.s.used == 0) {
 399              		.loc 1 375 0
 400 0028 0FE0     		b	.L39
 401              	.L41:
 376:lvgl\src\lv_misc/lv_mem.c ****                 e_free->header.s.d_size += e_next->header.s.d_size + sizeof(e_next->header);
 402              		.loc 1 376 0
 403 002a 0378     		ldrb	r3, [r0]	@ zero_extendqisi2
 404 002c 13F0010F 		tst	r3, #1
 405 0030 0DD1     		bne	.L40
 377:lvgl\src\lv_misc/lv_mem.c ****             }
 406              		.loc 1 377 0
 407 0032 0168     		ldr	r1, [r0]
 408 0034 2368     		ldr	r3, [r4]
 409 0036 C3F35E02 		ubfx	r2, r3, #1, #31
 410 003a 02EB5102 		add	r2, r2, r1, lsr #1
 411 003e 0432     		adds	r2, r2, #4
 412 0040 62F35F03 		bfi	r3, r2, #1, #31
 413 0044 2360     		str	r3, [r4]
 383:lvgl\src\lv_misc/lv_mem.c ****         }
 414              		.loc 1 383 0
 415 0046 FFF7FEFF 		bl	ent_get_next
 416              	.LVL41:
 417              	.L39:
 375:lvgl\src\lv_misc/lv_mem.c ****             if(e_next->header.s.used == 0) {
 418              		.loc 1 375 0
 419 004a 0028     		cmp	r0, #0
 420 004c EDD1     		bne	.L41
 421              	.L40:
 386:lvgl\src\lv_misc/lv_mem.c **** 
 422              		.loc 1 386 0
 423 004e 0028     		cmp	r0, #0
 424 0050 E3D1     		bne	.L42
 425              	.LVL42:
 426              	.L34:
 427 0052 10BD     		pop	{r4, pc}
 428              		.cfi_endproc
 429              	.LFE42:
 430              		.size	lv_mem_defrag, .-lv_mem_defrag
 431              		.section	.text.lv_mem_free,"ax",%progbits
 432              		.align	2
ARM GAS  C:\Users\strap\AppData\Local\Temp\ccjJjp6v.s 			page 25


 433              		.global	lv_mem_free
 434              		.thumb
 435              		.thumb_func
 436              		.type	lv_mem_free, %function
 437              	lv_mem_free:
 438              	.LFB40:
 229:lvgl\src\lv_misc/lv_mem.c ****     if(data == &zero_mem) return;
 439              		.loc 1 229 0
 440              		.cfi_startproc
 441              		@ args = 0, pretend = 0, frame = 0
 442              		@ frame_needed = 0, uses_anonymous_args = 0
 443              	.LVL43:
 230:lvgl\src\lv_misc/lv_mem.c ****     if(data == NULL) return;
 444              		.loc 1 230 0
 445 0000 1A4B     		ldr	r3, .L51
 446 0002 9842     		cmp	r0, r3
 447 0004 31D0     		beq	.L50
 231:lvgl\src\lv_misc/lv_mem.c **** 
 448              		.loc 1 231 0
 449 0006 80B3     		cbz	r0, .L50
 229:lvgl\src\lv_misc/lv_mem.c ****     if(data == &zero_mem) return;
 450              		.loc 1 229 0
 451 0008 10B5     		push	{r4, lr}
 452              		.cfi_def_cfa_offset 8
 453              		.cfi_offset 4, -8
 454              		.cfi_offset 14, -4
 455 000a 0446     		mov	r4, r0
 239:lvgl\src\lv_misc/lv_mem.c ****     e->header.s.used = 0;
 456              		.loc 1 239 0
 457 000c 0438     		subs	r0, r0, #4
 458              	.LVL44:
 240:lvgl\src\lv_misc/lv_mem.c **** #endif
 459              		.loc 1 240 0
 460 000e 14F8043C 		ldrb	r3, [r4, #-4]	@ zero_extendqisi2
 461 0012 6FF30003 		bfc	r3, #0, #1
 462 0016 04F8043C 		strb	r3, [r4, #-4]
 246:lvgl\src\lv_misc/lv_mem.c ****     if(full_defrag_cnt < LV_MEM_FULL_DEFRAG_CNT) {
 463              		.loc 1 246 0
 464 001a 154A     		ldr	r2, .L51+4
 465 001c B2F8243D 		ldrh	r3, [r2, #3364]
 466 0020 0133     		adds	r3, r3, #1
 467 0022 9BB2     		uxth	r3, r3
 468 0024 A2F8243D 		strh	r3, [r2, #3364]	@ movhi
 247:lvgl\src\lv_misc/lv_mem.c ****         /* Make a simple defrag.
 469              		.loc 1 247 0
 470 0028 0F2B     		cmp	r3, #15
 471 002a 17D8     		bhi	.L46
 472              	.LBB4:
 251:lvgl\src\lv_misc/lv_mem.c ****         while(e_next != NULL) {
 473              		.loc 1 251 0
 474 002c FFF7FEFF 		bl	ent_get_next
 475              	.LVL45:
 252:lvgl\src\lv_misc/lv_mem.c ****             if(e_next->header.s.used == 0) {
 476              		.loc 1 252 0
 477 0030 11E0     		b	.L47
 478              	.L48:
 253:lvgl\src\lv_misc/lv_mem.c ****                 e->header.s.d_size += e_next->header.s.d_size + sizeof(e->header);
ARM GAS  C:\Users\strap\AppData\Local\Temp\ccjJjp6v.s 			page 26


 479              		.loc 1 253 0
 480 0032 0378     		ldrb	r3, [r0]	@ zero_extendqisi2
 481 0034 13F0010F 		tst	r3, #1
 482 0038 16D1     		bne	.L44
 254:lvgl\src\lv_misc/lv_mem.c ****             }
 483              		.loc 1 254 0
 484 003a 0168     		ldr	r1, [r0]
 485 003c 54F8043C 		ldr	r3, [r4, #-4]
 486 0040 C3F35E02 		ubfx	r2, r3, #1, #31
 487 0044 02EB5102 		add	r2, r2, r1, lsr #1
 488 0048 0432     		adds	r2, r2, #4
 489 004a 62F35F03 		bfi	r3, r2, #1, #31
 490 004e 44F8043C 		str	r3, [r4, #-4]
 259:lvgl\src\lv_misc/lv_mem.c ****         }
 491              		.loc 1 259 0
 492 0052 FFF7FEFF 		bl	ent_get_next
 493              	.LVL46:
 494              	.L47:
 252:lvgl\src\lv_misc/lv_mem.c ****             if(e_next->header.s.used == 0) {
 495              		.loc 1 252 0
 496 0056 0028     		cmp	r0, #0
 497 0058 EBD1     		bne	.L48
 498 005a 10BD     		pop	{r4, pc}
 499              	.LVL47:
 500              	.L46:
 501              	.LBE4:
 263:lvgl\src\lv_misc/lv_mem.c ****         lv_mem_defrag();
 502              		.loc 1 263 0
 503 005c 0022     		movs	r2, #0
 504 005e 044B     		ldr	r3, .L51+4
 505 0060 A3F8242D 		strh	r2, [r3, #3364]	@ movhi
 264:lvgl\src\lv_misc/lv_mem.c **** 
 506              		.loc 1 264 0
 507 0064 FFF7FEFF 		bl	lv_mem_defrag
 508              	.LVL48:
 509              	.L44:
 510 0068 10BD     		pop	{r4, pc}
 511              	.LVL49:
 512              	.L50:
 513              		.cfi_def_cfa_offset 0
 514              		.cfi_restore 4
 515              		.cfi_restore 14
 516 006a 7047     		bx	lr
 517              	.L52:
 518              		.align	2
 519              	.L51:
 520 006c 08400000 		.word	.LANCHOR1+3360
 521 0070 E8320000 		.word	.LANCHOR1
 522              		.cfi_endproc
 523              	.LFE40:
 524              		.size	lv_mem_free, .-lv_mem_free
 525              		.section	.text.lv_mem_test,"ax",%progbits
 526              		.align	2
 527              		.global	lv_mem_test
 528              		.thumb
 529              		.thumb_func
 530              		.type	lv_mem_test, %function
ARM GAS  C:\Users\strap\AppData\Local\Temp\ccjJjp6v.s 			page 27


 531              	lv_mem_test:
 532              	.LFB43:
 395:lvgl\src\lv_misc/lv_mem.c **** #if LV_MEM_CUSTOM == 0
 533              		.loc 1 395 0
 534              		.cfi_startproc
 535              		@ args = 0, pretend = 0, frame = 0
 536              		@ frame_needed = 0, uses_anonymous_args = 0
 537 0000 08B5     		push	{r3, lr}
 538              		.cfi_def_cfa_offset 8
 539              		.cfi_offset 3, -8
 540              		.cfi_offset 14, -4
 398:lvgl\src\lv_misc/lv_mem.c ****     while(e) {
 541              		.loc 1 398 0
 542 0002 0020     		movs	r0, #0
 543 0004 FFF7FEFF 		bl	ent_get_next
 544              	.LVL50:
 399:lvgl\src\lv_misc/lv_mem.c ****         if(e->header.s.d_size > LV_MEM_SIZE) {
 545              		.loc 1 399 0
 546 0008 0EE0     		b	.L54
 547              	.L56:
 548              	.LBB5:
 400:lvgl\src\lv_misc/lv_mem.c ****             return LV_RES_INV;
 549              		.loc 1 400 0
 550 000a 0368     		ldr	r3, [r0]
 551 000c C3F35E03 		ubfx	r3, r3, #1, #31
 552 0010 B3F5804F 		cmp	r3, #16384
 553 0014 0CD8     		bhi	.L57
 554              	.LVL51:
 404:lvgl\src\lv_misc/lv_mem.c ****             return LV_RES_INV;
 555              		.loc 1 404 0
 556 0016 0344     		add	r3, r3, r0
 557 0018 074A     		ldr	r2, .L60
 558 001a 1268     		ldr	r2, [r2]
 559 001c 02F58042 		add	r2, r2, #16384
 560 0020 9342     		cmp	r3, r2
 561 0022 07D8     		bhi	.L58
 407:lvgl\src\lv_misc/lv_mem.c ****     }
 562              		.loc 1 407 0
 563 0024 FFF7FEFF 		bl	ent_get_next
 564              	.LVL52:
 565              	.L54:
 566              	.LBE5:
 399:lvgl\src\lv_misc/lv_mem.c ****         if(e->header.s.d_size > LV_MEM_SIZE) {
 567              		.loc 1 399 0
 568 0028 0028     		cmp	r0, #0
 569 002a EED1     		bne	.L56
 410:lvgl\src\lv_misc/lv_mem.c **** }
 570              		.loc 1 410 0
 571 002c 0120     		movs	r0, #1
 572              	.LVL53:
 573 002e 08BD     		pop	{r3, pc}
 574              	.LVL54:
 575              	.L57:
 576              	.LBB6:
 401:lvgl\src\lv_misc/lv_mem.c ****         }
 577              		.loc 1 401 0
 578 0030 0020     		movs	r0, #0
ARM GAS  C:\Users\strap\AppData\Local\Temp\ccjJjp6v.s 			page 28


 579              	.LVL55:
 580 0032 08BD     		pop	{r3, pc}
 581              	.LVL56:
 582              	.L58:
 405:lvgl\src\lv_misc/lv_mem.c ****         }
 583              		.loc 1 405 0
 584 0034 0020     		movs	r0, #0
 585              	.LVL57:
 586              	.LBE6:
 411:lvgl\src\lv_misc/lv_mem.c **** 
 587              		.loc 1 411 0
 588 0036 08BD     		pop	{r3, pc}
 589              	.L61:
 590              		.align	2
 591              	.L60:
 592 0038 00000000 		.word	.LANCHOR0
 593              		.cfi_endproc
 594              	.LFE43:
 595              		.size	lv_mem_test, .-lv_mem_test
 596              		.section	.text._lv_mem_get_size,"ax",%progbits
 597              		.align	2
 598              		.global	_lv_mem_get_size
 599              		.thumb
 600              		.thumb_func
 601              		.type	_lv_mem_get_size, %function
 602              	_lv_mem_get_size:
 603              	.LFB45:
 464:lvgl\src\lv_misc/lv_mem.c ****     if(data == NULL) return 0;
 604              		.loc 1 464 0
 605              		.cfi_startproc
 606              		@ args = 0, pretend = 0, frame = 0
 607              		@ frame_needed = 0, uses_anonymous_args = 0
 608              		@ link register save eliminated.
 609              	.LVL58:
 465:lvgl\src\lv_misc/lv_mem.c ****     if(data == &zero_mem) return 0;
 610              		.loc 1 465 0
 611 0000 38B1     		cbz	r0, .L64
 466:lvgl\src\lv_misc/lv_mem.c **** 
 612              		.loc 1 466 0
 613 0002 064A     		ldr	r2, .L66
 614 0004 9042     		cmp	r0, r2
 615 0006 06D0     		beq	.L65
 616              	.LVL59:
 470:lvgl\src\lv_misc/lv_mem.c **** }
 617              		.loc 1 470 0
 618 0008 50F8040C 		ldr	r0, [r0, #-4]
 619              	.LVL60:
 620 000c C0F35E00 		ubfx	r0, r0, #1, #31
 621 0010 7047     		bx	lr
 622              	.LVL61:
 623              	.L64:
 465:lvgl\src\lv_misc/lv_mem.c ****     if(data == &zero_mem) return 0;
 624              		.loc 1 465 0
 625 0012 0020     		movs	r0, #0
 626              	.LVL62:
 627 0014 7047     		bx	lr
 628              	.LVL63:
ARM GAS  C:\Users\strap\AppData\Local\Temp\ccjJjp6v.s 			page 29


 629              	.L65:
 466:lvgl\src\lv_misc/lv_mem.c **** 
 630              		.loc 1 466 0
 631 0016 0020     		movs	r0, #0
 632              	.LVL64:
 471:lvgl\src\lv_misc/lv_mem.c **** 
 633              		.loc 1 471 0
 634 0018 7047     		bx	lr
 635              	.L67:
 636 001a 00BF     		.align	2
 637              	.L66:
 638 001c 08400000 		.word	.LANCHOR1+3360
 639              		.cfi_endproc
 640              	.LFE45:
 641              		.size	_lv_mem_get_size, .-_lv_mem_get_size
 642              		.section	.text._lv_mem_buf_release,"ax",%progbits
 643              		.align	2
 644              		.global	_lv_mem_buf_release
 645              		.thumb
 646              		.thumb_func
 647              		.type	_lv_mem_buf_release, %function
 648              	_lv_mem_buf_release:
 649              	.LFB47:
 548:lvgl\src\lv_misc/lv_mem.c ****     uint8_t i;
 650              		.loc 1 548 0
 651              		.cfi_startproc
 652              		@ args = 0, pretend = 0, frame = 0
 653              		@ frame_needed = 0, uses_anonymous_args = 0
 654              		@ link register save eliminated.
 655              	.LVL65:
 552:lvgl\src\lv_misc/lv_mem.c ****         if(mem_buf_small[i].p == p) {
 656              		.loc 1 552 0
 657 0000 0023     		movs	r3, #0
 658 0002 0FE0     		b	.L69
 659              	.LVL66:
 660              	.L72:
 553:lvgl\src\lv_misc/lv_mem.c ****             mem_buf_small[i].used = 0;
 661              		.loc 1 553 0
 662 0004 1946     		mov	r1, r3
 663 0006 134A     		ldr	r2, .L76
 664 0008 52F83320 		ldr	r2, [r2, r3, lsl #3]
 665 000c 8242     		cmp	r2, r0
 666 000e 07D1     		bne	.L70
 554:lvgl\src\lv_misc/lv_mem.c ****             return;
 667              		.loc 1 554 0
 668 0010 104B     		ldr	r3, .L76
 669              	.LVL67:
 670 0012 03EBC101 		add	r1, r3, r1, lsl #3
 671 0016 8B79     		ldrb	r3, [r1, #6]	@ zero_extendqisi2
 672 0018 6FF30003 		bfc	r3, #0, #1
 673 001c 8B71     		strb	r3, [r1, #6]
 555:lvgl\src\lv_misc/lv_mem.c ****         }
 674              		.loc 1 555 0
 675 001e 7047     		bx	lr
 676              	.LVL68:
 677              	.L70:
 552:lvgl\src\lv_misc/lv_mem.c ****         if(mem_buf_small[i].p == p) {
ARM GAS  C:\Users\strap\AppData\Local\Temp\ccjJjp6v.s 			page 30


 678              		.loc 1 552 0 discriminator 2
 679 0020 0133     		adds	r3, r3, #1
 680              	.LVL69:
 681 0022 DBB2     		uxtb	r3, r3
 682              	.LVL70:
 683              	.L69:
 552:lvgl\src\lv_misc/lv_mem.c ****         if(mem_buf_small[i].p == p) {
 684              		.loc 1 552 0 is_stmt 0 discriminator 1
 685 0024 012B     		cmp	r3, #1
 686 0026 EDD9     		bls	.L72
 687 0028 0023     		movs	r3, #0
 688              	.LVL71:
 689 002a 0FE0     		b	.L73
 690              	.LVL72:
 691              	.L75:
 560:lvgl\src\lv_misc/lv_mem.c ****             LV_GC_ROOT(_lv_mem_buf[i]).used = 0;
 692              		.loc 1 560 0 is_stmt 1
 693 002c 1946     		mov	r1, r3
 694 002e 0A4A     		ldr	r2, .L76+4
 695 0030 52F83320 		ldr	r2, [r2, r3, lsl #3]
 696 0034 9042     		cmp	r0, r2
 697 0036 07D1     		bne	.L74
 561:lvgl\src\lv_misc/lv_mem.c ****             return;
 698              		.loc 1 561 0
 699 0038 074B     		ldr	r3, .L76+4
 700              	.LVL73:
 701 003a 03EBC101 		add	r1, r3, r1, lsl #3
 702 003e 8B79     		ldrb	r3, [r1, #6]	@ zero_extendqisi2
 703 0040 6FF30003 		bfc	r3, #0, #1
 704 0044 8B71     		strb	r3, [r1, #6]
 562:lvgl\src\lv_misc/lv_mem.c ****         }
 705              		.loc 1 562 0
 706 0046 7047     		bx	lr
 707              	.LVL74:
 708              	.L74:
 559:lvgl\src\lv_misc/lv_mem.c ****         if(LV_GC_ROOT(_lv_mem_buf[i]).p == p) {
 709              		.loc 1 559 0 discriminator 2
 710 0048 0133     		adds	r3, r3, #1
 711              	.LVL75:
 712 004a DBB2     		uxtb	r3, r3
 713              	.LVL76:
 714              	.L73:
 559:lvgl\src\lv_misc/lv_mem.c ****         if(LV_GC_ROOT(_lv_mem_buf[i]).p == p) {
 715              		.loc 1 559 0 is_stmt 0 discriminator 1
 716 004c 0F2B     		cmp	r3, #15
 717 004e EDD9     		bls	.L75
 718 0050 7047     		bx	lr
 719              	.L77:
 720 0052 00BF     		.align	2
 721              	.L76:
 722 0054 00000000 		.word	.LANCHOR2
 723 0058 00000000 		.word	_lv_mem_buf
 724              		.cfi_endproc
 725              	.LFE47:
 726              		.size	_lv_mem_buf_release, .-_lv_mem_buf_release
 727              		.section	.text._lv_mem_buf_free_all,"ax",%progbits
 728              		.align	2
ARM GAS  C:\Users\strap\AppData\Local\Temp\ccjJjp6v.s 			page 31


 729              		.global	_lv_mem_buf_free_all
 730              		.thumb
 731              		.thumb_func
 732              		.type	_lv_mem_buf_free_all, %function
 733              	_lv_mem_buf_free_all:
 734              	.LFB48:
 573:lvgl\src\lv_misc/lv_mem.c ****     uint8_t i;
 735              		.loc 1 573 0 is_stmt 1
 736              		.cfi_startproc
 737              		@ args = 0, pretend = 0, frame = 0
 738              		@ frame_needed = 0, uses_anonymous_args = 0
 739              	.LVL77:
 575:lvgl\src\lv_misc/lv_mem.c ****         mem_buf_small[i].used = 0;
 740              		.loc 1 575 0
 741 0000 0023     		movs	r3, #0
 742 0002 08E0     		b	.L79
 743              	.LVL78:
 744              	.L80:
 576:lvgl\src\lv_misc/lv_mem.c ****     }
 745              		.loc 1 576 0 discriminator 3
 746 0004 114A     		ldr	r2, .L85
 747 0006 02EBC302 		add	r2, r2, r3, lsl #3
 748 000a 9179     		ldrb	r1, [r2, #6]	@ zero_extendqisi2
 749 000c 6FF30001 		bfc	r1, #0, #1
 750 0010 9171     		strb	r1, [r2, #6]
 575:lvgl\src\lv_misc/lv_mem.c ****         mem_buf_small[i].used = 0;
 751              		.loc 1 575 0 discriminator 3
 752 0012 0133     		adds	r3, r3, #1
 753              	.LVL79:
 754 0014 DBB2     		uxtb	r3, r3
 755              	.LVL80:
 756              	.L79:
 575:lvgl\src\lv_misc/lv_mem.c ****         mem_buf_small[i].used = 0;
 757              		.loc 1 575 0 is_stmt 0 discriminator 1
 758 0016 012B     		cmp	r3, #1
 759 0018 F4D9     		bls	.L80
 573:lvgl\src\lv_misc/lv_mem.c ****     uint8_t i;
 760              		.loc 1 573 0 is_stmt 1
 761 001a 10B5     		push	{r4, lr}
 762              		.cfi_def_cfa_offset 8
 763              		.cfi_offset 4, -8
 764              		.cfi_offset 14, -4
 765 001c 0024     		movs	r4, #0
 766 001e 12E0     		b	.L81
 767              	.LVL81:
 768              	.L83:
 580:lvgl\src\lv_misc/lv_mem.c ****             lv_mem_free(LV_GC_ROOT(_lv_mem_buf[i]).p);
 769              		.loc 1 580 0
 770 0020 0B4B     		ldr	r3, .L85+4
 771 0022 53F83400 		ldr	r0, [r3, r4, lsl #3]
 772 0026 60B1     		cbz	r0, .L82
 581:lvgl\src\lv_misc/lv_mem.c ****             LV_GC_ROOT(_lv_mem_buf[i]).p = NULL;
 773              		.loc 1 581 0
 774 0028 FFF7FEFF 		bl	lv_mem_free
 775              	.LVL82:
 582:lvgl\src\lv_misc/lv_mem.c ****             LV_GC_ROOT(_lv_mem_buf[i]).used = 0;
 776              		.loc 1 582 0
ARM GAS  C:\Users\strap\AppData\Local\Temp\ccjJjp6v.s 			page 32


 777 002c 084B     		ldr	r3, .L85+4
 778 002e 0022     		movs	r2, #0
 779 0030 43F83420 		str	r2, [r3, r4, lsl #3]
 583:lvgl\src\lv_misc/lv_mem.c ****             LV_GC_ROOT(_lv_mem_buf[i]).size = 0;
 780              		.loc 1 583 0
 781 0034 03EBC403 		add	r3, r3, r4, lsl #3
 782 0038 9979     		ldrb	r1, [r3, #6]	@ zero_extendqisi2
 783 003a 62F30001 		bfi	r1, r2, #0, #1
 784 003e 9971     		strb	r1, [r3, #6]
 584:lvgl\src\lv_misc/lv_mem.c ****         }
 785              		.loc 1 584 0
 786 0040 9A80     		strh	r2, [r3, #4]	@ movhi
 787              	.L82:
 579:lvgl\src\lv_misc/lv_mem.c ****         if(LV_GC_ROOT(_lv_mem_buf[i]).p) {
 788              		.loc 1 579 0 discriminator 2
 789 0042 0134     		adds	r4, r4, #1
 790              	.LVL83:
 791 0044 E4B2     		uxtb	r4, r4
 792              	.LVL84:
 793              	.L81:
 579:lvgl\src\lv_misc/lv_mem.c ****         if(LV_GC_ROOT(_lv_mem_buf[i]).p) {
 794              		.loc 1 579 0 is_stmt 0 discriminator 1
 795 0046 0F2C     		cmp	r4, #15
 796 0048 EAD9     		bls	.L83
 587:lvgl\src\lv_misc/lv_mem.c **** 
 797              		.loc 1 587 0 is_stmt 1
 798 004a 10BD     		pop	{r4, pc}
 799              	.LVL85:
 800              	.L86:
 801              		.align	2
 802              	.L85:
 803 004c 00000000 		.word	.LANCHOR2
 804 0050 00000000 		.word	_lv_mem_buf
 805              		.cfi_endproc
 806              	.LFE48:
 807              		.size	_lv_mem_buf_free_all, .-_lv_mem_buf_free_all
 808              		.section	.text._lv_memcpy,"ax",%progbits
 809              		.align	2
 810              		.global	_lv_memcpy
 811              		.thumb
 812              		.thumb_func
 813              		.type	_lv_memcpy, %function
 814              	_lv_memcpy:
 815              	.LFB49:
 597:lvgl\src\lv_misc/lv_mem.c ****     uint8_t * d8 = dst;
 816              		.loc 1 597 0
 817              		.cfi_startproc
 818              		@ args = 0, pretend = 0, frame = 0
 819              		@ frame_needed = 0, uses_anonymous_args = 0
 820              		@ link register save eliminated.
 821              	.LVL86:
 822 0000 30B4     		push	{r4, r5}
 823              		.cfi_def_cfa_offset 8
 824              		.cfi_offset 4, -8
 825              		.cfi_offset 5, -4
 826              	.LVL87:
 601:lvgl\src\lv_misc/lv_mem.c ****     lv_uintptr_t s_align = (lv_uintptr_t)s8 & ALIGN_MASK;
ARM GAS  C:\Users\strap\AppData\Local\Temp\ccjJjp6v.s 			page 33


 827              		.loc 1 601 0
 828 0002 00F00304 		and	r4, r0, #3
 829              	.LVL88:
 602:lvgl\src\lv_misc/lv_mem.c **** 
 830              		.loc 1 602 0
 831 0006 01F00303 		and	r3, r1, #3
 832              	.LVL89:
 605:lvgl\src\lv_misc/lv_mem.c ****         while(len > 32) {
 833              		.loc 1 605 0
 834 000a 9C42     		cmp	r4, r3
 835 000c 44D1     		bne	.L104
 836 000e 4FE0     		b	.L106
 837              	.LVL90:
 838              	.L90:
 607:lvgl\src\lv_misc/lv_mem.c ****             REPEAT8(COPY8);
 839              		.loc 1 607 0
 840 0010 0C78     		ldrb	r4, [r1]	@ zero_extendqisi2
 841 0012 1C70     		strb	r4, [r3]
 842              	.LVL91:
 843 0014 4C78     		ldrb	r4, [r1, #1]	@ zero_extendqisi2
 844 0016 5C70     		strb	r4, [r3, #1]
 845              	.LVL92:
 846 0018 8C78     		ldrb	r4, [r1, #2]	@ zero_extendqisi2
 847 001a 9C70     		strb	r4, [r3, #2]
 848              	.LVL93:
 849 001c CC78     		ldrb	r4, [r1, #3]	@ zero_extendqisi2
 850 001e DC70     		strb	r4, [r3, #3]
 851              	.LVL94:
 852 0020 0C79     		ldrb	r4, [r1, #4]	@ zero_extendqisi2
 853 0022 1C71     		strb	r4, [r3, #4]
 854              	.LVL95:
 855 0024 4C79     		ldrb	r4, [r1, #5]	@ zero_extendqisi2
 856 0026 5C71     		strb	r4, [r3, #5]
 857              	.LVL96:
 858 0028 8C79     		ldrb	r4, [r1, #6]	@ zero_extendqisi2
 859 002a 9C71     		strb	r4, [r3, #6]
 860              	.LVL97:
 861 002c CC79     		ldrb	r4, [r1, #7]	@ zero_extendqisi2
 862 002e DC71     		strb	r4, [r3, #7]
 863              	.LVL98:
 608:lvgl\src\lv_misc/lv_mem.c ****             REPEAT8(COPY8);
 864              		.loc 1 608 0
 865 0030 0C7A     		ldrb	r4, [r1, #8]	@ zero_extendqisi2
 866 0032 1C72     		strb	r4, [r3, #8]
 867              	.LVL99:
 868 0034 4C7A     		ldrb	r4, [r1, #9]	@ zero_extendqisi2
 869 0036 5C72     		strb	r4, [r3, #9]
 870              	.LVL100:
 871 0038 8C7A     		ldrb	r4, [r1, #10]	@ zero_extendqisi2
 872 003a 9C72     		strb	r4, [r3, #10]
 873              	.LVL101:
 874 003c CC7A     		ldrb	r4, [r1, #11]	@ zero_extendqisi2
 875 003e DC72     		strb	r4, [r3, #11]
 876              	.LVL102:
 877 0040 0C7B     		ldrb	r4, [r1, #12]	@ zero_extendqisi2
 878 0042 1C73     		strb	r4, [r3, #12]
 879              	.LVL103:
ARM GAS  C:\Users\strap\AppData\Local\Temp\ccjJjp6v.s 			page 34


 880 0044 4C7B     		ldrb	r4, [r1, #13]	@ zero_extendqisi2
 881 0046 5C73     		strb	r4, [r3, #13]
 882              	.LVL104:
 883 0048 8C7B     		ldrb	r4, [r1, #14]	@ zero_extendqisi2
 884 004a 9C73     		strb	r4, [r3, #14]
 885              	.LVL105:
 886 004c CC7B     		ldrb	r4, [r1, #15]	@ zero_extendqisi2
 887 004e DC73     		strb	r4, [r3, #15]
 888              	.LVL106:
 609:lvgl\src\lv_misc/lv_mem.c ****             REPEAT8(COPY8);
 889              		.loc 1 609 0
 890 0050 0C7C     		ldrb	r4, [r1, #16]	@ zero_extendqisi2
 891 0052 1C74     		strb	r4, [r3, #16]
 892              	.LVL107:
 893 0054 4C7C     		ldrb	r4, [r1, #17]	@ zero_extendqisi2
 894 0056 5C74     		strb	r4, [r3, #17]
 895              	.LVL108:
 896 0058 8C7C     		ldrb	r4, [r1, #18]	@ zero_extendqisi2
 897 005a 9C74     		strb	r4, [r3, #18]
 898              	.LVL109:
 899 005c CC7C     		ldrb	r4, [r1, #19]	@ zero_extendqisi2
 900 005e DC74     		strb	r4, [r3, #19]
 901              	.LVL110:
 902 0060 0C7D     		ldrb	r4, [r1, #20]	@ zero_extendqisi2
 903 0062 1C75     		strb	r4, [r3, #20]
 904              	.LVL111:
 905 0064 4C7D     		ldrb	r4, [r1, #21]	@ zero_extendqisi2
 906 0066 5C75     		strb	r4, [r3, #21]
 907              	.LVL112:
 908 0068 8C7D     		ldrb	r4, [r1, #22]	@ zero_extendqisi2
 909 006a 9C75     		strb	r4, [r3, #22]
 910              	.LVL113:
 911 006c CC7D     		ldrb	r4, [r1, #23]	@ zero_extendqisi2
 912 006e DC75     		strb	r4, [r3, #23]
 913              	.LVL114:
 610:lvgl\src\lv_misc/lv_mem.c ****             len -= 32;
 914              		.loc 1 610 0
 915 0070 0C7E     		ldrb	r4, [r1, #24]	@ zero_extendqisi2
 916 0072 1C76     		strb	r4, [r3, #24]
 917              	.LVL115:
 918 0074 4C7E     		ldrb	r4, [r1, #25]	@ zero_extendqisi2
 919 0076 5C76     		strb	r4, [r3, #25]
 920              	.LVL116:
 921 0078 8C7E     		ldrb	r4, [r1, #26]	@ zero_extendqisi2
 922 007a 9C76     		strb	r4, [r3, #26]
 923              	.LVL117:
 924 007c CC7E     		ldrb	r4, [r1, #27]	@ zero_extendqisi2
 925 007e DC76     		strb	r4, [r3, #27]
 926              	.LVL118:
 927 0080 0C7F     		ldrb	r4, [r1, #28]	@ zero_extendqisi2
 928 0082 1C77     		strb	r4, [r3, #28]
 929              	.LVL119:
 930 0084 4C7F     		ldrb	r4, [r1, #29]	@ zero_extendqisi2
 931 0086 5C77     		strb	r4, [r3, #29]
 932              	.LVL120:
 933 0088 8C7F     		ldrb	r4, [r1, #30]	@ zero_extendqisi2
 934 008a 9C77     		strb	r4, [r3, #30]
ARM GAS  C:\Users\strap\AppData\Local\Temp\ccjJjp6v.s 			page 35


 935              	.LVL121:
 936 008c CC7F     		ldrb	r4, [r1, #31]	@ zero_extendqisi2
 937 008e DC77     		strb	r4, [r3, #31]
 938 0090 2033     		adds	r3, r3, #32
 939              	.LVL122:
 940 0092 2031     		adds	r1, r1, #32
 941              	.LVL123:
 611:lvgl\src\lv_misc/lv_mem.c ****         }
 942              		.loc 1 611 0
 943 0094 203A     		subs	r2, r2, #32
 944              	.LVL124:
 945 0096 00E0     		b	.L88
 946              	.LVL125:
 947              	.L104:
 948 0098 0346     		mov	r3, r0
 949              	.LVL126:
 950              	.L88:
 606:lvgl\src\lv_misc/lv_mem.c ****             REPEAT8(COPY8);
 951              		.loc 1 606 0
 952 009a 202A     		cmp	r2, #32
 953 009c B8D8     		bhi	.L90
 954 009e 04E0     		b	.L91
 955              	.L92:
 614:lvgl\src\lv_misc/lv_mem.c ****             len--;
 956              		.loc 1 614 0
 957 00a0 11F8014B 		ldrb	r4, [r1], #1	@ zero_extendqisi2
 958              	.LVL127:
 959 00a4 03F8014B 		strb	r4, [r3], #1
 960              	.LVL128:
 615:lvgl\src\lv_misc/lv_mem.c ****         }
 961              		.loc 1 615 0
 962 00a8 013A     		subs	r2, r2, #1
 963              	.LVL129:
 964              	.L91:
 613:lvgl\src\lv_misc/lv_mem.c ****             COPY8
 965              		.loc 1 613 0
 966 00aa 002A     		cmp	r2, #0
 967 00ac F8D1     		bne	.L92
 968 00ae 36E0     		b	.L93
 969              	.LVL130:
 970              	.L106:
 622:lvgl\src\lv_misc/lv_mem.c ****         d_align = ALIGN_MASK + 1 - d_align;
 971              		.loc 1 622 0
 972 00b0 5CB1     		cbz	r4, .L105
 623:lvgl\src\lv_misc/lv_mem.c ****         while(d_align && len) {
 973              		.loc 1 623 0
 974 00b2 C4F10404 		rsb	r4, r4, #4
 975              	.LVL131:
 598:lvgl\src\lv_misc/lv_mem.c ****     const uint8_t * s8 = src;
 976              		.loc 1 598 0
 977 00b6 0346     		mov	r3, r0
 978              	.LVL132:
 624:lvgl\src\lv_misc/lv_mem.c ****             COPY8;
 979              		.loc 1 624 0
 980 00b8 05E0     		b	.L95
 981              	.LVL133:
 982              	.L98:
ARM GAS  C:\Users\strap\AppData\Local\Temp\ccjJjp6v.s 			page 36


 625:lvgl\src\lv_misc/lv_mem.c ****             d_align--;
 983              		.loc 1 625 0
 984 00ba 11F8015B 		ldrb	r5, [r1], #1	@ zero_extendqisi2
 985              	.LVL134:
 986 00be 03F8015B 		strb	r5, [r3], #1
 987              	.LVL135:
 626:lvgl\src\lv_misc/lv_mem.c ****             len--;
 988              		.loc 1 626 0
 989 00c2 013C     		subs	r4, r4, #1
 990              	.LVL136:
 627:lvgl\src\lv_misc/lv_mem.c ****         }
 991              		.loc 1 627 0
 992 00c4 013A     		subs	r2, r2, #1
 993              	.LVL137:
 994              	.L95:
 624:lvgl\src\lv_misc/lv_mem.c ****             COPY8;
 995              		.loc 1 624 0
 996 00c6 14B9     		cbnz	r4, .L96
 997 00c8 17E0     		b	.L97
 998              	.LVL138:
 999              	.L105:
 598:lvgl\src\lv_misc/lv_mem.c ****     const uint8_t * s8 = src;
 1000              		.loc 1 598 0
 1001 00ca 0346     		mov	r3, r0
 1002              	.LVL139:
 1003 00cc 15E0     		b	.L97
 1004              	.LVL140:
 1005              	.L96:
 624:lvgl\src\lv_misc/lv_mem.c ****             COPY8;
 1006              		.loc 1 624 0 discriminator 1
 1007 00ce 002A     		cmp	r2, #0
 1008 00d0 F3D1     		bne	.L98
 1009 00d2 12E0     		b	.L97
 1010              	.LVL141:
 1011              	.L99:
 634:lvgl\src\lv_misc/lv_mem.c ****         len -= 32;
 1012              		.loc 1 634 0
 1013 00d4 0C68     		ldr	r4, [r1]
 1014 00d6 1C60     		str	r4, [r3]
 1015              	.LVL142:
 1016 00d8 4C68     		ldr	r4, [r1, #4]
 1017 00da 5C60     		str	r4, [r3, #4]
 1018              	.LVL143:
 1019 00dc 8C68     		ldr	r4, [r1, #8]
 1020 00de 9C60     		str	r4, [r3, #8]
 1021              	.LVL144:
 1022 00e0 CC68     		ldr	r4, [r1, #12]
 1023 00e2 DC60     		str	r4, [r3, #12]
 1024              	.LVL145:
 1025 00e4 0C69     		ldr	r4, [r1, #16]
 1026 00e6 1C61     		str	r4, [r3, #16]
 1027              	.LVL146:
 1028 00e8 4C69     		ldr	r4, [r1, #20]
 1029 00ea 5C61     		str	r4, [r3, #20]
 1030              	.LVL147:
 1031 00ec 8C69     		ldr	r4, [r1, #24]
 1032 00ee 9C61     		str	r4, [r3, #24]
ARM GAS  C:\Users\strap\AppData\Local\Temp\ccjJjp6v.s 			page 37


 1033              	.LVL148:
 1034 00f0 CC69     		ldr	r4, [r1, #28]
 1035 00f2 DC61     		str	r4, [r3, #28]
 1036 00f4 2033     		adds	r3, r3, #32
 1037              	.LVL149:
 1038 00f6 2031     		adds	r1, r1, #32
 1039              	.LVL150:
 635:lvgl\src\lv_misc/lv_mem.c ****     }
 1040              		.loc 1 635 0
 1041 00f8 203A     		subs	r2, r2, #32
 1042              	.LVL151:
 1043              	.L97:
 633:lvgl\src\lv_misc/lv_mem.c ****         REPEAT8(COPY32)
 1044              		.loc 1 633 0
 1045 00fa 202A     		cmp	r2, #32
 1046 00fc EAD8     		bhi	.L99
 1047 00fe 04E0     		b	.L100
 1048              	.L101:
 639:lvgl\src\lv_misc/lv_mem.c ****         len -= 4;
 1049              		.loc 1 639 0
 1050 0100 51F8044B 		ldr	r4, [r1], #4
 1051              	.LVL152:
 1052 0104 43F8044B 		str	r4, [r3], #4
 1053              	.LVL153:
 640:lvgl\src\lv_misc/lv_mem.c ****     }
 1054              		.loc 1 640 0
 1055 0108 043A     		subs	r2, r2, #4
 1056              	.LVL154:
 1057              	.L100:
 638:lvgl\src\lv_misc/lv_mem.c ****         COPY32;
 1058              		.loc 1 638 0
 1059 010a 042A     		cmp	r2, #4
 1060 010c F8D8     		bhi	.L101
 1061 010e 04E0     		b	.L102
 1062              	.LVL155:
 1063              	.L103:
 646:lvgl\src\lv_misc/lv_mem.c ****         len--;
 1064              		.loc 1 646 0
 1065 0110 11F8014B 		ldrb	r4, [r1], #1	@ zero_extendqisi2
 1066              	.LVL156:
 1067 0114 03F8014B 		strb	r4, [r3], #1
 1068              	.LVL157:
 647:lvgl\src\lv_misc/lv_mem.c ****     }
 1069              		.loc 1 647 0
 1070 0118 013A     		subs	r2, r2, #1
 1071              	.LVL158:
 1072              	.L102:
 645:lvgl\src\lv_misc/lv_mem.c ****         COPY8
 1073              		.loc 1 645 0
 1074 011a 002A     		cmp	r2, #0
 1075 011c F8D1     		bne	.L103
 1076              	.L93:
 651:lvgl\src\lv_misc/lv_mem.c **** 
 1077              		.loc 1 651 0
 1078 011e 30BC     		pop	{r4, r5}
 1079              		.cfi_restore 5
 1080              		.cfi_restore 4
ARM GAS  C:\Users\strap\AppData\Local\Temp\ccjJjp6v.s 			page 38


 1081              		.cfi_def_cfa_offset 0
 1082 0120 7047     		bx	lr
 1083              		.cfi_endproc
 1084              	.LFE49:
 1085              		.size	_lv_memcpy, .-_lv_memcpy
 1086 0122 00BF     		.section	.text.lv_mem_realloc,"ax",%progbits
 1087              		.align	2
 1088              		.global	lv_mem_realloc
 1089              		.thumb
 1090              		.thumb_func
 1091              		.type	lv_mem_realloc, %function
 1092              	lv_mem_realloc:
 1093              	.LFB41:
 290:lvgl\src\lv_misc/lv_mem.c **** 
 1094              		.loc 1 290 0
 1095              		.cfi_startproc
 1096              		@ args = 0, pretend = 0, frame = 0
 1097              		@ frame_needed = 0, uses_anonymous_args = 0
 1098              	.LVL159:
 1099 0000 F8B5     		push	{r3, r4, r5, r6, r7, lr}
 1100              		.cfi_def_cfa_offset 24
 1101              		.cfi_offset 3, -24
 1102              		.cfi_offset 4, -20
 1103              		.cfi_offset 5, -16
 1104              		.cfi_offset 6, -12
 1105              		.cfi_offset 7, -8
 1106              		.cfi_offset 14, -4
 297:lvgl\src\lv_misc/lv_mem.c **** #endif
 1107              		.loc 1 297 0
 1108 0002 0331     		adds	r1, r1, #3
 1109              	.LVL160:
 1110 0004 21F00305 		bic	r5, r1, #3
 1111              	.LVL161:
 301:lvgl\src\lv_misc/lv_mem.c ****         lv_mem_ent_t * e = (lv_mem_ent_t *)((uint8_t *)data_p - sizeof(lv_mem_header_t));
 1112              		.loc 1 301 0
 1113 0008 0446     		mov	r4, r0
 1114 000a 28B1     		cbz	r0, .L109
 1115              	.LVL162:
 1116              	.LBB7:
 303:lvgl\src\lv_misc/lv_mem.c ****             data_p = NULL;
 1117              		.loc 1 303 0
 1118 000c 10F8043C 		ldrb	r3, [r0, #-4]	@ zero_extendqisi2
 1119 0010 13F0010F 		tst	r3, #1
 1120 0014 00D1     		bne	.L109
 304:lvgl\src\lv_misc/lv_mem.c ****         }
 1121              		.loc 1 304 0
 1122 0016 0024     		movs	r4, #0
 1123              	.LVL163:
 1124              	.L109:
 1125              	.LBE7:
 308:lvgl\src\lv_misc/lv_mem.c ****     if(old_size == new_size) return data_p; /*Also avoid reallocating the same memory*/
 1126              		.loc 1 308 0
 1127 0018 2046     		mov	r0, r4
 1128 001a FFF7FEFF 		bl	_lv_mem_get_size
 1129              	.LVL164:
 1130 001e 0646     		mov	r6, r0
 1131              	.LVL165:
ARM GAS  C:\Users\strap\AppData\Local\Temp\ccjJjp6v.s 			page 39


 309:lvgl\src\lv_misc/lv_mem.c **** 
 1132              		.loc 1 309 0
 1133 0020 8542     		cmp	r5, r0
 1134 0022 19D0     		beq	.L113
 313:lvgl\src\lv_misc/lv_mem.c ****         lv_mem_ent_t * e = (lv_mem_ent_t *)((uint8_t *)data_p - sizeof(lv_mem_header_t));
 1135              		.loc 1 313 0
 1136 0024 05D2     		bcs	.L111
 1137              	.LVL166:
 1138              	.LBB8:
 315:lvgl\src\lv_misc/lv_mem.c ****         return &e->first_data;
 1139              		.loc 1 315 0
 1140 0026 2946     		mov	r1, r5
 1141 0028 201F     		subs	r0, r4, #4
 1142              	.LVL167:
 1143 002a FFF7FEFF 		bl	ent_trunc
 1144              	.LVL168:
 316:lvgl\src\lv_misc/lv_mem.c ****     }
 1145              		.loc 1 316 0
 1146 002e 2046     		mov	r0, r4
 1147 0030 F8BD     		pop	{r3, r4, r5, r6, r7, pc}
 1148              	.LVL169:
 1149              	.L111:
 1150              	.LBE8:
 321:lvgl\src\lv_misc/lv_mem.c ****     if(new_p == NULL) {
 1151              		.loc 1 321 0
 1152 0032 2846     		mov	r0, r5
 1153              	.LVL170:
 1154 0034 FFF7FEFF 		bl	lv_mem_alloc
 1155              	.LVL171:
 322:lvgl\src\lv_misc/lv_mem.c ****         LV_LOG_WARN("Couldn't allocate memory");
 1156              		.loc 1 322 0
 1157 0038 0746     		mov	r7, r0
 1158 003a 78B1     		cbz	r0, .L114
 327:lvgl\src\lv_misc/lv_mem.c ****         /*Copy the old data to the new. Use the smaller size*/
 1159              		.loc 1 327 0
 1160 003c 84B1     		cbz	r4, .L115
 329:lvgl\src\lv_misc/lv_mem.c ****             _lv_memcpy(new_p, data_p, LV_MATH_MIN(new_size, old_size));
 1161              		.loc 1 329 0
 1162 003e 86B1     		cbz	r6, .L116
 330:lvgl\src\lv_misc/lv_mem.c ****             lv_mem_free(data_p);
 1163              		.loc 1 330 0
 1164 0040 2A46     		mov	r2, r5
 1165 0042 B542     		cmp	r5, r6
 1166 0044 28BF     		it	cs
 1167 0046 3246     		movcs	r2, r6
 1168 0048 2146     		mov	r1, r4
 1169 004a FFF7FEFF 		bl	_lv_memcpy
 1170              	.LVL172:
 331:lvgl\src\lv_misc/lv_mem.c ****         }
 1171              		.loc 1 331 0
 1172 004e 2046     		mov	r0, r4
 1173 0050 FFF7FEFF 		bl	lv_mem_free
 1174              	.LVL173:
 336:lvgl\src\lv_misc/lv_mem.c **** }
 1175              		.loc 1 336 0
 1176 0054 3846     		mov	r0, r7
 1177 0056 F8BD     		pop	{r3, r4, r5, r6, r7, pc}
ARM GAS  C:\Users\strap\AppData\Local\Temp\ccjJjp6v.s 			page 40


 1178              	.LVL174:
 1179              	.L113:
 309:lvgl\src\lv_misc/lv_mem.c **** 
 1180              		.loc 1 309 0
 1181 0058 2046     		mov	r0, r4
 1182              	.LVL175:
 1183 005a F8BD     		pop	{r3, r4, r5, r6, r7, pc}
 1184              	.LVL176:
 1185              	.L114:
 324:lvgl\src\lv_misc/lv_mem.c ****     }
 1186              		.loc 1 324 0
 1187 005c 0020     		movs	r0, #0
 1188              	.LVL177:
 1189 005e F8BD     		pop	{r3, r4, r5, r6, r7, pc}
 1190              	.LVL178:
 1191              	.L115:
 1192 0060 F8BD     		pop	{r3, r4, r5, r6, r7, pc}
 1193              	.LVL179:
 1194              	.L116:
 337:lvgl\src\lv_misc/lv_mem.c **** 
 1195              		.loc 1 337 0
 1196 0062 F8BD     		pop	{r3, r4, r5, r6, r7, pc}
 1197              		.cfi_endproc
 1198              	.LFE41:
 1199              		.size	lv_mem_realloc, .-lv_mem_realloc
 1200              		.section	.text._lv_mem_buf_get,"ax",%progbits
 1201              		.align	2
 1202              		.global	_lv_mem_buf_get
 1203              		.thumb
 1204              		.thumb_func
 1205              		.type	_lv_mem_buf_get, %function
 1206              	_lv_mem_buf_get:
 1207              	.LFB46:
 487:lvgl\src\lv_misc/lv_mem.c ****     if(size == 0) return NULL;
 1208              		.loc 1 487 0
 1209              		.cfi_startproc
 1210              		@ args = 0, pretend = 0, frame = 0
 1211              		@ frame_needed = 0, uses_anonymous_args = 0
 1212              	.LVL180:
 488:lvgl\src\lv_misc/lv_mem.c **** 
 1213              		.loc 1 488 0
 1214 0000 0028     		cmp	r0, #0
 1215 0002 7FD0     		beq	.L133
 487:lvgl\src\lv_misc/lv_mem.c ****     if(size == 0) return NULL;
 1216              		.loc 1 487 0
 1217 0004 38B5     		push	{r3, r4, r5, lr}
 1218              		.cfi_def_cfa_offset 16
 1219              		.cfi_offset 3, -16
 1220              		.cfi_offset 4, -12
 1221              		.cfi_offset 5, -8
 1222              		.cfi_offset 14, -4
 1223 0006 0146     		mov	r1, r0
 492:lvgl\src\lv_misc/lv_mem.c ****         for(i = 0; i < sizeof(mem_buf_small) / sizeof(mem_buf_small[0]); i++) {
 1224              		.loc 1 492 0
 1225 0008 1028     		cmp	r0, #16
 1226 000a 18D9     		bls	.L134
 1227 000c 4FF0FF30 		mov	r0, #-1
ARM GAS  C:\Users\strap\AppData\Local\Temp\ccjJjp6v.s 			page 41


 1228              	.LVL181:
 1229 0010 0023     		movs	r3, #0
 1230 0012 41E0     		b	.L121
 1231              	.LVL182:
 1232              	.L123:
 494:lvgl\src\lv_misc/lv_mem.c ****                 mem_buf_small[i].used = 1;
 1233              		.loc 1 494 0
 1234 0014 1846     		mov	r0, r3
 1235 0016 3D4A     		ldr	r2, .L138
 1236 0018 02EBC302 		add	r2, r2, r3, lsl #3
 1237 001c 9279     		ldrb	r2, [r2, #6]	@ zero_extendqisi2
 1238 001e 12F0010F 		tst	r2, #1
 1239 0022 09D1     		bne	.L122
 495:lvgl\src\lv_misc/lv_mem.c ****                 return mem_buf_small[i].p;
 1240              		.loc 1 495 0
 1241 0024 394A     		ldr	r2, .L138
 1242 0026 02EBC301 		add	r1, r2, r3, lsl #3
 1243              	.LVL183:
 1244 002a 8B79     		ldrb	r3, [r1, #6]	@ zero_extendqisi2
 1245              	.LVL184:
 1246 002c 43F00103 		orr	r3, r3, #1
 1247 0030 8B71     		strb	r3, [r1, #6]
 496:lvgl\src\lv_misc/lv_mem.c ****             }
 1248              		.loc 1 496 0
 1249 0032 52F83000 		ldr	r0, [r2, r0, lsl #3]
 1250 0036 38BD     		pop	{r3, r4, r5, pc}
 1251              	.LVL185:
 1252              	.L122:
 493:lvgl\src\lv_misc/lv_mem.c ****             if(mem_buf_small[i].used == 0) {
 1253              		.loc 1 493 0 discriminator 2
 1254 0038 0133     		adds	r3, r3, #1
 1255              	.LVL186:
 1256 003a DBB2     		uxtb	r3, r3
 1257              	.LVL187:
 1258 003c 00E0     		b	.L120
 1259              	.LVL188:
 1260              	.L134:
 1261 003e 0023     		movs	r3, #0
 1262              	.LVL189:
 1263              	.L120:
 493:lvgl\src\lv_misc/lv_mem.c ****             if(mem_buf_small[i].used == 0) {
 1264              		.loc 1 493 0 is_stmt 0 discriminator 1
 1265 0040 012B     		cmp	r3, #1
 1266 0042 E7D9     		bls	.L123
 1267 0044 4FF0FF30 		mov	r0, #-1
 1268 0048 0023     		movs	r3, #0
 1269              	.LVL190:
 1270 004a 25E0     		b	.L121
 1271              	.LVL191:
 1272              	.L127:
 504:lvgl\src\lv_misc/lv_mem.c ****             if(LV_GC_ROOT(_lv_mem_buf[i]).size == size) {
 1273              		.loc 1 504 0 is_stmt 1
 1274 004c 1C46     		mov	r4, r3
 1275 004e 304A     		ldr	r2, .L138+4
 1276 0050 02EBC302 		add	r2, r2, r3, lsl #3
 1277 0054 9279     		ldrb	r2, [r2, #6]	@ zero_extendqisi2
 1278 0056 12F0010F 		tst	r2, #1
ARM GAS  C:\Users\strap\AppData\Local\Temp\ccjJjp6v.s 			page 42


 1279 005a 1BD1     		bne	.L124
 504:lvgl\src\lv_misc/lv_mem.c ****             if(LV_GC_ROOT(_lv_mem_buf[i]).size == size) {
 1280              		.loc 1 504 0 is_stmt 0 discriminator 1
 1281 005c 2C4A     		ldr	r2, .L138+4
 1282 005e 02EBC302 		add	r2, r2, r3, lsl #3
 1283 0062 9288     		ldrh	r2, [r2, #4]
 1284 0064 9142     		cmp	r1, r2
 1285 0066 15D8     		bhi	.L124
 505:lvgl\src\lv_misc/lv_mem.c ****                 LV_GC_ROOT(_lv_mem_buf[i]).used = 1;
 1286              		.loc 1 505 0 is_stmt 1
 1287 0068 09D1     		bne	.L125
 506:lvgl\src\lv_misc/lv_mem.c ****                 return LV_GC_ROOT(_lv_mem_buf[i]).p;
 1288              		.loc 1 506 0
 1289 006a 294A     		ldr	r2, .L138+4
 1290 006c 02EBC301 		add	r1, r2, r3, lsl #3
 1291              	.LVL192:
 1292 0070 8B79     		ldrb	r3, [r1, #6]	@ zero_extendqisi2
 1293              	.LVL193:
 1294 0072 43F00103 		orr	r3, r3, #1
 1295 0076 8B71     		strb	r3, [r1, #6]
 507:lvgl\src\lv_misc/lv_mem.c ****             }
 1296              		.loc 1 507 0
 1297 0078 52F83400 		ldr	r0, [r2, r4, lsl #3]
 1298              	.LVL194:
 1299 007c 38BD     		pop	{r3, r4, r5, pc}
 1300              	.LVL195:
 1301              	.L125:
 509:lvgl\src\lv_misc/lv_mem.c ****                 i_guess = i;
 1302              		.loc 1 509 0
 1303 007e 0028     		cmp	r0, #0
 1304 0080 01DA     		bge	.L126
 510:lvgl\src\lv_misc/lv_mem.c ****             }
 1305              		.loc 1 510 0
 1306 0082 58B2     		sxtb	r0, r3
 1307              	.LVL196:
 1308 0084 06E0     		b	.L124
 1309              	.L126:
 513:lvgl\src\lv_misc/lv_mem.c ****                 i_guess = i;
 1310              		.loc 1 513 0
 1311 0086 224C     		ldr	r4, .L138+4
 1312 0088 04EBC004 		add	r4, r4, r0, lsl #3
 1313 008c A488     		ldrh	r4, [r4, #4]
 1314 008e A242     		cmp	r2, r4
 1315 0090 00D2     		bcs	.L124
 514:lvgl\src\lv_misc/lv_mem.c ****             }
 1316              		.loc 1 514 0
 1317 0092 58B2     		sxtb	r0, r3
 1318              	.LVL197:
 1319              	.L124:
 503:lvgl\src\lv_misc/lv_mem.c ****         if(LV_GC_ROOT(_lv_mem_buf[i]).used == 0 && LV_GC_ROOT(_lv_mem_buf[i]).size >= size) {
 1320              		.loc 1 503 0 discriminator 2
 1321 0094 0133     		adds	r3, r3, #1
 1322              	.LVL198:
 1323 0096 DBB2     		uxtb	r3, r3
 1324              	.LVL199:
 1325              	.L121:
 503:lvgl\src\lv_misc/lv_mem.c ****         if(LV_GC_ROOT(_lv_mem_buf[i]).used == 0 && LV_GC_ROOT(_lv_mem_buf[i]).size >= size) {
ARM GAS  C:\Users\strap\AppData\Local\Temp\ccjJjp6v.s 			page 43


 1326              		.loc 1 503 0 is_stmt 0 discriminator 1
 1327 0098 0F2B     		cmp	r3, #15
 1328 009a D7D9     		bls	.L127
 519:lvgl\src\lv_misc/lv_mem.c ****         LV_GC_ROOT(_lv_mem_buf[i_guess]).used = 1;
 1329              		.loc 1 519 0 is_stmt 1
 1330 009c 0028     		cmp	r0, #0
 1331 009e 28DB     		blt	.L135
 520:lvgl\src\lv_misc/lv_mem.c ****         return LV_GC_ROOT(_lv_mem_buf[i_guess]).p;
 1332              		.loc 1 520 0
 1333 00a0 1B4A     		ldr	r2, .L138+4
 1334 00a2 02EBC001 		add	r1, r2, r0, lsl #3
 1335              	.LVL200:
 1336 00a6 8B79     		ldrb	r3, [r1, #6]	@ zero_extendqisi2
 1337              	.LVL201:
 1338 00a8 43F00103 		orr	r3, r3, #1
 1339 00ac 8B71     		strb	r3, [r1, #6]
 521:lvgl\src\lv_misc/lv_mem.c ****     }
 1340              		.loc 1 521 0
 1341 00ae 52F83000 		ldr	r0, [r2, r0, lsl #3]
 1342              	.LVL202:
 1343 00b2 38BD     		pop	{r3, r4, r5, pc}
 1344              	.LVL203:
 1345              	.L131:
 527:lvgl\src\lv_misc/lv_mem.c ****             LV_GC_ROOT(_lv_mem_buf[i]).used = 1;
 1346              		.loc 1 527 0
 1347 00b4 1D46     		mov	r5, r3
 1348 00b6 164A     		ldr	r2, .L138+4
 1349 00b8 02EBC302 		add	r2, r2, r3, lsl #3
 1350 00bc 9279     		ldrb	r2, [r2, #6]	@ zero_extendqisi2
 1351 00be 12F0010F 		tst	r2, #1
 1352 00c2 13D1     		bne	.L129
 528:lvgl\src\lv_misc/lv_mem.c ****             LV_GC_ROOT(_lv_mem_buf[i]).size = size;
 1353              		.loc 1 528 0
 1354 00c4 124C     		ldr	r4, .L138+4
 1355 00c6 04EBC303 		add	r3, r4, r3, lsl #3
 1356              	.LVL204:
 1357 00ca 42F00102 		orr	r2, r2, #1
 1358 00ce 9A71     		strb	r2, [r3, #6]
 529:lvgl\src\lv_misc/lv_mem.c ****             /*if this fails you probably need to increase your LV_MEM_SIZE/heap size*/
 1359              		.loc 1 529 0
 1360 00d0 9980     		strh	r1, [r3, #4]	@ movhi
 531:lvgl\src\lv_misc/lv_mem.c ****             if(LV_GC_ROOT(_lv_mem_buf[i]).p == NULL) {
 1361              		.loc 1 531 0
 1362 00d2 54F83500 		ldr	r0, [r4, r5, lsl #3]
 1363              	.LVL205:
 1364 00d6 FFF7FEFF 		bl	lv_mem_realloc
 1365              	.LVL206:
 1366 00da 44F83500 		str	r0, [r4, r5, lsl #3]
 532:lvgl\src\lv_misc/lv_mem.c ****                 LV_DEBUG_ASSERT(false, "Out of memory, can't allocate a new  buffer (increase your 
 1367              		.loc 1 532 0
 1368 00de 98B9     		cbnz	r0, .L119
 533:lvgl\src\lv_misc/lv_mem.c ****             }
 1369              		.loc 1 533 0 discriminator 1
 1370 00e0 0022     		movs	r2, #0
 1371 00e2 0023     		movs	r3, #0
 1372 00e4 0B48     		ldr	r0, .L138+8
 1373 00e6 FFF7FEFF 		bl	lv_debug_log_error
ARM GAS  C:\Users\strap\AppData\Local\Temp\ccjJjp6v.s 			page 44


 1374              	.LVL207:
 1375              	.L130:
 1376 00ea FEE7     		b	.L130
 1377              	.LVL208:
 1378              	.L129:
 526:lvgl\src\lv_misc/lv_mem.c ****         if(LV_GC_ROOT(_lv_mem_buf[i]).used == 0) {
 1379              		.loc 1 526 0 discriminator 2
 1380 00ec 0133     		adds	r3, r3, #1
 1381              	.LVL209:
 1382 00ee DBB2     		uxtb	r3, r3
 1383              	.LVL210:
 1384 00f0 00E0     		b	.L128
 1385              	.L135:
 1386 00f2 0023     		movs	r3, #0
 1387              	.LVL211:
 1388              	.L128:
 526:lvgl\src\lv_misc/lv_mem.c ****         if(LV_GC_ROOT(_lv_mem_buf[i]).used == 0) {
 1389              		.loc 1 526 0 is_stmt 0 discriminator 1
 1390 00f4 0F2B     		cmp	r3, #15
 1391 00f6 DDD9     		bls	.L131
 539:lvgl\src\lv_misc/lv_mem.c ****     return NULL;
 1392              		.loc 1 539 0 is_stmt 1 discriminator 1
 1393 00f8 0022     		movs	r2, #0
 1394 00fa 0023     		movs	r3, #0
 1395              	.LVL212:
 1396 00fc 0648     		ldr	r0, .L138+12
 1397              	.LVL213:
 1398 00fe FFF7FEFF 		bl	lv_debug_log_error
 1399              	.LVL214:
 1400              	.L132:
 1401 0102 FEE7     		b	.L132
 1402              	.LVL215:
 1403              	.L133:
 1404              		.cfi_def_cfa_offset 0
 1405              		.cfi_restore 3
 1406              		.cfi_restore 4
 1407              		.cfi_restore 5
 1408              		.cfi_restore 14
 488:lvgl\src\lv_misc/lv_mem.c **** 
 1409              		.loc 1 488 0
 1410 0104 0020     		movs	r0, #0
 1411              	.LVL216:
 1412 0106 7047     		bx	lr
 1413              	.L119:
 1414              		.cfi_def_cfa_offset 16
 1415              		.cfi_offset 3, -16
 1416              		.cfi_offset 4, -12
 1417              		.cfi_offset 5, -8
 1418              		.cfi_offset 14, -4
 541:lvgl\src\lv_misc/lv_mem.c **** 
 1419              		.loc 1 541 0
 1420 0108 38BD     		pop	{r3, r4, r5, pc}
 1421              	.L139:
 1422 010a 00BF     		.align	2
 1423              	.L138:
 1424 010c 00000000 		.word	.LANCHOR2
 1425 0110 00000000 		.word	_lv_mem_buf
ARM GAS  C:\Users\strap\AppData\Local\Temp\ccjJjp6v.s 			page 45


 1426 0114 00000000 		.word	.LC0
 1427 0118 54000000 		.word	.LC1
 1428              		.cfi_endproc
 1429              	.LFE46:
 1430              		.size	_lv_mem_buf_get, .-_lv_mem_buf_get
 1431              		.section	.text._lv_memset,"ax",%progbits
 1432              		.align	2
 1433              		.global	_lv_memset
 1434              		.thumb
 1435              		.thumb_func
 1436              		.type	_lv_memset, %function
 1437              	_lv_memset:
 1438              	.LFB50:
 661:lvgl\src\lv_misc/lv_mem.c **** 
 1439              		.loc 1 661 0
 1440              		.cfi_startproc
 1441              		@ args = 0, pretend = 0, frame = 0
 1442              		@ frame_needed = 0, uses_anonymous_args = 0
 1443              		@ link register save eliminated.
 1444              	.LVL217:
 668:lvgl\src\lv_misc/lv_mem.c ****         d_align = ALIGN_MASK + 1 - d_align;
 1445              		.loc 1 668 0
 1446 0000 10F00303 		ands	r3, r0, #3
 1447              	.LVL218:
 1448 0004 09D0     		beq	.L141
 669:lvgl\src\lv_misc/lv_mem.c ****         while(d_align && len) {
 1449              		.loc 1 669 0
 1450 0006 C3F10403 		rsb	r3, r3, #4
 1451              	.LVL219:
 670:lvgl\src\lv_misc/lv_mem.c ****             *d8 = v;
 1452              		.loc 1 670 0
 1453 000a 03E0     		b	.L142
 1454              	.LVL220:
 1455              	.L143:
 671:lvgl\src\lv_misc/lv_mem.c ****             d8++;
 1456              		.loc 1 671 0
 1457 000c 00F8011B 		strb	r1, [r0], #1
 1458              	.LVL221:
 673:lvgl\src\lv_misc/lv_mem.c ****             d_align--;
 1459              		.loc 1 673 0
 1460 0010 013A     		subs	r2, r2, #1
 1461              	.LVL222:
 674:lvgl\src\lv_misc/lv_mem.c ****         }
 1462              		.loc 1 674 0
 1463 0012 013B     		subs	r3, r3, #1
 1464              	.LVL223:
 1465              	.L142:
 670:lvgl\src\lv_misc/lv_mem.c ****             *d8 = v;
 1466              		.loc 1 670 0
 1467 0014 0BB1     		cbz	r3, .L141
 670:lvgl\src\lv_misc/lv_mem.c ****             *d8 = v;
 1468              		.loc 1 670 0 is_stmt 0 discriminator 1
 1469 0016 002A     		cmp	r2, #0
 1470 0018 F8D1     		bne	.L143
 1471              	.L141:
 678:lvgl\src\lv_misc/lv_mem.c **** 
 1472              		.loc 1 678 0 is_stmt 1
ARM GAS  C:\Users\strap\AppData\Local\Temp\ccjJjp6v.s 			page 46


 1473 001a 01EB0123 		add	r3, r1, r1, lsl #8
 1474              	.LVL224:
 1475 001e 03EB0143 		add	r3, r3, r1, lsl #16
 1476 0022 03EB0163 		add	r3, r3, r1, lsl #24
 1477              	.LVL225:
 682:lvgl\src\lv_misc/lv_mem.c ****         SET32(v32);
 1478              		.loc 1 682 0
 1479 0026 09E0     		b	.L144
 1480              	.LVL226:
 1481              	.L145:
 683:lvgl\src\lv_misc/lv_mem.c ****         SET32(v32);
 1482              		.loc 1 683 0
 1483 0028 0360     		str	r3, [r0]
 1484              	.LVL227:
 684:lvgl\src\lv_misc/lv_mem.c ****         SET32(v32);
 1485              		.loc 1 684 0
 1486 002a 4360     		str	r3, [r0, #4]
 1487              	.LVL228:
 685:lvgl\src\lv_misc/lv_mem.c ****         SET32(v32);
 1488              		.loc 1 685 0
 1489 002c 8360     		str	r3, [r0, #8]
 1490              	.LVL229:
 686:lvgl\src\lv_misc/lv_mem.c ****         SET32(v32);
 1491              		.loc 1 686 0
 1492 002e C360     		str	r3, [r0, #12]
 1493              	.LVL230:
 687:lvgl\src\lv_misc/lv_mem.c ****         SET32(v32);
 1494              		.loc 1 687 0
 1495 0030 0361     		str	r3, [r0, #16]
 1496              	.LVL231:
 688:lvgl\src\lv_misc/lv_mem.c ****         SET32(v32);
 1497              		.loc 1 688 0
 1498 0032 4361     		str	r3, [r0, #20]
 1499              	.LVL232:
 689:lvgl\src\lv_misc/lv_mem.c ****         SET32(v32);
 1500              		.loc 1 689 0
 1501 0034 8361     		str	r3, [r0, #24]
 1502              	.LVL233:
 690:lvgl\src\lv_misc/lv_mem.c ****         len -= 32;
 1503              		.loc 1 690 0
 1504 0036 C361     		str	r3, [r0, #28]
 1505 0038 2030     		adds	r0, r0, #32
 1506              	.LVL234:
 691:lvgl\src\lv_misc/lv_mem.c ****     }
 1507              		.loc 1 691 0
 1508 003a 203A     		subs	r2, r2, #32
 1509              	.LVL235:
 1510              	.L144:
 682:lvgl\src\lv_misc/lv_mem.c ****         SET32(v32);
 1511              		.loc 1 682 0
 1512 003c 202A     		cmp	r2, #32
 1513 003e F3D8     		bhi	.L145
 1514 0040 02E0     		b	.L146
 1515              	.L147:
 695:lvgl\src\lv_misc/lv_mem.c ****         len -= 4;
 1516              		.loc 1 695 0
 1517 0042 40F8043B 		str	r3, [r0], #4
ARM GAS  C:\Users\strap\AppData\Local\Temp\ccjJjp6v.s 			page 47


 1518              	.LVL236:
 696:lvgl\src\lv_misc/lv_mem.c ****     }
 1519              		.loc 1 696 0
 1520 0046 043A     		subs	r2, r2, #4
 1521              	.LVL237:
 1522              	.L146:
 694:lvgl\src\lv_misc/lv_mem.c ****         SET32(v32);
 1523              		.loc 1 694 0
 1524 0048 042A     		cmp	r2, #4
 1525 004a FAD8     		bhi	.L147
 1526 004c 02E0     		b	.L148
 1527              	.LVL238:
 1528              	.L149:
 702:lvgl\src\lv_misc/lv_mem.c ****         d8++;
 1529              		.loc 1 702 0
 1530 004e 00F8011B 		strb	r1, [r0], #1
 1531              	.LVL239:
 704:lvgl\src\lv_misc/lv_mem.c ****     }
 1532              		.loc 1 704 0
 1533 0052 013A     		subs	r2, r2, #1
 1534              	.LVL240:
 1535              	.L148:
 701:lvgl\src\lv_misc/lv_mem.c ****         *d8 = v;
 1536              		.loc 1 701 0
 1537 0054 002A     		cmp	r2, #0
 1538 0056 FAD1     		bne	.L149
 706:lvgl\src\lv_misc/lv_mem.c **** 
 1539              		.loc 1 706 0
 1540 0058 7047     		bx	lr
 1541              		.cfi_endproc
 1542              	.LFE50:
 1543              		.size	_lv_memset, .-_lv_memset
 1544 005a 00BF     		.section	.text.lv_mem_monitor,"ax",%progbits
 1545              		.align	2
 1546              		.global	lv_mem_monitor
 1547              		.thumb
 1548              		.thumb_func
 1549              		.type	lv_mem_monitor, %function
 1550              	lv_mem_monitor:
 1551              	.LFB44:
 419:lvgl\src\lv_misc/lv_mem.c ****     /*Init the data*/
 1552              		.loc 1 419 0
 1553              		.cfi_startproc
 1554              		@ args = 0, pretend = 0, frame = 0
 1555              		@ frame_needed = 0, uses_anonymous_args = 0
 1556              	.LVL241:
 1557 0000 10B5     		push	{r4, lr}
 1558              		.cfi_def_cfa_offset 8
 1559              		.cfi_offset 4, -8
 1560              		.cfi_offset 14, -4
 1561 0002 0446     		mov	r4, r0
 421:lvgl\src\lv_misc/lv_mem.c **** #if LV_MEM_CUSTOM == 0
 1562              		.loc 1 421 0
 1563 0004 1C22     		movs	r2, #28
 1564 0006 0021     		movs	r1, #0
 1565 0008 FFF7FEFF 		bl	_lv_memset
 1566              	.LVL242:
ARM GAS  C:\Users\strap\AppData\Local\Temp\ccjJjp6v.s 			page 48


 426:lvgl\src\lv_misc/lv_mem.c **** 
 1567              		.loc 1 426 0
 1568 000c 0020     		movs	r0, #0
 1569 000e FFF7FEFF 		bl	ent_get_next
 1570              	.LVL243:
 428:lvgl\src\lv_misc/lv_mem.c ****         if(e->header.s.used == 0) {
 1571              		.loc 1 428 0
 1572 0012 18E0     		b	.L151
 1573              	.L154:
 429:lvgl\src\lv_misc/lv_mem.c ****             mon_p->free_cnt++;
 1574              		.loc 1 429 0
 1575 0014 0378     		ldrb	r3, [r0]	@ zero_extendqisi2
 1576 0016 13F0010F 		tst	r3, #1
 1577 001a 0FD1     		bne	.L152
 430:lvgl\src\lv_misc/lv_mem.c ****             mon_p->free_size += e->header.s.d_size;
 1578              		.loc 1 430 0
 1579 001c 6368     		ldr	r3, [r4, #4]
 1580 001e 0133     		adds	r3, r3, #1
 1581 0020 6360     		str	r3, [r4, #4]
 431:lvgl\src\lv_misc/lv_mem.c ****             if(e->header.s.d_size > mon_p->free_biggest_size) {
 1582              		.loc 1 431 0
 1583 0022 0268     		ldr	r2, [r0]
 1584 0024 A368     		ldr	r3, [r4, #8]
 1585 0026 03EB5203 		add	r3, r3, r2, lsr #1
 1586 002a A360     		str	r3, [r4, #8]
 432:lvgl\src\lv_misc/lv_mem.c ****                 mon_p->free_biggest_size = e->header.s.d_size;
 1587              		.loc 1 432 0
 1588 002c 0368     		ldr	r3, [r0]
 1589 002e C3F35E03 		ubfx	r3, r3, #1, #31
 1590 0032 E268     		ldr	r2, [r4, #12]
 1591 0034 9342     		cmp	r3, r2
 1592 0036 04D9     		bls	.L153
 433:lvgl\src\lv_misc/lv_mem.c ****             }
 1593              		.loc 1 433 0
 1594 0038 E360     		str	r3, [r4, #12]
 1595 003a 02E0     		b	.L153
 1596              	.L152:
 437:lvgl\src\lv_misc/lv_mem.c ****         }
 1597              		.loc 1 437 0
 1598 003c 2369     		ldr	r3, [r4, #16]
 1599 003e 0133     		adds	r3, r3, #1
 1600 0040 2361     		str	r3, [r4, #16]
 1601              	.L153:
 440:lvgl\src\lv_misc/lv_mem.c ****     }
 1602              		.loc 1 440 0
 1603 0042 FFF7FEFF 		bl	ent_get_next
 1604              	.LVL244:
 1605              	.L151:
 428:lvgl\src\lv_misc/lv_mem.c ****         if(e->header.s.used == 0) {
 1606              		.loc 1 428 0
 1607 0046 0028     		cmp	r0, #0
 1608 0048 E4D1     		bne	.L154
 442:lvgl\src\lv_misc/lv_mem.c ****     mon_p->max_used = mem_max_size;
 1609              		.loc 1 442 0
 1610 004a 4FF48043 		mov	r3, #16384
 1611 004e 2360     		str	r3, [r4]
 443:lvgl\src\lv_misc/lv_mem.c ****     mon_p->used_pct   = 100 - (100U * mon_p->free_size) / mon_p->total_size;
ARM GAS  C:\Users\strap\AppData\Local\Temp\ccjJjp6v.s 			page 49


 1612              		.loc 1 443 0
 1613 0050 0C4B     		ldr	r3, .L158
 1614 0052 D3F81C3D 		ldr	r3, [r3, #3356]
 1615 0056 6361     		str	r3, [r4, #20]
 444:lvgl\src\lv_misc/lv_mem.c ****     if(mon_p->free_size > 0) {
 1616              		.loc 1 444 0
 1617 0058 A168     		ldr	r1, [r4, #8]
 1618 005a 6423     		movs	r3, #100
 1619 005c 03FB01F3 		mul	r3, r3, r1
 1620 0060 9B0B     		lsrs	r3, r3, #14
 1621 0062 C3F16403 		rsb	r3, r3, #100
 1622 0066 2376     		strb	r3, [r4, #24]
 445:lvgl\src\lv_misc/lv_mem.c ****         mon_p->frag_pct   = (uint32_t)mon_p->free_biggest_size * 100U / mon_p->free_size;
 1623              		.loc 1 445 0
 1624 0068 49B1     		cbz	r1, .L155
 446:lvgl\src\lv_misc/lv_mem.c ****         mon_p->frag_pct   = 100 - mon_p->frag_pct;
 1625              		.loc 1 446 0
 1626 006a E368     		ldr	r3, [r4, #12]
 1627 006c 6422     		movs	r2, #100
 1628 006e 02FB03F3 		mul	r3, r2, r3
 1629 0072 B3FBF1F3 		udiv	r3, r3, r1
 1630 0076 DBB2     		uxtb	r3, r3
 447:lvgl\src\lv_misc/lv_mem.c ****     }
 1631              		.loc 1 447 0
 1632 0078 D31A     		subs	r3, r2, r3
 1633 007a 6376     		strb	r3, [r4, #25]
 1634 007c 10BD     		pop	{r4, pc}
 1635              	.LVL245:
 1636              	.L155:
 450:lvgl\src\lv_misc/lv_mem.c ****     }
 1637              		.loc 1 450 0
 1638 007e 0023     		movs	r3, #0
 1639 0080 6376     		strb	r3, [r4, #25]
 1640 0082 10BD     		pop	{r4, pc}
 1641              	.LVL246:
 1642              	.L159:
 1643              		.align	2
 1644              	.L158:
 1645 0084 E8320000 		.word	.LANCHOR1
 1646              		.cfi_endproc
 1647              	.LFE44:
 1648              		.size	lv_mem_monitor, .-lv_mem_monitor
 1649              		.section	.text._lv_memset_00,"ax",%progbits
 1650              		.align	2
 1651              		.global	_lv_memset_00
 1652              		.thumb
 1653              		.thumb_func
 1654              		.type	_lv_memset_00, %function
 1655              	_lv_memset_00:
 1656              	.LFB51:
 714:lvgl\src\lv_misc/lv_mem.c ****     uint8_t * d8 = (uint8_t *) dst;
 1657              		.loc 1 714 0
 1658              		.cfi_startproc
 1659              		@ args = 0, pretend = 0, frame = 0
 1660              		@ frame_needed = 0, uses_anonymous_args = 0
 1661              		@ link register save eliminated.
 1662              	.LVL247:
ARM GAS  C:\Users\strap\AppData\Local\Temp\ccjJjp6v.s 			page 50


 720:lvgl\src\lv_misc/lv_mem.c ****         d_align = ALIGN_MASK + 1 - d_align;
 1663              		.loc 1 720 0
 1664 0000 10F00303 		ands	r3, r0, #3
 1665              	.LVL248:
 1666 0004 16D0     		beq	.L164
 721:lvgl\src\lv_misc/lv_mem.c ****         while(d_align && len) {
 1667              		.loc 1 721 0
 1668 0006 C3F10403 		rsb	r3, r3, #4
 1669              	.LVL249:
 722:lvgl\src\lv_misc/lv_mem.c ****             *d8 = 0x00;
 1670              		.loc 1 722 0
 1671 000a 04E0     		b	.L162
 1672              	.LVL250:
 1673              	.L165:
 723:lvgl\src\lv_misc/lv_mem.c ****             d8++;
 1674              		.loc 1 723 0
 1675 000c 0022     		movs	r2, #0
 1676 000e 00F8012B 		strb	r2, [r0], #1
 1677              	.LVL251:
 725:lvgl\src\lv_misc/lv_mem.c ****             d_align--;
 1678              		.loc 1 725 0
 1679 0012 0139     		subs	r1, r1, #1
 1680              	.LVL252:
 726:lvgl\src\lv_misc/lv_mem.c ****         }
 1681              		.loc 1 726 0
 1682 0014 013B     		subs	r3, r3, #1
 1683              	.LVL253:
 1684              	.L162:
 722:lvgl\src\lv_misc/lv_mem.c ****             *d8 = 0x00;
 1685              		.loc 1 722 0
 1686 0016 6BB1     		cbz	r3, .L164
 722:lvgl\src\lv_misc/lv_mem.c ****             *d8 = 0x00;
 1687              		.loc 1 722 0 is_stmt 0 discriminator 1
 1688 0018 0029     		cmp	r1, #0
 1689 001a F7D1     		bne	.L165
 1690 001c 0AE0     		b	.L164
 1691              	.LVL254:
 1692              	.L166:
 732:lvgl\src\lv_misc/lv_mem.c ****         SET32(0);
 1693              		.loc 1 732 0 is_stmt 1
 1694 001e 0023     		movs	r3, #0
 1695 0020 0360     		str	r3, [r0]
 1696              	.LVL255:
 733:lvgl\src\lv_misc/lv_mem.c ****         SET32(0);
 1697              		.loc 1 733 0
 1698 0022 4360     		str	r3, [r0, #4]
 1699              	.LVL256:
 734:lvgl\src\lv_misc/lv_mem.c ****         SET32(0);
 1700              		.loc 1 734 0
 1701 0024 8360     		str	r3, [r0, #8]
 1702              	.LVL257:
 735:lvgl\src\lv_misc/lv_mem.c ****         SET32(0);
 1703              		.loc 1 735 0
 1704 0026 C360     		str	r3, [r0, #12]
 1705              	.LVL258:
 736:lvgl\src\lv_misc/lv_mem.c ****         SET32(0);
 1706              		.loc 1 736 0
ARM GAS  C:\Users\strap\AppData\Local\Temp\ccjJjp6v.s 			page 51


 1707 0028 0361     		str	r3, [r0, #16]
 1708              	.LVL259:
 737:lvgl\src\lv_misc/lv_mem.c ****         SET32(0);
 1709              		.loc 1 737 0
 1710 002a 4361     		str	r3, [r0, #20]
 1711              	.LVL260:
 738:lvgl\src\lv_misc/lv_mem.c ****         SET32(0);
 1712              		.loc 1 738 0
 1713 002c 8361     		str	r3, [r0, #24]
 1714              	.LVL261:
 739:lvgl\src\lv_misc/lv_mem.c ****         len -= 32;
 1715              		.loc 1 739 0
 1716 002e C361     		str	r3, [r0, #28]
 1717 0030 2030     		adds	r0, r0, #32
 1718              	.LVL262:
 740:lvgl\src\lv_misc/lv_mem.c ****     }
 1719              		.loc 1 740 0
 1720 0032 2039     		subs	r1, r1, #32
 1721              	.LVL263:
 1722              	.L164:
 731:lvgl\src\lv_misc/lv_mem.c ****         SET32(0);
 1723              		.loc 1 731 0
 1724 0034 2029     		cmp	r1, #32
 1725 0036 F2D8     		bhi	.L166
 1726 0038 03E0     		b	.L167
 1727              	.L168:
 744:lvgl\src\lv_misc/lv_mem.c ****         len -= 4;
 1728              		.loc 1 744 0
 1729 003a 0023     		movs	r3, #0
 1730 003c 40F8043B 		str	r3, [r0], #4
 1731              	.LVL264:
 745:lvgl\src\lv_misc/lv_mem.c ****     }
 1732              		.loc 1 745 0
 1733 0040 0439     		subs	r1, r1, #4
 1734              	.LVL265:
 1735              	.L167:
 743:lvgl\src\lv_misc/lv_mem.c ****         SET32(0);
 1736              		.loc 1 743 0
 1737 0042 0429     		cmp	r1, #4
 1738 0044 F9D8     		bhi	.L168
 1739 0046 03E0     		b	.L169
 1740              	.LVL266:
 1741              	.L170:
 751:lvgl\src\lv_misc/lv_mem.c ****         d8++;
 1742              		.loc 1 751 0
 1743 0048 0023     		movs	r3, #0
 1744 004a 00F8013B 		strb	r3, [r0], #1
 1745              	.LVL267:
 753:lvgl\src\lv_misc/lv_mem.c ****     }
 1746              		.loc 1 753 0
 1747 004e 0139     		subs	r1, r1, #1
 1748              	.LVL268:
 1749              	.L169:
 750:lvgl\src\lv_misc/lv_mem.c ****         *d8 = 0;
 1750              		.loc 1 750 0
 1751 0050 0029     		cmp	r1, #0
 1752 0052 F9D1     		bne	.L170
ARM GAS  C:\Users\strap\AppData\Local\Temp\ccjJjp6v.s 			page 52


 755:lvgl\src\lv_misc/lv_mem.c **** 
 1753              		.loc 1 755 0
 1754 0054 7047     		bx	lr
 1755              		.cfi_endproc
 1756              	.LFE51:
 1757              		.size	_lv_memset_00, .-_lv_memset_00
 1758 0056 00BF     		.section	.text._lv_mem_deinit,"ax",%progbits
 1759              		.align	2
 1760              		.global	_lv_mem_deinit
 1761              		.thumb
 1762              		.thumb_func
 1763              		.type	_lv_mem_deinit, %function
 1764              	_lv_mem_deinit:
 1765              	.LFB38:
 141:lvgl\src\lv_misc/lv_mem.c **** #if LV_MEM_CUSTOM == 0
 1766              		.loc 1 141 0
 1767              		.cfi_startproc
 1768              		@ args = 0, pretend = 0, frame = 0
 1769              		@ frame_needed = 0, uses_anonymous_args = 0
 1770 0000 10B5     		push	{r4, lr}
 1771              		.cfi_def_cfa_offset 8
 1772              		.cfi_offset 4, -8
 1773              		.cfi_offset 14, -4
 143:lvgl\src\lv_misc/lv_mem.c ****     lv_mem_ent_t * full = (lv_mem_ent_t *)work_mem;
 1774              		.loc 1 143 0
 1775 0002 094C     		ldr	r4, .L173
 1776 0004 4FF48041 		mov	r1, #16384
 1777 0008 2068     		ldr	r0, [r4]
 1778 000a FFF7FEFF 		bl	_lv_memset_00
 1779              	.LVL269:
 144:lvgl\src\lv_misc/lv_mem.c ****     full->header.s.used = 0;
 1780              		.loc 1 144 0
 1781 000e 2368     		ldr	r3, [r4]
 1782              	.LVL270:
 145:lvgl\src\lv_misc/lv_mem.c ****     /*The total mem size id reduced by the first header and the close patterns */
 1783              		.loc 1 145 0
 1784 0010 1A78     		ldrb	r2, [r3]	@ zero_extendqisi2
 1785 0012 6FF30002 		bfc	r2, #0, #1
 1786 0016 1A70     		strb	r2, [r3]
 147:lvgl\src\lv_misc/lv_mem.c **** #endif
 1787              		.loc 1 147 0
 1788 0018 1A68     		ldr	r2, [r3]
 1789 001a 43F6FC71 		movw	r1, #16380
 1790 001e 61F35F02 		bfi	r2, r1, #1, #31
 1791 0022 1A60     		str	r2, [r3]
 1792 0024 10BD     		pop	{r4, pc}
 1793              	.L174:
 1794 0026 00BF     		.align	2
 1795              	.L173:
 1796 0028 00000000 		.word	.LANCHOR0
 1797              		.cfi_endproc
 1798              	.LFE38:
 1799              		.size	_lv_mem_deinit, .-_lv_mem_deinit
 1800              		.section	.text._lv_memset_ff,"ax",%progbits
 1801              		.align	2
 1802              		.global	_lv_memset_ff
 1803              		.thumb
ARM GAS  C:\Users\strap\AppData\Local\Temp\ccjJjp6v.s 			page 53


 1804              		.thumb_func
 1805              		.type	_lv_memset_ff, %function
 1806              	_lv_memset_ff:
 1807              	.LFB52:
 763:lvgl\src\lv_misc/lv_mem.c ****     uint8_t * d8 = (uint8_t *) dst;
 1808              		.loc 1 763 0
 1809              		.cfi_startproc
 1810              		@ args = 0, pretend = 0, frame = 0
 1811              		@ frame_needed = 0, uses_anonymous_args = 0
 1812              		@ link register save eliminated.
 1813              	.LVL271:
 769:lvgl\src\lv_misc/lv_mem.c ****         d_align = ALIGN_MASK + 1 - d_align;
 1814              		.loc 1 769 0
 1815 0000 10F00303 		ands	r3, r0, #3
 1816              	.LVL272:
 1817 0004 17D0     		beq	.L179
 770:lvgl\src\lv_misc/lv_mem.c ****         while(d_align && len) {
 1818              		.loc 1 770 0
 1819 0006 C3F10403 		rsb	r3, r3, #4
 1820              	.LVL273:
 771:lvgl\src\lv_misc/lv_mem.c ****             *d8 = 0xFF;
 1821              		.loc 1 771 0
 1822 000a 04E0     		b	.L177
 1823              	.LVL274:
 1824              	.L180:
 772:lvgl\src\lv_misc/lv_mem.c ****             d8++;
 1825              		.loc 1 772 0
 1826 000c FF22     		movs	r2, #255
 1827 000e 00F8012B 		strb	r2, [r0], #1
 1828              	.LVL275:
 774:lvgl\src\lv_misc/lv_mem.c ****             d_align--;
 1829              		.loc 1 774 0
 1830 0012 0139     		subs	r1, r1, #1
 1831              	.LVL276:
 775:lvgl\src\lv_misc/lv_mem.c ****         }
 1832              		.loc 1 775 0
 1833 0014 013B     		subs	r3, r3, #1
 1834              	.LVL277:
 1835              	.L177:
 771:lvgl\src\lv_misc/lv_mem.c ****             *d8 = 0xFF;
 1836              		.loc 1 771 0
 1837 0016 73B1     		cbz	r3, .L179
 771:lvgl\src\lv_misc/lv_mem.c ****             *d8 = 0xFF;
 1838              		.loc 1 771 0 is_stmt 0 discriminator 1
 1839 0018 0029     		cmp	r1, #0
 1840 001a F7D1     		bne	.L180
 1841 001c 0BE0     		b	.L179
 1842              	.LVL278:
 1843              	.L181:
 781:lvgl\src\lv_misc/lv_mem.c ****         SET32(0xFFFFFFFF);
 1844              		.loc 1 781 0 is_stmt 1
 1845 001e 4FF0FF33 		mov	r3, #-1
 1846 0022 0360     		str	r3, [r0]
 1847              	.LVL279:
 782:lvgl\src\lv_misc/lv_mem.c ****         SET32(0xFFFFFFFF);
 1848              		.loc 1 782 0
 1849 0024 4360     		str	r3, [r0, #4]
ARM GAS  C:\Users\strap\AppData\Local\Temp\ccjJjp6v.s 			page 54


 1850              	.LVL280:
 783:lvgl\src\lv_misc/lv_mem.c ****         SET32(0xFFFFFFFF);
 1851              		.loc 1 783 0
 1852 0026 8360     		str	r3, [r0, #8]
 1853              	.LVL281:
 784:lvgl\src\lv_misc/lv_mem.c ****         SET32(0xFFFFFFFF);
 1854              		.loc 1 784 0
 1855 0028 C360     		str	r3, [r0, #12]
 1856              	.LVL282:
 785:lvgl\src\lv_misc/lv_mem.c ****         SET32(0xFFFFFFFF);
 1857              		.loc 1 785 0
 1858 002a 0361     		str	r3, [r0, #16]
 1859              	.LVL283:
 786:lvgl\src\lv_misc/lv_mem.c ****         SET32(0xFFFFFFFF);
 1860              		.loc 1 786 0
 1861 002c 4361     		str	r3, [r0, #20]
 1862              	.LVL284:
 787:lvgl\src\lv_misc/lv_mem.c ****         SET32(0xFFFFFFFF);
 1863              		.loc 1 787 0
 1864 002e 8361     		str	r3, [r0, #24]
 1865              	.LVL285:
 788:lvgl\src\lv_misc/lv_mem.c ****         len -= 32;
 1866              		.loc 1 788 0
 1867 0030 C361     		str	r3, [r0, #28]
 1868 0032 2030     		adds	r0, r0, #32
 1869              	.LVL286:
 789:lvgl\src\lv_misc/lv_mem.c ****     }
 1870              		.loc 1 789 0
 1871 0034 2039     		subs	r1, r1, #32
 1872              	.LVL287:
 1873              	.L179:
 780:lvgl\src\lv_misc/lv_mem.c ****         SET32(0xFFFFFFFF);
 1874              		.loc 1 780 0
 1875 0036 2029     		cmp	r1, #32
 1876 0038 F1D8     		bhi	.L181
 1877 003a 04E0     		b	.L182
 1878              	.L183:
 793:lvgl\src\lv_misc/lv_mem.c ****         len -= 4;
 1879              		.loc 1 793 0
 1880 003c 4FF0FF33 		mov	r3, #-1
 1881 0040 40F8043B 		str	r3, [r0], #4
 1882              	.LVL288:
 794:lvgl\src\lv_misc/lv_mem.c ****     }
 1883              		.loc 1 794 0
 1884 0044 0439     		subs	r1, r1, #4
 1885              	.LVL289:
 1886              	.L182:
 792:lvgl\src\lv_misc/lv_mem.c ****         SET32(0xFFFFFFFF);
 1887              		.loc 1 792 0
 1888 0046 0429     		cmp	r1, #4
 1889 0048 F8D8     		bhi	.L183
 1890 004a 03E0     		b	.L184
 1891              	.LVL290:
 1892              	.L185:
 800:lvgl\src\lv_misc/lv_mem.c ****         d8++;
 1893              		.loc 1 800 0
 1894 004c FF23     		movs	r3, #255
ARM GAS  C:\Users\strap\AppData\Local\Temp\ccjJjp6v.s 			page 55


 1895 004e 00F8013B 		strb	r3, [r0], #1
 1896              	.LVL291:
 802:lvgl\src\lv_misc/lv_mem.c ****     }
 1897              		.loc 1 802 0
 1898 0052 0139     		subs	r1, r1, #1
 1899              	.LVL292:
 1900              	.L184:
 799:lvgl\src\lv_misc/lv_mem.c ****         *d8 = 0xFF;
 1901              		.loc 1 799 0
 1902 0054 0029     		cmp	r1, #0
 1903 0056 F9D1     		bne	.L185
 804:lvgl\src\lv_misc/lv_mem.c **** 
 1904              		.loc 1 804 0
 1905 0058 7047     		bx	lr
 1906              		.cfi_endproc
 1907              	.LFE52:
 1908              		.size	_lv_memset_ff, .-_lv_memset_ff
 1909 005a 00BF     		.data
 1910              		.align	2
 1911              		.set	.LANCHOR2,. + 0
 1912              		.type	mem_buf_small, %object
 1913              		.size	mem_buf_small, 16
 1914              	mem_buf_small:
 1915 0000 20400000 		.word	mem_buf1_32
 1916 0004 1000     		.short	16
 1917 0006 00       		.byte	0
 1918 0007 00       		.space	1
 1919 0008 10400000 		.word	mem_buf2_32
 1920 000c 1000     		.short	16
 1921 000e 00       		.byte	0
 1922 000f 00       		.space	1
 1923              		.section	.rodata.str1.4,"aMS",%progbits,1
 1924              		.align	2
 1925              	.LC0:
 1926 0000 4F757420 		.ascii	"Out of memory, can't allocate a new  buffer (increa"
 1926      6F66206D 
 1926      656D6F72 
 1926      792C2063 
 1926      616E2774 
 1927 0033 73652079 		.ascii	"se your LV_MEM_SIZE/heap size\000"
 1927      6F757220 
 1927      4C565F4D 
 1927      454D5F53 
 1927      495A452F 
 1928 0051 000000   		.space	3
 1929              	.LC1:
 1930 0054 4E6F2066 		.ascii	"No free buffer. Increase LV_DRAW_BUF_MAX_NUM.\000"
 1930      72656520 
 1930      62756666 
 1930      65722E20 
 1930      496E6372 
 1931              		.bss
 1932              		.align	2
 1933              		.set	.LANCHOR0,. + 0
 1934              		.set	.LANCHOR1,. + 13032
 1935              		.type	work_mem, %object
 1936              		.size	work_mem, 4
ARM GAS  C:\Users\strap\AppData\Local\Temp\ccjJjp6v.s 			page 56


 1937              	work_mem:
 1938 0000 00000000 		.space	4
 1939              		.type	work_mem_int.5985, %object
 1940              		.size	work_mem_int.5985, 16384
 1941              	work_mem_int.5985:
 1942 0004 00000000 		.space	16384
 1942      00000000 
 1942      00000000 
 1942      00000000 
 1942      00000000 
 1943              		.type	mem_max_size, %object
 1944              		.size	mem_max_size, 4
 1945              	mem_max_size:
 1946 4004 00000000 		.space	4
 1947              		.type	zero_mem, %object
 1948              		.size	zero_mem, 4
 1949              	zero_mem:
 1950 4008 00000000 		.space	4
 1951              		.type	full_defrag_cnt.6002, %object
 1952              		.size	full_defrag_cnt.6002, 2
 1953              	full_defrag_cnt.6002:
 1954 400c 0000     		.space	2
 1955 400e 0000     		.space	2
 1956              		.type	mem_buf2_32, %object
 1957              		.size	mem_buf2_32, 16
 1958              	mem_buf2_32:
 1959 4010 00000000 		.space	16
 1959      00000000 
 1959      00000000 
 1959      00000000 
 1960              		.type	mem_buf1_32, %object
 1961              		.size	mem_buf1_32, 16
 1962              	mem_buf1_32:
 1963 4020 00000000 		.space	16
 1963      00000000 
 1963      00000000 
 1963      00000000 
 1964              		.text
 1965              	.Letext0:
 1966              		.file 2 "c:\\program files (x86)\\cypress\\psoc creator\\4.4\\psoc creator\\import\\gnu\\arm\\5.4.
 1967              		.file 3 "c:\\program files (x86)\\cypress\\psoc creator\\4.4\\psoc creator\\import\\gnu\\arm\\5.4.
 1968              		.file 4 "c:\\program files (x86)\\cypress\\psoc creator\\4.4\\psoc creator\\import\\gnu\\arm\\5.4.
 1969              		.file 5 "lvgl\\src\\lv_misc\\lv_types.h"
 1970              		.file 6 "lvgl\\src\\lv_misc\\lv_mem.h"
 1971              		.file 7 "lvgl\\src\\lv_misc\\lv_gc.h"
 1972              		.file 8 "lvgl\\src\\lv_misc\\../lv_draw/../lv_core/../lv_misc/lv_debug.h"
 1973              		.section	.debug_info,"",%progbits
 1974              	.Ldebug_info0:
 1975 0000 3D0B0000 		.4byte	0xb3d
 1976 0004 0400     		.2byte	0x4
 1977 0006 00000000 		.4byte	.Ldebug_abbrev0
 1978 000a 04       		.byte	0x4
 1979 000b 01       		.uleb128 0x1
 1980 000c 17040000 		.4byte	.LASF91
 1981 0010 0C       		.byte	0xc
 1982 0011 E5010000 		.4byte	.LASF92
 1983 0015 79030000 		.4byte	.LASF93
ARM GAS  C:\Users\strap\AppData\Local\Temp\ccjJjp6v.s 			page 57


 1984 0019 18000000 		.4byte	.Ldebug_ranges0+0x18
 1985 001d 00000000 		.4byte	0
 1986 0021 00000000 		.4byte	.Ldebug_line0
 1987 0025 02       		.uleb128 0x2
 1988 0026 BC020000 		.4byte	.LASF0
 1989 002a 02       		.byte	0x2
 1990 002b 1B       		.byte	0x1b
 1991 002c 30000000 		.4byte	0x30
 1992 0030 03       		.uleb128 0x3
 1993 0031 01       		.byte	0x1
 1994 0032 06       		.byte	0x6
 1995 0033 45020000 		.4byte	.LASF2
 1996 0037 02       		.uleb128 0x2
 1997 0038 C8010000 		.4byte	.LASF1
 1998 003c 02       		.byte	0x2
 1999 003d 1D       		.byte	0x1d
 2000 003e 42000000 		.4byte	0x42
 2001 0042 03       		.uleb128 0x3
 2002 0043 01       		.byte	0x1
 2003 0044 08       		.byte	0x8
 2004 0045 13020000 		.4byte	.LASF3
 2005 0049 03       		.uleb128 0x3
 2006 004a 02       		.byte	0x2
 2007 004b 05       		.byte	0x5
 2008 004c 67000000 		.4byte	.LASF4
 2009 0050 02       		.uleb128 0x2
 2010 0051 CD000000 		.4byte	.LASF5
 2011 0055 02       		.byte	0x2
 2012 0056 2B       		.byte	0x2b
 2013 0057 5B000000 		.4byte	0x5b
 2014 005b 03       		.uleb128 0x3
 2015 005c 02       		.byte	0x2
 2016 005d 07       		.byte	0x7
 2017 005e A9020000 		.4byte	.LASF6
 2018 0062 03       		.uleb128 0x3
 2019 0063 04       		.byte	0x4
 2020 0064 05       		.byte	0x5
 2021 0065 95010000 		.4byte	.LASF7
 2022 0069 02       		.uleb128 0x2
 2023 006a A4000000 		.4byte	.LASF8
 2024 006e 02       		.byte	0x2
 2025 006f 41       		.byte	0x41
 2026 0070 74000000 		.4byte	0x74
 2027 0074 03       		.uleb128 0x3
 2028 0075 04       		.byte	0x4
 2029 0076 07       		.byte	0x7
 2030 0077 40030000 		.4byte	.LASF9
 2031 007b 03       		.uleb128 0x3
 2032 007c 08       		.byte	0x8
 2033 007d 05       		.byte	0x5
 2034 007e 4B010000 		.4byte	.LASF10
 2035 0082 02       		.uleb128 0x2
 2036 0083 30000000 		.4byte	.LASF11
 2037 0087 02       		.byte	0x2
 2038 0088 5B       		.byte	0x5b
 2039 0089 8D000000 		.4byte	0x8d
 2040 008d 03       		.uleb128 0x3
ARM GAS  C:\Users\strap\AppData\Local\Temp\ccjJjp6v.s 			page 58


 2041 008e 08       		.byte	0x8
 2042 008f 07       		.byte	0x7
 2043 0090 51020000 		.4byte	.LASF12
 2044 0094 04       		.uleb128 0x4
 2045 0095 04       		.byte	0x4
 2046 0096 05       		.byte	0x5
 2047 0097 696E7400 		.ascii	"int\000"
 2048 009b 02       		.uleb128 0x2
 2049 009c 61030000 		.4byte	.LASF13
 2050 00a0 02       		.byte	0x2
 2051 00a1 CA       		.byte	0xca
 2052 00a2 A6000000 		.4byte	0xa6
 2053 00a6 03       		.uleb128 0x3
 2054 00a7 04       		.byte	0x4
 2055 00a8 07       		.byte	0x7
 2056 00a9 A5040000 		.4byte	.LASF14
 2057 00ad 02       		.uleb128 0x2
 2058 00ae 4E000000 		.4byte	.LASF15
 2059 00b2 03       		.byte	0x3
 2060 00b3 14       		.byte	0x14
 2061 00b4 25000000 		.4byte	0x25
 2062 00b8 02       		.uleb128 0x2
 2063 00b9 00010000 		.4byte	.LASF16
 2064 00bd 03       		.byte	0x3
 2065 00be 18       		.byte	0x18
 2066 00bf 37000000 		.4byte	0x37
 2067 00c3 02       		.uleb128 0x2
 2068 00c4 8A020000 		.4byte	.LASF17
 2069 00c8 03       		.byte	0x3
 2070 00c9 24       		.byte	0x24
 2071 00ca 50000000 		.4byte	0x50
 2072 00ce 02       		.uleb128 0x2
 2073 00cf 19010000 		.4byte	.LASF18
 2074 00d3 03       		.byte	0x3
 2075 00d4 30       		.byte	0x30
 2076 00d5 69000000 		.4byte	0x69
 2077 00d9 02       		.uleb128 0x2
 2078 00da 55000000 		.4byte	.LASF19
 2079 00de 03       		.byte	0x3
 2080 00df 3C       		.byte	0x3c
 2081 00e0 82000000 		.4byte	0x82
 2082 00e4 02       		.uleb128 0x2
 2083 00e5 08010000 		.4byte	.LASF20
 2084 00e9 03       		.byte	0x3
 2085 00ea 48       		.byte	0x48
 2086 00eb 9B000000 		.4byte	0x9b
 2087 00ef 05       		.uleb128 0x5
 2088 00f0 04       		.byte	0x4
 2089 00f1 02       		.uleb128 0x2
 2090 00f2 71000000 		.4byte	.LASF21
 2091 00f6 04       		.byte	0x4
 2092 00f7 D8       		.byte	0xd8
 2093 00f8 A6000000 		.4byte	0xa6
 2094 00fc 03       		.uleb128 0x3
 2095 00fd 08       		.byte	0x8
 2096 00fe 04       		.byte	0x4
 2097 00ff 33010000 		.4byte	.LASF22
ARM GAS  C:\Users\strap\AppData\Local\Temp\ccjJjp6v.s 			page 59


 2098 0103 06       		.uleb128 0x6
 2099 0104 01       		.byte	0x1
 2100 0105 42000000 		.4byte	0x42
 2101 0109 05       		.byte	0x5
 2102 010a 2F       		.byte	0x2f
 2103 010b 1C010000 		.4byte	0x11c
 2104 010f 07       		.uleb128 0x7
 2105 0110 E0040000 		.4byte	.LASF23
 2106 0114 00       		.byte	0
 2107 0115 07       		.uleb128 0x7
 2108 0116 0D030000 		.4byte	.LASF24
 2109 011a 01       		.byte	0x1
 2110 011b 00       		.byte	0
 2111 011c 02       		.uleb128 0x2
 2112 011d 59010000 		.4byte	.LASF25
 2113 0121 05       		.byte	0x5
 2114 0122 34       		.byte	0x34
 2115 0123 B8000000 		.4byte	0xb8
 2116 0127 02       		.uleb128 0x2
 2117 0128 A8010000 		.4byte	.LASF26
 2118 012c 05       		.byte	0x5
 2119 012d 3A       		.byte	0x3a
 2120 012e E4000000 		.4byte	0xe4
 2121 0132 08       		.uleb128 0x8
 2122 0133 1C       		.byte	0x1c
 2123 0134 06       		.byte	0x6
 2124 0135 2A       		.byte	0x2a
 2125 0136 9B010000 		.4byte	0x19b
 2126 013a 09       		.uleb128 0x9
 2127 013b 00000000 		.4byte	.LASF27
 2128 013f 06       		.byte	0x6
 2129 0140 2B       		.byte	0x2b
 2130 0141 CE000000 		.4byte	0xce
 2131 0145 00       		.byte	0
 2132 0146 09       		.uleb128 0x9
 2133 0147 EB040000 		.4byte	.LASF28
 2134 014b 06       		.byte	0x6
 2135 014c 2C       		.byte	0x2c
 2136 014d CE000000 		.4byte	0xce
 2137 0151 04       		.byte	0x4
 2138 0152 09       		.uleb128 0x9
 2139 0153 21020000 		.4byte	.LASF29
 2140 0157 06       		.byte	0x6
 2141 0158 2D       		.byte	0x2d
 2142 0159 CE000000 		.4byte	0xce
 2143 015d 08       		.byte	0x8
 2144 015e 09       		.uleb128 0x9
 2145 015f BE030000 		.4byte	.LASF30
 2146 0163 06       		.byte	0x6
 2147 0164 2E       		.byte	0x2e
 2148 0165 CE000000 		.4byte	0xce
 2149 0169 0C       		.byte	0xc
 2150 016a 09       		.uleb128 0x9
 2151 016b 5E000000 		.4byte	.LASF31
 2152 016f 06       		.byte	0x6
 2153 0170 2F       		.byte	0x2f
 2154 0171 CE000000 		.4byte	0xce
ARM GAS  C:\Users\strap\AppData\Local\Temp\ccjJjp6v.s 			page 60


 2155 0175 10       		.byte	0x10
 2156 0176 09       		.uleb128 0x9
 2157 0177 D3020000 		.4byte	.LASF32
 2158 017b 06       		.byte	0x6
 2159 017c 30       		.byte	0x30
 2160 017d CE000000 		.4byte	0xce
 2161 0181 14       		.byte	0x14
 2162 0182 09       		.uleb128 0x9
 2163 0183 17030000 		.4byte	.LASF33
 2164 0187 06       		.byte	0x6
 2165 0188 31       		.byte	0x31
 2166 0189 B8000000 		.4byte	0xb8
 2167 018d 18       		.byte	0x18
 2168 018e 09       		.uleb128 0x9
 2169 018f A0020000 		.4byte	.LASF34
 2170 0193 06       		.byte	0x6
 2171 0194 32       		.byte	0x32
 2172 0195 B8000000 		.4byte	0xb8
 2173 0199 19       		.byte	0x19
 2174 019a 00       		.byte	0
 2175 019b 02       		.uleb128 0x2
 2176 019c 62010000 		.4byte	.LASF35
 2177 01a0 06       		.byte	0x6
 2178 01a1 33       		.byte	0x33
 2179 01a2 32010000 		.4byte	0x132
 2180 01a6 08       		.uleb128 0x8
 2181 01a7 08       		.byte	0x8
 2182 01a8 06       		.byte	0x6
 2183 01a9 35       		.byte	0x35
 2184 01aa D4010000 		.4byte	0x1d4
 2185 01ae 0A       		.uleb128 0xa
 2186 01af 7000     		.ascii	"p\000"
 2187 01b1 06       		.byte	0x6
 2188 01b2 36       		.byte	0x36
 2189 01b3 EF000000 		.4byte	0xef
 2190 01b7 00       		.byte	0
 2191 01b8 09       		.uleb128 0x9
 2192 01b9 B9030000 		.4byte	.LASF36
 2193 01bd 06       		.byte	0x6
 2194 01be 37       		.byte	0x37
 2195 01bf C3000000 		.4byte	0xc3
 2196 01c3 04       		.byte	0x4
 2197 01c4 0B       		.uleb128 0xb
 2198 01c5 7E020000 		.4byte	.LASF42
 2199 01c9 06       		.byte	0x6
 2200 01ca 38       		.byte	0x38
 2201 01cb B8000000 		.4byte	0xb8
 2202 01cf 01       		.byte	0x1
 2203 01d0 01       		.byte	0x1
 2204 01d1 07       		.byte	0x7
 2205 01d2 06       		.byte	0x6
 2206 01d3 00       		.byte	0
 2207 01d4 02       		.uleb128 0x2
 2208 01d5 3B000000 		.4byte	.LASF37
 2209 01d9 06       		.byte	0x6
 2210 01da 39       		.byte	0x39
 2211 01db A6010000 		.4byte	0x1a6
ARM GAS  C:\Users\strap\AppData\Local\Temp\ccjJjp6v.s 			page 61


 2212 01df 02       		.uleb128 0x2
 2213 01e0 73010000 		.4byte	.LASF38
 2214 01e4 06       		.byte	0x6
 2215 01e5 3B       		.byte	0x3b
 2216 01e6 EA010000 		.4byte	0x1ea
 2217 01ea 0C       		.uleb128 0xc
 2218 01eb D4010000 		.4byte	0x1d4
 2219 01ef FA010000 		.4byte	0x1fa
 2220 01f3 0D       		.uleb128 0xd
 2221 01f4 FA010000 		.4byte	0x1fa
 2222 01f8 0F       		.byte	0xf
 2223 01f9 00       		.byte	0
 2224 01fa 03       		.uleb128 0x3
 2225 01fb 04       		.byte	0x4
 2226 01fc 07       		.byte	0x7
 2227 01fd 7E000000 		.4byte	.LASF39
 2228 0201 03       		.uleb128 0x3
 2229 0202 01       		.byte	0x1
 2230 0203 08       		.byte	0x8
 2231 0204 DC020000 		.4byte	.LASF40
 2232 0208 0E       		.uleb128 0xe
 2233 0209 04       		.byte	0x4
 2234 020a 0E020000 		.4byte	0x20e
 2235 020e 0F       		.uleb128 0xf
 2236 020f B8000000 		.4byte	0xb8
 2237 0213 0E       		.uleb128 0xe
 2238 0214 04       		.byte	0x4
 2239 0215 19020000 		.4byte	0x219
 2240 0219 10       		.uleb128 0x10
 2241 021a 03       		.uleb128 0x3
 2242 021b 01       		.byte	0x1
 2243 021c 02       		.byte	0x2
 2244 021d 07030000 		.4byte	.LASF41
 2245 0221 0E       		.uleb128 0xe
 2246 0222 04       		.byte	0x4
 2247 0223 B8000000 		.4byte	0xb8
 2248 0227 08       		.uleb128 0x8
 2249 0228 04       		.byte	0x4
 2250 0229 01       		.byte	0x1
 2251 022a 31       		.byte	0x31
 2252 022b 4E020000 		.4byte	0x24e
 2253 022f 0B       		.uleb128 0xb
 2254 0230 7E020000 		.4byte	.LASF42
 2255 0234 01       		.byte	0x1
 2256 0235 32       		.byte	0x32
 2257 0236 CE000000 		.4byte	0xce
 2258 023a 04       		.byte	0x4
 2259 023b 01       		.byte	0x1
 2260 023c 1F       		.byte	0x1f
 2261 023d 00       		.byte	0
 2262 023e 0B       		.uleb128 0xb
 2263 023f 93020000 		.4byte	.LASF43
 2264 0243 01       		.byte	0x1
 2265 0244 33       		.byte	0x33
 2266 0245 CE000000 		.4byte	0xce
 2267 0249 04       		.byte	0x4
 2268 024a 1F       		.byte	0x1f
ARM GAS  C:\Users\strap\AppData\Local\Temp\ccjJjp6v.s 			page 62


 2269 024b 00       		.byte	0
 2270 024c 00       		.byte	0
 2271 024d 00       		.byte	0
 2272 024e 11       		.uleb128 0x11
 2273 024f 04       		.byte	0x4
 2274 0250 01       		.byte	0x1
 2275 0251 30       		.byte	0x30
 2276 0252 6B020000 		.4byte	0x26b
 2277 0256 12       		.uleb128 0x12
 2278 0257 7300     		.ascii	"s\000"
 2279 0259 01       		.byte	0x1
 2280 025a 34       		.byte	0x34
 2281 025b 27020000 		.4byte	0x227
 2282 025f 13       		.uleb128 0x13
 2283 0260 0B000000 		.4byte	.LASF44
 2284 0264 01       		.byte	0x1
 2285 0265 35       		.byte	0x35
 2286 0266 CE000000 		.4byte	0xce
 2287 026a 00       		.byte	0
 2288 026b 02       		.uleb128 0x2
 2289 026c BB040000 		.4byte	.LASF45
 2290 0270 01       		.byte	0x1
 2291 0271 36       		.byte	0x36
 2292 0272 4E020000 		.4byte	0x24e
 2293 0276 08       		.uleb128 0x8
 2294 0277 08       		.byte	0x8
 2295 0278 01       		.byte	0x1
 2296 0279 38       		.byte	0x38
 2297 027a 97020000 		.4byte	0x297
 2298 027e 09       		.uleb128 0x9
 2299 027f 0B000000 		.4byte	.LASF44
 2300 0283 01       		.byte	0x1
 2301 0284 39       		.byte	0x39
 2302 0285 6B020000 		.4byte	0x26b
 2303 0289 00       		.byte	0
 2304 028a 09       		.uleb128 0x9
 2305 028b 20030000 		.4byte	.LASF46
 2306 028f 01       		.byte	0x1
 2307 0290 3A       		.byte	0x3a
 2308 0291 B8000000 		.4byte	0xb8
 2309 0295 04       		.byte	0x4
 2310 0296 00       		.byte	0
 2311 0297 02       		.uleb128 0x2
 2312 0298 FA020000 		.4byte	.LASF47
 2313 029c 01       		.byte	0x1
 2314 029d 3B       		.byte	0x3b
 2315 029e 76020000 		.4byte	0x276
 2316 02a2 14       		.uleb128 0x14
 2317 02a3 97000000 		.4byte	.LASF53
 2318 02a7 01       		.byte	0x1
 2319 02a8 3203     		.2byte	0x332
 2320 02aa F7020000 		.4byte	0x2f7
 2321 02ae 00000000 		.4byte	.LFB53
 2322 02b2 28000000 		.4byte	.LFE53-.LFB53
 2323 02b6 01       		.uleb128 0x1
 2324 02b7 9C       		.byte	0x9c
 2325 02b8 F7020000 		.4byte	0x2f7
ARM GAS  C:\Users\strap\AppData\Local\Temp\ccjJjp6v.s 			page 63


 2326 02bc 15       		.uleb128 0x15
 2327 02bd 48000000 		.4byte	.LASF50
 2328 02c1 01       		.byte	0x1
 2329 02c2 3203     		.2byte	0x332
 2330 02c4 F7020000 		.4byte	0x2f7
 2331 02c8 00000000 		.4byte	.LLST0
 2332 02cc 16       		.uleb128 0x16
 2333 02cd DE010000 		.4byte	.LASF48
 2334 02d1 01       		.byte	0x1
 2335 02d2 3403     		.2byte	0x334
 2336 02d4 F7020000 		.4byte	0x2f7
 2337 02d8 47000000 		.4byte	.LLST1
 2338 02dc 17       		.uleb128 0x17
 2339 02dd 08000000 		.4byte	.LBB2
 2340 02e1 18000000 		.4byte	.LBE2-.LBB2
 2341 02e5 16       		.uleb128 0x16
 2342 02e6 E9030000 		.4byte	.LASF49
 2343 02ea 01       		.byte	0x1
 2344 02eb 3A03     		.2byte	0x33a
 2345 02ed 21020000 		.4byte	0x221
 2346 02f1 7D000000 		.4byte	.LLST2
 2347 02f5 00       		.byte	0
 2348 02f6 00       		.byte	0
 2349 02f7 0E       		.uleb128 0xe
 2350 02f8 04       		.byte	0x4
 2351 02f9 97020000 		.4byte	0x297
 2352 02fd 18       		.uleb128 0x18
 2353 02fe 22010000 		.4byte	.LASF94
 2354 0302 01       		.byte	0x1
 2355 0303 5E03     		.2byte	0x35e
 2356 0305 00000000 		.4byte	.LFB55
 2357 0309 4A000000 		.4byte	.LFE55-.LFB55
 2358 030d 01       		.uleb128 0x1
 2359 030e 9C       		.byte	0x9c
 2360 030f 5A030000 		.4byte	0x35a
 2361 0313 19       		.uleb128 0x19
 2362 0314 6500     		.ascii	"e\000"
 2363 0316 01       		.byte	0x1
 2364 0317 5E03     		.2byte	0x35e
 2365 0319 F7020000 		.4byte	0x2f7
 2366 031d 01       		.uleb128 0x1
 2367 031e 50       		.byte	0x50
 2368 031f 15       		.uleb128 0x15
 2369 0320 B9030000 		.4byte	.LASF36
 2370 0324 01       		.byte	0x1
 2371 0325 5E03     		.2byte	0x35e
 2372 0327 F1000000 		.4byte	0xf1
 2373 032b A0000000 		.4byte	.LLST3
 2374 032f 17       		.uleb128 0x17
 2375 0330 1A000000 		.4byte	.LBB3
 2376 0334 1A000000 		.4byte	.LBE3-.LBB3
 2377 0338 16       		.uleb128 0x16
 2378 0339 F4040000 		.4byte	.LASF51
 2379 033d 01       		.byte	0x1
 2380 033e 7003     		.2byte	0x370
 2381 0340 21020000 		.4byte	0x221
 2382 0344 CB000000 		.4byte	.LLST4
ARM GAS  C:\Users\strap\AppData\Local\Temp\ccjJjp6v.s 			page 64


 2383 0348 16       		.uleb128 0x16
 2384 0349 2B020000 		.4byte	.LASF52
 2385 034d 01       		.byte	0x1
 2386 034e 7103     		.2byte	0x371
 2387 0350 F7020000 		.4byte	0x2f7
 2388 0354 DE000000 		.4byte	.LLST5
 2389 0358 00       		.byte	0
 2390 0359 00       		.byte	0
 2391 035a 14       		.uleb128 0x14
 2392 035b 9E010000 		.4byte	.LASF54
 2393 035f 01       		.byte	0x1
 2394 0360 4903     		.2byte	0x349
 2395 0362 EF000000 		.4byte	0xef
 2396 0366 00000000 		.4byte	.LFB54
 2397 036a 30000000 		.4byte	.LFE54-.LFB54
 2398 036e 01       		.uleb128 0x1
 2399 036f 9C       		.byte	0x9c
 2400 0370 BA030000 		.4byte	0x3ba
 2401 0374 1A       		.uleb128 0x1a
 2402 0375 6500     		.ascii	"e\000"
 2403 0377 01       		.byte	0x1
 2404 0378 4903     		.2byte	0x349
 2405 037a F7020000 		.4byte	0x2f7
 2406 037e F6000000 		.4byte	.LLST6
 2407 0382 15       		.uleb128 0x15
 2408 0383 B9030000 		.4byte	.LASF36
 2409 0387 01       		.byte	0x1
 2410 0388 4903     		.2byte	0x349
 2411 038a F1000000 		.4byte	0xf1
 2412 038e 46010000 		.4byte	.LLST7
 2413 0392 16       		.uleb128 0x16
 2414 0393 9A020000 		.4byte	.LASF55
 2415 0397 01       		.byte	0x1
 2416 0398 4B03     		.2byte	0x34b
 2417 039a EF000000 		.4byte	0xef
 2418 039e 72010000 		.4byte	.LLST8
 2419 03a2 1B       		.uleb128 0x1b
 2420 03a3 1A000000 		.4byte	.LVL15
 2421 03a7 FD020000 		.4byte	0x2fd
 2422 03ab 1C       		.uleb128 0x1c
 2423 03ac 01       		.uleb128 0x1
 2424 03ad 50       		.byte	0x50
 2425 03ae 02       		.uleb128 0x2
 2426 03af 74       		.byte	0x74
 2427 03b0 00       		.sleb128 0
 2428 03b1 1C       		.uleb128 0x1c
 2429 03b2 01       		.uleb128 0x1
 2430 03b3 51       		.byte	0x51
 2431 03b4 03       		.uleb128 0x3
 2432 03b5 F3       		.byte	0xf3
 2433 03b6 01       		.uleb128 0x1
 2434 03b7 51       		.byte	0x51
 2435 03b8 00       		.byte	0
 2436 03b9 00       		.byte	0
 2437 03ba 1D       		.uleb128 0x1d
 2438 03bb 2B030000 		.4byte	.LASF58
 2439 03bf 01       		.byte	0x1
ARM GAS  C:\Users\strap\AppData\Local\Temp\ccjJjp6v.s 			page 65


 2440 03c0 74       		.byte	0x74
 2441 03c1 00000000 		.4byte	.LFB37
 2442 03c5 2C000000 		.4byte	.LFE37-.LFB37
 2443 03c9 01       		.uleb128 0x1
 2444 03ca 9C       		.byte	0x9c
 2445 03cb F3030000 		.4byte	0x3f3
 2446 03cf 1E       		.uleb128 0x1e
 2447 03d0 EE030000 		.4byte	.LASF56
 2448 03d4 01       		.byte	0x1
 2449 03d5 7A       		.byte	0x7a
 2450 03d6 F3030000 		.4byte	0x3f3
 2451 03da 05       		.uleb128 0x5
 2452 03db 03       		.byte	0x3
 2453 03dc 04000000 		.4byte	work_mem_int.5985
 2454 03e0 1E       		.uleb128 0x1e
 2455 03e1 D0030000 		.4byte	.LASF57
 2456 03e5 01       		.byte	0x1
 2457 03e6 81       		.byte	0x81
 2458 03e7 F7020000 		.4byte	0x2f7
 2459 03eb 06       		.uleb128 0x6
 2460 03ec 03       		.byte	0x3
 2461 03ed 04000000 		.4byte	work_mem_int.5985
 2462 03f1 9F       		.byte	0x9f
 2463 03f2 00       		.byte	0
 2464 03f3 0C       		.uleb128 0xc
 2465 03f4 CE000000 		.4byte	0xce
 2466 03f8 04040000 		.4byte	0x404
 2467 03fc 1F       		.uleb128 0x1f
 2468 03fd FA010000 		.4byte	0x1fa
 2469 0401 FF0F     		.2byte	0xfff
 2470 0403 00       		.byte	0
 2471 0404 20       		.uleb128 0x20
 2472 0405 E3000000 		.4byte	.LASF64
 2473 0409 01       		.byte	0x1
 2474 040a 9C       		.byte	0x9c
 2475 040b EF000000 		.4byte	0xef
 2476 040f 00000000 		.4byte	.LFB39
 2477 0413 68000000 		.4byte	.LFE39-.LFB39
 2478 0417 01       		.uleb128 0x1
 2479 0418 9C       		.byte	0x9c
 2480 0419 73040000 		.4byte	0x473
 2481 041d 21       		.uleb128 0x21
 2482 041e B9030000 		.4byte	.LASF36
 2483 0422 01       		.byte	0x1
 2484 0423 9C       		.byte	0x9c
 2485 0424 F1000000 		.4byte	0xf1
 2486 0428 9D010000 		.4byte	.LLST9
 2487 042c 22       		.uleb128 0x22
 2488 042d 9A020000 		.4byte	.LASF55
 2489 0431 01       		.byte	0x1
 2490 0432 A9       		.byte	0xa9
 2491 0433 EF000000 		.4byte	0xef
 2492 0437 05020000 		.4byte	.LLST10
 2493 043b 23       		.uleb128 0x23
 2494 043c 6500     		.ascii	"e\000"
 2495 043e 01       		.byte	0x1
 2496 043f AD       		.byte	0xad
ARM GAS  C:\Users\strap\AppData\Local\Temp\ccjJjp6v.s 			page 66


 2497 0440 F7020000 		.4byte	0x2f7
 2498 0444 3A020000 		.4byte	.LLST11
 2499 0448 24       		.uleb128 0x24
 2500 0449 16000000 		.4byte	.LVL25
 2501 044d A2020000 		.4byte	0x2a2
 2502 0451 5C040000 		.4byte	0x45c
 2503 0455 1C       		.uleb128 0x1c
 2504 0456 01       		.uleb128 0x1
 2505 0457 50       		.byte	0x50
 2506 0458 02       		.uleb128 0x2
 2507 0459 74       		.byte	0x74
 2508 045a 00       		.sleb128 0
 2509 045b 00       		.byte	0
 2510 045c 1B       		.uleb128 0x1b
 2511 045d 20000000 		.4byte	.LVL26
 2512 0461 5A030000 		.4byte	0x35a
 2513 0465 1C       		.uleb128 0x1c
 2514 0466 01       		.uleb128 0x1
 2515 0467 50       		.byte	0x50
 2516 0468 02       		.uleb128 0x2
 2517 0469 74       		.byte	0x74
 2518 046a 00       		.sleb128 0
 2519 046b 1C       		.uleb128 0x1c
 2520 046c 01       		.uleb128 0x1
 2521 046d 51       		.byte	0x51
 2522 046e 02       		.uleb128 0x2
 2523 046f 76       		.byte	0x76
 2524 0470 00       		.sleb128 0
 2525 0471 00       		.byte	0
 2526 0472 00       		.byte	0
 2527 0473 25       		.uleb128 0x25
 2528 0474 C5020000 		.4byte	.LASF59
 2529 0478 01       		.byte	0x1
 2530 0479 6101     		.2byte	0x161
 2531 047b 00000000 		.4byte	.LFB42
 2532 047f 54000000 		.4byte	.LFE42-.LFB42
 2533 0483 01       		.uleb128 0x1
 2534 0484 9C       		.byte	0x9c
 2535 0485 EE040000 		.4byte	0x4ee
 2536 0489 16       		.uleb128 0x16
 2537 048a 83020000 		.4byte	.LASF60
 2538 048e 01       		.byte	0x1
 2539 048f 6401     		.2byte	0x164
 2540 0491 F7020000 		.4byte	0x2f7
 2541 0495 7A020000 		.4byte	.LLST12
 2542 0499 16       		.uleb128 0x16
 2543 049a 12010000 		.4byte	.LASF61
 2544 049e 01       		.byte	0x1
 2545 049f 6501     		.2byte	0x165
 2546 04a1 F7020000 		.4byte	0x2f7
 2547 04a5 A3020000 		.4byte	.LLST13
 2548 04a9 24       		.uleb128 0x24
 2549 04aa 08000000 		.4byte	.LVL35
 2550 04ae A2020000 		.4byte	0x2a2
 2551 04b2 BC040000 		.4byte	0x4bc
 2552 04b6 1C       		.uleb128 0x1c
 2553 04b7 01       		.uleb128 0x1
ARM GAS  C:\Users\strap\AppData\Local\Temp\ccjJjp6v.s 			page 67


 2554 04b8 50       		.byte	0x50
 2555 04b9 01       		.uleb128 0x1
 2556 04ba 30       		.byte	0x30
 2557 04bb 00       		.byte	0
 2558 04bc 24       		.uleb128 0x24
 2559 04bd 1A000000 		.4byte	.LVL38
 2560 04c1 A2020000 		.4byte	0x2a2
 2561 04c5 D0040000 		.4byte	0x4d0
 2562 04c9 1C       		.uleb128 0x1c
 2563 04ca 01       		.uleb128 0x1
 2564 04cb 50       		.byte	0x50
 2565 04cc 02       		.uleb128 0x2
 2566 04cd 74       		.byte	0x74
 2567 04ce 00       		.sleb128 0
 2568 04cf 00       		.byte	0
 2569 04d0 24       		.uleb128 0x24
 2570 04d1 28000000 		.4byte	.LVL40
 2571 04d5 A2020000 		.4byte	0x2a2
 2572 04d9 E4040000 		.4byte	0x4e4
 2573 04dd 1C       		.uleb128 0x1c
 2574 04de 01       		.uleb128 0x1
 2575 04df 50       		.byte	0x50
 2576 04e0 02       		.uleb128 0x2
 2577 04e1 74       		.byte	0x74
 2578 04e2 00       		.sleb128 0
 2579 04e3 00       		.byte	0
 2580 04e4 26       		.uleb128 0x26
 2581 04e5 4A000000 		.4byte	.LVL41
 2582 04e9 A2020000 		.4byte	0x2a2
 2583 04ed 00       		.byte	0
 2584 04ee 1D       		.uleb128 0x1d
 2585 04ef D4040000 		.4byte	.LASF62
 2586 04f3 01       		.byte	0x1
 2587 04f4 E4       		.byte	0xe4
 2588 04f5 00000000 		.4byte	.LFB40
 2589 04f9 74000000 		.4byte	.LFE40-.LFB40
 2590 04fd 01       		.uleb128 0x1
 2591 04fe 9C       		.byte	0x9c
 2592 04ff 74050000 		.4byte	0x574
 2593 0503 21       		.uleb128 0x21
 2594 0504 E9030000 		.4byte	.LASF49
 2595 0508 01       		.byte	0x1
 2596 0509 E4       		.byte	0xe4
 2597 050a 13020000 		.4byte	0x213
 2598 050e C1020000 		.4byte	.LLST14
 2599 0512 23       		.uleb128 0x23
 2600 0513 6500     		.ascii	"e\000"
 2601 0515 01       		.byte	0x1
 2602 0516 EF       		.byte	0xef
 2603 0517 F7020000 		.4byte	0x2f7
 2604 051b EA020000 		.4byte	.LLST15
 2605 051f 1E       		.uleb128 0x1e
 2606 0520 F0000000 		.4byte	.LASF63
 2607 0524 01       		.byte	0x1
 2608 0525 F5       		.byte	0xf5
 2609 0526 C3000000 		.4byte	0xc3
 2610 052a 05       		.uleb128 0x5
ARM GAS  C:\Users\strap\AppData\Local\Temp\ccjJjp6v.s 			page 68


 2611 052b 03       		.byte	0x3
 2612 052c 0C400000 		.4byte	full_defrag_cnt.6002
 2613 0530 27       		.uleb128 0x27
 2614 0531 2C000000 		.4byte	.LBB4
 2615 0535 30000000 		.4byte	.LBE4-.LBB4
 2616 0539 6A050000 		.4byte	0x56a
 2617 053d 22       		.uleb128 0x22
 2618 053e 12010000 		.4byte	.LASF61
 2619 0542 01       		.byte	0x1
 2620 0543 FA       		.byte	0xfa
 2621 0544 F7020000 		.4byte	0x2f7
 2622 0548 22030000 		.4byte	.LLST16
 2623 054c 24       		.uleb128 0x24
 2624 054d 30000000 		.4byte	.LVL45
 2625 0551 A2020000 		.4byte	0x2a2
 2626 0555 60050000 		.4byte	0x560
 2627 0559 1C       		.uleb128 0x1c
 2628 055a 01       		.uleb128 0x1
 2629 055b 50       		.byte	0x50
 2630 055c 02       		.uleb128 0x2
 2631 055d 74       		.byte	0x74
 2632 055e 7C       		.sleb128 -4
 2633 055f 00       		.byte	0
 2634 0560 26       		.uleb128 0x26
 2635 0561 56000000 		.4byte	.LVL46
 2636 0565 A2020000 		.4byte	0x2a2
 2637 0569 00       		.byte	0
 2638 056a 26       		.uleb128 0x26
 2639 056b 68000000 		.4byte	.LVL48
 2640 056f 73040000 		.4byte	0x473
 2641 0573 00       		.byte	0
 2642 0574 28       		.uleb128 0x28
 2643 0575 6D030000 		.4byte	.LASF65
 2644 0579 01       		.byte	0x1
 2645 057a 8A01     		.2byte	0x18a
 2646 057c 1C010000 		.4byte	0x11c
 2647 0580 00000000 		.4byte	.LFB43
 2648 0584 3C000000 		.4byte	.LFE43-.LFB43
 2649 0588 01       		.uleb128 0x1
 2650 0589 9C       		.byte	0x9c
 2651 058a CE050000 		.4byte	0x5ce
 2652 058e 29       		.uleb128 0x29
 2653 058f 6500     		.ascii	"e\000"
 2654 0591 01       		.byte	0x1
 2655 0592 8D01     		.2byte	0x18d
 2656 0594 F7020000 		.4byte	0x2f7
 2657 0598 40030000 		.4byte	.LLST17
 2658 059c 2A       		.uleb128 0x2a
 2659 059d 00000000 		.4byte	.Ldebug_ranges0+0
 2660 05a1 BE050000 		.4byte	0x5be
 2661 05a5 29       		.uleb128 0x29
 2662 05a6 653800   		.ascii	"e8\000"
 2663 05a9 01       		.byte	0x1
 2664 05aa 9301     		.2byte	0x193
 2665 05ac 21020000 		.4byte	0x221
 2666 05b0 74030000 		.4byte	.LLST18
 2667 05b4 26       		.uleb128 0x26
ARM GAS  C:\Users\strap\AppData\Local\Temp\ccjJjp6v.s 			page 69


 2668 05b5 28000000 		.4byte	.LVL52
 2669 05b9 A2020000 		.4byte	0x2a2
 2670 05bd 00       		.byte	0
 2671 05be 1B       		.uleb128 0x1b
 2672 05bf 08000000 		.4byte	.LVL50
 2673 05c3 A2020000 		.4byte	0x2a2
 2674 05c7 1C       		.uleb128 0x1c
 2675 05c8 01       		.uleb128 0x1
 2676 05c9 50       		.byte	0x50
 2677 05ca 01       		.uleb128 0x1
 2678 05cb 30       		.byte	0x30
 2679 05cc 00       		.byte	0
 2680 05cd 00       		.byte	0
 2681 05ce 28       		.uleb128 0x28
 2682 05cf 84010000 		.4byte	.LASF66
 2683 05d3 01       		.byte	0x1
 2684 05d4 CF01     		.2byte	0x1cf
 2685 05d6 CE000000 		.4byte	0xce
 2686 05da 00000000 		.4byte	.LFB45
 2687 05de 20000000 		.4byte	.LFE45-.LFB45
 2688 05e2 01       		.uleb128 0x1
 2689 05e3 9C       		.byte	0x9c
 2690 05e4 07060000 		.4byte	0x607
 2691 05e8 15       		.uleb128 0x15
 2692 05e9 E9030000 		.4byte	.LASF49
 2693 05ed 01       		.byte	0x1
 2694 05ee CF01     		.2byte	0x1cf
 2695 05f0 13020000 		.4byte	0x213
 2696 05f4 92030000 		.4byte	.LLST19
 2697 05f8 29       		.uleb128 0x29
 2698 05f9 6500     		.ascii	"e\000"
 2699 05fb 01       		.byte	0x1
 2700 05fc D401     		.2byte	0x1d4
 2701 05fe F7020000 		.4byte	0x2f7
 2702 0602 E5030000 		.4byte	.LLST20
 2703 0606 00       		.byte	0
 2704 0607 25       		.uleb128 0x25
 2705 0608 FF010000 		.4byte	.LASF67
 2706 060c 01       		.byte	0x1
 2707 060d 2302     		.2byte	0x223
 2708 060f 00000000 		.4byte	.LFB47
 2709 0613 5C000000 		.4byte	.LFE47-.LFB47
 2710 0617 01       		.uleb128 0x1
 2711 0618 9C       		.byte	0x9c
 2712 0619 38060000 		.4byte	0x638
 2713 061d 19       		.uleb128 0x19
 2714 061e 7000     		.ascii	"p\000"
 2715 0620 01       		.byte	0x1
 2716 0621 2302     		.2byte	0x223
 2717 0623 EF000000 		.4byte	0xef
 2718 0627 01       		.uleb128 0x1
 2719 0628 50       		.byte	0x50
 2720 0629 29       		.uleb128 0x29
 2721 062a 6900     		.ascii	"i\000"
 2722 062c 01       		.byte	0x1
 2723 062d 2502     		.2byte	0x225
 2724 062f B8000000 		.4byte	0xb8
ARM GAS  C:\Users\strap\AppData\Local\Temp\ccjJjp6v.s 			page 70


 2725 0633 0A040000 		.4byte	.LLST21
 2726 0637 00       		.byte	0
 2727 0638 25       		.uleb128 0x25
 2728 0639 AF000000 		.4byte	.LASF68
 2729 063d 01       		.byte	0x1
 2730 063e 3C02     		.2byte	0x23c
 2731 0640 00000000 		.4byte	.LFB48
 2732 0644 54000000 		.4byte	.LFE48-.LFB48
 2733 0648 01       		.uleb128 0x1
 2734 0649 9C       		.byte	0x9c
 2735 064a 66060000 		.4byte	0x666
 2736 064e 29       		.uleb128 0x29
 2737 064f 6900     		.ascii	"i\000"
 2738 0651 01       		.byte	0x1
 2739 0652 3E02     		.2byte	0x23e
 2740 0654 B8000000 		.4byte	0xb8
 2741 0658 60040000 		.4byte	.LLST22
 2742 065c 26       		.uleb128 0x26
 2743 065d 2C000000 		.4byte	.LVL82
 2744 0661 EE040000 		.4byte	0x4ee
 2745 0665 00       		.byte	0
 2746 0666 28       		.uleb128 0x28
 2747 0667 D8000000 		.4byte	.LASF69
 2748 066b 01       		.byte	0x1
 2749 066c 5402     		.2byte	0x254
 2750 066e EF000000 		.4byte	0xef
 2751 0672 00000000 		.4byte	.LFB49
 2752 0676 22010000 		.4byte	.LFE49-.LFB49
 2753 067a 01       		.uleb128 0x1
 2754 067b 9C       		.byte	0x9c
 2755 067c 0D070000 		.4byte	0x70d
 2756 0680 19       		.uleb128 0x19
 2757 0681 64737400 		.ascii	"dst\000"
 2758 0685 01       		.byte	0x1
 2759 0686 5402     		.2byte	0x254
 2760 0688 EF000000 		.4byte	0xef
 2761 068c 01       		.uleb128 0x1
 2762 068d 50       		.byte	0x50
 2763 068e 1A       		.uleb128 0x1a
 2764 068f 73726300 		.ascii	"src\000"
 2765 0693 01       		.byte	0x1
 2766 0694 5402     		.2byte	0x254
 2767 0696 13020000 		.4byte	0x213
 2768 069a A0040000 		.4byte	.LLST23
 2769 069e 1A       		.uleb128 0x1a
 2770 069f 6C656E00 		.ascii	"len\000"
 2771 06a3 01       		.byte	0x1
 2772 06a4 5402     		.2byte	0x254
 2773 06a6 F1000000 		.4byte	0xf1
 2774 06aa 0C050000 		.4byte	.LLST24
 2775 06ae 29       		.uleb128 0x29
 2776 06af 643800   		.ascii	"d8\000"
 2777 06b2 01       		.byte	0x1
 2778 06b3 5602     		.2byte	0x256
 2779 06b5 21020000 		.4byte	0x221
 2780 06b9 2A050000 		.4byte	.LLST25
 2781 06bd 29       		.uleb128 0x29
ARM GAS  C:\Users\strap\AppData\Local\Temp\ccjJjp6v.s 			page 71


 2782 06be 733800   		.ascii	"s8\000"
 2783 06c1 01       		.byte	0x1
 2784 06c2 5702     		.2byte	0x257
 2785 06c4 08020000 		.4byte	0x208
 2786 06c8 33070000 		.4byte	.LLST26
 2787 06cc 16       		.uleb128 0x16
 2788 06cd 0F040000 		.4byte	.LASF70
 2789 06d1 01       		.byte	0x1
 2790 06d2 5902     		.2byte	0x259
 2791 06d4 27010000 		.4byte	0x127
 2792 06d8 37090000 		.4byte	.LLST27
 2793 06dc 16       		.uleb128 0x16
 2794 06dd 76020000 		.4byte	.LASF71
 2795 06e1 01       		.byte	0x1
 2796 06e2 5A02     		.2byte	0x25a
 2797 06e4 27010000 		.4byte	0x127
 2798 06e8 7E090000 		.4byte	.LLST28
 2799 06ec 29       		.uleb128 0x29
 2800 06ed 64333200 		.ascii	"d32\000"
 2801 06f1 01       		.byte	0x1
 2802 06f2 7702     		.2byte	0x277
 2803 06f4 0D070000 		.4byte	0x70d
 2804 06f8 100A0000 		.4byte	.LLST29
 2805 06fc 29       		.uleb128 0x29
 2806 06fd 73333200 		.ascii	"s32\000"
 2807 0701 01       		.byte	0x1
 2808 0702 7802     		.2byte	0x278
 2809 0704 13070000 		.4byte	0x713
 2810 0708 890A0000 		.4byte	.LLST30
 2811 070c 00       		.byte	0
 2812 070d 0E       		.uleb128 0xe
 2813 070e 04       		.byte	0x4
 2814 070f CE000000 		.4byte	0xce
 2815 0713 0E       		.uleb128 0xe
 2816 0714 04       		.byte	0x4
 2817 0715 19070000 		.4byte	0x719
 2818 0719 0F       		.uleb128 0xf
 2819 071a CE000000 		.4byte	0xce
 2820 071e 28       		.uleb128 0x28
 2821 071f 52030000 		.4byte	.LASF72
 2822 0723 01       		.byte	0x1
 2823 0724 2101     		.2byte	0x121
 2824 0726 EF000000 		.4byte	0xef
 2825 072a 00000000 		.4byte	.LFB41
 2826 072e 64000000 		.4byte	.LFE41-.LFB41
 2827 0732 01       		.uleb128 0x1
 2828 0733 9C       		.byte	0x9c
 2829 0734 33080000 		.4byte	0x833
 2830 0738 15       		.uleb128 0x15
 2831 0739 2C010000 		.4byte	.LASF73
 2832 073d 01       		.byte	0x1
 2833 073e 2101     		.2byte	0x121
 2834 0740 EF000000 		.4byte	0xef
 2835 0744 1A0B0000 		.4byte	.LLST31
 2836 0748 15       		.uleb128 0x15
 2837 0749 06040000 		.4byte	.LASF74
 2838 074d 01       		.byte	0x1
ARM GAS  C:\Users\strap\AppData\Local\Temp\ccjJjp6v.s 			page 72


 2839 074e 2101     		.2byte	0x121
 2840 0750 F1000000 		.4byte	0xf1
 2841 0754 380B0000 		.4byte	.LLST32
 2842 0758 16       		.uleb128 0x16
 2843 0759 C4000000 		.4byte	.LASF75
 2844 075d 01       		.byte	0x1
 2845 075e 3401     		.2byte	0x134
 2846 0760 CE000000 		.4byte	0xce
 2847 0764 630B0000 		.4byte	.LLST33
 2848 0768 16       		.uleb128 0x16
 2849 0769 D5030000 		.4byte	.LASF76
 2850 076d 01       		.byte	0x1
 2851 076e 4001     		.2byte	0x140
 2852 0770 EF000000 		.4byte	0xef
 2853 0774 AD0B0000 		.4byte	.LLST34
 2854 0778 27       		.uleb128 0x27
 2855 0779 0C000000 		.4byte	.LBB7
 2856 077d 0C000000 		.4byte	.LBE7-.LBB7
 2857 0781 94070000 		.4byte	0x794
 2858 0785 29       		.uleb128 0x29
 2859 0786 6500     		.ascii	"e\000"
 2860 0788 01       		.byte	0x1
 2861 0789 2E01     		.2byte	0x12e
 2862 078b F7020000 		.4byte	0x2f7
 2863 078f EC0B0000 		.4byte	.LLST35
 2864 0793 00       		.byte	0
 2865 0794 27       		.uleb128 0x27
 2866 0795 26000000 		.4byte	.LBB8
 2867 0799 0C000000 		.4byte	.LBE8-.LBB8
 2868 079d C6070000 		.4byte	0x7c6
 2869 07a1 29       		.uleb128 0x29
 2870 07a2 6500     		.ascii	"e\000"
 2871 07a4 01       		.byte	0x1
 2872 07a5 3A01     		.2byte	0x13a
 2873 07a7 F7020000 		.4byte	0x2f7
 2874 07ab 010C0000 		.4byte	.LLST36
 2875 07af 1B       		.uleb128 0x1b
 2876 07b0 2E000000 		.4byte	.LVL168
 2877 07b4 FD020000 		.4byte	0x2fd
 2878 07b8 1C       		.uleb128 0x1c
 2879 07b9 01       		.uleb128 0x1
 2880 07ba 50       		.byte	0x50
 2881 07bb 02       		.uleb128 0x2
 2882 07bc 74       		.byte	0x74
 2883 07bd 7C       		.sleb128 -4
 2884 07be 1C       		.uleb128 0x1c
 2885 07bf 01       		.uleb128 0x1
 2886 07c0 51       		.byte	0x51
 2887 07c1 02       		.uleb128 0x2
 2888 07c2 75       		.byte	0x75
 2889 07c3 00       		.sleb128 0
 2890 07c4 00       		.byte	0
 2891 07c5 00       		.byte	0
 2892 07c6 24       		.uleb128 0x24
 2893 07c7 1E000000 		.4byte	.LVL164
 2894 07cb CE050000 		.4byte	0x5ce
 2895 07cf DA070000 		.4byte	0x7da
ARM GAS  C:\Users\strap\AppData\Local\Temp\ccjJjp6v.s 			page 73


 2896 07d3 1C       		.uleb128 0x1c
 2897 07d4 01       		.uleb128 0x1
 2898 07d5 50       		.byte	0x50
 2899 07d6 02       		.uleb128 0x2
 2900 07d7 74       		.byte	0x74
 2901 07d8 00       		.sleb128 0
 2902 07d9 00       		.byte	0
 2903 07da 24       		.uleb128 0x24
 2904 07db 38000000 		.4byte	.LVL171
 2905 07df 04040000 		.4byte	0x404
 2906 07e3 EE070000 		.4byte	0x7ee
 2907 07e7 1C       		.uleb128 0x1c
 2908 07e8 01       		.uleb128 0x1
 2909 07e9 50       		.byte	0x50
 2910 07ea 02       		.uleb128 0x2
 2911 07eb 75       		.byte	0x75
 2912 07ec 00       		.sleb128 0
 2913 07ed 00       		.byte	0
 2914 07ee 24       		.uleb128 0x24
 2915 07ef 4E000000 		.4byte	.LVL172
 2916 07f3 66060000 		.4byte	0x666
 2917 07f7 22080000 		.4byte	0x822
 2918 07fb 1C       		.uleb128 0x1c
 2919 07fc 01       		.uleb128 0x1
 2920 07fd 50       		.byte	0x50
 2921 07fe 02       		.uleb128 0x2
 2922 07ff 77       		.byte	0x77
 2923 0800 00       		.sleb128 0
 2924 0801 1C       		.uleb128 0x1c
 2925 0802 01       		.uleb128 0x1
 2926 0803 51       		.byte	0x51
 2927 0804 02       		.uleb128 0x2
 2928 0805 74       		.byte	0x74
 2929 0806 00       		.sleb128 0
 2930 0807 1C       		.uleb128 0x1c
 2931 0808 01       		.uleb128 0x1
 2932 0809 52       		.byte	0x52
 2933 080a 16       		.uleb128 0x16
 2934 080b 76       		.byte	0x76
 2935 080c 00       		.sleb128 0
 2936 080d 75       		.byte	0x75
 2937 080e 00       		.sleb128 0
 2938 080f 75       		.byte	0x75
 2939 0810 00       		.sleb128 0
 2940 0811 40       		.byte	0x40
 2941 0812 4B       		.byte	0x4b
 2942 0813 24       		.byte	0x24
 2943 0814 22       		.byte	0x22
 2944 0815 76       		.byte	0x76
 2945 0816 00       		.sleb128 0
 2946 0817 40       		.byte	0x40
 2947 0818 4B       		.byte	0x4b
 2948 0819 24       		.byte	0x24
 2949 081a 22       		.byte	0x22
 2950 081b 2A       		.byte	0x2a
 2951 081c 28       		.byte	0x28
 2952 081d 0100     		.2byte	0x1
ARM GAS  C:\Users\strap\AppData\Local\Temp\ccjJjp6v.s 			page 74


 2953 081f 16       		.byte	0x16
 2954 0820 13       		.byte	0x13
 2955 0821 00       		.byte	0
 2956 0822 1B       		.uleb128 0x1b
 2957 0823 54000000 		.4byte	.LVL173
 2958 0827 EE040000 		.4byte	0x4ee
 2959 082b 1C       		.uleb128 0x1c
 2960 082c 01       		.uleb128 0x1
 2961 082d 50       		.byte	0x50
 2962 082e 02       		.uleb128 0x2
 2963 082f 74       		.byte	0x74
 2964 0830 00       		.sleb128 0
 2965 0831 00       		.byte	0
 2966 0832 00       		.byte	0
 2967 0833 28       		.uleb128 0x28
 2968 0834 87000000 		.4byte	.LASF77
 2969 0838 01       		.byte	0x1
 2970 0839 E601     		.2byte	0x1e6
 2971 083b EF000000 		.4byte	0xef
 2972 083f 00000000 		.4byte	.LFB46
 2973 0843 1C010000 		.4byte	.LFE46-.LFB46
 2974 0847 01       		.uleb128 0x1
 2975 0848 9C       		.byte	0x9c
 2976 0849 AF080000 		.4byte	0x8af
 2977 084d 15       		.uleb128 0x15
 2978 084e B9030000 		.4byte	.LASF36
 2979 0852 01       		.byte	0x1
 2980 0853 E601     		.2byte	0x1e6
 2981 0855 CE000000 		.4byte	0xce
 2982 0859 2E0C0000 		.4byte	.LLST37
 2983 085d 29       		.uleb128 0x29
 2984 085e 6900     		.ascii	"i\000"
 2985 0860 01       		.byte	0x1
 2986 0861 EB01     		.2byte	0x1eb
 2987 0863 B8000000 		.4byte	0xb8
 2988 0867 ED0C0000 		.4byte	.LLST38
 2989 086b 16       		.uleb128 0x16
 2990 086c 38030000 		.4byte	.LASF78
 2991 0870 01       		.byte	0x1
 2992 0871 F601     		.2byte	0x1f6
 2993 0873 AD000000 		.4byte	0xad
 2994 0877 630D0000 		.4byte	.LLST39
 2995 087b 26       		.uleb128 0x26
 2996 087c DA000000 		.4byte	.LVL206
 2997 0880 1E070000 		.4byte	0x71e
 2998 0884 24       		.uleb128 0x24
 2999 0885 EA000000 		.4byte	.LVL207
 3000 0889 350B0000 		.4byte	0xb35
 3001 088d 9B080000 		.4byte	0x89b
 3002 0891 1C       		.uleb128 0x1c
 3003 0892 01       		.uleb128 0x1
 3004 0893 50       		.byte	0x50
 3005 0894 05       		.uleb128 0x5
 3006 0895 03       		.byte	0x3
 3007 0896 00000000 		.4byte	.LC0
 3008 089a 00       		.byte	0
 3009 089b 1B       		.uleb128 0x1b
ARM GAS  C:\Users\strap\AppData\Local\Temp\ccjJjp6v.s 			page 75


 3010 089c 02010000 		.4byte	.LVL214
 3011 08a0 350B0000 		.4byte	0xb35
 3012 08a4 1C       		.uleb128 0x1c
 3013 08a5 01       		.uleb128 0x1
 3014 08a6 50       		.byte	0x50
 3015 08a7 05       		.uleb128 0x5
 3016 08a8 03       		.byte	0x3
 3017 08a9 54000000 		.4byte	.LC1
 3018 08ad 00       		.byte	0
 3019 08ae 00       		.byte	0
 3020 08af 25       		.uleb128 0x25
 3021 08b0 FB030000 		.4byte	.LASF79
 3022 08b4 01       		.byte	0x1
 3023 08b5 9402     		.2byte	0x294
 3024 08b7 00000000 		.4byte	.LFB50
 3025 08bb 5A000000 		.4byte	.LFE50-.LFB50
 3026 08bf 01       		.uleb128 0x1
 3027 08c0 9C       		.byte	0x9c
 3028 08c1 2F090000 		.4byte	0x92f
 3029 08c5 1A       		.uleb128 0x1a
 3030 08c6 64737400 		.ascii	"dst\000"
 3031 08ca 01       		.byte	0x1
 3032 08cb 9402     		.2byte	0x294
 3033 08cd EF000000 		.4byte	0xef
 3034 08d1 970D0000 		.4byte	.LLST40
 3035 08d5 19       		.uleb128 0x19
 3036 08d6 7600     		.ascii	"v\000"
 3037 08d8 01       		.byte	0x1
 3038 08d9 9402     		.2byte	0x294
 3039 08db B8000000 		.4byte	0xb8
 3040 08df 01       		.uleb128 0x1
 3041 08e0 51       		.byte	0x51
 3042 08e1 1A       		.uleb128 0x1a
 3043 08e2 6C656E00 		.ascii	"len\000"
 3044 08e6 01       		.byte	0x1
 3045 08e7 9402     		.2byte	0x294
 3046 08e9 F1000000 		.4byte	0xf1
 3047 08ed B80D0000 		.4byte	.LLST41
 3048 08f1 29       		.uleb128 0x29
 3049 08f2 643800   		.ascii	"d8\000"
 3050 08f5 01       		.byte	0x1
 3051 08f6 9702     		.2byte	0x297
 3052 08f8 21020000 		.4byte	0x221
 3053 08fc D60D0000 		.4byte	.LLST42
 3054 0900 16       		.uleb128 0x16
 3055 0901 0F040000 		.4byte	.LASF70
 3056 0905 01       		.byte	0x1
 3057 0906 9902     		.2byte	0x299
 3058 0908 E4000000 		.4byte	0xe4
 3059 090c F40D0000 		.4byte	.LLST43
 3060 0910 2B       		.uleb128 0x2b
 3061 0911 76333200 		.ascii	"v32\000"
 3062 0915 01       		.byte	0x1
 3063 0916 A602     		.2byte	0x2a6
 3064 0918 CE000000 		.4byte	0xce
 3065 091c 01       		.uleb128 0x1
 3066 091d 53       		.byte	0x53
ARM GAS  C:\Users\strap\AppData\Local\Temp\ccjJjp6v.s 			page 76


 3067 091e 29       		.uleb128 0x29
 3068 091f 64333200 		.ascii	"d32\000"
 3069 0923 01       		.byte	0x1
 3070 0924 A802     		.2byte	0x2a8
 3071 0926 0D070000 		.4byte	0x70d
 3072 092a 160E0000 		.4byte	.LLST44
 3073 092e 00       		.byte	0
 3074 092f 25       		.uleb128 0x25
 3075 0930 12000000 		.4byte	.LASF80
 3076 0934 01       		.byte	0x1
 3077 0935 A201     		.2byte	0x1a2
 3078 0937 00000000 		.4byte	.LFB44
 3079 093b 88000000 		.4byte	.LFE44-.LFB44
 3080 093f 01       		.uleb128 0x1
 3081 0940 9C       		.byte	0x9c
 3082 0941 9E090000 		.4byte	0x99e
 3083 0945 15       		.uleb128 0x15
 3084 0946 78000000 		.4byte	.LASF81
 3085 094a 01       		.byte	0x1
 3086 094b A201     		.2byte	0x1a2
 3087 094d 9E090000 		.4byte	0x99e
 3088 0951 8F0E0000 		.4byte	.LLST45
 3089 0955 29       		.uleb128 0x29
 3090 0956 6500     		.ascii	"e\000"
 3091 0958 01       		.byte	0x1
 3092 0959 A701     		.2byte	0x1a7
 3093 095b F7020000 		.4byte	0x2f7
 3094 095f BB0E0000 		.4byte	.LLST46
 3095 0963 24       		.uleb128 0x24
 3096 0964 0C000000 		.4byte	.LVL242
 3097 0968 AF080000 		.4byte	0x8af
 3098 096c 81090000 		.4byte	0x981
 3099 0970 1C       		.uleb128 0x1c
 3100 0971 01       		.uleb128 0x1
 3101 0972 50       		.byte	0x50
 3102 0973 02       		.uleb128 0x2
 3103 0974 74       		.byte	0x74
 3104 0975 00       		.sleb128 0
 3105 0976 1C       		.uleb128 0x1c
 3106 0977 01       		.uleb128 0x1
 3107 0978 51       		.byte	0x51
 3108 0979 01       		.uleb128 0x1
 3109 097a 30       		.byte	0x30
 3110 097b 1C       		.uleb128 0x1c
 3111 097c 01       		.uleb128 0x1
 3112 097d 52       		.byte	0x52
 3113 097e 01       		.uleb128 0x1
 3114 097f 4C       		.byte	0x4c
 3115 0980 00       		.byte	0
 3116 0981 24       		.uleb128 0x24
 3117 0982 12000000 		.4byte	.LVL243
 3118 0986 A2020000 		.4byte	0x2a2
 3119 098a 94090000 		.4byte	0x994
 3120 098e 1C       		.uleb128 0x1c
 3121 098f 01       		.uleb128 0x1
 3122 0990 50       		.byte	0x50
 3123 0991 01       		.uleb128 0x1
ARM GAS  C:\Users\strap\AppData\Local\Temp\ccjJjp6v.s 			page 77


 3124 0992 30       		.byte	0x30
 3125 0993 00       		.byte	0
 3126 0994 26       		.uleb128 0x26
 3127 0995 46000000 		.4byte	.LVL244
 3128 0999 A2020000 		.4byte	0x2a2
 3129 099d 00       		.byte	0
 3130 099e 0E       		.uleb128 0xe
 3131 099f 04       		.byte	0x4
 3132 09a0 9B010000 		.4byte	0x19b
 3133 09a4 25       		.uleb128 0x25
 3134 09a5 DB030000 		.4byte	.LASF82
 3135 09a9 01       		.byte	0x1
 3136 09aa C902     		.2byte	0x2c9
 3137 09ac 00000000 		.4byte	.LFB51
 3138 09b0 56000000 		.4byte	.LFE51-.LFB51
 3139 09b4 01       		.uleb128 0x1
 3140 09b5 9C       		.byte	0x9c
 3141 09b6 0A0A0000 		.4byte	0xa0a
 3142 09ba 1A       		.uleb128 0x1a
 3143 09bb 64737400 		.ascii	"dst\000"
 3144 09bf 01       		.byte	0x1
 3145 09c0 C902     		.2byte	0x2c9
 3146 09c2 EF000000 		.4byte	0xef
 3147 09c6 E50E0000 		.4byte	.LLST47
 3148 09ca 1A       		.uleb128 0x1a
 3149 09cb 6C656E00 		.ascii	"len\000"
 3150 09cf 01       		.byte	0x1
 3151 09d0 C902     		.2byte	0x2c9
 3152 09d2 F1000000 		.4byte	0xf1
 3153 09d6 060F0000 		.4byte	.LLST48
 3154 09da 29       		.uleb128 0x29
 3155 09db 643800   		.ascii	"d8\000"
 3156 09de 01       		.byte	0x1
 3157 09df CB02     		.2byte	0x2cb
 3158 09e1 21020000 		.4byte	0x221
 3159 09e5 240F0000 		.4byte	.LLST49
 3160 09e9 16       		.uleb128 0x16
 3161 09ea 0F040000 		.4byte	.LASF70
 3162 09ee 01       		.byte	0x1
 3163 09ef CC02     		.2byte	0x2cc
 3164 09f1 E4000000 		.4byte	0xe4
 3165 09f5 420F0000 		.4byte	.LLST50
 3166 09f9 29       		.uleb128 0x29
 3167 09fa 64333200 		.ascii	"d32\000"
 3168 09fe 01       		.byte	0x1
 3169 09ff DA02     		.2byte	0x2da
 3170 0a01 0D070000 		.4byte	0x70d
 3171 0a05 640F0000 		.4byte	.LLST51
 3172 0a09 00       		.byte	0
 3173 0a0a 1D       		.uleb128 0x1d
 3174 0a0b 21000000 		.4byte	.LASF83
 3175 0a0f 01       		.byte	0x1
 3176 0a10 8C       		.byte	0x8c
 3177 0a11 00000000 		.4byte	.LFB38
 3178 0a15 2C000000 		.4byte	.LFE38-.LFB38
 3179 0a19 01       		.uleb128 0x1
 3180 0a1a 9C       		.byte	0x9c
ARM GAS  C:\Users\strap\AppData\Local\Temp\ccjJjp6v.s 			page 78


 3181 0a1b 3E0A0000 		.4byte	0xa3e
 3182 0a1f 1E       		.uleb128 0x1e
 3183 0a20 D0030000 		.4byte	.LASF57
 3184 0a24 01       		.byte	0x1
 3185 0a25 90       		.byte	0x90
 3186 0a26 F7020000 		.4byte	0x2f7
 3187 0a2a 01       		.uleb128 0x1
 3188 0a2b 53       		.byte	0x53
 3189 0a2c 1B       		.uleb128 0x1b
 3190 0a2d 0E000000 		.4byte	.LVL269
 3191 0a31 A4090000 		.4byte	0x9a4
 3192 0a35 1C       		.uleb128 0x1c
 3193 0a36 01       		.uleb128 0x1
 3194 0a37 51       		.byte	0x51
 3195 0a38 03       		.uleb128 0x3
 3196 0a39 0A       		.byte	0xa
 3197 0a3a 0040     		.2byte	0x4000
 3198 0a3c 00       		.byte	0
 3199 0a3d 00       		.byte	0
 3200 0a3e 25       		.uleb128 0x25
 3201 0a3f 68020000 		.4byte	.LASF84
 3202 0a43 01       		.byte	0x1
 3203 0a44 FA02     		.2byte	0x2fa
 3204 0a46 00000000 		.4byte	.LFB52
 3205 0a4a 5A000000 		.4byte	.LFE52-.LFB52
 3206 0a4e 01       		.uleb128 0x1
 3207 0a4f 9C       		.byte	0x9c
 3208 0a50 A40A0000 		.4byte	0xaa4
 3209 0a54 1A       		.uleb128 0x1a
 3210 0a55 64737400 		.ascii	"dst\000"
 3211 0a59 01       		.byte	0x1
 3212 0a5a FA02     		.2byte	0x2fa
 3213 0a5c EF000000 		.4byte	0xef
 3214 0a60 DD0F0000 		.4byte	.LLST52
 3215 0a64 1A       		.uleb128 0x1a
 3216 0a65 6C656E00 		.ascii	"len\000"
 3217 0a69 01       		.byte	0x1
 3218 0a6a FA02     		.2byte	0x2fa
 3219 0a6c F1000000 		.4byte	0xf1
 3220 0a70 FE0F0000 		.4byte	.LLST53
 3221 0a74 29       		.uleb128 0x29
 3222 0a75 643800   		.ascii	"d8\000"
 3223 0a78 01       		.byte	0x1
 3224 0a79 FC02     		.2byte	0x2fc
 3225 0a7b 21020000 		.4byte	0x221
 3226 0a7f 1C100000 		.4byte	.LLST54
 3227 0a83 16       		.uleb128 0x16
 3228 0a84 0F040000 		.4byte	.LASF70
 3229 0a88 01       		.byte	0x1
 3230 0a89 FD02     		.2byte	0x2fd
 3231 0a8b E4000000 		.4byte	0xe4
 3232 0a8f 3A100000 		.4byte	.LLST55
 3233 0a93 29       		.uleb128 0x29
 3234 0a94 64333200 		.ascii	"d32\000"
 3235 0a98 01       		.byte	0x1
 3236 0a99 0B03     		.2byte	0x30b
 3237 0a9b 0D070000 		.4byte	0x70d
ARM GAS  C:\Users\strap\AppData\Local\Temp\ccjJjp6v.s 			page 79


 3238 0a9f 5C100000 		.4byte	.LLST56
 3239 0aa3 00       		.byte	0
 3240 0aa4 1E       		.uleb128 0x1e
 3241 0aa5 B2040000 		.4byte	.LASF85
 3242 0aa9 01       		.byte	0x1
 3243 0aaa 54       		.byte	0x54
 3244 0aab 21020000 		.4byte	0x221
 3245 0aaf 05       		.uleb128 0x5
 3246 0ab0 03       		.byte	0x3
 3247 0ab1 00000000 		.4byte	work_mem
 3248 0ab5 1E       		.uleb128 0x1e
 3249 0ab6 CB040000 		.4byte	.LASF86
 3250 0aba 01       		.byte	0x1
 3251 0abb 57       		.byte	0x57
 3252 0abc CE000000 		.4byte	0xce
 3253 0ac0 05       		.uleb128 0x5
 3254 0ac1 03       		.byte	0x3
 3255 0ac2 08400000 		.4byte	zero_mem
 3256 0ac6 1E       		.uleb128 0x1e
 3257 0ac7 E1020000 		.4byte	.LASF87
 3258 0acb 01       		.byte	0x1
 3259 0acc 5A       		.byte	0x5a
 3260 0acd CE000000 		.4byte	0xce
 3261 0ad1 05       		.uleb128 0x5
 3262 0ad2 03       		.byte	0x3
 3263 0ad3 04400000 		.4byte	mem_max_size
 3264 0ad7 0C       		.uleb128 0xc
 3265 0ad8 B8000000 		.4byte	0xb8
 3266 0adc E70A0000 		.4byte	0xae7
 3267 0ae0 0D       		.uleb128 0xd
 3268 0ae1 FA010000 		.4byte	0x1fa
 3269 0ae5 0F       		.byte	0xf
 3270 0ae6 00       		.byte	0
 3271 0ae7 1E       		.uleb128 0x1e
 3272 0ae8 D2010000 		.4byte	.LASF88
 3273 0aec 01       		.byte	0x1
 3274 0aed 5D       		.byte	0x5d
 3275 0aee D70A0000 		.4byte	0xad7
 3276 0af2 05       		.uleb128 0x5
 3277 0af3 03       		.byte	0x3
 3278 0af4 20400000 		.4byte	mem_buf1_32
 3279 0af8 1E       		.uleb128 0x1e
 3280 0af9 EE020000 		.4byte	.LASF89
 3281 0afd 01       		.byte	0x1
 3282 0afe 5E       		.byte	0x5e
 3283 0aff D70A0000 		.4byte	0xad7
 3284 0b03 05       		.uleb128 0x5
 3285 0b04 03       		.byte	0x3
 3286 0b05 10400000 		.4byte	mem_buf2_32
 3287 0b09 0C       		.uleb128 0xc
 3288 0b0a D4010000 		.4byte	0x1d4
 3289 0b0e 190B0000 		.4byte	0xb19
 3290 0b12 0D       		.uleb128 0xd
 3291 0b13 FA010000 		.4byte	0x1fa
 3292 0b17 01       		.byte	0x1
 3293 0b18 00       		.byte	0
 3294 0b19 1E       		.uleb128 0x1e
ARM GAS  C:\Users\strap\AppData\Local\Temp\ccjJjp6v.s 			page 80


 3295 0b1a 37020000 		.4byte	.LASF90
 3296 0b1e 01       		.byte	0x1
 3297 0b1f 60       		.byte	0x60
 3298 0b20 090B0000 		.4byte	0xb09
 3299 0b24 05       		.uleb128 0x5
 3300 0b25 03       		.byte	0x3
 3301 0b26 00000000 		.4byte	mem_buf_small
 3302 0b2a 2C       		.uleb128 0x2c
 3303 0b2b 3F010000 		.4byte	.LASF95
 3304 0b2f 07       		.byte	0x7
 3305 0b30 3B       		.byte	0x3b
 3306 0b31 DF010000 		.4byte	0x1df
 3307 0b35 2D       		.uleb128 0x2d
 3308 0b36 B5010000 		.4byte	.LASF96
 3309 0b3a B5010000 		.4byte	.LASF96
 3310 0b3e 08       		.byte	0x8
 3311 0b3f 26       		.byte	0x26
 3312 0b40 00       		.byte	0
 3313              		.section	.debug_abbrev,"",%progbits
 3314              	.Ldebug_abbrev0:
 3315 0000 01       		.uleb128 0x1
 3316 0001 11       		.uleb128 0x11
 3317 0002 01       		.byte	0x1
 3318 0003 25       		.uleb128 0x25
 3319 0004 0E       		.uleb128 0xe
 3320 0005 13       		.uleb128 0x13
 3321 0006 0B       		.uleb128 0xb
 3322 0007 03       		.uleb128 0x3
 3323 0008 0E       		.uleb128 0xe
 3324 0009 1B       		.uleb128 0x1b
 3325 000a 0E       		.uleb128 0xe
 3326 000b 55       		.uleb128 0x55
 3327 000c 17       		.uleb128 0x17
 3328 000d 11       		.uleb128 0x11
 3329 000e 01       		.uleb128 0x1
 3330 000f 10       		.uleb128 0x10
 3331 0010 17       		.uleb128 0x17
 3332 0011 00       		.byte	0
 3333 0012 00       		.byte	0
 3334 0013 02       		.uleb128 0x2
 3335 0014 16       		.uleb128 0x16
 3336 0015 00       		.byte	0
 3337 0016 03       		.uleb128 0x3
 3338 0017 0E       		.uleb128 0xe
 3339 0018 3A       		.uleb128 0x3a
 3340 0019 0B       		.uleb128 0xb
 3341 001a 3B       		.uleb128 0x3b
 3342 001b 0B       		.uleb128 0xb
 3343 001c 49       		.uleb128 0x49
 3344 001d 13       		.uleb128 0x13
 3345 001e 00       		.byte	0
 3346 001f 00       		.byte	0
 3347 0020 03       		.uleb128 0x3
 3348 0021 24       		.uleb128 0x24
 3349 0022 00       		.byte	0
 3350 0023 0B       		.uleb128 0xb
 3351 0024 0B       		.uleb128 0xb
ARM GAS  C:\Users\strap\AppData\Local\Temp\ccjJjp6v.s 			page 81


 3352 0025 3E       		.uleb128 0x3e
 3353 0026 0B       		.uleb128 0xb
 3354 0027 03       		.uleb128 0x3
 3355 0028 0E       		.uleb128 0xe
 3356 0029 00       		.byte	0
 3357 002a 00       		.byte	0
 3358 002b 04       		.uleb128 0x4
 3359 002c 24       		.uleb128 0x24
 3360 002d 00       		.byte	0
 3361 002e 0B       		.uleb128 0xb
 3362 002f 0B       		.uleb128 0xb
 3363 0030 3E       		.uleb128 0x3e
 3364 0031 0B       		.uleb128 0xb
 3365 0032 03       		.uleb128 0x3
 3366 0033 08       		.uleb128 0x8
 3367 0034 00       		.byte	0
 3368 0035 00       		.byte	0
 3369 0036 05       		.uleb128 0x5
 3370 0037 0F       		.uleb128 0xf
 3371 0038 00       		.byte	0
 3372 0039 0B       		.uleb128 0xb
 3373 003a 0B       		.uleb128 0xb
 3374 003b 00       		.byte	0
 3375 003c 00       		.byte	0
 3376 003d 06       		.uleb128 0x6
 3377 003e 04       		.uleb128 0x4
 3378 003f 01       		.byte	0x1
 3379 0040 0B       		.uleb128 0xb
 3380 0041 0B       		.uleb128 0xb
 3381 0042 49       		.uleb128 0x49
 3382 0043 13       		.uleb128 0x13
 3383 0044 3A       		.uleb128 0x3a
 3384 0045 0B       		.uleb128 0xb
 3385 0046 3B       		.uleb128 0x3b
 3386 0047 0B       		.uleb128 0xb
 3387 0048 01       		.uleb128 0x1
 3388 0049 13       		.uleb128 0x13
 3389 004a 00       		.byte	0
 3390 004b 00       		.byte	0
 3391 004c 07       		.uleb128 0x7
 3392 004d 28       		.uleb128 0x28
 3393 004e 00       		.byte	0
 3394 004f 03       		.uleb128 0x3
 3395 0050 0E       		.uleb128 0xe
 3396 0051 1C       		.uleb128 0x1c
 3397 0052 0B       		.uleb128 0xb
 3398 0053 00       		.byte	0
 3399 0054 00       		.byte	0
 3400 0055 08       		.uleb128 0x8
 3401 0056 13       		.uleb128 0x13
 3402 0057 01       		.byte	0x1
 3403 0058 0B       		.uleb128 0xb
 3404 0059 0B       		.uleb128 0xb
 3405 005a 3A       		.uleb128 0x3a
 3406 005b 0B       		.uleb128 0xb
 3407 005c 3B       		.uleb128 0x3b
 3408 005d 0B       		.uleb128 0xb
ARM GAS  C:\Users\strap\AppData\Local\Temp\ccjJjp6v.s 			page 82


 3409 005e 01       		.uleb128 0x1
 3410 005f 13       		.uleb128 0x13
 3411 0060 00       		.byte	0
 3412 0061 00       		.byte	0
 3413 0062 09       		.uleb128 0x9
 3414 0063 0D       		.uleb128 0xd
 3415 0064 00       		.byte	0
 3416 0065 03       		.uleb128 0x3
 3417 0066 0E       		.uleb128 0xe
 3418 0067 3A       		.uleb128 0x3a
 3419 0068 0B       		.uleb128 0xb
 3420 0069 3B       		.uleb128 0x3b
 3421 006a 0B       		.uleb128 0xb
 3422 006b 49       		.uleb128 0x49
 3423 006c 13       		.uleb128 0x13
 3424 006d 38       		.uleb128 0x38
 3425 006e 0B       		.uleb128 0xb
 3426 006f 00       		.byte	0
 3427 0070 00       		.byte	0
 3428 0071 0A       		.uleb128 0xa
 3429 0072 0D       		.uleb128 0xd
 3430 0073 00       		.byte	0
 3431 0074 03       		.uleb128 0x3
 3432 0075 08       		.uleb128 0x8
 3433 0076 3A       		.uleb128 0x3a
 3434 0077 0B       		.uleb128 0xb
 3435 0078 3B       		.uleb128 0x3b
 3436 0079 0B       		.uleb128 0xb
 3437 007a 49       		.uleb128 0x49
 3438 007b 13       		.uleb128 0x13
 3439 007c 38       		.uleb128 0x38
 3440 007d 0B       		.uleb128 0xb
 3441 007e 00       		.byte	0
 3442 007f 00       		.byte	0
 3443 0080 0B       		.uleb128 0xb
 3444 0081 0D       		.uleb128 0xd
 3445 0082 00       		.byte	0
 3446 0083 03       		.uleb128 0x3
 3447 0084 0E       		.uleb128 0xe
 3448 0085 3A       		.uleb128 0x3a
 3449 0086 0B       		.uleb128 0xb
 3450 0087 3B       		.uleb128 0x3b
 3451 0088 0B       		.uleb128 0xb
 3452 0089 49       		.uleb128 0x49
 3453 008a 13       		.uleb128 0x13
 3454 008b 0B       		.uleb128 0xb
 3455 008c 0B       		.uleb128 0xb
 3456 008d 0D       		.uleb128 0xd
 3457 008e 0B       		.uleb128 0xb
 3458 008f 0C       		.uleb128 0xc
 3459 0090 0B       		.uleb128 0xb
 3460 0091 38       		.uleb128 0x38
 3461 0092 0B       		.uleb128 0xb
 3462 0093 00       		.byte	0
 3463 0094 00       		.byte	0
 3464 0095 0C       		.uleb128 0xc
 3465 0096 01       		.uleb128 0x1
ARM GAS  C:\Users\strap\AppData\Local\Temp\ccjJjp6v.s 			page 83


 3466 0097 01       		.byte	0x1
 3467 0098 49       		.uleb128 0x49
 3468 0099 13       		.uleb128 0x13
 3469 009a 01       		.uleb128 0x1
 3470 009b 13       		.uleb128 0x13
 3471 009c 00       		.byte	0
 3472 009d 00       		.byte	0
 3473 009e 0D       		.uleb128 0xd
 3474 009f 21       		.uleb128 0x21
 3475 00a0 00       		.byte	0
 3476 00a1 49       		.uleb128 0x49
 3477 00a2 13       		.uleb128 0x13
 3478 00a3 2F       		.uleb128 0x2f
 3479 00a4 0B       		.uleb128 0xb
 3480 00a5 00       		.byte	0
 3481 00a6 00       		.byte	0
 3482 00a7 0E       		.uleb128 0xe
 3483 00a8 0F       		.uleb128 0xf
 3484 00a9 00       		.byte	0
 3485 00aa 0B       		.uleb128 0xb
 3486 00ab 0B       		.uleb128 0xb
 3487 00ac 49       		.uleb128 0x49
 3488 00ad 13       		.uleb128 0x13
 3489 00ae 00       		.byte	0
 3490 00af 00       		.byte	0
 3491 00b0 0F       		.uleb128 0xf
 3492 00b1 26       		.uleb128 0x26
 3493 00b2 00       		.byte	0
 3494 00b3 49       		.uleb128 0x49
 3495 00b4 13       		.uleb128 0x13
 3496 00b5 00       		.byte	0
 3497 00b6 00       		.byte	0
 3498 00b7 10       		.uleb128 0x10
 3499 00b8 26       		.uleb128 0x26
 3500 00b9 00       		.byte	0
 3501 00ba 00       		.byte	0
 3502 00bb 00       		.byte	0
 3503 00bc 11       		.uleb128 0x11
 3504 00bd 17       		.uleb128 0x17
 3505 00be 01       		.byte	0x1
 3506 00bf 0B       		.uleb128 0xb
 3507 00c0 0B       		.uleb128 0xb
 3508 00c1 3A       		.uleb128 0x3a
 3509 00c2 0B       		.uleb128 0xb
 3510 00c3 3B       		.uleb128 0x3b
 3511 00c4 0B       		.uleb128 0xb
 3512 00c5 01       		.uleb128 0x1
 3513 00c6 13       		.uleb128 0x13
 3514 00c7 00       		.byte	0
 3515 00c8 00       		.byte	0
 3516 00c9 12       		.uleb128 0x12
 3517 00ca 0D       		.uleb128 0xd
 3518 00cb 00       		.byte	0
 3519 00cc 03       		.uleb128 0x3
 3520 00cd 08       		.uleb128 0x8
 3521 00ce 3A       		.uleb128 0x3a
 3522 00cf 0B       		.uleb128 0xb
ARM GAS  C:\Users\strap\AppData\Local\Temp\ccjJjp6v.s 			page 84


 3523 00d0 3B       		.uleb128 0x3b
 3524 00d1 0B       		.uleb128 0xb
 3525 00d2 49       		.uleb128 0x49
 3526 00d3 13       		.uleb128 0x13
 3527 00d4 00       		.byte	0
 3528 00d5 00       		.byte	0
 3529 00d6 13       		.uleb128 0x13
 3530 00d7 0D       		.uleb128 0xd
 3531 00d8 00       		.byte	0
 3532 00d9 03       		.uleb128 0x3
 3533 00da 0E       		.uleb128 0xe
 3534 00db 3A       		.uleb128 0x3a
 3535 00dc 0B       		.uleb128 0xb
 3536 00dd 3B       		.uleb128 0x3b
 3537 00de 0B       		.uleb128 0xb
 3538 00df 49       		.uleb128 0x49
 3539 00e0 13       		.uleb128 0x13
 3540 00e1 00       		.byte	0
 3541 00e2 00       		.byte	0
 3542 00e3 14       		.uleb128 0x14
 3543 00e4 2E       		.uleb128 0x2e
 3544 00e5 01       		.byte	0x1
 3545 00e6 03       		.uleb128 0x3
 3546 00e7 0E       		.uleb128 0xe
 3547 00e8 3A       		.uleb128 0x3a
 3548 00e9 0B       		.uleb128 0xb
 3549 00ea 3B       		.uleb128 0x3b
 3550 00eb 05       		.uleb128 0x5
 3551 00ec 27       		.uleb128 0x27
 3552 00ed 19       		.uleb128 0x19
 3553 00ee 49       		.uleb128 0x49
 3554 00ef 13       		.uleb128 0x13
 3555 00f0 11       		.uleb128 0x11
 3556 00f1 01       		.uleb128 0x1
 3557 00f2 12       		.uleb128 0x12
 3558 00f3 06       		.uleb128 0x6
 3559 00f4 40       		.uleb128 0x40
 3560 00f5 18       		.uleb128 0x18
 3561 00f6 9742     		.uleb128 0x2117
 3562 00f8 19       		.uleb128 0x19
 3563 00f9 01       		.uleb128 0x1
 3564 00fa 13       		.uleb128 0x13
 3565 00fb 00       		.byte	0
 3566 00fc 00       		.byte	0
 3567 00fd 15       		.uleb128 0x15
 3568 00fe 05       		.uleb128 0x5
 3569 00ff 00       		.byte	0
 3570 0100 03       		.uleb128 0x3
 3571 0101 0E       		.uleb128 0xe
 3572 0102 3A       		.uleb128 0x3a
 3573 0103 0B       		.uleb128 0xb
 3574 0104 3B       		.uleb128 0x3b
 3575 0105 05       		.uleb128 0x5
 3576 0106 49       		.uleb128 0x49
 3577 0107 13       		.uleb128 0x13
 3578 0108 02       		.uleb128 0x2
 3579 0109 17       		.uleb128 0x17
ARM GAS  C:\Users\strap\AppData\Local\Temp\ccjJjp6v.s 			page 85


 3580 010a 00       		.byte	0
 3581 010b 00       		.byte	0
 3582 010c 16       		.uleb128 0x16
 3583 010d 34       		.uleb128 0x34
 3584 010e 00       		.byte	0
 3585 010f 03       		.uleb128 0x3
 3586 0110 0E       		.uleb128 0xe
 3587 0111 3A       		.uleb128 0x3a
 3588 0112 0B       		.uleb128 0xb
 3589 0113 3B       		.uleb128 0x3b
 3590 0114 05       		.uleb128 0x5
 3591 0115 49       		.uleb128 0x49
 3592 0116 13       		.uleb128 0x13
 3593 0117 02       		.uleb128 0x2
 3594 0118 17       		.uleb128 0x17
 3595 0119 00       		.byte	0
 3596 011a 00       		.byte	0
 3597 011b 17       		.uleb128 0x17
 3598 011c 0B       		.uleb128 0xb
 3599 011d 01       		.byte	0x1
 3600 011e 11       		.uleb128 0x11
 3601 011f 01       		.uleb128 0x1
 3602 0120 12       		.uleb128 0x12
 3603 0121 06       		.uleb128 0x6
 3604 0122 00       		.byte	0
 3605 0123 00       		.byte	0
 3606 0124 18       		.uleb128 0x18
 3607 0125 2E       		.uleb128 0x2e
 3608 0126 01       		.byte	0x1
 3609 0127 03       		.uleb128 0x3
 3610 0128 0E       		.uleb128 0xe
 3611 0129 3A       		.uleb128 0x3a
 3612 012a 0B       		.uleb128 0xb
 3613 012b 3B       		.uleb128 0x3b
 3614 012c 05       		.uleb128 0x5
 3615 012d 27       		.uleb128 0x27
 3616 012e 19       		.uleb128 0x19
 3617 012f 11       		.uleb128 0x11
 3618 0130 01       		.uleb128 0x1
 3619 0131 12       		.uleb128 0x12
 3620 0132 06       		.uleb128 0x6
 3621 0133 40       		.uleb128 0x40
 3622 0134 18       		.uleb128 0x18
 3623 0135 9742     		.uleb128 0x2117
 3624 0137 19       		.uleb128 0x19
 3625 0138 01       		.uleb128 0x1
 3626 0139 13       		.uleb128 0x13
 3627 013a 00       		.byte	0
 3628 013b 00       		.byte	0
 3629 013c 19       		.uleb128 0x19
 3630 013d 05       		.uleb128 0x5
 3631 013e 00       		.byte	0
 3632 013f 03       		.uleb128 0x3
 3633 0140 08       		.uleb128 0x8
 3634 0141 3A       		.uleb128 0x3a
 3635 0142 0B       		.uleb128 0xb
 3636 0143 3B       		.uleb128 0x3b
ARM GAS  C:\Users\strap\AppData\Local\Temp\ccjJjp6v.s 			page 86


 3637 0144 05       		.uleb128 0x5
 3638 0145 49       		.uleb128 0x49
 3639 0146 13       		.uleb128 0x13
 3640 0147 02       		.uleb128 0x2
 3641 0148 18       		.uleb128 0x18
 3642 0149 00       		.byte	0
 3643 014a 00       		.byte	0
 3644 014b 1A       		.uleb128 0x1a
 3645 014c 05       		.uleb128 0x5
 3646 014d 00       		.byte	0
 3647 014e 03       		.uleb128 0x3
 3648 014f 08       		.uleb128 0x8
 3649 0150 3A       		.uleb128 0x3a
 3650 0151 0B       		.uleb128 0xb
 3651 0152 3B       		.uleb128 0x3b
 3652 0153 05       		.uleb128 0x5
 3653 0154 49       		.uleb128 0x49
 3654 0155 13       		.uleb128 0x13
 3655 0156 02       		.uleb128 0x2
 3656 0157 17       		.uleb128 0x17
 3657 0158 00       		.byte	0
 3658 0159 00       		.byte	0
 3659 015a 1B       		.uleb128 0x1b
 3660 015b 898201   		.uleb128 0x4109
 3661 015e 01       		.byte	0x1
 3662 015f 11       		.uleb128 0x11
 3663 0160 01       		.uleb128 0x1
 3664 0161 31       		.uleb128 0x31
 3665 0162 13       		.uleb128 0x13
 3666 0163 00       		.byte	0
 3667 0164 00       		.byte	0
 3668 0165 1C       		.uleb128 0x1c
 3669 0166 8A8201   		.uleb128 0x410a
 3670 0169 00       		.byte	0
 3671 016a 02       		.uleb128 0x2
 3672 016b 18       		.uleb128 0x18
 3673 016c 9142     		.uleb128 0x2111
 3674 016e 18       		.uleb128 0x18
 3675 016f 00       		.byte	0
 3676 0170 00       		.byte	0
 3677 0171 1D       		.uleb128 0x1d
 3678 0172 2E       		.uleb128 0x2e
 3679 0173 01       		.byte	0x1
 3680 0174 3F       		.uleb128 0x3f
 3681 0175 19       		.uleb128 0x19
 3682 0176 03       		.uleb128 0x3
 3683 0177 0E       		.uleb128 0xe
 3684 0178 3A       		.uleb128 0x3a
 3685 0179 0B       		.uleb128 0xb
 3686 017a 3B       		.uleb128 0x3b
 3687 017b 0B       		.uleb128 0xb
 3688 017c 27       		.uleb128 0x27
 3689 017d 19       		.uleb128 0x19
 3690 017e 11       		.uleb128 0x11
 3691 017f 01       		.uleb128 0x1
 3692 0180 12       		.uleb128 0x12
 3693 0181 06       		.uleb128 0x6
ARM GAS  C:\Users\strap\AppData\Local\Temp\ccjJjp6v.s 			page 87


 3694 0182 40       		.uleb128 0x40
 3695 0183 18       		.uleb128 0x18
 3696 0184 9742     		.uleb128 0x2117
 3697 0186 19       		.uleb128 0x19
 3698 0187 01       		.uleb128 0x1
 3699 0188 13       		.uleb128 0x13
 3700 0189 00       		.byte	0
 3701 018a 00       		.byte	0
 3702 018b 1E       		.uleb128 0x1e
 3703 018c 34       		.uleb128 0x34
 3704 018d 00       		.byte	0
 3705 018e 03       		.uleb128 0x3
 3706 018f 0E       		.uleb128 0xe
 3707 0190 3A       		.uleb128 0x3a
 3708 0191 0B       		.uleb128 0xb
 3709 0192 3B       		.uleb128 0x3b
 3710 0193 0B       		.uleb128 0xb
 3711 0194 49       		.uleb128 0x49
 3712 0195 13       		.uleb128 0x13
 3713 0196 02       		.uleb128 0x2
 3714 0197 18       		.uleb128 0x18
 3715 0198 00       		.byte	0
 3716 0199 00       		.byte	0
 3717 019a 1F       		.uleb128 0x1f
 3718 019b 21       		.uleb128 0x21
 3719 019c 00       		.byte	0
 3720 019d 49       		.uleb128 0x49
 3721 019e 13       		.uleb128 0x13
 3722 019f 2F       		.uleb128 0x2f
 3723 01a0 05       		.uleb128 0x5
 3724 01a1 00       		.byte	0
 3725 01a2 00       		.byte	0
 3726 01a3 20       		.uleb128 0x20
 3727 01a4 2E       		.uleb128 0x2e
 3728 01a5 01       		.byte	0x1
 3729 01a6 3F       		.uleb128 0x3f
 3730 01a7 19       		.uleb128 0x19
 3731 01a8 03       		.uleb128 0x3
 3732 01a9 0E       		.uleb128 0xe
 3733 01aa 3A       		.uleb128 0x3a
 3734 01ab 0B       		.uleb128 0xb
 3735 01ac 3B       		.uleb128 0x3b
 3736 01ad 0B       		.uleb128 0xb
 3737 01ae 27       		.uleb128 0x27
 3738 01af 19       		.uleb128 0x19
 3739 01b0 49       		.uleb128 0x49
 3740 01b1 13       		.uleb128 0x13
 3741 01b2 11       		.uleb128 0x11
 3742 01b3 01       		.uleb128 0x1
 3743 01b4 12       		.uleb128 0x12
 3744 01b5 06       		.uleb128 0x6
 3745 01b6 40       		.uleb128 0x40
 3746 01b7 18       		.uleb128 0x18
 3747 01b8 9742     		.uleb128 0x2117
 3748 01ba 19       		.uleb128 0x19
 3749 01bb 01       		.uleb128 0x1
 3750 01bc 13       		.uleb128 0x13
ARM GAS  C:\Users\strap\AppData\Local\Temp\ccjJjp6v.s 			page 88


 3751 01bd 00       		.byte	0
 3752 01be 00       		.byte	0
 3753 01bf 21       		.uleb128 0x21
 3754 01c0 05       		.uleb128 0x5
 3755 01c1 00       		.byte	0
 3756 01c2 03       		.uleb128 0x3
 3757 01c3 0E       		.uleb128 0xe
 3758 01c4 3A       		.uleb128 0x3a
 3759 01c5 0B       		.uleb128 0xb
 3760 01c6 3B       		.uleb128 0x3b
 3761 01c7 0B       		.uleb128 0xb
 3762 01c8 49       		.uleb128 0x49
 3763 01c9 13       		.uleb128 0x13
 3764 01ca 02       		.uleb128 0x2
 3765 01cb 17       		.uleb128 0x17
 3766 01cc 00       		.byte	0
 3767 01cd 00       		.byte	0
 3768 01ce 22       		.uleb128 0x22
 3769 01cf 34       		.uleb128 0x34
 3770 01d0 00       		.byte	0
 3771 01d1 03       		.uleb128 0x3
 3772 01d2 0E       		.uleb128 0xe
 3773 01d3 3A       		.uleb128 0x3a
 3774 01d4 0B       		.uleb128 0xb
 3775 01d5 3B       		.uleb128 0x3b
 3776 01d6 0B       		.uleb128 0xb
 3777 01d7 49       		.uleb128 0x49
 3778 01d8 13       		.uleb128 0x13
 3779 01d9 02       		.uleb128 0x2
 3780 01da 17       		.uleb128 0x17
 3781 01db 00       		.byte	0
 3782 01dc 00       		.byte	0
 3783 01dd 23       		.uleb128 0x23
 3784 01de 34       		.uleb128 0x34
 3785 01df 00       		.byte	0
 3786 01e0 03       		.uleb128 0x3
 3787 01e1 08       		.uleb128 0x8
 3788 01e2 3A       		.uleb128 0x3a
 3789 01e3 0B       		.uleb128 0xb
 3790 01e4 3B       		.uleb128 0x3b
 3791 01e5 0B       		.uleb128 0xb
 3792 01e6 49       		.uleb128 0x49
 3793 01e7 13       		.uleb128 0x13
 3794 01e8 02       		.uleb128 0x2
 3795 01e9 17       		.uleb128 0x17
 3796 01ea 00       		.byte	0
 3797 01eb 00       		.byte	0
 3798 01ec 24       		.uleb128 0x24
 3799 01ed 898201   		.uleb128 0x4109
 3800 01f0 01       		.byte	0x1
 3801 01f1 11       		.uleb128 0x11
 3802 01f2 01       		.uleb128 0x1
 3803 01f3 31       		.uleb128 0x31
 3804 01f4 13       		.uleb128 0x13
 3805 01f5 01       		.uleb128 0x1
 3806 01f6 13       		.uleb128 0x13
 3807 01f7 00       		.byte	0
ARM GAS  C:\Users\strap\AppData\Local\Temp\ccjJjp6v.s 			page 89


 3808 01f8 00       		.byte	0
 3809 01f9 25       		.uleb128 0x25
 3810 01fa 2E       		.uleb128 0x2e
 3811 01fb 01       		.byte	0x1
 3812 01fc 3F       		.uleb128 0x3f
 3813 01fd 19       		.uleb128 0x19
 3814 01fe 03       		.uleb128 0x3
 3815 01ff 0E       		.uleb128 0xe
 3816 0200 3A       		.uleb128 0x3a
 3817 0201 0B       		.uleb128 0xb
 3818 0202 3B       		.uleb128 0x3b
 3819 0203 05       		.uleb128 0x5
 3820 0204 27       		.uleb128 0x27
 3821 0205 19       		.uleb128 0x19
 3822 0206 11       		.uleb128 0x11
 3823 0207 01       		.uleb128 0x1
 3824 0208 12       		.uleb128 0x12
 3825 0209 06       		.uleb128 0x6
 3826 020a 40       		.uleb128 0x40
 3827 020b 18       		.uleb128 0x18
 3828 020c 9742     		.uleb128 0x2117
 3829 020e 19       		.uleb128 0x19
 3830 020f 01       		.uleb128 0x1
 3831 0210 13       		.uleb128 0x13
 3832 0211 00       		.byte	0
 3833 0212 00       		.byte	0
 3834 0213 26       		.uleb128 0x26
 3835 0214 898201   		.uleb128 0x4109
 3836 0217 00       		.byte	0
 3837 0218 11       		.uleb128 0x11
 3838 0219 01       		.uleb128 0x1
 3839 021a 31       		.uleb128 0x31
 3840 021b 13       		.uleb128 0x13
 3841 021c 00       		.byte	0
 3842 021d 00       		.byte	0
 3843 021e 27       		.uleb128 0x27
 3844 021f 0B       		.uleb128 0xb
 3845 0220 01       		.byte	0x1
 3846 0221 11       		.uleb128 0x11
 3847 0222 01       		.uleb128 0x1
 3848 0223 12       		.uleb128 0x12
 3849 0224 06       		.uleb128 0x6
 3850 0225 01       		.uleb128 0x1
 3851 0226 13       		.uleb128 0x13
 3852 0227 00       		.byte	0
 3853 0228 00       		.byte	0
 3854 0229 28       		.uleb128 0x28
 3855 022a 2E       		.uleb128 0x2e
 3856 022b 01       		.byte	0x1
 3857 022c 3F       		.uleb128 0x3f
 3858 022d 19       		.uleb128 0x19
 3859 022e 03       		.uleb128 0x3
 3860 022f 0E       		.uleb128 0xe
 3861 0230 3A       		.uleb128 0x3a
 3862 0231 0B       		.uleb128 0xb
 3863 0232 3B       		.uleb128 0x3b
 3864 0233 05       		.uleb128 0x5
ARM GAS  C:\Users\strap\AppData\Local\Temp\ccjJjp6v.s 			page 90


 3865 0234 27       		.uleb128 0x27
 3866 0235 19       		.uleb128 0x19
 3867 0236 49       		.uleb128 0x49
 3868 0237 13       		.uleb128 0x13
 3869 0238 11       		.uleb128 0x11
 3870 0239 01       		.uleb128 0x1
 3871 023a 12       		.uleb128 0x12
 3872 023b 06       		.uleb128 0x6
 3873 023c 40       		.uleb128 0x40
 3874 023d 18       		.uleb128 0x18
 3875 023e 9742     		.uleb128 0x2117
 3876 0240 19       		.uleb128 0x19
 3877 0241 01       		.uleb128 0x1
 3878 0242 13       		.uleb128 0x13
 3879 0243 00       		.byte	0
 3880 0244 00       		.byte	0
 3881 0245 29       		.uleb128 0x29
 3882 0246 34       		.uleb128 0x34
 3883 0247 00       		.byte	0
 3884 0248 03       		.uleb128 0x3
 3885 0249 08       		.uleb128 0x8
 3886 024a 3A       		.uleb128 0x3a
 3887 024b 0B       		.uleb128 0xb
 3888 024c 3B       		.uleb128 0x3b
 3889 024d 05       		.uleb128 0x5
 3890 024e 49       		.uleb128 0x49
 3891 024f 13       		.uleb128 0x13
 3892 0250 02       		.uleb128 0x2
 3893 0251 17       		.uleb128 0x17
 3894 0252 00       		.byte	0
 3895 0253 00       		.byte	0
 3896 0254 2A       		.uleb128 0x2a
 3897 0255 0B       		.uleb128 0xb
 3898 0256 01       		.byte	0x1
 3899 0257 55       		.uleb128 0x55
 3900 0258 17       		.uleb128 0x17
 3901 0259 01       		.uleb128 0x1
 3902 025a 13       		.uleb128 0x13
 3903 025b 00       		.byte	0
 3904 025c 00       		.byte	0
 3905 025d 2B       		.uleb128 0x2b
 3906 025e 34       		.uleb128 0x34
 3907 025f 00       		.byte	0
 3908 0260 03       		.uleb128 0x3
 3909 0261 08       		.uleb128 0x8
 3910 0262 3A       		.uleb128 0x3a
 3911 0263 0B       		.uleb128 0xb
 3912 0264 3B       		.uleb128 0x3b
 3913 0265 05       		.uleb128 0x5
 3914 0266 49       		.uleb128 0x49
 3915 0267 13       		.uleb128 0x13
 3916 0268 02       		.uleb128 0x2
 3917 0269 18       		.uleb128 0x18
 3918 026a 00       		.byte	0
 3919 026b 00       		.byte	0
 3920 026c 2C       		.uleb128 0x2c
 3921 026d 34       		.uleb128 0x34
ARM GAS  C:\Users\strap\AppData\Local\Temp\ccjJjp6v.s 			page 91


 3922 026e 00       		.byte	0
 3923 026f 03       		.uleb128 0x3
 3924 0270 0E       		.uleb128 0xe
 3925 0271 3A       		.uleb128 0x3a
 3926 0272 0B       		.uleb128 0xb
 3927 0273 3B       		.uleb128 0x3b
 3928 0274 0B       		.uleb128 0xb
 3929 0275 49       		.uleb128 0x49
 3930 0276 13       		.uleb128 0x13
 3931 0277 3F       		.uleb128 0x3f
 3932 0278 19       		.uleb128 0x19
 3933 0279 3C       		.uleb128 0x3c
 3934 027a 19       		.uleb128 0x19
 3935 027b 00       		.byte	0
 3936 027c 00       		.byte	0
 3937 027d 2D       		.uleb128 0x2d
 3938 027e 2E       		.uleb128 0x2e
 3939 027f 00       		.byte	0
 3940 0280 3F       		.uleb128 0x3f
 3941 0281 19       		.uleb128 0x19
 3942 0282 3C       		.uleb128 0x3c
 3943 0283 19       		.uleb128 0x19
 3944 0284 6E       		.uleb128 0x6e
 3945 0285 0E       		.uleb128 0xe
 3946 0286 03       		.uleb128 0x3
 3947 0287 0E       		.uleb128 0xe
 3948 0288 3A       		.uleb128 0x3a
 3949 0289 0B       		.uleb128 0xb
 3950 028a 3B       		.uleb128 0x3b
 3951 028b 0B       		.uleb128 0xb
 3952 028c 00       		.byte	0
 3953 028d 00       		.byte	0
 3954 028e 00       		.byte	0
 3955              		.section	.debug_loc,"",%progbits
 3956              	.Ldebug_loc0:
 3957              	.LLST0:
 3958 0000 00000000 		.4byte	.LVL0
 3959 0004 06000000 		.4byte	.LVL1
 3960 0008 0100     		.2byte	0x1
 3961 000a 50       		.byte	0x50
 3962 000b 06000000 		.4byte	.LVL1
 3963 000f 08000000 		.4byte	.LVL2
 3964 0013 0400     		.2byte	0x4
 3965 0015 F3       		.byte	0xf3
 3966 0016 01       		.uleb128 0x1
 3967 0017 50       		.byte	0x50
 3968 0018 9F       		.byte	0x9f
 3969 0019 08000000 		.4byte	.LVL2
 3970 001d 0C000000 		.4byte	.LVL4
 3971 0021 0100     		.2byte	0x1
 3972 0023 50       		.byte	0x50
 3973 0024 0C000000 		.4byte	.LVL4
 3974 0028 14000000 		.4byte	.LVL6
 3975 002c 0300     		.2byte	0x3
 3976 002e 73       		.byte	0x73
 3977 002f 7C       		.sleb128 -4
 3978 0030 9F       		.byte	0x9f
ARM GAS  C:\Users\strap\AppData\Local\Temp\ccjJjp6v.s 			page 92


 3979 0031 14000000 		.4byte	.LVL6
 3980 0035 28000000 		.4byte	.LFE53
 3981 0039 0400     		.2byte	0x4
 3982 003b F3       		.byte	0xf3
 3983 003c 01       		.uleb128 0x1
 3984 003d 50       		.byte	0x50
 3985 003e 9F       		.byte	0x9f
 3986 003f 00000000 		.4byte	0
 3987 0043 00000000 		.4byte	0
 3988              	.LLST1:
 3989 0047 00000000 		.4byte	.LVL0
 3990 004b 06000000 		.4byte	.LVL1
 3991 004f 0200     		.2byte	0x2
 3992 0051 30       		.byte	0x30
 3993 0052 9F       		.byte	0x9f
 3994 0053 06000000 		.4byte	.LVL1
 3995 0057 08000000 		.4byte	.LVL2
 3996 005b 0100     		.2byte	0x1
 3997 005d 50       		.byte	0x50
 3998 005e 08000000 		.4byte	.LVL2
 3999 0062 10000000 		.4byte	.LVL5
 4000 0066 0200     		.2byte	0x2
 4001 0068 30       		.byte	0x30
 4002 0069 9F       		.byte	0x9f
 4003 006a 10000000 		.4byte	.LVL5
 4004 006e 28000000 		.4byte	.LFE53
 4005 0072 0100     		.2byte	0x1
 4006 0074 50       		.byte	0x50
 4007 0075 00000000 		.4byte	0
 4008 0079 00000000 		.4byte	0
 4009              	.LLST2:
 4010 007d 0A000000 		.4byte	.LVL3
 4011 0081 14000000 		.4byte	.LVL6
 4012 0085 0100     		.2byte	0x1
 4013 0087 53       		.byte	0x53
 4014 0088 14000000 		.4byte	.LVL6
 4015 008c 28000000 		.4byte	.LFE53
 4016 0090 0600     		.2byte	0x6
 4017 0092 F3       		.byte	0xf3
 4018 0093 01       		.uleb128 0x1
 4019 0094 50       		.byte	0x50
 4020 0095 23       		.byte	0x23
 4021 0096 04       		.uleb128 0x4
 4022 0097 9F       		.byte	0x9f
 4023 0098 00000000 		.4byte	0
 4024 009c 00000000 		.4byte	0
 4025              	.LLST3:
 4026 00a0 00000000 		.4byte	.LVL8
 4027 00a4 02000000 		.4byte	.LVL9
 4028 00a8 0100     		.2byte	0x1
 4029 00aa 51       		.byte	0x51
 4030 00ab 02000000 		.4byte	.LVL9
 4031 00af 06000000 		.4byte	.LVL10
 4032 00b3 0300     		.2byte	0x3
 4033 00b5 71       		.byte	0x71
 4034 00b6 7D       		.sleb128 -3
 4035 00b7 9F       		.byte	0x9f
ARM GAS  C:\Users\strap\AppData\Local\Temp\ccjJjp6v.s 			page 93


 4036 00b8 06000000 		.4byte	.LVL10
 4037 00bc 4A000000 		.4byte	.LFE55
 4038 00c0 0100     		.2byte	0x1
 4039 00c2 51       		.byte	0x51
 4040 00c3 00000000 		.4byte	0
 4041 00c7 00000000 		.4byte	0
 4042              	.LLST4:
 4043 00cb 1C000000 		.4byte	.LVL12
 4044 00cf 40000000 		.4byte	.LVL13
 4045 00d3 0100     		.2byte	0x1
 4046 00d5 52       		.byte	0x52
 4047 00d6 00000000 		.4byte	0
 4048 00da 00000000 		.4byte	0
 4049              	.LLST5:
 4050 00de 1C000000 		.4byte	.LVL12
 4051 00e2 40000000 		.4byte	.LVL13
 4052 00e6 0600     		.2byte	0x6
 4053 00e8 72       		.byte	0x72
 4054 00e9 00       		.sleb128 0
 4055 00ea 71       		.byte	0x71
 4056 00eb 00       		.sleb128 0
 4057 00ec 22       		.byte	0x22
 4058 00ed 9F       		.byte	0x9f
 4059 00ee 00000000 		.4byte	0
 4060 00f2 00000000 		.4byte	0
 4061              	.LLST6:
 4062 00f6 00000000 		.4byte	.LVL14
 4063 00fa 19000000 		.4byte	.LVL15-1
 4064 00fe 0100     		.2byte	0x1
 4065 0100 50       		.byte	0x50
 4066 0101 19000000 		.4byte	.LVL15-1
 4067 0105 28000000 		.4byte	.LVL17
 4068 0109 0100     		.2byte	0x1
 4069 010b 54       		.byte	0x54
 4070 010c 28000000 		.4byte	.LVL17
 4071 0110 2A000000 		.4byte	.LVL18
 4072 0114 0100     		.2byte	0x1
 4073 0116 50       		.byte	0x50
 4074 0117 2A000000 		.4byte	.LVL18
 4075 011b 2C000000 		.4byte	.LVL19
 4076 011f 0400     		.2byte	0x4
 4077 0121 F3       		.byte	0xf3
 4078 0122 01       		.uleb128 0x1
 4079 0123 50       		.byte	0x50
 4080 0124 9F       		.byte	0x9f
 4081 0125 2C000000 		.4byte	.LVL19
 4082 0129 2E000000 		.4byte	.LVL20
 4083 012d 0100     		.2byte	0x1
 4084 012f 50       		.byte	0x50
 4085 0130 2E000000 		.4byte	.LVL20
 4086 0134 30000000 		.4byte	.LFE54
 4087 0138 0400     		.2byte	0x4
 4088 013a F3       		.byte	0xf3
 4089 013b 01       		.uleb128 0x1
 4090 013c 50       		.byte	0x50
 4091 013d 9F       		.byte	0x9f
 4092 013e 00000000 		.4byte	0
ARM GAS  C:\Users\strap\AppData\Local\Temp\ccjJjp6v.s 			page 94


 4093 0142 00000000 		.4byte	0
 4094              	.LLST7:
 4095 0146 00000000 		.4byte	.LVL14
 4096 014a 19000000 		.4byte	.LVL15-1
 4097 014e 0100     		.2byte	0x1
 4098 0150 51       		.byte	0x51
 4099 0151 19000000 		.4byte	.LVL15-1
 4100 0155 28000000 		.4byte	.LVL17
 4101 0159 0400     		.2byte	0x4
 4102 015b F3       		.byte	0xf3
 4103 015c 01       		.uleb128 0x1
 4104 015d 51       		.byte	0x51
 4105 015e 9F       		.byte	0x9f
 4106 015f 28000000 		.4byte	.LVL17
 4107 0163 30000000 		.4byte	.LFE54
 4108 0167 0100     		.2byte	0x1
 4109 0169 51       		.byte	0x51
 4110 016a 00000000 		.4byte	0
 4111 016e 00000000 		.4byte	0
 4112              	.LLST8:
 4113 0172 00000000 		.4byte	.LVL14
 4114 0176 26000000 		.4byte	.LVL16
 4115 017a 0200     		.2byte	0x2
 4116 017c 30       		.byte	0x30
 4117 017d 9F       		.byte	0x9f
 4118 017e 26000000 		.4byte	.LVL16
 4119 0182 28000000 		.4byte	.LVL17
 4120 0186 0100     		.2byte	0x1
 4121 0188 50       		.byte	0x50
 4122 0189 28000000 		.4byte	.LVL17
 4123 018d 30000000 		.4byte	.LFE54
 4124 0191 0200     		.2byte	0x2
 4125 0193 30       		.byte	0x30
 4126 0194 9F       		.byte	0x9f
 4127 0195 00000000 		.4byte	0
 4128 0199 00000000 		.4byte	0
 4129              	.LLST9:
 4130 019d 00000000 		.4byte	.LVL22
 4131 01a1 0C000000 		.4byte	.LVL23
 4132 01a5 0100     		.2byte	0x1
 4133 01a7 50       		.byte	0x50
 4134 01a8 0C000000 		.4byte	.LVL23
 4135 01ac 36000000 		.4byte	.LVL28
 4136 01b0 0100     		.2byte	0x1
 4137 01b2 56       		.byte	0x56
 4138 01b3 36000000 		.4byte	.LVL28
 4139 01b7 4A000000 		.4byte	.LVL29
 4140 01bb 0900     		.2byte	0x9
 4141 01bd F3       		.byte	0xf3
 4142 01be 01       		.uleb128 0x1
 4143 01bf 50       		.byte	0x50
 4144 01c0 23       		.byte	0x23
 4145 01c1 03       		.uleb128 0x3
 4146 01c2 09       		.byte	0x9
 4147 01c3 FC       		.byte	0xfc
 4148 01c4 1A       		.byte	0x1a
 4149 01c5 9F       		.byte	0x9f
ARM GAS  C:\Users\strap\AppData\Local\Temp\ccjJjp6v.s 			page 95


 4150 01c6 4A000000 		.4byte	.LVL29
 4151 01ca 4C000000 		.4byte	.LVL30
 4152 01ce 0100     		.2byte	0x1
 4153 01d0 50       		.byte	0x50
 4154 01d1 4C000000 		.4byte	.LVL30
 4155 01d5 4E000000 		.4byte	.LVL31
 4156 01d9 0400     		.2byte	0x4
 4157 01db F3       		.byte	0xf3
 4158 01dc 01       		.uleb128 0x1
 4159 01dd 50       		.byte	0x50
 4160 01de 9F       		.byte	0x9f
 4161 01df 4E000000 		.4byte	.LVL31
 4162 01e3 56000000 		.4byte	.LVL33
 4163 01e7 0100     		.2byte	0x1
 4164 01e9 56       		.byte	0x56
 4165 01ea 56000000 		.4byte	.LVL33
 4166 01ee 68000000 		.4byte	.LFE39
 4167 01f2 0900     		.2byte	0x9
 4168 01f4 F3       		.byte	0xf3
 4169 01f5 01       		.uleb128 0x1
 4170 01f6 50       		.byte	0x50
 4171 01f7 23       		.byte	0x23
 4172 01f8 03       		.uleb128 0x3
 4173 01f9 09       		.byte	0x9
 4174 01fa FC       		.byte	0xfc
 4175 01fb 1A       		.byte	0x1a
 4176 01fc 9F       		.byte	0x9f
 4177 01fd 00000000 		.4byte	0
 4178 0201 00000000 		.4byte	0
 4179              	.LLST10:
 4180 0205 0C000000 		.4byte	.LVL23
 4181 0209 10000000 		.4byte	.LVL24
 4182 020d 0200     		.2byte	0x2
 4183 020f 30       		.byte	0x30
 4184 0210 9F       		.byte	0x9f
 4185 0211 10000000 		.4byte	.LVL24
 4186 0215 4A000000 		.4byte	.LVL29
 4187 0219 0100     		.2byte	0x1
 4188 021b 55       		.byte	0x55
 4189 021c 4E000000 		.4byte	.LVL31
 4190 0220 5A000000 		.4byte	.LVL34
 4191 0224 0100     		.2byte	0x1
 4192 0226 55       		.byte	0x55
 4193 0227 5A000000 		.4byte	.LVL34
 4194 022b 68000000 		.4byte	.LFE39
 4195 022f 0100     		.2byte	0x1
 4196 0231 50       		.byte	0x50
 4197 0232 00000000 		.4byte	0
 4198 0236 00000000 		.4byte	0
 4199              	.LLST11:
 4200 023a 0C000000 		.4byte	.LVL23
 4201 023e 10000000 		.4byte	.LVL24
 4202 0242 0200     		.2byte	0x2
 4203 0244 30       		.byte	0x30
 4204 0245 9F       		.byte	0x9f
 4205 0246 10000000 		.4byte	.LVL24
 4206 024a 16000000 		.4byte	.LVL25
ARM GAS  C:\Users\strap\AppData\Local\Temp\ccjJjp6v.s 			page 96


 4207 024e 0100     		.2byte	0x1
 4208 0250 54       		.byte	0x54
 4209 0251 16000000 		.4byte	.LVL25
 4210 0255 1F000000 		.4byte	.LVL26-1
 4211 0259 0100     		.2byte	0x1
 4212 025b 50       		.byte	0x50
 4213 025c 1F000000 		.4byte	.LVL26-1
 4214 0260 4A000000 		.4byte	.LVL29
 4215 0264 0100     		.2byte	0x1
 4216 0266 54       		.byte	0x54
 4217 0267 4E000000 		.4byte	.LVL31
 4218 026b 5A000000 		.4byte	.LVL34
 4219 026f 0100     		.2byte	0x1
 4220 0271 54       		.byte	0x54
 4221 0272 00000000 		.4byte	0
 4222 0276 00000000 		.4byte	0
 4223              	.LLST12:
 4224 027a 0A000000 		.4byte	.LVL36
 4225 027e 0C000000 		.4byte	.LVL37
 4226 0282 0100     		.2byte	0x1
 4227 0284 50       		.byte	0x50
 4228 0285 0C000000 		.4byte	.LVL37
 4229 0289 1A000000 		.4byte	.LVL38
 4230 028d 0100     		.2byte	0x1
 4231 028f 54       		.byte	0x54
 4232 0290 1C000000 		.4byte	.LVL39
 4233 0294 54000000 		.4byte	.LFE42
 4234 0298 0100     		.2byte	0x1
 4235 029a 54       		.byte	0x54
 4236 029b 00000000 		.4byte	0
 4237 029f 00000000 		.4byte	0
 4238              	.LLST13:
 4239 02a3 28000000 		.4byte	.LVL40
 4240 02a7 49000000 		.4byte	.LVL41-1
 4241 02ab 0100     		.2byte	0x1
 4242 02ad 50       		.byte	0x50
 4243 02ae 4A000000 		.4byte	.LVL41
 4244 02b2 52000000 		.4byte	.LVL42
 4245 02b6 0100     		.2byte	0x1
 4246 02b8 50       		.byte	0x50
 4247 02b9 00000000 		.4byte	0
 4248 02bd 00000000 		.4byte	0
 4249              	.LLST14:
 4250 02c1 00000000 		.4byte	.LVL43
 4251 02c5 0E000000 		.4byte	.LVL44
 4252 02c9 0100     		.2byte	0x1
 4253 02cb 50       		.byte	0x50
 4254 02cc 0E000000 		.4byte	.LVL44
 4255 02d0 6A000000 		.4byte	.LVL49
 4256 02d4 0100     		.2byte	0x1
 4257 02d6 54       		.byte	0x54
 4258 02d7 6A000000 		.4byte	.LVL49
 4259 02db 74000000 		.4byte	.LFE40
 4260 02df 0100     		.2byte	0x1
 4261 02e1 50       		.byte	0x50
 4262 02e2 00000000 		.4byte	0
 4263 02e6 00000000 		.4byte	0
ARM GAS  C:\Users\strap\AppData\Local\Temp\ccjJjp6v.s 			page 97


 4264              	.LLST15:
 4265 02ea 0E000000 		.4byte	.LVL44
 4266 02ee 2F000000 		.4byte	.LVL45-1
 4267 02f2 0100     		.2byte	0x1
 4268 02f4 50       		.byte	0x50
 4269 02f5 2F000000 		.4byte	.LVL45-1
 4270 02f9 5C000000 		.4byte	.LVL47
 4271 02fd 0300     		.2byte	0x3
 4272 02ff 74       		.byte	0x74
 4273 0300 7C       		.sleb128 -4
 4274 0301 9F       		.byte	0x9f
 4275 0302 5C000000 		.4byte	.LVL47
 4276 0306 67000000 		.4byte	.LVL48-1
 4277 030a 0100     		.2byte	0x1
 4278 030c 50       		.byte	0x50
 4279 030d 67000000 		.4byte	.LVL48-1
 4280 0311 6A000000 		.4byte	.LVL49
 4281 0315 0300     		.2byte	0x3
 4282 0317 74       		.byte	0x74
 4283 0318 7C       		.sleb128 -4
 4284 0319 9F       		.byte	0x9f
 4285 031a 00000000 		.4byte	0
 4286 031e 00000000 		.4byte	0
 4287              	.LLST16:
 4288 0322 30000000 		.4byte	.LVL45
 4289 0326 55000000 		.4byte	.LVL46-1
 4290 032a 0100     		.2byte	0x1
 4291 032c 50       		.byte	0x50
 4292 032d 56000000 		.4byte	.LVL46
 4293 0331 5C000000 		.4byte	.LVL47
 4294 0335 0100     		.2byte	0x1
 4295 0337 50       		.byte	0x50
 4296 0338 00000000 		.4byte	0
 4297 033c 00000000 		.4byte	0
 4298              	.LLST17:
 4299 0340 08000000 		.4byte	.LVL50
 4300 0344 27000000 		.4byte	.LVL52-1
 4301 0348 0100     		.2byte	0x1
 4302 034a 50       		.byte	0x50
 4303 034b 28000000 		.4byte	.LVL52
 4304 034f 2E000000 		.4byte	.LVL53
 4305 0353 0100     		.2byte	0x1
 4306 0355 50       		.byte	0x50
 4307 0356 30000000 		.4byte	.LVL54
 4308 035a 32000000 		.4byte	.LVL55
 4309 035e 0100     		.2byte	0x1
 4310 0360 50       		.byte	0x50
 4311 0361 34000000 		.4byte	.LVL56
 4312 0365 36000000 		.4byte	.LVL57
 4313 0369 0100     		.2byte	0x1
 4314 036b 50       		.byte	0x50
 4315 036c 00000000 		.4byte	0
 4316 0370 00000000 		.4byte	0
 4317              	.LLST18:
 4318 0374 16000000 		.4byte	.LVL51
 4319 0378 27000000 		.4byte	.LVL52-1
 4320 037c 0100     		.2byte	0x1
ARM GAS  C:\Users\strap\AppData\Local\Temp\ccjJjp6v.s 			page 98


 4321 037e 50       		.byte	0x50
 4322 037f 34000000 		.4byte	.LVL56
 4323 0383 36000000 		.4byte	.LVL57
 4324 0387 0100     		.2byte	0x1
 4325 0389 50       		.byte	0x50
 4326 038a 00000000 		.4byte	0
 4327 038e 00000000 		.4byte	0
 4328              	.LLST19:
 4329 0392 00000000 		.4byte	.LVL58
 4330 0396 0C000000 		.4byte	.LVL60
 4331 039a 0100     		.2byte	0x1
 4332 039c 50       		.byte	0x50
 4333 039d 0C000000 		.4byte	.LVL60
 4334 03a1 12000000 		.4byte	.LVL61
 4335 03a5 0400     		.2byte	0x4
 4336 03a7 F3       		.byte	0xf3
 4337 03a8 01       		.uleb128 0x1
 4338 03a9 50       		.byte	0x50
 4339 03aa 9F       		.byte	0x9f
 4340 03ab 12000000 		.4byte	.LVL61
 4341 03af 14000000 		.4byte	.LVL62
 4342 03b3 0100     		.2byte	0x1
 4343 03b5 50       		.byte	0x50
 4344 03b6 14000000 		.4byte	.LVL62
 4345 03ba 16000000 		.4byte	.LVL63
 4346 03be 0400     		.2byte	0x4
 4347 03c0 F3       		.byte	0xf3
 4348 03c1 01       		.uleb128 0x1
 4349 03c2 50       		.byte	0x50
 4350 03c3 9F       		.byte	0x9f
 4351 03c4 16000000 		.4byte	.LVL63
 4352 03c8 18000000 		.4byte	.LVL64
 4353 03cc 0100     		.2byte	0x1
 4354 03ce 50       		.byte	0x50
 4355 03cf 18000000 		.4byte	.LVL64
 4356 03d3 20000000 		.4byte	.LFE45
 4357 03d7 0400     		.2byte	0x4
 4358 03d9 F3       		.byte	0xf3
 4359 03da 01       		.uleb128 0x1
 4360 03db 50       		.byte	0x50
 4361 03dc 9F       		.byte	0x9f
 4362 03dd 00000000 		.4byte	0
 4363 03e1 00000000 		.4byte	0
 4364              	.LLST20:
 4365 03e5 08000000 		.4byte	.LVL59
 4366 03e9 0C000000 		.4byte	.LVL60
 4367 03ed 0300     		.2byte	0x3
 4368 03ef 70       		.byte	0x70
 4369 03f0 7C       		.sleb128 -4
 4370 03f1 9F       		.byte	0x9f
 4371 03f2 0C000000 		.4byte	.LVL60
 4372 03f6 12000000 		.4byte	.LVL61
 4373 03fa 0600     		.2byte	0x6
 4374 03fc F3       		.byte	0xf3
 4375 03fd 01       		.uleb128 0x1
 4376 03fe 50       		.byte	0x50
 4377 03ff 34       		.byte	0x34
ARM GAS  C:\Users\strap\AppData\Local\Temp\ccjJjp6v.s 			page 99


 4378 0400 1C       		.byte	0x1c
 4379 0401 9F       		.byte	0x9f
 4380 0402 00000000 		.4byte	0
 4381 0406 00000000 		.4byte	0
 4382              	.LLST21:
 4383 040a 00000000 		.4byte	.LVL65
 4384 040e 04000000 		.4byte	.LVL66
 4385 0412 0200     		.2byte	0x2
 4386 0414 30       		.byte	0x30
 4387 0415 9F       		.byte	0x9f
 4388 0416 04000000 		.4byte	.LVL66
 4389 041a 12000000 		.4byte	.LVL67
 4390 041e 0100     		.2byte	0x1
 4391 0420 53       		.byte	0x53
 4392 0421 20000000 		.4byte	.LVL68
 4393 0425 22000000 		.4byte	.LVL69
 4394 0429 0100     		.2byte	0x1
 4395 042b 53       		.byte	0x53
 4396 042c 24000000 		.4byte	.LVL70
 4397 0430 2A000000 		.4byte	.LVL71
 4398 0434 0100     		.2byte	0x1
 4399 0436 53       		.byte	0x53
 4400 0437 2C000000 		.4byte	.LVL72
 4401 043b 3A000000 		.4byte	.LVL73
 4402 043f 0100     		.2byte	0x1
 4403 0441 53       		.byte	0x53
 4404 0442 48000000 		.4byte	.LVL74
 4405 0446 4A000000 		.4byte	.LVL75
 4406 044a 0100     		.2byte	0x1
 4407 044c 53       		.byte	0x53
 4408 044d 4C000000 		.4byte	.LVL76
 4409 0451 5C000000 		.4byte	.LFE47
 4410 0455 0100     		.2byte	0x1
 4411 0457 53       		.byte	0x53
 4412 0458 00000000 		.4byte	0
 4413 045c 00000000 		.4byte	0
 4414              	.LLST22:
 4415 0460 00000000 		.4byte	.LVL77
 4416 0464 04000000 		.4byte	.LVL78
 4417 0468 0200     		.2byte	0x2
 4418 046a 30       		.byte	0x30
 4419 046b 9F       		.byte	0x9f
 4420 046c 04000000 		.4byte	.LVL78
 4421 0470 14000000 		.4byte	.LVL79
 4422 0474 0100     		.2byte	0x1
 4423 0476 53       		.byte	0x53
 4424 0477 16000000 		.4byte	.LVL80
 4425 047b 20000000 		.4byte	.LVL81
 4426 047f 0100     		.2byte	0x1
 4427 0481 53       		.byte	0x53
 4428 0482 20000000 		.4byte	.LVL81
 4429 0486 44000000 		.4byte	.LVL83
 4430 048a 0100     		.2byte	0x1
 4431 048c 54       		.byte	0x54
 4432 048d 46000000 		.4byte	.LVL84
 4433 0491 4C000000 		.4byte	.LVL85
 4434 0495 0100     		.2byte	0x1
ARM GAS  C:\Users\strap\AppData\Local\Temp\ccjJjp6v.s 			page 100


 4435 0497 54       		.byte	0x54
 4436 0498 00000000 		.4byte	0
 4437 049c 00000000 		.4byte	0
 4438              	.LLST23:
 4439 04a0 00000000 		.4byte	.LVL86
 4440 04a4 10000000 		.4byte	.LVL90
 4441 04a8 0100     		.2byte	0x1
 4442 04aa 51       		.byte	0x51
 4443 04ab 10000000 		.4byte	.LVL90
 4444 04af 98000000 		.4byte	.LVL125
 4445 04b3 0400     		.2byte	0x4
 4446 04b5 F3       		.byte	0xf3
 4447 04b6 01       		.uleb128 0x1
 4448 04b7 51       		.byte	0x51
 4449 04b8 9F       		.byte	0x9f
 4450 04b9 98000000 		.4byte	.LVL125
 4451 04bd 9A000000 		.4byte	.LVL126
 4452 04c1 0100     		.2byte	0x1
 4453 04c3 51       		.byte	0x51
 4454 04c4 9A000000 		.4byte	.LVL126
 4455 04c8 B0000000 		.4byte	.LVL130
 4456 04cc 0400     		.2byte	0x4
 4457 04ce F3       		.byte	0xf3
 4458 04cf 01       		.uleb128 0x1
 4459 04d0 51       		.byte	0x51
 4460 04d1 9F       		.byte	0x9f
 4461 04d2 B0000000 		.4byte	.LVL130
 4462 04d6 BA000000 		.4byte	.LVL133
 4463 04da 0100     		.2byte	0x1
 4464 04dc 51       		.byte	0x51
 4465 04dd BA000000 		.4byte	.LVL133
 4466 04e1 CA000000 		.4byte	.LVL138
 4467 04e5 0400     		.2byte	0x4
 4468 04e7 F3       		.byte	0xf3
 4469 04e8 01       		.uleb128 0x1
 4470 04e9 51       		.byte	0x51
 4471 04ea 9F       		.byte	0x9f
 4472 04eb CA000000 		.4byte	.LVL138
 4473 04ef CE000000 		.4byte	.LVL140
 4474 04f3 0100     		.2byte	0x1
 4475 04f5 51       		.byte	0x51
 4476 04f6 CE000000 		.4byte	.LVL140
 4477 04fa 22010000 		.4byte	.LFE49
 4478 04fe 0400     		.2byte	0x4
 4479 0500 F3       		.byte	0xf3
 4480 0501 01       		.uleb128 0x1
 4481 0502 51       		.byte	0x51
 4482 0503 9F       		.byte	0x9f
 4483 0504 00000000 		.4byte	0
 4484 0508 00000000 		.4byte	0
 4485              	.LLST24:
 4486 050c 00000000 		.4byte	.LVL86
 4487 0510 96000000 		.4byte	.LVL124
 4488 0514 0100     		.2byte	0x1
 4489 0516 52       		.byte	0x52
 4490 0517 96000000 		.4byte	.LVL124
 4491 051b 22010000 		.4byte	.LFE49
ARM GAS  C:\Users\strap\AppData\Local\Temp\ccjJjp6v.s 			page 101


 4492 051f 0100     		.2byte	0x1
 4493 0521 52       		.byte	0x52
 4494 0522 00000000 		.4byte	0
 4495 0526 00000000 		.4byte	0
 4496              	.LLST25:
 4497 052a 02000000 		.4byte	.LVL87
 4498 052e 10000000 		.4byte	.LVL90
 4499 0532 0100     		.2byte	0x1
 4500 0534 50       		.byte	0x50
 4501 0535 10000000 		.4byte	.LVL90
 4502 0539 14000000 		.4byte	.LVL91
 4503 053d 0100     		.2byte	0x1
 4504 053f 53       		.byte	0x53
 4505 0540 14000000 		.4byte	.LVL91
 4506 0544 18000000 		.4byte	.LVL92
 4507 0548 0300     		.2byte	0x3
 4508 054a 73       		.byte	0x73
 4509 054b 01       		.sleb128 1
 4510 054c 9F       		.byte	0x9f
 4511 054d 18000000 		.4byte	.LVL92
 4512 0551 1C000000 		.4byte	.LVL93
 4513 0555 0300     		.2byte	0x3
 4514 0557 73       		.byte	0x73
 4515 0558 02       		.sleb128 2
 4516 0559 9F       		.byte	0x9f
 4517 055a 1C000000 		.4byte	.LVL93
 4518 055e 20000000 		.4byte	.LVL94
 4519 0562 0300     		.2byte	0x3
 4520 0564 73       		.byte	0x73
 4521 0565 03       		.sleb128 3
 4522 0566 9F       		.byte	0x9f
 4523 0567 20000000 		.4byte	.LVL94
 4524 056b 24000000 		.4byte	.LVL95
 4525 056f 0300     		.2byte	0x3
 4526 0571 73       		.byte	0x73
 4527 0572 04       		.sleb128 4
 4528 0573 9F       		.byte	0x9f
 4529 0574 24000000 		.4byte	.LVL95
 4530 0578 28000000 		.4byte	.LVL96
 4531 057c 0300     		.2byte	0x3
 4532 057e 73       		.byte	0x73
 4533 057f 05       		.sleb128 5
 4534 0580 9F       		.byte	0x9f
 4535 0581 28000000 		.4byte	.LVL96
 4536 0585 2C000000 		.4byte	.LVL97
 4537 0589 0300     		.2byte	0x3
 4538 058b 73       		.byte	0x73
 4539 058c 06       		.sleb128 6
 4540 058d 9F       		.byte	0x9f
 4541 058e 2C000000 		.4byte	.LVL97
 4542 0592 30000000 		.4byte	.LVL98
 4543 0596 0300     		.2byte	0x3
 4544 0598 73       		.byte	0x73
 4545 0599 07       		.sleb128 7
 4546 059a 9F       		.byte	0x9f
 4547 059b 30000000 		.4byte	.LVL98
 4548 059f 34000000 		.4byte	.LVL99
ARM GAS  C:\Users\strap\AppData\Local\Temp\ccjJjp6v.s 			page 102


 4549 05a3 0300     		.2byte	0x3
 4550 05a5 73       		.byte	0x73
 4551 05a6 08       		.sleb128 8
 4552 05a7 9F       		.byte	0x9f
 4553 05a8 34000000 		.4byte	.LVL99
 4554 05ac 38000000 		.4byte	.LVL100
 4555 05b0 0300     		.2byte	0x3
 4556 05b2 73       		.byte	0x73
 4557 05b3 09       		.sleb128 9
 4558 05b4 9F       		.byte	0x9f
 4559 05b5 38000000 		.4byte	.LVL100
 4560 05b9 3C000000 		.4byte	.LVL101
 4561 05bd 0300     		.2byte	0x3
 4562 05bf 73       		.byte	0x73
 4563 05c0 0A       		.sleb128 10
 4564 05c1 9F       		.byte	0x9f
 4565 05c2 3C000000 		.4byte	.LVL101
 4566 05c6 40000000 		.4byte	.LVL102
 4567 05ca 0300     		.2byte	0x3
 4568 05cc 73       		.byte	0x73
 4569 05cd 0B       		.sleb128 11
 4570 05ce 9F       		.byte	0x9f
 4571 05cf 40000000 		.4byte	.LVL102
 4572 05d3 44000000 		.4byte	.LVL103
 4573 05d7 0300     		.2byte	0x3
 4574 05d9 73       		.byte	0x73
 4575 05da 0C       		.sleb128 12
 4576 05db 9F       		.byte	0x9f
 4577 05dc 44000000 		.4byte	.LVL103
 4578 05e0 48000000 		.4byte	.LVL104
 4579 05e4 0300     		.2byte	0x3
 4580 05e6 73       		.byte	0x73
 4581 05e7 0D       		.sleb128 13
 4582 05e8 9F       		.byte	0x9f
 4583 05e9 48000000 		.4byte	.LVL104
 4584 05ed 4C000000 		.4byte	.LVL105
 4585 05f1 0300     		.2byte	0x3
 4586 05f3 73       		.byte	0x73
 4587 05f4 0E       		.sleb128 14
 4588 05f5 9F       		.byte	0x9f
 4589 05f6 4C000000 		.4byte	.LVL105
 4590 05fa 50000000 		.4byte	.LVL106
 4591 05fe 0300     		.2byte	0x3
 4592 0600 73       		.byte	0x73
 4593 0601 0F       		.sleb128 15
 4594 0602 9F       		.byte	0x9f
 4595 0603 50000000 		.4byte	.LVL106
 4596 0607 54000000 		.4byte	.LVL107
 4597 060b 0300     		.2byte	0x3
 4598 060d 73       		.byte	0x73
 4599 060e 10       		.sleb128 16
 4600 060f 9F       		.byte	0x9f
 4601 0610 54000000 		.4byte	.LVL107
 4602 0614 58000000 		.4byte	.LVL108
 4603 0618 0300     		.2byte	0x3
 4604 061a 73       		.byte	0x73
 4605 061b 11       		.sleb128 17
ARM GAS  C:\Users\strap\AppData\Local\Temp\ccjJjp6v.s 			page 103


 4606 061c 9F       		.byte	0x9f
 4607 061d 58000000 		.4byte	.LVL108
 4608 0621 5C000000 		.4byte	.LVL109
 4609 0625 0300     		.2byte	0x3
 4610 0627 73       		.byte	0x73
 4611 0628 12       		.sleb128 18
 4612 0629 9F       		.byte	0x9f
 4613 062a 5C000000 		.4byte	.LVL109
 4614 062e 60000000 		.4byte	.LVL110
 4615 0632 0300     		.2byte	0x3
 4616 0634 73       		.byte	0x73
 4617 0635 13       		.sleb128 19
 4618 0636 9F       		.byte	0x9f
 4619 0637 60000000 		.4byte	.LVL110
 4620 063b 64000000 		.4byte	.LVL111
 4621 063f 0300     		.2byte	0x3
 4622 0641 73       		.byte	0x73
 4623 0642 14       		.sleb128 20
 4624 0643 9F       		.byte	0x9f
 4625 0644 64000000 		.4byte	.LVL111
 4626 0648 68000000 		.4byte	.LVL112
 4627 064c 0300     		.2byte	0x3
 4628 064e 73       		.byte	0x73
 4629 064f 15       		.sleb128 21
 4630 0650 9F       		.byte	0x9f
 4631 0651 68000000 		.4byte	.LVL112
 4632 0655 6C000000 		.4byte	.LVL113
 4633 0659 0300     		.2byte	0x3
 4634 065b 73       		.byte	0x73
 4635 065c 16       		.sleb128 22
 4636 065d 9F       		.byte	0x9f
 4637 065e 6C000000 		.4byte	.LVL113
 4638 0662 70000000 		.4byte	.LVL114
 4639 0666 0300     		.2byte	0x3
 4640 0668 73       		.byte	0x73
 4641 0669 17       		.sleb128 23
 4642 066a 9F       		.byte	0x9f
 4643 066b 70000000 		.4byte	.LVL114
 4644 066f 74000000 		.4byte	.LVL115
 4645 0673 0300     		.2byte	0x3
 4646 0675 73       		.byte	0x73
 4647 0676 18       		.sleb128 24
 4648 0677 9F       		.byte	0x9f
 4649 0678 74000000 		.4byte	.LVL115
 4650 067c 78000000 		.4byte	.LVL116
 4651 0680 0300     		.2byte	0x3
 4652 0682 73       		.byte	0x73
 4653 0683 19       		.sleb128 25
 4654 0684 9F       		.byte	0x9f
 4655 0685 78000000 		.4byte	.LVL116
 4656 0689 7C000000 		.4byte	.LVL117
 4657 068d 0300     		.2byte	0x3
 4658 068f 73       		.byte	0x73
 4659 0690 1A       		.sleb128 26
 4660 0691 9F       		.byte	0x9f
 4661 0692 7C000000 		.4byte	.LVL117
 4662 0696 80000000 		.4byte	.LVL118
ARM GAS  C:\Users\strap\AppData\Local\Temp\ccjJjp6v.s 			page 104


 4663 069a 0300     		.2byte	0x3
 4664 069c 73       		.byte	0x73
 4665 069d 1B       		.sleb128 27
 4666 069e 9F       		.byte	0x9f
 4667 069f 80000000 		.4byte	.LVL118
 4668 06a3 84000000 		.4byte	.LVL119
 4669 06a7 0300     		.2byte	0x3
 4670 06a9 73       		.byte	0x73
 4671 06aa 1C       		.sleb128 28
 4672 06ab 9F       		.byte	0x9f
 4673 06ac 84000000 		.4byte	.LVL119
 4674 06b0 88000000 		.4byte	.LVL120
 4675 06b4 0300     		.2byte	0x3
 4676 06b6 73       		.byte	0x73
 4677 06b7 1D       		.sleb128 29
 4678 06b8 9F       		.byte	0x9f
 4679 06b9 88000000 		.4byte	.LVL120
 4680 06bd 8C000000 		.4byte	.LVL121
 4681 06c1 0300     		.2byte	0x3
 4682 06c3 73       		.byte	0x73
 4683 06c4 1E       		.sleb128 30
 4684 06c5 9F       		.byte	0x9f
 4685 06c6 8C000000 		.4byte	.LVL121
 4686 06ca 92000000 		.4byte	.LVL122
 4687 06ce 0300     		.2byte	0x3
 4688 06d0 73       		.byte	0x73
 4689 06d1 1F       		.sleb128 31
 4690 06d2 9F       		.byte	0x9f
 4691 06d3 92000000 		.4byte	.LVL122
 4692 06d7 98000000 		.4byte	.LVL125
 4693 06db 0100     		.2byte	0x1
 4694 06dd 53       		.byte	0x53
 4695 06de 98000000 		.4byte	.LVL125
 4696 06e2 9A000000 		.4byte	.LVL126
 4697 06e6 0100     		.2byte	0x1
 4698 06e8 50       		.byte	0x50
 4699 06e9 9A000000 		.4byte	.LVL126
 4700 06ed B0000000 		.4byte	.LVL130
 4701 06f1 0100     		.2byte	0x1
 4702 06f3 53       		.byte	0x53
 4703 06f4 B0000000 		.4byte	.LVL130
 4704 06f8 BA000000 		.4byte	.LVL133
 4705 06fc 0100     		.2byte	0x1
 4706 06fe 50       		.byte	0x50
 4707 06ff BA000000 		.4byte	.LVL133
 4708 0703 CA000000 		.4byte	.LVL138
 4709 0707 0100     		.2byte	0x1
 4710 0709 53       		.byte	0x53
 4711 070a CA000000 		.4byte	.LVL138
 4712 070e CE000000 		.4byte	.LVL140
 4713 0712 0100     		.2byte	0x1
 4714 0714 50       		.byte	0x50
 4715 0715 CE000000 		.4byte	.LVL140
 4716 0719 D4000000 		.4byte	.LVL141
 4717 071d 0100     		.2byte	0x1
 4718 071f 53       		.byte	0x53
 4719 0720 10010000 		.4byte	.LVL155
ARM GAS  C:\Users\strap\AppData\Local\Temp\ccjJjp6v.s 			page 105


 4720 0724 22010000 		.4byte	.LFE49
 4721 0728 0100     		.2byte	0x1
 4722 072a 53       		.byte	0x53
 4723 072b 00000000 		.4byte	0
 4724 072f 00000000 		.4byte	0
 4725              	.LLST26:
 4726 0733 02000000 		.4byte	.LVL87
 4727 0737 14000000 		.4byte	.LVL91
 4728 073b 0100     		.2byte	0x1
 4729 073d 51       		.byte	0x51
 4730 073e 14000000 		.4byte	.LVL91
 4731 0742 18000000 		.4byte	.LVL92
 4732 0746 0300     		.2byte	0x3
 4733 0748 71       		.byte	0x71
 4734 0749 01       		.sleb128 1
 4735 074a 9F       		.byte	0x9f
 4736 074b 18000000 		.4byte	.LVL92
 4737 074f 1C000000 		.4byte	.LVL93
 4738 0753 0300     		.2byte	0x3
 4739 0755 71       		.byte	0x71
 4740 0756 02       		.sleb128 2
 4741 0757 9F       		.byte	0x9f
 4742 0758 1C000000 		.4byte	.LVL93
 4743 075c 20000000 		.4byte	.LVL94
 4744 0760 0300     		.2byte	0x3
 4745 0762 71       		.byte	0x71
 4746 0763 03       		.sleb128 3
 4747 0764 9F       		.byte	0x9f
 4748 0765 20000000 		.4byte	.LVL94
 4749 0769 24000000 		.4byte	.LVL95
 4750 076d 0300     		.2byte	0x3
 4751 076f 71       		.byte	0x71
 4752 0770 04       		.sleb128 4
 4753 0771 9F       		.byte	0x9f
 4754 0772 24000000 		.4byte	.LVL95
 4755 0776 28000000 		.4byte	.LVL96
 4756 077a 0300     		.2byte	0x3
 4757 077c 71       		.byte	0x71
 4758 077d 05       		.sleb128 5
 4759 077e 9F       		.byte	0x9f
 4760 077f 28000000 		.4byte	.LVL96
 4761 0783 2C000000 		.4byte	.LVL97
 4762 0787 0300     		.2byte	0x3
 4763 0789 71       		.byte	0x71
 4764 078a 06       		.sleb128 6
 4765 078b 9F       		.byte	0x9f
 4766 078c 2C000000 		.4byte	.LVL97
 4767 0790 30000000 		.4byte	.LVL98
 4768 0794 0300     		.2byte	0x3
 4769 0796 71       		.byte	0x71
 4770 0797 07       		.sleb128 7
 4771 0798 9F       		.byte	0x9f
 4772 0799 30000000 		.4byte	.LVL98
 4773 079d 34000000 		.4byte	.LVL99
 4774 07a1 0300     		.2byte	0x3
 4775 07a3 71       		.byte	0x71
 4776 07a4 08       		.sleb128 8
ARM GAS  C:\Users\strap\AppData\Local\Temp\ccjJjp6v.s 			page 106


 4777 07a5 9F       		.byte	0x9f
 4778 07a6 34000000 		.4byte	.LVL99
 4779 07aa 38000000 		.4byte	.LVL100
 4780 07ae 0300     		.2byte	0x3
 4781 07b0 71       		.byte	0x71
 4782 07b1 09       		.sleb128 9
 4783 07b2 9F       		.byte	0x9f
 4784 07b3 38000000 		.4byte	.LVL100
 4785 07b7 3C000000 		.4byte	.LVL101
 4786 07bb 0300     		.2byte	0x3
 4787 07bd 71       		.byte	0x71
 4788 07be 0A       		.sleb128 10
 4789 07bf 9F       		.byte	0x9f
 4790 07c0 3C000000 		.4byte	.LVL101
 4791 07c4 40000000 		.4byte	.LVL102
 4792 07c8 0300     		.2byte	0x3
 4793 07ca 71       		.byte	0x71
 4794 07cb 0B       		.sleb128 11
 4795 07cc 9F       		.byte	0x9f
 4796 07cd 40000000 		.4byte	.LVL102
 4797 07d1 44000000 		.4byte	.LVL103
 4798 07d5 0300     		.2byte	0x3
 4799 07d7 71       		.byte	0x71
 4800 07d8 0C       		.sleb128 12
 4801 07d9 9F       		.byte	0x9f
 4802 07da 44000000 		.4byte	.LVL103
 4803 07de 48000000 		.4byte	.LVL104
 4804 07e2 0300     		.2byte	0x3
 4805 07e4 71       		.byte	0x71
 4806 07e5 0D       		.sleb128 13
 4807 07e6 9F       		.byte	0x9f
 4808 07e7 48000000 		.4byte	.LVL104
 4809 07eb 4C000000 		.4byte	.LVL105
 4810 07ef 0300     		.2byte	0x3
 4811 07f1 71       		.byte	0x71
 4812 07f2 0E       		.sleb128 14
 4813 07f3 9F       		.byte	0x9f
 4814 07f4 4C000000 		.4byte	.LVL105
 4815 07f8 50000000 		.4byte	.LVL106
 4816 07fc 0300     		.2byte	0x3
 4817 07fe 71       		.byte	0x71
 4818 07ff 0F       		.sleb128 15
 4819 0800 9F       		.byte	0x9f
 4820 0801 50000000 		.4byte	.LVL106
 4821 0805 54000000 		.4byte	.LVL107
 4822 0809 0300     		.2byte	0x3
 4823 080b 71       		.byte	0x71
 4824 080c 10       		.sleb128 16
 4825 080d 9F       		.byte	0x9f
 4826 080e 54000000 		.4byte	.LVL107
 4827 0812 58000000 		.4byte	.LVL108
 4828 0816 0300     		.2byte	0x3
 4829 0818 71       		.byte	0x71
 4830 0819 11       		.sleb128 17
 4831 081a 9F       		.byte	0x9f
 4832 081b 58000000 		.4byte	.LVL108
 4833 081f 5C000000 		.4byte	.LVL109
ARM GAS  C:\Users\strap\AppData\Local\Temp\ccjJjp6v.s 			page 107


 4834 0823 0300     		.2byte	0x3
 4835 0825 71       		.byte	0x71
 4836 0826 12       		.sleb128 18
 4837 0827 9F       		.byte	0x9f
 4838 0828 5C000000 		.4byte	.LVL109
 4839 082c 60000000 		.4byte	.LVL110
 4840 0830 0300     		.2byte	0x3
 4841 0832 71       		.byte	0x71
 4842 0833 13       		.sleb128 19
 4843 0834 9F       		.byte	0x9f
 4844 0835 60000000 		.4byte	.LVL110
 4845 0839 64000000 		.4byte	.LVL111
 4846 083d 0300     		.2byte	0x3
 4847 083f 71       		.byte	0x71
 4848 0840 14       		.sleb128 20
 4849 0841 9F       		.byte	0x9f
 4850 0842 64000000 		.4byte	.LVL111
 4851 0846 68000000 		.4byte	.LVL112
 4852 084a 0300     		.2byte	0x3
 4853 084c 71       		.byte	0x71
 4854 084d 15       		.sleb128 21
 4855 084e 9F       		.byte	0x9f
 4856 084f 68000000 		.4byte	.LVL112
 4857 0853 6C000000 		.4byte	.LVL113
 4858 0857 0300     		.2byte	0x3
 4859 0859 71       		.byte	0x71
 4860 085a 16       		.sleb128 22
 4861 085b 9F       		.byte	0x9f
 4862 085c 6C000000 		.4byte	.LVL113
 4863 0860 70000000 		.4byte	.LVL114
 4864 0864 0300     		.2byte	0x3
 4865 0866 71       		.byte	0x71
 4866 0867 17       		.sleb128 23
 4867 0868 9F       		.byte	0x9f
 4868 0869 70000000 		.4byte	.LVL114
 4869 086d 74000000 		.4byte	.LVL115
 4870 0871 0300     		.2byte	0x3
 4871 0873 71       		.byte	0x71
 4872 0874 18       		.sleb128 24
 4873 0875 9F       		.byte	0x9f
 4874 0876 74000000 		.4byte	.LVL115
 4875 087a 78000000 		.4byte	.LVL116
 4876 087e 0300     		.2byte	0x3
 4877 0880 71       		.byte	0x71
 4878 0881 19       		.sleb128 25
 4879 0882 9F       		.byte	0x9f
 4880 0883 78000000 		.4byte	.LVL116
 4881 0887 7C000000 		.4byte	.LVL117
 4882 088b 0300     		.2byte	0x3
 4883 088d 71       		.byte	0x71
 4884 088e 1A       		.sleb128 26
 4885 088f 9F       		.byte	0x9f
 4886 0890 7C000000 		.4byte	.LVL117
 4887 0894 80000000 		.4byte	.LVL118
 4888 0898 0300     		.2byte	0x3
 4889 089a 71       		.byte	0x71
 4890 089b 1B       		.sleb128 27
ARM GAS  C:\Users\strap\AppData\Local\Temp\ccjJjp6v.s 			page 108


 4891 089c 9F       		.byte	0x9f
 4892 089d 80000000 		.4byte	.LVL118
 4893 08a1 84000000 		.4byte	.LVL119
 4894 08a5 0300     		.2byte	0x3
 4895 08a7 71       		.byte	0x71
 4896 08a8 1C       		.sleb128 28
 4897 08a9 9F       		.byte	0x9f
 4898 08aa 84000000 		.4byte	.LVL119
 4899 08ae 88000000 		.4byte	.LVL120
 4900 08b2 0300     		.2byte	0x3
 4901 08b4 71       		.byte	0x71
 4902 08b5 1D       		.sleb128 29
 4903 08b6 9F       		.byte	0x9f
 4904 08b7 88000000 		.4byte	.LVL120
 4905 08bb 8C000000 		.4byte	.LVL121
 4906 08bf 0300     		.2byte	0x3
 4907 08c1 71       		.byte	0x71
 4908 08c2 1E       		.sleb128 30
 4909 08c3 9F       		.byte	0x9f
 4910 08c4 8C000000 		.4byte	.LVL121
 4911 08c8 94000000 		.4byte	.LVL123
 4912 08cc 0300     		.2byte	0x3
 4913 08ce 71       		.byte	0x71
 4914 08cf 1F       		.sleb128 31
 4915 08d0 9F       		.byte	0x9f
 4916 08d1 94000000 		.4byte	.LVL123
 4917 08d5 A4000000 		.4byte	.LVL127
 4918 08d9 0100     		.2byte	0x1
 4919 08db 51       		.byte	0x51
 4920 08dc A4000000 		.4byte	.LVL127
 4921 08e0 A8000000 		.4byte	.LVL128
 4922 08e4 0300     		.2byte	0x3
 4923 08e6 71       		.byte	0x71
 4924 08e7 7F       		.sleb128 -1
 4925 08e8 9F       		.byte	0x9f
 4926 08e9 A8000000 		.4byte	.LVL128
 4927 08ed BE000000 		.4byte	.LVL134
 4928 08f1 0100     		.2byte	0x1
 4929 08f3 51       		.byte	0x51
 4930 08f4 BE000000 		.4byte	.LVL134
 4931 08f8 C2000000 		.4byte	.LVL135
 4932 08fc 0300     		.2byte	0x3
 4933 08fe 71       		.byte	0x71
 4934 08ff 7F       		.sleb128 -1
 4935 0900 9F       		.byte	0x9f
 4936 0901 C2000000 		.4byte	.LVL135
 4937 0905 D4000000 		.4byte	.LVL141
 4938 0909 0100     		.2byte	0x1
 4939 090b 51       		.byte	0x51
 4940 090c 10010000 		.4byte	.LVL155
 4941 0910 14010000 		.4byte	.LVL156
 4942 0914 0100     		.2byte	0x1
 4943 0916 51       		.byte	0x51
 4944 0917 14010000 		.4byte	.LVL156
 4945 091b 18010000 		.4byte	.LVL157
 4946 091f 0300     		.2byte	0x3
 4947 0921 71       		.byte	0x71
ARM GAS  C:\Users\strap\AppData\Local\Temp\ccjJjp6v.s 			page 109


 4948 0922 7F       		.sleb128 -1
 4949 0923 9F       		.byte	0x9f
 4950 0924 18010000 		.4byte	.LVL157
 4951 0928 22010000 		.4byte	.LFE49
 4952 092c 0100     		.2byte	0x1
 4953 092e 51       		.byte	0x51
 4954 092f 00000000 		.4byte	0
 4955 0933 00000000 		.4byte	0
 4956              	.LLST27:
 4957 0937 06000000 		.4byte	.LVL88
 4958 093b 10000000 		.4byte	.LVL90
 4959 093f 0100     		.2byte	0x1
 4960 0941 54       		.byte	0x54
 4961 0942 10000000 		.4byte	.LVL90
 4962 0946 98000000 		.4byte	.LVL125
 4963 094a 0500     		.2byte	0x5
 4964 094c 70       		.byte	0x70
 4965 094d 00       		.sleb128 0
 4966 094e 33       		.byte	0x33
 4967 094f 1A       		.byte	0x1a
 4968 0950 9F       		.byte	0x9f
 4969 0951 98000000 		.4byte	.LVL125
 4970 0955 9A000000 		.4byte	.LVL126
 4971 0959 0100     		.2byte	0x1
 4972 095b 54       		.byte	0x54
 4973 095c 9A000000 		.4byte	.LVL126
 4974 0960 B0000000 		.4byte	.LVL130
 4975 0964 0500     		.2byte	0x5
 4976 0966 70       		.byte	0x70
 4977 0967 00       		.sleb128 0
 4978 0968 33       		.byte	0x33
 4979 0969 1A       		.byte	0x1a
 4980 096a 9F       		.byte	0x9f
 4981 096b B0000000 		.4byte	.LVL130
 4982 096f D4000000 		.4byte	.LVL141
 4983 0973 0100     		.2byte	0x1
 4984 0975 54       		.byte	0x54
 4985 0976 00000000 		.4byte	0
 4986 097a 00000000 		.4byte	0
 4987              	.LLST28:
 4988 097e 0A000000 		.4byte	.LVL89
 4989 0982 10000000 		.4byte	.LVL90
 4990 0986 0100     		.2byte	0x1
 4991 0988 53       		.byte	0x53
 4992 0989 10000000 		.4byte	.LVL90
 4993 098d 98000000 		.4byte	.LVL125
 4994 0991 0600     		.2byte	0x6
 4995 0993 F3       		.byte	0xf3
 4996 0994 01       		.uleb128 0x1
 4997 0995 51       		.byte	0x51
 4998 0996 33       		.byte	0x33
 4999 0997 1A       		.byte	0x1a
 5000 0998 9F       		.byte	0x9f
 5001 0999 98000000 		.4byte	.LVL125
 5002 099d 9A000000 		.4byte	.LVL126
 5003 09a1 0100     		.2byte	0x1
 5004 09a3 53       		.byte	0x53
ARM GAS  C:\Users\strap\AppData\Local\Temp\ccjJjp6v.s 			page 110


 5005 09a4 9A000000 		.4byte	.LVL126
 5006 09a8 B0000000 		.4byte	.LVL130
 5007 09ac 0600     		.2byte	0x6
 5008 09ae F3       		.byte	0xf3
 5009 09af 01       		.uleb128 0x1
 5010 09b0 51       		.byte	0x51
 5011 09b1 33       		.byte	0x33
 5012 09b2 1A       		.byte	0x1a
 5013 09b3 9F       		.byte	0x9f
 5014 09b4 B0000000 		.4byte	.LVL130
 5015 09b8 B8000000 		.4byte	.LVL132
 5016 09bc 0100     		.2byte	0x1
 5017 09be 53       		.byte	0x53
 5018 09bf B8000000 		.4byte	.LVL132
 5019 09c3 BA000000 		.4byte	.LVL133
 5020 09c7 0500     		.2byte	0x5
 5021 09c9 71       		.byte	0x71
 5022 09ca 00       		.sleb128 0
 5023 09cb 33       		.byte	0x33
 5024 09cc 1A       		.byte	0x1a
 5025 09cd 9F       		.byte	0x9f
 5026 09ce BA000000 		.4byte	.LVL133
 5027 09d2 CA000000 		.4byte	.LVL138
 5028 09d6 0600     		.2byte	0x6
 5029 09d8 F3       		.byte	0xf3
 5030 09d9 01       		.uleb128 0x1
 5031 09da 51       		.byte	0x51
 5032 09db 33       		.byte	0x33
 5033 09dc 1A       		.byte	0x1a
 5034 09dd 9F       		.byte	0x9f
 5035 09de CA000000 		.4byte	.LVL138
 5036 09e2 CC000000 		.4byte	.LVL139
 5037 09e6 0100     		.2byte	0x1
 5038 09e8 53       		.byte	0x53
 5039 09e9 CC000000 		.4byte	.LVL139
 5040 09ed CE000000 		.4byte	.LVL140
 5041 09f1 0500     		.2byte	0x5
 5042 09f3 71       		.byte	0x71
 5043 09f4 00       		.sleb128 0
 5044 09f5 33       		.byte	0x33
 5045 09f6 1A       		.byte	0x1a
 5046 09f7 9F       		.byte	0x9f
 5047 09f8 CE000000 		.4byte	.LVL140
 5048 09fc 22010000 		.4byte	.LFE49
 5049 0a00 0600     		.2byte	0x6
 5050 0a02 F3       		.byte	0xf3
 5051 0a03 01       		.uleb128 0x1
 5052 0a04 51       		.byte	0x51
 5053 0a05 33       		.byte	0x33
 5054 0a06 1A       		.byte	0x1a
 5055 0a07 9F       		.byte	0x9f
 5056 0a08 00000000 		.4byte	0
 5057 0a0c 00000000 		.4byte	0
 5058              	.LLST29:
 5059 0a10 D4000000 		.4byte	.LVL141
 5060 0a14 D8000000 		.4byte	.LVL142
 5061 0a18 0100     		.2byte	0x1
ARM GAS  C:\Users\strap\AppData\Local\Temp\ccjJjp6v.s 			page 111


 5062 0a1a 53       		.byte	0x53
 5063 0a1b D8000000 		.4byte	.LVL142
 5064 0a1f DC000000 		.4byte	.LVL143
 5065 0a23 0300     		.2byte	0x3
 5066 0a25 73       		.byte	0x73
 5067 0a26 04       		.sleb128 4
 5068 0a27 9F       		.byte	0x9f
 5069 0a28 DC000000 		.4byte	.LVL143
 5070 0a2c E0000000 		.4byte	.LVL144
 5071 0a30 0300     		.2byte	0x3
 5072 0a32 73       		.byte	0x73
 5073 0a33 08       		.sleb128 8
 5074 0a34 9F       		.byte	0x9f
 5075 0a35 E0000000 		.4byte	.LVL144
 5076 0a39 E4000000 		.4byte	.LVL145
 5077 0a3d 0300     		.2byte	0x3
 5078 0a3f 73       		.byte	0x73
 5079 0a40 0C       		.sleb128 12
 5080 0a41 9F       		.byte	0x9f
 5081 0a42 E4000000 		.4byte	.LVL145
 5082 0a46 E8000000 		.4byte	.LVL146
 5083 0a4a 0300     		.2byte	0x3
 5084 0a4c 73       		.byte	0x73
 5085 0a4d 10       		.sleb128 16
 5086 0a4e 9F       		.byte	0x9f
 5087 0a4f E8000000 		.4byte	.LVL146
 5088 0a53 EC000000 		.4byte	.LVL147
 5089 0a57 0300     		.2byte	0x3
 5090 0a59 73       		.byte	0x73
 5091 0a5a 14       		.sleb128 20
 5092 0a5b 9F       		.byte	0x9f
 5093 0a5c EC000000 		.4byte	.LVL147
 5094 0a60 F0000000 		.4byte	.LVL148
 5095 0a64 0300     		.2byte	0x3
 5096 0a66 73       		.byte	0x73
 5097 0a67 18       		.sleb128 24
 5098 0a68 9F       		.byte	0x9f
 5099 0a69 F0000000 		.4byte	.LVL148
 5100 0a6d F6000000 		.4byte	.LVL149
 5101 0a71 0300     		.2byte	0x3
 5102 0a73 73       		.byte	0x73
 5103 0a74 1C       		.sleb128 28
 5104 0a75 9F       		.byte	0x9f
 5105 0a76 F6000000 		.4byte	.LVL149
 5106 0a7a 10010000 		.4byte	.LVL155
 5107 0a7e 0100     		.2byte	0x1
 5108 0a80 53       		.byte	0x53
 5109 0a81 00000000 		.4byte	0
 5110 0a85 00000000 		.4byte	0
 5111              	.LLST30:
 5112 0a89 D4000000 		.4byte	.LVL141
 5113 0a8d D8000000 		.4byte	.LVL142
 5114 0a91 0100     		.2byte	0x1
 5115 0a93 51       		.byte	0x51
 5116 0a94 D8000000 		.4byte	.LVL142
 5117 0a98 DC000000 		.4byte	.LVL143
 5118 0a9c 0300     		.2byte	0x3
ARM GAS  C:\Users\strap\AppData\Local\Temp\ccjJjp6v.s 			page 112


 5119 0a9e 71       		.byte	0x71
 5120 0a9f 04       		.sleb128 4
 5121 0aa0 9F       		.byte	0x9f
 5122 0aa1 DC000000 		.4byte	.LVL143
 5123 0aa5 E0000000 		.4byte	.LVL144
 5124 0aa9 0300     		.2byte	0x3
 5125 0aab 71       		.byte	0x71
 5126 0aac 08       		.sleb128 8
 5127 0aad 9F       		.byte	0x9f
 5128 0aae E0000000 		.4byte	.LVL144
 5129 0ab2 E4000000 		.4byte	.LVL145
 5130 0ab6 0300     		.2byte	0x3
 5131 0ab8 71       		.byte	0x71
 5132 0ab9 0C       		.sleb128 12
 5133 0aba 9F       		.byte	0x9f
 5134 0abb E4000000 		.4byte	.LVL145
 5135 0abf E8000000 		.4byte	.LVL146
 5136 0ac3 0300     		.2byte	0x3
 5137 0ac5 71       		.byte	0x71
 5138 0ac6 10       		.sleb128 16
 5139 0ac7 9F       		.byte	0x9f
 5140 0ac8 E8000000 		.4byte	.LVL146
 5141 0acc EC000000 		.4byte	.LVL147
 5142 0ad0 0300     		.2byte	0x3
 5143 0ad2 71       		.byte	0x71
 5144 0ad3 14       		.sleb128 20
 5145 0ad4 9F       		.byte	0x9f
 5146 0ad5 EC000000 		.4byte	.LVL147
 5147 0ad9 F0000000 		.4byte	.LVL148
 5148 0add 0300     		.2byte	0x3
 5149 0adf 71       		.byte	0x71
 5150 0ae0 18       		.sleb128 24
 5151 0ae1 9F       		.byte	0x9f
 5152 0ae2 F0000000 		.4byte	.LVL148
 5153 0ae6 F8000000 		.4byte	.LVL150
 5154 0aea 0300     		.2byte	0x3
 5155 0aec 71       		.byte	0x71
 5156 0aed 1C       		.sleb128 28
 5157 0aee 9F       		.byte	0x9f
 5158 0aef F8000000 		.4byte	.LVL150
 5159 0af3 04010000 		.4byte	.LVL152
 5160 0af7 0100     		.2byte	0x1
 5161 0af9 51       		.byte	0x51
 5162 0afa 04010000 		.4byte	.LVL152
 5163 0afe 08010000 		.4byte	.LVL153
 5164 0b02 0300     		.2byte	0x3
 5165 0b04 71       		.byte	0x71
 5166 0b05 7C       		.sleb128 -4
 5167 0b06 9F       		.byte	0x9f
 5168 0b07 08010000 		.4byte	.LVL153
 5169 0b0b 10010000 		.4byte	.LVL155
 5170 0b0f 0100     		.2byte	0x1
 5171 0b11 51       		.byte	0x51
 5172 0b12 00000000 		.4byte	0
 5173 0b16 00000000 		.4byte	0
 5174              	.LLST31:
 5175 0b1a 00000000 		.4byte	.LVL159
ARM GAS  C:\Users\strap\AppData\Local\Temp\ccjJjp6v.s 			page 113


 5176 0b1e 18000000 		.4byte	.LVL163
 5177 0b22 0100     		.2byte	0x1
 5178 0b24 50       		.byte	0x50
 5179 0b25 18000000 		.4byte	.LVL163
 5180 0b29 64000000 		.4byte	.LFE41
 5181 0b2d 0100     		.2byte	0x1
 5182 0b2f 54       		.byte	0x54
 5183 0b30 00000000 		.4byte	0
 5184 0b34 00000000 		.4byte	0
 5185              	.LLST32:
 5186 0b38 00000000 		.4byte	.LVL159
 5187 0b3c 04000000 		.4byte	.LVL160
 5188 0b40 0100     		.2byte	0x1
 5189 0b42 51       		.byte	0x51
 5190 0b43 04000000 		.4byte	.LVL160
 5191 0b47 08000000 		.4byte	.LVL161
 5192 0b4b 0300     		.2byte	0x3
 5193 0b4d 71       		.byte	0x71
 5194 0b4e 7D       		.sleb128 -3
 5195 0b4f 9F       		.byte	0x9f
 5196 0b50 08000000 		.4byte	.LVL161
 5197 0b54 64000000 		.4byte	.LFE41
 5198 0b58 0100     		.2byte	0x1
 5199 0b5a 55       		.byte	0x55
 5200 0b5b 00000000 		.4byte	0
 5201 0b5f 00000000 		.4byte	0
 5202              	.LLST33:
 5203 0b63 20000000 		.4byte	.LVL165
 5204 0b67 2A000000 		.4byte	.LVL167
 5205 0b6b 0100     		.2byte	0x1
 5206 0b6d 50       		.byte	0x50
 5207 0b6e 2A000000 		.4byte	.LVL167
 5208 0b72 32000000 		.4byte	.LVL169
 5209 0b76 0100     		.2byte	0x1
 5210 0b78 56       		.byte	0x56
 5211 0b79 32000000 		.4byte	.LVL169
 5212 0b7d 34000000 		.4byte	.LVL170
 5213 0b81 0100     		.2byte	0x1
 5214 0b83 50       		.byte	0x50
 5215 0b84 34000000 		.4byte	.LVL170
 5216 0b88 58000000 		.4byte	.LVL174
 5217 0b8c 0100     		.2byte	0x1
 5218 0b8e 56       		.byte	0x56
 5219 0b8f 58000000 		.4byte	.LVL174
 5220 0b93 5A000000 		.4byte	.LVL175
 5221 0b97 0100     		.2byte	0x1
 5222 0b99 50       		.byte	0x50
 5223 0b9a 5A000000 		.4byte	.LVL175
 5224 0b9e 64000000 		.4byte	.LFE41
 5225 0ba2 0100     		.2byte	0x1
 5226 0ba4 56       		.byte	0x56
 5227 0ba5 00000000 		.4byte	0
 5228 0ba9 00000000 		.4byte	0
 5229              	.LLST34:
 5230 0bad 38000000 		.4byte	.LVL171
 5231 0bb1 4D000000 		.4byte	.LVL172-1
 5232 0bb5 0100     		.2byte	0x1
ARM GAS  C:\Users\strap\AppData\Local\Temp\ccjJjp6v.s 			page 114


 5233 0bb7 50       		.byte	0x50
 5234 0bb8 4D000000 		.4byte	.LVL172-1
 5235 0bbc 58000000 		.4byte	.LVL174
 5236 0bc0 0100     		.2byte	0x1
 5237 0bc2 57       		.byte	0x57
 5238 0bc3 5C000000 		.4byte	.LVL176
 5239 0bc7 5E000000 		.4byte	.LVL177
 5240 0bcb 0100     		.2byte	0x1
 5241 0bcd 50       		.byte	0x50
 5242 0bce 5E000000 		.4byte	.LVL177
 5243 0bd2 60000000 		.4byte	.LVL178
 5244 0bd6 0100     		.2byte	0x1
 5245 0bd8 57       		.byte	0x57
 5246 0bd9 60000000 		.4byte	.LVL178
 5247 0bdd 64000000 		.4byte	.LFE41
 5248 0be1 0100     		.2byte	0x1
 5249 0be3 50       		.byte	0x50
 5250 0be4 00000000 		.4byte	0
 5251 0be8 00000000 		.4byte	0
 5252              	.LLST35:
 5253 0bec 0C000000 		.4byte	.LVL162
 5254 0bf0 18000000 		.4byte	.LVL163
 5255 0bf4 0300     		.2byte	0x3
 5256 0bf6 70       		.byte	0x70
 5257 0bf7 7C       		.sleb128 -4
 5258 0bf8 9F       		.byte	0x9f
 5259 0bf9 00000000 		.4byte	0
 5260 0bfd 00000000 		.4byte	0
 5261              	.LLST36:
 5262 0c01 26000000 		.4byte	.LVL166
 5263 0c05 2A000000 		.4byte	.LVL167
 5264 0c09 0300     		.2byte	0x3
 5265 0c0b 74       		.byte	0x74
 5266 0c0c 7C       		.sleb128 -4
 5267 0c0d 9F       		.byte	0x9f
 5268 0c0e 2A000000 		.4byte	.LVL167
 5269 0c12 2D000000 		.4byte	.LVL168-1
 5270 0c16 0100     		.2byte	0x1
 5271 0c18 50       		.byte	0x50
 5272 0c19 2D000000 		.4byte	.LVL168-1
 5273 0c1d 32000000 		.4byte	.LVL169
 5274 0c21 0300     		.2byte	0x3
 5275 0c23 74       		.byte	0x74
 5276 0c24 7C       		.sleb128 -4
 5277 0c25 9F       		.byte	0x9f
 5278 0c26 00000000 		.4byte	0
 5279 0c2a 00000000 		.4byte	0
 5280              	.LLST37:
 5281 0c2e 00000000 		.4byte	.LVL180
 5282 0c32 10000000 		.4byte	.LVL181
 5283 0c36 0100     		.2byte	0x1
 5284 0c38 50       		.byte	0x50
 5285 0c39 10000000 		.4byte	.LVL181
 5286 0c3d 2A000000 		.4byte	.LVL183
 5287 0c41 0100     		.2byte	0x1
 5288 0c43 51       		.byte	0x51
 5289 0c44 2A000000 		.4byte	.LVL183
ARM GAS  C:\Users\strap\AppData\Local\Temp\ccjJjp6v.s 			page 115


 5290 0c48 38000000 		.4byte	.LVL185
 5291 0c4c 0400     		.2byte	0x4
 5292 0c4e F3       		.byte	0xf3
 5293 0c4f 01       		.uleb128 0x1
 5294 0c50 50       		.byte	0x50
 5295 0c51 9F       		.byte	0x9f
 5296 0c52 38000000 		.4byte	.LVL185
 5297 0c56 3E000000 		.4byte	.LVL188
 5298 0c5a 0100     		.2byte	0x1
 5299 0c5c 51       		.byte	0x51
 5300 0c5d 3E000000 		.4byte	.LVL188
 5301 0c61 40000000 		.4byte	.LVL189
 5302 0c65 0100     		.2byte	0x1
 5303 0c67 50       		.byte	0x50
 5304 0c68 40000000 		.4byte	.LVL189
 5305 0c6c 70000000 		.4byte	.LVL192
 5306 0c70 0100     		.2byte	0x1
 5307 0c72 51       		.byte	0x51
 5308 0c73 70000000 		.4byte	.LVL192
 5309 0c77 7E000000 		.4byte	.LVL195
 5310 0c7b 0400     		.2byte	0x4
 5311 0c7d F3       		.byte	0xf3
 5312 0c7e 01       		.uleb128 0x1
 5313 0c7f 50       		.byte	0x50
 5314 0c80 9F       		.byte	0x9f
 5315 0c81 7E000000 		.4byte	.LVL195
 5316 0c85 A6000000 		.4byte	.LVL200
 5317 0c89 0100     		.2byte	0x1
 5318 0c8b 51       		.byte	0x51
 5319 0c8c A6000000 		.4byte	.LVL200
 5320 0c90 B4000000 		.4byte	.LVL203
 5321 0c94 0400     		.2byte	0x4
 5322 0c96 F3       		.byte	0xf3
 5323 0c97 01       		.uleb128 0x1
 5324 0c98 50       		.byte	0x50
 5325 0c99 9F       		.byte	0x9f
 5326 0c9a B4000000 		.4byte	.LVL203
 5327 0c9e D9000000 		.4byte	.LVL206-1
 5328 0ca2 0100     		.2byte	0x1
 5329 0ca4 51       		.byte	0x51
 5330 0ca5 D9000000 		.4byte	.LVL206-1
 5331 0ca9 EC000000 		.4byte	.LVL208
 5332 0cad 0400     		.2byte	0x4
 5333 0caf F3       		.byte	0xf3
 5334 0cb0 01       		.uleb128 0x1
 5335 0cb1 50       		.byte	0x50
 5336 0cb2 9F       		.byte	0x9f
 5337 0cb3 EC000000 		.4byte	.LVL208
 5338 0cb7 01010000 		.4byte	.LVL214-1
 5339 0cbb 0100     		.2byte	0x1
 5340 0cbd 51       		.byte	0x51
 5341 0cbe 01010000 		.4byte	.LVL214-1
 5342 0cc2 04010000 		.4byte	.LVL215
 5343 0cc6 0400     		.2byte	0x4
 5344 0cc8 F3       		.byte	0xf3
 5345 0cc9 01       		.uleb128 0x1
 5346 0cca 50       		.byte	0x50
ARM GAS  C:\Users\strap\AppData\Local\Temp\ccjJjp6v.s 			page 116


 5347 0ccb 9F       		.byte	0x9f
 5348 0ccc 04010000 		.4byte	.LVL215
 5349 0cd0 06010000 		.4byte	.LVL216
 5350 0cd4 0100     		.2byte	0x1
 5351 0cd6 50       		.byte	0x50
 5352 0cd7 06010000 		.4byte	.LVL216
 5353 0cdb 1C010000 		.4byte	.LFE46
 5354 0cdf 0400     		.2byte	0x4
 5355 0ce1 F3       		.byte	0xf3
 5356 0ce2 01       		.uleb128 0x1
 5357 0ce3 50       		.byte	0x50
 5358 0ce4 9F       		.byte	0x9f
 5359 0ce5 00000000 		.4byte	0
 5360 0ce9 00000000 		.4byte	0
 5361              	.LLST38:
 5362 0ced 14000000 		.4byte	.LVL182
 5363 0cf1 2C000000 		.4byte	.LVL184
 5364 0cf5 0100     		.2byte	0x1
 5365 0cf7 53       		.byte	0x53
 5366 0cf8 38000000 		.4byte	.LVL185
 5367 0cfc 3A000000 		.4byte	.LVL186
 5368 0d00 0100     		.2byte	0x1
 5369 0d02 53       		.byte	0x53
 5370 0d03 3C000000 		.4byte	.LVL187
 5371 0d07 3E000000 		.4byte	.LVL188
 5372 0d0b 0100     		.2byte	0x1
 5373 0d0d 53       		.byte	0x53
 5374 0d0e 40000000 		.4byte	.LVL189
 5375 0d12 4A000000 		.4byte	.LVL190
 5376 0d16 0100     		.2byte	0x1
 5377 0d18 53       		.byte	0x53
 5378 0d19 4C000000 		.4byte	.LVL191
 5379 0d1d 72000000 		.4byte	.LVL193
 5380 0d21 0100     		.2byte	0x1
 5381 0d23 53       		.byte	0x53
 5382 0d24 7E000000 		.4byte	.LVL195
 5383 0d28 96000000 		.4byte	.LVL198
 5384 0d2c 0100     		.2byte	0x1
 5385 0d2e 53       		.byte	0x53
 5386 0d2f 98000000 		.4byte	.LVL199
 5387 0d33 A8000000 		.4byte	.LVL201
 5388 0d37 0100     		.2byte	0x1
 5389 0d39 53       		.byte	0x53
 5390 0d3a B4000000 		.4byte	.LVL203
 5391 0d3e CA000000 		.4byte	.LVL204
 5392 0d42 0100     		.2byte	0x1
 5393 0d44 53       		.byte	0x53
 5394 0d45 EC000000 		.4byte	.LVL208
 5395 0d49 EE000000 		.4byte	.LVL209
 5396 0d4d 0100     		.2byte	0x1
 5397 0d4f 53       		.byte	0x53
 5398 0d50 F0000000 		.4byte	.LVL210
 5399 0d54 FC000000 		.4byte	.LVL212
 5400 0d58 0100     		.2byte	0x1
 5401 0d5a 53       		.byte	0x53
 5402 0d5b 00000000 		.4byte	0
 5403 0d5f 00000000 		.4byte	0
ARM GAS  C:\Users\strap\AppData\Local\Temp\ccjJjp6v.s 			page 117


 5404              	.LLST39:
 5405 0d63 4C000000 		.4byte	.LVL191
 5406 0d67 7C000000 		.4byte	.LVL194
 5407 0d6b 0100     		.2byte	0x1
 5408 0d6d 50       		.byte	0x50
 5409 0d6e 7E000000 		.4byte	.LVL195
 5410 0d72 B2000000 		.4byte	.LVL202
 5411 0d76 0100     		.2byte	0x1
 5412 0d78 50       		.byte	0x50
 5413 0d79 B4000000 		.4byte	.LVL203
 5414 0d7d D6000000 		.4byte	.LVL205
 5415 0d81 0100     		.2byte	0x1
 5416 0d83 50       		.byte	0x50
 5417 0d84 EC000000 		.4byte	.LVL208
 5418 0d88 FE000000 		.4byte	.LVL213
 5419 0d8c 0100     		.2byte	0x1
 5420 0d8e 50       		.byte	0x50
 5421 0d8f 00000000 		.4byte	0
 5422 0d93 00000000 		.4byte	0
 5423              	.LLST40:
 5424 0d97 00000000 		.4byte	.LVL217
 5425 0d9b 0C000000 		.4byte	.LVL220
 5426 0d9f 0100     		.2byte	0x1
 5427 0da1 50       		.byte	0x50
 5428 0da2 0C000000 		.4byte	.LVL220
 5429 0da6 5A000000 		.4byte	.LFE50
 5430 0daa 0400     		.2byte	0x4
 5431 0dac F3       		.byte	0xf3
 5432 0dad 01       		.uleb128 0x1
 5433 0dae 50       		.byte	0x50
 5434 0daf 9F       		.byte	0x9f
 5435 0db0 00000000 		.4byte	0
 5436 0db4 00000000 		.4byte	0
 5437              	.LLST41:
 5438 0db8 00000000 		.4byte	.LVL217
 5439 0dbc 12000000 		.4byte	.LVL222
 5440 0dc0 0100     		.2byte	0x1
 5441 0dc2 52       		.byte	0x52
 5442 0dc3 12000000 		.4byte	.LVL222
 5443 0dc7 5A000000 		.4byte	.LFE50
 5444 0dcb 0100     		.2byte	0x1
 5445 0dcd 52       		.byte	0x52
 5446 0dce 00000000 		.4byte	0
 5447 0dd2 00000000 		.4byte	0
 5448              	.LLST42:
 5449 0dd6 00000000 		.4byte	.LVL217
 5450 0dda 28000000 		.4byte	.LVL226
 5451 0dde 0100     		.2byte	0x1
 5452 0de0 50       		.byte	0x50
 5453 0de1 4E000000 		.4byte	.LVL238
 5454 0de5 5A000000 		.4byte	.LFE50
 5455 0de9 0100     		.2byte	0x1
 5456 0deb 50       		.byte	0x50
 5457 0dec 00000000 		.4byte	0
 5458 0df0 00000000 		.4byte	0
 5459              	.LLST43:
 5460 0df4 00000000 		.4byte	.LVL217
ARM GAS  C:\Users\strap\AppData\Local\Temp\ccjJjp6v.s 			page 118


 5461 0df8 04000000 		.4byte	.LVL218
 5462 0dfc 0500     		.2byte	0x5
 5463 0dfe 70       		.byte	0x70
 5464 0dff 00       		.sleb128 0
 5465 0e00 33       		.byte	0x33
 5466 0e01 1A       		.byte	0x1a
 5467 0e02 9F       		.byte	0x9f
 5468 0e03 04000000 		.4byte	.LVL218
 5469 0e07 1E000000 		.4byte	.LVL224
 5470 0e0b 0100     		.2byte	0x1
 5471 0e0d 53       		.byte	0x53
 5472 0e0e 00000000 		.4byte	0
 5473 0e12 00000000 		.4byte	0
 5474              	.LLST44:
 5475 0e16 26000000 		.4byte	.LVL225
 5476 0e1a 2A000000 		.4byte	.LVL227
 5477 0e1e 0100     		.2byte	0x1
 5478 0e20 50       		.byte	0x50
 5479 0e21 2A000000 		.4byte	.LVL227
 5480 0e25 2C000000 		.4byte	.LVL228
 5481 0e29 0300     		.2byte	0x3
 5482 0e2b 70       		.byte	0x70
 5483 0e2c 04       		.sleb128 4
 5484 0e2d 9F       		.byte	0x9f
 5485 0e2e 2C000000 		.4byte	.LVL228
 5486 0e32 2E000000 		.4byte	.LVL229
 5487 0e36 0300     		.2byte	0x3
 5488 0e38 70       		.byte	0x70
 5489 0e39 08       		.sleb128 8
 5490 0e3a 9F       		.byte	0x9f
 5491 0e3b 2E000000 		.4byte	.LVL229
 5492 0e3f 30000000 		.4byte	.LVL230
 5493 0e43 0300     		.2byte	0x3
 5494 0e45 70       		.byte	0x70
 5495 0e46 0C       		.sleb128 12
 5496 0e47 9F       		.byte	0x9f
 5497 0e48 30000000 		.4byte	.LVL230
 5498 0e4c 32000000 		.4byte	.LVL231
 5499 0e50 0300     		.2byte	0x3
 5500 0e52 70       		.byte	0x70
 5501 0e53 10       		.sleb128 16
 5502 0e54 9F       		.byte	0x9f
 5503 0e55 32000000 		.4byte	.LVL231
 5504 0e59 34000000 		.4byte	.LVL232
 5505 0e5d 0300     		.2byte	0x3
 5506 0e5f 70       		.byte	0x70
 5507 0e60 14       		.sleb128 20
 5508 0e61 9F       		.byte	0x9f
 5509 0e62 34000000 		.4byte	.LVL232
 5510 0e66 36000000 		.4byte	.LVL233
 5511 0e6a 0300     		.2byte	0x3
 5512 0e6c 70       		.byte	0x70
 5513 0e6d 18       		.sleb128 24
 5514 0e6e 9F       		.byte	0x9f
 5515 0e6f 36000000 		.4byte	.LVL233
 5516 0e73 3A000000 		.4byte	.LVL234
 5517 0e77 0300     		.2byte	0x3
ARM GAS  C:\Users\strap\AppData\Local\Temp\ccjJjp6v.s 			page 119


 5518 0e79 70       		.byte	0x70
 5519 0e7a 1C       		.sleb128 28
 5520 0e7b 9F       		.byte	0x9f
 5521 0e7c 3A000000 		.4byte	.LVL234
 5522 0e80 4E000000 		.4byte	.LVL238
 5523 0e84 0100     		.2byte	0x1
 5524 0e86 50       		.byte	0x50
 5525 0e87 00000000 		.4byte	0
 5526 0e8b 00000000 		.4byte	0
 5527              	.LLST45:
 5528 0e8f 00000000 		.4byte	.LVL241
 5529 0e93 0B000000 		.4byte	.LVL242-1
 5530 0e97 0100     		.2byte	0x1
 5531 0e99 50       		.byte	0x50
 5532 0e9a 0B000000 		.4byte	.LVL242-1
 5533 0e9e 84000000 		.4byte	.LVL246
 5534 0ea2 0100     		.2byte	0x1
 5535 0ea4 54       		.byte	0x54
 5536 0ea5 84000000 		.4byte	.LVL246
 5537 0ea9 88000000 		.4byte	.LFE44
 5538 0ead 0400     		.2byte	0x4
 5539 0eaf F3       		.byte	0xf3
 5540 0eb0 01       		.uleb128 0x1
 5541 0eb1 50       		.byte	0x50
 5542 0eb2 9F       		.byte	0x9f
 5543 0eb3 00000000 		.4byte	0
 5544 0eb7 00000000 		.4byte	0
 5545              	.LLST46:
 5546 0ebb 0C000000 		.4byte	.LVL242
 5547 0ebf 12000000 		.4byte	.LVL243
 5548 0ec3 0200     		.2byte	0x2
 5549 0ec5 30       		.byte	0x30
 5550 0ec6 9F       		.byte	0x9f
 5551 0ec7 12000000 		.4byte	.LVL243
 5552 0ecb 45000000 		.4byte	.LVL244-1
 5553 0ecf 0100     		.2byte	0x1
 5554 0ed1 50       		.byte	0x50
 5555 0ed2 46000000 		.4byte	.LVL244
 5556 0ed6 88000000 		.4byte	.LFE44
 5557 0eda 0100     		.2byte	0x1
 5558 0edc 50       		.byte	0x50
 5559 0edd 00000000 		.4byte	0
 5560 0ee1 00000000 		.4byte	0
 5561              	.LLST47:
 5562 0ee5 00000000 		.4byte	.LVL247
 5563 0ee9 0C000000 		.4byte	.LVL250
 5564 0eed 0100     		.2byte	0x1
 5565 0eef 50       		.byte	0x50
 5566 0ef0 0C000000 		.4byte	.LVL250
 5567 0ef4 56000000 		.4byte	.LFE51
 5568 0ef8 0400     		.2byte	0x4
 5569 0efa F3       		.byte	0xf3
 5570 0efb 01       		.uleb128 0x1
 5571 0efc 50       		.byte	0x50
 5572 0efd 9F       		.byte	0x9f
 5573 0efe 00000000 		.4byte	0
 5574 0f02 00000000 		.4byte	0
ARM GAS  C:\Users\strap\AppData\Local\Temp\ccjJjp6v.s 			page 120


 5575              	.LLST48:
 5576 0f06 00000000 		.4byte	.LVL247
 5577 0f0a 14000000 		.4byte	.LVL252
 5578 0f0e 0100     		.2byte	0x1
 5579 0f10 51       		.byte	0x51
 5580 0f11 14000000 		.4byte	.LVL252
 5581 0f15 56000000 		.4byte	.LFE51
 5582 0f19 0100     		.2byte	0x1
 5583 0f1b 51       		.byte	0x51
 5584 0f1c 00000000 		.4byte	0
 5585 0f20 00000000 		.4byte	0
 5586              	.LLST49:
 5587 0f24 00000000 		.4byte	.LVL247
 5588 0f28 1E000000 		.4byte	.LVL254
 5589 0f2c 0100     		.2byte	0x1
 5590 0f2e 50       		.byte	0x50
 5591 0f2f 48000000 		.4byte	.LVL266
 5592 0f33 56000000 		.4byte	.LFE51
 5593 0f37 0100     		.2byte	0x1
 5594 0f39 50       		.byte	0x50
 5595 0f3a 00000000 		.4byte	0
 5596 0f3e 00000000 		.4byte	0
 5597              	.LLST50:
 5598 0f42 00000000 		.4byte	.LVL247
 5599 0f46 04000000 		.4byte	.LVL248
 5600 0f4a 0500     		.2byte	0x5
 5601 0f4c 70       		.byte	0x70
 5602 0f4d 00       		.sleb128 0
 5603 0f4e 33       		.byte	0x33
 5604 0f4f 1A       		.byte	0x1a
 5605 0f50 9F       		.byte	0x9f
 5606 0f51 04000000 		.4byte	.LVL248
 5607 0f55 1E000000 		.4byte	.LVL254
 5608 0f59 0100     		.2byte	0x1
 5609 0f5b 53       		.byte	0x53
 5610 0f5c 00000000 		.4byte	0
 5611 0f60 00000000 		.4byte	0
 5612              	.LLST51:
 5613 0f64 1E000000 		.4byte	.LVL254
 5614 0f68 22000000 		.4byte	.LVL255
 5615 0f6c 0100     		.2byte	0x1
 5616 0f6e 50       		.byte	0x50
 5617 0f6f 22000000 		.4byte	.LVL255
 5618 0f73 24000000 		.4byte	.LVL256
 5619 0f77 0300     		.2byte	0x3
 5620 0f79 70       		.byte	0x70
 5621 0f7a 04       		.sleb128 4
 5622 0f7b 9F       		.byte	0x9f
 5623 0f7c 24000000 		.4byte	.LVL256
 5624 0f80 26000000 		.4byte	.LVL257
 5625 0f84 0300     		.2byte	0x3
 5626 0f86 70       		.byte	0x70
 5627 0f87 08       		.sleb128 8
 5628 0f88 9F       		.byte	0x9f
 5629 0f89 26000000 		.4byte	.LVL257
 5630 0f8d 28000000 		.4byte	.LVL258
 5631 0f91 0300     		.2byte	0x3
ARM GAS  C:\Users\strap\AppData\Local\Temp\ccjJjp6v.s 			page 121


 5632 0f93 70       		.byte	0x70
 5633 0f94 0C       		.sleb128 12
 5634 0f95 9F       		.byte	0x9f
 5635 0f96 28000000 		.4byte	.LVL258
 5636 0f9a 2A000000 		.4byte	.LVL259
 5637 0f9e 0300     		.2byte	0x3
 5638 0fa0 70       		.byte	0x70
 5639 0fa1 10       		.sleb128 16
 5640 0fa2 9F       		.byte	0x9f
 5641 0fa3 2A000000 		.4byte	.LVL259
 5642 0fa7 2C000000 		.4byte	.LVL260
 5643 0fab 0300     		.2byte	0x3
 5644 0fad 70       		.byte	0x70
 5645 0fae 14       		.sleb128 20
 5646 0faf 9F       		.byte	0x9f
 5647 0fb0 2C000000 		.4byte	.LVL260
 5648 0fb4 2E000000 		.4byte	.LVL261
 5649 0fb8 0300     		.2byte	0x3
 5650 0fba 70       		.byte	0x70
 5651 0fbb 18       		.sleb128 24
 5652 0fbc 9F       		.byte	0x9f
 5653 0fbd 2E000000 		.4byte	.LVL261
 5654 0fc1 32000000 		.4byte	.LVL262
 5655 0fc5 0300     		.2byte	0x3
 5656 0fc7 70       		.byte	0x70
 5657 0fc8 1C       		.sleb128 28
 5658 0fc9 9F       		.byte	0x9f
 5659 0fca 32000000 		.4byte	.LVL262
 5660 0fce 48000000 		.4byte	.LVL266
 5661 0fd2 0100     		.2byte	0x1
 5662 0fd4 50       		.byte	0x50
 5663 0fd5 00000000 		.4byte	0
 5664 0fd9 00000000 		.4byte	0
 5665              	.LLST52:
 5666 0fdd 00000000 		.4byte	.LVL271
 5667 0fe1 0C000000 		.4byte	.LVL274
 5668 0fe5 0100     		.2byte	0x1
 5669 0fe7 50       		.byte	0x50
 5670 0fe8 0C000000 		.4byte	.LVL274
 5671 0fec 5A000000 		.4byte	.LFE52
 5672 0ff0 0400     		.2byte	0x4
 5673 0ff2 F3       		.byte	0xf3
 5674 0ff3 01       		.uleb128 0x1
 5675 0ff4 50       		.byte	0x50
 5676 0ff5 9F       		.byte	0x9f
 5677 0ff6 00000000 		.4byte	0
 5678 0ffa 00000000 		.4byte	0
 5679              	.LLST53:
 5680 0ffe 00000000 		.4byte	.LVL271
 5681 1002 14000000 		.4byte	.LVL276
 5682 1006 0100     		.2byte	0x1
 5683 1008 51       		.byte	0x51
 5684 1009 14000000 		.4byte	.LVL276
 5685 100d 5A000000 		.4byte	.LFE52
 5686 1011 0100     		.2byte	0x1
 5687 1013 51       		.byte	0x51
 5688 1014 00000000 		.4byte	0
ARM GAS  C:\Users\strap\AppData\Local\Temp\ccjJjp6v.s 			page 122


 5689 1018 00000000 		.4byte	0
 5690              	.LLST54:
 5691 101c 00000000 		.4byte	.LVL271
 5692 1020 1E000000 		.4byte	.LVL278
 5693 1024 0100     		.2byte	0x1
 5694 1026 50       		.byte	0x50
 5695 1027 4C000000 		.4byte	.LVL290
 5696 102b 5A000000 		.4byte	.LFE52
 5697 102f 0100     		.2byte	0x1
 5698 1031 50       		.byte	0x50
 5699 1032 00000000 		.4byte	0
 5700 1036 00000000 		.4byte	0
 5701              	.LLST55:
 5702 103a 00000000 		.4byte	.LVL271
 5703 103e 04000000 		.4byte	.LVL272
 5704 1042 0500     		.2byte	0x5
 5705 1044 70       		.byte	0x70
 5706 1045 00       		.sleb128 0
 5707 1046 33       		.byte	0x33
 5708 1047 1A       		.byte	0x1a
 5709 1048 9F       		.byte	0x9f
 5710 1049 04000000 		.4byte	.LVL272
 5711 104d 1E000000 		.4byte	.LVL278
 5712 1051 0100     		.2byte	0x1
 5713 1053 53       		.byte	0x53
 5714 1054 00000000 		.4byte	0
 5715 1058 00000000 		.4byte	0
 5716              	.LLST56:
 5717 105c 1E000000 		.4byte	.LVL278
 5718 1060 24000000 		.4byte	.LVL279
 5719 1064 0100     		.2byte	0x1
 5720 1066 50       		.byte	0x50
 5721 1067 24000000 		.4byte	.LVL279
 5722 106b 26000000 		.4byte	.LVL280
 5723 106f 0300     		.2byte	0x3
 5724 1071 70       		.byte	0x70
 5725 1072 04       		.sleb128 4
 5726 1073 9F       		.byte	0x9f
 5727 1074 26000000 		.4byte	.LVL280
 5728 1078 28000000 		.4byte	.LVL281
 5729 107c 0300     		.2byte	0x3
 5730 107e 70       		.byte	0x70
 5731 107f 08       		.sleb128 8
 5732 1080 9F       		.byte	0x9f
 5733 1081 28000000 		.4byte	.LVL281
 5734 1085 2A000000 		.4byte	.LVL282
 5735 1089 0300     		.2byte	0x3
 5736 108b 70       		.byte	0x70
 5737 108c 0C       		.sleb128 12
 5738 108d 9F       		.byte	0x9f
 5739 108e 2A000000 		.4byte	.LVL282
 5740 1092 2C000000 		.4byte	.LVL283
 5741 1096 0300     		.2byte	0x3
 5742 1098 70       		.byte	0x70
 5743 1099 10       		.sleb128 16
 5744 109a 9F       		.byte	0x9f
 5745 109b 2C000000 		.4byte	.LVL283
ARM GAS  C:\Users\strap\AppData\Local\Temp\ccjJjp6v.s 			page 123


 5746 109f 2E000000 		.4byte	.LVL284
 5747 10a3 0300     		.2byte	0x3
 5748 10a5 70       		.byte	0x70
 5749 10a6 14       		.sleb128 20
 5750 10a7 9F       		.byte	0x9f
 5751 10a8 2E000000 		.4byte	.LVL284
 5752 10ac 30000000 		.4byte	.LVL285
 5753 10b0 0300     		.2byte	0x3
 5754 10b2 70       		.byte	0x70
 5755 10b3 18       		.sleb128 24
 5756 10b4 9F       		.byte	0x9f
 5757 10b5 30000000 		.4byte	.LVL285
 5758 10b9 34000000 		.4byte	.LVL286
 5759 10bd 0300     		.2byte	0x3
 5760 10bf 70       		.byte	0x70
 5761 10c0 1C       		.sleb128 28
 5762 10c1 9F       		.byte	0x9f
 5763 10c2 34000000 		.4byte	.LVL286
 5764 10c6 4C000000 		.4byte	.LVL290
 5765 10ca 0100     		.2byte	0x1
 5766 10cc 50       		.byte	0x50
 5767 10cd 00000000 		.4byte	0
 5768 10d1 00000000 		.4byte	0
 5769              		.section	.debug_aranges,"",%progbits
 5770 0000 AC000000 		.4byte	0xac
 5771 0004 0200     		.2byte	0x2
 5772 0006 00000000 		.4byte	.Ldebug_info0
 5773 000a 04       		.byte	0x4
 5774 000b 00       		.byte	0
 5775 000c 0000     		.2byte	0
 5776 000e 0000     		.2byte	0
 5777 0010 00000000 		.4byte	.LFB53
 5778 0014 28000000 		.4byte	.LFE53-.LFB53
 5779 0018 00000000 		.4byte	.LFB55
 5780 001c 4A000000 		.4byte	.LFE55-.LFB55
 5781 0020 00000000 		.4byte	.LFB54
 5782 0024 30000000 		.4byte	.LFE54-.LFB54
 5783 0028 00000000 		.4byte	.LFB37
 5784 002c 2C000000 		.4byte	.LFE37-.LFB37
 5785 0030 00000000 		.4byte	.LFB39
 5786 0034 68000000 		.4byte	.LFE39-.LFB39
 5787 0038 00000000 		.4byte	.LFB42
 5788 003c 54000000 		.4byte	.LFE42-.LFB42
 5789 0040 00000000 		.4byte	.LFB40
 5790 0044 74000000 		.4byte	.LFE40-.LFB40
 5791 0048 00000000 		.4byte	.LFB43
 5792 004c 3C000000 		.4byte	.LFE43-.LFB43
 5793 0050 00000000 		.4byte	.LFB45
 5794 0054 20000000 		.4byte	.LFE45-.LFB45
 5795 0058 00000000 		.4byte	.LFB47
 5796 005c 5C000000 		.4byte	.LFE47-.LFB47
 5797 0060 00000000 		.4byte	.LFB48
 5798 0064 54000000 		.4byte	.LFE48-.LFB48
 5799 0068 00000000 		.4byte	.LFB49
 5800 006c 22010000 		.4byte	.LFE49-.LFB49
 5801 0070 00000000 		.4byte	.LFB41
 5802 0074 64000000 		.4byte	.LFE41-.LFB41
ARM GAS  C:\Users\strap\AppData\Local\Temp\ccjJjp6v.s 			page 124


 5803 0078 00000000 		.4byte	.LFB46
 5804 007c 1C010000 		.4byte	.LFE46-.LFB46
 5805 0080 00000000 		.4byte	.LFB50
 5806 0084 5A000000 		.4byte	.LFE50-.LFB50
 5807 0088 00000000 		.4byte	.LFB44
 5808 008c 88000000 		.4byte	.LFE44-.LFB44
 5809 0090 00000000 		.4byte	.LFB51
 5810 0094 56000000 		.4byte	.LFE51-.LFB51
 5811 0098 00000000 		.4byte	.LFB38
 5812 009c 2C000000 		.4byte	.LFE38-.LFB38
 5813 00a0 00000000 		.4byte	.LFB52
 5814 00a4 5A000000 		.4byte	.LFE52-.LFB52
 5815 00a8 00000000 		.4byte	0
 5816 00ac 00000000 		.4byte	0
 5817              		.section	.debug_ranges,"",%progbits
 5818              	.Ldebug_ranges0:
 5819 0000 0A000000 		.4byte	.LBB5
 5820 0004 28000000 		.4byte	.LBE5
 5821 0008 30000000 		.4byte	.LBB6
 5822 000c 36000000 		.4byte	.LBE6
 5823 0010 00000000 		.4byte	0
 5824 0014 00000000 		.4byte	0
 5825 0018 00000000 		.4byte	.LFB53
 5826 001c 28000000 		.4byte	.LFE53
 5827 0020 00000000 		.4byte	.LFB55
 5828 0024 4A000000 		.4byte	.LFE55
 5829 0028 00000000 		.4byte	.LFB54
 5830 002c 30000000 		.4byte	.LFE54
 5831 0030 00000000 		.4byte	.LFB37
 5832 0034 2C000000 		.4byte	.LFE37
 5833 0038 00000000 		.4byte	.LFB39
 5834 003c 68000000 		.4byte	.LFE39
 5835 0040 00000000 		.4byte	.LFB42
 5836 0044 54000000 		.4byte	.LFE42
 5837 0048 00000000 		.4byte	.LFB40
 5838 004c 74000000 		.4byte	.LFE40
 5839 0050 00000000 		.4byte	.LFB43
 5840 0054 3C000000 		.4byte	.LFE43
 5841 0058 00000000 		.4byte	.LFB45
 5842 005c 20000000 		.4byte	.LFE45
 5843 0060 00000000 		.4byte	.LFB47
 5844 0064 5C000000 		.4byte	.LFE47
 5845 0068 00000000 		.4byte	.LFB48
 5846 006c 54000000 		.4byte	.LFE48
 5847 0070 00000000 		.4byte	.LFB49
 5848 0074 22010000 		.4byte	.LFE49
 5849 0078 00000000 		.4byte	.LFB41
 5850 007c 64000000 		.4byte	.LFE41
 5851 0080 00000000 		.4byte	.LFB46
 5852 0084 1C010000 		.4byte	.LFE46
 5853 0088 00000000 		.4byte	.LFB50
 5854 008c 5A000000 		.4byte	.LFE50
 5855 0090 00000000 		.4byte	.LFB44
 5856 0094 88000000 		.4byte	.LFE44
 5857 0098 00000000 		.4byte	.LFB51
 5858 009c 56000000 		.4byte	.LFE51
 5859 00a0 00000000 		.4byte	.LFB38
ARM GAS  C:\Users\strap\AppData\Local\Temp\ccjJjp6v.s 			page 125


 5860 00a4 2C000000 		.4byte	.LFE38
 5861 00a8 00000000 		.4byte	.LFB52
 5862 00ac 5A000000 		.4byte	.LFE52
 5863 00b0 00000000 		.4byte	0
 5864 00b4 00000000 		.4byte	0
 5865              		.section	.debug_line,"",%progbits
 5866              	.Ldebug_line0:
 5867 0000 44050000 		.section	.debug_str,"MS",%progbits,1
 5867      02001402 
 5867      00000201 
 5867      FB0E0D00 
 5867      01010101 
 5868              	.LASF27:
 5869 0000 746F7461 		.ascii	"total_size\000"
 5869      6C5F7369 
 5869      7A6500
 5870              	.LASF44:
 5871 000b 68656164 		.ascii	"header\000"
 5871      657200
 5872              	.LASF80:
 5873 0012 6C765F6D 		.ascii	"lv_mem_monitor\000"
 5873      656D5F6D 
 5873      6F6E6974 
 5873      6F7200
 5874              	.LASF83:
 5875 0021 5F6C765F 		.ascii	"_lv_mem_deinit\000"
 5875      6D656D5F 
 5875      6465696E 
 5875      697400
 5876              	.LASF11:
 5877 0030 5F5F7569 		.ascii	"__uint64_t\000"
 5877      6E743634 
 5877      5F7400
 5878              	.LASF37:
 5879 003b 6C765F6D 		.ascii	"lv_mem_buf_t\000"
 5879      656D5F62 
 5879      75665F74 
 5879      00
 5880              	.LASF50:
 5881 0048 6163745F 		.ascii	"act_e\000"
 5881      6500
 5882              	.LASF15:
 5883 004e 696E7438 		.ascii	"int8_t\000"
 5883      5F7400
 5884              	.LASF19:
 5885 0055 75696E74 		.ascii	"uint64_t\000"
 5885      36345F74 
 5885      00
 5886              	.LASF31:
 5887 005e 75736564 		.ascii	"used_cnt\000"
 5887      5F636E74 
 5887      00
 5888              	.LASF4:
 5889 0067 73686F72 		.ascii	"short int\000"
 5889      7420696E 
 5889      7400
 5890              	.LASF21:
ARM GAS  C:\Users\strap\AppData\Local\Temp\ccjJjp6v.s 			page 126


 5891 0071 73697A65 		.ascii	"size_t\000"
 5891      5F7400
 5892              	.LASF81:
 5893 0078 6D6F6E5F 		.ascii	"mon_p\000"
 5893      7000
 5894              	.LASF39:
 5895 007e 73697A65 		.ascii	"sizetype\000"
 5895      74797065 
 5895      00
 5896              	.LASF77:
 5897 0087 5F6C765F 		.ascii	"_lv_mem_buf_get\000"
 5897      6D656D5F 
 5897      6275665F 
 5897      67657400 
 5898              	.LASF53:
 5899 0097 656E745F 		.ascii	"ent_get_next\000"
 5899      6765745F 
 5899      6E657874 
 5899      00
 5900              	.LASF8:
 5901 00a4 5F5F7569 		.ascii	"__uint32_t\000"
 5901      6E743332 
 5901      5F7400
 5902              	.LASF68:
 5903 00af 5F6C765F 		.ascii	"_lv_mem_buf_free_all\000"
 5903      6D656D5F 
 5903      6275665F 
 5903      66726565 
 5903      5F616C6C 
 5904              	.LASF75:
 5905 00c4 6F6C645F 		.ascii	"old_size\000"
 5905      73697A65 
 5905      00
 5906              	.LASF5:
 5907 00cd 5F5F7569 		.ascii	"__uint16_t\000"
 5907      6E743136 
 5907      5F7400
 5908              	.LASF69:
 5909 00d8 5F6C765F 		.ascii	"_lv_memcpy\000"
 5909      6D656D63 
 5909      707900
 5910              	.LASF64:
 5911 00e3 6C765F6D 		.ascii	"lv_mem_alloc\000"
 5911      656D5F61 
 5911      6C6C6F63 
 5911      00
 5912              	.LASF63:
 5913 00f0 66756C6C 		.ascii	"full_defrag_cnt\000"
 5913      5F646566 
 5913      7261675F 
 5913      636E7400 
 5914              	.LASF16:
 5915 0100 75696E74 		.ascii	"uint8_t\000"
 5915      385F7400 
 5916              	.LASF20:
 5917 0108 75696E74 		.ascii	"uintptr_t\000"
 5917      7074725F 
ARM GAS  C:\Users\strap\AppData\Local\Temp\ccjJjp6v.s 			page 127


 5917      7400
 5918              	.LASF61:
 5919 0112 655F6E65 		.ascii	"e_next\000"
 5919      787400
 5920              	.LASF18:
 5921 0119 75696E74 		.ascii	"uint32_t\000"
 5921      33325F74 
 5921      00
 5922              	.LASF94:
 5923 0122 656E745F 		.ascii	"ent_trunc\000"
 5923      7472756E 
 5923      6300
 5924              	.LASF73:
 5925 012c 64617461 		.ascii	"data_p\000"
 5925      5F7000
 5926              	.LASF22:
 5927 0133 6C6F6E67 		.ascii	"long double\000"
 5927      20646F75 
 5927      626C6500 
 5928              	.LASF95:
 5929 013f 5F6C765F 		.ascii	"_lv_mem_buf\000"
 5929      6D656D5F 
 5929      62756600 
 5930              	.LASF10:
 5931 014b 6C6F6E67 		.ascii	"long long int\000"
 5931      206C6F6E 
 5931      6720696E 
 5931      7400
 5932              	.LASF25:
 5933 0159 6C765F72 		.ascii	"lv_res_t\000"
 5933      65735F74 
 5933      00
 5934              	.LASF35:
 5935 0162 6C765F6D 		.ascii	"lv_mem_monitor_t\000"
 5935      656D5F6D 
 5935      6F6E6974 
 5935      6F725F74 
 5935      00
 5936              	.LASF38:
 5937 0173 6C765F6D 		.ascii	"lv_mem_buf_arr_t\000"
 5937      656D5F62 
 5937      75665F61 
 5937      72725F74 
 5937      00
 5938              	.LASF66:
 5939 0184 5F6C765F 		.ascii	"_lv_mem_get_size\000"
 5939      6D656D5F 
 5939      6765745F 
 5939      73697A65 
 5939      00
 5940              	.LASF7:
 5941 0195 6C6F6E67 		.ascii	"long int\000"
 5941      20696E74 
 5941      00
 5942              	.LASF54:
 5943 019e 656E745F 		.ascii	"ent_alloc\000"
 5943      616C6C6F 
ARM GAS  C:\Users\strap\AppData\Local\Temp\ccjJjp6v.s 			page 128


 5943      6300
 5944              	.LASF26:
 5945 01a8 6C765F75 		.ascii	"lv_uintptr_t\000"
 5945      696E7470 
 5945      74725F74 
 5945      00
 5946              	.LASF96:
 5947 01b5 6C765F64 		.ascii	"lv_debug_log_error\000"
 5947      65627567 
 5947      5F6C6F67 
 5947      5F657272 
 5947      6F7200
 5948              	.LASF1:
 5949 01c8 5F5F7569 		.ascii	"__uint8_t\000"
 5949      6E74385F 
 5949      7400
 5950              	.LASF88:
 5951 01d2 6D656D5F 		.ascii	"mem_buf1_32\000"
 5951      62756631 
 5951      5F333200 
 5952              	.LASF48:
 5953 01de 6E657874 		.ascii	"next_e\000"
 5953      5F6500
 5954              	.LASF92:
 5955 01e5 6C76676C 		.ascii	"lvgl\\src\\lv_misc\\lv_mem.c\000"
 5955      5C737263 
 5955      5C6C765F 
 5955      6D697363 
 5955      5C6C765F 
 5956              	.LASF67:
 5957 01ff 5F6C765F 		.ascii	"_lv_mem_buf_release\000"
 5957      6D656D5F 
 5957      6275665F 
 5957      72656C65 
 5957      61736500 
 5958              	.LASF3:
 5959 0213 756E7369 		.ascii	"unsigned char\000"
 5959      676E6564 
 5959      20636861 
 5959      7200
 5960              	.LASF29:
 5961 0221 66726565 		.ascii	"free_size\000"
 5961      5F73697A 
 5961      6500
 5962              	.LASF52:
 5963 022b 61667465 		.ascii	"after_new_e\000"
 5963      725F6E65 
 5963      775F6500 
 5964              	.LASF90:
 5965 0237 6D656D5F 		.ascii	"mem_buf_small\000"
 5965      6275665F 
 5965      736D616C 
 5965      6C00
 5966              	.LASF2:
 5967 0245 7369676E 		.ascii	"signed char\000"
 5967      65642063 
 5967      68617200 
ARM GAS  C:\Users\strap\AppData\Local\Temp\ccjJjp6v.s 			page 129


 5968              	.LASF12:
 5969 0251 6C6F6E67 		.ascii	"long long unsigned int\000"
 5969      206C6F6E 
 5969      6720756E 
 5969      7369676E 
 5969      65642069 
 5970              	.LASF84:
 5971 0268 5F6C765F 		.ascii	"_lv_memset_ff\000"
 5971      6D656D73 
 5971      65745F66 
 5971      6600
 5972              	.LASF71:
 5973 0276 735F616C 		.ascii	"s_align\000"
 5973      69676E00 
 5974              	.LASF42:
 5975 027e 75736564 		.ascii	"used\000"
 5975      00
 5976              	.LASF60:
 5977 0283 655F6672 		.ascii	"e_free\000"
 5977      656500
 5978              	.LASF17:
 5979 028a 75696E74 		.ascii	"uint16_t\000"
 5979      31365F74 
 5979      00
 5980              	.LASF43:
 5981 0293 645F7369 		.ascii	"d_size\000"
 5981      7A6500
 5982              	.LASF55:
 5983 029a 616C6C6F 		.ascii	"alloc\000"
 5983      6300
 5984              	.LASF34:
 5985 02a0 66726167 		.ascii	"frag_pct\000"
 5985      5F706374 
 5985      00
 5986              	.LASF6:
 5987 02a9 73686F72 		.ascii	"short unsigned int\000"
 5987      7420756E 
 5987      7369676E 
 5987      65642069 
 5987      6E7400
 5988              	.LASF0:
 5989 02bc 5F5F696E 		.ascii	"__int8_t\000"
 5989      74385F74 
 5989      00
 5990              	.LASF59:
 5991 02c5 6C765F6D 		.ascii	"lv_mem_defrag\000"
 5991      656D5F64 
 5991      65667261 
 5991      6700
 5992              	.LASF32:
 5993 02d3 6D61785F 		.ascii	"max_used\000"
 5993      75736564 
 5993      00
 5994              	.LASF40:
 5995 02dc 63686172 		.ascii	"char\000"
 5995      00
 5996              	.LASF87:
ARM GAS  C:\Users\strap\AppData\Local\Temp\ccjJjp6v.s 			page 130


 5997 02e1 6D656D5F 		.ascii	"mem_max_size\000"
 5997      6D61785F 
 5997      73697A65 
 5997      00
 5998              	.LASF89:
 5999 02ee 6D656D5F 		.ascii	"mem_buf2_32\000"
 5999      62756632 
 5999      5F333200 
 6000              	.LASF47:
 6001 02fa 6C765F6D 		.ascii	"lv_mem_ent_t\000"
 6001      656D5F65 
 6001      6E745F74 
 6001      00
 6002              	.LASF41:
 6003 0307 5F426F6F 		.ascii	"_Bool\000"
 6003      6C00
 6004              	.LASF24:
 6005 030d 4C565F52 		.ascii	"LV_RES_OK\000"
 6005      45535F4F 
 6005      4B00
 6006              	.LASF33:
 6007 0317 75736564 		.ascii	"used_pct\000"
 6007      5F706374 
 6007      00
 6008              	.LASF46:
 6009 0320 66697273 		.ascii	"first_data\000"
 6009      745F6461 
 6009      746100
 6010              	.LASF58:
 6011 032b 5F6C765F 		.ascii	"_lv_mem_init\000"
 6011      6D656D5F 
 6011      696E6974 
 6011      00
 6012              	.LASF78:
 6013 0338 695F6775 		.ascii	"i_guess\000"
 6013      65737300 
 6014              	.LASF9:
 6015 0340 6C6F6E67 		.ascii	"long unsigned int\000"
 6015      20756E73 
 6015      69676E65 
 6015      6420696E 
 6015      7400
 6016              	.LASF72:
 6017 0352 6C765F6D 		.ascii	"lv_mem_realloc\000"
 6017      656D5F72 
 6017      65616C6C 
 6017      6F6300
 6018              	.LASF13:
 6019 0361 5F5F7569 		.ascii	"__uintptr_t\000"
 6019      6E747074 
 6019      725F7400 
 6020              	.LASF65:
 6021 036d 6C765F6D 		.ascii	"lv_mem_test\000"
 6021      656D5F74 
 6021      65737400 
 6022              	.LASF93:
 6023 0379 433A5C55 		.ascii	"C:\\Users\\strap\\Documents\\Creator\\test_lvgl\\il"
ARM GAS  C:\Users\strap\AppData\Local\Temp\ccjJjp6v.s 			page 131


 6023      73657273 
 6023      5C737472 
 6023      61705C44 
 6023      6F63756D 
 6024 03a6 69393334 		.ascii	"i9341_master.cydsn\000"
 6024      315F6D61 
 6024      73746572 
 6024      2E637964 
 6024      736E00
 6025              	.LASF36:
 6026 03b9 73697A65 		.ascii	"size\000"
 6026      00
 6027              	.LASF30:
 6028 03be 66726565 		.ascii	"free_biggest_size\000"
 6028      5F626967 
 6028      67657374 
 6028      5F73697A 
 6028      6500
 6029              	.LASF57:
 6030 03d0 66756C6C 		.ascii	"full\000"
 6030      00
 6031              	.LASF76:
 6032 03d5 6E65775F 		.ascii	"new_p\000"
 6032      7000
 6033              	.LASF82:
 6034 03db 5F6C765F 		.ascii	"_lv_memset_00\000"
 6034      6D656D73 
 6034      65745F30 
 6034      3000
 6035              	.LASF49:
 6036 03e9 64617461 		.ascii	"data\000"
 6036      00
 6037              	.LASF56:
 6038 03ee 776F726B 		.ascii	"work_mem_int\000"
 6038      5F6D656D 
 6038      5F696E74 
 6038      00
 6039              	.LASF79:
 6040 03fb 5F6C765F 		.ascii	"_lv_memset\000"
 6040      6D656D73 
 6040      657400
 6041              	.LASF74:
 6042 0406 6E65775F 		.ascii	"new_size\000"
 6042      73697A65 
 6042      00
 6043              	.LASF70:
 6044 040f 645F616C 		.ascii	"d_align\000"
 6044      69676E00 
 6045              	.LASF91:
 6046 0417 474E5520 		.ascii	"GNU C11 5.4.1 20160609 (release) [ARM/embedded-5-br"
 6046      43313120 
 6046      352E342E 
 6046      31203230 
 6046      31363036 
 6047 044a 616E6368 		.ascii	"anch revision 237715] -mcpu=cortex-m3 -mthumb -g -O"
 6047      20726576 
 6047      6973696F 
ARM GAS  C:\Users\strap\AppData\Local\Temp\ccjJjp6v.s 			page 132


 6047      6E203233 
 6047      37373135 
 6048 047d 67202D66 		.ascii	"g -ffunction-sections -ffat-lto-objects\000"
 6048      66756E63 
 6048      74696F6E 
 6048      2D736563 
 6048      74696F6E 
 6049              	.LASF14:
 6050 04a5 756E7369 		.ascii	"unsigned int\000"
 6050      676E6564 
 6050      20696E74 
 6050      00
 6051              	.LASF85:
 6052 04b2 776F726B 		.ascii	"work_mem\000"
 6052      5F6D656D 
 6052      00
 6053              	.LASF45:
 6054 04bb 6C765F6D 		.ascii	"lv_mem_header_t\000"
 6054      656D5F68 
 6054      65616465 
 6054      725F7400 
 6055              	.LASF86:
 6056 04cb 7A65726F 		.ascii	"zero_mem\000"
 6056      5F6D656D 
 6056      00
 6057              	.LASF62:
 6058 04d4 6C765F6D 		.ascii	"lv_mem_free\000"
 6058      656D5F66 
 6058      72656500 
 6059              	.LASF23:
 6060 04e0 4C565F52 		.ascii	"LV_RES_INV\000"
 6060      45535F49 
 6060      4E5600
 6061              	.LASF28:
 6062 04eb 66726565 		.ascii	"free_cnt\000"
 6062      5F636E74 
 6062      00
 6063              	.LASF51:
 6064 04f4 655F6461 		.ascii	"e_data\000"
 6064      746100
 6065              		.ident	"GCC: (GNU Tools for ARM Embedded Processors) 5.4.1 20160609 (release) [ARM/embedded-5-bran
