ARM GAS  C:\Users\strap\AppData\Local\Temp\ccB8gqkq.s 			page 1


   1              		.syntax unified
   2              		.cpu cortex-m3
   3              		.fpu softvfp
   4              		.eabi_attribute 20, 1
   5              		.eabi_attribute 21, 1
   6              		.eabi_attribute 23, 3
   7              		.eabi_attribute 24, 1
   8              		.eabi_attribute 25, 1
   9              		.eabi_attribute 26, 1
  10              		.eabi_attribute 30, 1
  11              		.eabi_attribute 34, 1
  12              		.eabi_attribute 18, 4
  13              		.thumb
  14              		.syntax unified
  15              		.file	"lv_math.c"
  16              		.text
  17              	.Ltext0:
  18              		.cfi_sections	.debug_frame
  19              		.section	.text._lv_trigo_sin,"ax",%progbits
  20              		.align	2
  21              		.global	_lv_trigo_sin
  22              		.thumb
  23              		.thumb_func
  24              		.type	_lv_trigo_sin, %function
  25              	_lv_trigo_sin:
  26              	.LFB0:
  27              		.file 1 "lvgl\\src\\lv_misc\\lv_math.c"
   1:lvgl\src\lv_misc/lv_math.c **** /**
   2:lvgl\src\lv_misc/lv_math.c ****  * @file lv_math.c
   3:lvgl\src\lv_misc/lv_math.c ****  *
   4:lvgl\src\lv_misc/lv_math.c ****  */
   5:lvgl\src\lv_misc/lv_math.c **** 
   6:lvgl\src\lv_misc/lv_math.c **** /*********************
   7:lvgl\src\lv_misc/lv_math.c ****  *      INCLUDES
   8:lvgl\src\lv_misc/lv_math.c ****  *********************/
   9:lvgl\src\lv_misc/lv_math.c **** #include "lv_math.h"
  10:lvgl\src\lv_misc/lv_math.c **** #include <stdbool.h>
  11:lvgl\src\lv_misc/lv_math.c **** #include <stdlib.h>
  12:lvgl\src\lv_misc/lv_math.c **** #include <string.h>
  13:lvgl\src\lv_misc/lv_math.c **** 
  14:lvgl\src\lv_misc/lv_math.c **** /*********************
  15:lvgl\src\lv_misc/lv_math.c ****  *      DEFINES
  16:lvgl\src\lv_misc/lv_math.c ****  *********************/
  17:lvgl\src\lv_misc/lv_math.c **** 
  18:lvgl\src\lv_misc/lv_math.c **** /**********************
  19:lvgl\src\lv_misc/lv_math.c ****  *      TYPEDEFS
  20:lvgl\src\lv_misc/lv_math.c ****  **********************/
  21:lvgl\src\lv_misc/lv_math.c **** 
  22:lvgl\src\lv_misc/lv_math.c **** /**********************
  23:lvgl\src\lv_misc/lv_math.c ****  *  STATIC PROTOTYPES
  24:lvgl\src\lv_misc/lv_math.c ****  **********************/
  25:lvgl\src\lv_misc/lv_math.c **** 
  26:lvgl\src\lv_misc/lv_math.c **** /**********************
  27:lvgl\src\lv_misc/lv_math.c ****  *  STATIC VARIABLES
  28:lvgl\src\lv_misc/lv_math.c ****  **********************/
  29:lvgl\src\lv_misc/lv_math.c **** static const int16_t sin0_90_table[] = {
  30:lvgl\src\lv_misc/lv_math.c ****     0,     572,   1144,  1715,  2286,  2856,  3425,  3993,  4560,  5126,  5690,  6252,  6813,  7371
ARM GAS  C:\Users\strap\AppData\Local\Temp\ccB8gqkq.s 			page 2


  31:lvgl\src\lv_misc/lv_math.c ****     9032,  9580,  10126, 10668, 11207, 11743, 12275, 12803, 13328, 13848, 14364, 14876, 15383, 1588
  32:lvgl\src\lv_misc/lv_math.c ****     17364, 17846, 18323, 18794, 19260, 19720, 20173, 20621, 21062, 21497, 21925, 22347, 22762, 2317
  33:lvgl\src\lv_misc/lv_math.c ****     24351, 24730, 25101, 25465, 25821, 26169, 26509, 26841, 27165, 27481, 27788, 28087, 28377, 2865
  34:lvgl\src\lv_misc/lv_math.c ****     29451, 29697, 29934, 30162, 30381, 30591, 30791, 30982, 31163, 31335, 31498, 31650, 31794, 3192
  35:lvgl\src\lv_misc/lv_math.c ****     32269, 32364, 32448, 32523, 32587, 32642, 32687, 32722, 32747, 32762, 32767
  36:lvgl\src\lv_misc/lv_math.c **** };
  37:lvgl\src\lv_misc/lv_math.c **** 
  38:lvgl\src\lv_misc/lv_math.c **** 
  39:lvgl\src\lv_misc/lv_math.c **** 
  40:lvgl\src\lv_misc/lv_math.c **** /**********************
  41:lvgl\src\lv_misc/lv_math.c ****  *      MACROS
  42:lvgl\src\lv_misc/lv_math.c ****  **********************/
  43:lvgl\src\lv_misc/lv_math.c **** 
  44:lvgl\src\lv_misc/lv_math.c **** /**********************
  45:lvgl\src\lv_misc/lv_math.c ****  *   GLOBAL FUNCTIONS
  46:lvgl\src\lv_misc/lv_math.c ****  **********************/
  47:lvgl\src\lv_misc/lv_math.c **** 
  48:lvgl\src\lv_misc/lv_math.c **** /**
  49:lvgl\src\lv_misc/lv_math.c ****  * Return with sinus of an angle
  50:lvgl\src\lv_misc/lv_math.c ****  * @param angle
  51:lvgl\src\lv_misc/lv_math.c ****  * @return sinus of 'angle'. sin(-90) = -32767, sin(90) = 32767
  52:lvgl\src\lv_misc/lv_math.c ****  */
  53:lvgl\src\lv_misc/lv_math.c **** LV_ATTRIBUTE_FAST_MEM int16_t _lv_trigo_sin(int16_t angle)
  54:lvgl\src\lv_misc/lv_math.c **** {
  28              		.loc 1 54 0
  29              		.cfi_startproc
  30              		@ args = 0, pretend = 0, frame = 0
  31              		@ frame_needed = 0, uses_anonymous_args = 0
  32              		@ link register save eliminated.
  33              	.LVL0:
  55:lvgl\src\lv_misc/lv_math.c ****     int16_t ret = 0;
  56:lvgl\src\lv_misc/lv_math.c ****     angle       = angle % 360;
  34              		.loc 1 56 0
  35 0000 1B4A     		ldr	r2, .L7
  36 0002 80FB0223 		smull	r2, r3, r0, r2
  37 0006 C218     		adds	r2, r0, r3
  38 0008 C317     		asrs	r3, r0, #31
  39 000a C3EB2223 		rsb	r3, r3, r2, asr #8
  40 000e 4FF4B472 		mov	r2, #360
  41 0012 02FB1300 		mls	r0, r2, r3, r0
  42              	.LVL1:
  43 0016 00B2     		sxth	r0, r0
  44              	.LVL2:
  57:lvgl\src\lv_misc/lv_math.c **** 
  58:lvgl\src\lv_misc/lv_math.c ****     if(angle < 0) angle = 360 + angle;
  45              		.loc 1 58 0
  46 0018 0028     		cmp	r0, #0
  47 001a 01DA     		bge	.L2
  48              		.loc 1 58 0 is_stmt 0 discriminator 1
  49 001c 1044     		add	r0, r0, r2
  50              	.LVL3:
  51 001e 00B2     		sxth	r0, r0
  52              	.LVL4:
  53              	.L2:
  59:lvgl\src\lv_misc/lv_math.c **** 
  60:lvgl\src\lv_misc/lv_math.c ****     if(angle < 90) {
  54              		.loc 1 60 0 is_stmt 1
ARM GAS  C:\Users\strap\AppData\Local\Temp\ccB8gqkq.s 			page 3


  55 0020 5928     		cmp	r0, #89
  56 0022 03DC     		bgt	.L3
  61:lvgl\src\lv_misc/lv_math.c ****         ret = sin0_90_table[angle];
  57              		.loc 1 61 0
  58 0024 134B     		ldr	r3, .L7+4
  59 0026 33F91000 		ldrsh	r0, [r3, r0, lsl #1]
  60              	.LVL5:
  61 002a 7047     		bx	lr
  62              	.LVL6:
  63              	.L3:
  62:lvgl\src\lv_misc/lv_math.c ****     }
  63:lvgl\src\lv_misc/lv_math.c ****     else if(angle >= 90 && angle < 180) {
  64              		.loc 1 63 0
  65 002c 80B2     		uxth	r0, r0
  66 002e A0F15A03 		sub	r3, r0, #90
  67 0032 9BB2     		uxth	r3, r3
  68 0034 592B     		cmp	r3, #89
  69 0036 06D8     		bhi	.L5
  64:lvgl\src\lv_misc/lv_math.c ****         angle = 180 - angle;
  70              		.loc 1 64 0
  71 0038 C0F1B400 		rsb	r0, r0, #180
  72              	.LVL7:
  73 003c 00B2     		sxth	r0, r0
  74              	.LVL8:
  65:lvgl\src\lv_misc/lv_math.c ****         ret   = sin0_90_table[angle];
  75              		.loc 1 65 0
  76 003e 0D4B     		ldr	r3, .L7+4
  77 0040 33F91000 		ldrsh	r0, [r3, r0, lsl #1]
  78              	.LVL9:
  79 0044 7047     		bx	lr
  80              	.LVL10:
  81              	.L5:
  66:lvgl\src\lv_misc/lv_math.c ****     }
  67:lvgl\src\lv_misc/lv_math.c ****     else if(angle >= 180 && angle < 270) {
  82              		.loc 1 67 0
  83 0046 A0F1B403 		sub	r3, r0, #180
  84 004a 9BB2     		uxth	r3, r3
  85 004c 592B     		cmp	r3, #89
  86 004e 06D8     		bhi	.L6
  68:lvgl\src\lv_misc/lv_math.c ****         angle = angle - 180;
  87              		.loc 1 68 0
  88 0050 1BB2     		sxth	r3, r3
  89              	.LVL11:
  69:lvgl\src\lv_misc/lv_math.c ****         ret   = -sin0_90_table[angle];
  90              		.loc 1 69 0
  91 0052 084A     		ldr	r2, .L7+4
  92 0054 32F91300 		ldrsh	r0, [r2, r3, lsl #1]
  93 0058 4042     		negs	r0, r0
  94 005a 00B2     		sxth	r0, r0
  95              	.LVL12:
  96 005c 7047     		bx	lr
  97              	.LVL13:
  98              	.L6:
  70:lvgl\src\lv_misc/lv_math.c ****     }
  71:lvgl\src\lv_misc/lv_math.c ****     else {   /*angle >=270*/
  72:lvgl\src\lv_misc/lv_math.c ****         angle = 360 - angle;
  99              		.loc 1 72 0
ARM GAS  C:\Users\strap\AppData\Local\Temp\ccB8gqkq.s 			page 4


 100 005e C0F5B470 		rsb	r0, r0, #360
 101              	.LVL14:
 102 0062 00B2     		sxth	r0, r0
 103              	.LVL15:
  73:lvgl\src\lv_misc/lv_math.c ****         ret   = -sin0_90_table[angle];
 104              		.loc 1 73 0
 105 0064 034B     		ldr	r3, .L7+4
 106 0066 33F91000 		ldrsh	r0, [r3, r0, lsl #1]
 107              	.LVL16:
 108 006a 4042     		negs	r0, r0
 109 006c 00B2     		sxth	r0, r0
 110              	.LVL17:
  74:lvgl\src\lv_misc/lv_math.c ****     }
  75:lvgl\src\lv_misc/lv_math.c **** 
  76:lvgl\src\lv_misc/lv_math.c ****     return ret;
  77:lvgl\src\lv_misc/lv_math.c **** }
 111              		.loc 1 77 0
 112 006e 7047     		bx	lr
 113              	.L8:
 114              		.align	2
 115              	.L7:
 116 0070 B7600BB6 		.word	-1240768329
 117 0074 00000000 		.word	.LANCHOR0
 118              		.cfi_endproc
 119              	.LFE0:
 120              		.size	_lv_trigo_sin, .-_lv_trigo_sin
 121              		.section	.text._lv_bezier3,"ax",%progbits
 122              		.align	2
 123              		.global	_lv_bezier3
 124              		.thumb
 125              		.thumb_func
 126              		.type	_lv_bezier3, %function
 127              	_lv_bezier3:
 128              	.LFB1:
  78:lvgl\src\lv_misc/lv_math.c **** 
  79:lvgl\src\lv_misc/lv_math.c **** /**
  80:lvgl\src\lv_misc/lv_math.c ****  * Calculate a value of a Cubic Bezier function.
  81:lvgl\src\lv_misc/lv_math.c ****  * @param t time in range of [0..LV_BEZIER_VAL_MAX]
  82:lvgl\src\lv_misc/lv_math.c ****  * @param u0 start values in range of [0..LV_BEZIER_VAL_MAX]
  83:lvgl\src\lv_misc/lv_math.c ****  * @param u1 control value 1 values in range of [0..LV_BEZIER_VAL_MAX]
  84:lvgl\src\lv_misc/lv_math.c ****  * @param u2 control value 2 in range of [0..LV_BEZIER_VAL_MAX]
  85:lvgl\src\lv_misc/lv_math.c ****  * @param u3 end values in range of [0..LV_BEZIER_VAL_MAX]
  86:lvgl\src\lv_misc/lv_math.c ****  * @return the value calculated from the given parameters in range of [0..LV_BEZIER_VAL_MAX]
  87:lvgl\src\lv_misc/lv_math.c ****  */
  88:lvgl\src\lv_misc/lv_math.c **** int32_t _lv_bezier3(uint32_t t, int32_t u0, int32_t u1, int32_t u2, int32_t u3)
  89:lvgl\src\lv_misc/lv_math.c **** {
 129              		.loc 1 89 0
 130              		.cfi_startproc
 131              		@ args = 4, pretend = 0, frame = 0
 132              		@ frame_needed = 0, uses_anonymous_args = 0
 133              	.LVL18:
 134 0000 F0B5     		push	{r4, r5, r6, r7, lr}
 135              		.cfi_def_cfa_offset 20
 136              		.cfi_offset 4, -20
 137              		.cfi_offset 5, -16
 138              		.cfi_offset 6, -12
 139              		.cfi_offset 7, -8
ARM GAS  C:\Users\strap\AppData\Local\Temp\ccB8gqkq.s 			page 5


 140              		.cfi_offset 14, -4
  90:lvgl\src\lv_misc/lv_math.c ****     uint32_t t_rem  = 1024 - t;
 141              		.loc 1 90 0
 142 0002 C0F58067 		rsb	r7, r0, #1024
 143              	.LVL19:
  91:lvgl\src\lv_misc/lv_math.c ****     uint32_t t_rem2 = (t_rem * t_rem) >> 10;
 144              		.loc 1 91 0
 145 0006 07FB07F4 		mul	r4, r7, r7
 146 000a A40A     		lsrs	r4, r4, #10
 147              	.LVL20:
  92:lvgl\src\lv_misc/lv_math.c ****     uint32_t t_rem3 = (t_rem2 * t_rem) >> 10;
 148              		.loc 1 92 0
 149 000c 04FB07FE 		mul	lr, r4, r7
 150 0010 4FEA9E2E 		lsr	lr, lr, #10
 151              	.LVL21:
  93:lvgl\src\lv_misc/lv_math.c ****     uint32_t t2     = (t * t) >> 10;
 152              		.loc 1 93 0
 153 0014 00FB00F5 		mul	r5, r0, r0
 154 0018 AD0A     		lsrs	r5, r5, #10
 155              	.LVL22:
  94:lvgl\src\lv_misc/lv_math.c ****     uint32_t t3     = (t2 * t) >> 10;
 156              		.loc 1 94 0
 157 001a 05FB00F6 		mul	r6, r5, r0
 158 001e B60A     		lsrs	r6, r6, #10
 159              	.LVL23:
  95:lvgl\src\lv_misc/lv_math.c **** 
  96:lvgl\src\lv_misc/lv_math.c ****     uint32_t v1 = ((uint32_t)t_rem3 * u0) >> 10;
 160              		.loc 1 96 0
 161 0020 0EFB01F1 		mul	r1, lr, r1
 162              	.LVL24:
  97:lvgl\src\lv_misc/lv_math.c ****     uint32_t v2 = ((uint32_t)3 * t_rem2 * t * u1) >> 20;
 163              		.loc 1 97 0
 164 0024 04FB00F4 		mul	r4, r4, r0
 165              	.LVL25:
 166 0028 04FB02F2 		mul	r2, r4, r2
 167              	.LVL26:
 168 002c 02EB4202 		add	r2, r2, r2, lsl #1
 169 0030 120D     		lsrs	r2, r2, #20
 170              	.LVL27:
  98:lvgl\src\lv_misc/lv_math.c ****     uint32_t v3 = ((uint32_t)3 * t_rem * t2 * u2) >> 20;
 171              		.loc 1 98 0
 172 0032 05FB07F5 		mul	r5, r5, r7
 173              	.LVL28:
 174 0036 05FB03F3 		mul	r3, r5, r3
 175              	.LVL29:
 176 003a 03EB4303 		add	r3, r3, r3, lsl #1
 177              	.LVL30:
  99:lvgl\src\lv_misc/lv_math.c ****     uint32_t v4 = ((uint32_t)t3 * u3) >> 10;
 178              		.loc 1 99 0
 179 003e 0598     		ldr	r0, [sp, #20]
 180              	.LVL31:
 181 0040 06FB00F0 		mul	r0, r6, r0
 182              	.LVL32:
 100:lvgl\src\lv_misc/lv_math.c **** 
 101:lvgl\src\lv_misc/lv_math.c ****     return v1 + v2 + v3 + v4;
 183              		.loc 1 101 0
 184 0044 02EB9122 		add	r2, r2, r1, lsr #10
ARM GAS  C:\Users\strap\AppData\Local\Temp\ccB8gqkq.s 			page 6


 185              	.LVL33:
 186 0048 02EB1352 		add	r2, r2, r3, lsr #20
 102:lvgl\src\lv_misc/lv_math.c **** }
 187              		.loc 1 102 0
 188 004c 02EB9020 		add	r0, r2, r0, lsr #10
 189              	.LVL34:
 190 0050 F0BD     		pop	{r4, r5, r6, r7, pc}
 191              		.cfi_endproc
 192              	.LFE1:
 193              		.size	_lv_bezier3, .-_lv_bezier3
 194 0052 00BF     		.section	.text._lv_sqrt,"ax",%progbits
 195              		.align	2
 196              		.global	_lv_sqrt
 197              		.thumb
 198              		.thumb_func
 199              		.type	_lv_sqrt, %function
 200              	_lv_sqrt:
 201              	.LFB2:
 103:lvgl\src\lv_misc/lv_math.c **** 
 104:lvgl\src\lv_misc/lv_math.c **** /**
 105:lvgl\src\lv_misc/lv_math.c ****  * Get the square root of a number
 106:lvgl\src\lv_misc/lv_math.c ****  * @param x integer which square root should be calculated
 107:lvgl\src\lv_misc/lv_math.c ****  * @param q store the result here. q->i: integer part, q->f: fractional part in 1/256 unit
 108:lvgl\src\lv_misc/lv_math.c ****  * @param mask: optional to skip some iterations if the magnitude of the root is known.
 109:lvgl\src\lv_misc/lv_math.c ****  * Set to 0x8000 by default.
 110:lvgl\src\lv_misc/lv_math.c ****  * If root < 16: mask = 0x80
 111:lvgl\src\lv_misc/lv_math.c ****  * If root < 256: mask = 0x800
 112:lvgl\src\lv_misc/lv_math.c ****  * Else: mask = 0x8000
 113:lvgl\src\lv_misc/lv_math.c ****  */
 114:lvgl\src\lv_misc/lv_math.c **** LV_ATTRIBUTE_FAST_MEM void _lv_sqrt(uint32_t x, lv_sqrt_res_t * q, uint32_t mask)
 115:lvgl\src\lv_misc/lv_math.c **** {
 202              		.loc 1 115 0
 203              		.cfi_startproc
 204              		@ args = 0, pretend = 0, frame = 0
 205              		@ frame_needed = 0, uses_anonymous_args = 0
 206              		@ link register save eliminated.
 207              	.LVL35:
 208 0000 30B4     		push	{r4, r5}
 209              		.cfi_def_cfa_offset 8
 210              		.cfi_offset 4, -8
 211              		.cfi_offset 5, -4
 116:lvgl\src\lv_misc/lv_math.c ****     x = x << 8; /*To get 4 bit precision. (sqrt(256) = 16 = 4 bit)*/
 212              		.loc 1 116 0
 213 0002 0002     		lsls	r0, r0, #8
 214              	.LVL36:
 117:lvgl\src\lv_misc/lv_math.c **** 
 118:lvgl\src\lv_misc/lv_math.c ****     uint32_t root = 0;
 215              		.loc 1 118 0
 216 0004 0024     		movs	r4, #0
 217              	.LVL37:
 218              	.L13:
 119:lvgl\src\lv_misc/lv_math.c ****     uint32_t trial;
 120:lvgl\src\lv_misc/lv_math.c ****     // http://ww1.microchip.com/...en/AppNotes/91040a.pdf
 121:lvgl\src\lv_misc/lv_math.c ****     do {
 122:lvgl\src\lv_misc/lv_math.c ****         trial = root + mask;
 219              		.loc 1 122 0
 220 0006 1319     		adds	r3, r2, r4
ARM GAS  C:\Users\strap\AppData\Local\Temp\ccB8gqkq.s 			page 7


 221              	.LVL38:
 123:lvgl\src\lv_misc/lv_math.c ****         if((uint32_t)trial * trial <= x) root = trial;
 222              		.loc 1 123 0
 223 0008 03FB03F5 		mul	r5, r3, r3
 224 000c A842     		cmp	r0, r5
 225 000e 00D3     		bcc	.L12
 226 0010 1C46     		mov	r4, r3
 227              	.LVL39:
 228              	.L12:
 124:lvgl\src\lv_misc/lv_math.c ****         mask = mask >> 1;
 125:lvgl\src\lv_misc/lv_math.c ****     } while(mask);
 229              		.loc 1 125 0
 230 0012 5208     		lsrs	r2, r2, #1
 231              	.LVL40:
 232 0014 F7D1     		bne	.L13
 126:lvgl\src\lv_misc/lv_math.c **** 
 127:lvgl\src\lv_misc/lv_math.c ****     q->i = (uint32_t) root >> 4;
 233              		.loc 1 127 0
 234 0016 2309     		lsrs	r3, r4, #4
 235              	.LVL41:
 236 0018 0B80     		strh	r3, [r1]	@ movhi
 128:lvgl\src\lv_misc/lv_math.c ****     q->f = (uint32_t)(root & 0xf) << 4;
 237              		.loc 1 128 0
 238 001a 2401     		lsls	r4, r4, #4
 239              	.LVL42:
 240 001c E4B2     		uxtb	r4, r4
 241 001e 4C80     		strh	r4, [r1, #2]	@ movhi
 129:lvgl\src\lv_misc/lv_math.c **** }
 242              		.loc 1 129 0
 243 0020 30BC     		pop	{r4, r5}
 244              		.cfi_restore 5
 245              		.cfi_restore 4
 246              		.cfi_def_cfa_offset 0
 247 0022 7047     		bx	lr
 248              		.cfi_endproc
 249              	.LFE2:
 250              		.size	_lv_sqrt, .-_lv_sqrt
 251              		.section	.text._lv_atan2,"ax",%progbits
 252              		.align	2
 253              		.global	_lv_atan2
 254              		.thumb
 255              		.thumb_func
 256              		.type	_lv_atan2, %function
 257              	_lv_atan2:
 258              	.LFB3:
 130:lvgl\src\lv_misc/lv_math.c **** 
 131:lvgl\src\lv_misc/lv_math.c **** /**
 132:lvgl\src\lv_misc/lv_math.c ****  * Calculate the atan2 of a vector.
 133:lvgl\src\lv_misc/lv_math.c ****  * @param x
 134:lvgl\src\lv_misc/lv_math.c ****  * @param y
 135:lvgl\src\lv_misc/lv_math.c ****  * @return the angle in degree calculated from the given parameters in range of [0..360]
 136:lvgl\src\lv_misc/lv_math.c ****  */
 137:lvgl\src\lv_misc/lv_math.c **** uint16_t _lv_atan2(int x, int y)
 138:lvgl\src\lv_misc/lv_math.c **** {
 259              		.loc 1 138 0
 260              		.cfi_startproc
 261              		@ args = 0, pretend = 0, frame = 0
ARM GAS  C:\Users\strap\AppData\Local\Temp\ccB8gqkq.s 			page 8


 262              		@ frame_needed = 0, uses_anonymous_args = 0
 263              		@ link register save eliminated.
 264              	.LVL43:
 139:lvgl\src\lv_misc/lv_math.c ****     // Fast XY vector to integer degree algorithm - Jan 2011 www.RomanBlack.com
 140:lvgl\src\lv_misc/lv_math.c ****     // Converts any XY values including 0 to a degree value that should be
 141:lvgl\src\lv_misc/lv_math.c ****     // within +/- 1 degree of the accurate value without needing
 142:lvgl\src\lv_misc/lv_math.c ****     // large slow trig functions like ArcTan() or ArcCos().
 143:lvgl\src\lv_misc/lv_math.c ****     // NOTE! at least one of the X or Y values must be non-zero!
 144:lvgl\src\lv_misc/lv_math.c ****     // This is the full version, for all 4 quadrants and will generate
 145:lvgl\src\lv_misc/lv_math.c ****     // the angle in integer degrees from 0-360.
 146:lvgl\src\lv_misc/lv_math.c ****     // Any values of X and Y are usable including negative values provided
 147:lvgl\src\lv_misc/lv_math.c ****     // they are between -1456 and 1456 so the 16bit multiply does not overflow.
 148:lvgl\src\lv_misc/lv_math.c **** 
 149:lvgl\src\lv_misc/lv_math.c ****     unsigned char negflag;
 150:lvgl\src\lv_misc/lv_math.c ****     unsigned char tempdegree;
 151:lvgl\src\lv_misc/lv_math.c ****     unsigned char comp;
 152:lvgl\src\lv_misc/lv_math.c ****     unsigned int degree;     // this will hold the result
 153:lvgl\src\lv_misc/lv_math.c ****     //signed int x;            // these hold the XY vector at the start
 154:lvgl\src\lv_misc/lv_math.c ****     //signed int y;            // (and they will be destroyed)
 155:lvgl\src\lv_misc/lv_math.c ****     unsigned int ux;
 156:lvgl\src\lv_misc/lv_math.c ****     unsigned int uy;
 157:lvgl\src\lv_misc/lv_math.c **** 
 158:lvgl\src\lv_misc/lv_math.c ****     // Save the sign flags then remove signs and get XY as unsigned ints
 159:lvgl\src\lv_misc/lv_math.c ****     negflag = 0;
 160:lvgl\src\lv_misc/lv_math.c ****     if(x < 0) {
 265              		.loc 1 160 0
 266 0000 0028     		cmp	r0, #0
 267 0002 02DA     		bge	.L33
 268              	.LVL44:
 161:lvgl\src\lv_misc/lv_math.c ****         negflag += 0x01;    // x flag bit
 162:lvgl\src\lv_misc/lv_math.c ****         x = (0 - x);        // is now +
 269              		.loc 1 162 0
 270 0004 4042     		negs	r0, r0
 271              	.LVL45:
 161:lvgl\src\lv_misc/lv_math.c ****         negflag += 0x01;    // x flag bit
 272              		.loc 1 161 0
 273 0006 0123     		movs	r3, #1
 274 0008 00E0     		b	.L17
 275              	.LVL46:
 276              	.L33:
 159:lvgl\src\lv_misc/lv_math.c ****     if(x < 0) {
 277              		.loc 1 159 0
 278 000a 0023     		movs	r3, #0
 279              	.LVL47:
 280              	.L17:
 163:lvgl\src\lv_misc/lv_math.c ****     }
 164:lvgl\src\lv_misc/lv_math.c ****     ux = x;                // copy to unsigned var before multiply
 165:lvgl\src\lv_misc/lv_math.c ****     if(y < 0) {
 281              		.loc 1 165 0
 282 000c 0029     		cmp	r1, #0
 283 000e 02DA     		bge	.L18
 166:lvgl\src\lv_misc/lv_math.c ****         negflag += 0x02;    // y flag bit
 284              		.loc 1 166 0
 285 0010 0233     		adds	r3, r3, #2
 286              	.LVL48:
 287 0012 DBB2     		uxtb	r3, r3
 288              	.LVL49:
ARM GAS  C:\Users\strap\AppData\Local\Temp\ccB8gqkq.s 			page 9


 167:lvgl\src\lv_misc/lv_math.c ****         y = (0 - y);        // is now +
 289              		.loc 1 167 0
 290 0014 4942     		negs	r1, r1
 291              	.LVL50:
 292              	.L18:
 168:lvgl\src\lv_misc/lv_math.c ****     }
 169:lvgl\src\lv_misc/lv_math.c ****     uy = y;                // copy to unsigned var before multiply
 170:lvgl\src\lv_misc/lv_math.c **** 
 171:lvgl\src\lv_misc/lv_math.c ****     // 1. Calc the scaled "degrees"
 172:lvgl\src\lv_misc/lv_math.c ****     if(ux > uy) {
 293              		.loc 1 172 0
 294 0016 8842     		cmp	r0, r1
 295 0018 08D9     		bls	.L19
 173:lvgl\src\lv_misc/lv_math.c ****         degree = (uy * 45) / ux;   // degree result will be 0-45 range
 296              		.loc 1 173 0
 297 001a 01EB4101 		add	r1, r1, r1, lsl #1
 298              	.LVL51:
 299 001e C1EB0111 		rsb	r1, r1, r1, lsl #4
 300 0022 B1FBF0F1 		udiv	r1, r1, r0
 301              	.LVL52:
 174:lvgl\src\lv_misc/lv_math.c ****         negflag += 0x10;    // octant flag bit
 302              		.loc 1 174 0
 303 0026 1033     		adds	r3, r3, #16
 304              	.LVL53:
 305 0028 DBB2     		uxtb	r3, r3
 306              	.LVL54:
 307 002a 05E0     		b	.L20
 308              	.LVL55:
 309              	.L19:
 175:lvgl\src\lv_misc/lv_math.c ****     }
 176:lvgl\src\lv_misc/lv_math.c ****     else {
 177:lvgl\src\lv_misc/lv_math.c ****         degree = (ux * 45) / uy;   // degree result will be 0-45 range
 310              		.loc 1 177 0
 311 002c 00EB4000 		add	r0, r0, r0, lsl #1
 312              	.LVL56:
 313 0030 C0EB0010 		rsb	r0, r0, r0, lsl #4
 314 0034 B0FBF1F1 		udiv	r1, r0, r1
 315              	.LVL57:
 316              	.L20:
 178:lvgl\src\lv_misc/lv_math.c ****     }
 179:lvgl\src\lv_misc/lv_math.c **** 
 180:lvgl\src\lv_misc/lv_math.c ****     // 2. Compensate for the 4 degree error curve
 181:lvgl\src\lv_misc/lv_math.c ****     comp = 0;
 182:lvgl\src\lv_misc/lv_math.c ****     tempdegree = degree;    // use an unsigned char for speed!
 317              		.loc 1 182 0
 318 0038 CAB2     		uxtb	r2, r1
 319              	.LVL58:
 183:lvgl\src\lv_misc/lv_math.c ****     if(tempdegree > 22) {    // if top half of range
 320              		.loc 1 183 0
 321 003a 162A     		cmp	r2, #22
 322 003c 11D9     		bls	.L21
 184:lvgl\src\lv_misc/lv_math.c ****         if(tempdegree <= 44) comp++;
 323              		.loc 1 184 0
 324 003e 2C2A     		cmp	r2, #44
 325 0040 01D9     		bls	.L34
 181:lvgl\src\lv_misc/lv_math.c ****     tempdegree = degree;    // use an unsigned char for speed!
 326              		.loc 1 181 0
ARM GAS  C:\Users\strap\AppData\Local\Temp\ccB8gqkq.s 			page 10


 327 0042 0020     		movs	r0, #0
 328 0044 00E0     		b	.L22
 329              	.L34:
 330              		.loc 1 184 0
 331 0046 0120     		movs	r0, #1
 332              	.L22:
 333              	.LVL59:
 185:lvgl\src\lv_misc/lv_math.c ****         if(tempdegree <= 41) comp++;
 334              		.loc 1 185 0
 335 0048 292A     		cmp	r2, #41
 336 004a 01D8     		bhi	.L23
 337              		.loc 1 185 0 is_stmt 0 discriminator 1
 338 004c 0130     		adds	r0, r0, #1
 339              	.LVL60:
 340 004e C0B2     		uxtb	r0, r0
 341              	.LVL61:
 342              	.L23:
 186:lvgl\src\lv_misc/lv_math.c ****         if(tempdegree <= 37) comp++;
 343              		.loc 1 186 0 is_stmt 1
 344 0050 252A     		cmp	r2, #37
 345 0052 01D8     		bhi	.L24
 346              		.loc 1 186 0 is_stmt 0 discriminator 1
 347 0054 0130     		adds	r0, r0, #1
 348              	.LVL62:
 349 0056 C0B2     		uxtb	r0, r0
 350              	.LVL63:
 351              	.L24:
 187:lvgl\src\lv_misc/lv_math.c ****         if(tempdegree <= 32) comp++;  // max is 4 degrees compensated
 352              		.loc 1 187 0 is_stmt 1
 353 0058 202A     		cmp	r2, #32
 354 005a 13D8     		bhi	.L25
 355              		.loc 1 187 0 is_stmt 0 discriminator 1
 356 005c 0130     		adds	r0, r0, #1
 357              	.LVL64:
 358 005e C0B2     		uxtb	r0, r0
 359              	.LVL65:
 360 0060 10E0     		b	.L25
 361              	.LVL66:
 362              	.L21:
 188:lvgl\src\lv_misc/lv_math.c ****     }
 189:lvgl\src\lv_misc/lv_math.c ****     else {   // else is lower half of range
 190:lvgl\src\lv_misc/lv_math.c ****         if(tempdegree >= 2) comp++;
 363              		.loc 1 190 0 is_stmt 1
 364 0062 012A     		cmp	r2, #1
 365 0064 01D8     		bhi	.L35
 181:lvgl\src\lv_misc/lv_math.c ****     tempdegree = degree;    // use an unsigned char for speed!
 366              		.loc 1 181 0
 367 0066 0020     		movs	r0, #0
 368 0068 00E0     		b	.L26
 369              	.L35:
 370              		.loc 1 190 0
 371 006a 0120     		movs	r0, #1
 372              	.L26:
 373              	.LVL67:
 191:lvgl\src\lv_misc/lv_math.c ****         if(tempdegree >= 6) comp++;
 374              		.loc 1 191 0
 375 006c 052A     		cmp	r2, #5
ARM GAS  C:\Users\strap\AppData\Local\Temp\ccB8gqkq.s 			page 11


 376 006e 01D9     		bls	.L27
 377              		.loc 1 191 0 is_stmt 0 discriminator 1
 378 0070 0130     		adds	r0, r0, #1
 379              	.LVL68:
 380 0072 C0B2     		uxtb	r0, r0
 381              	.LVL69:
 382              	.L27:
 192:lvgl\src\lv_misc/lv_math.c ****         if(tempdegree >= 10) comp++;
 383              		.loc 1 192 0 is_stmt 1
 384 0074 092A     		cmp	r2, #9
 385 0076 01D9     		bls	.L28
 386              		.loc 1 192 0 is_stmt 0 discriminator 1
 387 0078 0130     		adds	r0, r0, #1
 388              	.LVL70:
 389 007a C0B2     		uxtb	r0, r0
 390              	.LVL71:
 391              	.L28:
 193:lvgl\src\lv_misc/lv_math.c ****         if(tempdegree >= 15) comp++;  // max is 4 degrees compensated
 392              		.loc 1 193 0 is_stmt 1
 393 007c 0E2A     		cmp	r2, #14
 394 007e 01D9     		bls	.L25
 395              		.loc 1 193 0 is_stmt 0 discriminator 1
 396 0080 0130     		adds	r0, r0, #1
 397              	.LVL72:
 398 0082 C0B2     		uxtb	r0, r0
 399              	.LVL73:
 400              	.L25:
 194:lvgl\src\lv_misc/lv_math.c ****     }
 195:lvgl\src\lv_misc/lv_math.c ****     degree += comp;   // degree is now accurate to +/- 1 degree!
 401              		.loc 1 195 0 is_stmt 1
 402 0084 0844     		add	r0, r0, r1
 403              	.LVL74:
 196:lvgl\src\lv_misc/lv_math.c **** 
 197:lvgl\src\lv_misc/lv_math.c ****     // Invert degree if it was X>Y octant, makes 0-45 into 90-45
 198:lvgl\src\lv_misc/lv_math.c ****     if(negflag & 0x10) degree = (90 - degree);
 404              		.loc 1 198 0
 405 0086 13F0100F 		tst	r3, #16
 406 008a 01D0     		beq	.L29
 407              		.loc 1 198 0 is_stmt 0 discriminator 1
 408 008c C0F15A00 		rsb	r0, r0, #90
 409              	.LVL75:
 410              	.L29:
 199:lvgl\src\lv_misc/lv_math.c **** 
 200:lvgl\src\lv_misc/lv_math.c ****     // 3. Degree is now 0-90 range for this quadrant,
 201:lvgl\src\lv_misc/lv_math.c ****     // need to invert it for whichever quadrant it was in
 202:lvgl\src\lv_misc/lv_math.c ****     if(negflag & 0x02) { // if -Y
 411              		.loc 1 202 0 is_stmt 1
 412 0090 13F0020F 		tst	r3, #2
 413 0094 07D0     		beq	.L30
 203:lvgl\src\lv_misc/lv_math.c ****         if(negflag & 0x01)   // if -Y -X
 414              		.loc 1 203 0
 415 0096 13F0010F 		tst	r3, #1
 416 009a 01D0     		beq	.L31
 204:lvgl\src\lv_misc/lv_math.c ****             degree = (180 + degree);
 417              		.loc 1 204 0
 418 009c B430     		adds	r0, r0, #180
 419              	.LVL76:
ARM GAS  C:\Users\strap\AppData\Local\Temp\ccB8gqkq.s 			page 12


 420 009e 07E0     		b	.L32
 421              	.L31:
 205:lvgl\src\lv_misc/lv_math.c ****         else        // else is -Y +X
 206:lvgl\src\lv_misc/lv_math.c ****             degree = (180 - degree);
 422              		.loc 1 206 0
 423 00a0 C0F1B400 		rsb	r0, r0, #180
 424              	.LVL77:
 425 00a4 04E0     		b	.L32
 426              	.L30:
 207:lvgl\src\lv_misc/lv_math.c ****     }
 208:lvgl\src\lv_misc/lv_math.c ****     else {   // else is +Y
 209:lvgl\src\lv_misc/lv_math.c ****         if(negflag & 0x01)   // if +Y -X
 427              		.loc 1 209 0
 428 00a6 13F0010F 		tst	r3, #1
 429 00aa 01D0     		beq	.L32
 210:lvgl\src\lv_misc/lv_math.c ****             degree = (360 - degree);
 430              		.loc 1 210 0
 431 00ac C0F5B470 		rsb	r0, r0, #360
 432              	.LVL78:
 433              	.L32:
 211:lvgl\src\lv_misc/lv_math.c ****     }
 212:lvgl\src\lv_misc/lv_math.c ****     return degree;
 213:lvgl\src\lv_misc/lv_math.c **** }
 434              		.loc 1 213 0
 435 00b0 80B2     		uxth	r0, r0
 436              	.LVL79:
 437 00b2 7047     		bx	lr
 438              		.cfi_endproc
 439              	.LFE3:
 440              		.size	_lv_atan2, .-_lv_atan2
 441              		.section	.text._lv_pow,"ax",%progbits
 442              		.align	2
 443              		.global	_lv_pow
 444              		.thumb
 445              		.thumb_func
 446              		.type	_lv_pow, %function
 447              	_lv_pow:
 448              	.LFB4:
 214:lvgl\src\lv_misc/lv_math.c **** 
 215:lvgl\src\lv_misc/lv_math.c **** /**
 216:lvgl\src\lv_misc/lv_math.c ****  * Calculate the integer exponents.
 217:lvgl\src\lv_misc/lv_math.c ****  * @param base
 218:lvgl\src\lv_misc/lv_math.c ****  * @param power
 219:lvgl\src\lv_misc/lv_math.c ****  * @return base raised to the power exponent
 220:lvgl\src\lv_misc/lv_math.c ****  */
 221:lvgl\src\lv_misc/lv_math.c **** int64_t _lv_pow(int64_t base, int8_t exp)
 222:lvgl\src\lv_misc/lv_math.c **** {
 449              		.loc 1 222 0
 450              		.cfi_startproc
 451              		@ args = 0, pretend = 0, frame = 0
 452              		@ frame_needed = 0, uses_anonymous_args = 0
 453              		@ link register save eliminated.
 454              	.LVL80:
 455 0000 30B4     		push	{r4, r5}
 456              		.cfi_def_cfa_offset 8
 457              		.cfi_offset 4, -8
 458              		.cfi_offset 5, -4
ARM GAS  C:\Users\strap\AppData\Local\Temp\ccB8gqkq.s 			page 13


 459              	.LVL81:
 223:lvgl\src\lv_misc/lv_math.c ****     int64_t result = 1;
 460              		.loc 1 223 0
 461 0002 0124     		movs	r4, #1
 462 0004 0025     		movs	r5, #0
 224:lvgl\src\lv_misc/lv_math.c ****     while(exp) {
 463              		.loc 1 224 0
 464 0006 10E0     		b	.L37
 465              	.LVL82:
 466              	.L39:
 225:lvgl\src\lv_misc/lv_math.c ****         if(exp & 1)
 467              		.loc 1 225 0
 468 0008 12F0010F 		tst	r2, #1
 469 000c 06D0     		beq	.L38
 226:lvgl\src\lv_misc/lv_math.c ****             result *= base;
 470              		.loc 1 226 0
 471 000e 04FB01F3 		mul	r3, r4, r1
 472 0012 00FB0533 		mla	r3, r0, r5, r3
 473 0016 A4FB0045 		umull	r4, r5, r4, r0
 474              	.LVL83:
 475 001a 1D44     		add	r5, r5, r3
 476              	.LVL84:
 477              	.L38:
 227:lvgl\src\lv_misc/lv_math.c ****         exp >>= 1;
 478              		.loc 1 227 0
 479 001c 5210     		asrs	r2, r2, #1
 480              	.LVL85:
 228:lvgl\src\lv_misc/lv_math.c ****         base *= base;
 481              		.loc 1 228 0
 482 001e 00FB01F3 		mul	r3, r0, r1
 483 0022 A0FB0001 		umull	r0, r1, r0, r0
 484              	.LVL86:
 485 0026 01EB4301 		add	r1, r1, r3, lsl #1
 486              	.LVL87:
 487              	.L37:
 224:lvgl\src\lv_misc/lv_math.c ****         if(exp & 1)
 488              		.loc 1 224 0
 489 002a 002A     		cmp	r2, #0
 490 002c ECD1     		bne	.L39
 229:lvgl\src\lv_misc/lv_math.c ****     }
 230:lvgl\src\lv_misc/lv_math.c **** 
 231:lvgl\src\lv_misc/lv_math.c ****     return result;
 232:lvgl\src\lv_misc/lv_math.c **** }
 491              		.loc 1 232 0
 492 002e 2046     		mov	r0, r4
 493              	.LVL88:
 494 0030 2946     		mov	r1, r5
 495 0032 30BC     		pop	{r4, r5}
 496              		.cfi_restore 5
 497              		.cfi_restore 4
 498              		.cfi_def_cfa_offset 0
 499              	.LVL89:
 500 0034 7047     		bx	lr
 501              		.cfi_endproc
 502              	.LFE4:
 503              		.size	_lv_pow, .-_lv_pow
 504 0036 00BF     		.section	.text._lv_map,"ax",%progbits
ARM GAS  C:\Users\strap\AppData\Local\Temp\ccB8gqkq.s 			page 14


 505              		.align	2
 506              		.global	_lv_map
 507              		.thumb
 508              		.thumb_func
 509              		.type	_lv_map, %function
 510              	_lv_map:
 511              	.LFB5:
 233:lvgl\src\lv_misc/lv_math.c **** 
 234:lvgl\src\lv_misc/lv_math.c **** /**
 235:lvgl\src\lv_misc/lv_math.c ****  * Get the mapped of a number given an input and output range
 236:lvgl\src\lv_misc/lv_math.c ****  * @param x integer which mapped value should be calculated
 237:lvgl\src\lv_misc/lv_math.c ****  * @param min_in min input range
 238:lvgl\src\lv_misc/lv_math.c ****  * @param max_in max input range
 239:lvgl\src\lv_misc/lv_math.c ****  * @param min_out max output range
 240:lvgl\src\lv_misc/lv_math.c ****  * @param max_out max output range
 241:lvgl\src\lv_misc/lv_math.c ****  * @return the mapped number
 242:lvgl\src\lv_misc/lv_math.c ****  */
 243:lvgl\src\lv_misc/lv_math.c **** int16_t _lv_map(int32_t x, int32_t min_in, int32_t max_in, int32_t min_out, int32_t max_out)
 244:lvgl\src\lv_misc/lv_math.c **** {
 512              		.loc 1 244 0
 513              		.cfi_startproc
 514              		@ args = 4, pretend = 0, frame = 0
 515              		@ frame_needed = 0, uses_anonymous_args = 0
 516              		@ link register save eliminated.
 517              	.LVL90:
 245:lvgl\src\lv_misc/lv_math.c ****     if(x <= min_in) return min_out;
 518              		.loc 1 245 0
 519 0000 8842     		cmp	r0, r1
 520 0002 01DC     		bgt	.L42
 521              		.loc 1 245 0 is_stmt 0 discriminator 1
 522 0004 18B2     		sxth	r0, r3
 523              	.LVL91:
 246:lvgl\src\lv_misc/lv_math.c ****     if(x >= max_in) return max_out;
 247:lvgl\src\lv_misc/lv_math.c **** 
 248:lvgl\src\lv_misc/lv_math.c ****     /* The equation should be:
 249:lvgl\src\lv_misc/lv_math.c ****      *   ((x - min_in) / delta in) * delta_out + min_out
 250:lvgl\src\lv_misc/lv_math.c ****      * To avoid rounding error reorder the operations:
 251:lvgl\src\lv_misc/lv_math.c ****      *   (((x - min_in) * delta_out) / delta in) + min_out
 252:lvgl\src\lv_misc/lv_math.c ****      */
 253:lvgl\src\lv_misc/lv_math.c **** 
 254:lvgl\src\lv_misc/lv_math.c ****     int32_t delta_in = max_in - min_in;
 255:lvgl\src\lv_misc/lv_math.c ****     int32_t delta_out = max_out - min_out;
 256:lvgl\src\lv_misc/lv_math.c **** 
 257:lvgl\src\lv_misc/lv_math.c ****     return ((x - min_in) * delta_out) / delta_in + min_out;
 258:lvgl\src\lv_misc/lv_math.c **** }
 524              		.loc 1 258 0 is_stmt 1 discriminator 1
 525 0006 7047     		bx	lr
 526              	.LVL92:
 527              	.L42:
 244:lvgl\src\lv_misc/lv_math.c ****     if(x <= min_in) return min_out;
 528              		.loc 1 244 0
 529 0008 10B4     		push	{r4}
 530              		.cfi_def_cfa_offset 4
 531              		.cfi_offset 4, -4
 246:lvgl\src\lv_misc/lv_math.c ****     if(x >= max_in) return max_out;
 532              		.loc 1 246 0
 533 000a 9042     		cmp	r0, r2
ARM GAS  C:\Users\strap\AppData\Local\Temp\ccB8gqkq.s 			page 15


 534 000c 02DB     		blt	.L44
 246:lvgl\src\lv_misc/lv_math.c ****     if(x >= max_in) return max_out;
 535              		.loc 1 246 0 is_stmt 0 discriminator 1
 536 000e BDF90400 		ldrsh	r0, [sp, #4]
 537              	.LVL93:
 538 0012 09E0     		b	.L43
 539              	.LVL94:
 540              	.L44:
 254:lvgl\src\lv_misc/lv_math.c ****     int32_t delta_out = max_out - min_out;
 541              		.loc 1 254 0 is_stmt 1
 542 0014 521A     		subs	r2, r2, r1
 543              	.LVL95:
 255:lvgl\src\lv_misc/lv_math.c **** 
 544              		.loc 1 255 0
 545 0016 019C     		ldr	r4, [sp, #4]
 546 0018 E41A     		subs	r4, r4, r3
 547              	.LVL96:
 257:lvgl\src\lv_misc/lv_math.c **** }
 548              		.loc 1 257 0
 549 001a 411A     		subs	r1, r0, r1
 550              	.LVL97:
 551 001c 01FB04F1 		mul	r1, r1, r4
 552 0020 91FBF2F2 		sdiv	r2, r1, r2
 553              	.LVL98:
 554 0024 1344     		add	r3, r3, r2
 555              	.LVL99:
 556 0026 18B2     		sxth	r0, r3
 557              	.LVL100:
 558              	.L43:
 559              		.loc 1 258 0
 560 0028 10BC     		pop	{r4}
 561              		.cfi_restore 4
 562              		.cfi_def_cfa_offset 0
 563              	.LVL101:
 564 002a 7047     		bx	lr
 565              		.cfi_endproc
 566              	.LFE5:
 567              		.size	_lv_map, .-_lv_map
 568              		.section	.rodata
 569              		.align	2
 570              		.set	.LANCHOR0,. + 0
 571              		.type	sin0_90_table, %object
 572              		.size	sin0_90_table, 182
 573              	sin0_90_table:
 574 0000 0000     		.short	0
 575 0002 3C02     		.short	572
 576 0004 7804     		.short	1144
 577 0006 B306     		.short	1715
 578 0008 EE08     		.short	2286
 579 000a 280B     		.short	2856
 580 000c 610D     		.short	3425
 581 000e 990F     		.short	3993
 582 0010 D011     		.short	4560
 583 0012 0614     		.short	5126
 584 0014 3A16     		.short	5690
 585 0016 6C18     		.short	6252
 586 0018 9D1A     		.short	6813
ARM GAS  C:\Users\strap\AppData\Local\Temp\ccB8gqkq.s 			page 16


 587 001a CB1C     		.short	7371
 588 001c F71E     		.short	7927
 589 001e 2121     		.short	8481
 590 0020 4823     		.short	9032
 591 0022 6C25     		.short	9580
 592 0024 8E27     		.short	10126
 593 0026 AC29     		.short	10668
 594 0028 C72B     		.short	11207
 595 002a DF2D     		.short	11743
 596 002c F32F     		.short	12275
 597 002e 0332     		.short	12803
 598 0030 1034     		.short	13328
 599 0032 1836     		.short	13848
 600 0034 1C38     		.short	14364
 601 0036 1C3A     		.short	14876
 602 0038 173C     		.short	15383
 603 003a 0E3E     		.short	15886
 604 003c FF3F     		.short	16383
 605 003e EC41     		.short	16876
 606 0040 D443     		.short	17364
 607 0042 B645     		.short	17846
 608 0044 9347     		.short	18323
 609 0046 6A49     		.short	18794
 610 0048 3C4B     		.short	19260
 611 004a 084D     		.short	19720
 612 004c CD4E     		.short	20173
 613 004e 8D50     		.short	20621
 614 0050 4652     		.short	21062
 615 0052 F953     		.short	21497
 616 0054 A555     		.short	21925
 617 0056 4B57     		.short	22347
 618 0058 EA58     		.short	22762
 619 005a 825A     		.short	23170
 620 005c 135C     		.short	23571
 621 005e 9C5D     		.short	23964
 622 0060 1F5F     		.short	24351
 623 0062 9A60     		.short	24730
 624 0064 0D62     		.short	25101
 625 0066 7963     		.short	25465
 626 0068 DD64     		.short	25821
 627 006a 3966     		.short	26169
 628 006c 8D67     		.short	26509
 629 006e D968     		.short	26841
 630 0070 1D6A     		.short	27165
 631 0072 596B     		.short	27481
 632 0074 8C6C     		.short	27788
 633 0076 B76D     		.short	28087
 634 0078 D96E     		.short	28377
 635 007a F36F     		.short	28659
 636 007c 0471     		.short	28932
 637 007e 0C72     		.short	29196
 638 0080 0B73     		.short	29451
 639 0082 0174     		.short	29697
 640 0084 EE74     		.short	29934
 641 0086 D275     		.short	30162
 642 0088 AD76     		.short	30381
 643 008a 7F77     		.short	30591
ARM GAS  C:\Users\strap\AppData\Local\Temp\ccB8gqkq.s 			page 17


 644 008c 4778     		.short	30791
 645 008e 0679     		.short	30982
 646 0090 BB79     		.short	31163
 647 0092 677A     		.short	31335
 648 0094 0A7B     		.short	31498
 649 0096 A27B     		.short	31650
 650 0098 327C     		.short	31794
 651 009a B77C     		.short	31927
 652 009c 337D     		.short	32051
 653 009e A57D     		.short	32165
 654 00a0 0D7E     		.short	32269
 655 00a2 6C7E     		.short	32364
 656 00a4 C07E     		.short	32448
 657 00a6 0B7F     		.short	32523
 658 00a8 4B7F     		.short	32587
 659 00aa 827F     		.short	32642
 660 00ac AF7F     		.short	32687
 661 00ae D27F     		.short	32722
 662 00b0 EB7F     		.short	32747
 663 00b2 FA7F     		.short	32762
 664 00b4 FF7F     		.short	32767
 665              		.text
 666              	.Letext0:
 667              		.file 2 "c:\\program files (x86)\\cypress\\psoc creator\\4.4\\psoc creator\\import\\gnu\\arm\\5.4.
 668              		.file 3 "c:\\program files (x86)\\cypress\\psoc creator\\4.4\\psoc creator\\import\\gnu\\arm\\5.4.
 669              		.file 4 "lvgl\\src\\lv_misc\\lv_math.h"