ARM GAS  C:\Users\strap\AppData\Local\Temp\ccV4k2oP.s 			page 1


   1              		.syntax unified
   2              		.cpu cortex-m3
   3              		.fpu softvfp
   4              		.eabi_attribute 20, 1
   5              		.eabi_attribute 21, 1
   6              		.eabi_attribute 23, 3
   7              		.eabi_attribute 24, 1
   8              		.eabi_attribute 25, 1
   9              		.eabi_attribute 26, 1
  10              		.eabi_attribute 30, 1
  11              		.eabi_attribute 34, 1
  12              		.eabi_attribute 18, 4
  13              		.thumb
  14              		.syntax unified
  15              		.file	"lv_printf.c"
  16              		.text
  17              	.Ltext0:
  18              		.cfi_sections	.debug_frame
  19              		.section	.text._out_buffer,"ax",%progbits
  20              		.align	2
  21              		.thumb
  22              		.thumb_func
  23              		.type	_out_buffer, %function
  24              	_out_buffer:
  25              	.LFB0:
  26              		.file 1 "lvgl\\src\\lv_misc\\lv_printf.c"
   1:lvgl\src\lv_misc/lv_printf.c **** ///////////////////////////////////////////////////////////////////////////////
   2:lvgl\src\lv_misc/lv_printf.c **** // \author (c) Marco Paland (info@paland.com)
   3:lvgl\src\lv_misc/lv_printf.c **** //             2014-2019, PALANDesign Hannover, Germany
   4:lvgl\src\lv_misc/lv_printf.c **** //
   5:lvgl\src\lv_misc/lv_printf.c **** // \license The MIT License (MIT)
   6:lvgl\src\lv_misc/lv_printf.c **** //
   7:lvgl\src\lv_misc/lv_printf.c **** // Permission is hereby granted, free of charge, to any person obtaining a copy
   8:lvgl\src\lv_misc/lv_printf.c **** // of this software and associated documentation files (the "Software"), to deal
   9:lvgl\src\lv_misc/lv_printf.c **** // in the Software without restriction, including without limitation the rights
  10:lvgl\src\lv_misc/lv_printf.c **** // to use, copy, modify, merge, publish, distribute, sublicense, and/or sell
  11:lvgl\src\lv_misc/lv_printf.c **** // copies of the Software, and to permit persons to whom the Software is
  12:lvgl\src\lv_misc/lv_printf.c **** // furnished to do so, subject to the following conditions:
  13:lvgl\src\lv_misc/lv_printf.c **** //
  14:lvgl\src\lv_misc/lv_printf.c **** // The above copyright notice and this permission notice shall be included in
  15:lvgl\src\lv_misc/lv_printf.c **** // all copies or substantial portions of the Software.
  16:lvgl\src\lv_misc/lv_printf.c **** //
  17:lvgl\src\lv_misc/lv_printf.c **** // THE SOFTWARE IS PROVIDED "AS IS", WITHOUT WARRANTY OF ANY KIND, EXPRESS OR
  18:lvgl\src\lv_misc/lv_printf.c **** // IMPLIED, INCLUDING BUT NOT LIMITED TO THE WARRANTIES OF MERCHANTABILITY,
  19:lvgl\src\lv_misc/lv_printf.c **** // FITNESS FOR A PARTICULAR PURPOSE AND NONINFRINGEMENT. IN NO EVENT SHALL THE
  20:lvgl\src\lv_misc/lv_printf.c **** // AUTHORS OR COPYRIGHT HOLDERS BE LIABLE FOR ANY CLAIM, DAMAGES OR OTHER
  21:lvgl\src\lv_misc/lv_printf.c **** // LIABILITY, WHETHER IN AN ACTION OF CONTRACT, TORT OR OTHERWISE, ARISING FROM,
  22:lvgl\src\lv_misc/lv_printf.c **** // OUT OF OR IN CONNECTION WITH THE SOFTWARE OR THE USE OR OTHER DEALINGS IN
  23:lvgl\src\lv_misc/lv_printf.c **** // THE SOFTWARE.
  24:lvgl\src\lv_misc/lv_printf.c **** //
  25:lvgl\src\lv_misc/lv_printf.c **** // \brief Tiny printf, sprintf and (v)snprintf implementation, optimized for speed on
  26:lvgl\src\lv_misc/lv_printf.c **** //        embedded systems with a very limited resources. These routines are thread
  27:lvgl\src\lv_misc/lv_printf.c **** //        safe and reentrant!
  28:lvgl\src\lv_misc/lv_printf.c **** //        Use this instead of the bloated standard/newlib printf cause these use
  29:lvgl\src\lv_misc/lv_printf.c **** //        malloc for printf (and may not be thread safe).
  30:lvgl\src\lv_misc/lv_printf.c **** //
  31:lvgl\src\lv_misc/lv_printf.c **** ///////////////////////////////////////////////////////////////////////////////
ARM GAS  C:\Users\strap\AppData\Local\Temp\ccV4k2oP.s 			page 2


  32:lvgl\src\lv_misc/lv_printf.c **** 
  33:lvgl\src\lv_misc/lv_printf.c **** #include "lv_printf.h"
  34:lvgl\src\lv_misc/lv_printf.c **** 
  35:lvgl\src\lv_misc/lv_printf.c **** #if LV_SPRINTF_CUSTOM == 0
  36:lvgl\src\lv_misc/lv_printf.c **** 
  37:lvgl\src\lv_misc/lv_printf.c **** #include <stdbool.h>
  38:lvgl\src\lv_misc/lv_printf.c **** #include <stdint.h>
  39:lvgl\src\lv_misc/lv_printf.c **** 
  40:lvgl\src\lv_misc/lv_printf.c **** 
  41:lvgl\src\lv_misc/lv_printf.c **** #define PRINTF_DISABLE_SUPPORT_FLOAT    LV_SPRINTF_DISABLE_FLOAT
  42:lvgl\src\lv_misc/lv_printf.c **** 
  43:lvgl\src\lv_misc/lv_printf.c **** // 'ntoa' conversion buffer size, this must be big enough to hold one converted
  44:lvgl\src\lv_misc/lv_printf.c **** // numeric number including padded zeros (dynamically created on stack)
  45:lvgl\src\lv_misc/lv_printf.c **** // default: 32 byte
  46:lvgl\src\lv_misc/lv_printf.c **** #ifndef PRINTF_NTOA_BUFFER_SIZE
  47:lvgl\src\lv_misc/lv_printf.c ****     #define PRINTF_NTOA_BUFFER_SIZE    32U
  48:lvgl\src\lv_misc/lv_printf.c **** #endif
  49:lvgl\src\lv_misc/lv_printf.c **** 
  50:lvgl\src\lv_misc/lv_printf.c **** // 'ftoa' conversion buffer size, this must be big enough to hold one converted
  51:lvgl\src\lv_misc/lv_printf.c **** // float number including padded zeros (dynamically created on stack)
  52:lvgl\src\lv_misc/lv_printf.c **** // default: 32 byte
  53:lvgl\src\lv_misc/lv_printf.c **** #ifndef PRINTF_FTOA_BUFFER_SIZE
  54:lvgl\src\lv_misc/lv_printf.c ****     #define PRINTF_FTOA_BUFFER_SIZE    32U
  55:lvgl\src\lv_misc/lv_printf.c **** #endif
  56:lvgl\src\lv_misc/lv_printf.c **** 
  57:lvgl\src\lv_misc/lv_printf.c **** // support for the floating point type (%f)
  58:lvgl\src\lv_misc/lv_printf.c **** // default: activated
  59:lvgl\src\lv_misc/lv_printf.c **** #if !PRINTF_DISABLE_SUPPORT_FLOAT
  60:lvgl\src\lv_misc/lv_printf.c ****     #define PRINTF_SUPPORT_FLOAT
  61:lvgl\src\lv_misc/lv_printf.c **** #endif
  62:lvgl\src\lv_misc/lv_printf.c **** 
  63:lvgl\src\lv_misc/lv_printf.c **** // support for exponential floating point notation (%e/%g)
  64:lvgl\src\lv_misc/lv_printf.c **** // default: activated
  65:lvgl\src\lv_misc/lv_printf.c **** #ifndef PRINTF_DISABLE_SUPPORT_EXPONENTIAL
  66:lvgl\src\lv_misc/lv_printf.c ****     #define PRINTF_SUPPORT_EXPONENTIAL
  67:lvgl\src\lv_misc/lv_printf.c **** #endif
  68:lvgl\src\lv_misc/lv_printf.c **** 
  69:lvgl\src\lv_misc/lv_printf.c **** // define the default floating point precision
  70:lvgl\src\lv_misc/lv_printf.c **** // default: 6 digits
  71:lvgl\src\lv_misc/lv_printf.c **** #ifndef PRINTF_DEFAULT_FLOAT_PRECISION
  72:lvgl\src\lv_misc/lv_printf.c ****     #define PRINTF_DEFAULT_FLOAT_PRECISION  6U
  73:lvgl\src\lv_misc/lv_printf.c **** #endif
  74:lvgl\src\lv_misc/lv_printf.c **** 
  75:lvgl\src\lv_misc/lv_printf.c **** // define the largest float suitable to print with %f
  76:lvgl\src\lv_misc/lv_printf.c **** // default: 1e9
  77:lvgl\src\lv_misc/lv_printf.c **** #ifndef PRINTF_MAX_FLOAT
  78:lvgl\src\lv_misc/lv_printf.c ****     #define PRINTF_MAX_FLOAT  1e9
  79:lvgl\src\lv_misc/lv_printf.c **** #endif
  80:lvgl\src\lv_misc/lv_printf.c **** 
  81:lvgl\src\lv_misc/lv_printf.c **** // support for the long long types (%llu or %p)
  82:lvgl\src\lv_misc/lv_printf.c **** // default: activated
  83:lvgl\src\lv_misc/lv_printf.c **** #ifndef PRINTF_DISABLE_SUPPORT_LONG_LONG
  84:lvgl\src\lv_misc/lv_printf.c ****     #define PRINTF_SUPPORT_LONG_LONG
  85:lvgl\src\lv_misc/lv_printf.c **** #endif
  86:lvgl\src\lv_misc/lv_printf.c **** 
  87:lvgl\src\lv_misc/lv_printf.c **** // support for the ptrdiff_t type (%t)
  88:lvgl\src\lv_misc/lv_printf.c **** // ptrdiff_t is normally defined in <stddef.h> as long or long long type
ARM GAS  C:\Users\strap\AppData\Local\Temp\ccV4k2oP.s 			page 3


  89:lvgl\src\lv_misc/lv_printf.c **** // default: activated
  90:lvgl\src\lv_misc/lv_printf.c **** #ifndef PRINTF_DISABLE_SUPPORT_PTRDIFF_T
  91:lvgl\src\lv_misc/lv_printf.c ****     #define PRINTF_SUPPORT_PTRDIFF_T
  92:lvgl\src\lv_misc/lv_printf.c **** #endif
  93:lvgl\src\lv_misc/lv_printf.c **** 
  94:lvgl\src\lv_misc/lv_printf.c **** ///////////////////////////////////////////////////////////////////////////////
  95:lvgl\src\lv_misc/lv_printf.c **** 
  96:lvgl\src\lv_misc/lv_printf.c **** // internal flag definitions
  97:lvgl\src\lv_misc/lv_printf.c **** #define FLAGS_ZEROPAD   (1U <<  0U)
  98:lvgl\src\lv_misc/lv_printf.c **** #define FLAGS_LEFT      (1U <<  1U)
  99:lvgl\src\lv_misc/lv_printf.c **** #define FLAGS_PLUS      (1U <<  2U)
 100:lvgl\src\lv_misc/lv_printf.c **** #define FLAGS_SPACE     (1U <<  3U)
 101:lvgl\src\lv_misc/lv_printf.c **** #define FLAGS_HASH      (1U <<  4U)
 102:lvgl\src\lv_misc/lv_printf.c **** #define FLAGS_UPPERCASE (1U <<  5U)
 103:lvgl\src\lv_misc/lv_printf.c **** #define FLAGS_CHAR      (1U <<  6U)
 104:lvgl\src\lv_misc/lv_printf.c **** #define FLAGS_SHORT     (1U <<  7U)
 105:lvgl\src\lv_misc/lv_printf.c **** #define FLAGS_LONG      (1U <<  8U)
 106:lvgl\src\lv_misc/lv_printf.c **** #define FLAGS_LONG_LONG (1U <<  9U)
 107:lvgl\src\lv_misc/lv_printf.c **** #define FLAGS_PRECISION (1U << 10U)
 108:lvgl\src\lv_misc/lv_printf.c **** #define FLAGS_ADAPT_EXP (1U << 11U)
 109:lvgl\src\lv_misc/lv_printf.c **** 
 110:lvgl\src\lv_misc/lv_printf.c **** 
 111:lvgl\src\lv_misc/lv_printf.c **** // import float.h for DBL_MAX
 112:lvgl\src\lv_misc/lv_printf.c **** #if defined(PRINTF_SUPPORT_FLOAT)
 113:lvgl\src\lv_misc/lv_printf.c ****     #include <float.h>
 114:lvgl\src\lv_misc/lv_printf.c **** #endif
 115:lvgl\src\lv_misc/lv_printf.c **** 
 116:lvgl\src\lv_misc/lv_printf.c **** 
 117:lvgl\src\lv_misc/lv_printf.c **** // output function type
 118:lvgl\src\lv_misc/lv_printf.c **** typedef void (*out_fct_type)(char character, void * buffer, size_t idx, size_t maxlen);
 119:lvgl\src\lv_misc/lv_printf.c **** 
 120:lvgl\src\lv_misc/lv_printf.c **** 
 121:lvgl\src\lv_misc/lv_printf.c **** // wrapper (used as buffer) for output function type
 122:lvgl\src\lv_misc/lv_printf.c **** typedef struct {
 123:lvgl\src\lv_misc/lv_printf.c ****     void (*fct)(char character, void * arg);
 124:lvgl\src\lv_misc/lv_printf.c ****     void * arg;
 125:lvgl\src\lv_misc/lv_printf.c **** } out_fct_wrap_type;
 126:lvgl\src\lv_misc/lv_printf.c **** 
 127:lvgl\src\lv_misc/lv_printf.c **** 
 128:lvgl\src\lv_misc/lv_printf.c **** // internal buffer output
 129:lvgl\src\lv_misc/lv_printf.c **** static inline void _out_buffer(char character, void * buffer, size_t idx, size_t maxlen)
 130:lvgl\src\lv_misc/lv_printf.c **** {
  27              		.loc 1 130 0
  28              		.cfi_startproc
  29              		@ args = 0, pretend = 0, frame = 0
  30              		@ frame_needed = 0, uses_anonymous_args = 0
  31              		@ link register save eliminated.
  32              	.LVL0:
 131:lvgl\src\lv_misc/lv_printf.c ****     if(idx < maxlen) {
  33              		.loc 1 131 0
  34 0000 9A42     		cmp	r2, r3
  35 0002 00D2     		bcs	.L1
 132:lvgl\src\lv_misc/lv_printf.c ****         ((char *)buffer)[idx] = character;
  36              		.loc 1 132 0
  37 0004 8854     		strb	r0, [r1, r2]
  38              	.L1:
  39 0006 7047     		bx	lr
ARM GAS  C:\Users\strap\AppData\Local\Temp\ccV4k2oP.s 			page 4


  40              		.cfi_endproc
  41              	.LFE0:
  42              		.size	_out_buffer, .-_out_buffer
  43              		.section	.text._out_null,"ax",%progbits
  44              		.align	2
  45              		.thumb
  46              		.thumb_func
  47              		.type	_out_null, %function
  48              	_out_null:
  49              	.LFB1:
 133:lvgl\src\lv_misc/lv_printf.c ****     }
 134:lvgl\src\lv_misc/lv_printf.c **** }
 135:lvgl\src\lv_misc/lv_printf.c **** 
 136:lvgl\src\lv_misc/lv_printf.c **** 
 137:lvgl\src\lv_misc/lv_printf.c **** // internal null output
 138:lvgl\src\lv_misc/lv_printf.c **** static inline void _out_null(char character, void * buffer, size_t idx, size_t maxlen)
 139:lvgl\src\lv_misc/lv_printf.c **** {
  50              		.loc 1 139 0
  51              		.cfi_startproc
  52              		@ args = 0, pretend = 0, frame = 0
  53              		@ frame_needed = 0, uses_anonymous_args = 0
  54              		@ link register save eliminated.
  55              	.LVL1:
  56 0000 7047     		bx	lr
  57              		.cfi_endproc
  58              	.LFE1:
  59              		.size	_out_null, .-_out_null
  60 0002 00BF     		.section	.text._atoi,"ax",%progbits
  61              		.align	2
  62              		.thumb
  63              		.thumb_func
  64              		.type	_atoi, %function
  65              	_atoi:
  66              	.LFB4:
 140:lvgl\src\lv_misc/lv_printf.c ****     (void)character;
 141:lvgl\src\lv_misc/lv_printf.c ****     (void)buffer;
 142:lvgl\src\lv_misc/lv_printf.c ****     (void)idx;
 143:lvgl\src\lv_misc/lv_printf.c ****     (void)maxlen;
 144:lvgl\src\lv_misc/lv_printf.c **** }
 145:lvgl\src\lv_misc/lv_printf.c **** 
 146:lvgl\src\lv_misc/lv_printf.c **** 
 147:lvgl\src\lv_misc/lv_printf.c **** 
 148:lvgl\src\lv_misc/lv_printf.c **** // internal secure strlen
 149:lvgl\src\lv_misc/lv_printf.c **** // \return The length of the string (excluding the terminating 0) limited by 'maxsize'
 150:lvgl\src\lv_misc/lv_printf.c **** static inline unsigned int _strnlen_s(const char * str, size_t maxsize)
 151:lvgl\src\lv_misc/lv_printf.c **** {
 152:lvgl\src\lv_misc/lv_printf.c ****     const char * s;
 153:lvgl\src\lv_misc/lv_printf.c ****     for(s = str; *s && maxsize--; ++s);
 154:lvgl\src\lv_misc/lv_printf.c ****     return (unsigned int)(s - str);
 155:lvgl\src\lv_misc/lv_printf.c **** }
 156:lvgl\src\lv_misc/lv_printf.c **** 
 157:lvgl\src\lv_misc/lv_printf.c **** 
 158:lvgl\src\lv_misc/lv_printf.c **** // internal test if char is a digit (0-9)
 159:lvgl\src\lv_misc/lv_printf.c **** // \return true if char is a digit
 160:lvgl\src\lv_misc/lv_printf.c **** static inline bool _is_digit(char ch)
 161:lvgl\src\lv_misc/lv_printf.c **** {
 162:lvgl\src\lv_misc/lv_printf.c ****     return (ch >= '0') && (ch <= '9');
ARM GAS  C:\Users\strap\AppData\Local\Temp\ccV4k2oP.s 			page 5


 163:lvgl\src\lv_misc/lv_printf.c **** }
 164:lvgl\src\lv_misc/lv_printf.c **** 
 165:lvgl\src\lv_misc/lv_printf.c **** 
 166:lvgl\src\lv_misc/lv_printf.c **** // internal ASCII string to unsigned int conversion
 167:lvgl\src\lv_misc/lv_printf.c **** static unsigned int _atoi(const char ** str)
 168:lvgl\src\lv_misc/lv_printf.c **** {
  67              		.loc 1 168 0
  68              		.cfi_startproc
  69              		@ args = 0, pretend = 0, frame = 0
  70              		@ frame_needed = 0, uses_anonymous_args = 0
  71              		@ link register save eliminated.
  72              	.LVL2:
  73              		.loc 1 168 0
  74 0000 0146     		mov	r1, r0
  75              	.LVL3:
 169:lvgl\src\lv_misc/lv_printf.c ****     unsigned int i = 0U;
  76              		.loc 1 169 0
  77 0002 0020     		movs	r0, #0
  78              	.LVL4:
 170:lvgl\src\lv_misc/lv_printf.c ****     while(_is_digit(**str)) {
  79              		.loc 1 170 0
  80 0004 08E0     		b	.L5
  81              	.LVL5:
  82              	.L6:
 171:lvgl\src\lv_misc/lv_printf.c ****         i = i * 10U + (unsigned int)(*((*str)++) - '0');
  83              		.loc 1 171 0
  84 0006 00EB8000 		add	r0, r0, r0, lsl #2
  85              	.LVL6:
  86 000a 4300     		lsls	r3, r0, #1
  87 000c 501C     		adds	r0, r2, #1
  88 000e 0860     		str	r0, [r1]
  89 0010 1078     		ldrb	r0, [r2]	@ zero_extendqisi2
  90 0012 0344     		add	r3, r3, r0
  91 0014 A3F13000 		sub	r0, r3, #48
  92              	.LVL7:
  93              	.L5:
 170:lvgl\src\lv_misc/lv_printf.c ****     while(_is_digit(**str)) {
  94              		.loc 1 170 0
  95 0018 0A68     		ldr	r2, [r1]
  96 001a 1378     		ldrb	r3, [r2]	@ zero_extendqisi2
  97              	.LVL8:
  98              	.LBB20:
  99              	.LBB21:
 162:lvgl\src\lv_misc/lv_printf.c **** }
 100              		.loc 1 162 0
 101 001c 303B     		subs	r3, r3, #48
 102              	.LVL9:
 103 001e DBB2     		uxtb	r3, r3
 104              	.LVL10:
 105              	.LBE21:
 106              	.LBE20:
 170:lvgl\src\lv_misc/lv_printf.c ****     while(_is_digit(**str)) {
 107              		.loc 1 170 0
 108 0020 092B     		cmp	r3, #9
 109 0022 F0D9     		bls	.L6
 172:lvgl\src\lv_misc/lv_printf.c ****     }
 173:lvgl\src\lv_misc/lv_printf.c ****     return i;
ARM GAS  C:\Users\strap\AppData\Local\Temp\ccV4k2oP.s 			page 6


 174:lvgl\src\lv_misc/lv_printf.c **** }
 110              		.loc 1 174 0
 111 0024 7047     		bx	lr
 112              		.cfi_endproc
 113              	.LFE4:
 114              		.size	_atoi, .-_atoi
 115 0026 00BF     		.section	.text._out_rev,"ax",%progbits
 116              		.align	2
 117              		.thumb
 118              		.thumb_func
 119              		.type	_out_rev, %function
 120              	_out_rev:
 121              	.LFB5:
 175:lvgl\src\lv_misc/lv_printf.c **** 
 176:lvgl\src\lv_misc/lv_printf.c **** 
 177:lvgl\src\lv_misc/lv_printf.c **** // output the specified string in reverse, taking care of any zero-padding
 178:lvgl\src\lv_misc/lv_printf.c **** static size_t _out_rev(out_fct_type out, char * buffer, size_t idx, size_t maxlen, const char * buf
 179:lvgl\src\lv_misc/lv_printf.c ****                        unsigned int width, unsigned int flags)
 180:lvgl\src\lv_misc/lv_printf.c **** {
 122              		.loc 1 180 0
 123              		.cfi_startproc
 124              		@ args = 16, pretend = 0, frame = 8
 125              		@ frame_needed = 0, uses_anonymous_args = 0
 126              	.LVL11:
 127 0000 2DE9F04F 		push	{r4, r5, r6, r7, r8, r9, r10, fp, lr}
 128              		.cfi_def_cfa_offset 36
 129              		.cfi_offset 4, -36
 130              		.cfi_offset 5, -32
 131              		.cfi_offset 6, -28
 132              		.cfi_offset 7, -24
 133              		.cfi_offset 8, -20
 134              		.cfi_offset 9, -16
 135              		.cfi_offset 10, -12
 136              		.cfi_offset 11, -8
 137              		.cfi_offset 14, -4
 138 0004 83B0     		sub	sp, sp, #12
 139              		.cfi_def_cfa_offset 48
 140 0006 0546     		mov	r5, r0
 141 0008 0191     		str	r1, [sp, #4]
 142 000a 9346     		mov	fp, r2
 143 000c 1E46     		mov	r6, r3
 144 000e DDF83090 		ldr	r9, [sp, #48]
 145 0012 0D9C     		ldr	r4, [sp, #52]
 146 0014 DDF83880 		ldr	r8, [sp, #56]
 147              	.LVL12:
 181:lvgl\src\lv_misc/lv_printf.c ****     const size_t start_idx = idx;
 182:lvgl\src\lv_misc/lv_printf.c **** 
 183:lvgl\src\lv_misc/lv_printf.c ****     // pad spaces up to given width
 184:lvgl\src\lv_misc/lv_printf.c ****     if(!(flags & FLAGS_LEFT) && !(flags & FLAGS_ZEROPAD)) {
 148              		.loc 1 184 0
 149 0018 0F9B     		ldr	r3, [sp, #60]
 150              	.LVL13:
 151 001a 13F0030F 		tst	r3, #3
 152 001e 09D0     		beq	.L16
 153 0020 14E0     		b	.L11
 154              	.LVL14:
 155              	.L10:
ARM GAS  C:\Users\strap\AppData\Local\Temp\ccV4k2oP.s 			page 7


 156              	.LBB22:
 185:lvgl\src\lv_misc/lv_printf.c ****         size_t i;
 186:lvgl\src\lv_misc/lv_printf.c ****         for(i = len; i < width; i++) {
 187:lvgl\src\lv_misc/lv_printf.c ****             out(' ', buffer, idx++, maxlen);
 157              		.loc 1 187 0 discriminator 3
 158 0022 02F1010A 		add	r10, r2, #1
 159              	.LVL15:
 160 0026 3346     		mov	r3, r6
 161 0028 0199     		ldr	r1, [sp, #4]
 162 002a 2020     		movs	r0, #32
 163 002c A847     		blx	r5
 164              	.LVL16:
 186:lvgl\src\lv_misc/lv_printf.c ****             out(' ', buffer, idx++, maxlen);
 165              		.loc 1 186 0 discriminator 3
 166 002e 0137     		adds	r7, r7, #1
 167              	.LVL17:
 168              		.loc 1 187 0 discriminator 3
 169 0030 5246     		mov	r2, r10
 170 0032 00E0     		b	.L8
 171              	.LVL18:
 172              	.L16:
 173              	.LBE22:
 174 0034 2746     		mov	r7, r4
 175              	.LVL19:
 176              	.L8:
 177              	.LBB23:
 186:lvgl\src\lv_misc/lv_printf.c ****             out(' ', buffer, idx++, maxlen);
 178              		.loc 1 186 0 discriminator 1
 179 0036 4745     		cmp	r7, r8
 180 0038 F3D3     		bcc	.L10
 181 003a 07E0     		b	.L11
 182              	.LVL20:
 183              	.L12:
 184              	.LBE23:
 188:lvgl\src\lv_misc/lv_printf.c ****         }
 189:lvgl\src\lv_misc/lv_printf.c ****     }
 190:lvgl\src\lv_misc/lv_printf.c **** 
 191:lvgl\src\lv_misc/lv_printf.c ****     // reverse string
 192:lvgl\src\lv_misc/lv_printf.c ****     while(len) {
 193:lvgl\src\lv_misc/lv_printf.c ****         out(buf[--len], buffer, idx++, maxlen);
 185              		.loc 1 193 0
 186 003c 013C     		subs	r4, r4, #1
 187              	.LVL21:
 188 003e 571C     		adds	r7, r2, #1
 189              	.LVL22:
 190 0040 3346     		mov	r3, r6
 191 0042 0199     		ldr	r1, [sp, #4]
 192 0044 19F80400 		ldrb	r0, [r9, r4]	@ zero_extendqisi2
 193 0048 A847     		blx	r5
 194              	.LVL23:
 195 004a 3A46     		mov	r2, r7
 196              	.LVL24:
 197              	.L11:
 192:lvgl\src\lv_misc/lv_printf.c ****         out(buf[--len], buffer, idx++, maxlen);
 198              		.loc 1 192 0
 199 004c 002C     		cmp	r4, #0
 200 004e F5D1     		bne	.L12
ARM GAS  C:\Users\strap\AppData\Local\Temp\ccV4k2oP.s 			page 8


 194:lvgl\src\lv_misc/lv_printf.c ****     }
 195:lvgl\src\lv_misc/lv_printf.c **** 
 196:lvgl\src\lv_misc/lv_printf.c ****     // append pad spaces up to given width
 197:lvgl\src\lv_misc/lv_printf.c ****     if(flags & FLAGS_LEFT) {
 201              		.loc 1 197 0
 202 0050 0F9B     		ldr	r3, [sp, #60]
 203 0052 13F0020F 		tst	r3, #2
 204 0056 07D1     		bne	.L17
 205 0058 0BE0     		b	.L14
 206              	.LVL25:
 207              	.L15:
 198:lvgl\src\lv_misc/lv_printf.c ****         while(idx - start_idx < width) {
 199:lvgl\src\lv_misc/lv_printf.c ****             out(' ', buffer, idx++, maxlen);
 208              		.loc 1 199 0
 209 005a 541C     		adds	r4, r2, #1
 210              	.LVL26:
 211 005c 3346     		mov	r3, r6
 212 005e 3946     		mov	r1, r7
 213 0060 2020     		movs	r0, #32
 214 0062 A847     		blx	r5
 215              	.LVL27:
 216 0064 2246     		mov	r2, r4
 217 0066 00E0     		b	.L13
 218              	.LVL28:
 219              	.L17:
 220 0068 019F     		ldr	r7, [sp, #4]
 221              	.LVL29:
 222              	.L13:
 198:lvgl\src\lv_misc/lv_printf.c ****         while(idx - start_idx < width) {
 223              		.loc 1 198 0
 224 006a CBEB0203 		rsb	r3, fp, r2
 225 006e 9845     		cmp	r8, r3
 226 0070 F3D8     		bhi	.L15
 227              	.L14:
 200:lvgl\src\lv_misc/lv_printf.c ****         }
 201:lvgl\src\lv_misc/lv_printf.c ****     }
 202:lvgl\src\lv_misc/lv_printf.c **** 
 203:lvgl\src\lv_misc/lv_printf.c ****     return idx;
 204:lvgl\src\lv_misc/lv_printf.c **** }
 228              		.loc 1 204 0
 229 0072 1046     		mov	r0, r2
 230 0074 03B0     		add	sp, sp, #12
 231              		.cfi_def_cfa_offset 36
 232              		@ sp needed
 233 0076 BDE8F08F 		pop	{r4, r5, r6, r7, r8, r9, r10, fp, pc}
 234              		.cfi_endproc
 235              	.LFE5:
 236              		.size	_out_rev, .-_out_rev
 237 007a 00BF     		.section	.text._ntoa_format,"ax",%progbits
 238              		.align	2
 239              		.thumb
 240              		.thumb_func
 241              		.type	_ntoa_format, %function
 242              	_ntoa_format:
 243              	.LFB6:
 205:lvgl\src\lv_misc/lv_printf.c **** 
 206:lvgl\src\lv_misc/lv_printf.c **** 
ARM GAS  C:\Users\strap\AppData\Local\Temp\ccV4k2oP.s 			page 9


 207:lvgl\src\lv_misc/lv_printf.c **** // internal itoa format
 208:lvgl\src\lv_misc/lv_printf.c **** static size_t _ntoa_format(out_fct_type out, char * buffer, size_t idx, size_t maxlen, char * buf, 
 209:lvgl\src\lv_misc/lv_printf.c ****                            bool negative, unsigned int base, unsigned int prec, unsigned int width,
 210:lvgl\src\lv_misc/lv_printf.c **** {
 244              		.loc 1 210 0
 245              		.cfi_startproc
 246              		@ args = 28, pretend = 0, frame = 0
 247              		@ frame_needed = 0, uses_anonymous_args = 0
 248              	.LVL30:
 249 0000 2DE9F043 		push	{r4, r5, r6, r7, r8, r9, lr}
 250              		.cfi_def_cfa_offset 28
 251              		.cfi_offset 4, -28
 252              		.cfi_offset 5, -24
 253              		.cfi_offset 6, -20
 254              		.cfi_offset 7, -16
 255              		.cfi_offset 8, -12
 256              		.cfi_offset 9, -8
 257              		.cfi_offset 14, -4
 258 0004 85B0     		sub	sp, sp, #20
 259              		.cfi_def_cfa_offset 48
 260 0006 0C9D     		ldr	r5, [sp, #48]
 261 0008 0D9C     		ldr	r4, [sp, #52]
 262 000a 9DF83890 		ldrb	r9, [sp, #56]	@ zero_extendqisi2
 263 000e DDF83C80 		ldr	r8, [sp, #60]
 264 0012 DDF840C0 		ldr	ip, [sp, #64]
 265 0016 DDF844E0 		ldr	lr, [sp, #68]
 266 001a 129E     		ldr	r6, [sp, #72]
 211:lvgl\src\lv_misc/lv_printf.c ****     // pad leading zeros
 212:lvgl\src\lv_misc/lv_printf.c ****     if(!(flags & FLAGS_LEFT)) {
 267              		.loc 1 212 0
 268 001c 16F0020F 		tst	r6, #2
 269 0020 20D1     		bne	.L20
 213:lvgl\src\lv_misc/lv_printf.c ****         if(width && (flags & FLAGS_ZEROPAD) && (negative || (flags & (FLAGS_PLUS | FLAGS_SPACE)))) 
 270              		.loc 1 213 0
 271 0022 BEF1000F 		cmp	lr, #0
 272 0026 0ED0     		beq	.L23
 273              		.loc 1 213 0 is_stmt 0 discriminator 1
 274 0028 16F0010F 		tst	r6, #1
 275 002c 0BD0     		beq	.L23
 276              		.loc 1 213 0 discriminator 2
 277 002e B9F1000F 		cmp	r9, #0
 278 0032 02D1     		bne	.L22
 279              		.loc 1 213 0 discriminator 3
 280 0034 16F00C0F 		tst	r6, #12
 281 0038 05D0     		beq	.L23
 282              	.L22:
 214:lvgl\src\lv_misc/lv_printf.c ****             width--;
 283              		.loc 1 214 0 is_stmt 1
 284 003a 0EF1FF3E 		add	lr, lr, #-1
 285              	.LVL31:
 286 003e 02E0     		b	.L23
 287              	.LVL32:
 288              	.L25:
 215:lvgl\src\lv_misc/lv_printf.c ****         }
 216:lvgl\src\lv_misc/lv_printf.c ****         while((len < prec) && (len < PRINTF_NTOA_BUFFER_SIZE)) {
 217:lvgl\src\lv_misc/lv_printf.c ****             buf[len++] = '0';
 289              		.loc 1 217 0
ARM GAS  C:\Users\strap\AppData\Local\Temp\ccV4k2oP.s 			page 10


 290 0040 3027     		movs	r7, #48
 291 0042 2F55     		strb	r7, [r5, r4]
 292 0044 0134     		adds	r4, r4, #1
 293              	.LVL33:
 294              	.L23:
 216:lvgl\src\lv_misc/lv_printf.c ****             buf[len++] = '0';
 295              		.loc 1 216 0
 296 0046 6445     		cmp	r4, ip
 297 0048 05D2     		bcs	.L24
 216:lvgl\src\lv_misc/lv_printf.c ****             buf[len++] = '0';
 298              		.loc 1 216 0 is_stmt 0 discriminator 1
 299 004a 1F2C     		cmp	r4, #31
 300 004c F8D9     		bls	.L25
 301 004e 02E0     		b	.L24
 302              	.L26:
 303              	.LVL34:
 218:lvgl\src\lv_misc/lv_printf.c ****         }
 219:lvgl\src\lv_misc/lv_printf.c ****         while((flags & FLAGS_ZEROPAD) && (len < width) && (len < PRINTF_NTOA_BUFFER_SIZE)) {
 220:lvgl\src\lv_misc/lv_printf.c ****             buf[len++] = '0';
 304              		.loc 1 220 0 is_stmt 1
 305 0050 3027     		movs	r7, #48
 306 0052 2F55     		strb	r7, [r5, r4]
 307 0054 0134     		adds	r4, r4, #1
 308              	.LVL35:
 309              	.L24:
 219:lvgl\src\lv_misc/lv_printf.c ****             buf[len++] = '0';
 310              		.loc 1 219 0
 311 0056 16F0010F 		tst	r6, #1
 312 005a 03D0     		beq	.L20
 219:lvgl\src\lv_misc/lv_printf.c ****             buf[len++] = '0';
 313              		.loc 1 219 0 is_stmt 0 discriminator 1
 314 005c 7445     		cmp	r4, lr
 315 005e 01D2     		bcs	.L20
 219:lvgl\src\lv_misc/lv_printf.c ****             buf[len++] = '0';
 316              		.loc 1 219 0 discriminator 2
 317 0060 1F2C     		cmp	r4, #31
 318 0062 F5D9     		bls	.L26
 319              	.LVL36:
 320              	.L20:
 221:lvgl\src\lv_misc/lv_printf.c ****         }
 222:lvgl\src\lv_misc/lv_printf.c ****     }
 223:lvgl\src\lv_misc/lv_printf.c **** 
 224:lvgl\src\lv_misc/lv_printf.c ****     // handle hash
 225:lvgl\src\lv_misc/lv_printf.c ****     if(flags & FLAGS_HASH) {
 321              		.loc 1 225 0 is_stmt 1
 322 0064 16F0100F 		tst	r6, #16
 323 0068 36D0     		beq	.L27
 226:lvgl\src\lv_misc/lv_printf.c ****         if(!(flags & FLAGS_PRECISION) && len && ((len == prec) || (len == width))) {
 324              		.loc 1 226 0
 325 006a 16F4806F 		tst	r6, #1024
 326 006e 0ED1     		bne	.L28
 327              		.loc 1 226 0 is_stmt 0 discriminator 1
 328 0070 6CB1     		cbz	r4, .L28
 329              		.loc 1 226 0 discriminator 2
 330 0072 6445     		cmp	r4, ip
 331 0074 01D0     		beq	.L29
 332              		.loc 1 226 0 discriminator 3
ARM GAS  C:\Users\strap\AppData\Local\Temp\ccV4k2oP.s 			page 11


 333 0076 7445     		cmp	r4, lr
 334 0078 09D1     		bne	.L28
 335              	.L29:
 336              	.LVL37:
 227:lvgl\src\lv_misc/lv_printf.c ****             len--;
 228:lvgl\src\lv_misc/lv_printf.c ****             if(len && (base == 16U)) {
 337              		.loc 1 228 0 is_stmt 1
 338 007a 671E     		subs	r7, r4, #1
 339              	.LVL38:
 340 007c 04D0     		beq	.L36
 341              		.loc 1 228 0 is_stmt 0 discriminator 1
 342 007e B8F1100F 		cmp	r8, #16
 343 0082 03D1     		bne	.L37
 229:lvgl\src\lv_misc/lv_printf.c ****                 len--;
 344              		.loc 1 229 0 is_stmt 1
 345 0084 023C     		subs	r4, r4, #2
 346              	.LVL39:
 347 0086 02E0     		b	.L28
 348              	.LVL40:
 349              	.L36:
 227:lvgl\src\lv_misc/lv_printf.c ****             len--;
 350              		.loc 1 227 0
 351 0088 3C46     		mov	r4, r7
 352 008a 00E0     		b	.L28
 353              	.L37:
 354 008c 3C46     		mov	r4, r7
 355              	.LVL41:
 356              	.L28:
 230:lvgl\src\lv_misc/lv_printf.c ****             }
 231:lvgl\src\lv_misc/lv_printf.c ****         }
 232:lvgl\src\lv_misc/lv_printf.c ****         if((base == 16U) && !(flags & FLAGS_UPPERCASE) && (len < PRINTF_NTOA_BUFFER_SIZE)) {
 357              		.loc 1 232 0
 358 008e B8F1100F 		cmp	r8, #16
 359 0092 08D1     		bne	.L30
 360              		.loc 1 232 0 is_stmt 0 discriminator 1
 361 0094 16F0200F 		tst	r6, #32
 362 0098 05D1     		bne	.L30
 363              		.loc 1 232 0 discriminator 2
 364 009a 1F2C     		cmp	r4, #31
 365 009c 03D8     		bhi	.L30
 366              	.LVL42:
 233:lvgl\src\lv_misc/lv_printf.c ****             buf[len++] = 'x';
 367              		.loc 1 233 0 is_stmt 1
 368 009e 7827     		movs	r7, #120
 369 00a0 2F55     		strb	r7, [r5, r4]
 370 00a2 0134     		adds	r4, r4, #1
 371              	.LVL43:
 372 00a4 13E0     		b	.L31
 373              	.L30:
 234:lvgl\src\lv_misc/lv_printf.c ****         }
 235:lvgl\src\lv_misc/lv_printf.c ****         else if((base == 16U) && (flags & FLAGS_UPPERCASE) && (len < PRINTF_NTOA_BUFFER_SIZE)) {
 374              		.loc 1 235 0
 375 00a6 B8F1100F 		cmp	r8, #16
 376 00aa 08D1     		bne	.L32
 377              		.loc 1 235 0 is_stmt 0 discriminator 1
 378 00ac 16F0200F 		tst	r6, #32
 379 00b0 05D0     		beq	.L32
ARM GAS  C:\Users\strap\AppData\Local\Temp\ccV4k2oP.s 			page 12


 380              		.loc 1 235 0 discriminator 2
 381 00b2 1F2C     		cmp	r4, #31
 382 00b4 03D8     		bhi	.L32
 383              	.LVL44:
 236:lvgl\src\lv_misc/lv_printf.c ****             buf[len++] = 'X';
 384              		.loc 1 236 0 is_stmt 1
 385 00b6 5827     		movs	r7, #88
 386 00b8 2F55     		strb	r7, [r5, r4]
 387 00ba 0134     		adds	r4, r4, #1
 388              	.LVL45:
 389 00bc 07E0     		b	.L31
 390              	.L32:
 237:lvgl\src\lv_misc/lv_printf.c ****         }
 238:lvgl\src\lv_misc/lv_printf.c ****         else if((base == 2U) && (len < PRINTF_NTOA_BUFFER_SIZE)) {
 391              		.loc 1 238 0
 392 00be B8F1020F 		cmp	r8, #2
 393 00c2 04D1     		bne	.L31
 394              		.loc 1 238 0 is_stmt 0 discriminator 1
 395 00c4 1F2C     		cmp	r4, #31
 396 00c6 02D8     		bhi	.L31
 397              	.LVL46:
 239:lvgl\src\lv_misc/lv_printf.c ****             buf[len++] = 'b';
 398              		.loc 1 239 0 is_stmt 1
 399 00c8 6227     		movs	r7, #98
 400 00ca 2F55     		strb	r7, [r5, r4]
 401 00cc 0134     		adds	r4, r4, #1
 402              	.LVL47:
 403              	.L31:
 240:lvgl\src\lv_misc/lv_printf.c ****         }
 241:lvgl\src\lv_misc/lv_printf.c ****         if(len < PRINTF_NTOA_BUFFER_SIZE) {
 404              		.loc 1 241 0
 405 00ce 1F2C     		cmp	r4, #31
 406 00d0 02D8     		bhi	.L27
 407              	.LVL48:
 242:lvgl\src\lv_misc/lv_printf.c ****             buf[len++] = '0';
 408              		.loc 1 242 0
 409 00d2 3027     		movs	r7, #48
 410 00d4 2F55     		strb	r7, [r5, r4]
 411 00d6 0134     		adds	r4, r4, #1
 412              	.LVL49:
 413              	.L27:
 243:lvgl\src\lv_misc/lv_printf.c ****         }
 244:lvgl\src\lv_misc/lv_printf.c ****     }
 245:lvgl\src\lv_misc/lv_printf.c **** 
 246:lvgl\src\lv_misc/lv_printf.c ****     if(len < PRINTF_NTOA_BUFFER_SIZE) {
 414              		.loc 1 246 0
 415 00d8 1F2C     		cmp	r4, #31
 416 00da 13D8     		bhi	.L33
 247:lvgl\src\lv_misc/lv_printf.c ****         if(negative) {
 417              		.loc 1 247 0
 418 00dc B9F1000F 		cmp	r9, #0
 419 00e0 03D0     		beq	.L34
 420              	.LVL50:
 248:lvgl\src\lv_misc/lv_printf.c ****             buf[len++] = '-';
 421              		.loc 1 248 0
 422 00e2 2D27     		movs	r7, #45
 423 00e4 2F55     		strb	r7, [r5, r4]
ARM GAS  C:\Users\strap\AppData\Local\Temp\ccV4k2oP.s 			page 13


 424 00e6 0134     		adds	r4, r4, #1
 425              	.LVL51:
 426 00e8 0CE0     		b	.L33
 427              	.L34:
 249:lvgl\src\lv_misc/lv_printf.c ****         }
 250:lvgl\src\lv_misc/lv_printf.c ****         else if(flags & FLAGS_PLUS) {
 428              		.loc 1 250 0
 429 00ea 16F0040F 		tst	r6, #4
 430 00ee 03D0     		beq	.L35
 431              	.LVL52:
 251:lvgl\src\lv_misc/lv_printf.c ****             buf[len++] = '+';  // ignore the space if the '+' exists
 432              		.loc 1 251 0
 433 00f0 2B27     		movs	r7, #43
 434 00f2 2F55     		strb	r7, [r5, r4]
 435 00f4 0134     		adds	r4, r4, #1
 436              	.LVL53:
 437 00f6 05E0     		b	.L33
 438              	.L35:
 252:lvgl\src\lv_misc/lv_printf.c ****         }
 253:lvgl\src\lv_misc/lv_printf.c ****         else if(flags & FLAGS_SPACE) {
 439              		.loc 1 253 0
 440 00f8 16F0080F 		tst	r6, #8
 441 00fc 02D0     		beq	.L33
 442              	.LVL54:
 254:lvgl\src\lv_misc/lv_printf.c ****             buf[len++] = ' ';
 443              		.loc 1 254 0
 444 00fe 2027     		movs	r7, #32
 445 0100 2F55     		strb	r7, [r5, r4]
 446 0102 0134     		adds	r4, r4, #1
 447              	.LVL55:
 448              	.L33:
 255:lvgl\src\lv_misc/lv_printf.c ****         }
 256:lvgl\src\lv_misc/lv_printf.c ****     }
 257:lvgl\src\lv_misc/lv_printf.c **** 
 258:lvgl\src\lv_misc/lv_printf.c ****     return _out_rev(out, buffer, idx, maxlen, buf, len, width, flags);
 449              		.loc 1 258 0
 450 0104 0396     		str	r6, [sp, #12]
 451 0106 CDF808E0 		str	lr, [sp, #8]
 452 010a 0194     		str	r4, [sp, #4]
 453 010c 0095     		str	r5, [sp]
 454 010e FFF7FEFF 		bl	_out_rev
 455              	.LVL56:
 259:lvgl\src\lv_misc/lv_printf.c **** }
 456              		.loc 1 259 0
 457 0112 05B0     		add	sp, sp, #20
 458              		.cfi_def_cfa_offset 28
 459              		@ sp needed
 460 0114 BDE8F083 		pop	{r4, r5, r6, r7, r8, r9, pc}
 461              		.cfi_endproc
 462              	.LFE6:
 463              		.size	_ntoa_format, .-_ntoa_format
 464              		.section	.text._ntoa_long,"ax",%progbits
 465              		.align	2
 466              		.thumb
 467              		.thumb_func
 468              		.type	_ntoa_long, %function
 469              	_ntoa_long:
ARM GAS  C:\Users\strap\AppData\Local\Temp\ccV4k2oP.s 			page 14


 470              	.LFB7:
 260:lvgl\src\lv_misc/lv_printf.c **** 
 261:lvgl\src\lv_misc/lv_printf.c **** 
 262:lvgl\src\lv_misc/lv_printf.c **** // internal itoa for 'long' type
 263:lvgl\src\lv_misc/lv_printf.c **** static size_t _ntoa_long(out_fct_type out, char * buffer, size_t idx, size_t maxlen, unsigned long 
 264:lvgl\src\lv_misc/lv_printf.c ****                          unsigned long base, unsigned int prec, unsigned int width, unsigned int fl
 265:lvgl\src\lv_misc/lv_printf.c **** {
 471              		.loc 1 265 0
 472              		.cfi_startproc
 473              		@ args = 24, pretend = 0, frame = 32
 474              		@ frame_needed = 0, uses_anonymous_args = 0
 475              	.LVL57:
 476 0000 2DE9F041 		push	{r4, r5, r6, r7, r8, lr}
 477              		.cfi_def_cfa_offset 24
 478              		.cfi_offset 4, -24
 479              		.cfi_offset 5, -20
 480              		.cfi_offset 6, -16
 481              		.cfi_offset 7, -12
 482              		.cfi_offset 8, -8
 483              		.cfi_offset 14, -4
 484 0004 90B0     		sub	sp, sp, #64
 485              		.cfi_def_cfa_offset 88
 486 0006 169D     		ldr	r5, [sp, #88]
 487 0008 189F     		ldr	r7, [sp, #96]
 488 000a DDF86CE0 		ldr	lr, [sp, #108]
 489              	.LVL58:
 266:lvgl\src\lv_misc/lv_printf.c ****     char buf[PRINTF_NTOA_BUFFER_SIZE];
 267:lvgl\src\lv_misc/lv_printf.c ****     size_t len = 0U;
 268:lvgl\src\lv_misc/lv_printf.c **** 
 269:lvgl\src\lv_misc/lv_printf.c ****     // no hash for 0 values
 270:lvgl\src\lv_misc/lv_printf.c ****     if(!value) {
 490              		.loc 1 270 0
 491 000e 0DB9     		cbnz	r5, .L40
 271:lvgl\src\lv_misc/lv_printf.c ****         flags &= ~FLAGS_HASH;
 492              		.loc 1 271 0
 493 0010 2EF0100E 		bic	lr, lr, #16
 494              	.LVL59:
 495              	.L40:
 272:lvgl\src\lv_misc/lv_printf.c ****     }
 273:lvgl\src\lv_misc/lv_printf.c **** 
 274:lvgl\src\lv_misc/lv_printf.c ****     // write if precision != 0 and value is != 0
 275:lvgl\src\lv_misc/lv_printf.c ****     if(!(flags & FLAGS_PRECISION) || value) {
 496              		.loc 1 275 0
 497 0014 1EF4806F 		tst	lr, #1024
 498 0018 02D0     		beq	.L46
 499              		.loc 1 275 0 is_stmt 0 discriminator 1
 500 001a 35B3     		cbz	r5, .L47
 501 001c 0026     		movs	r6, #0
 502 001e 00E0     		b	.L41
 503              	.L46:
 504 0020 0026     		movs	r6, #0
 505              	.LVL60:
 506              	.L41:
 507              	.LBB24:
 276:lvgl\src\lv_misc/lv_printf.c ****         do {
 277:lvgl\src\lv_misc/lv_printf.c ****             const char digit = (char)(value % base);
 508              		.loc 1 277 0 is_stmt 1
ARM GAS  C:\Users\strap\AppData\Local\Temp\ccV4k2oP.s 			page 15


 509 0022 B5FBF7F4 		udiv	r4, r5, r7
 510 0026 07FB1454 		mls	r4, r7, r4, r5
 511 002a E4B2     		uxtb	r4, r4
 512              	.LVL61:
 278:lvgl\src\lv_misc/lv_printf.c ****             buf[len++] = digit < 10 ? '0' + digit : (flags & FLAGS_UPPERCASE ? 'A' : 'a') + digit -
 513              		.loc 1 278 0
 514 002c 06F1010C 		add	ip, r6, #1
 515              	.LVL62:
 516 0030 092C     		cmp	r4, #9
 517 0032 02D8     		bhi	.L43
 518              		.loc 1 278 0 is_stmt 0 discriminator 1
 519 0034 3034     		adds	r4, r4, #48
 520              	.LVL63:
 521 0036 E4B2     		uxtb	r4, r4
 522              	.LVL64:
 523 0038 0AE0     		b	.L44
 524              	.LVL65:
 525              	.L43:
 526              		.loc 1 278 0 discriminator 2
 527 003a 1EF0200F 		tst	lr, #32
 528 003e 02D0     		beq	.L48
 529              		.loc 1 278 0
 530 0040 4FF04108 		mov	r8, #65
 531 0044 01E0     		b	.L45
 532              	.L48:
 533 0046 4FF06108 		mov	r8, #97
 534              	.L45:
 535              		.loc 1 278 0 discriminator 7
 536 004a 4444     		add	r4, r4, r8
 537              	.LVL66:
 538 004c 0A3C     		subs	r4, r4, #10
 539 004e E4B2     		uxtb	r4, r4
 540              	.L44:
 541              		.loc 1 278 0 discriminator 8
 542 0050 0DF14008 		add	r8, sp, #64
 543 0054 4644     		add	r6, r6, r8
 544 0056 06F8204C 		strb	r4, [r6, #-32]
 279:lvgl\src\lv_misc/lv_printf.c ****             value /= base;
 545              		.loc 1 279 0 is_stmt 1 discriminator 8
 546 005a B5FBF7F5 		udiv	r5, r5, r7
 547              	.LVL67:
 548              	.LBE24:
 280:lvgl\src\lv_misc/lv_printf.c ****         } while(value && (len < PRINTF_NTOA_BUFFER_SIZE));
 549              		.loc 1 280 0 discriminator 8
 550 005e 35B1     		cbz	r5, .L42
 551              	.LBB25:
 278:lvgl\src\lv_misc/lv_printf.c ****             buf[len++] = digit < 10 ? '0' + digit : (flags & FLAGS_UPPERCASE ? 'A' : 'a') + digit -
 552              		.loc 1 278 0 discriminator 1
 553 0060 6646     		mov	r6, ip
 554              	.LBE25:
 555              		.loc 1 280 0 discriminator 1
 556 0062 BCF11F0F 		cmp	ip, #31
 557 0066 DCD9     		bls	.L41
 558              	.LVL68:
 559 0068 01E0     		b	.L42
 560              	.LVL69:
 561              	.L47:
ARM GAS  C:\Users\strap\AppData\Local\Temp\ccV4k2oP.s 			page 16


 267:lvgl\src\lv_misc/lv_printf.c **** 
 562              		.loc 1 267 0
 563 006a 4FF0000C 		mov	ip, #0
 564              	.LVL70:
 565              	.L42:
 281:lvgl\src\lv_misc/lv_printf.c ****     }
 282:lvgl\src\lv_misc/lv_printf.c **** 
 283:lvgl\src\lv_misc/lv_printf.c ****     return _ntoa_format(out, buffer, idx, maxlen, buf, len, negative, (unsigned int)base, prec, wid
 566              		.loc 1 283 0
 567 006e CDF818E0 		str	lr, [sp, #24]
 568 0072 1A9C     		ldr	r4, [sp, #104]
 569 0074 0594     		str	r4, [sp, #20]
 570 0076 199C     		ldr	r4, [sp, #100]
 571 0078 0494     		str	r4, [sp, #16]
 572 007a 0397     		str	r7, [sp, #12]
 573 007c 9DF85C40 		ldrb	r4, [sp, #92]	@ zero_extendqisi2
 574 0080 0294     		str	r4, [sp, #8]
 575 0082 CDF804C0 		str	ip, [sp, #4]
 576 0086 08AC     		add	r4, sp, #32
 577 0088 0094     		str	r4, [sp]
 578 008a FFF7FEFF 		bl	_ntoa_format
 579              	.LVL71:
 284:lvgl\src\lv_misc/lv_printf.c **** }
 580              		.loc 1 284 0
 581 008e 10B0     		add	sp, sp, #64
 582              		.cfi_def_cfa_offset 24
 583              		@ sp needed
 584 0090 BDE8F081 		pop	{r4, r5, r6, r7, r8, pc}
 585              		.cfi_endproc
 586              	.LFE7:
 587              		.size	_ntoa_long, .-_ntoa_long
 588              		.global	__aeabi_uldivmod
 589              		.section	.text._ntoa_long_long,"ax",%progbits
 590              		.align	2
 591              		.thumb
 592              		.thumb_func
 593              		.type	_ntoa_long_long, %function
 594              	_ntoa_long_long:
 595              	.LFB8:
 285:lvgl\src\lv_misc/lv_printf.c **** 
 286:lvgl\src\lv_misc/lv_printf.c **** 
 287:lvgl\src\lv_misc/lv_printf.c **** // internal itoa for 'long long' type
 288:lvgl\src\lv_misc/lv_printf.c **** #if defined(PRINTF_SUPPORT_LONG_LONG)
 289:lvgl\src\lv_misc/lv_printf.c **** static size_t _ntoa_long_long(out_fct_type out, char * buffer, size_t idx, size_t maxlen, unsigned 
 290:lvgl\src\lv_misc/lv_printf.c ****                               bool negative, unsigned long long base, unsigned int prec, unsigned i
 291:lvgl\src\lv_misc/lv_printf.c **** {
 596              		.loc 1 291 0
 597              		.cfi_startproc
 598              		@ args = 36, pretend = 0, frame = 48
 599              		@ frame_needed = 0, uses_anonymous_args = 0
 600              	.LVL72:
 601 0000 2DE9F04F 		push	{r4, r5, r6, r7, r8, r9, r10, fp, lr}
 602              		.cfi_def_cfa_offset 36
 603              		.cfi_offset 4, -36
 604              		.cfi_offset 5, -32
 605              		.cfi_offset 6, -28
 606              		.cfi_offset 7, -24
ARM GAS  C:\Users\strap\AppData\Local\Temp\ccV4k2oP.s 			page 17


 607              		.cfi_offset 8, -20
 608              		.cfi_offset 9, -16
 609              		.cfi_offset 10, -12
 610              		.cfi_offset 11, -8
 611              		.cfi_offset 14, -4
 612 0004 95B0     		sub	sp, sp, #84
 613              		.cfi_def_cfa_offset 120
 614 0006 0990     		str	r0, [sp, #36]
 615 0008 0A91     		str	r1, [sp, #40]
 616 000a 0B92     		str	r2, [sp, #44]
 617 000c 9B46     		mov	fp, r3
 618 000e DDE91E67 		ldrd	r6, [sp, #120]
 619 0012 DDF88880 		ldr	r8, [sp, #136]
 620 0016 DDF88C90 		ldr	r9, [sp, #140]
 621 001a DDF898A0 		ldr	r10, [sp, #152]
 622              	.LVL73:
 292:lvgl\src\lv_misc/lv_printf.c ****     char buf[PRINTF_NTOA_BUFFER_SIZE];
 293:lvgl\src\lv_misc/lv_printf.c ****     size_t len = 0U;
 294:lvgl\src\lv_misc/lv_printf.c **** 
 295:lvgl\src\lv_misc/lv_printf.c ****     // no hash for 0 values
 296:lvgl\src\lv_misc/lv_printf.c ****     if(!value) {
 623              		.loc 1 296 0
 624 001e 56EA0703 		orrs	r3, r6, r7
 625              	.LVL74:
 626 0022 01D1     		bne	.L51
 297:lvgl\src\lv_misc/lv_printf.c ****         flags &= ~FLAGS_HASH;
 627              		.loc 1 297 0
 628 0024 2AF0100A 		bic	r10, r10, #16
 629              	.LVL75:
 630              	.L51:
 298:lvgl\src\lv_misc/lv_printf.c ****     }
 299:lvgl\src\lv_misc/lv_printf.c **** 
 300:lvgl\src\lv_misc/lv_printf.c ****     // write if precision != 0 and value is != 0
 301:lvgl\src\lv_misc/lv_printf.c ****     if(!(flags & FLAGS_PRECISION) || value) {
 631              		.loc 1 301 0
 632 0028 1AF4806F 		tst	r10, #1024
 633 002c 04D0     		beq	.L57
 634              		.loc 1 301 0 is_stmt 0 discriminator 1
 635 002e 56EA0703 		orrs	r3, r6, r7
 636 0032 2BD0     		beq	.L58
 637 0034 0024     		movs	r4, #0
 638 0036 00E0     		b	.L52
 639              	.L57:
 640 0038 0024     		movs	r4, #0
 641              	.LVL76:
 642              	.L52:
 643              	.LBB26:
 302:lvgl\src\lv_misc/lv_printf.c ****         do {
 303:lvgl\src\lv_misc/lv_printf.c ****             const char digit = (char)(value % base);
 644              		.loc 1 303 0 is_stmt 1
 645 003a 4246     		mov	r2, r8
 646 003c 4B46     		mov	r3, r9
 647 003e 3046     		mov	r0, r6
 648 0040 3946     		mov	r1, r7
 649 0042 FFF7FEFF 		bl	__aeabi_uldivmod
 650              	.LVL77:
 651 0046 D2B2     		uxtb	r2, r2
ARM GAS  C:\Users\strap\AppData\Local\Temp\ccV4k2oP.s 			page 18


 652              	.LVL78:
 304:lvgl\src\lv_misc/lv_printf.c ****             buf[len++] = digit < 10 ? '0' + digit : (flags & FLAGS_UPPERCASE ? 'A' : 'a') + digit -
 653              		.loc 1 304 0
 654 0048 651C     		adds	r5, r4, #1
 655              	.LVL79:
 656 004a 092A     		cmp	r2, #9
 657 004c 02D8     		bhi	.L54
 658              		.loc 1 304 0 is_stmt 0 discriminator 1
 659 004e 3032     		adds	r2, r2, #48
 660              	.LVL80:
 661 0050 D2B2     		uxtb	r2, r2
 662              	.LVL81:
 663 0052 08E0     		b	.L55
 664              	.LVL82:
 665              	.L54:
 666              		.loc 1 304 0 discriminator 2
 667 0054 1AF0200F 		tst	r10, #32
 668 0058 01D0     		beq	.L59
 669              		.loc 1 304 0
 670 005a 4123     		movs	r3, #65
 671 005c 00E0     		b	.L56
 672              	.L59:
 673 005e 6123     		movs	r3, #97
 674              	.L56:
 675              		.loc 1 304 0 discriminator 7
 676 0060 1A44     		add	r2, r2, r3
 677              	.LVL83:
 678 0062 0A3A     		subs	r2, r2, #10
 679 0064 D2B2     		uxtb	r2, r2
 680              	.L55:
 681              		.loc 1 304 0 discriminator 8
 682 0066 14AB     		add	r3, sp, #80
 683 0068 1C44     		add	r4, r4, r3
 684 006a 04F8202C 		strb	r2, [r4, #-32]
 305:lvgl\src\lv_misc/lv_printf.c ****             value /= base;
 685              		.loc 1 305 0 is_stmt 1 discriminator 8
 686 006e 4246     		mov	r2, r8
 687 0070 4B46     		mov	r3, r9
 688 0072 3046     		mov	r0, r6
 689 0074 3946     		mov	r1, r7
 690 0076 FFF7FEFF 		bl	__aeabi_uldivmod
 691              	.LVL84:
 692 007a 0646     		mov	r6, r0
 693              	.LVL85:
 694 007c 0F46     		mov	r7, r1
 695              	.LVL86:
 696              	.LBE26:
 306:lvgl\src\lv_misc/lv_printf.c ****         } while(value && (len < PRINTF_NTOA_BUFFER_SIZE));
 697              		.loc 1 306 0 discriminator 8
 698 007e 56EA0703 		orrs	r3, r6, r7
 699 0082 04D0     		beq	.L53
 700              	.LBB27:
 304:lvgl\src\lv_misc/lv_printf.c ****             buf[len++] = digit < 10 ? '0' + digit : (flags & FLAGS_UPPERCASE ? 'A' : 'a') + digit -
 701              		.loc 1 304 0 discriminator 1
 702 0084 2C46     		mov	r4, r5
 703              	.LBE27:
 704              		.loc 1 306 0 discriminator 1
ARM GAS  C:\Users\strap\AppData\Local\Temp\ccV4k2oP.s 			page 19


 705 0086 1F2D     		cmp	r5, #31
 706 0088 D7D9     		bls	.L52
 707              	.LVL87:
 708 008a 00E0     		b	.L53
 709              	.LVL88:
 710              	.L58:
 293:lvgl\src\lv_misc/lv_printf.c **** 
 711              		.loc 1 293 0
 712 008c 0025     		movs	r5, #0
 713              	.LVL89:
 714              	.L53:
 307:lvgl\src\lv_misc/lv_printf.c ****     }
 308:lvgl\src\lv_misc/lv_printf.c **** 
 309:lvgl\src\lv_misc/lv_printf.c ****     return _ntoa_format(out, buffer, idx, maxlen, buf, len, negative, (unsigned int)base, prec, wid
 715              		.loc 1 309 0
 716 008e CDF818A0 		str	r10, [sp, #24]
 717 0092 259B     		ldr	r3, [sp, #148]
 718 0094 0593     		str	r3, [sp, #20]
 719 0096 249B     		ldr	r3, [sp, #144]
 720 0098 0493     		str	r3, [sp, #16]
 721 009a CDF80C80 		str	r8, [sp, #12]
 722 009e 9DF88030 		ldrb	r3, [sp, #128]	@ zero_extendqisi2
 723 00a2 0293     		str	r3, [sp, #8]
 724 00a4 0195     		str	r5, [sp, #4]
 725 00a6 0CAB     		add	r3, sp, #48
 726 00a8 0093     		str	r3, [sp]
 727 00aa 5B46     		mov	r3, fp
 728 00ac 0B9A     		ldr	r2, [sp, #44]
 729 00ae 0A99     		ldr	r1, [sp, #40]
 730 00b0 0998     		ldr	r0, [sp, #36]
 731 00b2 FFF7FEFF 		bl	_ntoa_format
 732              	.LVL90:
 310:lvgl\src\lv_misc/lv_printf.c **** }
 733              		.loc 1 310 0
 734 00b6 15B0     		add	sp, sp, #84
 735              		.cfi_def_cfa_offset 36
 736              		@ sp needed
 737 00b8 BDE8F08F 		pop	{r4, r5, r6, r7, r8, r9, r10, fp, pc}
 738              		.cfi_endproc
 739              	.LFE8:
 740              		.size	_ntoa_long_long, .-_ntoa_long_long
 741              		.section	.text._vsnprintf,"ax",%progbits
 742              		.align	2
 743              		.thumb
 744              		.thumb_func
 745              		.type	_vsnprintf, %function
 746              	_vsnprintf:
 747              	.LFB9:
 311:lvgl\src\lv_misc/lv_printf.c **** #endif  // PRINTF_SUPPORT_LONG_LONG
 312:lvgl\src\lv_misc/lv_printf.c **** 
 313:lvgl\src\lv_misc/lv_printf.c **** 
 314:lvgl\src\lv_misc/lv_printf.c **** #if defined(PRINTF_SUPPORT_FLOAT)
 315:lvgl\src\lv_misc/lv_printf.c **** 
 316:lvgl\src\lv_misc/lv_printf.c **** #if defined(PRINTF_SUPPORT_EXPONENTIAL)
 317:lvgl\src\lv_misc/lv_printf.c **** // forward declaration so that _ftoa can switch to exp notation for values > PRINTF_MAX_FLOAT
 318:lvgl\src\lv_misc/lv_printf.c **** static size_t _etoa(out_fct_type out, char * buffer, size_t idx, size_t maxlen, double value, unsig
 319:lvgl\src\lv_misc/lv_printf.c ****                     unsigned int width, unsigned int flags);
ARM GAS  C:\Users\strap\AppData\Local\Temp\ccV4k2oP.s 			page 20


 320:lvgl\src\lv_misc/lv_printf.c **** #endif
 321:lvgl\src\lv_misc/lv_printf.c **** 
 322:lvgl\src\lv_misc/lv_printf.c **** 
 323:lvgl\src\lv_misc/lv_printf.c **** // internal ftoa for fixed decimal floating point
 324:lvgl\src\lv_misc/lv_printf.c **** static size_t _ftoa(out_fct_type out, char * buffer, size_t idx, size_t maxlen, double value, unsig
 325:lvgl\src\lv_misc/lv_printf.c ****                     unsigned int width, unsigned int flags)
 326:lvgl\src\lv_misc/lv_printf.c **** {
 327:lvgl\src\lv_misc/lv_printf.c ****     char buf[PRINTF_FTOA_BUFFER_SIZE];
 328:lvgl\src\lv_misc/lv_printf.c ****     size_t len  = 0U;
 329:lvgl\src\lv_misc/lv_printf.c ****     double diff = 0.0;
 330:lvgl\src\lv_misc/lv_printf.c **** 
 331:lvgl\src\lv_misc/lv_printf.c ****     // powers of 10
 332:lvgl\src\lv_misc/lv_printf.c ****     static const double pow10[] = { 1, 10, 100, 1000, 10000, 100000, 1000000, 10000000, 100000000, 
 333:lvgl\src\lv_misc/lv_printf.c **** 
 334:lvgl\src\lv_misc/lv_printf.c ****     // test for special values
 335:lvgl\src\lv_misc/lv_printf.c ****     if(value != value)
 336:lvgl\src\lv_misc/lv_printf.c ****         return _out_rev(out, buffer, idx, maxlen, "nan", 3, width, flags);
 337:lvgl\src\lv_misc/lv_printf.c ****     if(value < -DBL_MAX)
 338:lvgl\src\lv_misc/lv_printf.c ****         return _out_rev(out, buffer, idx, maxlen, "fni-", 4, width, flags);
 339:lvgl\src\lv_misc/lv_printf.c ****     if(value > DBL_MAX)
 340:lvgl\src\lv_misc/lv_printf.c ****         return _out_rev(out, buffer, idx, maxlen, (flags & FLAGS_PLUS) ? "fni+" : "fni", (flags & F
 341:lvgl\src\lv_misc/lv_printf.c ****                         flags);
 342:lvgl\src\lv_misc/lv_printf.c **** 
 343:lvgl\src\lv_misc/lv_printf.c ****     // test for very large values
 344:lvgl\src\lv_misc/lv_printf.c ****     // standard printf behavior is to print EVERY whole number digit -- which could be 100s of char
 345:lvgl\src\lv_misc/lv_printf.c ****     if((value > PRINTF_MAX_FLOAT) || (value < -PRINTF_MAX_FLOAT)) {
 346:lvgl\src\lv_misc/lv_printf.c **** #if defined(PRINTF_SUPPORT_EXPONENTIAL)
 347:lvgl\src\lv_misc/lv_printf.c ****         return _etoa(out, buffer, idx, maxlen, value, prec, width, flags);
 348:lvgl\src\lv_misc/lv_printf.c **** #else
 349:lvgl\src\lv_misc/lv_printf.c ****         return 0U;
 350:lvgl\src\lv_misc/lv_printf.c **** #endif
 351:lvgl\src\lv_misc/lv_printf.c ****     }
 352:lvgl\src\lv_misc/lv_printf.c **** 
 353:lvgl\src\lv_misc/lv_printf.c ****     // test for negative
 354:lvgl\src\lv_misc/lv_printf.c ****     bool negative = false;
 355:lvgl\src\lv_misc/lv_printf.c ****     if(value < 0) {
 356:lvgl\src\lv_misc/lv_printf.c ****         negative = true;
 357:lvgl\src\lv_misc/lv_printf.c ****         value = 0 - value;
 358:lvgl\src\lv_misc/lv_printf.c ****     }
 359:lvgl\src\lv_misc/lv_printf.c **** 
 360:lvgl\src\lv_misc/lv_printf.c ****     // set default precision, if not set explicitly
 361:lvgl\src\lv_misc/lv_printf.c ****     if(!(flags & FLAGS_PRECISION)) {
 362:lvgl\src\lv_misc/lv_printf.c ****         prec = PRINTF_DEFAULT_FLOAT_PRECISION;
 363:lvgl\src\lv_misc/lv_printf.c ****     }
 364:lvgl\src\lv_misc/lv_printf.c ****     // limit precision to 9, cause a prec >= 10 can lead to overflow errors
 365:lvgl\src\lv_misc/lv_printf.c ****     while((len < PRINTF_FTOA_BUFFER_SIZE) && (prec > 9U)) {
 366:lvgl\src\lv_misc/lv_printf.c ****         buf[len++] = '0';
 367:lvgl\src\lv_misc/lv_printf.c ****         prec--;
 368:lvgl\src\lv_misc/lv_printf.c ****     }
 369:lvgl\src\lv_misc/lv_printf.c **** 
 370:lvgl\src\lv_misc/lv_printf.c ****     int whole = (int)value;
 371:lvgl\src\lv_misc/lv_printf.c ****     double tmp = (value - whole) * pow10[prec];
 372:lvgl\src\lv_misc/lv_printf.c ****     unsigned long frac = (unsigned long)tmp;
 373:lvgl\src\lv_misc/lv_printf.c ****     diff = tmp - frac;
 374:lvgl\src\lv_misc/lv_printf.c **** 
 375:lvgl\src\lv_misc/lv_printf.c ****     if(diff > 0.5) {
 376:lvgl\src\lv_misc/lv_printf.c ****         ++frac;
ARM GAS  C:\Users\strap\AppData\Local\Temp\ccV4k2oP.s 			page 21


 377:lvgl\src\lv_misc/lv_printf.c ****         // handle rollover, e.g. case 0.99 with prec 1 is 1.0
 378:lvgl\src\lv_misc/lv_printf.c ****         if(frac >= pow10[prec]) {
 379:lvgl\src\lv_misc/lv_printf.c ****             frac = 0;
 380:lvgl\src\lv_misc/lv_printf.c ****             ++whole;
 381:lvgl\src\lv_misc/lv_printf.c ****         }
 382:lvgl\src\lv_misc/lv_printf.c ****     }
 383:lvgl\src\lv_misc/lv_printf.c ****     else if(diff < 0.5) {
 384:lvgl\src\lv_misc/lv_printf.c ****     }
 385:lvgl\src\lv_misc/lv_printf.c ****     else if((frac == 0U) || (frac & 1U)) {
 386:lvgl\src\lv_misc/lv_printf.c ****         // if halfway, round up if odd OR if last digit is 0
 387:lvgl\src\lv_misc/lv_printf.c ****         ++frac;
 388:lvgl\src\lv_misc/lv_printf.c ****     }
 389:lvgl\src\lv_misc/lv_printf.c **** 
 390:lvgl\src\lv_misc/lv_printf.c ****     if(prec == 0U) {
 391:lvgl\src\lv_misc/lv_printf.c ****         diff = value - (double)whole;
 392:lvgl\src\lv_misc/lv_printf.c ****         if((!(diff < 0.5) || (diff > 0.5)) && (whole & 1)) {
 393:lvgl\src\lv_misc/lv_printf.c ****             // exactly 0.5 and ODD, then round up
 394:lvgl\src\lv_misc/lv_printf.c ****             // 1.5 -> 2, but 2.5 -> 2
 395:lvgl\src\lv_misc/lv_printf.c ****             ++whole;
 396:lvgl\src\lv_misc/lv_printf.c ****         }
 397:lvgl\src\lv_misc/lv_printf.c ****     }
 398:lvgl\src\lv_misc/lv_printf.c ****     else {
 399:lvgl\src\lv_misc/lv_printf.c ****         unsigned int count = prec;
 400:lvgl\src\lv_misc/lv_printf.c ****         // now do fractional part, as an unsigned number
 401:lvgl\src\lv_misc/lv_printf.c ****         while(len < PRINTF_FTOA_BUFFER_SIZE) {
 402:lvgl\src\lv_misc/lv_printf.c ****             --count;
 403:lvgl\src\lv_misc/lv_printf.c ****             buf[len++] = (char)(48U + (frac % 10U));
 404:lvgl\src\lv_misc/lv_printf.c ****             if(!(frac /= 10U)) {
 405:lvgl\src\lv_misc/lv_printf.c ****                 break;
 406:lvgl\src\lv_misc/lv_printf.c ****             }
 407:lvgl\src\lv_misc/lv_printf.c ****         }
 408:lvgl\src\lv_misc/lv_printf.c ****         // add extra 0s
 409:lvgl\src\lv_misc/lv_printf.c ****         while((len < PRINTF_FTOA_BUFFER_SIZE) && (count-- > 0U)) {
 410:lvgl\src\lv_misc/lv_printf.c ****             buf[len++] = '0';
 411:lvgl\src\lv_misc/lv_printf.c ****         }
 412:lvgl\src\lv_misc/lv_printf.c ****         if(len < PRINTF_FTOA_BUFFER_SIZE) {
 413:lvgl\src\lv_misc/lv_printf.c ****             // add decimal
 414:lvgl\src\lv_misc/lv_printf.c ****             buf[len++] = '.';
 415:lvgl\src\lv_misc/lv_printf.c ****         }
 416:lvgl\src\lv_misc/lv_printf.c ****     }
 417:lvgl\src\lv_misc/lv_printf.c **** 
 418:lvgl\src\lv_misc/lv_printf.c ****     // do whole part, number is reversed
 419:lvgl\src\lv_misc/lv_printf.c ****     while(len < PRINTF_FTOA_BUFFER_SIZE) {
 420:lvgl\src\lv_misc/lv_printf.c ****         buf[len++] = (char)(48 + (whole % 10));
 421:lvgl\src\lv_misc/lv_printf.c ****         if(!(whole /= 10)) {
 422:lvgl\src\lv_misc/lv_printf.c ****             break;
 423:lvgl\src\lv_misc/lv_printf.c ****         }
 424:lvgl\src\lv_misc/lv_printf.c ****     }
 425:lvgl\src\lv_misc/lv_printf.c **** 
 426:lvgl\src\lv_misc/lv_printf.c ****     // pad leading zeros
 427:lvgl\src\lv_misc/lv_printf.c ****     if(!(flags & FLAGS_LEFT) && (flags & FLAGS_ZEROPAD)) {
 428:lvgl\src\lv_misc/lv_printf.c ****         if(width && (negative || (flags & (FLAGS_PLUS | FLAGS_SPACE)))) {
 429:lvgl\src\lv_misc/lv_printf.c ****             width--;
 430:lvgl\src\lv_misc/lv_printf.c ****         }
 431:lvgl\src\lv_misc/lv_printf.c ****         while((len < width) && (len < PRINTF_FTOA_BUFFER_SIZE)) {
 432:lvgl\src\lv_misc/lv_printf.c ****             buf[len++] = '0';
 433:lvgl\src\lv_misc/lv_printf.c ****         }
ARM GAS  C:\Users\strap\AppData\Local\Temp\ccV4k2oP.s 			page 22


 434:lvgl\src\lv_misc/lv_printf.c ****     }
 435:lvgl\src\lv_misc/lv_printf.c **** 
 436:lvgl\src\lv_misc/lv_printf.c ****     if(len < PRINTF_FTOA_BUFFER_SIZE) {
 437:lvgl\src\lv_misc/lv_printf.c ****         if(negative) {
 438:lvgl\src\lv_misc/lv_printf.c ****             buf[len++] = '-';
 439:lvgl\src\lv_misc/lv_printf.c ****         }
 440:lvgl\src\lv_misc/lv_printf.c ****         else if(flags & FLAGS_PLUS) {
 441:lvgl\src\lv_misc/lv_printf.c ****             buf[len++] = '+';  // ignore the space if the '+' exists
 442:lvgl\src\lv_misc/lv_printf.c ****         }
 443:lvgl\src\lv_misc/lv_printf.c ****         else if(flags & FLAGS_SPACE) {
 444:lvgl\src\lv_misc/lv_printf.c ****             buf[len++] = ' ';
 445:lvgl\src\lv_misc/lv_printf.c ****         }
 446:lvgl\src\lv_misc/lv_printf.c ****     }
 447:lvgl\src\lv_misc/lv_printf.c **** 
 448:lvgl\src\lv_misc/lv_printf.c ****     return _out_rev(out, buffer, idx, maxlen, buf, len, width, flags);
 449:lvgl\src\lv_misc/lv_printf.c **** }
 450:lvgl\src\lv_misc/lv_printf.c **** 
 451:lvgl\src\lv_misc/lv_printf.c **** 
 452:lvgl\src\lv_misc/lv_printf.c **** #if defined(PRINTF_SUPPORT_EXPONENTIAL)
 453:lvgl\src\lv_misc/lv_printf.c **** // internal ftoa variant for exponential floating-point type, contributed by Martijn Jasperse <m.ja
 454:lvgl\src\lv_misc/lv_printf.c **** static size_t _etoa(out_fct_type out, char * buffer, size_t idx, size_t maxlen, double value, unsig
 455:lvgl\src\lv_misc/lv_printf.c ****                     unsigned int width, unsigned int flags)
 456:lvgl\src\lv_misc/lv_printf.c **** {
 457:lvgl\src\lv_misc/lv_printf.c ****     // check for NaN and special values
 458:lvgl\src\lv_misc/lv_printf.c ****     if((value != value) || (value > DBL_MAX) || (value < -DBL_MAX)) {
 459:lvgl\src\lv_misc/lv_printf.c ****         return _ftoa(out, buffer, idx, maxlen, value, prec, width, flags);
 460:lvgl\src\lv_misc/lv_printf.c ****     }
 461:lvgl\src\lv_misc/lv_printf.c **** 
 462:lvgl\src\lv_misc/lv_printf.c ****     // determine the sign
 463:lvgl\src\lv_misc/lv_printf.c ****     const bool negative = value < 0;
 464:lvgl\src\lv_misc/lv_printf.c ****     if(negative) {
 465:lvgl\src\lv_misc/lv_printf.c ****         value = -value;
 466:lvgl\src\lv_misc/lv_printf.c ****     }
 467:lvgl\src\lv_misc/lv_printf.c **** 
 468:lvgl\src\lv_misc/lv_printf.c ****     // default precision
 469:lvgl\src\lv_misc/lv_printf.c ****     if(!(flags & FLAGS_PRECISION)) {
 470:lvgl\src\lv_misc/lv_printf.c ****         prec = PRINTF_DEFAULT_FLOAT_PRECISION;
 471:lvgl\src\lv_misc/lv_printf.c ****     }
 472:lvgl\src\lv_misc/lv_printf.c **** 
 473:lvgl\src\lv_misc/lv_printf.c ****     // determine the decimal exponent
 474:lvgl\src\lv_misc/lv_printf.c ****     // based on the algorithm by David Gay (https://www.ampl.com/netlib/fp/dtoa.c)
 475:lvgl\src\lv_misc/lv_printf.c ****     union {
 476:lvgl\src\lv_misc/lv_printf.c ****         uint64_t U;
 477:lvgl\src\lv_misc/lv_printf.c ****         double   F;
 478:lvgl\src\lv_misc/lv_printf.c ****     } conv;
 479:lvgl\src\lv_misc/lv_printf.c **** 
 480:lvgl\src\lv_misc/lv_printf.c ****     conv.F = value;
 481:lvgl\src\lv_misc/lv_printf.c ****     int exp2 = (int)((conv.U >> 52U) & 0x07FFU) - 1023;           // effectively log2
 482:lvgl\src\lv_misc/lv_printf.c ****     conv.U = (conv.U & ((1ULL << 52U) - 1U)) | (1023ULL << 52U);  // drop the exponent so conv.F is
 483:lvgl\src\lv_misc/lv_printf.c ****     // now approximate log10 from the log2 integer part and an expansion of ln around 1.5
 484:lvgl\src\lv_misc/lv_printf.c ****     int expval = (int)(0.1760912590558 + exp2 * 0.301029995663981 + (conv.F - 1.5) * 0.289529654602
 485:lvgl\src\lv_misc/lv_printf.c ****     // now we want to compute 10^expval but we want to be sure it won't overflow
 486:lvgl\src\lv_misc/lv_printf.c ****     exp2 = (int)(expval * 3.321928094887362 + 0.5);
 487:lvgl\src\lv_misc/lv_printf.c ****     const double z  = expval * 2.302585092994046 - exp2 * 0.6931471805599453;
 488:lvgl\src\lv_misc/lv_printf.c ****     const double z2 = z * z;
 489:lvgl\src\lv_misc/lv_printf.c ****     conv.U = (uint64_t)(exp2 + 1023) << 52U;
 490:lvgl\src\lv_misc/lv_printf.c ****     // compute exp(z) using continued fractions, see https://en.wikipedia.org/wiki/Exponential_func
ARM GAS  C:\Users\strap\AppData\Local\Temp\ccV4k2oP.s 			page 23


 491:lvgl\src\lv_misc/lv_printf.c ****     conv.F *= 1 + 2 * z / (2 - z + (z2 / (6 + (z2 / (10 + z2 / 14)))));
 492:lvgl\src\lv_misc/lv_printf.c ****     // correct for rounding errors
 493:lvgl\src\lv_misc/lv_printf.c ****     if(value < conv.F) {
 494:lvgl\src\lv_misc/lv_printf.c ****         expval--;
 495:lvgl\src\lv_misc/lv_printf.c ****         conv.F /= 10;
 496:lvgl\src\lv_misc/lv_printf.c ****     }
 497:lvgl\src\lv_misc/lv_printf.c **** 
 498:lvgl\src\lv_misc/lv_printf.c ****     // the exponent format is "%+03d" and largest value is "307", so set aside 4-5 characters
 499:lvgl\src\lv_misc/lv_printf.c ****     unsigned int minwidth = ((expval < 100) && (expval > -100)) ? 4U : 5U;
 500:lvgl\src\lv_misc/lv_printf.c **** 
 501:lvgl\src\lv_misc/lv_printf.c ****     // in "%g" mode, "prec" is the number of *significant figures* not decimals
 502:lvgl\src\lv_misc/lv_printf.c ****     if(flags & FLAGS_ADAPT_EXP) {
 503:lvgl\src\lv_misc/lv_printf.c ****         // do we want to fall-back to "%f" mode?
 504:lvgl\src\lv_misc/lv_printf.c ****         if((value >= 1e-4) && (value < 1e6)) {
 505:lvgl\src\lv_misc/lv_printf.c ****             if((int)prec > expval) {
 506:lvgl\src\lv_misc/lv_printf.c ****                 prec = (unsigned)((int)prec - expval - 1);
 507:lvgl\src\lv_misc/lv_printf.c ****             }
 508:lvgl\src\lv_misc/lv_printf.c ****             else {
 509:lvgl\src\lv_misc/lv_printf.c ****                 prec = 0;
 510:lvgl\src\lv_misc/lv_printf.c ****             }
 511:lvgl\src\lv_misc/lv_printf.c ****             flags |= FLAGS_PRECISION;   // make sure _ftoa respects precision
 512:lvgl\src\lv_misc/lv_printf.c ****             // no characters in exponent
 513:lvgl\src\lv_misc/lv_printf.c ****             minwidth = 0U;
 514:lvgl\src\lv_misc/lv_printf.c ****             expval   = 0;
 515:lvgl\src\lv_misc/lv_printf.c ****         }
 516:lvgl\src\lv_misc/lv_printf.c ****         else {
 517:lvgl\src\lv_misc/lv_printf.c ****             // we use one sigfig for the whole part
 518:lvgl\src\lv_misc/lv_printf.c ****             if((prec > 0) && (flags & FLAGS_PRECISION)) {
 519:lvgl\src\lv_misc/lv_printf.c ****                 --prec;
 520:lvgl\src\lv_misc/lv_printf.c ****             }
 521:lvgl\src\lv_misc/lv_printf.c ****         }
 522:lvgl\src\lv_misc/lv_printf.c ****     }
 523:lvgl\src\lv_misc/lv_printf.c **** 
 524:lvgl\src\lv_misc/lv_printf.c ****     // will everything fit?
 525:lvgl\src\lv_misc/lv_printf.c ****     unsigned int fwidth = width;
 526:lvgl\src\lv_misc/lv_printf.c ****     if(width > minwidth) {
 527:lvgl\src\lv_misc/lv_printf.c ****         // we didn't fall-back so subtract the characters required for the exponent
 528:lvgl\src\lv_misc/lv_printf.c ****         fwidth -= minwidth;
 529:lvgl\src\lv_misc/lv_printf.c ****     }
 530:lvgl\src\lv_misc/lv_printf.c ****     else {
 531:lvgl\src\lv_misc/lv_printf.c ****         // not enough characters, so go back to default sizing
 532:lvgl\src\lv_misc/lv_printf.c ****         fwidth = 0U;
 533:lvgl\src\lv_misc/lv_printf.c ****     }
 534:lvgl\src\lv_misc/lv_printf.c ****     if((flags & FLAGS_LEFT) && minwidth) {
 535:lvgl\src\lv_misc/lv_printf.c ****         // if we're padding on the right, DON'T pad the floating part
 536:lvgl\src\lv_misc/lv_printf.c ****         fwidth = 0U;
 537:lvgl\src\lv_misc/lv_printf.c ****     }
 538:lvgl\src\lv_misc/lv_printf.c **** 
 539:lvgl\src\lv_misc/lv_printf.c ****     // rescale the float value
 540:lvgl\src\lv_misc/lv_printf.c ****     if(expval) {
 541:lvgl\src\lv_misc/lv_printf.c ****         value /= conv.F;
 542:lvgl\src\lv_misc/lv_printf.c ****     }
 543:lvgl\src\lv_misc/lv_printf.c **** 
 544:lvgl\src\lv_misc/lv_printf.c ****     // output the floating part
 545:lvgl\src\lv_misc/lv_printf.c ****     const size_t start_idx = idx;
 546:lvgl\src\lv_misc/lv_printf.c ****     idx = _ftoa(out, buffer, idx, maxlen, negative ? -value : value, prec, fwidth, flags & ~FLAGS_A
 547:lvgl\src\lv_misc/lv_printf.c **** 
ARM GAS  C:\Users\strap\AppData\Local\Temp\ccV4k2oP.s 			page 24


 548:lvgl\src\lv_misc/lv_printf.c ****     // output the exponent part
 549:lvgl\src\lv_misc/lv_printf.c ****     if(minwidth) {
 550:lvgl\src\lv_misc/lv_printf.c ****         // output the exponential symbol
 551:lvgl\src\lv_misc/lv_printf.c ****         out((flags & FLAGS_UPPERCASE) ? 'E' : 'e', buffer, idx++, maxlen);
 552:lvgl\src\lv_misc/lv_printf.c ****         // output the exponent value
 553:lvgl\src\lv_misc/lv_printf.c ****         idx = _ntoa_long(out, buffer, idx, maxlen, (expval < 0) ? -expval : expval, expval < 0, 10,
 554:lvgl\src\lv_misc/lv_printf.c ****                          FLAGS_ZEROPAD | FLAGS_PLUS);
 555:lvgl\src\lv_misc/lv_printf.c ****         // might need to right-pad spaces
 556:lvgl\src\lv_misc/lv_printf.c ****         if(flags & FLAGS_LEFT) {
 557:lvgl\src\lv_misc/lv_printf.c ****             while(idx - start_idx < width) out(' ', buffer, idx++, maxlen);
 558:lvgl\src\lv_misc/lv_printf.c ****         }
 559:lvgl\src\lv_misc/lv_printf.c ****     }
 560:lvgl\src\lv_misc/lv_printf.c ****     return idx;
 561:lvgl\src\lv_misc/lv_printf.c **** }
 562:lvgl\src\lv_misc/lv_printf.c **** #endif  // PRINTF_SUPPORT_EXPONENTIAL
 563:lvgl\src\lv_misc/lv_printf.c **** #endif  // PRINTF_SUPPORT_FLOAT
 564:lvgl\src\lv_misc/lv_printf.c **** 
 565:lvgl\src\lv_misc/lv_printf.c **** 
 566:lvgl\src\lv_misc/lv_printf.c **** // internal vsnprintf
 567:lvgl\src\lv_misc/lv_printf.c **** static int _vsnprintf(out_fct_type out, char * buffer, const size_t maxlen, const char * format, va
 568:lvgl\src\lv_misc/lv_printf.c **** {
 748              		.loc 1 568 0
 749              		.cfi_startproc
 750              		@ args = 4, pretend = 0, frame = 16
 751              		@ frame_needed = 0, uses_anonymous_args = 0
 752              	.LVL91:
 753 0000 2DE9F04F 		push	{r4, r5, r6, r7, r8, r9, r10, fp, lr}
 754              		.cfi_def_cfa_offset 36
 755              		.cfi_offset 4, -36
 756              		.cfi_offset 5, -32
 757              		.cfi_offset 6, -28
 758              		.cfi_offset 7, -24
 759              		.cfi_offset 8, -20
 760              		.cfi_offset 9, -16
 761              		.cfi_offset 10, -12
 762              		.cfi_offset 11, -8
 763              		.cfi_offset 14, -4
 764 0004 8FB0     		sub	sp, sp, #60
 765              		.cfi_def_cfa_offset 96
 766 0006 0646     		mov	r6, r0
 767 0008 0A92     		str	r2, [sp, #40]
 768 000a 0D93     		str	r3, [sp, #52]
 769              	.LVL92:
 569:lvgl\src\lv_misc/lv_printf.c ****     unsigned int flags, width, precision, n;
 570:lvgl\src\lv_misc/lv_printf.c ****     size_t idx = 0U;
 571:lvgl\src\lv_misc/lv_printf.c **** 
 572:lvgl\src\lv_misc/lv_printf.c ****     if(!buffer) {
 770              		.loc 1 572 0
 771 000c 0B91     		str	r1, [sp, #44]
 772 000e 01B9     		cbnz	r1, .L63
 573:lvgl\src\lv_misc/lv_printf.c ****         // use null output function
 574:lvgl\src\lv_misc/lv_printf.c ****         out = _out_null;
 773              		.loc 1 574 0
 774 0010 604E     		ldr	r6, .L154
 775              	.L63:
 575:lvgl\src\lv_misc/lv_printf.c ****     }
 576:lvgl\src\lv_misc/lv_printf.c **** 
ARM GAS  C:\Users\strap\AppData\Local\Temp\ccV4k2oP.s 			page 25


 577:lvgl\src\lv_misc/lv_printf.c ****     while(*format) {
 578:lvgl\src\lv_misc/lv_printf.c ****         // format specifier?  %[flags][width][.precision][length]
 579:lvgl\src\lv_misc/lv_printf.c ****         if(*format != '%') {
 580:lvgl\src\lv_misc/lv_printf.c ****             // no
 581:lvgl\src\lv_misc/lv_printf.c ****             out(*format, buffer, idx++, maxlen);
 582:lvgl\src\lv_misc/lv_printf.c ****             format++;
 583:lvgl\src\lv_misc/lv_printf.c ****             continue;
 584:lvgl\src\lv_misc/lv_printf.c ****         }
 585:lvgl\src\lv_misc/lv_printf.c ****         else {
 586:lvgl\src\lv_misc/lv_printf.c ****             // yes, evaluate it
 587:lvgl\src\lv_misc/lv_printf.c ****             format++;
 588:lvgl\src\lv_misc/lv_printf.c ****         }
 589:lvgl\src\lv_misc/lv_printf.c **** 
 590:lvgl\src\lv_misc/lv_printf.c ****         // evaluate flags
 591:lvgl\src\lv_misc/lv_printf.c ****         flags = 0U;
 592:lvgl\src\lv_misc/lv_printf.c ****         do {
 593:lvgl\src\lv_misc/lv_printf.c ****             switch(*format) {
 594:lvgl\src\lv_misc/lv_printf.c ****                 case '0':
 595:lvgl\src\lv_misc/lv_printf.c ****                     flags |= FLAGS_ZEROPAD;
 596:lvgl\src\lv_misc/lv_printf.c ****                     format++;
 597:lvgl\src\lv_misc/lv_printf.c ****                     n = 1U;
 598:lvgl\src\lv_misc/lv_printf.c ****                     break;
 599:lvgl\src\lv_misc/lv_printf.c ****                 case '-':
 600:lvgl\src\lv_misc/lv_printf.c ****                     flags |= FLAGS_LEFT;
 601:lvgl\src\lv_misc/lv_printf.c ****                     format++;
 602:lvgl\src\lv_misc/lv_printf.c ****                     n = 1U;
 603:lvgl\src\lv_misc/lv_printf.c ****                     break;
 604:lvgl\src\lv_misc/lv_printf.c ****                 case '+':
 605:lvgl\src\lv_misc/lv_printf.c ****                     flags |= FLAGS_PLUS;
 606:lvgl\src\lv_misc/lv_printf.c ****                     format++;
 607:lvgl\src\lv_misc/lv_printf.c ****                     n = 1U;
 608:lvgl\src\lv_misc/lv_printf.c ****                     break;
 609:lvgl\src\lv_misc/lv_printf.c ****                 case ' ':
 610:lvgl\src\lv_misc/lv_printf.c ****                     flags |= FLAGS_SPACE;
 611:lvgl\src\lv_misc/lv_printf.c ****                     format++;
 612:lvgl\src\lv_misc/lv_printf.c ****                     n = 1U;
 613:lvgl\src\lv_misc/lv_printf.c ****                     break;
 614:lvgl\src\lv_misc/lv_printf.c ****                 case '#':
 615:lvgl\src\lv_misc/lv_printf.c ****                     flags |= FLAGS_HASH;
 616:lvgl\src\lv_misc/lv_printf.c ****                     format++;
 617:lvgl\src\lv_misc/lv_printf.c ****                     n = 1U;
 618:lvgl\src\lv_misc/lv_printf.c ****                     break;
 619:lvgl\src\lv_misc/lv_printf.c ****                 default :
 620:lvgl\src\lv_misc/lv_printf.c ****                     n = 0U;
 621:lvgl\src\lv_misc/lv_printf.c ****                     break;
 622:lvgl\src\lv_misc/lv_printf.c ****             }
 623:lvgl\src\lv_misc/lv_printf.c ****         } while(n);
 624:lvgl\src\lv_misc/lv_printf.c **** 
 625:lvgl\src\lv_misc/lv_printf.c ****         // evaluate width field
 626:lvgl\src\lv_misc/lv_printf.c ****         width = 0U;
 627:lvgl\src\lv_misc/lv_printf.c ****         if(_is_digit(*format)) {
 628:lvgl\src\lv_misc/lv_printf.c ****             width = _atoi(&format);
 629:lvgl\src\lv_misc/lv_printf.c ****         }
 630:lvgl\src\lv_misc/lv_printf.c ****         else if(*format == '*') {
 631:lvgl\src\lv_misc/lv_printf.c ****             const int w = va_arg(va, int);
 632:lvgl\src\lv_misc/lv_printf.c ****             if(w < 0) {
 633:lvgl\src\lv_misc/lv_printf.c ****                 flags |= FLAGS_LEFT;    // reverse padding
ARM GAS  C:\Users\strap\AppData\Local\Temp\ccV4k2oP.s 			page 26


 634:lvgl\src\lv_misc/lv_printf.c ****                 width = (unsigned int) - w;
 635:lvgl\src\lv_misc/lv_printf.c ****             }
 636:lvgl\src\lv_misc/lv_printf.c ****             else {
 637:lvgl\src\lv_misc/lv_printf.c ****                 width = (unsigned int)w;
 638:lvgl\src\lv_misc/lv_printf.c ****             }
 639:lvgl\src\lv_misc/lv_printf.c ****             format++;
 640:lvgl\src\lv_misc/lv_printf.c ****         }
 641:lvgl\src\lv_misc/lv_printf.c **** 
 642:lvgl\src\lv_misc/lv_printf.c ****         // evaluate precision field
 643:lvgl\src\lv_misc/lv_printf.c ****         precision = 0U;
 644:lvgl\src\lv_misc/lv_printf.c ****         if(*format == '.') {
 645:lvgl\src\lv_misc/lv_printf.c ****             flags |= FLAGS_PRECISION;
 646:lvgl\src\lv_misc/lv_printf.c ****             format++;
 647:lvgl\src\lv_misc/lv_printf.c ****             if(_is_digit(*format)) {
 648:lvgl\src\lv_misc/lv_printf.c ****                 precision = _atoi(&format);
 649:lvgl\src\lv_misc/lv_printf.c ****             }
 650:lvgl\src\lv_misc/lv_printf.c ****             else if(*format == '*') {
 651:lvgl\src\lv_misc/lv_printf.c ****                 const int prec = (int)va_arg(va, int);
 652:lvgl\src\lv_misc/lv_printf.c ****                 precision = prec > 0 ? (unsigned int)prec : 0U;
 653:lvgl\src\lv_misc/lv_printf.c ****                 format++;
 654:lvgl\src\lv_misc/lv_printf.c ****             }
 655:lvgl\src\lv_misc/lv_printf.c ****         }
 656:lvgl\src\lv_misc/lv_printf.c **** 
 657:lvgl\src\lv_misc/lv_printf.c ****         // evaluate length field
 658:lvgl\src\lv_misc/lv_printf.c ****         switch(*format) {
 659:lvgl\src\lv_misc/lv_printf.c ****             case 'l' :
 660:lvgl\src\lv_misc/lv_printf.c ****                 flags |= FLAGS_LONG;
 661:lvgl\src\lv_misc/lv_printf.c ****                 format++;
 662:lvgl\src\lv_misc/lv_printf.c ****                 if(*format == 'l') {
 663:lvgl\src\lv_misc/lv_printf.c ****                     flags |= FLAGS_LONG_LONG;
 664:lvgl\src\lv_misc/lv_printf.c ****                     format++;
 665:lvgl\src\lv_misc/lv_printf.c ****                 }
 666:lvgl\src\lv_misc/lv_printf.c ****                 break;
 667:lvgl\src\lv_misc/lv_printf.c ****             case 'h' :
 668:lvgl\src\lv_misc/lv_printf.c ****                 flags |= FLAGS_SHORT;
 669:lvgl\src\lv_misc/lv_printf.c ****                 format++;
 670:lvgl\src\lv_misc/lv_printf.c ****                 if(*format == 'h') {
 671:lvgl\src\lv_misc/lv_printf.c ****                     flags |= FLAGS_CHAR;
 672:lvgl\src\lv_misc/lv_printf.c ****                     format++;
 673:lvgl\src\lv_misc/lv_printf.c ****                 }
 674:lvgl\src\lv_misc/lv_printf.c ****                 break;
 675:lvgl\src\lv_misc/lv_printf.c **** #if defined(PRINTF_SUPPORT_PTRDIFF_T)
 676:lvgl\src\lv_misc/lv_printf.c ****             case 't' :
 677:lvgl\src\lv_misc/lv_printf.c ****                 flags |= (sizeof(ptrdiff_t) == sizeof(long) ? FLAGS_LONG : FLAGS_LONG_LONG);
 678:lvgl\src\lv_misc/lv_printf.c ****                 format++;
 679:lvgl\src\lv_misc/lv_printf.c ****                 break;
 680:lvgl\src\lv_misc/lv_printf.c **** #endif
 681:lvgl\src\lv_misc/lv_printf.c ****             case 'j' :
 682:lvgl\src\lv_misc/lv_printf.c ****                 flags |= (sizeof(intmax_t) == sizeof(long) ? FLAGS_LONG : FLAGS_LONG_LONG);
 683:lvgl\src\lv_misc/lv_printf.c ****                 format++;
 684:lvgl\src\lv_misc/lv_printf.c ****                 break;
 685:lvgl\src\lv_misc/lv_printf.c ****             case 'z' :
 686:lvgl\src\lv_misc/lv_printf.c ****                 flags |= (sizeof(size_t) == sizeof(long) ? FLAGS_LONG : FLAGS_LONG_LONG);
 687:lvgl\src\lv_misc/lv_printf.c ****                 format++;
 688:lvgl\src\lv_misc/lv_printf.c ****                 break;
 689:lvgl\src\lv_misc/lv_printf.c ****             default :
 690:lvgl\src\lv_misc/lv_printf.c ****                 break;
ARM GAS  C:\Users\strap\AppData\Local\Temp\ccV4k2oP.s 			page 27


 691:lvgl\src\lv_misc/lv_printf.c ****         }
 692:lvgl\src\lv_misc/lv_printf.c **** 
 693:lvgl\src\lv_misc/lv_printf.c ****         // evaluate specifier
 694:lvgl\src\lv_misc/lv_printf.c ****         switch(*format) {
 695:lvgl\src\lv_misc/lv_printf.c ****             case 'd' :
 696:lvgl\src\lv_misc/lv_printf.c ****             case 'i' :
 697:lvgl\src\lv_misc/lv_printf.c ****             case 'u' :
 698:lvgl\src\lv_misc/lv_printf.c ****             case 'x' :
 699:lvgl\src\lv_misc/lv_printf.c ****             case 'X' :
 700:lvgl\src\lv_misc/lv_printf.c ****             case 'o' :
 701:lvgl\src\lv_misc/lv_printf.c ****             case 'b' : {
 702:lvgl\src\lv_misc/lv_printf.c ****                     // set the base
 703:lvgl\src\lv_misc/lv_printf.c ****                     unsigned int base;
 704:lvgl\src\lv_misc/lv_printf.c ****                     if(*format == 'x' || *format == 'X') {
 705:lvgl\src\lv_misc/lv_printf.c ****                         base = 16U;
 706:lvgl\src\lv_misc/lv_printf.c ****                     }
 707:lvgl\src\lv_misc/lv_printf.c ****                     else if(*format == 'o') {
 708:lvgl\src\lv_misc/lv_printf.c ****                         base =  8U;
 709:lvgl\src\lv_misc/lv_printf.c ****                     }
 710:lvgl\src\lv_misc/lv_printf.c ****                     else if(*format == 'b') {
 711:lvgl\src\lv_misc/lv_printf.c ****                         base =  2U;
 712:lvgl\src\lv_misc/lv_printf.c ****                     }
 713:lvgl\src\lv_misc/lv_printf.c ****                     else {
 714:lvgl\src\lv_misc/lv_printf.c ****                         base = 10U;
 715:lvgl\src\lv_misc/lv_printf.c ****                         flags &= ~FLAGS_HASH;   // no hash for dec format
 716:lvgl\src\lv_misc/lv_printf.c ****                     }
 717:lvgl\src\lv_misc/lv_printf.c ****                     // uppercase
 718:lvgl\src\lv_misc/lv_printf.c ****                     if(*format == 'X') {
 719:lvgl\src\lv_misc/lv_printf.c ****                         flags |= FLAGS_UPPERCASE;
 720:lvgl\src\lv_misc/lv_printf.c ****                     }
 721:lvgl\src\lv_misc/lv_printf.c **** 
 722:lvgl\src\lv_misc/lv_printf.c ****                     // no plus or space flag for u, x, X, o, b
 723:lvgl\src\lv_misc/lv_printf.c ****                     if((*format != 'i') && (*format != 'd')) {
 724:lvgl\src\lv_misc/lv_printf.c ****                         flags &= ~(FLAGS_PLUS | FLAGS_SPACE);
 725:lvgl\src\lv_misc/lv_printf.c ****                     }
 726:lvgl\src\lv_misc/lv_printf.c **** 
 727:lvgl\src\lv_misc/lv_printf.c ****                     // ignore '0' flag when precision is given
 728:lvgl\src\lv_misc/lv_printf.c ****                     if(flags & FLAGS_PRECISION) {
 729:lvgl\src\lv_misc/lv_printf.c ****                         flags &= ~FLAGS_ZEROPAD;
 730:lvgl\src\lv_misc/lv_printf.c ****                     }
 731:lvgl\src\lv_misc/lv_printf.c **** 
 732:lvgl\src\lv_misc/lv_printf.c ****                     // convert the integer
 733:lvgl\src\lv_misc/lv_printf.c ****                     if((*format == 'i') || (*format == 'd')) {
 734:lvgl\src\lv_misc/lv_printf.c ****                         // signed
 735:lvgl\src\lv_misc/lv_printf.c ****                         if(flags & FLAGS_LONG_LONG) {
 736:lvgl\src\lv_misc/lv_printf.c **** #if defined(PRINTF_SUPPORT_LONG_LONG)
 737:lvgl\src\lv_misc/lv_printf.c ****                             const long long value = va_arg(va, long long);
 738:lvgl\src\lv_misc/lv_printf.c ****                             idx = _ntoa_long_long(out, buffer, idx, maxlen, (unsigned long long)(va
 739:lvgl\src\lv_misc/lv_printf.c ****                                                   precision, width, flags);
 740:lvgl\src\lv_misc/lv_printf.c **** #endif
 741:lvgl\src\lv_misc/lv_printf.c ****                         }
 742:lvgl\src\lv_misc/lv_printf.c ****                         else if(flags & FLAGS_LONG) {
 743:lvgl\src\lv_misc/lv_printf.c ****                             const long value = va_arg(va, long);
 744:lvgl\src\lv_misc/lv_printf.c ****                             idx = _ntoa_long(out, buffer, idx, maxlen, (unsigned long)(value > 0 ? 
 745:lvgl\src\lv_misc/lv_printf.c ****                                              width, flags);
 746:lvgl\src\lv_misc/lv_printf.c ****                         }
 747:lvgl\src\lv_misc/lv_printf.c ****                         else {
ARM GAS  C:\Users\strap\AppData\Local\Temp\ccV4k2oP.s 			page 28


 748:lvgl\src\lv_misc/lv_printf.c ****                             const int value = (flags & FLAGS_CHAR) ? (char)va_arg(va, int) : (flags
 749:lvgl\src\lv_misc/lv_printf.c ****                                                                                                    
 750:lvgl\src\lv_misc/lv_printf.c ****                             idx = _ntoa_long(out, buffer, idx, maxlen, (unsigned int)(value > 0 ? v
 751:lvgl\src\lv_misc/lv_printf.c ****                                              width, flags);
 752:lvgl\src\lv_misc/lv_printf.c ****                         }
 753:lvgl\src\lv_misc/lv_printf.c ****                     }
 754:lvgl\src\lv_misc/lv_printf.c ****                     else {
 755:lvgl\src\lv_misc/lv_printf.c ****                         // unsigned
 756:lvgl\src\lv_misc/lv_printf.c ****                         if(flags & FLAGS_LONG_LONG) {
 757:lvgl\src\lv_misc/lv_printf.c **** #if defined(PRINTF_SUPPORT_LONG_LONG)
 758:lvgl\src\lv_misc/lv_printf.c ****                             idx = _ntoa_long_long(out, buffer, idx, maxlen, va_arg(va, unsigned lon
 759:lvgl\src\lv_misc/lv_printf.c **** #endif
 760:lvgl\src\lv_misc/lv_printf.c ****                         }
 761:lvgl\src\lv_misc/lv_printf.c ****                         else if(flags & FLAGS_LONG) {
 762:lvgl\src\lv_misc/lv_printf.c ****                             idx = _ntoa_long(out, buffer, idx, maxlen, va_arg(va, unsigned long), f
 763:lvgl\src\lv_misc/lv_printf.c ****                         }
 764:lvgl\src\lv_misc/lv_printf.c ****                         else {
 765:lvgl\src\lv_misc/lv_printf.c ****                             const unsigned int value = (flags & FLAGS_CHAR) ? (unsigned char)va_arg
 766:lvgl\src\lv_misc/lv_printf.c ****                                                                                                    
 767:lvgl\src\lv_misc/lv_printf.c ****                             idx = _ntoa_long(out, buffer, idx, maxlen, value, false, base, precisio
 768:lvgl\src\lv_misc/lv_printf.c ****                         }
 769:lvgl\src\lv_misc/lv_printf.c ****                     }
 770:lvgl\src\lv_misc/lv_printf.c ****                     format++;
 771:lvgl\src\lv_misc/lv_printf.c ****                     break;
 772:lvgl\src\lv_misc/lv_printf.c ****                 }
 773:lvgl\src\lv_misc/lv_printf.c **** #if defined(PRINTF_SUPPORT_FLOAT)
 774:lvgl\src\lv_misc/lv_printf.c ****             case 'f' :
 775:lvgl\src\lv_misc/lv_printf.c ****             case 'F' :
 776:lvgl\src\lv_misc/lv_printf.c ****                 if(*format == 'F') flags |= FLAGS_UPPERCASE;
 777:lvgl\src\lv_misc/lv_printf.c ****                 idx = _ftoa(out, buffer, idx, maxlen, va_arg(va, double), precision, width, flags);
 778:lvgl\src\lv_misc/lv_printf.c ****                 format++;
 779:lvgl\src\lv_misc/lv_printf.c ****                 break;
 780:lvgl\src\lv_misc/lv_printf.c **** #if defined(PRINTF_SUPPORT_EXPONENTIAL)
 781:lvgl\src\lv_misc/lv_printf.c ****             case 'e':
 782:lvgl\src\lv_misc/lv_printf.c ****             case 'E':
 783:lvgl\src\lv_misc/lv_printf.c ****             case 'g':
 784:lvgl\src\lv_misc/lv_printf.c ****             case 'G':
 785:lvgl\src\lv_misc/lv_printf.c ****                 if((*format == 'g') || (*format == 'G')) flags |= FLAGS_ADAPT_EXP;
 786:lvgl\src\lv_misc/lv_printf.c ****                 if((*format == 'E') || (*format == 'G')) flags |= FLAGS_UPPERCASE;
 787:lvgl\src\lv_misc/lv_printf.c ****                 idx = _etoa(out, buffer, idx, maxlen, va_arg(va, double), precision, width, flags);
 788:lvgl\src\lv_misc/lv_printf.c ****                 format++;
 789:lvgl\src\lv_misc/lv_printf.c ****                 break;
 790:lvgl\src\lv_misc/lv_printf.c **** #endif  // PRINTF_SUPPORT_EXPONENTIAL
 791:lvgl\src\lv_misc/lv_printf.c **** #endif  // PRINTF_SUPPORT_FLOAT
 792:lvgl\src\lv_misc/lv_printf.c ****             case 'c' : {
 793:lvgl\src\lv_misc/lv_printf.c ****                     unsigned int l = 1U;
 794:lvgl\src\lv_misc/lv_printf.c ****                     // pre padding
 795:lvgl\src\lv_misc/lv_printf.c ****                     if(!(flags & FLAGS_LEFT)) {
 796:lvgl\src\lv_misc/lv_printf.c ****                         while(l++ < width) {
 797:lvgl\src\lv_misc/lv_printf.c ****                             out(' ', buffer, idx++, maxlen);
 798:lvgl\src\lv_misc/lv_printf.c ****                         }
 799:lvgl\src\lv_misc/lv_printf.c ****                     }
 800:lvgl\src\lv_misc/lv_printf.c ****                     // char output
 801:lvgl\src\lv_misc/lv_printf.c ****                     out((char)va_arg(va, int), buffer, idx++, maxlen);
 802:lvgl\src\lv_misc/lv_printf.c ****                     // post padding
 803:lvgl\src\lv_misc/lv_printf.c ****                     if(flags & FLAGS_LEFT) {
 804:lvgl\src\lv_misc/lv_printf.c ****                         while(l++ < width) {
ARM GAS  C:\Users\strap\AppData\Local\Temp\ccV4k2oP.s 			page 29


 805:lvgl\src\lv_misc/lv_printf.c ****                             out(' ', buffer, idx++, maxlen);
 806:lvgl\src\lv_misc/lv_printf.c ****                         }
 807:lvgl\src\lv_misc/lv_printf.c ****                     }
 808:lvgl\src\lv_misc/lv_printf.c ****                     format++;
 809:lvgl\src\lv_misc/lv_printf.c ****                     break;
 810:lvgl\src\lv_misc/lv_printf.c ****                 }
 811:lvgl\src\lv_misc/lv_printf.c **** 
 812:lvgl\src\lv_misc/lv_printf.c ****             case 's' : {
 813:lvgl\src\lv_misc/lv_printf.c ****                     const char * p = va_arg(va, char *);
 814:lvgl\src\lv_misc/lv_printf.c ****                     unsigned int l = _strnlen_s(p, precision ? precision : (size_t) -1);
 815:lvgl\src\lv_misc/lv_printf.c ****                     // pre padding
 816:lvgl\src\lv_misc/lv_printf.c ****                     if(flags & FLAGS_PRECISION) {
 817:lvgl\src\lv_misc/lv_printf.c ****                         l = (l < precision ? l : precision);
 818:lvgl\src\lv_misc/lv_printf.c ****                     }
 819:lvgl\src\lv_misc/lv_printf.c ****                     if(!(flags & FLAGS_LEFT)) {
 820:lvgl\src\lv_misc/lv_printf.c ****                         while(l++ < width) {
 821:lvgl\src\lv_misc/lv_printf.c ****                             out(' ', buffer, idx++, maxlen);
 822:lvgl\src\lv_misc/lv_printf.c ****                         }
 823:lvgl\src\lv_misc/lv_printf.c ****                     }
 824:lvgl\src\lv_misc/lv_printf.c ****                     // string output
 825:lvgl\src\lv_misc/lv_printf.c ****                     while((*p != 0) && (!(flags & FLAGS_PRECISION) || precision--)) {
 826:lvgl\src\lv_misc/lv_printf.c ****                         out(*(p++), buffer, idx++, maxlen);
 827:lvgl\src\lv_misc/lv_printf.c ****                     }
 828:lvgl\src\lv_misc/lv_printf.c ****                     // post padding
 829:lvgl\src\lv_misc/lv_printf.c ****                     if(flags & FLAGS_LEFT) {
 830:lvgl\src\lv_misc/lv_printf.c ****                         while(l++ < width) {
 831:lvgl\src\lv_misc/lv_printf.c ****                             out(' ', buffer, idx++, maxlen);
 832:lvgl\src\lv_misc/lv_printf.c ****                         }
 833:lvgl\src\lv_misc/lv_printf.c ****                     }
 834:lvgl\src\lv_misc/lv_printf.c ****                     format++;
 835:lvgl\src\lv_misc/lv_printf.c ****                     break;
 836:lvgl\src\lv_misc/lv_printf.c ****                 }
 837:lvgl\src\lv_misc/lv_printf.c **** 
 838:lvgl\src\lv_misc/lv_printf.c ****             case 'p' : {
 839:lvgl\src\lv_misc/lv_printf.c ****                     width = sizeof(void *) * 2U;
 840:lvgl\src\lv_misc/lv_printf.c ****                     flags |= FLAGS_ZEROPAD | FLAGS_UPPERCASE;
 841:lvgl\src\lv_misc/lv_printf.c **** #if defined(PRINTF_SUPPORT_LONG_LONG)
 842:lvgl\src\lv_misc/lv_printf.c ****                     const bool is_ll = sizeof(uintptr_t) == sizeof(long long);
 843:lvgl\src\lv_misc/lv_printf.c ****                     if(is_ll) {
 844:lvgl\src\lv_misc/lv_printf.c ****                         idx = _ntoa_long_long(out, buffer, idx, maxlen, (uintptr_t)va_arg(va, void 
 845:lvgl\src\lv_misc/lv_printf.c ****                     }
 846:lvgl\src\lv_misc/lv_printf.c ****                     else {
 847:lvgl\src\lv_misc/lv_printf.c **** #endif
 848:lvgl\src\lv_misc/lv_printf.c ****                         idx = _ntoa_long(out, buffer, idx, maxlen, (unsigned long)((uintptr_t)va_ar
 849:lvgl\src\lv_misc/lv_printf.c ****                                          flags);
 850:lvgl\src\lv_misc/lv_printf.c **** #if defined(PRINTF_SUPPORT_LONG_LONG)
 851:lvgl\src\lv_misc/lv_printf.c ****                     }
 852:lvgl\src\lv_misc/lv_printf.c **** #endif
 853:lvgl\src\lv_misc/lv_printf.c ****                     format++;
 854:lvgl\src\lv_misc/lv_printf.c ****                     break;
 855:lvgl\src\lv_misc/lv_printf.c ****                 }
 856:lvgl\src\lv_misc/lv_printf.c **** 
 857:lvgl\src\lv_misc/lv_printf.c ****             case '%' :
 858:lvgl\src\lv_misc/lv_printf.c ****                 out('%', buffer, idx++, maxlen);
 776              		.loc 1 858 0
 777 0012 0024     		movs	r4, #0
 778 0014 DAE2     		b	.L64
ARM GAS  C:\Users\strap\AppData\Local\Temp\ccV4k2oP.s 			page 30


 779              	.LVL93:
 780              	.L133:
 579:lvgl\src\lv_misc/lv_printf.c ****             // no
 781              		.loc 1 579 0
 782 0016 2528     		cmp	r0, #37
 783 0018 09D0     		beq	.L65
 581:lvgl\src\lv_misc/lv_printf.c ****             format++;
 784              		.loc 1 581 0
 785 001a 651C     		adds	r5, r4, #1
 786              	.LVL94:
 787 001c 0A9B     		ldr	r3, [sp, #40]
 788 001e 2246     		mov	r2, r4
 789 0020 0B99     		ldr	r1, [sp, #44]
 790 0022 B047     		blx	r6
 791              	.LVL95:
 582:lvgl\src\lv_misc/lv_printf.c ****             continue;
 792              		.loc 1 582 0
 793 0024 0D9B     		ldr	r3, [sp, #52]
 794 0026 0133     		adds	r3, r3, #1
 795 0028 0D93     		str	r3, [sp, #52]
 581:lvgl\src\lv_misc/lv_printf.c ****             format++;
 796              		.loc 1 581 0
 797 002a 2C46     		mov	r4, r5
 583:lvgl\src\lv_misc/lv_printf.c ****         }
 798              		.loc 1 583 0
 799 002c CEE2     		b	.L64
 800              	.LVL96:
 801              	.L65:
 587:lvgl\src\lv_misc/lv_printf.c ****         }
 802              		.loc 1 587 0
 803 002e 0133     		adds	r3, r3, #1
 804 0030 0D93     		str	r3, [sp, #52]
 805              	.LVL97:
 591:lvgl\src\lv_misc/lv_printf.c ****         do {
 806              		.loc 1 591 0
 807 0032 4FF0000A 		mov	r10, #0
 808              	.LVL98:
 809              	.L74:
 593:lvgl\src\lv_misc/lv_printf.c ****                 case '0':
 810              		.loc 1 593 0
 811 0036 0D9A     		ldr	r2, [sp, #52]
 812 0038 1378     		ldrb	r3, [r2]	@ zero_extendqisi2
 813 003a 203B     		subs	r3, r3, #32
 814 003c 102B     		cmp	r3, #16
 815 003e 28D8     		bhi	.L136
 816 0040 DFE803F0 		tbb	[pc, r3]
 817              	.L69:
 818 0044 1B       		.byte	(.L68-.L69)/2
 819 0045 27       		.byte	(.L136-.L69)/2
 820 0046 27       		.byte	(.L136-.L69)/2
 821 0047 21       		.byte	(.L70-.L69)/2
 822 0048 27       		.byte	(.L136-.L69)/2
 823 0049 27       		.byte	(.L136-.L69)/2
 824 004a 27       		.byte	(.L136-.L69)/2
 825 004b 27       		.byte	(.L136-.L69)/2
 826 004c 27       		.byte	(.L136-.L69)/2
 827 004d 27       		.byte	(.L136-.L69)/2
ARM GAS  C:\Users\strap\AppData\Local\Temp\ccV4k2oP.s 			page 31


 828 004e 27       		.byte	(.L136-.L69)/2
 829 004f 15       		.byte	(.L71-.L69)/2
 830 0050 27       		.byte	(.L136-.L69)/2
 831 0051 0F       		.byte	(.L72-.L69)/2
 832 0052 27       		.byte	(.L136-.L69)/2
 833 0053 27       		.byte	(.L136-.L69)/2
 834 0054 09       		.byte	(.L73-.L69)/2
 835 0055 00       		.p2align 1
 836              	.L73:
 595:lvgl\src\lv_misc/lv_printf.c ****                     format++;
 837              		.loc 1 595 0
 838 0056 4AF0010A 		orr	r10, r10, #1
 839              	.LVL99:
 596:lvgl\src\lv_misc/lv_printf.c ****                     n = 1U;
 840              		.loc 1 596 0
 841 005a 0132     		adds	r2, r2, #1
 842 005c 0D92     		str	r2, [sp, #52]
 843              	.LVL100:
 597:lvgl\src\lv_misc/lv_printf.c ****                     break;
 844              		.loc 1 597 0
 845 005e 0123     		movs	r3, #1
 598:lvgl\src\lv_misc/lv_printf.c ****                 case '-':
 846              		.loc 1 598 0
 847 0060 18E0     		b	.L67
 848              	.LVL101:
 849              	.L72:
 600:lvgl\src\lv_misc/lv_printf.c ****                     format++;
 850              		.loc 1 600 0
 851 0062 4AF0020A 		orr	r10, r10, #2
 852              	.LVL102:
 601:lvgl\src\lv_misc/lv_printf.c ****                     n = 1U;
 853              		.loc 1 601 0
 854 0066 0132     		adds	r2, r2, #1
 855 0068 0D92     		str	r2, [sp, #52]
 856              	.LVL103:
 602:lvgl\src\lv_misc/lv_printf.c ****                     break;
 857              		.loc 1 602 0
 858 006a 0123     		movs	r3, #1
 603:lvgl\src\lv_misc/lv_printf.c ****                 case '+':
 859              		.loc 1 603 0
 860 006c 12E0     		b	.L67
 861              	.LVL104:
 862              	.L71:
 605:lvgl\src\lv_misc/lv_printf.c ****                     format++;
 863              		.loc 1 605 0
 864 006e 4AF0040A 		orr	r10, r10, #4
 865              	.LVL105:
 606:lvgl\src\lv_misc/lv_printf.c ****                     n = 1U;
 866              		.loc 1 606 0
 867 0072 0132     		adds	r2, r2, #1
 868 0074 0D92     		str	r2, [sp, #52]
 869              	.LVL106:
 607:lvgl\src\lv_misc/lv_printf.c ****                     break;
 870              		.loc 1 607 0
 871 0076 0123     		movs	r3, #1
 608:lvgl\src\lv_misc/lv_printf.c ****                 case ' ':
 872              		.loc 1 608 0
ARM GAS  C:\Users\strap\AppData\Local\Temp\ccV4k2oP.s 			page 32


 873 0078 0CE0     		b	.L67
 874              	.LVL107:
 875              	.L68:
 610:lvgl\src\lv_misc/lv_printf.c ****                     format++;
 876              		.loc 1 610 0
 877 007a 4AF0080A 		orr	r10, r10, #8
 878              	.LVL108:
 611:lvgl\src\lv_misc/lv_printf.c ****                     n = 1U;
 879              		.loc 1 611 0
 880 007e 0132     		adds	r2, r2, #1
 881 0080 0D92     		str	r2, [sp, #52]
 882              	.LVL109:
 612:lvgl\src\lv_misc/lv_printf.c ****                     break;
 883              		.loc 1 612 0
 884 0082 0123     		movs	r3, #1
 613:lvgl\src\lv_misc/lv_printf.c ****                 case '#':
 885              		.loc 1 613 0
 886 0084 06E0     		b	.L67
 887              	.LVL110:
 888              	.L70:
 615:lvgl\src\lv_misc/lv_printf.c ****                     format++;
 889              		.loc 1 615 0
 890 0086 4AF0100A 		orr	r10, r10, #16
 891              	.LVL111:
 616:lvgl\src\lv_misc/lv_printf.c ****                     n = 1U;
 892              		.loc 1 616 0
 893 008a 0132     		adds	r2, r2, #1
 894 008c 0D92     		str	r2, [sp, #52]
 895              	.LVL112:
 617:lvgl\src\lv_misc/lv_printf.c ****                     break;
 896              		.loc 1 617 0
 897 008e 0123     		movs	r3, #1
 618:lvgl\src\lv_misc/lv_printf.c ****                 default :
 898              		.loc 1 618 0
 899 0090 00E0     		b	.L67
 900              	.LVL113:
 901              	.L136:
 620:lvgl\src\lv_misc/lv_printf.c ****                     break;
 902              		.loc 1 620 0
 903 0092 0023     		movs	r3, #0
 904              	.L67:
 905              	.LVL114:
 623:lvgl\src\lv_misc/lv_printf.c **** 
 906              		.loc 1 623 0
 907 0094 002B     		cmp	r3, #0
 908 0096 CED1     		bne	.L74
 909              	.LVL115:
 627:lvgl\src\lv_misc/lv_printf.c ****             width = _atoi(&format);
 910              		.loc 1 627 0
 911 0098 0D99     		ldr	r1, [sp, #52]
 912 009a 0A78     		ldrb	r2, [r1]	@ zero_extendqisi2
 913              	.LVL116:
 914              	.LBB28:
 915              	.LBB29:
 162:lvgl\src\lv_misc/lv_printf.c **** }
 916              		.loc 1 162 0
 917 009c A2F13003 		sub	r3, r2, #48
ARM GAS  C:\Users\strap\AppData\Local\Temp\ccV4k2oP.s 			page 33


 918              	.LVL117:
 919 00a0 DBB2     		uxtb	r3, r3
 920              	.LVL118:
 921              	.LBE29:
 922              	.LBE28:
 627:lvgl\src\lv_misc/lv_printf.c ****             width = _atoi(&format);
 923              		.loc 1 627 0
 924 00a2 092B     		cmp	r3, #9
 925 00a4 04D8     		bhi	.L75
 628:lvgl\src\lv_misc/lv_printf.c ****         }
 926              		.loc 1 628 0
 927 00a6 0DA8     		add	r0, sp, #52
 928 00a8 FFF7FEFF 		bl	_atoi
 929              	.LVL119:
 930 00ac 8146     		mov	r9, r0
 931              	.LVL120:
 932 00ae 13E0     		b	.L76
 933              	.LVL121:
 934              	.L75:
 630:lvgl\src\lv_misc/lv_printf.c ****             const int w = va_arg(va, int);
 935              		.loc 1 630 0
 936 00b0 2A2A     		cmp	r2, #42
 937 00b2 0FD1     		bne	.L137
 938              	.LBB30:
 631:lvgl\src\lv_misc/lv_printf.c ****             if(w < 0) {
 939              		.loc 1 631 0
 940 00b4 189B     		ldr	r3, [sp, #96]
 941 00b6 1B68     		ldr	r3, [r3]
 942 00b8 189A     		ldr	r2, [sp, #96]
 943 00ba 0432     		adds	r2, r2, #4
 944 00bc 1892     		str	r2, [sp, #96]
 945              	.LVL122:
 632:lvgl\src\lv_misc/lv_printf.c ****                 flags |= FLAGS_LEFT;    // reverse padding
 946              		.loc 1 632 0
 947 00be 002B     		cmp	r3, #0
 948 00c0 04DA     		bge	.L77
 633:lvgl\src\lv_misc/lv_printf.c ****                 width = (unsigned int) - w;
 949              		.loc 1 633 0
 950 00c2 4AF0020A 		orr	r10, r10, #2
 951              	.LVL123:
 634:lvgl\src\lv_misc/lv_printf.c ****             }
 952              		.loc 1 634 0
 953 00c6 C3F10009 		rsb	r9, r3, #0
 954              	.LVL124:
 955 00ca 00E0     		b	.L78
 956              	.LVL125:
 957              	.L77:
 637:lvgl\src\lv_misc/lv_printf.c ****             }
 958              		.loc 1 637 0
 959 00cc 9946     		mov	r9, r3
 960              	.LVL126:
 961              	.L78:
 639:lvgl\src\lv_misc/lv_printf.c ****         }
 962              		.loc 1 639 0
 963 00ce 0131     		adds	r1, r1, #1
 964 00d0 0D91     		str	r1, [sp, #52]
 965 00d2 01E0     		b	.L76
ARM GAS  C:\Users\strap\AppData\Local\Temp\ccV4k2oP.s 			page 34


 966              	.LVL127:
 967              	.L137:
 968              	.LBE30:
 626:lvgl\src\lv_misc/lv_printf.c ****         if(_is_digit(*format)) {
 969              		.loc 1 626 0
 970 00d4 4FF00009 		mov	r9, #0
 971              	.LVL128:
 972              	.L76:
 644:lvgl\src\lv_misc/lv_printf.c ****             flags |= FLAGS_PRECISION;
 973              		.loc 1 644 0
 974 00d8 0D9B     		ldr	r3, [sp, #52]
 975 00da 1A78     		ldrb	r2, [r3]	@ zero_extendqisi2
 976 00dc 2E2A     		cmp	r2, #46
 977 00de 1AD1     		bne	.L138
 645:lvgl\src\lv_misc/lv_printf.c ****             format++;
 978              		.loc 1 645 0
 979 00e0 4AF4806A 		orr	r10, r10, #1024
 980              	.LVL129:
 646:lvgl\src\lv_misc/lv_printf.c ****             if(_is_digit(*format)) {
 981              		.loc 1 646 0
 982 00e4 591C     		adds	r1, r3, #1
 983 00e6 0D91     		str	r1, [sp, #52]
 647:lvgl\src\lv_misc/lv_printf.c ****                 precision = _atoi(&format);
 984              		.loc 1 647 0
 985 00e8 5A78     		ldrb	r2, [r3, #1]	@ zero_extendqisi2
 986              	.LVL130:
 987              	.LBB31:
 988              	.LBB32:
 162:lvgl\src\lv_misc/lv_printf.c **** }
 989              		.loc 1 162 0
 990 00ea A2F13003 		sub	r3, r2, #48
 991 00ee DBB2     		uxtb	r3, r3
 992              	.LVL131:
 993              	.LBE32:
 994              	.LBE31:
 647:lvgl\src\lv_misc/lv_printf.c ****                 precision = _atoi(&format);
 995              		.loc 1 647 0
 996 00f0 092B     		cmp	r3, #9
 997 00f2 04D8     		bhi	.L80
 648:lvgl\src\lv_misc/lv_printf.c ****             }
 998              		.loc 1 648 0
 999 00f4 0DA8     		add	r0, sp, #52
 1000 00f6 FFF7FEFF 		bl	_atoi
 1001              	.LVL132:
 1002 00fa 8046     		mov	r8, r0
 1003              	.LVL133:
 1004 00fc 10E0     		b	.L79
 1005              	.LVL134:
 1006              	.L80:
 650:lvgl\src\lv_misc/lv_printf.c ****                 const int prec = (int)va_arg(va, int);
 1007              		.loc 1 650 0
 1008 00fe 2A2A     		cmp	r2, #42
 1009 0100 0CD1     		bne	.L139
 1010              	.LBB33:
 651:lvgl\src\lv_misc/lv_printf.c ****                 precision = prec > 0 ? (unsigned int)prec : 0U;
 1011              		.loc 1 651 0
 1012 0102 189B     		ldr	r3, [sp, #96]
ARM GAS  C:\Users\strap\AppData\Local\Temp\ccV4k2oP.s 			page 35


 1013 0104 1B68     		ldr	r3, [r3]
 1014 0106 189A     		ldr	r2, [sp, #96]
 1015 0108 0432     		adds	r2, r2, #4
 1016 010a 1892     		str	r2, [sp, #96]
 1017              	.LVL135:
 652:lvgl\src\lv_misc/lv_printf.c ****                 format++;
 1018              		.loc 1 652 0
 1019 010c 23EAE378 		bic	r8, r3, r3, asr #31
 1020              	.LVL136:
 653:lvgl\src\lv_misc/lv_printf.c ****             }
 1021              		.loc 1 653 0
 1022 0110 0131     		adds	r1, r1, #1
 1023 0112 0D91     		str	r1, [sp, #52]
 1024 0114 04E0     		b	.L79
 1025              	.LVL137:
 1026              	.L138:
 1027              	.LBE33:
 643:lvgl\src\lv_misc/lv_printf.c ****         if(*format == '.') {
 1028              		.loc 1 643 0
 1029 0116 4FF00008 		mov	r8, #0
 1030 011a 01E0     		b	.L79
 1031              	.L139:
 1032 011c 4FF00008 		mov	r8, #0
 1033              	.LVL138:
 1034              	.L79:
 658:lvgl\src\lv_misc/lv_printf.c ****             case 'l' :
 1035              		.loc 1 658 0
 1036 0120 0D9A     		ldr	r2, [sp, #52]
 1037 0122 1378     		ldrb	r3, [r2]	@ zero_extendqisi2
 1038 0124 683B     		subs	r3, r3, #104
 1039 0126 122B     		cmp	r3, #18
 1040 0128 37D8     		bhi	.L81
 1041 012a DFE803F0 		tbb	[pc, r3]
 1042              	.L83:
 1043 012e 16       		.byte	(.L82-.L83)/2
 1044 012f 36       		.byte	(.L81-.L83)/2
 1045 0130 27       		.byte	(.L84-.L83)/2
 1046 0131 36       		.byte	(.L81-.L83)/2
 1047 0132 0A       		.byte	(.L85-.L83)/2
 1048 0133 36       		.byte	(.L81-.L83)/2
 1049 0134 36       		.byte	(.L81-.L83)/2
 1050 0135 36       		.byte	(.L81-.L83)/2
 1051 0136 36       		.byte	(.L81-.L83)/2
 1052 0137 36       		.byte	(.L81-.L83)/2
 1053 0138 36       		.byte	(.L81-.L83)/2
 1054 0139 36       		.byte	(.L81-.L83)/2
 1055 013a 22       		.byte	(.L86-.L83)/2
 1056 013b 36       		.byte	(.L81-.L83)/2
 1057 013c 36       		.byte	(.L81-.L83)/2
 1058 013d 36       		.byte	(.L81-.L83)/2
 1059 013e 36       		.byte	(.L81-.L83)/2
 1060 013f 36       		.byte	(.L81-.L83)/2
 1061 0140 2C       		.byte	(.L87-.L83)/2
 1062 0141 00       		.p2align 1
 1063              	.L85:
 660:lvgl\src\lv_misc/lv_printf.c ****                 format++;
 1064              		.loc 1 660 0
ARM GAS  C:\Users\strap\AppData\Local\Temp\ccV4k2oP.s 			page 36


 1065 0142 4AF48071 		orr	r1, r10, #256
 1066              	.LVL139:
 661:lvgl\src\lv_misc/lv_printf.c ****                 if(*format == 'l') {
 1067              		.loc 1 661 0
 1068 0146 531C     		adds	r3, r2, #1
 1069 0148 0D93     		str	r3, [sp, #52]
 662:lvgl\src\lv_misc/lv_printf.c ****                     flags |= FLAGS_LONG_LONG;
 1070              		.loc 1 662 0
 1071 014a 5278     		ldrb	r2, [r2, #1]	@ zero_extendqisi2
 1072 014c 6C2A     		cmp	r2, #108
 1073 014e 1FD1     		bne	.L140
 663:lvgl\src\lv_misc/lv_printf.c ****                     format++;
 1074              		.loc 1 663 0
 1075 0150 4AF4407A 		orr	r10, r10, #768
 1076              	.LVL140:
 664:lvgl\src\lv_misc/lv_printf.c ****                 }
 1077              		.loc 1 664 0
 1078 0154 0133     		adds	r3, r3, #1
 1079 0156 0D93     		str	r3, [sp, #52]
 1080 0158 1FE0     		b	.L81
 1081              	.L82:
 668:lvgl\src\lv_misc/lv_printf.c ****                 format++;
 1082              		.loc 1 668 0
 1083 015a 4AF08001 		orr	r1, r10, #128
 1084              	.LVL141:
 669:lvgl\src\lv_misc/lv_printf.c ****                 if(*format == 'h') {
 1085              		.loc 1 669 0
 1086 015e 531C     		adds	r3, r2, #1
 1087 0160 0D93     		str	r3, [sp, #52]
 670:lvgl\src\lv_misc/lv_printf.c ****                     flags |= FLAGS_CHAR;
 1088              		.loc 1 670 0
 1089 0162 5278     		ldrb	r2, [r2, #1]	@ zero_extendqisi2
 1090 0164 682A     		cmp	r2, #104
 1091 0166 17D1     		bne	.L141
 671:lvgl\src\lv_misc/lv_printf.c ****                     format++;
 1092              		.loc 1 671 0
 1093 0168 4AF0C00A 		orr	r10, r10, #192
 1094              	.LVL142:
 672:lvgl\src\lv_misc/lv_printf.c ****                 }
 1095              		.loc 1 672 0
 1096 016c 0133     		adds	r3, r3, #1
 1097 016e 0D93     		str	r3, [sp, #52]
 1098 0170 13E0     		b	.L81
 1099              	.L86:
 677:lvgl\src\lv_misc/lv_printf.c ****                 format++;
 1100              		.loc 1 677 0
 1101 0172 4AF4807A 		orr	r10, r10, #256
 1102              	.LVL143:
 678:lvgl\src\lv_misc/lv_printf.c ****                 break;
 1103              		.loc 1 678 0
 1104 0176 0132     		adds	r2, r2, #1
 1105 0178 0D92     		str	r2, [sp, #52]
 679:lvgl\src\lv_misc/lv_printf.c **** #endif
 1106              		.loc 1 679 0
 1107 017a 0EE0     		b	.L81
 1108              	.L84:
 682:lvgl\src\lv_misc/lv_printf.c ****                 format++;
ARM GAS  C:\Users\strap\AppData\Local\Temp\ccV4k2oP.s 			page 37


 1109              		.loc 1 682 0
 1110 017c 4AF4007A 		orr	r10, r10, #512
 1111              	.LVL144:
 683:lvgl\src\lv_misc/lv_printf.c ****                 break;
 1112              		.loc 1 683 0
 1113 0180 0132     		adds	r2, r2, #1
 1114 0182 0D92     		str	r2, [sp, #52]
 684:lvgl\src\lv_misc/lv_printf.c ****             case 'z' :
 1115              		.loc 1 684 0
 1116 0184 09E0     		b	.L81
 1117              	.L87:
 686:lvgl\src\lv_misc/lv_printf.c ****                 format++;
 1118              		.loc 1 686 0
 1119 0186 4AF4807A 		orr	r10, r10, #256
 1120              	.LVL145:
 687:lvgl\src\lv_misc/lv_printf.c ****                 break;
 1121              		.loc 1 687 0
 1122 018a 0132     		adds	r2, r2, #1
 1123 018c 0D92     		str	r2, [sp, #52]
 688:lvgl\src\lv_misc/lv_printf.c ****             default :
 1124              		.loc 1 688 0
 1125 018e 04E0     		b	.L81
 1126              	.LVL146:
 1127              	.L140:
 660:lvgl\src\lv_misc/lv_printf.c ****                 format++;
 1128              		.loc 1 660 0
 1129 0190 8A46     		mov	r10, r1
 1130 0192 02E0     		b	.L81
 1131              	.L155:
 1132              		.align	2
 1133              	.L154:
 1134 0194 00000000 		.word	_out_null
 1135              	.L141:
 668:lvgl\src\lv_misc/lv_printf.c ****                 format++;
 1136              		.loc 1 668 0
 1137 0198 8A46     		mov	r10, r1
 1138              	.LVL147:
 1139              	.L81:
 694:lvgl\src\lv_misc/lv_printf.c ****             case 'd' :
 1140              		.loc 1 694 0
 1141 019a 0D9B     		ldr	r3, [sp, #52]
 1142 019c 1878     		ldrb	r0, [r3]	@ zero_extendqisi2
 1143 019e A0F12503 		sub	r3, r0, #37
 1144 01a2 532B     		cmp	r3, #83
 1145 01a4 00F20982 		bhi	.L88
 1146 01a8 DFE813F0 		tbh	[pc, r3, lsl #1]
 1147              	.L90:
 1148 01ac FC01     		.2byte	(.L89-.L90)/2
 1149 01ae 0702     		.2byte	(.L88-.L90)/2
 1150 01b0 0702     		.2byte	(.L88-.L90)/2
 1151 01b2 0702     		.2byte	(.L88-.L90)/2
 1152 01b4 0702     		.2byte	(.L88-.L90)/2
 1153 01b6 0702     		.2byte	(.L88-.L90)/2
 1154 01b8 0702     		.2byte	(.L88-.L90)/2
 1155 01ba 0702     		.2byte	(.L88-.L90)/2
 1156 01bc 0702     		.2byte	(.L88-.L90)/2
 1157 01be 0702     		.2byte	(.L88-.L90)/2
ARM GAS  C:\Users\strap\AppData\Local\Temp\ccV4k2oP.s 			page 38


 1158 01c0 0702     		.2byte	(.L88-.L90)/2
 1159 01c2 0702     		.2byte	(.L88-.L90)/2
 1160 01c4 0702     		.2byte	(.L88-.L90)/2
 1161 01c6 0702     		.2byte	(.L88-.L90)/2
 1162 01c8 0702     		.2byte	(.L88-.L90)/2
 1163 01ca 0702     		.2byte	(.L88-.L90)/2
 1164 01cc 0702     		.2byte	(.L88-.L90)/2
 1165 01ce 0702     		.2byte	(.L88-.L90)/2
 1166 01d0 0702     		.2byte	(.L88-.L90)/2
 1167 01d2 0702     		.2byte	(.L88-.L90)/2
 1168 01d4 0702     		.2byte	(.L88-.L90)/2
 1169 01d6 0702     		.2byte	(.L88-.L90)/2
 1170 01d8 0702     		.2byte	(.L88-.L90)/2
 1171 01da 0702     		.2byte	(.L88-.L90)/2
 1172 01dc 0702     		.2byte	(.L88-.L90)/2
 1173 01de 0702     		.2byte	(.L88-.L90)/2
 1174 01e0 0702     		.2byte	(.L88-.L90)/2
 1175 01e2 0702     		.2byte	(.L88-.L90)/2
 1176 01e4 0702     		.2byte	(.L88-.L90)/2
 1177 01e6 0702     		.2byte	(.L88-.L90)/2
 1178 01e8 0702     		.2byte	(.L88-.L90)/2
 1179 01ea 0702     		.2byte	(.L88-.L90)/2
 1180 01ec 0702     		.2byte	(.L88-.L90)/2
 1181 01ee 0702     		.2byte	(.L88-.L90)/2
 1182 01f0 0702     		.2byte	(.L88-.L90)/2
 1183 01f2 0702     		.2byte	(.L88-.L90)/2
 1184 01f4 0702     		.2byte	(.L88-.L90)/2
 1185 01f6 0702     		.2byte	(.L88-.L90)/2
 1186 01f8 0702     		.2byte	(.L88-.L90)/2
 1187 01fa 0702     		.2byte	(.L88-.L90)/2
 1188 01fc 0702     		.2byte	(.L88-.L90)/2
 1189 01fe 0702     		.2byte	(.L88-.L90)/2
 1190 0200 0702     		.2byte	(.L88-.L90)/2
 1191 0202 0702     		.2byte	(.L88-.L90)/2
 1192 0204 0702     		.2byte	(.L88-.L90)/2
 1193 0206 0702     		.2byte	(.L88-.L90)/2
 1194 0208 0702     		.2byte	(.L88-.L90)/2
 1195 020a 0702     		.2byte	(.L88-.L90)/2
 1196 020c 0702     		.2byte	(.L88-.L90)/2
 1197 020e 0702     		.2byte	(.L88-.L90)/2
 1198 0210 0702     		.2byte	(.L88-.L90)/2
 1199 0212 5400     		.2byte	(.L91-.L90)/2
 1200 0214 0702     		.2byte	(.L88-.L90)/2
 1201 0216 0702     		.2byte	(.L88-.L90)/2
 1202 0218 0702     		.2byte	(.L88-.L90)/2
 1203 021a 0702     		.2byte	(.L88-.L90)/2
 1204 021c 0702     		.2byte	(.L88-.L90)/2
 1205 021e 0702     		.2byte	(.L88-.L90)/2
 1206 0220 0702     		.2byte	(.L88-.L90)/2
 1207 0222 0702     		.2byte	(.L88-.L90)/2
 1208 0224 0702     		.2byte	(.L88-.L90)/2
 1209 0226 5400     		.2byte	(.L91-.L90)/2
 1210 0228 5501     		.2byte	(.L92-.L90)/2
 1211 022a 5400     		.2byte	(.L91-.L90)/2
 1212 022c 0702     		.2byte	(.L88-.L90)/2
 1213 022e 0702     		.2byte	(.L88-.L90)/2
 1214 0230 0702     		.2byte	(.L88-.L90)/2
ARM GAS  C:\Users\strap\AppData\Local\Temp\ccV4k2oP.s 			page 39


 1215 0232 0702     		.2byte	(.L88-.L90)/2
 1216 0234 5400     		.2byte	(.L91-.L90)/2
 1217 0236 0702     		.2byte	(.L88-.L90)/2
 1218 0238 0702     		.2byte	(.L88-.L90)/2
 1219 023a 0702     		.2byte	(.L88-.L90)/2
 1220 023c 0702     		.2byte	(.L88-.L90)/2
 1221 023e 0702     		.2byte	(.L88-.L90)/2
 1222 0240 5400     		.2byte	(.L91-.L90)/2
 1223 0242 E001     		.2byte	(.L93-.L90)/2
 1224 0244 0702     		.2byte	(.L88-.L90)/2
 1225 0246 0702     		.2byte	(.L88-.L90)/2
 1226 0248 8801     		.2byte	(.L94-.L90)/2
 1227 024a 0702     		.2byte	(.L88-.L90)/2
 1228 024c 5400     		.2byte	(.L91-.L90)/2
 1229 024e 0702     		.2byte	(.L88-.L90)/2
 1230 0250 0702     		.2byte	(.L88-.L90)/2
 1231 0252 5400     		.2byte	(.L91-.L90)/2
 1232              		.p2align 1
 1233              	.L91:
 1234              	.LBB34:
 704:lvgl\src\lv_misc/lv_printf.c ****                         base = 16U;
 1235              		.loc 1 704 0
 1236 0254 7828     		cmp	r0, #120
 1237 0256 09D0     		beq	.L142
 704:lvgl\src\lv_misc/lv_printf.c ****                         base = 16U;
 1238              		.loc 1 704 0 is_stmt 0 discriminator 1
 1239 0258 5828     		cmp	r0, #88
 1240 025a 09D0     		beq	.L143
 707:lvgl\src\lv_misc/lv_printf.c ****                         base =  8U;
 1241              		.loc 1 707 0 is_stmt 1
 1242 025c 6F28     		cmp	r0, #111
 1243 025e 09D0     		beq	.L144
 710:lvgl\src\lv_misc/lv_printf.c ****                         base =  2U;
 1244              		.loc 1 710 0
 1245 0260 6228     		cmp	r0, #98
 1246 0262 09D0     		beq	.L145
 1247              	.LVL148:
 715:lvgl\src\lv_misc/lv_printf.c ****                     }
 1248              		.loc 1 715 0
 1249 0264 2AF0100A 		bic	r10, r10, #16
 1250              	.LVL149:
 714:lvgl\src\lv_misc/lv_printf.c ****                         flags &= ~FLAGS_HASH;   // no hash for dec format
 1251              		.loc 1 714 0
 1252 0268 0A21     		movs	r1, #10
 1253 026a 06E0     		b	.L95
 1254              	.LVL150:
 1255              	.L142:
 705:lvgl\src\lv_misc/lv_printf.c ****                     }
 1256              		.loc 1 705 0
 1257 026c 1021     		movs	r1, #16
 1258 026e 04E0     		b	.L95
 1259              	.L143:
 1260 0270 1021     		movs	r1, #16
 1261 0272 02E0     		b	.L95
 1262              	.L144:
 708:lvgl\src\lv_misc/lv_printf.c ****                     }
 1263              		.loc 1 708 0
ARM GAS  C:\Users\strap\AppData\Local\Temp\ccV4k2oP.s 			page 40


 1264 0274 0821     		movs	r1, #8
 1265 0276 00E0     		b	.L95
 1266              	.L145:
 711:lvgl\src\lv_misc/lv_printf.c ****                     }
 1267              		.loc 1 711 0
 1268 0278 0221     		movs	r1, #2
 1269              	.L95:
 1270              	.LVL151:
 718:lvgl\src\lv_misc/lv_printf.c ****                         flags |= FLAGS_UPPERCASE;
 1271              		.loc 1 718 0
 1272 027a 5828     		cmp	r0, #88
 1273 027c 01D1     		bne	.L96
 719:lvgl\src\lv_misc/lv_printf.c ****                     }
 1274              		.loc 1 719 0
 1275 027e 4AF0200A 		orr	r10, r10, #32
 1276              	.LVL152:
 1277              	.L96:
 723:lvgl\src\lv_misc/lv_printf.c ****                         flags &= ~(FLAGS_PLUS | FLAGS_SPACE);
 1278              		.loc 1 723 0
 1279 0282 6928     		cmp	r0, #105
 1280 0284 03D0     		beq	.L97
 723:lvgl\src\lv_misc/lv_printf.c ****                         flags &= ~(FLAGS_PLUS | FLAGS_SPACE);
 1281              		.loc 1 723 0 is_stmt 0 discriminator 1
 1282 0286 6428     		cmp	r0, #100
 1283 0288 01D0     		beq	.L97
 724:lvgl\src\lv_misc/lv_printf.c ****                     }
 1284              		.loc 1 724 0 is_stmt 1
 1285 028a 2AF00C0A 		bic	r10, r10, #12
 1286              	.LVL153:
 1287              	.L97:
 728:lvgl\src\lv_misc/lv_printf.c ****                         flags &= ~FLAGS_ZEROPAD;
 1288              		.loc 1 728 0
 1289 028e 1AF4806F 		tst	r10, #1024
 1290 0292 01D0     		beq	.L98
 729:lvgl\src\lv_misc/lv_printf.c ****                     }
 1291              		.loc 1 729 0
 1292 0294 2AF0010A 		bic	r10, r10, #1
 1293              	.LVL154:
 1294              	.L98:
 733:lvgl\src\lv_misc/lv_printf.c ****                         // signed
 1295              		.loc 1 733 0
 1296 0298 6928     		cmp	r0, #105
 1297 029a 01D0     		beq	.L99
 733:lvgl\src\lv_misc/lv_printf.c ****                         // signed
 1298              		.loc 1 733 0 is_stmt 0 discriminator 1
 1299 029c 6428     		cmp	r0, #100
 1300 029e 74D1     		bne	.L100
 1301              	.L99:
 735:lvgl\src\lv_misc/lv_printf.c **** #if defined(PRINTF_SUPPORT_LONG_LONG)
 1302              		.loc 1 735 0 is_stmt 1
 1303 02a0 1AF4007F 		tst	r10, #512
 1304 02a4 25D0     		beq	.L101
 1305              	.LBB35:
 737:lvgl\src\lv_misc/lv_printf.c ****                             idx = _ntoa_long_long(out, buffer, idx, maxlen, (unsigned long long)(va
 1306              		.loc 1 737 0
 1307 02a6 189B     		ldr	r3, [sp, #96]
 1308 02a8 D81D     		adds	r0, r3, #7
ARM GAS  C:\Users\strap\AppData\Local\Temp\ccV4k2oP.s 			page 41


 1309 02aa 20F00700 		bic	r0, r0, #7
 1310 02ae 00F10803 		add	r3, r0, #8
 1311 02b2 1893     		str	r3, [sp, #96]
 1312 02b4 4568     		ldr	r5, [r0, #4]
 1313              	.LVL155:
 738:lvgl\src\lv_misc/lv_printf.c ****                                                   precision, width, flags);
 1314              		.loc 1 738 0
 1315 02b6 0268     		ldr	r2, [r0]
 1316 02b8 2B46     		mov	r3, r5
 1317 02ba 002A     		cmp	r2, #0
 1318 02bc 75F10000 		sbcs	r0, r5, #0
 1319              	.LVL156:
 1320 02c0 02DA     		bge	.L102
 1321 02c2 5242     		rsbs	r2, r2, #0
 1322              	.LVL157:
 1323 02c4 65EB4503 		sbc	r3, r5, r5, lsl #1
 1324              	.L102:
 1325 02c8 ED0F     		lsrs	r5, r5, #31
 1326              	.LVL158:
 1327 02ca CDF820A0 		str	r10, [sp, #32]
 1328              	.LVL159:
 1329 02ce CDF81C90 		str	r9, [sp, #28]
 1330 02d2 CDF81880 		str	r8, [sp, #24]
 1331 02d6 0491     		str	r1, [sp, #16]
 1332 02d8 0021     		movs	r1, #0
 1333              	.LVL160:
 1334 02da 0591     		str	r1, [sp, #20]
 1335 02dc 0295     		str	r5, [sp, #8]
 1336 02de CDE90023 		strd	r2, [sp]
 1337 02e2 0A9B     		ldr	r3, [sp, #40]
 1338 02e4 2246     		mov	r2, r4
 1339 02e6 0B99     		ldr	r1, [sp, #44]
 1340 02e8 3046     		mov	r0, r6
 1341 02ea FFF7FEFF 		bl	_ntoa_long_long
 1342              	.LVL161:
 1343 02ee 0446     		mov	r4, r0
 1344              	.LVL162:
 1345              	.LBE35:
 1346 02f0 ADE0     		b	.L103
 1347              	.LVL163:
 1348              	.L101:
 742:lvgl\src\lv_misc/lv_printf.c ****                             const long value = va_arg(va, long);
 1349              		.loc 1 742 0
 1350 02f2 1AF4807F 		tst	r10, #256
 1351 02f6 1AD0     		beq	.L104
 1352              	.LBB36:
 743:lvgl\src\lv_misc/lv_printf.c ****                             idx = _ntoa_long(out, buffer, idx, maxlen, (unsigned long)(value > 0 ? 
 1353              		.loc 1 743 0
 1354 02f8 189B     		ldr	r3, [sp, #96]
 1355 02fa 1B68     		ldr	r3, [r3]
 1356 02fc 189A     		ldr	r2, [sp, #96]
 1357 02fe 0432     		adds	r2, r2, #4
 1358 0300 1892     		str	r2, [sp, #96]
 1359              	.LVL164:
 744:lvgl\src\lv_misc/lv_printf.c ****                                              width, flags);
 1360              		.loc 1 744 0
 1361 0302 83EAE372 		eor	r2, r3, r3, asr #31
ARM GAS  C:\Users\strap\AppData\Local\Temp\ccV4k2oP.s 			page 42


 1362 0306 A2EBE372 		sub	r2, r2, r3, asr #31
 1363 030a DB0F     		lsrs	r3, r3, #31
 1364              	.LVL165:
 1365 030c CDF814A0 		str	r10, [sp, #20]
 1366              	.LVL166:
 1367 0310 CDF81090 		str	r9, [sp, #16]
 1368 0314 CDF80C80 		str	r8, [sp, #12]
 1369 0318 0291     		str	r1, [sp, #8]
 1370 031a 0193     		str	r3, [sp, #4]
 1371 031c 0092     		str	r2, [sp]
 1372 031e 0A9B     		ldr	r3, [sp, #40]
 1373 0320 2246     		mov	r2, r4
 1374 0322 0B99     		ldr	r1, [sp, #44]
 1375              	.LVL167:
 1376 0324 3046     		mov	r0, r6
 1377 0326 FFF7FEFF 		bl	_ntoa_long
 1378              	.LVL168:
 1379 032a 0446     		mov	r4, r0
 1380              	.LVL169:
 1381              	.LBE36:
 1382 032c 8FE0     		b	.L103
 1383              	.LVL170:
 1384              	.L104:
 1385              	.LBB37:
 748:lvgl\src\lv_misc/lv_printf.c ****                                                                                                    
 1386              		.loc 1 748 0
 1387 032e 1AF0400F 		tst	r10, #64
 1388 0332 05D0     		beq	.L105
 748:lvgl\src\lv_misc/lv_printf.c ****                                                                                                    
 1389              		.loc 1 748 0 is_stmt 0 discriminator 1
 1390 0334 189B     		ldr	r3, [sp, #96]
 1391 0336 1B78     		ldrb	r3, [r3]	@ zero_extendqisi2
 1392 0338 189A     		ldr	r2, [sp, #96]
 1393 033a 0432     		adds	r2, r2, #4
 1394 033c 1892     		str	r2, [sp, #96]
 1395 033e 0EE0     		b	.L106
 1396              	.L105:
 749:lvgl\src\lv_misc/lv_printf.c ****                             idx = _ntoa_long(out, buffer, idx, maxlen, (unsigned int)(value > 0 ? v
 1397              		.loc 1 749 0 is_stmt 1 discriminator 2
 1398 0340 1AF0800F 		tst	r10, #128
 1399 0344 06D0     		beq	.L107
 748:lvgl\src\lv_misc/lv_printf.c ****                                                                                                    
 1400              		.loc 1 748 0 discriminator 1
 1401 0346 189B     		ldr	r3, [sp, #96]
 1402 0348 B3F90030 		ldrsh	r3, [r3]
 1403 034c 189A     		ldr	r2, [sp, #96]
 1404 034e 0432     		adds	r2, r2, #4
 1405 0350 1892     		str	r2, [sp, #96]
 1406 0352 04E0     		b	.L106
 1407              	.L107:
 749:lvgl\src\lv_misc/lv_printf.c ****                             idx = _ntoa_long(out, buffer, idx, maxlen, (unsigned int)(value > 0 ? v
 1408              		.loc 1 749 0 discriminator 2
 1409 0354 189B     		ldr	r3, [sp, #96]
 1410 0356 1B68     		ldr	r3, [r3]
 1411 0358 189A     		ldr	r2, [sp, #96]
 1412 035a 0432     		adds	r2, r2, #4
 1413 035c 1892     		str	r2, [sp, #96]
ARM GAS  C:\Users\strap\AppData\Local\Temp\ccV4k2oP.s 			page 43


 1414              	.L106:
 1415              	.LVL171:
 750:lvgl\src\lv_misc/lv_printf.c ****                                              width, flags);
 1416              		.loc 1 750 0 discriminator 3
 1417 035e 83EAE372 		eor	r2, r3, r3, asr #31
 1418 0362 A2EBE372 		sub	r2, r2, r3, asr #31
 1419 0366 DB0F     		lsrs	r3, r3, #31
 1420              	.LVL172:
 1421 0368 CDF814A0 		str	r10, [sp, #20]
 1422 036c CDF81090 		str	r9, [sp, #16]
 1423 0370 CDF80C80 		str	r8, [sp, #12]
 1424 0374 0291     		str	r1, [sp, #8]
 1425 0376 0193     		str	r3, [sp, #4]
 1426 0378 0092     		str	r2, [sp]
 1427 037a 0A9B     		ldr	r3, [sp, #40]
 1428 037c 2246     		mov	r2, r4
 1429 037e 0B99     		ldr	r1, [sp, #44]
 1430              	.LVL173:
 1431 0380 3046     		mov	r0, r6
 1432 0382 FFF7FEFF 		bl	_ntoa_long
 1433              	.LVL174:
 1434 0386 0446     		mov	r4, r0
 1435              	.LVL175:
 1436 0388 61E0     		b	.L103
 1437              	.LVL176:
 1438              	.L100:
 1439              	.LBE37:
 756:lvgl\src\lv_misc/lv_printf.c **** #if defined(PRINTF_SUPPORT_LONG_LONG)
 1440              		.loc 1 756 0
 1441 038a 1AF4007F 		tst	r10, #512
 1442 038e 1CD0     		beq	.L108
 758:lvgl\src\lv_misc/lv_printf.c **** #endif
 1443              		.loc 1 758 0
 1444 0390 189B     		ldr	r3, [sp, #96]
 1445 0392 0733     		adds	r3, r3, #7
 1446 0394 23F00703 		bic	r3, r3, #7
 1447 0398 03F10802 		add	r2, r3, #8
 1448 039c 1892     		str	r2, [sp, #96]
 1449 039e D3E90023 		ldrd	r2, [r3]
 1450 03a2 0020     		movs	r0, #0
 1451 03a4 CDF820A0 		str	r10, [sp, #32]
 1452 03a8 CDF81C90 		str	r9, [sp, #28]
 1453 03ac CDF81880 		str	r8, [sp, #24]
 1454 03b0 0491     		str	r1, [sp, #16]
 1455 03b2 0590     		str	r0, [sp, #20]
 1456 03b4 0290     		str	r0, [sp, #8]
 1457 03b6 CDE90023 		strd	r2, [sp]
 1458 03ba 0A9B     		ldr	r3, [sp, #40]
 1459 03bc 2246     		mov	r2, r4
 1460 03be 0B99     		ldr	r1, [sp, #44]
 1461              	.LVL177:
 1462 03c0 3046     		mov	r0, r6
 1463 03c2 FFF7FEFF 		bl	_ntoa_long_long
 1464              	.LVL178:
 1465 03c6 0446     		mov	r4, r0
 1466              	.LVL179:
 1467 03c8 41E0     		b	.L103
ARM GAS  C:\Users\strap\AppData\Local\Temp\ccV4k2oP.s 			page 44


 1468              	.LVL180:
 1469              	.L108:
 761:lvgl\src\lv_misc/lv_printf.c ****                             idx = _ntoa_long(out, buffer, idx, maxlen, va_arg(va, unsigned long), f
 1470              		.loc 1 761 0
 1471 03ca 1AF4807F 		tst	r10, #256
 1472 03ce 16D0     		beq	.L109
 762:lvgl\src\lv_misc/lv_printf.c ****                         }
 1473              		.loc 1 762 0
 1474 03d0 189B     		ldr	r3, [sp, #96]
 1475 03d2 1B68     		ldr	r3, [r3]
 1476 03d4 189A     		ldr	r2, [sp, #96]
 1477 03d6 0432     		adds	r2, r2, #4
 1478 03d8 1892     		str	r2, [sp, #96]
 1479 03da CDF814A0 		str	r10, [sp, #20]
 1480 03de CDF81090 		str	r9, [sp, #16]
 1481 03e2 CDF80C80 		str	r8, [sp, #12]
 1482 03e6 0291     		str	r1, [sp, #8]
 1483 03e8 0022     		movs	r2, #0
 1484 03ea 0192     		str	r2, [sp, #4]
 1485 03ec 0093     		str	r3, [sp]
 1486 03ee 0A9B     		ldr	r3, [sp, #40]
 1487 03f0 2246     		mov	r2, r4
 1488 03f2 0B99     		ldr	r1, [sp, #44]
 1489              	.LVL181:
 1490 03f4 3046     		mov	r0, r6
 1491 03f6 FFF7FEFF 		bl	_ntoa_long
 1492              	.LVL182:
 1493 03fa 0446     		mov	r4, r0
 1494              	.LVL183:
 1495 03fc 27E0     		b	.L103
 1496              	.LVL184:
 1497              	.L109:
 1498              	.LBB38:
 766:lvgl\src\lv_misc/lv_printf.c ****                             idx = _ntoa_long(out, buffer, idx, maxlen, value, false, base, precisio
 1499              		.loc 1 766 0
 1500 03fe 1AF0400F 		tst	r10, #64
 1501 0402 05D0     		beq	.L110
 765:lvgl\src\lv_misc/lv_printf.c ****                                                                                                    
 1502              		.loc 1 765 0 discriminator 1
 1503 0404 189B     		ldr	r3, [sp, #96]
 766:lvgl\src\lv_misc/lv_printf.c ****                             idx = _ntoa_long(out, buffer, idx, maxlen, value, false, base, precisio
 1504              		.loc 1 766 0 discriminator 1
 1505 0406 1B78     		ldrb	r3, [r3]	@ zero_extendqisi2
 1506 0408 189A     		ldr	r2, [sp, #96]
 1507 040a 0432     		adds	r2, r2, #4
 1508 040c 1892     		str	r2, [sp, #96]
 1509 040e 0DE0     		b	.L111
 1510              	.L110:
 766:lvgl\src\lv_misc/lv_printf.c ****                             idx = _ntoa_long(out, buffer, idx, maxlen, value, false, base, precisio
 1511              		.loc 1 766 0 is_stmt 0 discriminator 2
 1512 0410 1AF0800F 		tst	r10, #128
 1513 0414 05D0     		beq	.L112
 766:lvgl\src\lv_misc/lv_printf.c ****                             idx = _ntoa_long(out, buffer, idx, maxlen, value, false, base, precisio
 1514              		.loc 1 766 0 discriminator 3
 1515 0416 189B     		ldr	r3, [sp, #96]
 1516 0418 1B88     		ldrh	r3, [r3]
 1517 041a 189A     		ldr	r2, [sp, #96]
ARM GAS  C:\Users\strap\AppData\Local\Temp\ccV4k2oP.s 			page 45


 1518 041c 0432     		adds	r2, r2, #4
 1519 041e 1892     		str	r2, [sp, #96]
 1520 0420 04E0     		b	.L111
 1521              	.L112:
 766:lvgl\src\lv_misc/lv_printf.c ****                             idx = _ntoa_long(out, buffer, idx, maxlen, value, false, base, precisio
 1522              		.loc 1 766 0 discriminator 4
 1523 0422 189B     		ldr	r3, [sp, #96]
 1524 0424 1B68     		ldr	r3, [r3]
 1525 0426 189A     		ldr	r2, [sp, #96]
 1526 0428 0432     		adds	r2, r2, #4
 1527 042a 1892     		str	r2, [sp, #96]
 1528              	.L111:
 1529              	.LVL185:
 767:lvgl\src\lv_misc/lv_printf.c ****                         }
 1530              		.loc 1 767 0 is_stmt 1
 1531 042c CDF814A0 		str	r10, [sp, #20]
 1532 0430 CDF81090 		str	r9, [sp, #16]
 1533 0434 CDF80C80 		str	r8, [sp, #12]
 1534 0438 0291     		str	r1, [sp, #8]
 1535 043a 0022     		movs	r2, #0
 1536 043c 0192     		str	r2, [sp, #4]
 1537 043e 0093     		str	r3, [sp]
 1538 0440 0A9B     		ldr	r3, [sp, #40]
 1539              	.LVL186:
 1540 0442 2246     		mov	r2, r4
 1541 0444 0B99     		ldr	r1, [sp, #44]
 1542              	.LVL187:
 1543 0446 3046     		mov	r0, r6
 1544 0448 FFF7FEFF 		bl	_ntoa_long
 1545              	.LVL188:
 1546 044c 0446     		mov	r4, r0
 1547              	.LVL189:
 1548              	.L103:
 1549              	.LBE38:
 770:lvgl\src\lv_misc/lv_printf.c ****                     break;
 1550              		.loc 1 770 0
 1551 044e 0D9B     		ldr	r3, [sp, #52]
 1552 0450 0133     		adds	r3, r3, #1
 1553 0452 0D93     		str	r3, [sp, #52]
 771:lvgl\src\lv_misc/lv_printf.c ****                 }
 1554              		.loc 1 771 0
 1555 0454 BAE0     		b	.L64
 1556              	.LVL190:
 1557              	.L92:
 1558              	.LBE34:
 1559              	.LBB39:
 795:lvgl\src\lv_misc/lv_printf.c ****                         while(l++ < width) {
 1560              		.loc 1 795 0
 1561 0456 1AF0020A 		ands	r10, r10, #2
 1562              	.LVL191:
 1563 045a 09D0     		beq	.L146
 793:lvgl\src\lv_misc/lv_printf.c ****                     // pre padding
 1564              		.loc 1 793 0
 1565 045c 0125     		movs	r5, #1
 1566 045e 0DE0     		b	.L114
 1567              	.LVL192:
 1568              	.L115:
ARM GAS  C:\Users\strap\AppData\Local\Temp\ccV4k2oP.s 			page 46


 797:lvgl\src\lv_misc/lv_printf.c ****                         }
 1569              		.loc 1 797 0
 1570 0460 541C     		adds	r4, r2, #1
 1571              	.LVL193:
 1572 0462 0A9B     		ldr	r3, [sp, #40]
 1573 0464 0B99     		ldr	r1, [sp, #44]
 1574 0466 2020     		movs	r0, #32
 1575 0468 B047     		blx	r6
 1576              	.LVL194:
 796:lvgl\src\lv_misc/lv_printf.c ****                             out(' ', buffer, idx++, maxlen);
 1577              		.loc 1 796 0
 1578 046a 2B46     		mov	r3, r5
 797:lvgl\src\lv_misc/lv_printf.c ****                         }
 1579              		.loc 1 797 0
 1580 046c 2246     		mov	r2, r4
 1581 046e 01E0     		b	.L113
 1582              	.LVL195:
 1583              	.L146:
 1584 0470 0123     		movs	r3, #1
 1585 0472 2246     		mov	r2, r4
 1586              	.LVL196:
 1587              	.L113:
 796:lvgl\src\lv_misc/lv_printf.c ****                             out(' ', buffer, idx++, maxlen);
 1588              		.loc 1 796 0
 1589 0474 5D1C     		adds	r5, r3, #1
 1590              	.LVL197:
 1591 0476 9945     		cmp	r9, r3
 1592 0478 F2D8     		bhi	.L115
 1593 047a 1446     		mov	r4, r2
 1594              	.LVL198:
 1595              	.L114:
 801:lvgl\src\lv_misc/lv_printf.c ****                     // post padding
 1596              		.loc 1 801 0
 1597 047c 1898     		ldr	r0, [sp, #96]
 1598 047e 671C     		adds	r7, r4, #1
 1599              	.LVL199:
 1600 0480 0A9B     		ldr	r3, [sp, #40]
 1601 0482 2246     		mov	r2, r4
 1602 0484 0B99     		ldr	r1, [sp, #44]
 1603 0486 0078     		ldrb	r0, [r0]	@ zero_extendqisi2
 1604 0488 189C     		ldr	r4, [sp, #96]
 1605 048a 0434     		adds	r4, r4, #4
 1606 048c 1894     		str	r4, [sp, #96]
 1607 048e B047     		blx	r6
 1608              	.LVL200:
 803:lvgl\src\lv_misc/lv_printf.c ****                         while(l++ < width) {
 1609              		.loc 1 803 0
 1610 0490 BAF1000F 		cmp	r10, #0
 1611 0494 08D1     		bne	.L150
 1612 0496 0CE0     		b	.L117
 1613              	.LVL201:
 1614              	.L118:
 805:lvgl\src\lv_misc/lv_printf.c ****                         }
 1615              		.loc 1 805 0
 1616 0498 571C     		adds	r7, r2, #1
 1617              	.LVL202:
 1618 049a 0A9B     		ldr	r3, [sp, #40]
ARM GAS  C:\Users\strap\AppData\Local\Temp\ccV4k2oP.s 			page 47


 1619 049c 0B99     		ldr	r1, [sp, #44]
 1620 049e 2020     		movs	r0, #32
 1621 04a0 B047     		blx	r6
 1622              	.LVL203:
 804:lvgl\src\lv_misc/lv_printf.c ****                             out(' ', buffer, idx++, maxlen);
 1623              		.loc 1 804 0
 1624 04a2 2546     		mov	r5, r4
 805:lvgl\src\lv_misc/lv_printf.c ****                         }
 1625              		.loc 1 805 0
 1626 04a4 3A46     		mov	r2, r7
 1627 04a6 00E0     		b	.L116
 1628              	.LVL204:
 1629              	.L150:
 1630 04a8 3A46     		mov	r2, r7
 1631              	.LVL205:
 1632              	.L116:
 804:lvgl\src\lv_misc/lv_printf.c ****                             out(' ', buffer, idx++, maxlen);
 1633              		.loc 1 804 0
 1634 04aa 6C1C     		adds	r4, r5, #1
 1635              	.LVL206:
 1636 04ac A945     		cmp	r9, r5
 1637 04ae F3D8     		bhi	.L118
 1638 04b0 1746     		mov	r7, r2
 1639              	.LVL207:
 1640              	.L117:
 808:lvgl\src\lv_misc/lv_printf.c ****                     break;
 1641              		.loc 1 808 0
 1642 04b2 0D9B     		ldr	r3, [sp, #52]
 1643 04b4 0133     		adds	r3, r3, #1
 1644 04b6 0D93     		str	r3, [sp, #52]
 809:lvgl\src\lv_misc/lv_printf.c ****                 }
 1645              		.loc 1 809 0
 1646 04b8 3C46     		mov	r4, r7
 1647 04ba 87E0     		b	.L64
 1648              	.LVL208:
 1649              	.L94:
 1650              	.LBE39:
 1651              	.LBB40:
 813:lvgl\src\lv_misc/lv_printf.c ****                     unsigned int l = _strnlen_s(p, precision ? precision : (size_t) -1);
 1652              		.loc 1 813 0
 1653 04bc 189B     		ldr	r3, [sp, #96]
 1654 04be 1F68     		ldr	r7, [r3]
 1655 04c0 0433     		adds	r3, r3, #4
 1656 04c2 1893     		str	r3, [sp, #96]
 1657              	.LVL209:
 814:lvgl\src\lv_misc/lv_printf.c ****                     // pre padding
 1658              		.loc 1 814 0
 1659 04c4 B8F1000F 		cmp	r8, #0
 1660 04c8 02D1     		bne	.L147
 1661 04ca 4FF0FF33 		mov	r3, #-1
 1662 04ce 00E0     		b	.L119
 1663              	.L147:
 1664 04d0 4346     		mov	r3, r8
 1665              	.L119:
 1666 04d2 3D46     		mov	r5, r7
 1667 04d4 01E0     		b	.L120
 1668              	.LVL210:
ARM GAS  C:\Users\strap\AppData\Local\Temp\ccV4k2oP.s 			page 48


 1669              	.L122:
 1670              	.LBB41:
 1671              	.LBB42:
 153:lvgl\src\lv_misc/lv_printf.c ****     return (unsigned int)(s - str);
 1672              		.loc 1 153 0
 1673 04d6 0135     		adds	r5, r5, #1
 1674              	.LVL211:
 1675 04d8 1346     		mov	r3, r2
 1676              	.LVL212:
 1677              	.L120:
 1678 04da 2A78     		ldrb	r2, [r5]	@ zero_extendqisi2
 1679 04dc 12B1     		cbz	r2, .L121
 1680 04de 5A1E     		subs	r2, r3, #1
 1681              	.LVL213:
 1682 04e0 002B     		cmp	r3, #0
 1683 04e2 F8D1     		bne	.L122
 1684              	.LVL214:
 1685              	.L121:
 154:lvgl\src\lv_misc/lv_printf.c **** }
 1686              		.loc 1 154 0
 1687 04e4 ED1B     		subs	r5, r5, r7
 1688              	.LVL215:
 1689              	.LBE42:
 1690              	.LBE41:
 816:lvgl\src\lv_misc/lv_printf.c ****                         l = (l < precision ? l : precision);
 1691              		.loc 1 816 0
 1692 04e6 1AF4806B 		ands	fp, r10, #1024
 1693 04ea 02D0     		beq	.L123
 817:lvgl\src\lv_misc/lv_printf.c ****                     }
 1694              		.loc 1 817 0
 1695 04ec 4545     		cmp	r5, r8
 1696 04ee 28BF     		it	cs
 1697 04f0 4546     		movcs	r5, r8
 1698              	.LVL216:
 1699              	.L123:
 819:lvgl\src\lv_misc/lv_printf.c ****                         while(l++ < width) {
 1700              		.loc 1 819 0
 1701 04f2 1AF00203 		ands	r3, r10, #2
 1702 04f6 0C93     		str	r3, [sp, #48]
 1703 04f8 0CD0     		beq	.L151
 1704 04fa 2246     		mov	r2, r4
 1705 04fc 4446     		mov	r4, r8
 1706              	.LVL217:
 1707 04fe AA46     		mov	r10, r5
 1708              	.LVL218:
 1709 0500 5D46     		mov	r5, fp
 1710              	.LVL219:
 1711 0502 17E0     		b	.L127
 1712              	.L126:
 821:lvgl\src\lv_misc/lv_printf.c ****                         }
 1713              		.loc 1 821 0
 1714 0504 541C     		adds	r4, r2, #1
 1715              	.LVL220:
 1716 0506 0A9B     		ldr	r3, [sp, #40]
 1717 0508 0B99     		ldr	r1, [sp, #44]
 1718 050a 2020     		movs	r0, #32
 1719 050c B047     		blx	r6
ARM GAS  C:\Users\strap\AppData\Local\Temp\ccV4k2oP.s 			page 49


 1720              	.LVL221:
 820:lvgl\src\lv_misc/lv_printf.c ****                             out(' ', buffer, idx++, maxlen);
 1721              		.loc 1 820 0
 1722 050e 5546     		mov	r5, r10
 821:lvgl\src\lv_misc/lv_printf.c ****                         }
 1723              		.loc 1 821 0
 1724 0510 2246     		mov	r2, r4
 1725 0512 00E0     		b	.L124
 1726              	.LVL222:
 1727              	.L151:
 1728 0514 2246     		mov	r2, r4
 1729              	.LVL223:
 1730              	.L124:
 820:lvgl\src\lv_misc/lv_printf.c ****                             out(' ', buffer, idx++, maxlen);
 1731              		.loc 1 820 0
 1732 0516 05F1010A 		add	r10, r5, #1
 1733              	.LVL224:
 1734 051a A945     		cmp	r9, r5
 1735 051c F2D8     		bhi	.L126
 1736 051e 4446     		mov	r4, r8
 1737 0520 5D46     		mov	r5, fp
 1738 0522 07E0     		b	.L127
 1739              	.LVL225:
 1740              	.L148:
 825:lvgl\src\lv_misc/lv_printf.c ****                         out(*(p++), buffer, idx++, maxlen);
 1741              		.loc 1 825 0
 1742 0524 1C46     		mov	r4, r3
 1743              	.LVL226:
 1744              	.L129:
 826:lvgl\src\lv_misc/lv_printf.c ****                     }
 1745              		.loc 1 826 0
 1746 0526 0137     		adds	r7, r7, #1
 1747              	.LVL227:
 1748 0528 02F10108 		add	r8, r2, #1
 1749              	.LVL228:
 1750 052c 0A9B     		ldr	r3, [sp, #40]
 1751 052e 0B99     		ldr	r1, [sp, #44]
 1752 0530 B047     		blx	r6
 1753              	.LVL229:
 1754 0532 4246     		mov	r2, r8
 1755              	.LVL230:
 1756              	.L127:
 825:lvgl\src\lv_misc/lv_printf.c ****                         out(*(p++), buffer, idx++, maxlen);
 1757              		.loc 1 825 0
 1758 0534 3878     		ldrb	r0, [r7]	@ zero_extendqisi2
 1759 0536 20B1     		cbz	r0, .L128
 825:lvgl\src\lv_misc/lv_printf.c ****                         out(*(p++), buffer, idx++, maxlen);
 1760              		.loc 1 825 0 is_stmt 0 discriminator 1
 1761 0538 002D     		cmp	r5, #0
 1762 053a F4D0     		beq	.L129
 825:lvgl\src\lv_misc/lv_printf.c ****                         out(*(p++), buffer, idx++, maxlen);
 1763              		.loc 1 825 0 discriminator 2
 1764 053c 631E     		subs	r3, r4, #1
 1765              	.LVL231:
 1766 053e 002C     		cmp	r4, #0
 1767 0540 F0D1     		bne	.L148
 1768              	.LVL232:
ARM GAS  C:\Users\strap\AppData\Local\Temp\ccV4k2oP.s 			page 50


 1769              	.L128:
 1770 0542 1446     		mov	r4, r2
 1771 0544 5546     		mov	r5, r10
 829:lvgl\src\lv_misc/lv_printf.c ****                         while(l++ < width) {
 1772              		.loc 1 829 0 is_stmt 1
 1773 0546 0C9B     		ldr	r3, [sp, #48]
 1774 0548 43B9     		cbnz	r3, .L152
 1775              	.LVL233:
 1776 054a 0BE0     		b	.L131
 1777              	.LVL234:
 1778              	.L132:
 831:lvgl\src\lv_misc/lv_printf.c ****                         }
 1779              		.loc 1 831 0
 1780 054c 571C     		adds	r7, r2, #1
 1781              	.LVL235:
 1782 054e 0A9B     		ldr	r3, [sp, #40]
 1783 0550 0B99     		ldr	r1, [sp, #44]
 1784 0552 2020     		movs	r0, #32
 1785 0554 B047     		blx	r6
 1786              	.LVL236:
 830:lvgl\src\lv_misc/lv_printf.c ****                             out(' ', buffer, idx++, maxlen);
 1787              		.loc 1 830 0
 1788 0556 2546     		mov	r5, r4
 831:lvgl\src\lv_misc/lv_printf.c ****                         }
 1789              		.loc 1 831 0
 1790 0558 3A46     		mov	r2, r7
 1791 055a FFE7     		b	.L130
 1792              	.LVL237:
 1793              	.L152:
 1794              	.L130:
 830:lvgl\src\lv_misc/lv_printf.c ****                             out(' ', buffer, idx++, maxlen);
 1795              		.loc 1 830 0
 1796 055c 6C1C     		adds	r4, r5, #1
 1797              	.LVL238:
 1798 055e A945     		cmp	r9, r5
 1799 0560 F4D8     		bhi	.L132
 1800 0562 1446     		mov	r4, r2
 1801              	.LVL239:
 1802              	.L131:
 834:lvgl\src\lv_misc/lv_printf.c ****                     break;
 1803              		.loc 1 834 0
 1804 0564 0D9B     		ldr	r3, [sp, #52]
 1805 0566 0133     		adds	r3, r3, #1
 1806 0568 0D93     		str	r3, [sp, #52]
 835:lvgl\src\lv_misc/lv_printf.c ****                 }
 1807              		.loc 1 835 0
 1808 056a 2FE0     		b	.L64
 1809              	.LVL240:
 1810              	.L93:
 1811              	.LBE40:
 1812              	.LBB43:
 840:lvgl\src\lv_misc/lv_printf.c **** #if defined(PRINTF_SUPPORT_LONG_LONG)
 1813              		.loc 1 840 0
 1814 056c 4AF02103 		orr	r3, r10, #33
 1815              	.LVL241:
 848:lvgl\src\lv_misc/lv_printf.c ****                                          flags);
 1816              		.loc 1 848 0
ARM GAS  C:\Users\strap\AppData\Local\Temp\ccV4k2oP.s 			page 51


 1817 0570 189A     		ldr	r2, [sp, #96]
 1818 0572 1268     		ldr	r2, [r2]
 1819 0574 1899     		ldr	r1, [sp, #96]
 1820 0576 0431     		adds	r1, r1, #4
 1821 0578 1891     		str	r1, [sp, #96]
 1822 057a 0593     		str	r3, [sp, #20]
 1823 057c 0823     		movs	r3, #8
 1824              	.LVL242:
 1825 057e 0493     		str	r3, [sp, #16]
 1826 0580 CDF80C80 		str	r8, [sp, #12]
 1827 0584 1023     		movs	r3, #16
 1828 0586 0293     		str	r3, [sp, #8]
 1829 0588 0023     		movs	r3, #0
 1830 058a 0193     		str	r3, [sp, #4]
 1831 058c 0092     		str	r2, [sp]
 1832 058e 0A9B     		ldr	r3, [sp, #40]
 1833 0590 2246     		mov	r2, r4
 1834 0592 0B99     		ldr	r1, [sp, #44]
 1835 0594 3046     		mov	r0, r6
 1836 0596 FFF7FEFF 		bl	_ntoa_long
 1837              	.LVL243:
 1838 059a 0446     		mov	r4, r0
 1839              	.LVL244:
 853:lvgl\src\lv_misc/lv_printf.c ****                     break;
 1840              		.loc 1 853 0
 1841 059c 0D9B     		ldr	r3, [sp, #52]
 1842 059e 0133     		adds	r3, r3, #1
 1843 05a0 0D93     		str	r3, [sp, #52]
 854:lvgl\src\lv_misc/lv_printf.c ****                 }
 1844              		.loc 1 854 0
 1845 05a2 13E0     		b	.L64
 1846              	.LVL245:
 1847              	.L89:
 1848              	.LBE43:
 1849              		.loc 1 858 0
 1850 05a4 651C     		adds	r5, r4, #1
 1851              	.LVL246:
 1852 05a6 0A9B     		ldr	r3, [sp, #40]
 1853 05a8 2246     		mov	r2, r4
 1854 05aa 0B99     		ldr	r1, [sp, #44]
 1855 05ac 2520     		movs	r0, #37
 1856 05ae B047     		blx	r6
 1857              	.LVL247:
 859:lvgl\src\lv_misc/lv_printf.c ****                 format++;
 1858              		.loc 1 859 0
 1859 05b0 0D9B     		ldr	r3, [sp, #52]
 1860 05b2 0133     		adds	r3, r3, #1
 1861 05b4 0D93     		str	r3, [sp, #52]
 858:lvgl\src\lv_misc/lv_printf.c ****                 format++;
 1862              		.loc 1 858 0
 1863 05b6 2C46     		mov	r4, r5
 860:lvgl\src\lv_misc/lv_printf.c ****                 break;
 1864              		.loc 1 860 0
 1865 05b8 08E0     		b	.L64
 1866              	.LVL248:
 1867              	.L88:
 861:lvgl\src\lv_misc/lv_printf.c **** 
ARM GAS  C:\Users\strap\AppData\Local\Temp\ccV4k2oP.s 			page 52


 862:lvgl\src\lv_misc/lv_printf.c ****             default :
 863:lvgl\src\lv_misc/lv_printf.c ****                 out(*format, buffer, idx++, maxlen);
 1868              		.loc 1 863 0
 1869 05ba 651C     		adds	r5, r4, #1
 1870              	.LVL249:
 1871 05bc 0A9B     		ldr	r3, [sp, #40]
 1872 05be 2246     		mov	r2, r4
 1873 05c0 0B99     		ldr	r1, [sp, #44]
 1874 05c2 B047     		blx	r6
 1875              	.LVL250:
 864:lvgl\src\lv_misc/lv_printf.c ****                 format++;
 1876              		.loc 1 864 0
 1877 05c4 0D9B     		ldr	r3, [sp, #52]
 1878 05c6 0133     		adds	r3, r3, #1
 1879 05c8 0D93     		str	r3, [sp, #52]
 863:lvgl\src\lv_misc/lv_printf.c ****                 format++;
 1880              		.loc 1 863 0
 1881 05ca 2C46     		mov	r4, r5
 1882              	.LVL251:
 1883              	.L64:
 577:lvgl\src\lv_misc/lv_printf.c ****         // format specifier?  %[flags][width][.precision][length]
 1884              		.loc 1 577 0
 1885 05cc 0D9B     		ldr	r3, [sp, #52]
 1886 05ce 1878     		ldrb	r0, [r3]	@ zero_extendqisi2
 1887 05d0 0028     		cmp	r0, #0
 1888 05d2 7FF420AD 		bne	.L133
 865:lvgl\src\lv_misc/lv_printf.c ****                 break;
 866:lvgl\src\lv_misc/lv_printf.c ****         }
 867:lvgl\src\lv_misc/lv_printf.c ****     }
 868:lvgl\src\lv_misc/lv_printf.c **** 
 869:lvgl\src\lv_misc/lv_printf.c ****     // termination
 870:lvgl\src\lv_misc/lv_printf.c ****     out((char)0, buffer, idx < maxlen ? idx : maxlen - 1U, maxlen);
 1889              		.loc 1 870 0
 1890 05d6 0A9A     		ldr	r2, [sp, #40]
 1891 05d8 9442     		cmp	r4, r2
 1892 05da 01D3     		bcc	.L149
 1893              		.loc 1 870 0 is_stmt 0 discriminator 1
 1894 05dc 013A     		subs	r2, r2, #1
 1895 05de 00E0     		b	.L134
 1896              	.L149:
 1897              		.loc 1 870 0
 1898 05e0 2246     		mov	r2, r4
 1899              	.L134:
 1900              		.loc 1 870 0 discriminator 4
 1901 05e2 0A9B     		ldr	r3, [sp, #40]
 1902 05e4 0B99     		ldr	r1, [sp, #44]
 1903 05e6 0020     		movs	r0, #0
 1904 05e8 B047     		blx	r6
 1905              	.LVL252:
 871:lvgl\src\lv_misc/lv_printf.c **** 
 872:lvgl\src\lv_misc/lv_printf.c ****     // return written chars without terminating \0
 873:lvgl\src\lv_misc/lv_printf.c ****     return (int)idx;
 874:lvgl\src\lv_misc/lv_printf.c **** }
 1906              		.loc 1 874 0 is_stmt 1 discriminator 4
 1907 05ea 2046     		mov	r0, r4
 1908 05ec 0FB0     		add	sp, sp, #60
 1909              		.cfi_def_cfa_offset 36
ARM GAS  C:\Users\strap\AppData\Local\Temp\ccV4k2oP.s 			page 53


 1910              		@ sp needed
 1911 05ee BDE8F08F 		pop	{r4, r5, r6, r7, r8, r9, r10, fp, pc}
 1912              		.cfi_endproc
 1913              	.LFE9:
 1914              		.size	_vsnprintf, .-_vsnprintf
 1915 05f2 00BF     		.section	.text.lv_snprintf,"ax",%progbits
 1916              		.align	2
 1917              		.global	lv_snprintf
 1918              		.thumb
 1919              		.thumb_func
 1920              		.type	lv_snprintf, %function
 1921              	lv_snprintf:
 1922              	.LFB10:
 875:lvgl\src\lv_misc/lv_printf.c **** 
 876:lvgl\src\lv_misc/lv_printf.c **** 
 877:lvgl\src\lv_misc/lv_printf.c **** ///////////////////////////////////////////////////////////////////////////////
 878:lvgl\src\lv_misc/lv_printf.c **** 
 879:lvgl\src\lv_misc/lv_printf.c **** int lv_snprintf(char * buffer, size_t count, const char * format, ...)
 880:lvgl\src\lv_misc/lv_printf.c **** {
 1923              		.loc 1 880 0
 1924              		.cfi_startproc
 1925              		@ args = 4, pretend = 8, frame = 8
 1926              		@ frame_needed = 0, uses_anonymous_args = 1
 1927              	.LVL253:
 1928 0000 0CB4     		push	{r2, r3}
 1929              		.cfi_def_cfa_offset 8
 1930              		.cfi_offset 2, -8
 1931              		.cfi_offset 3, -4
 1932 0002 00B5     		push	{lr}
 1933              		.cfi_def_cfa_offset 12
 1934              		.cfi_offset 14, -12
 1935 0004 85B0     		sub	sp, sp, #20
 1936              		.cfi_def_cfa_offset 32
 1937 0006 06AA     		add	r2, sp, #24
 1938 0008 52F8043B 		ldr	r3, [r2], #4
 881:lvgl\src\lv_misc/lv_printf.c ****     va_list va;
 882:lvgl\src\lv_misc/lv_printf.c ****     va_start(va, format);
 1939              		.loc 1 882 0
 1940 000c 0392     		str	r2, [sp, #12]
 883:lvgl\src\lv_misc/lv_printf.c ****     const int ret = _vsnprintf(_out_buffer, buffer, count, format, va);
 1941              		.loc 1 883 0
 1942 000e 0092     		str	r2, [sp]
 1943 0010 0A46     		mov	r2, r1
 1944 0012 0146     		mov	r1, r0
 1945              	.LVL254:
 1946 0014 0348     		ldr	r0, .L158
 1947              	.LVL255:
 1948 0016 FFF7FEFF 		bl	_vsnprintf
 1949              	.LVL256:
 884:lvgl\src\lv_misc/lv_printf.c ****     va_end(va);
 885:lvgl\src\lv_misc/lv_printf.c ****     return ret;
 886:lvgl\src\lv_misc/lv_printf.c **** }
 1950              		.loc 1 886 0
 1951 001a 05B0     		add	sp, sp, #20
 1952              		.cfi_def_cfa_offset 12
 1953              		@ sp needed
 1954 001c 5DF804EB 		ldr	lr, [sp], #4
ARM GAS  C:\Users\strap\AppData\Local\Temp\ccV4k2oP.s 			page 54


 1955              		.cfi_restore 14
 1956              		.cfi_def_cfa_offset 8
 1957 0020 02B0     		add	sp, sp, #8
 1958              		.cfi_restore 3
 1959              		.cfi_restore 2
 1960              		.cfi_def_cfa_offset 0
 1961 0022 7047     		bx	lr
 1962              	.L159:
 1963              		.align	2
 1964              	.L158:
 1965 0024 00000000 		.word	_out_buffer
 1966              		.cfi_endproc
 1967              	.LFE10:
 1968              		.size	lv_snprintf, .-lv_snprintf
 1969              		.section	.text.lv_vsnprintf,"ax",%progbits
 1970              		.align	2
 1971              		.global	lv_vsnprintf
 1972              		.thumb
 1973              		.thumb_func
 1974              		.type	lv_vsnprintf, %function
 1975              	lv_vsnprintf:
 1976              	.LFB11:
 887:lvgl\src\lv_misc/lv_printf.c **** 
 888:lvgl\src\lv_misc/lv_printf.c **** int lv_vsnprintf(char * buffer, size_t count, const char * format, va_list va)
 889:lvgl\src\lv_misc/lv_printf.c **** {
 1977              		.loc 1 889 0
 1978              		.cfi_startproc
 1979              		@ args = 0, pretend = 0, frame = 0
 1980              		@ frame_needed = 0, uses_anonymous_args = 0
 1981              	.LVL257:
 1982 0000 00B5     		push	{lr}
 1983              		.cfi_def_cfa_offset 4
 1984              		.cfi_offset 14, -4
 1985 0002 83B0     		sub	sp, sp, #12
 1986              		.cfi_def_cfa_offset 16
 890:lvgl\src\lv_misc/lv_printf.c ****     return _vsnprintf(_out_buffer, buffer, count, format, va);
 1987              		.loc 1 890 0
 1988 0004 0093     		str	r3, [sp]
 1989 0006 1346     		mov	r3, r2
 1990              	.LVL258:
 1991 0008 0A46     		mov	r2, r1
 1992              	.LVL259:
 1993 000a 0146     		mov	r1, r0
 1994              	.LVL260:
 1995 000c 0248     		ldr	r0, .L162
 1996              	.LVL261:
 1997 000e FFF7FEFF 		bl	_vsnprintf
 1998              	.LVL262:
 891:lvgl\src\lv_misc/lv_printf.c **** }
 1999              		.loc 1 891 0
 2000 0012 03B0     		add	sp, sp, #12
 2001              		.cfi_def_cfa_offset 4
 2002              		@ sp needed
 2003 0014 5DF804FB 		ldr	pc, [sp], #4
 2004              	.L163:
 2005              		.align	2
 2006              	.L162:
ARM GAS  C:\Users\strap\AppData\Local\Temp\ccV4k2oP.s 			page 55


 2007 0018 00000000 		.word	_out_buffer
 2008              		.cfi_endproc
 2009              	.LFE11:
 2010              		.size	lv_vsnprintf, .-lv_vsnprintf
 2011              		.text
 2012              	.Letext0:
 2013              		.file 2 "c:\\program files (x86)\\cypress\\psoc creator\\4.4\\psoc creator\\import\\gnu\\arm\\5.4.
 2014              		.file 3 "c:\\program files (x86)\\cypress\\psoc creator\\4.4\\psoc creator\\import\\gnu\\arm\\5.4.
 2015              		.file 4 "c:\\program files (x86)\\cypress\\psoc creator\\4.4\\psoc creator\\import\\gnu\\arm\\5.4.
 2016              		.file 5 "c:\\program files (x86)\\cypress\\psoc creator\\4.4\\psoc creator\\import\\gnu\\arm\\5.4.
 2017              		.file 6 "<built-in>"
 2018              		.section	.debug_info,"",%progbits
 2019              	.Ldebug_info0:
 2020 0000 5A0D0000 		.4byte	0xd5a
 2021 0004 0400     		.2byte	0x4
 2022 0006 00000000 		.4byte	.Ldebug_abbrev0
 2023 000a 04       		.byte	0x4
 2024 000b 01       		.uleb128 0x1
 2025 000c 33020000 		.4byte	.LASF45
 2026 0010 0C       		.byte	0xc
 2027 0011 8E000000 		.4byte	.LASF46
 2028 0015 B2010000 		.4byte	.LASF47
 2029 0019 48000000 		.4byte	.Ldebug_ranges0+0x48
 2030 001d 00000000 		.4byte	0
 2031 0021 00000000 		.4byte	.Ldebug_line0
 2032 0025 02       		.uleb128 0x2
 2033 0026 04       		.byte	0x4
 2034 0027 07       		.byte	0x7
 2035 0028 19010000 		.4byte	.LASF0
 2036 002c 02       		.uleb128 0x2
 2037 002d 01       		.byte	0x1
 2038 002e 06       		.byte	0x6
 2039 002f F0000000 		.4byte	.LASF1
 2040 0033 02       		.uleb128 0x2
 2041 0034 01       		.byte	0x1
 2042 0035 08       		.byte	0x8
 2043 0036 D7000000 		.4byte	.LASF2
 2044 003a 02       		.uleb128 0x2
 2045 003b 02       		.byte	0x2
 2046 003c 05       		.byte	0x5
 2047 003d 0C000000 		.4byte	.LASF3
 2048 0041 02       		.uleb128 0x2
 2049 0042 02       		.byte	0x2
 2050 0043 07       		.byte	0x7
 2051 0044 2D010000 		.4byte	.LASF4
 2052 0048 02       		.uleb128 0x2
 2053 0049 04       		.byte	0x4
 2054 004a 05       		.byte	0x5
 2055 004b 78000000 		.4byte	.LASF5
 2056 004f 02       		.uleb128 0x2
 2057 0050 04       		.byte	0x4
 2058 0051 07       		.byte	0x7
 2059 0052 94010000 		.4byte	.LASF6
 2060 0056 02       		.uleb128 0x2
 2061 0057 08       		.byte	0x8
 2062 0058 05       		.byte	0x5
 2063 0059 60000000 		.4byte	.LASF7
ARM GAS  C:\Users\strap\AppData\Local\Temp\ccV4k2oP.s 			page 56


 2064 005d 02       		.uleb128 0x2
 2065 005e 08       		.byte	0x8
 2066 005f 07       		.byte	0x7
 2067 0060 02010000 		.4byte	.LASF8
 2068 0064 03       		.uleb128 0x3
 2069 0065 04       		.byte	0x4
 2070 0066 05       		.byte	0x5
 2071 0067 696E7400 		.ascii	"int\000"
 2072 006b 04       		.uleb128 0x4
 2073 006c A6010000 		.4byte	.LASF9
 2074 0070 02       		.byte	0x2
 2075 0071 CA       		.byte	0xca
 2076 0072 25000000 		.4byte	0x25
 2077 0076 04       		.uleb128 0x4
 2078 0077 3A000000 		.4byte	.LASF10
 2079 007b 03       		.byte	0x3
 2080 007c 48       		.byte	0x48
 2081 007d 6B000000 		.4byte	0x6b
 2082 0081 05       		.uleb128 0x5
 2083 0082 04       		.byte	0x4
 2084 0083 04       		.uleb128 0x4
 2085 0084 18020000 		.4byte	.LASF11
 2086 0088 04       		.byte	0x4
 2087 0089 28       		.byte	0x28
 2088 008a 8E000000 		.4byte	0x8e
 2089 008e 06       		.uleb128 0x6
 2090 008f 6E000000 		.4byte	.LASF48
 2091 0093 04       		.byte	0x4
 2092 0094 06       		.byte	0x6
 2093 0095 00       		.byte	0
 2094 0096 A5000000 		.4byte	0xa5
 2095 009a 07       		.uleb128 0x7
 2096 009b 4B010000 		.4byte	.LASF49
 2097 009f 81000000 		.4byte	0x81
 2098 00a3 00       		.byte	0
 2099 00a4 00       		.byte	0
 2100 00a5 04       		.uleb128 0x4
 2101 00a6 2C000000 		.4byte	.LASF12
 2102 00aa 04       		.byte	0x4
 2103 00ab 62       		.byte	0x62
 2104 00ac 83000000 		.4byte	0x83
 2105 00b0 04       		.uleb128 0x4
 2106 00b1 16000000 		.4byte	.LASF13
 2107 00b5 05       		.byte	0x5
 2108 00b6 D8       		.byte	0xd8
 2109 00b7 25000000 		.4byte	0x25
 2110 00bb 02       		.uleb128 0x2
 2111 00bc 08       		.byte	0x8
 2112 00bd 04       		.byte	0x4
 2113 00be CB000000 		.4byte	.LASF14
 2114 00c2 04       		.uleb128 0x4
 2115 00c3 BE000000 		.4byte	.LASF15
 2116 00c7 01       		.byte	0x1
 2117 00c8 76       		.byte	0x76
 2118 00c9 CD000000 		.4byte	0xcd
 2119 00cd 08       		.uleb128 0x8
 2120 00ce 04       		.byte	0x4
ARM GAS  C:\Users\strap\AppData\Local\Temp\ccV4k2oP.s 			page 57


 2121 00cf D3000000 		.4byte	0xd3
 2122 00d3 09       		.uleb128 0x9
 2123 00d4 ED000000 		.4byte	0xed
 2124 00d8 0A       		.uleb128 0xa
 2125 00d9 ED000000 		.4byte	0xed
 2126 00dd 0A       		.uleb128 0xa
 2127 00de 81000000 		.4byte	0x81
 2128 00e2 0A       		.uleb128 0xa
 2129 00e3 B0000000 		.4byte	0xb0
 2130 00e7 0A       		.uleb128 0xa
 2131 00e8 B0000000 		.4byte	0xb0
 2132 00ec 00       		.byte	0
 2133 00ed 02       		.uleb128 0x2
 2134 00ee 01       		.byte	0x1
 2135 00ef 08       		.byte	0x8
 2136 00f0 50010000 		.4byte	.LASF16
 2137 00f4 0B       		.uleb128 0xb
 2138 00f5 5B010000 		.4byte	.LASF18
 2139 00f9 01       		.byte	0x1
 2140 00fa A0       		.byte	0xa0
 2141 00fb 0F010000 		.4byte	0x10f
 2142 00ff 03       		.byte	0x3
 2143 0100 0F010000 		.4byte	0x10f
 2144 0104 0C       		.uleb128 0xc
 2145 0105 636800   		.ascii	"ch\000"
 2146 0108 01       		.byte	0x1
 2147 0109 A0       		.byte	0xa0
 2148 010a ED000000 		.4byte	0xed
 2149 010e 00       		.byte	0
 2150 010f 02       		.uleb128 0x2
 2151 0110 01       		.byte	0x1
 2152 0111 02       		.byte	0x2
 2153 0112 55010000 		.4byte	.LASF17
 2154 0116 0B       		.uleb128 0xb
 2155 0117 40010000 		.4byte	.LASF19
 2156 011b 01       		.byte	0x1
 2157 011c 96       		.byte	0x96
 2158 011d 25000000 		.4byte	0x25
 2159 0121 03       		.byte	0x3
 2160 0122 46010000 		.4byte	0x146
 2161 0126 0C       		.uleb128 0xc
 2162 0127 73747200 		.ascii	"str\000"
 2163 012b 01       		.byte	0x1
 2164 012c 96       		.byte	0x96
 2165 012d 46010000 		.4byte	0x146
 2166 0131 0D       		.uleb128 0xd
 2167 0132 0B020000 		.4byte	.LASF20
 2168 0136 01       		.byte	0x1
 2169 0137 96       		.byte	0x96
 2170 0138 B0000000 		.4byte	0xb0
 2171 013c 0E       		.uleb128 0xe
 2172 013d 7300     		.ascii	"s\000"
 2173 013f 01       		.byte	0x1
 2174 0140 98       		.byte	0x98
 2175 0141 46010000 		.4byte	0x146
 2176 0145 00       		.byte	0
 2177 0146 08       		.uleb128 0x8
ARM GAS  C:\Users\strap\AppData\Local\Temp\ccV4k2oP.s 			page 58


 2178 0147 04       		.byte	0x4
 2179 0148 4C010000 		.4byte	0x14c
 2180 014c 0F       		.uleb128 0xf
 2181 014d ED000000 		.4byte	0xed
 2182 0151 10       		.uleb128 0x10
 2183 0152 00000000 		.4byte	.LASF24
 2184 0156 01       		.byte	0x1
 2185 0157 81       		.byte	0x81
 2186 0158 00000000 		.4byte	.LFB0
 2187 015c 08000000 		.4byte	.LFE0-.LFB0
 2188 0160 01       		.uleb128 0x1
 2189 0161 9C       		.byte	0x9c
 2190 0162 9B010000 		.4byte	0x19b
 2191 0166 11       		.uleb128 0x11
 2192 0167 F2010000 		.4byte	.LASF21
 2193 016b 01       		.byte	0x1
 2194 016c 81       		.byte	0x81
 2195 016d ED000000 		.4byte	0xed
 2196 0171 01       		.uleb128 0x1
 2197 0172 50       		.byte	0x50
 2198 0173 11       		.uleb128 0x11
 2199 0174 65010000 		.4byte	.LASF22
 2200 0178 01       		.byte	0x1
 2201 0179 81       		.byte	0x81
 2202 017a 81000000 		.4byte	0x81
 2203 017e 01       		.uleb128 0x1
 2204 017f 51       		.byte	0x51
 2205 0180 12       		.uleb128 0x12
 2206 0181 69647800 		.ascii	"idx\000"
 2207 0185 01       		.byte	0x1
 2208 0186 81       		.byte	0x81
 2209 0187 B0000000 		.4byte	0xb0
 2210 018b 01       		.uleb128 0x1
 2211 018c 52       		.byte	0x52
 2212 018d 11       		.uleb128 0x11
 2213 018e 26010000 		.4byte	.LASF23
 2214 0192 01       		.byte	0x1
 2215 0193 81       		.byte	0x81
 2216 0194 B0000000 		.4byte	0xb0
 2217 0198 01       		.uleb128 0x1
 2218 0199 53       		.byte	0x53
 2219 019a 00       		.byte	0
 2220 019b 10       		.uleb128 0x10
 2221 019c B4000000 		.4byte	.LASF25
 2222 01a0 01       		.byte	0x1
 2223 01a1 8A       		.byte	0x8a
 2224 01a2 00000000 		.4byte	.LFB1
 2225 01a6 02000000 		.4byte	.LFE1-.LFB1
 2226 01aa 01       		.uleb128 0x1
 2227 01ab 9C       		.byte	0x9c
 2228 01ac E5010000 		.4byte	0x1e5
 2229 01b0 11       		.uleb128 0x11
 2230 01b1 F2010000 		.4byte	.LASF21
 2231 01b5 01       		.byte	0x1
 2232 01b6 8A       		.byte	0x8a
 2233 01b7 ED000000 		.4byte	0xed
 2234 01bb 01       		.uleb128 0x1
ARM GAS  C:\Users\strap\AppData\Local\Temp\ccV4k2oP.s 			page 59


 2235 01bc 50       		.byte	0x50
 2236 01bd 11       		.uleb128 0x11
 2237 01be 65010000 		.4byte	.LASF22
 2238 01c2 01       		.byte	0x1
 2239 01c3 8A       		.byte	0x8a
 2240 01c4 81000000 		.4byte	0x81
 2241 01c8 01       		.uleb128 0x1
 2242 01c9 51       		.byte	0x51
 2243 01ca 12       		.uleb128 0x12
 2244 01cb 69647800 		.ascii	"idx\000"
 2245 01cf 01       		.byte	0x1
 2246 01d0 8A       		.byte	0x8a
 2247 01d1 B0000000 		.4byte	0xb0
 2248 01d5 01       		.uleb128 0x1
 2249 01d6 52       		.byte	0x52
 2250 01d7 11       		.uleb128 0x11
 2251 01d8 26010000 		.4byte	.LASF23
 2252 01dc 01       		.byte	0x1
 2253 01dd 8A       		.byte	0x8a
 2254 01de B0000000 		.4byte	0xb0
 2255 01e2 01       		.uleb128 0x1
 2256 01e3 53       		.byte	0x53
 2257 01e4 00       		.byte	0
 2258 01e5 13       		.uleb128 0x13
 2259 01e6 26000000 		.4byte	.LASF26
 2260 01ea 01       		.byte	0x1
 2261 01eb A7       		.byte	0xa7
 2262 01ec 25000000 		.4byte	0x25
 2263 01f0 00000000 		.4byte	.LFB4
 2264 01f4 26000000 		.4byte	.LFE4-.LFB4
 2265 01f8 01       		.uleb128 0x1
 2266 01f9 9C       		.byte	0x9c
 2267 01fa 34020000 		.4byte	0x234
 2268 01fe 14       		.uleb128 0x14
 2269 01ff 73747200 		.ascii	"str\000"
 2270 0203 01       		.byte	0x1
 2271 0204 A7       		.byte	0xa7
 2272 0205 34020000 		.4byte	0x234
 2273 0209 00000000 		.4byte	.LLST0
 2274 020d 15       		.uleb128 0x15
 2275 020e 6900     		.ascii	"i\000"
 2276 0210 01       		.byte	0x1
 2277 0211 A9       		.byte	0xa9
 2278 0212 25000000 		.4byte	0x25
 2279 0216 1E000000 		.4byte	.LLST1
 2280 021a 16       		.uleb128 0x16
 2281 021b F4000000 		.4byte	0xf4
 2282 021f 1C000000 		.4byte	.LBB20
 2283 0223 04000000 		.4byte	.LBE20-.LBB20
 2284 0227 01       		.byte	0x1
 2285 0228 AA       		.byte	0xaa
 2286 0229 17       		.uleb128 0x17
 2287 022a 04010000 		.4byte	0x104
 2288 022e 48000000 		.4byte	.LLST2
 2289 0232 00       		.byte	0
 2290 0233 00       		.byte	0
 2291 0234 08       		.uleb128 0x8
ARM GAS  C:\Users\strap\AppData\Local\Temp\ccV4k2oP.s 			page 60


 2292 0235 04       		.byte	0x4
 2293 0236 46010000 		.4byte	0x146
 2294 023a 13       		.uleb128 0x13
 2295 023b FC010000 		.4byte	.LASF27
 2296 023f 01       		.byte	0x1
 2297 0240 B2       		.byte	0xb2
 2298 0241 B0000000 		.4byte	0xb0
 2299 0245 00000000 		.4byte	.LFB5
 2300 0249 7A000000 		.4byte	.LFE5-.LFB5
 2301 024d 01       		.uleb128 0x1
 2302 024e 9C       		.byte	0x9c
 2303 024f 49030000 		.4byte	0x349
 2304 0253 14       		.uleb128 0x14
 2305 0254 6F757400 		.ascii	"out\000"
 2306 0258 01       		.byte	0x1
 2307 0259 B2       		.byte	0xb2
 2308 025a C2000000 		.4byte	0xc2
 2309 025e 68000000 		.4byte	.LLST3
 2310 0262 18       		.uleb128 0x18
 2311 0263 65010000 		.4byte	.LASF22
 2312 0267 01       		.byte	0x1
 2313 0268 B2       		.byte	0xb2
 2314 0269 49030000 		.4byte	0x349
 2315 026d 9C000000 		.4byte	.LLST4
 2316 0271 14       		.uleb128 0x14
 2317 0272 69647800 		.ascii	"idx\000"
 2318 0276 01       		.byte	0x1
 2319 0277 B2       		.byte	0xb2
 2320 0278 B0000000 		.4byte	0xb0
 2321 027c D2000000 		.4byte	.LLST5
 2322 0280 18       		.uleb128 0x18
 2323 0281 26010000 		.4byte	.LASF23
 2324 0285 01       		.byte	0x1
 2325 0286 B2       		.byte	0xb2
 2326 0287 B0000000 		.4byte	0xb0
 2327 028b 27010000 		.4byte	.LLST6
 2328 028f 12       		.uleb128 0x12
 2329 0290 62756600 		.ascii	"buf\000"
 2330 0294 01       		.byte	0x1
 2331 0295 B2       		.byte	0xb2
 2332 0296 46010000 		.4byte	0x146
 2333 029a 02       		.uleb128 0x2
 2334 029b 91       		.byte	0x91
 2335 029c 00       		.sleb128 0
 2336 029d 14       		.uleb128 0x14
 2337 029e 6C656E00 		.ascii	"len\000"
 2338 02a2 01       		.byte	0x1
 2339 02a3 B2       		.byte	0xb2
 2340 02a4 B0000000 		.4byte	0xb0
 2341 02a8 45010000 		.4byte	.LLST7
 2342 02ac 11       		.uleb128 0x11
 2343 02ad 5A000000 		.4byte	.LASF28
 2344 02b1 01       		.byte	0x1
 2345 02b2 B3       		.byte	0xb3
 2346 02b3 25000000 		.4byte	0x25
 2347 02b7 02       		.uleb128 0x2
 2348 02b8 91       		.byte	0x91
ARM GAS  C:\Users\strap\AppData\Local\Temp\ccV4k2oP.s 			page 61


 2349 02b9 08       		.sleb128 8
 2350 02ba 11       		.uleb128 0x11
 2351 02bb FC000000 		.4byte	.LASF29
 2352 02bf 01       		.byte	0x1
 2353 02c0 B3       		.byte	0xb3
 2354 02c1 25000000 		.4byte	0x25
 2355 02c5 02       		.uleb128 0x2
 2356 02c6 91       		.byte	0x91
 2357 02c7 0C       		.sleb128 12
 2358 02c8 19       		.uleb128 0x19
 2359 02c9 44000000 		.4byte	.LASF30
 2360 02cd 01       		.byte	0x1
 2361 02ce B5       		.byte	0xb5
 2362 02cf 4F030000 		.4byte	0x34f
 2363 02d3 6F010000 		.4byte	.LLST8
 2364 02d7 1A       		.uleb128 0x1a
 2365 02d8 00000000 		.4byte	.Ldebug_ranges0+0
 2366 02dc 0D030000 		.4byte	0x30d
 2367 02e0 15       		.uleb128 0x15
 2368 02e1 6900     		.ascii	"i\000"
 2369 02e3 01       		.byte	0x1
 2370 02e4 B9       		.byte	0xb9
 2371 02e5 B0000000 		.4byte	0xb0
 2372 02e9 A3010000 		.4byte	.LLST9
 2373 02ed 1B       		.uleb128 0x1b
 2374 02ee 2E000000 		.4byte	.LVL16
 2375 02f2 1C       		.uleb128 0x1c
 2376 02f3 01       		.uleb128 0x1
 2377 02f4 50       		.byte	0x50
 2378 02f5 02       		.uleb128 0x2
 2379 02f6 08       		.byte	0x8
 2380 02f7 20       		.byte	0x20
 2381 02f8 1C       		.uleb128 0x1c
 2382 02f9 01       		.uleb128 0x1
 2383 02fa 51       		.byte	0x51
 2384 02fb 03       		.uleb128 0x3
 2385 02fc 91       		.byte	0x91
 2386 02fd 54       		.sleb128 -44
 2387 02fe 06       		.byte	0x6
 2388 02ff 1C       		.uleb128 0x1c
 2389 0300 01       		.uleb128 0x1
 2390 0301 52       		.byte	0x52
 2391 0302 02       		.uleb128 0x2
 2392 0303 7A       		.byte	0x7a
 2393 0304 7F       		.sleb128 -1
 2394 0305 1C       		.uleb128 0x1c
 2395 0306 01       		.uleb128 0x1
 2396 0307 53       		.byte	0x53
 2397 0308 02       		.uleb128 0x2
 2398 0309 76       		.byte	0x76
 2399 030a 00       		.sleb128 0
 2400 030b 00       		.byte	0
 2401 030c 00       		.byte	0
 2402 030d 1D       		.uleb128 0x1d
 2403 030e 4A000000 		.4byte	.LVL23
 2404 0312 2A030000 		.4byte	0x32a
 2405 0316 1C       		.uleb128 0x1c
ARM GAS  C:\Users\strap\AppData\Local\Temp\ccV4k2oP.s 			page 62


 2406 0317 01       		.uleb128 0x1
 2407 0318 51       		.byte	0x51
 2408 0319 03       		.uleb128 0x3
 2409 031a 91       		.byte	0x91
 2410 031b 54       		.sleb128 -44
 2411 031c 06       		.byte	0x6
 2412 031d 1C       		.uleb128 0x1c
 2413 031e 01       		.uleb128 0x1
 2414 031f 52       		.byte	0x52
 2415 0320 02       		.uleb128 0x2
 2416 0321 77       		.byte	0x77
 2417 0322 7F       		.sleb128 -1
 2418 0323 1C       		.uleb128 0x1c
 2419 0324 01       		.uleb128 0x1
 2420 0325 53       		.byte	0x53
 2421 0326 02       		.uleb128 0x2
 2422 0327 76       		.byte	0x76
 2423 0328 00       		.sleb128 0
 2424 0329 00       		.byte	0
 2425 032a 1B       		.uleb128 0x1b
 2426 032b 64000000 		.4byte	.LVL27
 2427 032f 1C       		.uleb128 0x1c
 2428 0330 01       		.uleb128 0x1
 2429 0331 50       		.byte	0x50
 2430 0332 02       		.uleb128 0x2
 2431 0333 08       		.byte	0x8
 2432 0334 20       		.byte	0x20
 2433 0335 1C       		.uleb128 0x1c
 2434 0336 01       		.uleb128 0x1
 2435 0337 51       		.byte	0x51
 2436 0338 02       		.uleb128 0x2
 2437 0339 77       		.byte	0x77
 2438 033a 00       		.sleb128 0
 2439 033b 1C       		.uleb128 0x1c
 2440 033c 01       		.uleb128 0x1
 2441 033d 52       		.byte	0x52
 2442 033e 02       		.uleb128 0x2
 2443 033f 74       		.byte	0x74
 2444 0340 7F       		.sleb128 -1
 2445 0341 1C       		.uleb128 0x1c
 2446 0342 01       		.uleb128 0x1
 2447 0343 53       		.byte	0x53
 2448 0344 02       		.uleb128 0x2
 2449 0345 76       		.byte	0x76
 2450 0346 00       		.sleb128 0
 2451 0347 00       		.byte	0
 2452 0348 00       		.byte	0
 2453 0349 08       		.uleb128 0x8
 2454 034a 04       		.byte	0x4
 2455 034b ED000000 		.4byte	0xed
 2456 034f 0F       		.uleb128 0xf
 2457 0350 B0000000 		.4byte	0xb0
 2458 0354 13       		.uleb128 0x13
 2459 0355 81000000 		.4byte	.LASF31
 2460 0359 01       		.byte	0x1
 2461 035a D0       		.byte	0xd0
 2462 035b B0000000 		.4byte	0xb0
ARM GAS  C:\Users\strap\AppData\Local\Temp\ccV4k2oP.s 			page 63


 2463 035f 00000000 		.4byte	.LFB6
 2464 0363 18010000 		.4byte	.LFE6-.LFB6
 2465 0367 01       		.uleb128 0x1
 2466 0368 9C       		.byte	0x9c
 2467 0369 2D040000 		.4byte	0x42d
 2468 036d 14       		.uleb128 0x14
 2469 036e 6F757400 		.ascii	"out\000"
 2470 0372 01       		.byte	0x1
 2471 0373 D0       		.byte	0xd0
 2472 0374 C2000000 		.4byte	0xc2
 2473 0378 C1010000 		.4byte	.LLST10
 2474 037c 18       		.uleb128 0x18
 2475 037d 65010000 		.4byte	.LASF22
 2476 0381 01       		.byte	0x1
 2477 0382 D0       		.byte	0xd0
 2478 0383 49030000 		.4byte	0x349
 2479 0387 E2010000 		.4byte	.LLST11
 2480 038b 14       		.uleb128 0x14
 2481 038c 69647800 		.ascii	"idx\000"
 2482 0390 01       		.byte	0x1
 2483 0391 D0       		.byte	0xd0
 2484 0392 B0000000 		.4byte	0xb0
 2485 0396 03020000 		.4byte	.LLST12
 2486 039a 18       		.uleb128 0x18
 2487 039b 26010000 		.4byte	.LASF23
 2488 039f 01       		.byte	0x1
 2489 03a0 D0       		.byte	0xd0
 2490 03a1 B0000000 		.4byte	0xb0
 2491 03a5 24020000 		.4byte	.LLST13
 2492 03a9 12       		.uleb128 0x12
 2493 03aa 62756600 		.ascii	"buf\000"
 2494 03ae 01       		.byte	0x1
 2495 03af D0       		.byte	0xd0
 2496 03b0 49030000 		.4byte	0x349
 2497 03b4 02       		.uleb128 0x2
 2498 03b5 91       		.byte	0x91
 2499 03b6 00       		.sleb128 0
 2500 03b7 14       		.uleb128 0x14
 2501 03b8 6C656E00 		.ascii	"len\000"
 2502 03bc 01       		.byte	0x1
 2503 03bd D0       		.byte	0xd0
 2504 03be B0000000 		.4byte	0xb0
 2505 03c2 45020000 		.4byte	.LLST14
 2506 03c6 11       		.uleb128 0x11
 2507 03c7 AB000000 		.4byte	.LASF32
 2508 03cb 01       		.byte	0x1
 2509 03cc D1       		.byte	0xd1
 2510 03cd 0F010000 		.4byte	0x10f
 2511 03d1 02       		.uleb128 0x2
 2512 03d2 91       		.byte	0x91
 2513 03d3 08       		.sleb128 8
 2514 03d4 11       		.uleb128 0x11
 2515 03d5 C1020000 		.4byte	.LASF33
 2516 03d9 01       		.byte	0x1
 2517 03da D1       		.byte	0xd1
 2518 03db 25000000 		.4byte	0x25
 2519 03df 02       		.uleb128 0x2
ARM GAS  C:\Users\strap\AppData\Local\Temp\ccV4k2oP.s 			page 64


 2520 03e0 91       		.byte	0x91
 2521 03e1 0C       		.sleb128 12
 2522 03e2 11       		.uleb128 0x11
 2523 03e3 13020000 		.4byte	.LASF34
 2524 03e7 01       		.byte	0x1
 2525 03e8 D1       		.byte	0xd1
 2526 03e9 25000000 		.4byte	0x25
 2527 03ed 02       		.uleb128 0x2
 2528 03ee 91       		.byte	0x91
 2529 03ef 10       		.sleb128 16
 2530 03f0 18       		.uleb128 0x18
 2531 03f1 5A000000 		.4byte	.LASF28
 2532 03f5 01       		.byte	0x1
 2533 03f6 D1       		.byte	0xd1
 2534 03f7 25000000 		.4byte	0x25
 2535 03fb 6A030000 		.4byte	.LLST15
 2536 03ff 11       		.uleb128 0x11
 2537 0400 FC000000 		.4byte	.LASF29
 2538 0404 01       		.byte	0x1
 2539 0405 D1       		.byte	0xd1
 2540 0406 25000000 		.4byte	0x25
 2541 040a 02       		.uleb128 0x2
 2542 040b 91       		.byte	0x91
 2543 040c 18       		.sleb128 24
 2544 040d 1E       		.uleb128 0x1e
 2545 040e 12010000 		.4byte	.LVL56
 2546 0412 3A020000 		.4byte	0x23a
 2547 0416 1C       		.uleb128 0x1c
 2548 0417 02       		.uleb128 0x2
 2549 0418 7D       		.byte	0x7d
 2550 0419 00       		.sleb128 0
 2551 041a 02       		.uleb128 0x2
 2552 041b 75       		.byte	0x75
 2553 041c 00       		.sleb128 0
 2554 041d 1C       		.uleb128 0x1c
 2555 041e 02       		.uleb128 0x2
 2556 041f 7D       		.byte	0x7d
 2557 0420 04       		.sleb128 4
 2558 0421 02       		.uleb128 0x2
 2559 0422 74       		.byte	0x74
 2560 0423 00       		.sleb128 0
 2561 0424 1C       		.uleb128 0x1c
 2562 0425 02       		.uleb128 0x2
 2563 0426 7D       		.byte	0x7d
 2564 0427 0C       		.sleb128 12
 2565 0428 02       		.uleb128 0x2
 2566 0429 76       		.byte	0x76
 2567 042a 00       		.sleb128 0
 2568 042b 00       		.byte	0
 2569 042c 00       		.byte	0
 2570 042d 1F       		.uleb128 0x1f
 2571 042e E5000000 		.4byte	.LASF35
 2572 0432 01       		.byte	0x1
 2573 0433 0701     		.2byte	0x107
 2574 0435 B0000000 		.4byte	0xb0
 2575 0439 00000000 		.4byte	.LFB7
 2576 043d 94000000 		.4byte	.LFE7-.LFB7
ARM GAS  C:\Users\strap\AppData\Local\Temp\ccV4k2oP.s 			page 65


 2577 0441 01       		.uleb128 0x1
 2578 0442 9C       		.byte	0x9c
 2579 0443 4E050000 		.4byte	0x54e
 2580 0447 20       		.uleb128 0x20
 2581 0448 6F757400 		.ascii	"out\000"
 2582 044c 01       		.byte	0x1
 2583 044d 0701     		.2byte	0x107
 2584 044f C2000000 		.4byte	0xc2
 2585 0453 89030000 		.4byte	.LLST16
 2586 0457 21       		.uleb128 0x21
 2587 0458 65010000 		.4byte	.LASF22
 2588 045c 01       		.byte	0x1
 2589 045d 0701     		.2byte	0x107
 2590 045f 49030000 		.4byte	0x349
 2591 0463 AA030000 		.4byte	.LLST17
 2592 0467 20       		.uleb128 0x20
 2593 0468 69647800 		.ascii	"idx\000"
 2594 046c 01       		.byte	0x1
 2595 046d 0701     		.2byte	0x107
 2596 046f B0000000 		.4byte	0xb0
 2597 0473 CB030000 		.4byte	.LLST18
 2598 0477 21       		.uleb128 0x21
 2599 0478 26010000 		.4byte	.LASF23
 2600 047c 01       		.byte	0x1
 2601 047d 0701     		.2byte	0x107
 2602 047f B0000000 		.4byte	0xb0
 2603 0483 EC030000 		.4byte	.LLST19
 2604 0487 21       		.uleb128 0x21
 2605 0488 34000000 		.4byte	.LASF36
 2606 048c 01       		.byte	0x1
 2607 048d 0701     		.2byte	0x107
 2608 048f 4F000000 		.4byte	0x4f
 2609 0493 0D040000 		.4byte	.LLST20
 2610 0497 22       		.uleb128 0x22
 2611 0498 AB000000 		.4byte	.LASF32
 2612 049c 01       		.byte	0x1
 2613 049d 0701     		.2byte	0x107
 2614 049f 0F010000 		.4byte	0x10f
 2615 04a3 02       		.uleb128 0x2
 2616 04a4 91       		.byte	0x91
 2617 04a5 04       		.sleb128 4
 2618 04a6 22       		.uleb128 0x22
 2619 04a7 C1020000 		.4byte	.LASF33
 2620 04ab 01       		.byte	0x1
 2621 04ac 0801     		.2byte	0x108
 2622 04ae 4F000000 		.4byte	0x4f
 2623 04b2 02       		.uleb128 0x2
 2624 04b3 91       		.byte	0x91
 2625 04b4 08       		.sleb128 8
 2626 04b5 22       		.uleb128 0x22
 2627 04b6 13020000 		.4byte	.LASF34
 2628 04ba 01       		.byte	0x1
 2629 04bb 0801     		.2byte	0x108
 2630 04bd 25000000 		.4byte	0x25
 2631 04c1 02       		.uleb128 0x2
 2632 04c2 91       		.byte	0x91
 2633 04c3 0C       		.sleb128 12
ARM GAS  C:\Users\strap\AppData\Local\Temp\ccV4k2oP.s 			page 66


 2634 04c4 22       		.uleb128 0x22
 2635 04c5 5A000000 		.4byte	.LASF28
 2636 04c9 01       		.byte	0x1
 2637 04ca 0801     		.2byte	0x108
 2638 04cc 25000000 		.4byte	0x25
 2639 04d0 02       		.uleb128 0x2
 2640 04d1 91       		.byte	0x91
 2641 04d2 10       		.sleb128 16
 2642 04d3 21       		.uleb128 0x21
 2643 04d4 FC000000 		.4byte	.LASF29
 2644 04d8 01       		.byte	0x1
 2645 04d9 0801     		.2byte	0x108
 2646 04db 25000000 		.4byte	0x25
 2647 04df 38040000 		.4byte	.LLST21
 2648 04e3 23       		.uleb128 0x23
 2649 04e4 62756600 		.ascii	"buf\000"
 2650 04e8 01       		.byte	0x1
 2651 04e9 0A01     		.2byte	0x10a
 2652 04eb 4E050000 		.4byte	0x54e
 2653 04ef 02       		.uleb128 0x2
 2654 04f0 91       		.byte	0x91
 2655 04f1 48       		.sleb128 -56
 2656 04f2 24       		.uleb128 0x24
 2657 04f3 6C656E00 		.ascii	"len\000"
 2658 04f7 01       		.byte	0x1
 2659 04f8 0B01     		.2byte	0x10b
 2660 04fa B0000000 		.4byte	0xb0
 2661 04fe 57040000 		.4byte	.LLST22
 2662 0502 1A       		.uleb128 0x1a
 2663 0503 18000000 		.4byte	.Ldebug_ranges0+0x18
 2664 0507 1C050000 		.4byte	0x51c
 2665 050b 25       		.uleb128 0x25
 2666 050c 27020000 		.4byte	.LASF37
 2667 0510 01       		.byte	0x1
 2668 0511 1501     		.2byte	0x115
 2669 0513 4C010000 		.4byte	0x14c
 2670 0517 A3040000 		.4byte	.LLST23
 2671 051b 00       		.byte	0
 2672 051c 1E       		.uleb128 0x1e
 2673 051d 8E000000 		.4byte	.LVL71
 2674 0521 54030000 		.4byte	0x354
 2675 0525 1C       		.uleb128 0x1c
 2676 0526 02       		.uleb128 0x2
 2677 0527 7D       		.byte	0x7d
 2678 0528 00       		.sleb128 0
 2679 0529 02       		.uleb128 0x2
 2680 052a 74       		.byte	0x74
 2681 052b 00       		.sleb128 0
 2682 052c 1C       		.uleb128 0x1c
 2683 052d 02       		.uleb128 0x2
 2684 052e 7D       		.byte	0x7d
 2685 052f 08       		.sleb128 8
 2686 0530 04       		.uleb128 0x4
 2687 0531 91       		.byte	0x91
 2688 0532 04       		.sleb128 4
 2689 0533 94       		.byte	0x94
 2690 0534 01       		.byte	0x1
ARM GAS  C:\Users\strap\AppData\Local\Temp\ccV4k2oP.s 			page 67


 2691 0535 1C       		.uleb128 0x1c
 2692 0536 02       		.uleb128 0x2
 2693 0537 7D       		.byte	0x7d
 2694 0538 0C       		.sleb128 12
 2695 0539 02       		.uleb128 0x2
 2696 053a 77       		.byte	0x77
 2697 053b 00       		.sleb128 0
 2698 053c 1C       		.uleb128 0x1c
 2699 053d 02       		.uleb128 0x2
 2700 053e 7D       		.byte	0x7d
 2701 053f 10       		.sleb128 16
 2702 0540 03       		.uleb128 0x3
 2703 0541 91       		.byte	0x91
 2704 0542 0C       		.sleb128 12
 2705 0543 06       		.byte	0x6
 2706 0544 1C       		.uleb128 0x1c
 2707 0545 02       		.uleb128 0x2
 2708 0546 7D       		.byte	0x7d
 2709 0547 14       		.sleb128 20
 2710 0548 03       		.uleb128 0x3
 2711 0549 91       		.byte	0x91
 2712 054a 10       		.sleb128 16
 2713 054b 06       		.byte	0x6
 2714 054c 00       		.byte	0
 2715 054d 00       		.byte	0
 2716 054e 26       		.uleb128 0x26
 2717 054f ED000000 		.4byte	0xed
 2718 0553 5E050000 		.4byte	0x55e
 2719 0557 27       		.uleb128 0x27
 2720 0558 5E050000 		.4byte	0x55e
 2721 055c 1F       		.byte	0x1f
 2722 055d 00       		.byte	0
 2723 055e 02       		.uleb128 0x2
 2724 055f 04       		.byte	0x4
 2725 0560 07       		.byte	0x7
 2726 0561 1D000000 		.4byte	.LASF38
 2727 0565 28       		.uleb128 0x28
 2728 0566 84010000 		.4byte	.LASF39
 2729 056a 01       		.byte	0x1
 2730 056b 2101     		.2byte	0x121
 2731 056d B0000000 		.4byte	0xb0
 2732 0571 00000000 		.4byte	.LFB8
 2733 0575 BC000000 		.4byte	.LFE8-.LFB8
 2734 0579 01       		.uleb128 0x1
 2735 057a 9C       		.byte	0x9c
 2736 057b B4060000 		.4byte	0x6b4
 2737 057f 20       		.uleb128 0x20
 2738 0580 6F757400 		.ascii	"out\000"
 2739 0584 01       		.byte	0x1
 2740 0585 2101     		.2byte	0x121
 2741 0587 C2000000 		.4byte	0xc2
 2742 058b 06050000 		.4byte	.LLST24
 2743 058f 21       		.uleb128 0x21
 2744 0590 65010000 		.4byte	.LASF22
 2745 0594 01       		.byte	0x1
 2746 0595 2101     		.2byte	0x121
 2747 0597 49030000 		.4byte	0x349
ARM GAS  C:\Users\strap\AppData\Local\Temp\ccV4k2oP.s 			page 68


 2748 059b 3E050000 		.4byte	.LLST25
 2749 059f 20       		.uleb128 0x20
 2750 05a0 69647800 		.ascii	"idx\000"
 2751 05a4 01       		.byte	0x1
 2752 05a5 2101     		.2byte	0x121
 2753 05a7 B0000000 		.4byte	0xb0
 2754 05ab 76050000 		.4byte	.LLST26
 2755 05af 21       		.uleb128 0x21
 2756 05b0 26010000 		.4byte	.LASF23
 2757 05b4 01       		.byte	0x1
 2758 05b5 2101     		.2byte	0x121
 2759 05b7 B0000000 		.4byte	0xb0
 2760 05bb AE050000 		.4byte	.LLST27
 2761 05bf 21       		.uleb128 0x21
 2762 05c0 34000000 		.4byte	.LASF36
 2763 05c4 01       		.byte	0x1
 2764 05c5 2101     		.2byte	0x121
 2765 05c7 5D000000 		.4byte	0x5d
 2766 05cb CC050000 		.4byte	.LLST28
 2767 05cf 22       		.uleb128 0x22
 2768 05d0 AB000000 		.4byte	.LASF32
 2769 05d4 01       		.byte	0x1
 2770 05d5 2201     		.2byte	0x122
 2771 05d7 0F010000 		.4byte	0x10f
 2772 05db 02       		.uleb128 0x2
 2773 05dc 91       		.byte	0x91
 2774 05dd 08       		.sleb128 8
 2775 05de 22       		.uleb128 0x22
 2776 05df C1020000 		.4byte	.LASF33
 2777 05e3 01       		.byte	0x1
 2778 05e4 2201     		.2byte	0x122
 2779 05e6 5D000000 		.4byte	0x5d
 2780 05ea 02       		.uleb128 0x2
 2781 05eb 91       		.byte	0x91
 2782 05ec 10       		.sleb128 16
 2783 05ed 22       		.uleb128 0x22
 2784 05ee 13020000 		.4byte	.LASF34
 2785 05f2 01       		.byte	0x1
 2786 05f3 2201     		.2byte	0x122
 2787 05f5 25000000 		.4byte	0x25
 2788 05f9 02       		.uleb128 0x2
 2789 05fa 91       		.byte	0x91
 2790 05fb 18       		.sleb128 24
 2791 05fc 22       		.uleb128 0x22
 2792 05fd 5A000000 		.4byte	.LASF28
 2793 0601 01       		.byte	0x1
 2794 0602 2201     		.2byte	0x122
 2795 0604 25000000 		.4byte	0x25
 2796 0608 02       		.uleb128 0x2
 2797 0609 91       		.byte	0x91
 2798 060a 1C       		.sleb128 28
 2799 060b 21       		.uleb128 0x21
 2800 060c FC000000 		.4byte	.LASF29
 2801 0610 01       		.byte	0x1
 2802 0611 2201     		.2byte	0x122
 2803 0613 25000000 		.4byte	0x25
 2804 0617 0C060000 		.4byte	.LLST29
ARM GAS  C:\Users\strap\AppData\Local\Temp\ccV4k2oP.s 			page 69


 2805 061b 23       		.uleb128 0x23
 2806 061c 62756600 		.ascii	"buf\000"
 2807 0620 01       		.byte	0x1
 2808 0621 2401     		.2byte	0x124
 2809 0623 4E050000 		.4byte	0x54e
 2810 0627 03       		.uleb128 0x3
 2811 0628 91       		.byte	0x91
 2812 0629 B87F     		.sleb128 -72
 2813 062b 24       		.uleb128 0x24
 2814 062c 6C656E00 		.ascii	"len\000"
 2815 0630 01       		.byte	0x1
 2816 0631 2501     		.2byte	0x125
 2817 0633 B0000000 		.4byte	0xb0
 2818 0637 2B060000 		.4byte	.LLST30
 2819 063b 1A       		.uleb128 0x1a
 2820 063c 30000000 		.4byte	.Ldebug_ranges0+0x30
 2821 0640 55060000 		.4byte	0x655
 2822 0644 25       		.uleb128 0x25
 2823 0645 27020000 		.4byte	.LASF37
 2824 0649 01       		.byte	0x1
 2825 064a 2F01     		.2byte	0x12f
 2826 064c 4C010000 		.4byte	0x14c
 2827 0650 77060000 		.4byte	.LLST31
 2828 0654 00       		.byte	0
 2829 0655 1E       		.uleb128 0x1e
 2830 0656 B6000000 		.4byte	.LVL90
 2831 065a 54030000 		.4byte	0x354
 2832 065e 1C       		.uleb128 0x1c
 2833 065f 01       		.uleb128 0x1
 2834 0660 50       		.byte	0x50
 2835 0661 04       		.uleb128 0x4
 2836 0662 91       		.byte	0x91
 2837 0663 AC7F     		.sleb128 -84
 2838 0665 06       		.byte	0x6
 2839 0666 1C       		.uleb128 0x1c
 2840 0667 01       		.uleb128 0x1
 2841 0668 51       		.byte	0x51
 2842 0669 04       		.uleb128 0x4
 2843 066a 91       		.byte	0x91
 2844 066b B07F     		.sleb128 -80
 2845 066d 06       		.byte	0x6
 2846 066e 1C       		.uleb128 0x1c
 2847 066f 01       		.uleb128 0x1
 2848 0670 52       		.byte	0x52
 2849 0671 04       		.uleb128 0x4
 2850 0672 91       		.byte	0x91
 2851 0673 B47F     		.sleb128 -76
 2852 0675 06       		.byte	0x6
 2853 0676 1C       		.uleb128 0x1c
 2854 0677 01       		.uleb128 0x1
 2855 0678 53       		.byte	0x53
 2856 0679 02       		.uleb128 0x2
 2857 067a 7B       		.byte	0x7b
 2858 067b 00       		.sleb128 0
 2859 067c 1C       		.uleb128 0x1c
 2860 067d 02       		.uleb128 0x2
 2861 067e 7D       		.byte	0x7d
ARM GAS  C:\Users\strap\AppData\Local\Temp\ccV4k2oP.s 			page 70


 2862 067f 00       		.sleb128 0
 2863 0680 03       		.uleb128 0x3
 2864 0681 91       		.byte	0x91
 2865 0682 B87F     		.sleb128 -72
 2866 0684 1C       		.uleb128 0x1c
 2867 0685 02       		.uleb128 0x2
 2868 0686 7D       		.byte	0x7d
 2869 0687 04       		.sleb128 4
 2870 0688 02       		.uleb128 0x2
 2871 0689 75       		.byte	0x75
 2872 068a 00       		.sleb128 0
 2873 068b 1C       		.uleb128 0x1c
 2874 068c 02       		.uleb128 0x2
 2875 068d 7D       		.byte	0x7d
 2876 068e 08       		.sleb128 8
 2877 068f 04       		.uleb128 0x4
 2878 0690 91       		.byte	0x91
 2879 0691 08       		.sleb128 8
 2880 0692 94       		.byte	0x94
 2881 0693 01       		.byte	0x1
 2882 0694 1C       		.uleb128 0x1c
 2883 0695 02       		.uleb128 0x2
 2884 0696 7D       		.byte	0x7d
 2885 0697 0C       		.sleb128 12
 2886 0698 02       		.uleb128 0x2
 2887 0699 78       		.byte	0x78
 2888 069a 00       		.sleb128 0
 2889 069b 1C       		.uleb128 0x1c
 2890 069c 02       		.uleb128 0x2
 2891 069d 7D       		.byte	0x7d
 2892 069e 10       		.sleb128 16
 2893 069f 03       		.uleb128 0x3
 2894 06a0 91       		.byte	0x91
 2895 06a1 18       		.sleb128 24
 2896 06a2 06       		.byte	0x6
 2897 06a3 1C       		.uleb128 0x1c
 2898 06a4 02       		.uleb128 0x2
 2899 06a5 7D       		.byte	0x7d
 2900 06a6 14       		.sleb128 20
 2901 06a7 03       		.uleb128 0x3
 2902 06a8 91       		.byte	0x91
 2903 06a9 1C       		.sleb128 28
 2904 06aa 06       		.byte	0x6
 2905 06ab 1C       		.uleb128 0x1c
 2906 06ac 02       		.uleb128 0x2
 2907 06ad 7D       		.byte	0x7d
 2908 06ae 18       		.sleb128 24
 2909 06af 02       		.uleb128 0x2
 2910 06b0 7A       		.byte	0x7a
 2911 06b1 00       		.sleb128 0
 2912 06b2 00       		.byte	0
 2913 06b3 00       		.byte	0
 2914 06b4 1F       		.uleb128 0x1f
 2915 06b5 6C010000 		.4byte	.LASF40
 2916 06b9 01       		.byte	0x1
 2917 06ba 3702     		.2byte	0x237
 2918 06bc 64000000 		.4byte	0x64
ARM GAS  C:\Users\strap\AppData\Local\Temp\ccV4k2oP.s 			page 71


 2919 06c0 00000000 		.4byte	.LFB9
 2920 06c4 F2050000 		.4byte	.LFE9-.LFB9
 2921 06c8 01       		.uleb128 0x1
 2922 06c9 9C       		.byte	0x9c
 2923 06ca 300C0000 		.4byte	0xc30
 2924 06ce 20       		.uleb128 0x20
 2925 06cf 6F757400 		.ascii	"out\000"
 2926 06d3 01       		.byte	0x1
 2927 06d4 3702     		.2byte	0x237
 2928 06d6 C2000000 		.4byte	0xc2
 2929 06da A2060000 		.4byte	.LLST32
 2930 06de 21       		.uleb128 0x21
 2931 06df 65010000 		.4byte	.LASF22
 2932 06e3 01       		.byte	0x1
 2933 06e4 3702     		.2byte	0x237
 2934 06e6 49030000 		.4byte	0x349
 2935 06ea C0060000 		.4byte	.LLST33
 2936 06ee 21       		.uleb128 0x21
 2937 06ef 26010000 		.4byte	.LASF23
 2938 06f3 01       		.byte	0x1
 2939 06f4 3702     		.2byte	0x237
 2940 06f6 4F030000 		.4byte	0x34f
 2941 06fa DF060000 		.4byte	.LLST34
 2942 06fe 21       		.uleb128 0x21
 2943 06ff C6020000 		.4byte	.LASF41
 2944 0703 01       		.byte	0x1
 2945 0704 3702     		.2byte	0x237
 2946 0706 46010000 		.4byte	0x146
 2947 070a FE060000 		.4byte	.LLST35
 2948 070e 29       		.uleb128 0x29
 2949 070f 766100   		.ascii	"va\000"
 2950 0712 01       		.byte	0x1
 2951 0713 3702     		.2byte	0x237
 2952 0715 A5000000 		.4byte	0xa5
 2953 0719 02       		.uleb128 0x2
 2954 071a 91       		.byte	0x91
 2955 071b 00       		.sleb128 0
 2956 071c 25       		.uleb128 0x25
 2957 071d FC000000 		.4byte	.LASF29
 2958 0721 01       		.byte	0x1
 2959 0722 3902     		.2byte	0x239
 2960 0724 25000000 		.4byte	0x25
 2961 0728 11070000 		.4byte	.LLST36
 2962 072c 25       		.uleb128 0x25
 2963 072d 5A000000 		.4byte	.LASF28
 2964 0731 01       		.byte	0x1
 2965 0732 3902     		.2byte	0x239
 2966 0734 25000000 		.4byte	0x25
 2967 0738 C6070000 		.4byte	.LLST37
 2968 073c 25       		.uleb128 0x25
 2969 073d CD020000 		.4byte	.LASF42
 2970 0741 01       		.byte	0x1
 2971 0742 3902     		.2byte	0x239
 2972 0744 25000000 		.4byte	0x25
 2973 0748 41080000 		.4byte	.LLST38
 2974 074c 24       		.uleb128 0x24
 2975 074d 6E00     		.ascii	"n\000"
ARM GAS  C:\Users\strap\AppData\Local\Temp\ccV4k2oP.s 			page 72


 2976 074f 01       		.byte	0x1
 2977 0750 3902     		.2byte	0x239
 2978 0752 25000000 		.4byte	0x25
 2979 0756 BA080000 		.4byte	.LLST39
 2980 075a 24       		.uleb128 0x24
 2981 075b 69647800 		.ascii	"idx\000"
 2982 075f 01       		.byte	0x1
 2983 0760 3A02     		.2byte	0x23a
 2984 0762 B0000000 		.4byte	0xb0
 2985 0766 09090000 		.4byte	.LLST40
 2986 076a 2A       		.uleb128 0x2a
 2987 076b F4000000 		.4byte	0xf4
 2988 076f 9C000000 		.4byte	.LBB28
 2989 0773 06000000 		.4byte	.LBE28-.LBB28
 2990 0777 01       		.byte	0x1
 2991 0778 7302     		.2byte	0x273
 2992 077a 88070000 		.4byte	0x788
 2993 077e 17       		.uleb128 0x17
 2994 077f 04010000 		.4byte	0x104
 2995 0783 CA0A0000 		.4byte	.LLST41
 2996 0787 00       		.byte	0
 2997 0788 2B       		.uleb128 0x2b
 2998 0789 B4000000 		.4byte	.LBB30
 2999 078d 20000000 		.4byte	.LBE30-.LBB30
 3000 0791 A4070000 		.4byte	0x7a4
 3001 0795 24       		.uleb128 0x24
 3002 0796 7700     		.ascii	"w\000"
 3003 0798 01       		.byte	0x1
 3004 0799 7702     		.2byte	0x277
 3005 079b 300C0000 		.4byte	0xc30
 3006 079f DD0A0000 		.4byte	.LLST42
 3007 07a3 00       		.byte	0
 3008 07a4 2A       		.uleb128 0x2a
 3009 07a5 F4000000 		.4byte	0xf4
 3010 07a9 EA000000 		.4byte	.LBB31
 3011 07ad 06000000 		.4byte	.LBE31-.LBB31
 3012 07b1 01       		.byte	0x1
 3013 07b2 8702     		.2byte	0x287
 3014 07b4 C2070000 		.4byte	0x7c2
 3015 07b8 17       		.uleb128 0x17
 3016 07b9 04010000 		.4byte	0x104
 3017 07bd F00A0000 		.4byte	.LLST43
 3018 07c1 00       		.byte	0
 3019 07c2 2B       		.uleb128 0x2b
 3020 07c3 02010000 		.4byte	.LBB33
 3021 07c7 14000000 		.4byte	.LBE33-.LBB33
 3022 07cb E0070000 		.4byte	0x7e0
 3023 07cf 25       		.uleb128 0x25
 3024 07d0 13020000 		.4byte	.LASF34
 3025 07d4 01       		.byte	0x1
 3026 07d5 8B02     		.2byte	0x28b
 3027 07d7 300C0000 		.4byte	0xc30
 3028 07db 030B0000 		.4byte	.LLST44
 3029 07df 00       		.byte	0
 3030 07e0 2B       		.uleb128 0x2b
 3031 07e1 54020000 		.4byte	.LBB34
 3032 07e5 02020000 		.4byte	.LBE34-.LBB34
ARM GAS  C:\Users\strap\AppData\Local\Temp\ccV4k2oP.s 			page 73


 3033 07e9 E9090000 		.4byte	0x9e9
 3034 07ed 25       		.uleb128 0x25
 3035 07ee C1020000 		.4byte	.LASF33
 3036 07f2 01       		.byte	0x1
 3037 07f3 BF02     		.2byte	0x2bf
 3038 07f5 25000000 		.4byte	0x25
 3039 07f9 160B0000 		.4byte	.LLST45
 3040 07fd 2B       		.uleb128 0x2b
 3041 07fe A6020000 		.4byte	.LBB35
 3042 0802 4A000000 		.4byte	.LBE35-.LBB35
 3043 0806 5B080000 		.4byte	0x85b
 3044 080a 25       		.uleb128 0x25
 3045 080b 34000000 		.4byte	.LASF36
 3046 080f 01       		.byte	0x1
 3047 0810 E102     		.2byte	0x2e1
 3048 0812 350C0000 		.4byte	0xc35
 3049 0816 BA0B0000 		.4byte	.LLST46
 3050 081a 1E       		.uleb128 0x1e
 3051 081b EE020000 		.4byte	.LVL161
 3052 081f 65050000 		.4byte	0x565
 3053 0823 1C       		.uleb128 0x1c
 3054 0824 01       		.uleb128 0x1
 3055 0825 50       		.byte	0x50
 3056 0826 02       		.uleb128 0x2
 3057 0827 76       		.byte	0x76
 3058 0828 00       		.sleb128 0
 3059 0829 1C       		.uleb128 0x1c
 3060 082a 01       		.uleb128 0x1
 3061 082b 51       		.byte	0x51
 3062 082c 03       		.uleb128 0x3
 3063 082d 91       		.byte	0x91
 3064 082e 4C       		.sleb128 -52
 3065 082f 06       		.byte	0x6
 3066 0830 1C       		.uleb128 0x1c
 3067 0831 01       		.uleb128 0x1
 3068 0832 52       		.byte	0x52
 3069 0833 02       		.uleb128 0x2
 3070 0834 74       		.byte	0x74
 3071 0835 00       		.sleb128 0
 3072 0836 1C       		.uleb128 0x1c
 3073 0837 01       		.uleb128 0x1
 3074 0838 53       		.byte	0x53
 3075 0839 03       		.uleb128 0x3
 3076 083a 91       		.byte	0x91
 3077 083b 48       		.sleb128 -56
 3078 083c 06       		.byte	0x6
 3079 083d 1C       		.uleb128 0x1c
 3080 083e 02       		.uleb128 0x2
 3081 083f 7D       		.byte	0x7d
 3082 0840 08       		.sleb128 8
 3083 0841 02       		.uleb128 0x2
 3084 0842 75       		.byte	0x75
 3085 0843 00       		.sleb128 0
 3086 0844 1C       		.uleb128 0x1c
 3087 0845 02       		.uleb128 0x2
 3088 0846 7D       		.byte	0x7d
 3089 0847 18       		.sleb128 24
ARM GAS  C:\Users\strap\AppData\Local\Temp\ccV4k2oP.s 			page 74


 3090 0848 02       		.uleb128 0x2
 3091 0849 78       		.byte	0x78
 3092 084a 00       		.sleb128 0
 3093 084b 1C       		.uleb128 0x1c
 3094 084c 02       		.uleb128 0x2
 3095 084d 7D       		.byte	0x7d
 3096 084e 1C       		.sleb128 28
 3097 084f 02       		.uleb128 0x2
 3098 0850 79       		.byte	0x79
 3099 0851 00       		.sleb128 0
 3100 0852 1C       		.uleb128 0x1c
 3101 0853 02       		.uleb128 0x2
 3102 0854 7D       		.byte	0x7d
 3103 0855 20       		.sleb128 32
 3104 0856 02       		.uleb128 0x2
 3105 0857 7A       		.byte	0x7a
 3106 0858 00       		.sleb128 0
 3107 0859 00       		.byte	0
 3108 085a 00       		.byte	0
 3109 085b 2B       		.uleb128 0x2b
 3110 085c F8020000 		.4byte	.LBB36
 3111 0860 34000000 		.4byte	.LBE36-.LBB36
 3112 0864 B2080000 		.4byte	0x8b2
 3113 0868 25       		.uleb128 0x25
 3114 0869 34000000 		.4byte	.LASF36
 3115 086d 01       		.byte	0x1
 3116 086e E702     		.2byte	0x2e7
 3117 0870 3A0C0000 		.4byte	0xc3a
 3118 0874 0F0C0000 		.4byte	.LLST47
 3119 0878 1E       		.uleb128 0x1e
 3120 0879 2A030000 		.4byte	.LVL168
 3121 087d 2D040000 		.4byte	0x42d
 3122 0881 1C       		.uleb128 0x1c
 3123 0882 01       		.uleb128 0x1
 3124 0883 50       		.byte	0x50
 3125 0884 02       		.uleb128 0x2
 3126 0885 76       		.byte	0x76
 3127 0886 00       		.sleb128 0
 3128 0887 1C       		.uleb128 0x1c
 3129 0888 01       		.uleb128 0x1
 3130 0889 51       		.byte	0x51
 3131 088a 03       		.uleb128 0x3
 3132 088b 91       		.byte	0x91
 3133 088c 4C       		.sleb128 -52
 3134 088d 06       		.byte	0x6
 3135 088e 1C       		.uleb128 0x1c
 3136 088f 01       		.uleb128 0x1
 3137 0890 52       		.byte	0x52
 3138 0891 02       		.uleb128 0x2
 3139 0892 74       		.byte	0x74
 3140 0893 00       		.sleb128 0
 3141 0894 1C       		.uleb128 0x1c
 3142 0895 01       		.uleb128 0x1
 3143 0896 53       		.byte	0x53
 3144 0897 03       		.uleb128 0x3
 3145 0898 91       		.byte	0x91
 3146 0899 48       		.sleb128 -56
ARM GAS  C:\Users\strap\AppData\Local\Temp\ccV4k2oP.s 			page 75


 3147 089a 06       		.byte	0x6
 3148 089b 1C       		.uleb128 0x1c
 3149 089c 02       		.uleb128 0x2
 3150 089d 7D       		.byte	0x7d
 3151 089e 0C       		.sleb128 12
 3152 089f 02       		.uleb128 0x2
 3153 08a0 78       		.byte	0x78
 3154 08a1 00       		.sleb128 0
 3155 08a2 1C       		.uleb128 0x1c
 3156 08a3 02       		.uleb128 0x2
 3157 08a4 7D       		.byte	0x7d
 3158 08a5 10       		.sleb128 16
 3159 08a6 02       		.uleb128 0x2
 3160 08a7 79       		.byte	0x79
 3161 08a8 00       		.sleb128 0
 3162 08a9 1C       		.uleb128 0x1c
 3163 08aa 02       		.uleb128 0x2
 3164 08ab 7D       		.byte	0x7d
 3165 08ac 14       		.sleb128 20
 3166 08ad 02       		.uleb128 0x2
 3167 08ae 7A       		.byte	0x7a
 3168 08af 00       		.sleb128 0
 3169 08b0 00       		.byte	0
 3170 08b1 00       		.byte	0
 3171 08b2 2B       		.uleb128 0x2b
 3172 08b3 2E030000 		.4byte	.LBB37
 3173 08b7 5C000000 		.4byte	.LBE37-.LBB37
 3174 08bb 09090000 		.4byte	0x909
 3175 08bf 25       		.uleb128 0x25
 3176 08c0 34000000 		.4byte	.LASF36
 3177 08c4 01       		.byte	0x1
 3178 08c5 EC02     		.2byte	0x2ec
 3179 08c7 300C0000 		.4byte	0xc30
 3180 08cb 310C0000 		.4byte	.LLST48
 3181 08cf 1E       		.uleb128 0x1e
 3182 08d0 86030000 		.4byte	.LVL174
 3183 08d4 2D040000 		.4byte	0x42d
 3184 08d8 1C       		.uleb128 0x1c
 3185 08d9 01       		.uleb128 0x1
 3186 08da 50       		.byte	0x50
 3187 08db 02       		.uleb128 0x2
 3188 08dc 76       		.byte	0x76
 3189 08dd 00       		.sleb128 0
 3190 08de 1C       		.uleb128 0x1c
 3191 08df 01       		.uleb128 0x1
 3192 08e0 51       		.byte	0x51
 3193 08e1 03       		.uleb128 0x3
 3194 08e2 91       		.byte	0x91
 3195 08e3 4C       		.sleb128 -52
 3196 08e4 06       		.byte	0x6
 3197 08e5 1C       		.uleb128 0x1c
 3198 08e6 01       		.uleb128 0x1
 3199 08e7 52       		.byte	0x52
 3200 08e8 02       		.uleb128 0x2
 3201 08e9 74       		.byte	0x74
 3202 08ea 00       		.sleb128 0
 3203 08eb 1C       		.uleb128 0x1c
ARM GAS  C:\Users\strap\AppData\Local\Temp\ccV4k2oP.s 			page 76


 3204 08ec 01       		.uleb128 0x1
 3205 08ed 53       		.byte	0x53
 3206 08ee 03       		.uleb128 0x3
 3207 08ef 91       		.byte	0x91
 3208 08f0 48       		.sleb128 -56
 3209 08f1 06       		.byte	0x6
 3210 08f2 1C       		.uleb128 0x1c
 3211 08f3 02       		.uleb128 0x2
 3212 08f4 7D       		.byte	0x7d
 3213 08f5 0C       		.sleb128 12
 3214 08f6 02       		.uleb128 0x2
 3215 08f7 78       		.byte	0x78
 3216 08f8 00       		.sleb128 0
 3217 08f9 1C       		.uleb128 0x1c
 3218 08fa 02       		.uleb128 0x2
 3219 08fb 7D       		.byte	0x7d
 3220 08fc 10       		.sleb128 16
 3221 08fd 02       		.uleb128 0x2
 3222 08fe 79       		.byte	0x79
 3223 08ff 00       		.sleb128 0
 3224 0900 1C       		.uleb128 0x1c
 3225 0901 02       		.uleb128 0x2
 3226 0902 7D       		.byte	0x7d
 3227 0903 14       		.sleb128 20
 3228 0904 02       		.uleb128 0x2
 3229 0905 7A       		.byte	0x7a
 3230 0906 00       		.sleb128 0
 3231 0907 00       		.byte	0
 3232 0908 00       		.byte	0
 3233 0909 2B       		.uleb128 0x2b
 3234 090a FE030000 		.4byte	.LBB38
 3235 090e 50000000 		.4byte	.LBE38-.LBB38
 3236 0912 66090000 		.4byte	0x966
 3237 0916 25       		.uleb128 0x25
 3238 0917 34000000 		.4byte	.LASF36
 3239 091b 01       		.byte	0x1
 3240 091c FD02     		.2byte	0x2fd
 3241 091e 3F0C0000 		.4byte	0xc3f
 3242 0922 440C0000 		.4byte	.LLST49
 3243 0926 1E       		.uleb128 0x1e
 3244 0927 4C040000 		.4byte	.LVL188
 3245 092b 2D040000 		.4byte	0x42d
 3246 092f 1C       		.uleb128 0x1c
 3247 0930 01       		.uleb128 0x1
 3248 0931 50       		.byte	0x50
 3249 0932 02       		.uleb128 0x2
 3250 0933 76       		.byte	0x76
 3251 0934 00       		.sleb128 0
 3252 0935 1C       		.uleb128 0x1c
 3253 0936 01       		.uleb128 0x1
 3254 0937 51       		.byte	0x51
 3255 0938 03       		.uleb128 0x3
 3256 0939 91       		.byte	0x91
 3257 093a 4C       		.sleb128 -52
 3258 093b 06       		.byte	0x6
 3259 093c 1C       		.uleb128 0x1c
 3260 093d 01       		.uleb128 0x1
ARM GAS  C:\Users\strap\AppData\Local\Temp\ccV4k2oP.s 			page 77


 3261 093e 52       		.byte	0x52
 3262 093f 02       		.uleb128 0x2
 3263 0940 74       		.byte	0x74
 3264 0941 00       		.sleb128 0
 3265 0942 1C       		.uleb128 0x1c
 3266 0943 01       		.uleb128 0x1
 3267 0944 53       		.byte	0x53
 3268 0945 03       		.uleb128 0x3
 3269 0946 91       		.byte	0x91
 3270 0947 48       		.sleb128 -56
 3271 0948 06       		.byte	0x6
 3272 0949 1C       		.uleb128 0x1c
 3273 094a 02       		.uleb128 0x2
 3274 094b 7D       		.byte	0x7d
 3275 094c 04       		.sleb128 4
 3276 094d 01       		.uleb128 0x1
 3277 094e 30       		.byte	0x30
 3278 094f 1C       		.uleb128 0x1c
 3279 0950 02       		.uleb128 0x2
 3280 0951 7D       		.byte	0x7d
 3281 0952 0C       		.sleb128 12
 3282 0953 02       		.uleb128 0x2
 3283 0954 78       		.byte	0x78
 3284 0955 00       		.sleb128 0
 3285 0956 1C       		.uleb128 0x1c
 3286 0957 02       		.uleb128 0x2
 3287 0958 7D       		.byte	0x7d
 3288 0959 10       		.sleb128 16
 3289 095a 02       		.uleb128 0x2
 3290 095b 79       		.byte	0x79
 3291 095c 00       		.sleb128 0
 3292 095d 1C       		.uleb128 0x1c
 3293 095e 02       		.uleb128 0x2
 3294 095f 7D       		.byte	0x7d
 3295 0960 14       		.sleb128 20
 3296 0961 02       		.uleb128 0x2
 3297 0962 7A       		.byte	0x7a
 3298 0963 00       		.sleb128 0
 3299 0964 00       		.byte	0
 3300 0965 00       		.byte	0
 3301 0966 2C       		.uleb128 0x2c
 3302 0967 C6030000 		.4byte	.LVL178
 3303 096b 65050000 		.4byte	0x565
 3304 096f A9090000 		.4byte	0x9a9
 3305 0973 1C       		.uleb128 0x1c
 3306 0974 01       		.uleb128 0x1
 3307 0975 50       		.byte	0x50
 3308 0976 02       		.uleb128 0x2
 3309 0977 76       		.byte	0x76
 3310 0978 00       		.sleb128 0
 3311 0979 1C       		.uleb128 0x1c
 3312 097a 01       		.uleb128 0x1
 3313 097b 51       		.byte	0x51
 3314 097c 03       		.uleb128 0x3
 3315 097d 91       		.byte	0x91
 3316 097e 4C       		.sleb128 -52
 3317 097f 06       		.byte	0x6
ARM GAS  C:\Users\strap\AppData\Local\Temp\ccV4k2oP.s 			page 78


 3318 0980 1C       		.uleb128 0x1c
 3319 0981 01       		.uleb128 0x1
 3320 0982 52       		.byte	0x52
 3321 0983 02       		.uleb128 0x2
 3322 0984 74       		.byte	0x74
 3323 0985 00       		.sleb128 0
 3324 0986 1C       		.uleb128 0x1c
 3325 0987 01       		.uleb128 0x1
 3326 0988 53       		.byte	0x53
 3327 0989 03       		.uleb128 0x3
 3328 098a 91       		.byte	0x91
 3329 098b 48       		.sleb128 -56
 3330 098c 06       		.byte	0x6
 3331 098d 1C       		.uleb128 0x1c
 3332 098e 02       		.uleb128 0x2
 3333 098f 7D       		.byte	0x7d
 3334 0990 08       		.sleb128 8
 3335 0991 01       		.uleb128 0x1
 3336 0992 30       		.byte	0x30
 3337 0993 1C       		.uleb128 0x1c
 3338 0994 02       		.uleb128 0x2
 3339 0995 7D       		.byte	0x7d
 3340 0996 18       		.sleb128 24
 3341 0997 02       		.uleb128 0x2
 3342 0998 78       		.byte	0x78
 3343 0999 00       		.sleb128 0
 3344 099a 1C       		.uleb128 0x1c
 3345 099b 02       		.uleb128 0x2
 3346 099c 7D       		.byte	0x7d
 3347 099d 1C       		.sleb128 28
 3348 099e 02       		.uleb128 0x2
 3349 099f 79       		.byte	0x79
 3350 09a0 00       		.sleb128 0
 3351 09a1 1C       		.uleb128 0x1c
 3352 09a2 02       		.uleb128 0x2
 3353 09a3 7D       		.byte	0x7d
 3354 09a4 20       		.sleb128 32
 3355 09a5 02       		.uleb128 0x2
 3356 09a6 7A       		.byte	0x7a
 3357 09a7 00       		.sleb128 0
 3358 09a8 00       		.byte	0
 3359 09a9 1E       		.uleb128 0x1e
 3360 09aa FA030000 		.4byte	.LVL182
 3361 09ae 2D040000 		.4byte	0x42d
 3362 09b2 1C       		.uleb128 0x1c
 3363 09b3 01       		.uleb128 0x1
 3364 09b4 50       		.byte	0x50
 3365 09b5 02       		.uleb128 0x2
 3366 09b6 76       		.byte	0x76
 3367 09b7 00       		.sleb128 0
 3368 09b8 1C       		.uleb128 0x1c
 3369 09b9 01       		.uleb128 0x1
 3370 09ba 51       		.byte	0x51
 3371 09bb 03       		.uleb128 0x3
 3372 09bc 91       		.byte	0x91
 3373 09bd 4C       		.sleb128 -52
 3374 09be 06       		.byte	0x6
ARM GAS  C:\Users\strap\AppData\Local\Temp\ccV4k2oP.s 			page 79


 3375 09bf 1C       		.uleb128 0x1c
 3376 09c0 01       		.uleb128 0x1
 3377 09c1 52       		.byte	0x52
 3378 09c2 02       		.uleb128 0x2
 3379 09c3 74       		.byte	0x74
 3380 09c4 00       		.sleb128 0
 3381 09c5 1C       		.uleb128 0x1c
 3382 09c6 01       		.uleb128 0x1
 3383 09c7 53       		.byte	0x53
 3384 09c8 03       		.uleb128 0x3
 3385 09c9 91       		.byte	0x91
 3386 09ca 48       		.sleb128 -56
 3387 09cb 06       		.byte	0x6
 3388 09cc 1C       		.uleb128 0x1c
 3389 09cd 02       		.uleb128 0x2
 3390 09ce 7D       		.byte	0x7d
 3391 09cf 04       		.sleb128 4
 3392 09d0 01       		.uleb128 0x1
 3393 09d1 30       		.byte	0x30
 3394 09d2 1C       		.uleb128 0x1c
 3395 09d3 02       		.uleb128 0x2
 3396 09d4 7D       		.byte	0x7d
 3397 09d5 0C       		.sleb128 12
 3398 09d6 02       		.uleb128 0x2
 3399 09d7 78       		.byte	0x78
 3400 09d8 00       		.sleb128 0
 3401 09d9 1C       		.uleb128 0x1c
 3402 09da 02       		.uleb128 0x2
 3403 09db 7D       		.byte	0x7d
 3404 09dc 10       		.sleb128 16
 3405 09dd 02       		.uleb128 0x2
 3406 09de 79       		.byte	0x79
 3407 09df 00       		.sleb128 0
 3408 09e0 1C       		.uleb128 0x1c
 3409 09e1 02       		.uleb128 0x2
 3410 09e2 7D       		.byte	0x7d
 3411 09e3 14       		.sleb128 20
 3412 09e4 02       		.uleb128 0x2
 3413 09e5 7A       		.byte	0x7a
 3414 09e6 00       		.sleb128 0
 3415 09e7 00       		.byte	0
 3416 09e8 00       		.byte	0
 3417 09e9 2B       		.uleb128 0x2b
 3418 09ea 56040000 		.4byte	.LBB39
 3419 09ee 66000000 		.4byte	.LBE39-.LBB39
 3420 09f2 670A0000 		.4byte	0xa67
 3421 09f6 24       		.uleb128 0x24
 3422 09f7 6C00     		.ascii	"l\000"
 3423 09f9 01       		.byte	0x1
 3424 09fa 1903     		.2byte	0x319
 3425 09fc 25000000 		.4byte	0x25
 3426 0a00 630C0000 		.4byte	.LLST50
 3427 0a04 1D       		.uleb128 0x1d
 3428 0a05 6A040000 		.4byte	.LVL194
 3429 0a09 280A0000 		.4byte	0xa28
 3430 0a0d 1C       		.uleb128 0x1c
 3431 0a0e 01       		.uleb128 0x1
ARM GAS  C:\Users\strap\AppData\Local\Temp\ccV4k2oP.s 			page 80


 3432 0a0f 50       		.byte	0x50
 3433 0a10 02       		.uleb128 0x2
 3434 0a11 08       		.byte	0x8
 3435 0a12 20       		.byte	0x20
 3436 0a13 1C       		.uleb128 0x1c
 3437 0a14 01       		.uleb128 0x1
 3438 0a15 51       		.byte	0x51
 3439 0a16 03       		.uleb128 0x3
 3440 0a17 91       		.byte	0x91
 3441 0a18 4C       		.sleb128 -52
 3442 0a19 06       		.byte	0x6
 3443 0a1a 1C       		.uleb128 0x1c
 3444 0a1b 01       		.uleb128 0x1
 3445 0a1c 52       		.byte	0x52
 3446 0a1d 02       		.uleb128 0x2
 3447 0a1e 74       		.byte	0x74
 3448 0a1f 7F       		.sleb128 -1
 3449 0a20 1C       		.uleb128 0x1c
 3450 0a21 01       		.uleb128 0x1
 3451 0a22 53       		.byte	0x53
 3452 0a23 03       		.uleb128 0x3
 3453 0a24 91       		.byte	0x91
 3454 0a25 48       		.sleb128 -56
 3455 0a26 06       		.byte	0x6
 3456 0a27 00       		.byte	0
 3457 0a28 1D       		.uleb128 0x1d
 3458 0a29 90040000 		.4byte	.LVL200
 3459 0a2d 460A0000 		.4byte	0xa46
 3460 0a31 1C       		.uleb128 0x1c
 3461 0a32 01       		.uleb128 0x1
 3462 0a33 51       		.byte	0x51
 3463 0a34 03       		.uleb128 0x3
 3464 0a35 91       		.byte	0x91
 3465 0a36 4C       		.sleb128 -52
 3466 0a37 06       		.byte	0x6
 3467 0a38 1C       		.uleb128 0x1c
 3468 0a39 01       		.uleb128 0x1
 3469 0a3a 52       		.byte	0x52
 3470 0a3b 02       		.uleb128 0x2
 3471 0a3c 77       		.byte	0x77
 3472 0a3d 7F       		.sleb128 -1
 3473 0a3e 1C       		.uleb128 0x1c
 3474 0a3f 01       		.uleb128 0x1
 3475 0a40 53       		.byte	0x53
 3476 0a41 03       		.uleb128 0x3
 3477 0a42 91       		.byte	0x91
 3478 0a43 48       		.sleb128 -56
 3479 0a44 06       		.byte	0x6
 3480 0a45 00       		.byte	0
 3481 0a46 1B       		.uleb128 0x1b
 3482 0a47 A2040000 		.4byte	.LVL203
 3483 0a4b 1C       		.uleb128 0x1c
 3484 0a4c 01       		.uleb128 0x1
 3485 0a4d 50       		.byte	0x50
 3486 0a4e 02       		.uleb128 0x2
 3487 0a4f 08       		.byte	0x8
 3488 0a50 20       		.byte	0x20
ARM GAS  C:\Users\strap\AppData\Local\Temp\ccV4k2oP.s 			page 81


 3489 0a51 1C       		.uleb128 0x1c
 3490 0a52 01       		.uleb128 0x1
 3491 0a53 51       		.byte	0x51
 3492 0a54 03       		.uleb128 0x3
 3493 0a55 91       		.byte	0x91
 3494 0a56 4C       		.sleb128 -52
 3495 0a57 06       		.byte	0x6
 3496 0a58 1C       		.uleb128 0x1c
 3497 0a59 01       		.uleb128 0x1
 3498 0a5a 52       		.byte	0x52
 3499 0a5b 02       		.uleb128 0x2
 3500 0a5c 77       		.byte	0x77
 3501 0a5d 7F       		.sleb128 -1
 3502 0a5e 1C       		.uleb128 0x1c
 3503 0a5f 01       		.uleb128 0x1
 3504 0a60 53       		.byte	0x53
 3505 0a61 03       		.uleb128 0x3
 3506 0a62 91       		.byte	0x91
 3507 0a63 48       		.sleb128 -56
 3508 0a64 06       		.byte	0x6
 3509 0a65 00       		.byte	0
 3510 0a66 00       		.byte	0
 3511 0a67 2B       		.uleb128 0x2b
 3512 0a68 BC040000 		.4byte	.LBB40
 3513 0a6c B0000000 		.4byte	.LBE40-.LBB40
 3514 0a70 290B0000 		.4byte	0xb29
 3515 0a74 24       		.uleb128 0x24
 3516 0a75 7000     		.ascii	"p\000"
 3517 0a77 01       		.byte	0x1
 3518 0a78 2D03     		.2byte	0x32d
 3519 0a7a 46010000 		.4byte	0x146
 3520 0a7e C50C0000 		.4byte	.LLST51
 3521 0a82 24       		.uleb128 0x24
 3522 0a83 6C00     		.ascii	"l\000"
 3523 0a85 01       		.byte	0x1
 3524 0a86 2E03     		.2byte	0x32e
 3525 0a88 25000000 		.4byte	0x25
 3526 0a8c D80C0000 		.4byte	.LLST52
 3527 0a90 2A       		.uleb128 0x2a
 3528 0a91 16010000 		.4byte	0x116
 3529 0a95 D6040000 		.4byte	.LBB41
 3530 0a99 10000000 		.4byte	.LBE41-.LBB41
 3531 0a9d 01       		.byte	0x1
 3532 0a9e 2E03     		.2byte	0x32e
 3533 0aa0 C60A0000 		.4byte	0xac6
 3534 0aa4 17       		.uleb128 0x17
 3535 0aa5 31010000 		.4byte	0x131
 3536 0aa9 380D0000 		.4byte	.LLST53
 3537 0aad 2D       		.uleb128 0x2d
 3538 0aae 26010000 		.4byte	0x126
 3539 0ab2 2E       		.uleb128 0x2e
 3540 0ab3 D6040000 		.4byte	.LBB42
 3541 0ab7 10000000 		.4byte	.LBE42-.LBB42
 3542 0abb 2F       		.uleb128 0x2f
 3543 0abc 3C010000 		.4byte	0x13c
 3544 0ac0 610D0000 		.4byte	.LLST54
 3545 0ac4 00       		.byte	0
ARM GAS  C:\Users\strap\AppData\Local\Temp\ccV4k2oP.s 			page 82


 3546 0ac5 00       		.byte	0
 3547 0ac6 1D       		.uleb128 0x1d
 3548 0ac7 0E050000 		.4byte	.LVL221
 3549 0acb EA0A0000 		.4byte	0xaea
 3550 0acf 1C       		.uleb128 0x1c
 3551 0ad0 01       		.uleb128 0x1
 3552 0ad1 50       		.byte	0x50
 3553 0ad2 02       		.uleb128 0x2
 3554 0ad3 08       		.byte	0x8
 3555 0ad4 20       		.byte	0x20
 3556 0ad5 1C       		.uleb128 0x1c
 3557 0ad6 01       		.uleb128 0x1
 3558 0ad7 51       		.byte	0x51
 3559 0ad8 03       		.uleb128 0x3
 3560 0ad9 91       		.byte	0x91
 3561 0ada 4C       		.sleb128 -52
 3562 0adb 06       		.byte	0x6
 3563 0adc 1C       		.uleb128 0x1c
 3564 0add 01       		.uleb128 0x1
 3565 0ade 52       		.byte	0x52
 3566 0adf 02       		.uleb128 0x2
 3567 0ae0 74       		.byte	0x74
 3568 0ae1 7F       		.sleb128 -1
 3569 0ae2 1C       		.uleb128 0x1c
 3570 0ae3 01       		.uleb128 0x1
 3571 0ae4 53       		.byte	0x53
 3572 0ae5 03       		.uleb128 0x3
 3573 0ae6 91       		.byte	0x91
 3574 0ae7 48       		.sleb128 -56
 3575 0ae8 06       		.byte	0x6
 3576 0ae9 00       		.byte	0
 3577 0aea 1D       		.uleb128 0x1d
 3578 0aeb 32050000 		.4byte	.LVL229
 3579 0aef 080B0000 		.4byte	0xb08
 3580 0af3 1C       		.uleb128 0x1c
 3581 0af4 01       		.uleb128 0x1
 3582 0af5 51       		.byte	0x51
 3583 0af6 03       		.uleb128 0x3
 3584 0af7 91       		.byte	0x91
 3585 0af8 4C       		.sleb128 -52
 3586 0af9 06       		.byte	0x6
 3587 0afa 1C       		.uleb128 0x1c
 3588 0afb 01       		.uleb128 0x1
 3589 0afc 52       		.byte	0x52
 3590 0afd 02       		.uleb128 0x2
 3591 0afe 78       		.byte	0x78
 3592 0aff 7F       		.sleb128 -1
 3593 0b00 1C       		.uleb128 0x1c
 3594 0b01 01       		.uleb128 0x1
 3595 0b02 53       		.byte	0x53
 3596 0b03 03       		.uleb128 0x3
 3597 0b04 91       		.byte	0x91
 3598 0b05 48       		.sleb128 -56
 3599 0b06 06       		.byte	0x6
 3600 0b07 00       		.byte	0
 3601 0b08 1B       		.uleb128 0x1b
 3602 0b09 56050000 		.4byte	.LVL236
ARM GAS  C:\Users\strap\AppData\Local\Temp\ccV4k2oP.s 			page 83


 3603 0b0d 1C       		.uleb128 0x1c
 3604 0b0e 01       		.uleb128 0x1
 3605 0b0f 50       		.byte	0x50
 3606 0b10 02       		.uleb128 0x2
 3607 0b11 08       		.byte	0x8
 3608 0b12 20       		.byte	0x20
 3609 0b13 1C       		.uleb128 0x1c
 3610 0b14 01       		.uleb128 0x1
 3611 0b15 51       		.byte	0x51
 3612 0b16 03       		.uleb128 0x3
 3613 0b17 91       		.byte	0x91
 3614 0b18 4C       		.sleb128 -52
 3615 0b19 06       		.byte	0x6
 3616 0b1a 1C       		.uleb128 0x1c
 3617 0b1b 01       		.uleb128 0x1
 3618 0b1c 52       		.byte	0x52
 3619 0b1d 02       		.uleb128 0x2
 3620 0b1e 77       		.byte	0x77
 3621 0b1f 7F       		.sleb128 -1
 3622 0b20 1C       		.uleb128 0x1c
 3623 0b21 01       		.uleb128 0x1
 3624 0b22 53       		.byte	0x53
 3625 0b23 03       		.uleb128 0x3
 3626 0b24 91       		.byte	0x91
 3627 0b25 48       		.sleb128 -56
 3628 0b26 06       		.byte	0x6
 3629 0b27 00       		.byte	0
 3630 0b28 00       		.byte	0
 3631 0b29 2B       		.uleb128 0x2b
 3632 0b2a 6C050000 		.4byte	.LBB43
 3633 0b2e 38000000 		.4byte	.LBE43-.LBB43
 3634 0b32 8E0B0000 		.4byte	0xb8e
 3635 0b36 25       		.uleb128 0x25
 3636 0b37 2D020000 		.4byte	.LASF43
 3637 0b3b 01       		.byte	0x1
 3638 0b3c 4A03     		.2byte	0x34a
 3639 0b3e 440C0000 		.4byte	0xc44
 3640 0b42 740D0000 		.4byte	.LLST55
 3641 0b46 1E       		.uleb128 0x1e
 3642 0b47 9A050000 		.4byte	.LVL243
 3643 0b4b 2D040000 		.4byte	0x42d
 3644 0b4f 1C       		.uleb128 0x1c
 3645 0b50 01       		.uleb128 0x1
 3646 0b51 50       		.byte	0x50
 3647 0b52 02       		.uleb128 0x2
 3648 0b53 76       		.byte	0x76
 3649 0b54 00       		.sleb128 0
 3650 0b55 1C       		.uleb128 0x1c
 3651 0b56 01       		.uleb128 0x1
 3652 0b57 51       		.byte	0x51
 3653 0b58 03       		.uleb128 0x3
 3654 0b59 91       		.byte	0x91
 3655 0b5a 4C       		.sleb128 -52
 3656 0b5b 06       		.byte	0x6
 3657 0b5c 1C       		.uleb128 0x1c
 3658 0b5d 01       		.uleb128 0x1
 3659 0b5e 52       		.byte	0x52
ARM GAS  C:\Users\strap\AppData\Local\Temp\ccV4k2oP.s 			page 84


 3660 0b5f 02       		.uleb128 0x2
 3661 0b60 74       		.byte	0x74
 3662 0b61 00       		.sleb128 0
 3663 0b62 1C       		.uleb128 0x1c
 3664 0b63 01       		.uleb128 0x1
 3665 0b64 53       		.byte	0x53
 3666 0b65 03       		.uleb128 0x3
 3667 0b66 91       		.byte	0x91
 3668 0b67 48       		.sleb128 -56
 3669 0b68 06       		.byte	0x6
 3670 0b69 1C       		.uleb128 0x1c
 3671 0b6a 02       		.uleb128 0x2
 3672 0b6b 7D       		.byte	0x7d
 3673 0b6c 04       		.sleb128 4
 3674 0b6d 01       		.uleb128 0x1
 3675 0b6e 30       		.byte	0x30
 3676 0b6f 1C       		.uleb128 0x1c
 3677 0b70 02       		.uleb128 0x2
 3678 0b71 7D       		.byte	0x7d
 3679 0b72 08       		.sleb128 8
 3680 0b73 01       		.uleb128 0x1
 3681 0b74 40       		.byte	0x40
 3682 0b75 1C       		.uleb128 0x1c
 3683 0b76 02       		.uleb128 0x2
 3684 0b77 7D       		.byte	0x7d
 3685 0b78 0C       		.sleb128 12
 3686 0b79 02       		.uleb128 0x2
 3687 0b7a 78       		.byte	0x78
 3688 0b7b 00       		.sleb128 0
 3689 0b7c 1C       		.uleb128 0x1c
 3690 0b7d 02       		.uleb128 0x2
 3691 0b7e 7D       		.byte	0x7d
 3692 0b7f 10       		.sleb128 16
 3693 0b80 01       		.uleb128 0x1
 3694 0b81 38       		.byte	0x38
 3695 0b82 1C       		.uleb128 0x1c
 3696 0b83 02       		.uleb128 0x2
 3697 0b84 7D       		.byte	0x7d
 3698 0b85 14       		.sleb128 20
 3699 0b86 05       		.uleb128 0x5
 3700 0b87 7A       		.byte	0x7a
 3701 0b88 00       		.sleb128 0
 3702 0b89 08       		.byte	0x8
 3703 0b8a 21       		.byte	0x21
 3704 0b8b 21       		.byte	0x21
 3705 0b8c 00       		.byte	0
 3706 0b8d 00       		.byte	0
 3707 0b8e 1D       		.uleb128 0x1d
 3708 0b8f 24000000 		.4byte	.LVL95
 3709 0b93 AC0B0000 		.4byte	0xbac
 3710 0b97 1C       		.uleb128 0x1c
 3711 0b98 01       		.uleb128 0x1
 3712 0b99 51       		.byte	0x51
 3713 0b9a 03       		.uleb128 0x3
 3714 0b9b 91       		.byte	0x91
 3715 0b9c 4C       		.sleb128 -52
 3716 0b9d 06       		.byte	0x6
ARM GAS  C:\Users\strap\AppData\Local\Temp\ccV4k2oP.s 			page 85


 3717 0b9e 1C       		.uleb128 0x1c
 3718 0b9f 01       		.uleb128 0x1
 3719 0ba0 52       		.byte	0x52
 3720 0ba1 02       		.uleb128 0x2
 3721 0ba2 74       		.byte	0x74
 3722 0ba3 00       		.sleb128 0
 3723 0ba4 1C       		.uleb128 0x1c
 3724 0ba5 01       		.uleb128 0x1
 3725 0ba6 53       		.byte	0x53
 3726 0ba7 03       		.uleb128 0x3
 3727 0ba8 91       		.byte	0x91
 3728 0ba9 48       		.sleb128 -56
 3729 0baa 06       		.byte	0x6
 3730 0bab 00       		.byte	0
 3731 0bac 2C       		.uleb128 0x2c
 3732 0bad AC000000 		.4byte	.LVL119
 3733 0bb1 E5010000 		.4byte	0x1e5
 3734 0bb5 C00B0000 		.4byte	0xbc0
 3735 0bb9 1C       		.uleb128 0x1c
 3736 0bba 01       		.uleb128 0x1
 3737 0bbb 50       		.byte	0x50
 3738 0bbc 02       		.uleb128 0x2
 3739 0bbd 91       		.byte	0x91
 3740 0bbe 54       		.sleb128 -44
 3741 0bbf 00       		.byte	0
 3742 0bc0 2C       		.uleb128 0x2c
 3743 0bc1 FA000000 		.4byte	.LVL132
 3744 0bc5 E5010000 		.4byte	0x1e5
 3745 0bc9 D40B0000 		.4byte	0xbd4
 3746 0bcd 1C       		.uleb128 0x1c
 3747 0bce 01       		.uleb128 0x1
 3748 0bcf 50       		.byte	0x50
 3749 0bd0 02       		.uleb128 0x2
 3750 0bd1 91       		.byte	0x91
 3751 0bd2 54       		.sleb128 -44
 3752 0bd3 00       		.byte	0
 3753 0bd4 1D       		.uleb128 0x1d
 3754 0bd5 B0050000 		.4byte	.LVL247
 3755 0bd9 F80B0000 		.4byte	0xbf8
 3756 0bdd 1C       		.uleb128 0x1c
 3757 0bde 01       		.uleb128 0x1
 3758 0bdf 50       		.byte	0x50
 3759 0be0 02       		.uleb128 0x2
 3760 0be1 08       		.byte	0x8
 3761 0be2 25       		.byte	0x25
 3762 0be3 1C       		.uleb128 0x1c
 3763 0be4 01       		.uleb128 0x1
 3764 0be5 51       		.byte	0x51
 3765 0be6 03       		.uleb128 0x3
 3766 0be7 91       		.byte	0x91
 3767 0be8 4C       		.sleb128 -52
 3768 0be9 06       		.byte	0x6
 3769 0bea 1C       		.uleb128 0x1c
 3770 0beb 01       		.uleb128 0x1
 3771 0bec 52       		.byte	0x52
 3772 0bed 02       		.uleb128 0x2
 3773 0bee 74       		.byte	0x74
ARM GAS  C:\Users\strap\AppData\Local\Temp\ccV4k2oP.s 			page 86


 3774 0bef 00       		.sleb128 0
 3775 0bf0 1C       		.uleb128 0x1c
 3776 0bf1 01       		.uleb128 0x1
 3777 0bf2 53       		.byte	0x53
 3778 0bf3 03       		.uleb128 0x3
 3779 0bf4 91       		.byte	0x91
 3780 0bf5 48       		.sleb128 -56
 3781 0bf6 06       		.byte	0x6
 3782 0bf7 00       		.byte	0
 3783 0bf8 1D       		.uleb128 0x1d
 3784 0bf9 C4050000 		.4byte	.LVL250
 3785 0bfd 160C0000 		.4byte	0xc16
 3786 0c01 1C       		.uleb128 0x1c
 3787 0c02 01       		.uleb128 0x1
 3788 0c03 51       		.byte	0x51
 3789 0c04 03       		.uleb128 0x3
 3790 0c05 91       		.byte	0x91
 3791 0c06 4C       		.sleb128 -52
 3792 0c07 06       		.byte	0x6
 3793 0c08 1C       		.uleb128 0x1c
 3794 0c09 01       		.uleb128 0x1
 3795 0c0a 52       		.byte	0x52
 3796 0c0b 02       		.uleb128 0x2
 3797 0c0c 74       		.byte	0x74
 3798 0c0d 00       		.sleb128 0
 3799 0c0e 1C       		.uleb128 0x1c
 3800 0c0f 01       		.uleb128 0x1
 3801 0c10 53       		.byte	0x53
 3802 0c11 03       		.uleb128 0x3
 3803 0c12 91       		.byte	0x91
 3804 0c13 48       		.sleb128 -56
 3805 0c14 06       		.byte	0x6
 3806 0c15 00       		.byte	0
 3807 0c16 1B       		.uleb128 0x1b
 3808 0c17 EA050000 		.4byte	.LVL252
 3809 0c1b 1C       		.uleb128 0x1c
 3810 0c1c 01       		.uleb128 0x1
 3811 0c1d 50       		.byte	0x50
 3812 0c1e 01       		.uleb128 0x1
 3813 0c1f 30       		.byte	0x30
 3814 0c20 1C       		.uleb128 0x1c
 3815 0c21 01       		.uleb128 0x1
 3816 0c22 51       		.byte	0x51
 3817 0c23 03       		.uleb128 0x3
 3818 0c24 91       		.byte	0x91
 3819 0c25 4C       		.sleb128 -52
 3820 0c26 06       		.byte	0x6
 3821 0c27 1C       		.uleb128 0x1c
 3822 0c28 01       		.uleb128 0x1
 3823 0c29 53       		.byte	0x53
 3824 0c2a 03       		.uleb128 0x3
 3825 0c2b 91       		.byte	0x91
 3826 0c2c 48       		.sleb128 -56
 3827 0c2d 06       		.byte	0x6
 3828 0c2e 00       		.byte	0
 3829 0c2f 00       		.byte	0
 3830 0c30 0F       		.uleb128 0xf
ARM GAS  C:\Users\strap\AppData\Local\Temp\ccV4k2oP.s 			page 87


 3831 0c31 64000000 		.4byte	0x64
 3832 0c35 0F       		.uleb128 0xf
 3833 0c36 56000000 		.4byte	0x56
 3834 0c3a 0F       		.uleb128 0xf
 3835 0c3b 48000000 		.4byte	0x48
 3836 0c3f 0F       		.uleb128 0xf
 3837 0c40 25000000 		.4byte	0x25
 3838 0c44 0F       		.uleb128 0xf
 3839 0c45 0F010000 		.4byte	0x10f
 3840 0c49 30       		.uleb128 0x30
 3841 0c4a 4E000000 		.4byte	.LASF50
 3842 0c4e 01       		.byte	0x1
 3843 0c4f 6F03     		.2byte	0x36f
 3844 0c51 64000000 		.4byte	0x64
 3845 0c55 00000000 		.4byte	.LFB10
 3846 0c59 28000000 		.4byte	.LFE10-.LFB10
 3847 0c5d 01       		.uleb128 0x1
 3848 0c5e 9C       		.byte	0x9c
 3849 0c5f DF0C0000 		.4byte	0xcdf
 3850 0c63 21       		.uleb128 0x21
 3851 0c64 65010000 		.4byte	.LASF22
 3852 0c68 01       		.byte	0x1
 3853 0c69 6F03     		.2byte	0x36f
 3854 0c6b 49030000 		.4byte	0x349
 3855 0c6f 880D0000 		.4byte	.LLST56
 3856 0c73 21       		.uleb128 0x21
 3857 0c74 05020000 		.4byte	.LASF44
 3858 0c78 01       		.byte	0x1
 3859 0c79 6F03     		.2byte	0x36f
 3860 0c7b B0000000 		.4byte	0xb0
 3861 0c7f B40D0000 		.4byte	.LLST57
 3862 0c83 22       		.uleb128 0x22
 3863 0c84 C6020000 		.4byte	.LASF41
 3864 0c88 01       		.byte	0x1
 3865 0c89 6F03     		.2byte	0x36f
 3866 0c8b 46010000 		.4byte	0x146
 3867 0c8f 02       		.uleb128 0x2
 3868 0c90 91       		.byte	0x91
 3869 0c91 78       		.sleb128 -8
 3870 0c92 31       		.uleb128 0x31
 3871 0c93 23       		.uleb128 0x23
 3872 0c94 766100   		.ascii	"va\000"
 3873 0c97 01       		.byte	0x1
 3874 0c98 7103     		.2byte	0x371
 3875 0c9a A5000000 		.4byte	0xa5
 3876 0c9e 02       		.uleb128 0x2
 3877 0c9f 91       		.byte	0x91
 3878 0ca0 6C       		.sleb128 -20
 3879 0ca1 23       		.uleb128 0x23
 3880 0ca2 72657400 		.ascii	"ret\000"
 3881 0ca6 01       		.byte	0x1
 3882 0ca7 7303     		.2byte	0x373
 3883 0ca9 300C0000 		.4byte	0xc30
 3884 0cad 01       		.uleb128 0x1
 3885 0cae 50       		.byte	0x50
 3886 0caf 1E       		.uleb128 0x1e
 3887 0cb0 1A000000 		.4byte	.LVL256
ARM GAS  C:\Users\strap\AppData\Local\Temp\ccV4k2oP.s 			page 88


 3888 0cb4 B4060000 		.4byte	0x6b4
 3889 0cb8 1C       		.uleb128 0x1c
 3890 0cb9 01       		.uleb128 0x1
 3891 0cba 50       		.byte	0x50
 3892 0cbb 05       		.uleb128 0x5
 3893 0cbc 03       		.byte	0x3
 3894 0cbd 00000000 		.4byte	_out_buffer
 3895 0cc1 1C       		.uleb128 0x1c
 3896 0cc2 01       		.uleb128 0x1
 3897 0cc3 51       		.byte	0x51
 3898 0cc4 03       		.uleb128 0x3
 3899 0cc5 F3       		.byte	0xf3
 3900 0cc6 01       		.uleb128 0x1
 3901 0cc7 50       		.byte	0x50
 3902 0cc8 1C       		.uleb128 0x1c
 3903 0cc9 01       		.uleb128 0x1
 3904 0cca 52       		.byte	0x52
 3905 0ccb 03       		.uleb128 0x3
 3906 0ccc F3       		.byte	0xf3
 3907 0ccd 01       		.uleb128 0x1
 3908 0cce 51       		.byte	0x51
 3909 0ccf 1C       		.uleb128 0x1c
 3910 0cd0 01       		.uleb128 0x1
 3911 0cd1 53       		.byte	0x53
 3912 0cd2 03       		.uleb128 0x3
 3913 0cd3 91       		.byte	0x91
 3914 0cd4 68       		.sleb128 -24
 3915 0cd5 06       		.byte	0x6
 3916 0cd6 1C       		.uleb128 0x1c
 3917 0cd7 02       		.uleb128 0x2
 3918 0cd8 7D       		.byte	0x7d
 3919 0cd9 00       		.sleb128 0
 3920 0cda 02       		.uleb128 0x2
 3921 0cdb 91       		.byte	0x91
 3922 0cdc 6C       		.sleb128 -20
 3923 0cdd 00       		.byte	0
 3924 0cde 00       		.byte	0
 3925 0cdf 32       		.uleb128 0x32
 3926 0ce0 77010000 		.4byte	.LASF51
 3927 0ce4 01       		.byte	0x1
 3928 0ce5 7803     		.2byte	0x378
 3929 0ce7 64000000 		.4byte	0x64
 3930 0ceb 00000000 		.4byte	.LFB11
 3931 0cef 1C000000 		.4byte	.LFE11-.LFB11
 3932 0cf3 01       		.uleb128 0x1
 3933 0cf4 9C       		.byte	0x9c
 3934 0cf5 21       		.uleb128 0x21
 3935 0cf6 65010000 		.4byte	.LASF22
 3936 0cfa 01       		.byte	0x1
 3937 0cfb 7803     		.2byte	0x378
 3938 0cfd 49030000 		.4byte	0x349
 3939 0d01 E00D0000 		.4byte	.LLST58
 3940 0d05 21       		.uleb128 0x21
 3941 0d06 05020000 		.4byte	.LASF44
 3942 0d0a 01       		.byte	0x1
 3943 0d0b 7803     		.2byte	0x378
 3944 0d0d B0000000 		.4byte	0xb0
ARM GAS  C:\Users\strap\AppData\Local\Temp\ccV4k2oP.s 			page 89


 3945 0d11 0C0E0000 		.4byte	.LLST59
 3946 0d15 21       		.uleb128 0x21
 3947 0d16 C6020000 		.4byte	.LASF41
 3948 0d1a 01       		.byte	0x1
 3949 0d1b 7803     		.2byte	0x378
 3950 0d1d 46010000 		.4byte	0x146
 3951 0d21 380E0000 		.4byte	.LLST60
 3952 0d25 20       		.uleb128 0x20
 3953 0d26 766100   		.ascii	"va\000"
 3954 0d29 01       		.byte	0x1
 3955 0d2a 7803     		.2byte	0x378
 3956 0d2c A5000000 		.4byte	0xa5
 3957 0d30 640E0000 		.4byte	.LLST61
 3958 0d34 1E       		.uleb128 0x1e
 3959 0d35 12000000 		.4byte	.LVL262
 3960 0d39 B4060000 		.4byte	0x6b4
 3961 0d3d 1C       		.uleb128 0x1c
 3962 0d3e 01       		.uleb128 0x1
 3963 0d3f 50       		.byte	0x50
 3964 0d40 05       		.uleb128 0x5
 3965 0d41 03       		.byte	0x3
 3966 0d42 00000000 		.4byte	_out_buffer
 3967 0d46 1C       		.uleb128 0x1c
 3968 0d47 01       		.uleb128 0x1
 3969 0d48 51       		.byte	0x51
 3970 0d49 03       		.uleb128 0x3
 3971 0d4a F3       		.byte	0xf3
 3972 0d4b 01       		.uleb128 0x1
 3973 0d4c 50       		.byte	0x50
 3974 0d4d 1C       		.uleb128 0x1c
 3975 0d4e 01       		.uleb128 0x1
 3976 0d4f 52       		.byte	0x52
 3977 0d50 03       		.uleb128 0x3
 3978 0d51 F3       		.byte	0xf3
 3979 0d52 01       		.uleb128 0x1
 3980 0d53 51       		.byte	0x51
 3981 0d54 1C       		.uleb128 0x1c
 3982 0d55 01       		.uleb128 0x1
 3983 0d56 53       		.byte	0x53
 3984 0d57 03       		.uleb128 0x3
 3985 0d58 F3       		.byte	0xf3
 3986 0d59 01       		.uleb128 0x1
 3987 0d5a 52       		.byte	0x52
 3988 0d5b 00       		.byte	0
 3989 0d5c 00       		.byte	0
 3990 0d5d 00       		.byte	0
 3991              		.section	.debug_abbrev,"",%progbits
 3992              	.Ldebug_abbrev0:
 3993 0000 01       		.uleb128 0x1
 3994 0001 11       		.uleb128 0x11
 3995 0002 01       		.byte	0x1
 3996 0003 25       		.uleb128 0x25
 3997 0004 0E       		.uleb128 0xe
 3998 0005 13       		.uleb128 0x13
 3999 0006 0B       		.uleb128 0xb
 4000 0007 03       		.uleb128 0x3
 4001 0008 0E       		.uleb128 0xe
ARM GAS  C:\Users\strap\AppData\Local\Temp\ccV4k2oP.s 			page 90


 4002 0009 1B       		.uleb128 0x1b
 4003 000a 0E       		.uleb128 0xe
 4004 000b 55       		.uleb128 0x55
 4005 000c 17       		.uleb128 0x17
 4006 000d 11       		.uleb128 0x11
 4007 000e 01       		.uleb128 0x1
 4008 000f 10       		.uleb128 0x10
 4009 0010 17       		.uleb128 0x17
 4010 0011 00       		.byte	0
 4011 0012 00       		.byte	0
 4012 0013 02       		.uleb128 0x2
 4013 0014 24       		.uleb128 0x24
 4014 0015 00       		.byte	0
 4015 0016 0B       		.uleb128 0xb
 4016 0017 0B       		.uleb128 0xb
 4017 0018 3E       		.uleb128 0x3e
 4018 0019 0B       		.uleb128 0xb
 4019 001a 03       		.uleb128 0x3
 4020 001b 0E       		.uleb128 0xe
 4021 001c 00       		.byte	0
 4022 001d 00       		.byte	0
 4023 001e 03       		.uleb128 0x3
 4024 001f 24       		.uleb128 0x24
 4025 0020 00       		.byte	0
 4026 0021 0B       		.uleb128 0xb
 4027 0022 0B       		.uleb128 0xb
 4028 0023 3E       		.uleb128 0x3e
 4029 0024 0B       		.uleb128 0xb
 4030 0025 03       		.uleb128 0x3
 4031 0026 08       		.uleb128 0x8
 4032 0027 00       		.byte	0
 4033 0028 00       		.byte	0
 4034 0029 04       		.uleb128 0x4
 4035 002a 16       		.uleb128 0x16
 4036 002b 00       		.byte	0
 4037 002c 03       		.uleb128 0x3
 4038 002d 0E       		.uleb128 0xe
 4039 002e 3A       		.uleb128 0x3a
 4040 002f 0B       		.uleb128 0xb
 4041 0030 3B       		.uleb128 0x3b
 4042 0031 0B       		.uleb128 0xb
 4043 0032 49       		.uleb128 0x49
 4044 0033 13       		.uleb128 0x13
 4045 0034 00       		.byte	0
 4046 0035 00       		.byte	0
 4047 0036 05       		.uleb128 0x5
 4048 0037 0F       		.uleb128 0xf
 4049 0038 00       		.byte	0
 4050 0039 0B       		.uleb128 0xb
 4051 003a 0B       		.uleb128 0xb
 4052 003b 00       		.byte	0
 4053 003c 00       		.byte	0
 4054 003d 06       		.uleb128 0x6
 4055 003e 13       		.uleb128 0x13
 4056 003f 01       		.byte	0x1
 4057 0040 03       		.uleb128 0x3
 4058 0041 0E       		.uleb128 0xe
ARM GAS  C:\Users\strap\AppData\Local\Temp\ccV4k2oP.s 			page 91


 4059 0042 0B       		.uleb128 0xb
 4060 0043 0B       		.uleb128 0xb
 4061 0044 3A       		.uleb128 0x3a
 4062 0045 0B       		.uleb128 0xb
 4063 0046 3B       		.uleb128 0x3b
 4064 0047 0B       		.uleb128 0xb
 4065 0048 01       		.uleb128 0x1
 4066 0049 13       		.uleb128 0x13
 4067 004a 00       		.byte	0
 4068 004b 00       		.byte	0
 4069 004c 07       		.uleb128 0x7
 4070 004d 0D       		.uleb128 0xd
 4071 004e 00       		.byte	0
 4072 004f 03       		.uleb128 0x3
 4073 0050 0E       		.uleb128 0xe
 4074 0051 49       		.uleb128 0x49
 4075 0052 13       		.uleb128 0x13
 4076 0053 38       		.uleb128 0x38
 4077 0054 0B       		.uleb128 0xb
 4078 0055 34       		.uleb128 0x34
 4079 0056 19       		.uleb128 0x19
 4080 0057 00       		.byte	0
 4081 0058 00       		.byte	0
 4082 0059 08       		.uleb128 0x8
 4083 005a 0F       		.uleb128 0xf
 4084 005b 00       		.byte	0
 4085 005c 0B       		.uleb128 0xb
 4086 005d 0B       		.uleb128 0xb
 4087 005e 49       		.uleb128 0x49
 4088 005f 13       		.uleb128 0x13
 4089 0060 00       		.byte	0
 4090 0061 00       		.byte	0
 4091 0062 09       		.uleb128 0x9
 4092 0063 15       		.uleb128 0x15
 4093 0064 01       		.byte	0x1
 4094 0065 27       		.uleb128 0x27
 4095 0066 19       		.uleb128 0x19
 4096 0067 01       		.uleb128 0x1
 4097 0068 13       		.uleb128 0x13
 4098 0069 00       		.byte	0
 4099 006a 00       		.byte	0
 4100 006b 0A       		.uleb128 0xa
 4101 006c 05       		.uleb128 0x5
 4102 006d 00       		.byte	0
 4103 006e 49       		.uleb128 0x49
 4104 006f 13       		.uleb128 0x13
 4105 0070 00       		.byte	0
 4106 0071 00       		.byte	0
 4107 0072 0B       		.uleb128 0xb
 4108 0073 2E       		.uleb128 0x2e
 4109 0074 01       		.byte	0x1
 4110 0075 03       		.uleb128 0x3
 4111 0076 0E       		.uleb128 0xe
 4112 0077 3A       		.uleb128 0x3a
 4113 0078 0B       		.uleb128 0xb
 4114 0079 3B       		.uleb128 0x3b
 4115 007a 0B       		.uleb128 0xb
ARM GAS  C:\Users\strap\AppData\Local\Temp\ccV4k2oP.s 			page 92


 4116 007b 27       		.uleb128 0x27
 4117 007c 19       		.uleb128 0x19
 4118 007d 49       		.uleb128 0x49
 4119 007e 13       		.uleb128 0x13
 4120 007f 20       		.uleb128 0x20
 4121 0080 0B       		.uleb128 0xb
 4122 0081 01       		.uleb128 0x1
 4123 0082 13       		.uleb128 0x13
 4124 0083 00       		.byte	0
 4125 0084 00       		.byte	0
 4126 0085 0C       		.uleb128 0xc
 4127 0086 05       		.uleb128 0x5
 4128 0087 00       		.byte	0
 4129 0088 03       		.uleb128 0x3
 4130 0089 08       		.uleb128 0x8
 4131 008a 3A       		.uleb128 0x3a
 4132 008b 0B       		.uleb128 0xb
 4133 008c 3B       		.uleb128 0x3b
 4134 008d 0B       		.uleb128 0xb
 4135 008e 49       		.uleb128 0x49
 4136 008f 13       		.uleb128 0x13
 4137 0090 00       		.byte	0
 4138 0091 00       		.byte	0
 4139 0092 0D       		.uleb128 0xd
 4140 0093 05       		.uleb128 0x5
 4141 0094 00       		.byte	0
 4142 0095 03       		.uleb128 0x3
 4143 0096 0E       		.uleb128 0xe
 4144 0097 3A       		.uleb128 0x3a
 4145 0098 0B       		.uleb128 0xb
 4146 0099 3B       		.uleb128 0x3b
 4147 009a 0B       		.uleb128 0xb
 4148 009b 49       		.uleb128 0x49
 4149 009c 13       		.uleb128 0x13
 4150 009d 00       		.byte	0
 4151 009e 00       		.byte	0
 4152 009f 0E       		.uleb128 0xe
 4153 00a0 34       		.uleb128 0x34
 4154 00a1 00       		.byte	0
 4155 00a2 03       		.uleb128 0x3
 4156 00a3 08       		.uleb128 0x8
 4157 00a4 3A       		.uleb128 0x3a
 4158 00a5 0B       		.uleb128 0xb
 4159 00a6 3B       		.uleb128 0x3b
 4160 00a7 0B       		.uleb128 0xb
 4161 00a8 49       		.uleb128 0x49
 4162 00a9 13       		.uleb128 0x13
 4163 00aa 00       		.byte	0
 4164 00ab 00       		.byte	0
 4165 00ac 0F       		.uleb128 0xf
 4166 00ad 26       		.uleb128 0x26
 4167 00ae 00       		.byte	0
 4168 00af 49       		.uleb128 0x49
 4169 00b0 13       		.uleb128 0x13
 4170 00b1 00       		.byte	0
 4171 00b2 00       		.byte	0
 4172 00b3 10       		.uleb128 0x10
ARM GAS  C:\Users\strap\AppData\Local\Temp\ccV4k2oP.s 			page 93


 4173 00b4 2E       		.uleb128 0x2e
 4174 00b5 01       		.byte	0x1
 4175 00b6 03       		.uleb128 0x3
 4176 00b7 0E       		.uleb128 0xe
 4177 00b8 3A       		.uleb128 0x3a
 4178 00b9 0B       		.uleb128 0xb
 4179 00ba 3B       		.uleb128 0x3b
 4180 00bb 0B       		.uleb128 0xb
 4181 00bc 27       		.uleb128 0x27
 4182 00bd 19       		.uleb128 0x19
 4183 00be 11       		.uleb128 0x11
 4184 00bf 01       		.uleb128 0x1
 4185 00c0 12       		.uleb128 0x12
 4186 00c1 06       		.uleb128 0x6
 4187 00c2 40       		.uleb128 0x40
 4188 00c3 18       		.uleb128 0x18
 4189 00c4 9742     		.uleb128 0x2117
 4190 00c6 19       		.uleb128 0x19
 4191 00c7 01       		.uleb128 0x1
 4192 00c8 13       		.uleb128 0x13
 4193 00c9 00       		.byte	0
 4194 00ca 00       		.byte	0
 4195 00cb 11       		.uleb128 0x11
 4196 00cc 05       		.uleb128 0x5
 4197 00cd 00       		.byte	0
 4198 00ce 03       		.uleb128 0x3
 4199 00cf 0E       		.uleb128 0xe
 4200 00d0 3A       		.uleb128 0x3a
 4201 00d1 0B       		.uleb128 0xb
 4202 00d2 3B       		.uleb128 0x3b
 4203 00d3 0B       		.uleb128 0xb
 4204 00d4 49       		.uleb128 0x49
 4205 00d5 13       		.uleb128 0x13
 4206 00d6 02       		.uleb128 0x2
 4207 00d7 18       		.uleb128 0x18
 4208 00d8 00       		.byte	0
 4209 00d9 00       		.byte	0
 4210 00da 12       		.uleb128 0x12
 4211 00db 05       		.uleb128 0x5
 4212 00dc 00       		.byte	0
 4213 00dd 03       		.uleb128 0x3
 4214 00de 08       		.uleb128 0x8
 4215 00df 3A       		.uleb128 0x3a
 4216 00e0 0B       		.uleb128 0xb
 4217 00e1 3B       		.uleb128 0x3b
 4218 00e2 0B       		.uleb128 0xb
 4219 00e3 49       		.uleb128 0x49
 4220 00e4 13       		.uleb128 0x13
 4221 00e5 02       		.uleb128 0x2
 4222 00e6 18       		.uleb128 0x18
 4223 00e7 00       		.byte	0
 4224 00e8 00       		.byte	0
 4225 00e9 13       		.uleb128 0x13
 4226 00ea 2E       		.uleb128 0x2e
 4227 00eb 01       		.byte	0x1
 4228 00ec 03       		.uleb128 0x3
 4229 00ed 0E       		.uleb128 0xe
ARM GAS  C:\Users\strap\AppData\Local\Temp\ccV4k2oP.s 			page 94


 4230 00ee 3A       		.uleb128 0x3a
 4231 00ef 0B       		.uleb128 0xb
 4232 00f0 3B       		.uleb128 0x3b
 4233 00f1 0B       		.uleb128 0xb
 4234 00f2 27       		.uleb128 0x27
 4235 00f3 19       		.uleb128 0x19
 4236 00f4 49       		.uleb128 0x49
 4237 00f5 13       		.uleb128 0x13
 4238 00f6 11       		.uleb128 0x11
 4239 00f7 01       		.uleb128 0x1
 4240 00f8 12       		.uleb128 0x12
 4241 00f9 06       		.uleb128 0x6
 4242 00fa 40       		.uleb128 0x40
 4243 00fb 18       		.uleb128 0x18
 4244 00fc 9742     		.uleb128 0x2117
 4245 00fe 19       		.uleb128 0x19
 4246 00ff 01       		.uleb128 0x1
 4247 0100 13       		.uleb128 0x13
 4248 0101 00       		.byte	0
 4249 0102 00       		.byte	0
 4250 0103 14       		.uleb128 0x14
 4251 0104 05       		.uleb128 0x5
 4252 0105 00       		.byte	0
 4253 0106 03       		.uleb128 0x3
 4254 0107 08       		.uleb128 0x8
 4255 0108 3A       		.uleb128 0x3a
 4256 0109 0B       		.uleb128 0xb
 4257 010a 3B       		.uleb128 0x3b
 4258 010b 0B       		.uleb128 0xb
 4259 010c 49       		.uleb128 0x49
 4260 010d 13       		.uleb128 0x13
 4261 010e 02       		.uleb128 0x2
 4262 010f 17       		.uleb128 0x17
 4263 0110 00       		.byte	0
 4264 0111 00       		.byte	0
 4265 0112 15       		.uleb128 0x15
 4266 0113 34       		.uleb128 0x34
 4267 0114 00       		.byte	0
 4268 0115 03       		.uleb128 0x3
 4269 0116 08       		.uleb128 0x8
 4270 0117 3A       		.uleb128 0x3a
 4271 0118 0B       		.uleb128 0xb
 4272 0119 3B       		.uleb128 0x3b
 4273 011a 0B       		.uleb128 0xb
 4274 011b 49       		.uleb128 0x49
 4275 011c 13       		.uleb128 0x13
 4276 011d 02       		.uleb128 0x2
 4277 011e 17       		.uleb128 0x17
 4278 011f 00       		.byte	0
 4279 0120 00       		.byte	0
 4280 0121 16       		.uleb128 0x16
 4281 0122 1D       		.uleb128 0x1d
 4282 0123 01       		.byte	0x1
 4283 0124 31       		.uleb128 0x31
 4284 0125 13       		.uleb128 0x13
 4285 0126 11       		.uleb128 0x11
 4286 0127 01       		.uleb128 0x1
ARM GAS  C:\Users\strap\AppData\Local\Temp\ccV4k2oP.s 			page 95


 4287 0128 12       		.uleb128 0x12
 4288 0129 06       		.uleb128 0x6
 4289 012a 58       		.uleb128 0x58
 4290 012b 0B       		.uleb128 0xb
 4291 012c 59       		.uleb128 0x59
 4292 012d 0B       		.uleb128 0xb
 4293 012e 00       		.byte	0
 4294 012f 00       		.byte	0
 4295 0130 17       		.uleb128 0x17
 4296 0131 05       		.uleb128 0x5
 4297 0132 00       		.byte	0
 4298 0133 31       		.uleb128 0x31
 4299 0134 13       		.uleb128 0x13
 4300 0135 02       		.uleb128 0x2
 4301 0136 17       		.uleb128 0x17
 4302 0137 00       		.byte	0
 4303 0138 00       		.byte	0
 4304 0139 18       		.uleb128 0x18
 4305 013a 05       		.uleb128 0x5
 4306 013b 00       		.byte	0
 4307 013c 03       		.uleb128 0x3
 4308 013d 0E       		.uleb128 0xe
 4309 013e 3A       		.uleb128 0x3a
 4310 013f 0B       		.uleb128 0xb
 4311 0140 3B       		.uleb128 0x3b
 4312 0141 0B       		.uleb128 0xb
 4313 0142 49       		.uleb128 0x49
 4314 0143 13       		.uleb128 0x13
 4315 0144 02       		.uleb128 0x2
 4316 0145 17       		.uleb128 0x17
 4317 0146 00       		.byte	0
 4318 0147 00       		.byte	0
 4319 0148 19       		.uleb128 0x19
 4320 0149 34       		.uleb128 0x34
 4321 014a 00       		.byte	0
 4322 014b 03       		.uleb128 0x3
 4323 014c 0E       		.uleb128 0xe
 4324 014d 3A       		.uleb128 0x3a
 4325 014e 0B       		.uleb128 0xb
 4326 014f 3B       		.uleb128 0x3b
 4327 0150 0B       		.uleb128 0xb
 4328 0151 49       		.uleb128 0x49
 4329 0152 13       		.uleb128 0x13
 4330 0153 02       		.uleb128 0x2
 4331 0154 17       		.uleb128 0x17
 4332 0155 00       		.byte	0
 4333 0156 00       		.byte	0
 4334 0157 1A       		.uleb128 0x1a
 4335 0158 0B       		.uleb128 0xb
 4336 0159 01       		.byte	0x1
 4337 015a 55       		.uleb128 0x55
 4338 015b 17       		.uleb128 0x17
 4339 015c 01       		.uleb128 0x1
 4340 015d 13       		.uleb128 0x13
 4341 015e 00       		.byte	0
 4342 015f 00       		.byte	0
 4343 0160 1B       		.uleb128 0x1b
ARM GAS  C:\Users\strap\AppData\Local\Temp\ccV4k2oP.s 			page 96


 4344 0161 898201   		.uleb128 0x4109
 4345 0164 01       		.byte	0x1
 4346 0165 11       		.uleb128 0x11
 4347 0166 01       		.uleb128 0x1
 4348 0167 00       		.byte	0
 4349 0168 00       		.byte	0
 4350 0169 1C       		.uleb128 0x1c
 4351 016a 8A8201   		.uleb128 0x410a
 4352 016d 00       		.byte	0
 4353 016e 02       		.uleb128 0x2
 4354 016f 18       		.uleb128 0x18
 4355 0170 9142     		.uleb128 0x2111
 4356 0172 18       		.uleb128 0x18
 4357 0173 00       		.byte	0
 4358 0174 00       		.byte	0
 4359 0175 1D       		.uleb128 0x1d
 4360 0176 898201   		.uleb128 0x4109
 4361 0179 01       		.byte	0x1
 4362 017a 11       		.uleb128 0x11
 4363 017b 01       		.uleb128 0x1
 4364 017c 01       		.uleb128 0x1
 4365 017d 13       		.uleb128 0x13
 4366 017e 00       		.byte	0
 4367 017f 00       		.byte	0
 4368 0180 1E       		.uleb128 0x1e
 4369 0181 898201   		.uleb128 0x4109
 4370 0184 01       		.byte	0x1
 4371 0185 11       		.uleb128 0x11
 4372 0186 01       		.uleb128 0x1
 4373 0187 31       		.uleb128 0x31
 4374 0188 13       		.uleb128 0x13
 4375 0189 00       		.byte	0
 4376 018a 00       		.byte	0
 4377 018b 1F       		.uleb128 0x1f
 4378 018c 2E       		.uleb128 0x2e
 4379 018d 01       		.byte	0x1
 4380 018e 03       		.uleb128 0x3
 4381 018f 0E       		.uleb128 0xe
 4382 0190 3A       		.uleb128 0x3a
 4383 0191 0B       		.uleb128 0xb
 4384 0192 3B       		.uleb128 0x3b
 4385 0193 05       		.uleb128 0x5
 4386 0194 27       		.uleb128 0x27
 4387 0195 19       		.uleb128 0x19
 4388 0196 49       		.uleb128 0x49
 4389 0197 13       		.uleb128 0x13
 4390 0198 11       		.uleb128 0x11
 4391 0199 01       		.uleb128 0x1
 4392 019a 12       		.uleb128 0x12
 4393 019b 06       		.uleb128 0x6
 4394 019c 40       		.uleb128 0x40
 4395 019d 18       		.uleb128 0x18
 4396 019e 9742     		.uleb128 0x2117
 4397 01a0 19       		.uleb128 0x19
 4398 01a1 01       		.uleb128 0x1
 4399 01a2 13       		.uleb128 0x13
 4400 01a3 00       		.byte	0
ARM GAS  C:\Users\strap\AppData\Local\Temp\ccV4k2oP.s 			page 97


 4401 01a4 00       		.byte	0
 4402 01a5 20       		.uleb128 0x20
 4403 01a6 05       		.uleb128 0x5
 4404 01a7 00       		.byte	0
 4405 01a8 03       		.uleb128 0x3
 4406 01a9 08       		.uleb128 0x8
 4407 01aa 3A       		.uleb128 0x3a
 4408 01ab 0B       		.uleb128 0xb
 4409 01ac 3B       		.uleb128 0x3b
 4410 01ad 05       		.uleb128 0x5
 4411 01ae 49       		.uleb128 0x49
 4412 01af 13       		.uleb128 0x13
 4413 01b0 02       		.uleb128 0x2
 4414 01b1 17       		.uleb128 0x17
 4415 01b2 00       		.byte	0
 4416 01b3 00       		.byte	0
 4417 01b4 21       		.uleb128 0x21
 4418 01b5 05       		.uleb128 0x5
 4419 01b6 00       		.byte	0
 4420 01b7 03       		.uleb128 0x3
 4421 01b8 0E       		.uleb128 0xe
 4422 01b9 3A       		.uleb128 0x3a
 4423 01ba 0B       		.uleb128 0xb
 4424 01bb 3B       		.uleb128 0x3b
 4425 01bc 05       		.uleb128 0x5
 4426 01bd 49       		.uleb128 0x49
 4427 01be 13       		.uleb128 0x13
 4428 01bf 02       		.uleb128 0x2
 4429 01c0 17       		.uleb128 0x17
 4430 01c1 00       		.byte	0
 4431 01c2 00       		.byte	0
 4432 01c3 22       		.uleb128 0x22
 4433 01c4 05       		.uleb128 0x5
 4434 01c5 00       		.byte	0
 4435 01c6 03       		.uleb128 0x3
 4436 01c7 0E       		.uleb128 0xe
 4437 01c8 3A       		.uleb128 0x3a
 4438 01c9 0B       		.uleb128 0xb
 4439 01ca 3B       		.uleb128 0x3b
 4440 01cb 05       		.uleb128 0x5
 4441 01cc 49       		.uleb128 0x49
 4442 01cd 13       		.uleb128 0x13
 4443 01ce 02       		.uleb128 0x2
 4444 01cf 18       		.uleb128 0x18
 4445 01d0 00       		.byte	0
 4446 01d1 00       		.byte	0
 4447 01d2 23       		.uleb128 0x23
 4448 01d3 34       		.uleb128 0x34
 4449 01d4 00       		.byte	0
 4450 01d5 03       		.uleb128 0x3
 4451 01d6 08       		.uleb128 0x8
 4452 01d7 3A       		.uleb128 0x3a
 4453 01d8 0B       		.uleb128 0xb
 4454 01d9 3B       		.uleb128 0x3b
 4455 01da 05       		.uleb128 0x5
 4456 01db 49       		.uleb128 0x49
 4457 01dc 13       		.uleb128 0x13
ARM GAS  C:\Users\strap\AppData\Local\Temp\ccV4k2oP.s 			page 98


 4458 01dd 02       		.uleb128 0x2
 4459 01de 18       		.uleb128 0x18
 4460 01df 00       		.byte	0
 4461 01e0 00       		.byte	0
 4462 01e1 24       		.uleb128 0x24
 4463 01e2 34       		.uleb128 0x34
 4464 01e3 00       		.byte	0
 4465 01e4 03       		.uleb128 0x3
 4466 01e5 08       		.uleb128 0x8
 4467 01e6 3A       		.uleb128 0x3a
 4468 01e7 0B       		.uleb128 0xb
 4469 01e8 3B       		.uleb128 0x3b
 4470 01e9 05       		.uleb128 0x5
 4471 01ea 49       		.uleb128 0x49
 4472 01eb 13       		.uleb128 0x13
 4473 01ec 02       		.uleb128 0x2
 4474 01ed 17       		.uleb128 0x17
 4475 01ee 00       		.byte	0
 4476 01ef 00       		.byte	0
 4477 01f0 25       		.uleb128 0x25
 4478 01f1 34       		.uleb128 0x34
 4479 01f2 00       		.byte	0
 4480 01f3 03       		.uleb128 0x3
 4481 01f4 0E       		.uleb128 0xe
 4482 01f5 3A       		.uleb128 0x3a
 4483 01f6 0B       		.uleb128 0xb
 4484 01f7 3B       		.uleb128 0x3b
 4485 01f8 05       		.uleb128 0x5
 4486 01f9 49       		.uleb128 0x49
 4487 01fa 13       		.uleb128 0x13
 4488 01fb 02       		.uleb128 0x2
 4489 01fc 17       		.uleb128 0x17
 4490 01fd 00       		.byte	0
 4491 01fe 00       		.byte	0
 4492 01ff 26       		.uleb128 0x26
 4493 0200 01       		.uleb128 0x1
 4494 0201 01       		.byte	0x1
 4495 0202 49       		.uleb128 0x49
 4496 0203 13       		.uleb128 0x13
 4497 0204 01       		.uleb128 0x1
 4498 0205 13       		.uleb128 0x13
 4499 0206 00       		.byte	0
 4500 0207 00       		.byte	0
 4501 0208 27       		.uleb128 0x27
 4502 0209 21       		.uleb128 0x21
 4503 020a 00       		.byte	0
 4504 020b 49       		.uleb128 0x49
 4505 020c 13       		.uleb128 0x13
 4506 020d 2F       		.uleb128 0x2f
 4507 020e 0B       		.uleb128 0xb
 4508 020f 00       		.byte	0
 4509 0210 00       		.byte	0
 4510 0211 28       		.uleb128 0x28
 4511 0212 2E       		.uleb128 0x2e
 4512 0213 01       		.byte	0x1
 4513 0214 03       		.uleb128 0x3
 4514 0215 0E       		.uleb128 0xe
ARM GAS  C:\Users\strap\AppData\Local\Temp\ccV4k2oP.s 			page 99


 4515 0216 3A       		.uleb128 0x3a
 4516 0217 0B       		.uleb128 0xb
 4517 0218 3B       		.uleb128 0x3b
 4518 0219 05       		.uleb128 0x5
 4519 021a 27       		.uleb128 0x27
 4520 021b 19       		.uleb128 0x19
 4521 021c 49       		.uleb128 0x49
 4522 021d 13       		.uleb128 0x13
 4523 021e 11       		.uleb128 0x11
 4524 021f 01       		.uleb128 0x1
 4525 0220 12       		.uleb128 0x12
 4526 0221 06       		.uleb128 0x6
 4527 0222 40       		.uleb128 0x40
 4528 0223 18       		.uleb128 0x18
 4529 0224 9642     		.uleb128 0x2116
 4530 0226 19       		.uleb128 0x19
 4531 0227 01       		.uleb128 0x1
 4532 0228 13       		.uleb128 0x13
 4533 0229 00       		.byte	0
 4534 022a 00       		.byte	0
 4535 022b 29       		.uleb128 0x29
 4536 022c 05       		.uleb128 0x5
 4537 022d 00       		.byte	0
 4538 022e 03       		.uleb128 0x3
 4539 022f 08       		.uleb128 0x8
 4540 0230 3A       		.uleb128 0x3a
 4541 0231 0B       		.uleb128 0xb
 4542 0232 3B       		.uleb128 0x3b
 4543 0233 05       		.uleb128 0x5
 4544 0234 49       		.uleb128 0x49
 4545 0235 13       		.uleb128 0x13
 4546 0236 02       		.uleb128 0x2
 4547 0237 18       		.uleb128 0x18
 4548 0238 00       		.byte	0
 4549 0239 00       		.byte	0
 4550 023a 2A       		.uleb128 0x2a
 4551 023b 1D       		.uleb128 0x1d
 4552 023c 01       		.byte	0x1
 4553 023d 31       		.uleb128 0x31
 4554 023e 13       		.uleb128 0x13
 4555 023f 11       		.uleb128 0x11
 4556 0240 01       		.uleb128 0x1
 4557 0241 12       		.uleb128 0x12
 4558 0242 06       		.uleb128 0x6
 4559 0243 58       		.uleb128 0x58
 4560 0244 0B       		.uleb128 0xb
 4561 0245 59       		.uleb128 0x59
 4562 0246 05       		.uleb128 0x5
 4563 0247 01       		.uleb128 0x1
 4564 0248 13       		.uleb128 0x13
 4565 0249 00       		.byte	0
 4566 024a 00       		.byte	0
 4567 024b 2B       		.uleb128 0x2b
 4568 024c 0B       		.uleb128 0xb
 4569 024d 01       		.byte	0x1
 4570 024e 11       		.uleb128 0x11
 4571 024f 01       		.uleb128 0x1
ARM GAS  C:\Users\strap\AppData\Local\Temp\ccV4k2oP.s 			page 100


 4572 0250 12       		.uleb128 0x12
 4573 0251 06       		.uleb128 0x6
 4574 0252 01       		.uleb128 0x1
 4575 0253 13       		.uleb128 0x13
 4576 0254 00       		.byte	0
 4577 0255 00       		.byte	0
 4578 0256 2C       		.uleb128 0x2c
 4579 0257 898201   		.uleb128 0x4109
 4580 025a 01       		.byte	0x1
 4581 025b 11       		.uleb128 0x11
 4582 025c 01       		.uleb128 0x1
 4583 025d 31       		.uleb128 0x31
 4584 025e 13       		.uleb128 0x13
 4585 025f 01       		.uleb128 0x1
 4586 0260 13       		.uleb128 0x13
 4587 0261 00       		.byte	0
 4588 0262 00       		.byte	0
 4589 0263 2D       		.uleb128 0x2d
 4590 0264 05       		.uleb128 0x5
 4591 0265 00       		.byte	0
 4592 0266 31       		.uleb128 0x31
 4593 0267 13       		.uleb128 0x13
 4594 0268 00       		.byte	0
 4595 0269 00       		.byte	0
 4596 026a 2E       		.uleb128 0x2e
 4597 026b 0B       		.uleb128 0xb
 4598 026c 01       		.byte	0x1
 4599 026d 11       		.uleb128 0x11
 4600 026e 01       		.uleb128 0x1
 4601 026f 12       		.uleb128 0x12
 4602 0270 06       		.uleb128 0x6
 4603 0271 00       		.byte	0
 4604 0272 00       		.byte	0
 4605 0273 2F       		.uleb128 0x2f
 4606 0274 34       		.uleb128 0x34
 4607 0275 00       		.byte	0
 4608 0276 31       		.uleb128 0x31
 4609 0277 13       		.uleb128 0x13
 4610 0278 02       		.uleb128 0x2
 4611 0279 17       		.uleb128 0x17
 4612 027a 00       		.byte	0
 4613 027b 00       		.byte	0
 4614 027c 30       		.uleb128 0x30
 4615 027d 2E       		.uleb128 0x2e
 4616 027e 01       		.byte	0x1
 4617 027f 3F       		.uleb128 0x3f
 4618 0280 19       		.uleb128 0x19
 4619 0281 03       		.uleb128 0x3
 4620 0282 0E       		.uleb128 0xe
 4621 0283 3A       		.uleb128 0x3a
 4622 0284 0B       		.uleb128 0xb
 4623 0285 3B       		.uleb128 0x3b
 4624 0286 05       		.uleb128 0x5
 4625 0287 27       		.uleb128 0x27
 4626 0288 19       		.uleb128 0x19
 4627 0289 49       		.uleb128 0x49
 4628 028a 13       		.uleb128 0x13
ARM GAS  C:\Users\strap\AppData\Local\Temp\ccV4k2oP.s 			page 101


 4629 028b 11       		.uleb128 0x11
 4630 028c 01       		.uleb128 0x1
 4631 028d 12       		.uleb128 0x12
 4632 028e 06       		.uleb128 0x6
 4633 028f 40       		.uleb128 0x40
 4634 0290 18       		.uleb128 0x18
 4635 0291 9742     		.uleb128 0x2117
 4636 0293 19       		.uleb128 0x19
 4637 0294 01       		.uleb128 0x1
 4638 0295 13       		.uleb128 0x13
 4639 0296 00       		.byte	0
 4640 0297 00       		.byte	0
 4641 0298 31       		.uleb128 0x31
 4642 0299 18       		.uleb128 0x18
 4643 029a 00       		.byte	0
 4644 029b 00       		.byte	0
 4645 029c 00       		.byte	0
 4646 029d 32       		.uleb128 0x32
 4647 029e 2E       		.uleb128 0x2e
 4648 029f 01       		.byte	0x1
 4649 02a0 3F       		.uleb128 0x3f
 4650 02a1 19       		.uleb128 0x19
 4651 02a2 03       		.uleb128 0x3
 4652 02a3 0E       		.uleb128 0xe
 4653 02a4 3A       		.uleb128 0x3a
 4654 02a5 0B       		.uleb128 0xb
 4655 02a6 3B       		.uleb128 0x3b
 4656 02a7 05       		.uleb128 0x5
 4657 02a8 27       		.uleb128 0x27
 4658 02a9 19       		.uleb128 0x19
 4659 02aa 49       		.uleb128 0x49
 4660 02ab 13       		.uleb128 0x13
 4661 02ac 11       		.uleb128 0x11
 4662 02ad 01       		.uleb128 0x1
 4663 02ae 12       		.uleb128 0x12
 4664 02af 06       		.uleb128 0x6
 4665 02b0 40       		.uleb128 0x40
 4666 02b1 18       		.uleb128 0x18
 4667 02b2 9742     		.uleb128 0x2117
 4668 02b4 19       		.uleb128 0x19
 4669 02b5 00       		.byte	0
 4670 02b6 00       		.byte	0
 4671 02b7 00       		.byte	0
 4672              		.section	.debug_loc,"",%progbits
 4673              	.Ldebug_loc0:
 4674              	.LLST0:
 4675 0000 00000000 		.4byte	.LVL2
 4676 0004 04000000 		.4byte	.LVL4
 4677 0008 0100     		.2byte	0x1
 4678 000a 50       		.byte	0x50
 4679 000b 04000000 		.4byte	.LVL4
 4680 000f 26000000 		.4byte	.LFE4
 4681 0013 0100     		.2byte	0x1
 4682 0015 51       		.byte	0x51
 4683 0016 00000000 		.4byte	0
 4684 001a 00000000 		.4byte	0
 4685              	.LLST1:
ARM GAS  C:\Users\strap\AppData\Local\Temp\ccV4k2oP.s 			page 102


 4686 001e 02000000 		.4byte	.LVL3
 4687 0022 06000000 		.4byte	.LVL5
 4688 0026 0200     		.2byte	0x2
 4689 0028 30       		.byte	0x30
 4690 0029 9F       		.byte	0x9f
 4691 002a 06000000 		.4byte	.LVL5
 4692 002e 0A000000 		.4byte	.LVL6
 4693 0032 0100     		.2byte	0x1
 4694 0034 50       		.byte	0x50
 4695 0035 18000000 		.4byte	.LVL7
 4696 0039 26000000 		.4byte	.LFE4
 4697 003d 0100     		.2byte	0x1
 4698 003f 50       		.byte	0x50
 4699 0040 00000000 		.4byte	0
 4700 0044 00000000 		.4byte	0
 4701              	.LLST2:
 4702 0048 1C000000 		.4byte	.LVL8
 4703 004c 1E000000 		.4byte	.LVL9
 4704 0050 0100     		.2byte	0x1
 4705 0052 53       		.byte	0x53
 4706 0053 1E000000 		.4byte	.LVL9
 4707 0057 20000000 		.4byte	.LVL10
 4708 005b 0300     		.2byte	0x3
 4709 005d 73       		.byte	0x73
 4710 005e 30       		.sleb128 48
 4711 005f 9F       		.byte	0x9f
 4712 0060 00000000 		.4byte	0
 4713 0064 00000000 		.4byte	0
 4714              	.LLST3:
 4715 0068 00000000 		.4byte	.LVL11
 4716 006c 22000000 		.4byte	.LVL14
 4717 0070 0100     		.2byte	0x1
 4718 0072 50       		.byte	0x50
 4719 0073 22000000 		.4byte	.LVL14
 4720 0077 34000000 		.4byte	.LVL18
 4721 007b 0100     		.2byte	0x1
 4722 007d 55       		.byte	0x55
 4723 007e 34000000 		.4byte	.LVL18
 4724 0082 36000000 		.4byte	.LVL19
 4725 0086 0100     		.2byte	0x1
 4726 0088 50       		.byte	0x50
 4727 0089 36000000 		.4byte	.LVL19
 4728 008d 7A000000 		.4byte	.LFE5
 4729 0091 0100     		.2byte	0x1
 4730 0093 55       		.byte	0x55
 4731 0094 00000000 		.4byte	0
 4732 0098 00000000 		.4byte	0
 4733              	.LLST4:
 4734 009c 00000000 		.4byte	.LVL11
 4735 00a0 22000000 		.4byte	.LVL14
 4736 00a4 0100     		.2byte	0x1
 4737 00a6 51       		.byte	0x51
 4738 00a7 22000000 		.4byte	.LVL14
 4739 00ab 34000000 		.4byte	.LVL18
 4740 00af 0200     		.2byte	0x2
 4741 00b1 91       		.byte	0x91
 4742 00b2 54       		.sleb128 -44
ARM GAS  C:\Users\strap\AppData\Local\Temp\ccV4k2oP.s 			page 103


 4743 00b3 34000000 		.4byte	.LVL18
 4744 00b7 36000000 		.4byte	.LVL19
 4745 00bb 0100     		.2byte	0x1
 4746 00bd 51       		.byte	0x51
 4747 00be 36000000 		.4byte	.LVL19
 4748 00c2 7A000000 		.4byte	.LFE5
 4749 00c6 0200     		.2byte	0x2
 4750 00c8 91       		.byte	0x91
 4751 00c9 54       		.sleb128 -44
 4752 00ca 00000000 		.4byte	0
 4753 00ce 00000000 		.4byte	0
 4754              	.LLST5:
 4755 00d2 00000000 		.4byte	.LVL11
 4756 00d6 26000000 		.4byte	.LVL15
 4757 00da 0100     		.2byte	0x1
 4758 00dc 52       		.byte	0x52
 4759 00dd 26000000 		.4byte	.LVL15
 4760 00e1 34000000 		.4byte	.LVL18
 4761 00e5 0100     		.2byte	0x1
 4762 00e7 5A       		.byte	0x5a
 4763 00e8 34000000 		.4byte	.LVL18
 4764 00ec 40000000 		.4byte	.LVL22
 4765 00f0 0100     		.2byte	0x1
 4766 00f2 52       		.byte	0x52
 4767 00f3 40000000 		.4byte	.LVL22
 4768 00f7 4C000000 		.4byte	.LVL24
 4769 00fb 0100     		.2byte	0x1
 4770 00fd 57       		.byte	0x57
 4771 00fe 4C000000 		.4byte	.LVL24
 4772 0102 5C000000 		.4byte	.LVL26
 4773 0106 0100     		.2byte	0x1
 4774 0108 52       		.byte	0x52
 4775 0109 5C000000 		.4byte	.LVL26
 4776 010d 68000000 		.4byte	.LVL28
 4777 0111 0100     		.2byte	0x1
 4778 0113 54       		.byte	0x54
 4779 0114 68000000 		.4byte	.LVL28
 4780 0118 7A000000 		.4byte	.LFE5
 4781 011c 0100     		.2byte	0x1
 4782 011e 52       		.byte	0x52
 4783 011f 00000000 		.4byte	0
 4784 0123 00000000 		.4byte	0
 4785              	.LLST6:
 4786 0127 00000000 		.4byte	.LVL11
 4787 012b 1A000000 		.4byte	.LVL13
 4788 012f 0100     		.2byte	0x1
 4789 0131 53       		.byte	0x53
 4790 0132 1A000000 		.4byte	.LVL13
 4791 0136 7A000000 		.4byte	.LFE5
 4792 013a 0100     		.2byte	0x1
 4793 013c 56       		.byte	0x56
 4794 013d 00000000 		.4byte	0
 4795 0141 00000000 		.4byte	0
 4796              	.LLST7:
 4797 0145 00000000 		.4byte	.LVL11
 4798 0149 3C000000 		.4byte	.LVL20
 4799 014d 0200     		.2byte	0x2
ARM GAS  C:\Users\strap\AppData\Local\Temp\ccV4k2oP.s 			page 104


 4800 014f 91       		.byte	0x91
 4801 0150 04       		.sleb128 4
 4802 0151 3C000000 		.4byte	.LVL20
 4803 0155 5A000000 		.4byte	.LVL25
 4804 0159 0100     		.2byte	0x1
 4805 015b 54       		.byte	0x54
 4806 015c 68000000 		.4byte	.LVL28
 4807 0160 6A000000 		.4byte	.LVL29
 4808 0164 0100     		.2byte	0x1
 4809 0166 54       		.byte	0x54
 4810 0167 00000000 		.4byte	0
 4811 016b 00000000 		.4byte	0
 4812              	.LLST8:
 4813 016f 18000000 		.4byte	.LVL12
 4814 0173 22000000 		.4byte	.LVL14
 4815 0177 0100     		.2byte	0x1
 4816 0179 52       		.byte	0x52
 4817 017a 22000000 		.4byte	.LVL14
 4818 017e 34000000 		.4byte	.LVL18
 4819 0182 0100     		.2byte	0x1
 4820 0184 5B       		.byte	0x5b
 4821 0185 34000000 		.4byte	.LVL18
 4822 0189 36000000 		.4byte	.LVL19
 4823 018d 0100     		.2byte	0x1
 4824 018f 52       		.byte	0x52
 4825 0190 36000000 		.4byte	.LVL19
 4826 0194 7A000000 		.4byte	.LFE5
 4827 0198 0100     		.2byte	0x1
 4828 019a 5B       		.byte	0x5b
 4829 019b 00000000 		.4byte	0
 4830 019f 00000000 		.4byte	0
 4831              	.LLST9:
 4832 01a3 22000000 		.4byte	.LVL14
 4833 01a7 34000000 		.4byte	.LVL18
 4834 01ab 0100     		.2byte	0x1
 4835 01ad 57       		.byte	0x57
 4836 01ae 36000000 		.4byte	.LVL19
 4837 01b2 3C000000 		.4byte	.LVL20
 4838 01b6 0100     		.2byte	0x1
 4839 01b8 57       		.byte	0x57
 4840 01b9 00000000 		.4byte	0
 4841 01bd 00000000 		.4byte	0
 4842              	.LLST10:
 4843 01c1 00000000 		.4byte	.LVL30
 4844 01c5 11010000 		.4byte	.LVL56-1
 4845 01c9 0100     		.2byte	0x1
 4846 01cb 50       		.byte	0x50
 4847 01cc 11010000 		.4byte	.LVL56-1
 4848 01d0 18010000 		.4byte	.LFE6
 4849 01d4 0400     		.2byte	0x4
 4850 01d6 F3       		.byte	0xf3
 4851 01d7 01       		.uleb128 0x1
 4852 01d8 50       		.byte	0x50
 4853 01d9 9F       		.byte	0x9f
 4854 01da 00000000 		.4byte	0
 4855 01de 00000000 		.4byte	0
 4856              	.LLST11:
ARM GAS  C:\Users\strap\AppData\Local\Temp\ccV4k2oP.s 			page 105


 4857 01e2 00000000 		.4byte	.LVL30
 4858 01e6 11010000 		.4byte	.LVL56-1
 4859 01ea 0100     		.2byte	0x1
 4860 01ec 51       		.byte	0x51
 4861 01ed 11010000 		.4byte	.LVL56-1
 4862 01f1 18010000 		.4byte	.LFE6
 4863 01f5 0400     		.2byte	0x4
 4864 01f7 F3       		.byte	0xf3
 4865 01f8 01       		.uleb128 0x1
 4866 01f9 51       		.byte	0x51
 4867 01fa 9F       		.byte	0x9f
 4868 01fb 00000000 		.4byte	0
 4869 01ff 00000000 		.4byte	0
 4870              	.LLST12:
 4871 0203 00000000 		.4byte	.LVL30
 4872 0207 11010000 		.4byte	.LVL56-1
 4873 020b 0100     		.2byte	0x1
 4874 020d 52       		.byte	0x52
 4875 020e 11010000 		.4byte	.LVL56-1
 4876 0212 18010000 		.4byte	.LFE6
 4877 0216 0400     		.2byte	0x4
 4878 0218 F3       		.byte	0xf3
 4879 0219 01       		.uleb128 0x1
 4880 021a 52       		.byte	0x52
 4881 021b 9F       		.byte	0x9f
 4882 021c 00000000 		.4byte	0
 4883 0220 00000000 		.4byte	0
 4884              	.LLST13:
 4885 0224 00000000 		.4byte	.LVL30
 4886 0228 11010000 		.4byte	.LVL56-1
 4887 022c 0100     		.2byte	0x1
 4888 022e 53       		.byte	0x53
 4889 022f 11010000 		.4byte	.LVL56-1
 4890 0233 18010000 		.4byte	.LFE6
 4891 0237 0400     		.2byte	0x4
 4892 0239 F3       		.byte	0xf3
 4893 023a 01       		.uleb128 0x1
 4894 023b 53       		.byte	0x53
 4895 023c 9F       		.byte	0x9f
 4896 023d 00000000 		.4byte	0
 4897 0241 00000000 		.4byte	0
 4898              	.LLST14:
 4899 0245 00000000 		.4byte	.LVL30
 4900 0249 40000000 		.4byte	.LVL32
 4901 024d 0200     		.2byte	0x2
 4902 024f 91       		.byte	0x91
 4903 0250 04       		.sleb128 4
 4904 0251 40000000 		.4byte	.LVL32
 4905 0255 46000000 		.4byte	.LVL33
 4906 0259 0300     		.2byte	0x3
 4907 025b 74       		.byte	0x74
 4908 025c 01       		.sleb128 1
 4909 025d 9F       		.byte	0x9f
 4910 025e 46000000 		.4byte	.LVL33
 4911 0262 50000000 		.4byte	.LVL34
 4912 0266 0100     		.2byte	0x1
 4913 0268 54       		.byte	0x54
ARM GAS  C:\Users\strap\AppData\Local\Temp\ccV4k2oP.s 			page 106


 4914 0269 50000000 		.4byte	.LVL34
 4915 026d 56000000 		.4byte	.LVL35
 4916 0271 0300     		.2byte	0x3
 4917 0273 74       		.byte	0x74
 4918 0274 01       		.sleb128 1
 4919 0275 9F       		.byte	0x9f
 4920 0276 56000000 		.4byte	.LVL35
 4921 027a 7A000000 		.4byte	.LVL37
 4922 027e 0100     		.2byte	0x1
 4923 0280 54       		.byte	0x54
 4924 0281 7A000000 		.4byte	.LVL37
 4925 0285 7C000000 		.4byte	.LVL38
 4926 0289 0300     		.2byte	0x3
 4927 028b 74       		.byte	0x74
 4928 028c 7F       		.sleb128 -1
 4929 028d 9F       		.byte	0x9f
 4930 028e 7C000000 		.4byte	.LVL38
 4931 0292 86000000 		.4byte	.LVL39
 4932 0296 0100     		.2byte	0x1
 4933 0298 57       		.byte	0x57
 4934 0299 86000000 		.4byte	.LVL39
 4935 029d 88000000 		.4byte	.LVL40
 4936 02a1 0100     		.2byte	0x1
 4937 02a3 54       		.byte	0x54
 4938 02a4 88000000 		.4byte	.LVL40
 4939 02a8 8E000000 		.4byte	.LVL41
 4940 02ac 0100     		.2byte	0x1
 4941 02ae 57       		.byte	0x57
 4942 02af 8E000000 		.4byte	.LVL41
 4943 02b3 9E000000 		.4byte	.LVL42
 4944 02b7 0100     		.2byte	0x1
 4945 02b9 54       		.byte	0x54
 4946 02ba 9E000000 		.4byte	.LVL42
 4947 02be A4000000 		.4byte	.LVL43
 4948 02c2 0300     		.2byte	0x3
 4949 02c4 74       		.byte	0x74
 4950 02c5 01       		.sleb128 1
 4951 02c6 9F       		.byte	0x9f
 4952 02c7 A4000000 		.4byte	.LVL43
 4953 02cb B6000000 		.4byte	.LVL44
 4954 02cf 0100     		.2byte	0x1
 4955 02d1 54       		.byte	0x54
 4956 02d2 B6000000 		.4byte	.LVL44
 4957 02d6 BC000000 		.4byte	.LVL45
 4958 02da 0300     		.2byte	0x3
 4959 02dc 74       		.byte	0x74
 4960 02dd 01       		.sleb128 1
 4961 02de 9F       		.byte	0x9f
 4962 02df BC000000 		.4byte	.LVL45
 4963 02e3 C8000000 		.4byte	.LVL46
 4964 02e7 0100     		.2byte	0x1
 4965 02e9 54       		.byte	0x54
 4966 02ea C8000000 		.4byte	.LVL46
 4967 02ee CE000000 		.4byte	.LVL47
 4968 02f2 0300     		.2byte	0x3
 4969 02f4 74       		.byte	0x74
 4970 02f5 01       		.sleb128 1
ARM GAS  C:\Users\strap\AppData\Local\Temp\ccV4k2oP.s 			page 107


 4971 02f6 9F       		.byte	0x9f
 4972 02f7 CE000000 		.4byte	.LVL47
 4973 02fb D2000000 		.4byte	.LVL48
 4974 02ff 0100     		.2byte	0x1
 4975 0301 54       		.byte	0x54
 4976 0302 D2000000 		.4byte	.LVL48
 4977 0306 D8000000 		.4byte	.LVL49
 4978 030a 0300     		.2byte	0x3
 4979 030c 74       		.byte	0x74
 4980 030d 01       		.sleb128 1
 4981 030e 9F       		.byte	0x9f
 4982 030f D8000000 		.4byte	.LVL49
 4983 0313 E2000000 		.4byte	.LVL50
 4984 0317 0100     		.2byte	0x1
 4985 0319 54       		.byte	0x54
 4986 031a E2000000 		.4byte	.LVL50
 4987 031e E8000000 		.4byte	.LVL51
 4988 0322 0300     		.2byte	0x3
 4989 0324 74       		.byte	0x74
 4990 0325 01       		.sleb128 1
 4991 0326 9F       		.byte	0x9f
 4992 0327 E8000000 		.4byte	.LVL51
 4993 032b F0000000 		.4byte	.LVL52
 4994 032f 0100     		.2byte	0x1
 4995 0331 54       		.byte	0x54
 4996 0332 F0000000 		.4byte	.LVL52
 4997 0336 F6000000 		.4byte	.LVL53
 4998 033a 0300     		.2byte	0x3
 4999 033c 74       		.byte	0x74
 5000 033d 01       		.sleb128 1
 5001 033e 9F       		.byte	0x9f
 5002 033f F6000000 		.4byte	.LVL53
 5003 0343 FE000000 		.4byte	.LVL54
 5004 0347 0100     		.2byte	0x1
 5005 0349 54       		.byte	0x54
 5006 034a FE000000 		.4byte	.LVL54
 5007 034e 04010000 		.4byte	.LVL55
 5008 0352 0300     		.2byte	0x3
 5009 0354 74       		.byte	0x74
 5010 0355 01       		.sleb128 1
 5011 0356 9F       		.byte	0x9f
 5012 0357 04010000 		.4byte	.LVL55
 5013 035b 18010000 		.4byte	.LFE6
 5014 035f 0100     		.2byte	0x1
 5015 0361 54       		.byte	0x54
 5016 0362 00000000 		.4byte	0
 5017 0366 00000000 		.4byte	0
 5018              	.LLST15:
 5019 036a 00000000 		.4byte	.LVL30
 5020 036e 3E000000 		.4byte	.LVL31
 5021 0372 0200     		.2byte	0x2
 5022 0374 91       		.byte	0x91
 5023 0375 14       		.sleb128 20
 5024 0376 3E000000 		.4byte	.LVL31
 5025 037a 11010000 		.4byte	.LVL56-1
 5026 037e 0100     		.2byte	0x1
 5027 0380 5E       		.byte	0x5e
ARM GAS  C:\Users\strap\AppData\Local\Temp\ccV4k2oP.s 			page 108


 5028 0381 00000000 		.4byte	0
 5029 0385 00000000 		.4byte	0
 5030              	.LLST16:
 5031 0389 00000000 		.4byte	.LVL57
 5032 038d 8D000000 		.4byte	.LVL71-1
 5033 0391 0100     		.2byte	0x1
 5034 0393 50       		.byte	0x50
 5035 0394 8D000000 		.4byte	.LVL71-1
 5036 0398 94000000 		.4byte	.LFE7
 5037 039c 0400     		.2byte	0x4
 5038 039e F3       		.byte	0xf3
 5039 039f 01       		.uleb128 0x1
 5040 03a0 50       		.byte	0x50
 5041 03a1 9F       		.byte	0x9f
 5042 03a2 00000000 		.4byte	0
 5043 03a6 00000000 		.4byte	0
 5044              	.LLST17:
 5045 03aa 00000000 		.4byte	.LVL57
 5046 03ae 8D000000 		.4byte	.LVL71-1
 5047 03b2 0100     		.2byte	0x1
 5048 03b4 51       		.byte	0x51
 5049 03b5 8D000000 		.4byte	.LVL71-1
 5050 03b9 94000000 		.4byte	.LFE7
 5051 03bd 0400     		.2byte	0x4
 5052 03bf F3       		.byte	0xf3
 5053 03c0 01       		.uleb128 0x1
 5054 03c1 51       		.byte	0x51
 5055 03c2 9F       		.byte	0x9f
 5056 03c3 00000000 		.4byte	0
 5057 03c7 00000000 		.4byte	0
 5058              	.LLST18:
 5059 03cb 00000000 		.4byte	.LVL57
 5060 03cf 8D000000 		.4byte	.LVL71-1
 5061 03d3 0100     		.2byte	0x1
 5062 03d5 52       		.byte	0x52
 5063 03d6 8D000000 		.4byte	.LVL71-1
 5064 03da 94000000 		.4byte	.LFE7
 5065 03de 0400     		.2byte	0x4
 5066 03e0 F3       		.byte	0xf3
 5067 03e1 01       		.uleb128 0x1
 5068 03e2 52       		.byte	0x52
 5069 03e3 9F       		.byte	0x9f
 5070 03e4 00000000 		.4byte	0
 5071 03e8 00000000 		.4byte	0
 5072              	.LLST19:
 5073 03ec 00000000 		.4byte	.LVL57
 5074 03f0 8D000000 		.4byte	.LVL71-1
 5075 03f4 0100     		.2byte	0x1
 5076 03f6 53       		.byte	0x53
 5077 03f7 8D000000 		.4byte	.LVL71-1
 5078 03fb 94000000 		.4byte	.LFE7
 5079 03ff 0400     		.2byte	0x4
 5080 0401 F3       		.byte	0xf3
 5081 0402 01       		.uleb128 0x1
 5082 0403 53       		.byte	0x53
 5083 0404 9F       		.byte	0x9f
 5084 0405 00000000 		.4byte	0
ARM GAS  C:\Users\strap\AppData\Local\Temp\ccV4k2oP.s 			page 109


 5085 0409 00000000 		.4byte	0
 5086              	.LLST20:
 5087 040d 00000000 		.4byte	.LVL57
 5088 0411 22000000 		.4byte	.LVL60
 5089 0415 0200     		.2byte	0x2
 5090 0417 91       		.byte	0x91
 5091 0418 00       		.sleb128 0
 5092 0419 22000000 		.4byte	.LVL60
 5093 041d 6A000000 		.4byte	.LVL69
 5094 0421 0100     		.2byte	0x1
 5095 0423 55       		.byte	0x55
 5096 0424 6A000000 		.4byte	.LVL69
 5097 0428 6E000000 		.4byte	.LVL70
 5098 042c 0200     		.2byte	0x2
 5099 042e 91       		.byte	0x91
 5100 042f 00       		.sleb128 0
 5101 0430 00000000 		.4byte	0
 5102 0434 00000000 		.4byte	0
 5103              	.LLST21:
 5104 0438 00000000 		.4byte	.LVL57
 5105 043c 14000000 		.4byte	.LVL59
 5106 0440 0200     		.2byte	0x2
 5107 0442 91       		.byte	0x91
 5108 0443 14       		.sleb128 20
 5109 0444 14000000 		.4byte	.LVL59
 5110 0448 8D000000 		.4byte	.LVL71-1
 5111 044c 0100     		.2byte	0x1
 5112 044e 5E       		.byte	0x5e
 5113 044f 00000000 		.4byte	0
 5114 0453 00000000 		.4byte	0
 5115              	.LLST22:
 5116 0457 0E000000 		.4byte	.LVL58
 5117 045b 22000000 		.4byte	.LVL60
 5118 045f 0200     		.2byte	0x2
 5119 0461 30       		.byte	0x30
 5120 0462 9F       		.byte	0x9f
 5121 0463 22000000 		.4byte	.LVL60
 5122 0467 30000000 		.4byte	.LVL62
 5123 046b 0100     		.2byte	0x1
 5124 046d 56       		.byte	0x56
 5125 046e 30000000 		.4byte	.LVL62
 5126 0472 68000000 		.4byte	.LVL68
 5127 0476 0100     		.2byte	0x1
 5128 0478 5C       		.byte	0x5c
 5129 0479 68000000 		.4byte	.LVL68
 5130 047d 6A000000 		.4byte	.LVL69
 5131 0481 0100     		.2byte	0x1
 5132 0483 56       		.byte	0x56
 5133 0484 6A000000 		.4byte	.LVL69
 5134 0488 6E000000 		.4byte	.LVL70
 5135 048c 0200     		.2byte	0x2
 5136 048e 30       		.byte	0x30
 5137 048f 9F       		.byte	0x9f
 5138 0490 6E000000 		.4byte	.LVL70
 5139 0494 8D000000 		.4byte	.LVL71-1
 5140 0498 0100     		.2byte	0x1
 5141 049a 5C       		.byte	0x5c
ARM GAS  C:\Users\strap\AppData\Local\Temp\ccV4k2oP.s 			page 110


 5142 049b 00000000 		.4byte	0
 5143 049f 00000000 		.4byte	0
 5144              	.LLST23:
 5145 04a3 2C000000 		.4byte	.LVL61
 5146 04a7 36000000 		.4byte	.LVL63
 5147 04ab 0100     		.2byte	0x1
 5148 04ad 54       		.byte	0x54
 5149 04ae 36000000 		.4byte	.LVL63
 5150 04b2 38000000 		.4byte	.LVL64
 5151 04b6 0300     		.2byte	0x3
 5152 04b8 74       		.byte	0x74
 5153 04b9 50       		.sleb128 -48
 5154 04ba 9F       		.byte	0x9f
 5155 04bb 38000000 		.4byte	.LVL64
 5156 04bf 3A000000 		.4byte	.LVL65
 5157 04c3 1200     		.2byte	0x12
 5158 04c5 75       		.byte	0x75
 5159 04c6 00       		.sleb128 0
 5160 04c7 75       		.byte	0x75
 5161 04c8 00       		.sleb128 0
 5162 04c9 F7       		.byte	0xf7
 5163 04ca 25       		.uleb128 0x25
 5164 04cb 77       		.byte	0x77
 5165 04cc 00       		.sleb128 0
 5166 04cd F7       		.byte	0xf7
 5167 04ce 25       		.uleb128 0x25
 5168 04cf 1B       		.byte	0x1b
 5169 04d0 F7       		.byte	0xf7
 5170 04d1 00       		.uleb128 0
 5171 04d2 77       		.byte	0x77
 5172 04d3 00       		.sleb128 0
 5173 04d4 1E       		.byte	0x1e
 5174 04d5 1C       		.byte	0x1c
 5175 04d6 9F       		.byte	0x9f
 5176 04d7 3A000000 		.4byte	.LVL65
 5177 04db 4C000000 		.4byte	.LVL66
 5178 04df 0100     		.2byte	0x1
 5179 04e1 54       		.byte	0x54
 5180 04e2 4C000000 		.4byte	.LVL66
 5181 04e6 5E000000 		.4byte	.LVL67
 5182 04ea 1200     		.2byte	0x12
 5183 04ec 75       		.byte	0x75
 5184 04ed 00       		.sleb128 0
 5185 04ee 75       		.byte	0x75
 5186 04ef 00       		.sleb128 0
 5187 04f0 F7       		.byte	0xf7
 5188 04f1 25       		.uleb128 0x25
 5189 04f2 77       		.byte	0x77
 5190 04f3 00       		.sleb128 0
 5191 04f4 F7       		.byte	0xf7
 5192 04f5 25       		.uleb128 0x25
 5193 04f6 1B       		.byte	0x1b
 5194 04f7 F7       		.byte	0xf7
 5195 04f8 00       		.uleb128 0
 5196 04f9 77       		.byte	0x77
 5197 04fa 00       		.sleb128 0
 5198 04fb 1E       		.byte	0x1e
ARM GAS  C:\Users\strap\AppData\Local\Temp\ccV4k2oP.s 			page 111


 5199 04fc 1C       		.byte	0x1c
 5200 04fd 9F       		.byte	0x9f
 5201 04fe 00000000 		.4byte	0
 5202 0502 00000000 		.4byte	0
 5203              	.LLST24:
 5204 0506 00000000 		.4byte	.LVL72
 5205 050a 3A000000 		.4byte	.LVL76
 5206 050e 0100     		.2byte	0x1
 5207 0510 50       		.byte	0x50
 5208 0511 3A000000 		.4byte	.LVL76
 5209 0515 8C000000 		.4byte	.LVL88
 5210 0519 0300     		.2byte	0x3
 5211 051b 91       		.byte	0x91
 5212 051c AC7F     		.sleb128 -84
 5213 051e 8C000000 		.4byte	.LVL88
 5214 0522 8E000000 		.4byte	.LVL89
 5215 0526 0100     		.2byte	0x1
 5216 0528 50       		.byte	0x50
 5217 0529 8E000000 		.4byte	.LVL89
 5218 052d BC000000 		.4byte	.LFE8
 5219 0531 0300     		.2byte	0x3
 5220 0533 91       		.byte	0x91
 5221 0534 AC7F     		.sleb128 -84
 5222 0536 00000000 		.4byte	0
 5223 053a 00000000 		.4byte	0
 5224              	.LLST25:
 5225 053e 00000000 		.4byte	.LVL72
 5226 0542 3A000000 		.4byte	.LVL76
 5227 0546 0100     		.2byte	0x1
 5228 0548 51       		.byte	0x51
 5229 0549 3A000000 		.4byte	.LVL76
 5230 054d 8C000000 		.4byte	.LVL88
 5231 0551 0300     		.2byte	0x3
 5232 0553 91       		.byte	0x91
 5233 0554 B07F     		.sleb128 -80
 5234 0556 8C000000 		.4byte	.LVL88
 5235 055a 8E000000 		.4byte	.LVL89
 5236 055e 0100     		.2byte	0x1
 5237 0560 51       		.byte	0x51
 5238 0561 8E000000 		.4byte	.LVL89
 5239 0565 BC000000 		.4byte	.LFE8
 5240 0569 0300     		.2byte	0x3
 5241 056b 91       		.byte	0x91
 5242 056c B07F     		.sleb128 -80
 5243 056e 00000000 		.4byte	0
 5244 0572 00000000 		.4byte	0
 5245              	.LLST26:
 5246 0576 00000000 		.4byte	.LVL72
 5247 057a 3A000000 		.4byte	.LVL76
 5248 057e 0100     		.2byte	0x1
 5249 0580 52       		.byte	0x52
 5250 0581 3A000000 		.4byte	.LVL76
 5251 0585 8C000000 		.4byte	.LVL88
 5252 0589 0300     		.2byte	0x3
 5253 058b 91       		.byte	0x91
 5254 058c B47F     		.sleb128 -76
 5255 058e 8C000000 		.4byte	.LVL88
ARM GAS  C:\Users\strap\AppData\Local\Temp\ccV4k2oP.s 			page 112


 5256 0592 8E000000 		.4byte	.LVL89
 5257 0596 0100     		.2byte	0x1
 5258 0598 52       		.byte	0x52
 5259 0599 8E000000 		.4byte	.LVL89
 5260 059d BC000000 		.4byte	.LFE8
 5261 05a1 0300     		.2byte	0x3
 5262 05a3 91       		.byte	0x91
 5263 05a4 B47F     		.sleb128 -76
 5264 05a6 00000000 		.4byte	0
 5265 05aa 00000000 		.4byte	0
 5266              	.LLST27:
 5267 05ae 00000000 		.4byte	.LVL72
 5268 05b2 22000000 		.4byte	.LVL74
 5269 05b6 0100     		.2byte	0x1
 5270 05b8 53       		.byte	0x53
 5271 05b9 22000000 		.4byte	.LVL74
 5272 05bd BC000000 		.4byte	.LFE8
 5273 05c1 0100     		.2byte	0x1
 5274 05c3 5B       		.byte	0x5b
 5275 05c4 00000000 		.4byte	0
 5276 05c8 00000000 		.4byte	0
 5277              	.LLST28:
 5278 05cc 00000000 		.4byte	.LVL72
 5279 05d0 3A000000 		.4byte	.LVL76
 5280 05d4 0200     		.2byte	0x2
 5281 05d6 91       		.byte	0x91
 5282 05d7 00       		.sleb128 0
 5283 05d8 3A000000 		.4byte	.LVL76
 5284 05dc 7C000000 		.4byte	.LVL85
 5285 05e0 0600     		.2byte	0x6
 5286 05e2 56       		.byte	0x56
 5287 05e3 93       		.byte	0x93
 5288 05e4 04       		.uleb128 0x4
 5289 05e5 57       		.byte	0x57
 5290 05e6 93       		.byte	0x93
 5291 05e7 04       		.uleb128 0x4
 5292 05e8 7E000000 		.4byte	.LVL86
 5293 05ec 8C000000 		.4byte	.LVL88
 5294 05f0 0600     		.2byte	0x6
 5295 05f2 56       		.byte	0x56
 5296 05f3 93       		.byte	0x93
 5297 05f4 04       		.uleb128 0x4
 5298 05f5 57       		.byte	0x57
 5299 05f6 93       		.byte	0x93
 5300 05f7 04       		.uleb128 0x4
 5301 05f8 8C000000 		.4byte	.LVL88
 5302 05fc 8E000000 		.4byte	.LVL89
 5303 0600 0200     		.2byte	0x2
 5304 0602 91       		.byte	0x91
 5305 0603 00       		.sleb128 0
 5306 0604 00000000 		.4byte	0
 5307 0608 00000000 		.4byte	0
 5308              	.LLST29:
 5309 060c 00000000 		.4byte	.LVL72
 5310 0610 28000000 		.4byte	.LVL75
 5311 0614 0200     		.2byte	0x2
 5312 0616 91       		.byte	0x91
ARM GAS  C:\Users\strap\AppData\Local\Temp\ccV4k2oP.s 			page 113


 5313 0617 20       		.sleb128 32
 5314 0618 28000000 		.4byte	.LVL75
 5315 061c BC000000 		.4byte	.LFE8
 5316 0620 0100     		.2byte	0x1
 5317 0622 5A       		.byte	0x5a
 5318 0623 00000000 		.4byte	0
 5319 0627 00000000 		.4byte	0
 5320              	.LLST30:
 5321 062b 1E000000 		.4byte	.LVL73
 5322 062f 3A000000 		.4byte	.LVL76
 5323 0633 0200     		.2byte	0x2
 5324 0635 30       		.byte	0x30
 5325 0636 9F       		.byte	0x9f
 5326 0637 3A000000 		.4byte	.LVL76
 5327 063b 4A000000 		.4byte	.LVL79
 5328 063f 0100     		.2byte	0x1
 5329 0641 54       		.byte	0x54
 5330 0642 4A000000 		.4byte	.LVL79
 5331 0646 8A000000 		.4byte	.LVL87
 5332 064a 0100     		.2byte	0x1
 5333 064c 55       		.byte	0x55
 5334 064d 8A000000 		.4byte	.LVL87
 5335 0651 8C000000 		.4byte	.LVL88
 5336 0655 0100     		.2byte	0x1
 5337 0657 54       		.byte	0x54
 5338 0658 8C000000 		.4byte	.LVL88
 5339 065c 8E000000 		.4byte	.LVL89
 5340 0660 0200     		.2byte	0x2
 5341 0662 30       		.byte	0x30
 5342 0663 9F       		.byte	0x9f
 5343 0664 8E000000 		.4byte	.LVL89
 5344 0668 BC000000 		.4byte	.LFE8
 5345 066c 0100     		.2byte	0x1
 5346 066e 55       		.byte	0x55
 5347 066f 00000000 		.4byte	0
 5348 0673 00000000 		.4byte	0
 5349              	.LLST31:
 5350 0677 48000000 		.4byte	.LVL78
 5351 067b 50000000 		.4byte	.LVL80
 5352 067f 0100     		.2byte	0x1
 5353 0681 52       		.byte	0x52
 5354 0682 50000000 		.4byte	.LVL80
 5355 0686 52000000 		.4byte	.LVL81
 5356 068a 0300     		.2byte	0x3
 5357 068c 72       		.byte	0x72
 5358 068d 50       		.sleb128 -48
 5359 068e 9F       		.byte	0x9f
 5360 068f 54000000 		.4byte	.LVL82
 5361 0693 62000000 		.4byte	.LVL83
 5362 0697 0100     		.2byte	0x1
 5363 0699 52       		.byte	0x52
 5364 069a 00000000 		.4byte	0
 5365 069e 00000000 		.4byte	0
 5366              	.LLST32:
 5367 06a2 00000000 		.4byte	.LVL91
 5368 06a6 16000000 		.4byte	.LVL93
 5369 06aa 0100     		.2byte	0x1
ARM GAS  C:\Users\strap\AppData\Local\Temp\ccV4k2oP.s 			page 114


 5370 06ac 50       		.byte	0x50
 5371 06ad 16000000 		.4byte	.LVL93
 5372 06b1 F2050000 		.4byte	.LFE9
 5373 06b5 0100     		.2byte	0x1
 5374 06b7 56       		.byte	0x56
 5375 06b8 00000000 		.4byte	0
 5376 06bc 00000000 		.4byte	0
 5377              	.LLST33:
 5378 06c0 00000000 		.4byte	.LVL91
 5379 06c4 16000000 		.4byte	.LVL93
 5380 06c8 0100     		.2byte	0x1
 5381 06ca 51       		.byte	0x51
 5382 06cb 16000000 		.4byte	.LVL93
 5383 06cf F2050000 		.4byte	.LFE9
 5384 06d3 0200     		.2byte	0x2
 5385 06d5 91       		.byte	0x91
 5386 06d6 4C       		.sleb128 -52
 5387 06d7 00000000 		.4byte	0
 5388 06db 00000000 		.4byte	0
 5389              	.LLST34:
 5390 06df 00000000 		.4byte	.LVL91
 5391 06e3 16000000 		.4byte	.LVL93
 5392 06e7 0100     		.2byte	0x1
 5393 06e9 52       		.byte	0x52
 5394 06ea 16000000 		.4byte	.LVL93
 5395 06ee F2050000 		.4byte	.LFE9
 5396 06f2 0200     		.2byte	0x2
 5397 06f4 91       		.byte	0x91
 5398 06f5 48       		.sleb128 -56
 5399 06f6 00000000 		.4byte	0
 5400 06fa 00000000 		.4byte	0
 5401              	.LLST35:
 5402 06fe 00000000 		.4byte	.LVL91
 5403 0702 16000000 		.4byte	.LVL93
 5404 0706 0100     		.2byte	0x1
 5405 0708 53       		.byte	0x53
 5406 0709 00000000 		.4byte	0
 5407 070d 00000000 		.4byte	0
 5408              	.LLST36:
 5409 0711 32000000 		.4byte	.LVL97
 5410 0715 36000000 		.4byte	.LVL98
 5411 0719 0200     		.2byte	0x2
 5412 071b 30       		.byte	0x30
 5413 071c 9F       		.byte	0x9f
 5414 071d 36000000 		.4byte	.LVL98
 5415 0721 46010000 		.4byte	.LVL139
 5416 0725 0100     		.2byte	0x1
 5417 0727 5A       		.byte	0x5a
 5418 0728 46010000 		.4byte	.LVL139
 5419 072c 54010000 		.4byte	.LVL140
 5420 0730 0100     		.2byte	0x1
 5421 0732 51       		.byte	0x51
 5422 0733 54010000 		.4byte	.LVL140
 5423 0737 5E010000 		.4byte	.LVL141
 5424 073b 0100     		.2byte	0x1
 5425 073d 5A       		.byte	0x5a
 5426 073e 5E010000 		.4byte	.LVL141
ARM GAS  C:\Users\strap\AppData\Local\Temp\ccV4k2oP.s 			page 115


 5427 0742 6C010000 		.4byte	.LVL142
 5428 0746 0100     		.2byte	0x1
 5429 0748 51       		.byte	0x51
 5430 0749 6C010000 		.4byte	.LVL142
 5431 074d 90010000 		.4byte	.LVL146
 5432 0751 0100     		.2byte	0x1
 5433 0753 5A       		.byte	0x5a
 5434 0754 90010000 		.4byte	.LVL146
 5435 0758 9A010000 		.4byte	.LVL147
 5436 075c 0100     		.2byte	0x1
 5437 075e 51       		.byte	0x51
 5438 075f 9A010000 		.4byte	.LVL147
 5439 0763 5A040000 		.4byte	.LVL191
 5440 0767 0100     		.2byte	0x1
 5441 0769 5A       		.byte	0x5a
 5442 076a BC040000 		.4byte	.LVL208
 5443 076e 00050000 		.4byte	.LVL218
 5444 0772 0100     		.2byte	0x1
 5445 0774 5A       		.byte	0x5a
 5446 0775 14050000 		.4byte	.LVL222
 5447 0779 16050000 		.4byte	.LVL223
 5448 077d 0100     		.2byte	0x1
 5449 077f 5A       		.byte	0x5a
 5450 0780 6C050000 		.4byte	.LVL240
 5451 0784 70050000 		.4byte	.LVL241
 5452 0788 0100     		.2byte	0x1
 5453 078a 5A       		.byte	0x5a
 5454 078b 70050000 		.4byte	.LVL241
 5455 078f 7E050000 		.4byte	.LVL242
 5456 0793 0100     		.2byte	0x1
 5457 0795 53       		.byte	0x53
 5458 0796 7E050000 		.4byte	.LVL242
 5459 079a 99050000 		.4byte	.LVL243-1
 5460 079e 0300     		.2byte	0x3
 5461 07a0 91       		.byte	0x91
 5462 07a1 B47F     		.sleb128 -76
 5463 07a3 99050000 		.4byte	.LVL243-1
 5464 07a7 A4050000 		.4byte	.LVL245
 5465 07ab 0600     		.2byte	0x6
 5466 07ad 7A       		.byte	0x7a
 5467 07ae 00       		.sleb128 0
 5468 07af 08       		.byte	0x8
 5469 07b0 21       		.byte	0x21
 5470 07b1 21       		.byte	0x21
 5471 07b2 9F       		.byte	0x9f
 5472 07b3 A4050000 		.4byte	.LVL245
 5473 07b7 CC050000 		.4byte	.LVL251
 5474 07bb 0100     		.2byte	0x1
 5475 07bd 5A       		.byte	0x5a
 5476 07be 00000000 		.4byte	0
 5477 07c2 00000000 		.4byte	0
 5478              	.LLST37:
 5479 07c6 98000000 		.4byte	.LVL115
 5480 07ca AE000000 		.4byte	.LVL120
 5481 07ce 0200     		.2byte	0x2
 5482 07d0 30       		.byte	0x30
 5483 07d1 9F       		.byte	0x9f
ARM GAS  C:\Users\strap\AppData\Local\Temp\ccV4k2oP.s 			page 116


 5484 07d2 AE000000 		.4byte	.LVL120
 5485 07d6 B0000000 		.4byte	.LVL121
 5486 07da 0100     		.2byte	0x1
 5487 07dc 50       		.byte	0x50
 5488 07dd B0000000 		.4byte	.LVL121
 5489 07e1 CA000000 		.4byte	.LVL124
 5490 07e5 0200     		.2byte	0x2
 5491 07e7 30       		.byte	0x30
 5492 07e8 9F       		.byte	0x9f
 5493 07e9 CA000000 		.4byte	.LVL124
 5494 07ed CC000000 		.4byte	.LVL125
 5495 07f1 0100     		.2byte	0x1
 5496 07f3 59       		.byte	0x59
 5497 07f4 CC000000 		.4byte	.LVL125
 5498 07f8 CE000000 		.4byte	.LVL126
 5499 07fc 0200     		.2byte	0x2
 5500 07fe 30       		.byte	0x30
 5501 07ff 9F       		.byte	0x9f
 5502 0800 CE000000 		.4byte	.LVL126
 5503 0804 D4000000 		.4byte	.LVL127
 5504 0808 0100     		.2byte	0x1
 5505 080a 59       		.byte	0x59
 5506 080b D4000000 		.4byte	.LVL127
 5507 080f D8000000 		.4byte	.LVL128
 5508 0813 0200     		.2byte	0x2
 5509 0815 30       		.byte	0x30
 5510 0816 9F       		.byte	0x9f
 5511 0817 D8000000 		.4byte	.LVL128
 5512 081b 6C050000 		.4byte	.LVL240
 5513 081f 0100     		.2byte	0x1
 5514 0821 59       		.byte	0x59
 5515 0822 6C050000 		.4byte	.LVL240
 5516 0826 A4050000 		.4byte	.LVL245
 5517 082a 0200     		.2byte	0x2
 5518 082c 38       		.byte	0x38
 5519 082d 9F       		.byte	0x9f
 5520 082e A4050000 		.4byte	.LVL245
 5521 0832 CC050000 		.4byte	.LVL251
 5522 0836 0100     		.2byte	0x1
 5523 0838 59       		.byte	0x59
 5524 0839 00000000 		.4byte	0
 5525 083d 00000000 		.4byte	0
 5526              	.LLST38:
 5527 0841 D8000000 		.4byte	.LVL128
 5528 0845 FC000000 		.4byte	.LVL133
 5529 0849 0200     		.2byte	0x2
 5530 084b 30       		.byte	0x30
 5531 084c 9F       		.byte	0x9f
 5532 084d FC000000 		.4byte	.LVL133
 5533 0851 FE000000 		.4byte	.LVL134
 5534 0855 0100     		.2byte	0x1
 5535 0857 50       		.byte	0x50
 5536 0858 FE000000 		.4byte	.LVL134
 5537 085c 10010000 		.4byte	.LVL136
 5538 0860 0200     		.2byte	0x2
 5539 0862 30       		.byte	0x30
 5540 0863 9F       		.byte	0x9f
ARM GAS  C:\Users\strap\AppData\Local\Temp\ccV4k2oP.s 			page 117


 5541 0864 10010000 		.4byte	.LVL136
 5542 0868 16010000 		.4byte	.LVL137
 5543 086c 0100     		.2byte	0x1
 5544 086e 58       		.byte	0x58
 5545 086f 16010000 		.4byte	.LVL137
 5546 0873 20010000 		.4byte	.LVL138
 5547 0877 0200     		.2byte	0x2
 5548 0879 30       		.byte	0x30
 5549 087a 9F       		.byte	0x9f
 5550 087b 20010000 		.4byte	.LVL138
 5551 087f 24050000 		.4byte	.LVL225
 5552 0883 0100     		.2byte	0x1
 5553 0885 58       		.byte	0x58
 5554 0886 24050000 		.4byte	.LVL225
 5555 088a 26050000 		.4byte	.LVL226
 5556 088e 0100     		.2byte	0x1
 5557 0890 53       		.byte	0x53
 5558 0891 26050000 		.4byte	.LVL226
 5559 0895 3E050000 		.4byte	.LVL231
 5560 0899 0100     		.2byte	0x1
 5561 089b 54       		.byte	0x54
 5562 089c 3E050000 		.4byte	.LVL231
 5563 08a0 42050000 		.4byte	.LVL232
 5564 08a4 0100     		.2byte	0x1
 5565 08a6 53       		.byte	0x53
 5566 08a7 6C050000 		.4byte	.LVL240
 5567 08ab CC050000 		.4byte	.LVL251
 5568 08af 0100     		.2byte	0x1
 5569 08b1 58       		.byte	0x58
 5570 08b2 00000000 		.4byte	0
 5571 08b6 00000000 		.4byte	0
 5572              	.LLST39:
 5573 08ba 5E000000 		.4byte	.LVL100
 5574 08be 62000000 		.4byte	.LVL101
 5575 08c2 0200     		.2byte	0x2
 5576 08c4 31       		.byte	0x31
 5577 08c5 9F       		.byte	0x9f
 5578 08c6 6A000000 		.4byte	.LVL103
 5579 08ca 6E000000 		.4byte	.LVL104
 5580 08ce 0200     		.2byte	0x2
 5581 08d0 31       		.byte	0x31
 5582 08d1 9F       		.byte	0x9f
 5583 08d2 76000000 		.4byte	.LVL106
 5584 08d6 7A000000 		.4byte	.LVL107
 5585 08da 0200     		.2byte	0x2
 5586 08dc 31       		.byte	0x31
 5587 08dd 9F       		.byte	0x9f
 5588 08de 82000000 		.4byte	.LVL109
 5589 08e2 86000000 		.4byte	.LVL110
 5590 08e6 0200     		.2byte	0x2
 5591 08e8 31       		.byte	0x31
 5592 08e9 9F       		.byte	0x9f
 5593 08ea 8E000000 		.4byte	.LVL112
 5594 08ee 92000000 		.4byte	.LVL113
 5595 08f2 0200     		.2byte	0x2
 5596 08f4 31       		.byte	0x31
 5597 08f5 9F       		.byte	0x9f
ARM GAS  C:\Users\strap\AppData\Local\Temp\ccV4k2oP.s 			page 118


 5598 08f6 94000000 		.4byte	.LVL114
 5599 08fa A0000000 		.4byte	.LVL117
 5600 08fe 0100     		.2byte	0x1
 5601 0900 53       		.byte	0x53
 5602 0901 00000000 		.4byte	0
 5603 0905 00000000 		.4byte	0
 5604              	.LLST40:
 5605 0909 0C000000 		.4byte	.LVL92
 5606 090d 16000000 		.4byte	.LVL93
 5607 0911 0200     		.2byte	0x2
 5608 0913 30       		.byte	0x30
 5609 0914 9F       		.byte	0x9f
 5610 0915 16000000 		.4byte	.LVL93
 5611 0919 1C000000 		.4byte	.LVL94
 5612 091d 0100     		.2byte	0x1
 5613 091f 54       		.byte	0x54
 5614 0920 1C000000 		.4byte	.LVL94
 5615 0924 2E000000 		.4byte	.LVL96
 5616 0928 0100     		.2byte	0x1
 5617 092a 55       		.byte	0x55
 5618 092b 2E000000 		.4byte	.LVL96
 5619 092f F0020000 		.4byte	.LVL162
 5620 0933 0100     		.2byte	0x1
 5621 0935 54       		.byte	0x54
 5622 0936 F0020000 		.4byte	.LVL162
 5623 093a F2020000 		.4byte	.LVL163
 5624 093e 0100     		.2byte	0x1
 5625 0940 50       		.byte	0x50
 5626 0941 F2020000 		.4byte	.LVL163
 5627 0945 2C030000 		.4byte	.LVL169
 5628 0949 0100     		.2byte	0x1
 5629 094b 54       		.byte	0x54
 5630 094c 2C030000 		.4byte	.LVL169
 5631 0950 2E030000 		.4byte	.LVL170
 5632 0954 0100     		.2byte	0x1
 5633 0956 50       		.byte	0x50
 5634 0957 2E030000 		.4byte	.LVL170
 5635 095b 88030000 		.4byte	.LVL175
 5636 095f 0100     		.2byte	0x1
 5637 0961 54       		.byte	0x54
 5638 0962 88030000 		.4byte	.LVL175
 5639 0966 8A030000 		.4byte	.LVL176
 5640 096a 0100     		.2byte	0x1
 5641 096c 50       		.byte	0x50
 5642 096d 8A030000 		.4byte	.LVL176
 5643 0971 C8030000 		.4byte	.LVL179
 5644 0975 0100     		.2byte	0x1
 5645 0977 54       		.byte	0x54
 5646 0978 C8030000 		.4byte	.LVL179
 5647 097c CA030000 		.4byte	.LVL180
 5648 0980 0100     		.2byte	0x1
 5649 0982 50       		.byte	0x50
 5650 0983 CA030000 		.4byte	.LVL180
 5651 0987 FC030000 		.4byte	.LVL183
 5652 098b 0100     		.2byte	0x1
 5653 098d 54       		.byte	0x54
 5654 098e FC030000 		.4byte	.LVL183
ARM GAS  C:\Users\strap\AppData\Local\Temp\ccV4k2oP.s 			page 119


 5655 0992 FE030000 		.4byte	.LVL184
 5656 0996 0100     		.2byte	0x1
 5657 0998 50       		.byte	0x50
 5658 0999 FE030000 		.4byte	.LVL184
 5659 099d 4E040000 		.4byte	.LVL189
 5660 09a1 0100     		.2byte	0x1
 5661 09a3 54       		.byte	0x54
 5662 09a4 4E040000 		.4byte	.LVL189
 5663 09a8 56040000 		.4byte	.LVL190
 5664 09ac 0100     		.2byte	0x1
 5665 09ae 50       		.byte	0x50
 5666 09af 56040000 		.4byte	.LVL190
 5667 09b3 60040000 		.4byte	.LVL192
 5668 09b7 0100     		.2byte	0x1
 5669 09b9 54       		.byte	0x54
 5670 09ba 60040000 		.4byte	.LVL192
 5671 09be 62040000 		.4byte	.LVL193
 5672 09c2 0100     		.2byte	0x1
 5673 09c4 52       		.byte	0x52
 5674 09c5 62040000 		.4byte	.LVL193
 5675 09c9 74040000 		.4byte	.LVL196
 5676 09cd 0100     		.2byte	0x1
 5677 09cf 54       		.byte	0x54
 5678 09d0 74040000 		.4byte	.LVL196
 5679 09d4 7C040000 		.4byte	.LVL198
 5680 09d8 0100     		.2byte	0x1
 5681 09da 52       		.byte	0x52
 5682 09db 7C040000 		.4byte	.LVL198
 5683 09df 80040000 		.4byte	.LVL199
 5684 09e3 0100     		.2byte	0x1
 5685 09e5 54       		.byte	0x54
 5686 09e6 80040000 		.4byte	.LVL199
 5687 09ea 98040000 		.4byte	.LVL201
 5688 09ee 0100     		.2byte	0x1
 5689 09f0 57       		.byte	0x57
 5690 09f1 98040000 		.4byte	.LVL201
 5691 09f5 9A040000 		.4byte	.LVL202
 5692 09f9 0100     		.2byte	0x1
 5693 09fb 52       		.byte	0x52
 5694 09fc 9A040000 		.4byte	.LVL202
 5695 0a00 AA040000 		.4byte	.LVL205
 5696 0a04 0100     		.2byte	0x1
 5697 0a06 57       		.byte	0x57
 5698 0a07 AA040000 		.4byte	.LVL205
 5699 0a0b B2040000 		.4byte	.LVL207
 5700 0a0f 0100     		.2byte	0x1
 5701 0a11 52       		.byte	0x52
 5702 0a12 B2040000 		.4byte	.LVL207
 5703 0a16 BC040000 		.4byte	.LVL208
 5704 0a1a 0100     		.2byte	0x1
 5705 0a1c 57       		.byte	0x57
 5706 0a1d BC040000 		.4byte	.LVL208
 5707 0a21 FE040000 		.4byte	.LVL217
 5708 0a25 0100     		.2byte	0x1
 5709 0a27 54       		.byte	0x54
 5710 0a28 FE040000 		.4byte	.LVL217
 5711 0a2c 06050000 		.4byte	.LVL220
ARM GAS  C:\Users\strap\AppData\Local\Temp\ccV4k2oP.s 			page 120


 5712 0a30 0100     		.2byte	0x1
 5713 0a32 52       		.byte	0x52
 5714 0a33 06050000 		.4byte	.LVL220
 5715 0a37 16050000 		.4byte	.LVL223
 5716 0a3b 0100     		.2byte	0x1
 5717 0a3d 54       		.byte	0x54
 5718 0a3e 16050000 		.4byte	.LVL223
 5719 0a42 2C050000 		.4byte	.LVL228
 5720 0a46 0100     		.2byte	0x1
 5721 0a48 52       		.byte	0x52
 5722 0a49 2C050000 		.4byte	.LVL228
 5723 0a4d 34050000 		.4byte	.LVL230
 5724 0a51 0100     		.2byte	0x1
 5725 0a53 58       		.byte	0x58
 5726 0a54 34050000 		.4byte	.LVL230
 5727 0a58 4E050000 		.4byte	.LVL235
 5728 0a5c 0100     		.2byte	0x1
 5729 0a5e 52       		.byte	0x52
 5730 0a5f 4E050000 		.4byte	.LVL235
 5731 0a63 5C050000 		.4byte	.LVL237
 5732 0a67 0100     		.2byte	0x1
 5733 0a69 57       		.byte	0x57
 5734 0a6a 5C050000 		.4byte	.LVL237
 5735 0a6e 6C050000 		.4byte	.LVL240
 5736 0a72 0100     		.2byte	0x1
 5737 0a74 52       		.byte	0x52
 5738 0a75 6C050000 		.4byte	.LVL240
 5739 0a79 9C050000 		.4byte	.LVL244
 5740 0a7d 0100     		.2byte	0x1
 5741 0a7f 54       		.byte	0x54
 5742 0a80 9C050000 		.4byte	.LVL244
 5743 0a84 A4050000 		.4byte	.LVL245
 5744 0a88 0100     		.2byte	0x1
 5745 0a8a 50       		.byte	0x50
 5746 0a8b A4050000 		.4byte	.LVL245
 5747 0a8f A6050000 		.4byte	.LVL246
 5748 0a93 0100     		.2byte	0x1
 5749 0a95 54       		.byte	0x54
 5750 0a96 A6050000 		.4byte	.LVL246
 5751 0a9a BA050000 		.4byte	.LVL248
 5752 0a9e 0100     		.2byte	0x1
 5753 0aa0 55       		.byte	0x55
 5754 0aa1 BA050000 		.4byte	.LVL248
 5755 0aa5 BC050000 		.4byte	.LVL249
 5756 0aa9 0100     		.2byte	0x1
 5757 0aab 54       		.byte	0x54
 5758 0aac BC050000 		.4byte	.LVL249
 5759 0ab0 CC050000 		.4byte	.LVL251
 5760 0ab4 0100     		.2byte	0x1
 5761 0ab6 55       		.byte	0x55
 5762 0ab7 CC050000 		.4byte	.LVL251
 5763 0abb F2050000 		.4byte	.LFE9
 5764 0abf 0100     		.2byte	0x1
 5765 0ac1 54       		.byte	0x54
 5766 0ac2 00000000 		.4byte	0
 5767 0ac6 00000000 		.4byte	0
 5768              	.LLST41:
ARM GAS  C:\Users\strap\AppData\Local\Temp\ccV4k2oP.s 			page 121


 5769 0aca 9C000000 		.4byte	.LVL116
 5770 0ace A2000000 		.4byte	.LVL118
 5771 0ad2 0100     		.2byte	0x1
 5772 0ad4 52       		.byte	0x52
 5773 0ad5 00000000 		.4byte	0
 5774 0ad9 00000000 		.4byte	0
 5775              	.LLST42:
 5776 0add BE000000 		.4byte	.LVL122
 5777 0ae1 D4000000 		.4byte	.LVL127
 5778 0ae5 0100     		.2byte	0x1
 5779 0ae7 53       		.byte	0x53
 5780 0ae8 00000000 		.4byte	0
 5781 0aec 00000000 		.4byte	0
 5782              	.LLST43:
 5783 0af0 EA000000 		.4byte	.LVL130
 5784 0af4 F0000000 		.4byte	.LVL131
 5785 0af8 0100     		.2byte	0x1
 5786 0afa 52       		.byte	0x52
 5787 0afb 00000000 		.4byte	0
 5788 0aff 00000000 		.4byte	0
 5789              	.LLST44:
 5790 0b03 0C010000 		.4byte	.LVL135
 5791 0b07 16010000 		.4byte	.LVL137
 5792 0b0b 0100     		.2byte	0x1
 5793 0b0d 53       		.byte	0x53
 5794 0b0e 00000000 		.4byte	0
 5795 0b12 00000000 		.4byte	0
 5796              	.LLST45:
 5797 0b16 64020000 		.4byte	.LVL148
 5798 0b1a 6C020000 		.4byte	.LVL150
 5799 0b1e 0200     		.2byte	0x2
 5800 0b20 3A       		.byte	0x3a
 5801 0b21 9F       		.byte	0x9f
 5802 0b22 7A020000 		.4byte	.LVL151
 5803 0b26 DA020000 		.4byte	.LVL160
 5804 0b2a 0100     		.2byte	0x1
 5805 0b2c 51       		.byte	0x51
 5806 0b2d DA020000 		.4byte	.LVL160
 5807 0b31 ED020000 		.4byte	.LVL161-1
 5808 0b35 0300     		.2byte	0x3
 5809 0b37 91       		.byte	0x91
 5810 0b38 B07F     		.sleb128 -80
 5811 0b3a F2020000 		.4byte	.LVL163
 5812 0b3e 24030000 		.4byte	.LVL167
 5813 0b42 0100     		.2byte	0x1
 5814 0b44 51       		.byte	0x51
 5815 0b45 24030000 		.4byte	.LVL167
 5816 0b49 29030000 		.4byte	.LVL168-1
 5817 0b4d 0300     		.2byte	0x3
 5818 0b4f 91       		.byte	0x91
 5819 0b50 A87F     		.sleb128 -88
 5820 0b52 2E030000 		.4byte	.LVL170
 5821 0b56 80030000 		.4byte	.LVL173
 5822 0b5a 0100     		.2byte	0x1
 5823 0b5c 51       		.byte	0x51
 5824 0b5d 80030000 		.4byte	.LVL173
 5825 0b61 85030000 		.4byte	.LVL174-1
ARM GAS  C:\Users\strap\AppData\Local\Temp\ccV4k2oP.s 			page 122


 5826 0b65 0300     		.2byte	0x3
 5827 0b67 91       		.byte	0x91
 5828 0b68 A87F     		.sleb128 -88
 5829 0b6a 8A030000 		.4byte	.LVL176
 5830 0b6e C0030000 		.4byte	.LVL177
 5831 0b72 0100     		.2byte	0x1
 5832 0b74 51       		.byte	0x51
 5833 0b75 C0030000 		.4byte	.LVL177
 5834 0b79 C5030000 		.4byte	.LVL178-1
 5835 0b7d 0300     		.2byte	0x3
 5836 0b7f 91       		.byte	0x91
 5837 0b80 B07F     		.sleb128 -80
 5838 0b82 CA030000 		.4byte	.LVL180
 5839 0b86 F4030000 		.4byte	.LVL181
 5840 0b8a 0100     		.2byte	0x1
 5841 0b8c 51       		.byte	0x51
 5842 0b8d F4030000 		.4byte	.LVL181
 5843 0b91 F9030000 		.4byte	.LVL182-1
 5844 0b95 0300     		.2byte	0x3
 5845 0b97 91       		.byte	0x91
 5846 0b98 A87F     		.sleb128 -88
 5847 0b9a FE030000 		.4byte	.LVL184
 5848 0b9e 46040000 		.4byte	.LVL187
 5849 0ba2 0100     		.2byte	0x1
 5850 0ba4 51       		.byte	0x51
 5851 0ba5 46040000 		.4byte	.LVL187
 5852 0ba9 4B040000 		.4byte	.LVL188-1
 5853 0bad 0300     		.2byte	0x3
 5854 0baf 91       		.byte	0x91
 5855 0bb0 A87F     		.sleb128 -88
 5856 0bb2 00000000 		.4byte	0
 5857 0bb6 00000000 		.4byte	0
 5858              	.LLST46:
 5859 0bba B6020000 		.4byte	.LVL155
 5860 0bbe C0020000 		.4byte	.LVL156
 5861 0bc2 0700     		.2byte	0x7
 5862 0bc4 70       		.byte	0x70
 5863 0bc5 00       		.sleb128 0
 5864 0bc6 93       		.byte	0x93
 5865 0bc7 04       		.uleb128 0x4
 5866 0bc8 55       		.byte	0x55
 5867 0bc9 93       		.byte	0x93
 5868 0bca 04       		.uleb128 0x4
 5869 0bcb C0020000 		.4byte	.LVL156
 5870 0bcf C4020000 		.4byte	.LVL157
 5871 0bd3 0600     		.2byte	0x6
 5872 0bd5 52       		.byte	0x52
 5873 0bd6 93       		.byte	0x93
 5874 0bd7 04       		.uleb128 0x4
 5875 0bd8 55       		.byte	0x55
 5876 0bd9 93       		.byte	0x93
 5877 0bda 04       		.uleb128 0x4
 5878 0bdb C4020000 		.4byte	.LVL157
 5879 0bdf CA020000 		.4byte	.LVL158
 5880 0be3 0A00     		.2byte	0xa
 5881 0be5 91       		.byte	0x91
 5882 0be6 00       		.sleb128 0
ARM GAS  C:\Users\strap\AppData\Local\Temp\ccV4k2oP.s 			page 123


 5883 0be7 06       		.byte	0x6
 5884 0be8 38       		.byte	0x38
 5885 0be9 1C       		.byte	0x1c
 5886 0bea 93       		.byte	0x93
 5887 0beb 04       		.uleb128 0x4
 5888 0bec 55       		.byte	0x55
 5889 0bed 93       		.byte	0x93
 5890 0bee 04       		.uleb128 0x4
 5891 0bef CA020000 		.4byte	.LVL158
 5892 0bf3 CE020000 		.4byte	.LVL159
 5893 0bf7 0E00     		.2byte	0xe
 5894 0bf9 91       		.byte	0x91
 5895 0bfa 00       		.sleb128 0
 5896 0bfb 06       		.byte	0x6
 5897 0bfc 38       		.byte	0x38
 5898 0bfd 1C       		.byte	0x1c
 5899 0bfe 93       		.byte	0x93
 5900 0bff 04       		.uleb128 0x4
 5901 0c00 91       		.byte	0x91
 5902 0c01 00       		.sleb128 0
 5903 0c02 06       		.byte	0x6
 5904 0c03 34       		.byte	0x34
 5905 0c04 1C       		.byte	0x1c
 5906 0c05 93       		.byte	0x93
 5907 0c06 04       		.uleb128 0x4
 5908 0c07 00000000 		.4byte	0
 5909 0c0b 00000000 		.4byte	0
 5910              	.LLST47:
 5911 0c0f 02030000 		.4byte	.LVL164
 5912 0c13 0C030000 		.4byte	.LVL165
 5913 0c17 0100     		.2byte	0x1
 5914 0c19 53       		.byte	0x53
 5915 0c1a 0C030000 		.4byte	.LVL165
 5916 0c1e 10030000 		.4byte	.LVL166
 5917 0c22 0500     		.2byte	0x5
 5918 0c24 91       		.byte	0x91
 5919 0c25 00       		.sleb128 0
 5920 0c26 06       		.byte	0x6
 5921 0c27 34       		.byte	0x34
 5922 0c28 1C       		.byte	0x1c
 5923 0c29 00000000 		.4byte	0
 5924 0c2d 00000000 		.4byte	0
 5925              	.LLST48:
 5926 0c31 5E030000 		.4byte	.LVL171
 5927 0c35 68030000 		.4byte	.LVL172
 5928 0c39 0100     		.2byte	0x1
 5929 0c3b 53       		.byte	0x53
 5930 0c3c 00000000 		.4byte	0
 5931 0c40 00000000 		.4byte	0
 5932              	.LLST49:
 5933 0c44 2C040000 		.4byte	.LVL185
 5934 0c48 42040000 		.4byte	.LVL186
 5935 0c4c 0100     		.2byte	0x1
 5936 0c4e 53       		.byte	0x53
 5937 0c4f 42040000 		.4byte	.LVL186
 5938 0c53 4B040000 		.4byte	.LVL188-1
 5939 0c57 0200     		.2byte	0x2
ARM GAS  C:\Users\strap\AppData\Local\Temp\ccV4k2oP.s 			page 124


 5940 0c59 7D       		.byte	0x7d
 5941 0c5a 00       		.sleb128 0
 5942 0c5b 00000000 		.4byte	0
 5943 0c5f 00000000 		.4byte	0
 5944              	.LLST50:
 5945 0c63 56040000 		.4byte	.LVL190
 5946 0c67 60040000 		.4byte	.LVL192
 5947 0c6b 0200     		.2byte	0x2
 5948 0c6d 31       		.byte	0x31
 5949 0c6e 9F       		.byte	0x9f
 5950 0c6f 60040000 		.4byte	.LVL192
 5951 0c73 70040000 		.4byte	.LVL195
 5952 0c77 0100     		.2byte	0x1
 5953 0c79 55       		.byte	0x55
 5954 0c7a 70040000 		.4byte	.LVL195
 5955 0c7e 74040000 		.4byte	.LVL196
 5956 0c82 0200     		.2byte	0x2
 5957 0c84 31       		.byte	0x31
 5958 0c85 9F       		.byte	0x9f
 5959 0c86 74040000 		.4byte	.LVL196
 5960 0c8a 76040000 		.4byte	.LVL197
 5961 0c8e 0100     		.2byte	0x1
 5962 0c90 53       		.byte	0x53
 5963 0c91 76040000 		.4byte	.LVL197
 5964 0c95 98040000 		.4byte	.LVL201
 5965 0c99 0100     		.2byte	0x1
 5966 0c9b 55       		.byte	0x55
 5967 0c9c 98040000 		.4byte	.LVL201
 5968 0ca0 A8040000 		.4byte	.LVL204
 5969 0ca4 0100     		.2byte	0x1
 5970 0ca6 54       		.byte	0x54
 5971 0ca7 A8040000 		.4byte	.LVL204
 5972 0cab AC040000 		.4byte	.LVL206
 5973 0caf 0100     		.2byte	0x1
 5974 0cb1 55       		.byte	0x55
 5975 0cb2 AC040000 		.4byte	.LVL206
 5976 0cb6 B2040000 		.4byte	.LVL207
 5977 0cba 0100     		.2byte	0x1
 5978 0cbc 54       		.byte	0x54
 5979 0cbd 00000000 		.4byte	0
 5980 0cc1 00000000 		.4byte	0
 5981              	.LLST51:
 5982 0cc5 C4040000 		.4byte	.LVL209
 5983 0cc9 4C050000 		.4byte	.LVL234
 5984 0ccd 0100     		.2byte	0x1
 5985 0ccf 57       		.byte	0x57
 5986 0cd0 00000000 		.4byte	0
 5987 0cd4 00000000 		.4byte	0
 5988              	.LLST52:
 5989 0cd8 F2040000 		.4byte	.LVL216
 5990 0cdc 02050000 		.4byte	.LVL219
 5991 0ce0 0100     		.2byte	0x1
 5992 0ce2 55       		.byte	0x55
 5993 0ce3 02050000 		.4byte	.LVL219
 5994 0ce7 14050000 		.4byte	.LVL222
 5995 0ceb 0100     		.2byte	0x1
 5996 0ced 5A       		.byte	0x5a
ARM GAS  C:\Users\strap\AppData\Local\Temp\ccV4k2oP.s 			page 125


 5997 0cee 14050000 		.4byte	.LVL222
 5998 0cf2 1A050000 		.4byte	.LVL224
 5999 0cf6 0100     		.2byte	0x1
 6000 0cf8 55       		.byte	0x55
 6001 0cf9 1A050000 		.4byte	.LVL224
 6002 0cfd 4A050000 		.4byte	.LVL233
 6003 0d01 0100     		.2byte	0x1
 6004 0d03 5A       		.byte	0x5a
 6005 0d04 4A050000 		.4byte	.LVL233
 6006 0d08 4C050000 		.4byte	.LVL234
 6007 0d0c 0100     		.2byte	0x1
 6008 0d0e 55       		.byte	0x55
 6009 0d0f 4C050000 		.4byte	.LVL234
 6010 0d13 5C050000 		.4byte	.LVL237
 6011 0d17 0100     		.2byte	0x1
 6012 0d19 54       		.byte	0x54
 6013 0d1a 5C050000 		.4byte	.LVL237
 6014 0d1e 5E050000 		.4byte	.LVL238
 6015 0d22 0100     		.2byte	0x1
 6016 0d24 55       		.byte	0x55
 6017 0d25 5E050000 		.4byte	.LVL238
 6018 0d29 64050000 		.4byte	.LVL239
 6019 0d2d 0100     		.2byte	0x1
 6020 0d2f 54       		.byte	0x54
 6021 0d30 00000000 		.4byte	0
 6022 0d34 00000000 		.4byte	0
 6023              	.LLST53:
 6024 0d38 D6040000 		.4byte	.LVL210
 6025 0d3c DA040000 		.4byte	.LVL212
 6026 0d40 0100     		.2byte	0x1
 6027 0d42 52       		.byte	0x52
 6028 0d43 DA040000 		.4byte	.LVL212
 6029 0d47 E0040000 		.4byte	.LVL213
 6030 0d4b 0100     		.2byte	0x1
 6031 0d4d 53       		.byte	0x53
 6032 0d4e E0040000 		.4byte	.LVL213
 6033 0d52 E4040000 		.4byte	.LVL214
 6034 0d56 0100     		.2byte	0x1
 6035 0d58 52       		.byte	0x52
 6036 0d59 00000000 		.4byte	0
 6037 0d5d 00000000 		.4byte	0
 6038              	.LLST54:
 6039 0d61 D6040000 		.4byte	.LVL210
 6040 0d65 E6040000 		.4byte	.LVL215
 6041 0d69 0100     		.2byte	0x1
 6042 0d6b 55       		.byte	0x55
 6043 0d6c 00000000 		.4byte	0
 6044 0d70 00000000 		.4byte	0
 6045              	.LLST55:
 6046 0d74 70050000 		.4byte	.LVL241
 6047 0d78 A4050000 		.4byte	.LVL245
 6048 0d7c 0200     		.2byte	0x2
 6049 0d7e 30       		.byte	0x30
 6050 0d7f 9F       		.byte	0x9f
 6051 0d80 00000000 		.4byte	0
 6052 0d84 00000000 		.4byte	0
 6053              	.LLST56:
ARM GAS  C:\Users\strap\AppData\Local\Temp\ccV4k2oP.s 			page 126


 6054 0d88 00000000 		.4byte	.LVL253
 6055 0d8c 16000000 		.4byte	.LVL255
 6056 0d90 0100     		.2byte	0x1
 6057 0d92 50       		.byte	0x50
 6058 0d93 16000000 		.4byte	.LVL255
 6059 0d97 19000000 		.4byte	.LVL256-1
 6060 0d9b 0100     		.2byte	0x1
 6061 0d9d 51       		.byte	0x51
 6062 0d9e 19000000 		.4byte	.LVL256-1
 6063 0da2 28000000 		.4byte	.LFE10
 6064 0da6 0400     		.2byte	0x4
 6065 0da8 F3       		.byte	0xf3
 6066 0da9 01       		.uleb128 0x1
 6067 0daa 50       		.byte	0x50
 6068 0dab 9F       		.byte	0x9f
 6069 0dac 00000000 		.4byte	0
 6070 0db0 00000000 		.4byte	0
 6071              	.LLST57:
 6072 0db4 00000000 		.4byte	.LVL253
 6073 0db8 14000000 		.4byte	.LVL254
 6074 0dbc 0100     		.2byte	0x1
 6075 0dbe 51       		.byte	0x51
 6076 0dbf 14000000 		.4byte	.LVL254
 6077 0dc3 19000000 		.4byte	.LVL256-1
 6078 0dc7 0100     		.2byte	0x1
 6079 0dc9 52       		.byte	0x52
 6080 0dca 19000000 		.4byte	.LVL256-1
 6081 0dce 28000000 		.4byte	.LFE10
 6082 0dd2 0400     		.2byte	0x4
 6083 0dd4 F3       		.byte	0xf3
 6084 0dd5 01       		.uleb128 0x1
 6085 0dd6 51       		.byte	0x51
 6086 0dd7 9F       		.byte	0x9f
 6087 0dd8 00000000 		.4byte	0
 6088 0ddc 00000000 		.4byte	0
 6089              	.LLST58:
 6090 0de0 00000000 		.4byte	.LVL257
 6091 0de4 0E000000 		.4byte	.LVL261
 6092 0de8 0100     		.2byte	0x1
 6093 0dea 50       		.byte	0x50
 6094 0deb 0E000000 		.4byte	.LVL261
 6095 0def 11000000 		.4byte	.LVL262-1
 6096 0df3 0100     		.2byte	0x1
 6097 0df5 51       		.byte	0x51
 6098 0df6 11000000 		.4byte	.LVL262-1
 6099 0dfa 1C000000 		.4byte	.LFE11
 6100 0dfe 0400     		.2byte	0x4
 6101 0e00 F3       		.byte	0xf3
 6102 0e01 01       		.uleb128 0x1
 6103 0e02 50       		.byte	0x50
 6104 0e03 9F       		.byte	0x9f
 6105 0e04 00000000 		.4byte	0
 6106 0e08 00000000 		.4byte	0
 6107              	.LLST59:
 6108 0e0c 00000000 		.4byte	.LVL257
 6109 0e10 0C000000 		.4byte	.LVL260
 6110 0e14 0100     		.2byte	0x1
ARM GAS  C:\Users\strap\AppData\Local\Temp\ccV4k2oP.s 			page 127


 6111 0e16 51       		.byte	0x51
 6112 0e17 0C000000 		.4byte	.LVL260
 6113 0e1b 11000000 		.4byte	.LVL262-1
 6114 0e1f 0100     		.2byte	0x1
 6115 0e21 52       		.byte	0x52
 6116 0e22 11000000 		.4byte	.LVL262-1
 6117 0e26 1C000000 		.4byte	.LFE11
 6118 0e2a 0400     		.2byte	0x4
 6119 0e2c F3       		.byte	0xf3
 6120 0e2d 01       		.uleb128 0x1
 6121 0e2e 51       		.byte	0x51
 6122 0e2f 9F       		.byte	0x9f
 6123 0e30 00000000 		.4byte	0
 6124 0e34 00000000 		.4byte	0
 6125              	.LLST60:
 6126 0e38 00000000 		.4byte	.LVL257
 6127 0e3c 0A000000 		.4byte	.LVL259
 6128 0e40 0100     		.2byte	0x1
 6129 0e42 52       		.byte	0x52
 6130 0e43 0A000000 		.4byte	.LVL259
 6131 0e47 11000000 		.4byte	.LVL262-1
 6132 0e4b 0100     		.2byte	0x1
 6133 0e4d 53       		.byte	0x53
 6134 0e4e 11000000 		.4byte	.LVL262-1
 6135 0e52 1C000000 		.4byte	.LFE11
 6136 0e56 0400     		.2byte	0x4
 6137 0e58 F3       		.byte	0xf3
 6138 0e59 01       		.uleb128 0x1
 6139 0e5a 52       		.byte	0x52
 6140 0e5b 9F       		.byte	0x9f
 6141 0e5c 00000000 		.4byte	0
 6142 0e60 00000000 		.4byte	0
 6143              	.LLST61:
 6144 0e64 00000000 		.4byte	.LVL257
 6145 0e68 08000000 		.4byte	.LVL258
 6146 0e6c 0100     		.2byte	0x1
 6147 0e6e 53       		.byte	0x53
 6148 0e6f 00000000 		.4byte	0
 6149 0e73 00000000 		.4byte	0
 6150              		.section	.debug_aranges,"",%progbits
 6151 0000 64000000 		.4byte	0x64
 6152 0004 0200     		.2byte	0x2
 6153 0006 00000000 		.4byte	.Ldebug_info0
 6154 000a 04       		.byte	0x4
 6155 000b 00       		.byte	0
 6156 000c 0000     		.2byte	0
 6157 000e 0000     		.2byte	0
 6158 0010 00000000 		.4byte	.LFB0
 6159 0014 08000000 		.4byte	.LFE0-.LFB0
 6160 0018 00000000 		.4byte	.LFB1
 6161 001c 02000000 		.4byte	.LFE1-.LFB1
 6162 0020 00000000 		.4byte	.LFB4
 6163 0024 26000000 		.4byte	.LFE4-.LFB4
 6164 0028 00000000 		.4byte	.LFB5
 6165 002c 7A000000 		.4byte	.LFE5-.LFB5
 6166 0030 00000000 		.4byte	.LFB6
 6167 0034 18010000 		.4byte	.LFE6-.LFB6
ARM GAS  C:\Users\strap\AppData\Local\Temp\ccV4k2oP.s 			page 128


 6168 0038 00000000 		.4byte	.LFB7
 6169 003c 94000000 		.4byte	.LFE7-.LFB7
 6170 0040 00000000 		.4byte	.LFB8
 6171 0044 BC000000 		.4byte	.LFE8-.LFB8
 6172 0048 00000000 		.4byte	.LFB9
 6173 004c F2050000 		.4byte	.LFE9-.LFB9
 6174 0050 00000000 		.4byte	.LFB10
 6175 0054 28000000 		.4byte	.LFE10-.LFB10
 6176 0058 00000000 		.4byte	.LFB11
 6177 005c 1C000000 		.4byte	.LFE11-.LFB11
 6178 0060 00000000 		.4byte	0
 6179 0064 00000000 		.4byte	0
 6180              		.section	.debug_ranges,"",%progbits
 6181              	.Ldebug_ranges0:
 6182 0000 22000000 		.4byte	.LBB22
 6183 0004 34000000 		.4byte	.LBE22
 6184 0008 36000000 		.4byte	.LBB23
 6185 000c 3C000000 		.4byte	.LBE23
 6186 0010 00000000 		.4byte	0
 6187 0014 00000000 		.4byte	0
 6188 0018 22000000 		.4byte	.LBB24
 6189 001c 5E000000 		.4byte	.LBE24
 6190 0020 60000000 		.4byte	.LBB25
 6191 0024 62000000 		.4byte	.LBE25
 6192 0028 00000000 		.4byte	0
 6193 002c 00000000 		.4byte	0
 6194 0030 3A000000 		.4byte	.LBB26
 6195 0034 7E000000 		.4byte	.LBE26
 6196 0038 84000000 		.4byte	.LBB27
 6197 003c 86000000 		.4byte	.LBE27
 6198 0040 00000000 		.4byte	0
 6199 0044 00000000 		.4byte	0
 6200 0048 00000000 		.4byte	.LFB0
 6201 004c 08000000 		.4byte	.LFE0
 6202 0050 00000000 		.4byte	.LFB1
 6203 0054 02000000 		.4byte	.LFE1
 6204 0058 00000000 		.4byte	.LFB4
 6205 005c 26000000 		.4byte	.LFE4
 6206 0060 00000000 		.4byte	.LFB5
 6207 0064 7A000000 		.4byte	.LFE5
 6208 0068 00000000 		.4byte	.LFB6
 6209 006c 18010000 		.4byte	.LFE6
 6210 0070 00000000 		.4byte	.LFB7
 6211 0074 94000000 		.4byte	.LFE7
 6212 0078 00000000 		.4byte	.LFB8
 6213 007c BC000000 		.4byte	.LFE8
 6214 0080 00000000 		.4byte	.LFB9
 6215 0084 F2050000 		.4byte	.LFE9
 6216 0088 00000000 		.4byte	.LFB10
 6217 008c 28000000 		.4byte	.LFE10
 6218 0090 00000000 		.4byte	.LFB11
 6219 0094 1C000000 		.4byte	.LFE11
 6220 0098 00000000 		.4byte	0
 6221 009c 00000000 		.4byte	0
 6222              		.section	.debug_line,"",%progbits
 6223              	.Ldebug_line0:
 6224 0000 D4040000 		.section	.debug_str,"MS",%progbits,1
ARM GAS  C:\Users\strap\AppData\Local\Temp\ccV4k2oP.s 			page 129


 6224      0200CC01 
 6224      00000201 
 6224      FB0E0D00 
 6224      01010101 
 6225              	.LASF24:
 6226 0000 5F6F7574 		.ascii	"_out_buffer\000"
 6226      5F627566 
 6226      66657200 
 6227              	.LASF3:
 6228 000c 73686F72 		.ascii	"short int\000"
 6228      7420696E 
 6228      7400
 6229              	.LASF13:
 6230 0016 73697A65 		.ascii	"size_t\000"
 6230      5F7400
 6231              	.LASF38:
 6232 001d 73697A65 		.ascii	"sizetype\000"
 6232      74797065 
 6232      00
 6233              	.LASF26:
 6234 0026 5F61746F 		.ascii	"_atoi\000"
 6234      6900
 6235              	.LASF12:
 6236 002c 76615F6C 		.ascii	"va_list\000"
 6236      69737400 
 6237              	.LASF36:
 6238 0034 76616C75 		.ascii	"value\000"
 6238      6500
 6239              	.LASF10:
 6240 003a 75696E74 		.ascii	"uintptr_t\000"
 6240      7074725F 
 6240      7400
 6241              	.LASF30:
 6242 0044 73746172 		.ascii	"start_idx\000"
 6242      745F6964 
 6242      7800
 6243              	.LASF50:
 6244 004e 6C765F73 		.ascii	"lv_snprintf\000"
 6244      6E707269 
 6244      6E746600 
 6245              	.LASF28:
 6246 005a 77696474 		.ascii	"width\000"
 6246      6800
 6247              	.LASF7:
 6248 0060 6C6F6E67 		.ascii	"long long int\000"
 6248      206C6F6E 
 6248      6720696E 
 6248      7400
 6249              	.LASF48:
 6250 006e 5F5F7661 		.ascii	"__va_list\000"
 6250      5F6C6973 
 6250      7400
 6251              	.LASF5:
 6252 0078 6C6F6E67 		.ascii	"long int\000"
 6252      20696E74 
 6252      00
 6253              	.LASF31:
ARM GAS  C:\Users\strap\AppData\Local\Temp\ccV4k2oP.s 			page 130


 6254 0081 5F6E746F 		.ascii	"_ntoa_format\000"
 6254      615F666F 
 6254      726D6174 
 6254      00
 6255              	.LASF46:
 6256 008e 6C76676C 		.ascii	"lvgl\\src\\lv_misc\\lv_printf.c\000"
 6256      5C737263 
 6256      5C6C765F 
 6256      6D697363 
 6256      5C6C765F 
 6257              	.LASF32:
 6258 00ab 6E656761 		.ascii	"negative\000"
 6258      74697665 
 6258      00
 6259              	.LASF25:
 6260 00b4 5F6F7574 		.ascii	"_out_null\000"
 6260      5F6E756C 
 6260      6C00
 6261              	.LASF15:
 6262 00be 6F75745F 		.ascii	"out_fct_type\000"
 6262      6663745F 
 6262      74797065 
 6262      00
 6263              	.LASF14:
 6264 00cb 6C6F6E67 		.ascii	"long double\000"
 6264      20646F75 
 6264      626C6500 
 6265              	.LASF2:
 6266 00d7 756E7369 		.ascii	"unsigned char\000"
 6266      676E6564 
 6266      20636861 
 6266      7200
 6267              	.LASF35:
 6268 00e5 5F6E746F 		.ascii	"_ntoa_long\000"
 6268      615F6C6F 
 6268      6E6700
 6269              	.LASF1:
 6270 00f0 7369676E 		.ascii	"signed char\000"
 6270      65642063 
 6270      68617200 
 6271              	.LASF29:
 6272 00fc 666C6167 		.ascii	"flags\000"
 6272      7300
 6273              	.LASF8:
 6274 0102 6C6F6E67 		.ascii	"long long unsigned int\000"
 6274      206C6F6E 
 6274      6720756E 
 6274      7369676E 
 6274      65642069 
 6275              	.LASF0:
 6276 0119 756E7369 		.ascii	"unsigned int\000"
 6276      676E6564 
 6276      20696E74 
 6276      00
 6277              	.LASF23:
 6278 0126 6D61786C 		.ascii	"maxlen\000"
 6278      656E00
ARM GAS  C:\Users\strap\AppData\Local\Temp\ccV4k2oP.s 			page 131


 6279              	.LASF4:
 6280 012d 73686F72 		.ascii	"short unsigned int\000"
 6280      7420756E 
 6280      7369676E 
 6280      65642069 
 6280      6E7400
 6281              	.LASF19:
 6282 0140 5F737472 		.ascii	"_strnlen_s\000"
 6282      6E6C656E 
 6282      5F7300
 6283              	.LASF49:
 6284 014b 5F5F6170 		.ascii	"__ap\000"
 6284      00
 6285              	.LASF16:
 6286 0150 63686172 		.ascii	"char\000"
 6286      00
 6287              	.LASF17:
 6288 0155 5F426F6F 		.ascii	"_Bool\000"
 6288      6C00
 6289              	.LASF18:
 6290 015b 5F69735F 		.ascii	"_is_digit\000"
 6290      64696769 
 6290      7400
 6291              	.LASF22:
 6292 0165 62756666 		.ascii	"buffer\000"
 6292      657200
 6293              	.LASF40:
 6294 016c 5F76736E 		.ascii	"_vsnprintf\000"
 6294      7072696E 
 6294      746600
 6295              	.LASF51:
 6296 0177 6C765F76 		.ascii	"lv_vsnprintf\000"
 6296      736E7072 
 6296      696E7466 
 6296      00
 6297              	.LASF39:
 6298 0184 5F6E746F 		.ascii	"_ntoa_long_long\000"
 6298      615F6C6F 
 6298      6E675F6C 
 6298      6F6E6700 
 6299              	.LASF6:
 6300 0194 6C6F6E67 		.ascii	"long unsigned int\000"
 6300      20756E73 
 6300      69676E65 
 6300      6420696E 
 6300      7400
 6301              	.LASF9:
 6302 01a6 5F5F7569 		.ascii	"__uintptr_t\000"
 6302      6E747074 
 6302      725F7400 
 6303              	.LASF47:
 6304 01b2 433A5C55 		.ascii	"C:\\Users\\strap\\Documents\\Creator\\test_lvgl\\il"
 6304      73657273 
 6304      5C737472 
 6304      61705C44 
 6304      6F63756D 
 6305 01df 69393334 		.ascii	"i9341_master.cydsn\000"
ARM GAS  C:\Users\strap\AppData\Local\Temp\ccV4k2oP.s 			page 132


 6305      315F6D61 
 6305      73746572 
 6305      2E637964 
 6305      736E00
 6306              	.LASF21:
 6307 01f2 63686172 		.ascii	"character\000"
 6307      61637465 
 6307      7200
 6308              	.LASF27:
 6309 01fc 5F6F7574 		.ascii	"_out_rev\000"
 6309      5F726576 
 6309      00
 6310              	.LASF44:
 6311 0205 636F756E 		.ascii	"count\000"
 6311      7400
 6312              	.LASF20:
 6313 020b 6D617873 		.ascii	"maxsize\000"
 6313      697A6500 
 6314              	.LASF34:
 6315 0213 70726563 		.ascii	"prec\000"
 6315      00
 6316              	.LASF11:
 6317 0218 5F5F676E 		.ascii	"__gnuc_va_list\000"
 6317      75635F76 
 6317      615F6C69 
 6317      737400
 6318              	.LASF37:
 6319 0227 64696769 		.ascii	"digit\000"
 6319      7400
 6320              	.LASF43:
 6321 022d 69735F6C 		.ascii	"is_ll\000"
 6321      6C00
 6322              	.LASF45:
 6323 0233 474E5520 		.ascii	"GNU C11 5.4.1 20160609 (release) [ARM/embedded-5-br"
 6323      43313120 
 6323      352E342E 
 6323      31203230 
 6323      31363036 
 6324 0266 616E6368 		.ascii	"anch revision 237715] -mcpu=cortex-m3 -mthumb -g -O"
 6324      20726576 
 6324      6973696F 
 6324      6E203233 
 6324      37373135 
 6325 0299 67202D66 		.ascii	"g -ffunction-sections -ffat-lto-objects\000"
 6325      66756E63 
 6325      74696F6E 
 6325      2D736563 
 6325      74696F6E 
 6326              	.LASF33:
 6327 02c1 62617365 		.ascii	"base\000"
 6327      00
 6328              	.LASF41:
 6329 02c6 666F726D 		.ascii	"format\000"
 6329      617400
 6330              	.LASF42:
 6331 02cd 70726563 		.ascii	"precision\000"
 6331      6973696F 
ARM GAS  C:\Users\strap\AppData\Local\Temp\ccV4k2oP.s 			page 133


 6331      6E00
 6332              		.ident	"GCC: (GNU Tools for ARM Embedded Processors) 5.4.1 20160609 (release) [ARM/embedded-5-bran
