ARM GAS  C:\Users\strap\AppData\Local\Temp\ccV4k2oP.s 			page 1


   1              		.syntax unified
   2              		.cpu cortex-m3
   3              		.fpu softvfp
   4              		.eabi_attribute 20, 1
   5              		.eabi_attribute 21, 1
   6              		.eabi_attribute 23, 3
   7              		.eabi_attribute 24, 1
   8              		.eabi_attribute 25, 1
   9              		.eabi_attribute 26, 1
  10              		.eabi_attribute 30, 1
  11              		.eabi_attribute 34, 1
  12              		.eabi_attribute 18, 4
  13              		.thumb
  14              		.syntax unified
  15              		.file	"lv_printf.c"
  16              		.text
  17              	.Ltext0:
  18              		.cfi_sections	.debug_frame
  19              		.section	.text._out_buffer,"ax",%progbits
  20              		.align	2
  21              		.thumb
  22              		.thumb_func
  23              		.type	_out_buffer, %function
  24              	_out_buffer:
  25              	.LFB0:
  26              		.file 1 "lvgl\\src\\lv_misc\\lv_printf.c"
   1:lvgl\src\lv_misc/lv_printf.c **** ///////////////////////////////////////////////////////////////////////////////
   2:lvgl\src\lv_misc/lv_printf.c **** // \author (c) Marco Paland (info@paland.com)
   3:lvgl\src\lv_misc/lv_printf.c **** //             2014-2019, PALANDesign Hannover, Germany
   4:lvgl\src\lv_misc/lv_printf.c **** //
   5:lvgl\src\lv_misc/lv_printf.c **** // \license The MIT License (MIT)
   6:lvgl\src\lv_misc/lv_printf.c **** //
   7:lvgl\src\lv_misc/lv_printf.c **** // Permission is hereby granted, free of charge, to any person obtaining a copy
   8:lvgl\src\lv_misc/lv_printf.c **** // of this software and associated documentation files (the "Software"), to deal
   9:lvgl\src\lv_misc/lv_printf.c **** // in the Software without restriction, including without limitation the rights
  10:lvgl\src\lv_misc/lv_printf.c **** // to use, copy, modify, merge, publish, distribute, sublicense, and/or sell
  11:lvgl\src\lv_misc/lv_printf.c **** // copies of the Software, and to permit persons to whom the Software is
  12:lvgl\src\lv_misc/lv_printf.c **** // furnished to do so, subject to the following conditions:
  13:lvgl\src\lv_misc/lv_printf.c **** //
  14:lvgl\src\lv_misc/lv_printf.c **** // The above copyright notice and this permission notice shall be included in
  15:lvgl\src\lv_misc/lv_printf.c **** // all copies or substantial portions of the Software.
  16:lvgl\src\lv_misc/lv_printf.c **** //
  17:lvgl\src\lv_misc/lv_printf.c **** // THE SOFTWARE IS PROVIDED "AS IS", WITHOUT WARRANTY OF ANY KIND, EXPRESS OR
  18:lvgl\src\lv_misc/lv_printf.c **** // IMPLIED, INCLUDING BUT NOT LIMITED TO THE WARRANTIES OF MERCHANTABILITY,
  19:lvgl\src\lv_misc/lv_printf.c **** // FITNESS FOR A PARTICULAR PURPOSE AND NONINFRINGEMENT. IN NO EVENT SHALL THE
  20:lvgl\src\lv_misc/lv_printf.c **** // AUTHORS OR COPYRIGHT HOLDERS BE LIABLE FOR ANY CLAIM, DAMAGES OR OTHER
  21:lvgl\src\lv_misc/lv_printf.c **** // LIABILITY, WHETHER IN AN ACTION OF CONTRACT, TORT OR OTHERWISE, ARISING FROM,
  22:lvgl\src\lv_misc/lv_printf.c **** // OUT OF OR IN CONNECTION WITH THE SOFTWARE OR THE USE OR OTHER DEALINGS IN
  23:lvgl\src\lv_misc/lv_printf.c **** // THE SOFTWARE.
  24:lvgl\src\lv_misc/lv_printf.c **** //
  25:lvgl\src\lv_misc/lv_printf.c **** // \brief Tiny printf, sprintf and (v)snprintf implementation, optimized for speed on
  26:lvgl\src\lv_misc/lv_printf.c **** //        embedded systems with a very limited resources. These routines are thread
  27:lvgl\src\lv_misc/lv_printf.c **** //        safe and reentrant!
  28:lvgl\src\lv_misc/lv_printf.c **** //        Use this instead of the bloated standard/newlib printf cause these use
  29:lvgl\src\lv_misc/lv_printf.c **** //        malloc for printf (and may not be thread safe).
  30:lvgl\src\lv_misc/lv_printf.c **** //
  31:lvgl\src\lv_misc/lv_printf.c **** ///////////////////////////////////////////////////////////////////////////////
ARM GAS  C:\Users\strap\AppData\Local\Temp\ccV4k2oP.s 			page 2


  32:lvgl\src\lv_misc/lv_printf.c **** 
  33:lvgl\src\lv_misc/lv_printf.c **** #include "lv_printf.h"
  34:lvgl\src\lv_misc/lv_printf.c **** 
  35:lvgl\src\lv_misc/lv_printf.c **** #if LV_SPRINTF_CUSTOM == 0
  36:lvgl\src\lv_misc/lv_printf.c **** 
  37:lvgl\src\lv_misc/lv_printf.c **** #include <stdbool.h>
  38:lvgl\src\lv_misc/lv_printf.c **** #include <stdint.h>
  39:lvgl\src\lv_misc/lv_printf.c **** 
  40:lvgl\src\lv_misc/lv_printf.c **** 
  41:lvgl\src\lv_misc/lv_printf.c **** #define PRINTF_DISABLE_SUPPORT_FLOAT    LV_SPRINTF_DISABLE_FLOAT
  42:lvgl\src\lv_misc/lv_printf.c **** 
  43:lvgl\src\lv_misc/lv_printf.c **** // 'ntoa' conversion buffer size, this must be big enough to hold one converted
  44:lvgl\src\lv_misc/lv_printf.c **** // numeric number including padded zeros (dynamically created on stack)
  45:lvgl\src\lv_misc/lv_printf.c **** // default: 32 byte
  46:lvgl\src\lv_misc/lv_printf.c **** #ifndef PRINTF_NTOA_BUFFER_SIZE
  47:lvgl\src\lv_misc/lv_printf.c ****     #define PRINTF_NTOA_BUFFER_SIZE    32U
  48:lvgl\src\lv_misc/lv_printf.c **** #endif
  49:lvgl\src\lv_misc/lv_printf.c **** 
  50:lvgl\src\lv_misc/lv_printf.c **** // 'ftoa' conversion buffer size, this must be big enough to hold one converted
  51:lvgl\src\lv_misc/lv_printf.c **** // float number including padded zeros (dynamically created on stack)
  52:lvgl\src\lv_misc/lv_printf.c **** // default: 32 byte
  53:lvgl\src\lv_misc/lv_printf.c **** #ifndef PRINTF_FTOA_BUFFER_SIZE
  54:lvgl\src\lv_misc/lv_printf.c ****     #define PRINTF_FTOA_BUFFER_SIZE    32U
  55:lvgl\src\lv_misc/lv_printf.c **** #endif
  56:lvgl\src\lv_misc/lv_printf.c **** 
  57:lvgl\src\lv_misc/lv_printf.c **** // support for the floating point type (%f)
  58:lvgl\src\lv_misc/lv_printf.c **** // default: activated
  59:lvgl\src\lv_misc/lv_printf.c **** #if !PRINTF_DISABLE_SUPPORT_FLOAT
  60:lvgl\src\lv_misc/lv_printf.c ****     #define PRINTF_SUPPORT_FLOAT
  61:lvgl\src\lv_misc/lv_printf.c **** #endif
  62:lvgl\src\lv_misc/lv_printf.c **** 
  63:lvgl\src\lv_misc/lv_printf.c **** // support for exponential floating point notation (%e/%g)
  64:lvgl\src\lv_misc/lv_printf.c **** // default: activated
  65:lvgl\src\lv_misc/lv_printf.c **** #ifndef PRINTF_DISABLE_SUPPORT_EXPONENTIAL
  66:lvgl\src\lv_misc/lv_printf.c ****     #define PRINTF_SUPPORT_EXPONENTIAL
  67:lvgl\src\lv_misc/lv_printf.c **** #endif
  68:lvgl\src\lv_misc/lv_printf.c **** 
  69:lvgl\src\lv_misc/lv_printf.c **** // define the default floating point precision
  70:lvgl\src\lv_misc/lv_printf.c **** // default: 6 digits
  71:lvgl\src\lv_misc/lv_printf.c **** #ifndef PRINTF_DEFAULT_FLOAT_PRECISION
  72:lvgl\src\lv_misc/lv_printf.c ****     #define PRINTF_DEFAULT_FLOAT_PRECISION  6U
  73:lvgl\src\lv_misc/lv_printf.c **** #endif
  74:lvgl\src\lv_misc/lv_printf.c **** 
  75:lvgl\src\lv_misc/lv_printf.c **** // define the largest float suitable to print with %f
  76:lvgl\src\lv_misc/lv_printf.c **** // default: 1e9
  77:lvgl\src\lv_misc/lv_printf.c **** #ifndef PRINTF_MAX_FLOAT
  78:lvgl\src\lv_misc/lv_printf.c ****     #define PRINTF_MAX_FLOAT  1e9
  79:lvgl\src\lv_misc/lv_printf.c **** #endif
  80:lvgl\src\lv_misc/lv_printf.c **** 
  81:lvgl\src\lv_misc/lv_printf.c **** // support for the long long types (%llu or %p)
  82:lvgl\src\lv_misc/lv_printf.c **** // default: activated
  83:lvgl\src\lv_misc/lv_printf.c **** #ifndef PRINTF_DISABLE_SUPPORT_LONG_LONG
  84:lvgl\src\lv_misc/lv_printf.c ****     #define PRINTF_SUPPORT_LONG_LONG
  85:lvgl\src\lv_misc/lv_printf.c **** #endif
  86:lvgl\src\lv_misc/lv_printf.c **** 
  87:lvgl\src\lv_misc/lv_printf.c **** // support for the ptrdiff_t type (%t)
  88:lvgl\src\lv_misc/lv_printf.c **** // ptrdiff_t is normally defined in <stddef.h> as long or long long type
ARM GAS  C:\Users\strap\AppData\Local\Temp\ccV4k2oP.s 			page 3


  89:lvgl\src\lv_misc/lv_printf.c **** // default: activated
  90:lvgl\src\lv_misc/lv_printf.c **** #ifndef PRINTF_DISABLE_SUPPORT_PTRDIFF_T
  91:lvgl\src\lv_misc/lv_printf.c ****     #define PRINTF_SUPPORT_PTRDIFF_T
  92:lvgl\src\lv_misc/lv_printf.c **** #endif
  93:lvgl\src\lv_misc/lv_printf.c **** 
  94:lvgl\src\lv_misc/lv_printf.c **** ///////////////////////////////////////////////////////////////////////////////
  95:lvgl\src\lv_misc/lv_printf.c **** 
  96:lvgl\src\lv_misc/lv_printf.c **** // internal flag definitions
  97:lvgl\src\lv_misc/lv_printf.c **** #define FLAGS_ZEROPAD   (1U <<  0U)
  98:lvgl\src\lv_misc/lv_printf.c **** #define FLAGS_LEFT      (1U <<  1U)
  99:lvgl\src\lv_misc/lv_printf.c **** #define FLAGS_PLUS      (1U <<  2U)
 100:lvgl\src\lv_misc/lv_printf.c **** #define FLAGS_SPACE     (1U <<  3U)
 101:lvgl\src\lv_misc/lv_printf.c **** #define FLAGS_HASH      (1U <<  4U)
 102:lvgl\src\lv_misc/lv_printf.c **** #define FLAGS_UPPERCASE (1U <<  5U)
 103:lvgl\src\lv_misc/lv_printf.c **** #define FLAGS_CHAR      (1U <<  6U)
 104:lvgl\src\lv_misc/lv_printf.c **** #define FLAGS_SHORT     (1U <<  7U)
 105:lvgl\src\lv_misc/lv_printf.c **** #define FLAGS_LONG      (1U <<  8U)
 106:lvgl\src\lv_misc/lv_printf.c **** #define FLAGS_LONG_LONG (1U <<  9U)
 107:lvgl\src\lv_misc/lv_printf.c **** #define FLAGS_PRECISION (1U << 10U)
 108:lvgl\src\lv_misc/lv_printf.c **** #define FLAGS_ADAPT_EXP (1U << 11U)
 109:lvgl\src\lv_misc/lv_printf.c **** 
 110:lvgl\src\lv_misc/lv_printf.c **** 
 111:lvgl\src\lv_misc/lv_printf.c **** // import float.h for DBL_MAX
 112:lvgl\src\lv_misc/lv_printf.c **** #if defined(PRINTF_SUPPORT_FLOAT)
 113:lvgl\src\lv_misc/lv_printf.c ****     #include <float.h>
 114:lvgl\src\lv_misc/lv_printf.c **** #endif
 115:lvgl\src\lv_misc/lv_printf.c **** 
 116:lvgl\src\lv_misc/lv_printf.c **** 
 117:lvgl\src\lv_misc/lv_printf.c **** // output function type
 118:lvgl\src\lv_misc/lv_printf.c **** typedef void (*out_fct_type)(char character, void * buffer, size_t idx, size_t maxlen);
 119:lvgl\src\lv_misc/lv_printf.c **** 
 120:lvgl\src\lv_misc/lv_printf.c **** 
 121:lvgl\src\lv_misc/lv_printf.c **** // wrapper (used as buffer) for output function type
 122:lvgl\src\lv_misc/lv_printf.c **** typedef struct {
 123:lvgl\src\lv_misc/lv_printf.c ****     void (*fct)(char character, void * arg);
 124:lvgl\src\lv_misc/lv_printf.c ****     void * arg;
 125:lvgl\src\lv_misc/lv_printf.c **** } out_fct_wrap_type;
 126:lvgl\src\lv_misc/lv_printf.c **** 
 127:lvgl\src\lv_misc/lv_printf.c **** 
 128:lvgl\src\lv_misc/lv_printf.c **** // internal buffer output
 129:lvgl\src\lv_misc/lv_printf.c **** static inline void _out_buffer(char character, void * buffer, size_t idx, size_t maxlen)
 130:lvgl\src\lv_misc/lv_printf.c **** {
  27              		.loc 1 130 0
  28              		.cfi_startproc
  29              		@ args = 0, pretend = 0, frame = 0
  30              		@ frame_needed = 0, uses_anonymous_args = 0
  31              		@ link register save eliminated.
  32              	.LVL0:
 131:lvgl\src\lv_misc/lv_printf.c ****     if(idx < maxlen) {
  33              		.loc 1 131 0
  34 0000 9A42     		cmp	r2, r3
  35 0002 00D2     		bcs	.L1
 132:lvgl\src\lv_misc/lv_printf.c ****         ((char *)buffer)[idx] = character;
  36              		.loc 1 132 0
  37 0004 8854     		strb	r0, [r1, r2]
  38              	.L1:
  39 0006 7047     		bx	lr
ARM GAS  C:\Users\strap\AppData\Local\Temp\ccV4k2oP.s 			page 4


  40              		.cfi_endproc
  41              	.LFE0:
  42              		.size	_out_buffer, .-_out_buffer
  43              		.section	.text._out_null,"ax",%progbits
  44              		.align	2
  45              		.thumb
  46              		.thumb_func
  47              		.type	_out_null, %function
  48              	_out_null:
  49              	.LFB1:
 133:lvgl\src\lv_misc/lv_printf.c ****     }
 134:lvgl\src\lv_misc/lv_printf.c **** }
 135:lvgl\src\lv_misc/lv_printf.c **** 
 136:lvgl\src\lv_misc/lv_printf.c **** 
 137:lvgl\src\lv_misc/lv_printf.c **** // internal null output
 138:lvgl\src\lv_misc/lv_printf.c **** static inline void _out_null(char character, void * buffer, size_t idx, size_t maxlen)
 139:lvgl\src\lv_misc/lv_printf.c **** {
  50              		.loc 1 139 0
  51              		.cfi_startproc
  52              		@ args = 0, pretend = 0, frame = 0
  53              		@ frame_needed = 0, uses_anonymous_args = 0
  54              		@ link register save eliminated.
  55              	.LVL1:
  56 0000 7047     		bx	lr
  57              		.cfi_endproc
  58              	.LFE1:
  59              		.size	_out_null, .-_out_null
  60 0002 00BF     		.section	.text._atoi,"ax",%progbits
  61              		.align	2
  62              		.thumb
  63              		.thumb_func
  64              		.type	_atoi, %function
  65              	_atoi:
  66              	.LFB4:
 140:lvgl\src\lv_misc/lv_printf.c ****     (void)character;
 141:lvgl\src\lv_misc/lv_printf.c ****     (void)buffer;
 142:lvgl\src\lv_misc/lv_printf.c ****     (void)idx;
 143:lvgl\src\lv_misc/lv_printf.c ****     (void)maxlen;
 144:lvgl\src\lv_misc/lv_printf.c **** }
 145:lvgl\src\lv_misc/lv_printf.c **** 
 146:lvgl\src\lv_misc/lv_printf.c **** 
 147:lvgl\src\lv_misc/lv_printf.c **** 
 148:lvgl\src\lv_misc/lv_printf.c **** // internal secure strlen
 149:lvgl\src\lv_misc/lv_printf.c **** // \return The length of the string (excluding the terminating 0) limited by 'maxsize'
 150:lvgl\src\lv_misc/lv_printf.c **** static inline unsigned int _strnlen_s(const char * str, size_t maxsize)
 151:lvgl\src\lv_misc/lv_printf.c **** {
 152:lvgl\src\lv_misc/lv_printf.c ****     const char * s;
 153:lvgl\src\lv_misc/lv_printf.c ****     for(s = str; *s && maxsize--; ++s);
 154:lvgl\src\lv_misc/lv_printf.c ****     return (unsigned int)(s - str);
 155:lvgl\src\lv_misc/lv_printf.c **** }
 156:lvgl\src\lv_misc/lv_printf.c **** 
 157:lvgl\src\lv_misc/lv_printf.c **** 
 158:lvgl\src\lv_misc/lv_printf.c **** // internal test if char is a digit (0-9)
 159:lvgl\src\lv_misc/lv_printf.c **** // \return true if char is a digit
 160:lvgl\src\lv_misc/lv_printf.c **** static inline bool _is_digit(char ch)
 161:lvgl\src\lv_misc/lv_printf.c **** {
 162:lvgl\src\lv_misc/lv_printf.c ****     return (ch >= '0') && (ch <= '9');
ARM GAS  C:\Users\strap\AppData\Local\Temp\ccV4k2oP.s 			page 5


 163:lvgl\src\lv_misc/lv_printf.c **** }
 164:lvgl\src\lv_misc/lv_printf.c **** 
 165:lvgl\src\lv_misc/lv_printf.c **** 
 166:lvgl\src\lv_misc/lv_printf.c **** // internal ASCII string to unsigned int conversion
 167:lvgl\src\lv_misc/lv_printf.c **** static unsigned int _atoi(const char ** str)
 168:lvgl\src\lv_misc/lv_printf.c **** {
  67              		.loc 1 168 0
  68              		.cfi_startproc
  69              		@ args = 0, pretend = 0, frame = 0
  70              		@ frame_needed = 0, uses_anonymous_args = 0
  71              		@ link register save eliminated.
  72              	.LVL2:
  73              		.loc 1 168 0
  74 0000 0146     		mov	r1, r0
  75              	.LVL3:
 169:lvgl\src\lv_misc/lv_printf.c ****     unsigned int i = 0U;
  76              		.loc 1 169 0
  77 0002 0020     		movs	r0, #0
  78              	.LVL4:
 170:lvgl\src\lv_misc/lv_printf.c ****     while(_is_digit(**str)) {
  79              		.loc 1 170 0
  80 0004 08E0     		b	.L5
  81              	.LVL5:
  82              	.L6:
 171:lvgl\src\lv_misc/lv_printf.c ****         i = i * 10U + (unsigned int)(*((*str)++) - '0');
  83              		.loc 1 171 0
  84 0006 00EB8000 		add	r0, r0, r0, lsl #2
  85              	.LVL6:
  86 000a 4300     		lsls	r3, r0, #1
  87 000c 501C     		adds	r0, r2, #1
  88 000e 0860     		str	r0, [r1]
  89 0010 1078     		ldrb	r0, [r2]	@ zero_extendqisi2
  90 0012 0344     		add	r3, r3, r0
  91 0014 A3F13000 		sub	r0, r3, #48
  92              	.LVL7:
  93              	.L5:
 170:lvgl\src\lv_misc/lv_printf.c ****     while(_is_digit(**str)) {
  94              		.loc 1 170 0
  95 0018 0A68     		ldr	r2, [r1]
  96 001a 1378     		ldrb	r3, [r2]	@ zero_extendqisi2
  97              	.LVL8:
  98              	.LBB20:
  99              	.LBB21:
 162:lvgl\src\lv_misc/lv_printf.c **** }
 100              		.loc 1 162 0
 101 001c 303B     		subs	r3, r3, #48
 102              	.LVL9:
 103 001e DBB2     		uxtb	r3, r3
 104              	.LVL10:
 105              	.LBE21:
 106              	.LBE20:
 170:lvgl\src\lv_misc/lv_printf.c ****     while(_is_digit(**str)) {
 107              		.loc 1 170 0
 108 0020 092B     		cmp	r3, #9
 109 0022 F0D9     		bls	.L6
 172:lvgl\src\lv_misc/lv_printf.c ****     }
 173:lvgl\src\lv_misc/lv_printf.c ****     return i;
ARM GAS  C:\Users\strap\AppData\Local\Temp\ccV4k2oP.s 			page 6


 174:lvgl\src\lv_misc/lv_printf.c **** }
 110              		.loc 1 174 0
 111 0024 7047     		bx	lr
 112              		.cfi_endproc
 113              	.LFE4:
 114              		.size	_atoi, .-_atoi
 115 0026 00BF     		.section	.text._out_rev,"ax",%progbits
 116              		.align	2
 117              		.thumb
 118              		.thumb_func
 119              		.type	_out_rev, %function
 120              	_out_rev:
 121              	.LFB5:
 175:lvgl\src\lv_misc/lv_printf.c **** 
 176:lvgl\src\lv_misc/lv_printf.c **** 
 177:lvgl\src\lv_misc/lv_printf.c **** // output the specified string in reverse, taking care of any zero-padding
 178:lvgl\src\lv_misc/lv_printf.c **** static size_t _out_rev(out_fct_type out, char * buffer, size_t idx, size_t maxlen, const char * buf
 179:lvgl\src\lv_misc/lv_printf.c ****                        unsigned int width, unsigned int flags)
 180:lvgl\src\lv_misc/lv_printf.c **** {
 122              		.loc 1 180 0
 123              		.cfi_startproc
 124              		@ args = 16, pretend = 0, frame = 8
 125              		@ frame_needed = 0, uses_anonymous_args = 0
 126              	.LVL11:
 127 0000 2DE9F04F 		push	{r4, r5, r6, r7, r8, r9, r10, fp, lr}
 128              		.cfi_def_cfa_offset 36
 129              		.cfi_offset 4, -36
 130              		.cfi_offset 5, -32
 131              		.cfi_offset 6, -28
 132              		.cfi_offset 7, -24
 133              		.cfi_offset 8, -20
 134              		.cfi_offset 9, -16
 135              		.cfi_offset 10, -12
 136              		.cfi_offset 11, -8
 137              		.cfi_offset 14, -4
 138 0004 83B0     		sub	sp, sp, #12
 139              		.cfi_def_cfa_offset 48
 140 0006 0546     		mov	r5, r0
 141 0008 0191     		str	r1, [sp, #4]
 142 000a 9346     		mov	fp, r2
 143 000c 1E46     		mov	r6, r3
 144 000e DDF83090 		ldr	r9, [sp, #48]
 145 0012 0D9C     		ldr	r4, [sp, #52]
 146 0014 DDF83880 		ldr	r8, [sp, #56]
 147              	.LVL12:
 181:lvgl\src\lv_misc/lv_printf.c ****     const size_t start_idx = idx;
 182:lvgl\src\lv_misc/lv_printf.c **** 
 183:lvgl\src\lv_misc/lv_printf.c ****     // pad spaces up to given width
 184:lvgl\src\lv_misc/lv_printf.c ****     if(!(flags & FLAGS_LEFT) && !(flags & FLAGS_ZEROPAD)) {
 148              		.loc 1 184 0
 149 0018 0F9B     		ldr	r3, [sp, #60]
 150              	.LVL13:
 151 001a 13F0030F 		tst	r3, #3
 152 001e 09D0     		beq	.L16
 153 0020 14E0     		b	.L11
 154              	.LVL14:
 155              	.L10:
ARM GAS  C:\Users\strap\AppData\Local\Temp\ccV4k2oP.s 			page 7


 156              	.LBB22:
 185:lvgl\src\lv_misc/lv_printf.c ****         size_t i;
 186:lvgl\src\lv_misc/lv_printf.c ****         for(i = len; i < width; i++) {
 187:lvgl\src\lv_misc/lv_printf.c ****             out(' ', buffer, idx++, maxlen);
 157              		.loc 1 187 0 discriminator 3
 158 0022 02F1010A 		add	r10, r2, #1
 159              	.LVL15:
 160 0026 3346     		mov	r3, r6
 161 0028 0199     		ldr	r1, [sp, #4]
 162 002a 2020     		movs	r0, #32
 163 002c A847     		blx	r5
 164              	.LVL16:
 186:lvgl\src\lv_misc/lv_printf.c ****             out(' ', buffer, idx++, maxlen);
 165              		.loc 1 186 0 discriminator 3
 166 002e 0137     		adds	r7, r7, #1
 167              	.LVL17:
 168              		.loc 1 187 0 discriminator 3
 169 0030 5246     		mov	r2, r10
 170 0032 00E0     		b	.L8
 171              	.LVL18:
 172              	.L16:
 173              	.LBE22:
 174 0034 2746     		mov	r7, r4
 175              	.LVL19:
 176              	.L8:
 177              	.LBB23:
 186:lvgl\src\lv_misc/lv_printf.c ****             out(' ', buffer, idx++, maxlen);
 178              		.loc 1 186 0 discriminator 1
 179 0036 4745     		cmp	r7, r8
 180 0038 F3D3     		bcc	.L10
 181 003a 07E0     		b	.L11
 182              	.LVL20:
 183              	.L12:
 184              	.LBE23:
 188:lvgl\src\lv_misc/lv_printf.c ****         }
 189:lvgl\src\lv_misc/lv_printf.c ****     }
 190:lvgl\src\lv_misc/lv_printf.c **** 
 191:lvgl\src\lv_misc/lv_printf.c ****     // reverse string
 192:lvgl\src\lv_misc/lv_printf.c ****     while(len) {
 193:lvgl\src\lv_misc/lv_printf.c ****         out(buf[--len], buffer, idx++, maxlen);
 185              		.loc 1 193 0
 186 003c 013C     		subs	r4, r4, #1
 187              	.LVL21:
 188 003e 571C     		adds	r7, r2, #1
 189              	.LVL22:
 190 0040 3346     		mov	r3, r6
 191 0042 0199     		ldr	r1, [sp, #4]
 192 0044 19F80400 		ldrb	r0, [r9, r4]	@ zero_extendqisi2
 193 0048 A847     		blx	r5
 194              	.LVL23:
 195 004a 3A46     		mov	r2, r7
 196              	.LVL24:
 197              	.L11:
 192:lvgl\src\lv_misc/lv_printf.c ****         out(buf[--len], buffer, idx++, maxlen);
 198              		.loc 1 192 0
 199 004c 002C     		cmp	r4, #0
 200 004e F5D1     		bne	.L12
ARM GAS  C:\Users\strap\AppData\Local\Temp\ccV4k2oP.s 			page 8


 194:lvgl\src\lv_misc/lv_printf.c ****     }
 195:lvgl\src\lv_misc/lv_printf.c **** 
 196:lvgl\src\lv_misc/lv_printf.c ****     // append pad spaces up to given width
 197:lvgl\src\lv_misc/lv_printf.c ****     if(flags & FLAGS_LEFT) {
 201              		.loc 1 197 0
 202 0050 0F9B     		ldr	r3, [sp, #60]
 203 0052 13F0020F 		tst	r3, #2
 204 0056 07D1     		bne	.L17
 205 0058 0BE0     		b	.L14
 206              	.LVL25:
 207              	.L15:
 198:lvgl\src\lv_misc/lv_printf.c ****         while(idx - start_idx < width) {
 199:lvgl\src\lv_misc/lv_printf.c ****             out(' ', buffer, idx++, maxlen);
 208              		.loc 1 199 0
 209 005a 541C     		adds	r4, r2, #1
 210              	.LVL26:
 211 005c 3346     		mov	r3, r6
 212 005e 3946     		mov	r1, r7
 213 0060 2020     		movs	r0, #32
 214 0062 A847     		blx	r5
 215              	.LVL27:
 216 0064 2246     		mov	r2, r4
 217 0066 00E0     		b	.L13
 218              	.LVL28:
 219              	.L17:
 220 0068 019F     		ldr	r7, [sp, #4]
 221              	.LVL29:
 222              	.L13:
 198:lvgl\src\lv_misc/lv_printf.c ****         while(idx - start_idx < width) {
 223              		.loc 1 198 0
 224 006a CBEB0203 		rsb	r3, fp, r2
 225 006e 9845     		cmp	r8, r3
 226 0070 F3D8     		bhi	.L15
 227              	.L14:
 200:lvgl\src\lv_misc/lv_printf.c ****         }
 201:lvgl\src\lv_misc/lv_printf.c ****     }
 202:lvgl\src\lv_misc/lv_printf.c **** 
 203:lvgl\src\lv_misc/lv_printf.c ****     return idx;
 204:lvgl\src\lv_misc/lv_printf.c **** }
 228              		.loc 1 204 0
 229 0072 1046     		mov	r0, r2
 230 0074 03B0     		add	sp, sp, #12
 231              		.cfi_def_cfa_offset 36
 232              		@ sp needed
 233 0076 BDE8F08F 		pop	{r4, r5, r6, r7, r8, r9, r10, fp, pc}
 234              		.cfi_endproc
 235              	.LFE5:
 236              		.size	_out_rev, .-_out_rev
 237 007a 00BF     		.section	.text._ntoa_format,"ax",%progbits
 238              		.align	2
 239              		.thumb
 240              		.thumb_func
 241              		.type	_ntoa_format, %function
 242              	_ntoa_format:
 243              	.LFB6:
 205:lvgl\src\lv_misc/lv_printf.c **** 
 206:lvgl\src\lv_misc/lv_printf.c **** 
ARM GAS  C:\Users\strap\AppData\Local\Temp\ccV4k2oP.s 			page 9


 207:lvgl\src\lv_misc/lv_printf.c **** // internal itoa format
 208:lvgl\src\lv_misc/lv_printf.c **** static size_t _ntoa_format(out_fct_type out, char * buffer, size_t idx, size_t maxlen, char * buf, 
 209:lvgl\src\lv_misc/lv_printf.c ****                            bool negative, unsigned int base, unsigned int prec, unsigned int width,
 210:lvgl\src\lv_misc/lv_printf.c **** {
 244              		.loc 1 210 0
 245              		.cfi_startproc
 246              		@ args = 28, pretend = 0, frame = 0
 247              		@ frame_needed = 0, uses_anonymous_args = 0
 248              	.LVL30:
 249 0000 2DE9F043 		push	{r4, r5, r6, r7, r8, r9, lr}
 250              		.cfi_def_cfa_offset 28
 251              		.cfi_offset 4, -28
 252              		.cfi_offset 5, -24
 253              		.cfi_offset 6, -20
 254              		.cfi_offset 7, -16
 255              		.cfi_offset 8, -12
 256              		.cfi_offset 9, -8
 257              		.cfi_offset 14, -4
 258 0004 85B0     		sub	sp, sp, #20
 259              		.cfi_def_cfa_offset 48
 260 0006 0C9D     		ldr	r5, [sp, #48]
 261 0008 0D9C     		ldr	r4, [sp, #52]
 262 000a 9DF83890 		ldrb	r9, [sp, #56]	@ zero_extendqisi2
 263 000e DDF83C80 		ldr	r8, [sp, #60]
 264 0012 DDF840C0 		ldr	ip, [sp, #64]
 265 0016 DDF844E0 		ldr	lr, [sp, #68]
 266 001a 129E     		ldr	r6, [sp, #72]
 211:lvgl\src\lv_misc/lv_printf.c ****     // pad leading zeros
 212:lvgl\src\lv_misc/lv_printf.c ****     if(!(flags & FLAGS_LEFT)) {
 267              		.loc 1 212 0
 268 001c 16F0020F 		tst	r6, #2
 269 0020 20D1     		bne	.L20
 213:lvgl\src\lv_misc/lv_printf.c ****         if(width && (flags & FLAGS_ZEROPAD) && (negative || (flags & (FLAGS_PLUS | FLAGS_SPACE)))) 
 270              		.loc 1 213 0
 271 0022 BEF1000F 		cmp	lr, #0
 272 0026 0ED0     		beq	.L23
 273              		.loc 1 213 0 is_stmt 0 discriminator 1
 274 0028 16F0010F 		tst	r6, #1
 275 002c 0BD0     		beq	.L23
 276              		.loc 1 213 0 discriminator 2
 277 002e B9F1000F 		cmp	r9, #0
 278 0032 02D1     		bne	.L22
 279              		.loc 1 213 0 discriminator 3
 280 0034 16F00C0F 		tst	r6, #12
 281 0038 05D0     		beq	.L23
 282              	.L22:
 214:lvgl\src\lv_misc/lv_printf.c ****             width--;
 283              		.loc 1 214 0 is_stmt 1
 284 003a 0EF1FF3E 		add	lr, lr, #-1
 285              	.LVL31:
 286 003e 02E0     		b	.L23
 287              	.LVL32:
 288              	.L25:
 215:lvgl\src\lv_misc/lv_printf.c ****         }
 216:lvgl\src\lv_misc/lv_printf.c ****         while((len < prec) && (len < PRINTF_NTOA_BUFFER_SIZE)) {
 217:lvgl\src\lv_misc/lv_printf.c ****             buf[len++] = '0';
 289              		.loc 1 217 0
ARM GAS  C:\Users\strap\AppData\Local\Temp\ccV4k2oP.s 			page 10


 290 0040 3027     		movs	r7, #48
 291 0042 2F55     		strb	r7, [r5, r4]
 292 0044 0134     		adds	r4, r4, #1
 293              	.LVL33:
 294              	.L23:
 216:lvgl\src\lv_misc/lv_printf.c ****             buf[len++] = '0';
 295              		.loc 1 216 0
 296 0046 6445     		cmp	r4, ip
 297 0048 05D2     		bcs	.L24
 216:lvgl\src\lv_misc/lv_printf.c ****             buf[len++] = '0';
 298              		.loc 1 216 0 is_stmt 0 discriminator 1
 299 004a 1F2C     		cmp	r4, #31
 300 004c F8D9     		bls	.L25
 301 004e 02E0     		b	.L24
 302              	.L26:
 303              	.LVL34:
 218:lvgl\src\lv_misc/lv_printf.c ****         }
 219:lvgl\src\lv_misc/lv_printf.c ****         while((flags & FLAGS_ZEROPAD) && (len < width) && (len < PRINTF_NTOA_BUFFER_SIZE)) {
 220:lvgl\src\lv_misc/lv_printf.c ****             buf[len++] = '0';
 304              		.loc 1 220 0 is_stmt 1
 305 0050 3027     		movs	r7, #48
 306 0052 2F55     		strb	r7, [r5, r4]
 307 0054 0134     		adds	r4, r4, #1
 308              	.LVL35:
 309              	.L24:
 219:lvgl\src\lv_misc/lv_printf.c ****             buf[len++] = '0';
 310              		.loc 1 219 0
 311 0056 16F0010F 		tst	r6, #1
 312 005a 03D0     		beq	.L20
 219:lvgl\src\lv_misc/lv_printf.c ****             buf[len++] = '0';
 313              		.loc 1 219 0 is_stmt 0 discriminator 1
 314 005c 7445     		cmp	r4, lr
 315 005e 01D2     		bcs	.L20
 219:lvgl\src\lv_misc/lv_printf.c ****             buf[len++] = '0';
 316              		.loc 1 219 0 discriminator 2
 317 0060 1F2C     		cmp	r4, #31
 318 0062 F5D9     		bls	.L26
 319              	.LVL36:
 320              	.L20:
 221:lvgl\src\lv_misc/lv_printf.c ****         }
 222:lvgl\src\lv_misc/lv_printf.c ****     }
 223:lvgl\src\lv_misc/lv_printf.c **** 
 224:lvgl\src\lv_misc/lv_printf.c ****     // handle hash
 225:lvgl\src\lv_misc/lv_printf.c ****     if(flags & FLAGS_HASH) {
 321              		.loc 1 225 0 is_stmt 1
 322 0064 16F0100F 		tst	r6, #16
 323 0068 36D0     		beq	.L27
 226:lvgl\src\lv_misc/lv_printf.c ****         if(!(flags & FLAGS_PRECISION) && len && ((len == prec) || (len == width))) {
 324              		.loc 1 226 0
 325 006a 16F4806F 		tst	r6, #1024
 326 006e 0ED1     		bne	.L28
 327              		.loc 1 226 0 is_stmt 0 discriminator 1
 328 0070 6CB1     		cbz	r4, .L28
 329              		.loc 1 226 0 discriminator 2
 330 0072 6445     		cmp	r4, ip
 331 0074 01D0     		beq	.L29
 332              		.loc 1 226 0 discriminator 3
ARM GAS  C:\Users\strap\AppData\Local\Temp\ccV4k2oP.s 			page 11


 333 0076 7445     		cmp	r4, lr
 334 0078 09D1     		bne	.L28
 335              	.L29:
 336              	.LVL37:
 227:lvgl\src\lv_misc/lv_printf.c ****             len--;
 228:lvgl\src\lv_misc/lv_printf.c ****             if(len && (base == 16U)) {
 337              		.loc 1 228 0 is_stmt 1
 338 007a 671E     		subs	r7, r4, #1
 339              	.LVL38:
 340 007c 04D0     		beq	.L36
 341              		.loc 1 228 0 is_stmt 0 discriminator 1
 342 007e B8F1100F 		cmp	r8, #16
 343 0082 03D1     		bne	.L37
 229:lvgl\src\lv_misc/lv_printf.c ****                 len--;
 344              		.loc 1 229 0 is_stmt 1
 345 0084 023C     		subs	r4, r4, #2
 346              	.LVL39:
 347 0086 02E0     		b	.L28
 348              	.LVL40:
 349              	.L36:
 227:lvgl\src\lv_misc/lv_printf.c ****             len--;
 350              		.loc 1 227 0
 351 0088 3C46     		mov	r4, r7
 352 008a 00E0     		b	.L28
 353              	.L37:
 354 008c 3C46     		mov	r4, r7
 355              	.LVL41:
 356              	.L28:
 230:lvgl\src\lv_misc/lv_printf.c ****             }
 231:lvgl\src\lv_misc/lv_printf.c ****         }
 232:lvgl\src\lv_misc/lv_printf.c ****         if((base == 16U) && !(flags & FLAGS_UPPERCASE) && (len < PRINTF_NTOA_BUFFER_SIZE)) {
 357              		.loc 1 232 0
 358 008e B8F1100F 		cmp	r8, #16
 359 0092 08D1     		bne	.L30
 360              		.loc 1 232 0 is_stmt 0 discriminator 1
 361 0094 16F0200F 		tst	r6, #32
 362 0098 05D1     		bne	.L30
 363              		.loc 1 232 0 discriminator 2
 364 009a 1F2C     		cmp	r4, #31
 365 009c 03D8     		bhi	.L30
 366              	.LVL42:
 233:lvgl\src\lv_misc/lv_printf.c ****             buf[len++] = 'x';
 367              		.loc 1 233 0 is_stmt 1
 368 009e 7827     		movs	r7, #120
 369 00a0 2F55     		strb	r7, [r5, r4]
 370 00a2 0134     		adds	r4, r4, #1
 371              	.LVL43:
 372 00a4 13E0     		b	.L31
 373              	.L30:
 234:lvgl\src\lv_misc/lv_printf.c ****         }
 235:lvgl\src\lv_misc/lv_printf.c ****         else if((base == 16U) && (flags & FLAGS_UPPERCASE) && (len < PRINTF_NTOA_BUFFER_SIZE)) {
 374              		.loc 1 235 0
 375 00a6 B8F1100F 		cmp	r8, #16
 376 00aa 08D1     		bne	.L32
 377              		.loc 1 235 0 is_stmt 0 discriminator 1
 378 00ac 16F0200F 		tst	r6, #32
 379 00b0 05D0     		beq	.L32
ARM GAS  C:\Users\strap\AppData\Local\Temp\ccV4k2oP.s 			page 12


 380              		.loc 1 235 0 discriminator 2
 381 00b2 1F2C     		cmp	r4, #31
 382 00b4 03D8     		bhi	.L32
 383              	.LVL44:
 236:lvgl\src\lv_misc/lv_printf.c ****             buf[len++] = 'X';
 384              		.loc 1 236 0 is_stmt 1
 385 00b6 5827     		movs	r7, #88
 386 00b8 2F55     		strb	r7, [r5, r4]
 387 00ba 0134     		adds	r4, r4, #1
 388              	.LVL45:
 389 00bc 07E0     		b	.L31
 390              	.L32:
 237:lvgl\src\lv_misc/lv_printf.c ****         }
 238:lvgl\src\lv_misc/lv_printf.c ****         else if((base == 2U) && (len < PRINTF_NTOA_BUFFER_SIZE)) {
 391              		.loc 1 238 0
 392 00be B8F1020F 		cmp	r8, #2
 393 00c2 04D1     		bne	.L31
 394              		.loc 1 238 0 is_stmt 0 discriminator 1
 395 00c4 1F2C     		cmp	r4, #31
 396 00c6 02D8     		bhi	.L31
 397              	.LVL46:
 239:lvgl\src\lv_misc/lv_printf.c ****             buf[len++] = 'b';
 398              		.loc 1 239 0 is_stmt 1
 399 00c8 6227     		movs	r7, #98
 400 00ca 2F55     		strb	r7, [r5, r4]
 401 00cc 0134     		adds	r4, r4, #1
 402              	.LVL47:
 403              	.L31:
 240:lvgl\src\lv_misc/lv_printf.c ****         }
 241:lvgl\src\lv_misc/lv_printf.c ****         if(len < PRINTF_NTOA_BUFFER_SIZE) {
 404              		.loc 1 241 0
 405 00ce 1F2C     		cmp	r4, #31
 406 00d0 02D8     		bhi	.L27
 407              	.LVL48:
 242:lvgl\src\lv_misc/lv_printf.c ****             buf[len++] = '0';
 408              		.loc 1 242 0
 409 00d2 3027     		movs	r7, #48
 410 00d4 2F55     		strb	r7, [r5, r4]
 411 00d6 0134     		adds	r4, r4, #1
 412              	.LVL49:
 413              	.L27:
 243:lvgl\src\lv_misc/lv_printf.c ****         }
 244:lvgl\src\lv_misc/lv_printf.c ****     }
 245:lvgl\src\lv_misc/lv_printf.c **** 
 246:lvgl\src\lv_misc/lv_printf.c ****     if(len < PRINTF_NTOA_BUFFER_SIZE) {
 414              		.loc 1 246 0
 415 00d8 1F2C     		cmp	r4, #31
 416 00da 13D8     		bhi	.L33
 247:lvgl\src\lv_misc/lv_printf.c ****         if(negative) {
 417              		.loc 1 247 0
 418 00dc B9F1000F 		cmp	r9, #0
 419 00e0 03D0     		beq	.L34
 420              	.LVL50:
 248:lvgl\src\lv_misc/lv_printf.c ****             buf[len++] = '-';
 421              		.loc 1 248 0
 422 00e2 2D27     		movs	r7, #45
 423 00e4 2F55     		strb	r7, [r5, r4]
ARM GAS  C:\Users\strap\AppData\Local\Temp\ccV4k2oP.s 			page 13


 424 00e6 0134     		adds	r4, r4, #1
 425              	.LVL51:
 426 00e8 0CE0     		b	.L33
 427              	.L34:
 249:lvgl\src\lv_misc/lv_printf.c ****         }
 250:lvgl\src\lv_misc/lv_printf.c ****         else if(flags & FLAGS_PLUS) {
 428              		.loc 1 250 0
 429 00ea 16F0040F 		tst	r6, #4
 430 00ee 03D0     		beq	.L35
 431              	.LVL52:
 251:lvgl\src\lv_misc/lv_printf.c ****             buf[len++] = '+';  // ignore the space if the '+' exists
 432              		.loc 1 251 0
 433 00f0 2B27     		movs	r7, #43
 434 00f2 2F55     		strb	r7, [r5, r4]
 435 00f4 0134     		adds	r4, r4, #1
 436              	.LVL53:
 437 00f6 05E0     		b	.L33
 438              	.L35:
 252:lvgl\src\lv_misc/lv_printf.c ****         }
 253:lvgl\src\lv_misc/lv_printf.c ****         else if(flags & FLAGS_SPACE) {
 439              		.loc 1 253 0
 440 00f8 16F0080F 		tst	r6, #8
 441 00fc 02D0     		beq	.L33
 442              	.LVL54:
 254:lvgl\src\lv_misc/lv_printf.c ****             buf[len++] = ' ';
 443              		.loc 1 254 0
 444 00fe 2027     		movs	r7, #32
 445 0100 2F55     		strb	r7, [r5, r4]
 446 0102 0134     		adds	r4, r4, #1
 447              	.LVL55:
 448              	.L33:
 255:lvgl\src\lv_misc/lv_printf.c ****         }
 256:lvgl\src\lv_misc/lv_printf.c ****     }
 257:lvgl\src\lv_misc/lv_printf.c **** 
 258:lvgl\src\lv_misc/lv_printf.c ****     return _out_rev(out, buffer, idx, maxlen, buf, len, width, flags);
 449              		.loc 1 258 0
 450 0104 0396     		str	r6, [sp, #12]
 451 0106 CDF808E0 		str	lr, [sp, #8]
 452 010a 0194     		str	r4, [sp, #4]
 453 010c 0095     		str	r5, [sp]
 454 010e FFF7FEFF 		bl	_out_rev
 455              	.LVL56:
 259:lvgl\src\lv_misc/lv_printf.c **** }
 456              		.loc 1 259 0
 457 0112 05B0     		add	sp, sp, #20
 458              		.cfi_def_cfa_offset 28
 459              		@ sp needed
 460 0114 BDE8F083 		pop	{r4, r5, r6, r7, r8, r9, pc}
 461              		.cfi_endproc
 462              	.LFE6:
 463              		.size	_ntoa_format, .-_ntoa_format
 464              		.section	.text._ntoa_long,"ax",%progbits
 465              		.align	2
 466              		.thumb
 467              		.thumb_func
 468              		.type	_ntoa_long, %function
 469              	_ntoa_long:
ARM GAS  C:\Users\strap\AppData\Local\Temp\ccV4k2oP.s 			page 14


 470              	.LFB7:
 260:lvgl\src\lv_misc/lv_printf.c **** 
 261:lvgl\src\lv_misc/lv_printf.c **** 
 262:lvgl\src\lv_misc/lv_printf.c **** // internal itoa for 'long' type
 263:lvgl\src\lv_misc/lv_printf.c **** static size_t _ntoa_long(out_fct_type out, char * buffer, size_t idx, size_t maxlen, unsigned long 
 264:lvgl\src\lv_misc/lv_printf.c ****                          unsigned long base, unsigned int prec, unsigned int width, unsigned int fl
 265:lvgl\src\lv_misc/lv_printf.c **** {
 471              		.loc 1 265 0
 472              		.cfi_startproc
 473              		@ args = 24, pretend = 0, frame = 32
 474              		@ frame_needed = 0, uses_anonymous_args = 0
 475              	.LVL57:
 476 0000 2DE9F041 		push	{r4, r5, r6, r7, r8, lr}
 477              		.cfi_def_cfa_offset 24
 478              		.cfi_offset 4, -24
 479              		.cfi_offset 5, -20
 480              		.cfi_offset 6, -16
 481              		.cfi_offset 7, -12
 482              		.cfi_offset 8, -8
 483              		.cfi_offset 14, -4
 484 0004 90B0     		sub	sp, sp, #64
 485              		.cfi_def_cfa_offset 88
 486 0006 169D     		ldr	r5, [sp, #88]
 487 0008 189F     		ldr	r7, [sp, #96]
 488 000a DDF86CE0 		ldr	lr, [sp, #108]
 489              	.LVL58:
 266:lvgl\src\lv_misc/lv_printf.c ****     char buf[PRINTF_NTOA_BUFFER_SIZE];
 267:lvgl\src\lv_misc/lv_printf.c ****     size_t len = 0U;
 268:lvgl\src\lv_misc/lv_printf.c **** 
 269:lvgl\src\lv_misc/lv_printf.c ****     // no hash for 0 values
 270:lvgl\src\lv_misc/lv_printf.c ****     if(!value) {
 490              		.loc 1 270 0
 491 000e 0DB9     		cbnz	r5, .L40
 271:lvgl\src\lv_misc/lv_printf.c ****         flags &= ~FLAGS_HASH;
 492              		.loc 1 271 0
 493 0010 2EF0100E 		bic	lr, lr, #16
 494              	.LVL59:
 495              	.L40:
 272:lvgl\src\lv_misc/lv_printf.c ****     }
 273:lvgl\src\lv_misc/lv_printf.c **** 
 274:lvgl\src\lv_misc/lv_printf.c ****     // write if precision != 0 and value is != 0
 275:lvgl\src\lv_misc/lv_printf.c ****     if(!(flags & FLAGS_PRECISION) || value) {
 496              		.loc 1 275 0
 497 0014 1EF4806F 		tst	lr, #1024
 498 0018 02D0     		beq	.L46
 499              		.loc 1 275 0 is_stmt 0 discriminator 1
 500 001a 35B3     		cbz	r5, .L47
 501 001c 0026     		movs	r6, #0
 502 001e 00E0     		b	.L41
 503              	.L46:
 504 0020 0026     		movs	r6, #0
 505              	.LVL60:
 506              	.L41:
 507              	.LBB24:
 276:lvgl\src\lv_misc/lv_printf.c ****         do {
 277:lvgl\src\lv_misc/lv_printf.c ****             const char digit = (char)(value % base);
 508              		.loc 1 277 0 is_stmt 1
ARM GAS  C:\Users\strap\AppData\Local\Temp\ccV4k2oP.s 			page 15


 509 0022 B5FBF7F4 		udiv	r4, r5, r7
 510 0026 07FB1454 		mls	r4, r7, r4, r5
 511 002a E4B2     		uxtb	r4, r4
 512              	.LVL61:
 278:lvgl\src\lv_misc/lv_printf.c ****             buf[len++] = digit < 10 ? '0' + digit : (flags & FLAGS_UPPERCASE ? 'A' : 'a') + digit -
 513              		.loc 1 278 0
 514 002c 06F1010C 		add	ip, r6, #1
 515              	.LVL62:
 516 0030 092C     		cmp	r4, #9
 517 0032 02D8     		bhi	.L43
 518              		.loc 1 278 0 is_stmt 0 discriminator 1
 519 0034 3034     		adds	r4, r4, #48
 520              	.LVL63:
 521 0036 E4B2     		uxtb	r4, r4
 522              	.LVL64:
 523 0038 0AE0     		b	.L44
 524              	.LVL65:
 525              	.L43:
 526              		.loc 1 278 0 discriminator 2
 527 003a 1EF0200F 		tst	lr, #32
 528 003e 02D0     		beq	.L48
 529              		.loc 1 278 0
 530 0040 4FF04108 		mov	r8, #65
 531 0044 01E0     		b	.L45
 532              	.L48:
 533 0046 4FF06108 		mov	r8, #97
 534              	.L45:
 535              		.loc 1 278 0 discriminator 7
 536 004a 4444     		add	r4, r4, r8
 537              	.LVL66:
 538 004c 0A3C     		subs	r4, r4, #10
 539 004e E4B2     		uxtb	r4, r4
 540              	.L44:
 541              		.loc 1 278 0 discriminator 8
 542 0050 0DF14008 		add	r8, sp, #64
 543 0054 4644     		add	r6, r6, r8
 544 0056 06F8204C 		strb	r4, [r6, #-32]
 279:lvgl\src\lv_misc/lv_printf.c ****             value /= base;
 545              		.loc 1 279 0 is_stmt 1 discriminator 8
 546 005a B5FBF7F5 		udiv	r5, r5, r7
 547              	.LVL67:
 548              	.LBE24:
 280:lvgl\src\lv_misc/lv_printf.c ****         } while(value && (len < PRINTF_NTOA_BUFFER_SIZE));
 549              		.loc 1 280 0 discriminator 8
 550 005e 35B1     		cbz	r5, .L42
 551              	.LBB25:
 278:lvgl\src\lv_misc/lv_printf.c ****             buf[len++] = digit < 10 ? '0' + digit : (flags & FLAGS_UPPERCASE ? 'A' : 'a') + digit -
 552              		.loc 1 278 0 discriminator 1
 553 0060 6646     		mov	r6, ip
 554              	.LBE25:
 555              		.loc 1 280 0 discriminator 1
 556 0062 BCF11F0F 		cmp	ip, #31
 557 0066 DCD9     		bls	.L41
 558              	.LVL68:
 559 0068 01E0     		b	.L42
 560              	.LVL69:
 561              	.L47:
ARM GAS  C:\Users\strap\AppData\Local\Temp\ccV4k2oP.s 			page 16


 267:lvgl\src\lv_misc/lv_printf.c **** 
 562              		.loc 1 267 0
 563 006a 4FF0000C 		mov	ip, #0
 564              	.LVL70:
 565              	.L42:
 281:lvgl\src\lv_misc/lv_printf.c ****     }
 282:lvgl\src\lv_misc/lv_printf.c **** 
 283:lvgl\src\lv_misc/lv_printf.c ****     return _ntoa_format(out, buffer, idx, maxlen, buf, len, negative, (unsigned int)base, prec, wid
 566              		.loc 1 283 0
 567 006e CDF818E0 		str	lr, [sp, #24]
 568 0072 1A9C     		ldr	r4, [sp, #104]
 569 0074 0594     		str	r4, [sp, #20]
 570 0076 199C     		ldr	r4, [sp, #100]
 571 0078 0494     		str	r4, [sp, #16]
 572 007a 0397     		str	r7, [sp, #12]
 573 007c 9DF85C40 		ldrb	r4, [sp, #92]	@ zero_extendqisi2
 574 0080 0294     		str	r4, [sp, #8]
 575 0082 CDF804C0 		str	ip, [sp, #4]
 576 0086 08AC     		add	r4, sp, #32
 577 0088 0094     		str	r4, [sp]
 578 008a FFF7FEFF 		bl	_ntoa_format
 579              	.LVL71:
 284:lvgl\src\lv_misc/lv_printf.c **** }
 580              		.loc 1 284 0
 581 008e 10B0     		add	sp, sp, #64
 582              		.cfi_def_cfa_offset 24
 583              		@ sp needed
 584 0090 BDE8F081 		pop	{r4, r5, r6, r7, r8, pc}
 585              		.cfi_endproc
 586              	.LFE7:
 587              		.size	_ntoa_long, .-_ntoa_long
 588              		.global	__aeabi_uldivmod
 589              		.section	.text._ntoa_long_long,"ax",%progbits
 590              		.align	2
 591              		.thumb
 592              		.thumb_func
 593              		.type	_ntoa_long_long, %function
 594              	_ntoa_long_long:
 595              	.LFB8:
 285:lvgl\src\lv_misc/lv_printf.c **** 
 286:lvgl\src\lv_misc/lv_printf.c **** 
 287:lvgl\src\lv_misc/lv_printf.c **** // internal itoa for 'long long' type
 288:lvgl\src\lv_misc/lv_printf.c **** #if defined(PRINTF_SUPPORT_LONG_LONG)
 289:lvgl\src\lv_misc/lv_printf.c **** static size_t _ntoa_long_long(out_fct_type out, char * buffer, size_t idx, size_t maxlen, unsigned 
 290:lvgl\src\lv_misc/lv_printf.c ****                               bool negative, unsigned long long base, unsigned int prec, unsigned i
 291:lvgl\src\lv_misc/lv_printf.c **** {
 596              		.loc 1 291 0
 597              		.cfi_startproc
 598              		@ args = 36, pretend = 0, frame = 48
 599              		@ frame_needed = 0, uses_anonymous_args = 0
 600              	.LVL72:
 601 0000 2DE9F04F 		push	{r4, r5, r6, r7, r8, r9, r10, fp, lr}
 602              		.cfi_def_cfa_offset 36
 603              		.cfi_offset 4, -36
 604              		.cfi_offset 5, -32
 605              		.cfi_offset 6, -28
 606              		.cfi_offset 7, -24
ARM GAS  C:\Users\strap\AppData\Local\Temp\ccV4k2oP.s 			page 17


 607              		.cfi_offset 8, -20
 608              		.cfi_offset 9, -16
 609              		.cfi_offset 10, -12
 610              		.cfi_offset 11, -8
 611              		.cfi_offset 14, -4
 612 0004 95B0     		sub	sp, sp, #84
 613              		.cfi_def_cfa_offset 120
 614 0006 0990     		str	r0, [sp, #36]
 615 0008 0A91     		str	r1, [sp, #40]
 616 000a 0B92     		str	r2, [sp, #44]
 617 000c 9B46     		mov	fp, r3
 618 000e DDE91E67 		ldrd	r6, [sp, #120]
 619 0012 DDF88880 		ldr	r8, [sp, #136]
 620 0016 DDF88C90 		ldr	r9, [sp, #140]
 621 001a DDF898A0 		ldr	r10, [sp, #152]
 622              	.LVL73:
 292:lvgl\src\lv_misc/lv_printf.c ****     char buf[PRINTF_NTOA_BUFFER_SIZE];
 293:lvgl\src\lv_misc/lv_printf.c ****     size_t len = 0U;
 294:lvgl\src\lv_misc/lv_printf.c **** 
 295:lvgl\src\lv_misc/lv_printf.c ****     // no hash for 0 values
 296:lvgl\src\lv_misc/lv_printf.c ****     if(!value) {
 623              		.loc 1 296 0
 624 001e 56EA0703 		orrs	r3, r6, r7
 625              	.LVL74:
 626 0022 01D1     		bne	.L51
 297:lvgl\src\lv_misc/lv_printf.c ****         flags &= ~FLAGS_HASH;
 627              		.loc 1 297 0
 628 0024 2AF0100A 		bic	r10, r10, #16
 629              	.LVL75:
 630              	.L51:
 298:lvgl\src\lv_misc/lv_printf.c ****     }
 299:lvgl\src\lv_misc/lv_printf.c **** 
 300:lvgl\src\lv_misc/lv_printf.c ****     // write if precision != 0 and value is != 0
 301:lvgl\src\lv_misc/lv_printf.c ****     if(!(flags & FLAGS_PRECISION) || value) {
 631              		.loc 1 301 0
 632 0028 1AF4806F 		tst	r10, #1024
 633 002c 04D0     		beq	.L57
 634              		.loc 1 301 0 is_stmt 0 discriminator 1
 635 002e 56EA0703 		orrs	r3, r6, r7
 636 0032 2BD0     		beq	.L58
 637 0034 0024     		movs	r4, #0
 638 0036 00E0     		b	.L52
 639              	.L57:
 640 0038 0024     		movs	r4, #0
 641              	.LVL76:
 642              	.L52:
 643              	.LBB26:
 302:lvgl\src\lv_misc/lv_printf.c ****         do {
 303:lvgl\src\lv_misc/lv_printf.c ****             const char digit = (char)(value % base);
 644              		.loc 1 303 0 is_stmt 1
 645 003a 4246     		mov	r2, r8
 646 003c 4B46     		mov	r3, r9
 647 003e 3046     		mov	r0, r6
 648 0040 3946     		mov	r1, r7
 649 0042 FFF7FEFF 		bl	__aeabi_uldivmod
 650              	.LVL77:
 651 0046 D2B2     		uxtb	r2, r2
ARM GAS  C:\Users\strap\AppData\Local\Temp\ccV4k2oP.s 			page 18


 652              	.LVL78:
 304:lvgl\src\lv_misc/lv_printf.c ****             buf[len++] = digit < 10 ? '0' + digit : (flags & FLAGS_UPPERCASE ? 'A' : 'a') + digit -
 653              		.loc 1 304 0
 654 0048 651C     		adds	r5, r4, #1
 655              	.LVL79:
 656 004a 092A     		cmp	r2, #9
 657 004c 02D8     		bhi	.L54
 658              		.loc 1 304 0 is_stmt 0 discriminator 1
 659 004e 3032     		adds	r2, r2, #48
 660              	.LVL80:
 661 0050 D2B2     		uxtb	r2, r2
 662              	.LVL81:
 663 0052 08E0     		b	.L55
 664              	.LVL82:
 665              	.L54:
 666              		.loc 1 304 0 discriminator 2
 667 0054 1AF0200F 		tst	r10, #32
 668 0058 01D0     		beq	.L59
 669              		.loc 1 304 0
 670 005a 4123     		movs	r3, #65
 671 005c 00E0     		b	.L56
 672              	.L59:
 673 005e 6123     		movs	r3, #97
 674              	.L56:
 675              		.loc 1 304 0 discriminator 7
 676 0060 1A44     		add	r2, r2, r3
 677              	.LVL83:
 678 0062 0A3A     		subs	r2, r2, #10
 679 0064 D2B2     		uxtb	r2, r2
 680              	.L55:
 681              		.loc 1 304 0 discriminator 8
 682 0066 14AB     		add	r3, sp, #80
 683 0068 1C44     		add	r4, r4, r3
 684 006a 04F8202C 		strb	r2, [r4, #-32]
 305:lvgl\src\lv_misc/lv_printf.c ****             value /= base;
 685              		.loc 1 305 0 is_stmt 1 discriminator 8
 686 006e 4246     		mov	r2, r8
 687 0070 4B46     		mov	r3, r9
 688 0072 3046     		mov	r0, r6
 689 0074 3946     		mov	r1, r7
 690 0076 FFF7FEFF 		bl	__aeabi_uldivmod
 691              	.LVL84:
 692 007a 0646     		mov	r6, r0
 693              	.LVL85:
 694 007c 0F46     		mov	r7, r1
 695              	.LVL86:
 696              	.LBE26:
 306:lvgl\src\lv_misc/lv_printf.c ****         } while(value && (len < PRINTF_NTOA_BUFFER_SIZE));
 697              		.loc 1 306 0 discriminator 8
 698 007e 56EA0703 		orrs	r3, r6, r7
 699 0082 04D0     		beq	.L53
 700              	.LBB27:
 304:lvgl\src\lv_misc/lv_printf.c ****             buf[len++] = digit < 10 ? '0' + digit : (flags & FLAGS_UPPERCASE ? 'A' : 'a') + digit -
 701              		.loc 1 304 0 discriminator 1
 702 0084 2C46     		mov	r4, r5
 703              	.LBE27:
 704              		.loc 1 306 0 discriminator 1
ARM GAS  C:\Users\strap\AppData\Local\Temp\ccV4k2oP.s 			page 19


 705 0086 1F2D     		cmp	r5, #31
 706 0088 D7D9     		bls	.L52
 707              	.LVL87:
 708 008a 00E0     		b	.L53
 709              	.LVL88:
 710              	.L58:
 293:lvgl\src\lv_misc/lv_printf.c **** 
 711              		.loc 1 293 0
 712 008c 0025     		movs	r5, #0
 713              	.LVL89:
 714              	.L53:
 307:lvgl\src\lv_misc/lv_printf.c ****     }
 308:lvgl\src\lv_misc/lv_printf.c **** 
 309:lvgl\src\lv_misc/lv_printf.c ****     return _ntoa_format(out, buffer, idx, maxlen, buf, len, negative, (unsigned int)base, prec, wid
 715              		.loc 1 309 0
 716 008e CDF818A0 		str	r10, [sp, #24]
 717 0092 259B     		ldr	r3, [sp, #148]
 718 0094 0593     		str	r3, [sp, #20]
 719 0096 249B     		ldr	r3, [sp, #144]
 720 0098 0493     		str	r3, [sp, #16]
 721 009a CDF80C80 		str	r8, [sp, #12]
 722 009e 9DF88030 		ldrb	r3, [sp, #128]	@ zero_extendqisi2
 723 00a2 0293     		str	r3, [sp, #8]
 724 00a4 0195     		str	r5, [sp, #4]
 725 00a6 0CAB     		add	r3, sp, #48
 726 00a8 0093     		str	r3, [sp]
 727 00aa 5B46     		mov	r3, fp
 728 00ac 0B9A     		ldr	r2, [sp, #44]
 729 00ae 0A99     		ldr	r1, [sp, #40]
 730 00b0 0998     		ldr	r0, [sp, #36]
 731 00b2 FFF7FEFF 		bl	_ntoa_format
 732              	.LVL90:
 310:lvgl\src\lv_misc/lv_printf.c **** }
 733              		.loc 1 310 0
 734 00b6 15B0     		add	sp, sp, #84
 735              		.cfi_def_cfa_offset 36
 736              		@ sp needed
 737 00b8 BDE8F08F 		pop	{r4, r5, r6, r7, r8, r9, r10, fp, pc}
 738              		.cfi_endproc
 739              	.LFE8:
 740              		.size	_ntoa_long_long, .-_ntoa_long_long
 741              		.section	.text._vsnprintf,"ax",%progbits
 742              		.align	2
 743              		.thumb
 744              		.thumb_func
 745              		.type	_vsnprintf, %function
 746              	_vsnprintf:
 747              	.LFB9:
 311:lvgl\src\lv_misc/lv_printf.c **** #endif  // PRINTF_SUPPORT_LONG_LONG
 312:lvgl\src\lv_misc/lv_printf.c **** 
 313:lvgl\src\lv_misc/lv_printf.c **** 
 314:lvgl\src\lv_misc/lv_printf.c **** #if defined(PRINTF_SUPPORT_FLOAT)
 315:lvgl\src\lv_misc/lv_printf.c **** 
 316:lvgl\src\lv_misc/lv_printf.c **** #if defined(PRINTF_SUPPORT_EXPONENTIAL)
 317:lvgl\src\lv_misc/lv_printf.c **** // forward declaration so that _ftoa can switch to exp notation for values > PRINTF_MAX_FLOAT
 318:lvgl\src\lv_misc/lv_printf.c **** static size_t _etoa(out_fct_type out, char * buffer, size_t idx, size_t maxlen, double value, unsig
 319:lvgl\src\lv_misc/lv_printf.c ****                     unsigned int width, unsigned int flags);
ARM GAS  C:\Users\strap\AppData\Local\Temp\ccV4k2oP.s 			page 20


 320:lvgl\src\lv_misc/lv_printf.c **** #endif
 321:lvgl\src\lv_misc/lv_printf.c **** 
 322:lvgl\src\lv_misc/lv_printf.c **** 
 323:lvgl\src\lv_misc/lv_printf.c **** // internal ftoa for fixed decimal floating point
 324:lvgl\src\lv_misc/lv_printf.c **** static size_t _ftoa(out_fct_type out, char * buffer, size_t idx, size_t maxlen, double value, unsig
 325:lvgl\src\lv_misc/lv_printf.c ****                     unsigned int width, unsigned int flags)
 326:lvgl\src\lv_misc/lv_printf.c **** {
 327:lvgl\src\lv_misc/lv_printf.c ****     char buf[PRINTF_FTOA_BUFFER_SIZE];
 328:lvgl\src\lv_misc/lv_printf.c ****     size_t len  = 0U;
 329:lvgl\src\lv_misc/lv_printf.c ****     double diff = 0.0;
 330:lvgl\src\lv_misc/lv_printf.c **** 
 331:lvgl\src\lv_misc/lv_printf.c ****     // powers of 10
 332:lvgl\src\lv_misc/lv_printf.c ****     static const double pow10[] = { 1, 10, 100, 1000, 10000, 100000, 1000000, 10000000, 100000000, 
 333:lvgl\src\lv_misc/lv_printf.c **** 
 334:lvgl\src\lv_misc/lv_printf.c ****     // test for special values
 335:lvgl\src\lv_misc/lv_printf.c ****     if(value != value)
 336:lvgl\src\lv_misc/lv_printf.c ****         return _out_rev(out, buffer, idx, maxlen, "nan", 3, width, flags);
 337:lvgl\src\lv_misc/lv_printf.c ****     if(value < -DBL_MAX)
 338:lvgl\src\lv_misc/lv_printf.c ****         return _out_rev(out, buffer, idx, maxlen, "fni-", 4, width, flags);
 339:lvgl\src\lv_misc/lv_printf.c ****     if(value > DBL_MAX)
 340:lvgl\src\lv_misc/lv_printf.c ****         return _out_rev(out, buffer, idx, maxlen, (flags & FLAGS_PLUS) ? "fni+" : "fni", (flags & F
 341:lvgl\src\lv_misc/lv_printf.c ****                         flags);
 342:lvgl\src\lv_misc/lv_printf.c **** 
 343:lvgl\src\lv_misc/lv_printf.c ****     // test for very large values
 344:lvgl\src\lv_misc/lv_printf.c ****     // standard printf behavior is to print EVERY whole number digit -- which could be 100s of char
 345:lvgl\src\lv_misc/lv_printf.c ****     if((value > PRINTF_MAX_FLOAT) || (value < -PRINTF_MAX_FLOAT)) {
 346:lvgl\src\lv_misc/lv_printf.c **** #if defined(PRINTF_SUPPORT_EXPONENTIAL)
 347:lvgl\src\lv_misc/lv_printf.c ****         return _etoa(out, buffer, idx, maxlen, value, prec, width, flags);
 348:lvgl\src\lv_misc/lv_printf.c **** #else
 349:lvgl\src\lv_misc/lv_printf.c ****         return 0U;
 350:lvgl\src\lv_misc/lv_printf.c **** #endif
 351:lvgl\src\lv_misc/lv_printf.c ****     }
 352:lvgl\src\lv_misc/lv_printf.c **** 
 353:lvgl\src\lv_misc/lv_printf.c ****     // test for negative
 354:lvgl\src\lv_misc/lv_printf.c ****     bool negative = false;
 355:lvgl\src\lv_misc/lv_printf.c ****     if(value < 0) {
 356:lvgl\src\lv_misc/lv_printf.c ****         negative = true;
 357:lvgl\src\lv_misc/lv_printf.c ****         value = 0 - value;
 358:lvgl\src\lv_misc/lv_printf.c ****     }
 359:lvgl\src\lv_misc/lv_printf.c **** 
 360:lvgl\src\lv_misc/lv_printf.c ****     // set default precision, if not set explicitly
 361:lvgl\src\lv_misc/lv_printf.c ****     if(!(flags & FLAGS_PRECISION)) {
 362:lvgl\src\lv_misc/lv_printf.c ****         prec = PRINTF_DEFAULT_FLOAT_PRECISION;
 363:lvgl\src\lv_misc/lv_printf.c ****     }
 364:lvgl\src\lv_misc/lv_printf.c ****     // limit precision to 9, cause a prec >= 10 can lead to overflow errors
 365:lvgl\src\lv_misc/lv_printf.c ****     while((len < PRINTF_FTOA_BUFFER_SIZE) && (prec > 9U)) {
 366:lvgl\src\lv_misc/lv_printf.c ****         buf[len++] = '0';
 367:lvgl\src\lv_misc/lv_printf.c ****         prec--;
 368:lvgl\src\lv_misc/lv_printf.c ****     }
 369:lvgl\src\lv_misc/lv_printf.c **** 
 370:lvgl\src\lv_misc/lv_printf.c ****     int whole = (int)value;
 371:lvgl\src\lv_misc/lv_printf.c ****     double tmp = (value - whole) * pow10[prec];
 372:lvgl\src\lv_misc/lv_printf.c ****     unsigned long frac = (unsigned long)tmp;
 373:lvgl\src\lv_misc/lv_printf.c ****     diff = tmp - frac;
 374:lvgl\src\lv_misc/lv_printf.c **** 
 375:lvgl\src\lv_misc/lv_printf.c ****     if(diff > 0.5) {
 376:lvgl\src\lv_misc/lv_printf.c ****         ++frac;
ARM GAS  C:\Users\strap\AppData\Local\Temp\ccV4k2oP.s 			page 21


 377:lvgl\src\lv_misc/lv_printf.c ****         // handle rollover, e.g. case 0.99 with prec 1 is 1.0
 378:lvgl\src\lv_misc/lv_printf.c ****         if(frac >= pow10[prec]) {
 379:lvgl\src\lv_misc/lv_printf.c ****             frac = 0;
 380:lvgl\src\lv_misc/lv_printf.c ****             ++whole;
 381:lvgl\src\lv_misc/lv_printf.c ****         }
 382:lvgl\src\lv_misc/lv_printf.c ****     }
 383:lvgl\src\lv_misc/lv_printf.c ****     else if(diff < 0.5) {
 384:lvgl\src\lv_misc/lv_printf.c ****     }
 385:lvgl\src\lv_misc/lv_printf.c ****     else if((frac == 0U) || (frac & 1U)) {
 386:lvgl\src\lv_misc/lv_printf.c ****         // if halfway, round up if odd OR if last digit is 0
 387:lvgl\src\lv_misc/lv_printf.c ****         ++frac;
 388:lvgl\src\lv_misc/lv_printf.c ****     }
 389:lvgl\src\lv_misc/lv_printf.c **** 
 390:lvgl\src\lv_misc/lv_printf.c ****     if(prec == 0U) {
 391:lvgl\src\lv_misc/lv_printf.c ****         diff = value - (double)whole;
 392:lvgl\src\lv_misc/lv_printf.c ****         if((!(diff < 0.5) || (diff > 0.5)) && (whole & 1)) {
 393:lvgl\src\lv_misc/lv_printf.c ****             // exactly 0.5 and ODD, then round up
 394:lvgl\src\lv_misc/lv_printf.c ****             // 1.5 -> 2, but 2.5 -> 2
 395:lvgl\src\lv_misc/lv_printf.c ****             ++whole;
 396:lvgl\src\lv_misc/lv_printf.c ****         }
 397:lvgl\src\lv_misc/lv_printf.c ****     }
 398:lvgl\src\lv_misc/lv_printf.c ****     else {
 399:lvgl\src\lv_misc/lv_printf.c ****         unsigned int count = prec;
 400:lvgl\src\lv_misc/lv_printf.c ****         // now do fractional part, as an unsigned number
 401:lvgl\src\lv_misc/lv_printf.c ****         while(len < PRINTF_FTOA_BUFFER_SIZE) {
 402:lvgl\src\lv_misc/lv_printf.c ****             --count;
 403:lvgl\src\lv_misc/lv_printf.c ****             buf[len++] = (char)(48U + (frac % 10U));
 404:lvgl\src\lv_misc/lv_printf.c ****             if(!(frac /= 10U)) {
 405:lvgl\src\lv_misc/lv_printf.c ****                 break;
 406:lvgl\src\lv_misc/lv_printf.c ****             }
 407:lvgl\src\lv_misc/lv_printf.c ****         }
 408:lvgl\src\lv_misc/lv_printf.c ****         // add extra 0s
 409:lvgl\src\lv_misc/lv_printf.c ****         while((len < PRINTF_FTOA_BUFFER_SIZE) && (count-- > 0U)) {
 410:lvgl\src\lv_misc/lv_printf.c ****             buf[len++] = '0';
 411:lvgl\src\lv_misc/lv_printf.c ****         }
 412:lvgl\src\lv_misc/lv_printf.c ****         if(len < PRINTF_FTOA_BUFFER_SIZE) {
 413:lvgl\src\lv_misc/lv_printf.c ****             // add decimal
 414:lvgl\src\lv_misc/lv_printf.c ****             buf[len++] = '.';
 415:lvgl\src\lv_misc/lv_printf.c ****         }
 416:lvgl\src\lv_misc/lv_printf.c ****     }
 417:lvgl\src\lv_misc/lv_printf.c **** 
 418:lvgl\src\lv_misc/lv_printf.c ****     // do whole part, number is reversed
 419:lvgl\src\lv_misc/lv_printf.c ****     while(len < PRINTF_FTOA_BUFFER_SIZE) {
 420:lvgl\src\lv_misc/lv_printf.c ****         buf[len++] = (char)(48 + (whole % 10));
 421:lvgl\src\lv_misc/lv_printf.c ****         if(!(whole /= 10)) {
 422:lvgl\src\lv_misc/lv_printf.c ****             break;
 423:lvgl\src\lv_misc/lv_printf.c ****         }
 424:lvgl\src\lv_misc/lv_printf.c ****     }
 425:lvgl\src\lv_misc/lv_printf.c **** 
 426:lvgl\src\lv_misc/lv_printf.c ****     // pad leading zeros
 427:lvgl\src\lv_misc/lv_printf.c ****     if(!(flags & FLAGS_LEFT) && (flags & FLAGS_ZEROPAD)) {
 428:lvgl\src\lv_misc/lv_printf.c ****         if(width && (negative || (flags & (FLAGS_PLUS | FLAGS_SPACE)))) {
 429:lvgl\src\lv_misc/lv_printf.c ****             width--;
 430:lvgl\src\lv_misc/lv_printf.c ****         }
 431:lvgl\src\lv_misc/lv_printf.c ****         while((len < width) && (len < PRINTF_FTOA_BUFFER_SIZE)) {
 432:lvgl\src\lv_misc/lv_printf.c ****             buf[len++] = '0';
 433:lvgl\src\lv_misc/lv_printf.c ****         }
ARM GAS  C:\Users\strap\AppData\Local\Temp\ccV4k2oP.s 			page 22


 434:lvgl\src\lv_misc/lv_printf.c ****     }
 435:lvgl\src\lv_misc/lv_printf.c **** 
 436:lvgl\src\lv_misc/lv_printf.c ****     if(len < PRINTF_FTOA_BUFFER_SIZE) {
 437:lvgl\src\lv_misc/lv_printf.c ****         if(negative) {
 438:lvgl\src\lv_misc/lv_printf.c ****             buf[len++] = '-';
 439:lvgl\src\lv_misc/lv_printf.c ****         }
 440:lvgl\src\lv_misc/lv_printf.c ****         else if(flags & FLAGS_PLUS) {
 441:lvgl\src\lv_misc/lv_printf.c ****             buf[len++] = '+';  // ignore the space if the '+' exists
 442:lvgl\src\lv_misc/lv_printf.c ****         }
 443:lvgl\src\lv_misc/lv_printf.c ****         else if(flags & FLAGS_SPACE) {
 444:lvgl\src\lv_misc/lv_printf.c ****             buf[len++] = ' ';
 445:lvgl\src\lv_misc/lv_printf.c ****         }
 446:lvgl\src\lv_misc/lv_printf.c ****     }
 447:lvgl\src\lv_misc/lv_printf.c **** 
 448:lvgl\src\lv_misc/lv_printf.c ****     return _out_rev(out, buffer, idx, maxlen, buf, len, width, flags);
 449:lvgl\src\lv_misc/lv_printf.c **** }
 450:lvgl\src\lv_misc/lv_printf.c **** 
 451:lvgl\src\lv_misc/lv_printf.c **** 
 452:lvgl\src\lv_misc/lv_printf.c **** #if defined(PRINTF_SUPPORT_EXPONENTIAL)
 453:lvgl\src\lv_misc/lv_printf.c **** // internal ftoa variant for exponential floating-point type, contributed by Martijn Jasperse <m.ja
 454:lvgl\src\lv_misc/lv_printf.c **** static size_t _etoa(out_fct_type out, char * buffer, size_t idx, size_t maxlen, double value, unsig
 455:lvgl\src\lv_misc/lv_printf.c ****                     unsigned int width, unsigned int flags)
 456:lvgl\src\lv_misc/lv_printf.c **** {
 457:lvgl\src\lv_misc/lv_printf.c ****     // check for NaN and special values
 458:lvgl\src\lv_misc/lv_printf.c ****     if((value != value) || (value > DBL_MAX) || (value < -DBL_MAX)) {
 459:lvgl\src\lv_misc/lv_printf.c ****         return _ftoa(out, buffer, idx, maxlen, value, prec, width, flags);
 460:lvgl\src\lv_misc/lv_printf.c ****     }
 461:lvgl\src\lv_misc/lv_printf.c **** 
 462:lvgl\src\lv_misc/lv_printf.c ****     // determine the sign
 463:lvgl\src\lv_misc/lv_printf.c ****     const bool negative = value < 0;
 464:lvgl\src\lv_misc/lv_printf.c ****     if(negative) {
 465:lvgl\src\lv_misc/lv_printf.c ****         value = -value;
 466:lvgl\src\lv_misc/lv_printf.c ****     }
 467:lvgl\src\lv_misc/lv_printf.c **** 
 468:lvgl\src\lv_misc/lv_printf.c ****     // default precision
 469:lvgl\src\lv_misc/lv_printf.c ****     if(!(flags & FLAGS_PRECISION)) {
 470:lvgl\src\lv_misc/lv_printf.c ****         prec = PRINTF_DEFAULT_FLOAT_PRECISION;
 471:lvgl\src\lv_misc/lv_printf.c ****     }
 472:lvgl\src\lv_misc/lv_printf.c **** 
 473:lvgl\src\lv_misc/lv_printf.c ****     // determine the decimal exponent
 474:lvgl\src\lv_misc/lv_printf.c ****     // based on the algorithm by David Gay (https://www.ampl.com/netlib/fp/dtoa.c)
 475:lvgl\src\lv_misc/lv_printf.c ****     union {
 476:lvgl\src\lv_misc/lv_printf.c ****         uint64_t U;
 477:lvgl\src\lv_misc/lv_printf.c ****         double   F;
 478:lvgl\src\lv_misc/lv_printf.c ****     } conv;
 479:lvgl\src\lv_misc/lv_printf.c **** 
 480:lvgl\src\lv_misc/lv_printf.c ****     conv.F = value;
 481:lvgl\src\lv_misc/lv_printf.c ****     int exp2 = (int)((conv.U >> 52U) & 0x07FFU) - 1023;           // effectively log2
 482:lvgl\src\lv_misc/lv_printf.c ****     conv.U = (conv.U & ((1ULL << 52U) - 1U)) | (1023ULL << 52U);  // drop the exponent so conv.F is
 483:lvgl\src\lv_misc/lv_printf.c ****     // now approximate log10 from the log2 integer part and an expansion of ln around 1.5
 484:lvgl\src\lv_misc/lv_printf.c ****     int expval = (int)(0.1760912590558 + exp2 * 0.301029995663981 + (conv.F - 1.5) * 0.289529654602
 485:lvgl\src\lv_misc/lv_printf.c ****     // now we want to compute 10^expval but we want to be sure it won't overflow
 486:lvgl\src\lv_misc/lv_printf.c ****     exp2 = (int)(expval * 3.321928094887362 + 0.5);
 487:lvgl\src\lv_misc/lv_printf.c ****     const double z  = expval * 2.302585092994046 - exp2 * 0.6931471805599453;
 488:lvgl\src\lv_misc/lv_printf.c ****     const double z2 = z * z;
 489:lvgl\src\lv_misc/lv_printf.c ****     conv.U = (uint64_t)(exp2 + 1023) << 52U;
 490:lvgl\src\lv_misc/lv_printf.c ****     // compute exp(z) using continued fractions, see https://en.wikipedia.org/wiki/Exponential_func
ARM GAS  C:\Users\strap\AppData\Local\Temp\ccV4k2oP.s 			page 23


 491:lvgl\src\lv_misc/lv_printf.c ****     conv.F *= 1 + 2 * z / (2 - z + (z2 / (6 + (z2 / (10 + z2 / 14)))));
 492:lvgl\src\lv_misc/lv_printf.c ****     // correct for rounding errors
 493:lvgl\src\lv_misc/lv_printf.c ****     if(value < conv.F) {
 494:lvgl\src\lv_misc/lv_printf.c ****         expval--;
 495:lvgl\src\lv_misc/lv_printf.c ****         conv.F /= 10;
 496:lvgl\src\lv_misc/lv_printf.c ****     }
 497:lvgl\src\lv_misc/lv_printf.c **** 
 498:lvgl\src\lv_misc/lv_printf.c ****     // the exponent format is "%+03d" and largest value is "307", so set aside 4-5 characters
 499:lvgl\src\lv_misc/lv_printf.c ****     unsigned int minwidth = ((expval < 100) && (expval > -100)) ? 4U : 5U;
 500:lvgl\src\lv_misc/lv_printf.c **** 
 501:lvgl\src\lv_misc/lv_printf.c ****     // in "%g" mode, "prec" is the number of *significant figures* not decimals
 502:lvgl\src\lv_misc/lv_printf.c ****     if(flags & FLAGS_ADAPT_EXP) {
 503:lvgl\src\lv_misc/lv_printf.c ****         // do we want to fall-back to "%f" mode?
 504:lvgl\src\lv_misc/lv_printf.c ****         if((value >= 1e-4) && (value < 1e6)) {
 505:lvgl\src\lv_misc/lv_printf.c ****             if((int)prec > expval) {
 506:lvgl\src\lv_misc/lv_printf.c ****                 prec = (unsigned)((int)prec - expval - 1);
 507:lvgl\src\lv_misc/lv_printf.c ****             }
 508:lvgl\src\lv_misc/lv_printf.c ****             else {
 509:lvgl\src\lv_misc/lv_printf.c ****                 prec = 0;
 510:lvgl\src\lv_misc/lv_printf.c ****             }
 511:lvgl\src\lv_misc/lv_printf.c ****             flags |= FLAGS_PRECISION;   // make sure _ftoa respects precision
 512:lvgl\src\lv_misc/lv_printf.c ****             // no characters in exponent
 513:lvgl\src\lv_misc/lv_printf.c ****             minwidth = 0U;
 514:lvgl\src\lv_misc/lv_printf.c ****             expval   = 0;
 515:lvgl\src\lv_misc/lv_printf.c ****         }
 516:lvgl\src\lv_misc/lv_printf.c ****         else {
 517:lvgl\src\lv_misc/lv_printf.c ****             // we use one sigfig for the whole part
 518:lvgl\src\lv_misc/lv_printf.c ****             if((prec > 0) && (flags & FLAGS_PRECISION)) {
 519:lvgl\src\lv_misc/lv_printf.c ****                 --prec;
 520:lvgl\src\lv_misc/lv_printf.c ****             }
 521:lvgl\src\lv_misc/lv_printf.c ****         }
 522:lvgl\src\lv_misc/lv_printf.c ****     }
 523:lvgl\src\lv_misc/lv_printf.c **** 
 524:lvgl\src\lv_misc/lv_printf.c ****     // will everything fit?
 525:lvgl\src\lv_misc/lv_printf.c ****     unsigned int fwidth = width;
 526:lvgl\src\lv_misc/lv_printf.c ****     if(width > minwidth) {
 527:lvgl\src\lv_misc/lv_printf.c ****         // we didn't fall-back so subtract the characters required for the exponent
 528:lvgl\src\lv_misc/lv_printf.c ****         fwidth -= minwidth;
 529:lvgl\src\lv_misc/lv_printf.c ****     }
 530:lvgl\src\lv_misc/lv_printf.c ****     else {
 531:lvgl\src\lv_misc/lv_printf.c ****         // not enough characters, so go back to default sizing
 532:lvgl\src\lv_misc/lv_printf.c ****         fwidth = 0U;
 533:lvgl\src\lv_misc/lv_printf.c ****     }
 534:lvgl\src\lv_misc/lv_printf.c ****     if((flags & FLAGS_LEFT) && minwidth) {
 535:lvgl\src\lv_misc/lv_printf.c ****         // if we're padding on the right, DON'T pad the floating part
 536:lvgl\src\lv_misc/lv_printf.c ****         fwidth = 0U;
 537:lvgl\src\lv_misc/lv_printf.c ****     }
 538:lvgl\src\lv_misc/lv_printf.c **** 
 539:lvgl\src\lv_misc/lv_printf.c ****     // rescale the float value
 540:lvgl\src\lv_misc/lv_printf.c ****     if(expval) {
 541:lvgl\src\lv_misc/lv_printf.c ****         value /= conv.F;
 542:lvgl\src\lv_misc/lv_printf.c ****     }
 543:lvgl\src\lv_misc/lv_printf.c **** 
 544:lvgl\src\lv_misc/lv_printf.c ****     // output the floating part
 545:lvgl\src\lv_misc/lv_printf.c ****     const size_t start_idx = idx;
 546:lvgl\src\lv_misc/lv_printf.c ****     idx = _ftoa(out, buffer, idx, maxlen, negative ? -value : value, prec, fwidth, flags & ~FLAGS_A
 547:lvgl\src\lv_misc/lv_printf.c **** 
ARM GAS  C:\Users\strap\AppData\Local\Temp\ccV4k2oP.s 			page 24


 548:lvgl\src\lv_misc/lv_printf.c ****     // output the exponent part
 549:lvgl\src\lv_misc/lv_printf.c ****     if(minwidth) {
 550:lvgl\src\lv_misc/lv_printf.c ****         // output the exponential symbol
 551:lvgl\src\lv_misc/lv_printf.c ****         out((flags & FLAGS_UPPERCASE) ? 'E' : 'e', buffer, idx++, maxlen);
 552:lvgl\src\lv_misc/lv_printf.c ****         // output the exponent value
 553:lvgl\src\lv_misc/lv_printf.c ****         idx = _ntoa_long(out, buffer, idx, maxlen, (expval < 0) ? -expval : expval, expval < 0, 10,
 554:lvgl\src\lv_misc/lv_printf.c ****                          FLAGS_ZEROPAD | FLAGS_PLUS);
 555:lvgl\src\lv_misc/lv_printf.c ****         // might need to right-pad spaces
 556:lvgl\src\lv_misc/lv_printf.c ****         if(flags & FLAGS_LEFT) {
 557:lvgl\src\lv_misc/lv_printf.c ****             while(idx - start_idx < width) out(' ', buffer, idx++, maxlen);
 558:lvgl\src\lv_misc/lv_printf.c ****         }
 559:lvgl\src\lv_misc/lv_printf.c ****     }
 560:lvgl\src\lv_misc/lv_printf.c ****     return idx;
 561:lvgl\src\lv_misc/lv_printf.c **** }
 562:lvgl\src\lv_misc/lv_printf.c **** #endif  // PRINTF_SUPPORT_EXPONENTIAL
 563:lvgl\src\lv_misc/lv_printf.c **** #endif  // PRINTF_SUPPORT_FLOAT
 564:lvgl\src\lv_misc/lv_printf.c **** 
 565:lvgl\src\lv_misc/lv_printf.c **** 
 566:lvgl\src\lv_misc/lv_printf.c **** // internal vsnprintf
 567:lvgl\src\lv_misc/lv_printf.c **** static int _vsnprintf(out_fct_type out, char * buffer, const size_t maxlen, const char * format, va
 568:lvgl\src\lv_misc/lv_printf.c **** {
 748              		.loc 1 568 0
 749              		.cfi_startproc
 750              		@ args = 4, pretend = 0, frame = 16
 751              		@ frame_needed = 0, uses_anonymous_args = 0
 752              	.LVL91:
 753 0000 2DE9F04F 		push	{r4, r5, r6, r7, r8, r9, r10, fp, lr}
 754              		.cfi_def_cfa_offset 36
 755              		.cfi_offset 4, -36
 756              		.cfi_offset 5, -32
 757              		.cfi_offset 6, -28
 758              		.cfi_offset 7, -24
 759              		.cfi_offset 8, -20
 760              		.cfi_offset 9, -16
 761              		.cfi_offset 10, -12
 762              		.cfi_offset 11, -8
 763              		.cfi_offset 14, -4
 764 0004 8FB0     		sub	sp, sp, #60
 765              		.cfi_def_cfa_offset 96
 766 0006 0646     		mov	r6, r0
 767 0008 0A92     		str	r2, [sp, #40]
 768 000a 0D93     		str	r3, [sp, #52]
 769              	.LVL92:
 569:lvgl\src\lv_misc/lv_printf.c ****     unsigned int flags, width, precision, n;
 570:lvgl\src\lv_misc/lv_printf.c ****     size_t idx = 0U;
 571:lvgl\src\lv_misc/lv_printf.c **** 
 572:lvgl\src\lv_misc/lv_printf.c ****     if(!buffer) {
 770              		.loc 1 572 0
 771 000c 0B91     		str	r1, [sp, #44]
 772 000e 01B9     		cbnz	r1, .L63
 573:lvgl\src\lv_misc/lv_printf.c ****         // use null output function
 574:lvgl\src\lv_misc/lv_printf.c ****         out = _out_null;
 773              		.loc 1 574 0
 774 0010 604E     		ldr	r6, .L154
 775              	.L63:
 575:lvgl\src\lv_misc/lv_printf.c ****     }
 576:lvgl\src\lv_misc/lv_printf.c **** 
ARM GAS  C:\Users\strap\AppData\Local\Temp\ccV4k2oP.s 			page 25


 577:lvgl\src\lv_misc/lv_printf.c ****     while(*format) {
 578:lvgl\src\lv_misc/lv_printf.c ****         // format specifier?  %[flags][width][.precision][length]
 579:lvgl\src\lv_misc/lv_printf.c ****         if(*format != '%') {
 580:lvgl\src\lv_misc/lv_printf.c ****             // no
 581:lvgl\src\lv_misc/lv_printf.c ****             out(*format, buffer, idx++, maxlen);
 582:lvgl\src\lv_misc/lv_printf.c ****             format++;
 583:lvgl\src\lv_misc/lv_printf.c ****             continue;
 584:lvgl\src\lv_misc/lv_printf.c ****         }
 585:lvgl\src\lv_misc/lv_printf.c ****         else {
 586:lvgl\src\lv_misc/lv_printf.c ****             // yes, evaluate it
 587:lvgl\src\lv_misc/lv_printf.c ****             format++;
 588:lvgl\src\lv_misc/lv_printf.c ****         }
 589:lvgl\src\lv_misc/lv_printf.c **** 
 590:lvgl\src\lv_misc/lv_printf.c ****         // evaluate flags
 591:lvgl\src\lv_misc/lv_printf.c ****         flags = 0U;
 592:lvgl\src\lv_misc/lv_printf.c ****         do {
 593:lvgl\src\lv_misc/lv_printf.c ****             switch(*format) {
 594:lvgl\src\lv_misc/lv_printf.c ****                 case '0':
 595:lvgl\src\lv_misc/lv_printf.c ****                     flags |= FLAGS_ZEROPAD;
 596:lvgl\src\lv_misc/lv_printf.c ****                     format++;
 597:lvgl\src\lv_misc/lv_printf.c ****                     n = 1U;
 598:lvgl\src\lv_misc/lv_printf.c ****                     break;
 599:lvgl\src\lv_misc/lv_printf.c ****                 case '-':
 600:lvgl\src\lv_misc/lv_printf.c ****                     flags |= FLAGS_LEFT;
 601:lvgl\src\lv_misc/lv_printf.c ****                     format++;
 602:lvgl\src\lv_misc/lv_printf.c ****                     n = 1U;
 603:lvgl\src\lv_misc/lv_printf.c ****                     break;
 604:lvgl\src\lv_misc/lv_printf.c ****                 case '+':
 605:lvgl\src\lv_misc/lv_printf.c ****                     flags |= FLAGS_PLUS;
 606:lvgl\src\lv_misc/lv_printf.c ****                     format++;
 607:lvgl\src\lv_misc/lv_printf.c ****                     n = 1U;
 608:lvgl\src\lv_misc/lv_printf.c ****                     break;
 609:lvgl\src\lv_misc/lv_printf.c ****                 case ' ':
 610:lvgl\src\lv_misc/lv_printf.c ****                     flags |= FLAGS_SPACE;
 611:lvgl\src\lv_misc/lv_printf.c ****                     format++;
 612:lvgl\src\lv_misc/lv_printf.c ****                     n = 1U;
 613:lvgl\src\lv_misc/lv_printf.c ****                     break;
 614:lvgl\src\lv_misc/lv_printf.c ****                 case '#':
 615:lvgl\src\lv_misc/lv_printf.c ****                     flags |= FLAGS_HASH;
 616:lvgl\src\lv_misc/lv_printf.c ****                     format++;
 617:lvgl\src\lv_misc/lv_printf.c ****                     n = 1U;
 618:lvgl\src\lv_misc/lv_printf.c ****                     break;
 619:lvgl\src\lv_misc/lv_printf.c ****                 default :
 620:lvgl\src\lv_misc/lv_printf.c ****                     n = 0U;
 621:lvgl\src\lv_misc/lv_printf.c ****                     break;
 622:lvgl\src\lv_misc/lv_printf.c ****             }
 623:lvgl\src\lv_misc/lv_printf.c ****         } while(n);
 624:lvgl\src\lv_misc/lv_printf.c **** 
 625:lvgl\src\lv_misc/lv_printf.c ****         // evaluate width field
 626:lvgl\src\lv_misc/lv_printf.c ****         width = 0U;
 627:lvgl\src\lv_misc/lv_printf.c ****         if(_is_digit(*format)) {
 628:lvgl\src\lv_misc/lv_printf.c ****             width = _atoi(&format);
 629:lvgl\src\lv_misc/lv_printf.c ****         }
 630:lvgl\src\lv_misc/lv_printf.c ****         else if(*format == '*') {
 631:lvgl\src\lv_misc/lv_printf.c ****             const int w = va_arg(va, int);
 632:lvgl\src\lv_misc/lv_printf.c ****             if(w < 0) {
 633:lvgl\src\lv_misc/lv_printf.c ****                 flags |= FLAGS_LEFT;    // reverse padding
ARM GAS  C:\Users\strap\AppData\Local\Temp\ccV4k2oP.s 			page 26


 634:lvgl\src\lv_misc/lv_printf.c ****                 width = (unsigned int) - w;
 635:lvgl\src\lv_misc/lv_printf.c ****             }
 636:lvgl\src\lv_misc/lv_printf.c ****             else {
 637:lvgl\src\lv_misc/lv_printf.c ****                 width = (unsigned int)w;
 638:lvgl\src\lv_misc/lv_printf.c ****             }
 639:lvgl\src\lv_misc/lv_printf.c ****             format++;
 640:lvgl\src\lv_misc/lv_printf.c ****         }
 641:lvgl\src\lv_misc/lv_printf.c **** 
 642:lvgl\src\lv_misc/lv_printf.c ****         // evaluate precision field
 643:lvgl\src\lv_misc/lv_printf.c ****         precision = 0U;
 644:lvgl\src\lv_misc/lv_printf.c ****         if(*format == '.') {
 645:lvgl\src\lv_misc/lv_printf.c ****             flags |= FLAGS_PRECISION;
 646:lvgl\src\lv_misc/lv_printf.c ****             format++;
 647:lvgl\src\lv_misc/lv_printf.c ****             if(_is_digit(*format)) {
 648:lvgl\src\lv_misc/lv_printf.c ****                 precision = _atoi(&format);
 649:lvgl\src\lv_misc/lv_printf.c ****             }
 650:lvgl\src\lv_misc/lv_printf.c ****             else if(*format == '*') {
 651:lvgl\src\lv_misc/lv_printf.c ****                 const int prec = (int)va_arg(va, int);
 652:lvgl\src\lv_misc/lv_printf.c ****                 precision = prec > 0 ? (unsigned int)prec : 0U;
 653:lvgl\src\lv_misc/lv_printf.c ****                 format++;
 654:lvgl\src\lv_misc/lv_printf.c ****             }
 655:lvgl\src\lv_misc/lv_printf.c ****         }
 656:lvgl\src\lv_misc/lv_printf.c **** 
 657:lvgl\src\lv_misc/lv_printf.c ****         // evaluate length field
 658:lvgl\src\lv_misc/lv_printf.c ****         switch(*format) {
 659:lvgl\src\lv_misc/lv_printf.c ****             case 'l' :
 660:lvgl\src\lv_misc/lv_printf.c ****                 flags |= FLAGS_LONG;
 661:lvgl\src\lv_misc/lv_printf.c ****                 format++;
 662:lvgl\src\lv_misc/lv_printf.c ****                 if(*format == 'l') {
 663:lvgl\src\lv_misc/lv_printf.c ****                     flags |= FLAGS_LONG_LONG;
 664:lvgl\src\lv_misc/lv_printf.c ****                     format++;
 665:lvgl\src\lv_misc/lv_printf.c ****                 }
 666:lvgl\src\lv_misc/lv_printf.c ****                 break;
 667:lvgl\src\lv_misc/lv_printf.c ****             case 'h' :
 668:lvgl\src\lv_misc/lv_printf.c ****                 flags |= FLAGS_SHORT;
 669:lvgl\src\lv_misc/lv_printf.c ****                 format++;
 670:lvgl\src\lv_misc/lv_printf.c ****                 if(*format == 'h') {
 671:lvgl\src\lv_misc/lv_printf.c ****                     flags |= FLAGS_CHAR;
 672:lvgl\src\lv_misc/lv_printf.c ****                     format++;
 673:lvgl\src\lv_misc/lv_printf.c ****                 }
 674:lvgl\src\lv_misc/lv_printf.c ****                 break;
 675:lvgl\src\lv_misc/lv_printf.c **** #if defined(PRINTF_SUPPORT_PTRDIFF_T)
 676:lvgl\src\lv_misc/lv_printf.c ****             case 't' :
 677:lvgl\src\lv_misc/lv_printf.c ****                 flags |= (sizeof(ptrdiff_t) == sizeof(long) ? FLAGS_LONG : FLAGS_LONG_LONG);
 678:lvgl\src\lv_misc/lv_printf.c ****                 format++;
 679:lvgl\src\lv_misc/lv_printf.c ****                 break;
 680:lvgl\src\lv_misc/lv_printf.c **** #endif
 681:lvgl\src\lv_misc/lv_printf.c ****             case 'j' :
 682:lvgl\src\lv_misc/lv_printf.c ****                 flags |= (sizeof(intmax_t) == sizeof(long) ? FLAGS_LONG : FLAGS_LONG_LONG);
 683:lvgl\src\lv_misc/lv_printf.c ****                 format++;
 684:lvgl\src\lv_misc/lv_printf.c ****                 break;
 685:lvgl\src\lv_misc/lv_printf.c ****             case 'z' :
 686:lvgl\src\lv_misc/lv_printf.c ****                 flags |= (sizeof(size_t) == sizeof(long) ? FLAGS_LONG : FLAGS_LONG_LONG);
 687:lvgl\src\lv_misc/lv_printf.c ****                 format++;
 688:lvgl\src\lv_misc/lv_printf.c ****                 break;
 689:lvgl\src\lv_misc/lv_printf.c ****             default :
 690:lvgl\src\lv_misc/lv_printf.c ****                 break;
ARM GAS  C:\Users\strap\AppData\Local\Temp\ccV4k2oP.s 			page 27


 691:lvgl\src\lv_misc/lv_printf.c ****         }
 692:lvgl\src\lv_misc/lv_printf.c **** 
 693:lvgl\src\lv_misc/lv_printf.c ****         // evaluate specifier
 694:lvgl\src\lv_misc/lv_printf.c ****         switch(*format) {
 695:lvgl\src\lv_misc/lv_printf.c ****             case 'd' :
 696:lvgl\src\lv_misc/lv_printf.c ****             case 'i' :
 697:lvgl\src\lv_misc/lv_printf.c ****             case 'u' :
 698:lvgl\src\lv_misc/lv_printf.c ****             case 'x' :
 699:lvgl\src\lv_misc/lv_printf.c ****             case 'X' :
 700:lvgl\src\lv_misc/lv_printf.c ****             case 'o' :
 701:lvgl\src\lv_misc/lv_printf.c ****             case 'b' : {
 702:lvgl\src\lv_misc/lv_printf.c ****                     // set the base
 703:lvgl\src\lv_misc/lv_printf.c ****                     unsigned int base;
 704:lvgl\src\lv_misc/lv_printf.c ****                     if(*format == 'x' || *format == 'X') {
 705:lvgl\src\lv_misc/lv_printf.c ****                         base = 16U;
 706:lvgl\src\lv_misc/lv_printf.c ****                     }
 707:lvgl\src\lv_misc/lv_printf.c ****                     else if(*format == 'o') {
 708:lvgl\src\lv_misc/lv_printf.c ****                         base =  8U;
 709:lvgl\src\lv_misc/lv_printf.c ****                     }
 710:lvgl\src\lv_misc/lv_printf.c ****                     else if(*format == 'b') {
 711:lvgl\src\lv_misc/lv_printf.c ****                         base =  2U;
 712:lvgl\src\lv_misc/lv_printf.c ****                     }
 713:lvgl\src\lv_misc/lv_printf.c ****                     else {
 714:lvgl\src\lv_misc/lv_printf.c ****                         base = 10U;
 715:lvgl\src\lv_misc/lv_printf.c ****                         flags &= ~FLAGS_HASH;   // no hash for dec format
 716:lvgl\src\lv_misc/lv_printf.c ****                     }
 717:lvgl\src\lv_misc/lv_printf.c ****                     // uppercase
 718:lvgl\src\lv_misc/lv_printf.c ****                     if(*format == 'X') {
 719:lvgl\src\lv_misc/lv_printf.c ****                         flags |= FLAGS_UPPERCASE;
 720:lvgl\src\lv_misc/lv_printf.c ****                     }
 721:lvgl\src\lv_misc/lv_printf.c **** 
 722:lvgl\src\lv_misc/lv_printf.c ****                     // no plus or space flag for u, x, X, o, b
 723:lvgl\src\lv_misc/lv_printf.c ****                     if((*format != 'i') && (*format != 'd')) {
 724:lvgl\src\lv_misc/lv_printf.c ****                         flags &= ~(FLAGS_PLUS | FLAGS_SPACE);
 725:lvgl\src\lv_misc/lv_printf.c ****                     }
 726:lvgl\src\lv_misc/lv_printf.c **** 
 727:lvgl\src\lv_misc/lv_printf.c ****                     // ignore '0' flag when precision is given
 728:lvgl\src\lv_misc/lv_printf.c ****                     if(flags & FLAGS_PRECISION) {
 729:lvgl\src\lv_misc/lv_printf.c ****                         flags &= ~FLAGS_ZEROPAD;
 730:lvgl\src\lv_misc/lv_printf.c ****                     }
 731:lvgl\src\lv_misc/lv_printf.c **** 
 732:lvgl\src\lv_misc/lv_printf.c ****                     // convert the integer
 733:lvgl\src\lv_misc/lv_printf.c ****                     if((*format == 'i') || (*format == 'd')) {
 734:lvgl\src\lv_misc/lv_printf.c ****                         // signed
 735:lvgl\src\lv_misc/lv_printf.c ****                         if(flags & FLAGS_LONG_LONG) {
 736:lvgl\src\lv_misc/lv_printf.c **** #if defined(PRINTF_SUPPORT_LONG_LONG)
 737:lvgl\src\lv_misc/lv_printf.c ****                             const long long value = va_arg(va, long long);
 738:lvgl\src\lv_misc/lv_printf.c ****                             idx = _ntoa_long_long(out, buffer, idx, maxlen, (unsigned long long)(va
 739:lvgl\src\lv_misc/lv_printf.c ****                                                   precision, width, flags);
 740:lvgl\src\lv_misc/lv_printf.c **** #endif
 741:lvgl\src\lv_misc/lv_printf.c ****                         }
 742:lvgl\src\lv_misc/lv_printf.c ****                         else if(flags & FLAGS_LONG) {
 743:lvgl\src\lv_misc/lv_printf.c ****                             const long value = va_arg(va, long);
 744:lvgl\src\lv_misc/lv_printf.c ****                             idx = _ntoa_long(out, buffer, idx, maxlen, (unsigned long)(value > 0 ? 
 745:lvgl\src\lv_misc/lv_printf.c ****                                              width, flags);
 746:lvgl\src\lv_misc/lv_printf.c ****                         }
 747:lvgl\src\lv_misc/lv_printf.c ****                         else {
ARM GAS  C:\Users\strap\AppData\Local\Temp\ccV4k2oP.s 			page 28


 748:lvgl\src\lv_misc/lv_printf.c ****                             const int value = (flags & FLAGS_CHAR) ? (char)va_arg(va, int) : (flags
 749:lvgl\src\lv_misc/lv_printf.c ****                                                                                                    
 750:lvgl\src\lv_misc/lv_printf.c ****                             idx = _ntoa_long(out, buffer, idx, maxlen, (unsigned int)(value > 0 ? v
 751:lvgl\src\lv_misc/lv_printf.c ****                                              width, flags);
 752:lvgl\src\lv_misc/lv_printf.c ****                         }
 753:lvgl\src\lv_misc/lv_printf.c ****                     }
 754:lvgl\src\lv_misc/lv_printf.c ****                     else {
 755:lvgl\src\lv_misc/lv_printf.c ****                         // unsigned
 756:lvgl\src\lv_misc/lv_printf.c ****                         if(flags & FLAGS_LONG_LONG) {
 757:lvgl\src\lv_misc/lv_printf.c **** #if defined(PRINTF_SUPPORT_LONG_LONG)
 758:lvgl\src\lv_misc/lv_printf.c ****                             idx = _ntoa_long_long(out, buffer, idx, maxlen, va_arg(va, unsigned lon
 759:lvgl\src\lv_misc/lv_printf.c **** #endif
 760:lvgl\src\lv_misc/lv_printf.c ****                         }
 761:lvgl\src\lv_misc/lv_printf.c ****                         else if(flags & FLAGS_LONG) {
 762:lvgl\src\lv_misc/lv_printf.c ****                             idx = _ntoa_long(out, buffer, idx, maxlen, va_arg(va, unsigned long), f
 763:lvgl\src\lv_misc/lv_printf.c ****                         }
 764:lvgl\src\lv_misc/lv_printf.c ****                         else {
 765:lvgl\src\lv_misc/lv_printf.c ****                             const unsigned int value = (flags & FLAGS_CHAR) ? (unsigned char)va_arg
 766:lvgl\src\lv_misc/lv_printf.c ****                                                                                                    
 767:lvgl\src\lv_misc/lv_printf.c ****                             idx = _ntoa_long(out, buffer, idx, maxlen, value, false, base, precisio
 768:lvgl\src\lv_misc/lv_printf.c ****                         }
 769:lvgl\src\lv_misc/lv_printf.c ****                     }
 770:lvgl\src\lv_misc/lv_printf.c ****                     format++;
 771:lvgl\src\lv_misc/lv_printf.c ****                     break;
 772:lvgl\src\lv_misc/lv_printf.c ****                 }
 773:lvgl\src\lv_misc/lv_printf.c **** #if defined(PRINTF_SUPPORT_FLOAT)
 774:lvgl\src\lv_misc/lv_printf.c ****             case 'f' :
 775:lvgl\src\lv_misc/lv_printf.c ****             case 'F' :
 776:lvgl\src\lv_misc/lv_printf.c ****                 if(*format == 'F') flags |= FLAGS_UPPERCASE;
 777:lvgl\src\lv_misc/lv_printf.c ****                 idx = _ftoa(out, buffer, idx, maxlen, va_arg(va, double), precision, width, flags);
 778:lvgl\src\lv_misc/lv_printf.c ****                 format++;
 779:lvgl\src\lv_misc/lv_printf.c ****                 break;
 780:lvgl\src\lv_misc/lv_printf.c **** #if defined(PRINTF_SUPPORT_EXPONENTIAL)
 781:lvgl\src\lv_misc/lv_printf.c ****             case 'e':
 782:lvgl\src\lv_misc/lv_printf.c ****             case 'E':
 783:lvgl\src\lv_misc/lv_printf.c ****             case 'g':
 784:lvgl\src\lv_misc/lv_printf.c ****             case 'G':
 785:lvgl\src\lv_misc/lv_printf.c ****                 if((*format == 'g') || (*format == 'G')) flags |= FLAGS_ADAPT_EXP;
 786:lvgl\src\lv_misc/lv_printf.c ****                 if((*format == 'E') || (*format == 'G')) flags |= FLAGS_UPPERCASE;
 787:lvgl\src\lv_misc/lv_printf.c ****                 idx = _etoa(out, buffer, idx, maxlen, va_arg(va, double), precision, width, flags);
 788:lvgl\src\lv_misc/lv_printf.c ****                 format++;
 789:lvgl\src\lv_misc/lv_printf.c ****                 break;
 790:lvgl\src\lv_misc/lv_printf.c **** #endif  // PRINTF_SUPPORT_EXPONENTIAL
 791:lvgl\src\lv_misc/lv_printf.c **** #endif  // PRINTF_SUPPORT_FLOAT
 792:lvgl\src\lv_misc/lv_printf.c ****             case 'c' : {
 793:lvgl\src\lv_misc/lv_printf.c ****                     unsigned int l = 1U;
 794:lvgl\src\lv_misc/lv_printf.c ****                     // pre padding
 795:lvgl\src\lv_misc/lv_printf.c ****                     if(!(flags & FLAGS_LEFT)) {
 796:lvgl\src\lv_misc/lv_printf.c ****                         while(l++ < width) {
 797:lvgl\src\lv_misc/lv_printf.c ****                             out(' ', buffer, idx++, maxlen);
 798:lvgl\src\lv_misc/lv_printf.c ****                         }
 799:lvgl\src\lv_misc/lv_printf.c ****                     }
 800:lvgl\src\lv_misc/lv_printf.c ****                     // char output
 801:lvgl\src\lv_misc/lv_printf.c ****                     out((char)va_arg(va, int), buffer, idx++, maxlen);
 802:lvgl\src\lv_misc/lv_printf.c ****                     // post padding
 803:lvgl\src\lv_misc/lv_printf.c ****                     if(flags & FLAGS_LEFT) {
 804:lvgl\src\lv_misc/lv_printf.c ****                         while(l++ < width) {
ARM GAS  C:\Users\strap\AppData\Local\Temp\ccV4k2oP.s 			page 29


 805:lvgl\src\lv_misc/lv_printf.c ****                             out(' ', buffer, idx++, maxlen);
 806:lvgl\src\lv_misc/lv_printf.c ****                         }
 807:lvgl\src\lv_misc/lv_printf.c ****                     }
 808:lvgl\src\lv_misc/lv_printf.c ****                     format++;
 809:lvgl\src\lv_misc/lv_printf.c ****                     break;
 810:lvgl\src\lv_misc/lv_printf.c ****                 }
 811:lvgl\src\lv_misc/lv_printf.c **** 
 812:lvgl\src\lv_misc/lv_printf.c ****             case 's' : {
 813:lvgl\src\lv_misc/lv_printf.c ****                     const char * p = va_arg(va, char *);
 814:lvgl\src\lv_misc/lv_printf.c ****                     unsigned int l = _strnlen_s(p, precision ? precision : (size_t) -1);
 815:lvgl\src\lv_misc/lv_printf.c ****                     // pre padding
 816:lvgl\src\lv_misc/lv_printf.c ****                     if(flags & FLAGS_PRECISION) {
 817:lvgl\src\lv_misc/lv_printf.c ****                         l = (l < precision ? l : precision);
 818:lvgl\src\lv_misc/lv_printf.c ****                     }
 819:lvgl\src\lv_misc/lv_printf.c ****                     if(!(flags & FLAGS_LEFT)) {
 820:lvgl\src\lv_misc/lv_printf.c ****                         while(l++ < width) {
 821:lvgl\src\lv_misc/lv_printf.c ****                             out(' ', buffer, idx++, maxlen);
 822:lvgl\src\lv_misc/lv_printf.c ****                         }
 823:lvgl\src\lv_misc/lv_printf.c ****                     }
 824:lvgl\src\lv_misc/lv_printf.c ****                     // string output
 825:lvgl\src\lv_misc/lv_printf.c ****                     while((*p != 0) && (!(flags & FLAGS_PRECISION) || precision--)) {
 826:lvgl\src\lv_misc/lv_printf.c ****                         out(*(p++), buffer, idx++, maxlen);
 827:lvgl\src\lv_misc/lv_printf.c ****                     }
 828:lvgl\src\lv_misc/lv_printf.c ****                     // post padding
 829:lvgl\src\lv_misc/lv_printf.c ****                     if(flags & FLAGS_LEFT) {
 830:lvgl\src\lv_misc/lv_printf.c ****                         while(l++ < width) {
 831:lvgl\src\lv_misc/lv_printf.c ****                             out(' ', buffer, idx++, maxlen);
 832:lvgl\src\lv_misc/lv_printf.c ****                         }
 833:lvgl\src\lv_misc/lv_printf.c ****                     }
 834:lvgl\src\lv_misc/lv_printf.c ****                     format++;
 835:lvgl\src\lv_misc/lv_printf.c ****                     break;
 836:lvgl\src\lv_misc/lv_printf.c ****                 }
 837:lvgl\src\lv_misc/lv_printf.c **** 
 838:lvgl\src\lv_misc/lv_printf.c ****             case 'p' : {
 839:lvgl\src\lv_misc/lv_printf.c ****                     width = sizeof(void *) * 2U;
 840:lvgl\src\lv_misc/lv_printf.c ****                     flags |= FLAGS_ZEROPAD | FLAGS_UPPERCASE;
 841:lvgl\src\lv_misc/lv_printf.c **** #if defined(PRINTF_SUPPORT_LONG_LONG)
 842:lvgl\src\lv_misc/lv_printf.c ****                     const bool is_ll = sizeof(uintptr_t) == sizeof(long long);
 843:lvgl\src\lv_misc/lv_printf.c ****                     if(is_ll) {
 844:lvgl\src\lv_misc/lv_printf.c ****                         idx = _ntoa_long_long(out, buffer, idx, maxlen, (uintptr_t)va_arg(va, void 
 845:lvgl\src\lv_misc/lv_printf.c ****                     }
 846:lvgl\src\lv_misc/lv_printf.c ****                     else {
 847:lvgl\src\lv_misc/lv_printf.c **** #endif
 848:lvgl\src\lv_misc/lv_printf.c ****                         idx = _ntoa_long(out, buffer, idx, maxlen, (unsigned long)((uintptr_t)va_ar
 849:lvgl\src\lv_misc/lv_printf.c ****                                          flags);
 850:lvgl\src\lv_misc/lv_printf.c **** #if defined(PRINTF_SUPPORT_LONG_LONG)
 851:lvgl\src\lv_misc/lv_printf.c ****                     }
 852:lvgl\src\lv_misc/lv_printf.c **** #endif
 853:lvgl\src\lv_misc/lv_printf.c ****                     format++;
 854:lvgl\src\lv_misc/lv_printf.c ****                     break;
 855:lvgl\src\lv_misc/lv_printf.c ****                 }
 856:lvgl\src\lv_misc/lv_printf.c **** 
 857:lvgl\src\lv_misc/lv_printf.c ****             case '%' :
 858:lvgl\src\lv_misc/lv_printf.c ****                 out('%', buffer, idx++, maxlen);
 776              		.loc 1 858 0
 777 0012 0024     		movs	r4, #0
 778 0014 DAE2     		b	.L64
ARM GAS  C:\Users\strap\AppData\Local\Temp\ccV4k2oP.s 			page 30


 779              	.LVL93:
 780              	.L133:
 579:lvgl\src\lv_misc/lv_printf.c ****             // no
 781              		.loc 1 579 0
 782 0016 2528     		cmp	r0, #37
 783 0018 09D0     		beq	.L65
 581:lvgl\src\lv_misc/lv_printf.c ****             format++;
 784              		.loc 1 581 0
 785 001a 651C     		adds	r5, r4, #1
 786              	.LVL94:
 787 001c 0A9B     		ldr	r3, [sp, #40]
 788 001e 2246     		mov	r2, r4
 789 0020 0B99     		ldr	r1, [sp, #44]
 790 0022 B047     		blx	r6
 791              	.LVL95:
 582:lvgl\src\lv_misc/lv_printf.c ****             continue;
 792              		.loc 1 582 0
 793 0024 0D9B     		ldr	r3, [sp, #52]
 794 0026 0133     		adds	r3, r3, #1
 795 0028 0D93     		str	r3, [sp, #52]
 581:lvgl\src\lv_misc/lv_printf.c ****             format++;
 796              		.loc 1 581 0
 797 002a 2C46     		mov	r4, r5
 583:lvgl\src\lv_misc/lv_printf.c ****         }
 798              		.loc 1 583 0
 799 002c CEE2     		b	.L64
 800              	.LVL96:
 801              	.L65:
 587:lvgl\src\lv_misc/lv_printf.c ****         }
 802              		.loc 1 587 0
 803 002e 0133     		adds	r3, r3, #1
 804 0030 0D93     		str	r3, [sp, #52]
 805              	.LVL97:
 591:lvgl\src\lv_misc/lv_printf.c ****         do {
 806              		.loc 1 591 0
 807 0032 4FF0000A 		mov	r10, #0
 808              	.LVL98:
 809              	.L74:
 593:lvgl\src\lv_misc/lv_printf.c ****                 case '0':
 810              		.loc 1 593 0
 811 0036 0D9A     		ldr	r2, [sp, #52]
 812 0038 1378     		ldrb	r3, [r2]	@ zero_extendqisi2
 813 003a 203B     		subs	r3, r3, #32
 814 003c 102B     		cmp	r3, #16
 815 003e 28D8     		bhi	.L136
 816 0040 DFE803F0 		tbb	[pc, r3]
 817              	.L69:
 818 0044 1B       		.byte	(.L68-.L69)/2
 819 0045 27       		.byte	(.L136-.L69)/2
 820 0046 27       		.byte	(.L136-.L69)/2
 821 0047 21       		.byte	(.L70-.L69)/2
 822 0048 27       		.byte	(.L136-.L69)/2
 823 0049 27       		.byte	(.L136-.L69)/2
 824 004a 27       		.byte	(.L136-.L69)/2
 825 004b 27       		.byte	(.L136-.L69)/2
 826 004c 27       		.byte	(.L136-.L69)/2
 827 004d 27       		.byte	(.L136-.L69)/2
ARM GAS  C:\Users\strap\AppData\Local\Temp\ccV4k2oP.s 			page 31


 828 004e 27       		.byte	(.L136-.L69)/2
 829 004f 15       		.byte	(.L71-.L69)/2
 830 0050 27       		.byte	(.L136-.L69)/2
 831 0051 0F       		.byte	(.L72-.L69)/2
 832 0052 27       		.byte	(.L136-.L69)/2
 833 0053 27       		.byte	(.L136-.L69)/2
 834 0054 09       		.byte	(.L73-.L69)/2
 835 0055 00       		.p2align 1
 836              	.L73:
 595:lvgl\src\lv_misc/lv_printf.c ****                     format++;
 837              		.loc 1 595 0
 838 0056 4AF0010A 		orr	r10, r10, #1
 839              	.LVL99:
 596:lvgl\src\lv_misc/lv_printf.c ****                     n = 1U;
 840              		.loc 1 596 0
 841 005a 0132     		adds	r2, r2, #1
 842 005c 0D92     		str	r2, [sp, #52]
 843              	.LVL100:
 597:lvgl\src\lv_misc/lv_printf.c ****                     break;
 844              		.loc 1 597 0
 845 005e 0123     		movs	r3, #1
 598:lvgl\src\lv_misc/lv_printf.c ****                 case '-':
 846              		.loc 1 598 0
 847 0060 18E0     		b	.L67
 848              	.LVL101:
 849              	.L72:
 600:lvgl\src\lv_misc/lv_printf.c ****                     format++;
 850              		.loc 1 600 0
 851 0062 4AF0020A 		orr	r10, r10, #2
 852              	.LVL102:
 601:lvgl\src\lv_misc/lv_printf.c ****                     n = 1U;
 853              		.loc 1 601 0
 854 0066 0132     		adds	r2, r2, #1
 855 0068 0D92     		str	r2, [sp, #52]
 856              	.LVL103:
 602:lvgl\src\lv_misc/lv_printf.c ****                     break;
 857              		.loc 1 602 0
 858 006a 0123     		movs	r3, #1
 603:lvgl\src\lv_misc/lv_printf.c ****                 case '+':
 859              		.loc 1 603 0
 860 006c 12E0     		b	.L67
 861              	.LVL104:
 862              	.L71:
 605:lvgl\src\lv_misc/lv_printf.c ****                     format++;
 863              		.loc 1 605 0
 864 006e 4AF0040A 		orr	r10, r10, #4
 865              	.LVL105:
 606:lvgl\src\lv_misc/lv_printf.c ****                     n = 1U;
 866              		.loc 1 606 0
 867 0072 0132     		adds	r2, r2, #1
 868 0074 0D92     		str	r2, [sp, #52]
 869              	.LVL106:
 607:lvgl\src\lv_misc/lv_printf.c ****                     break;
 870              		.loc 1 607 0
 871 0076 0123     		movs	r3, #1
 608:lvgl\src\lv_misc/lv_printf.c ****                 case ' ':
 872              		.loc 1 608 0
ARM GAS  C:\Users\strap\AppData\Local\Temp\ccV4k2oP.s 			page 32


 873 0078 0CE0     		b	.L67
 874              	.LVL107:
 875              	.L68:
 610:lvgl\src\lv_misc/lv_printf.c ****                     format++;
 876              		.loc 1 610 0
 877 007a 4AF0080A 		orr	r10, r10, #8
 878              	.LVL108:
 611:lvgl\src\lv_misc/lv_printf.c ****                     n = 1U;
 879              		.loc 1 611 0
 880 007e 0132     		adds	r2, r2, #1
 881 0080 0D92     		str	r2, [sp, #52]
 882              	.LVL109:
 612:lvgl\src\lv_misc/lv_printf.c ****                     break;
 883              		.loc 1 612 0
 884 0082 0123     		movs	r3, #1
 613:lvgl\src\lv_misc/lv_printf.c ****                 case '#':
 885              		.loc 1 613 0
 886 0084 06E0     		b	.L67
 887              	.LVL110:
 888              	.L70:
 615:lvgl\src\lv_misc/lv_printf.c ****                     format++;
 889              		.loc 1 615 0
 890 0086 4AF0100A 		orr	r10, r10, #16
 891              	.LVL111:
 616:lvgl\src\lv_misc/lv_printf.c ****                     n = 1U;
 892              		.loc 1 616 0
 893 008a 0132     		adds	r2, r2, #1
 894 008c 0D92     		str	r2, [sp, #52]
 895              	.LVL112:
 617:lvgl\src\lv_misc/lv_printf.c ****                     break;
 896              		.loc 1 617 0
 897 008e 0123     		movs	r3, #1
 618:lvgl\src\lv_misc/lv_printf.c ****                 default :
 898              		.loc 1 618 0
 899 0090 00E0     		b	.L67
 900              	.LVL113:
 901              	.L136:
 620:lvgl\src\lv_misc/lv_printf.c ****                     break;
 902              		.loc 1 620 0
 903 0092 0023     		movs	r3, #0
 904              	.L67:
 905              	.LVL114:
 623:lvgl\src\lv_misc/lv_printf.c **** 
 906              		.loc 1 623 0
 907 0094 002B     		cmp	r3, #0
 908 0096 CED1     		bne	.L74
 909              	.LVL115:
 627:lvgl\src\lv_misc/lv_printf.c ****             width = _atoi(&format);
 910              		.loc 1 627 0
 911 0098 0D99     		ldr	r1, [sp, #52]
 912 009a 0A78     		ldrb	r2, [r1]	@ zero_extendqisi2
 913              	.LVL116:
 914              	.LBB28:
 915              	.LBB29:
 162:lvgl\src\lv_misc/lv_printf.c **** }
 916              		.loc 1 162 0
 917 009c A2F13003 		sub	r3, r2, #48
ARM GAS  C:\Users\strap\AppData\Local\Temp\ccV4k2oP.s 			page 33


 918              	.LVL117:
 919 00a0 DBB2     		uxtb	r3, r3
 920              	.LVL118:
 921              	.LBE29:
 922              	.LBE28:
 627:lvgl\src\lv_misc/lv_printf.c ****             width = _atoi(&format);
 923              		.loc 1 627 0
 924 00a2 092B     		cmp	r3, #9
 925 00a4 04D8     		bhi	.L75
 628:lvgl\src\lv_misc/lv_printf.c ****         }
 926              		.loc 1 628 0
 927 00a6 0DA8     		add	r0, sp, #52
 928 00a8 FFF7FEFF 		bl	_atoi
 929              	.LVL119:
 930 00ac 8146     		mov	r9, r0
 931              	.LVL120:
 932 00ae 13E0     		b	.L76
 933              	.LVL121:
 934              	.L75:
 630:lvgl\src\lv_misc/lv_printf.c ****             const int w = va_arg(va, int);
 935              		.loc 1 630 0
 936 00b0 2A2A     		cmp	r2, #42
 937 00b2 0FD1     		bne	.L137
 938              	.LBB30:
 631:lvgl\src\lv_misc/lv_printf.c ****             if(w < 0) {
 939              		.loc 1 631 0
 940 00b4 189B     		ldr	r3, [sp, #96]
 941 00b6 1B68     		ldr	r3, [r3]
 942 00b8 189A     		ldr	r2, [sp, #96]
 943 00ba 0432     		adds	r2, r2, #4
 944 00bc 1892     		str	r2, [sp, #96]
 945              	.LVL122:
 632:lvgl\src\lv_misc/lv_printf.c ****                 flags |= FLAGS_LEFT;    // reverse padding
 946              		.loc 1 632 0
 947 00be 002B     		cmp	r3, #0
 948 00c0 04DA     		bge	.L77
 633:lvgl\src\lv_misc/lv_printf.c ****                 width = (unsigned int) - w;
 949              		.loc 1 633 0
 950 00c2 4AF0020A 		orr	r10, r10, #2
 951              	.LVL123:
 634:lvgl\src\lv_misc/lv_printf.c ****             }
 952              		.loc 1 634 0
 953 00c6 C3F10009 		rsb	r9, r3, #0
 954              	.LVL124:
 955 00ca 00E0     		b	.L78
 956              	.LVL125:
 957              	.L77:
 637:lvgl\src\lv_misc/lv_printf.c ****             }
 958              		.loc 1 637 0
 959 00cc 9946     		mov	r9, r3
 960              	.LVL126:
 961              	.L78:
 639:lvgl\src\lv_misc/lv_printf.c ****         }
 962              		.loc 1 639 0
 963 00ce 0131     		adds	r1, r1, #1
 964 00d0 0D91     		str	r1, [sp, #52]
 965 00d2 01E0     		b	.L76
ARM GAS  C:\Users\strap\AppData\Local\Temp\ccV4k2oP.s 			page 34


 966              	.LVL127:
 967              	.L137:
 968              	.LBE30:
 626:lvgl\src\lv_misc/lv_printf.c ****         if(_is_digit(*format)) {
 969              		.loc 1 626 0
 970 00d4 4FF00009 		mov	r9, #0
 971              	.LVL128:
 972              	.L76:
 644:lvgl\src\lv_misc/lv_printf.c ****             flags |= FLAGS_PRECISION;
 973              		.loc 1 644 0
 974 00d8 0D9B     		ldr	r3, [sp, #52]
 975 00da 1A78     		ldrb	r2, [r3]	@ zero_extendqisi2
 976 00dc 2E2A     		cmp	r2, #46
 977 00de 1AD1     		bne	.L138
 645:lvgl\src\lv_misc/lv_printf.c ****             format++;
 978              		.loc 1 645 0
 979 00e0 4AF4806A 		orr	r10, r10, #1024
 980              	.LVL129:
 646:lvgl\src\lv_misc/lv_printf.c ****             if(_is_digit(*format)) {
 981              		.loc 1 646 0
 982 00e4 591C     		adds	r1, r3, #1
 983 00e6 0D91     		str	r1, [sp, #52]
 647:lvgl\src\lv_misc/lv_printf.c ****                 precision = _atoi(&format);
 984              		.loc 1 647 0
 985 00e8 5A78     		ldrb	r2, [r3, #1]	@ zero_extendqisi2
 986              	.LVL130:
 987              	.LBB31:
 988              	.LBB32:
 162:lvgl\src\lv_misc/lv_printf.c **** }
 989              		.loc 1 162 0
 990 00ea A2F13003 		sub	r3, r2, #48
 991 00ee DBB2     		uxtb	r3, r3
 992              	.LVL131:
 993              	.LBE32:
 994              	.LBE31:
 647:lvgl\src\lv_misc/lv_printf.c ****                 precision = _atoi(&format);
 995              		.loc 1 647 0
 996 00f0 092B     		cmp	r3, #9
 997 00f2 04D8     		bhi	.L80
 648:lvgl\src\lv_misc/lv_printf.c ****             }
 998              		.loc 1 648 0
 999 00f4 0DA8     		add	r0, sp, #52
 1000 00f6 FFF7FEFF 		bl	_atoi
 1001              	.LVL132:
 1002 00fa 8046     		mov	r8, r0
 1003              	.LVL133:
 1004 00fc 10E0     		b	.L79
 1005              	.LVL134:
 1006              	.L80:
 650:lvgl\src\lv_misc/lv_printf.c ****                 const int prec = (int)va_arg(va, int);
 1007              		.loc 1 650 0
 1008 00fe 2A2A     		cmp	r2, #42
 1009 0100 0CD1     		bne	.L139
 1010              	.LBB33:
 651:lvgl\src\lv_misc/lv_printf.c ****                 precision = prec > 0 ? (unsigned int)prec : 0U;
 1011              		.loc 1 651 0
 1012 0102 189B     		ldr	r3, [sp, #96]
ARM GAS  C:\Users\strap\AppData\Local\Temp\ccV4k2oP.s 			page 35


 1013 0104 1B68     		ldr	r3, [r3]
 1014 0106 189A     		ldr	r2, [sp, #96]
 1015 0108 0432     		adds	r2, r2, #4
 1016 010a 1892     		str	r2, [sp, #96]
 1017              	.LVL135:
 652:lvgl\src\lv_misc/lv_printf.c ****                 format++;
 1018              		.loc 1 652 0
 1019 010c 23EAE378 		bic	r8, r3, r3, asr #31
 1020              	.LVL136:
 653:lvgl\src\lv_misc/lv_printf.c ****             }
 1021              		.loc 1 653 0
 1022 0110 0131     		adds	r1, r1, #1
 1023 0112 0D91     		str	r1, [sp, #52]
 1024 0114 04E0     		b	.L79
 1025              	.LVL137:
 1026              	.L138:
 1027              	.LBE33:
 643:lvgl\src\lv_misc/lv_printf.c ****         if(*format == '.') {
 1028              		.loc 1 643 0
 1029 0116 4FF00008 		mov	r8, #0
 1030 011a 01E0     		b	.L79
 1031              	.L139:
 1032 011c 4FF00008 		mov	r8, #0
 1033              	.LVL138:
 1034              	.L79:
 658:lvgl\src\lv_misc/lv_printf.c ****             case 'l' :
 1035              		.loc 1 658 0
 1036 0120 0D9A     		ldr	r2, [sp, #52]
 1037 0122 1378     		ldrb	r3, [r2]	@ zero_extendqisi2
 1038 0124 683B     		subs	r3, r3, #104
 1039 0126 122B     		cmp	r3, #18
 1040 0128 37D8     		bhi	.L81
 1041 012a DFE803F0 		tbb	[pc, r3]
 1042              	.L83:
 1043 012e 16       		.byte	(.L82-.L83)/2
 1044 012f 36       		.byte	(.L81-.L83)/2
 1045 0130 27       		.byte	(.L84-.L83)/2
 1046 0131 36       		.byte	(.L81-.L83)/2
 1047 0132 0A       		.byte	(.L85-.L83)/2
 1048 0133 36       		.byte	(.L81-.L83)/2
 1049 0134 36       		.byte	(.L81-.L83)/2
 1050 0135 36       		.byte	(.L81-.L83)/2
 1051 0136 36       		.byte	(.L81-.L83)/2
 1052 0137 36       		.byte	(.L81-.L83)/2
 1053 0138 36       		.byte	(.L81-.L83)/2
 1054 0139 36       		.byte	(.L81-.L83)/2
 1055 013a 22       		.byte	(.L86-.L83)/2
 1056 013b 36       		.byte	(.L81-.L83)/2
 1057 013c 36       		.byte	(.L81-.L83)/2
 1058 013d 36       		.byte	(.L81-.L83)/2
 1059 013e 36       		.byte	(.L81-.L83)/2
 1060 013f 36       		.byte	(.L81-.L83)/2
 1061 0140 2C       		.byte	(.L87-.L83)/2
 1062 0141 00       		.p2align 1
 1063              	.L85:
 660:lvgl\src\lv_misc/lv_printf.c ****                 format++;
 1064              		.loc 1 660 0
ARM GAS  C:\Users\strap\AppData\Local\Temp\ccV4k2oP.s 			page 36


 1065 0142 4AF48071 		orr	r1, r10, #256
 1066              	.LVL139:
 661:lvgl\src\lv_misc/lv_printf.c ****                 if(*format == 'l') {
 1067              		.loc 1 661 0
 1068 0146 531C     		adds	r3, r2, #1
 1069 0148 0D93     		str	r3, [sp, #52]
 662:lvgl\src\lv_misc/lv_printf.c ****                     flags |= FLAGS_LONG_LONG;
 1070              		.loc 1 662 0
 1071 014a 5278     		ldrb	r2, [r2, #1]	@ zero_extendqisi2
 1072 014c 6C2A     		cmp	r2, #108
 1073 014e 1FD1     		bne	.L140
 663:lvgl\src\lv_misc/lv_printf.c ****                     format++;
 1074              		.loc 1 663 0
 1075 0150 4AF4407A 		orr	r10, r10, #768
 1076              	.LVL140:
 664:lvgl\src\lv_misc/lv_printf.c ****                 }
 1077              		.loc 1 664 0
 1078 0154 0133     		adds	r3, r3, #1
 1079 0156 0D93     		str	r3, [sp, #52]
 1080 0158 1FE0     		b	.L81
 1081              	.L82:
 668:lvgl\src\lv_misc/lv_printf.c ****                 format++;
 1082              		.loc 1 668 0
 1083 015a 4AF08001 		orr	r1, r10, #128
 1084              	.LVL141:
 669:lvgl\src\lv_misc/lv_printf.c ****                 if(*format == 'h') {
 1085              		.loc 1 669 0
 1086 015e 531C     		adds	r3, r2, #1
 1087 0160 0D93     		str	r3, [sp, #52]
 670:lvgl\src\lv_misc/lv_printf.c ****                     flags |= FLAGS_CHAR;
 1088              		.loc 1 670 0
 1089 0162 5278     		ldrb	r2, [r2, #1]	@ zero_extendqisi2
 1090 0164 682A     		cmp	r2, #104
 1091 0166 17D1     		bne	.L141
 671:lvgl\src\lv_misc/lv_printf.c ****                     format++;
 1092              		.loc 1 671 0
 1093 0168 4AF0C00A 		orr	r10, r10, #192
 1094              	.LVL142:
 672:lvgl\src\lv_misc/lv_printf.c ****                 }
 1095              		.loc 1 672 0
 1096 016c 0133     		adds	r3, r3, #1
 1097 016e 0D93     		str	r3, [sp, #52]
 1098 0170 13E0     		b	.L81
 1099              	.L86:
 677:lvgl\src\lv_misc/lv_printf.c ****                 format++;
 1100              		.loc 1 677 0
 1101 0172 4AF4807A 		orr	r10, r10, #256
 1102              	.LVL143:
 678:lvgl\src\lv_misc/lv_printf.c ****                 break;
 1103              		.loc 1 678 0
 1104 0176 0132     		adds	r2, r2, #1
 1105 0178 0D92     		str	r2, [sp, #52]
 679:lvgl\src\lv_misc/lv_printf.c **** #endif
 1106              		.loc 1 679 0
 1107 017a 0EE0     		b	.L81
 1108              	.L84:
 682:lvgl\src\lv_misc/lv_printf.c ****                 format++;
ARM GAS  C:\Users\strap\AppData\Local\Temp\ccV4k2oP.s 			page 37


 1109              		.loc 1 682 0
 1110 017c 4AF4007A 		orr	r10, r10, #512
 1111              	.LVL144:
 683:lvgl\src\lv_misc/lv_printf.c ****                 break;
 1112              		.loc 1 683 0
 1113 0180 0132     		adds	r2, r2, #1
 1114 0182 0D92     		str	r2, [sp, #52]
 684:lvgl\src\lv_misc/lv_printf.c ****             case 'z' :
 1115              		.loc 1 684 0
 1116 0184 09E0     		b	.L81
 1117              	.L87:
 686:lvgl\src\lv_misc/lv_printf.c ****                 format++;
 1118              		.loc 1 686 0
 1119 0186 4AF4807A 		orr	r10, r10, #256
 1120              	.LVL145:
 687:lvgl\src\lv_misc/lv_printf.c ****                 break;
 1121              		.loc 1 687 0
 1122 018a 0132     		adds	r2, r2, #1
 1123 018c 0D92     		str	r2, [sp, #52]
 688:lvgl\src\lv_misc/lv_printf.c ****             default :
 1124              		.loc 1 688 0
 1125 018e 04E0     		b	.L81
 1126              	.LVL146:
 1127              	.L140:
 660:lvgl\src\lv_misc/lv_printf.c ****                 format++;
 1128              		.loc 1 660 0
 1129 0190 8A46     		mov	r10, r1
 1130 0192 02E0     		b	.L81
 1131              	.L155:
 1132              		.align	2
 1133              	.L154:
 1134 0194 00000000 		.word	_out_null
 1135              	.L141:
 668:lvgl\src\lv_misc/lv_printf.c ****                 format++;
 1136              		.loc 1 668 0
 1137 0198 8A46     		mov	r10, r1
 1138              	.LVL147:
 1139              	.L81:
 694:lvgl\src\lv_misc/lv_printf.c ****             case 'd' :
 1140              		.loc 1 694 0
 1141 019a 0D9B     		ldr	r3, [sp, #52]
 1142 019c 1878     		ldrb	r0, [r3]	@ zero_extendqisi2
 1143 019e A0F12503 		sub	r3, r0, #37
 1144 01a2 532B     		cmp	r3, #83
 1145 01a4 00F20982 		bhi	.L88
 1146 01a8 DFE813F0 		tbh	[pc, r3, lsl #1]
 1147              	.L90:
 1148 01ac FC01     		.2byte	(.L89-.L90)/2
 1149 01ae 0702     		.2byte	(.L88-.L90)/2
 1150 01b0 0702     		.2byte	(.L88-.L90)/2
 1151 01b2 0702     		.2byte	(.L88-.L90)/2
 1152 01b4 0702     		.2byte	(.L88-.L90)/2
 1153 01b6 0702     		.2byte	(.L88-.L90)/2
 1154 01b8 0702     		.2byte	(.L88-.L90)/2
 1155 01ba 0702     		.2byte	(.L88-.L90)/2
 1156 01bc 0702     		.2byte	(.L88-.L90)/2
 1157 01be 0702     		.2byte	(.L88-.L90)/2
ARM GAS  C:\Users\strap\AppData\Local\Temp\ccV4k2oP.s 			page 38


 1158 01c0 0702     		.2byte	(.L88-.L90)/2
 1159 01c2 0702     		.2byte	(.L88-.L90)/2
 1160 01c4 0702     		.2byte	(.L88-.L90)/2
 1161 01c6 0702     		.2byte	(.L88-.L90)/2
 1162 01c8 0702     		.2byte	(.L88-.L90)/2
 1163 01ca 0702     		.2byte	(.L88-.L90)/2
 1164 01cc 0702     		.2byte	(.L88-.L90)/2
 1165 01ce 0702     		.2byte	(.L88-.L90)/2
 1166 01d0 0702     		.2byte	(.L88-.L90)/2
 1167 01d2 0702     		.2byte	(.L88-.L90)/2
 1168 01d4 0702     		.2byte	(.L88-.L90)/2
 1169 01d6 0702     		.2byte	(.L88-.L90)/2
 1170 01d8 0702     		.2byte	(.L88-.L90)/2
 1171 01da 0702     		.2byte	(.L88-.L90)/2
 1172 01dc 0702     		.2byte	(.L88-.L90)/2
 1173 01de 0702     		.2byte	(.L88-.L90)/2
 1174 01e0 0702     		.2byte	(.L88-.L90)/2
 1175 01e2 0702     		.2byte	(.L88-.L90)/2
 1176 01e4 0702     		.2byte	(.L88-.L90)/2
 1177 01e6 0702     		.2byte	(.L88-.L90)/2
 1178 01e8 0702     		.2byte	(.L88-.L90)/2
 1179 01ea 0702     		.2byte	(.L88-.L90)/2
 1180 01ec 0702     		.2byte	(.L88-.L90)/2
 1181 01ee 0702     		.2byte	(.L88-.L90)/2
 1182 01f0 0702     		.2byte	(.L88-.L90)/2
 1183 01f2 0702     		.2byte	(.L88-.L90)/2
 1184 01f4 0702     		.2byte	(.L88-.L90)/2
 1185 01f6 0702     		.2byte	(.L88-.L90)/2
 1186 01f8 0702     		.2byte	(.L88-.L90)/2
 1187 01fa 0702     		.2byte	(.L88-.L90)/2
 1188 01fc 0702     		.2byte	(.L88-.L90)/2
 1189 01fe 0702     		.2byte	(.L88-.L90)/2
 1190 0200 0702     		.2byte	(.L88-.L90)/2
 1191 0202 0702     		.2byte	(.L88-.L90)/2
 1192 0204 0702     		.2byte	(.L88-.L90)/2
 1193 0206 0702     		.2byte	(.L88-.L90)/2
 1194 0208 0702     		.2byte	(.L88-.L90)/2
 1195 020a 0702     		.2byte	(.L88-.L90)/2
 1196 020c 0702     		.2byte	(.L88-.L90)/2
 1197 020e 0702     		.2byte	(.L88-.L90)/2
 1198 0210 0702     		.2byte	(.L88-.L90)/2
 1199 0212 5400     		.2byte	(.L91-.L90)/2
 1200 0214 0702     		.2byte	(.L88-.L90)/2
 1201 0216 0702     		.2byte	(.L88-.L90)/2
 1202 0218 0702     		.2byte	(.L88-.L90)/2
 1203 021a 0702     		.2byte	(.L88-.L90)/2
 1204 021c 0702     		.2byte	(.L88-.L90)/2
 1205 021e 0702     		.2byte	(.L88-.L90)/2
 1206 0220 0702     		.2byte	(.L88-.L90)/2
 1207 0222 0702     		.2byte	(.L88-.L90)/2
 1208 0224 0702     		.2byte	(.L88-.L90)/2
 1209 0226 5400     		.2byte	(.L91-.L90)/2
 1210 0228 5501     		.2byte	(.L92-.L90)/2
 1211 022a 5400     		.2byte	(.L91-.L90)/2
 1212 022c 0702     		.2byte	(.L88-.L90)/2
 1213 022e 0702     		.2byte	(.L88-.L90)/2
 1214 0230 0702     		.2byte	(.L88-.L90)/2
ARM GAS  C:\Users\strap\AppData\Local\Temp\ccV4k2oP.s 			page 39


 1215 0232 0702     		.2byte	(.L88-.L90)/2
 1216 0234 5400     		.2byte	(.L91-.L90)/2
 1217 0236 0702     		.2byte	(.L88-.L90)/2
 1218 0238 0702     		.2byte	(.L88-.L90)/2
 1219 023a 0702     		.2byte	(.L88-.L90)/2
 1220 023c 0702     		.2byte	(.L88-.L90)/2
 1221 023e 0702     		.2byte	(.L88-.L90)/2
 1222 0240 5400     		.2byte	(.L91-.L90)/2
 1223 0242 E001     		.2byte	(.L93-.L90)/2
 1224 0244 0702     		.2byte	(.L88-.L90)/2
 1225 0246 0702     		.2byte	(.L88-.L90)/2
 1226 0248 8801     		.2byte	(.L94-.L90)/2
 1227 024a 0702     		.2byte	(.L88-.L90)/2
 1228 024c 5400     		.2byte	(.L91-.L90)/2
 1229 024e 0702     		.2byte	(.L88-.L90)/2
 1230 0250 0702     		.2byte	(.L88-.L90)/2
 1231 0252 5400     		.2byte	(.L91-.L90)/2
 1232              		.p2align 1
 1233              	.L91:
 1234              	.LBB34:
 704:lvgl\src\lv_misc/lv_printf.c ****                         base = 16U;
 1235              		.loc 1 704 0
 1236 0254 7828     		cmp	r0, #120
 1237 0256 09D0     		beq	.L142
 704:lvgl\src\lv_misc/lv_printf.c ****                         base = 16U;
 1238              		.loc 1 704 0 is_stmt 0 discriminator 1
 1239 0258 5828     		cmp	r0, #88
 1240 025a 09D0     		beq	.L143
 707:lvgl\src\lv_misc/lv_printf.c ****                         base =  8U;
 1241              		.loc 1 707 0 is_stmt 1
 1242 025c 6F28     		cmp	r0, #111
 1243 025e 09D0     		beq	.L144
 710:lvgl\src\lv_misc/lv_printf.c ****                         base =  2U;
 1244              		.loc 1 710 0
 1245 0260 6228     		cmp	r0, #98
 1246 0262 09D0     		beq	.L145
 1247              	.LVL148:
 715:lvgl\src\lv_misc/lv_printf.c ****                     }
 1248              		.loc 1 715 0
 1249 0264 2AF0100A 		bic	r10, r10, #16
 1250              	.LVL149:
 714:lvgl\src\lv_misc/lv_printf.c ****                         flags &= ~FLAGS_HASH;   // no hash for dec format
 1251              		.loc 1 714 0
 1252 0268 0A21     		movs	r1, #10
 1253 026a 06E0     		b	.L95
 1254              	.LVL150:
 1255              	.L142:
 705:lvgl\src\lv_misc/lv_printf.c ****                     }
 1256              		.loc 1 705 0
 1257 026c 1021     		movs	r1, #16
 1258 026e 04E0     		b	.L95
 1259              	.L143:
 1260 0270 1021     		movs	r1, #16
 1261 0272 02E0     		b	.L95
 1262              	.L144:
 708:lvgl\src\lv_misc/lv_printf.c ****                     }
 1263              		.loc 1 708 0
ARM GAS  C:\Users\strap\AppData\Local\Temp\ccV4k2oP.s 			page 40


 1264 0274 0821     		movs	r1, #8
 1265 0276 00E0     		b	.L95
 1266              	.L145:
 711:lvgl\src\lv_misc/lv_printf.c ****                     }
 1267              		.loc 1 711 0
 1268 0278 0221     		movs	r1, #2
 1269              	.L95:
 1270              	.LVL151:
 718:lvgl\src\lv_misc/lv_printf.c ****                         flags |= FLAGS_UPPERCASE;
 1271              		.loc 1 718 0
 1272 027a 5828     		cmp	r0, #88
 1273 027c 01D1     		bne	.L96
 719:lvgl\src\lv_misc/lv_printf.c ****                     }
 1274              		.loc 1 719 0
 1275 027e 4AF0200A 		orr	r10, r10, #32
 1276              	.LVL152:
 1277              	.L96:
 723:lvgl\src\lv_misc/lv_printf.c ****                         flags &= ~(FLAGS_PLUS | FLAGS_SPACE);
 1278              		.loc 1 723 0
 1279 0282 6928     		cmp	r0, #105
 1280 0284 03D0     		beq	.L97
 723:lvgl\src\lv_misc/lv_printf.c ****                         flags &= ~(FLAGS_PLUS | FLAGS_SPACE);
 1281              		.loc 1 723 0 is_stmt 0 discriminator 1
 1282 0286 6428     		cmp	r0, #100
 1283 0288 01D0     		beq	.L97
 724:lvgl\src\lv_misc/lv_printf.c ****                     }
 1284              		.loc 1 724 0 is_stmt 1
 1285 028a 2AF00C0A 		bic	r10, r10, #12
 1286              	.LVL153:
 1287              	.L97:
 728:lvgl\src\lv_misc/lv_printf.c ****                         flags &= ~FLAGS_ZEROPAD;
 1288              		.loc 1 728 0
 1289 028e 1AF4806F 		tst	r10, #1024
 1290 0292 01D0     		beq	.L98
 729:lvgl\src\lv_misc/lv_printf.c ****                     }
 1291              		.loc 1 729 0
 1292 0294 2AF0010A 		bic	r10, r10, #1
 1293              	.LVL154:
 1294              	.L98:
 733:lvgl\src\lv_misc/lv_printf.c ****                         // signed
 1295              		.loc 1 733 0
 1296 0298 6928     		cmp	r0, #105
 1297 029a 01D0     		beq	.L99
 733:lvgl\src\lv_misc/lv_printf.c ****                         // signed
 1298              		.loc 1 733 0 is_stmt 0 discriminator 1
 1299 029c 6428     		cmp	r0, #100
 1300 029e 74D1     		bne	.L100
 1301              	.L99:
 735:lvgl\src\lv_misc/lv_printf.c **** #if defined(PRINTF_SUPPORT_LONG_LONG)
 1302              		.loc 1 735 0 is_stmt 1
 1303 02a0 1AF4007F 		tst	r10, #512
 1304 02a4 25D0     		beq	.L101
 1305              	.LBB35:
 737:lvgl\src\lv_misc/lv_printf.c ****                             idx = _ntoa_long_long(out, buffer, idx, maxlen, (unsigned long long)(va
 1306              		.loc 1 737 0
 1307 02a6 189B     		ldr	r3, [sp, #96]
 1308 02a8 D81D     		adds	r0, r3, #7
ARM GAS  C:\Users\strap\AppData\Local\Temp\ccV4k2oP.s 			page 41


 1309 02aa 20F00700 		bic	r0, r0, #7
 1310 02ae 00F10803 		add	r3, r0, #8
 1311 02b2 1893     		str	r3, [sp, #96]
 1312 02b4 4568     		ldr	r5, [r0, #4]
 1313              	.LVL155:
 738:lvgl\src\lv_misc/lv_printf.c ****                                                   precision, width, flags);
 1314              		.loc 1 738 0
 1315 02b6 0268     		ldr	r2, [r0]
 1316 02b8 2B46     		mov	r3, r5
 1317 02ba 002A     		cmp	r2, #0
 1318 02bc 75F10000 		sbcs	r0, r5, #0
 1319              	.LVL156:
 1320 02c0 02DA     		bge	.L102
 1321 02c2 5242     		rsbs	r2, r2, #0
 1322              	.LVL157:
 1323 02c4 65EB4503 		sbc	r3, r5, r5, lsl #1
 1324              	.L102:
 1325 02c8 ED0F     		lsrs	r5, r5, #31
 1326              	.LVL158:
 1327 02ca CDF820A0 		str	r10, [sp, #32]
 1328              	.LVL159:
 1329 02ce CDF81C90 		str	r9, [sp, #28]
 1330 02d2 CDF81880 		str	r8, [sp, #24]
 1331 02d6 0491     		str	r1, [sp, #16]
 1332 02d8 0021     		movs	r1, #0
 1333              	.LVL160:
 1334 02da 0591     		str	r1, [sp, #20]
 1335 02dc 0295     		str	r5, [sp, #8]
 1336 02de CDE90023 		strd	r2, [sp]
 1337 02e2 0A9B     		ldr	r3, [sp, #40]
 1338 02e4 2246     		mov	r2, r4
 1339 02e6 0B99     		ldr	r1, [sp, #44]
 1340 02e8 3046     		mov	r0, r6
 1341 02ea FFF7FEFF 		bl	_ntoa_long_long
 1342              	.LVL161:
 1343 02ee 0446     		mov	r4, r0
 1344              	.LVL162:
 1345              	.LBE35:
 1346 02f0 ADE0     		b	.L103
 1347              	.LVL163:
 1348              	.L101:
 742:lvgl\src\lv_misc/lv_printf.c ****                             const long value = va_arg(va, long);
 1349              		.loc 1 742 0
 1350 02f2 1AF4807F 		tst	r10, #256
 1351 02f6 1AD0     		beq	.L104
 1352              	.LBB36:
 743:lvgl\src\lv_misc/lv_printf.c ****                             idx = _ntoa_long(out, buffer, idx, maxlen, (unsigned long)(value > 0 ? 
 1353              		.loc 1 743 0
 1354 02f8 189B     		ldr	r3, [sp, #96]
 1355 02fa 1B68     		ldr	r3, [r3]
 1356 02fc 189A     		ldr	r2, [sp, #96]
 1357 02fe 0432     		adds	r2, r2, #4
 1358 0300 1892     		str	r2, [sp, #96]
 1359              	.LVL164:
 744:lvgl\src\lv_misc/lv_printf.c ****                                              width, flags);
 1360              		.loc 1 744 0
 1361 0302 83EAE372 		eor	r2, r3, r3, asr #31
ARM GAS  C:\Users\strap\AppData\Local\Temp\ccV4k2oP.s 			page 42


 1362 0306 A2EBE372 		sub	r2, r2, r3, asr #31
 1363 030a DB0F     		lsrs	r3, r3, #31
 1364              	.LVL165:
 1365 030c CDF814A0 		str	r10, [sp, #20]
 1366              	.LVL166:
 1367 0310 CDF81090 		str	r9, [sp, #16]
 1368 0314 CDF80C80 		str	r8, [sp, #12]
 1369 0318 0291     		str	r1, [sp, #8]
 1370 031a 0193     		str	r3, [sp, #4]
 1371 031c 0092     		str	r2, [sp]
 1372 031e 0A9B     		ldr	r3, [sp, #40]
 1373 0320 2246     		mov	r2, r4
 1374 0322 0B99     		ldr	r1, [sp, #44]
 1375              	.LVL167:
 1376 0324 3046     		mov	r0, r6
 1377 0326 FFF7FEFF 		bl	_ntoa_long
 1378              	.LVL168:
 1379 032a 0446     		mov	r4, r0
 1380              	.LVL169:
 1381              	.LBE36:
 1382 032c 8FE0     		b	.L103
 1383              	.LVL170:
 1384              	.L104:
 1385              	.LBB37:
 748:lvgl\src\lv_misc/lv_printf.c ****                                                                                                    
 1386              		.loc 1 748 0
 1387 032e 1AF0400F 		tst	r10, #64
 1388 0332 05D0     		beq	.L105
 748:lvgl\src\lv_misc/lv_printf.c ****                                                                                                    
 1389              		.loc 1 748 0 is_stmt 0 discriminator 1
 1390 0334 189B     		ldr	r3, [sp, #96]
 1391 0336 1B78     		ldrb	r3, [r3]	@ zero_extendqisi2
 1392 0338 189A     		ldr	r2, [sp, #96]
 1393 033a 0432     		adds	r2, r2, #4
 1394 033c 1892     		str	r2, [sp, #96]
 1395 033e 0EE0     		b	.L106
 1396              	.L105:
 749:lvgl\src\lv_misc/lv_printf.c ****                             idx = _ntoa_long(out, buffer, idx, maxlen, (unsigned int)(value > 0 ? v
 1397              		.loc 1 749 0 is_stmt 1 discriminator 2
 1398 0340 1AF0800F 		tst	r10, #128
 1399 0344 06D0     		beq	.L107
 748:lvgl\src\lv_misc/lv_printf.c ****                                                                                                    
 1400              		.loc 1 748 0 discriminator 1
 1401 0346 189B     		ldr	r3, [sp, #96]
 1402 0348 B3F90030 		ldrsh	r3, [r3]
 1403 034c 189A     		ldr	r2, [sp, #96]
 1404 034e 0432     		adds	r2, r2, #4
 1405 0350 1892     		str	r2, [sp, #96]
 1406 0352 04E0     		b	.L106
 1407              	.L107:
 749:lvgl\src\lv_misc/lv_printf.c ****                             idx = _ntoa_long(out, buffer, idx, maxlen, (unsigned int)(value > 0 ? v
 1408              		.loc 1 749 0 discriminator 2
 1409 0354 189B     		ldr	r3, [sp, #96]
 1410 0356 1B68     		ldr	r3, [r3]
 1411 0358 189A     		ldr	r2, [sp, #96]
 1412 035a 0432     		adds	r2, r2, #4
 1413 035c 1892     		str	r2, [sp, #96]
ARM GAS  C:\Users\strap\AppData\Local\Temp\ccV4k2oP.s 			page 43


 1414              	.L106:
 1415              	.LVL171:
 750:lvgl\src\lv_misc/lv_printf.c ****                                              width, flags);
 1416              		.loc 1 750 0 discriminator 3
 1417 035e 83EAE372 		eor	r2, r3, r3, asr #31
 1418 0362 A2EBE372 		sub	r2, r2, r3, asr #31
 1419 0366 DB0F     		lsrs	r3, r3, #31
 1420              	.LVL172:
 1421 0368 CDF814A0 		str	r10, [sp, #20]
 1422 036c CDF81090 		str	r9, [sp, #16]
 1423 0370 CDF80C80 		str	r8, [sp, #12]
 1424 0374 0291     		str	r1, [sp, #8]
 1425 0376 0193     		str	r3, [sp, #4]
 1426 0378 0092     		str	r2, [sp]
 1427 037a 0A9B     		ldr	r3, [sp, #40]
 1428 037c 2246     		mov	r2, r4
 1429 037e 0B99     		ldr	r1, [sp, #44]
 1430              	.LVL173:
 1431 0380 3046     		mov	r0, r6
 1432 0382 FFF7FEFF 		bl	_ntoa_long
 1433              	.LVL174:
 1434 0386 0446     		mov	r4, r0
 1435              	.LVL175:
 1436 0388 61E0     		b	.L103
 1437              	.LVL176:
 1438              	.L100:
 1439              	.LBE37:
 756:lvgl\src\lv_misc/lv_printf.c **** #if defined(PRINTF_SUPPORT_LONG_LONG)
 1440              		.loc 1 756 0
 1441 038a 1AF4007F 		tst	r10, #512
 1442 038e 1CD0     		beq	.L108
 758:lvgl\src\lv_misc/lv_printf.c **** #endif
 1443              		.loc 1 758 0
 1444 0390 189B     		ldr	r3, [sp, #96]
 1445 0392 0733     		adds	r3, r3, #7
 1446 0394 23F00703 		bic	r3, r3, #7
 1447 0398 03F10802 		add	r2, r3, #8
 1448 039c 1892     		str	r2, [sp, #96]
 1449 039e D3E90023 		ldrd	r2, [r3]
 1450 03a2 0020     		movs	r0, #0
 1451 03a4 CDF820A0 		str	r10, [sp, #32]
 1452 03a8 CDF81C90 		str	r9, [sp, #28]
 1453 03ac CDF81880 		str	r8, [sp, #24]
 1454 03b0 0491     		str	r1, [sp, #16]
 1455 03b2 0590     		str	r0, [sp, #20]
 1456 03b4 0290     		str	r0, [sp, #8]
 1457 03b6 CDE90023 		strd	r2, [sp]
 1458 03ba 0A9B     		ldr	r3, [sp, #40]
 1459 03bc 2246     		mov	r2, r4
 1460 03be 0B99     		ldr	r1, [sp, #44]
 1461              	.LVL177:
 1462 03c0 3046     		mov	r0, r6
 1463 03c2 FFF7FEFF 		bl	_ntoa_long_long
 1464              	.LVL178:
 1465 03c6 0446     		mov	r4, r0
 1466              	.LVL179:
 1467 03c8 41E0     		b	.L103
ARM GAS  C:\Users\strap\AppData\Local\Temp\ccV4k2oP.s 			page 44


 1468              	.LVL180:
 1469              	.L108:
 761:lvgl\src\lv_misc/lv_printf.c ****                             idx = _ntoa_long(out, buffer, idx, maxlen, va_arg(va, unsigned long), f
 1470              		.loc 1 761 0
 1471 03ca 1AF4807F 		tst	r10, #256
 1472 03ce 16D0     		beq	.L109
 762:lvgl\src\lv_misc/lv_printf.c ****                         }
 1473              		.loc 1 762 0
 1474 03d0 189B     		ldr	r3, [sp, #96]
 1475 03d2 1B68     		ldr	r3, [r3]
 1476 03d4 189A     		ldr	r2, [sp, #96]
 1477 03d6 0432     		adds	r2, r2, #4
 1478 03d8 1892     		str	r2, [sp, #96]
 1479 03da CDF814A0 		str	r10, [sp, #20]
 1480 03de CDF81090 		str	r9, [sp, #16]
 1481 03e2 CDF80C80 		str	r8, [sp, #12]
 1482 03e6 0291     		str	r1, [sp, #8]
 1483 03e8 0022     		movs	r2, #0
 1484 03ea 0192     		str	r2, [sp, #4]
 1485 03ec 0093     		str	r3, [sp]
 1486 03ee 0A9B     		ldr	r3, [sp, #40]
 1487 03f0 2246     		mov	r2, r4
 1488 03f2 0B99     		ldr	r1, [sp, #44]
 1489              	.LVL181:
 1490 03f4 3046     		mov	r0, r6
 1491 03f6 FFF7FEFF 		bl	_ntoa_long
 1492              	.LVL182:
 1493 03fa 0446     		mov	r4, r0
 1494              	.LVL183:
 1495 03fc 27E0     		b	.L103
 1496              	.LVL184:
 1497              	.L109:
 1498              	.LBB38:
 766:lvgl\src\lv_misc/lv_printf.c ****                             idx = _ntoa_long(out, buffer, idx, maxlen, value, false, base, precisio
 1499              		.loc 1 766 0
 1500 03fe 1AF0400F 		tst	r10, #64
 1501 0402 05D0     		beq	.L110
 765:lvgl\src\lv_misc/lv_printf.c ****                                                                                                    
 1502              		.loc 1 765 0 discriminator 1
 1503 0404 189B     		ldr	r3, [sp, #96]
 766:lvgl\src\lv_misc/lv_printf.c ****                             idx = _ntoa_long(out, buffer, idx, maxlen, value, false, base, precisio
 1504              		.loc 1 766 0 discriminator 1
 1505 0406 1B78     		ldrb	r3, [r3]	@ zero_extendqisi2
 1506 0408 189A     		ldr	r2, [sp, #96]
 1507 040a 0432     		adds	r2, r2, #4
 1508 040c 1892     		str	r2, [sp, #96]
 1509 040e 0DE0     		b	.L111
 1510              	.L110:
 766:lvgl\src\lv_misc/lv_printf.c ****                             idx = _ntoa_long(out, buffer, idx, maxlen, value, false, base, precisio
 1511              		.loc 1 766 0 is_stmt 0 discriminator 2
 1512 0410 1AF0800F 		tst	r10, #128
 1513 0414 05D0     		beq	.L112
 766:lvgl\src\lv_misc/lv_printf.c ****                             idx = _ntoa_long(out, buffer, idx, maxlen, value, false, base, precisio
 1514              		.loc 1 766 0 discriminator 3
 1515 0416 189B     		ldr	r3, [sp, #96]
 1516 0418 1B88     		ldrh	r3, [r3]
 1517 041a 189A     		ldr	r2, [sp, #96]
ARM GAS  C:\Users\strap\AppData\Local\Temp\ccV4k2oP.s 			page 45


 1518 041c 0432     		adds	r2, r2, #4
 1519 041e 1892     		str	r2, [sp, #96]
 1520 0420 04E0     		b	.L111
 1521              	.L112:
 766:lvgl\src\lv_misc/lv_printf.c ****                             idx = _ntoa_long(out, buffer, idx, maxlen, value, false, base, precisio
 1522              		.loc 1 766 0 discriminator 4
 1523 0422 189B     		ldr	r3, [sp, #96]
 1524 0424 1B68     		ldr	r3, [r3]
 1525 0426 189A     		ldr	r2, [sp, #96]
 1526 0428 0432     		adds	r2, r2, #4
 1527 042a 1892     		str	r2, [sp, #96]
 1528              	.L111:
 1529              	.LVL185:
 767:lvgl\src\lv_misc/lv_printf.c ****                         }
 1530              		.loc 1 767 0 is_stmt 1
 1531 042c CDF814A0 		str	r10, [sp, #20]
 1532 0430 CDF81090 		str	r9, [sp, #16]
 1533 0434 CDF80C80 		str	r8, [sp, #12]
 1534 0438 0291     		str	r1, [sp, #8]
 1535 043a 0022     		movs	r2, #0
 1536 043c 0192     		str	r2, [sp, #4]
 1537 043e 0093     		str	r3, [sp]
 1538 0440 0A9B     		ldr	r3, [sp, #40]
 1539              	.LVL186:
 1540 0442 2246     		mov	r2, r4
 1541 0444 0B99     		ldr	r1, [sp, #44]
 1542              	.LVL187:
 1543 0446 3046     		mov	r0, r6
 1544 0448 FFF7FEFF 		bl	_ntoa_long
 1545              	.LVL188:
 1546 044c 0446     		mov	r4, r0
 1547              	.LVL189:
 1548              	.L103:
 1549              	.LBE38:
 770:lvgl\src\lv_misc/lv_printf.c ****                     break;
 1550              		.loc 1 770 0
 1551 044e 0D9B     		ldr	r3, [sp, #52]
 1552 0450 0133     		adds	r3, r3, #1
 1553 0452 0D93     		str	r3, [sp, #52]
 771:lvgl\src\lv_misc/lv_printf.c ****                 }
 1554              		.loc 1 771 0
 1555 0454 BAE0     		b	.L64
 1556              	.LVL190:
 1557              	.L92:
 1558              	.LBE34:
 1559              	.LBB39:
 795:lvgl\src\lv_misc/lv_printf.c ****                         while(l++ < width) {
 1560              		.loc 1 795 0
 1561 0456 1AF0020A 		ands	r10, r10, #2
 1562              	.LVL191:
 1563 045a 09D0     		beq	.L146
 793:lvgl\src\lv_misc/lv_printf.c ****                     // pre padding
 1564              		.loc 1 793 0
 1565 045c 0125     		movs	r5, #1
 1566 045e 0DE0     		b	.L114
 1567              	.LVL192:
 1568              	.L115:
ARM GAS  C:\Users\strap\AppData\Local\Temp\ccV4k2oP.s 			page 46


 797:lvgl\src\lv_misc/lv_printf.c ****                         }
 1569              		.loc 1 797 0
 1570 0460 541C     		adds	r4, r2, #1
 1571              	.LVL193:
 1572 0462 0A9B     		ldr	r3, [sp, #40]
 1573 0464 0B99     		ldr	r1, [sp, #44]
 1574 0466 2020     		movs	r0, #32
 1575 0468 B047     		blx	r6
 1576              	.LVL194:
 796:lvgl\src\lv_misc/lv_printf.c ****                             out(' ', buffer, idx++, maxlen);
 1577              		.loc 1 796 0
 1578 046a 2B46     		mov	r3, r5
 797:lvgl\src\lv_misc/lv_printf.c ****                         }
 1579              		.loc 1 797 0
 1580 046c 2246     		mov	r2, r4
 1581 046e 01E0     		b	.L113
 1582              	.LVL195:
 1583              	.L146:
 1584 0470 0123     		movs	r3, #1
 1585 0472 2246     		mov	r2, r4
 1586              	.LVL196:
 1587              	.L113:
 796:lvgl\src\lv_misc/lv_printf.c ****                             out(' ', buffer, idx++, maxlen);
 1588              		.loc 1 796 0
 1589 0474 5D1C     		adds	r5, r3, #1
 1590              	.LVL197:
 1591 0476 9945     		cmp	r9, r3
 1592 0478 F2D8     		bhi	.L115
 1593 047a 1446     		mov	r4, r2
 1594              	.LVL198:
 1595              	.L114:
 801:lvgl\src\lv_misc/lv_printf.c ****                     // post padding
 1596              		.loc 1 801 0
 1597 047c 1898     		ldr	r0, [sp, #96]
 1598 047e 671C     		adds	r7, r4, #1
 1599              	.LVL199:
 1600 0480 0A9B     		ldr	r3, [sp, #40]
 1601 0482 2246     		mov	r2, r4
 1602 0484 0B99     		ldr	r1, [sp, #44]
 1603 0486 0078     		ldrb	r0, [r0]	@ zero_extendqisi2
 1604 0488 189C     		ldr	r4, [sp, #96]
 1605 048a 0434     		adds	r4, r4, #4
 1606 048c 1894     		str	r4, [sp, #96]
 1607 048e B047     		blx	r6
 1608              	.LVL200:
 803:lvgl\src\lv_misc/lv_printf.c ****                         while(l++ < width) {
 1609              		.loc 1 803 0
 1610 0490 BAF1000F 		cmp	r10, #0
 1611 0494 08D1     		bne	.L150
 1612 0496 0CE0     		b	.L117
 1613              	.LVL201:
 1614              	.L118:
 805:lvgl\src\lv_misc/lv_printf.c ****                         }
 1615              		.loc 1 805 0
 1616 0498 571C     		adds	r7, r2, #1
 1617              	.LVL202:
 1618 049a 0A9B     		ldr	r3, [sp, #40]
ARM GAS  C:\Users\strap\AppData\Local\Temp\ccV4k2oP.s 			page 47


 1619 049c 0B99     		ldr	r1, [sp, #44]
 1620 049e 2020     		movs	r0, #32
 1621 04a0 B047     		blx	r6
 1622              	.LVL203:
 804:lvgl\src\lv_misc/lv_printf.c ****                             out(' ', buffer, idx++, maxlen);
 1623              		.loc 1 804 0
 1624 04a2 2546     		mov	r5, r4
 805:lvgl\src\lv_misc/lv_printf.c ****                         }
 1625              		.loc 1 805 0
 1626 04a4 3A46     		mov	r2, r7
 1627 04a6 00E0     		b	.L116
 1628              	.LVL204:
 1629              	.L150:
 1630 04a8 3A46     		mov	r2, r7
 1631              	.LVL205:
 1632              	.L116:
 804:lvgl\src\lv_misc/lv_printf.c ****                             out(' ', buffer, idx++, maxlen);
 1633              		.loc 1 804 0
 1634 04aa 6C1C     		adds	r4, r5, #1
 1635              	.LVL206:
 1636 04ac A945     		cmp	r9, r5
 1637 04ae F3D8     		bhi	.L118
 1638 04b0 1746     		mov	r7, r2
 1639              	.LVL207:
 1640              	.L117:
 808:lvgl\src\lv_misc/lv_printf.c ****                     break;
 1641              		.loc 1 808 0
 1642 04b2 0D9B     		ldr	r3, [sp, #52]
 1643 04b4 0133     		adds	r3, r3, #1
 1644 04b6 0D93     		str	r3, [sp, #52]
 809:lvgl\src\lv_misc/lv_printf.c ****                 }
 1645              		.loc 1 809 0
 1646 04b8 3C46     		mov	r4, r7
 1647 04ba 87E0     		b	.L64
 1648              	.LVL208:
 1649              	.L94:
 1650              	.LBE39:
 1651              	.LBB40:
 813:lvgl\src\lv_misc/lv_printf.c ****                     unsigned int l = _strnlen_s(p, precision ? precision : (size_t) -1);
 1652              		.loc 1 813 0
 1653 04bc 189B     		ldr	r3, [sp, #96]
 1654 04be 1F68     		ldr	r7, [r3]
 1655 04c0 0433     		adds	r3, r3, #4
 1656 04c2 1893     		str	r3, [sp, #96]
 1657              	.LVL209:
 814:lvgl\src\lv_misc/lv_printf.c ****                     // pre padding
 1658              		.loc 1 814 0
 1659 04c4 B8F1000F 		cmp	r8, #0
 1660 04c8 02D1     		bne	.L147
 1661 04ca 4FF0FF33 		mov	r3, #-1
 1662 04ce 00E0     		b	.L119
 1663              	.L147:
 1664 04d0 4346     		mov	r3, r8
 1665              	.L119:
 1666 04d2 3D46     		mov	r5, r7
 1667 04d4 01E0     		b	.L120
 1668              	.LVL210:
ARM GAS  C:\Users\strap\AppData\Local\Temp\ccV4k2oP.s 			page 48


 1669              	.L122:
 1670              	.LBB41:
 1671              	.LBB42:
 153:lvgl\src\lv_misc/lv_printf.c ****     return (unsigned int)(s - str);
 1672              		.loc 1 153 0
 1673 04d6 0135     		adds	r5, r5, #1
 1674              	.LVL211:
 1675 04d8 1346     		mov	r3, r2
 1676              	.LVL212:
 1677              	.L120:
 1678 04da 2A78     		ldrb	r2, [r5]	@ zero_extendqisi2
 1679 04dc 12B1     		cbz	r2, .L121
 1680 04de 5A1E     		subs	r2, r3, #1
 1681              	.LVL213:
 1682 04e0 002B     		cmp	r3, #0
 1683 04e2 F8D1     		bne	.L122
 1684              	.LVL214:
 1685              	.L121:
 154:lvgl\src\lv_misc/lv_printf.c **** }
 1686              		.loc 1 154 0
 1687 04e4 ED1B     		subs	r5, r5, r7
 1688              	.LVL215:
 1689              	.LBE42:
 1690              	.LBE41:
 816:lvgl\src\lv_misc/lv_printf.c ****                         l = (l < precision ? l : precision);
 1691              		.loc 1 816 0
 1692 04e6 1AF4806B 		ands	fp, r10, #1024
 1693 04ea 02D0     		beq	.L123
 817:lvgl\src\lv_misc/lv_printf.c ****                     }
 1694              		.loc 1 817 0
 1695 04ec 4545     		cmp	r5, r8
 1696 04ee 28BF     		it	cs
 1697 04f0 4546     		movcs	r5, r8
 1698              	.LVL216:
 1699              	.L123:
 819:lvgl\src\lv_misc/lv_printf.c ****                         while(l++ < width) {
 1700              		.loc 1 819 0
 1701 04f2 1AF00203 		ands	r3, r10, #2
 1702 04f6 0C93     		str	r3, [sp, #48]
 1703 04f8 0CD0     		beq	.L151
 1704 04fa 2246     		mov	r2, r4
 1705 04fc 4446     		mov	r4, r8
 1706              	.LVL217:
 1707 04fe AA46     		mov	r10, r5
 1708              	.LVL218:
 1709 0500 5D46     		mov	r5, fp
 1710              	.LVL219:
 1711 0502 17E0     		b	.L127
 1712              	.L126:
 821:lvgl\src\lv_misc/lv_printf.c ****                         }
 1713              		.loc 1 821 0
 1714 0504 541C     		adds	r4, r2, #1
 1715              	.LVL220:
 1716 0506 0A9B     		ldr	r3, [sp, #40]
 1717 0508 0B99     		ldr	r1, [sp, #44]
 1718 050a 2020     		movs	r0, #32
 1719 050c B047     		blx	r6
ARM GAS  C:\Users\strap\AppData\Local\Temp\ccV4k2oP.s 			page 49


 1720              	.LVL221:
 820:lvgl\src\lv_misc/lv_printf.c ****                             out(' ', buffer, idx++, maxlen);
 1721              		.loc 1 820 0
 1722 050e 5546     		mov	r5, r10
 821:lvgl\src\lv_misc/lv_printf.c ****                         }
 1723              		.loc 1 821 0
 1724 0510 2246     		mov	r2, r4
 1725 0512 00E0     		b	.L124
 1726              	.LVL222:
 1727              	.L151:
 1728 0514 2246     		mov	r2, r4
 1729              	.LVL223:
 1730              	.L124:
 820:lvgl\src\lv_misc/lv_printf.c ****                             out(' ', buffer, idx++, maxlen);
 1731              		.loc 1 820 0
 1732 0516 05F1010A 		add	r10, r5, #1
 1733              	.LVL224:
 1734 051a A945     		cmp	r9, r5
 1735 051c F2D8     		bhi	.L126
 1736 051e 4446     		mov	r4, r8
 1737 0520 5D46     		mov	r5, fp
 1738 0522 07E0     		b	.L127
 1739              	.LVL225:
 1740              	.L148:
 825:lvgl\src\lv_misc/lv_printf.c ****                         out(*(p++), buffer, idx++, maxlen);
 1741              		.loc 1 825 0
 1742 0524 1C46     		mov	r4, r3
 1743              	.LVL226:
 1744              	.L129:
 826:lvgl\src\lv_misc/lv_printf.c ****                     }
 1745              		.loc 1 826 0
 1746 0526 0137     		adds	r7, r7, #1
 1747              	.LVL227:
 1748 0528 02F10108 		add	r8, r2, #1
 1749              	.LVL228:
 1750 052c 0A9B     		ldr	r3, [sp, #40]
 1751 052e 0B99     		ldr	r1, [sp, #44]
 1752 0530 B047     		blx	r6
 1753              	.LVL229:
 1754 0532 4246     		mov	r2, r8
 1755              	.LVL230:
 1756              	.L127:
 825:lvgl\src\lv_misc/lv_printf.c ****                         out(*(p++), buffer, idx++, maxlen);
 1757              		.loc 1 825 0
 1758 0534 3878     		ldrb	r0, [r7]	@ zero_extendqisi2
 1759 0536 20B1     		cbz	r0, .L128
 825:lvgl\src\lv_misc/lv_printf.c ****                         out(*(p++), buffer, idx++, maxlen);
 1760              		.loc 1 825 0 is_stmt 0 discriminator 1
 1761 0538 002D     		cmp	r5, #0
 1762 053a F4D0     		beq	.L129
 825:lvgl\src\lv_misc/lv_printf.c ****                         out(*(p++), buffer, idx++, maxlen);
 1763              		.loc 1 825 0 discriminator 2
 1764 053c 631E     		subs	r3, r4, #1
 1765              	.LVL231:
 1766 053e 002C     		cmp	r4, #0
 1767 0540 F0D1     		bne	.L148
 1768              	.LVL232:
ARM GAS  C:\Users\strap\AppData\Local\Temp\ccV4k2oP.s 			page 50


 1769              	.L128:
 1770 0542 1446     		mov	r4, r2
 1771 0544 5546     		mov	r5, r10
 829:lvgl\src\lv_misc/lv_printf.c ****                         while(l++ < width) {
 1772              		.loc 1 829 0 is_stmt 1
 1773 0546 0C9B     		ldr	r3, [sp, #48]
 1774 0548 43B9     		cbnz	r3, .L152
 1775              	.LVL233:
 1776 054a 0BE0     		b	.L131
 1777              	.LVL234:
 1778              	.L132:
 831:lvgl\src\lv_misc/lv_printf.c ****                         }
 1779              		.loc 1 831 0
 1780 054c 571C     		adds	r7, r2, #1
 1781              	.LVL235:
 1782 054e 0A9B     		ldr	r3, [sp, #40]
 1783 0550 0B99     		ldr	r1, [sp, #44]
 1784 0552 2020     		movs	r0, #32
 1785 0554 B047     		blx	r6
 1786              	.LVL236:
 830:lvgl\src\lv_misc/lv_printf.c ****                             out(' ', buffer, idx++, maxlen);
 1787              		.loc 1 830 0
 1788 0556 2546     		mov	r5, r4
 831:lvgl\src\lv_misc/lv_printf.c ****                         }
 1789              		.loc 1 831 0
 1790 0558 3A46     		mov	r2, r7
 1791 055a FFE7     		b	.L130
 1792              	.LVL237:
 1793              	.L152:
 1794              	.L130:
 830:lvgl\src\lv_misc/lv_printf.c ****                             out(' ', buffer, idx++, maxlen);
 1795              		.loc 1 830 0
 1796 055c 6C1C     		adds	r4, r5, #1
 1797              	.LVL238:
 1798 055e A945     		cmp	r9, r5
 1799 0560 F4D8     		bhi	.L132
 1800 0562 1446     		mov	r4, r2
 1801              	.LVL239:
 1802              	.L131:
 834:lvgl\src\lv_misc/lv_printf.c ****                     break;
 1803              		.loc 1 834 0
 1804 0564 0D9B     		ldr	r3, [sp, #52]
 1805 0566 0133     		adds	r3, r3, #1
 1806 0568 0D93     		str	r3, [sp, #52]
 835:lvgl\src\lv_misc/lv_printf.c ****                 }
 1807              		.loc 1 835 0
 1808 056a 2FE0     		b	.L64
 1809              	.LVL240:
 1810              	.L93:
 1811              	.LBE40:
 1812              	.LBB43:
 840:lvgl\src\lv_misc/lv_printf.c **** #if defined(PRINTF_SUPPORT_LONG_LONG)
 1813              		.loc 1 840 0
 1814 056c 4AF02103 		orr	r3, r10, #33
 1815              	.LVL241:
 848:lvgl\src\lv_misc/lv_printf.c ****                                          flags);
 1816              		.loc 1 848 0
ARM GAS  C:\Users\strap\AppData\Local\Temp\ccV4k2oP.s 			page 51


 1817 0570 189A     		ldr	r2, [sp, #96]
 1818 0572 1268     		ldr	r2, [r2]
 1819 0574 1899     		ldr	r1, [sp, #96]
 1820 0576 0431     		adds	r1, r1, #4
 1821 0578 1891     		str	r1, [sp, #96]
 1822 057a 0593     		str	r3, [sp, #20]
 1823 057c 0823     		movs	r3, #8
 1824              	.LVL242:
 1825 057e 0493     		str	r3, [sp, #16]
 1826 0580 CDF80C80 		str	r8, [sp, #12]
 1827 0584 1023     		movs	r3, #16
 1828 0586 0293     		str	r3, [sp, #8]
 1829 0588 0023     		movs	r3, #0
 1830 058a 0193     		str	r3, [sp, #4]
 1831 058c 0092     		str	r2, [sp]
 1832 058e 0A9B     		ldr	r3, [sp, #40]
 1833 0590 2246     		mov	r2, r4
 1834 0592 0B99     		ldr	r1, [sp, #44]
 1835 0594 3046     		mov	r0, r6
 1836 0596 FFF7FEFF 		bl	_ntoa_long
 1837              	.LVL243:
 1838 059a 0446     		mov	r4, r0
 1839              	.LVL244:
 853:lvgl\src\lv_misc/lv_printf.c ****                     break;
 1840              		.loc 1 853 0
 1841 059c 0D9B     		ldr	r3, [sp, #52]
 1842 059e 0133     		adds	r3, r3, #1
 1843 05a0 0D93     		str	r3, [sp, #52]
 854:lvgl\src\lv_misc/lv_printf.c ****                 }
 1844              		.loc 1 854 0
 1845 05a2 13E0     		b	.L64
 1846              	.LVL245:
 1847              	.L89:
 1848              	.LBE43:
 1849              		.loc 1 858 0
 1850 05a4 651C     		adds	r5, r4, #1
 1851              	.LVL246:
 1852 05a6 0A9B     		ldr	r3, [sp, #40]
 1853 05a8 2246     		mov	r2, r4
 1854 05aa 0B99     		ldr	r1, [sp, #44]
 1855 05ac 2520     		movs	r0, #37
 1856 05ae B047     		blx	r6
 1857              	.LVL247:
 859:lvgl\src\lv_misc/lv_printf.c ****                 format++;
 1858              		.loc 1 859 0
 1859 05b0 0D9B     		ldr	r3, [sp, #52]
 1860 05b2 0133     		adds	r3, r3, #1
 1861 05b4 0D93     		str	r3, [sp, #52]
 858:lvgl\src\lv_misc/lv_printf.c ****                 format++;
 1862              		.loc 1 858 0
 1863 05b6 2C46     		mov	r4, r5
 860:lvgl\src\lv_misc/lv_printf.c ****                 break;
 1864              		.loc 1 860 0
 1865 05b8 08E0     		b	.L64
 1866              	.LVL248:
 1867              	.L88:
 861:lvgl\src\lv_misc/lv_printf.c **** 
ARM GAS  C:\Users\strap\AppData\Local\Temp\ccV4k2oP.s 			page 52


 862:lvgl\src\lv_misc/lv_printf.c ****             default :
 863:lvgl\src\lv_misc/lv_printf.c ****                 out(*format, buffer, idx++, maxlen);
 1868              		.loc 1 863 0
 1869 05ba 651C     		adds	r5, r4, #1
 1870              	.LVL249:
 1871 05bc 0A9B     		ldr	r3, [sp, #40]
 1872 05be 2246     		mov	r2, r4
 1873 05c0 0B99     		ldr	r1, [sp, #44]
 1874 05c2 B047     		blx	r6
 1875              	.LVL250:
 864:lvgl\src\lv_misc/lv_printf.c ****                 format++;
 1876              		.loc 1 864 0
 1877 05c4 0D9B     		ldr	r3, [sp, #52]
 1878 05c6 0133     		adds	r3, r3, #1
 1879 05c8 0D93     		str	r3, [sp, #52]
 863:lvgl\src\lv_misc/lv_printf.c ****                 format++;
 1880              		.loc 1 863 0
 1881 05ca 2C46     		mov	r4, r5
 1882              	.LVL251:
 1883              	.L64:
 577:lvgl\src\lv_misc/lv_printf.c ****         // format specifier?  %[flags][width][.precision][length]
 1884              		.loc 1 577 0
 1885 05cc 0D9B     		ldr	r3, [sp, #52]
 1886 05ce 1878     		ldrb	r0, [r3]	@ zero_extendqisi2
 1887 05d0 0028     		cmp	r0, #0
 1888 05d2 7FF420AD 		bne	.L133
 865:lvgl\src\lv_misc/lv_printf.c ****                 break;
 866:lvgl\src\lv_misc/lv_printf.c ****         }
 867:lvgl\src\lv_misc/lv_printf.c ****     }
 868:lvgl\src\lv_misc/lv_printf.c **** 
 869:lvgl\src\lv_misc/lv_printf.c ****     // termination
 870:lvgl\src\lv_misc/lv_printf.c ****     out((char)0, buffer, idx < maxlen ? idx : maxlen - 1U, maxlen);
 1889              		.loc 1 870 0
 1890 05d6 0A9A     		ldr	r2, [sp, #40]
 1891 05d8 9442     		cmp	r4, r2
 1892 05da 01D3     		bcc	.L149
 1893              		.loc 1 870 0 is_stmt 0 discriminator 1
 1894 05dc 013A     		subs	r2, r2, #1
 1895 05de 00E0     		b	.L134
 1896              	.L149:
 1897              		.loc 1 870 0
 1898 05e0 2246     		mov	r2, r4
 1899              	.L134:
 1900              		.loc 1 870 0 discriminator 4
 1901 05e2 0A9B     		ldr	r3, [sp, #40]
 1902 05e4 0B99     		ldr	r1, [sp, #44]
 1903 05e6 0020     		movs	r0, #0
 1904 05e8 B047     		blx	r6
 1905              	.LVL252:
 871:lvgl\src\lv_misc/lv_printf.c **** 
 872:lvgl\src\lv_misc/lv_printf.c ****     // return written chars without terminating \0
 873:lvgl\src\lv_misc/lv_printf.c ****     return (int)idx;
 874:lvgl\src\lv_misc/lv_printf.c **** }
 1906              		.loc 1 874 0 is_stmt 1 discriminator 4
 1907 05ea 2046     		mov	r0, r4
 1908 05ec 0FB0     		add	sp, sp, #60
 1909              		.cfi_def_cfa_offset 36
ARM GAS  C:\Users\strap\AppData\Local\Temp\ccV4k2oP.s 			page 53


 1910              		@ sp needed
 1911 05ee BDE8F08F 		pop	{r4, r5, r6, r7, r8, r9, r10, fp, pc}
 1912              		.cfi_endproc
 1913              	.LFE9:
 1914              		.size	_vsnprintf, .-_vsnprintf
 1915 05f2 00BF     		.section	.text.lv_snprintf,"ax",%progbits
 1916              		.align	2
 1917              		.global	lv_snprintf
 1918              		.thumb
 1919              		.thumb_func
 1920              		.type	lv_snprintf, %function
 1921              	lv_snprintf:
 1922              	.LFB10:
 875:lvgl\src\lv_misc/lv_printf.c **** 
 876:lvgl\src\lv_misc/lv_printf.c **** 
 877:lvgl\src\lv_misc/lv_printf.c **** ///////////////////////////////////////////////////////////////////////////////
 878:lvgl\src\lv_misc/lv_printf.c **** 
 879:lvgl\src\lv_misc/lv_printf.c **** int lv_snprintf(char * buffer, size_t count, const char * format, ...)
 880:lvgl\src\lv_misc/lv_printf.c **** {
 1923              		.loc 1 880 0
 1924              		.cfi_startproc
 1925              		@ args = 4, pretend = 8, frame = 8
 1926              		@ frame_needed = 0, uses_anonymous_args = 1
 1927              	.LVL253:
 1928 0000 0CB4     		push	{r2, r3}
 1929              		.cfi_def_cfa_offset 8
 1930              		.cfi_offset 2, -8
 1931              		.cfi_offset 3, -4
 1932 0002 00B5     		push	{lr}
 1933              		.cfi_def_cfa_offset 12
 1934              		.cfi_offset 14, -12
 1935 0004 85B0     		sub	sp, sp, #20
 1936              		.cfi_def_cfa_offset 32
 1937 0006 06AA     		add	r2, sp, #24
 1938 0008 52F8043B 		ldr	r3, [r2], #4
 881:lvgl\src\lv_misc/lv_printf.c ****     va_list va;
 882:lvgl\src\lv_misc/lv_printf.c ****     va_start(va, format);
 1939              		.loc 1 882 0
 1940 000c 0392     		str	r2, [sp, #12]
 883:lvgl\src\lv_misc/lv_printf.c ****     const int ret = _vsnprintf(_out_buffer, buffer, count, format, va);
 1941              		.loc 1 883 0
 1942 000e 0092     		str	r2, [sp]
 1943 0010 0A46     		mov	r2, r1
 1944 0012 0146     		mov	r1, r0
 1945              	.LVL254:
 1946 0014 0348     		ldr	r0, .L158
 1947              	.LVL255:
 1948 0016 FFF7FEFF 		bl	_vsnprintf
 1949              	.LVL256:
 884:lvgl\src\lv_misc/lv_printf.c ****     va_end(va);
 885:lvgl\src\lv_misc/lv_printf.c ****     return ret;
 886:lvgl\src\lv_misc/lv_printf.c **** }
 1950              		.loc 1 886 0
 1951 001a 05B0     		add	sp, sp, #20
 1952              		.cfi_def_cfa_offset 12
 1953              		@ sp needed
 1954 001c 5DF804EB 		ldr	lr, [sp], #4
ARM GAS  C:\Users\strap\AppData\Local\Temp\ccV4k2oP.s 			page 54


 1955              		.cfi_restore 14
 1956              		.cfi_def_cfa_offset 8
 1957 0020 02B0     		add	sp, sp, #8
 1958              		.cfi_restore 3
 1959              		.cfi_restore 2
 1960              		.cfi_def_cfa_offset 0
 1961 0022 7047     		bx	lr
 1962              	.L159:
 1963              		.align	2
 1964              	.L158:
 1965 0024 00000000 		.word	_out_buffer
 1966              		.cfi_endproc
 1967              	.LFE10:
 1968              		.size	lv_snprintf, .-lv_snprintf
 1969              		.section	.text.lv_vsnprintf,"ax",%progbits
 1970              		.align	2
 1971              		.global	lv_vsnprintf
 1972              		.thumb
 1973              		.thumb_func
 1974              		.type	lv_vsnprintf, %function
 1975              	lv_vsnprintf:
 1976              	.LFB11:
 887:lvgl\src\lv_misc/lv_printf.c **** 
 888:lvgl\src\lv_misc/lv_printf.c **** int lv_vsnprintf(char * buffer, size_t count, const char * format, va_list va)
 889:lvgl\src\lv_misc/lv_printf.c **** {
 1977              		.loc 1 889 0
 1978              		.cfi_startproc
 1979              		@ args = 0, pretend = 0, frame = 0
 1980              		@ frame_needed = 0, uses_anonymous_args = 0
 1981              	.LVL257:
 1982 0000 00B5     		push	{lr}
 1983              		.cfi_def_cfa_offset 4
 1984              		.cfi_offset 14, -4
 1985 0002 83B0     		sub	sp, sp, #12
 1986              		.cfi_def_cfa_offset 16
 890:lvgl\src\lv_misc/lv_printf.c ****     return _vsnprintf(_out_buffer, buffer, count, format, va);
 1987              		.loc 1 890 0
 1988 0004 0093     		str	r3, [sp]
 1989 0006 1346     		mov	r3, r2
 1990              	.LVL258:
 1991 0008 0A46     		mov	r2, r1
 1992              	.LVL259:
 1993 000a 0146     		mov	r1, r0
 1994              	.LVL260:
 1995 000c 0248     		ldr	r0, .L162
 1996              	.LVL261:
 1997 000e FFF7FEFF 		bl	_vsnprintf
 1998              	.LVL262:
 891:lvgl\src\lv_misc/lv_printf.c **** }
 1999              		.loc 1 891 0
 2000 0012 03B0     		add	sp, sp, #12
 2001              		.cfi_def_cfa_offset 4
 2002              		@ sp needed
 2003 0014 5DF804FB 		ldr	pc, [sp], #4
 2004              	.L163:
 2005              		.align	2
 2006              	.L162:
ARM GAS  C:\Users\strap\AppData\Local\Temp\ccV4k2oP.s 			page 55


 2007 0018 00000000 		.word	_out_buffer
 2008              		.cfi_endproc
 2009              	.LFE11:
 2010              		.size	lv_vsnprintf, .-lv_vsnprintf
 2011              		.text
 2012              	.Letext0:
 2013              		.file 2 "c:\\program files (x86)\\cypress\\psoc creator\\4.4\\psoc creator\\import\\gnu\\arm\\5.4.
 2014              		.file 3 "c:\\program files (x86)\\cypress\\psoc creator\\4.4\\psoc creator\\import\\gnu\\arm\\5.4.
 2015              		.file 4 "c:\\program files (x86)\\cypress\\psoc creator\\4.4\\psoc creator\\import\\gnu\\arm\\5.4.
 2016              		.file 5 "c:\\program files (x86)\\cypress\\psoc creator\\4.4\\psoc creator\\import\\gnu\\arm\\5.4.
 2017              		.file 6 "<built-in>"