ARM GAS  C:\Users\strap\AppData\Local\Temp\cc7bAV43.s 			page 1


   1              		.syntax unified
   2              		.cpu cortex-m3
   3              		.fpu softvfp
   4              		.eabi_attribute 20, 1
   5              		.eabi_attribute 21, 1
   6              		.eabi_attribute 23, 3
   7              		.eabi_attribute 24, 1
   8              		.eabi_attribute 25, 1
   9              		.eabi_attribute 26, 1
  10              		.eabi_attribute 30, 1
  11              		.eabi_attribute 34, 1
  12              		.eabi_attribute 18, 4
  13              		.thumb
  14              		.syntax unified
  15              		.file	"lv_style.c"
  16              		.text
  17              	.Ltext0:
  18              		.cfi_sections	.debug_frame
  19              		.section	.text.lv_style_init,"ax",%progbits
  20              		.align	2
  21              		.global	lv_style_init
  22              		.thumb
  23              		.thumb_func
  24              		.type	lv_style_init, %function
  25              	lv_style_init:
  26              	.LFB328:
  27              		.file 1 "lvgl\\src\\lv_core\\lv_style.c"
   1:lvgl\src\lv_core/lv_style.c **** /**
   2:lvgl\src\lv_core/lv_style.c ****  * @file lv_style.c
   3:lvgl\src\lv_core/lv_style.c ****  *
   4:lvgl\src\lv_core/lv_style.c ****  */
   5:lvgl\src\lv_core/lv_style.c **** 
   6:lvgl\src\lv_core/lv_style.c **** /*********************
   7:lvgl\src\lv_core/lv_style.c ****  *      INCLUDES
   8:lvgl\src\lv_core/lv_style.c ****  *********************/
   9:lvgl\src\lv_core/lv_style.c **** #include "lv_obj.h"
  10:lvgl\src\lv_core/lv_style.c **** #include "../lv_misc/lv_mem.h"
  11:lvgl\src\lv_core/lv_style.c **** #include "../lv_misc/lv_anim.h"
  12:lvgl\src\lv_core/lv_style.c **** 
  13:lvgl\src\lv_core/lv_style.c **** /*********************
  14:lvgl\src\lv_core/lv_style.c ****  *      DEFINES
  15:lvgl\src\lv_core/lv_style.c ****  *********************/
  16:lvgl\src\lv_core/lv_style.c **** #define STYLE_MIX_MAX 256
  17:lvgl\src\lv_core/lv_style.c **** #define STYLE_MIX_SHIFT 8 /*log2(STYLE_MIX_MAX)*/
  18:lvgl\src\lv_core/lv_style.c **** 
  19:lvgl\src\lv_core/lv_style.c **** #define VAL_PROP(v1, v2, r) v1 + (((v2 - v1) * r) >> STYLE_MIX_SHIFT)
  20:lvgl\src\lv_core/lv_style.c **** #define STYLE_ATTR_MIX(attr, r)                                                                    
  21:lvgl\src\lv_core/lv_style.c ****     if(start->attr != end->attr) {                                                                 
  22:lvgl\src\lv_core/lv_style.c ****         res->attr = VAL_PROP(start->attr, end->attr, r);                                           
  23:lvgl\src\lv_core/lv_style.c ****     } else {                                                                                       
  24:lvgl\src\lv_core/lv_style.c ****         res->attr = start->attr;                                                                   
  25:lvgl\src\lv_core/lv_style.c ****     }
  26:lvgl\src\lv_core/lv_style.c **** 
  27:lvgl\src\lv_core/lv_style.c **** #define LV_STYLE_PROP_TO_ID(prop) (prop & 0xFF);
  28:lvgl\src\lv_core/lv_style.c **** #define LV_STYLE_PROP_GET_TYPE(prop) ((prop >> 8) & 0xFF);
  29:lvgl\src\lv_core/lv_style.c **** 
  30:lvgl\src\lv_core/lv_style.c **** /**********************
ARM GAS  C:\Users\strap\AppData\Local\Temp\cc7bAV43.s 			page 2


  31:lvgl\src\lv_core/lv_style.c ****  *      TYPEDEFS
  32:lvgl\src\lv_core/lv_style.c ****  **********************/
  33:lvgl\src\lv_core/lv_style.c **** 
  34:lvgl\src\lv_core/lv_style.c **** /**********************
  35:lvgl\src\lv_core/lv_style.c ****  *  STATIC PROTOTYPES
  36:lvgl\src\lv_core/lv_style.c ****  **********************/
  37:lvgl\src\lv_core/lv_style.c **** LV_ATTRIBUTE_FAST_MEM static inline int32_t get_property_index(const lv_style_t * style, lv_style_p
  38:lvgl\src\lv_core/lv_style.c **** static lv_style_t * get_alloc_local_style(lv_style_list_t * list);
  39:lvgl\src\lv_core/lv_style.c **** static inline void style_resize(lv_style_t * style, size_t sz);
  40:lvgl\src\lv_core/lv_style.c **** static inline lv_style_property_t get_style_prop(const lv_style_t * style, size_t idx);
  41:lvgl\src\lv_core/lv_style.c **** static inline uint8_t get_style_prop_id(const lv_style_t * style, size_t idx);
  42:lvgl\src\lv_core/lv_style.c **** static inline uint8_t get_style_prop_attr(const lv_style_t * style, size_t idx);
  43:lvgl\src\lv_core/lv_style.c **** static inline size_t get_prop_size(uint8_t prop_id);
  44:lvgl\src\lv_core/lv_style.c **** static inline size_t get_next_prop_index(uint8_t prop_id, size_t id);
  45:lvgl\src\lv_core/lv_style.c **** 
  46:lvgl\src\lv_core/lv_style.c **** /**********************
  47:lvgl\src\lv_core/lv_style.c ****  *  GLOABAL VARIABLES
  48:lvgl\src\lv_core/lv_style.c ****  **********************/
  49:lvgl\src\lv_core/lv_style.c **** 
  50:lvgl\src\lv_core/lv_style.c **** /**********************
  51:lvgl\src\lv_core/lv_style.c ****  *  STATIC VARIABLES
  52:lvgl\src\lv_core/lv_style.c ****  **********************/
  53:lvgl\src\lv_core/lv_style.c **** 
  54:lvgl\src\lv_core/lv_style.c **** /**********************
  55:lvgl\src\lv_core/lv_style.c ****  *      MACROS
  56:lvgl\src\lv_core/lv_style.c ****  **********************/
  57:lvgl\src\lv_core/lv_style.c **** 
  58:lvgl\src\lv_core/lv_style.c **** /**********************
  59:lvgl\src\lv_core/lv_style.c ****  *   GLOBAL FUNCTIONS
  60:lvgl\src\lv_core/lv_style.c ****  **********************/
  61:lvgl\src\lv_core/lv_style.c **** 
  62:lvgl\src\lv_core/lv_style.c **** /**
  63:lvgl\src\lv_core/lv_style.c ****  * Initialize a style
  64:lvgl\src\lv_core/lv_style.c ****  * @param style pointer to a style to initialize
  65:lvgl\src\lv_core/lv_style.c ****  */
  66:lvgl\src\lv_core/lv_style.c **** void lv_style_init(lv_style_t * style)
  67:lvgl\src\lv_core/lv_style.c **** {
  28              		.loc 1 67 0
  29              		.cfi_startproc
  30              		@ args = 0, pretend = 0, frame = 0
  31              		@ frame_needed = 0, uses_anonymous_args = 0
  32              	.LVL0:
  33 0000 08B5     		push	{r3, lr}
  34              		.cfi_def_cfa_offset 8
  35              		.cfi_offset 3, -8
  36              		.cfi_offset 14, -4
  68:lvgl\src\lv_core/lv_style.c ****     _lv_memset_00(style, sizeof(lv_style_t));
  37              		.loc 1 68 0
  38 0002 0421     		movs	r1, #4
  39 0004 FFF7FEFF 		bl	_lv_memset_00
  40              	.LVL1:
  41 0008 08BD     		pop	{r3, pc}
  42              		.cfi_endproc
  43              	.LFE328:
  44              		.size	lv_style_init, .-lv_style_init
  45 000a 00BF     		.section	.text.lv_style_list_init,"ax",%progbits
  46              		.align	2
ARM GAS  C:\Users\strap\AppData\Local\Temp\cc7bAV43.s 			page 3


  47              		.global	lv_style_list_init
  48              		.thumb
  49              		.thumb_func
  50              		.type	lv_style_list_init, %function
  51              	lv_style_list_init:
  52              	.LFB331:
  69:lvgl\src\lv_core/lv_style.c **** #if LV_USE_ASSERT_STYLE
  70:lvgl\src\lv_core/lv_style.c ****     style->sentinel = LV_DEBUG_STYLE_SENTINEL_VALUE;
  71:lvgl\src\lv_core/lv_style.c **** #endif
  72:lvgl\src\lv_core/lv_style.c **** }
  73:lvgl\src\lv_core/lv_style.c **** 
  74:lvgl\src\lv_core/lv_style.c **** /**
  75:lvgl\src\lv_core/lv_style.c ****  * Copy a style with all its properties
  76:lvgl\src\lv_core/lv_style.c ****  * @param style_dest pointer to the destination style. (Should be initialized with `lv_style_init()
  77:lvgl\src\lv_core/lv_style.c ****  * @param style_src pointer to the source (to copy )style
  78:lvgl\src\lv_core/lv_style.c ****  */
  79:lvgl\src\lv_core/lv_style.c **** void lv_style_copy(lv_style_t * style_dest, const lv_style_t * style_src)
  80:lvgl\src\lv_core/lv_style.c **** {
  81:lvgl\src\lv_core/lv_style.c ****     if(style_src == NULL) return;
  82:lvgl\src\lv_core/lv_style.c **** 
  83:lvgl\src\lv_core/lv_style.c ****     LV_ASSERT_STYLE(style_dest);
  84:lvgl\src\lv_core/lv_style.c ****     LV_ASSERT_STYLE(style_src);
  85:lvgl\src\lv_core/lv_style.c **** 
  86:lvgl\src\lv_core/lv_style.c ****     if(style_src->map == NULL) return;
  87:lvgl\src\lv_core/lv_style.c **** 
  88:lvgl\src\lv_core/lv_style.c ****     uint16_t size = _lv_style_get_mem_size(style_src);
  89:lvgl\src\lv_core/lv_style.c ****     style_dest->map = lv_mem_alloc(size);
  90:lvgl\src\lv_core/lv_style.c ****     _lv_memcpy(style_dest->map, style_src->map, size);
  91:lvgl\src\lv_core/lv_style.c **** }
  92:lvgl\src\lv_core/lv_style.c **** 
  93:lvgl\src\lv_core/lv_style.c **** /**
  94:lvgl\src\lv_core/lv_style.c ****  * Remove a property from a style
  95:lvgl\src\lv_core/lv_style.c ****  * @param style pointer to a style
  96:lvgl\src\lv_core/lv_style.c ****  * @param prop  a style property ORed with a state.
  97:lvgl\src\lv_core/lv_style.c ****  * E.g. `LV_STYLE_BORDER_WIDTH | (LV_STATE_PRESSED << LV_STYLE_STATE_POS)`
  98:lvgl\src\lv_core/lv_style.c ****  * @return true: the property was found and removed; false: the property wasn't found
  99:lvgl\src\lv_core/lv_style.c ****  */
 100:lvgl\src\lv_core/lv_style.c **** bool lv_style_remove_prop(lv_style_t * style, lv_style_property_t prop)
 101:lvgl\src\lv_core/lv_style.c **** {
 102:lvgl\src\lv_core/lv_style.c ****     if(style == NULL) return false;
 103:lvgl\src\lv_core/lv_style.c ****     LV_ASSERT_STYLE(style);
 104:lvgl\src\lv_core/lv_style.c **** 
 105:lvgl\src\lv_core/lv_style.c ****     int32_t id = get_property_index(style, prop);
 106:lvgl\src\lv_core/lv_style.c ****     /*The property exists but not sure it's state is the same*/
 107:lvgl\src\lv_core/lv_style.c ****     if(id >= 0) {
 108:lvgl\src\lv_core/lv_style.c ****         lv_style_attr_t attr_found;
 109:lvgl\src\lv_core/lv_style.c ****         lv_style_attr_t attr_goal;
 110:lvgl\src\lv_core/lv_style.c **** 
 111:lvgl\src\lv_core/lv_style.c ****         attr_found = get_style_prop_attr(style, id);
 112:lvgl\src\lv_core/lv_style.c ****         attr_goal = (prop >> 8) & 0xFFU;
 113:lvgl\src\lv_core/lv_style.c **** 
 114:lvgl\src\lv_core/lv_style.c ****         if(LV_STYLE_ATTR_GET_STATE(attr_found) == LV_STYLE_ATTR_GET_STATE(attr_goal)) {
 115:lvgl\src\lv_core/lv_style.c ****             uint32_t map_size = _lv_style_get_mem_size(style);
 116:lvgl\src\lv_core/lv_style.c ****             uint8_t prop_size = get_prop_size(prop);
 117:lvgl\src\lv_core/lv_style.c **** 
 118:lvgl\src\lv_core/lv_style.c ****             /*Move the props to fill the space of the property to delete*/
 119:lvgl\src\lv_core/lv_style.c ****             uint32_t i;
ARM GAS  C:\Users\strap\AppData\Local\Temp\cc7bAV43.s 			page 4


 120:lvgl\src\lv_core/lv_style.c ****             for(i = id; i < map_size - prop_size; i++) {
 121:lvgl\src\lv_core/lv_style.c ****                 style->map[i] = style->map[i + prop_size];
 122:lvgl\src\lv_core/lv_style.c ****             }
 123:lvgl\src\lv_core/lv_style.c **** 
 124:lvgl\src\lv_core/lv_style.c ****             style_resize(style, map_size - prop_size);
 125:lvgl\src\lv_core/lv_style.c **** 
 126:lvgl\src\lv_core/lv_style.c ****             return true;
 127:lvgl\src\lv_core/lv_style.c ****         }
 128:lvgl\src\lv_core/lv_style.c ****     }
 129:lvgl\src\lv_core/lv_style.c **** 
 130:lvgl\src\lv_core/lv_style.c ****     return false;
 131:lvgl\src\lv_core/lv_style.c **** }
 132:lvgl\src\lv_core/lv_style.c **** 
 133:lvgl\src\lv_core/lv_style.c **** /**
 134:lvgl\src\lv_core/lv_style.c ****  * Initialize a style list
 135:lvgl\src\lv_core/lv_style.c ****  * @param list a style list to initialize
 136:lvgl\src\lv_core/lv_style.c ****  */
 137:lvgl\src\lv_core/lv_style.c **** void lv_style_list_init(lv_style_list_t * list)
 138:lvgl\src\lv_core/lv_style.c **** {
  53              		.loc 1 138 0
  54              		.cfi_startproc
  55              		@ args = 0, pretend = 0, frame = 0
  56              		@ frame_needed = 0, uses_anonymous_args = 0
  57              	.LVL2:
  58 0000 08B5     		push	{r3, lr}
  59              		.cfi_def_cfa_offset 8
  60              		.cfi_offset 3, -8
  61              		.cfi_offset 14, -4
 139:lvgl\src\lv_core/lv_style.c ****     _lv_memset_00(list, sizeof(lv_style_list_t));
  62              		.loc 1 139 0
  63 0002 0821     		movs	r1, #8
  64 0004 FFF7FEFF 		bl	_lv_memset_00
  65              	.LVL3:
  66 0008 08BD     		pop	{r3, pc}
  67              		.cfi_endproc
  68              	.LFE331:
  69              		.size	lv_style_list_init, .-lv_style_list_init
  70 000a 00BF     		.section	.text._lv_style_list_remove_style,"ax",%progbits
  71              		.align	2
  72              		.global	_lv_style_list_remove_style
  73              		.thumb
  74              		.thumb_func
  75              		.type	_lv_style_list_remove_style, %function
  76              	_lv_style_list_remove_style:
  77              	.LFB334:
 140:lvgl\src\lv_core/lv_style.c **** #if LV_USE_ASSERT_STYLE
 141:lvgl\src\lv_core/lv_style.c ****     list->sentinel = LV_DEBUG_STYLE_LIST_SENTINEL_VALUE;
 142:lvgl\src\lv_core/lv_style.c **** #endif
 143:lvgl\src\lv_core/lv_style.c **** }
 144:lvgl\src\lv_core/lv_style.c **** 
 145:lvgl\src\lv_core/lv_style.c **** /**
 146:lvgl\src\lv_core/lv_style.c ****  * Copy a style list with all its styles and local style properties
 147:lvgl\src\lv_core/lv_style.c ****  * @param list_dest pointer to the destination style list. (should be initialized with `lv_style_li
 148:lvgl\src\lv_core/lv_style.c ****  * @param list_src pointer to the source (to copy) style list.
 149:lvgl\src\lv_core/lv_style.c ****  */
 150:lvgl\src\lv_core/lv_style.c **** void lv_style_list_copy(lv_style_list_t * list_dest, const lv_style_list_t * list_src)
 151:lvgl\src\lv_core/lv_style.c **** {
ARM GAS  C:\Users\strap\AppData\Local\Temp\cc7bAV43.s 			page 5


 152:lvgl\src\lv_core/lv_style.c ****     LV_ASSERT_STYLE_LIST(list_dest);
 153:lvgl\src\lv_core/lv_style.c ****     LV_ASSERT_STYLE_LIST(list_src);
 154:lvgl\src\lv_core/lv_style.c **** 
 155:lvgl\src\lv_core/lv_style.c ****     _lv_style_list_reset(list_dest);
 156:lvgl\src\lv_core/lv_style.c **** 
 157:lvgl\src\lv_core/lv_style.c ****     if(list_src->style_list == NULL) return;
 158:lvgl\src\lv_core/lv_style.c **** 
 159:lvgl\src\lv_core/lv_style.c ****     /*Copy the styles but skip the transitions*/
 160:lvgl\src\lv_core/lv_style.c ****     if(list_src->has_local == 0) {
 161:lvgl\src\lv_core/lv_style.c ****         if(list_src->has_trans) {
 162:lvgl\src\lv_core/lv_style.c ****             list_dest->style_list = lv_mem_alloc((list_src->style_cnt - 1) * sizeof(lv_style_t *));
 163:lvgl\src\lv_core/lv_style.c ****             _lv_memcpy(list_dest->style_list, list_src->style_list + 1, (list_src->style_cnt - 1) *
 164:lvgl\src\lv_core/lv_style.c ****             list_dest->style_cnt = list_src->style_cnt - 1;
 165:lvgl\src\lv_core/lv_style.c ****         }
 166:lvgl\src\lv_core/lv_style.c ****         else {
 167:lvgl\src\lv_core/lv_style.c ****             list_dest->style_list = lv_mem_alloc(list_src->style_cnt * sizeof(lv_style_t *));
 168:lvgl\src\lv_core/lv_style.c ****             _lv_memcpy(list_dest->style_list, list_src->style_list, list_src->style_cnt * sizeof(lv
 169:lvgl\src\lv_core/lv_style.c ****             list_dest->style_cnt = list_src->style_cnt;
 170:lvgl\src\lv_core/lv_style.c ****         }
 171:lvgl\src\lv_core/lv_style.c ****     }
 172:lvgl\src\lv_core/lv_style.c ****     else {
 173:lvgl\src\lv_core/lv_style.c ****         if(list_src->has_trans) {
 174:lvgl\src\lv_core/lv_style.c ****             list_dest->style_list = lv_mem_alloc((list_src->style_cnt - 2) * sizeof(lv_style_t *));
 175:lvgl\src\lv_core/lv_style.c ****             _lv_memcpy(list_dest->style_list, list_src->style_list + 2, (list_src->style_cnt - 2) *
 176:lvgl\src\lv_core/lv_style.c ****             list_dest->style_cnt = list_src->style_cnt - 2;
 177:lvgl\src\lv_core/lv_style.c ****         }
 178:lvgl\src\lv_core/lv_style.c ****         else {
 179:lvgl\src\lv_core/lv_style.c ****             list_dest->style_list = lv_mem_alloc((list_src->style_cnt - 1) * sizeof(lv_style_t *));
 180:lvgl\src\lv_core/lv_style.c ****             _lv_memcpy(list_dest->style_list, list_src->style_list + 1, (list_src->style_cnt - 1) *
 181:lvgl\src\lv_core/lv_style.c ****             list_dest->style_cnt = list_src->style_cnt - 1;
 182:lvgl\src\lv_core/lv_style.c ****         }
 183:lvgl\src\lv_core/lv_style.c **** 
 184:lvgl\src\lv_core/lv_style.c ****         lv_style_t * local_style = get_alloc_local_style(list_dest);
 185:lvgl\src\lv_core/lv_style.c ****         lv_style_copy(local_style, get_alloc_local_style((lv_style_list_t *)list_src));
 186:lvgl\src\lv_core/lv_style.c ****     }
 187:lvgl\src\lv_core/lv_style.c **** }
 188:lvgl\src\lv_core/lv_style.c **** 
 189:lvgl\src\lv_core/lv_style.c **** /**
 190:lvgl\src\lv_core/lv_style.c ****  * Add a style to a style list.
 191:lvgl\src\lv_core/lv_style.c ****  * Only the the style pointer will be saved so the shouldn't be a local variable.
 192:lvgl\src\lv_core/lv_style.c ****  * (It should be static, global or dynamically allocated)
 193:lvgl\src\lv_core/lv_style.c ****  * @param list pointer to a style list
 194:lvgl\src\lv_core/lv_style.c ****  * @param style pointer to a style to add
 195:lvgl\src\lv_core/lv_style.c ****  */
 196:lvgl\src\lv_core/lv_style.c **** void _lv_style_list_add_style(lv_style_list_t * list, lv_style_t * style)
 197:lvgl\src\lv_core/lv_style.c **** {
 198:lvgl\src\lv_core/lv_style.c ****     LV_ASSERT_STYLE_LIST(list);
 199:lvgl\src\lv_core/lv_style.c ****     LV_ASSERT_STYLE(style);
 200:lvgl\src\lv_core/lv_style.c **** 
 201:lvgl\src\lv_core/lv_style.c ****     if(list == NULL) return;
 202:lvgl\src\lv_core/lv_style.c **** 
 203:lvgl\src\lv_core/lv_style.c ****     /*Remove the style first if already exists*/
 204:lvgl\src\lv_core/lv_style.c ****     _lv_style_list_remove_style(list, style);
 205:lvgl\src\lv_core/lv_style.c **** 
 206:lvgl\src\lv_core/lv_style.c ****     lv_style_t ** new_classes;
 207:lvgl\src\lv_core/lv_style.c ****     if(list->style_cnt == 0) new_classes = lv_mem_alloc(sizeof(lv_style_t *));
 208:lvgl\src\lv_core/lv_style.c ****     else new_classes = lv_mem_realloc(list->style_list, sizeof(lv_style_t *) * (list->style_cnt + 1
ARM GAS  C:\Users\strap\AppData\Local\Temp\cc7bAV43.s 			page 6


 209:lvgl\src\lv_core/lv_style.c ****     LV_ASSERT_MEM(new_classes);
 210:lvgl\src\lv_core/lv_style.c ****     if(new_classes == NULL) {
 211:lvgl\src\lv_core/lv_style.c ****         LV_LOG_WARN("lv_style_list_add_style: couldn't add the class");
 212:lvgl\src\lv_core/lv_style.c ****         return;
 213:lvgl\src\lv_core/lv_style.c ****     }
 214:lvgl\src\lv_core/lv_style.c **** 
 215:lvgl\src\lv_core/lv_style.c ****     /*Make space for the new style at the beginning. Leave local and trans style if exists*/
 216:lvgl\src\lv_core/lv_style.c ****     uint8_t i;
 217:lvgl\src\lv_core/lv_style.c ****     uint8_t first_style = 0;
 218:lvgl\src\lv_core/lv_style.c ****     if(list->has_trans) first_style++;
 219:lvgl\src\lv_core/lv_style.c ****     if(list->has_local) first_style++;
 220:lvgl\src\lv_core/lv_style.c ****     for(i = list->style_cnt; i > first_style; i--) {
 221:lvgl\src\lv_core/lv_style.c ****         new_classes[i] = new_classes[i - 1];
 222:lvgl\src\lv_core/lv_style.c ****     }
 223:lvgl\src\lv_core/lv_style.c **** 
 224:lvgl\src\lv_core/lv_style.c ****     new_classes[first_style] = style;
 225:lvgl\src\lv_core/lv_style.c ****     list->style_cnt++;
 226:lvgl\src\lv_core/lv_style.c ****     list->style_list = new_classes;
 227:lvgl\src\lv_core/lv_style.c **** }
 228:lvgl\src\lv_core/lv_style.c **** 
 229:lvgl\src\lv_core/lv_style.c **** /**
 230:lvgl\src\lv_core/lv_style.c ****  * Remove a style from a style list
 231:lvgl\src\lv_core/lv_style.c ****  * @param style_list pointer to a style list
 232:lvgl\src\lv_core/lv_style.c ****  * @param style pointer to a style to remove
 233:lvgl\src\lv_core/lv_style.c ****  */
 234:lvgl\src\lv_core/lv_style.c **** void _lv_style_list_remove_style(lv_style_list_t * list, lv_style_t * style)
 235:lvgl\src\lv_core/lv_style.c **** {
  78              		.loc 1 235 0
  79              		.cfi_startproc
  80              		@ args = 0, pretend = 0, frame = 0
  81              		@ frame_needed = 0, uses_anonymous_args = 0
  82              	.LVL4:
  83 0000 70B5     		push	{r4, r5, r6, lr}
  84              		.cfi_def_cfa_offset 16
  85              		.cfi_offset 4, -16
  86              		.cfi_offset 5, -12
  87              		.cfi_offset 6, -8
  88              		.cfi_offset 14, -4
 236:lvgl\src\lv_core/lv_style.c ****     LV_ASSERT_STYLE_LIST(list);
 237:lvgl\src\lv_core/lv_style.c ****     LV_ASSERT_STYLE(style);
 238:lvgl\src\lv_core/lv_style.c **** 
 239:lvgl\src\lv_core/lv_style.c ****     if(list->style_cnt == 0) return;
  89              		.loc 1 239 0
  90 0002 0379     		ldrb	r3, [r0, #4]	@ zero_extendqisi2
  91 0004 13F03F06 		ands	r6, r3, #63
  92 0008 4FD0     		beq	.L5
  93 000a 0023     		movs	r3, #0
  94 000c 06E0     		b	.L7
  95              	.LVL5:
  96              	.L9:
 240:lvgl\src\lv_core/lv_style.c **** 
 241:lvgl\src\lv_core/lv_style.c ****     /*Check if the style really exists here*/
 242:lvgl\src\lv_core/lv_style.c ****     uint8_t i;
 243:lvgl\src\lv_core/lv_style.c ****     bool found = false;
 244:lvgl\src\lv_core/lv_style.c ****     for(i = 0; i < list->style_cnt; i++) {
 245:lvgl\src\lv_core/lv_style.c ****         if(list->style_list[i] == style) {
  97              		.loc 1 245 0
ARM GAS  C:\Users\strap\AppData\Local\Temp\cc7bAV43.s 			page 7


  98 000e 0468     		ldr	r4, [r0]
  99 0010 54F82340 		ldr	r4, [r4, r3, lsl #2]
 100 0014 8C42     		cmp	r4, r1
 101 0016 08D0     		beq	.L16
 244:lvgl\src\lv_core/lv_style.c ****         if(list->style_list[i] == style) {
 102              		.loc 1 244 0 discriminator 2
 103 0018 0133     		adds	r3, r3, #1
 104              	.LVL6:
 105 001a DBB2     		uxtb	r3, r3
 106              	.LVL7:
 107              	.L7:
 244:lvgl\src\lv_core/lv_style.c ****         if(list->style_list[i] == style) {
 108              		.loc 1 244 0 is_stmt 0 discriminator 1
 109 001c 0279     		ldrb	r2, [r0, #4]	@ zero_extendqisi2
 110 001e 02F03F02 		and	r2, r2, #63
 111 0022 9342     		cmp	r3, r2
 112 0024 F3DB     		blt	.L9
 243:lvgl\src\lv_core/lv_style.c ****     for(i = 0; i < list->style_cnt; i++) {
 113              		.loc 1 243 0 is_stmt 1
 114 0026 0023     		movs	r3, #0
 115              	.LVL8:
 116 0028 00E0     		b	.L8
 117              	.LVL9:
 118              	.L16:
 246:lvgl\src\lv_core/lv_style.c ****             found = true;
 119              		.loc 1 246 0
 120 002a 0123     		movs	r3, #1
 121              	.LVL10:
 122              	.L8:
 247:lvgl\src\lv_core/lv_style.c ****             break;
 248:lvgl\src\lv_core/lv_style.c ****         }
 249:lvgl\src\lv_core/lv_style.c ****     }
 250:lvgl\src\lv_core/lv_style.c ****     if(found == false) return;
 123              		.loc 1 250 0
 124 002c 002B     		cmp	r3, #0
 125 002e 3CD0     		beq	.L5
 126 0030 0D46     		mov	r5, r1
 127 0032 0446     		mov	r4, r0
 251:lvgl\src\lv_core/lv_style.c **** 
 252:lvgl\src\lv_core/lv_style.c ****     if(list->style_cnt == 1) {
 128              		.loc 1 252 0
 129 0034 012E     		cmp	r6, #1
 130 0036 0BD1     		bne	.L10
 253:lvgl\src\lv_core/lv_style.c ****         lv_mem_free(list->style_list);
 131              		.loc 1 253 0
 132 0038 0068     		ldr	r0, [r0]
 133              	.LVL11:
 134 003a FFF7FEFF 		bl	lv_mem_free
 135              	.LVL12:
 254:lvgl\src\lv_core/lv_style.c ****         list->style_list = NULL;
 136              		.loc 1 254 0
 137 003e 0022     		movs	r2, #0
 138 0040 2260     		str	r2, [r4]
 255:lvgl\src\lv_core/lv_style.c ****         list->style_cnt = 0;
 139              		.loc 1 255 0
 140 0042 2379     		ldrb	r3, [r4, #4]	@ zero_extendqisi2
 256:lvgl\src\lv_core/lv_style.c ****         list->has_local = 0;
ARM GAS  C:\Users\strap\AppData\Local\Temp\cc7bAV43.s 			page 8


 141              		.loc 1 256 0
 142 0044 03F0C003 		and	r3, r3, #192
 143 0048 62F38613 		bfi	r3, r2, #6, #1
 144 004c 2371     		strb	r3, [r4, #4]
 257:lvgl\src\lv_core/lv_style.c ****         return;
 145              		.loc 1 257 0
 146 004e 70BD     		pop	{r4, r5, r6, pc}
 147              	.LVL13:
 148              	.L10:
 258:lvgl\src\lv_core/lv_style.c ****     }
 259:lvgl\src\lv_core/lv_style.c **** 
 260:lvgl\src\lv_core/lv_style.c ****     lv_style_t ** new_classes = lv_mem_alloc(sizeof(lv_style_t *) * (list->style_cnt - 1));
 149              		.loc 1 260 0
 150 0050 501E     		subs	r0, r2, #1
 151              	.LVL14:
 152 0052 8000     		lsls	r0, r0, #2
 153 0054 FFF7FEFF 		bl	lv_mem_alloc
 154              	.LVL15:
 155 0058 0646     		mov	r6, r0
 156              	.LVL16:
 261:lvgl\src\lv_core/lv_style.c ****     LV_ASSERT_MEM(new_classes);
 157              		.loc 1 261 0
 158 005a FFF7FEFF 		bl	lv_debug_check_null
 159              	.LVL17:
 160 005e 28B9     		cbnz	r0, .L11
 161              		.loc 1 261 0 is_stmt 0 discriminator 1
 162 0060 3246     		mov	r2, r6
 163 0062 0023     		movs	r3, #0
 164 0064 1148     		ldr	r0, .L18
 165 0066 FFF7FEFF 		bl	lv_debug_log_error
 166              	.LVL18:
 167              	.L12:
 168 006a FEE7     		b	.L12
 169              	.L11:
 262:lvgl\src\lv_core/lv_style.c ****     if(new_classes == NULL) {
 170              		.loc 1 262 0 is_stmt 1
 171 006c EEB1     		cbz	r6, .L5
 172 006e 0021     		movs	r1, #0
 173 0070 0B46     		mov	r3, r1
 174 0072 0AE0     		b	.L13
 175              	.LVL19:
 176              	.L15:
 263:lvgl\src\lv_core/lv_style.c ****         LV_LOG_WARN("lv_style_list_remove_style: couldn't reallocate class list");
 264:lvgl\src\lv_core/lv_style.c ****         return;
 265:lvgl\src\lv_core/lv_style.c ****     }
 266:lvgl\src\lv_core/lv_style.c ****     uint8_t j;
 267:lvgl\src\lv_core/lv_style.c ****     for(i = 0, j = 0; i < list->style_cnt; i++) {
 268:lvgl\src\lv_core/lv_style.c ****         if(list->style_list[i] == style) continue;
 177              		.loc 1 268 0
 178 0074 2268     		ldr	r2, [r4]
 179 0076 52F82320 		ldr	r2, [r2, r3, lsl #2]
 180 007a 9542     		cmp	r5, r2
 181 007c 03D0     		beq	.L14
 269:lvgl\src\lv_core/lv_style.c ****         new_classes[j] = list->style_list[i];
 182              		.loc 1 269 0
 183 007e 46F82120 		str	r2, [r6, r1, lsl #2]
 270:lvgl\src\lv_core/lv_style.c ****         j++;
ARM GAS  C:\Users\strap\AppData\Local\Temp\cc7bAV43.s 			page 9


 184              		.loc 1 270 0
 185 0082 0131     		adds	r1, r1, #1
 186              	.LVL20:
 187 0084 C9B2     		uxtb	r1, r1
 188              	.LVL21:
 189              	.L14:
 267:lvgl\src\lv_core/lv_style.c ****         if(list->style_list[i] == style) continue;
 190              		.loc 1 267 0 discriminator 2
 191 0086 0133     		adds	r3, r3, #1
 192              	.LVL22:
 193 0088 DBB2     		uxtb	r3, r3
 194              	.LVL23:
 195              	.L13:
 267:lvgl\src\lv_core/lv_style.c ****         if(list->style_list[i] == style) continue;
 196              		.loc 1 267 0 is_stmt 0 discriminator 1
 197 008a 2279     		ldrb	r2, [r4, #4]	@ zero_extendqisi2
 198 008c 02F03F02 		and	r2, r2, #63
 199 0090 9342     		cmp	r3, r2
 200 0092 EFDB     		blt	.L15
 271:lvgl\src\lv_core/lv_style.c **** 
 272:lvgl\src\lv_core/lv_style.c ****     }
 273:lvgl\src\lv_core/lv_style.c **** 
 274:lvgl\src\lv_core/lv_style.c ****     lv_mem_free(list->style_list);
 201              		.loc 1 274 0 is_stmt 1
 202 0094 2068     		ldr	r0, [r4]
 203 0096 FFF7FEFF 		bl	lv_mem_free
 204              	.LVL24:
 275:lvgl\src\lv_core/lv_style.c **** 
 276:lvgl\src\lv_core/lv_style.c ****     list->style_cnt--;
 205              		.loc 1 276 0
 206 009a 2379     		ldrb	r3, [r4, #4]	@ zero_extendqisi2
 207 009c 03F03F02 		and	r2, r3, #63
 208 00a0 3F32     		adds	r2, r2, #63
 209 00a2 62F30503 		bfi	r3, r2, #0, #6
 210 00a6 2371     		strb	r3, [r4, #4]
 277:lvgl\src\lv_core/lv_style.c ****     list->style_list = new_classes;
 211              		.loc 1 277 0
 212 00a8 2660     		str	r6, [r4]
 213              	.LVL25:
 214              	.L5:
 215 00aa 70BD     		pop	{r4, r5, r6, pc}
 216              	.L19:
 217              		.align	2
 218              	.L18:
 219 00ac 00000000 		.word	.LC0
 220              		.cfi_endproc
 221              	.LFE334:
 222              		.size	_lv_style_list_remove_style, .-_lv_style_list_remove_style
 223              		.section	.text._lv_style_list_add_style,"ax",%progbits
 224              		.align	2
 225              		.global	_lv_style_list_add_style
 226              		.thumb
 227              		.thumb_func
 228              		.type	_lv_style_list_add_style, %function
 229              	_lv_style_list_add_style:
 230              	.LFB333:
 197:lvgl\src\lv_core/lv_style.c ****     LV_ASSERT_STYLE_LIST(list);
ARM GAS  C:\Users\strap\AppData\Local\Temp\cc7bAV43.s 			page 10


 231              		.loc 1 197 0
 232              		.cfi_startproc
 233              		@ args = 0, pretend = 0, frame = 0
 234              		@ frame_needed = 0, uses_anonymous_args = 0
 235              	.LVL26:
 201:lvgl\src\lv_core/lv_style.c **** 
 236              		.loc 1 201 0
 237 0000 0028     		cmp	r0, #0
 238 0002 47D0     		beq	.L32
 197:lvgl\src\lv_core/lv_style.c ****     LV_ASSERT_STYLE_LIST(list);
 239              		.loc 1 197 0
 240 0004 70B5     		push	{r4, r5, r6, lr}
 241              		.cfi_def_cfa_offset 16
 242              		.cfi_offset 4, -16
 243              		.cfi_offset 5, -12
 244              		.cfi_offset 6, -8
 245              		.cfi_offset 14, -4
 246 0006 0446     		mov	r4, r0
 247 0008 0E46     		mov	r6, r1
 204:lvgl\src\lv_core/lv_style.c **** 
 248              		.loc 1 204 0
 249 000a FFF7FEFF 		bl	_lv_style_list_remove_style
 250              	.LVL27:
 207:lvgl\src\lv_core/lv_style.c ****     else new_classes = lv_mem_realloc(list->style_list, sizeof(lv_style_t *) * (list->style_cnt + 1
 251              		.loc 1 207 0
 252 000e 2379     		ldrb	r3, [r4, #4]	@ zero_extendqisi2
 253 0010 13F03F0F 		tst	r3, #63
 254 0014 04D1     		bne	.L22
 207:lvgl\src\lv_core/lv_style.c ****     else new_classes = lv_mem_realloc(list->style_list, sizeof(lv_style_t *) * (list->style_cnt + 1
 255              		.loc 1 207 0 is_stmt 0 discriminator 1
 256 0016 0420     		movs	r0, #4
 257 0018 FFF7FEFF 		bl	lv_mem_alloc
 258              	.LVL28:
 259 001c 0546     		mov	r5, r0
 260              	.LVL29:
 261 001e 08E0     		b	.L23
 262              	.LVL30:
 263              	.L22:
 208:lvgl\src\lv_core/lv_style.c ****     LV_ASSERT_MEM(new_classes);
 264              		.loc 1 208 0 is_stmt 1
 265 0020 2179     		ldrb	r1, [r4, #4]	@ zero_extendqisi2
 266 0022 01F03F01 		and	r1, r1, #63
 267 0026 0131     		adds	r1, r1, #1
 268 0028 8900     		lsls	r1, r1, #2
 269 002a 2068     		ldr	r0, [r4]
 270 002c FFF7FEFF 		bl	lv_mem_realloc
 271              	.LVL31:
 272 0030 0546     		mov	r5, r0
 273              	.LVL32:
 274              	.L23:
 209:lvgl\src\lv_core/lv_style.c ****     if(new_classes == NULL) {
 275              		.loc 1 209 0
 276 0032 2846     		mov	r0, r5
 277 0034 FFF7FEFF 		bl	lv_debug_check_null
 278              	.LVL33:
 279 0038 28B9     		cbnz	r0, .L24
 209:lvgl\src\lv_core/lv_style.c ****     if(new_classes == NULL) {
ARM GAS  C:\Users\strap\AppData\Local\Temp\cc7bAV43.s 			page 11


 280              		.loc 1 209 0 is_stmt 0 discriminator 1
 281 003a 2A46     		mov	r2, r5
 282 003c 0023     		movs	r3, #0
 283 003e 1648     		ldr	r0, .L33
 284 0040 FFF7FEFF 		bl	lv_debug_log_error
 285              	.LVL34:
 286              	.L25:
 287 0044 FEE7     		b	.L25
 288              	.L24:
 210:lvgl\src\lv_core/lv_style.c ****         LV_LOG_WARN("lv_style_list_add_style: couldn't add the class");
 289              		.loc 1 210 0 is_stmt 1
 290 0046 25B3     		cbz	r5, .L20
 291              	.LVL35:
 218:lvgl\src\lv_core/lv_style.c ****     if(list->has_local) first_style++;
 292              		.loc 1 218 0
 293 0048 2379     		ldrb	r3, [r4, #4]	@ zero_extendqisi2
 294 004a 13F0800F 		tst	r3, #128
 295 004e 01D1     		bne	.L30
 217:lvgl\src\lv_core/lv_style.c ****     if(list->has_trans) first_style++;
 296              		.loc 1 217 0
 297 0050 0022     		movs	r2, #0
 298 0052 00E0     		b	.L26
 299              	.L30:
 218:lvgl\src\lv_core/lv_style.c ****     if(list->has_local) first_style++;
 300              		.loc 1 218 0
 301 0054 0122     		movs	r2, #1
 302              	.L26:
 303              	.LVL36:
 219:lvgl\src\lv_core/lv_style.c ****     for(i = list->style_cnt; i > first_style; i--) {
 304              		.loc 1 219 0
 305 0056 13F0400F 		tst	r3, #64
 306 005a 01D0     		beq	.L27
 219:lvgl\src\lv_core/lv_style.c ****     for(i = list->style_cnt; i > first_style; i--) {
 307              		.loc 1 219 0 is_stmt 0 discriminator 1
 308 005c 0132     		adds	r2, r2, #1
 309              	.LVL37:
 310 005e D2B2     		uxtb	r2, r2
 311              	.LVL38:
 312              	.L27:
 220:lvgl\src\lv_core/lv_style.c ****         new_classes[i] = new_classes[i - 1];
 313              		.loc 1 220 0 is_stmt 1
 314 0060 2379     		ldrb	r3, [r4, #4]	@ zero_extendqisi2
 315 0062 03F03F03 		and	r3, r3, #63
 316              	.LVL39:
 317 0066 08E0     		b	.L28
 318              	.LVL40:
 319              	.L29:
 221:lvgl\src\lv_core/lv_style.c ****     }
 320              		.loc 1 221 0 discriminator 3
 321 0068 03F18041 		add	r1, r3, #1073741824
 322 006c 0139     		subs	r1, r1, #1
 323 006e 55F82110 		ldr	r1, [r5, r1, lsl #2]
 324 0072 45F82310 		str	r1, [r5, r3, lsl #2]
 220:lvgl\src\lv_core/lv_style.c ****         new_classes[i] = new_classes[i - 1];
 325              		.loc 1 220 0 discriminator 3
 326 0076 013B     		subs	r3, r3, #1
 327              	.LVL41:
ARM GAS  C:\Users\strap\AppData\Local\Temp\cc7bAV43.s 			page 12


 328 0078 DBB2     		uxtb	r3, r3
 329              	.LVL42:
 330              	.L28:
 220:lvgl\src\lv_core/lv_style.c ****         new_classes[i] = new_classes[i - 1];
 331              		.loc 1 220 0 is_stmt 0 discriminator 1
 332 007a 9342     		cmp	r3, r2
 333 007c F4D8     		bhi	.L29
 224:lvgl\src\lv_core/lv_style.c ****     list->style_cnt++;
 334              		.loc 1 224 0 is_stmt 1
 335 007e 45F82260 		str	r6, [r5, r2, lsl #2]
 225:lvgl\src\lv_core/lv_style.c ****     list->style_list = new_classes;
 336              		.loc 1 225 0
 337 0082 2379     		ldrb	r3, [r4, #4]	@ zero_extendqisi2
 338              	.LVL43:
 339 0084 03F03F02 		and	r2, r3, #63
 340              	.LVL44:
 341 0088 0132     		adds	r2, r2, #1
 342 008a 62F30503 		bfi	r3, r2, #0, #6
 343 008e 2371     		strb	r3, [r4, #4]
 226:lvgl\src\lv_core/lv_style.c **** }
 344              		.loc 1 226 0
 345 0090 2560     		str	r5, [r4]
 346              	.L20:
 347 0092 70BD     		pop	{r4, r5, r6, pc}
 348              	.LVL45:
 349              	.L32:
 350              		.cfi_def_cfa_offset 0
 351              		.cfi_restore 4
 352              		.cfi_restore 5
 353              		.cfi_restore 6
 354              		.cfi_restore 14
 355 0094 7047     		bx	lr
 356              	.L34:
 357 0096 00BF     		.align	2
 358              	.L33:
 359 0098 00000000 		.word	.LC0
 360              		.cfi_endproc
 361              	.LFE333:
 362              		.size	_lv_style_list_add_style, .-_lv_style_list_add_style
 363              		.section	.text.get_alloc_local_style,"ax",%progbits
 364              		.align	2
 365              		.thumb
 366              		.thumb_func
 367              		.type	get_alloc_local_style, %function
 368              	get_alloc_local_style:
 369              	.LFB360:
 278:lvgl\src\lv_core/lv_style.c **** }
 279:lvgl\src\lv_core/lv_style.c **** 
 280:lvgl\src\lv_core/lv_style.c **** /**
 281:lvgl\src\lv_core/lv_style.c ****  * Remove all styles added from style list, clear the local style, transition style and free all al
 282:lvgl\src\lv_core/lv_style.c ****  * Leave `ignore_trans` flag as it is.
 283:lvgl\src\lv_core/lv_style.c ****  * @param list pointer to a style list.
 284:lvgl\src\lv_core/lv_style.c ****  */
 285:lvgl\src\lv_core/lv_style.c **** void _lv_style_list_reset(lv_style_list_t * list)
 286:lvgl\src\lv_core/lv_style.c **** {
 287:lvgl\src\lv_core/lv_style.c ****     LV_ASSERT_STYLE_LIST(list);
 288:lvgl\src\lv_core/lv_style.c **** 
ARM GAS  C:\Users\strap\AppData\Local\Temp\cc7bAV43.s 			page 13


 289:lvgl\src\lv_core/lv_style.c ****     if(list == NULL) return;
 290:lvgl\src\lv_core/lv_style.c **** 
 291:lvgl\src\lv_core/lv_style.c ****     if(list->has_local) {
 292:lvgl\src\lv_core/lv_style.c ****         lv_style_t * local = lv_style_list_get_local_style(list);
 293:lvgl\src\lv_core/lv_style.c ****         if(local) {
 294:lvgl\src\lv_core/lv_style.c ****             lv_style_reset(local);
 295:lvgl\src\lv_core/lv_style.c ****             lv_mem_free(local);
 296:lvgl\src\lv_core/lv_style.c ****         }
 297:lvgl\src\lv_core/lv_style.c ****     }
 298:lvgl\src\lv_core/lv_style.c **** 
 299:lvgl\src\lv_core/lv_style.c ****     if(list->has_trans) {
 300:lvgl\src\lv_core/lv_style.c ****         lv_style_t * trans = _lv_style_list_get_transition_style(list);
 301:lvgl\src\lv_core/lv_style.c ****         if(trans) {
 302:lvgl\src\lv_core/lv_style.c ****             lv_style_reset(trans);
 303:lvgl\src\lv_core/lv_style.c ****             lv_mem_free(trans);
 304:lvgl\src\lv_core/lv_style.c ****         }
 305:lvgl\src\lv_core/lv_style.c ****     }
 306:lvgl\src\lv_core/lv_style.c **** 
 307:lvgl\src\lv_core/lv_style.c ****     if(list->style_cnt > 0) lv_mem_free(list->style_list);
 308:lvgl\src\lv_core/lv_style.c ****     list->style_list = NULL;
 309:lvgl\src\lv_core/lv_style.c ****     list->style_cnt = 0;
 310:lvgl\src\lv_core/lv_style.c ****     list->has_local = 0;
 311:lvgl\src\lv_core/lv_style.c ****     list->has_trans = 0;
 312:lvgl\src\lv_core/lv_style.c ****     list->skip_trans = 0;
 313:lvgl\src\lv_core/lv_style.c **** 
 314:lvgl\src\lv_core/lv_style.c ****     /* Intentionally leave `ignore_trans` as it is,
 315:lvgl\src\lv_core/lv_style.c ****      * because it's independent from the styles in the list*/
 316:lvgl\src\lv_core/lv_style.c **** }
 317:lvgl\src\lv_core/lv_style.c **** 
 318:lvgl\src\lv_core/lv_style.c **** /**
 319:lvgl\src\lv_core/lv_style.c ****  * Clear all properties from a style and all allocated memories.
 320:lvgl\src\lv_core/lv_style.c ****  * @param style pointer to a style
 321:lvgl\src\lv_core/lv_style.c ****  */
 322:lvgl\src\lv_core/lv_style.c **** void lv_style_reset(lv_style_t * style)
 323:lvgl\src\lv_core/lv_style.c **** {
 324:lvgl\src\lv_core/lv_style.c ****     LV_ASSERT_STYLE(style);
 325:lvgl\src\lv_core/lv_style.c **** 
 326:lvgl\src\lv_core/lv_style.c ****     lv_mem_free(style->map);
 327:lvgl\src\lv_core/lv_style.c ****     style->map = NULL;
 328:lvgl\src\lv_core/lv_style.c **** }
 329:lvgl\src\lv_core/lv_style.c **** 
 330:lvgl\src\lv_core/lv_style.c **** /**
 331:lvgl\src\lv_core/lv_style.c ****  * Get the size of the properties in a style in bytes
 332:lvgl\src\lv_core/lv_style.c ****  * @param style pointer to a style
 333:lvgl\src\lv_core/lv_style.c ****  * @return size of the properties in bytes
 334:lvgl\src\lv_core/lv_style.c ****  */
 335:lvgl\src\lv_core/lv_style.c **** uint16_t _lv_style_get_mem_size(const lv_style_t * style)
 336:lvgl\src\lv_core/lv_style.c **** {
 337:lvgl\src\lv_core/lv_style.c ****     LV_ASSERT_STYLE(style);
 338:lvgl\src\lv_core/lv_style.c **** 
 339:lvgl\src\lv_core/lv_style.c ****     if(style->map == NULL) return 0;
 340:lvgl\src\lv_core/lv_style.c **** 
 341:lvgl\src\lv_core/lv_style.c ****     size_t i = 0;
 342:lvgl\src\lv_core/lv_style.c ****     uint8_t prop_id;
 343:lvgl\src\lv_core/lv_style.c ****     while((prop_id = get_style_prop_id(style, i)) != _LV_STYLE_CLOSEING_PROP) {
 344:lvgl\src\lv_core/lv_style.c ****         i = get_next_prop_index(prop_id, i);
 345:lvgl\src\lv_core/lv_style.c ****     }
ARM GAS  C:\Users\strap\AppData\Local\Temp\cc7bAV43.s 			page 14


 346:lvgl\src\lv_core/lv_style.c **** 
 347:lvgl\src\lv_core/lv_style.c ****     return i + sizeof(lv_style_property_t);
 348:lvgl\src\lv_core/lv_style.c **** }
 349:lvgl\src\lv_core/lv_style.c **** 
 350:lvgl\src\lv_core/lv_style.c **** /**
 351:lvgl\src\lv_core/lv_style.c ****  * Set an integer typed property in a style.
 352:lvgl\src\lv_core/lv_style.c ****  * @param style pointer to a style where the property should be set
 353:lvgl\src\lv_core/lv_style.c ****  * @param prop a style property ORed with a state.
 354:lvgl\src\lv_core/lv_style.c ****  * E.g. `LV_STYLE_BORDER_WIDTH | (LV_STATE_PRESSED << LV_STYLE_STATE_POS)`
 355:lvgl\src\lv_core/lv_style.c ****  * @param value the value to set
 356:lvgl\src\lv_core/lv_style.c ****  * @note shouldn't be used directly. Use the specific property set functions instead.
 357:lvgl\src\lv_core/lv_style.c ****  *       For example: `lv_style_set_border_width()`
 358:lvgl\src\lv_core/lv_style.c ****  * @note for performance reasons it's not checked if the property really has integer type
 359:lvgl\src\lv_core/lv_style.c ****  */
 360:lvgl\src\lv_core/lv_style.c **** void _lv_style_set_int(lv_style_t * style, lv_style_property_t prop, lv_style_int_t value)
 361:lvgl\src\lv_core/lv_style.c **** {
 362:lvgl\src\lv_core/lv_style.c ****     LV_ASSERT_STYLE(style);
 363:lvgl\src\lv_core/lv_style.c **** 
 364:lvgl\src\lv_core/lv_style.c ****     int32_t id = get_property_index(style, prop);
 365:lvgl\src\lv_core/lv_style.c ****     /*The property already exists but not sure it's state is the same*/
 366:lvgl\src\lv_core/lv_style.c ****     if(id >= 0) {
 367:lvgl\src\lv_core/lv_style.c ****         lv_style_attr_t attr_found;
 368:lvgl\src\lv_core/lv_style.c ****         lv_style_attr_t attr_goal;
 369:lvgl\src\lv_core/lv_style.c **** 
 370:lvgl\src\lv_core/lv_style.c ****         attr_found = get_style_prop_attr(style, id);
 371:lvgl\src\lv_core/lv_style.c ****         attr_goal = (prop >> 8) & 0xFFU;
 372:lvgl\src\lv_core/lv_style.c **** 
 373:lvgl\src\lv_core/lv_style.c ****         if(LV_STYLE_ATTR_GET_STATE(attr_found) == LV_STYLE_ATTR_GET_STATE(attr_goal)) {
 374:lvgl\src\lv_core/lv_style.c ****             _lv_memcpy_small(style->map + id + sizeof(lv_style_property_t), &value, sizeof(lv_style
 375:lvgl\src\lv_core/lv_style.c ****             return;
 376:lvgl\src\lv_core/lv_style.c ****         }
 377:lvgl\src\lv_core/lv_style.c ****     }
 378:lvgl\src\lv_core/lv_style.c **** 
 379:lvgl\src\lv_core/lv_style.c ****     /*Add new property if not exists yet*/
 380:lvgl\src\lv_core/lv_style.c ****     uint8_t new_prop_size = (sizeof(lv_style_property_t) + sizeof(lv_style_int_t));
 381:lvgl\src\lv_core/lv_style.c ****     lv_style_property_t end_mark = _LV_STYLE_CLOSEING_PROP;
 382:lvgl\src\lv_core/lv_style.c ****     uint8_t end_mark_size = sizeof(end_mark);
 383:lvgl\src\lv_core/lv_style.c **** 
 384:lvgl\src\lv_core/lv_style.c ****     uint16_t size = _lv_style_get_mem_size(style);
 385:lvgl\src\lv_core/lv_style.c ****     if(size == 0) size += end_mark_size;
 386:lvgl\src\lv_core/lv_style.c ****     size += sizeof(lv_style_property_t) + sizeof(lv_style_int_t);
 387:lvgl\src\lv_core/lv_style.c ****     style_resize(style, size);
 388:lvgl\src\lv_core/lv_style.c ****     LV_ASSERT_MEM(style->map);
 389:lvgl\src\lv_core/lv_style.c ****     if(style == NULL) return;
 390:lvgl\src\lv_core/lv_style.c **** 
 391:lvgl\src\lv_core/lv_style.c ****     _lv_memcpy_small(style->map + size - new_prop_size - end_mark_size, &prop, sizeof(lv_style_prop
 392:lvgl\src\lv_core/lv_style.c ****     _lv_memcpy_small(style->map + size - sizeof(lv_style_int_t) - end_mark_size, &value, sizeof(lv_
 393:lvgl\src\lv_core/lv_style.c ****     _lv_memcpy_small(style->map + size - end_mark_size, &end_mark, sizeof(end_mark));
 394:lvgl\src\lv_core/lv_style.c **** }
 395:lvgl\src\lv_core/lv_style.c **** 
 396:lvgl\src\lv_core/lv_style.c **** /**
 397:lvgl\src\lv_core/lv_style.c ****  * Set a color typed property in a style.
 398:lvgl\src\lv_core/lv_style.c ****  * @param style pointer to a style where the property should be set
 399:lvgl\src\lv_core/lv_style.c ****  * @param prop a style property ORed with a state.
 400:lvgl\src\lv_core/lv_style.c ****  * E.g. `LV_STYLE_BORDER_COLOR | (LV_STATE_PRESSED << LV_STYLE_STATE_POS)`
 401:lvgl\src\lv_core/lv_style.c ****  * @param value the value to set
 402:lvgl\src\lv_core/lv_style.c ****  * @note shouldn't be used directly. Use the specific property set functions instead.
ARM GAS  C:\Users\strap\AppData\Local\Temp\cc7bAV43.s 			page 15


 403:lvgl\src\lv_core/lv_style.c ****  *       For example: `lv_style_set_border_color()`
 404:lvgl\src\lv_core/lv_style.c ****  * @note for performance reasons it's not checked if the property really has color type
 405:lvgl\src\lv_core/lv_style.c ****  */
 406:lvgl\src\lv_core/lv_style.c **** void _lv_style_set_color(lv_style_t * style, lv_style_property_t prop, lv_color_t color)
 407:lvgl\src\lv_core/lv_style.c **** {
 408:lvgl\src\lv_core/lv_style.c ****     LV_ASSERT_STYLE(style);
 409:lvgl\src\lv_core/lv_style.c **** 
 410:lvgl\src\lv_core/lv_style.c ****     int32_t id = get_property_index(style, prop);
 411:lvgl\src\lv_core/lv_style.c ****     /*The property already exists but not sure it's state is the same*/
 412:lvgl\src\lv_core/lv_style.c ****     if(id >= 0) {
 413:lvgl\src\lv_core/lv_style.c ****         lv_style_attr_t attr_found;
 414:lvgl\src\lv_core/lv_style.c ****         lv_style_attr_t attr_goal;
 415:lvgl\src\lv_core/lv_style.c **** 
 416:lvgl\src\lv_core/lv_style.c ****         attr_found = get_style_prop_attr(style, id);
 417:lvgl\src\lv_core/lv_style.c ****         attr_goal = (prop >> 8) & 0xFFU;
 418:lvgl\src\lv_core/lv_style.c **** 
 419:lvgl\src\lv_core/lv_style.c ****         if(LV_STYLE_ATTR_GET_STATE(attr_found) == LV_STYLE_ATTR_GET_STATE(attr_goal)) {
 420:lvgl\src\lv_core/lv_style.c ****             _lv_memcpy_small(style->map + id + sizeof(lv_style_property_t), &color, sizeof(lv_color
 421:lvgl\src\lv_core/lv_style.c ****             return;
 422:lvgl\src\lv_core/lv_style.c ****         }
 423:lvgl\src\lv_core/lv_style.c ****     }
 424:lvgl\src\lv_core/lv_style.c **** 
 425:lvgl\src\lv_core/lv_style.c ****     /*Add new property if not exists yet*/
 426:lvgl\src\lv_core/lv_style.c ****     uint8_t new_prop_size = (sizeof(lv_style_property_t) + sizeof(lv_color_t));
 427:lvgl\src\lv_core/lv_style.c ****     lv_style_property_t end_mark = _LV_STYLE_CLOSEING_PROP;
 428:lvgl\src\lv_core/lv_style.c ****     uint8_t end_mark_size = sizeof(end_mark);
 429:lvgl\src\lv_core/lv_style.c **** 
 430:lvgl\src\lv_core/lv_style.c ****     uint16_t size = _lv_style_get_mem_size(style);
 431:lvgl\src\lv_core/lv_style.c ****     if(size == 0) size += end_mark_size;
 432:lvgl\src\lv_core/lv_style.c **** 
 433:lvgl\src\lv_core/lv_style.c ****     size += sizeof(lv_style_property_t) + sizeof(lv_color_t);
 434:lvgl\src\lv_core/lv_style.c ****     style_resize(style, size);
 435:lvgl\src\lv_core/lv_style.c ****     LV_ASSERT_MEM(style->map);
 436:lvgl\src\lv_core/lv_style.c ****     if(style == NULL) return;
 437:lvgl\src\lv_core/lv_style.c **** 
 438:lvgl\src\lv_core/lv_style.c ****     _lv_memcpy_small(style->map + size - new_prop_size - end_mark_size, &prop, sizeof(lv_style_prop
 439:lvgl\src\lv_core/lv_style.c ****     _lv_memcpy_small(style->map + size - sizeof(lv_color_t) - end_mark_size, &color, sizeof(lv_colo
 440:lvgl\src\lv_core/lv_style.c ****     _lv_memcpy_small(style->map + size - end_mark_size, &end_mark, sizeof(end_mark));
 441:lvgl\src\lv_core/lv_style.c **** }
 442:lvgl\src\lv_core/lv_style.c **** 
 443:lvgl\src\lv_core/lv_style.c **** /**
 444:lvgl\src\lv_core/lv_style.c ****  * Set an opacity typed property in a style.
 445:lvgl\src\lv_core/lv_style.c ****  * @param style pointer to a style where the property should be set
 446:lvgl\src\lv_core/lv_style.c ****  * @param prop a style property ORed with a state.
 447:lvgl\src\lv_core/lv_style.c ****  * E.g. `LV_STYLE_BORDER_OPA | (LV_STATE_PRESSED << LV_STYLE_STATE_POS)`
 448:lvgl\src\lv_core/lv_style.c ****  * @param value the value to set
 449:lvgl\src\lv_core/lv_style.c ****  * @note shouldn't be used directly. Use the specific property set functions instead.
 450:lvgl\src\lv_core/lv_style.c ****  *       For example: `lv_style_set_border_opa()`
 451:lvgl\src\lv_core/lv_style.c ****  * @note for performance reasons it's not checked if the property really has opacity type
 452:lvgl\src\lv_core/lv_style.c ****  */
 453:lvgl\src\lv_core/lv_style.c **** void _lv_style_set_opa(lv_style_t * style, lv_style_property_t prop, lv_opa_t opa)
 454:lvgl\src\lv_core/lv_style.c **** {
 455:lvgl\src\lv_core/lv_style.c ****     LV_ASSERT_STYLE(style);
 456:lvgl\src\lv_core/lv_style.c **** 
 457:lvgl\src\lv_core/lv_style.c ****     int32_t id = get_property_index(style, prop);
 458:lvgl\src\lv_core/lv_style.c ****     /*The property already exists but not sure it's state is the same*/
 459:lvgl\src\lv_core/lv_style.c ****     if(id >= 0) {
ARM GAS  C:\Users\strap\AppData\Local\Temp\cc7bAV43.s 			page 16


 460:lvgl\src\lv_core/lv_style.c ****         lv_style_attr_t attr_found;
 461:lvgl\src\lv_core/lv_style.c ****         lv_style_attr_t attr_goal;
 462:lvgl\src\lv_core/lv_style.c **** 
 463:lvgl\src\lv_core/lv_style.c ****         attr_found = get_style_prop_attr(style, id);
 464:lvgl\src\lv_core/lv_style.c ****         attr_goal = (prop >> 8) & 0xFFU;
 465:lvgl\src\lv_core/lv_style.c **** 
 466:lvgl\src\lv_core/lv_style.c ****         if(LV_STYLE_ATTR_GET_STATE(attr_found) == LV_STYLE_ATTR_GET_STATE(attr_goal)) {
 467:lvgl\src\lv_core/lv_style.c ****             _lv_memcpy_small(style->map + id + sizeof(lv_style_property_t), &opa, sizeof(lv_opa_t))
 468:lvgl\src\lv_core/lv_style.c ****             return;
 469:lvgl\src\lv_core/lv_style.c ****         }
 470:lvgl\src\lv_core/lv_style.c ****     }
 471:lvgl\src\lv_core/lv_style.c **** 
 472:lvgl\src\lv_core/lv_style.c ****     /*Add new property if not exists yet*/
 473:lvgl\src\lv_core/lv_style.c ****     uint8_t new_prop_size = (sizeof(lv_style_property_t) + sizeof(lv_opa_t));
 474:lvgl\src\lv_core/lv_style.c ****     lv_style_property_t end_mark = _LV_STYLE_CLOSEING_PROP;
 475:lvgl\src\lv_core/lv_style.c ****     uint8_t end_mark_size = sizeof(end_mark);
 476:lvgl\src\lv_core/lv_style.c **** 
 477:lvgl\src\lv_core/lv_style.c ****     uint16_t size = _lv_style_get_mem_size(style);
 478:lvgl\src\lv_core/lv_style.c ****     if(size == 0) size += end_mark_size;
 479:lvgl\src\lv_core/lv_style.c **** 
 480:lvgl\src\lv_core/lv_style.c ****     size += sizeof(lv_style_property_t) + sizeof(lv_opa_t);
 481:lvgl\src\lv_core/lv_style.c ****     style_resize(style, size);
 482:lvgl\src\lv_core/lv_style.c ****     LV_ASSERT_MEM(style->map);
 483:lvgl\src\lv_core/lv_style.c ****     if(style == NULL) return;
 484:lvgl\src\lv_core/lv_style.c **** 
 485:lvgl\src\lv_core/lv_style.c ****     _lv_memcpy_small(style->map + size - new_prop_size - end_mark_size, &prop, sizeof(lv_style_prop
 486:lvgl\src\lv_core/lv_style.c ****     _lv_memcpy_small(style->map + size - sizeof(lv_opa_t) - end_mark_size, &opa, sizeof(lv_opa_t));
 487:lvgl\src\lv_core/lv_style.c ****     _lv_memcpy_small(style->map + size - end_mark_size, &end_mark, sizeof(end_mark));
 488:lvgl\src\lv_core/lv_style.c **** }
 489:lvgl\src\lv_core/lv_style.c **** 
 490:lvgl\src\lv_core/lv_style.c **** /**
 491:lvgl\src\lv_core/lv_style.c ****  * Set a pointer typed property in a style.
 492:lvgl\src\lv_core/lv_style.c ****  * @param style pointer to a style where the property should be set
 493:lvgl\src\lv_core/lv_style.c ****  * @param prop a style property ORed with a state.
 494:lvgl\src\lv_core/lv_style.c ****  * E.g. `LV_STYLE_TEXT_POINTER | (LV_STATE_PRESSED << LV_STYLE_STATE_POS)`
 495:lvgl\src\lv_core/lv_style.c ****  * @param value the value to set
 496:lvgl\src\lv_core/lv_style.c ****  * @note shouldn't be used directly. Use the specific property set functions instead.
 497:lvgl\src\lv_core/lv_style.c ****  *       For example: `lv_style_set_border_width()`
 498:lvgl\src\lv_core/lv_style.c ****  * @note for performance reasons it's not checked if the property is really has pointer type
 499:lvgl\src\lv_core/lv_style.c ****  */
 500:lvgl\src\lv_core/lv_style.c **** void _lv_style_set_ptr(lv_style_t * style, lv_style_property_t prop, const void * p)
 501:lvgl\src\lv_core/lv_style.c **** {
 502:lvgl\src\lv_core/lv_style.c ****     LV_ASSERT_STYLE(style);
 503:lvgl\src\lv_core/lv_style.c **** 
 504:lvgl\src\lv_core/lv_style.c ****     int32_t id = get_property_index(style, prop);
 505:lvgl\src\lv_core/lv_style.c ****     /*The property already exists but not sure it's state is the same*/
 506:lvgl\src\lv_core/lv_style.c ****     if(id >= 0) {
 507:lvgl\src\lv_core/lv_style.c ****         lv_style_attr_t attr_found;
 508:lvgl\src\lv_core/lv_style.c ****         lv_style_attr_t attr_goal;
 509:lvgl\src\lv_core/lv_style.c **** 
 510:lvgl\src\lv_core/lv_style.c ****         attr_found = get_style_prop_attr(style, id);
 511:lvgl\src\lv_core/lv_style.c ****         attr_goal = (prop >> 8) & 0xFFU;
 512:lvgl\src\lv_core/lv_style.c **** 
 513:lvgl\src\lv_core/lv_style.c ****         if(LV_STYLE_ATTR_GET_STATE(attr_found) == LV_STYLE_ATTR_GET_STATE(attr_goal)) {
 514:lvgl\src\lv_core/lv_style.c ****             _lv_memcpy_small(style->map + id + sizeof(lv_style_property_t), &p, sizeof(const void *
 515:lvgl\src\lv_core/lv_style.c ****             return;
 516:lvgl\src\lv_core/lv_style.c ****         }
ARM GAS  C:\Users\strap\AppData\Local\Temp\cc7bAV43.s 			page 17


 517:lvgl\src\lv_core/lv_style.c ****     }
 518:lvgl\src\lv_core/lv_style.c **** 
 519:lvgl\src\lv_core/lv_style.c ****     /*Add new property if not exists yet*/
 520:lvgl\src\lv_core/lv_style.c ****     uint8_t new_prop_size = (sizeof(lv_style_property_t) + sizeof(const void *));
 521:lvgl\src\lv_core/lv_style.c ****     lv_style_property_t end_mark = _LV_STYLE_CLOSEING_PROP;
 522:lvgl\src\lv_core/lv_style.c ****     uint8_t end_mark_size = sizeof(end_mark);
 523:lvgl\src\lv_core/lv_style.c **** 
 524:lvgl\src\lv_core/lv_style.c ****     uint16_t size = _lv_style_get_mem_size(style);
 525:lvgl\src\lv_core/lv_style.c ****     if(size == 0) size += end_mark_size;
 526:lvgl\src\lv_core/lv_style.c **** 
 527:lvgl\src\lv_core/lv_style.c ****     size += sizeof(lv_style_property_t) + sizeof(const void *);
 528:lvgl\src\lv_core/lv_style.c ****     style_resize(style, size);
 529:lvgl\src\lv_core/lv_style.c ****     LV_ASSERT_MEM(style->map);
 530:lvgl\src\lv_core/lv_style.c ****     if(style == NULL) return;
 531:lvgl\src\lv_core/lv_style.c **** 
 532:lvgl\src\lv_core/lv_style.c ****     _lv_memcpy_small(style->map + size - new_prop_size - end_mark_size, &prop, sizeof(lv_style_prop
 533:lvgl\src\lv_core/lv_style.c ****     _lv_memcpy_small(style->map + size - sizeof(const void *) - end_mark_size, &p, sizeof(const voi
 534:lvgl\src\lv_core/lv_style.c ****     _lv_memcpy_small(style->map + size - end_mark_size, &end_mark, sizeof(end_mark));
 535:lvgl\src\lv_core/lv_style.c **** }
 536:lvgl\src\lv_core/lv_style.c **** 
 537:lvgl\src\lv_core/lv_style.c **** /**
 538:lvgl\src\lv_core/lv_style.c ****  * Get the a property from a style.
 539:lvgl\src\lv_core/lv_style.c ****  * Take into account the style state and return the property which matches the best.
 540:lvgl\src\lv_core/lv_style.c ****  * @param style pointer to a style where to search
 541:lvgl\src\lv_core/lv_style.c ****  * @param prop the property, might contain ORed style states too
 542:lvgl\src\lv_core/lv_style.c ****  * @param res buffer to store the result
 543:lvgl\src\lv_core/lv_style.c ****  * @return the weight of the found property (how well it fits to the style state).
 544:lvgl\src\lv_core/lv_style.c ****  *         Higher number is means better fit
 545:lvgl\src\lv_core/lv_style.c ****  *         -1 if the not found (`res` will be undefined)
 546:lvgl\src\lv_core/lv_style.c ****  */
 547:lvgl\src\lv_core/lv_style.c **** int16_t _lv_style_get_int(const lv_style_t * style, lv_style_property_t prop, void * v_res)
 548:lvgl\src\lv_core/lv_style.c **** {
 549:lvgl\src\lv_core/lv_style.c ****     lv_style_int_t * res = (lv_style_int_t *)v_res;
 550:lvgl\src\lv_core/lv_style.c ****     LV_ASSERT_STYLE(style);
 551:lvgl\src\lv_core/lv_style.c **** 
 552:lvgl\src\lv_core/lv_style.c ****     if(style == NULL) return -1;
 553:lvgl\src\lv_core/lv_style.c ****     if(style->map == NULL) return -1;
 554:lvgl\src\lv_core/lv_style.c **** 
 555:lvgl\src\lv_core/lv_style.c ****     int32_t id = get_property_index(style, prop);
 556:lvgl\src\lv_core/lv_style.c ****     if(id < 0) {
 557:lvgl\src\lv_core/lv_style.c ****         return -1;
 558:lvgl\src\lv_core/lv_style.c ****     }
 559:lvgl\src\lv_core/lv_style.c ****     else {
 560:lvgl\src\lv_core/lv_style.c ****         _lv_memcpy_small(res, &style->map[id + sizeof(lv_style_property_t)], sizeof(lv_style_int_t)
 561:lvgl\src\lv_core/lv_style.c ****         lv_style_attr_t attr_act;
 562:lvgl\src\lv_core/lv_style.c ****         attr_act = get_style_prop_attr(style, id);
 563:lvgl\src\lv_core/lv_style.c **** 
 564:lvgl\src\lv_core/lv_style.c ****         lv_style_attr_t attr_goal;
 565:lvgl\src\lv_core/lv_style.c ****         attr_goal = (prop >> 8) & 0xFF;
 566:lvgl\src\lv_core/lv_style.c **** 
 567:lvgl\src\lv_core/lv_style.c ****         return LV_STYLE_ATTR_GET_STATE(attr_act) & LV_STYLE_ATTR_GET_STATE(attr_goal);
 568:lvgl\src\lv_core/lv_style.c ****     }
 569:lvgl\src\lv_core/lv_style.c **** }
 570:lvgl\src\lv_core/lv_style.c **** 
 571:lvgl\src\lv_core/lv_style.c **** /**
 572:lvgl\src\lv_core/lv_style.c ****  * Get an opacity typed property from a style.
 573:lvgl\src\lv_core/lv_style.c ****  * @param style pointer to a style from where the property should be get
ARM GAS  C:\Users\strap\AppData\Local\Temp\cc7bAV43.s 			page 18


 574:lvgl\src\lv_core/lv_style.c ****  * @param prop a style property ORed with a state.
 575:lvgl\src\lv_core/lv_style.c ****  * E.g. `LV_STYLE_BORDER_OPA | (LV_STATE_PRESSED << LV_STYLE_STATE_POS)`
 576:lvgl\src\lv_core/lv_style.c ****  * @param res pointer to a buffer to store the result value
 577:lvgl\src\lv_core/lv_style.c ****  * @return -1: the property wasn't found in the style.
 578:lvgl\src\lv_core/lv_style.c ****  *         The matching state bits of the desired state (in `prop`) and the best matching property'
 579:lvgl\src\lv_core/lv_style.c ****  *         Higher value means match in higher precedence state.
 580:lvgl\src\lv_core/lv_style.c ****  * @note shouldn't be used directly. Use the specific property get functions instead.
 581:lvgl\src\lv_core/lv_style.c ****  *       For example: `lv_style_get_border_opa()`
 582:lvgl\src\lv_core/lv_style.c ****  * @note for performance reasons it's not checked if the property really has opacity type
 583:lvgl\src\lv_core/lv_style.c ****  */
 584:lvgl\src\lv_core/lv_style.c **** int16_t _lv_style_get_opa(const lv_style_t * style, lv_style_property_t prop, void * v_res)
 585:lvgl\src\lv_core/lv_style.c **** {
 586:lvgl\src\lv_core/lv_style.c ****     lv_opa_t * res = (lv_opa_t *)v_res;
 587:lvgl\src\lv_core/lv_style.c ****     LV_ASSERT_STYLE(style);
 588:lvgl\src\lv_core/lv_style.c **** 
 589:lvgl\src\lv_core/lv_style.c ****     if(style == NULL) return -1;
 590:lvgl\src\lv_core/lv_style.c ****     if(style->map == NULL) return -1;
 591:lvgl\src\lv_core/lv_style.c **** 
 592:lvgl\src\lv_core/lv_style.c ****     int32_t id = get_property_index(style, prop);
 593:lvgl\src\lv_core/lv_style.c ****     if(id < 0) {
 594:lvgl\src\lv_core/lv_style.c ****         return -1;
 595:lvgl\src\lv_core/lv_style.c ****     }
 596:lvgl\src\lv_core/lv_style.c ****     else {
 597:lvgl\src\lv_core/lv_style.c ****         _lv_memcpy_small(res, &style->map[id + sizeof(lv_style_property_t)], sizeof(lv_opa_t));
 598:lvgl\src\lv_core/lv_style.c ****         lv_style_attr_t attr_act;
 599:lvgl\src\lv_core/lv_style.c ****         attr_act = get_style_prop_attr(style, id);
 600:lvgl\src\lv_core/lv_style.c **** 
 601:lvgl\src\lv_core/lv_style.c ****         lv_style_attr_t attr_goal;
 602:lvgl\src\lv_core/lv_style.c ****         attr_goal = (prop >> 8) & 0xFF;
 603:lvgl\src\lv_core/lv_style.c **** 
 604:lvgl\src\lv_core/lv_style.c ****         return LV_STYLE_ATTR_GET_STATE(attr_act) & LV_STYLE_ATTR_GET_STATE(attr_goal);
 605:lvgl\src\lv_core/lv_style.c ****     }
 606:lvgl\src\lv_core/lv_style.c **** }
 607:lvgl\src\lv_core/lv_style.c **** 
 608:lvgl\src\lv_core/lv_style.c **** /**
 609:lvgl\src\lv_core/lv_style.c ****  * Get a color typed property from a style.
 610:lvgl\src\lv_core/lv_style.c ****  * @param style pointer to a style from where the property should be get
 611:lvgl\src\lv_core/lv_style.c ****  * @param prop a style property ORed with a state.
 612:lvgl\src\lv_core/lv_style.c ****  * E.g. `LV_STYLE_BORDER_COLOR | (LV_STATE_PRESSED << LV_STYLE_STATE_POS)`
 613:lvgl\src\lv_core/lv_style.c ****  * @param res pointer to a buffer to store the result value
 614:lvgl\src\lv_core/lv_style.c ****  * @return -1: the property wasn't found in the style.
 615:lvgl\src\lv_core/lv_style.c ****  *         The matching state bits of the desired state (in `prop`) and the best matching property'
 616:lvgl\src\lv_core/lv_style.c ****  *         Higher value means match in higher precedence state.
 617:lvgl\src\lv_core/lv_style.c ****  * @note shouldn't be used directly. Use the specific property get functions instead.
 618:lvgl\src\lv_core/lv_style.c ****  *       For example: `lv_style_get_border_color()`
 619:lvgl\src\lv_core/lv_style.c ****  * @note for performance reasons it's not checked if the property really has color type
 620:lvgl\src\lv_core/lv_style.c ****  */
 621:lvgl\src\lv_core/lv_style.c **** int16_t _lv_style_get_color(const lv_style_t * style, lv_style_property_t prop, void * v_res)
 622:lvgl\src\lv_core/lv_style.c **** {
 623:lvgl\src\lv_core/lv_style.c ****     lv_color_t * res = (lv_color_t *)v_res;
 624:lvgl\src\lv_core/lv_style.c ****     if(style == NULL) return -1;
 625:lvgl\src\lv_core/lv_style.c ****     if(style->map == NULL) return -1;
 626:lvgl\src\lv_core/lv_style.c ****     int32_t id = get_property_index(style, prop);
 627:lvgl\src\lv_core/lv_style.c ****     if(id < 0) {
 628:lvgl\src\lv_core/lv_style.c ****         return -1;
 629:lvgl\src\lv_core/lv_style.c ****     }
 630:lvgl\src\lv_core/lv_style.c ****     else {
ARM GAS  C:\Users\strap\AppData\Local\Temp\cc7bAV43.s 			page 19


 631:lvgl\src\lv_core/lv_style.c ****         _lv_memcpy_small(res, &style->map[id + sizeof(lv_style_property_t)], sizeof(lv_color_t));
 632:lvgl\src\lv_core/lv_style.c ****         lv_style_attr_t attr_act;
 633:lvgl\src\lv_core/lv_style.c ****         attr_act = get_style_prop_attr(style, id);
 634:lvgl\src\lv_core/lv_style.c **** 
 635:lvgl\src\lv_core/lv_style.c ****         lv_style_attr_t attr_goal;
 636:lvgl\src\lv_core/lv_style.c ****         attr_goal = (prop >> 8) & 0xFF;
 637:lvgl\src\lv_core/lv_style.c **** 
 638:lvgl\src\lv_core/lv_style.c ****         return LV_STYLE_ATTR_GET_STATE(attr_act) & LV_STYLE_ATTR_GET_STATE(attr_goal);
 639:lvgl\src\lv_core/lv_style.c ****     }
 640:lvgl\src\lv_core/lv_style.c **** }
 641:lvgl\src\lv_core/lv_style.c **** 
 642:lvgl\src\lv_core/lv_style.c **** /**
 643:lvgl\src\lv_core/lv_style.c ****  * Get a pointer typed property from a style.
 644:lvgl\src\lv_core/lv_style.c ****  * @param style pointer to a style from where the property should be get
 645:lvgl\src\lv_core/lv_style.c ****  * @param prop a style property ORed with a state.
 646:lvgl\src\lv_core/lv_style.c ****  * E.g. `LV_STYLE_TEXT_FONT | (LV_STATE_PRESSED << LV_STYLE_STATE_POS)`
 647:lvgl\src\lv_core/lv_style.c ****  * @param res pointer to a buffer to store the result value
 648:lvgl\src\lv_core/lv_style.c ****  * @return -1: the property wasn't found in the style.
 649:lvgl\src\lv_core/lv_style.c ****  *         The matching state bits of the desired state (in `prop`) and the best matching property'
 650:lvgl\src\lv_core/lv_style.c ****  *         Higher value means match in higher precedence state.
 651:lvgl\src\lv_core/lv_style.c ****  * @note shouldn't be used directly. Use the specific property get functions instead.
 652:lvgl\src\lv_core/lv_style.c ****  *       For example: `lv_style_get_text_font()`
 653:lvgl\src\lv_core/lv_style.c ****  * @note for performance reasons it's not checked if the property really has pointer type
 654:lvgl\src\lv_core/lv_style.c ****  */
 655:lvgl\src\lv_core/lv_style.c **** int16_t _lv_style_get_ptr(const lv_style_t * style, lv_style_property_t prop, void * v_res)
 656:lvgl\src\lv_core/lv_style.c **** {
 657:lvgl\src\lv_core/lv_style.c ****     const void ** res = (const void **)v_res;
 658:lvgl\src\lv_core/lv_style.c ****     if(style == NULL) return -1;
 659:lvgl\src\lv_core/lv_style.c ****     if(style->map == NULL) return -1;
 660:lvgl\src\lv_core/lv_style.c **** 
 661:lvgl\src\lv_core/lv_style.c ****     int32_t id = get_property_index(style, prop);
 662:lvgl\src\lv_core/lv_style.c ****     if(id < 0) {
 663:lvgl\src\lv_core/lv_style.c ****         return -1;
 664:lvgl\src\lv_core/lv_style.c ****     }
 665:lvgl\src\lv_core/lv_style.c ****     else {
 666:lvgl\src\lv_core/lv_style.c ****         _lv_memcpy_small(res, &style->map[id + sizeof(lv_style_property_t)], sizeof(const void *));
 667:lvgl\src\lv_core/lv_style.c ****         lv_style_attr_t attr_act;
 668:lvgl\src\lv_core/lv_style.c ****         attr_act = get_style_prop_attr(style, id);
 669:lvgl\src\lv_core/lv_style.c **** 
 670:lvgl\src\lv_core/lv_style.c ****         lv_style_attr_t attr_goal;
 671:lvgl\src\lv_core/lv_style.c ****         attr_goal = (prop >> 8) & 0xFF;
 672:lvgl\src\lv_core/lv_style.c **** 
 673:lvgl\src\lv_core/lv_style.c ****         return LV_STYLE_ATTR_GET_STATE(attr_act) & LV_STYLE_ATTR_GET_STATE(attr_goal);
 674:lvgl\src\lv_core/lv_style.c ****     }
 675:lvgl\src\lv_core/lv_style.c **** }
 676:lvgl\src\lv_core/lv_style.c **** 
 677:lvgl\src\lv_core/lv_style.c **** /**
 678:lvgl\src\lv_core/lv_style.c ****  * Get the local style of a style list
 679:lvgl\src\lv_core/lv_style.c ****  * @param list pointer to a style list where the local property should be set
 680:lvgl\src\lv_core/lv_style.c ****  * @return pointer to the local style if exists else `NULL`.
 681:lvgl\src\lv_core/lv_style.c ****  */
 682:lvgl\src\lv_core/lv_style.c **** lv_style_t * lv_style_list_get_local_style(lv_style_list_t * list)
 683:lvgl\src\lv_core/lv_style.c **** {
 684:lvgl\src\lv_core/lv_style.c ****     LV_ASSERT_STYLE_LIST(list);
 685:lvgl\src\lv_core/lv_style.c **** 
 686:lvgl\src\lv_core/lv_style.c ****     if(!list->has_local) return NULL;
 687:lvgl\src\lv_core/lv_style.c ****     if(list->has_trans) return list->style_list[1];
ARM GAS  C:\Users\strap\AppData\Local\Temp\cc7bAV43.s 			page 20


 688:lvgl\src\lv_core/lv_style.c ****     else return list->style_list[0];
 689:lvgl\src\lv_core/lv_style.c **** }
 690:lvgl\src\lv_core/lv_style.c **** 
 691:lvgl\src\lv_core/lv_style.c **** /**
 692:lvgl\src\lv_core/lv_style.c ****  * Get the transition style of a style list
 693:lvgl\src\lv_core/lv_style.c ****  * @param list pointer to a style list where the local property should be set
 694:lvgl\src\lv_core/lv_style.c ****  * @return pointer to the transition style if exists else `NULL`.
 695:lvgl\src\lv_core/lv_style.c ****  */
 696:lvgl\src\lv_core/lv_style.c **** lv_style_t * _lv_style_list_get_transition_style(lv_style_list_t * list)
 697:lvgl\src\lv_core/lv_style.c **** {
 698:lvgl\src\lv_core/lv_style.c ****     LV_ASSERT_STYLE_LIST(list);
 699:lvgl\src\lv_core/lv_style.c **** 
 700:lvgl\src\lv_core/lv_style.c ****     if(!list->has_trans) return NULL;
 701:lvgl\src\lv_core/lv_style.c ****     return list->style_list[0];
 702:lvgl\src\lv_core/lv_style.c **** }
 703:lvgl\src\lv_core/lv_style.c **** 
 704:lvgl\src\lv_core/lv_style.c **** /**
 705:lvgl\src\lv_core/lv_style.c ****  * Allocate the transition style in a style list. If already exists simply return it.
 706:lvgl\src\lv_core/lv_style.c ****  * @param list pointer to a style list
 707:lvgl\src\lv_core/lv_style.c ****  * @return the transition style of a style list
 708:lvgl\src\lv_core/lv_style.c ****  */
 709:lvgl\src\lv_core/lv_style.c **** lv_style_t * _lv_style_list_add_trans_style(lv_style_list_t * list)
 710:lvgl\src\lv_core/lv_style.c **** {
 711:lvgl\src\lv_core/lv_style.c ****     LV_ASSERT_STYLE_LIST(list);
 712:lvgl\src\lv_core/lv_style.c ****     if(list->has_trans) return _lv_style_list_get_transition_style(list);
 713:lvgl\src\lv_core/lv_style.c **** 
 714:lvgl\src\lv_core/lv_style.c ****     lv_style_t * trans_style = lv_mem_alloc(sizeof(lv_style_t));
 715:lvgl\src\lv_core/lv_style.c ****     LV_ASSERT_MEM(trans_style);
 716:lvgl\src\lv_core/lv_style.c ****     if(trans_style == NULL) {
 717:lvgl\src\lv_core/lv_style.c ****         LV_LOG_WARN("lv_style_list_add_trans_style: couldn't create transition style");
 718:lvgl\src\lv_core/lv_style.c ****         return NULL;
 719:lvgl\src\lv_core/lv_style.c ****     }
 720:lvgl\src\lv_core/lv_style.c **** 
 721:lvgl\src\lv_core/lv_style.c ****     lv_style_init(trans_style);
 722:lvgl\src\lv_core/lv_style.c **** 
 723:lvgl\src\lv_core/lv_style.c ****     _lv_style_list_add_style(list, trans_style);
 724:lvgl\src\lv_core/lv_style.c ****     list->has_trans = 1;
 725:lvgl\src\lv_core/lv_style.c **** 
 726:lvgl\src\lv_core/lv_style.c ****     /*If the list has local style trans was added after it. But trans should be the first so swap t
 727:lvgl\src\lv_core/lv_style.c ****     if(list->has_local) {
 728:lvgl\src\lv_core/lv_style.c ****         lv_style_t * tmp = list->style_list[0];
 729:lvgl\src\lv_core/lv_style.c ****         list->style_list[0] = list->style_list[1];
 730:lvgl\src\lv_core/lv_style.c ****         list->style_list[1] = tmp;
 731:lvgl\src\lv_core/lv_style.c ****     }
 732:lvgl\src\lv_core/lv_style.c ****     return trans_style;
 733:lvgl\src\lv_core/lv_style.c **** }
 734:lvgl\src\lv_core/lv_style.c **** 
 735:lvgl\src\lv_core/lv_style.c **** 
 736:lvgl\src\lv_core/lv_style.c **** /**
 737:lvgl\src\lv_core/lv_style.c ****  * Set a local integer typed property in a style list.
 738:lvgl\src\lv_core/lv_style.c ****  * @param list pointer to a style list where the local property should be set
 739:lvgl\src\lv_core/lv_style.c ****  * @param prop a style property ORed with a state.
 740:lvgl\src\lv_core/lv_style.c ****  * E.g. `LV_STYLE_BORDER_WIDTH | (LV_STATE_PRESSED << LV_STYLE_STATE_POS)`
 741:lvgl\src\lv_core/lv_style.c ****  * @param value the value to set
 742:lvgl\src\lv_core/lv_style.c ****  * @note for performance reasons it's not checked if the property really has integer type
 743:lvgl\src\lv_core/lv_style.c ****  */
 744:lvgl\src\lv_core/lv_style.c **** void _lv_style_list_set_local_int(lv_style_list_t * list, lv_style_property_t prop, lv_style_int_t 
ARM GAS  C:\Users\strap\AppData\Local\Temp\cc7bAV43.s 			page 21


 745:lvgl\src\lv_core/lv_style.c **** {
 746:lvgl\src\lv_core/lv_style.c ****     LV_ASSERT_STYLE_LIST(list);
 747:lvgl\src\lv_core/lv_style.c **** 
 748:lvgl\src\lv_core/lv_style.c ****     lv_style_t * local = get_alloc_local_style(list);
 749:lvgl\src\lv_core/lv_style.c ****     _lv_style_set_int(local, prop, value);
 750:lvgl\src\lv_core/lv_style.c **** }
 751:lvgl\src\lv_core/lv_style.c **** 
 752:lvgl\src\lv_core/lv_style.c **** /**
 753:lvgl\src\lv_core/lv_style.c ****  * Set a local opacity typed property in a style list.
 754:lvgl\src\lv_core/lv_style.c ****  * @param list pointer to a style list where the local property should be set
 755:lvgl\src\lv_core/lv_style.c ****  * @param prop a style property ORed with a state.
 756:lvgl\src\lv_core/lv_style.c ****  * E.g. `LV_STYLE_BORDER_OPA | (LV_STATE_PRESSED << LV_STYLE_STATE_POS)`
 757:lvgl\src\lv_core/lv_style.c ****  * @param value the value to set
 758:lvgl\src\lv_core/lv_style.c ****  * @note for performance reasons it's not checked if the property really has opacity type
 759:lvgl\src\lv_core/lv_style.c ****  */
 760:lvgl\src\lv_core/lv_style.c **** void _lv_style_list_set_local_opa(lv_style_list_t * list, lv_style_property_t prop, lv_opa_t value)
 761:lvgl\src\lv_core/lv_style.c **** {
 762:lvgl\src\lv_core/lv_style.c ****     LV_ASSERT_STYLE_LIST(list);
 763:lvgl\src\lv_core/lv_style.c **** 
 764:lvgl\src\lv_core/lv_style.c ****     lv_style_t * local = get_alloc_local_style(list);
 765:lvgl\src\lv_core/lv_style.c ****     _lv_style_set_opa(local, prop, value);
 766:lvgl\src\lv_core/lv_style.c **** }
 767:lvgl\src\lv_core/lv_style.c **** 
 768:lvgl\src\lv_core/lv_style.c **** /**
 769:lvgl\src\lv_core/lv_style.c ****  * Set a local color typed property in a style list.
 770:lvgl\src\lv_core/lv_style.c ****  * @param list pointer to a style list where the local property should be set
 771:lvgl\src\lv_core/lv_style.c ****  * @param prop a style property ORed with a state.
 772:lvgl\src\lv_core/lv_style.c ****  * E.g. `LV_STYLE_BORDER_COLOR | (LV_STATE_PRESSED << LV_STYLE_STATE_POS)`
 773:lvgl\src\lv_core/lv_style.c ****  * @param value the value to set
 774:lvgl\src\lv_core/lv_style.c ****  * @note for performance reasons it's not checked if the property really has color type
 775:lvgl\src\lv_core/lv_style.c ****  */
 776:lvgl\src\lv_core/lv_style.c **** void _lv_style_list_set_local_color(lv_style_list_t * list, lv_style_property_t prop, lv_color_t va
 777:lvgl\src\lv_core/lv_style.c **** {
 778:lvgl\src\lv_core/lv_style.c ****     LV_ASSERT_STYLE_LIST(list);
 779:lvgl\src\lv_core/lv_style.c **** 
 780:lvgl\src\lv_core/lv_style.c ****     lv_style_t * local = get_alloc_local_style(list);
 781:lvgl\src\lv_core/lv_style.c ****     _lv_style_set_color(local, prop, value);
 782:lvgl\src\lv_core/lv_style.c **** }
 783:lvgl\src\lv_core/lv_style.c **** 
 784:lvgl\src\lv_core/lv_style.c **** /**
 785:lvgl\src\lv_core/lv_style.c ****  * Set a local pointer typed property in a style list.
 786:lvgl\src\lv_core/lv_style.c ****  * @param list pointer to a style list where the local property should be set
 787:lvgl\src\lv_core/lv_style.c ****  * @param prop a style property ORed with a state.
 788:lvgl\src\lv_core/lv_style.c ****  * E.g. `LV_STYLE_TEXT_FONT | (LV_STATE_PRESSED << LV_STYLE_STATE_POS)`
 789:lvgl\src\lv_core/lv_style.c ****  * @param value the value to set
 790:lvgl\src\lv_core/lv_style.c ****  * @note for performance reasons it's not checked if the property really has pointer type
 791:lvgl\src\lv_core/lv_style.c ****  */
 792:lvgl\src\lv_core/lv_style.c **** void _lv_style_list_set_local_ptr(lv_style_list_t * list, lv_style_property_t prop, const void * va
 793:lvgl\src\lv_core/lv_style.c **** {
 794:lvgl\src\lv_core/lv_style.c ****     LV_ASSERT_STYLE_LIST(list);
 795:lvgl\src\lv_core/lv_style.c **** 
 796:lvgl\src\lv_core/lv_style.c ****     lv_style_t * local = get_alloc_local_style(list);
 797:lvgl\src\lv_core/lv_style.c ****     _lv_style_set_ptr(local, prop, value);
 798:lvgl\src\lv_core/lv_style.c **** }
 799:lvgl\src\lv_core/lv_style.c **** 
 800:lvgl\src\lv_core/lv_style.c **** 
 801:lvgl\src\lv_core/lv_style.c **** 
ARM GAS  C:\Users\strap\AppData\Local\Temp\cc7bAV43.s 			page 22


 802:lvgl\src\lv_core/lv_style.c **** /**
 803:lvgl\src\lv_core/lv_style.c ****  * Get an integer typed property from a style list.
 804:lvgl\src\lv_core/lv_style.c ****  * It will return the property which match best with given state.
 805:lvgl\src\lv_core/lv_style.c ****  * @param list pointer to a style list from where the property should be get
 806:lvgl\src\lv_core/lv_style.c ****  * @param prop a style property ORed with a state.
 807:lvgl\src\lv_core/lv_style.c ****  * E.g. `LV_STYLE_BORDER_WIDTH | (LV_STATE_PRESSED << LV_STYLE_STATE_POS)`
 808:lvgl\src\lv_core/lv_style.c ****  * @param res pointer to a buffer to store the result
 809:lvgl\src\lv_core/lv_style.c ****  * @return LV_RES_OK: there was a matching property in the list
 810:lvgl\src\lv_core/lv_style.c ****  *         LV_RES_INV: there was NO matching property in the list
 811:lvgl\src\lv_core/lv_style.c ****  * @note for performance reasons it's not checked if the property really has integer type
 812:lvgl\src\lv_core/lv_style.c ****  */
 813:lvgl\src\lv_core/lv_style.c **** lv_res_t _lv_style_list_get_int(lv_style_list_t * list, lv_style_property_t prop, lv_style_int_t * 
 814:lvgl\src\lv_core/lv_style.c **** {
 815:lvgl\src\lv_core/lv_style.c ****     LV_ASSERT_STYLE_LIST(list);
 816:lvgl\src\lv_core/lv_style.c **** 
 817:lvgl\src\lv_core/lv_style.c ****     if(list == NULL) return LV_RES_INV;
 818:lvgl\src\lv_core/lv_style.c ****     if(list->style_list == NULL) return LV_RES_INV;
 819:lvgl\src\lv_core/lv_style.c **** 
 820:lvgl\src\lv_core/lv_style.c ****     lv_style_attr_t attr;
 821:lvgl\src\lv_core/lv_style.c ****     attr = prop >> 8;
 822:lvgl\src\lv_core/lv_style.c ****     int16_t weight_goal = attr;
 823:lvgl\src\lv_core/lv_style.c **** 
 824:lvgl\src\lv_core/lv_style.c ****     int16_t weight = -1;
 825:lvgl\src\lv_core/lv_style.c **** 
 826:lvgl\src\lv_core/lv_style.c ****     lv_style_int_t value_act = 0;
 827:lvgl\src\lv_core/lv_style.c **** 
 828:lvgl\src\lv_core/lv_style.c ****     int16_t ci;
 829:lvgl\src\lv_core/lv_style.c ****     for(ci = 0; ci < list->style_cnt; ci++) {
 830:lvgl\src\lv_core/lv_style.c ****         /* changed class to _class to allow compilation as c++ */
 831:lvgl\src\lv_core/lv_style.c ****         lv_style_t * _class = lv_style_list_get_style(list, ci);
 832:lvgl\src\lv_core/lv_style.c ****         int16_t weight_act = _lv_style_get_int(_class, prop, &value_act);
 833:lvgl\src\lv_core/lv_style.c **** 
 834:lvgl\src\lv_core/lv_style.c ****         /*On perfect match return the value immediately*/
 835:lvgl\src\lv_core/lv_style.c ****         if(weight_act == weight_goal) {
 836:lvgl\src\lv_core/lv_style.c ****             *res = value_act;
 837:lvgl\src\lv_core/lv_style.c ****             return LV_RES_OK;
 838:lvgl\src\lv_core/lv_style.c ****         }
 839:lvgl\src\lv_core/lv_style.c ****         else if(list->has_trans && weight_act >= 0 && ci == 0 && !list->skip_trans) {
 840:lvgl\src\lv_core/lv_style.c ****             *res = value_act;
 841:lvgl\src\lv_core/lv_style.c ****             return LV_RES_OK;
 842:lvgl\src\lv_core/lv_style.c ****         }
 843:lvgl\src\lv_core/lv_style.c ****         /*If the found ID is better the current candidate then use it*/
 844:lvgl\src\lv_core/lv_style.c ****         else if(weight_act > weight) {
 845:lvgl\src\lv_core/lv_style.c ****             weight =  weight_act;
 846:lvgl\src\lv_core/lv_style.c ****             *res = value_act;
 847:lvgl\src\lv_core/lv_style.c ****         }
 848:lvgl\src\lv_core/lv_style.c ****     }
 849:lvgl\src\lv_core/lv_style.c **** 
 850:lvgl\src\lv_core/lv_style.c ****     if(weight >= 0) return LV_RES_OK;
 851:lvgl\src\lv_core/lv_style.c ****     else return LV_RES_INV;
 852:lvgl\src\lv_core/lv_style.c **** 
 853:lvgl\src\lv_core/lv_style.c **** }
 854:lvgl\src\lv_core/lv_style.c **** 
 855:lvgl\src\lv_core/lv_style.c **** /**
 856:lvgl\src\lv_core/lv_style.c ****  * Get a color typed property from a style list.
 857:lvgl\src\lv_core/lv_style.c ****  * It will return the property which match best with given state.
 858:lvgl\src\lv_core/lv_style.c ****  * @param list pointer to a style list from where the property should be get
ARM GAS  C:\Users\strap\AppData\Local\Temp\cc7bAV43.s 			page 23


 859:lvgl\src\lv_core/lv_style.c ****  * @param prop a style property ORed with a state.
 860:lvgl\src\lv_core/lv_style.c ****  * E.g. `LV_STYLE_BORDER_COLOR | (LV_STATE_PRESSED << LV_STYLE_STATE_POS)`
 861:lvgl\src\lv_core/lv_style.c ****  * @param res pointer to a buffer to store the result
 862:lvgl\src\lv_core/lv_style.c ****  * @return LV_RES_OK: there was a matching property in the list
 863:lvgl\src\lv_core/lv_style.c ****  *         LV_RES_INV: there was NO matching property in the list
 864:lvgl\src\lv_core/lv_style.c ****  * @note for performance reasons it's not checked if the property really has color type
 865:lvgl\src\lv_core/lv_style.c ****  */
 866:lvgl\src\lv_core/lv_style.c **** lv_res_t _lv_style_list_get_color(lv_style_list_t * list, lv_style_property_t prop, lv_color_t * re
 867:lvgl\src\lv_core/lv_style.c **** {
 868:lvgl\src\lv_core/lv_style.c ****     LV_ASSERT_STYLE_LIST(list);
 869:lvgl\src\lv_core/lv_style.c **** 
 870:lvgl\src\lv_core/lv_style.c ****     if(list == NULL) return LV_RES_INV;
 871:lvgl\src\lv_core/lv_style.c ****     if(list->style_list == NULL) return LV_RES_INV;
 872:lvgl\src\lv_core/lv_style.c **** 
 873:lvgl\src\lv_core/lv_style.c ****     lv_style_attr_t attr;
 874:lvgl\src\lv_core/lv_style.c ****     attr = prop >> 8;
 875:lvgl\src\lv_core/lv_style.c ****     int16_t weight_goal = attr;
 876:lvgl\src\lv_core/lv_style.c **** 
 877:lvgl\src\lv_core/lv_style.c ****     int16_t weight = -1;
 878:lvgl\src\lv_core/lv_style.c **** 
 879:lvgl\src\lv_core/lv_style.c ****     lv_color_t value_act;
 880:lvgl\src\lv_core/lv_style.c ****     value_act.full = 0;
 881:lvgl\src\lv_core/lv_style.c **** 
 882:lvgl\src\lv_core/lv_style.c ****     int16_t ci;
 883:lvgl\src\lv_core/lv_style.c ****     for(ci = 0; ci < list->style_cnt; ci++) {
 884:lvgl\src\lv_core/lv_style.c ****         lv_style_t * _class = lv_style_list_get_style(list, ci);
 885:lvgl\src\lv_core/lv_style.c ****         int16_t weight_act = _lv_style_get_color(_class, prop, &value_act);
 886:lvgl\src\lv_core/lv_style.c ****         /*On perfect match return the value immediately*/
 887:lvgl\src\lv_core/lv_style.c ****         if(weight_act == weight_goal) {
 888:lvgl\src\lv_core/lv_style.c ****             *res = value_act;
 889:lvgl\src\lv_core/lv_style.c ****             return LV_RES_OK;
 890:lvgl\src\lv_core/lv_style.c ****         }
 891:lvgl\src\lv_core/lv_style.c ****         else if(list->has_trans && weight_act >= 0 && ci == 0 && !list->skip_trans) {
 892:lvgl\src\lv_core/lv_style.c ****             *res = value_act;
 893:lvgl\src\lv_core/lv_style.c ****             return LV_RES_OK;
 894:lvgl\src\lv_core/lv_style.c ****         }
 895:lvgl\src\lv_core/lv_style.c ****         /*If the found ID is better the current candidate then use it*/
 896:lvgl\src\lv_core/lv_style.c ****         else if(weight_act > weight) {
 897:lvgl\src\lv_core/lv_style.c ****             weight =  weight_act;
 898:lvgl\src\lv_core/lv_style.c ****             *res = value_act;
 899:lvgl\src\lv_core/lv_style.c ****         }
 900:lvgl\src\lv_core/lv_style.c ****     }
 901:lvgl\src\lv_core/lv_style.c **** 
 902:lvgl\src\lv_core/lv_style.c ****     if(weight >= 0)  return LV_RES_OK;
 903:lvgl\src\lv_core/lv_style.c ****     else return LV_RES_INV;
 904:lvgl\src\lv_core/lv_style.c **** }
 905:lvgl\src\lv_core/lv_style.c **** 
 906:lvgl\src\lv_core/lv_style.c **** /**
 907:lvgl\src\lv_core/lv_style.c ****  * Get an opacity typed property from a style list.
 908:lvgl\src\lv_core/lv_style.c ****  * It will return the property which match best with given state.
 909:lvgl\src\lv_core/lv_style.c ****  * @param list pointer to a style list from where the property should be get
 910:lvgl\src\lv_core/lv_style.c ****  * @param prop a style property ORed with a state.
 911:lvgl\src\lv_core/lv_style.c ****  * E.g. `LV_STYLE_BORDER_OPA| (LV_STATE_PRESSED << LV_STYLE_STATE_POS)`
 912:lvgl\src\lv_core/lv_style.c ****  * @param res pointer to a buffer to store the result
 913:lvgl\src\lv_core/lv_style.c ****  * @return LV_RES_OK: there was a matching property in the list
 914:lvgl\src\lv_core/lv_style.c ****  *         LV_RES_INV: there was NO matching property in the list
 915:lvgl\src\lv_core/lv_style.c ****  * @note for performance reasons it's not checked if the property really has opacity type
ARM GAS  C:\Users\strap\AppData\Local\Temp\cc7bAV43.s 			page 24


 916:lvgl\src\lv_core/lv_style.c ****  */
 917:lvgl\src\lv_core/lv_style.c **** lv_res_t _lv_style_list_get_opa(lv_style_list_t * list, lv_style_property_t prop, lv_opa_t * res)
 918:lvgl\src\lv_core/lv_style.c **** {
 919:lvgl\src\lv_core/lv_style.c ****     LV_ASSERT_STYLE_LIST(list);
 920:lvgl\src\lv_core/lv_style.c **** 
 921:lvgl\src\lv_core/lv_style.c ****     if(list == NULL) return LV_RES_INV;
 922:lvgl\src\lv_core/lv_style.c ****     if(list->style_list == NULL) return LV_RES_INV;
 923:lvgl\src\lv_core/lv_style.c **** 
 924:lvgl\src\lv_core/lv_style.c ****     lv_style_attr_t attr;
 925:lvgl\src\lv_core/lv_style.c ****     attr = prop >> 8;
 926:lvgl\src\lv_core/lv_style.c ****     int16_t weight_goal = attr;
 927:lvgl\src\lv_core/lv_style.c **** 
 928:lvgl\src\lv_core/lv_style.c ****     int16_t weight = -1;
 929:lvgl\src\lv_core/lv_style.c **** 
 930:lvgl\src\lv_core/lv_style.c ****     lv_opa_t value_act = LV_OPA_TRANSP;
 931:lvgl\src\lv_core/lv_style.c **** 
 932:lvgl\src\lv_core/lv_style.c ****     int16_t ci;
 933:lvgl\src\lv_core/lv_style.c ****     for(ci = 0; ci < list->style_cnt; ci++) {
 934:lvgl\src\lv_core/lv_style.c ****         lv_style_t * _class = lv_style_list_get_style(list, ci);
 935:lvgl\src\lv_core/lv_style.c ****         int16_t weight_act = _lv_style_get_opa(_class, prop, &value_act);
 936:lvgl\src\lv_core/lv_style.c ****         /*On perfect match return the value immediately*/
 937:lvgl\src\lv_core/lv_style.c ****         if(weight_act == weight_goal) {
 938:lvgl\src\lv_core/lv_style.c ****             *res = value_act;
 939:lvgl\src\lv_core/lv_style.c ****             return LV_RES_OK;
 940:lvgl\src\lv_core/lv_style.c ****         }
 941:lvgl\src\lv_core/lv_style.c ****         else if(list->has_trans && weight_act >= 0 && ci == 0 && !list->skip_trans) {
 942:lvgl\src\lv_core/lv_style.c ****             *res = value_act;
 943:lvgl\src\lv_core/lv_style.c ****             return LV_RES_OK;
 944:lvgl\src\lv_core/lv_style.c ****         }
 945:lvgl\src\lv_core/lv_style.c ****         /*If the found ID is better the current candidate then use it*/
 946:lvgl\src\lv_core/lv_style.c ****         else if(weight_act > weight) {
 947:lvgl\src\lv_core/lv_style.c ****             weight =  weight_act;
 948:lvgl\src\lv_core/lv_style.c ****             *res = value_act;
 949:lvgl\src\lv_core/lv_style.c ****         }
 950:lvgl\src\lv_core/lv_style.c ****     }
 951:lvgl\src\lv_core/lv_style.c **** 
 952:lvgl\src\lv_core/lv_style.c ****     if(weight >= 0)  return LV_RES_OK;
 953:lvgl\src\lv_core/lv_style.c ****     else return LV_RES_INV;
 954:lvgl\src\lv_core/lv_style.c **** }
 955:lvgl\src\lv_core/lv_style.c **** 
 956:lvgl\src\lv_core/lv_style.c **** /**
 957:lvgl\src\lv_core/lv_style.c ****  * Get a pointer typed property from a style list.
 958:lvgl\src\lv_core/lv_style.c ****  * It will return the property which match best with given state.
 959:lvgl\src\lv_core/lv_style.c ****  * @param list pointer to a style list from where the property should be get
 960:lvgl\src\lv_core/lv_style.c ****  * @param prop a style property ORed with a state.
 961:lvgl\src\lv_core/lv_style.c ****  * E.g. `LV_STYLE_TEXT_FONT | (LV_STATE_PRESSED << LV_STYLE_STATE_POS)`
 962:lvgl\src\lv_core/lv_style.c ****  * @param res pointer to a buffer to store the result
 963:lvgl\src\lv_core/lv_style.c ****  * @return LV_RES_OK: there was a matching property in the list
 964:lvgl\src\lv_core/lv_style.c ****  *         LV_RES_INV: there was NO matching property in the list
 965:lvgl\src\lv_core/lv_style.c ****  * @note for performance reasons it's not checked if the property really has pointer type
 966:lvgl\src\lv_core/lv_style.c ****  */
 967:lvgl\src\lv_core/lv_style.c **** lv_res_t _lv_style_list_get_ptr(lv_style_list_t * list, lv_style_property_t prop, const void ** res
 968:lvgl\src\lv_core/lv_style.c **** {
 969:lvgl\src\lv_core/lv_style.c ****     LV_ASSERT_STYLE_LIST(list);
 970:lvgl\src\lv_core/lv_style.c **** 
 971:lvgl\src\lv_core/lv_style.c ****     if(list == NULL) return LV_RES_INV;
 972:lvgl\src\lv_core/lv_style.c ****     if(list->style_list == NULL) return LV_RES_INV;
ARM GAS  C:\Users\strap\AppData\Local\Temp\cc7bAV43.s 			page 25


 973:lvgl\src\lv_core/lv_style.c **** 
 974:lvgl\src\lv_core/lv_style.c ****     lv_style_attr_t attr;
 975:lvgl\src\lv_core/lv_style.c ****     attr = prop >> 8;
 976:lvgl\src\lv_core/lv_style.c ****     int16_t weight_goal = attr;
 977:lvgl\src\lv_core/lv_style.c **** 
 978:lvgl\src\lv_core/lv_style.c ****     int16_t weight = -1;
 979:lvgl\src\lv_core/lv_style.c **** 
 980:lvgl\src\lv_core/lv_style.c ****     const void * value_act;
 981:lvgl\src\lv_core/lv_style.c **** 
 982:lvgl\src\lv_core/lv_style.c ****     int16_t ci;
 983:lvgl\src\lv_core/lv_style.c ****     for(ci = 0; ci < list->style_cnt; ci++) {
 984:lvgl\src\lv_core/lv_style.c ****         lv_style_t * _class = lv_style_list_get_style(list, ci);
 985:lvgl\src\lv_core/lv_style.c ****         int16_t weight_act = _lv_style_get_ptr(_class, prop, &value_act);
 986:lvgl\src\lv_core/lv_style.c ****         /*On perfect match return the value immediately*/
 987:lvgl\src\lv_core/lv_style.c ****         if(weight_act == weight_goal) {
 988:lvgl\src\lv_core/lv_style.c ****             *res = value_act;
 989:lvgl\src\lv_core/lv_style.c ****             return LV_RES_OK;
 990:lvgl\src\lv_core/lv_style.c ****         }
 991:lvgl\src\lv_core/lv_style.c ****         else if(list->has_trans && weight_act >= 0 && ci == 0 && !list->skip_trans) {
 992:lvgl\src\lv_core/lv_style.c ****             *res = value_act;
 993:lvgl\src\lv_core/lv_style.c ****             return LV_RES_OK;
 994:lvgl\src\lv_core/lv_style.c ****         }
 995:lvgl\src\lv_core/lv_style.c ****         /*If the found ID is better the current candidate then use it*/
 996:lvgl\src\lv_core/lv_style.c ****         else if(weight_act > weight) {
 997:lvgl\src\lv_core/lv_style.c ****             weight =  weight_act;
 998:lvgl\src\lv_core/lv_style.c ****             *res = value_act;
 999:lvgl\src\lv_core/lv_style.c ****         }
1000:lvgl\src\lv_core/lv_style.c ****     }
1001:lvgl\src\lv_core/lv_style.c **** 
1002:lvgl\src\lv_core/lv_style.c ****     if(weight >= 0)  return LV_RES_OK;
1003:lvgl\src\lv_core/lv_style.c ****     else return LV_RES_INV;
1004:lvgl\src\lv_core/lv_style.c **** }
1005:lvgl\src\lv_core/lv_style.c **** 
1006:lvgl\src\lv_core/lv_style.c **** /**
1007:lvgl\src\lv_core/lv_style.c ****  * Check whether a style is valid (initialized correctly)
1008:lvgl\src\lv_core/lv_style.c ****  * @param style pointer to a style
1009:lvgl\src\lv_core/lv_style.c ****  * @return true: valid
1010:lvgl\src\lv_core/lv_style.c ****  */
1011:lvgl\src\lv_core/lv_style.c **** bool lv_debug_check_style(const lv_style_t * style)
1012:lvgl\src\lv_core/lv_style.c **** {
1013:lvgl\src\lv_core/lv_style.c ****     if(style == NULL) return true;  /*NULL style is still valid*/
1014:lvgl\src\lv_core/lv_style.c **** 
1015:lvgl\src\lv_core/lv_style.c **** #if LV_USE_ASSERT_STYLE
1016:lvgl\src\lv_core/lv_style.c ****     if(style->sentinel != LV_DEBUG_STYLE_SENTINEL_VALUE) {
1017:lvgl\src\lv_core/lv_style.c ****         LV_LOG_WARN("Invalid style (local variable or not initialized?)");
1018:lvgl\src\lv_core/lv_style.c ****         return false;
1019:lvgl\src\lv_core/lv_style.c ****     }
1020:lvgl\src\lv_core/lv_style.c **** #endif
1021:lvgl\src\lv_core/lv_style.c **** 
1022:lvgl\src\lv_core/lv_style.c ****     return true;
1023:lvgl\src\lv_core/lv_style.c **** }
1024:lvgl\src\lv_core/lv_style.c **** 
1025:lvgl\src\lv_core/lv_style.c **** /**
1026:lvgl\src\lv_core/lv_style.c ****  * Check whether a style list is valid (initialized correctly)
1027:lvgl\src\lv_core/lv_style.c ****  * @param style pointer to a style
1028:lvgl\src\lv_core/lv_style.c ****  * @return true: valid
1029:lvgl\src\lv_core/lv_style.c ****  */
ARM GAS  C:\Users\strap\AppData\Local\Temp\cc7bAV43.s 			page 26


1030:lvgl\src\lv_core/lv_style.c **** bool lv_debug_check_style_list(const lv_style_list_t * list)
1031:lvgl\src\lv_core/lv_style.c **** {
1032:lvgl\src\lv_core/lv_style.c ****     if(list == NULL) return true;  /*NULL list is still valid*/
1033:lvgl\src\lv_core/lv_style.c **** 
1034:lvgl\src\lv_core/lv_style.c **** #if LV_USE_ASSERT_STYLE
1035:lvgl\src\lv_core/lv_style.c ****     if(list->sentinel != LV_DEBUG_STYLE_LIST_SENTINEL_VALUE) {
1036:lvgl\src\lv_core/lv_style.c ****         LV_LOG_WARN("Invalid style (local variable or not initialized?)");
1037:lvgl\src\lv_core/lv_style.c ****         return false;
1038:lvgl\src\lv_core/lv_style.c ****     }
1039:lvgl\src\lv_core/lv_style.c **** #endif
1040:lvgl\src\lv_core/lv_style.c **** 
1041:lvgl\src\lv_core/lv_style.c ****     return true;
1042:lvgl\src\lv_core/lv_style.c **** }
1043:lvgl\src\lv_core/lv_style.c **** 
1044:lvgl\src\lv_core/lv_style.c **** /**********************
1045:lvgl\src\lv_core/lv_style.c ****  *   STATIC FUNCTIONS
1046:lvgl\src\lv_core/lv_style.c ****  **********************/
1047:lvgl\src\lv_core/lv_style.c **** 
1048:lvgl\src\lv_core/lv_style.c **** /**
1049:lvgl\src\lv_core/lv_style.c ****  * Get a property's index (byte index in `style->map`) from a style.
1050:lvgl\src\lv_core/lv_style.c ****  * Return best matching property's index considering the state of `prop`
1051:lvgl\src\lv_core/lv_style.c ****  * @param style pointer to a style
1052:lvgl\src\lv_core/lv_style.c ****  * @param prop a style property ORed with a state.
1053:lvgl\src\lv_core/lv_style.c ****  * E.g. `LV_STYLE_TEXT_FONT | (LV_STATE_PRESSED << LV_STYLE_STATE_POS)`
1054:lvgl\src\lv_core/lv_style.c ****  * @return
1055:lvgl\src\lv_core/lv_style.c ****  */
1056:lvgl\src\lv_core/lv_style.c **** LV_ATTRIBUTE_FAST_MEM static inline int32_t get_property_index(const lv_style_t * style, lv_style_p
1057:lvgl\src\lv_core/lv_style.c **** {
1058:lvgl\src\lv_core/lv_style.c ****     LV_ASSERT_STYLE(style);
1059:lvgl\src\lv_core/lv_style.c **** 
1060:lvgl\src\lv_core/lv_style.c ****     if(style->map == NULL) return -1;
1061:lvgl\src\lv_core/lv_style.c **** 
1062:lvgl\src\lv_core/lv_style.c ****     uint8_t id_to_find = prop & 0xFF;
1063:lvgl\src\lv_core/lv_style.c ****     lv_style_attr_t attr;
1064:lvgl\src\lv_core/lv_style.c ****     attr = (prop >> 8) & 0xFF;
1065:lvgl\src\lv_core/lv_style.c **** 
1066:lvgl\src\lv_core/lv_style.c ****     int16_t weight = -1;
1067:lvgl\src\lv_core/lv_style.c ****     int16_t id_guess = -1;
1068:lvgl\src\lv_core/lv_style.c **** 
1069:lvgl\src\lv_core/lv_style.c ****     size_t i = 0;
1070:lvgl\src\lv_core/lv_style.c **** 
1071:lvgl\src\lv_core/lv_style.c ****     uint8_t prop_id;
1072:lvgl\src\lv_core/lv_style.c ****     while((prop_id = get_style_prop_id(style, i)) != _LV_STYLE_CLOSEING_PROP) {
1073:lvgl\src\lv_core/lv_style.c ****         if(prop_id == id_to_find) {
1074:lvgl\src\lv_core/lv_style.c ****             lv_style_attr_t attr_i;
1075:lvgl\src\lv_core/lv_style.c ****             attr_i = get_style_prop_attr(style, i);
1076:lvgl\src\lv_core/lv_style.c **** 
1077:lvgl\src\lv_core/lv_style.c ****             /*If the state perfectly matches return this property*/
1078:lvgl\src\lv_core/lv_style.c ****             if(LV_STYLE_ATTR_GET_STATE(attr_i) == LV_STYLE_ATTR_GET_STATE(attr)) {
1079:lvgl\src\lv_core/lv_style.c ****                 return i;
1080:lvgl\src\lv_core/lv_style.c ****             }
1081:lvgl\src\lv_core/lv_style.c ****             /* Be sure the property not specifies other state than the requested.
1082:lvgl\src\lv_core/lv_style.c ****              * E.g. For HOVER+PRESS, HOVER only is OK, but HOVER+FOCUS not*/
1083:lvgl\src\lv_core/lv_style.c ****             else if((LV_STYLE_ATTR_GET_STATE(attr_i) & (~LV_STYLE_ATTR_GET_STATE(attr))) == 0) {
1084:lvgl\src\lv_core/lv_style.c ****                 /* Use this property if it describes better the requested state than the current ca
1085:lvgl\src\lv_core/lv_style.c ****                  * E.g. for HOVER+FOCUS+PRESS prefer HOVER+FOCUS over FOCUS*/
1086:lvgl\src\lv_core/lv_style.c ****                 if(LV_STYLE_ATTR_GET_STATE(attr_i) > weight) {
ARM GAS  C:\Users\strap\AppData\Local\Temp\cc7bAV43.s 			page 27


1087:lvgl\src\lv_core/lv_style.c ****                     weight = LV_STYLE_ATTR_GET_STATE(attr_i);
1088:lvgl\src\lv_core/lv_style.c ****                     id_guess = i;
1089:lvgl\src\lv_core/lv_style.c ****                 }
1090:lvgl\src\lv_core/lv_style.c ****             }
1091:lvgl\src\lv_core/lv_style.c ****         }
1092:lvgl\src\lv_core/lv_style.c **** 
1093:lvgl\src\lv_core/lv_style.c ****         i = get_next_prop_index(prop_id, i);
1094:lvgl\src\lv_core/lv_style.c ****     }
1095:lvgl\src\lv_core/lv_style.c **** 
1096:lvgl\src\lv_core/lv_style.c ****     return id_guess;
1097:lvgl\src\lv_core/lv_style.c **** }
1098:lvgl\src\lv_core/lv_style.c **** 
1099:lvgl\src\lv_core/lv_style.c **** /**
1100:lvgl\src\lv_core/lv_style.c ****  * Get he local style from a style list. Allocate it if not exists yet.
1101:lvgl\src\lv_core/lv_style.c ****  * @param list pointer to a style list
1102:lvgl\src\lv_core/lv_style.c ****  * @return pointer to the local style
1103:lvgl\src\lv_core/lv_style.c ****  */
1104:lvgl\src\lv_core/lv_style.c **** static lv_style_t * get_alloc_local_style(lv_style_list_t * list)
1105:lvgl\src\lv_core/lv_style.c **** {
 370              		.loc 1 1105 0
 371              		.cfi_startproc
 372              		@ args = 0, pretend = 0, frame = 0
 373              		@ frame_needed = 0, uses_anonymous_args = 0
 374              	.LVL46:
 375 0000 38B5     		push	{r3, r4, r5, lr}
 376              		.cfi_def_cfa_offset 16
 377              		.cfi_offset 3, -16
 378              		.cfi_offset 4, -12
 379              		.cfi_offset 5, -8
 380              		.cfi_offset 14, -4
1106:lvgl\src\lv_core/lv_style.c ****     LV_ASSERT_STYLE_LIST(list);
1107:lvgl\src\lv_core/lv_style.c **** 
1108:lvgl\src\lv_core/lv_style.c ****     if(list->has_local) return lv_style_list_get_style(list, list->has_trans ? 1 : 0);
 381              		.loc 1 1108 0
 382 0002 0279     		ldrb	r2, [r0, #4]	@ zero_extendqisi2
 383 0004 12F0400F 		tst	r2, #64
 384 0008 18D0     		beq	.L36
 385              		.loc 1 1108 0 is_stmt 0 discriminator 1
 386 000a D309     		lsrs	r3, r2, #7
 387              	.LVL47:
 388              	.LBB141:
 389              	.LBB142:
 390              		.file 2 "lvgl\\src\\lv_core\\lv_style.h"
   1:lvgl\src\lv_core/lv_style.h **** /**
   2:lvgl\src\lv_core/lv_style.h ****  * @file lv_style.h
   3:lvgl\src\lv_core/lv_style.h ****  *
   4:lvgl\src\lv_core/lv_style.h ****  */
   5:lvgl\src\lv_core/lv_style.h **** 
   6:lvgl\src\lv_core/lv_style.h **** #ifndef LV_STYLE_H
   7:lvgl\src\lv_core/lv_style.h **** #define LV_STYLE_H
   8:lvgl\src\lv_core/lv_style.h **** 
   9:lvgl\src\lv_core/lv_style.h **** #ifdef __cplusplus
  10:lvgl\src\lv_core/lv_style.h **** extern "C" {
  11:lvgl\src\lv_core/lv_style.h **** #endif
  12:lvgl\src\lv_core/lv_style.h **** 
  13:lvgl\src\lv_core/lv_style.h **** /*********************
  14:lvgl\src\lv_core/lv_style.h ****  *      INCLUDES
ARM GAS  C:\Users\strap\AppData\Local\Temp\cc7bAV43.s 			page 28


  15:lvgl\src\lv_core/lv_style.h ****  *********************/
  16:lvgl\src\lv_core/lv_style.h **** #include <stdbool.h>
  17:lvgl\src\lv_core/lv_style.h **** #include "../lv_font/lv_font.h"
  18:lvgl\src\lv_core/lv_style.h **** #include "../lv_misc/lv_color.h"
  19:lvgl\src\lv_core/lv_style.h **** #include "../lv_misc/lv_area.h"
  20:lvgl\src\lv_core/lv_style.h **** #include "../lv_misc/lv_anim.h"
  21:lvgl\src\lv_core/lv_style.h **** #include "../lv_misc/lv_types.h"
  22:lvgl\src\lv_core/lv_style.h **** #include "../lv_misc/lv_debug.h"
  23:lvgl\src\lv_core/lv_style.h **** #include "../lv_draw/lv_draw_blend.h"
  24:lvgl\src\lv_core/lv_style.h **** 
  25:lvgl\src\lv_core/lv_style.h **** /*********************
  26:lvgl\src\lv_core/lv_style.h ****  *      DEFINES
  27:lvgl\src\lv_core/lv_style.h ****  *********************/
  28:lvgl\src\lv_core/lv_style.h **** 
  29:lvgl\src\lv_core/lv_style.h **** #define LV_RADIUS_CIRCLE (0x7FFF) /**< A very big radius to always draw as circle*/
  30:lvgl\src\lv_core/lv_style.h **** LV_EXPORT_CONST_INT(LV_RADIUS_CIRCLE);
  31:lvgl\src\lv_core/lv_style.h **** 
  32:lvgl\src\lv_core/lv_style.h **** #define LV_DEBUG_STYLE_SENTINEL_VALUE       0x2288AAEE
  33:lvgl\src\lv_core/lv_style.h **** #define LV_DEBUG_STYLE_LIST_SENTINEL_VALUE  0x9977CCBB
  34:lvgl\src\lv_core/lv_style.h **** 
  35:lvgl\src\lv_core/lv_style.h **** #define LV_STYLE_PROP_INIT(name, group, id, attr)  name = (((group << 4) + id) | ((attr) << 8))
  36:lvgl\src\lv_core/lv_style.h **** 
  37:lvgl\src\lv_core/lv_style.h **** #define LV_STYLE_ID_MASK 0x00FF
  38:lvgl\src\lv_core/lv_style.h **** 
  39:lvgl\src\lv_core/lv_style.h **** #define LV_STYLE_ATTR_NONE          0
  40:lvgl\src\lv_core/lv_style.h **** #define LV_STYLE_ATTR_INHERIT       (1 << 7)
  41:lvgl\src\lv_core/lv_style.h **** 
  42:lvgl\src\lv_core/lv_style.h **** #define _LV_STYLE_CLOSEING_PROP     0xFF
  43:lvgl\src\lv_core/lv_style.h **** 
  44:lvgl\src\lv_core/lv_style.h **** #define LV_STYLE_TRANS_NUM_MAX      6
  45:lvgl\src\lv_core/lv_style.h **** 
  46:lvgl\src\lv_core/lv_style.h **** #define LV_STYLE_PROP_ALL 0xFF
  47:lvgl\src\lv_core/lv_style.h **** 
  48:lvgl\src\lv_core/lv_style.h **** /**********************
  49:lvgl\src\lv_core/lv_style.h ****  *      TYPEDEFS
  50:lvgl\src\lv_core/lv_style.h ****  **********************/
  51:lvgl\src\lv_core/lv_style.h **** 
  52:lvgl\src\lv_core/lv_style.h **** /*Border types (Use 'OR'ed values)*/
  53:lvgl\src\lv_core/lv_style.h **** enum {
  54:lvgl\src\lv_core/lv_style.h ****     LV_BORDER_SIDE_NONE     = 0x00,
  55:lvgl\src\lv_core/lv_style.h ****     LV_BORDER_SIDE_BOTTOM   = 0x01,
  56:lvgl\src\lv_core/lv_style.h ****     LV_BORDER_SIDE_TOP      = 0x02,
  57:lvgl\src\lv_core/lv_style.h ****     LV_BORDER_SIDE_LEFT     = 0x04,
  58:lvgl\src\lv_core/lv_style.h ****     LV_BORDER_SIDE_RIGHT    = 0x08,
  59:lvgl\src\lv_core/lv_style.h ****     LV_BORDER_SIDE_FULL     = 0x0F,
  60:lvgl\src\lv_core/lv_style.h ****     LV_BORDER_SIDE_INTERNAL = 0x10, /**< FOR matrix-like objects (e.g. Button matrix)*/
  61:lvgl\src\lv_core/lv_style.h ****     _LV_BORDER_SIDE_LAST
  62:lvgl\src\lv_core/lv_style.h **** };
  63:lvgl\src\lv_core/lv_style.h **** typedef uint8_t lv_border_side_t;
  64:lvgl\src\lv_core/lv_style.h **** 
  65:lvgl\src\lv_core/lv_style.h **** enum {
  66:lvgl\src\lv_core/lv_style.h ****     LV_GRAD_DIR_NONE,
  67:lvgl\src\lv_core/lv_style.h ****     LV_GRAD_DIR_VER,
  68:lvgl\src\lv_core/lv_style.h ****     LV_GRAD_DIR_HOR,
  69:lvgl\src\lv_core/lv_style.h ****     _LV_GRAD_DIR_LAST
  70:lvgl\src\lv_core/lv_style.h **** };
  71:lvgl\src\lv_core/lv_style.h **** 
ARM GAS  C:\Users\strap\AppData\Local\Temp\cc7bAV43.s 			page 29


  72:lvgl\src\lv_core/lv_style.h **** typedef uint8_t lv_grad_dir_t;
  73:lvgl\src\lv_core/lv_style.h **** 
  74:lvgl\src\lv_core/lv_style.h **** /*Text decorations (Use 'OR'ed values)*/
  75:lvgl\src\lv_core/lv_style.h **** enum {
  76:lvgl\src\lv_core/lv_style.h ****     LV_TEXT_DECOR_NONE          = 0x00,
  77:lvgl\src\lv_core/lv_style.h ****     LV_TEXT_DECOR_UNDERLINE     = 0x01,
  78:lvgl\src\lv_core/lv_style.h ****     LV_TEXT_DECOR_STRIKETHROUGH = 0x02,
  79:lvgl\src\lv_core/lv_style.h ****     _LV_TEXT_DECOR_LAST
  80:lvgl\src\lv_core/lv_style.h **** };
  81:lvgl\src\lv_core/lv_style.h **** 
  82:lvgl\src\lv_core/lv_style.h **** typedef uint8_t lv_text_decor_t;
  83:lvgl\src\lv_core/lv_style.h **** 
  84:lvgl\src\lv_core/lv_style.h **** typedef uint8_t lv_style_attr_t;
  85:lvgl\src\lv_core/lv_style.h **** 
  86:lvgl\src\lv_core/lv_style.h **** #define LV_STYLE_ATTR_GET_INHERIT(f) ((f)&0x80)
  87:lvgl\src\lv_core/lv_style.h **** #define LV_STYLE_ATTR_GET_STATE(f) ((f)&0x7F)
  88:lvgl\src\lv_core/lv_style.h **** 
  89:lvgl\src\lv_core/lv_style.h **** #define LV_STYLE_ID_VALUE 0x0   /*max 9 pcs*/
  90:lvgl\src\lv_core/lv_style.h **** #define LV_STYLE_ID_COLOR 0x9   /*max 3 pcs*/
  91:lvgl\src\lv_core/lv_style.h **** #define LV_STYLE_ID_OPA   0xC   /*max 2 pcs*/
  92:lvgl\src\lv_core/lv_style.h **** #define LV_STYLE_ID_PTR   0xE   /*max 2 pcs*/
  93:lvgl\src\lv_core/lv_style.h **** 
  94:lvgl\src\lv_core/lv_style.h **** enum {
  95:lvgl\src\lv_core/lv_style.h ****     /*Skip 0th property*/
  96:lvgl\src\lv_core/lv_style.h ****     LV_STYLE_PROP_INIT(LV_STYLE_RADIUS,             0x0, LV_STYLE_ID_VALUE + 1, LV_STYLE_ATTR_NONE)
  97:lvgl\src\lv_core/lv_style.h ****     LV_STYLE_PROP_INIT(LV_STYLE_CLIP_CORNER,        0x0, LV_STYLE_ID_VALUE + 2, LV_STYLE_ATTR_NONE)
  98:lvgl\src\lv_core/lv_style.h ****     LV_STYLE_PROP_INIT(LV_STYLE_SIZE,               0x0, LV_STYLE_ID_VALUE + 3, LV_STYLE_ATTR_NONE)
  99:lvgl\src\lv_core/lv_style.h ****     LV_STYLE_PROP_INIT(LV_STYLE_TRANSFORM_WIDTH,    0x0, LV_STYLE_ID_VALUE + 4, LV_STYLE_ATTR_NONE)
 100:lvgl\src\lv_core/lv_style.h ****     LV_STYLE_PROP_INIT(LV_STYLE_TRANSFORM_HEIGHT,   0x0, LV_STYLE_ID_VALUE + 5, LV_STYLE_ATTR_NONE)
 101:lvgl\src\lv_core/lv_style.h ****     LV_STYLE_PROP_INIT(LV_STYLE_TRANSFORM_ANGLE,    0x0, LV_STYLE_ID_VALUE + 6, LV_STYLE_ATTR_NONE)
 102:lvgl\src\lv_core/lv_style.h ****     LV_STYLE_PROP_INIT(LV_STYLE_TRANSFORM_ZOOM,     0x0, LV_STYLE_ID_VALUE + 7, LV_STYLE_ATTR_NONE)
 103:lvgl\src\lv_core/lv_style.h ****     LV_STYLE_PROP_INIT(LV_STYLE_OPA_SCALE,          0x0, LV_STYLE_ID_OPA + 0,   LV_STYLE_ATTR_INHER
 104:lvgl\src\lv_core/lv_style.h **** 
 105:lvgl\src\lv_core/lv_style.h ****     LV_STYLE_PROP_INIT(LV_STYLE_PAD_TOP,            0x1, LV_STYLE_ID_VALUE + 0, LV_STYLE_ATTR_NONE)
 106:lvgl\src\lv_core/lv_style.h ****     LV_STYLE_PROP_INIT(LV_STYLE_PAD_BOTTOM,         0x1, LV_STYLE_ID_VALUE + 1, LV_STYLE_ATTR_NONE)
 107:lvgl\src\lv_core/lv_style.h ****     LV_STYLE_PROP_INIT(LV_STYLE_PAD_LEFT,           0x1, LV_STYLE_ID_VALUE + 2, LV_STYLE_ATTR_NONE)
 108:lvgl\src\lv_core/lv_style.h ****     LV_STYLE_PROP_INIT(LV_STYLE_PAD_RIGHT,          0x1, LV_STYLE_ID_VALUE + 3, LV_STYLE_ATTR_NONE)
 109:lvgl\src\lv_core/lv_style.h ****     LV_STYLE_PROP_INIT(LV_STYLE_PAD_INNER,          0x1, LV_STYLE_ID_VALUE + 4, LV_STYLE_ATTR_NONE)
 110:lvgl\src\lv_core/lv_style.h ****     LV_STYLE_PROP_INIT(LV_STYLE_MARGIN_TOP,         0x1, LV_STYLE_ID_VALUE + 5, LV_STYLE_ATTR_NONE)
 111:lvgl\src\lv_core/lv_style.h ****     LV_STYLE_PROP_INIT(LV_STYLE_MARGIN_BOTTOM,      0x1, LV_STYLE_ID_VALUE + 6, LV_STYLE_ATTR_NONE)
 112:lvgl\src\lv_core/lv_style.h ****     LV_STYLE_PROP_INIT(LV_STYLE_MARGIN_LEFT,        0x1, LV_STYLE_ID_VALUE + 7, LV_STYLE_ATTR_NONE)
 113:lvgl\src\lv_core/lv_style.h ****     LV_STYLE_PROP_INIT(LV_STYLE_MARGIN_RIGHT,       0x1, LV_STYLE_ID_VALUE + 8, LV_STYLE_ATTR_NONE)
 114:lvgl\src\lv_core/lv_style.h **** 
 115:lvgl\src\lv_core/lv_style.h ****     LV_STYLE_PROP_INIT(LV_STYLE_BG_BLEND_MODE,      0x2, LV_STYLE_ID_VALUE + 0, LV_STYLE_ATTR_NONE)
 116:lvgl\src\lv_core/lv_style.h ****     LV_STYLE_PROP_INIT(LV_STYLE_BG_MAIN_STOP,       0x2, LV_STYLE_ID_VALUE + 1, LV_STYLE_ATTR_NONE)
 117:lvgl\src\lv_core/lv_style.h ****     LV_STYLE_PROP_INIT(LV_STYLE_BG_GRAD_STOP,       0x2, LV_STYLE_ID_VALUE + 2, LV_STYLE_ATTR_NONE)
 118:lvgl\src\lv_core/lv_style.h ****     LV_STYLE_PROP_INIT(LV_STYLE_BG_GRAD_DIR,        0x2, LV_STYLE_ID_VALUE + 3, LV_STYLE_ATTR_NONE)
 119:lvgl\src\lv_core/lv_style.h ****     LV_STYLE_PROP_INIT(LV_STYLE_BG_COLOR,           0x2, LV_STYLE_ID_COLOR + 0, LV_STYLE_ATTR_NONE)
 120:lvgl\src\lv_core/lv_style.h ****     LV_STYLE_PROP_INIT(LV_STYLE_BG_GRAD_COLOR,      0x2, LV_STYLE_ID_COLOR + 1, LV_STYLE_ATTR_NONE)
 121:lvgl\src\lv_core/lv_style.h ****     LV_STYLE_PROP_INIT(LV_STYLE_BG_OPA,             0x2, LV_STYLE_ID_OPA   + 0, LV_STYLE_ATTR_NONE)
 122:lvgl\src\lv_core/lv_style.h **** 
 123:lvgl\src\lv_core/lv_style.h ****     LV_STYLE_PROP_INIT(LV_STYLE_BORDER_WIDTH,       0x3, LV_STYLE_ID_VALUE + 0, LV_STYLE_ATTR_NONE)
 124:lvgl\src\lv_core/lv_style.h ****     LV_STYLE_PROP_INIT(LV_STYLE_BORDER_SIDE,        0x3, LV_STYLE_ID_VALUE + 1, LV_STYLE_ATTR_NONE)
 125:lvgl\src\lv_core/lv_style.h ****     LV_STYLE_PROP_INIT(LV_STYLE_BORDER_BLEND_MODE,  0x3, LV_STYLE_ID_VALUE + 2, LV_STYLE_ATTR_NONE)
 126:lvgl\src\lv_core/lv_style.h ****     LV_STYLE_PROP_INIT(LV_STYLE_BORDER_POST,        0x3, LV_STYLE_ID_VALUE + 3, LV_STYLE_ATTR_NONE)
 127:lvgl\src\lv_core/lv_style.h ****     LV_STYLE_PROP_INIT(LV_STYLE_BORDER_COLOR,       0x3, LV_STYLE_ID_COLOR + 0, LV_STYLE_ATTR_NONE)
 128:lvgl\src\lv_core/lv_style.h ****     LV_STYLE_PROP_INIT(LV_STYLE_BORDER_OPA,         0x3, LV_STYLE_ID_OPA   + 0, LV_STYLE_ATTR_NONE)
ARM GAS  C:\Users\strap\AppData\Local\Temp\cc7bAV43.s 			page 30


 129:lvgl\src\lv_core/lv_style.h **** 
 130:lvgl\src\lv_core/lv_style.h ****     LV_STYLE_PROP_INIT(LV_STYLE_OUTLINE_WIDTH,       0x4, LV_STYLE_ID_VALUE + 0, LV_STYLE_ATTR_NONE
 131:lvgl\src\lv_core/lv_style.h ****     LV_STYLE_PROP_INIT(LV_STYLE_OUTLINE_PAD,         0x4, LV_STYLE_ID_VALUE + 1, LV_STYLE_ATTR_NONE
 132:lvgl\src\lv_core/lv_style.h ****     LV_STYLE_PROP_INIT(LV_STYLE_OUTLINE_BLEND_MODE,  0x4, LV_STYLE_ID_VALUE + 2, LV_STYLE_ATTR_NONE
 133:lvgl\src\lv_core/lv_style.h ****     LV_STYLE_PROP_INIT(LV_STYLE_OUTLINE_COLOR,       0x4, LV_STYLE_ID_COLOR + 0, LV_STYLE_ATTR_NONE
 134:lvgl\src\lv_core/lv_style.h ****     LV_STYLE_PROP_INIT(LV_STYLE_OUTLINE_OPA,         0x4, LV_STYLE_ID_OPA   + 0, LV_STYLE_ATTR_NONE
 135:lvgl\src\lv_core/lv_style.h **** 
 136:lvgl\src\lv_core/lv_style.h ****     LV_STYLE_PROP_INIT(LV_STYLE_SHADOW_WIDTH,       0x5, LV_STYLE_ID_VALUE + 0, LV_STYLE_ATTR_NONE)
 137:lvgl\src\lv_core/lv_style.h ****     LV_STYLE_PROP_INIT(LV_STYLE_SHADOW_OFS_X,       0x5, LV_STYLE_ID_VALUE + 1, LV_STYLE_ATTR_NONE)
 138:lvgl\src\lv_core/lv_style.h ****     LV_STYLE_PROP_INIT(LV_STYLE_SHADOW_OFS_Y,       0x5, LV_STYLE_ID_VALUE + 2, LV_STYLE_ATTR_NONE)
 139:lvgl\src\lv_core/lv_style.h ****     LV_STYLE_PROP_INIT(LV_STYLE_SHADOW_SPREAD,      0x5, LV_STYLE_ID_VALUE + 3, LV_STYLE_ATTR_NONE)
 140:lvgl\src\lv_core/lv_style.h ****     LV_STYLE_PROP_INIT(LV_STYLE_SHADOW_BLEND_MODE,  0x5, LV_STYLE_ID_VALUE + 4, LV_STYLE_ATTR_NONE)
 141:lvgl\src\lv_core/lv_style.h ****     LV_STYLE_PROP_INIT(LV_STYLE_SHADOW_COLOR,       0x5, LV_STYLE_ID_COLOR + 0, LV_STYLE_ATTR_NONE)
 142:lvgl\src\lv_core/lv_style.h ****     LV_STYLE_PROP_INIT(LV_STYLE_SHADOW_OPA,         0x5, LV_STYLE_ID_OPA   + 0, LV_STYLE_ATTR_NONE)
 143:lvgl\src\lv_core/lv_style.h **** 
 144:lvgl\src\lv_core/lv_style.h ****     LV_STYLE_PROP_INIT(LV_STYLE_PATTERN_BLEND_MODE,    0x6, LV_STYLE_ID_VALUE + 0, LV_STYLE_ATTR_NO
 145:lvgl\src\lv_core/lv_style.h ****     LV_STYLE_PROP_INIT(LV_STYLE_PATTERN_REPEAT,        0x6, LV_STYLE_ID_VALUE + 1, LV_STYLE_ATTR_NO
 146:lvgl\src\lv_core/lv_style.h ****     LV_STYLE_PROP_INIT(LV_STYLE_PATTERN_RECOLOR,       0x6, LV_STYLE_ID_COLOR + 0, LV_STYLE_ATTR_NO
 147:lvgl\src\lv_core/lv_style.h ****     LV_STYLE_PROP_INIT(LV_STYLE_PATTERN_OPA,           0x6, LV_STYLE_ID_OPA   + 0, LV_STYLE_ATTR_NO
 148:lvgl\src\lv_core/lv_style.h ****     LV_STYLE_PROP_INIT(LV_STYLE_PATTERN_RECOLOR_OPA,   0x6, LV_STYLE_ID_OPA   + 1, LV_STYLE_ATTR_NO
 149:lvgl\src\lv_core/lv_style.h ****     LV_STYLE_PROP_INIT(LV_STYLE_PATTERN_IMAGE,         0x6, LV_STYLE_ID_PTR   + 0, LV_STYLE_ATTR_NO
 150:lvgl\src\lv_core/lv_style.h **** 
 151:lvgl\src\lv_core/lv_style.h ****     LV_STYLE_PROP_INIT(LV_STYLE_VALUE_LETTER_SPACE,  0x7, LV_STYLE_ID_VALUE + 0, LV_STYLE_ATTR_NONE
 152:lvgl\src\lv_core/lv_style.h ****     LV_STYLE_PROP_INIT(LV_STYLE_VALUE_LINE_SPACE,    0x7, LV_STYLE_ID_VALUE + 1, LV_STYLE_ATTR_NONE
 153:lvgl\src\lv_core/lv_style.h ****     LV_STYLE_PROP_INIT(LV_STYLE_VALUE_BLEND_MODE,    0x7, LV_STYLE_ID_VALUE + 2, LV_STYLE_ATTR_NONE
 154:lvgl\src\lv_core/lv_style.h ****     LV_STYLE_PROP_INIT(LV_STYLE_VALUE_OFS_X,         0x7, LV_STYLE_ID_VALUE + 3, LV_STYLE_ATTR_NONE
 155:lvgl\src\lv_core/lv_style.h ****     LV_STYLE_PROP_INIT(LV_STYLE_VALUE_OFS_Y,         0x7, LV_STYLE_ID_VALUE + 4, LV_STYLE_ATTR_NONE
 156:lvgl\src\lv_core/lv_style.h ****     LV_STYLE_PROP_INIT(LV_STYLE_VALUE_ALIGN,         0x7, LV_STYLE_ID_VALUE + 5, LV_STYLE_ATTR_NONE
 157:lvgl\src\lv_core/lv_style.h ****     LV_STYLE_PROP_INIT(LV_STYLE_VALUE_COLOR,         0x7, LV_STYLE_ID_COLOR + 0, LV_STYLE_ATTR_NONE
 158:lvgl\src\lv_core/lv_style.h ****     LV_STYLE_PROP_INIT(LV_STYLE_VALUE_OPA,           0x7, LV_STYLE_ID_OPA   + 0, LV_STYLE_ATTR_NONE
 159:lvgl\src\lv_core/lv_style.h ****     LV_STYLE_PROP_INIT(LV_STYLE_VALUE_FONT,          0x7, LV_STYLE_ID_PTR   + 0, LV_STYLE_ATTR_NONE
 160:lvgl\src\lv_core/lv_style.h ****     LV_STYLE_PROP_INIT(LV_STYLE_VALUE_STR,           0x7, LV_STYLE_ID_PTR   + 1, LV_STYLE_ATTR_NONE
 161:lvgl\src\lv_core/lv_style.h **** 
 162:lvgl\src\lv_core/lv_style.h ****     LV_STYLE_PROP_INIT(LV_STYLE_TEXT_LETTER_SPACE,   0x8, LV_STYLE_ID_VALUE + 0, LV_STYLE_ATTR_INHE
 163:lvgl\src\lv_core/lv_style.h ****     LV_STYLE_PROP_INIT(LV_STYLE_TEXT_LINE_SPACE,     0x8, LV_STYLE_ID_VALUE + 1, LV_STYLE_ATTR_INHE
 164:lvgl\src\lv_core/lv_style.h ****     LV_STYLE_PROP_INIT(LV_STYLE_TEXT_DECOR,          0x8, LV_STYLE_ID_VALUE + 2, LV_STYLE_ATTR_INHE
 165:lvgl\src\lv_core/lv_style.h ****     LV_STYLE_PROP_INIT(LV_STYLE_TEXT_BLEND_MODE,     0x8, LV_STYLE_ID_VALUE + 3, LV_STYLE_ATTR_INHE
 166:lvgl\src\lv_core/lv_style.h ****     LV_STYLE_PROP_INIT(LV_STYLE_TEXT_COLOR,          0x8, LV_STYLE_ID_COLOR + 0, LV_STYLE_ATTR_INHE
 167:lvgl\src\lv_core/lv_style.h ****     LV_STYLE_PROP_INIT(LV_STYLE_TEXT_SEL_COLOR,      0x8, LV_STYLE_ID_COLOR + 1, LV_STYLE_ATTR_INHE
 168:lvgl\src\lv_core/lv_style.h ****     LV_STYLE_PROP_INIT(LV_STYLE_TEXT_SEL_BG_COLOR,   0x8, LV_STYLE_ID_COLOR + 2, LV_STYLE_ATTR_INHE
 169:lvgl\src\lv_core/lv_style.h ****     LV_STYLE_PROP_INIT(LV_STYLE_TEXT_OPA,            0x8, LV_STYLE_ID_OPA   + 0, LV_STYLE_ATTR_INHE
 170:lvgl\src\lv_core/lv_style.h ****     LV_STYLE_PROP_INIT(LV_STYLE_TEXT_FONT,           0x8, LV_STYLE_ID_PTR   + 0, LV_STYLE_ATTR_INHE
 171:lvgl\src\lv_core/lv_style.h **** 
 172:lvgl\src\lv_core/lv_style.h ****     LV_STYLE_PROP_INIT(LV_STYLE_LINE_WIDTH,         0x9, LV_STYLE_ID_VALUE + 0, LV_STYLE_ATTR_NONE)
 173:lvgl\src\lv_core/lv_style.h ****     LV_STYLE_PROP_INIT(LV_STYLE_LINE_BLEND_MODE,    0x9, LV_STYLE_ID_VALUE + 1, LV_STYLE_ATTR_NONE)
 174:lvgl\src\lv_core/lv_style.h ****     LV_STYLE_PROP_INIT(LV_STYLE_LINE_DASH_WIDTH,    0x9, LV_STYLE_ID_VALUE + 2, LV_STYLE_ATTR_NONE)
 175:lvgl\src\lv_core/lv_style.h ****     LV_STYLE_PROP_INIT(LV_STYLE_LINE_DASH_GAP,      0x9, LV_STYLE_ID_VALUE + 3, LV_STYLE_ATTR_NONE)
 176:lvgl\src\lv_core/lv_style.h ****     LV_STYLE_PROP_INIT(LV_STYLE_LINE_ROUNDED,       0x9, LV_STYLE_ID_VALUE + 4, LV_STYLE_ATTR_NONE)
 177:lvgl\src\lv_core/lv_style.h ****     LV_STYLE_PROP_INIT(LV_STYLE_LINE_COLOR,         0x9, LV_STYLE_ID_COLOR + 0, LV_STYLE_ATTR_NONE)
 178:lvgl\src\lv_core/lv_style.h ****     LV_STYLE_PROP_INIT(LV_STYLE_LINE_OPA,           0x9, LV_STYLE_ID_OPA   + 0, LV_STYLE_ATTR_NONE)
 179:lvgl\src\lv_core/lv_style.h **** 
 180:lvgl\src\lv_core/lv_style.h ****     LV_STYLE_PROP_INIT(LV_STYLE_IMAGE_BLEND_MODE,   0xA, LV_STYLE_ID_VALUE + 0, LV_STYLE_ATTR_INHER
 181:lvgl\src\lv_core/lv_style.h ****     LV_STYLE_PROP_INIT(LV_STYLE_IMAGE_RECOLOR,      0xA, LV_STYLE_ID_COLOR + 0, LV_STYLE_ATTR_INHER
 182:lvgl\src\lv_core/lv_style.h ****     LV_STYLE_PROP_INIT(LV_STYLE_IMAGE_OPA,          0xA, LV_STYLE_ID_OPA   + 0, LV_STYLE_ATTR_INHER
 183:lvgl\src\lv_core/lv_style.h ****     LV_STYLE_PROP_INIT(LV_STYLE_IMAGE_RECOLOR_OPA,  0xA, LV_STYLE_ID_OPA   + 1, LV_STYLE_ATTR_INHER
 184:lvgl\src\lv_core/lv_style.h **** 
 185:lvgl\src\lv_core/lv_style.h ****     LV_STYLE_PROP_INIT(LV_STYLE_TRANSITION_TIME,    0xB, LV_STYLE_ID_VALUE + 0, LV_STYLE_ATTR_NONE)
ARM GAS  C:\Users\strap\AppData\Local\Temp\cc7bAV43.s 			page 31


 186:lvgl\src\lv_core/lv_style.h ****     LV_STYLE_PROP_INIT(LV_STYLE_TRANSITION_DELAY,   0xB, LV_STYLE_ID_VALUE + 1, LV_STYLE_ATTR_NONE)
 187:lvgl\src\lv_core/lv_style.h ****     LV_STYLE_PROP_INIT(LV_STYLE_TRANSITION_PROP_1,  0xB, LV_STYLE_ID_VALUE + 2, LV_STYLE_ATTR_NONE)
 188:lvgl\src\lv_core/lv_style.h ****     LV_STYLE_PROP_INIT(LV_STYLE_TRANSITION_PROP_2,  0xB, LV_STYLE_ID_VALUE + 3, LV_STYLE_ATTR_NONE)
 189:lvgl\src\lv_core/lv_style.h ****     LV_STYLE_PROP_INIT(LV_STYLE_TRANSITION_PROP_3,  0xB, LV_STYLE_ID_VALUE + 4, LV_STYLE_ATTR_NONE)
 190:lvgl\src\lv_core/lv_style.h ****     LV_STYLE_PROP_INIT(LV_STYLE_TRANSITION_PROP_4,  0xB, LV_STYLE_ID_VALUE + 5, LV_STYLE_ATTR_NONE)
 191:lvgl\src\lv_core/lv_style.h ****     LV_STYLE_PROP_INIT(LV_STYLE_TRANSITION_PROP_5,  0xB, LV_STYLE_ID_VALUE + 6, LV_STYLE_ATTR_NONE)
 192:lvgl\src\lv_core/lv_style.h ****     LV_STYLE_PROP_INIT(LV_STYLE_TRANSITION_PROP_6,  0xB, LV_STYLE_ID_VALUE + 7, LV_STYLE_ATTR_NONE)
 193:lvgl\src\lv_core/lv_style.h ****     LV_STYLE_PROP_INIT(LV_STYLE_TRANSITION_PATH,    0xB, LV_STYLE_ID_PTR + 0, LV_STYLE_ATTR_NONE),
 194:lvgl\src\lv_core/lv_style.h **** 
 195:lvgl\src\lv_core/lv_style.h ****     LV_STYLE_PROP_INIT(LV_STYLE_SCALE_WIDTH,            0xC, LV_STYLE_ID_VALUE + 0, LV_STYLE_ATTR_N
 196:lvgl\src\lv_core/lv_style.h ****     LV_STYLE_PROP_INIT(LV_STYLE_SCALE_BORDER_WIDTH,     0xC, LV_STYLE_ID_VALUE + 1, LV_STYLE_ATTR_N
 197:lvgl\src\lv_core/lv_style.h ****     LV_STYLE_PROP_INIT(LV_STYLE_SCALE_END_BORDER_WIDTH, 0xC, LV_STYLE_ID_VALUE + 2, LV_STYLE_ATTR_N
 198:lvgl\src\lv_core/lv_style.h ****     LV_STYLE_PROP_INIT(LV_STYLE_SCALE_END_LINE_WIDTH,   0xC, LV_STYLE_ID_VALUE + 3, LV_STYLE_ATTR_N
 199:lvgl\src\lv_core/lv_style.h ****     LV_STYLE_PROP_INIT(LV_STYLE_SCALE_GRAD_COLOR,       0xC, LV_STYLE_ID_COLOR + 0, LV_STYLE_ATTR_N
 200:lvgl\src\lv_core/lv_style.h ****     LV_STYLE_PROP_INIT(LV_STYLE_SCALE_END_COLOR,        0xC, LV_STYLE_ID_COLOR + 1, LV_STYLE_ATTR_N
 201:lvgl\src\lv_core/lv_style.h **** };
 202:lvgl\src\lv_core/lv_style.h **** 
 203:lvgl\src\lv_core/lv_style.h **** typedef uint16_t lv_style_property_t;
 204:lvgl\src\lv_core/lv_style.h **** 
 205:lvgl\src\lv_core/lv_style.h **** #define LV_STYLE_STATE_POS       8
 206:lvgl\src\lv_core/lv_style.h **** #define LV_STYLE_STATE_MASK      0x7F00
 207:lvgl\src\lv_core/lv_style.h **** #define LV_STYLE_INHERIT_MASK    0x8000
 208:lvgl\src\lv_core/lv_style.h **** 
 209:lvgl\src\lv_core/lv_style.h **** typedef uint16_t lv_style_state_t;
 210:lvgl\src\lv_core/lv_style.h **** 
 211:lvgl\src\lv_core/lv_style.h **** typedef struct {
 212:lvgl\src\lv_core/lv_style.h ****     uint8_t * map;
 213:lvgl\src\lv_core/lv_style.h **** #if LV_USE_ASSERT_STYLE
 214:lvgl\src\lv_core/lv_style.h ****     uint32_t sentinel;
 215:lvgl\src\lv_core/lv_style.h **** #endif
 216:lvgl\src\lv_core/lv_style.h **** } lv_style_t;
 217:lvgl\src\lv_core/lv_style.h **** 
 218:lvgl\src\lv_core/lv_style.h **** typedef int16_t lv_style_int_t;
 219:lvgl\src\lv_core/lv_style.h **** 
 220:lvgl\src\lv_core/lv_style.h **** typedef struct {
 221:lvgl\src\lv_core/lv_style.h ****     lv_style_t ** style_list;
 222:lvgl\src\lv_core/lv_style.h **** #if LV_USE_ASSERT_STYLE
 223:lvgl\src\lv_core/lv_style.h ****     uint32_t sentinel;
 224:lvgl\src\lv_core/lv_style.h **** #endif
 225:lvgl\src\lv_core/lv_style.h ****     uint32_t style_cnt     : 6;
 226:lvgl\src\lv_core/lv_style.h ****     uint32_t has_local     : 1;
 227:lvgl\src\lv_core/lv_style.h ****     uint32_t has_trans     : 1;
 228:lvgl\src\lv_core/lv_style.h ****     uint32_t skip_trans    : 1;      /*1: Temporally skip the transition style if any*/
 229:lvgl\src\lv_core/lv_style.h ****     uint32_t ignore_trans  : 1;      /*1: Mark that this style list shouldn't receive transitions a
 230:lvgl\src\lv_core/lv_style.h ****     uint32_t valid_cache   : 1;      /*1: The cache is valid and can be used*/
 231:lvgl\src\lv_core/lv_style.h ****     uint32_t ignore_cache  : 1;      /*1: Ignore cache while getting value of properties*/
 232:lvgl\src\lv_core/lv_style.h **** 
 233:lvgl\src\lv_core/lv_style.h ****     uint32_t radius_zero : 1;
 234:lvgl\src\lv_core/lv_style.h ****     uint32_t opa_scale_cover      : 1;
 235:lvgl\src\lv_core/lv_style.h ****     uint32_t clip_corner_off       : 1;
 236:lvgl\src\lv_core/lv_style.h ****     uint32_t transform_all_zero  : 1;
 237:lvgl\src\lv_core/lv_style.h ****     uint32_t pad_all_zero : 1;
 238:lvgl\src\lv_core/lv_style.h ****     uint32_t margin_all_zero : 1;
 239:lvgl\src\lv_core/lv_style.h ****     uint32_t blend_mode_all_normal : 1;
 240:lvgl\src\lv_core/lv_style.h ****     uint32_t bg_opa_transp : 1;
 241:lvgl\src\lv_core/lv_style.h ****     uint32_t bg_opa_cover : 1;
 242:lvgl\src\lv_core/lv_style.h **** 
ARM GAS  C:\Users\strap\AppData\Local\Temp\cc7bAV43.s 			page 32


 243:lvgl\src\lv_core/lv_style.h ****     uint32_t border_width_zero : 1;
 244:lvgl\src\lv_core/lv_style.h ****     uint32_t border_side_full : 1;
 245:lvgl\src\lv_core/lv_style.h ****     uint32_t border_post_off : 1;
 246:lvgl\src\lv_core/lv_style.h **** 
 247:lvgl\src\lv_core/lv_style.h ****     uint32_t outline_width_zero : 1;
 248:lvgl\src\lv_core/lv_style.h ****     uint32_t pattern_img_null : 1;
 249:lvgl\src\lv_core/lv_style.h ****     uint32_t shadow_width_zero : 1;
 250:lvgl\src\lv_core/lv_style.h ****     uint32_t value_txt_str : 1;
 251:lvgl\src\lv_core/lv_style.h ****     uint32_t img_recolor_opa_transp : 1;
 252:lvgl\src\lv_core/lv_style.h **** 
 253:lvgl\src\lv_core/lv_style.h ****     uint32_t text_space_zero : 1;
 254:lvgl\src\lv_core/lv_style.h ****     uint32_t text_decor_none : 1;
 255:lvgl\src\lv_core/lv_style.h ****     uint32_t text_font_normal : 1;
 256:lvgl\src\lv_core/lv_style.h **** } lv_style_list_t;
 257:lvgl\src\lv_core/lv_style.h **** 
 258:lvgl\src\lv_core/lv_style.h **** /**********************
 259:lvgl\src\lv_core/lv_style.h ****  * GLOBAL PROTOTYPES
 260:lvgl\src\lv_core/lv_style.h ****  **********************/
 261:lvgl\src\lv_core/lv_style.h **** 
 262:lvgl\src\lv_core/lv_style.h **** /**
 263:lvgl\src\lv_core/lv_style.h ****  * Initialize a style
 264:lvgl\src\lv_core/lv_style.h ****  * @param style pointer to a style to initialize
 265:lvgl\src\lv_core/lv_style.h ****  */
 266:lvgl\src\lv_core/lv_style.h **** void lv_style_init(lv_style_t * style);
 267:lvgl\src\lv_core/lv_style.h **** 
 268:lvgl\src\lv_core/lv_style.h **** /**
 269:lvgl\src\lv_core/lv_style.h ****  * Copy a style with all its properties
 270:lvgl\src\lv_core/lv_style.h ****  * @param style_dest pointer to the destination style. (Should be initialized with `lv_style_init()
 271:lvgl\src\lv_core/lv_style.h ****  * @param style_src pointer to the source (to copy )style
 272:lvgl\src\lv_core/lv_style.h ****  */
 273:lvgl\src\lv_core/lv_style.h **** void lv_style_copy(lv_style_t * style_dest, const lv_style_t * style_src);
 274:lvgl\src\lv_core/lv_style.h **** 
 275:lvgl\src\lv_core/lv_style.h **** /**
 276:lvgl\src\lv_core/lv_style.h ****  * Initialize a style list
 277:lvgl\src\lv_core/lv_style.h ****  * @param list a style list to initialize
 278:lvgl\src\lv_core/lv_style.h ****  */
 279:lvgl\src\lv_core/lv_style.h **** void lv_style_list_init(lv_style_list_t * list);
 280:lvgl\src\lv_core/lv_style.h **** 
 281:lvgl\src\lv_core/lv_style.h **** /**
 282:lvgl\src\lv_core/lv_style.h ****  * Copy a style list with all its styles and local style properties
 283:lvgl\src\lv_core/lv_style.h ****  * @param list_dest pointer to the destination style list. (should be initialized with `lv_style_li
 284:lvgl\src\lv_core/lv_style.h ****  * @param list_src pointer to the source (to copy) style list.
 285:lvgl\src\lv_core/lv_style.h ****  */
 286:lvgl\src\lv_core/lv_style.h **** void lv_style_list_copy(lv_style_list_t * list_dest, const lv_style_list_t * list_src);
 287:lvgl\src\lv_core/lv_style.h **** 
 288:lvgl\src\lv_core/lv_style.h **** /**
 289:lvgl\src\lv_core/lv_style.h ****  * Add a style to a style list.
 290:lvgl\src\lv_core/lv_style.h ****  * Only the the style pointer will be saved so the shouldn't be a local variable.
 291:lvgl\src\lv_core/lv_style.h ****  * (It should be static, global or dynamically allocated)
 292:lvgl\src\lv_core/lv_style.h ****  * @param list pointer to a style list
 293:lvgl\src\lv_core/lv_style.h ****  * @param style pointer to a style to add
 294:lvgl\src\lv_core/lv_style.h ****  */
 295:lvgl\src\lv_core/lv_style.h **** void _lv_style_list_add_style(lv_style_list_t * list, lv_style_t * style);
 296:lvgl\src\lv_core/lv_style.h **** 
 297:lvgl\src\lv_core/lv_style.h **** /**
 298:lvgl\src\lv_core/lv_style.h ****  * Remove a style from a style list
 299:lvgl\src\lv_core/lv_style.h ****  * @param style_list pointer to a style list
ARM GAS  C:\Users\strap\AppData\Local\Temp\cc7bAV43.s 			page 33


 300:lvgl\src\lv_core/lv_style.h ****  * @param style pointer to a style to remove
 301:lvgl\src\lv_core/lv_style.h ****  */
 302:lvgl\src\lv_core/lv_style.h **** void _lv_style_list_remove_style(lv_style_list_t * list, lv_style_t * style);
 303:lvgl\src\lv_core/lv_style.h **** 
 304:lvgl\src\lv_core/lv_style.h **** /**
 305:lvgl\src\lv_core/lv_style.h ****  * Remove all styles added from style list, clear the local style, transition style and free all al
 306:lvgl\src\lv_core/lv_style.h ****  * Leave `ignore_trans` flag as it is.
 307:lvgl\src\lv_core/lv_style.h ****  * @param list pointer to a style list.
 308:lvgl\src\lv_core/lv_style.h ****  */
 309:lvgl\src\lv_core/lv_style.h **** void _lv_style_list_reset(lv_style_list_t * style_list);
 310:lvgl\src\lv_core/lv_style.h **** 
 311:lvgl\src\lv_core/lv_style.h **** static inline lv_style_t * lv_style_list_get_style(lv_style_list_t * list, uint8_t id)
 312:lvgl\src\lv_core/lv_style.h **** {
 313:lvgl\src\lv_core/lv_style.h ****     if(list->has_trans && list->skip_trans) id++;
 391              		.loc 2 313 0 is_stmt 1 discriminator 1
 392 000c 8188     		ldrh	r1, [r0, #4]
 393 000e 01F4C071 		and	r1, r1, #384
 394 0012 B1F5C07F 		cmp	r1, #384
 395 0016 01D1     		bne	.L37
 396              		.loc 2 313 0 is_stmt 0
 397 0018 0133     		adds	r3, r3, #1
 398              	.LVL48:
 399 001a DBB2     		uxtb	r3, r3
 400              	.LVL49:
 401              	.L37:
 314:lvgl\src\lv_core/lv_style.h ****     if(list->style_cnt == 0 || id >= list->style_cnt) return NULL;
 402              		.loc 2 314 0 is_stmt 1
 403 001c 12F03F0F 		tst	r2, #63
 404 0020 08D0     		beq	.L42
 405 0022 0279     		ldrb	r2, [r0, #4]	@ zero_extendqisi2
 406 0024 02F03F02 		and	r2, r2, #63
 407 0028 9342     		cmp	r3, r2
 408 002a 05DA     		bge	.L43
 315:lvgl\src\lv_core/lv_style.h ****     return list->style_list[id];
 409              		.loc 2 315 0
 410 002c 0268     		ldr	r2, [r0]
 411 002e 52F82300 		ldr	r0, [r2, r3, lsl #2]
 412              	.LVL50:
 413 0032 38BD     		pop	{r3, r4, r5, pc}
 414              	.LVL51:
 415              	.L42:
 314:lvgl\src\lv_core/lv_style.h ****     if(list->style_cnt == 0 || id >= list->style_cnt) return NULL;
 416              		.loc 2 314 0
 417 0034 0020     		movs	r0, #0
 418              	.LVL52:
 419 0036 38BD     		pop	{r3, r4, r5, pc}
 420              	.LVL53:
 421              	.L43:
 422 0038 0020     		movs	r0, #0
 423              	.LVL54:
 424              	.LBE142:
 425              	.LBE141:
 426              		.loc 1 1108 0
 427 003a 38BD     		pop	{r3, r4, r5, pc}
 428              	.LVL55:
 429              	.L36:
 430 003c 0546     		mov	r5, r0
ARM GAS  C:\Users\strap\AppData\Local\Temp\cc7bAV43.s 			page 34


1109:lvgl\src\lv_core/lv_style.c **** 
1110:lvgl\src\lv_core/lv_style.c ****     lv_style_t * local_style = lv_mem_alloc(sizeof(lv_style_t));
 431              		.loc 1 1110 0
 432 003e 0420     		movs	r0, #4
 433              	.LVL56:
 434 0040 FFF7FEFF 		bl	lv_mem_alloc
 435              	.LVL57:
 436 0044 0446     		mov	r4, r0
 437              	.LVL58:
1111:lvgl\src\lv_core/lv_style.c ****     LV_ASSERT_MEM(local_style);
 438              		.loc 1 1111 0
 439 0046 FFF7FEFF 		bl	lv_debug_check_null
 440              	.LVL59:
 441 004a 28B9     		cbnz	r0, .L40
 442              		.loc 1 1111 0 is_stmt 0 discriminator 1
 443 004c 2246     		mov	r2, r4
 444 004e 0023     		movs	r3, #0
 445 0050 0948     		ldr	r0, .L46
 446 0052 FFF7FEFF 		bl	lv_debug_log_error
 447              	.LVL60:
 448              	.L41:
 449 0056 FEE7     		b	.L41
 450              	.L40:
1112:lvgl\src\lv_core/lv_style.c ****     if(local_style == NULL) {
 451              		.loc 1 1112 0 is_stmt 1
 452 0058 64B1     		cbz	r4, .L44
1113:lvgl\src\lv_core/lv_style.c ****         LV_LOG_WARN("get_local_style: couldn't create local style");
1114:lvgl\src\lv_core/lv_style.c ****         return NULL;
1115:lvgl\src\lv_core/lv_style.c ****     }
1116:lvgl\src\lv_core/lv_style.c ****     lv_style_init(local_style);
 453              		.loc 1 1116 0
 454 005a 2046     		mov	r0, r4
 455 005c FFF7FEFF 		bl	lv_style_init
 456              	.LVL61:
1117:lvgl\src\lv_core/lv_style.c **** 
1118:lvgl\src\lv_core/lv_style.c ****     /*Add the local style to the first place*/
1119:lvgl\src\lv_core/lv_style.c ****     _lv_style_list_add_style(list, local_style);
 457              		.loc 1 1119 0
 458 0060 2146     		mov	r1, r4
 459 0062 2846     		mov	r0, r5
 460 0064 FFF7FEFF 		bl	_lv_style_list_add_style
 461              	.LVL62:
1120:lvgl\src\lv_core/lv_style.c ****     list->has_local = 1;
 462              		.loc 1 1120 0
 463 0068 2B79     		ldrb	r3, [r5, #4]	@ zero_extendqisi2
 464 006a 43F04003 		orr	r3, r3, #64
 465 006e 2B71     		strb	r3, [r5, #4]
1121:lvgl\src\lv_core/lv_style.c **** 
1122:lvgl\src\lv_core/lv_style.c ****     return local_style;
 466              		.loc 1 1122 0
 467 0070 2046     		mov	r0, r4
 468 0072 38BD     		pop	{r3, r4, r5, pc}
 469              	.LVL63:
 470              	.L44:
1114:lvgl\src\lv_core/lv_style.c ****     }
 471              		.loc 1 1114 0
 472 0074 0020     		movs	r0, #0
ARM GAS  C:\Users\strap\AppData\Local\Temp\cc7bAV43.s 			page 35


1123:lvgl\src\lv_core/lv_style.c **** }
 473              		.loc 1 1123 0
 474 0076 38BD     		pop	{r3, r4, r5, pc}
 475              	.LVL64:
 476              	.L47:
 477              		.align	2
 478              	.L46:
 479 0078 00000000 		.word	.LC0
 480              		.cfi_endproc
 481              	.LFE360:
 482              		.size	get_alloc_local_style, .-get_alloc_local_style
 483              		.section	.text.lv_style_reset,"ax",%progbits
 484              		.align	2
 485              		.global	lv_style_reset
 486              		.thumb
 487              		.thumb_func
 488              		.type	lv_style_reset, %function
 489              	lv_style_reset:
 490              	.LFB336:
 323:lvgl\src\lv_core/lv_style.c ****     LV_ASSERT_STYLE(style);
 491              		.loc 1 323 0
 492              		.cfi_startproc
 493              		@ args = 0, pretend = 0, frame = 0
 494              		@ frame_needed = 0, uses_anonymous_args = 0
 495              	.LVL65:
 496 0000 10B5     		push	{r4, lr}
 497              		.cfi_def_cfa_offset 8
 498              		.cfi_offset 4, -8
 499              		.cfi_offset 14, -4
 500 0002 0446     		mov	r4, r0
 326:lvgl\src\lv_core/lv_style.c ****     style->map = NULL;
 501              		.loc 1 326 0
 502 0004 0068     		ldr	r0, [r0]
 503              	.LVL66:
 504 0006 FFF7FEFF 		bl	lv_mem_free
 505              	.LVL67:
 327:lvgl\src\lv_core/lv_style.c **** }
 506              		.loc 1 327 0
 507 000a 0023     		movs	r3, #0
 508 000c 2360     		str	r3, [r4]
 509 000e 10BD     		pop	{r4, pc}
 510              		.cfi_endproc
 511              	.LFE336:
 512              		.size	lv_style_reset, .-lv_style_reset
 513              		.section	.text._lv_style_get_mem_size,"ax",%progbits
 514              		.align	2
 515              		.global	_lv_style_get_mem_size
 516              		.thumb
 517              		.thumb_func
 518              		.type	_lv_style_get_mem_size, %function
 519              	_lv_style_get_mem_size:
 520              	.LFB337:
 336:lvgl\src\lv_core/lv_style.c ****     LV_ASSERT_STYLE(style);
 521              		.loc 1 336 0
 522              		.cfi_startproc
 523              		@ args = 0, pretend = 0, frame = 8
 524              		@ frame_needed = 0, uses_anonymous_args = 0
ARM GAS  C:\Users\strap\AppData\Local\Temp\cc7bAV43.s 			page 36


 525              		@ link register save eliminated.
 526              	.LVL68:
 339:lvgl\src\lv_core/lv_style.c **** 
 527              		.loc 1 339 0
 528 0000 0368     		ldr	r3, [r0]
 529 0002 03B3     		cbz	r3, .L55
 336:lvgl\src\lv_core/lv_style.c ****     LV_ASSERT_STYLE(style);
 530              		.loc 1 336 0
 531 0004 82B0     		sub	sp, sp, #8
 532              		.cfi_def_cfa_offset 8
 533 0006 0022     		movs	r2, #0
 534 0008 0FE0     		b	.L52
 535              	.LVL69:
 536              	.L54:
 537              	.LBB143:
 538              	.LBB144:
 539              	.LBB145:
 540              	.LBB146:
1124:lvgl\src\lv_core/lv_style.c **** 
1125:lvgl\src\lv_core/lv_style.c **** /**
1126:lvgl\src\lv_core/lv_style.c ****  * Resizes a style map. Useful entry point for debugging.
1127:lvgl\src\lv_core/lv_style.c ****  * @param style pointer to the style to be resized.
1128:lvgl\src\lv_core/lv_style.c ****  * @param size new size
1129:lvgl\src\lv_core/lv_style.c ****  */
1130:lvgl\src\lv_core/lv_style.c **** static inline void style_resize(lv_style_t * style, size_t sz)
1131:lvgl\src\lv_core/lv_style.c **** {
1132:lvgl\src\lv_core/lv_style.c ****     style->map = lv_mem_realloc(style->map, sz);
1133:lvgl\src\lv_core/lv_style.c **** }
1134:lvgl\src\lv_core/lv_style.c **** 
1135:lvgl\src\lv_core/lv_style.c **** /**
1136:lvgl\src\lv_core/lv_style.c ****  * Get style property in index.
1137:lvgl\src\lv_core/lv_style.c ****  * @param style pointer to style.
1138:lvgl\src\lv_core/lv_style.c ****  * @param idx index of the style in style->map
1139:lvgl\src\lv_core/lv_style.c ****  * @return property in style->map + idx
1140:lvgl\src\lv_core/lv_style.c ****  */
1141:lvgl\src\lv_core/lv_style.c **** static inline lv_style_property_t get_style_prop(const lv_style_t * style, size_t idx)
1142:lvgl\src\lv_core/lv_style.c **** {
1143:lvgl\src\lv_core/lv_style.c ****     lv_style_property_t prop;
1144:lvgl\src\lv_core/lv_style.c ****     uint8_t * prop_p = (uint8_t *)&prop;
1145:lvgl\src\lv_core/lv_style.c ****     prop_p[0] = style->map[idx];
1146:lvgl\src\lv_core/lv_style.c ****     prop_p[1] = style->map[idx + 1];
1147:lvgl\src\lv_core/lv_style.c ****     return prop;
1148:lvgl\src\lv_core/lv_style.c **** }
1149:lvgl\src\lv_core/lv_style.c **** 
1150:lvgl\src\lv_core/lv_style.c **** /**
1151:lvgl\src\lv_core/lv_style.c ****  * Get style property id in index.
1152:lvgl\src\lv_core/lv_style.c ****  * @param style pointer to style.
1153:lvgl\src\lv_core/lv_style.c ****  * @param idx index of the style in style->map
1154:lvgl\src\lv_core/lv_style.c ****  * @return id of property in style->map + idx
1155:lvgl\src\lv_core/lv_style.c ****  */
1156:lvgl\src\lv_core/lv_style.c **** static inline uint8_t get_style_prop_id(const lv_style_t * style, size_t idx)
1157:lvgl\src\lv_core/lv_style.c **** {
1158:lvgl\src\lv_core/lv_style.c ****     return get_style_prop(style, idx) & 0xFF;
1159:lvgl\src\lv_core/lv_style.c **** }
1160:lvgl\src\lv_core/lv_style.c **** 
1161:lvgl\src\lv_core/lv_style.c **** /**
1162:lvgl\src\lv_core/lv_style.c ****  * Get style property attributes for index.
ARM GAS  C:\Users\strap\AppData\Local\Temp\cc7bAV43.s 			page 37


1163:lvgl\src\lv_core/lv_style.c ****  * @param style pointer to style.
1164:lvgl\src\lv_core/lv_style.c ****  * @param idx index of the style in style->map
1165:lvgl\src\lv_core/lv_style.c ****  * @return attribute of property in style->map + idx
1166:lvgl\src\lv_core/lv_style.c ****  */
1167:lvgl\src\lv_core/lv_style.c **** static inline uint8_t get_style_prop_attr(const lv_style_t * style, size_t idx)
1168:lvgl\src\lv_core/lv_style.c **** {
1169:lvgl\src\lv_core/lv_style.c ****     return ((get_style_prop(style, idx) >> 8) & 0xFFU);
1170:lvgl\src\lv_core/lv_style.c **** }
1171:lvgl\src\lv_core/lv_style.c **** 
1172:lvgl\src\lv_core/lv_style.c **** 
1173:lvgl\src\lv_core/lv_style.c **** /**
1174:lvgl\src\lv_core/lv_style.c ****  * Get property size.
1175:lvgl\src\lv_core/lv_style.c ****  * @param prop_id property id.
1176:lvgl\src\lv_core/lv_style.c ****  * @param idx index of the style in style->map
1177:lvgl\src\lv_core/lv_style.c ****  * @return attribute of property in style->map + idx
1178:lvgl\src\lv_core/lv_style.c ****  */
1179:lvgl\src\lv_core/lv_style.c **** static inline size_t get_prop_size(uint8_t prop_id)
1180:lvgl\src\lv_core/lv_style.c **** {
1181:lvgl\src\lv_core/lv_style.c ****     prop_id &= 0xF;
 541              		.loc 1 1181 0
 542 000a 03F00F03 		and	r3, r3, #15
 543              	.LVL70:
1182:lvgl\src\lv_core/lv_style.c ****     size_t size = sizeof(lv_style_property_t);
1183:lvgl\src\lv_core/lv_style.c ****     if(prop_id < LV_STYLE_ID_COLOR) size += sizeof(lv_style_int_t);
 544              		.loc 1 1183 0
 545 000e 082B     		cmp	r3, #8
 546 0010 05D9     		bls	.L56
1184:lvgl\src\lv_core/lv_style.c ****     else if(prop_id < LV_STYLE_ID_OPA) size += sizeof(lv_color_t);
 547              		.loc 1 1184 0
 548 0012 0B2B     		cmp	r3, #11
 549 0014 05D9     		bls	.L57
1185:lvgl\src\lv_core/lv_style.c ****     else if(prop_id < LV_STYLE_ID_PTR) size += sizeof(lv_opa_t);
 550              		.loc 1 1185 0
 551 0016 0D2B     		cmp	r3, #13
 552 0018 05D8     		bhi	.L58
 553 001a 0323     		movs	r3, #3
 554              	.LVL71:
 555 001c 04E0     		b	.L53
 556              	.LVL72:
 557              	.L56:
1183:lvgl\src\lv_core/lv_style.c ****     else if(prop_id < LV_STYLE_ID_OPA) size += sizeof(lv_color_t);
 558              		.loc 1 1183 0
 559 001e 0423     		movs	r3, #4
 560              	.LVL73:
 561 0020 02E0     		b	.L53
 562              	.LVL74:
 563              	.L57:
1184:lvgl\src\lv_core/lv_style.c ****     else if(prop_id < LV_STYLE_ID_OPA) size += sizeof(lv_color_t);
 564              		.loc 1 1184 0
 565 0022 0423     		movs	r3, #4
 566              	.LVL75:
 567 0024 00E0     		b	.L53
 568              	.LVL76:
 569              	.L58:
1186:lvgl\src\lv_core/lv_style.c ****     else size += sizeof(const void *);
 570              		.loc 1 1186 0
 571 0026 0623     		movs	r3, #6
ARM GAS  C:\Users\strap\AppData\Local\Temp\cc7bAV43.s 			page 38


 572              	.LVL77:
 573              	.L53:
 574              	.LBE146:
 575              	.LBE145:
1187:lvgl\src\lv_core/lv_style.c ****     return size;
1188:lvgl\src\lv_core/lv_style.c **** }
1189:lvgl\src\lv_core/lv_style.c **** 
1190:lvgl\src\lv_core/lv_style.c **** /**
1191:lvgl\src\lv_core/lv_style.c ****  * Get next property index, given current property and index.
1192:lvgl\src\lv_core/lv_style.c ****  * @param prop_id property id.
1193:lvgl\src\lv_core/lv_style.c ****  * @param idx index of the style in style->map
1194:lvgl\src\lv_core/lv_style.c ****  * @return index of next property in style->map
1195:lvgl\src\lv_core/lv_style.c ****  */
1196:lvgl\src\lv_core/lv_style.c **** static inline size_t get_next_prop_index(uint8_t prop_id, size_t idx)
1197:lvgl\src\lv_core/lv_style.c **** {
1198:lvgl\src\lv_core/lv_style.c ****     return idx + get_prop_size(prop_id);
 576              		.loc 1 1198 0
 577 0028 1A44     		add	r2, r2, r3
 578              	.LVL78:
 579              	.L52:
 580              	.LBE144:
 581              	.LBE143:
 582              	.LBB147:
 583              	.LBB148:
 584              	.LBB149:
 585              	.LBB150:
1145:lvgl\src\lv_core/lv_style.c ****     prop_p[1] = style->map[idx + 1];
 586              		.loc 1 1145 0
 587 002a 0368     		ldr	r3, [r0]
 588 002c 995C     		ldrb	r1, [r3, r2]	@ zero_extendqisi2
 589 002e 8DF80610 		strb	r1, [sp, #6]
1146:lvgl\src\lv_core/lv_style.c ****     return prop;
 590              		.loc 1 1146 0
 591 0032 1344     		add	r3, r3, r2
 592 0034 5B78     		ldrb	r3, [r3, #1]	@ zero_extendqisi2
 593 0036 8DF80730 		strb	r3, [sp, #7]
 594              	.LVL79:
 595              	.LBE150:
 596              	.LBE149:
1158:lvgl\src\lv_core/lv_style.c **** }
 597              		.loc 1 1158 0
 598 003a CBB2     		uxtb	r3, r1
 599              	.LVL80:
 600              	.LBE148:
 601              	.LBE147:
 343:lvgl\src\lv_core/lv_style.c ****         i = get_next_prop_index(prop_id, i);
 602              		.loc 1 343 0
 603 003c FF2B     		cmp	r3, #255
 604 003e E4D1     		bne	.L54
 347:lvgl\src\lv_core/lv_style.c **** }
 605              		.loc 1 347 0
 606 0040 901C     		adds	r0, r2, #2
 607              	.LVL81:
 608 0042 80B2     		uxth	r0, r0
 609 0044 01E0     		b	.L51
 610              	.LVL82:
 611              	.L55:
ARM GAS  C:\Users\strap\AppData\Local\Temp\cc7bAV43.s 			page 39


 612              		.cfi_def_cfa_offset 0
 339:lvgl\src\lv_core/lv_style.c **** 
 613              		.loc 1 339 0
 614 0046 0020     		movs	r0, #0
 615              	.LVL83:
 616 0048 7047     		bx	lr
 617              	.LVL84:
 618              	.L51:
 619              		.cfi_def_cfa_offset 8
 348:lvgl\src\lv_core/lv_style.c **** 
 620              		.loc 1 348 0
 621 004a 02B0     		add	sp, sp, #8
 622              		.cfi_def_cfa_offset 0
 623              	.LVL85:
 624              		@ sp needed
 625 004c 7047     		bx	lr
 626              		.cfi_endproc
 627              	.LFE337:
 628              		.size	_lv_style_get_mem_size, .-_lv_style_get_mem_size
 629 004e 00BF     		.section	.text.lv_style_copy,"ax",%progbits
 630              		.align	2
 631              		.global	lv_style_copy
 632              		.thumb
 633              		.thumb_func
 634              		.type	lv_style_copy, %function
 635              	lv_style_copy:
 636              	.LFB329:
  80:lvgl\src\lv_core/lv_style.c ****     if(style_src == NULL) return;
 637              		.loc 1 80 0
 638              		.cfi_startproc
 639              		@ args = 0, pretend = 0, frame = 0
 640              		@ frame_needed = 0, uses_anonymous_args = 0
 641              	.LVL86:
  81:lvgl\src\lv_core/lv_style.c **** 
 642              		.loc 1 81 0
 643 0000 81B1     		cbz	r1, .L64
  86:lvgl\src\lv_core/lv_style.c **** 
 644              		.loc 1 86 0
 645 0002 0A68     		ldr	r2, [r1]
 646 0004 72B1     		cbz	r2, .L64
  80:lvgl\src\lv_core/lv_style.c ****     if(style_src == NULL) return;
 647              		.loc 1 80 0
 648 0006 70B5     		push	{r4, r5, r6, lr}
 649              		.cfi_def_cfa_offset 16
 650              		.cfi_offset 4, -16
 651              		.cfi_offset 5, -12
 652              		.cfi_offset 6, -8
 653              		.cfi_offset 14, -4
 654 0008 0C46     		mov	r4, r1
 655 000a 0546     		mov	r5, r0
  88:lvgl\src\lv_core/lv_style.c ****     style_dest->map = lv_mem_alloc(size);
 656              		.loc 1 88 0
 657 000c 0846     		mov	r0, r1
 658              	.LVL87:
 659 000e FFF7FEFF 		bl	_lv_style_get_mem_size
 660              	.LVL88:
 661 0012 0646     		mov	r6, r0
ARM GAS  C:\Users\strap\AppData\Local\Temp\cc7bAV43.s 			page 40


 662              	.LVL89:
  89:lvgl\src\lv_core/lv_style.c ****     _lv_memcpy(style_dest->map, style_src->map, size);
 663              		.loc 1 89 0
 664 0014 FFF7FEFF 		bl	lv_mem_alloc
 665              	.LVL90:
 666 0018 2860     		str	r0, [r5]
  90:lvgl\src\lv_core/lv_style.c **** }
 667              		.loc 1 90 0
 668 001a 3246     		mov	r2, r6
 669 001c 2168     		ldr	r1, [r4]
 670 001e FFF7FEFF 		bl	_lv_memcpy
 671              	.LVL91:
 672 0022 70BD     		pop	{r4, r5, r6, pc}
 673              	.LVL92:
 674              	.L64:
 675              		.cfi_def_cfa_offset 0
 676              		.cfi_restore 4
 677              		.cfi_restore 5
 678              		.cfi_restore 6
 679              		.cfi_restore 14
 680 0024 7047     		bx	lr
 681              		.cfi_endproc
 682              	.LFE329:
 683              		.size	lv_style_copy, .-lv_style_copy
 684 0026 00BF     		.section	.text.lv_style_remove_prop,"ax",%progbits
 685              		.align	2
 686              		.global	lv_style_remove_prop
 687              		.thumb
 688              		.thumb_func
 689              		.type	lv_style_remove_prop, %function
 690              	lv_style_remove_prop:
 691              	.LFB330:
 101:lvgl\src\lv_core/lv_style.c ****     if(style == NULL) return false;
 692              		.loc 1 101 0
 693              		.cfi_startproc
 694              		@ args = 0, pretend = 0, frame = 8
 695              		@ frame_needed = 0, uses_anonymous_args = 0
 696              	.LVL93:
 102:lvgl\src\lv_core/lv_style.c ****     LV_ASSERT_STYLE(style);
 697              		.loc 1 102 0
 698 0000 0028     		cmp	r0, #0
 699 0002 00F08580 		beq	.L76
 101:lvgl\src\lv_core/lv_style.c ****     if(style == NULL) return false;
 700              		.loc 1 101 0
 701 0006 2DE9F041 		push	{r4, r5, r6, r7, r8, lr}
 702              		.cfi_def_cfa_offset 24
 703              		.cfi_offset 4, -24
 704              		.cfi_offset 5, -20
 705              		.cfi_offset 6, -16
 706              		.cfi_offset 7, -12
 707              		.cfi_offset 8, -8
 708              		.cfi_offset 14, -4
 709 000a 82B0     		sub	sp, sp, #8
 710              		.cfi_def_cfa_offset 32
 711 000c 0446     		mov	r4, r0
 712              	.LVL94:
 713              	.LBB176:
ARM GAS  C:\Users\strap\AppData\Local\Temp\cc7bAV43.s 			page 41


 714              	.LBB177:
1060:lvgl\src\lv_core/lv_style.c **** 
 715              		.loc 1 1060 0
 716 000e 0368     		ldr	r3, [r0]
 717 0010 002B     		cmp	r3, #0
 718 0012 45D0     		beq	.L77
1062:lvgl\src\lv_core/lv_style.c ****     lv_style_attr_t attr;
 719              		.loc 1 1062 0
 720 0014 CDB2     		uxtb	r5, r1
 721              	.LVL95:
1064:lvgl\src\lv_core/lv_style.c **** 
 722              		.loc 1 1064 0
 723 0016 0E0A     		lsrs	r6, r1, #8
 724              	.LVL96:
1069:lvgl\src\lv_core/lv_style.c **** 
 725              		.loc 1 1069 0
 726 0018 0022     		movs	r2, #0
1067:lvgl\src\lv_core/lv_style.c **** 
 727              		.loc 1 1067 0
 728 001a 4FF0FF37 		mov	r7, #-1
1066:lvgl\src\lv_core/lv_style.c ****     int16_t id_guess = -1;
 729              		.loc 1 1066 0
 730 001e BE46     		mov	lr, r7
 731 0020 31E0     		b	.L68
 732              	.LVL97:
 733              	.L72:
1073:lvgl\src\lv_core/lv_style.c ****             lv_style_attr_t attr_i;
 734              		.loc 1 1073 0
 735 0022 9D42     		cmp	r5, r3
 736 0024 1FD1     		bne	.L69
 737              	.LVL98:
 738              	.LBB178:
 739              	.LBB179:
 740              	.LBB180:
 741              	.LBB181:
 742              	.LBB182:
1145:lvgl\src\lv_core/lv_style.c ****     prop_p[1] = style->map[idx + 1];
 743              		.loc 1 1145 0
 744 0026 D4F800C0 		ldr	ip, [r4]
 745 002a 1CF80280 		ldrb	r8, [ip, r2]	@ zero_extendqisi2
 746 002e 8DF80680 		strb	r8, [sp, #6]
1146:lvgl\src\lv_core/lv_style.c ****     return prop;
 747              		.loc 1 1146 0
 748 0032 1CF80000 		ldrb	r0, [ip, r0]	@ zero_extendqisi2
 749 0036 8DF80700 		strb	r0, [sp, #7]
1147:lvgl\src\lv_core/lv_style.c **** }
 750              		.loc 1 1147 0
 751 003a BDF80600 		ldrh	r0, [sp, #6]
 752              	.LVL99:
 753              	.LBE182:
 754              	.LBE181:
1169:lvgl\src\lv_core/lv_style.c **** }
 755              		.loc 1 1169 0
 756 003e 000A     		lsrs	r0, r0, #8
 757              	.LVL100:
 758              	.LBE180:
 759              	.LBE179:
ARM GAS  C:\Users\strap\AppData\Local\Temp\cc7bAV43.s 			page 42


1078:lvgl\src\lv_core/lv_style.c ****                 return i;
 760              		.loc 1 1078 0
 761 0040 86EA000C 		eor	ip, r6, r0
 762 0044 1CF07F0F 		tst	ip, #127
 763 0048 01D1     		bne	.L70
1079:lvgl\src\lv_core/lv_style.c ****             }
 764              		.loc 1 1079 0
 765 004a 1746     		mov	r7, r2
 766              	.LVL101:
 767 004c 2AE0     		b	.L67
 768              	.LVL102:
 769              	.L70:
 770 004e 00F07F00 		and	r0, r0, #127
1083:lvgl\src\lv_core/lv_style.c ****                 /* Use this property if it describes better the requested state than the current ca
 771              		.loc 1 1083 0
 772 0052 06F07F0C 		and	ip, r6, #127
 773 0056 30EA0C0C 		bics	ip, r0, ip
 774 005a 04D1     		bne	.L69
1086:lvgl\src\lv_core/lv_style.c ****                     weight = LV_STYLE_ATTR_GET_STATE(attr_i);
 775              		.loc 1 1086 0
 776 005c 7045     		cmp	r0, lr
 777 005e 02DD     		ble	.L69
1087:lvgl\src\lv_core/lv_style.c ****                     id_guess = i;
 778              		.loc 1 1087 0
 779 0060 0FFA80FE 		sxth	lr, r0
 780              	.LVL103:
1088:lvgl\src\lv_core/lv_style.c ****                 }
 781              		.loc 1 1088 0
 782 0064 17B2     		sxth	r7, r2
 783              	.LVL104:
 784              	.L69:
 785              	.LBE178:
 786              	.LBB183:
 787              	.LBB184:
 788              	.LBB185:
 789              	.LBB186:
1181:lvgl\src\lv_core/lv_style.c ****     size_t size = sizeof(lv_style_property_t);
 790              		.loc 1 1181 0
 791 0066 03F00F03 		and	r3, r3, #15
 792              	.LVL105:
1183:lvgl\src\lv_core/lv_style.c ****     else if(prop_id < LV_STYLE_ID_OPA) size += sizeof(lv_color_t);
 793              		.loc 1 1183 0
 794 006a 082B     		cmp	r3, #8
 795 006c 05D9     		bls	.L78
1184:lvgl\src\lv_core/lv_style.c ****     else if(prop_id < LV_STYLE_ID_PTR) size += sizeof(lv_opa_t);
 796              		.loc 1 1184 0
 797 006e 0B2B     		cmp	r3, #11
 798 0070 05D9     		bls	.L79
1185:lvgl\src\lv_core/lv_style.c ****     else size += sizeof(const void *);
 799              		.loc 1 1185 0
 800 0072 0D2B     		cmp	r3, #13
 801 0074 05D8     		bhi	.L80
 802 0076 0323     		movs	r3, #3
 803              	.LVL106:
 804 0078 04E0     		b	.L71
 805              	.LVL107:
 806              	.L78:
ARM GAS  C:\Users\strap\AppData\Local\Temp\cc7bAV43.s 			page 43


1183:lvgl\src\lv_core/lv_style.c ****     else if(prop_id < LV_STYLE_ID_OPA) size += sizeof(lv_color_t);
 807              		.loc 1 1183 0
 808 007a 0423     		movs	r3, #4
 809              	.LVL108:
 810 007c 02E0     		b	.L71
 811              	.LVL109:
 812              	.L79:
1184:lvgl\src\lv_core/lv_style.c ****     else if(prop_id < LV_STYLE_ID_PTR) size += sizeof(lv_opa_t);
 813              		.loc 1 1184 0
 814 007e 0423     		movs	r3, #4
 815              	.LVL110:
 816 0080 00E0     		b	.L71
 817              	.LVL111:
 818              	.L80:
1186:lvgl\src\lv_core/lv_style.c ****     return size;
 819              		.loc 1 1186 0
 820 0082 0623     		movs	r3, #6
 821              	.LVL112:
 822              	.L71:
 823              	.LBE186:
 824              	.LBE185:
 825              		.loc 1 1198 0
 826 0084 1A44     		add	r2, r2, r3
 827              	.LVL113:
 828              	.L68:
 829              	.LBE184:
 830              	.LBE183:
 831              	.LBB187:
 832              	.LBB188:
 833              	.LBB189:
 834              	.LBB190:
1145:lvgl\src\lv_core/lv_style.c ****     prop_p[1] = style->map[idx + 1];
 835              		.loc 1 1145 0
 836 0086 2368     		ldr	r3, [r4]
 837 0088 985C     		ldrb	r0, [r3, r2]	@ zero_extendqisi2
 838 008a 8DF80600 		strb	r0, [sp, #6]
1146:lvgl\src\lv_core/lv_style.c ****     return prop;
 839              		.loc 1 1146 0
 840 008e 501C     		adds	r0, r2, #1
 841 0090 1B5C     		ldrb	r3, [r3, r0]	@ zero_extendqisi2
 842 0092 8DF80730 		strb	r3, [sp, #7]
 843              	.LVL114:
 844              	.LBE190:
 845              	.LBE189:
1158:lvgl\src\lv_core/lv_style.c **** }
 846              		.loc 1 1158 0
 847 0096 9DF80630 		ldrb	r3, [sp, #6]	@ zero_extendqisi2
 848              	.LVL115:
 849              	.LBE188:
 850              	.LBE187:
1072:lvgl\src\lv_core/lv_style.c ****         if(prop_id == id_to_find) {
 851              		.loc 1 1072 0
 852 009a FF2B     		cmp	r3, #255
 853 009c C1D1     		bne	.L72
 854 009e 01E0     		b	.L67
 855              	.LVL116:
 856              	.L77:
ARM GAS  C:\Users\strap\AppData\Local\Temp\cc7bAV43.s 			page 44


1060:lvgl\src\lv_core/lv_style.c **** 
 857              		.loc 1 1060 0
 858 00a0 4FF0FF37 		mov	r7, #-1
 859              	.LVL117:
 860              	.L67:
 861              	.LBE177:
 862              	.LBE176:
 107:lvgl\src\lv_core/lv_style.c ****         lv_style_attr_t attr_found;
 863              		.loc 1 107 0
 864 00a4 002F     		cmp	r7, #0
 865 00a6 35DB     		blt	.L81
 866              	.LBB191:
 111:lvgl\src\lv_core/lv_style.c ****         attr_goal = (prop >> 8) & 0xFFU;
 867              		.loc 1 111 0
 868 00a8 3D46     		mov	r5, r7
 869              	.LVL118:
 870              	.LBB192:
 871              	.LBB193:
 872              	.LBB194:
 873              	.LBB195:
1145:lvgl\src\lv_core/lv_style.c ****     prop_p[1] = style->map[idx + 1];
 874              		.loc 1 1145 0
 875 00aa 2268     		ldr	r2, [r4]
 876 00ac D35D     		ldrb	r3, [r2, r7]	@ zero_extendqisi2
 877 00ae 8DF80630 		strb	r3, [sp, #6]
1146:lvgl\src\lv_core/lv_style.c ****     return prop;
 878              		.loc 1 1146 0
 879 00b2 1744     		add	r7, r7, r2
 880 00b4 7B78     		ldrb	r3, [r7, #1]	@ zero_extendqisi2
 881 00b6 8DF80730 		strb	r3, [sp, #7]
1147:lvgl\src\lv_core/lv_style.c **** }
 882              		.loc 1 1147 0
 883 00ba BDF80620 		ldrh	r2, [sp, #6]
 884              	.LVL119:
 885              	.LBE195:
 886              	.LBE194:
 887              	.LBE193:
 888              	.LBE192:
 112:lvgl\src\lv_core/lv_style.c **** 
 889              		.loc 1 112 0
 890 00be 0B0A     		lsrs	r3, r1, #8
 891              	.LVL120:
 114:lvgl\src\lv_core/lv_style.c ****             uint32_t map_size = _lv_style_get_mem_size(style);
 892              		.loc 1 114 0
 893 00c0 83EA1223 		eor	r3, r3, r2, lsr #8
 894              	.LVL121:
 895 00c4 13F07F0F 		tst	r3, #127
 896 00c8 26D1     		bne	.L82
 897 00ca 0E46     		mov	r6, r1
 898              	.LBB196:
 115:lvgl\src\lv_core/lv_style.c ****             uint8_t prop_size = get_prop_size(prop);
 899              		.loc 1 115 0
 900 00cc 2046     		mov	r0, r4
 901 00ce FFF7FEFF 		bl	_lv_style_get_mem_size
 902              	.LVL122:
 903              	.LBB197:
 904              	.LBB198:
ARM GAS  C:\Users\strap\AppData\Local\Temp\cc7bAV43.s 			page 45


1181:lvgl\src\lv_core/lv_style.c ****     size_t size = sizeof(lv_style_property_t);
 905              		.loc 1 1181 0
 906 00d2 06F00F01 		and	r1, r6, #15
 907              	.LVL123:
1183:lvgl\src\lv_core/lv_style.c ****     else if(prop_id < LV_STYLE_ID_OPA) size += sizeof(lv_color_t);
 908              		.loc 1 1183 0
 909 00d6 0829     		cmp	r1, #8
 910 00d8 05D9     		bls	.L83
1184:lvgl\src\lv_core/lv_style.c ****     else if(prop_id < LV_STYLE_ID_PTR) size += sizeof(lv_opa_t);
 911              		.loc 1 1184 0
 912 00da 0B29     		cmp	r1, #11
 913 00dc 05D9     		bls	.L84
1185:lvgl\src\lv_core/lv_style.c ****     else size += sizeof(const void *);
 914              		.loc 1 1185 0
 915 00de 0D29     		cmp	r1, #13
 916 00e0 05D8     		bhi	.L85
 917 00e2 0326     		movs	r6, #3
 918              	.LVL124:
 919 00e4 0AE0     		b	.L74
 920              	.LVL125:
 921              	.L83:
1183:lvgl\src\lv_core/lv_style.c ****     else if(prop_id < LV_STYLE_ID_OPA) size += sizeof(lv_color_t);
 922              		.loc 1 1183 0
 923 00e6 0426     		movs	r6, #4
 924              	.LVL126:
 925 00e8 08E0     		b	.L74
 926              	.LVL127:
 927              	.L84:
1184:lvgl\src\lv_core/lv_style.c ****     else if(prop_id < LV_STYLE_ID_PTR) size += sizeof(lv_opa_t);
 928              		.loc 1 1184 0
 929 00ea 0426     		movs	r6, #4
 930              	.LVL128:
 931 00ec 06E0     		b	.L74
 932              	.LVL129:
 933              	.L85:
1186:lvgl\src\lv_core/lv_style.c ****     return size;
 934              		.loc 1 1186 0
 935 00ee 0626     		movs	r6, #6
 936              	.LVL130:
 937              	.LBE198:
 938              	.LBE197:
 120:lvgl\src\lv_core/lv_style.c ****                 style->map[i] = style->map[i + prop_size];
 939              		.loc 1 120 0
 940 00f0 04E0     		b	.L74
 941              	.LVL131:
 942              	.L75:
 121:lvgl\src\lv_core/lv_style.c ****             }
 943              		.loc 1 121 0 discriminator 3
 944 00f2 2268     		ldr	r2, [r4]
 945 00f4 5119     		adds	r1, r2, r5
 946 00f6 CB5C     		ldrb	r3, [r1, r3]	@ zero_extendqisi2
 947 00f8 5355     		strb	r3, [r2, r5]
 120:lvgl\src\lv_core/lv_style.c ****                 style->map[i] = style->map[i + prop_size];
 948              		.loc 1 120 0 discriminator 3
 949 00fa 0135     		adds	r5, r5, #1
 950              	.LVL132:
 951              	.L74:
ARM GAS  C:\Users\strap\AppData\Local\Temp\cc7bAV43.s 			page 46


 952 00fc F3B2     		uxtb	r3, r6
 120:lvgl\src\lv_core/lv_style.c ****                 style->map[i] = style->map[i + prop_size];
 953              		.loc 1 120 0 is_stmt 0 discriminator 1
 954 00fe C11A     		subs	r1, r0, r3
 955 0100 8D42     		cmp	r5, r1
 956 0102 F6D3     		bcc	.L75
 957              	.LVL133:
 958              	.LBB199:
 959              	.LBB200:
1132:lvgl\src\lv_core/lv_style.c **** }
 960              		.loc 1 1132 0 is_stmt 1
 961 0104 2068     		ldr	r0, [r4]
 962              	.LVL134:
 963 0106 FFF7FEFF 		bl	lv_mem_realloc
 964              	.LVL135:
 965 010a 2060     		str	r0, [r4]
 966              	.LVL136:
 967              	.LBE200:
 968              	.LBE199:
 126:lvgl\src\lv_core/lv_style.c ****         }
 969              		.loc 1 126 0
 970 010c 0120     		movs	r0, #1
 971 010e 04E0     		b	.L66
 972              	.LVL137:
 973              	.L76:
 974              		.cfi_def_cfa_offset 0
 975              		.cfi_restore 4
 976              		.cfi_restore 5
 977              		.cfi_restore 6
 978              		.cfi_restore 7
 979              		.cfi_restore 8
 980              		.cfi_restore 14
 981              	.LBE196:
 982              	.LBE191:
 102:lvgl\src\lv_core/lv_style.c ****     LV_ASSERT_STYLE(style);
 983              		.loc 1 102 0
 984 0110 0020     		movs	r0, #0
 985              	.LVL138:
 131:lvgl\src\lv_core/lv_style.c **** 
 986              		.loc 1 131 0
 987 0112 7047     		bx	lr
 988              	.LVL139:
 989              	.L81:
 990              		.cfi_def_cfa_offset 32
 991              		.cfi_offset 4, -24
 992              		.cfi_offset 5, -20
 993              		.cfi_offset 6, -16
 994              		.cfi_offset 7, -12
 995              		.cfi_offset 8, -8
 996              		.cfi_offset 14, -4
 130:lvgl\src\lv_core/lv_style.c **** }
 997              		.loc 1 130 0
 998 0114 0020     		movs	r0, #0
 999 0116 00E0     		b	.L66
 1000              	.LVL140:
 1001              	.L82:
 1002 0118 0020     		movs	r0, #0
ARM GAS  C:\Users\strap\AppData\Local\Temp\cc7bAV43.s 			page 47


 1003              	.LVL141:
 1004              	.L66:
 131:lvgl\src\lv_core/lv_style.c **** 
 1005              		.loc 1 131 0
 1006 011a 02B0     		add	sp, sp, #8
 1007              		.cfi_def_cfa_offset 24
 1008              		@ sp needed
 1009 011c BDE8F081 		pop	{r4, r5, r6, r7, r8, pc}
 1010              		.cfi_endproc
 1011              	.LFE330:
 1012              		.size	lv_style_remove_prop, .-lv_style_remove_prop
 1013              		.section	.text._lv_style_set_int,"ax",%progbits
 1014              		.align	2
 1015              		.global	_lv_style_set_int
 1016              		.thumb
 1017              		.thumb_func
 1018              		.type	_lv_style_set_int, %function
 1019              	_lv_style_set_int:
 1020              	.LFB338:
 361:lvgl\src\lv_core/lv_style.c ****     LV_ASSERT_STYLE(style);
 1021              		.loc 1 361 0
 1022              		.cfi_startproc
 1023              		@ args = 0, pretend = 0, frame = 16
 1024              		@ frame_needed = 0, uses_anonymous_args = 0
 1025              	.LVL142:
 1026 0000 F0B5     		push	{r4, r5, r6, r7, lr}
 1027              		.cfi_def_cfa_offset 20
 1028              		.cfi_offset 4, -20
 1029              		.cfi_offset 5, -16
 1030              		.cfi_offset 6, -12
 1031              		.cfi_offset 7, -8
 1032              		.cfi_offset 14, -4
 1033 0002 85B0     		sub	sp, sp, #20
 1034              		.cfi_def_cfa_offset 40
 1035 0004 ADF80610 		strh	r1, [sp, #6]	@ movhi
 1036 0008 ADF80420 		strh	r2, [sp, #4]	@ movhi
 1037              	.LVL143:
 1038              	.LBB231:
 1039              	.LBB232:
1060:lvgl\src\lv_core/lv_style.c **** 
 1040              		.loc 1 1060 0
 1041 000c 0368     		ldr	r3, [r0]
 1042 000e 002B     		cmp	r3, #0
 1043 0010 43D0     		beq	.L108
1062:lvgl\src\lv_core/lv_style.c ****     lv_style_attr_t attr;
 1044              		.loc 1 1062 0
 1045 0012 CEB2     		uxtb	r6, r1
 1046              	.LVL144:
1064:lvgl\src\lv_core/lv_style.c **** 
 1047              		.loc 1 1064 0
 1048 0014 0D0A     		lsrs	r5, r1, #8
 1049              	.LVL145:
1069:lvgl\src\lv_core/lv_style.c **** 
 1050              		.loc 1 1069 0
 1051 0016 0022     		movs	r2, #0
 1052              	.LVL146:
1067:lvgl\src\lv_core/lv_style.c **** 
ARM GAS  C:\Users\strap\AppData\Local\Temp\cc7bAV43.s 			page 48


 1053              		.loc 1 1067 0
 1054 0018 4FF0FF34 		mov	r4, #-1
1066:lvgl\src\lv_core/lv_style.c ****     int16_t id_guess = -1;
 1055              		.loc 1 1066 0
 1056 001c 2746     		mov	r7, r4
 1057 001e 2EE0     		b	.L89
 1058              	.LVL147:
 1059              	.L93:
1073:lvgl\src\lv_core/lv_style.c ****             lv_style_attr_t attr_i;
 1060              		.loc 1 1073 0
 1061 0020 9E42     		cmp	r6, r3
 1062 0022 1CD1     		bne	.L90
 1063              	.LVL148:
 1064              	.LBB233:
 1065              	.LBB234:
 1066              	.LBB235:
 1067              	.LBB236:
 1068              	.LBB237:
1145:lvgl\src\lv_core/lv_style.c ****     prop_p[1] = style->map[idx + 1];
 1069              		.loc 1 1145 0
 1070 0024 D0F800E0 		ldr	lr, [r0]
 1071 0028 1EF802C0 		ldrb	ip, [lr, r2]	@ zero_extendqisi2
 1072 002c 8DF80CC0 		strb	ip, [sp, #12]
1146:lvgl\src\lv_core/lv_style.c ****     return prop;
 1073              		.loc 1 1146 0
 1074 0030 1EF80110 		ldrb	r1, [lr, r1]	@ zero_extendqisi2
 1075 0034 8DF80D10 		strb	r1, [sp, #13]
1147:lvgl\src\lv_core/lv_style.c **** }
 1076              		.loc 1 1147 0
 1077 0038 BDF80C10 		ldrh	r1, [sp, #12]
 1078              	.LVL149:
 1079              	.LBE237:
 1080              	.LBE236:
1169:lvgl\src\lv_core/lv_style.c **** }
 1081              		.loc 1 1169 0
 1082 003c 090A     		lsrs	r1, r1, #8
 1083              	.LVL150:
 1084              	.LBE235:
 1085              	.LBE234:
1078:lvgl\src\lv_core/lv_style.c ****                 return i;
 1086              		.loc 1 1078 0
 1087 003e 85EA010E 		eor	lr, r5, r1
 1088 0042 1EF07F0F 		tst	lr, #127
 1089 0046 2AD0     		beq	.L88
 1090 0048 01F07F01 		and	r1, r1, #127
1083:lvgl\src\lv_core/lv_style.c ****                 /* Use this property if it describes better the requested state than the current ca
 1091              		.loc 1 1083 0
 1092 004c 05F07F0E 		and	lr, r5, #127
 1093 0050 31EA0E0E 		bics	lr, r1, lr
 1094 0054 03D1     		bne	.L90
1086:lvgl\src\lv_core/lv_style.c ****                     weight = LV_STYLE_ATTR_GET_STATE(attr_i);
 1095              		.loc 1 1086 0
 1096 0056 B942     		cmp	r1, r7
 1097 0058 01DD     		ble	.L90
1087:lvgl\src\lv_core/lv_style.c ****                     id_guess = i;
 1098              		.loc 1 1087 0
 1099 005a 0FB2     		sxth	r7, r1
ARM GAS  C:\Users\strap\AppData\Local\Temp\cc7bAV43.s 			page 49


 1100              	.LVL151:
1088:lvgl\src\lv_core/lv_style.c ****                 }
 1101              		.loc 1 1088 0
 1102 005c 14B2     		sxth	r4, r2
 1103              	.LVL152:
 1104              	.L90:
 1105              	.LBE233:
 1106              	.LBB238:
 1107              	.LBB239:
 1108              	.LBB240:
 1109              	.LBB241:
1181:lvgl\src\lv_core/lv_style.c ****     size_t size = sizeof(lv_style_property_t);
 1110              		.loc 1 1181 0
 1111 005e 03F00F03 		and	r3, r3, #15
 1112              	.LVL153:
1183:lvgl\src\lv_core/lv_style.c ****     else if(prop_id < LV_STYLE_ID_OPA) size += sizeof(lv_color_t);
 1113              		.loc 1 1183 0
 1114 0062 082B     		cmp	r3, #8
 1115 0064 05D9     		bls	.L109
1184:lvgl\src\lv_core/lv_style.c ****     else if(prop_id < LV_STYLE_ID_PTR) size += sizeof(lv_opa_t);
 1116              		.loc 1 1184 0
 1117 0066 0B2B     		cmp	r3, #11
 1118 0068 05D9     		bls	.L110
1185:lvgl\src\lv_core/lv_style.c ****     else size += sizeof(const void *);
 1119              		.loc 1 1185 0
 1120 006a 0D2B     		cmp	r3, #13
 1121 006c 05D8     		bhi	.L111
 1122 006e 0323     		movs	r3, #3
 1123              	.LVL154:
 1124 0070 04E0     		b	.L92
 1125              	.LVL155:
 1126              	.L109:
1183:lvgl\src\lv_core/lv_style.c ****     else if(prop_id < LV_STYLE_ID_OPA) size += sizeof(lv_color_t);
 1127              		.loc 1 1183 0
 1128 0072 0423     		movs	r3, #4
 1129              	.LVL156:
 1130 0074 02E0     		b	.L92
 1131              	.LVL157:
 1132              	.L110:
1184:lvgl\src\lv_core/lv_style.c ****     else if(prop_id < LV_STYLE_ID_PTR) size += sizeof(lv_opa_t);
 1133              		.loc 1 1184 0
 1134 0076 0423     		movs	r3, #4
 1135              	.LVL158:
 1136 0078 00E0     		b	.L92
 1137              	.LVL159:
 1138              	.L111:
1186:lvgl\src\lv_core/lv_style.c ****     return size;
 1139              		.loc 1 1186 0
 1140 007a 0623     		movs	r3, #6
 1141              	.LVL160:
 1142              	.L92:
 1143              	.LBE241:
 1144              	.LBE240:
 1145              		.loc 1 1198 0
 1146 007c 1A44     		add	r2, r2, r3
 1147              	.LVL161:
 1148              	.L89:
ARM GAS  C:\Users\strap\AppData\Local\Temp\cc7bAV43.s 			page 50


 1149              	.LBE239:
 1150              	.LBE238:
 1151              	.LBB242:
 1152              	.LBB243:
 1153              	.LBB244:
 1154              	.LBB245:
1145:lvgl\src\lv_core/lv_style.c ****     prop_p[1] = style->map[idx + 1];
 1155              		.loc 1 1145 0
 1156 007e 0368     		ldr	r3, [r0]
 1157 0080 995C     		ldrb	r1, [r3, r2]	@ zero_extendqisi2
 1158 0082 8DF80C10 		strb	r1, [sp, #12]
1146:lvgl\src\lv_core/lv_style.c ****     return prop;
 1159              		.loc 1 1146 0
 1160 0086 511C     		adds	r1, r2, #1
 1161 0088 5B5C     		ldrb	r3, [r3, r1]	@ zero_extendqisi2
 1162 008a 8DF80D30 		strb	r3, [sp, #13]
 1163              	.LVL162:
 1164              	.LBE245:
 1165              	.LBE244:
1158:lvgl\src\lv_core/lv_style.c **** }
 1166              		.loc 1 1158 0
 1167 008e 9DF80C30 		ldrb	r3, [sp, #12]	@ zero_extendqisi2
 1168              	.LVL163:
 1169              	.LBE243:
 1170              	.LBE242:
1072:lvgl\src\lv_core/lv_style.c ****         if(prop_id == id_to_find) {
 1171              		.loc 1 1072 0
 1172 0092 FF2B     		cmp	r3, #255
 1173 0094 C4D1     		bne	.L93
1096:lvgl\src\lv_core/lv_style.c **** }
 1174              		.loc 1 1096 0
 1175 0096 2246     		mov	r2, r4
 1176              	.LVL164:
 1177 0098 01E0     		b	.L88
 1178              	.LVL165:
 1179              	.L108:
1060:lvgl\src\lv_core/lv_style.c **** 
 1180              		.loc 1 1060 0
 1181 009a 4FF0FF32 		mov	r2, #-1
 1182              	.LVL166:
 1183              	.L88:
 1184              	.LBE232:
 1185              	.LBE231:
 366:lvgl\src\lv_core/lv_style.c ****         lv_style_attr_t attr_found;
 1186              		.loc 1 366 0
 1187 009e 002A     		cmp	r2, #0
 1188 00a0 1FDB     		blt	.L94
 1189              	.LVL167:
 1190              	.LBB246:
 1191              	.LBB247:
 1192              	.LBB248:
 1193              	.LBB249:
 1194              	.LBB250:
1145:lvgl\src\lv_core/lv_style.c ****     prop_p[1] = style->map[idx + 1];
 1195              		.loc 1 1145 0
 1196 00a2 0368     		ldr	r3, [r0]
 1197 00a4 995C     		ldrb	r1, [r3, r2]	@ zero_extendqisi2
ARM GAS  C:\Users\strap\AppData\Local\Temp\cc7bAV43.s 			page 51


 1198 00a6 8DF80C10 		strb	r1, [sp, #12]
1146:lvgl\src\lv_core/lv_style.c ****     return prop;
 1199              		.loc 1 1146 0
 1200 00aa 1344     		add	r3, r3, r2
 1201 00ac 5B78     		ldrb	r3, [r3, #1]	@ zero_extendqisi2
 1202 00ae 8DF80D30 		strb	r3, [sp, #13]
1147:lvgl\src\lv_core/lv_style.c **** }
 1203              		.loc 1 1147 0
 1204 00b2 BDF80C10 		ldrh	r1, [sp, #12]
 1205              	.LVL168:
 1206              	.LBE250:
 1207              	.LBE249:
 1208              	.LBE248:
 1209              	.LBE247:
 371:lvgl\src\lv_core/lv_style.c **** 
 1210              		.loc 1 371 0
 1211 00b6 BDF80630 		ldrh	r3, [sp, #6]
 1212 00ba 1B0A     		lsrs	r3, r3, #8
 1213              	.LVL169:
 373:lvgl\src\lv_core/lv_style.c ****             _lv_memcpy_small(style->map + id + sizeof(lv_style_property_t), &value, sizeof(lv_style
 1214              		.loc 1 373 0
 1215 00bc 83EA1123 		eor	r3, r3, r1, lsr #8
 1216              	.LVL170:
 1217 00c0 13F07F0F 		tst	r3, #127
 1218 00c4 0DD1     		bne	.L94
 374:lvgl\src\lv_core/lv_style.c ****             return;
 1219              		.loc 1 374 0
 1220 00c6 0368     		ldr	r3, [r0]
 1221 00c8 0232     		adds	r2, r2, #2
 1222 00ca 1344     		add	r3, r3, r2
 1223              	.LVL171:
 1224              	.LBB251:
 1225              	.LBB252:
 1226              		.file 3 "lvgl\\src\\lv_core\\../lv_font/../lv_misc/lv_mem.h"
   1:lvgl\src\lv_core\../lv_font/../lv_misc/lv_mem.h **** /**
   2:lvgl\src\lv_core\../lv_font/../lv_misc/lv_mem.h ****  * @file lv_mem.h
   3:lvgl\src\lv_core\../lv_font/../lv_misc/lv_mem.h ****  *
   4:lvgl\src\lv_core\../lv_font/../lv_misc/lv_mem.h ****  */
   5:lvgl\src\lv_core\../lv_font/../lv_misc/lv_mem.h **** 
   6:lvgl\src\lv_core\../lv_font/../lv_misc/lv_mem.h **** #ifndef LV_MEM_H
   7:lvgl\src\lv_core\../lv_font/../lv_misc/lv_mem.h **** #define LV_MEM_H
   8:lvgl\src\lv_core\../lv_font/../lv_misc/lv_mem.h **** 
   9:lvgl\src\lv_core\../lv_font/../lv_misc/lv_mem.h **** #ifdef __cplusplus
  10:lvgl\src\lv_core\../lv_font/../lv_misc/lv_mem.h **** extern "C" {
  11:lvgl\src\lv_core\../lv_font/../lv_misc/lv_mem.h **** #endif
  12:lvgl\src\lv_core\../lv_font/../lv_misc/lv_mem.h **** 
  13:lvgl\src\lv_core\../lv_font/../lv_misc/lv_mem.h **** /*********************
  14:lvgl\src\lv_core\../lv_font/../lv_misc/lv_mem.h ****  *      INCLUDES
  15:lvgl\src\lv_core\../lv_font/../lv_misc/lv_mem.h ****  *********************/
  16:lvgl\src\lv_core\../lv_font/../lv_misc/lv_mem.h **** #include "../lv_conf_internal.h"
  17:lvgl\src\lv_core\../lv_font/../lv_misc/lv_mem.h **** 
  18:lvgl\src\lv_core\../lv_font/../lv_misc/lv_mem.h **** #include <stdint.h>
  19:lvgl\src\lv_core\../lv_font/../lv_misc/lv_mem.h **** #include <stddef.h>
  20:lvgl\src\lv_core\../lv_font/../lv_misc/lv_mem.h **** #include "lv_log.h"
  21:lvgl\src\lv_core\../lv_font/../lv_misc/lv_mem.h **** #include "lv_types.h"
  22:lvgl\src\lv_core\../lv_font/../lv_misc/lv_mem.h **** 
  23:lvgl\src\lv_core\../lv_font/../lv_misc/lv_mem.h **** #if LV_MEMCPY_MEMSET_STD
ARM GAS  C:\Users\strap\AppData\Local\Temp\cc7bAV43.s 			page 52


  24:lvgl\src\lv_core\../lv_font/../lv_misc/lv_mem.h **** #include <string.h>
  25:lvgl\src\lv_core\../lv_font/../lv_misc/lv_mem.h **** #endif
  26:lvgl\src\lv_core\../lv_font/../lv_misc/lv_mem.h **** 
  27:lvgl\src\lv_core\../lv_font/../lv_misc/lv_mem.h **** /*********************
  28:lvgl\src\lv_core\../lv_font/../lv_misc/lv_mem.h ****  *      DEFINES
  29:lvgl\src\lv_core\../lv_font/../lv_misc/lv_mem.h ****  *********************/
  30:lvgl\src\lv_core\../lv_font/../lv_misc/lv_mem.h **** 
  31:lvgl\src\lv_core\../lv_font/../lv_misc/lv_mem.h **** #ifndef LV_MEM_BUF_MAX_NUM
  32:lvgl\src\lv_core\../lv_font/../lv_misc/lv_mem.h **** #define LV_MEM_BUF_MAX_NUM    16
  33:lvgl\src\lv_core\../lv_font/../lv_misc/lv_mem.h **** #endif
  34:lvgl\src\lv_core\../lv_font/../lv_misc/lv_mem.h **** 
  35:lvgl\src\lv_core\../lv_font/../lv_misc/lv_mem.h **** /**********************
  36:lvgl\src\lv_core\../lv_font/../lv_misc/lv_mem.h ****  *      TYPEDEFS
  37:lvgl\src\lv_core\../lv_font/../lv_misc/lv_mem.h ****  **********************/
  38:lvgl\src\lv_core\../lv_font/../lv_misc/lv_mem.h **** 
  39:lvgl\src\lv_core\../lv_font/../lv_misc/lv_mem.h **** /**
  40:lvgl\src\lv_core\../lv_font/../lv_misc/lv_mem.h ****  * Heap information structure.
  41:lvgl\src\lv_core\../lv_font/../lv_misc/lv_mem.h ****  */
  42:lvgl\src\lv_core\../lv_font/../lv_misc/lv_mem.h **** typedef struct {
  43:lvgl\src\lv_core\../lv_font/../lv_misc/lv_mem.h ****     uint32_t total_size; /**< Total heap size */
  44:lvgl\src\lv_core\../lv_font/../lv_misc/lv_mem.h ****     uint32_t free_cnt;
  45:lvgl\src\lv_core\../lv_font/../lv_misc/lv_mem.h ****     uint32_t free_size; /**< Size of available memory */
  46:lvgl\src\lv_core\../lv_font/../lv_misc/lv_mem.h ****     uint32_t free_biggest_size;
  47:lvgl\src\lv_core\../lv_font/../lv_misc/lv_mem.h ****     uint32_t used_cnt;
  48:lvgl\src\lv_core\../lv_font/../lv_misc/lv_mem.h ****     uint32_t max_used; /**< Max size of Heap memory used */
  49:lvgl\src\lv_core\../lv_font/../lv_misc/lv_mem.h ****     uint8_t used_pct; /**< Percentage used */
  50:lvgl\src\lv_core\../lv_font/../lv_misc/lv_mem.h ****     uint8_t frag_pct; /**< Amount of fragmentation */
  51:lvgl\src\lv_core\../lv_font/../lv_misc/lv_mem.h **** } lv_mem_monitor_t;
  52:lvgl\src\lv_core\../lv_font/../lv_misc/lv_mem.h **** 
  53:lvgl\src\lv_core\../lv_font/../lv_misc/lv_mem.h **** typedef struct {
  54:lvgl\src\lv_core\../lv_font/../lv_misc/lv_mem.h ****     void * p;
  55:lvgl\src\lv_core\../lv_font/../lv_misc/lv_mem.h ****     uint16_t size;
  56:lvgl\src\lv_core\../lv_font/../lv_misc/lv_mem.h ****     uint8_t used    : 1;
  57:lvgl\src\lv_core\../lv_font/../lv_misc/lv_mem.h **** } lv_mem_buf_t;
  58:lvgl\src\lv_core\../lv_font/../lv_misc/lv_mem.h **** 
  59:lvgl\src\lv_core\../lv_font/../lv_misc/lv_mem.h **** typedef lv_mem_buf_t lv_mem_buf_arr_t[LV_MEM_BUF_MAX_NUM];
  60:lvgl\src\lv_core\../lv_font/../lv_misc/lv_mem.h **** extern lv_mem_buf_arr_t _lv_mem_buf;
  61:lvgl\src\lv_core\../lv_font/../lv_misc/lv_mem.h **** 
  62:lvgl\src\lv_core\../lv_font/../lv_misc/lv_mem.h **** /**********************
  63:lvgl\src\lv_core\../lv_font/../lv_misc/lv_mem.h ****  * GLOBAL PROTOTYPES
  64:lvgl\src\lv_core\../lv_font/../lv_misc/lv_mem.h ****  **********************/
  65:lvgl\src\lv_core\../lv_font/../lv_misc/lv_mem.h **** 
  66:lvgl\src\lv_core\../lv_font/../lv_misc/lv_mem.h **** /**
  67:lvgl\src\lv_core\../lv_font/../lv_misc/lv_mem.h ****  * Initialize the dyn_mem module (work memory and other variables)
  68:lvgl\src\lv_core\../lv_font/../lv_misc/lv_mem.h ****  */
  69:lvgl\src\lv_core\../lv_font/../lv_misc/lv_mem.h **** void _lv_mem_init(void);
  70:lvgl\src\lv_core\../lv_font/../lv_misc/lv_mem.h **** 
  71:lvgl\src\lv_core\../lv_font/../lv_misc/lv_mem.h **** /**
  72:lvgl\src\lv_core\../lv_font/../lv_misc/lv_mem.h ****  * Clean up the memory buffer which frees all the allocated memories.
  73:lvgl\src\lv_core\../lv_font/../lv_misc/lv_mem.h ****  * @note It work only if `LV_MEM_CUSTOM == 0`
  74:lvgl\src\lv_core\../lv_font/../lv_misc/lv_mem.h ****  */
  75:lvgl\src\lv_core\../lv_font/../lv_misc/lv_mem.h **** void _lv_mem_deinit(void);
  76:lvgl\src\lv_core\../lv_font/../lv_misc/lv_mem.h **** 
  77:lvgl\src\lv_core\../lv_font/../lv_misc/lv_mem.h **** /**
  78:lvgl\src\lv_core\../lv_font/../lv_misc/lv_mem.h ****  * Allocate a memory dynamically
  79:lvgl\src\lv_core\../lv_font/../lv_misc/lv_mem.h ****  * @param size size of the memory to allocate in bytes
  80:lvgl\src\lv_core\../lv_font/../lv_misc/lv_mem.h ****  * @return pointer to the allocated memory
ARM GAS  C:\Users\strap\AppData\Local\Temp\cc7bAV43.s 			page 53


  81:lvgl\src\lv_core\../lv_font/../lv_misc/lv_mem.h ****  */
  82:lvgl\src\lv_core\../lv_font/../lv_misc/lv_mem.h **** void * lv_mem_alloc(size_t size);
  83:lvgl\src\lv_core\../lv_font/../lv_misc/lv_mem.h **** 
  84:lvgl\src\lv_core\../lv_font/../lv_misc/lv_mem.h **** /**
  85:lvgl\src\lv_core\../lv_font/../lv_misc/lv_mem.h ****  * Free an allocated data
  86:lvgl\src\lv_core\../lv_font/../lv_misc/lv_mem.h ****  * @param data pointer to an allocated memory
  87:lvgl\src\lv_core\../lv_font/../lv_misc/lv_mem.h ****  */
  88:lvgl\src\lv_core\../lv_font/../lv_misc/lv_mem.h **** void lv_mem_free(const void * data);
  89:lvgl\src\lv_core\../lv_font/../lv_misc/lv_mem.h **** 
  90:lvgl\src\lv_core\../lv_font/../lv_misc/lv_mem.h **** /**
  91:lvgl\src\lv_core\../lv_font/../lv_misc/lv_mem.h ****  * Reallocate a memory with a new size. The old content will be kept.
  92:lvgl\src\lv_core\../lv_font/../lv_misc/lv_mem.h ****  * @param data pointer to an allocated memory.
  93:lvgl\src\lv_core\../lv_font/../lv_misc/lv_mem.h ****  * Its content will be copied to the new memory block and freed
  94:lvgl\src\lv_core\../lv_font/../lv_misc/lv_mem.h ****  * @param new_size the desired new size in byte
  95:lvgl\src\lv_core\../lv_font/../lv_misc/lv_mem.h ****  * @return pointer to the new memory
  96:lvgl\src\lv_core\../lv_font/../lv_misc/lv_mem.h ****  */
  97:lvgl\src\lv_core\../lv_font/../lv_misc/lv_mem.h **** void * lv_mem_realloc(void * data_p, size_t new_size);
  98:lvgl\src\lv_core\../lv_font/../lv_misc/lv_mem.h **** 
  99:lvgl\src\lv_core\../lv_font/../lv_misc/lv_mem.h **** /**
 100:lvgl\src\lv_core\../lv_font/../lv_misc/lv_mem.h ****  * Join the adjacent free memory blocks
 101:lvgl\src\lv_core\../lv_font/../lv_misc/lv_mem.h ****  */
 102:lvgl\src\lv_core\../lv_font/../lv_misc/lv_mem.h **** void lv_mem_defrag(void);
 103:lvgl\src\lv_core\../lv_font/../lv_misc/lv_mem.h **** 
 104:lvgl\src\lv_core\../lv_font/../lv_misc/lv_mem.h **** /**
 105:lvgl\src\lv_core\../lv_font/../lv_misc/lv_mem.h ****  *
 106:lvgl\src\lv_core\../lv_font/../lv_misc/lv_mem.h ****  * @return
 107:lvgl\src\lv_core\../lv_font/../lv_misc/lv_mem.h ****  */
 108:lvgl\src\lv_core\../lv_font/../lv_misc/lv_mem.h **** lv_res_t lv_mem_test(void);
 109:lvgl\src\lv_core\../lv_font/../lv_misc/lv_mem.h **** 
 110:lvgl\src\lv_core\../lv_font/../lv_misc/lv_mem.h **** /**
 111:lvgl\src\lv_core\../lv_font/../lv_misc/lv_mem.h ****  * Give information about the work memory of dynamic allocation
 112:lvgl\src\lv_core\../lv_font/../lv_misc/lv_mem.h ****  * @param mon_p pointer to a dm_mon_p variable,
 113:lvgl\src\lv_core\../lv_font/../lv_misc/lv_mem.h ****  *              the result of the analysis will be stored here
 114:lvgl\src\lv_core\../lv_font/../lv_misc/lv_mem.h ****  */
 115:lvgl\src\lv_core\../lv_font/../lv_misc/lv_mem.h **** void lv_mem_monitor(lv_mem_monitor_t * mon_p);
 116:lvgl\src\lv_core\../lv_font/../lv_misc/lv_mem.h **** 
 117:lvgl\src\lv_core\../lv_font/../lv_misc/lv_mem.h **** /**
 118:lvgl\src\lv_core\../lv_font/../lv_misc/lv_mem.h ****  * Give the size of an allocated memory
 119:lvgl\src\lv_core\../lv_font/../lv_misc/lv_mem.h ****  * @param data pointer to an allocated memory
 120:lvgl\src\lv_core\../lv_font/../lv_misc/lv_mem.h ****  * @return the size of data memory in bytes
 121:lvgl\src\lv_core\../lv_font/../lv_misc/lv_mem.h ****  */
 122:lvgl\src\lv_core\../lv_font/../lv_misc/lv_mem.h **** uint32_t _lv_mem_get_size(const void * data);
 123:lvgl\src\lv_core\../lv_font/../lv_misc/lv_mem.h **** 
 124:lvgl\src\lv_core\../lv_font/../lv_misc/lv_mem.h **** /**
 125:lvgl\src\lv_core\../lv_font/../lv_misc/lv_mem.h ****  * Get a temporal buffer with the given size.
 126:lvgl\src\lv_core\../lv_font/../lv_misc/lv_mem.h ****  * @param size the required size
 127:lvgl\src\lv_core\../lv_font/../lv_misc/lv_mem.h ****  */
 128:lvgl\src\lv_core\../lv_font/../lv_misc/lv_mem.h **** void * _lv_mem_buf_get(uint32_t size);
 129:lvgl\src\lv_core\../lv_font/../lv_misc/lv_mem.h **** 
 130:lvgl\src\lv_core\../lv_font/../lv_misc/lv_mem.h **** /**
 131:lvgl\src\lv_core\../lv_font/../lv_misc/lv_mem.h ****  * Release a memory buffer
 132:lvgl\src\lv_core\../lv_font/../lv_misc/lv_mem.h ****  * @param p buffer to release
 133:lvgl\src\lv_core\../lv_font/../lv_misc/lv_mem.h ****  */
 134:lvgl\src\lv_core\../lv_font/../lv_misc/lv_mem.h **** void _lv_mem_buf_release(void * p);
 135:lvgl\src\lv_core\../lv_font/../lv_misc/lv_mem.h **** 
 136:lvgl\src\lv_core\../lv_font/../lv_misc/lv_mem.h **** /**
 137:lvgl\src\lv_core\../lv_font/../lv_misc/lv_mem.h ****  * Free all memory buffers
ARM GAS  C:\Users\strap\AppData\Local\Temp\cc7bAV43.s 			page 54


 138:lvgl\src\lv_core\../lv_font/../lv_misc/lv_mem.h ****  */
 139:lvgl\src\lv_core\../lv_font/../lv_misc/lv_mem.h **** void _lv_mem_buf_free_all(void);
 140:lvgl\src\lv_core\../lv_font/../lv_misc/lv_mem.h **** 
 141:lvgl\src\lv_core\../lv_font/../lv_misc/lv_mem.h **** 
 142:lvgl\src\lv_core\../lv_font/../lv_misc/lv_mem.h **** //! @cond Doxygen_Suppress
 143:lvgl\src\lv_core\../lv_font/../lv_misc/lv_mem.h **** 
 144:lvgl\src\lv_core\../lv_font/../lv_misc/lv_mem.h **** #if LV_MEMCPY_MEMSET_STD
 145:lvgl\src\lv_core\../lv_font/../lv_misc/lv_mem.h **** 
 146:lvgl\src\lv_core\../lv_font/../lv_misc/lv_mem.h **** /**
 147:lvgl\src\lv_core\../lv_font/../lv_misc/lv_mem.h ****  * Wrapper for the standard memcpy
 148:lvgl\src\lv_core\../lv_font/../lv_misc/lv_mem.h ****  * @param dst pointer to the destination buffer
 149:lvgl\src\lv_core\../lv_font/../lv_misc/lv_mem.h ****  * @param src pointer to the source buffer
 150:lvgl\src\lv_core\../lv_font/../lv_misc/lv_mem.h ****  * @param len number of byte to copy
 151:lvgl\src\lv_core\../lv_font/../lv_misc/lv_mem.h ****  */
 152:lvgl\src\lv_core\../lv_font/../lv_misc/lv_mem.h **** static inline void * _lv_memcpy(void * dst, const void * src, size_t len)
 153:lvgl\src\lv_core\../lv_font/../lv_misc/lv_mem.h **** {
 154:lvgl\src\lv_core\../lv_font/../lv_misc/lv_mem.h ****     return memcpy(dst, src, len);
 155:lvgl\src\lv_core\../lv_font/../lv_misc/lv_mem.h **** }
 156:lvgl\src\lv_core\../lv_font/../lv_misc/lv_mem.h **** 
 157:lvgl\src\lv_core\../lv_font/../lv_misc/lv_mem.h **** /**
 158:lvgl\src\lv_core\../lv_font/../lv_misc/lv_mem.h ****  * Wrapper for the standard memcpy
 159:lvgl\src\lv_core\../lv_font/../lv_misc/lv_mem.h ****  * @param dst pointer to the destination buffer
 160:lvgl\src\lv_core\../lv_font/../lv_misc/lv_mem.h ****  * @param src pointer to the source buffer
 161:lvgl\src\lv_core\../lv_font/../lv_misc/lv_mem.h ****  * @param len number of byte to copy
 162:lvgl\src\lv_core\../lv_font/../lv_misc/lv_mem.h ****  */
 163:lvgl\src\lv_core\../lv_font/../lv_misc/lv_mem.h **** static inline void * _lv_memcpy_small(void * dst, const void * src, size_t len)
 164:lvgl\src\lv_core\../lv_font/../lv_misc/lv_mem.h **** {
 165:lvgl\src\lv_core\../lv_font/../lv_misc/lv_mem.h ****     return memcpy(dst, src, len);
 166:lvgl\src\lv_core\../lv_font/../lv_misc/lv_mem.h **** }
 167:lvgl\src\lv_core\../lv_font/../lv_misc/lv_mem.h **** 
 168:lvgl\src\lv_core\../lv_font/../lv_misc/lv_mem.h **** /**
 169:lvgl\src\lv_core\../lv_font/../lv_misc/lv_mem.h ****  * Wrapper for the standard memset
 170:lvgl\src\lv_core\../lv_font/../lv_misc/lv_mem.h ****  * @param dst pointer to the destination buffer
 171:lvgl\src\lv_core\../lv_font/../lv_misc/lv_mem.h ****  * @param v value to set [0..255]
 172:lvgl\src\lv_core\../lv_font/../lv_misc/lv_mem.h ****  * @param len number of byte to set
 173:lvgl\src\lv_core\../lv_font/../lv_misc/lv_mem.h ****  */
 174:lvgl\src\lv_core\../lv_font/../lv_misc/lv_mem.h **** static inline void _lv_memset(void * dst, uint8_t v, size_t len)
 175:lvgl\src\lv_core\../lv_font/../lv_misc/lv_mem.h **** {
 176:lvgl\src\lv_core\../lv_font/../lv_misc/lv_mem.h ****     memset(dst, v, len);
 177:lvgl\src\lv_core\../lv_font/../lv_misc/lv_mem.h **** }
 178:lvgl\src\lv_core\../lv_font/../lv_misc/lv_mem.h **** 
 179:lvgl\src\lv_core\../lv_font/../lv_misc/lv_mem.h **** /**
 180:lvgl\src\lv_core\../lv_font/../lv_misc/lv_mem.h ****  * Wrapper for the standard memset with fixed 0x00 value
 181:lvgl\src\lv_core\../lv_font/../lv_misc/lv_mem.h ****  * @param dst pointer to the destination buffer
 182:lvgl\src\lv_core\../lv_font/../lv_misc/lv_mem.h ****  * @param len number of byte to set
 183:lvgl\src\lv_core\../lv_font/../lv_misc/lv_mem.h ****  */
 184:lvgl\src\lv_core\../lv_font/../lv_misc/lv_mem.h **** static inline void _lv_memset_00(void * dst, size_t len)
 185:lvgl\src\lv_core\../lv_font/../lv_misc/lv_mem.h **** {
 186:lvgl\src\lv_core\../lv_font/../lv_misc/lv_mem.h ****     memset(dst, 0x00, len);
 187:lvgl\src\lv_core\../lv_font/../lv_misc/lv_mem.h **** }
 188:lvgl\src\lv_core\../lv_font/../lv_misc/lv_mem.h **** 
 189:lvgl\src\lv_core\../lv_font/../lv_misc/lv_mem.h **** /**
 190:lvgl\src\lv_core\../lv_font/../lv_misc/lv_mem.h ****  * Wrapper for the standard memset with fixed 0xFF value
 191:lvgl\src\lv_core\../lv_font/../lv_misc/lv_mem.h ****  * @param dst pointer to the destination buffer
 192:lvgl\src\lv_core\../lv_font/../lv_misc/lv_mem.h ****  * @param len number of byte to set
 193:lvgl\src\lv_core\../lv_font/../lv_misc/lv_mem.h ****  */
 194:lvgl\src\lv_core\../lv_font/../lv_misc/lv_mem.h **** static inline void _lv_memset_ff(void * dst, size_t len)
ARM GAS  C:\Users\strap\AppData\Local\Temp\cc7bAV43.s 			page 55


 195:lvgl\src\lv_core\../lv_font/../lv_misc/lv_mem.h **** {
 196:lvgl\src\lv_core\../lv_font/../lv_misc/lv_mem.h ****     memset(dst, 0xFF, len);
 197:lvgl\src\lv_core\../lv_font/../lv_misc/lv_mem.h **** }
 198:lvgl\src\lv_core\../lv_font/../lv_misc/lv_mem.h **** 
 199:lvgl\src\lv_core\../lv_font/../lv_misc/lv_mem.h **** #else
 200:lvgl\src\lv_core\../lv_font/../lv_misc/lv_mem.h **** /**
 201:lvgl\src\lv_core\../lv_font/../lv_misc/lv_mem.h ****  * Same as `memcpy` but optimized for 4 byte operation.
 202:lvgl\src\lv_core\../lv_font/../lv_misc/lv_mem.h ****  * @param dst pointer to the destination buffer
 203:lvgl\src\lv_core\../lv_font/../lv_misc/lv_mem.h ****  * @param src pointer to the source buffer
 204:lvgl\src\lv_core\../lv_font/../lv_misc/lv_mem.h ****  * @param len number of byte to copy
 205:lvgl\src\lv_core\../lv_font/../lv_misc/lv_mem.h ****  */
 206:lvgl\src\lv_core\../lv_font/../lv_misc/lv_mem.h **** LV_ATTRIBUTE_FAST_MEM void * _lv_memcpy(void * dst, const void * src, size_t len);
 207:lvgl\src\lv_core\../lv_font/../lv_misc/lv_mem.h **** 
 208:lvgl\src\lv_core\../lv_font/../lv_misc/lv_mem.h **** /**
 209:lvgl\src\lv_core\../lv_font/../lv_misc/lv_mem.h ****  * Same as `memcpy` but optimized to copy only a few bytes.
 210:lvgl\src\lv_core\../lv_font/../lv_misc/lv_mem.h ****  * @param dst pointer to the destination buffer
 211:lvgl\src\lv_core\../lv_font/../lv_misc/lv_mem.h ****  * @param src pointer to the source buffer
 212:lvgl\src\lv_core\../lv_font/../lv_misc/lv_mem.h ****  * @param len number of byte to copy
 213:lvgl\src\lv_core\../lv_font/../lv_misc/lv_mem.h ****  */
 214:lvgl\src\lv_core\../lv_font/../lv_misc/lv_mem.h **** LV_ATTRIBUTE_FAST_MEM static inline void * _lv_memcpy_small(void * dst, const void * src, size_t le
 215:lvgl\src\lv_core\../lv_font/../lv_misc/lv_mem.h **** {
 216:lvgl\src\lv_core\../lv_font/../lv_misc/lv_mem.h ****     uint8_t * d8 = (uint8_t *)dst;
 217:lvgl\src\lv_core\../lv_font/../lv_misc/lv_mem.h ****     const uint8_t * s8 = (const uint8_t *)src;
 1227              		.loc 3 217 0
 1228 00cc 01A9     		add	r1, sp, #4
 1229              	.LVL172:
 1230              	.LBE252:
 1231              	.LBE251:
 374:lvgl\src\lv_core/lv_style.c ****             return;
 1232              		.loc 1 374 0
 1233 00ce 0222     		movs	r2, #2
 1234 00d0 04E0     		b	.L95
 1235              	.LVL173:
 1236              	.L96:
 1237              	.LBB254:
 1238              	.LBB253:
 218:lvgl\src\lv_core\../lv_font/../lv_misc/lv_mem.h **** 
 219:lvgl\src\lv_core\../lv_font/../lv_misc/lv_mem.h ****     while(len) {
 220:lvgl\src\lv_core\../lv_font/../lv_misc/lv_mem.h ****         *d8 = *s8;
 1239              		.loc 3 220 0
 1240 00d2 11F8010B 		ldrb	r0, [r1], #1	@ zero_extendqisi2
 1241              	.LVL174:
 1242 00d6 03F8010B 		strb	r0, [r3], #1
 1243              	.LVL175:
 221:lvgl\src\lv_core\../lv_font/../lv_misc/lv_mem.h ****         d8++;
 222:lvgl\src\lv_core\../lv_font/../lv_misc/lv_mem.h ****         s8++;
 223:lvgl\src\lv_core\../lv_font/../lv_misc/lv_mem.h ****         len--;
 1244              		.loc 3 223 0
 1245 00da 013A     		subs	r2, r2, #1
 1246              	.LVL176:
 1247              	.L95:
 219:lvgl\src\lv_core\../lv_font/../lv_misc/lv_mem.h ****         *d8 = *s8;
 1248              		.loc 3 219 0
 1249 00dc 002A     		cmp	r2, #0
 1250 00de F8D1     		bne	.L96
 1251 00e0 43E0     		b	.L87
 1252              	.LVL177:
ARM GAS  C:\Users\strap\AppData\Local\Temp\cc7bAV43.s 			page 56


 1253              	.L94:
 1254 00e2 0546     		mov	r5, r0
 1255              	.LVL178:
 1256              	.LBE253:
 1257              	.LBE254:
 1258              	.LBE246:
 381:lvgl\src\lv_core/lv_style.c ****     uint8_t end_mark_size = sizeof(end_mark);
 1259              		.loc 1 381 0
 1260 00e4 FF23     		movs	r3, #255
 1261 00e6 ADF80E30 		strh	r3, [sp, #14]	@ movhi
 1262              	.LVL179:
 384:lvgl\src\lv_core/lv_style.c ****     if(size == 0) size += end_mark_size;
 1263              		.loc 1 384 0
 1264 00ea FFF7FEFF 		bl	_lv_style_get_mem_size
 1265              	.LVL180:
 385:lvgl\src\lv_core/lv_style.c ****     size += sizeof(lv_style_property_t) + sizeof(lv_style_int_t);
 1266              		.loc 1 385 0
 1267 00ee 0346     		mov	r3, r0
 1268 00f0 08B9     		cbnz	r0, .L98
 385:lvgl\src\lv_core/lv_style.c ****     size += sizeof(lv_style_property_t) + sizeof(lv_style_int_t);
 1269              		.loc 1 385 0 is_stmt 0 discriminator 1
 1270 00f2 0233     		adds	r3, r3, #2
 1271 00f4 9BB2     		uxth	r3, r3
 1272              	.LVL181:
 1273              	.L98:
 386:lvgl\src\lv_core/lv_style.c ****     style_resize(style, size);
 1274              		.loc 1 386 0 is_stmt 1
 1275 00f6 0433     		adds	r3, r3, #4
 1276              	.LVL182:
 1277 00f8 9CB2     		uxth	r4, r3
 1278              	.LVL183:
 1279              	.LBB255:
 1280              	.LBB256:
1132:lvgl\src\lv_core/lv_style.c **** }
 1281              		.loc 1 1132 0
 1282 00fa 2146     		mov	r1, r4
 1283 00fc 2868     		ldr	r0, [r5]
 1284 00fe FFF7FEFF 		bl	lv_mem_realloc
 1285              	.LVL184:
 1286 0102 2860     		str	r0, [r5]
 1287              	.LVL185:
 1288              	.LBE256:
 1289              	.LBE255:
 388:lvgl\src\lv_core/lv_style.c ****     if(style == NULL) return;
 1290              		.loc 1 388 0
 1291 0104 FFF7FEFF 		bl	lv_debug_check_null
 1292              	.LVL186:
 1293 0108 28B9     		cbnz	r0, .L99
 388:lvgl\src\lv_core/lv_style.c ****     if(style == NULL) return;
 1294              		.loc 1 388 0 is_stmt 0 discriminator 1
 1295 010a 2A68     		ldr	r2, [r5]
 1296 010c 0023     		movs	r3, #0
 1297 010e 1848     		ldr	r0, .L113
 1298 0110 FFF7FEFF 		bl	lv_debug_log_error
 1299              	.LVL187:
 1300              	.L100:
 1301 0114 FEE7     		b	.L100
ARM GAS  C:\Users\strap\AppData\Local\Temp\cc7bAV43.s 			page 57


 1302              	.L99:
 389:lvgl\src\lv_core/lv_style.c **** 
 1303              		.loc 1 389 0 is_stmt 1
 1304 0116 45B3     		cbz	r5, .L87
 391:lvgl\src\lv_core/lv_style.c ****     _lv_memcpy_small(style->map + size - sizeof(lv_style_int_t) - end_mark_size, &value, sizeof(lv_
 1305              		.loc 1 391 0
 1306 0118 2A68     		ldr	r2, [r5]
 1307 011a A31F     		subs	r3, r4, #6
 1308 011c 1344     		add	r3, r3, r2
 1309              	.LVL188:
 1310              	.LBB257:
 1311              	.LBB258:
 217:lvgl\src\lv_core\../lv_font/../lv_misc/lv_mem.h **** 
 1312              		.loc 3 217 0
 1313 011e 0DF10601 		add	r1, sp, #6
 1314              	.LVL189:
 1315              	.LBE258:
 1316              	.LBE257:
 391:lvgl\src\lv_core/lv_style.c ****     _lv_memcpy_small(style->map + size - sizeof(lv_style_int_t) - end_mark_size, &value, sizeof(lv_
 1317              		.loc 1 391 0
 1318 0122 0222     		movs	r2, #2
 1319 0124 04E0     		b	.L101
 1320              	.LVL190:
 1321              	.L102:
 1322              	.LBB260:
 1323              	.LBB259:
 220:lvgl\src\lv_core\../lv_font/../lv_misc/lv_mem.h ****         d8++;
 1324              		.loc 3 220 0
 1325 0126 11F8010B 		ldrb	r0, [r1], #1	@ zero_extendqisi2
 1326              	.LVL191:
 1327 012a 03F8010B 		strb	r0, [r3], #1
 1328              	.LVL192:
 1329              		.loc 3 223 0
 1330 012e 013A     		subs	r2, r2, #1
 1331              	.LVL193:
 1332              	.L101:
 219:lvgl\src\lv_core\../lv_font/../lv_misc/lv_mem.h ****         *d8 = *s8;
 1333              		.loc 3 219 0
 1334 0130 002A     		cmp	r2, #0
 1335 0132 F8D1     		bne	.L102
 1336              	.LVL194:
 1337              	.LBE259:
 1338              	.LBE260:
 392:lvgl\src\lv_core/lv_style.c ****     _lv_memcpy_small(style->map + size - end_mark_size, &end_mark, sizeof(end_mark));
 1339              		.loc 1 392 0
 1340 0134 2A68     		ldr	r2, [r5]
 1341 0136 231F     		subs	r3, r4, #4
 1342              	.LVL195:
 1343 0138 1344     		add	r3, r3, r2
 1344              	.LVL196:
 1345              	.LBB261:
 1346              	.LBB262:
 217:lvgl\src\lv_core\../lv_font/../lv_misc/lv_mem.h **** 
 1347              		.loc 3 217 0
 1348 013a 01A9     		add	r1, sp, #4
 1349              	.LVL197:
 1350              	.LBE262:
ARM GAS  C:\Users\strap\AppData\Local\Temp\cc7bAV43.s 			page 58


 1351              	.LBE261:
 392:lvgl\src\lv_core/lv_style.c ****     _lv_memcpy_small(style->map + size - end_mark_size, &end_mark, sizeof(end_mark));
 1352              		.loc 1 392 0
 1353 013c 0222     		movs	r2, #2
 1354 013e 04E0     		b	.L103
 1355              	.LVL198:
 1356              	.L104:
 1357              	.LBB264:
 1358              	.LBB263:
 220:lvgl\src\lv_core\../lv_font/../lv_misc/lv_mem.h ****         d8++;
 1359              		.loc 3 220 0
 1360 0140 11F8010B 		ldrb	r0, [r1], #1	@ zero_extendqisi2
 1361              	.LVL199:
 1362 0144 03F8010B 		strb	r0, [r3], #1
 1363              	.LVL200:
 1364              		.loc 3 223 0
 1365 0148 013A     		subs	r2, r2, #1
 1366              	.LVL201:
 1367              	.L103:
 219:lvgl\src\lv_core\../lv_font/../lv_misc/lv_mem.h ****         *d8 = *s8;
 1368              		.loc 3 219 0
 1369 014a 002A     		cmp	r2, #0
 1370 014c F8D1     		bne	.L104
 1371              	.LVL202:
 1372              	.LBE263:
 1373              	.LBE264:
 393:lvgl\src\lv_core/lv_style.c **** }
 1374              		.loc 1 393 0
 1375 014e 2B68     		ldr	r3, [r5]
 1376              	.LVL203:
 1377 0150 023C     		subs	r4, r4, #2
 1378 0152 2344     		add	r3, r3, r4
 1379              	.LVL204:
 1380              	.LBB265:
 1381              	.LBB266:
 217:lvgl\src\lv_core\../lv_font/../lv_misc/lv_mem.h **** 
 1382              		.loc 3 217 0
 1383 0154 0DF10E01 		add	r1, sp, #14
 1384              	.LVL205:
 1385              	.LBE266:
 1386              	.LBE265:
 393:lvgl\src\lv_core/lv_style.c **** }
 1387              		.loc 1 393 0
 1388 0158 0222     		movs	r2, #2
 1389 015a 04E0     		b	.L105
 1390              	.LVL206:
 1391              	.L106:
 1392              	.LBB268:
 1393              	.LBB267:
 220:lvgl\src\lv_core\../lv_font/../lv_misc/lv_mem.h ****         d8++;
 1394              		.loc 3 220 0
 1395 015c 11F8010B 		ldrb	r0, [r1], #1	@ zero_extendqisi2
 1396              	.LVL207:
 1397 0160 03F8010B 		strb	r0, [r3], #1
 1398              	.LVL208:
 1399              		.loc 3 223 0
 1400 0164 013A     		subs	r2, r2, #1
ARM GAS  C:\Users\strap\AppData\Local\Temp\cc7bAV43.s 			page 59


 1401              	.LVL209:
 1402              	.L105:
 219:lvgl\src\lv_core\../lv_font/../lv_misc/lv_mem.h ****         *d8 = *s8;
 1403              		.loc 3 219 0
 1404 0166 002A     		cmp	r2, #0
 1405 0168 F8D1     		bne	.L106
 1406              	.LVL210:
 1407              	.L87:
 1408              	.LBE267:
 1409              	.LBE268:
 394:lvgl\src\lv_core/lv_style.c **** 
 1410              		.loc 1 394 0
 1411 016a 05B0     		add	sp, sp, #20
 1412              		.cfi_def_cfa_offset 20
 1413              		@ sp needed
 1414 016c F0BD     		pop	{r4, r5, r6, r7, pc}
 1415              	.L114:
 1416 016e 00BF     		.align	2
 1417              	.L113:
 1418 0170 00000000 		.word	.LC0
 1419              		.cfi_endproc
 1420              	.LFE338:
 1421              		.size	_lv_style_set_int, .-_lv_style_set_int
 1422              		.section	.text._lv_style_set_color,"ax",%progbits
 1423              		.align	2
 1424              		.global	_lv_style_set_color
 1425              		.thumb
 1426              		.thumb_func
 1427              		.type	_lv_style_set_color, %function
 1428              	_lv_style_set_color:
 1429              	.LFB339:
 407:lvgl\src\lv_core/lv_style.c ****     LV_ASSERT_STYLE(style);
 1430              		.loc 1 407 0
 1431              		.cfi_startproc
 1432              		@ args = 0, pretend = 0, frame = 16
 1433              		@ frame_needed = 0, uses_anonymous_args = 0
 1434              	.LVL211:
 1435 0000 F0B5     		push	{r4, r5, r6, r7, lr}
 1436              		.cfi_def_cfa_offset 20
 1437              		.cfi_offset 4, -20
 1438              		.cfi_offset 5, -16
 1439              		.cfi_offset 6, -12
 1440              		.cfi_offset 7, -8
 1441              		.cfi_offset 14, -4
 1442 0002 85B0     		sub	sp, sp, #20
 1443              		.cfi_def_cfa_offset 40
 1444 0004 ADF80420 		strh	r2, [sp, #4]	@ movhi
 1445 0008 ADF80610 		strh	r1, [sp, #6]	@ movhi
 1446              	.LVL212:
 1447              	.LBB299:
 1448              	.LBB300:
1060:lvgl\src\lv_core/lv_style.c **** 
 1449              		.loc 1 1060 0
 1450 000c 0368     		ldr	r3, [r0]
 1451 000e 002B     		cmp	r3, #0
 1452 0010 43D0     		beq	.L136
1062:lvgl\src\lv_core/lv_style.c ****     lv_style_attr_t attr;
ARM GAS  C:\Users\strap\AppData\Local\Temp\cc7bAV43.s 			page 60


 1453              		.loc 1 1062 0
 1454 0012 CEB2     		uxtb	r6, r1
 1455              	.LVL213:
1064:lvgl\src\lv_core/lv_style.c **** 
 1456              		.loc 1 1064 0
 1457 0014 0D0A     		lsrs	r5, r1, #8
 1458              	.LVL214:
1069:lvgl\src\lv_core/lv_style.c **** 
 1459              		.loc 1 1069 0
 1460 0016 0022     		movs	r2, #0
1067:lvgl\src\lv_core/lv_style.c **** 
 1461              		.loc 1 1067 0
 1462 0018 4FF0FF34 		mov	r4, #-1
1066:lvgl\src\lv_core/lv_style.c ****     int16_t id_guess = -1;
 1463              		.loc 1 1066 0
 1464 001c 2746     		mov	r7, r4
 1465 001e 2EE0     		b	.L117
 1466              	.LVL215:
 1467              	.L121:
1073:lvgl\src\lv_core/lv_style.c ****             lv_style_attr_t attr_i;
 1468              		.loc 1 1073 0
 1469 0020 9E42     		cmp	r6, r3
 1470 0022 1CD1     		bne	.L118
 1471              	.LVL216:
 1472              	.LBB301:
 1473              	.LBB302:
 1474              	.LBB303:
 1475              	.LBB304:
 1476              	.LBB305:
1145:lvgl\src\lv_core/lv_style.c ****     prop_p[1] = style->map[idx + 1];
 1477              		.loc 1 1145 0
 1478 0024 D0F800E0 		ldr	lr, [r0]
 1479 0028 1EF802C0 		ldrb	ip, [lr, r2]	@ zero_extendqisi2
 1480 002c 8DF80CC0 		strb	ip, [sp, #12]
1146:lvgl\src\lv_core/lv_style.c ****     return prop;
 1481              		.loc 1 1146 0
 1482 0030 1EF80110 		ldrb	r1, [lr, r1]	@ zero_extendqisi2
 1483 0034 8DF80D10 		strb	r1, [sp, #13]
1147:lvgl\src\lv_core/lv_style.c **** }
 1484              		.loc 1 1147 0
 1485 0038 BDF80C10 		ldrh	r1, [sp, #12]
 1486              	.LVL217:
 1487              	.LBE305:
 1488              	.LBE304:
1169:lvgl\src\lv_core/lv_style.c **** }
 1489              		.loc 1 1169 0
 1490 003c 090A     		lsrs	r1, r1, #8
 1491              	.LVL218:
 1492              	.LBE303:
 1493              	.LBE302:
1078:lvgl\src\lv_core/lv_style.c ****                 return i;
 1494              		.loc 1 1078 0
 1495 003e 85EA010E 		eor	lr, r5, r1
 1496 0042 1EF07F0F 		tst	lr, #127
 1497 0046 2AD0     		beq	.L116
 1498 0048 01F07F01 		and	r1, r1, #127
1083:lvgl\src\lv_core/lv_style.c ****                 /* Use this property if it describes better the requested state than the current ca
ARM GAS  C:\Users\strap\AppData\Local\Temp\cc7bAV43.s 			page 61


 1499              		.loc 1 1083 0
 1500 004c 05F07F0E 		and	lr, r5, #127
 1501 0050 31EA0E0E 		bics	lr, r1, lr
 1502 0054 03D1     		bne	.L118
1086:lvgl\src\lv_core/lv_style.c ****                     weight = LV_STYLE_ATTR_GET_STATE(attr_i);
 1503              		.loc 1 1086 0
 1504 0056 B942     		cmp	r1, r7
 1505 0058 01DD     		ble	.L118
1087:lvgl\src\lv_core/lv_style.c ****                     id_guess = i;
 1506              		.loc 1 1087 0
 1507 005a 0FB2     		sxth	r7, r1
 1508              	.LVL219:
1088:lvgl\src\lv_core/lv_style.c ****                 }
 1509              		.loc 1 1088 0
 1510 005c 14B2     		sxth	r4, r2
 1511              	.LVL220:
 1512              	.L118:
 1513              	.LBE301:
 1514              	.LBB306:
 1515              	.LBB307:
 1516              	.LBB308:
 1517              	.LBB309:
1181:lvgl\src\lv_core/lv_style.c ****     size_t size = sizeof(lv_style_property_t);
 1518              		.loc 1 1181 0
 1519 005e 03F00F03 		and	r3, r3, #15
 1520              	.LVL221:
1183:lvgl\src\lv_core/lv_style.c ****     else if(prop_id < LV_STYLE_ID_OPA) size += sizeof(lv_color_t);
 1521              		.loc 1 1183 0
 1522 0062 082B     		cmp	r3, #8
 1523 0064 05D9     		bls	.L137
1184:lvgl\src\lv_core/lv_style.c ****     else if(prop_id < LV_STYLE_ID_PTR) size += sizeof(lv_opa_t);
 1524              		.loc 1 1184 0
 1525 0066 0B2B     		cmp	r3, #11
 1526 0068 05D9     		bls	.L138
1185:lvgl\src\lv_core/lv_style.c ****     else size += sizeof(const void *);
 1527              		.loc 1 1185 0
 1528 006a 0D2B     		cmp	r3, #13
 1529 006c 05D8     		bhi	.L139
 1530 006e 0323     		movs	r3, #3
 1531              	.LVL222:
 1532 0070 04E0     		b	.L120
 1533              	.LVL223:
 1534              	.L137:
1183:lvgl\src\lv_core/lv_style.c ****     else if(prop_id < LV_STYLE_ID_OPA) size += sizeof(lv_color_t);
 1535              		.loc 1 1183 0
 1536 0072 0423     		movs	r3, #4
 1537              	.LVL224:
 1538 0074 02E0     		b	.L120
 1539              	.LVL225:
 1540              	.L138:
1184:lvgl\src\lv_core/lv_style.c ****     else if(prop_id < LV_STYLE_ID_PTR) size += sizeof(lv_opa_t);
 1541              		.loc 1 1184 0
 1542 0076 0423     		movs	r3, #4
 1543              	.LVL226:
 1544 0078 00E0     		b	.L120
 1545              	.LVL227:
 1546              	.L139:
ARM GAS  C:\Users\strap\AppData\Local\Temp\cc7bAV43.s 			page 62


1186:lvgl\src\lv_core/lv_style.c ****     return size;
 1547              		.loc 1 1186 0
 1548 007a 0623     		movs	r3, #6
 1549              	.LVL228:
 1550              	.L120:
 1551              	.LBE309:
 1552              	.LBE308:
 1553              		.loc 1 1198 0
 1554 007c 1A44     		add	r2, r2, r3
 1555              	.LVL229:
 1556              	.L117:
 1557              	.LBE307:
 1558              	.LBE306:
 1559              	.LBB310:
 1560              	.LBB311:
 1561              	.LBB312:
 1562              	.LBB313:
1145:lvgl\src\lv_core/lv_style.c ****     prop_p[1] = style->map[idx + 1];
 1563              		.loc 1 1145 0
 1564 007e 0368     		ldr	r3, [r0]
 1565 0080 995C     		ldrb	r1, [r3, r2]	@ zero_extendqisi2
 1566 0082 8DF80C10 		strb	r1, [sp, #12]
1146:lvgl\src\lv_core/lv_style.c ****     return prop;
 1567              		.loc 1 1146 0
 1568 0086 511C     		adds	r1, r2, #1
 1569 0088 5B5C     		ldrb	r3, [r3, r1]	@ zero_extendqisi2
 1570 008a 8DF80D30 		strb	r3, [sp, #13]
 1571              	.LVL230:
 1572              	.LBE313:
 1573              	.LBE312:
1158:lvgl\src\lv_core/lv_style.c **** }
 1574              		.loc 1 1158 0
 1575 008e 9DF80C30 		ldrb	r3, [sp, #12]	@ zero_extendqisi2
 1576              	.LVL231:
 1577              	.LBE311:
 1578              	.LBE310:
1072:lvgl\src\lv_core/lv_style.c ****         if(prop_id == id_to_find) {
 1579              		.loc 1 1072 0
 1580 0092 FF2B     		cmp	r3, #255
 1581 0094 C4D1     		bne	.L121
1096:lvgl\src\lv_core/lv_style.c **** }
 1582              		.loc 1 1096 0
 1583 0096 2246     		mov	r2, r4
 1584              	.LVL232:
 1585 0098 01E0     		b	.L116
 1586              	.LVL233:
 1587              	.L136:
1060:lvgl\src\lv_core/lv_style.c **** 
 1588              		.loc 1 1060 0
 1589 009a 4FF0FF32 		mov	r2, #-1
 1590              	.LVL234:
 1591              	.L116:
 1592              	.LBE300:
 1593              	.LBE299:
 412:lvgl\src\lv_core/lv_style.c ****         lv_style_attr_t attr_found;
 1594              		.loc 1 412 0
 1595 009e 002A     		cmp	r2, #0
ARM GAS  C:\Users\strap\AppData\Local\Temp\cc7bAV43.s 			page 63


 1596 00a0 1FDB     		blt	.L122
 1597              	.LVL235:
 1598              	.LBB314:
 1599              	.LBB315:
 1600              	.LBB316:
 1601              	.LBB317:
 1602              	.LBB318:
1145:lvgl\src\lv_core/lv_style.c ****     prop_p[1] = style->map[idx + 1];
 1603              		.loc 1 1145 0
 1604 00a2 0368     		ldr	r3, [r0]
 1605 00a4 995C     		ldrb	r1, [r3, r2]	@ zero_extendqisi2
 1606 00a6 8DF80C10 		strb	r1, [sp, #12]
1146:lvgl\src\lv_core/lv_style.c ****     return prop;
 1607              		.loc 1 1146 0
 1608 00aa 1344     		add	r3, r3, r2
 1609 00ac 5B78     		ldrb	r3, [r3, #1]	@ zero_extendqisi2
 1610 00ae 8DF80D30 		strb	r3, [sp, #13]
1147:lvgl\src\lv_core/lv_style.c **** }
 1611              		.loc 1 1147 0
 1612 00b2 BDF80C10 		ldrh	r1, [sp, #12]
 1613              	.LVL236:
 1614              	.LBE318:
 1615              	.LBE317:
 1616              	.LBE316:
 1617              	.LBE315:
 417:lvgl\src\lv_core/lv_style.c **** 
 1618              		.loc 1 417 0
 1619 00b6 BDF80630 		ldrh	r3, [sp, #6]
 1620 00ba 1B0A     		lsrs	r3, r3, #8
 1621              	.LVL237:
 419:lvgl\src\lv_core/lv_style.c ****             _lv_memcpy_small(style->map + id + sizeof(lv_style_property_t), &color, sizeof(lv_color
 1622              		.loc 1 419 0
 1623 00bc 83EA1123 		eor	r3, r3, r1, lsr #8
 1624              	.LVL238:
 1625 00c0 13F07F0F 		tst	r3, #127
 1626 00c4 0DD1     		bne	.L122
 420:lvgl\src\lv_core/lv_style.c ****             return;
 1627              		.loc 1 420 0
 1628 00c6 0368     		ldr	r3, [r0]
 1629 00c8 0232     		adds	r2, r2, #2
 1630 00ca 1344     		add	r3, r3, r2
 1631              	.LVL239:
 1632              	.LBB319:
 1633              	.LBB320:
 217:lvgl\src\lv_core\../lv_font/../lv_misc/lv_mem.h **** 
 1634              		.loc 3 217 0
 1635 00cc 01A9     		add	r1, sp, #4
 1636              	.LVL240:
 1637              	.LBE320:
 1638              	.LBE319:
 420:lvgl\src\lv_core/lv_style.c ****             return;
 1639              		.loc 1 420 0
 1640 00ce 0222     		movs	r2, #2
 1641 00d0 04E0     		b	.L123
 1642              	.LVL241:
 1643              	.L124:
 1644              	.LBB322:
ARM GAS  C:\Users\strap\AppData\Local\Temp\cc7bAV43.s 			page 64


 1645              	.LBB321:
 220:lvgl\src\lv_core\../lv_font/../lv_misc/lv_mem.h ****         d8++;
 1646              		.loc 3 220 0
 1647 00d2 11F8010B 		ldrb	r0, [r1], #1	@ zero_extendqisi2
 1648              	.LVL242:
 1649 00d6 03F8010B 		strb	r0, [r3], #1
 1650              	.LVL243:
 1651              		.loc 3 223 0
 1652 00da 013A     		subs	r2, r2, #1
 1653              	.LVL244:
 1654              	.L123:
 219:lvgl\src\lv_core\../lv_font/../lv_misc/lv_mem.h ****         *d8 = *s8;
 1655              		.loc 3 219 0
 1656 00dc 002A     		cmp	r2, #0
 1657 00de F8D1     		bne	.L124
 1658 00e0 43E0     		b	.L115
 1659              	.LVL245:
 1660              	.L122:
 1661 00e2 0546     		mov	r5, r0
 1662              	.LVL246:
 1663              	.LBE321:
 1664              	.LBE322:
 1665              	.LBE314:
 427:lvgl\src\lv_core/lv_style.c ****     uint8_t end_mark_size = sizeof(end_mark);
 1666              		.loc 1 427 0
 1667 00e4 FF23     		movs	r3, #255
 1668 00e6 ADF80E30 		strh	r3, [sp, #14]	@ movhi
 1669              	.LVL247:
 430:lvgl\src\lv_core/lv_style.c ****     if(size == 0) size += end_mark_size;
 1670              		.loc 1 430 0
 1671 00ea FFF7FEFF 		bl	_lv_style_get_mem_size
 1672              	.LVL248:
 431:lvgl\src\lv_core/lv_style.c **** 
 1673              		.loc 1 431 0
 1674 00ee 0346     		mov	r3, r0
 1675 00f0 08B9     		cbnz	r0, .L126
 431:lvgl\src\lv_core/lv_style.c **** 
 1676              		.loc 1 431 0 is_stmt 0 discriminator 1
 1677 00f2 0233     		adds	r3, r3, #2
 1678 00f4 9BB2     		uxth	r3, r3
 1679              	.LVL249:
 1680              	.L126:
 433:lvgl\src\lv_core/lv_style.c ****     style_resize(style, size);
 1681              		.loc 1 433 0 is_stmt 1
 1682 00f6 0433     		adds	r3, r3, #4
 1683              	.LVL250:
 1684 00f8 9CB2     		uxth	r4, r3
 1685              	.LVL251:
 1686              	.LBB323:
 1687              	.LBB324:
1132:lvgl\src\lv_core/lv_style.c **** }
 1688              		.loc 1 1132 0
 1689 00fa 2146     		mov	r1, r4
 1690 00fc 2868     		ldr	r0, [r5]
 1691 00fe FFF7FEFF 		bl	lv_mem_realloc
 1692              	.LVL252:
 1693 0102 2860     		str	r0, [r5]
ARM GAS  C:\Users\strap\AppData\Local\Temp\cc7bAV43.s 			page 65


 1694              	.LVL253:
 1695              	.LBE324:
 1696              	.LBE323:
 435:lvgl\src\lv_core/lv_style.c ****     if(style == NULL) return;
 1697              		.loc 1 435 0
 1698 0104 FFF7FEFF 		bl	lv_debug_check_null
 1699              	.LVL254:
 1700 0108 28B9     		cbnz	r0, .L127
 435:lvgl\src\lv_core/lv_style.c ****     if(style == NULL) return;
 1701              		.loc 1 435 0 is_stmt 0 discriminator 1
 1702 010a 2A68     		ldr	r2, [r5]
 1703 010c 0023     		movs	r3, #0
 1704 010e 1848     		ldr	r0, .L141
 1705 0110 FFF7FEFF 		bl	lv_debug_log_error
 1706              	.LVL255:
 1707              	.L128:
 1708 0114 FEE7     		b	.L128
 1709              	.L127:
 436:lvgl\src\lv_core/lv_style.c **** 
 1710              		.loc 1 436 0 is_stmt 1
 1711 0116 45B3     		cbz	r5, .L115
 438:lvgl\src\lv_core/lv_style.c ****     _lv_memcpy_small(style->map + size - sizeof(lv_color_t) - end_mark_size, &color, sizeof(lv_colo
 1712              		.loc 1 438 0
 1713 0118 2A68     		ldr	r2, [r5]
 1714 011a A31F     		subs	r3, r4, #6
 1715 011c 1344     		add	r3, r3, r2
 1716              	.LVL256:
 1717              	.LBB325:
 1718              	.LBB326:
 217:lvgl\src\lv_core\../lv_font/../lv_misc/lv_mem.h **** 
 1719              		.loc 3 217 0
 1720 011e 0DF10601 		add	r1, sp, #6
 1721              	.LVL257:
 1722              	.LBE326:
 1723              	.LBE325:
 438:lvgl\src\lv_core/lv_style.c ****     _lv_memcpy_small(style->map + size - sizeof(lv_color_t) - end_mark_size, &color, sizeof(lv_colo
 1724              		.loc 1 438 0
 1725 0122 0222     		movs	r2, #2
 1726 0124 04E0     		b	.L129
 1727              	.LVL258:
 1728              	.L130:
 1729              	.LBB328:
 1730              	.LBB327:
 220:lvgl\src\lv_core\../lv_font/../lv_misc/lv_mem.h ****         d8++;
 1731              		.loc 3 220 0
 1732 0126 11F8010B 		ldrb	r0, [r1], #1	@ zero_extendqisi2
 1733              	.LVL259:
 1734 012a 03F8010B 		strb	r0, [r3], #1
 1735              	.LVL260:
 1736              		.loc 3 223 0
 1737 012e 013A     		subs	r2, r2, #1
 1738              	.LVL261:
 1739              	.L129:
 219:lvgl\src\lv_core\../lv_font/../lv_misc/lv_mem.h ****         *d8 = *s8;
 1740              		.loc 3 219 0
 1741 0130 002A     		cmp	r2, #0
 1742 0132 F8D1     		bne	.L130
ARM GAS  C:\Users\strap\AppData\Local\Temp\cc7bAV43.s 			page 66


 1743              	.LVL262:
 1744              	.LBE327:
 1745              	.LBE328:
 439:lvgl\src\lv_core/lv_style.c ****     _lv_memcpy_small(style->map + size - end_mark_size, &end_mark, sizeof(end_mark));
 1746              		.loc 1 439 0
 1747 0134 2A68     		ldr	r2, [r5]
 1748 0136 231F     		subs	r3, r4, #4
 1749              	.LVL263:
 1750 0138 1344     		add	r3, r3, r2
 1751              	.LVL264:
 1752              	.LBB329:
 1753              	.LBB330:
 217:lvgl\src\lv_core\../lv_font/../lv_misc/lv_mem.h **** 
 1754              		.loc 3 217 0
 1755 013a 01A9     		add	r1, sp, #4
 1756              	.LVL265:
 1757              	.LBE330:
 1758              	.LBE329:
 439:lvgl\src\lv_core/lv_style.c ****     _lv_memcpy_small(style->map + size - end_mark_size, &end_mark, sizeof(end_mark));
 1759              		.loc 1 439 0
 1760 013c 0222     		movs	r2, #2
 1761 013e 04E0     		b	.L131
 1762              	.LVL266:
 1763              	.L132:
 1764              	.LBB332:
 1765              	.LBB331:
 220:lvgl\src\lv_core\../lv_font/../lv_misc/lv_mem.h ****         d8++;
 1766              		.loc 3 220 0
 1767 0140 11F8010B 		ldrb	r0, [r1], #1	@ zero_extendqisi2
 1768              	.LVL267:
 1769 0144 03F8010B 		strb	r0, [r3], #1
 1770              	.LVL268:
 1771              		.loc 3 223 0
 1772 0148 013A     		subs	r2, r2, #1
 1773              	.LVL269:
 1774              	.L131:
 219:lvgl\src\lv_core\../lv_font/../lv_misc/lv_mem.h ****         *d8 = *s8;
 1775              		.loc 3 219 0
 1776 014a 002A     		cmp	r2, #0
 1777 014c F8D1     		bne	.L132
 1778              	.LVL270:
 1779              	.LBE331:
 1780              	.LBE332:
 440:lvgl\src\lv_core/lv_style.c **** }
 1781              		.loc 1 440 0
 1782 014e 2B68     		ldr	r3, [r5]
 1783              	.LVL271:
 1784 0150 023C     		subs	r4, r4, #2
 1785 0152 2344     		add	r3, r3, r4
 1786              	.LVL272:
 1787              	.LBB333:
 1788              	.LBB334:
 217:lvgl\src\lv_core\../lv_font/../lv_misc/lv_mem.h **** 
 1789              		.loc 3 217 0
 1790 0154 0DF10E01 		add	r1, sp, #14
 1791              	.LVL273:
 1792              	.LBE334:
ARM GAS  C:\Users\strap\AppData\Local\Temp\cc7bAV43.s 			page 67


 1793              	.LBE333:
 440:lvgl\src\lv_core/lv_style.c **** }
 1794              		.loc 1 440 0
 1795 0158 0222     		movs	r2, #2
 1796 015a 04E0     		b	.L133
 1797              	.LVL274:
 1798              	.L134:
 1799              	.LBB336:
 1800              	.LBB335:
 220:lvgl\src\lv_core\../lv_font/../lv_misc/lv_mem.h ****         d8++;
 1801              		.loc 3 220 0
 1802 015c 11F8010B 		ldrb	r0, [r1], #1	@ zero_extendqisi2
 1803              	.LVL275:
 1804 0160 03F8010B 		strb	r0, [r3], #1
 1805              	.LVL276:
 1806              		.loc 3 223 0
 1807 0164 013A     		subs	r2, r2, #1
 1808              	.LVL277:
 1809              	.L133:
 219:lvgl\src\lv_core\../lv_font/../lv_misc/lv_mem.h ****         *d8 = *s8;
 1810              		.loc 3 219 0
 1811 0166 002A     		cmp	r2, #0
 1812 0168 F8D1     		bne	.L134
 1813              	.LVL278:
 1814              	.L115:
 1815              	.LBE335:
 1816              	.LBE336:
 441:lvgl\src\lv_core/lv_style.c **** 
 1817              		.loc 1 441 0
 1818 016a 05B0     		add	sp, sp, #20
 1819              		.cfi_def_cfa_offset 20
 1820              		@ sp needed
 1821 016c F0BD     		pop	{r4, r5, r6, r7, pc}
 1822              	.L142:
 1823 016e 00BF     		.align	2
 1824              	.L141:
 1825 0170 00000000 		.word	.LC0
 1826              		.cfi_endproc
 1827              	.LFE339:
 1828              		.size	_lv_style_set_color, .-_lv_style_set_color
 1829              		.section	.text._lv_style_set_opa,"ax",%progbits
 1830              		.align	2
 1831              		.global	_lv_style_set_opa
 1832              		.thumb
 1833              		.thumb_func
 1834              		.type	_lv_style_set_opa, %function
 1835              	_lv_style_set_opa:
 1836              	.LFB340:
 454:lvgl\src\lv_core/lv_style.c ****     LV_ASSERT_STYLE(style);
 1837              		.loc 1 454 0
 1838              		.cfi_startproc
 1839              		@ args = 0, pretend = 0, frame = 16
 1840              		@ frame_needed = 0, uses_anonymous_args = 0
 1841              	.LVL279:
 1842 0000 F0B5     		push	{r4, r5, r6, r7, lr}
 1843              		.cfi_def_cfa_offset 20
 1844              		.cfi_offset 4, -20
ARM GAS  C:\Users\strap\AppData\Local\Temp\cc7bAV43.s 			page 68


 1845              		.cfi_offset 5, -16
 1846              		.cfi_offset 6, -12
 1847              		.cfi_offset 7, -8
 1848              		.cfi_offset 14, -4
 1849 0002 85B0     		sub	sp, sp, #20
 1850              		.cfi_def_cfa_offset 40
 1851 0004 ADF80610 		strh	r1, [sp, #6]	@ movhi
 1852 0008 8DF80520 		strb	r2, [sp, #5]
 1853              	.LVL280:
 1854              	.LBB367:
 1855              	.LBB368:
1060:lvgl\src\lv_core/lv_style.c **** 
 1856              		.loc 1 1060 0
 1857 000c 0368     		ldr	r3, [r0]
 1858 000e 002B     		cmp	r3, #0
 1859 0010 43D0     		beq	.L164
1062:lvgl\src\lv_core/lv_style.c ****     lv_style_attr_t attr;
 1860              		.loc 1 1062 0
 1861 0012 CEB2     		uxtb	r6, r1
 1862              	.LVL281:
1064:lvgl\src\lv_core/lv_style.c **** 
 1863              		.loc 1 1064 0
 1864 0014 0D0A     		lsrs	r5, r1, #8
 1865              	.LVL282:
1069:lvgl\src\lv_core/lv_style.c **** 
 1866              		.loc 1 1069 0
 1867 0016 0022     		movs	r2, #0
 1868              	.LVL283:
1067:lvgl\src\lv_core/lv_style.c **** 
 1869              		.loc 1 1067 0
 1870 0018 4FF0FF34 		mov	r4, #-1
1066:lvgl\src\lv_core/lv_style.c ****     int16_t id_guess = -1;
 1871              		.loc 1 1066 0
 1872 001c 2746     		mov	r7, r4
 1873 001e 2EE0     		b	.L145
 1874              	.LVL284:
 1875              	.L149:
1073:lvgl\src\lv_core/lv_style.c ****             lv_style_attr_t attr_i;
 1876              		.loc 1 1073 0
 1877 0020 9E42     		cmp	r6, r3
 1878 0022 1CD1     		bne	.L146
 1879              	.LVL285:
 1880              	.LBB369:
 1881              	.LBB370:
 1882              	.LBB371:
 1883              	.LBB372:
 1884              	.LBB373:
1145:lvgl\src\lv_core/lv_style.c ****     prop_p[1] = style->map[idx + 1];
 1885              		.loc 1 1145 0
 1886 0024 D0F800E0 		ldr	lr, [r0]
 1887 0028 1EF802C0 		ldrb	ip, [lr, r2]	@ zero_extendqisi2
 1888 002c 8DF80CC0 		strb	ip, [sp, #12]
1146:lvgl\src\lv_core/lv_style.c ****     return prop;
 1889              		.loc 1 1146 0
 1890 0030 1EF80110 		ldrb	r1, [lr, r1]	@ zero_extendqisi2
 1891 0034 8DF80D10 		strb	r1, [sp, #13]
1147:lvgl\src\lv_core/lv_style.c **** }
ARM GAS  C:\Users\strap\AppData\Local\Temp\cc7bAV43.s 			page 69


 1892              		.loc 1 1147 0
 1893 0038 BDF80C10 		ldrh	r1, [sp, #12]
 1894              	.LVL286:
 1895              	.LBE373:
 1896              	.LBE372:
1169:lvgl\src\lv_core/lv_style.c **** }
 1897              		.loc 1 1169 0
 1898 003c 090A     		lsrs	r1, r1, #8
 1899              	.LVL287:
 1900              	.LBE371:
 1901              	.LBE370:
1078:lvgl\src\lv_core/lv_style.c ****                 return i;
 1902              		.loc 1 1078 0
 1903 003e 85EA010E 		eor	lr, r5, r1
 1904 0042 1EF07F0F 		tst	lr, #127
 1905 0046 2AD0     		beq	.L144
 1906 0048 01F07F01 		and	r1, r1, #127
1083:lvgl\src\lv_core/lv_style.c ****                 /* Use this property if it describes better the requested state than the current ca
 1907              		.loc 1 1083 0
 1908 004c 05F07F0E 		and	lr, r5, #127
 1909 0050 31EA0E0E 		bics	lr, r1, lr
 1910 0054 03D1     		bne	.L146
1086:lvgl\src\lv_core/lv_style.c ****                     weight = LV_STYLE_ATTR_GET_STATE(attr_i);
 1911              		.loc 1 1086 0
 1912 0056 B942     		cmp	r1, r7
 1913 0058 01DD     		ble	.L146
1087:lvgl\src\lv_core/lv_style.c ****                     id_guess = i;
 1914              		.loc 1 1087 0
 1915 005a 0FB2     		sxth	r7, r1
 1916              	.LVL288:
1088:lvgl\src\lv_core/lv_style.c ****                 }
 1917              		.loc 1 1088 0
 1918 005c 14B2     		sxth	r4, r2
 1919              	.LVL289:
 1920              	.L146:
 1921              	.LBE369:
 1922              	.LBB374:
 1923              	.LBB375:
 1924              	.LBB376:
 1925              	.LBB377:
1181:lvgl\src\lv_core/lv_style.c ****     size_t size = sizeof(lv_style_property_t);
 1926              		.loc 1 1181 0
 1927 005e 03F00F03 		and	r3, r3, #15
 1928              	.LVL290:
1183:lvgl\src\lv_core/lv_style.c ****     else if(prop_id < LV_STYLE_ID_OPA) size += sizeof(lv_color_t);
 1929              		.loc 1 1183 0
 1930 0062 082B     		cmp	r3, #8
 1931 0064 05D9     		bls	.L165
1184:lvgl\src\lv_core/lv_style.c ****     else if(prop_id < LV_STYLE_ID_PTR) size += sizeof(lv_opa_t);
 1932              		.loc 1 1184 0
 1933 0066 0B2B     		cmp	r3, #11
 1934 0068 05D9     		bls	.L166
1185:lvgl\src\lv_core/lv_style.c ****     else size += sizeof(const void *);
 1935              		.loc 1 1185 0
 1936 006a 0D2B     		cmp	r3, #13
 1937 006c 05D8     		bhi	.L167
 1938 006e 0323     		movs	r3, #3
ARM GAS  C:\Users\strap\AppData\Local\Temp\cc7bAV43.s 			page 70


 1939              	.LVL291:
 1940 0070 04E0     		b	.L148
 1941              	.LVL292:
 1942              	.L165:
1183:lvgl\src\lv_core/lv_style.c ****     else if(prop_id < LV_STYLE_ID_OPA) size += sizeof(lv_color_t);
 1943              		.loc 1 1183 0
 1944 0072 0423     		movs	r3, #4
 1945              	.LVL293:
 1946 0074 02E0     		b	.L148
 1947              	.LVL294:
 1948              	.L166:
1184:lvgl\src\lv_core/lv_style.c ****     else if(prop_id < LV_STYLE_ID_PTR) size += sizeof(lv_opa_t);
 1949              		.loc 1 1184 0
 1950 0076 0423     		movs	r3, #4
 1951              	.LVL295:
 1952 0078 00E0     		b	.L148
 1953              	.LVL296:
 1954              	.L167:
1186:lvgl\src\lv_core/lv_style.c ****     return size;
 1955              		.loc 1 1186 0
 1956 007a 0623     		movs	r3, #6
 1957              	.LVL297:
 1958              	.L148:
 1959              	.LBE377:
 1960              	.LBE376:
 1961              		.loc 1 1198 0
 1962 007c 1A44     		add	r2, r2, r3
 1963              	.LVL298:
 1964              	.L145:
 1965              	.LBE375:
 1966              	.LBE374:
 1967              	.LBB378:
 1968              	.LBB379:
 1969              	.LBB380:
 1970              	.LBB381:
1145:lvgl\src\lv_core/lv_style.c ****     prop_p[1] = style->map[idx + 1];
 1971              		.loc 1 1145 0
 1972 007e 0368     		ldr	r3, [r0]
 1973 0080 995C     		ldrb	r1, [r3, r2]	@ zero_extendqisi2
 1974 0082 8DF80C10 		strb	r1, [sp, #12]
1146:lvgl\src\lv_core/lv_style.c ****     return prop;
 1975              		.loc 1 1146 0
 1976 0086 511C     		adds	r1, r2, #1
 1977 0088 5B5C     		ldrb	r3, [r3, r1]	@ zero_extendqisi2
 1978 008a 8DF80D30 		strb	r3, [sp, #13]
 1979              	.LVL299:
 1980              	.LBE381:
 1981              	.LBE380:
1158:lvgl\src\lv_core/lv_style.c **** }
 1982              		.loc 1 1158 0
 1983 008e 9DF80C30 		ldrb	r3, [sp, #12]	@ zero_extendqisi2
 1984              	.LVL300:
 1985              	.LBE379:
 1986              	.LBE378:
1072:lvgl\src\lv_core/lv_style.c ****         if(prop_id == id_to_find) {
 1987              		.loc 1 1072 0
 1988 0092 FF2B     		cmp	r3, #255
ARM GAS  C:\Users\strap\AppData\Local\Temp\cc7bAV43.s 			page 71


 1989 0094 C4D1     		bne	.L149
1096:lvgl\src\lv_core/lv_style.c **** }
 1990              		.loc 1 1096 0
 1991 0096 2246     		mov	r2, r4
 1992              	.LVL301:
 1993 0098 01E0     		b	.L144
 1994              	.LVL302:
 1995              	.L164:
1060:lvgl\src\lv_core/lv_style.c **** 
 1996              		.loc 1 1060 0
 1997 009a 4FF0FF32 		mov	r2, #-1
 1998              	.LVL303:
 1999              	.L144:
 2000              	.LBE368:
 2001              	.LBE367:
 459:lvgl\src\lv_core/lv_style.c ****         lv_style_attr_t attr_found;
 2002              		.loc 1 459 0
 2003 009e 002A     		cmp	r2, #0
 2004 00a0 20DB     		blt	.L150
 2005              	.LVL304:
 2006              	.LBB382:
 2007              	.LBB383:
 2008              	.LBB384:
 2009              	.LBB385:
 2010              	.LBB386:
1145:lvgl\src\lv_core/lv_style.c ****     prop_p[1] = style->map[idx + 1];
 2011              		.loc 1 1145 0
 2012 00a2 0368     		ldr	r3, [r0]
 2013 00a4 995C     		ldrb	r1, [r3, r2]	@ zero_extendqisi2
 2014 00a6 8DF80C10 		strb	r1, [sp, #12]
1146:lvgl\src\lv_core/lv_style.c ****     return prop;
 2015              		.loc 1 1146 0
 2016 00aa 1344     		add	r3, r3, r2
 2017 00ac 5B78     		ldrb	r3, [r3, #1]	@ zero_extendqisi2
 2018 00ae 8DF80D30 		strb	r3, [sp, #13]
1147:lvgl\src\lv_core/lv_style.c **** }
 2019              		.loc 1 1147 0
 2020 00b2 BDF80C10 		ldrh	r1, [sp, #12]
 2021              	.LVL305:
 2022              	.LBE386:
 2023              	.LBE385:
 2024              	.LBE384:
 2025              	.LBE383:
 464:lvgl\src\lv_core/lv_style.c **** 
 2026              		.loc 1 464 0
 2027 00b6 BDF80630 		ldrh	r3, [sp, #6]
 2028 00ba 1B0A     		lsrs	r3, r3, #8
 2029              	.LVL306:
 466:lvgl\src\lv_core/lv_style.c ****             _lv_memcpy_small(style->map + id + sizeof(lv_style_property_t), &opa, sizeof(lv_opa_t))
 2030              		.loc 1 466 0
 2031 00bc 83EA1123 		eor	r3, r3, r1, lsr #8
 2032              	.LVL307:
 2033 00c0 13F07F0F 		tst	r3, #127
 2034 00c4 0ED1     		bne	.L150
 467:lvgl\src\lv_core/lv_style.c ****             return;
 2035              		.loc 1 467 0
 2036 00c6 0368     		ldr	r3, [r0]
ARM GAS  C:\Users\strap\AppData\Local\Temp\cc7bAV43.s 			page 72


 2037 00c8 0232     		adds	r2, r2, #2
 2038 00ca 1344     		add	r3, r3, r2
 2039              	.LVL308:
 2040              	.LBB387:
 2041              	.LBB388:
 217:lvgl\src\lv_core\../lv_font/../lv_misc/lv_mem.h **** 
 2042              		.loc 3 217 0
 2043 00cc 0DF10501 		add	r1, sp, #5
 2044              	.LVL309:
 2045              	.LBE388:
 2046              	.LBE387:
 467:lvgl\src\lv_core/lv_style.c ****             return;
 2047              		.loc 1 467 0
 2048 00d0 0122     		movs	r2, #1
 2049 00d2 04E0     		b	.L151
 2050              	.LVL310:
 2051              	.L152:
 2052              	.LBB390:
 2053              	.LBB389:
 220:lvgl\src\lv_core\../lv_font/../lv_misc/lv_mem.h ****         d8++;
 2054              		.loc 3 220 0
 2055 00d4 11F8010B 		ldrb	r0, [r1], #1	@ zero_extendqisi2
 2056              	.LVL311:
 2057 00d8 03F8010B 		strb	r0, [r3], #1
 2058              	.LVL312:
 2059              		.loc 3 223 0
 2060 00dc 013A     		subs	r2, r2, #1
 2061              	.LVL313:
 2062              	.L151:
 219:lvgl\src\lv_core\../lv_font/../lv_misc/lv_mem.h ****         *d8 = *s8;
 2063              		.loc 3 219 0
 2064 00de 002A     		cmp	r2, #0
 2065 00e0 F8D1     		bne	.L152
 2066 00e2 44E0     		b	.L143
 2067              	.LVL314:
 2068              	.L150:
 2069 00e4 0546     		mov	r5, r0
 2070              	.LVL315:
 2071              	.LBE389:
 2072              	.LBE390:
 2073              	.LBE382:
 474:lvgl\src\lv_core/lv_style.c ****     uint8_t end_mark_size = sizeof(end_mark);
 2074              		.loc 1 474 0
 2075 00e6 FF23     		movs	r3, #255
 2076 00e8 ADF80E30 		strh	r3, [sp, #14]	@ movhi
 2077              	.LVL316:
 477:lvgl\src\lv_core/lv_style.c ****     if(size == 0) size += end_mark_size;
 2078              		.loc 1 477 0
 2079 00ec FFF7FEFF 		bl	_lv_style_get_mem_size
 2080              	.LVL317:
 478:lvgl\src\lv_core/lv_style.c **** 
 2081              		.loc 1 478 0
 2082 00f0 0346     		mov	r3, r0
 2083 00f2 08B9     		cbnz	r0, .L154
 478:lvgl\src\lv_core/lv_style.c **** 
 2084              		.loc 1 478 0 is_stmt 0 discriminator 1
 2085 00f4 0233     		adds	r3, r3, #2
ARM GAS  C:\Users\strap\AppData\Local\Temp\cc7bAV43.s 			page 73


 2086 00f6 9BB2     		uxth	r3, r3
 2087              	.LVL318:
 2088              	.L154:
 480:lvgl\src\lv_core/lv_style.c ****     style_resize(style, size);
 2089              		.loc 1 480 0 is_stmt 1
 2090 00f8 0333     		adds	r3, r3, #3
 2091              	.LVL319:
 2092 00fa 9CB2     		uxth	r4, r3
 2093              	.LVL320:
 2094              	.LBB391:
 2095              	.LBB392:
1132:lvgl\src\lv_core/lv_style.c **** }
 2096              		.loc 1 1132 0
 2097 00fc 2146     		mov	r1, r4
 2098 00fe 2868     		ldr	r0, [r5]
 2099 0100 FFF7FEFF 		bl	lv_mem_realloc
 2100              	.LVL321:
 2101 0104 2860     		str	r0, [r5]
 2102              	.LVL322:
 2103              	.LBE392:
 2104              	.LBE391:
 482:lvgl\src\lv_core/lv_style.c ****     if(style == NULL) return;
 2105              		.loc 1 482 0
 2106 0106 FFF7FEFF 		bl	lv_debug_check_null
 2107              	.LVL323:
 2108 010a 28B9     		cbnz	r0, .L155
 482:lvgl\src\lv_core/lv_style.c ****     if(style == NULL) return;
 2109              		.loc 1 482 0 is_stmt 0 discriminator 1
 2110 010c 2A68     		ldr	r2, [r5]
 2111 010e 0023     		movs	r3, #0
 2112 0110 1848     		ldr	r0, .L169
 2113 0112 FFF7FEFF 		bl	lv_debug_log_error
 2114              	.LVL324:
 2115              	.L156:
 2116 0116 FEE7     		b	.L156
 2117              	.L155:
 483:lvgl\src\lv_core/lv_style.c **** 
 2118              		.loc 1 483 0 is_stmt 1
 2119 0118 4DB3     		cbz	r5, .L143
 485:lvgl\src\lv_core/lv_style.c ****     _lv_memcpy_small(style->map + size - sizeof(lv_opa_t) - end_mark_size, &opa, sizeof(lv_opa_t));
 2120              		.loc 1 485 0
 2121 011a 2A68     		ldr	r2, [r5]
 2122 011c 631F     		subs	r3, r4, #5
 2123 011e 1344     		add	r3, r3, r2
 2124              	.LVL325:
 2125              	.LBB393:
 2126              	.LBB394:
 217:lvgl\src\lv_core\../lv_font/../lv_misc/lv_mem.h **** 
 2127              		.loc 3 217 0
 2128 0120 0DF10601 		add	r1, sp, #6
 2129              	.LVL326:
 2130              	.LBE394:
 2131              	.LBE393:
 485:lvgl\src\lv_core/lv_style.c ****     _lv_memcpy_small(style->map + size - sizeof(lv_opa_t) - end_mark_size, &opa, sizeof(lv_opa_t));
 2132              		.loc 1 485 0
 2133 0124 0222     		movs	r2, #2
 2134 0126 04E0     		b	.L157
ARM GAS  C:\Users\strap\AppData\Local\Temp\cc7bAV43.s 			page 74


 2135              	.LVL327:
 2136              	.L158:
 2137              	.LBB396:
 2138              	.LBB395:
 220:lvgl\src\lv_core\../lv_font/../lv_misc/lv_mem.h ****         d8++;
 2139              		.loc 3 220 0
 2140 0128 11F8010B 		ldrb	r0, [r1], #1	@ zero_extendqisi2
 2141              	.LVL328:
 2142 012c 03F8010B 		strb	r0, [r3], #1
 2143              	.LVL329:
 2144              		.loc 3 223 0
 2145 0130 013A     		subs	r2, r2, #1
 2146              	.LVL330:
 2147              	.L157:
 219:lvgl\src\lv_core\../lv_font/../lv_misc/lv_mem.h ****         *d8 = *s8;
 2148              		.loc 3 219 0
 2149 0132 002A     		cmp	r2, #0
 2150 0134 F8D1     		bne	.L158
 2151              	.LVL331:
 2152              	.LBE395:
 2153              	.LBE396:
 486:lvgl\src\lv_core/lv_style.c ****     _lv_memcpy_small(style->map + size - end_mark_size, &end_mark, sizeof(end_mark));
 2154              		.loc 1 486 0
 2155 0136 2A68     		ldr	r2, [r5]
 2156 0138 E31E     		subs	r3, r4, #3
 2157              	.LVL332:
 2158 013a 1344     		add	r3, r3, r2
 2159              	.LVL333:
 2160              	.LBB397:
 2161              	.LBB398:
 217:lvgl\src\lv_core\../lv_font/../lv_misc/lv_mem.h **** 
 2162              		.loc 3 217 0
 2163 013c 0DF10501 		add	r1, sp, #5
 2164              	.LVL334:
 2165              	.LBE398:
 2166              	.LBE397:
 486:lvgl\src\lv_core/lv_style.c ****     _lv_memcpy_small(style->map + size - end_mark_size, &end_mark, sizeof(end_mark));
 2167              		.loc 1 486 0
 2168 0140 0122     		movs	r2, #1
 2169 0142 04E0     		b	.L159
 2170              	.LVL335:
 2171              	.L160:
 2172              	.LBB400:
 2173              	.LBB399:
 220:lvgl\src\lv_core\../lv_font/../lv_misc/lv_mem.h ****         d8++;
 2174              		.loc 3 220 0
 2175 0144 11F8010B 		ldrb	r0, [r1], #1	@ zero_extendqisi2
 2176              	.LVL336:
 2177 0148 03F8010B 		strb	r0, [r3], #1
 2178              	.LVL337:
 2179              		.loc 3 223 0
 2180 014c 013A     		subs	r2, r2, #1
 2181              	.LVL338:
 2182              	.L159:
 219:lvgl\src\lv_core\../lv_font/../lv_misc/lv_mem.h ****         *d8 = *s8;
 2183              		.loc 3 219 0
 2184 014e 002A     		cmp	r2, #0
ARM GAS  C:\Users\strap\AppData\Local\Temp\cc7bAV43.s 			page 75


 2185 0150 F8D1     		bne	.L160
 2186              	.LVL339:
 2187              	.LBE399:
 2188              	.LBE400:
 487:lvgl\src\lv_core/lv_style.c **** }
 2189              		.loc 1 487 0
 2190 0152 2B68     		ldr	r3, [r5]
 2191              	.LVL340:
 2192 0154 023C     		subs	r4, r4, #2
 2193 0156 2344     		add	r3, r3, r4
 2194              	.LVL341:
 2195              	.LBB401:
 2196              	.LBB402:
 217:lvgl\src\lv_core\../lv_font/../lv_misc/lv_mem.h **** 
 2197              		.loc 3 217 0
 2198 0158 0DF10E01 		add	r1, sp, #14
 2199              	.LVL342:
 2200              	.LBE402:
 2201              	.LBE401:
 487:lvgl\src\lv_core/lv_style.c **** }
 2202              		.loc 1 487 0
 2203 015c 0222     		movs	r2, #2
 2204 015e 04E0     		b	.L161
 2205              	.LVL343:
 2206              	.L162:
 2207              	.LBB404:
 2208              	.LBB403:
 220:lvgl\src\lv_core\../lv_font/../lv_misc/lv_mem.h ****         d8++;
 2209              		.loc 3 220 0
 2210 0160 11F8010B 		ldrb	r0, [r1], #1	@ zero_extendqisi2
 2211              	.LVL344:
 2212 0164 03F8010B 		strb	r0, [r3], #1
 2213              	.LVL345:
 2214              		.loc 3 223 0
 2215 0168 013A     		subs	r2, r2, #1
 2216              	.LVL346:
 2217              	.L161:
 219:lvgl\src\lv_core\../lv_font/../lv_misc/lv_mem.h ****         *d8 = *s8;
 2218              		.loc 3 219 0
 2219 016a 002A     		cmp	r2, #0
 2220 016c F8D1     		bne	.L162
 2221              	.LVL347:
 2222              	.L143:
 2223              	.LBE403:
 2224              	.LBE404:
 488:lvgl\src\lv_core/lv_style.c **** 
 2225              		.loc 1 488 0
 2226 016e 05B0     		add	sp, sp, #20
 2227              		.cfi_def_cfa_offset 20
 2228              		@ sp needed
 2229 0170 F0BD     		pop	{r4, r5, r6, r7, pc}
 2230              	.L170:
 2231 0172 00BF     		.align	2
 2232              	.L169:
 2233 0174 00000000 		.word	.LC0
 2234              		.cfi_endproc
 2235              	.LFE340:
ARM GAS  C:\Users\strap\AppData\Local\Temp\cc7bAV43.s 			page 76


 2236              		.size	_lv_style_set_opa, .-_lv_style_set_opa
 2237              		.section	.text._lv_style_set_ptr,"ax",%progbits
 2238              		.align	2
 2239              		.global	_lv_style_set_ptr
 2240              		.thumb
 2241              		.thumb_func
 2242              		.type	_lv_style_set_ptr, %function
 2243              	_lv_style_set_ptr:
 2244              	.LFB341:
 501:lvgl\src\lv_core/lv_style.c ****     LV_ASSERT_STYLE(style);
 2245              		.loc 1 501 0
 2246              		.cfi_startproc
 2247              		@ args = 0, pretend = 0, frame = 16
 2248              		@ frame_needed = 0, uses_anonymous_args = 0
 2249              	.LVL348:
 2250 0000 F0B5     		push	{r4, r5, r6, r7, lr}
 2251              		.cfi_def_cfa_offset 20
 2252              		.cfi_offset 4, -20
 2253              		.cfi_offset 5, -16
 2254              		.cfi_offset 6, -12
 2255              		.cfi_offset 7, -8
 2256              		.cfi_offset 14, -4
 2257 0002 85B0     		sub	sp, sp, #20
 2258              		.cfi_def_cfa_offset 40
 2259 0004 0092     		str	r2, [sp]
 2260 0006 ADF80610 		strh	r1, [sp, #6]	@ movhi
 2261              	.LVL349:
 2262              	.LBB435:
 2263              	.LBB436:
1060:lvgl\src\lv_core/lv_style.c **** 
 2264              		.loc 1 1060 0
 2265 000a 0368     		ldr	r3, [r0]
 2266 000c 002B     		cmp	r3, #0
 2267 000e 43D0     		beq	.L192
1062:lvgl\src\lv_core/lv_style.c ****     lv_style_attr_t attr;
 2268              		.loc 1 1062 0
 2269 0010 CEB2     		uxtb	r6, r1
 2270              	.LVL350:
1064:lvgl\src\lv_core/lv_style.c **** 
 2271              		.loc 1 1064 0
 2272 0012 0D0A     		lsrs	r5, r1, #8
 2273              	.LVL351:
1069:lvgl\src\lv_core/lv_style.c **** 
 2274              		.loc 1 1069 0
 2275 0014 0022     		movs	r2, #0
 2276              	.LVL352:
1067:lvgl\src\lv_core/lv_style.c **** 
 2277              		.loc 1 1067 0
 2278 0016 4FF0FF34 		mov	r4, #-1
1066:lvgl\src\lv_core/lv_style.c ****     int16_t id_guess = -1;
 2279              		.loc 1 1066 0
 2280 001a 2746     		mov	r7, r4
 2281 001c 2EE0     		b	.L173
 2282              	.LVL353:
 2283              	.L177:
1073:lvgl\src\lv_core/lv_style.c ****             lv_style_attr_t attr_i;
 2284              		.loc 1 1073 0
ARM GAS  C:\Users\strap\AppData\Local\Temp\cc7bAV43.s 			page 77


 2285 001e 9E42     		cmp	r6, r3
 2286 0020 1CD1     		bne	.L174
 2287              	.LVL354:
 2288              	.LBB437:
 2289              	.LBB438:
 2290              	.LBB439:
 2291              	.LBB440:
 2292              	.LBB441:
1145:lvgl\src\lv_core/lv_style.c ****     prop_p[1] = style->map[idx + 1];
 2293              		.loc 1 1145 0
 2294 0022 D0F800E0 		ldr	lr, [r0]
 2295 0026 1EF802C0 		ldrb	ip, [lr, r2]	@ zero_extendqisi2
 2296 002a 8DF80CC0 		strb	ip, [sp, #12]
1146:lvgl\src\lv_core/lv_style.c ****     return prop;
 2297              		.loc 1 1146 0
 2298 002e 1EF80110 		ldrb	r1, [lr, r1]	@ zero_extendqisi2
 2299 0032 8DF80D10 		strb	r1, [sp, #13]
1147:lvgl\src\lv_core/lv_style.c **** }
 2300              		.loc 1 1147 0
 2301 0036 BDF80C10 		ldrh	r1, [sp, #12]
 2302              	.LVL355:
 2303              	.LBE441:
 2304              	.LBE440:
1169:lvgl\src\lv_core/lv_style.c **** }
 2305              		.loc 1 1169 0
 2306 003a 090A     		lsrs	r1, r1, #8
 2307              	.LVL356:
 2308              	.LBE439:
 2309              	.LBE438:
1078:lvgl\src\lv_core/lv_style.c ****                 return i;
 2310              		.loc 1 1078 0
 2311 003c 85EA010E 		eor	lr, r5, r1
 2312 0040 1EF07F0F 		tst	lr, #127
 2313 0044 2AD0     		beq	.L172
 2314 0046 01F07F01 		and	r1, r1, #127
1083:lvgl\src\lv_core/lv_style.c ****                 /* Use this property if it describes better the requested state than the current ca
 2315              		.loc 1 1083 0
 2316 004a 05F07F0E 		and	lr, r5, #127
 2317 004e 31EA0E0E 		bics	lr, r1, lr
 2318 0052 03D1     		bne	.L174
1086:lvgl\src\lv_core/lv_style.c ****                     weight = LV_STYLE_ATTR_GET_STATE(attr_i);
 2319              		.loc 1 1086 0
 2320 0054 B942     		cmp	r1, r7
 2321 0056 01DD     		ble	.L174
1087:lvgl\src\lv_core/lv_style.c ****                     id_guess = i;
 2322              		.loc 1 1087 0
 2323 0058 0FB2     		sxth	r7, r1
 2324              	.LVL357:
1088:lvgl\src\lv_core/lv_style.c ****                 }
 2325              		.loc 1 1088 0
 2326 005a 14B2     		sxth	r4, r2
 2327              	.LVL358:
 2328              	.L174:
 2329              	.LBE437:
 2330              	.LBB442:
 2331              	.LBB443:
 2332              	.LBB444:
ARM GAS  C:\Users\strap\AppData\Local\Temp\cc7bAV43.s 			page 78


 2333              	.LBB445:
1181:lvgl\src\lv_core/lv_style.c ****     size_t size = sizeof(lv_style_property_t);
 2334              		.loc 1 1181 0
 2335 005c 03F00F03 		and	r3, r3, #15
 2336              	.LVL359:
1183:lvgl\src\lv_core/lv_style.c ****     else if(prop_id < LV_STYLE_ID_OPA) size += sizeof(lv_color_t);
 2337              		.loc 1 1183 0
 2338 0060 082B     		cmp	r3, #8
 2339 0062 05D9     		bls	.L193
1184:lvgl\src\lv_core/lv_style.c ****     else if(prop_id < LV_STYLE_ID_PTR) size += sizeof(lv_opa_t);
 2340              		.loc 1 1184 0
 2341 0064 0B2B     		cmp	r3, #11
 2342 0066 05D9     		bls	.L194
1185:lvgl\src\lv_core/lv_style.c ****     else size += sizeof(const void *);
 2343              		.loc 1 1185 0
 2344 0068 0D2B     		cmp	r3, #13
 2345 006a 05D8     		bhi	.L195
 2346 006c 0323     		movs	r3, #3
 2347              	.LVL360:
 2348 006e 04E0     		b	.L176
 2349              	.LVL361:
 2350              	.L193:
1183:lvgl\src\lv_core/lv_style.c ****     else if(prop_id < LV_STYLE_ID_OPA) size += sizeof(lv_color_t);
 2351              		.loc 1 1183 0
 2352 0070 0423     		movs	r3, #4
 2353              	.LVL362:
 2354 0072 02E0     		b	.L176
 2355              	.LVL363:
 2356              	.L194:
1184:lvgl\src\lv_core/lv_style.c ****     else if(prop_id < LV_STYLE_ID_PTR) size += sizeof(lv_opa_t);
 2357              		.loc 1 1184 0
 2358 0074 0423     		movs	r3, #4
 2359              	.LVL364:
 2360 0076 00E0     		b	.L176
 2361              	.LVL365:
 2362              	.L195:
1186:lvgl\src\lv_core/lv_style.c ****     return size;
 2363              		.loc 1 1186 0
 2364 0078 0623     		movs	r3, #6
 2365              	.LVL366:
 2366              	.L176:
 2367              	.LBE445:
 2368              	.LBE444:
 2369              		.loc 1 1198 0
 2370 007a 1A44     		add	r2, r2, r3
 2371              	.LVL367:
 2372              	.L173:
 2373              	.LBE443:
 2374              	.LBE442:
 2375              	.LBB446:
 2376              	.LBB447:
 2377              	.LBB448:
 2378              	.LBB449:
1145:lvgl\src\lv_core/lv_style.c ****     prop_p[1] = style->map[idx + 1];
 2379              		.loc 1 1145 0
 2380 007c 0368     		ldr	r3, [r0]
 2381 007e 995C     		ldrb	r1, [r3, r2]	@ zero_extendqisi2
ARM GAS  C:\Users\strap\AppData\Local\Temp\cc7bAV43.s 			page 79


 2382 0080 8DF80C10 		strb	r1, [sp, #12]
1146:lvgl\src\lv_core/lv_style.c ****     return prop;
 2383              		.loc 1 1146 0
 2384 0084 511C     		adds	r1, r2, #1
 2385 0086 5B5C     		ldrb	r3, [r3, r1]	@ zero_extendqisi2
 2386 0088 8DF80D30 		strb	r3, [sp, #13]
 2387              	.LVL368:
 2388              	.LBE449:
 2389              	.LBE448:
1158:lvgl\src\lv_core/lv_style.c **** }
 2390              		.loc 1 1158 0
 2391 008c 9DF80C30 		ldrb	r3, [sp, #12]	@ zero_extendqisi2
 2392              	.LVL369:
 2393              	.LBE447:
 2394              	.LBE446:
1072:lvgl\src\lv_core/lv_style.c ****         if(prop_id == id_to_find) {
 2395              		.loc 1 1072 0
 2396 0090 FF2B     		cmp	r3, #255
 2397 0092 C4D1     		bne	.L177
1096:lvgl\src\lv_core/lv_style.c **** }
 2398              		.loc 1 1096 0
 2399 0094 2246     		mov	r2, r4
 2400              	.LVL370:
 2401 0096 01E0     		b	.L172
 2402              	.LVL371:
 2403              	.L192:
1060:lvgl\src\lv_core/lv_style.c **** 
 2404              		.loc 1 1060 0
 2405 0098 4FF0FF32 		mov	r2, #-1
 2406              	.LVL372:
 2407              	.L172:
 2408              	.LBE436:
 2409              	.LBE435:
 506:lvgl\src\lv_core/lv_style.c ****         lv_style_attr_t attr_found;
 2410              		.loc 1 506 0
 2411 009c 002A     		cmp	r2, #0
 2412 009e 1FDB     		blt	.L178
 2413              	.LVL373:
 2414              	.LBB450:
 2415              	.LBB451:
 2416              	.LBB452:
 2417              	.LBB453:
 2418              	.LBB454:
1145:lvgl\src\lv_core/lv_style.c ****     prop_p[1] = style->map[idx + 1];
 2419              		.loc 1 1145 0
 2420 00a0 0368     		ldr	r3, [r0]
 2421 00a2 995C     		ldrb	r1, [r3, r2]	@ zero_extendqisi2
 2422 00a4 8DF80C10 		strb	r1, [sp, #12]
1146:lvgl\src\lv_core/lv_style.c ****     return prop;
 2423              		.loc 1 1146 0
 2424 00a8 1344     		add	r3, r3, r2
 2425 00aa 5B78     		ldrb	r3, [r3, #1]	@ zero_extendqisi2
 2426 00ac 8DF80D30 		strb	r3, [sp, #13]
1147:lvgl\src\lv_core/lv_style.c **** }
 2427              		.loc 1 1147 0
 2428 00b0 BDF80C10 		ldrh	r1, [sp, #12]
 2429              	.LVL374:
ARM GAS  C:\Users\strap\AppData\Local\Temp\cc7bAV43.s 			page 80


 2430              	.LBE454:
 2431              	.LBE453:
 2432              	.LBE452:
 2433              	.LBE451:
 511:lvgl\src\lv_core/lv_style.c **** 
 2434              		.loc 1 511 0
 2435 00b4 BDF80630 		ldrh	r3, [sp, #6]
 2436 00b8 1B0A     		lsrs	r3, r3, #8
 2437              	.LVL375:
 513:lvgl\src\lv_core/lv_style.c ****             _lv_memcpy_small(style->map + id + sizeof(lv_style_property_t), &p, sizeof(const void *
 2438              		.loc 1 513 0
 2439 00ba 83EA1123 		eor	r3, r3, r1, lsr #8
 2440              	.LVL376:
 2441 00be 13F07F0F 		tst	r3, #127
 2442 00c2 0DD1     		bne	.L178
 514:lvgl\src\lv_core/lv_style.c ****             return;
 2443              		.loc 1 514 0
 2444 00c4 0368     		ldr	r3, [r0]
 2445 00c6 0232     		adds	r2, r2, #2
 2446 00c8 1344     		add	r3, r3, r2
 2447              	.LVL377:
 2448              	.LBB455:
 2449              	.LBB456:
 217:lvgl\src\lv_core\../lv_font/../lv_misc/lv_mem.h **** 
 2450              		.loc 3 217 0
 2451 00ca 6946     		mov	r1, sp
 2452              	.LBE456:
 2453              	.LBE455:
 514:lvgl\src\lv_core/lv_style.c ****             return;
 2454              		.loc 1 514 0
 2455 00cc 0422     		movs	r2, #4
 2456 00ce 04E0     		b	.L179
 2457              	.LVL378:
 2458              	.L180:
 2459              	.LBB458:
 2460              	.LBB457:
 220:lvgl\src\lv_core\../lv_font/../lv_misc/lv_mem.h ****         d8++;
 2461              		.loc 3 220 0
 2462 00d0 11F8010B 		ldrb	r0, [r1], #1	@ zero_extendqisi2
 2463              	.LVL379:
 2464 00d4 03F8010B 		strb	r0, [r3], #1
 2465              	.LVL380:
 2466              		.loc 3 223 0
 2467 00d8 013A     		subs	r2, r2, #1
 2468              	.LVL381:
 2469              	.L179:
 219:lvgl\src\lv_core\../lv_font/../lv_misc/lv_mem.h ****         *d8 = *s8;
 2470              		.loc 3 219 0
 2471 00da 002A     		cmp	r2, #0
 2472 00dc F8D1     		bne	.L180
 2473 00de 44E0     		b	.L171
 2474              	.LVL382:
 2475              	.L178:
 2476 00e0 0546     		mov	r5, r0
 2477              	.LVL383:
 2478              	.LBE457:
 2479              	.LBE458:
ARM GAS  C:\Users\strap\AppData\Local\Temp\cc7bAV43.s 			page 81


 2480              	.LBE450:
 521:lvgl\src\lv_core/lv_style.c ****     uint8_t end_mark_size = sizeof(end_mark);
 2481              		.loc 1 521 0
 2482 00e2 FF23     		movs	r3, #255
 2483 00e4 ADF80E30 		strh	r3, [sp, #14]	@ movhi
 2484              	.LVL384:
 524:lvgl\src\lv_core/lv_style.c ****     if(size == 0) size += end_mark_size;
 2485              		.loc 1 524 0
 2486 00e8 FFF7FEFF 		bl	_lv_style_get_mem_size
 2487              	.LVL385:
 525:lvgl\src\lv_core/lv_style.c **** 
 2488              		.loc 1 525 0
 2489 00ec 0346     		mov	r3, r0
 2490 00ee 08B9     		cbnz	r0, .L182
 525:lvgl\src\lv_core/lv_style.c **** 
 2491              		.loc 1 525 0 is_stmt 0 discriminator 1
 2492 00f0 0233     		adds	r3, r3, #2
 2493 00f2 9BB2     		uxth	r3, r3
 2494              	.LVL386:
 2495              	.L182:
 527:lvgl\src\lv_core/lv_style.c ****     style_resize(style, size);
 2496              		.loc 1 527 0 is_stmt 1
 2497 00f4 0633     		adds	r3, r3, #6
 2498              	.LVL387:
 2499 00f6 9CB2     		uxth	r4, r3
 2500              	.LVL388:
 2501              	.LBB459:
 2502              	.LBB460:
1132:lvgl\src\lv_core/lv_style.c **** }
 2503              		.loc 1 1132 0
 2504 00f8 2146     		mov	r1, r4
 2505 00fa 2868     		ldr	r0, [r5]
 2506 00fc FFF7FEFF 		bl	lv_mem_realloc
 2507              	.LVL389:
 2508 0100 2860     		str	r0, [r5]
 2509              	.LVL390:
 2510              	.LBE460:
 2511              	.LBE459:
 529:lvgl\src\lv_core/lv_style.c ****     if(style == NULL) return;
 2512              		.loc 1 529 0
 2513 0102 FFF7FEFF 		bl	lv_debug_check_null
 2514              	.LVL391:
 2515 0106 28B9     		cbnz	r0, .L183
 529:lvgl\src\lv_core/lv_style.c ****     if(style == NULL) return;
 2516              		.loc 1 529 0 is_stmt 0 discriminator 1
 2517 0108 2A68     		ldr	r2, [r5]
 2518 010a 0023     		movs	r3, #0
 2519 010c 1848     		ldr	r0, .L197
 2520 010e FFF7FEFF 		bl	lv_debug_log_error
 2521              	.LVL392:
 2522              	.L184:
 2523 0112 FEE7     		b	.L184
 2524              	.L183:
 530:lvgl\src\lv_core/lv_style.c **** 
 2525              		.loc 1 530 0 is_stmt 1
 2526 0114 4DB3     		cbz	r5, .L171
 532:lvgl\src\lv_core/lv_style.c ****     _lv_memcpy_small(style->map + size - sizeof(const void *) - end_mark_size, &p, sizeof(const voi
ARM GAS  C:\Users\strap\AppData\Local\Temp\cc7bAV43.s 			page 82


 2527              		.loc 1 532 0
 2528 0116 2A68     		ldr	r2, [r5]
 2529 0118 A4F10803 		sub	r3, r4, #8
 2530 011c 1344     		add	r3, r3, r2
 2531              	.LVL393:
 2532              	.LBB461:
 2533              	.LBB462:
 217:lvgl\src\lv_core\../lv_font/../lv_misc/lv_mem.h **** 
 2534              		.loc 3 217 0
 2535 011e 0DF10601 		add	r1, sp, #6
 2536              	.LVL394:
 2537              	.LBE462:
 2538              	.LBE461:
 532:lvgl\src\lv_core/lv_style.c ****     _lv_memcpy_small(style->map + size - sizeof(const void *) - end_mark_size, &p, sizeof(const voi
 2539              		.loc 1 532 0
 2540 0122 0222     		movs	r2, #2
 2541 0124 04E0     		b	.L185
 2542              	.LVL395:
 2543              	.L186:
 2544              	.LBB464:
 2545              	.LBB463:
 220:lvgl\src\lv_core\../lv_font/../lv_misc/lv_mem.h ****         d8++;
 2546              		.loc 3 220 0
 2547 0126 11F8010B 		ldrb	r0, [r1], #1	@ zero_extendqisi2
 2548              	.LVL396:
 2549 012a 03F8010B 		strb	r0, [r3], #1
 2550              	.LVL397:
 2551              		.loc 3 223 0
 2552 012e 013A     		subs	r2, r2, #1
 2553              	.LVL398:
 2554              	.L185:
 219:lvgl\src\lv_core\../lv_font/../lv_misc/lv_mem.h ****         *d8 = *s8;
 2555              		.loc 3 219 0
 2556 0130 002A     		cmp	r2, #0
 2557 0132 F8D1     		bne	.L186
 2558              	.LVL399:
 2559              	.LBE463:
 2560              	.LBE464:
