ARM GAS  C:\Users\strap\AppData\Local\Temp\cc7bAV43.s 			page 1


   1              		.syntax unified
   2              		.cpu cortex-m3
   3              		.fpu softvfp
   4              		.eabi_attribute 20, 1
   5              		.eabi_attribute 21, 1
   6              		.eabi_attribute 23, 3
   7              		.eabi_attribute 24, 1
   8              		.eabi_attribute 25, 1
   9              		.eabi_attribute 26, 1
  10              		.eabi_attribute 30, 1
  11              		.eabi_attribute 34, 1
  12              		.eabi_attribute 18, 4
  13              		.thumb
  14              		.syntax unified
  15              		.file	"lv_style.c"
  16              		.text
  17              	.Ltext0:
  18              		.cfi_sections	.debug_frame
  19              		.section	.text.lv_style_init,"ax",%progbits
  20              		.align	2
  21              		.global	lv_style_init
  22              		.thumb
  23              		.thumb_func
  24              		.type	lv_style_init, %function
  25              	lv_style_init:
  26              	.LFB328:
  27              		.file 1 "lvgl\\src\\lv_core\\lv_style.c"
   1:lvgl\src\lv_core/lv_style.c **** /**
   2:lvgl\src\lv_core/lv_style.c ****  * @file lv_style.c
   3:lvgl\src\lv_core/lv_style.c ****  *
   4:lvgl\src\lv_core/lv_style.c ****  */
   5:lvgl\src\lv_core/lv_style.c **** 
   6:lvgl\src\lv_core/lv_style.c **** /*********************
   7:lvgl\src\lv_core/lv_style.c ****  *      INCLUDES
   8:lvgl\src\lv_core/lv_style.c ****  *********************/
   9:lvgl\src\lv_core/lv_style.c **** #include "lv_obj.h"
  10:lvgl\src\lv_core/lv_style.c **** #include "../lv_misc/lv_mem.h"
  11:lvgl\src\lv_core/lv_style.c **** #include "../lv_misc/lv_anim.h"
  12:lvgl\src\lv_core/lv_style.c **** 
  13:lvgl\src\lv_core/lv_style.c **** /*********************
  14:lvgl\src\lv_core/lv_style.c ****  *      DEFINES
  15:lvgl\src\lv_core/lv_style.c ****  *********************/
  16:lvgl\src\lv_core/lv_style.c **** #define STYLE_MIX_MAX 256
  17:lvgl\src\lv_core/lv_style.c **** #define STYLE_MIX_SHIFT 8 /*log2(STYLE_MIX_MAX)*/
  18:lvgl\src\lv_core/lv_style.c **** 
  19:lvgl\src\lv_core/lv_style.c **** #define VAL_PROP(v1, v2, r) v1 + (((v2 - v1) * r) >> STYLE_MIX_SHIFT)
  20:lvgl\src\lv_core/lv_style.c **** #define STYLE_ATTR_MIX(attr, r)                                                                    
  21:lvgl\src\lv_core/lv_style.c ****     if(start->attr != end->attr) {                                                                 
  22:lvgl\src\lv_core/lv_style.c ****         res->attr = VAL_PROP(start->attr, end->attr, r);                                           
  23:lvgl\src\lv_core/lv_style.c ****     } else {                                                                                       
  24:lvgl\src\lv_core/lv_style.c ****         res->attr = start->attr;                                                                   
  25:lvgl\src\lv_core/lv_style.c ****     }
  26:lvgl\src\lv_core/lv_style.c **** 
  27:lvgl\src\lv_core/lv_style.c **** #define LV_STYLE_PROP_TO_ID(prop) (prop & 0xFF);
  28:lvgl\src\lv_core/lv_style.c **** #define LV_STYLE_PROP_GET_TYPE(prop) ((prop >> 8) & 0xFF);
  29:lvgl\src\lv_core/lv_style.c **** 
  30:lvgl\src\lv_core/lv_style.c **** /**********************
ARM GAS  C:\Users\strap\AppData\Local\Temp\cc7bAV43.s 			page 2


  31:lvgl\src\lv_core/lv_style.c ****  *      TYPEDEFS
  32:lvgl\src\lv_core/lv_style.c ****  **********************/
  33:lvgl\src\lv_core/lv_style.c **** 
  34:lvgl\src\lv_core/lv_style.c **** /**********************
  35:lvgl\src\lv_core/lv_style.c ****  *  STATIC PROTOTYPES
  36:lvgl\src\lv_core/lv_style.c ****  **********************/
  37:lvgl\src\lv_core/lv_style.c **** LV_ATTRIBUTE_FAST_MEM static inline int32_t get_property_index(const lv_style_t * style, lv_style_p
  38:lvgl\src\lv_core/lv_style.c **** static lv_style_t * get_alloc_local_style(lv_style_list_t * list);
  39:lvgl\src\lv_core/lv_style.c **** static inline void style_resize(lv_style_t * style, size_t sz);
  40:lvgl\src\lv_core/lv_style.c **** static inline lv_style_property_t get_style_prop(const lv_style_t * style, size_t idx);
  41:lvgl\src\lv_core/lv_style.c **** static inline uint8_t get_style_prop_id(const lv_style_t * style, size_t idx);
  42:lvgl\src\lv_core/lv_style.c **** static inline uint8_t get_style_prop_attr(const lv_style_t * style, size_t idx);
  43:lvgl\src\lv_core/lv_style.c **** static inline size_t get_prop_size(uint8_t prop_id);
  44:lvgl\src\lv_core/lv_style.c **** static inline size_t get_next_prop_index(uint8_t prop_id, size_t id);
  45:lvgl\src\lv_core/lv_style.c **** 
  46:lvgl\src\lv_core/lv_style.c **** /**********************
  47:lvgl\src\lv_core/lv_style.c ****  *  GLOABAL VARIABLES
  48:lvgl\src\lv_core/lv_style.c ****  **********************/
  49:lvgl\src\lv_core/lv_style.c **** 
  50:lvgl\src\lv_core/lv_style.c **** /**********************
  51:lvgl\src\lv_core/lv_style.c ****  *  STATIC VARIABLES
  52:lvgl\src\lv_core/lv_style.c ****  **********************/
  53:lvgl\src\lv_core/lv_style.c **** 
  54:lvgl\src\lv_core/lv_style.c **** /**********************
  55:lvgl\src\lv_core/lv_style.c ****  *      MACROS
  56:lvgl\src\lv_core/lv_style.c ****  **********************/
  57:lvgl\src\lv_core/lv_style.c **** 
  58:lvgl\src\lv_core/lv_style.c **** /**********************
  59:lvgl\src\lv_core/lv_style.c ****  *   GLOBAL FUNCTIONS
  60:lvgl\src\lv_core/lv_style.c ****  **********************/
  61:lvgl\src\lv_core/lv_style.c **** 
  62:lvgl\src\lv_core/lv_style.c **** /**
  63:lvgl\src\lv_core/lv_style.c ****  * Initialize a style
  64:lvgl\src\lv_core/lv_style.c ****  * @param style pointer to a style to initialize
  65:lvgl\src\lv_core/lv_style.c ****  */
  66:lvgl\src\lv_core/lv_style.c **** void lv_style_init(lv_style_t * style)
  67:lvgl\src\lv_core/lv_style.c **** {
  28              		.loc 1 67 0
  29              		.cfi_startproc
  30              		@ args = 0, pretend = 0, frame = 0
  31              		@ frame_needed = 0, uses_anonymous_args = 0
  32              	.LVL0:
  33 0000 08B5     		push	{r3, lr}
  34              		.cfi_def_cfa_offset 8
  35              		.cfi_offset 3, -8
  36              		.cfi_offset 14, -4
  68:lvgl\src\lv_core/lv_style.c ****     _lv_memset_00(style, sizeof(lv_style_t));
  37              		.loc 1 68 0
  38 0002 0421     		movs	r1, #4
  39 0004 FFF7FEFF 		bl	_lv_memset_00
  40              	.LVL1:
  41 0008 08BD     		pop	{r3, pc}
  42              		.cfi_endproc
  43              	.LFE328:
  44              		.size	lv_style_init, .-lv_style_init
  45 000a 00BF     		.section	.text.lv_style_list_init,"ax",%progbits
  46              		.align	2
ARM GAS  C:\Users\strap\AppData\Local\Temp\cc7bAV43.s 			page 3


  47              		.global	lv_style_list_init
  48              		.thumb
  49              		.thumb_func
  50              		.type	lv_style_list_init, %function
  51              	lv_style_list_init:
  52              	.LFB331:
  69:lvgl\src\lv_core/lv_style.c **** #if LV_USE_ASSERT_STYLE
  70:lvgl\src\lv_core/lv_style.c ****     style->sentinel = LV_DEBUG_STYLE_SENTINEL_VALUE;
  71:lvgl\src\lv_core/lv_style.c **** #endif
  72:lvgl\src\lv_core/lv_style.c **** }
  73:lvgl\src\lv_core/lv_style.c **** 
  74:lvgl\src\lv_core/lv_style.c **** /**
  75:lvgl\src\lv_core/lv_style.c ****  * Copy a style with all its properties
  76:lvgl\src\lv_core/lv_style.c ****  * @param style_dest pointer to the destination style. (Should be initialized with `lv_style_init()
  77:lvgl\src\lv_core/lv_style.c ****  * @param style_src pointer to the source (to copy )style
  78:lvgl\src\lv_core/lv_style.c ****  */
  79:lvgl\src\lv_core/lv_style.c **** void lv_style_copy(lv_style_t * style_dest, const lv_style_t * style_src)
  80:lvgl\src\lv_core/lv_style.c **** {
  81:lvgl\src\lv_core/lv_style.c ****     if(style_src == NULL) return;
  82:lvgl\src\lv_core/lv_style.c **** 
  83:lvgl\src\lv_core/lv_style.c ****     LV_ASSERT_STYLE(style_dest);
  84:lvgl\src\lv_core/lv_style.c ****     LV_ASSERT_STYLE(style_src);
  85:lvgl\src\lv_core/lv_style.c **** 
  86:lvgl\src\lv_core/lv_style.c ****     if(style_src->map == NULL) return;
  87:lvgl\src\lv_core/lv_style.c **** 
  88:lvgl\src\lv_core/lv_style.c ****     uint16_t size = _lv_style_get_mem_size(style_src);
  89:lvgl\src\lv_core/lv_style.c ****     style_dest->map = lv_mem_alloc(size);
  90:lvgl\src\lv_core/lv_style.c ****     _lv_memcpy(style_dest->map, style_src->map, size);
  91:lvgl\src\lv_core/lv_style.c **** }
  92:lvgl\src\lv_core/lv_style.c **** 
  93:lvgl\src\lv_core/lv_style.c **** /**
  94:lvgl\src\lv_core/lv_style.c ****  * Remove a property from a style
  95:lvgl\src\lv_core/lv_style.c ****  * @param style pointer to a style
  96:lvgl\src\lv_core/lv_style.c ****  * @param prop  a style property ORed with a state.
  97:lvgl\src\lv_core/lv_style.c ****  * E.g. `LV_STYLE_BORDER_WIDTH | (LV_STATE_PRESSED << LV_STYLE_STATE_POS)`
  98:lvgl\src\lv_core/lv_style.c ****  * @return true: the property was found and removed; false: the property wasn't found
  99:lvgl\src\lv_core/lv_style.c ****  */
 100:lvgl\src\lv_core/lv_style.c **** bool lv_style_remove_prop(lv_style_t * style, lv_style_property_t prop)
 101:lvgl\src\lv_core/lv_style.c **** {
 102:lvgl\src\lv_core/lv_style.c ****     if(style == NULL) return false;
 103:lvgl\src\lv_core/lv_style.c ****     LV_ASSERT_STYLE(style);
 104:lvgl\src\lv_core/lv_style.c **** 
 105:lvgl\src\lv_core/lv_style.c ****     int32_t id = get_property_index(style, prop);
 106:lvgl\src\lv_core/lv_style.c ****     /*The property exists but not sure it's state is the same*/
 107:lvgl\src\lv_core/lv_style.c ****     if(id >= 0) {
 108:lvgl\src\lv_core/lv_style.c ****         lv_style_attr_t attr_found;
 109:lvgl\src\lv_core/lv_style.c ****         lv_style_attr_t attr_goal;
 110:lvgl\src\lv_core/lv_style.c **** 
 111:lvgl\src\lv_core/lv_style.c ****         attr_found = get_style_prop_attr(style, id);
 112:lvgl\src\lv_core/lv_style.c ****         attr_goal = (prop >> 8) & 0xFFU;
 113:lvgl\src\lv_core/lv_style.c **** 
 114:lvgl\src\lv_core/lv_style.c ****         if(LV_STYLE_ATTR_GET_STATE(attr_found) == LV_STYLE_ATTR_GET_STATE(attr_goal)) {
 115:lvgl\src\lv_core/lv_style.c ****             uint32_t map_size = _lv_style_get_mem_size(style);
 116:lvgl\src\lv_core/lv_style.c ****             uint8_t prop_size = get_prop_size(prop);
 117:lvgl\src\lv_core/lv_style.c **** 
 118:lvgl\src\lv_core/lv_style.c ****             /*Move the props to fill the space of the property to delete*/
 119:lvgl\src\lv_core/lv_style.c ****             uint32_t i;
ARM GAS  C:\Users\strap\AppData\Local\Temp\cc7bAV43.s 			page 4


 120:lvgl\src\lv_core/lv_style.c ****             for(i = id; i < map_size - prop_size; i++) {
 121:lvgl\src\lv_core/lv_style.c ****                 style->map[i] = style->map[i + prop_size];
 122:lvgl\src\lv_core/lv_style.c ****             }
 123:lvgl\src\lv_core/lv_style.c **** 
 124:lvgl\src\lv_core/lv_style.c ****             style_resize(style, map_size - prop_size);
 125:lvgl\src\lv_core/lv_style.c **** 
 126:lvgl\src\lv_core/lv_style.c ****             return true;
 127:lvgl\src\lv_core/lv_style.c ****         }
 128:lvgl\src\lv_core/lv_style.c ****     }
 129:lvgl\src\lv_core/lv_style.c **** 
 130:lvgl\src\lv_core/lv_style.c ****     return false;
 131:lvgl\src\lv_core/lv_style.c **** }
 132:lvgl\src\lv_core/lv_style.c **** 
 133:lvgl\src\lv_core/lv_style.c **** /**
 134:lvgl\src\lv_core/lv_style.c ****  * Initialize a style list
 135:lvgl\src\lv_core/lv_style.c ****  * @param list a style list to initialize
 136:lvgl\src\lv_core/lv_style.c ****  */
 137:lvgl\src\lv_core/lv_style.c **** void lv_style_list_init(lv_style_list_t * list)
 138:lvgl\src\lv_core/lv_style.c **** {
  53              		.loc 1 138 0
  54              		.cfi_startproc
  55              		@ args = 0, pretend = 0, frame = 0
  56              		@ frame_needed = 0, uses_anonymous_args = 0
  57              	.LVL2:
  58 0000 08B5     		push	{r3, lr}
  59              		.cfi_def_cfa_offset 8
  60              		.cfi_offset 3, -8
  61              		.cfi_offset 14, -4
 139:lvgl\src\lv_core/lv_style.c ****     _lv_memset_00(list, sizeof(lv_style_list_t));
  62              		.loc 1 139 0
  63 0002 0821     		movs	r1, #8
  64 0004 FFF7FEFF 		bl	_lv_memset_00
  65              	.LVL3:
  66 0008 08BD     		pop	{r3, pc}
  67              		.cfi_endproc
  68              	.LFE331:
  69              		.size	lv_style_list_init, .-lv_style_list_init
  70 000a 00BF     		.section	.text._lv_style_list_remove_style,"ax",%progbits
  71              		.align	2
  72              		.global	_lv_style_list_remove_style
  73              		.thumb
  74              		.thumb_func
  75              		.type	_lv_style_list_remove_style, %function
  76              	_lv_style_list_remove_style:
  77              	.LFB334:
 140:lvgl\src\lv_core/lv_style.c **** #if LV_USE_ASSERT_STYLE
 141:lvgl\src\lv_core/lv_style.c ****     list->sentinel = LV_DEBUG_STYLE_LIST_SENTINEL_VALUE;
 142:lvgl\src\lv_core/lv_style.c **** #endif
 143:lvgl\src\lv_core/lv_style.c **** }
 144:lvgl\src\lv_core/lv_style.c **** 
 145:lvgl\src\lv_core/lv_style.c **** /**
 146:lvgl\src\lv_core/lv_style.c ****  * Copy a style list with all its styles and local style properties
 147:lvgl\src\lv_core/lv_style.c ****  * @param list_dest pointer to the destination style list. (should be initialized with `lv_style_li
 148:lvgl\src\lv_core/lv_style.c ****  * @param list_src pointer to the source (to copy) style list.
 149:lvgl\src\lv_core/lv_style.c ****  */
 150:lvgl\src\lv_core/lv_style.c **** void lv_style_list_copy(lv_style_list_t * list_dest, const lv_style_list_t * list_src)
 151:lvgl\src\lv_core/lv_style.c **** {
ARM GAS  C:\Users\strap\AppData\Local\Temp\cc7bAV43.s 			page 5


 152:lvgl\src\lv_core/lv_style.c ****     LV_ASSERT_STYLE_LIST(list_dest);
 153:lvgl\src\lv_core/lv_style.c ****     LV_ASSERT_STYLE_LIST(list_src);
 154:lvgl\src\lv_core/lv_style.c **** 
 155:lvgl\src\lv_core/lv_style.c ****     _lv_style_list_reset(list_dest);
 156:lvgl\src\lv_core/lv_style.c **** 
 157:lvgl\src\lv_core/lv_style.c ****     if(list_src->style_list == NULL) return;
 158:lvgl\src\lv_core/lv_style.c **** 
 159:lvgl\src\lv_core/lv_style.c ****     /*Copy the styles but skip the transitions*/
 160:lvgl\src\lv_core/lv_style.c ****     if(list_src->has_local == 0) {
 161:lvgl\src\lv_core/lv_style.c ****         if(list_src->has_trans) {
 162:lvgl\src\lv_core/lv_style.c ****             list_dest->style_list = lv_mem_alloc((list_src->style_cnt - 1) * sizeof(lv_style_t *));
 163:lvgl\src\lv_core/lv_style.c ****             _lv_memcpy(list_dest->style_list, list_src->style_list + 1, (list_src->style_cnt - 1) *
 164:lvgl\src\lv_core/lv_style.c ****             list_dest->style_cnt = list_src->style_cnt - 1;
 165:lvgl\src\lv_core/lv_style.c ****         }
 166:lvgl\src\lv_core/lv_style.c ****         else {
 167:lvgl\src\lv_core/lv_style.c ****             list_dest->style_list = lv_mem_alloc(list_src->style_cnt * sizeof(lv_style_t *));
 168:lvgl\src\lv_core/lv_style.c ****             _lv_memcpy(list_dest->style_list, list_src->style_list, list_src->style_cnt * sizeof(lv
 169:lvgl\src\lv_core/lv_style.c ****             list_dest->style_cnt = list_src->style_cnt;
 170:lvgl\src\lv_core/lv_style.c ****         }
 171:lvgl\src\lv_core/lv_style.c ****     }
 172:lvgl\src\lv_core/lv_style.c ****     else {
 173:lvgl\src\lv_core/lv_style.c ****         if(list_src->has_trans) {
 174:lvgl\src\lv_core/lv_style.c ****             list_dest->style_list = lv_mem_alloc((list_src->style_cnt - 2) * sizeof(lv_style_t *));
 175:lvgl\src\lv_core/lv_style.c ****             _lv_memcpy(list_dest->style_list, list_src->style_list + 2, (list_src->style_cnt - 2) *
 176:lvgl\src\lv_core/lv_style.c ****             list_dest->style_cnt = list_src->style_cnt - 2;
 177:lvgl\src\lv_core/lv_style.c ****         }
 178:lvgl\src\lv_core/lv_style.c ****         else {
 179:lvgl\src\lv_core/lv_style.c ****             list_dest->style_list = lv_mem_alloc((list_src->style_cnt - 1) * sizeof(lv_style_t *));
 180:lvgl\src\lv_core/lv_style.c ****             _lv_memcpy(list_dest->style_list, list_src->style_list + 1, (list_src->style_cnt - 1) *
 181:lvgl\src\lv_core/lv_style.c ****             list_dest->style_cnt = list_src->style_cnt - 1;
 182:lvgl\src\lv_core/lv_style.c ****         }
 183:lvgl\src\lv_core/lv_style.c **** 
 184:lvgl\src\lv_core/lv_style.c ****         lv_style_t * local_style = get_alloc_local_style(list_dest);
 185:lvgl\src\lv_core/lv_style.c ****         lv_style_copy(local_style, get_alloc_local_style((lv_style_list_t *)list_src));
 186:lvgl\src\lv_core/lv_style.c ****     }
 187:lvgl\src\lv_core/lv_style.c **** }
 188:lvgl\src\lv_core/lv_style.c **** 
 189:lvgl\src\lv_core/lv_style.c **** /**
 190:lvgl\src\lv_core/lv_style.c ****  * Add a style to a style list.
 191:lvgl\src\lv_core/lv_style.c ****  * Only the the style pointer will be saved so the shouldn't be a local variable.
 192:lvgl\src\lv_core/lv_style.c ****  * (It should be static, global or dynamically allocated)
 193:lvgl\src\lv_core/lv_style.c ****  * @param list pointer to a style list
 194:lvgl\src\lv_core/lv_style.c ****  * @param style pointer to a style to add
 195:lvgl\src\lv_core/lv_style.c ****  */
 196:lvgl\src\lv_core/lv_style.c **** void _lv_style_list_add_style(lv_style_list_t * list, lv_style_t * style)
 197:lvgl\src\lv_core/lv_style.c **** {
 198:lvgl\src\lv_core/lv_style.c ****     LV_ASSERT_STYLE_LIST(list);
 199:lvgl\src\lv_core/lv_style.c ****     LV_ASSERT_STYLE(style);
 200:lvgl\src\lv_core/lv_style.c **** 
 201:lvgl\src\lv_core/lv_style.c ****     if(list == NULL) return;
 202:lvgl\src\lv_core/lv_style.c **** 
 203:lvgl\src\lv_core/lv_style.c ****     /*Remove the style first if already exists*/
 204:lvgl\src\lv_core/lv_style.c ****     _lv_style_list_remove_style(list, style);
 205:lvgl\src\lv_core/lv_style.c **** 
 206:lvgl\src\lv_core/lv_style.c ****     lv_style_t ** new_classes;
 207:lvgl\src\lv_core/lv_style.c ****     if(list->style_cnt == 0) new_classes = lv_mem_alloc(sizeof(lv_style_t *));
 208:lvgl\src\lv_core/lv_style.c ****     else new_classes = lv_mem_realloc(list->style_list, sizeof(lv_style_t *) * (list->style_cnt + 1
ARM GAS  C:\Users\strap\AppData\Local\Temp\cc7bAV43.s 			page 6


 209:lvgl\src\lv_core/lv_style.c ****     LV_ASSERT_MEM(new_classes);
 210:lvgl\src\lv_core/lv_style.c ****     if(new_classes == NULL) {
 211:lvgl\src\lv_core/lv_style.c ****         LV_LOG_WARN("lv_style_list_add_style: couldn't add the class");
 212:lvgl\src\lv_core/lv_style.c ****         return;
 213:lvgl\src\lv_core/lv_style.c ****     }
 214:lvgl\src\lv_core/lv_style.c **** 
 215:lvgl\src\lv_core/lv_style.c ****     /*Make space for the new style at the beginning. Leave local and trans style if exists*/
 216:lvgl\src\lv_core/lv_style.c ****     uint8_t i;
 217:lvgl\src\lv_core/lv_style.c ****     uint8_t first_style = 0;
 218:lvgl\src\lv_core/lv_style.c ****     if(list->has_trans) first_style++;
 219:lvgl\src\lv_core/lv_style.c ****     if(list->has_local) first_style++;
 220:lvgl\src\lv_core/lv_style.c ****     for(i = list->style_cnt; i > first_style; i--) {
 221:lvgl\src\lv_core/lv_style.c ****         new_classes[i] = new_classes[i - 1];
 222:lvgl\src\lv_core/lv_style.c ****     }
 223:lvgl\src\lv_core/lv_style.c **** 
 224:lvgl\src\lv_core/lv_style.c ****     new_classes[first_style] = style;
 225:lvgl\src\lv_core/lv_style.c ****     list->style_cnt++;
 226:lvgl\src\lv_core/lv_style.c ****     list->style_list = new_classes;
 227:lvgl\src\lv_core/lv_style.c **** }
 228:lvgl\src\lv_core/lv_style.c **** 
 229:lvgl\src\lv_core/lv_style.c **** /**
 230:lvgl\src\lv_core/lv_style.c ****  * Remove a style from a style list
 231:lvgl\src\lv_core/lv_style.c ****  * @param style_list pointer to a style list
 232:lvgl\src\lv_core/lv_style.c ****  * @param style pointer to a style to remove
 233:lvgl\src\lv_core/lv_style.c ****  */
 234:lvgl\src\lv_core/lv_style.c **** void _lv_style_list_remove_style(lv_style_list_t * list, lv_style_t * style)
 235:lvgl\src\lv_core/lv_style.c **** {
  78              		.loc 1 235 0
  79              		.cfi_startproc
  80              		@ args = 0, pretend = 0, frame = 0
  81              		@ frame_needed = 0, uses_anonymous_args = 0
  82              	.LVL4:
  83 0000 70B5     		push	{r4, r5, r6, lr}
  84              		.cfi_def_cfa_offset 16
  85              		.cfi_offset 4, -16
  86              		.cfi_offset 5, -12
  87              		.cfi_offset 6, -8
  88              		.cfi_offset 14, -4
 236:lvgl\src\lv_core/lv_style.c ****     LV_ASSERT_STYLE_LIST(list);
 237:lvgl\src\lv_core/lv_style.c ****     LV_ASSERT_STYLE(style);
 238:lvgl\src\lv_core/lv_style.c **** 
 239:lvgl\src\lv_core/lv_style.c ****     if(list->style_cnt == 0) return;
  89              		.loc 1 239 0
  90 0002 0379     		ldrb	r3, [r0, #4]	@ zero_extendqisi2
  91 0004 13F03F06 		ands	r6, r3, #63
  92 0008 4FD0     		beq	.L5
  93 000a 0023     		movs	r3, #0
  94 000c 06E0     		b	.L7
  95              	.LVL5:
  96              	.L9:
 240:lvgl\src\lv_core/lv_style.c **** 
 241:lvgl\src\lv_core/lv_style.c ****     /*Check if the style really exists here*/
 242:lvgl\src\lv_core/lv_style.c ****     uint8_t i;
 243:lvgl\src\lv_core/lv_style.c ****     bool found = false;
 244:lvgl\src\lv_core/lv_style.c ****     for(i = 0; i < list->style_cnt; i++) {
 245:lvgl\src\lv_core/lv_style.c ****         if(list->style_list[i] == style) {
  97              		.loc 1 245 0
ARM GAS  C:\Users\strap\AppData\Local\Temp\cc7bAV43.s 			page 7


  98 000e 0468     		ldr	r4, [r0]
  99 0010 54F82340 		ldr	r4, [r4, r3, lsl #2]
 100 0014 8C42     		cmp	r4, r1
 101 0016 08D0     		beq	.L16
 244:lvgl\src\lv_core/lv_style.c ****         if(list->style_list[i] == style) {
 102              		.loc 1 244 0 discriminator 2
 103 0018 0133     		adds	r3, r3, #1
 104              	.LVL6:
 105 001a DBB2     		uxtb	r3, r3
 106              	.LVL7:
 107              	.L7:
 244:lvgl\src\lv_core/lv_style.c ****         if(list->style_list[i] == style) {
 108              		.loc 1 244 0 is_stmt 0 discriminator 1
 109 001c 0279     		ldrb	r2, [r0, #4]	@ zero_extendqisi2
 110 001e 02F03F02 		and	r2, r2, #63
 111 0022 9342     		cmp	r3, r2
 112 0024 F3DB     		blt	.L9
 243:lvgl\src\lv_core/lv_style.c ****     for(i = 0; i < list->style_cnt; i++) {
 113              		.loc 1 243 0 is_stmt 1
 114 0026 0023     		movs	r3, #0
 115              	.LVL8:
 116 0028 00E0     		b	.L8
 117              	.LVL9:
 118              	.L16:
 246:lvgl\src\lv_core/lv_style.c ****             found = true;
 119              		.loc 1 246 0
 120 002a 0123     		movs	r3, #1
 121              	.LVL10:
 122              	.L8:
 247:lvgl\src\lv_core/lv_style.c ****             break;
 248:lvgl\src\lv_core/lv_style.c ****         }
 249:lvgl\src\lv_core/lv_style.c ****     }
 250:lvgl\src\lv_core/lv_style.c ****     if(found == false) return;
 123              		.loc 1 250 0
 124 002c 002B     		cmp	r3, #0
 125 002e 3CD0     		beq	.L5
 126 0030 0D46     		mov	r5, r1
 127 0032 0446     		mov	r4, r0
 251:lvgl\src\lv_core/lv_style.c **** 
 252:lvgl\src\lv_core/lv_style.c ****     if(list->style_cnt == 1) {
 128              		.loc 1 252 0
 129 0034 012E     		cmp	r6, #1
 130 0036 0BD1     		bne	.L10
 253:lvgl\src\lv_core/lv_style.c ****         lv_mem_free(list->style_list);
 131              		.loc 1 253 0
 132 0038 0068     		ldr	r0, [r0]
 133              	.LVL11:
 134 003a FFF7FEFF 		bl	lv_mem_free
 135              	.LVL12:
 254:lvgl\src\lv_core/lv_style.c ****         list->style_list = NULL;
 136              		.loc 1 254 0
 137 003e 0022     		movs	r2, #0
 138 0040 2260     		str	r2, [r4]
 255:lvgl\src\lv_core/lv_style.c ****         list->style_cnt = 0;
 139              		.loc 1 255 0
 140 0042 2379     		ldrb	r3, [r4, #4]	@ zero_extendqisi2
 256:lvgl\src\lv_core/lv_style.c ****         list->has_local = 0;
ARM GAS  C:\Users\strap\AppData\Local\Temp\cc7bAV43.s 			page 8


 141              		.loc 1 256 0
 142 0044 03F0C003 		and	r3, r3, #192
 143 0048 62F38613 		bfi	r3, r2, #6, #1
 144 004c 2371     		strb	r3, [r4, #4]
 257:lvgl\src\lv_core/lv_style.c ****         return;
 145              		.loc 1 257 0
 146 004e 70BD     		pop	{r4, r5, r6, pc}
 147              	.LVL13:
 148              	.L10:
 258:lvgl\src\lv_core/lv_style.c ****     }
 259:lvgl\src\lv_core/lv_style.c **** 
 260:lvgl\src\lv_core/lv_style.c ****     lv_style_t ** new_classes = lv_mem_alloc(sizeof(lv_style_t *) * (list->style_cnt - 1));
 149              		.loc 1 260 0
 150 0050 501E     		subs	r0, r2, #1
 151              	.LVL14:
 152 0052 8000     		lsls	r0, r0, #2
 153 0054 FFF7FEFF 		bl	lv_mem_alloc
 154              	.LVL15:
 155 0058 0646     		mov	r6, r0
 156              	.LVL16:
 261:lvgl\src\lv_core/lv_style.c ****     LV_ASSERT_MEM(new_classes);
 157              		.loc 1 261 0
 158 005a FFF7FEFF 		bl	lv_debug_check_null
 159              	.LVL17:
 160 005e 28B9     		cbnz	r0, .L11
 161              		.loc 1 261 0 is_stmt 0 discriminator 1
 162 0060 3246     		mov	r2, r6
 163 0062 0023     		movs	r3, #0
 164 0064 1148     		ldr	r0, .L18
 165 0066 FFF7FEFF 		bl	lv_debug_log_error
 166              	.LVL18:
 167              	.L12:
 168 006a FEE7     		b	.L12
 169              	.L11:
 262:lvgl\src\lv_core/lv_style.c ****     if(new_classes == NULL) {
 170              		.loc 1 262 0 is_stmt 1
 171 006c EEB1     		cbz	r6, .L5
 172 006e 0021     		movs	r1, #0
 173 0070 0B46     		mov	r3, r1
 174 0072 0AE0     		b	.L13
 175              	.LVL19:
 176              	.L15:
 263:lvgl\src\lv_core/lv_style.c ****         LV_LOG_WARN("lv_style_list_remove_style: couldn't reallocate class list");
 264:lvgl\src\lv_core/lv_style.c ****         return;
 265:lvgl\src\lv_core/lv_style.c ****     }
 266:lvgl\src\lv_core/lv_style.c ****     uint8_t j;
 267:lvgl\src\lv_core/lv_style.c ****     for(i = 0, j = 0; i < list->style_cnt; i++) {
 268:lvgl\src\lv_core/lv_style.c ****         if(list->style_list[i] == style) continue;
 177              		.loc 1 268 0
 178 0074 2268     		ldr	r2, [r4]
 179 0076 52F82320 		ldr	r2, [r2, r3, lsl #2]
 180 007a 9542     		cmp	r5, r2
 181 007c 03D0     		beq	.L14
 269:lvgl\src\lv_core/lv_style.c ****         new_classes[j] = list->style_list[i];
 182              		.loc 1 269 0
 183 007e 46F82120 		str	r2, [r6, r1, lsl #2]
 270:lvgl\src\lv_core/lv_style.c ****         j++;
ARM GAS  C:\Users\strap\AppData\Local\Temp\cc7bAV43.s 			page 9


 184              		.loc 1 270 0
 185 0082 0131     		adds	r1, r1, #1
 186              	.LVL20:
 187 0084 C9B2     		uxtb	r1, r1
 188              	.LVL21:
 189              	.L14:
 267:lvgl\src\lv_core/lv_style.c ****         if(list->style_list[i] == style) continue;
 190              		.loc 1 267 0 discriminator 2
 191 0086 0133     		adds	r3, r3, #1
 192              	.LVL22:
 193 0088 DBB2     		uxtb	r3, r3
 194              	.LVL23:
 195              	.L13:
 267:lvgl\src\lv_core/lv_style.c ****         if(list->style_list[i] == style) continue;
 196              		.loc 1 267 0 is_stmt 0 discriminator 1
 197 008a 2279     		ldrb	r2, [r4, #4]	@ zero_extendqisi2
 198 008c 02F03F02 		and	r2, r2, #63
 199 0090 9342     		cmp	r3, r2
 200 0092 EFDB     		blt	.L15
 271:lvgl\src\lv_core/lv_style.c **** 
 272:lvgl\src\lv_core/lv_style.c ****     }
 273:lvgl\src\lv_core/lv_style.c **** 
 274:lvgl\src\lv_core/lv_style.c ****     lv_mem_free(list->style_list);
 201              		.loc 1 274 0 is_stmt 1
 202 0094 2068     		ldr	r0, [r4]
 203 0096 FFF7FEFF 		bl	lv_mem_free
 204              	.LVL24:
 275:lvgl\src\lv_core/lv_style.c **** 
 276:lvgl\src\lv_core/lv_style.c ****     list->style_cnt--;
 205              		.loc 1 276 0
 206 009a 2379     		ldrb	r3, [r4, #4]	@ zero_extendqisi2
 207 009c 03F03F02 		and	r2, r3, #63
 208 00a0 3F32     		adds	r2, r2, #63
 209 00a2 62F30503 		bfi	r3, r2, #0, #6
 210 00a6 2371     		strb	r3, [r4, #4]
 277:lvgl\src\lv_core/lv_style.c ****     list->style_list = new_classes;
 211              		.loc 1 277 0
 212 00a8 2660     		str	r6, [r4]
 213              	.LVL25:
 214              	.L5:
 215 00aa 70BD     		pop	{r4, r5, r6, pc}
 216              	.L19:
 217              		.align	2
 218              	.L18:
 219 00ac 00000000 		.word	.LC0
 220              		.cfi_endproc
 221              	.LFE334:
 222              		.size	_lv_style_list_remove_style, .-_lv_style_list_remove_style
 223              		.section	.text._lv_style_list_add_style,"ax",%progbits
 224              		.align	2
 225              		.global	_lv_style_list_add_style
 226              		.thumb
 227              		.thumb_func
 228              		.type	_lv_style_list_add_style, %function
 229              	_lv_style_list_add_style:
 230              	.LFB333:
 197:lvgl\src\lv_core/lv_style.c ****     LV_ASSERT_STYLE_LIST(list);
ARM GAS  C:\Users\strap\AppData\Local\Temp\cc7bAV43.s 			page 10


 231              		.loc 1 197 0
 232              		.cfi_startproc
 233              		@ args = 0, pretend = 0, frame = 0
 234              		@ frame_needed = 0, uses_anonymous_args = 0
 235              	.LVL26:
 201:lvgl\src\lv_core/lv_style.c **** 
 236              		.loc 1 201 0
 237 0000 0028     		cmp	r0, #0
 238 0002 47D0     		beq	.L32
 197:lvgl\src\lv_core/lv_style.c ****     LV_ASSERT_STYLE_LIST(list);
 239              		.loc 1 197 0
 240 0004 70B5     		push	{r4, r5, r6, lr}
 241              		.cfi_def_cfa_offset 16
 242              		.cfi_offset 4, -16
 243              		.cfi_offset 5, -12
 244              		.cfi_offset 6, -8
 245              		.cfi_offset 14, -4
 246 0006 0446     		mov	r4, r0
 247 0008 0E46     		mov	r6, r1
 204:lvgl\src\lv_core/lv_style.c **** 
 248              		.loc 1 204 0
 249 000a FFF7FEFF 		bl	_lv_style_list_remove_style
 250              	.LVL27:
 207:lvgl\src\lv_core/lv_style.c ****     else new_classes = lv_mem_realloc(list->style_list, sizeof(lv_style_t *) * (list->style_cnt + 1
 251              		.loc 1 207 0
 252 000e 2379     		ldrb	r3, [r4, #4]	@ zero_extendqisi2
 253 0010 13F03F0F 		tst	r3, #63
 254 0014 04D1     		bne	.L22
 207:lvgl\src\lv_core/lv_style.c ****     else new_classes = lv_mem_realloc(list->style_list, sizeof(lv_style_t *) * (list->style_cnt + 1
 255              		.loc 1 207 0 is_stmt 0 discriminator 1
 256 0016 0420     		movs	r0, #4
 257 0018 FFF7FEFF 		bl	lv_mem_alloc
 258              	.LVL28:
 259 001c 0546     		mov	r5, r0
 260              	.LVL29:
 261 001e 08E0     		b	.L23
 262              	.LVL30:
 263              	.L22:
 208:lvgl\src\lv_core/lv_style.c ****     LV_ASSERT_MEM(new_classes);
 264              		.loc 1 208 0 is_stmt 1
 265 0020 2179     		ldrb	r1, [r4, #4]	@ zero_extendqisi2
 266 0022 01F03F01 		and	r1, r1, #63
 267 0026 0131     		adds	r1, r1, #1
 268 0028 8900     		lsls	r1, r1, #2
 269 002a 2068     		ldr	r0, [r4]
 270 002c FFF7FEFF 		bl	lv_mem_realloc
 271              	.LVL31:
 272 0030 0546     		mov	r5, r0
 273              	.LVL32:
 274              	.L23:
 209:lvgl\src\lv_core/lv_style.c ****     if(new_classes == NULL) {
 275              		.loc 1 209 0
 276 0032 2846     		mov	r0, r5
 277 0034 FFF7FEFF 		bl	lv_debug_check_null
 278              	.LVL33:
 279 0038 28B9     		cbnz	r0, .L24
 209:lvgl\src\lv_core/lv_style.c ****     if(new_classes == NULL) {
ARM GAS  C:\Users\strap\AppData\Local\Temp\cc7bAV43.s 			page 11


 280              		.loc 1 209 0 is_stmt 0 discriminator 1
 281 003a 2A46     		mov	r2, r5
 282 003c 0023     		movs	r3, #0
 283 003e 1648     		ldr	r0, .L33
 284 0040 FFF7FEFF 		bl	lv_debug_log_error
 285              	.LVL34:
 286              	.L25:
 287 0044 FEE7     		b	.L25
 288              	.L24:
 210:lvgl\src\lv_core/lv_style.c ****         LV_LOG_WARN("lv_style_list_add_style: couldn't add the class");
 289              		.loc 1 210 0 is_stmt 1
 290 0046 25B3     		cbz	r5, .L20
 291              	.LVL35:
 218:lvgl\src\lv_core/lv_style.c ****     if(list->has_local) first_style++;
 292              		.loc 1 218 0
 293 0048 2379     		ldrb	r3, [r4, #4]	@ zero_extendqisi2
 294 004a 13F0800F 		tst	r3, #128
 295 004e 01D1     		bne	.L30
 217:lvgl\src\lv_core/lv_style.c ****     if(list->has_trans) first_style++;
 296              		.loc 1 217 0
 297 0050 0022     		movs	r2, #0
 298 0052 00E0     		b	.L26
 299              	.L30:
 218:lvgl\src\lv_core/lv_style.c ****     if(list->has_local) first_style++;
 300              		.loc 1 218 0
 301 0054 0122     		movs	r2, #1
 302              	.L26:
 303              	.LVL36:
 219:lvgl\src\lv_core/lv_style.c ****     for(i = list->style_cnt; i > first_style; i--) {
 304              		.loc 1 219 0
 305 0056 13F0400F 		tst	r3, #64
 306 005a 01D0     		beq	.L27
 219:lvgl\src\lv_core/lv_style.c ****     for(i = list->style_cnt; i > first_style; i--) {
 307              		.loc 1 219 0 is_stmt 0 discriminator 1
 308 005c 0132     		adds	r2, r2, #1
 309              	.LVL37:
 310 005e D2B2     		uxtb	r2, r2
 311              	.LVL38:
 312              	.L27:
 220:lvgl\src\lv_core/lv_style.c ****         new_classes[i] = new_classes[i - 1];
 313              		.loc 1 220 0 is_stmt 1
 314 0060 2379     		ldrb	r3, [r4, #4]	@ zero_extendqisi2
 315 0062 03F03F03 		and	r3, r3, #63
 316              	.LVL39:
 317 0066 08E0     		b	.L28
 318              	.LVL40:
 319              	.L29:
 221:lvgl\src\lv_core/lv_style.c ****     }
 320              		.loc 1 221 0 discriminator 3
 321 0068 03F18041 		add	r1, r3, #1073741824
 322 006c 0139     		subs	r1, r1, #1
 323 006e 55F82110 		ldr	r1, [r5, r1, lsl #2]
 324 0072 45F82310 		str	r1, [r5, r3, lsl #2]
 220:lvgl\src\lv_core/lv_style.c ****         new_classes[i] = new_classes[i - 1];
 325              		.loc 1 220 0 discriminator 3
 326 0076 013B     		subs	r3, r3, #1
 327              	.LVL41:
ARM GAS  C:\Users\strap\AppData\Local\Temp\cc7bAV43.s 			page 12


 328 0078 DBB2     		uxtb	r3, r3
 329              	.LVL42:
 330              	.L28:
 220:lvgl\src\lv_core/lv_style.c ****         new_classes[i] = new_classes[i - 1];
 331              		.loc 1 220 0 is_stmt 0 discriminator 1
 332 007a 9342     		cmp	r3, r2
 333 007c F4D8     		bhi	.L29
 224:lvgl\src\lv_core/lv_style.c ****     list->style_cnt++;
 334              		.loc 1 224 0 is_stmt 1
 335 007e 45F82260 		str	r6, [r5, r2, lsl #2]
 225:lvgl\src\lv_core/lv_style.c ****     list->style_list = new_classes;
 336              		.loc 1 225 0
 337 0082 2379     		ldrb	r3, [r4, #4]	@ zero_extendqisi2
 338              	.LVL43:
 339 0084 03F03F02 		and	r2, r3, #63
 340              	.LVL44:
 341 0088 0132     		adds	r2, r2, #1
 342 008a 62F30503 		bfi	r3, r2, #0, #6
 343 008e 2371     		strb	r3, [r4, #4]
 226:lvgl\src\lv_core/lv_style.c **** }
 344              		.loc 1 226 0
 345 0090 2560     		str	r5, [r4]
 346              	.L20:
 347 0092 70BD     		pop	{r4, r5, r6, pc}
 348              	.LVL45:
 349              	.L32:
 350              		.cfi_def_cfa_offset 0
 351              		.cfi_restore 4
 352              		.cfi_restore 5
 353              		.cfi_restore 6
 354              		.cfi_restore 14
 355 0094 7047     		bx	lr
 356              	.L34:
 357 0096 00BF     		.align	2
 358              	.L33:
 359 0098 00000000 		.word	.LC0
 360              		.cfi_endproc
 361              	.LFE333:
 362              		.size	_lv_style_list_add_style, .-_lv_style_list_add_style
 363              		.section	.text.get_alloc_local_style,"ax",%progbits
 364              		.align	2
 365              		.thumb
 366              		.thumb_func
 367              		.type	get_alloc_local_style, %function
 368              	get_alloc_local_style:
 369              	.LFB360:
 278:lvgl\src\lv_core/lv_style.c **** }
 279:lvgl\src\lv_core/lv_style.c **** 
 280:lvgl\src\lv_core/lv_style.c **** /**
 281:lvgl\src\lv_core/lv_style.c ****  * Remove all styles added from style list, clear the local style, transition style and free all al
 282:lvgl\src\lv_core/lv_style.c ****  * Leave `ignore_trans` flag as it is.
 283:lvgl\src\lv_core/lv_style.c ****  * @param list pointer to a style list.
 284:lvgl\src\lv_core/lv_style.c ****  */
 285:lvgl\src\lv_core/lv_style.c **** void _lv_style_list_reset(lv_style_list_t * list)
 286:lvgl\src\lv_core/lv_style.c **** {
 287:lvgl\src\lv_core/lv_style.c ****     LV_ASSERT_STYLE_LIST(list);
 288:lvgl\src\lv_core/lv_style.c **** 
ARM GAS  C:\Users\strap\AppData\Local\Temp\cc7bAV43.s 			page 13


 289:lvgl\src\lv_core/lv_style.c ****     if(list == NULL) return;
 290:lvgl\src\lv_core/lv_style.c **** 
 291:lvgl\src\lv_core/lv_style.c ****     if(list->has_local) {
 292:lvgl\src\lv_core/lv_style.c ****         lv_style_t * local = lv_style_list_get_local_style(list);
 293:lvgl\src\lv_core/lv_style.c ****         if(local) {
 294:lvgl\src\lv_core/lv_style.c ****             lv_style_reset(local);
 295:lvgl\src\lv_core/lv_style.c ****             lv_mem_free(local);
 296:lvgl\src\lv_core/lv_style.c ****         }
 297:lvgl\src\lv_core/lv_style.c ****     }
 298:lvgl\src\lv_core/lv_style.c **** 
 299:lvgl\src\lv_core/lv_style.c ****     if(list->has_trans) {
 300:lvgl\src\lv_core/lv_style.c ****         lv_style_t * trans = _lv_style_list_get_transition_style(list);
 301:lvgl\src\lv_core/lv_style.c ****         if(trans) {
 302:lvgl\src\lv_core/lv_style.c ****             lv_style_reset(trans);
 303:lvgl\src\lv_core/lv_style.c ****             lv_mem_free(trans);
 304:lvgl\src\lv_core/lv_style.c ****         }
 305:lvgl\src\lv_core/lv_style.c ****     }
 306:lvgl\src\lv_core/lv_style.c **** 
 307:lvgl\src\lv_core/lv_style.c ****     if(list->style_cnt > 0) lv_mem_free(list->style_list);
 308:lvgl\src\lv_core/lv_style.c ****     list->style_list = NULL;
 309:lvgl\src\lv_core/lv_style.c ****     list->style_cnt = 0;
 310:lvgl\src\lv_core/lv_style.c ****     list->has_local = 0;
 311:lvgl\src\lv_core/lv_style.c ****     list->has_trans = 0;
 312:lvgl\src\lv_core/lv_style.c ****     list->skip_trans = 0;
 313:lvgl\src\lv_core/lv_style.c **** 
 314:lvgl\src\lv_core/lv_style.c ****     /* Intentionally leave `ignore_trans` as it is,
 315:lvgl\src\lv_core/lv_style.c ****      * because it's independent from the styles in the list*/
 316:lvgl\src\lv_core/lv_style.c **** }
 317:lvgl\src\lv_core/lv_style.c **** 
 318:lvgl\src\lv_core/lv_style.c **** /**
 319:lvgl\src\lv_core/lv_style.c ****  * Clear all properties from a style and all allocated memories.
 320:lvgl\src\lv_core/lv_style.c ****  * @param style pointer to a style
 321:lvgl\src\lv_core/lv_style.c ****  */
 322:lvgl\src\lv_core/lv_style.c **** void lv_style_reset(lv_style_t * style)
 323:lvgl\src\lv_core/lv_style.c **** {
 324:lvgl\src\lv_core/lv_style.c ****     LV_ASSERT_STYLE(style);
 325:lvgl\src\lv_core/lv_style.c **** 
 326:lvgl\src\lv_core/lv_style.c ****     lv_mem_free(style->map);
 327:lvgl\src\lv_core/lv_style.c ****     style->map = NULL;
 328:lvgl\src\lv_core/lv_style.c **** }
 329:lvgl\src\lv_core/lv_style.c **** 
 330:lvgl\src\lv_core/lv_style.c **** /**
 331:lvgl\src\lv_core/lv_style.c ****  * Get the size of the properties in a style in bytes
 332:lvgl\src\lv_core/lv_style.c ****  * @param style pointer to a style
 333:lvgl\src\lv_core/lv_style.c ****  * @return size of the properties in bytes
 334:lvgl\src\lv_core/lv_style.c ****  */
 335:lvgl\src\lv_core/lv_style.c **** uint16_t _lv_style_get_mem_size(const lv_style_t * style)
 336:lvgl\src\lv_core/lv_style.c **** {
 337:lvgl\src\lv_core/lv_style.c ****     LV_ASSERT_STYLE(style);
 338:lvgl\src\lv_core/lv_style.c **** 
 339:lvgl\src\lv_core/lv_style.c ****     if(style->map == NULL) return 0;
 340:lvgl\src\lv_core/lv_style.c **** 
 341:lvgl\src\lv_core/lv_style.c ****     size_t i = 0;
 342:lvgl\src\lv_core/lv_style.c ****     uint8_t prop_id;
 343:lvgl\src\lv_core/lv_style.c ****     while((prop_id = get_style_prop_id(style, i)) != _LV_STYLE_CLOSEING_PROP) {
 344:lvgl\src\lv_core/lv_style.c ****         i = get_next_prop_index(prop_id, i);
 345:lvgl\src\lv_core/lv_style.c ****     }
ARM GAS  C:\Users\strap\AppData\Local\Temp\cc7bAV43.s 			page 14


 346:lvgl\src\lv_core/lv_style.c **** 
 347:lvgl\src\lv_core/lv_style.c ****     return i + sizeof(lv_style_property_t);
 348:lvgl\src\lv_core/lv_style.c **** }
 349:lvgl\src\lv_core/lv_style.c **** 
 350:lvgl\src\lv_core/lv_style.c **** /**
 351:lvgl\src\lv_core/lv_style.c ****  * Set an integer typed property in a style.
 352:lvgl\src\lv_core/lv_style.c ****  * @param style pointer to a style where the property should be set
 353:lvgl\src\lv_core/lv_style.c ****  * @param prop a style property ORed with a state.
 354:lvgl\src\lv_core/lv_style.c ****  * E.g. `LV_STYLE_BORDER_WIDTH | (LV_STATE_PRESSED << LV_STYLE_STATE_POS)`
 355:lvgl\src\lv_core/lv_style.c ****  * @param value the value to set
 356:lvgl\src\lv_core/lv_style.c ****  * @note shouldn't be used directly. Use the specific property set functions instead.
 357:lvgl\src\lv_core/lv_style.c ****  *       For example: `lv_style_set_border_width()`
 358:lvgl\src\lv_core/lv_style.c ****  * @note for performance reasons it's not checked if the property really has integer type
 359:lvgl\src\lv_core/lv_style.c ****  */
 360:lvgl\src\lv_core/lv_style.c **** void _lv_style_set_int(lv_style_t * style, lv_style_property_t prop, lv_style_int_t value)
 361:lvgl\src\lv_core/lv_style.c **** {
 362:lvgl\src\lv_core/lv_style.c ****     LV_ASSERT_STYLE(style);
 363:lvgl\src\lv_core/lv_style.c **** 
 364:lvgl\src\lv_core/lv_style.c ****     int32_t id = get_property_index(style, prop);
 365:lvgl\src\lv_core/lv_style.c ****     /*The property already exists but not sure it's state is the same*/
 366:lvgl\src\lv_core/lv_style.c ****     if(id >= 0) {
 367:lvgl\src\lv_core/lv_style.c ****         lv_style_attr_t attr_found;
 368:lvgl\src\lv_core/lv_style.c ****         lv_style_attr_t attr_goal;
 369:lvgl\src\lv_core/lv_style.c **** 
 370:lvgl\src\lv_core/lv_style.c ****         attr_found = get_style_prop_attr(style, id);
 371:lvgl\src\lv_core/lv_style.c ****         attr_goal = (prop >> 8) & 0xFFU;
 372:lvgl\src\lv_core/lv_style.c **** 
 373:lvgl\src\lv_core/lv_style.c ****         if(LV_STYLE_ATTR_GET_STATE(attr_found) == LV_STYLE_ATTR_GET_STATE(attr_goal)) {
 374:lvgl\src\lv_core/lv_style.c ****             _lv_memcpy_small(style->map + id + sizeof(lv_style_property_t), &value, sizeof(lv_style
 375:lvgl\src\lv_core/lv_style.c ****             return;
 376:lvgl\src\lv_core/lv_style.c ****         }
 377:lvgl\src\lv_core/lv_style.c ****     }
 378:lvgl\src\lv_core/lv_style.c **** 
 379:lvgl\src\lv_core/lv_style.c ****     /*Add new property if not exists yet*/
 380:lvgl\src\lv_core/lv_style.c ****     uint8_t new_prop_size = (sizeof(lv_style_property_t) + sizeof(lv_style_int_t));
 381:lvgl\src\lv_core/lv_style.c ****     lv_style_property_t end_mark = _LV_STYLE_CLOSEING_PROP;
 382:lvgl\src\lv_core/lv_style.c ****     uint8_t end_mark_size = sizeof(end_mark);
 383:lvgl\src\lv_core/lv_style.c **** 
 384:lvgl\src\lv_core/lv_style.c ****     uint16_t size = _lv_style_get_mem_size(style);
 385:lvgl\src\lv_core/lv_style.c ****     if(size == 0) size += end_mark_size;
 386:lvgl\src\lv_core/lv_style.c ****     size += sizeof(lv_style_property_t) + sizeof(lv_style_int_t);
 387:lvgl\src\lv_core/lv_style.c ****     style_resize(style, size);
 388:lvgl\src\lv_core/lv_style.c ****     LV_ASSERT_MEM(style->map);
 389:lvgl\src\lv_core/lv_style.c ****     if(style == NULL) return;
 390:lvgl\src\lv_core/lv_style.c **** 
 391:lvgl\src\lv_core/lv_style.c ****     _lv_memcpy_small(style->map + size - new_prop_size - end_mark_size, &prop, sizeof(lv_style_prop
 392:lvgl\src\lv_core/lv_style.c ****     _lv_memcpy_small(style->map + size - sizeof(lv_style_int_t) - end_mark_size, &value, sizeof(lv_
 393:lvgl\src\lv_core/lv_style.c ****     _lv_memcpy_small(style->map + size - end_mark_size, &end_mark, sizeof(end_mark));
 394:lvgl\src\lv_core/lv_style.c **** }
 395:lvgl\src\lv_core/lv_style.c **** 
 396:lvgl\src\lv_core/lv_style.c **** /**
 397:lvgl\src\lv_core/lv_style.c ****  * Set a color typed property in a style.
 398:lvgl\src\lv_core/lv_style.c ****  * @param style pointer to a style where the property should be set
 399:lvgl\src\lv_core/lv_style.c ****  * @param prop a style property ORed with a state.
 400:lvgl\src\lv_core/lv_style.c ****  * E.g. `LV_STYLE_BORDER_COLOR | (LV_STATE_PRESSED << LV_STYLE_STATE_POS)`
 401:lvgl\src\lv_core/lv_style.c ****  * @param value the value to set
 402:lvgl\src\lv_core/lv_style.c ****  * @note shouldn't be used directly. Use the specific property set functions instead.
ARM GAS  C:\Users\strap\AppData\Local\Temp\cc7bAV43.s 			page 15


 403:lvgl\src\lv_core/lv_style.c ****  *       For example: `lv_style_set_border_color()`
 404:lvgl\src\lv_core/lv_style.c ****  * @note for performance reasons it's not checked if the property really has color type
 405:lvgl\src\lv_core/lv_style.c ****  */
 406:lvgl\src\lv_core/lv_style.c **** void _lv_style_set_color(lv_style_t * style, lv_style_property_t prop, lv_color_t color)
 407:lvgl\src\lv_core/lv_style.c **** {
 408:lvgl\src\lv_core/lv_style.c ****     LV_ASSERT_STYLE(style);
 409:lvgl\src\lv_core/lv_style.c **** 
 410:lvgl\src\lv_core/lv_style.c ****     int32_t id = get_property_index(style, prop);
 411:lvgl\src\lv_core/lv_style.c ****     /*The property already exists but not sure it's state is the same*/
 412:lvgl\src\lv_core/lv_style.c ****     if(id >= 0) {
 413:lvgl\src\lv_core/lv_style.c ****         lv_style_attr_t attr_found;
 414:lvgl\src\lv_core/lv_style.c ****         lv_style_attr_t attr_goal;
 415:lvgl\src\lv_core/lv_style.c **** 
 416:lvgl\src\lv_core/lv_style.c ****         attr_found = get_style_prop_attr(style, id);
 417:lvgl\src\lv_core/lv_style.c ****         attr_goal = (prop >> 8) & 0xFFU;
 418:lvgl\src\lv_core/lv_style.c **** 
 419:lvgl\src\lv_core/lv_style.c ****         if(LV_STYLE_ATTR_GET_STATE(attr_found) == LV_STYLE_ATTR_GET_STATE(attr_goal)) {
 420:lvgl\src\lv_core/lv_style.c ****             _lv_memcpy_small(style->map + id + sizeof(lv_style_property_t), &color, sizeof(lv_color
 421:lvgl\src\lv_core/lv_style.c ****             return;
 422:lvgl\src\lv_core/lv_style.c ****         }
 423:lvgl\src\lv_core/lv_style.c ****     }
 424:lvgl\src\lv_core/lv_style.c **** 
 425:lvgl\src\lv_core/lv_style.c ****     /*Add new property if not exists yet*/
 426:lvgl\src\lv_core/lv_style.c ****     uint8_t new_prop_size = (sizeof(lv_style_property_t) + sizeof(lv_color_t));
 427:lvgl\src\lv_core/lv_style.c ****     lv_style_property_t end_mark = _LV_STYLE_CLOSEING_PROP;
 428:lvgl\src\lv_core/lv_style.c ****     uint8_t end_mark_size = sizeof(end_mark);
 429:lvgl\src\lv_core/lv_style.c **** 
 430:lvgl\src\lv_core/lv_style.c ****     uint16_t size = _lv_style_get_mem_size(style);
 431:lvgl\src\lv_core/lv_style.c ****     if(size == 0) size += end_mark_size;
 432:lvgl\src\lv_core/lv_style.c **** 
 433:lvgl\src\lv_core/lv_style.c ****     size += sizeof(lv_style_property_t) + sizeof(lv_color_t);
 434:lvgl\src\lv_core/lv_style.c ****     style_resize(style, size);
 435:lvgl\src\lv_core/lv_style.c ****     LV_ASSERT_MEM(style->map);
 436:lvgl\src\lv_core/lv_style.c ****     if(style == NULL) return;
 437:lvgl\src\lv_core/lv_style.c **** 
 438:lvgl\src\lv_core/lv_style.c ****     _lv_memcpy_small(style->map + size - new_prop_size - end_mark_size, &prop, sizeof(lv_style_prop
 439:lvgl\src\lv_core/lv_style.c ****     _lv_memcpy_small(style->map + size - sizeof(lv_color_t) - end_mark_size, &color, sizeof(lv_colo
 440:lvgl\src\lv_core/lv_style.c ****     _lv_memcpy_small(style->map + size - end_mark_size, &end_mark, sizeof(end_mark));
 441:lvgl\src\lv_core/lv_style.c **** }
 442:lvgl\src\lv_core/lv_style.c **** 
 443:lvgl\src\lv_core/lv_style.c **** /**
 444:lvgl\src\lv_core/lv_style.c ****  * Set an opacity typed property in a style.
 445:lvgl\src\lv_core/lv_style.c ****  * @param style pointer to a style where the property should be set
 446:lvgl\src\lv_core/lv_style.c ****  * @param prop a style property ORed with a state.
 447:lvgl\src\lv_core/lv_style.c ****  * E.g. `LV_STYLE_BORDER_OPA | (LV_STATE_PRESSED << LV_STYLE_STATE_POS)`
 448:lvgl\src\lv_core/lv_style.c ****  * @param value the value to set
 449:lvgl\src\lv_core/lv_style.c ****  * @note shouldn't be used directly. Use the specific property set functions instead.
 450:lvgl\src\lv_core/lv_style.c ****  *       For example: `lv_style_set_border_opa()`
 451:lvgl\src\lv_core/lv_style.c ****  * @note for performance reasons it's not checked if the property really has opacity type
 452:lvgl\src\lv_core/lv_style.c ****  */
 453:lvgl\src\lv_core/lv_style.c **** void _lv_style_set_opa(lv_style_t * style, lv_style_property_t prop, lv_opa_t opa)
 454:lvgl\src\lv_core/lv_style.c **** {
 455:lvgl\src\lv_core/lv_style.c ****     LV_ASSERT_STYLE(style);
 456:lvgl\src\lv_core/lv_style.c **** 
 457:lvgl\src\lv_core/lv_style.c ****     int32_t id = get_property_index(style, prop);
 458:lvgl\src\lv_core/lv_style.c ****     /*The property already exists but not sure it's state is the same*/
 459:lvgl\src\lv_core/lv_style.c ****     if(id >= 0) {
ARM GAS  C:\Users\strap\AppData\Local\Temp\cc7bAV43.s 			page 16


 460:lvgl\src\lv_core/lv_style.c ****         lv_style_attr_t attr_found;
 461:lvgl\src\lv_core/lv_style.c ****         lv_style_attr_t attr_goal;
 462:lvgl\src\lv_core/lv_style.c **** 
 463:lvgl\src\lv_core/lv_style.c ****         attr_found = get_style_prop_attr(style, id);
 464:lvgl\src\lv_core/lv_style.c ****         attr_goal = (prop >> 8) & 0xFFU;
 465:lvgl\src\lv_core/lv_style.c **** 
 466:lvgl\src\lv_core/lv_style.c ****         if(LV_STYLE_ATTR_GET_STATE(attr_found) == LV_STYLE_ATTR_GET_STATE(attr_goal)) {
 467:lvgl\src\lv_core/lv_style.c ****             _lv_memcpy_small(style->map + id + sizeof(lv_style_property_t), &opa, sizeof(lv_opa_t))
 468:lvgl\src\lv_core/lv_style.c ****             return;
 469:lvgl\src\lv_core/lv_style.c ****         }
 470:lvgl\src\lv_core/lv_style.c ****     }
 471:lvgl\src\lv_core/lv_style.c **** 
 472:lvgl\src\lv_core/lv_style.c ****     /*Add new property if not exists yet*/
 473:lvgl\src\lv_core/lv_style.c ****     uint8_t new_prop_size = (sizeof(lv_style_property_t) + sizeof(lv_opa_t));
 474:lvgl\src\lv_core/lv_style.c ****     lv_style_property_t end_mark = _LV_STYLE_CLOSEING_PROP;
 475:lvgl\src\lv_core/lv_style.c ****     uint8_t end_mark_size = sizeof(end_mark);
 476:lvgl\src\lv_core/lv_style.c **** 
 477:lvgl\src\lv_core/lv_style.c ****     uint16_t size = _lv_style_get_mem_size(style);
 478:lvgl\src\lv_core/lv_style.c ****     if(size == 0) size += end_mark_size;
 479:lvgl\src\lv_core/lv_style.c **** 
 480:lvgl\src\lv_core/lv_style.c ****     size += sizeof(lv_style_property_t) + sizeof(lv_opa_t);
 481:lvgl\src\lv_core/lv_style.c ****     style_resize(style, size);
 482:lvgl\src\lv_core/lv_style.c ****     LV_ASSERT_MEM(style->map);
 483:lvgl\src\lv_core/lv_style.c ****     if(style == NULL) return;
 484:lvgl\src\lv_core/lv_style.c **** 
 485:lvgl\src\lv_core/lv_style.c ****     _lv_memcpy_small(style->map + size - new_prop_size - end_mark_size, &prop, sizeof(lv_style_prop
 486:lvgl\src\lv_core/lv_style.c ****     _lv_memcpy_small(style->map + size - sizeof(lv_opa_t) - end_mark_size, &opa, sizeof(lv_opa_t));
 487:lvgl\src\lv_core/lv_style.c ****     _lv_memcpy_small(style->map + size - end_mark_size, &end_mark, sizeof(end_mark));
 488:lvgl\src\lv_core/lv_style.c **** }
 489:lvgl\src\lv_core/lv_style.c **** 
 490:lvgl\src\lv_core/lv_style.c **** /**
 491:lvgl\src\lv_core/lv_style.c ****  * Set a pointer typed property in a style.
 492:lvgl\src\lv_core/lv_style.c ****  * @param style pointer to a style where the property should be set
 493:lvgl\src\lv_core/lv_style.c ****  * @param prop a style property ORed with a state.
 494:lvgl\src\lv_core/lv_style.c ****  * E.g. `LV_STYLE_TEXT_POINTER | (LV_STATE_PRESSED << LV_STYLE_STATE_POS)`
 495:lvgl\src\lv_core/lv_style.c ****  * @param value the value to set
 496:lvgl\src\lv_core/lv_style.c ****  * @note shouldn't be used directly. Use the specific property set functions instead.
 497:lvgl\src\lv_core/lv_style.c ****  *       For example: `lv_style_set_border_width()`
 498:lvgl\src\lv_core/lv_style.c ****  * @note for performance reasons it's not checked if the property is really has pointer type
 499:lvgl\src\lv_core/lv_style.c ****  */
 500:lvgl\src\lv_core/lv_style.c **** void _lv_style_set_ptr(lv_style_t * style, lv_style_property_t prop, const void * p)
 501:lvgl\src\lv_core/lv_style.c **** {
 502:lvgl\src\lv_core/lv_style.c ****     LV_ASSERT_STYLE(style);
 503:lvgl\src\lv_core/lv_style.c **** 
 504:lvgl\src\lv_core/lv_style.c ****     int32_t id = get_property_index(style, prop);
 505:lvgl\src\lv_core/lv_style.c ****     /*The property already exists but not sure it's state is the same*/
 506:lvgl\src\lv_core/lv_style.c ****     if(id >= 0) {
 507:lvgl\src\lv_core/lv_style.c ****         lv_style_attr_t attr_found;
 508:lvgl\src\lv_core/lv_style.c ****         lv_style_attr_t attr_goal;
 509:lvgl\src\lv_core/lv_style.c **** 
 510:lvgl\src\lv_core/lv_style.c ****         attr_found = get_style_prop_attr(style, id);
 511:lvgl\src\lv_core/lv_style.c ****         attr_goal = (prop >> 8) & 0xFFU;
 512:lvgl\src\lv_core/lv_style.c **** 
 513:lvgl\src\lv_core/lv_style.c ****         if(LV_STYLE_ATTR_GET_STATE(attr_found) == LV_STYLE_ATTR_GET_STATE(attr_goal)) {
 514:lvgl\src\lv_core/lv_style.c ****             _lv_memcpy_small(style->map + id + sizeof(lv_style_property_t), &p, sizeof(const void *
 515:lvgl\src\lv_core/lv_style.c ****             return;
 516:lvgl\src\lv_core/lv_style.c ****         }
ARM GAS  C:\Users\strap\AppData\Local\Temp\cc7bAV43.s 			page 17


 517:lvgl\src\lv_core/lv_style.c ****     }
 518:lvgl\src\lv_core/lv_style.c **** 
 519:lvgl\src\lv_core/lv_style.c ****     /*Add new property if not exists yet*/
 520:lvgl\src\lv_core/lv_style.c ****     uint8_t new_prop_size = (sizeof(lv_style_property_t) + sizeof(const void *));
 521:lvgl\src\lv_core/lv_style.c ****     lv_style_property_t end_mark = _LV_STYLE_CLOSEING_PROP;
 522:lvgl\src\lv_core/lv_style.c ****     uint8_t end_mark_size = sizeof(end_mark);
 523:lvgl\src\lv_core/lv_style.c **** 
 524:lvgl\src\lv_core/lv_style.c ****     uint16_t size = _lv_style_get_mem_size(style);
 525:lvgl\src\lv_core/lv_style.c ****     if(size == 0) size += end_mark_size;
 526:lvgl\src\lv_core/lv_style.c **** 
 527:lvgl\src\lv_core/lv_style.c ****     size += sizeof(lv_style_property_t) + sizeof(const void *);
 528:lvgl\src\lv_core/lv_style.c ****     style_resize(style, size);
 529:lvgl\src\lv_core/lv_style.c ****     LV_ASSERT_MEM(style->map);
 530:lvgl\src\lv_core/lv_style.c ****     if(style == NULL) return;
 531:lvgl\src\lv_core/lv_style.c **** 
 532:lvgl\src\lv_core/lv_style.c ****     _lv_memcpy_small(style->map + size - new_prop_size - end_mark_size, &prop, sizeof(lv_style_prop
 533:lvgl\src\lv_core/lv_style.c ****     _lv_memcpy_small(style->map + size - sizeof(const void *) - end_mark_size, &p, sizeof(const voi
 534:lvgl\src\lv_core/lv_style.c ****     _lv_memcpy_small(style->map + size - end_mark_size, &end_mark, sizeof(end_mark));
 535:lvgl\src\lv_core/lv_style.c **** }
 536:lvgl\src\lv_core/lv_style.c **** 
 537:lvgl\src\lv_core/lv_style.c **** /**
 538:lvgl\src\lv_core/lv_style.c ****  * Get the a property from a style.
 539:lvgl\src\lv_core/lv_style.c ****  * Take into account the style state and return the property which matches the best.
 540:lvgl\src\lv_core/lv_style.c ****  * @param style pointer to a style where to search
 541:lvgl\src\lv_core/lv_style.c ****  * @param prop the property, might contain ORed style states too
 542:lvgl\src\lv_core/lv_style.c ****  * @param res buffer to store the result
 543:lvgl\src\lv_core/lv_style.c ****  * @return the weight of the found property (how well it fits to the style state).
 544:lvgl\src\lv_core/lv_style.c ****  *         Higher number is means better fit
 545:lvgl\src\lv_core/lv_style.c ****  *         -1 if the not found (`res` will be undefined)
 546:lvgl\src\lv_core/lv_style.c ****  */
 547:lvgl\src\lv_core/lv_style.c **** int16_t _lv_style_get_int(const lv_style_t * style, lv_style_property_t prop, void * v_res)
 548:lvgl\src\lv_core/lv_style.c **** {
 549:lvgl\src\lv_core/lv_style.c ****     lv_style_int_t * res = (lv_style_int_t *)v_res;
 550:lvgl\src\lv_core/lv_style.c ****     LV_ASSERT_STYLE(style);
 551:lvgl\src\lv_core/lv_style.c **** 
 552:lvgl\src\lv_core/lv_style.c ****     if(style == NULL) return -1;
 553:lvgl\src\lv_core/lv_style.c ****     if(style->map == NULL) return -1;
 554:lvgl\src\lv_core/lv_style.c **** 
 555:lvgl\src\lv_core/lv_style.c ****     int32_t id = get_property_index(style, prop);
 556:lvgl\src\lv_core/lv_style.c ****     if(id < 0) {
 557:lvgl\src\lv_core/lv_style.c ****         return -1;
 558:lvgl\src\lv_core/lv_style.c ****     }
 559:lvgl\src\lv_core/lv_style.c ****     else {
 560:lvgl\src\lv_core/lv_style.c ****         _lv_memcpy_small(res, &style->map[id + sizeof(lv_style_property_t)], sizeof(lv_style_int_t)
 561:lvgl\src\lv_core/lv_style.c ****         lv_style_attr_t attr_act;
 562:lvgl\src\lv_core/lv_style.c ****         attr_act = get_style_prop_attr(style, id);
 563:lvgl\src\lv_core/lv_style.c **** 
 564:lvgl\src\lv_core/lv_style.c ****         lv_style_attr_t attr_goal;
 565:lvgl\src\lv_core/lv_style.c ****         attr_goal = (prop >> 8) & 0xFF;
 566:lvgl\src\lv_core/lv_style.c **** 
 567:lvgl\src\lv_core/lv_style.c ****         return LV_STYLE_ATTR_GET_STATE(attr_act) & LV_STYLE_ATTR_GET_STATE(attr_goal);
 568:lvgl\src\lv_core/lv_style.c ****     }
 569:lvgl\src\lv_core/lv_style.c **** }
 570:lvgl\src\lv_core/lv_style.c **** 
 571:lvgl\src\lv_core/lv_style.c **** /**
 572:lvgl\src\lv_core/lv_style.c ****  * Get an opacity typed property from a style.
 573:lvgl\src\lv_core/lv_style.c ****  * @param style pointer to a style from where the property should be get
ARM GAS  C:\Users\strap\AppData\Local\Temp\cc7bAV43.s 			page 18


 574:lvgl\src\lv_core/lv_style.c ****  * @param prop a style property ORed with a state.
 575:lvgl\src\lv_core/lv_style.c ****  * E.g. `LV_STYLE_BORDER_OPA | (LV_STATE_PRESSED << LV_STYLE_STATE_POS)`
 576:lvgl\src\lv_core/lv_style.c ****  * @param res pointer to a buffer to store the result value
 577:lvgl\src\lv_core/lv_style.c ****  * @return -1: the property wasn't found in the style.
 578:lvgl\src\lv_core/lv_style.c ****  *         The matching state bits of the desired state (in `prop`) and the best matching property'
 579:lvgl\src\lv_core/lv_style.c ****  *         Higher value means match in higher precedence state.
 580:lvgl\src\lv_core/lv_style.c ****  * @note shouldn't be used directly. Use the specific property get functions instead.
 581:lvgl\src\lv_core/lv_style.c ****  *       For example: `lv_style_get_border_opa()`
 582:lvgl\src\lv_core/lv_style.c ****  * @note for performance reasons it's not checked if the property really has opacity type
 583:lvgl\src\lv_core/lv_style.c ****  */
 584:lvgl\src\lv_core/lv_style.c **** int16_t _lv_style_get_opa(const lv_style_t * style, lv_style_property_t prop, void * v_res)
 585:lvgl\src\lv_core/lv_style.c **** {
 586:lvgl\src\lv_core/lv_style.c ****     lv_opa_t * res = (lv_opa_t *)v_res;
 587:lvgl\src\lv_core/lv_style.c ****     LV_ASSERT_STYLE(style);
 588:lvgl\src\lv_core/lv_style.c **** 
 589:lvgl\src\lv_core/lv_style.c ****     if(style == NULL) return -1;
 590:lvgl\src\lv_core/lv_style.c ****     if(style->map == NULL) return -1;
 591:lvgl\src\lv_core/lv_style.c **** 
 592:lvgl\src\lv_core/lv_style.c ****     int32_t id = get_property_index(style, prop);
 593:lvgl\src\lv_core/lv_style.c ****     if(id < 0) {
 594:lvgl\src\lv_core/lv_style.c ****         return -1;
 595:lvgl\src\lv_core/lv_style.c ****     }
 596:lvgl\src\lv_core/lv_style.c ****     else {
 597:lvgl\src\lv_core/lv_style.c ****         _lv_memcpy_small(res, &style->map[id + sizeof(lv_style_property_t)], sizeof(lv_opa_t));
 598:lvgl\src\lv_core/lv_style.c ****         lv_style_attr_t attr_act;
 599:lvgl\src\lv_core/lv_style.c ****         attr_act = get_style_prop_attr(style, id);
 600:lvgl\src\lv_core/lv_style.c **** 
 601:lvgl\src\lv_core/lv_style.c ****         lv_style_attr_t attr_goal;
 602:lvgl\src\lv_core/lv_style.c ****         attr_goal = (prop >> 8) & 0xFF;
 603:lvgl\src\lv_core/lv_style.c **** 
 604:lvgl\src\lv_core/lv_style.c ****         return LV_STYLE_ATTR_GET_STATE(attr_act) & LV_STYLE_ATTR_GET_STATE(attr_goal);
 605:lvgl\src\lv_core/lv_style.c ****     }
 606:lvgl\src\lv_core/lv_style.c **** }
 607:lvgl\src\lv_core/lv_style.c **** 
 608:lvgl\src\lv_core/lv_style.c **** /**
 609:lvgl\src\lv_core/lv_style.c ****  * Get a color typed property from a style.
 610:lvgl\src\lv_core/lv_style.c ****  * @param style pointer to a style from where the property should be get
 611:lvgl\src\lv_core/lv_style.c ****  * @param prop a style property ORed with a state.
 612:lvgl\src\lv_core/lv_style.c ****  * E.g. `LV_STYLE_BORDER_COLOR | (LV_STATE_PRESSED << LV_STYLE_STATE_POS)`
 613:lvgl\src\lv_core/lv_style.c ****  * @param res pointer to a buffer to store the result value
 614:lvgl\src\lv_core/lv_style.c ****  * @return -1: the property wasn't found in the style.
 615:lvgl\src\lv_core/lv_style.c ****  *         The matching state bits of the desired state (in `prop`) and the best matching property'
 616:lvgl\src\lv_core/lv_style.c ****  *         Higher value means match in higher precedence state.
 617:lvgl\src\lv_core/lv_style.c ****  * @note shouldn't be used directly. Use the specific property get functions instead.
 618:lvgl\src\lv_core/lv_style.c ****  *       For example: `lv_style_get_border_color()`
 619:lvgl\src\lv_core/lv_style.c ****  * @note for performance reasons it's not checked if the property really has color type
 620:lvgl\src\lv_core/lv_style.c ****  */
 621:lvgl\src\lv_core/lv_style.c **** int16_t _lv_style_get_color(const lv_style_t * style, lv_style_property_t prop, void * v_res)
 622:lvgl\src\lv_core/lv_style.c **** {
 623:lvgl\src\lv_core/lv_style.c ****     lv_color_t * res = (lv_color_t *)v_res;
 624:lvgl\src\lv_core/lv_style.c ****     if(style == NULL) return -1;
 625:lvgl\src\lv_core/lv_style.c ****     if(style->map == NULL) return -1;
 626:lvgl\src\lv_core/lv_style.c ****     int32_t id = get_property_index(style, prop);
 627:lvgl\src\lv_core/lv_style.c ****     if(id < 0) {
 628:lvgl\src\lv_core/lv_style.c ****         return -1;
 629:lvgl\src\lv_core/lv_style.c ****     }
 630:lvgl\src\lv_core/lv_style.c ****     else {
ARM GAS  C:\Users\strap\AppData\Local\Temp\cc7bAV43.s 			page 19


 631:lvgl\src\lv_core/lv_style.c ****         _lv_memcpy_small(res, &style->map[id + sizeof(lv_style_property_t)], sizeof(lv_color_t));
 632:lvgl\src\lv_core/lv_style.c ****         lv_style_attr_t attr_act;
 633:lvgl\src\lv_core/lv_style.c ****         attr_act = get_style_prop_attr(style, id);
 634:lvgl\src\lv_core/lv_style.c **** 
 635:lvgl\src\lv_core/lv_style.c ****         lv_style_attr_t attr_goal;
 636:lvgl\src\lv_core/lv_style.c ****         attr_goal = (prop >> 8) & 0xFF;
 637:lvgl\src\lv_core/lv_style.c **** 
 638:lvgl\src\lv_core/lv_style.c ****         return LV_STYLE_ATTR_GET_STATE(attr_act) & LV_STYLE_ATTR_GET_STATE(attr_goal);
 639:lvgl\src\lv_core/lv_style.c ****     }
 640:lvgl\src\lv_core/lv_style.c **** }
 641:lvgl\src\lv_core/lv_style.c **** 
 642:lvgl\src\lv_core/lv_style.c **** /**
 643:lvgl\src\lv_core/lv_style.c ****  * Get a pointer typed property from a style.
 644:lvgl\src\lv_core/lv_style.c ****  * @param style pointer to a style from where the property should be get
 645:lvgl\src\lv_core/lv_style.c ****  * @param prop a style property ORed with a state.
 646:lvgl\src\lv_core/lv_style.c ****  * E.g. `LV_STYLE_TEXT_FONT | (LV_STATE_PRESSED << LV_STYLE_STATE_POS)`
 647:lvgl\src\lv_core/lv_style.c ****  * @param res pointer to a buffer to store the result value
 648:lvgl\src\lv_core/lv_style.c ****  * @return -1: the property wasn't found in the style.
 649:lvgl\src\lv_core/lv_style.c ****  *         The matching state bits of the desired state (in `prop`) and the best matching property'
 650:lvgl\src\lv_core/lv_style.c ****  *         Higher value means match in higher precedence state.
 651:lvgl\src\lv_core/lv_style.c ****  * @note shouldn't be used directly. Use the specific property get functions instead.
 652:lvgl\src\lv_core/lv_style.c ****  *       For example: `lv_style_get_text_font()`
 653:lvgl\src\lv_core/lv_style.c ****  * @note for performance reasons it's not checked if the property really has pointer type
 654:lvgl\src\lv_core/lv_style.c ****  */
 655:lvgl\src\lv_core/lv_style.c **** int16_t _lv_style_get_ptr(const lv_style_t * style, lv_style_property_t prop, void * v_res)
 656:lvgl\src\lv_core/lv_style.c **** {
 657:lvgl\src\lv_core/lv_style.c ****     const void ** res = (const void **)v_res;
 658:lvgl\src\lv_core/lv_style.c ****     if(style == NULL) return -1;
 659:lvgl\src\lv_core/lv_style.c ****     if(style->map == NULL) return -1;
 660:lvgl\src\lv_core/lv_style.c **** 
 661:lvgl\src\lv_core/lv_style.c ****     int32_t id = get_property_index(style, prop);
 662:lvgl\src\lv_core/lv_style.c ****     if(id < 0) {
 663:lvgl\src\lv_core/lv_style.c ****         return -1;
 664:lvgl\src\lv_core/lv_style.c ****     }
 665:lvgl\src\lv_core/lv_style.c ****     else {
 666:lvgl\src\lv_core/lv_style.c ****         _lv_memcpy_small(res, &style->map[id + sizeof(lv_style_property_t)], sizeof(const void *));
 667:lvgl\src\lv_core/lv_style.c ****         lv_style_attr_t attr_act;
 668:lvgl\src\lv_core/lv_style.c ****         attr_act = get_style_prop_attr(style, id);
 669:lvgl\src\lv_core/lv_style.c **** 
 670:lvgl\src\lv_core/lv_style.c ****         lv_style_attr_t attr_goal;
 671:lvgl\src\lv_core/lv_style.c ****         attr_goal = (prop >> 8) & 0xFF;
 672:lvgl\src\lv_core/lv_style.c **** 
 673:lvgl\src\lv_core/lv_style.c ****         return LV_STYLE_ATTR_GET_STATE(attr_act) & LV_STYLE_ATTR_GET_STATE(attr_goal);
 674:lvgl\src\lv_core/lv_style.c ****     }
 675:lvgl\src\lv_core/lv_style.c **** }
 676:lvgl\src\lv_core/lv_style.c **** 
 677:lvgl\src\lv_core/lv_style.c **** /**
 678:lvgl\src\lv_core/lv_style.c ****  * Get the local style of a style list
 679:lvgl\src\lv_core/lv_style.c ****  * @param list pointer to a style list where the local property should be set
 680:lvgl\src\lv_core/lv_style.c ****  * @return pointer to the local style if exists else `NULL`.
 681:lvgl\src\lv_core/lv_style.c ****  */
 682:lvgl\src\lv_core/lv_style.c **** lv_style_t * lv_style_list_get_local_style(lv_style_list_t * list)
 683:lvgl\src\lv_core/lv_style.c **** {
 684:lvgl\src\lv_core/lv_style.c ****     LV_ASSERT_STYLE_LIST(list);
 685:lvgl\src\lv_core/lv_style.c **** 
 686:lvgl\src\lv_core/lv_style.c ****     if(!list->has_local) return NULL;
 687:lvgl\src\lv_core/lv_style.c ****     if(list->has_trans) return list->style_list[1];
ARM GAS  C:\Users\strap\AppData\Local\Temp\cc7bAV43.s 			page 20


 688:lvgl\src\lv_core/lv_style.c ****     else return list->style_list[0];
 689:lvgl\src\lv_core/lv_style.c **** }
 690:lvgl\src\lv_core/lv_style.c **** 
 691:lvgl\src\lv_core/lv_style.c **** /**
 692:lvgl\src\lv_core/lv_style.c ****  * Get the transition style of a style list
 693:lvgl\src\lv_core/lv_style.c ****  * @param list pointer to a style list where the local property should be set
 694:lvgl\src\lv_core/lv_style.c ****  * @return pointer to the transition style if exists else `NULL`.
 695:lvgl\src\lv_core/lv_style.c ****  */
 696:lvgl\src\lv_core/lv_style.c **** lv_style_t * _lv_style_list_get_transition_style(lv_style_list_t * list)
 697:lvgl\src\lv_core/lv_style.c **** {
 698:lvgl\src\lv_core/lv_style.c ****     LV_ASSERT_STYLE_LIST(list);
 699:lvgl\src\lv_core/lv_style.c **** 
 700:lvgl\src\lv_core/lv_style.c ****     if(!list->has_trans) return NULL;
 701:lvgl\src\lv_core/lv_style.c ****     return list->style_list[0];
 702:lvgl\src\lv_core/lv_style.c **** }
 703:lvgl\src\lv_core/lv_style.c **** 
 704:lvgl\src\lv_core/lv_style.c **** /**
 705:lvgl\src\lv_core/lv_style.c ****  * Allocate the transition style in a style list. If already exists simply return it.
 706:lvgl\src\lv_core/lv_style.c ****  * @param list pointer to a style list
 707:lvgl\src\lv_core/lv_style.c ****  * @return the transition style of a style list
 708:lvgl\src\lv_core/lv_style.c ****  */
 709:lvgl\src\lv_core/lv_style.c **** lv_style_t * _lv_style_list_add_trans_style(lv_style_list_t * list)
 710:lvgl\src\lv_core/lv_style.c **** {
 711:lvgl\src\lv_core/lv_style.c ****     LV_ASSERT_STYLE_LIST(list);
 712:lvgl\src\lv_core/lv_style.c ****     if(list->has_trans) return _lv_style_list_get_transition_style(list);
 713:lvgl\src\lv_core/lv_style.c **** 
 714:lvgl\src\lv_core/lv_style.c ****     lv_style_t * trans_style = lv_mem_alloc(sizeof(lv_style_t));
 715:lvgl\src\lv_core/lv_style.c ****     LV_ASSERT_MEM(trans_style);
 716:lvgl\src\lv_core/lv_style.c ****     if(trans_style == NULL) {
 717:lvgl\src\lv_core/lv_style.c ****         LV_LOG_WARN("lv_style_list_add_trans_style: couldn't create transition style");
 718:lvgl\src\lv_core/lv_style.c ****         return NULL;
 719:lvgl\src\lv_core/lv_style.c ****     }
 720:lvgl\src\lv_core/lv_style.c **** 
 721:lvgl\src\lv_core/lv_style.c ****     lv_style_init(trans_style);
 722:lvgl\src\lv_core/lv_style.c **** 
 723:lvgl\src\lv_core/lv_style.c ****     _lv_style_list_add_style(list, trans_style);
 724:lvgl\src\lv_core/lv_style.c ****     list->has_trans = 1;
 725:lvgl\src\lv_core/lv_style.c **** 
 726:lvgl\src\lv_core/lv_style.c ****     /*If the list has local style trans was added after it. But trans should be the first so swap t
 727:lvgl\src\lv_core/lv_style.c ****     if(list->has_local) {
 728:lvgl\src\lv_core/lv_style.c ****         lv_style_t * tmp = list->style_list[0];
 729:lvgl\src\lv_core/lv_style.c ****         list->style_list[0] = list->style_list[1];
 730:lvgl\src\lv_core/lv_style.c ****         list->style_list[1] = tmp;
 731:lvgl\src\lv_core/lv_style.c ****     }
 732:lvgl\src\lv_core/lv_style.c ****     return trans_style;
 733:lvgl\src\lv_core/lv_style.c **** }
 734:lvgl\src\lv_core/lv_style.c **** 
 735:lvgl\src\lv_core/lv_style.c **** 
 736:lvgl\src\lv_core/lv_style.c **** /**
 737:lvgl\src\lv_core/lv_style.c ****  * Set a local integer typed property in a style list.
 738:lvgl\src\lv_core/lv_style.c ****  * @param list pointer to a style list where the local property should be set
 739:lvgl\src\lv_core/lv_style.c ****  * @param prop a style property ORed with a state.
 740:lvgl\src\lv_core/lv_style.c ****  * E.g. `LV_STYLE_BORDER_WIDTH | (LV_STATE_PRESSED << LV_STYLE_STATE_POS)`
 741:lvgl\src\lv_core/lv_style.c ****  * @param value the value to set
 742:lvgl\src\lv_core/lv_style.c ****  * @note for performance reasons it's not checked if the property really has integer type
 743:lvgl\src\lv_core/lv_style.c ****  */
 744:lvgl\src\lv_core/lv_style.c **** void _lv_style_list_set_local_int(lv_style_list_t * list, lv_style_property_t prop, lv_style_int_t 
ARM GAS  C:\Users\strap\AppData\Local\Temp\cc7bAV43.s 			page 21


 745:lvgl\src\lv_core/lv_style.c **** {
 746:lvgl\src\lv_core/lv_style.c ****     LV_ASSERT_STYLE_LIST(list);
 747:lvgl\src\lv_core/lv_style.c **** 
 748:lvgl\src\lv_core/lv_style.c ****     lv_style_t * local = get_alloc_local_style(list);
 749:lvgl\src\lv_core/lv_style.c ****     _lv_style_set_int(local, prop, value);
 750:lvgl\src\lv_core/lv_style.c **** }
 751:lvgl\src\lv_core/lv_style.c **** 
 752:lvgl\src\lv_core/lv_style.c **** /**
 753:lvgl\src\lv_core/lv_style.c ****  * Set a local opacity typed property in a style list.
 754:lvgl\src\lv_core/lv_style.c ****  * @param list pointer to a style list where the local property should be set
 755:lvgl\src\lv_core/lv_style.c ****  * @param prop a style property ORed with a state.
 756:lvgl\src\lv_core/lv_style.c ****  * E.g. `LV_STYLE_BORDER_OPA | (LV_STATE_PRESSED << LV_STYLE_STATE_POS)`
 757:lvgl\src\lv_core/lv_style.c ****  * @param value the value to set
 758:lvgl\src\lv_core/lv_style.c ****  * @note for performance reasons it's not checked if the property really has opacity type
 759:lvgl\src\lv_core/lv_style.c ****  */
 760:lvgl\src\lv_core/lv_style.c **** void _lv_style_list_set_local_opa(lv_style_list_t * list, lv_style_property_t prop, lv_opa_t value)
 761:lvgl\src\lv_core/lv_style.c **** {
 762:lvgl\src\lv_core/lv_style.c ****     LV_ASSERT_STYLE_LIST(list);
 763:lvgl\src\lv_core/lv_style.c **** 
 764:lvgl\src\lv_core/lv_style.c ****     lv_style_t * local = get_alloc_local_style(list);
 765:lvgl\src\lv_core/lv_style.c ****     _lv_style_set_opa(local, prop, value);
 766:lvgl\src\lv_core/lv_style.c **** }
 767:lvgl\src\lv_core/lv_style.c **** 
 768:lvgl\src\lv_core/lv_style.c **** /**
 769:lvgl\src\lv_core/lv_style.c ****  * Set a local color typed property in a style list.
 770:lvgl\src\lv_core/lv_style.c ****  * @param list pointer to a style list where the local property should be set
 771:lvgl\src\lv_core/lv_style.c ****  * @param prop a style property ORed with a state.
 772:lvgl\src\lv_core/lv_style.c ****  * E.g. `LV_STYLE_BORDER_COLOR | (LV_STATE_PRESSED << LV_STYLE_STATE_POS)`
 773:lvgl\src\lv_core/lv_style.c ****  * @param value the value to set
 774:lvgl\src\lv_core/lv_style.c ****  * @note for performance reasons it's not checked if the property really has color type
 775:lvgl\src\lv_core/lv_style.c ****  */
 776:lvgl\src\lv_core/lv_style.c **** void _lv_style_list_set_local_color(lv_style_list_t * list, lv_style_property_t prop, lv_color_t va
 777:lvgl\src\lv_core/lv_style.c **** {
 778:lvgl\src\lv_core/lv_style.c ****     LV_ASSERT_STYLE_LIST(list);
 779:lvgl\src\lv_core/lv_style.c **** 
 780:lvgl\src\lv_core/lv_style.c ****     lv_style_t * local = get_alloc_local_style(list);
 781:lvgl\src\lv_core/lv_style.c ****     _lv_style_set_color(local, prop, value);
 782:lvgl\src\lv_core/lv_style.c **** }
 783:lvgl\src\lv_core/lv_style.c **** 
 784:lvgl\src\lv_core/lv_style.c **** /**
 785:lvgl\src\lv_core/lv_style.c ****  * Set a local pointer typed property in a style list.
 786:lvgl\src\lv_core/lv_style.c ****  * @param list pointer to a style list where the local property should be set
 787:lvgl\src\lv_core/lv_style.c ****  * @param prop a style property ORed with a state.
 788:lvgl\src\lv_core/lv_style.c ****  * E.g. `LV_STYLE_TEXT_FONT | (LV_STATE_PRESSED << LV_STYLE_STATE_POS)`
 789:lvgl\src\lv_core/lv_style.c ****  * @param value the value to set
 790:lvgl\src\lv_core/lv_style.c ****  * @note for performance reasons it's not checked if the property really has pointer type
 791:lvgl\src\lv_core/lv_style.c ****  */
 792:lvgl\src\lv_core/lv_style.c **** void _lv_style_list_set_local_ptr(lv_style_list_t * list, lv_style_property_t prop, const void * va
 793:lvgl\src\lv_core/lv_style.c **** {
 794:lvgl\src\lv_core/lv_style.c ****     LV_ASSERT_STYLE_LIST(list);
 795:lvgl\src\lv_core/lv_style.c **** 
 796:lvgl\src\lv_core/lv_style.c ****     lv_style_t * local = get_alloc_local_style(list);
 797:lvgl\src\lv_core/lv_style.c ****     _lv_style_set_ptr(local, prop, value);
 798:lvgl\src\lv_core/lv_style.c **** }
 799:lvgl\src\lv_core/lv_style.c **** 
 800:lvgl\src\lv_core/lv_style.c **** 
 801:lvgl\src\lv_core/lv_style.c **** 
ARM GAS  C:\Users\strap\AppData\Local\Temp\cc7bAV43.s 			page 22


 802:lvgl\src\lv_core/lv_style.c **** /**
 803:lvgl\src\lv_core/lv_style.c ****  * Get an integer typed property from a style list.
 804:lvgl\src\lv_core/lv_style.c ****  * It will return the property which match best with given state.
 805:lvgl\src\lv_core/lv_style.c ****  * @param list pointer to a style list from where the property should be get
 806:lvgl\src\lv_core/lv_style.c ****  * @param prop a style property ORed with a state.
 807:lvgl\src\lv_core/lv_style.c ****  * E.g. `LV_STYLE_BORDER_WIDTH | (LV_STATE_PRESSED << LV_STYLE_STATE_POS)`
 808:lvgl\src\lv_core/lv_style.c ****  * @param res pointer to a buffer to store the result
 809:lvgl\src\lv_core/lv_style.c ****  * @return LV_RES_OK: there was a matching property in the list
 810:lvgl\src\lv_core/lv_style.c ****  *         LV_RES_INV: there was NO matching property in the list
 811:lvgl\src\lv_core/lv_style.c ****  * @note for performance reasons it's not checked if the property really has integer type
 812:lvgl\src\lv_core/lv_style.c ****  */
 813:lvgl\src\lv_core/lv_style.c **** lv_res_t _lv_style_list_get_int(lv_style_list_t * list, lv_style_property_t prop, lv_style_int_t * 
 814:lvgl\src\lv_core/lv_style.c **** {
 815:lvgl\src\lv_core/lv_style.c ****     LV_ASSERT_STYLE_LIST(list);
 816:lvgl\src\lv_core/lv_style.c **** 
 817:lvgl\src\lv_core/lv_style.c ****     if(list == NULL) return LV_RES_INV;
 818:lvgl\src\lv_core/lv_style.c ****     if(list->style_list == NULL) return LV_RES_INV;
 819:lvgl\src\lv_core/lv_style.c **** 
 820:lvgl\src\lv_core/lv_style.c ****     lv_style_attr_t attr;
 821:lvgl\src\lv_core/lv_style.c ****     attr = prop >> 8;
 822:lvgl\src\lv_core/lv_style.c ****     int16_t weight_goal = attr;
 823:lvgl\src\lv_core/lv_style.c **** 
 824:lvgl\src\lv_core/lv_style.c ****     int16_t weight = -1;
 825:lvgl\src\lv_core/lv_style.c **** 
 826:lvgl\src\lv_core/lv_style.c ****     lv_style_int_t value_act = 0;
 827:lvgl\src\lv_core/lv_style.c **** 
 828:lvgl\src\lv_core/lv_style.c ****     int16_t ci;
 829:lvgl\src\lv_core/lv_style.c ****     for(ci = 0; ci < list->style_cnt; ci++) {
 830:lvgl\src\lv_core/lv_style.c ****         /* changed class to _class to allow compilation as c++ */
 831:lvgl\src\lv_core/lv_style.c ****         lv_style_t * _class = lv_style_list_get_style(list, ci);
 832:lvgl\src\lv_core/lv_style.c ****         int16_t weight_act = _lv_style_get_int(_class, prop, &value_act);
 833:lvgl\src\lv_core/lv_style.c **** 
 834:lvgl\src\lv_core/lv_style.c ****         /*On perfect match return the value immediately*/
 835:lvgl\src\lv_core/lv_style.c ****         if(weight_act == weight_goal) {
 836:lvgl\src\lv_core/lv_style.c ****             *res = value_act;
 837:lvgl\src\lv_core/lv_style.c ****             return LV_RES_OK;
 838:lvgl\src\lv_core/lv_style.c ****         }
 839:lvgl\src\lv_core/lv_style.c ****         else if(list->has_trans && weight_act >= 0 && ci == 0 && !list->skip_trans) {
 840:lvgl\src\lv_core/lv_style.c ****             *res = value_act;
 841:lvgl\src\lv_core/lv_style.c ****             return LV_RES_OK;
 842:lvgl\src\lv_core/lv_style.c ****         }
 843:lvgl\src\lv_core/lv_style.c ****         /*If the found ID is better the current candidate then use it*/
 844:lvgl\src\lv_core/lv_style.c ****         else if(weight_act > weight) {
 845:lvgl\src\lv_core/lv_style.c ****             weight =  weight_act;
 846:lvgl\src\lv_core/lv_style.c ****             *res = value_act;
 847:lvgl\src\lv_core/lv_style.c ****         }
 848:lvgl\src\lv_core/lv_style.c ****     }
 849:lvgl\src\lv_core/lv_style.c **** 
 850:lvgl\src\lv_core/lv_style.c ****     if(weight >= 0) return LV_RES_OK;
 851:lvgl\src\lv_core/lv_style.c ****     else return LV_RES_INV;
 852:lvgl\src\lv_core/lv_style.c **** 
 853:lvgl\src\lv_core/lv_style.c **** }
 854:lvgl\src\lv_core/lv_style.c **** 
 855:lvgl\src\lv_core/lv_style.c **** /**
 856:lvgl\src\lv_core/lv_style.c ****  * Get a color typed property from a style list.
 857:lvgl\src\lv_core/lv_style.c ****  * It will return the property which match best with given state.
 858:lvgl\src\lv_core/lv_style.c ****  * @param list pointer to a style list from where the property should be get
ARM GAS  C:\Users\strap\AppData\Local\Temp\cc7bAV43.s 			page 23


 859:lvgl\src\lv_core/lv_style.c ****  * @param prop a style property ORed with a state.
 860:lvgl\src\lv_core/lv_style.c ****  * E.g. `LV_STYLE_BORDER_COLOR | (LV_STATE_PRESSED << LV_STYLE_STATE_POS)`
 861:lvgl\src\lv_core/lv_style.c ****  * @param res pointer to a buffer to store the result
 862:lvgl\src\lv_core/lv_style.c ****  * @return LV_RES_OK: there was a matching property in the list
 863:lvgl\src\lv_core/lv_style.c ****  *         LV_RES_INV: there was NO matching property in the list
 864:lvgl\src\lv_core/lv_style.c ****  * @note for performance reasons it's not checked if the property really has color type
 865:lvgl\src\lv_core/lv_style.c ****  */
 866:lvgl\src\lv_core/lv_style.c **** lv_res_t _lv_style_list_get_color(lv_style_list_t * list, lv_style_property_t prop, lv_color_t * re
 867:lvgl\src\lv_core/lv_style.c **** {
 868:lvgl\src\lv_core/lv_style.c ****     LV_ASSERT_STYLE_LIST(list);
 869:lvgl\src\lv_core/lv_style.c **** 
 870:lvgl\src\lv_core/lv_style.c ****     if(list == NULL) return LV_RES_INV;
 871:lvgl\src\lv_core/lv_style.c ****     if(list->style_list == NULL) return LV_RES_INV;
 872:lvgl\src\lv_core/lv_style.c **** 
 873:lvgl\src\lv_core/lv_style.c ****     lv_style_attr_t attr;
 874:lvgl\src\lv_core/lv_style.c ****     attr = prop >> 8;
 875:lvgl\src\lv_core/lv_style.c ****     int16_t weight_goal = attr;
 876:lvgl\src\lv_core/lv_style.c **** 
 877:lvgl\src\lv_core/lv_style.c ****     int16_t weight = -1;
 878:lvgl\src\lv_core/lv_style.c **** 
 879:lvgl\src\lv_core/lv_style.c ****     lv_color_t value_act;
 880:lvgl\src\lv_core/lv_style.c ****     value_act.full = 0;
 881:lvgl\src\lv_core/lv_style.c **** 
 882:lvgl\src\lv_core/lv_style.c ****     int16_t ci;
 883:lvgl\src\lv_core/lv_style.c ****     for(ci = 0; ci < list->style_cnt; ci++) {
 884:lvgl\src\lv_core/lv_style.c ****         lv_style_t * _class = lv_style_list_get_style(list, ci);
 885:lvgl\src\lv_core/lv_style.c ****         int16_t weight_act = _lv_style_get_color(_class, prop, &value_act);
 886:lvgl\src\lv_core/lv_style.c ****         /*On perfect match return the value immediately*/
 887:lvgl\src\lv_core/lv_style.c ****         if(weight_act == weight_goal) {
 888:lvgl\src\lv_core/lv_style.c ****             *res = value_act;
 889:lvgl\src\lv_core/lv_style.c ****             return LV_RES_OK;
 890:lvgl\src\lv_core/lv_style.c ****         }
 891:lvgl\src\lv_core/lv_style.c ****         else if(list->has_trans && weight_act >= 0 && ci == 0 && !list->skip_trans) {
 892:lvgl\src\lv_core/lv_style.c ****             *res = value_act;
 893:lvgl\src\lv_core/lv_style.c ****             return LV_RES_OK;
 894:lvgl\src\lv_core/lv_style.c ****         }
 895:lvgl\src\lv_core/lv_style.c ****         /*If the found ID is better the current candidate then use it*/
 896:lvgl\src\lv_core/lv_style.c ****         else if(weight_act > weight) {
 897:lvgl\src\lv_core/lv_style.c ****             weight =  weight_act;
 898:lvgl\src\lv_core/lv_style.c ****             *res = value_act;
 899:lvgl\src\lv_core/lv_style.c ****         }
 900:lvgl\src\lv_core/lv_style.c ****     }
 901:lvgl\src\lv_core/lv_style.c **** 
 902:lvgl\src\lv_core/lv_style.c ****     if(weight >= 0)  return LV_RES_OK;
 903:lvgl\src\lv_core/lv_style.c ****     else return LV_RES_INV;
 904:lvgl\src\lv_core/lv_style.c **** }
 905:lvgl\src\lv_core/lv_style.c **** 
 906:lvgl\src\lv_core/lv_style.c **** /**
 907:lvgl\src\lv_core/lv_style.c ****  * Get an opacity typed property from a style list.
 908:lvgl\src\lv_core/lv_style.c ****  * It will return the property which match best with given state.
 909:lvgl\src\lv_core/lv_style.c ****  * @param list pointer to a style list from where the property should be get
 910:lvgl\src\lv_core/lv_style.c ****  * @param prop a style property ORed with a state.
 911:lvgl\src\lv_core/lv_style.c ****  * E.g. `LV_STYLE_BORDER_OPA| (LV_STATE_PRESSED << LV_STYLE_STATE_POS)`
 912:lvgl\src\lv_core/lv_style.c ****  * @param res pointer to a buffer to store the result
 913:lvgl\src\lv_core/lv_style.c ****  * @return LV_RES_OK: there was a matching property in the list
 914:lvgl\src\lv_core/lv_style.c ****  *         LV_RES_INV: there was NO matching property in the list
 915:lvgl\src\lv_core/lv_style.c ****  * @note for performance reasons it's not checked if the property really has opacity type
ARM GAS  C:\Users\strap\AppData\Local\Temp\cc7bAV43.s 			page 24


 916:lvgl\src\lv_core/lv_style.c ****  */
 917:lvgl\src\lv_core/lv_style.c **** lv_res_t _lv_style_list_get_opa(lv_style_list_t * list, lv_style_property_t prop, lv_opa_t * res)
 918:lvgl\src\lv_core/lv_style.c **** {
 919:lvgl\src\lv_core/lv_style.c ****     LV_ASSERT_STYLE_LIST(list);
 920:lvgl\src\lv_core/lv_style.c **** 
 921:lvgl\src\lv_core/lv_style.c ****     if(list == NULL) return LV_RES_INV;
 922:lvgl\src\lv_core/lv_style.c ****     if(list->style_list == NULL) return LV_RES_INV;
 923:lvgl\src\lv_core/lv_style.c **** 
 924:lvgl\src\lv_core/lv_style.c ****     lv_style_attr_t attr;
 925:lvgl\src\lv_core/lv_style.c ****     attr = prop >> 8;
 926:lvgl\src\lv_core/lv_style.c ****     int16_t weight_goal = attr;
 927:lvgl\src\lv_core/lv_style.c **** 
 928:lvgl\src\lv_core/lv_style.c ****     int16_t weight = -1;
 929:lvgl\src\lv_core/lv_style.c **** 
 930:lvgl\src\lv_core/lv_style.c ****     lv_opa_t value_act = LV_OPA_TRANSP;
 931:lvgl\src\lv_core/lv_style.c **** 
 932:lvgl\src\lv_core/lv_style.c ****     int16_t ci;
 933:lvgl\src\lv_core/lv_style.c ****     for(ci = 0; ci < list->style_cnt; ci++) {
 934:lvgl\src\lv_core/lv_style.c ****         lv_style_t * _class = lv_style_list_get_style(list, ci);
 935:lvgl\src\lv_core/lv_style.c ****         int16_t weight_act = _lv_style_get_opa(_class, prop, &value_act);
 936:lvgl\src\lv_core/lv_style.c ****         /*On perfect match return the value immediately*/
 937:lvgl\src\lv_core/lv_style.c ****         if(weight_act == weight_goal) {
 938:lvgl\src\lv_core/lv_style.c ****             *res = value_act;
 939:lvgl\src\lv_core/lv_style.c ****             return LV_RES_OK;
 940:lvgl\src\lv_core/lv_style.c ****         }
 941:lvgl\src\lv_core/lv_style.c ****         else if(list->has_trans && weight_act >= 0 && ci == 0 && !list->skip_trans) {
 942:lvgl\src\lv_core/lv_style.c ****             *res = value_act;
 943:lvgl\src\lv_core/lv_style.c ****             return LV_RES_OK;
 944:lvgl\src\lv_core/lv_style.c ****         }
 945:lvgl\src\lv_core/lv_style.c ****         /*If the found ID is better the current candidate then use it*/
 946:lvgl\src\lv_core/lv_style.c ****         else if(weight_act > weight) {
 947:lvgl\src\lv_core/lv_style.c ****             weight =  weight_act;
 948:lvgl\src\lv_core/lv_style.c ****             *res = value_act;
 949:lvgl\src\lv_core/lv_style.c ****         }
 950:lvgl\src\lv_core/lv_style.c ****     }
 951:lvgl\src\lv_core/lv_style.c **** 
 952:lvgl\src\lv_core/lv_style.c ****     if(weight >= 0)  return LV_RES_OK;
 953:lvgl\src\lv_core/lv_style.c ****     else return LV_RES_INV;
 954:lvgl\src\lv_core/lv_style.c **** }
 955:lvgl\src\lv_core/lv_style.c **** 
 956:lvgl\src\lv_core/lv_style.c **** /**
 957:lvgl\src\lv_core/lv_style.c ****  * Get a pointer typed property from a style list.
 958:lvgl\src\lv_core/lv_style.c ****  * It will return the property which match best with given state.
 959:lvgl\src\lv_core/lv_style.c ****  * @param list pointer to a style list from where the property should be get
 960:lvgl\src\lv_core/lv_style.c ****  * @param prop a style property ORed with a state.
 961:lvgl\src\lv_core/lv_style.c ****  * E.g. `LV_STYLE_TEXT_FONT | (LV_STATE_PRESSED << LV_STYLE_STATE_POS)`
 962:lvgl\src\lv_core/lv_style.c ****  * @param res pointer to a buffer to store the result
 963:lvgl\src\lv_core/lv_style.c ****  * @return LV_RES_OK: there was a matching property in the list
 964:lvgl\src\lv_core/lv_style.c ****  *         LV_RES_INV: there was NO matching property in the list
 965:lvgl\src\lv_core/lv_style.c ****  * @note for performance reasons it's not checked if the property really has pointer type
 966:lvgl\src\lv_core/lv_style.c ****  */
 967:lvgl\src\lv_core/lv_style.c **** lv_res_t _lv_style_list_get_ptr(lv_style_list_t * list, lv_style_property_t prop, const void ** res
 968:lvgl\src\lv_core/lv_style.c **** {
 969:lvgl\src\lv_core/lv_style.c ****     LV_ASSERT_STYLE_LIST(list);
 970:lvgl\src\lv_core/lv_style.c **** 
 971:lvgl\src\lv_core/lv_style.c ****     if(list == NULL) return LV_RES_INV;
 972:lvgl\src\lv_core/lv_style.c ****     if(list->style_list == NULL) return LV_RES_INV;
ARM GAS  C:\Users\strap\AppData\Local\Temp\cc7bAV43.s 			page 25


 973:lvgl\src\lv_core/lv_style.c **** 
 974:lvgl\src\lv_core/lv_style.c ****     lv_style_attr_t attr;
 975:lvgl\src\lv_core/lv_style.c ****     attr = prop >> 8;
 976:lvgl\src\lv_core/lv_style.c ****     int16_t weight_goal = attr;
 977:lvgl\src\lv_core/lv_style.c **** 
 978:lvgl\src\lv_core/lv_style.c ****     int16_t weight = -1;
 979:lvgl\src\lv_core/lv_style.c **** 
 980:lvgl\src\lv_core/lv_style.c ****     const void * value_act;
 981:lvgl\src\lv_core/lv_style.c **** 
 982:lvgl\src\lv_core/lv_style.c ****     int16_t ci;
 983:lvgl\src\lv_core/lv_style.c ****     for(ci = 0; ci < list->style_cnt; ci++) {
 984:lvgl\src\lv_core/lv_style.c ****         lv_style_t * _class = lv_style_list_get_style(list, ci);
 985:lvgl\src\lv_core/lv_style.c ****         int16_t weight_act = _lv_style_get_ptr(_class, prop, &value_act);
 986:lvgl\src\lv_core/lv_style.c ****         /*On perfect match return the value immediately*/
 987:lvgl\src\lv_core/lv_style.c ****         if(weight_act == weight_goal) {
 988:lvgl\src\lv_core/lv_style.c ****             *res = value_act;
 989:lvgl\src\lv_core/lv_style.c ****             return LV_RES_OK;
 990:lvgl\src\lv_core/lv_style.c ****         }
 991:lvgl\src\lv_core/lv_style.c ****         else if(list->has_trans && weight_act >= 0 && ci == 0 && !list->skip_trans) {
 992:lvgl\src\lv_core/lv_style.c ****             *res = value_act;
 993:lvgl\src\lv_core/lv_style.c ****             return LV_RES_OK;
 994:lvgl\src\lv_core/lv_style.c ****         }
 995:lvgl\src\lv_core/lv_style.c ****         /*If the found ID is better the current candidate then use it*/
 996:lvgl\src\lv_core/lv_style.c ****         else if(weight_act > weight) {
 997:lvgl\src\lv_core/lv_style.c ****             weight =  weight_act;
 998:lvgl\src\lv_core/lv_style.c ****             *res = value_act;
 999:lvgl\src\lv_core/lv_style.c ****         }
1000:lvgl\src\lv_core/lv_style.c ****     }
1001:lvgl\src\lv_core/lv_style.c **** 
1002:lvgl\src\lv_core/lv_style.c ****     if(weight >= 0)  return LV_RES_OK;
1003:lvgl\src\lv_core/lv_style.c ****     else return LV_RES_INV;
1004:lvgl\src\lv_core/lv_style.c **** }
1005:lvgl\src\lv_core/lv_style.c **** 
1006:lvgl\src\lv_core/lv_style.c **** /**
1007:lvgl\src\lv_core/lv_style.c ****  * Check whether a style is valid (initialized correctly)
1008:lvgl\src\lv_core/lv_style.c ****  * @param style pointer to a style
1009:lvgl\src\lv_core/lv_style.c ****  * @return true: valid
1010:lvgl\src\lv_core/lv_style.c ****  */
1011:lvgl\src\lv_core/lv_style.c **** bool lv_debug_check_style(const lv_style_t * style)
1012:lvgl\src\lv_core/lv_style.c **** {
1013:lvgl\src\lv_core/lv_style.c ****     if(style == NULL) return true;  /*NULL style is still valid*/
1014:lvgl\src\lv_core/lv_style.c **** 
1015:lvgl\src\lv_core/lv_style.c **** #if LV_USE_ASSERT_STYLE
1016:lvgl\src\lv_core/lv_style.c ****     if(style->sentinel != LV_DEBUG_STYLE_SENTINEL_VALUE) {
1017:lvgl\src\lv_core/lv_style.c ****         LV_LOG_WARN("Invalid style (local variable or not initialized?)");
1018:lvgl\src\lv_core/lv_style.c ****         return false;
1019:lvgl\src\lv_core/lv_style.c ****     }
1020:lvgl\src\lv_core/lv_style.c **** #endif
1021:lvgl\src\lv_core/lv_style.c **** 
1022:lvgl\src\lv_core/lv_style.c ****     return true;
1023:lvgl\src\lv_core/lv_style.c **** }
1024:lvgl\src\lv_core/lv_style.c **** 
1025:lvgl\src\lv_core/lv_style.c **** /**
1026:lvgl\src\lv_core/lv_style.c ****  * Check whether a style list is valid (initialized correctly)
1027:lvgl\src\lv_core/lv_style.c ****  * @param style pointer to a style
1028:lvgl\src\lv_core/lv_style.c ****  * @return true: valid
1029:lvgl\src\lv_core/lv_style.c ****  */
ARM GAS  C:\Users\strap\AppData\Local\Temp\cc7bAV43.s 			page 26


1030:lvgl\src\lv_core/lv_style.c **** bool lv_debug_check_style_list(const lv_style_list_t * list)
1031:lvgl\src\lv_core/lv_style.c **** {
1032:lvgl\src\lv_core/lv_style.c ****     if(list == NULL) return true;  /*NULL list is still valid*/
1033:lvgl\src\lv_core/lv_style.c **** 
1034:lvgl\src\lv_core/lv_style.c **** #if LV_USE_ASSERT_STYLE
1035:lvgl\src\lv_core/lv_style.c ****     if(list->sentinel != LV_DEBUG_STYLE_LIST_SENTINEL_VALUE) {
1036:lvgl\src\lv_core/lv_style.c ****         LV_LOG_WARN("Invalid style (local variable or not initialized?)");
1037:lvgl\src\lv_core/lv_style.c ****         return false;
1038:lvgl\src\lv_core/lv_style.c ****     }
1039:lvgl\src\lv_core/lv_style.c **** #endif
1040:lvgl\src\lv_core/lv_style.c **** 
1041:lvgl\src\lv_core/lv_style.c ****     return true;
1042:lvgl\src\lv_core/lv_style.c **** }
1043:lvgl\src\lv_core/lv_style.c **** 
1044:lvgl\src\lv_core/lv_style.c **** /**********************
1045:lvgl\src\lv_core/lv_style.c ****  *   STATIC FUNCTIONS
1046:lvgl\src\lv_core/lv_style.c ****  **********************/
1047:lvgl\src\lv_core/lv_style.c **** 
1048:lvgl\src\lv_core/lv_style.c **** /**
1049:lvgl\src\lv_core/lv_style.c ****  * Get a property's index (byte index in `style->map`) from a style.
1050:lvgl\src\lv_core/lv_style.c ****  * Return best matching property's index considering the state of `prop`
1051:lvgl\src\lv_core/lv_style.c ****  * @param style pointer to a style
1052:lvgl\src\lv_core/lv_style.c ****  * @param prop a style property ORed with a state.
1053:lvgl\src\lv_core/lv_style.c ****  * E.g. `LV_STYLE_TEXT_FONT | (LV_STATE_PRESSED << LV_STYLE_STATE_POS)`
1054:lvgl\src\lv_core/lv_style.c ****  * @return
1055:lvgl\src\lv_core/lv_style.c ****  */
1056:lvgl\src\lv_core/lv_style.c **** LV_ATTRIBUTE_FAST_MEM static inline int32_t get_property_index(const lv_style_t * style, lv_style_p
1057:lvgl\src\lv_core/lv_style.c **** {
1058:lvgl\src\lv_core/lv_style.c ****     LV_ASSERT_STYLE(style);
1059:lvgl\src\lv_core/lv_style.c **** 
1060:lvgl\src\lv_core/lv_style.c ****     if(style->map == NULL) return -1;
1061:lvgl\src\lv_core/lv_style.c **** 
1062:lvgl\src\lv_core/lv_style.c ****     uint8_t id_to_find = prop & 0xFF;
1063:lvgl\src\lv_core/lv_style.c ****     lv_style_attr_t attr;
1064:lvgl\src\lv_core/lv_style.c ****     attr = (prop >> 8) & 0xFF;
1065:lvgl\src\lv_core/lv_style.c **** 
1066:lvgl\src\lv_core/lv_style.c ****     int16_t weight = -1;
1067:lvgl\src\lv_core/lv_style.c ****     int16_t id_guess = -1;
1068:lvgl\src\lv_core/lv_style.c **** 
1069:lvgl\src\lv_core/lv_style.c ****     size_t i = 0;
1070:lvgl\src\lv_core/lv_style.c **** 
1071:lvgl\src\lv_core/lv_style.c ****     uint8_t prop_id;
1072:lvgl\src\lv_core/lv_style.c ****     while((prop_id = get_style_prop_id(style, i)) != _LV_STYLE_CLOSEING_PROP) {
1073:lvgl\src\lv_core/lv_style.c ****         if(prop_id == id_to_find) {
1074:lvgl\src\lv_core/lv_style.c ****             lv_style_attr_t attr_i;
1075:lvgl\src\lv_core/lv_style.c ****             attr_i = get_style_prop_attr(style, i);
1076:lvgl\src\lv_core/lv_style.c **** 
1077:lvgl\src\lv_core/lv_style.c ****             /*If the state perfectly matches return this property*/
1078:lvgl\src\lv_core/lv_style.c ****             if(LV_STYLE_ATTR_GET_STATE(attr_i) == LV_STYLE_ATTR_GET_STATE(attr)) {
1079:lvgl\src\lv_core/lv_style.c ****                 return i;
1080:lvgl\src\lv_core/lv_style.c ****             }
1081:lvgl\src\lv_core/lv_style.c ****             /* Be sure the property not specifies other state than the requested.
1082:lvgl\src\lv_core/lv_style.c ****              * E.g. For HOVER+PRESS, HOVER only is OK, but HOVER+FOCUS not*/
1083:lvgl\src\lv_core/lv_style.c ****             else if((LV_STYLE_ATTR_GET_STATE(attr_i) & (~LV_STYLE_ATTR_GET_STATE(attr))) == 0) {
1084:lvgl\src\lv_core/lv_style.c ****                 /* Use this property if it describes better the requested state than the current ca
1085:lvgl\src\lv_core/lv_style.c ****                  * E.g. for HOVER+FOCUS+PRESS prefer HOVER+FOCUS over FOCUS*/
1086:lvgl\src\lv_core/lv_style.c ****                 if(LV_STYLE_ATTR_GET_STATE(attr_i) > weight) {
ARM GAS  C:\Users\strap\AppData\Local\Temp\cc7bAV43.s 			page 27


1087:lvgl\src\lv_core/lv_style.c ****                     weight = LV_STYLE_ATTR_GET_STATE(attr_i);
1088:lvgl\src\lv_core/lv_style.c ****                     id_guess = i;
1089:lvgl\src\lv_core/lv_style.c ****                 }
1090:lvgl\src\lv_core/lv_style.c ****             }
1091:lvgl\src\lv_core/lv_style.c ****         }
1092:lvgl\src\lv_core/lv_style.c **** 
1093:lvgl\src\lv_core/lv_style.c ****         i = get_next_prop_index(prop_id, i);
1094:lvgl\src\lv_core/lv_style.c ****     }
1095:lvgl\src\lv_core/lv_style.c **** 
1096:lvgl\src\lv_core/lv_style.c ****     return id_guess;
1097:lvgl\src\lv_core/lv_style.c **** }
1098:lvgl\src\lv_core/lv_style.c **** 
1099:lvgl\src\lv_core/lv_style.c **** /**
1100:lvgl\src\lv_core/lv_style.c ****  * Get he local style from a style list. Allocate it if not exists yet.
1101:lvgl\src\lv_core/lv_style.c ****  * @param list pointer to a style list
1102:lvgl\src\lv_core/lv_style.c ****  * @return pointer to the local style
1103:lvgl\src\lv_core/lv_style.c ****  */
1104:lvgl\src\lv_core/lv_style.c **** static lv_style_t * get_alloc_local_style(lv_style_list_t * list)
1105:lvgl\src\lv_core/lv_style.c **** {
 370              		.loc 1 1105 0
 371              		.cfi_startproc
 372              		@ args = 0, pretend = 0, frame = 0
 373              		@ frame_needed = 0, uses_anonymous_args = 0
 374              	.LVL46:
 375 0000 38B5     		push	{r3, r4, r5, lr}
 376              		.cfi_def_cfa_offset 16
 377              		.cfi_offset 3, -16
 378              		.cfi_offset 4, -12
 379              		.cfi_offset 5, -8
 380              		.cfi_offset 14, -4
1106:lvgl\src\lv_core/lv_style.c ****     LV_ASSERT_STYLE_LIST(list);
1107:lvgl\src\lv_core/lv_style.c **** 
1108:lvgl\src\lv_core/lv_style.c ****     if(list->has_local) return lv_style_list_get_style(list, list->has_trans ? 1 : 0);
 381              		.loc 1 1108 0
 382 0002 0279     		ldrb	r2, [r0, #4]	@ zero_extendqisi2
 383 0004 12F0400F 		tst	r2, #64
 384 0008 18D0     		beq	.L36
 385              		.loc 1 1108 0 is_stmt 0 discriminator 1
 386 000a D309     		lsrs	r3, r2, #7
 387              	.LVL47:
 388              	.LBB141:
 389              	.LBB142:
 390              		.file 2 "lvgl\\src\\lv_core\\lv_style.h"
   1:lvgl\src\lv_core/lv_style.h **** /**
   2:lvgl\src\lv_core/lv_style.h ****  * @file lv_style.h
   3:lvgl\src\lv_core/lv_style.h ****  *
   4:lvgl\src\lv_core/lv_style.h ****  */
   5:lvgl\src\lv_core/lv_style.h **** 
   6:lvgl\src\lv_core/lv_style.h **** #ifndef LV_STYLE_H
   7:lvgl\src\lv_core/lv_style.h **** #define LV_STYLE_H
   8:lvgl\src\lv_core/lv_style.h **** 
   9:lvgl\src\lv_core/lv_style.h **** #ifdef __cplusplus
  10:lvgl\src\lv_core/lv_style.h **** extern "C" {
  11:lvgl\src\lv_core/lv_style.h **** #endif
  12:lvgl\src\lv_core/lv_style.h **** 
  13:lvgl\src\lv_core/lv_style.h **** /*********************
  14:lvgl\src\lv_core/lv_style.h ****  *      INCLUDES
ARM GAS  C:\Users\strap\AppData\Local\Temp\cc7bAV43.s 			page 28


  15:lvgl\src\lv_core/lv_style.h ****  *********************/
  16:lvgl\src\lv_core/lv_style.h **** #include <stdbool.h>
  17:lvgl\src\lv_core/lv_style.h **** #include "../lv_font/lv_font.h"
  18:lvgl\src\lv_core/lv_style.h **** #include "../lv_misc/lv_color.h"
  19:lvgl\src\lv_core/lv_style.h **** #include "../lv_misc/lv_area.h"
  20:lvgl\src\lv_core/lv_style.h **** #include "../lv_misc/lv_anim.h"
  21:lvgl\src\lv_core/lv_style.h **** #include "../lv_misc/lv_types.h"
  22:lvgl\src\lv_core/lv_style.h **** #include "../lv_misc/lv_debug.h"
  23:lvgl\src\lv_core/lv_style.h **** #include "../lv_draw/lv_draw_blend.h"
  24:lvgl\src\lv_core/lv_style.h **** 
  25:lvgl\src\lv_core/lv_style.h **** /*********************
  26:lvgl\src\lv_core/lv_style.h ****  *      DEFINES
  27:lvgl\src\lv_core/lv_style.h ****  *********************/
  28:lvgl\src\lv_core/lv_style.h **** 
  29:lvgl\src\lv_core/lv_style.h **** #define LV_RADIUS_CIRCLE (0x7FFF) /**< A very big radius to always draw as circle*/
  30:lvgl\src\lv_core/lv_style.h **** LV_EXPORT_CONST_INT(LV_RADIUS_CIRCLE);
  31:lvgl\src\lv_core/lv_style.h **** 
  32:lvgl\src\lv_core/lv_style.h **** #define LV_DEBUG_STYLE_SENTINEL_VALUE       0x2288AAEE
  33:lvgl\src\lv_core/lv_style.h **** #define LV_DEBUG_STYLE_LIST_SENTINEL_VALUE  0x9977CCBB
  34:lvgl\src\lv_core/lv_style.h **** 
  35:lvgl\src\lv_core/lv_style.h **** #define LV_STYLE_PROP_INIT(name, group, id, attr)  name = (((group << 4) + id) | ((attr) << 8))
  36:lvgl\src\lv_core/lv_style.h **** 
  37:lvgl\src\lv_core/lv_style.h **** #define LV_STYLE_ID_MASK 0x00FF
  38:lvgl\src\lv_core/lv_style.h **** 
  39:lvgl\src\lv_core/lv_style.h **** #define LV_STYLE_ATTR_NONE          0
  40:lvgl\src\lv_core/lv_style.h **** #define LV_STYLE_ATTR_INHERIT       (1 << 7)
  41:lvgl\src\lv_core/lv_style.h **** 
  42:lvgl\src\lv_core/lv_style.h **** #define _LV_STYLE_CLOSEING_PROP     0xFF
  43:lvgl\src\lv_core/lv_style.h **** 
  44:lvgl\src\lv_core/lv_style.h **** #define LV_STYLE_TRANS_NUM_MAX      6
  45:lvgl\src\lv_core/lv_style.h **** 
  46:lvgl\src\lv_core/lv_style.h **** #define LV_STYLE_PROP_ALL 0xFF
  47:lvgl\src\lv_core/lv_style.h **** 
  48:lvgl\src\lv_core/lv_style.h **** /**********************
  49:lvgl\src\lv_core/lv_style.h ****  *      TYPEDEFS
  50:lvgl\src\lv_core/lv_style.h ****  **********************/
  51:lvgl\src\lv_core/lv_style.h **** 
  52:lvgl\src\lv_core/lv_style.h **** /*Border types (Use 'OR'ed values)*/
  53:lvgl\src\lv_core/lv_style.h **** enum {
  54:lvgl\src\lv_core/lv_style.h ****     LV_BORDER_SIDE_NONE     = 0x00,
  55:lvgl\src\lv_core/lv_style.h ****     LV_BORDER_SIDE_BOTTOM   = 0x01,
  56:lvgl\src\lv_core/lv_style.h ****     LV_BORDER_SIDE_TOP      = 0x02,
  57:lvgl\src\lv_core/lv_style.h ****     LV_BORDER_SIDE_LEFT     = 0x04,
  58:lvgl\src\lv_core/lv_style.h ****     LV_BORDER_SIDE_RIGHT    = 0x08,
  59:lvgl\src\lv_core/lv_style.h ****     LV_BORDER_SIDE_FULL     = 0x0F,
  60:lvgl\src\lv_core/lv_style.h ****     LV_BORDER_SIDE_INTERNAL = 0x10, /**< FOR matrix-like objects (e.g. Button matrix)*/
  61:lvgl\src\lv_core/lv_style.h ****     _LV_BORDER_SIDE_LAST
  62:lvgl\src\lv_core/lv_style.h **** };
  63:lvgl\src\lv_core/lv_style.h **** typedef uint8_t lv_border_side_t;
  64:lvgl\src\lv_core/lv_style.h **** 
  65:lvgl\src\lv_core/lv_style.h **** enum {
  66:lvgl\src\lv_core/lv_style.h ****     LV_GRAD_DIR_NONE,
  67:lvgl\src\lv_core/lv_style.h ****     LV_GRAD_DIR_VER,
  68:lvgl\src\lv_core/lv_style.h ****     LV_GRAD_DIR_HOR,
  69:lvgl\src\lv_core/lv_style.h ****     _LV_GRAD_DIR_LAST
  70:lvgl\src\lv_core/lv_style.h **** };
  71:lvgl\src\lv_core/lv_style.h **** 
ARM GAS  C:\Users\strap\AppData\Local\Temp\cc7bAV43.s 			page 29


  72:lvgl\src\lv_core/lv_style.h **** typedef uint8_t lv_grad_dir_t;
  73:lvgl\src\lv_core/lv_style.h **** 
  74:lvgl\src\lv_core/lv_style.h **** /*Text decorations (Use 'OR'ed values)*/
  75:lvgl\src\lv_core/lv_style.h **** enum {
  76:lvgl\src\lv_core/lv_style.h ****     LV_TEXT_DECOR_NONE          = 0x00,
  77:lvgl\src\lv_core/lv_style.h ****     LV_TEXT_DECOR_UNDERLINE     = 0x01,
  78:lvgl\src\lv_core/lv_style.h ****     LV_TEXT_DECOR_STRIKETHROUGH = 0x02,
  79:lvgl\src\lv_core/lv_style.h ****     _LV_TEXT_DECOR_LAST
  80:lvgl\src\lv_core/lv_style.h **** };
  81:lvgl\src\lv_core/lv_style.h **** 
  82:lvgl\src\lv_core/lv_style.h **** typedef uint8_t lv_text_decor_t;
  83:lvgl\src\lv_core/lv_style.h **** 
  84:lvgl\src\lv_core/lv_style.h **** typedef uint8_t lv_style_attr_t;
  85:lvgl\src\lv_core/lv_style.h **** 
  86:lvgl\src\lv_core/lv_style.h **** #define LV_STYLE_ATTR_GET_INHERIT(f) ((f)&0x80)
  87:lvgl\src\lv_core/lv_style.h **** #define LV_STYLE_ATTR_GET_STATE(f) ((f)&0x7F)
  88:lvgl\src\lv_core/lv_style.h **** 
  89:lvgl\src\lv_core/lv_style.h **** #define LV_STYLE_ID_VALUE 0x0   /*max 9 pcs*/
  90:lvgl\src\lv_core/lv_style.h **** #define LV_STYLE_ID_COLOR 0x9   /*max 3 pcs*/
  91:lvgl\src\lv_core/lv_style.h **** #define LV_STYLE_ID_OPA   0xC   /*max 2 pcs*/
  92:lvgl\src\lv_core/lv_style.h **** #define LV_STYLE_ID_PTR   0xE   /*max 2 pcs*/
  93:lvgl\src\lv_core/lv_style.h **** 
  94:lvgl\src\lv_core/lv_style.h **** enum {
  95:lvgl\src\lv_core/lv_style.h ****     /*Skip 0th property*/
  96:lvgl\src\lv_core/lv_style.h ****     LV_STYLE_PROP_INIT(LV_STYLE_RADIUS,             0x0, LV_STYLE_ID_VALUE + 1, LV_STYLE_ATTR_NONE)
  97:lvgl\src\lv_core/lv_style.h ****     LV_STYLE_PROP_INIT(LV_STYLE_CLIP_CORNER,        0x0, LV_STYLE_ID_VALUE + 2, LV_STYLE_ATTR_NONE)
  98:lvgl\src\lv_core/lv_style.h ****     LV_STYLE_PROP_INIT(LV_STYLE_SIZE,               0x0, LV_STYLE_ID_VALUE + 3, LV_STYLE_ATTR_NONE)
  99:lvgl\src\lv_core/lv_style.h ****     LV_STYLE_PROP_INIT(LV_STYLE_TRANSFORM_WIDTH,    0x0, LV_STYLE_ID_VALUE + 4, LV_STYLE_ATTR_NONE)
 100:lvgl\src\lv_core/lv_style.h ****     LV_STYLE_PROP_INIT(LV_STYLE_TRANSFORM_HEIGHT,   0x0, LV_STYLE_ID_VALUE + 5, LV_STYLE_ATTR_NONE)
 101:lvgl\src\lv_core/lv_style.h ****     LV_STYLE_PROP_INIT(LV_STYLE_TRANSFORM_ANGLE,    0x0, LV_STYLE_ID_VALUE + 6, LV_STYLE_ATTR_NONE)
 102:lvgl\src\lv_core/lv_style.h ****     LV_STYLE_PROP_INIT(LV_STYLE_TRANSFORM_ZOOM,     0x0, LV_STYLE_ID_VALUE + 7, LV_STYLE_ATTR_NONE)
 103:lvgl\src\lv_core/lv_style.h ****     LV_STYLE_PROP_INIT(LV_STYLE_OPA_SCALE,          0x0, LV_STYLE_ID_OPA + 0,   LV_STYLE_ATTR_INHER
 104:lvgl\src\lv_core/lv_style.h **** 
 105:lvgl\src\lv_core/lv_style.h ****     LV_STYLE_PROP_INIT(LV_STYLE_PAD_TOP,            0x1, LV_STYLE_ID_VALUE + 0, LV_STYLE_ATTR_NONE)
 106:lvgl\src\lv_core/lv_style.h ****     LV_STYLE_PROP_INIT(LV_STYLE_PAD_BOTTOM,         0x1, LV_STYLE_ID_VALUE + 1, LV_STYLE_ATTR_NONE)
 107:lvgl\src\lv_core/lv_style.h ****     LV_STYLE_PROP_INIT(LV_STYLE_PAD_LEFT,           0x1, LV_STYLE_ID_VALUE + 2, LV_STYLE_ATTR_NONE)
 108:lvgl\src\lv_core/lv_style.h ****     LV_STYLE_PROP_INIT(LV_STYLE_PAD_RIGHT,          0x1, LV_STYLE_ID_VALUE + 3, LV_STYLE_ATTR_NONE)
 109:lvgl\src\lv_core/lv_style.h ****     LV_STYLE_PROP_INIT(LV_STYLE_PAD_INNER,          0x1, LV_STYLE_ID_VALUE + 4, LV_STYLE_ATTR_NONE)
 110:lvgl\src\lv_core/lv_style.h ****     LV_STYLE_PROP_INIT(LV_STYLE_MARGIN_TOP,         0x1, LV_STYLE_ID_VALUE + 5, LV_STYLE_ATTR_NONE)
 111:lvgl\src\lv_core/lv_style.h ****     LV_STYLE_PROP_INIT(LV_STYLE_MARGIN_BOTTOM,      0x1, LV_STYLE_ID_VALUE + 6, LV_STYLE_ATTR_NONE)
 112:lvgl\src\lv_core/lv_style.h ****     LV_STYLE_PROP_INIT(LV_STYLE_MARGIN_LEFT,        0x1, LV_STYLE_ID_VALUE + 7, LV_STYLE_ATTR_NONE)
 113:lvgl\src\lv_core/lv_style.h ****     LV_STYLE_PROP_INIT(LV_STYLE_MARGIN_RIGHT,       0x1, LV_STYLE_ID_VALUE + 8, LV_STYLE_ATTR_NONE)
 114:lvgl\src\lv_core/lv_style.h **** 
 115:lvgl\src\lv_core/lv_style.h ****     LV_STYLE_PROP_INIT(LV_STYLE_BG_BLEND_MODE,      0x2, LV_STYLE_ID_VALUE + 0, LV_STYLE_ATTR_NONE)
 116:lvgl\src\lv_core/lv_style.h ****     LV_STYLE_PROP_INIT(LV_STYLE_BG_MAIN_STOP,       0x2, LV_STYLE_ID_VALUE + 1, LV_STYLE_ATTR_NONE)
 117:lvgl\src\lv_core/lv_style.h ****     LV_STYLE_PROP_INIT(LV_STYLE_BG_GRAD_STOP,       0x2, LV_STYLE_ID_VALUE + 2, LV_STYLE_ATTR_NONE)
 118:lvgl\src\lv_core/lv_style.h ****     LV_STYLE_PROP_INIT(LV_STYLE_BG_GRAD_DIR,        0x2, LV_STYLE_ID_VALUE + 3, LV_STYLE_ATTR_NONE)
 119:lvgl\src\lv_core/lv_style.h ****     LV_STYLE_PROP_INIT(LV_STYLE_BG_COLOR,           0x2, LV_STYLE_ID_COLOR + 0, LV_STYLE_ATTR_NONE)
 120:lvgl\src\lv_core/lv_style.h ****     LV_STYLE_PROP_INIT(LV_STYLE_BG_GRAD_COLOR,      0x2, LV_STYLE_ID_COLOR + 1, LV_STYLE_ATTR_NONE)
 121:lvgl\src\lv_core/lv_style.h ****     LV_STYLE_PROP_INIT(LV_STYLE_BG_OPA,             0x2, LV_STYLE_ID_OPA   + 0, LV_STYLE_ATTR_NONE)
 122:lvgl\src\lv_core/lv_style.h **** 
 123:lvgl\src\lv_core/lv_style.h ****     LV_STYLE_PROP_INIT(LV_STYLE_BORDER_WIDTH,       0x3, LV_STYLE_ID_VALUE + 0, LV_STYLE_ATTR_NONE)
 124:lvgl\src\lv_core/lv_style.h ****     LV_STYLE_PROP_INIT(LV_STYLE_BORDER_SIDE,        0x3, LV_STYLE_ID_VALUE + 1, LV_STYLE_ATTR_NONE)
 125:lvgl\src\lv_core/lv_style.h ****     LV_STYLE_PROP_INIT(LV_STYLE_BORDER_BLEND_MODE,  0x3, LV_STYLE_ID_VALUE + 2, LV_STYLE_ATTR_NONE)
 126:lvgl\src\lv_core/lv_style.h ****     LV_STYLE_PROP_INIT(LV_STYLE_BORDER_POST,        0x3, LV_STYLE_ID_VALUE + 3, LV_STYLE_ATTR_NONE)
 127:lvgl\src\lv_core/lv_style.h ****     LV_STYLE_PROP_INIT(LV_STYLE_BORDER_COLOR,       0x3, LV_STYLE_ID_COLOR + 0, LV_STYLE_ATTR_NONE)
 128:lvgl\src\lv_core/lv_style.h ****     LV_STYLE_PROP_INIT(LV_STYLE_BORDER_OPA,         0x3, LV_STYLE_ID_OPA   + 0, LV_STYLE_ATTR_NONE)
ARM GAS  C:\Users\strap\AppData\Local\Temp\cc7bAV43.s 			page 30


 129:lvgl\src\lv_core/lv_style.h **** 
 130:lvgl\src\lv_core/lv_style.h ****     LV_STYLE_PROP_INIT(LV_STYLE_OUTLINE_WIDTH,       0x4, LV_STYLE_ID_VALUE + 0, LV_STYLE_ATTR_NONE
 131:lvgl\src\lv_core/lv_style.h ****     LV_STYLE_PROP_INIT(LV_STYLE_OUTLINE_PAD,         0x4, LV_STYLE_ID_VALUE + 1, LV_STYLE_ATTR_NONE
 132:lvgl\src\lv_core/lv_style.h ****     LV_STYLE_PROP_INIT(LV_STYLE_OUTLINE_BLEND_MODE,  0x4, LV_STYLE_ID_VALUE + 2, LV_STYLE_ATTR_NONE
 133:lvgl\src\lv_core/lv_style.h ****     LV_STYLE_PROP_INIT(LV_STYLE_OUTLINE_COLOR,       0x4, LV_STYLE_ID_COLOR + 0, LV_STYLE_ATTR_NONE
 134:lvgl\src\lv_core/lv_style.h ****     LV_STYLE_PROP_INIT(LV_STYLE_OUTLINE_OPA,         0x4, LV_STYLE_ID_OPA   + 0, LV_STYLE_ATTR_NONE
 135:lvgl\src\lv_core/lv_style.h **** 
 136:lvgl\src\lv_core/lv_style.h ****     LV_STYLE_PROP_INIT(LV_STYLE_SHADOW_WIDTH,       0x5, LV_STYLE_ID_VALUE + 0, LV_STYLE_ATTR_NONE)
 137:lvgl\src\lv_core/lv_style.h ****     LV_STYLE_PROP_INIT(LV_STYLE_SHADOW_OFS_X,       0x5, LV_STYLE_ID_VALUE + 1, LV_STYLE_ATTR_NONE)
 138:lvgl\src\lv_core/lv_style.h ****     LV_STYLE_PROP_INIT(LV_STYLE_SHADOW_OFS_Y,       0x5, LV_STYLE_ID_VALUE + 2, LV_STYLE_ATTR_NONE)
 139:lvgl\src\lv_core/lv_style.h ****     LV_STYLE_PROP_INIT(LV_STYLE_SHADOW_SPREAD,      0x5, LV_STYLE_ID_VALUE + 3, LV_STYLE_ATTR_NONE)
 140:lvgl\src\lv_core/lv_style.h ****     LV_STYLE_PROP_INIT(LV_STYLE_SHADOW_BLEND_MODE,  0x5, LV_STYLE_ID_VALUE + 4, LV_STYLE_ATTR_NONE)
 141:lvgl\src\lv_core/lv_style.h ****     LV_STYLE_PROP_INIT(LV_STYLE_SHADOW_COLOR,       0x5, LV_STYLE_ID_COLOR + 0, LV_STYLE_ATTR_NONE)
 142:lvgl\src\lv_core/lv_style.h ****     LV_STYLE_PROP_INIT(LV_STYLE_SHADOW_OPA,         0x5, LV_STYLE_ID_OPA   + 0, LV_STYLE_ATTR_NONE)
 143:lvgl\src\lv_core/lv_style.h **** 
 144:lvgl\src\lv_core/lv_style.h ****     LV_STYLE_PROP_INIT(LV_STYLE_PATTERN_BLEND_MODE,    0x6, LV_STYLE_ID_VALUE + 0, LV_STYLE_ATTR_NO
 145:lvgl\src\lv_core/lv_style.h ****     LV_STYLE_PROP_INIT(LV_STYLE_PATTERN_REPEAT,        0x6, LV_STYLE_ID_VALUE + 1, LV_STYLE_ATTR_NO
 146:lvgl\src\lv_core/lv_style.h ****     LV_STYLE_PROP_INIT(LV_STYLE_PATTERN_RECOLOR,       0x6, LV_STYLE_ID_COLOR + 0, LV_STYLE_ATTR_NO
 147:lvgl\src\lv_core/lv_style.h ****     LV_STYLE_PROP_INIT(LV_STYLE_PATTERN_OPA,           0x6, LV_STYLE_ID_OPA   + 0, LV_STYLE_ATTR_NO
 148:lvgl\src\lv_core/lv_style.h ****     LV_STYLE_PROP_INIT(LV_STYLE_PATTERN_RECOLOR_OPA,   0x6, LV_STYLE_ID_OPA   + 1, LV_STYLE_ATTR_NO
 149:lvgl\src\lv_core/lv_style.h ****     LV_STYLE_PROP_INIT(LV_STYLE_PATTERN_IMAGE,         0x6, LV_STYLE_ID_PTR   + 0, LV_STYLE_ATTR_NO
 150:lvgl\src\lv_core/lv_style.h **** 
 151:lvgl\src\lv_core/lv_style.h ****     LV_STYLE_PROP_INIT(LV_STYLE_VALUE_LETTER_SPACE,  0x7, LV_STYLE_ID_VALUE + 0, LV_STYLE_ATTR_NONE
 152:lvgl\src\lv_core/lv_style.h ****     LV_STYLE_PROP_INIT(LV_STYLE_VALUE_LINE_SPACE,    0x7, LV_STYLE_ID_VALUE + 1, LV_STYLE_ATTR_NONE
 153:lvgl\src\lv_core/lv_style.h ****     LV_STYLE_PROP_INIT(LV_STYLE_VALUE_BLEND_MODE,    0x7, LV_STYLE_ID_VALUE + 2, LV_STYLE_ATTR_NONE
 154:lvgl\src\lv_core/lv_style.h ****     LV_STYLE_PROP_INIT(LV_STYLE_VALUE_OFS_X,         0x7, LV_STYLE_ID_VALUE + 3, LV_STYLE_ATTR_NONE
 155:lvgl\src\lv_core/lv_style.h ****     LV_STYLE_PROP_INIT(LV_STYLE_VALUE_OFS_Y,         0x7, LV_STYLE_ID_VALUE + 4, LV_STYLE_ATTR_NONE
 156:lvgl\src\lv_core/lv_style.h ****     LV_STYLE_PROP_INIT(LV_STYLE_VALUE_ALIGN,         0x7, LV_STYLE_ID_VALUE + 5, LV_STYLE_ATTR_NONE
 157:lvgl\src\lv_core/lv_style.h ****     LV_STYLE_PROP_INIT(LV_STYLE_VALUE_COLOR,         0x7, LV_STYLE_ID_COLOR + 0, LV_STYLE_ATTR_NONE
 158:lvgl\src\lv_core/lv_style.h ****     LV_STYLE_PROP_INIT(LV_STYLE_VALUE_OPA,           0x7, LV_STYLE_ID_OPA   + 0, LV_STYLE_ATTR_NONE
 159:lvgl\src\lv_core/lv_style.h ****     LV_STYLE_PROP_INIT(LV_STYLE_VALUE_FONT,          0x7, LV_STYLE_ID_PTR   + 0, LV_STYLE_ATTR_NONE
 160:lvgl\src\lv_core/lv_style.h ****     LV_STYLE_PROP_INIT(LV_STYLE_VALUE_STR,           0x7, LV_STYLE_ID_PTR   + 1, LV_STYLE_ATTR_NONE
 161:lvgl\src\lv_core/lv_style.h **** 
 162:lvgl\src\lv_core/lv_style.h ****     LV_STYLE_PROP_INIT(LV_STYLE_TEXT_LETTER_SPACE,   0x8, LV_STYLE_ID_VALUE + 0, LV_STYLE_ATTR_INHE
 163:lvgl\src\lv_core/lv_style.h ****     LV_STYLE_PROP_INIT(LV_STYLE_TEXT_LINE_SPACE,     0x8, LV_STYLE_ID_VALUE + 1, LV_STYLE_ATTR_INHE
 164:lvgl\src\lv_core/lv_style.h ****     LV_STYLE_PROP_INIT(LV_STYLE_TEXT_DECOR,          0x8, LV_STYLE_ID_VALUE + 2, LV_STYLE_ATTR_INHE
 165:lvgl\src\lv_core/lv_style.h ****     LV_STYLE_PROP_INIT(LV_STYLE_TEXT_BLEND_MODE,     0x8, LV_STYLE_ID_VALUE + 3, LV_STYLE_ATTR_INHE
 166:lvgl\src\lv_core/lv_style.h ****     LV_STYLE_PROP_INIT(LV_STYLE_TEXT_COLOR,          0x8, LV_STYLE_ID_COLOR + 0, LV_STYLE_ATTR_INHE
 167:lvgl\src\lv_core/lv_style.h ****     LV_STYLE_PROP_INIT(LV_STYLE_TEXT_SEL_COLOR,      0x8, LV_STYLE_ID_COLOR + 1, LV_STYLE_ATTR_INHE
 168:lvgl\src\lv_core/lv_style.h ****     LV_STYLE_PROP_INIT(LV_STYLE_TEXT_SEL_BG_COLOR,   0x8, LV_STYLE_ID_COLOR + 2, LV_STYLE_ATTR_INHE
 169:lvgl\src\lv_core/lv_style.h ****     LV_STYLE_PROP_INIT(LV_STYLE_TEXT_OPA,            0x8, LV_STYLE_ID_OPA   + 0, LV_STYLE_ATTR_INHE
 170:lvgl\src\lv_core/lv_style.h ****     LV_STYLE_PROP_INIT(LV_STYLE_TEXT_FONT,           0x8, LV_STYLE_ID_PTR   + 0, LV_STYLE_ATTR_INHE
 171:lvgl\src\lv_core/lv_style.h **** 
 172:lvgl\src\lv_core/lv_style.h ****     LV_STYLE_PROP_INIT(LV_STYLE_LINE_WIDTH,         0x9, LV_STYLE_ID_VALUE + 0, LV_STYLE_ATTR_NONE)
 173:lvgl\src\lv_core/lv_style.h ****     LV_STYLE_PROP_INIT(LV_STYLE_LINE_BLEND_MODE,    0x9, LV_STYLE_ID_VALUE + 1, LV_STYLE_ATTR_NONE)
 174:lvgl\src\lv_core/lv_style.h ****     LV_STYLE_PROP_INIT(LV_STYLE_LINE_DASH_WIDTH,    0x9, LV_STYLE_ID_VALUE + 2, LV_STYLE_ATTR_NONE)
 175:lvgl\src\lv_core/lv_style.h ****     LV_STYLE_PROP_INIT(LV_STYLE_LINE_DASH_GAP,      0x9, LV_STYLE_ID_VALUE + 3, LV_STYLE_ATTR_NONE)
 176:lvgl\src\lv_core/lv_style.h ****     LV_STYLE_PROP_INIT(LV_STYLE_LINE_ROUNDED,       0x9, LV_STYLE_ID_VALUE + 4, LV_STYLE_ATTR_NONE)
 177:lvgl\src\lv_core/lv_style.h ****     LV_STYLE_PROP_INIT(LV_STYLE_LINE_COLOR,         0x9, LV_STYLE_ID_COLOR + 0, LV_STYLE_ATTR_NONE)
 178:lvgl\src\lv_core/lv_style.h ****     LV_STYLE_PROP_INIT(LV_STYLE_LINE_OPA,           0x9, LV_STYLE_ID_OPA   + 0, LV_STYLE_ATTR_NONE)
 179:lvgl\src\lv_core/lv_style.h **** 
 180:lvgl\src\lv_core/lv_style.h ****     LV_STYLE_PROP_INIT(LV_STYLE_IMAGE_BLEND_MODE,   0xA, LV_STYLE_ID_VALUE + 0, LV_STYLE_ATTR_INHER
 181:lvgl\src\lv_core/lv_style.h ****     LV_STYLE_PROP_INIT(LV_STYLE_IMAGE_RECOLOR,      0xA, LV_STYLE_ID_COLOR + 0, LV_STYLE_ATTR_INHER
 182:lvgl\src\lv_core/lv_style.h ****     LV_STYLE_PROP_INIT(LV_STYLE_IMAGE_OPA,          0xA, LV_STYLE_ID_OPA   + 0, LV_STYLE_ATTR_INHER
 183:lvgl\src\lv_core/lv_style.h ****     LV_STYLE_PROP_INIT(LV_STYLE_IMAGE_RECOLOR_OPA,  0xA, LV_STYLE_ID_OPA   + 1, LV_STYLE_ATTR_INHER
 184:lvgl\src\lv_core/lv_style.h **** 
 185:lvgl\src\lv_core/lv_style.h ****     LV_STYLE_PROP_INIT(LV_STYLE_TRANSITION_TIME,    0xB, LV_STYLE_ID_VALUE + 0, LV_STYLE_ATTR_NONE)
ARM GAS  C:\Users\strap\AppData\Local\Temp\cc7bAV43.s 			page 31


 186:lvgl\src\lv_core/lv_style.h ****     LV_STYLE_PROP_INIT(LV_STYLE_TRANSITION_DELAY,   0xB, LV_STYLE_ID_VALUE + 1, LV_STYLE_ATTR_NONE)
 187:lvgl\src\lv_core/lv_style.h ****     LV_STYLE_PROP_INIT(LV_STYLE_TRANSITION_PROP_1,  0xB, LV_STYLE_ID_VALUE + 2, LV_STYLE_ATTR_NONE)
 188:lvgl\src\lv_core/lv_style.h ****     LV_STYLE_PROP_INIT(LV_STYLE_TRANSITION_PROP_2,  0xB, LV_STYLE_ID_VALUE + 3, LV_STYLE_ATTR_NONE)
 189:lvgl\src\lv_core/lv_style.h ****     LV_STYLE_PROP_INIT(LV_STYLE_TRANSITION_PROP_3,  0xB, LV_STYLE_ID_VALUE + 4, LV_STYLE_ATTR_NONE)
 190:lvgl\src\lv_core/lv_style.h ****     LV_STYLE_PROP_INIT(LV_STYLE_TRANSITION_PROP_4,  0xB, LV_STYLE_ID_VALUE + 5, LV_STYLE_ATTR_NONE)
 191:lvgl\src\lv_core/lv_style.h ****     LV_STYLE_PROP_INIT(LV_STYLE_TRANSITION_PROP_5,  0xB, LV_STYLE_ID_VALUE + 6, LV_STYLE_ATTR_NONE)
 192:lvgl\src\lv_core/lv_style.h ****     LV_STYLE_PROP_INIT(LV_STYLE_TRANSITION_PROP_6,  0xB, LV_STYLE_ID_VALUE + 7, LV_STYLE_ATTR_NONE)
 193:lvgl\src\lv_core/lv_style.h ****     LV_STYLE_PROP_INIT(LV_STYLE_TRANSITION_PATH,    0xB, LV_STYLE_ID_PTR + 0, LV_STYLE_ATTR_NONE),
 194:lvgl\src\lv_core/lv_style.h **** 
 195:lvgl\src\lv_core/lv_style.h ****     LV_STYLE_PROP_INIT(LV_STYLE_SCALE_WIDTH,            0xC, LV_STYLE_ID_VALUE + 0, LV_STYLE_ATTR_N
 196:lvgl\src\lv_core/lv_style.h ****     LV_STYLE_PROP_INIT(LV_STYLE_SCALE_BORDER_WIDTH,     0xC, LV_STYLE_ID_VALUE + 1, LV_STYLE_ATTR_N
 197:lvgl\src\lv_core/lv_style.h ****     LV_STYLE_PROP_INIT(LV_STYLE_SCALE_END_BORDER_WIDTH, 0xC, LV_STYLE_ID_VALUE + 2, LV_STYLE_ATTR_N
 198:lvgl\src\lv_core/lv_style.h ****     LV_STYLE_PROP_INIT(LV_STYLE_SCALE_END_LINE_WIDTH,   0xC, LV_STYLE_ID_VALUE + 3, LV_STYLE_ATTR_N
 199:lvgl\src\lv_core/lv_style.h ****     LV_STYLE_PROP_INIT(LV_STYLE_SCALE_GRAD_COLOR,       0xC, LV_STYLE_ID_COLOR + 0, LV_STYLE_ATTR_N
 200:lvgl\src\lv_core/lv_style.h ****     LV_STYLE_PROP_INIT(LV_STYLE_SCALE_END_COLOR,        0xC, LV_STYLE_ID_COLOR + 1, LV_STYLE_ATTR_N
 201:lvgl\src\lv_core/lv_style.h **** };
 202:lvgl\src\lv_core/lv_style.h **** 
 203:lvgl\src\lv_core/lv_style.h **** typedef uint16_t lv_style_property_t;
 204:lvgl\src\lv_core/lv_style.h **** 
 205:lvgl\src\lv_core/lv_style.h **** #define LV_STYLE_STATE_POS       8
 206:lvgl\src\lv_core/lv_style.h **** #define LV_STYLE_STATE_MASK      0x7F00
 207:lvgl\src\lv_core/lv_style.h **** #define LV_STYLE_INHERIT_MASK    0x8000
 208:lvgl\src\lv_core/lv_style.h **** 
 209:lvgl\src\lv_core/lv_style.h **** typedef uint16_t lv_style_state_t;
 210:lvgl\src\lv_core/lv_style.h **** 
 211:lvgl\src\lv_core/lv_style.h **** typedef struct {
 212:lvgl\src\lv_core/lv_style.h ****     uint8_t * map;
 213:lvgl\src\lv_core/lv_style.h **** #if LV_USE_ASSERT_STYLE
 214:lvgl\src\lv_core/lv_style.h ****     uint32_t sentinel;
 215:lvgl\src\lv_core/lv_style.h **** #endif
 216:lvgl\src\lv_core/lv_style.h **** } lv_style_t;
 217:lvgl\src\lv_core/lv_style.h **** 
 218:lvgl\src\lv_core/lv_style.h **** typedef int16_t lv_style_int_t;
 219:lvgl\src\lv_core/lv_style.h **** 
 220:lvgl\src\lv_core/lv_style.h **** typedef struct {
 221:lvgl\src\lv_core/lv_style.h ****     lv_style_t ** style_list;
 222:lvgl\src\lv_core/lv_style.h **** #if LV_USE_ASSERT_STYLE
 223:lvgl\src\lv_core/lv_style.h ****     uint32_t sentinel;
 224:lvgl\src\lv_core/lv_style.h **** #endif
 225:lvgl\src\lv_core/lv_style.h ****     uint32_t style_cnt     : 6;
 226:lvgl\src\lv_core/lv_style.h ****     uint32_t has_local     : 1;
 227:lvgl\src\lv_core/lv_style.h ****     uint32_t has_trans     : 1;
 228:lvgl\src\lv_core/lv_style.h ****     uint32_t skip_trans    : 1;      /*1: Temporally skip the transition style if any*/
 229:lvgl\src\lv_core/lv_style.h ****     uint32_t ignore_trans  : 1;      /*1: Mark that this style list shouldn't receive transitions a
 230:lvgl\src\lv_core/lv_style.h ****     uint32_t valid_cache   : 1;      /*1: The cache is valid and can be used*/
 231:lvgl\src\lv_core/lv_style.h ****     uint32_t ignore_cache  : 1;      /*1: Ignore cache while getting value of properties*/
 232:lvgl\src\lv_core/lv_style.h **** 
 233:lvgl\src\lv_core/lv_style.h ****     uint32_t radius_zero : 1;
 234:lvgl\src\lv_core/lv_style.h ****     uint32_t opa_scale_cover      : 1;
 235:lvgl\src\lv_core/lv_style.h ****     uint32_t clip_corner_off       : 1;
 236:lvgl\src\lv_core/lv_style.h ****     uint32_t transform_all_zero  : 1;
 237:lvgl\src\lv_core/lv_style.h ****     uint32_t pad_all_zero : 1;
 238:lvgl\src\lv_core/lv_style.h ****     uint32_t margin_all_zero : 1;
 239:lvgl\src\lv_core/lv_style.h ****     uint32_t blend_mode_all_normal : 1;
 240:lvgl\src\lv_core/lv_style.h ****     uint32_t bg_opa_transp : 1;
 241:lvgl\src\lv_core/lv_style.h ****     uint32_t bg_opa_cover : 1;
 242:lvgl\src\lv_core/lv_style.h **** 
ARM GAS  C:\Users\strap\AppData\Local\Temp\cc7bAV43.s 			page 32


 243:lvgl\src\lv_core/lv_style.h ****     uint32_t border_width_zero : 1;
 244:lvgl\src\lv_core/lv_style.h ****     uint32_t border_side_full : 1;
 245:lvgl\src\lv_core/lv_style.h ****     uint32_t border_post_off : 1;
 246:lvgl\src\lv_core/lv_style.h **** 
 247:lvgl\src\lv_core/lv_style.h ****     uint32_t outline_width_zero : 1;
 248:lvgl\src\lv_core/lv_style.h ****     uint32_t pattern_img_null : 1;
 249:lvgl\src\lv_core/lv_style.h ****     uint32_t shadow_width_zero : 1;
 250:lvgl\src\lv_core/lv_style.h ****     uint32_t value_txt_str : 1;
 251:lvgl\src\lv_core/lv_style.h ****     uint32_t img_recolor_opa_transp : 1;
 252:lvgl\src\lv_core/lv_style.h **** 
 253:lvgl\src\lv_core/lv_style.h ****     uint32_t text_space_zero : 1;
 254:lvgl\src\lv_core/lv_style.h ****     uint32_t text_decor_none : 1;
 255:lvgl\src\lv_core/lv_style.h ****     uint32_t text_font_normal : 1;
 256:lvgl\src\lv_core/lv_style.h **** } lv_style_list_t;
 257:lvgl\src\lv_core/lv_style.h **** 
 258:lvgl\src\lv_core/lv_style.h **** /**********************
 259:lvgl\src\lv_core/lv_style.h ****  * GLOBAL PROTOTYPES
 260:lvgl\src\lv_core/lv_style.h ****  **********************/
 261:lvgl\src\lv_core/lv_style.h **** 
 262:lvgl\src\lv_core/lv_style.h **** /**
 263:lvgl\src\lv_core/lv_style.h ****  * Initialize a style
 264:lvgl\src\lv_core/lv_style.h ****  * @param style pointer to a style to initialize
 265:lvgl\src\lv_core/lv_style.h ****  */
 266:lvgl\src\lv_core/lv_style.h **** void lv_style_init(lv_style_t * style);
 267:lvgl\src\lv_core/lv_style.h **** 
 268:lvgl\src\lv_core/lv_style.h **** /**
 269:lvgl\src\lv_core/lv_style.h ****  * Copy a style with all its properties
 270:lvgl\src\lv_core/lv_style.h ****  * @param style_dest pointer to the destination style. (Should be initialized with `lv_style_init()
 271:lvgl\src\lv_core/lv_style.h ****  * @param style_src pointer to the source (to copy )style
 272:lvgl\src\lv_core/lv_style.h ****  */
 273:lvgl\src\lv_core/lv_style.h **** void lv_style_copy(lv_style_t * style_dest, const lv_style_t * style_src);
 274:lvgl\src\lv_core/lv_style.h **** 
 275:lvgl\src\lv_core/lv_style.h **** /**
 276:lvgl\src\lv_core/lv_style.h ****  * Initialize a style list
 277:lvgl\src\lv_core/lv_style.h ****  * @param list a style list to initialize
 278:lvgl\src\lv_core/lv_style.h ****  */
 279:lvgl\src\lv_core/lv_style.h **** void lv_style_list_init(lv_style_list_t * list);
 280:lvgl\src\lv_core/lv_style.h **** 
 281:lvgl\src\lv_core/lv_style.h **** /**
 282:lvgl\src\lv_core/lv_style.h ****  * Copy a style list with all its styles and local style properties
 283:lvgl\src\lv_core/lv_style.h ****  * @param list_dest pointer to the destination style list. (should be initialized with `lv_style_li
 284:lvgl\src\lv_core/lv_style.h ****  * @param list_src pointer to the source (to copy) style list.
 285:lvgl\src\lv_core/lv_style.h ****  */
 286:lvgl\src\lv_core/lv_style.h **** void lv_style_list_copy(lv_style_list_t * list_dest, const lv_style_list_t * list_src);
 287:lvgl\src\lv_core/lv_style.h **** 
 288:lvgl\src\lv_core/lv_style.h **** /**
 289:lvgl\src\lv_core/lv_style.h ****  * Add a style to a style list.
 290:lvgl\src\lv_core/lv_style.h ****  * Only the the style pointer will be saved so the shouldn't be a local variable.
 291:lvgl\src\lv_core/lv_style.h ****  * (It should be static, global or dynamically allocated)
 292:lvgl\src\lv_core/lv_style.h ****  * @param list pointer to a style list
 293:lvgl\src\lv_core/lv_style.h ****  * @param style pointer to a style to add
 294:lvgl\src\lv_core/lv_style.h ****  */
 295:lvgl\src\lv_core/lv_style.h **** void _lv_style_list_add_style(lv_style_list_t * list, lv_style_t * style);
 296:lvgl\src\lv_core/lv_style.h **** 
 297:lvgl\src\lv_core/lv_style.h **** /**
 298:lvgl\src\lv_core/lv_style.h ****  * Remove a style from a style list
 299:lvgl\src\lv_core/lv_style.h ****  * @param style_list pointer to a style list
ARM GAS  C:\Users\strap\AppData\Local\Temp\cc7bAV43.s 			page 33


 300:lvgl\src\lv_core/lv_style.h ****  * @param style pointer to a style to remove
 301:lvgl\src\lv_core/lv_style.h ****  */
 302:lvgl\src\lv_core/lv_style.h **** void _lv_style_list_remove_style(lv_style_list_t * list, lv_style_t * style);
 303:lvgl\src\lv_core/lv_style.h **** 
 304:lvgl\src\lv_core/lv_style.h **** /**
 305:lvgl\src\lv_core/lv_style.h ****  * Remove all styles added from style list, clear the local style, transition style and free all al
 306:lvgl\src\lv_core/lv_style.h ****  * Leave `ignore_trans` flag as it is.
 307:lvgl\src\lv_core/lv_style.h ****  * @param list pointer to a style list.
 308:lvgl\src\lv_core/lv_style.h ****  */
 309:lvgl\src\lv_core/lv_style.h **** void _lv_style_list_reset(lv_style_list_t * style_list);
 310:lvgl\src\lv_core/lv_style.h **** 
 311:lvgl\src\lv_core/lv_style.h **** static inline lv_style_t * lv_style_list_get_style(lv_style_list_t * list, uint8_t id)
 312:lvgl\src\lv_core/lv_style.h **** {
 313:lvgl\src\lv_core/lv_style.h ****     if(list->has_trans && list->skip_trans) id++;
 391              		.loc 2 313 0 is_stmt 1 discriminator 1
 392 000c 8188     		ldrh	r1, [r0, #4]
 393 000e 01F4C071 		and	r1, r1, #384
 394 0012 B1F5C07F 		cmp	r1, #384
 395 0016 01D1     		bne	.L37
 396              		.loc 2 313 0 is_stmt 0
 397 0018 0133     		adds	r3, r3, #1
 398              	.LVL48:
 399 001a DBB2     		uxtb	r3, r3
 400              	.LVL49:
 401              	.L37:
 314:lvgl\src\lv_core/lv_style.h ****     if(list->style_cnt == 0 || id >= list->style_cnt) return NULL;
 402              		.loc 2 314 0 is_stmt 1
 403 001c 12F03F0F 		tst	r2, #63
 404 0020 08D0     		beq	.L42
 405 0022 0279     		ldrb	r2, [r0, #4]	@ zero_extendqisi2
 406 0024 02F03F02 		and	r2, r2, #63
 407 0028 9342     		cmp	r3, r2
 408 002a 05DA     		bge	.L43
 315:lvgl\src\lv_core/lv_style.h ****     return list->style_list[id];
 409              		.loc 2 315 0
 410 002c 0268     		ldr	r2, [r0]
 411 002e 52F82300 		ldr	r0, [r2, r3, lsl #2]
 412              	.LVL50:
 413 0032 38BD     		pop	{r3, r4, r5, pc}
 414              	.LVL51:
 415              	.L42:
 314:lvgl\src\lv_core/lv_style.h ****     if(list->style_cnt == 0 || id >= list->style_cnt) return NULL;
 416              		.loc 2 314 0
 417 0034 0020     		movs	r0, #0
 418              	.LVL52:
 419 0036 38BD     		pop	{r3, r4, r5, pc}
 420              	.LVL53:
 421              	.L43:
 422 0038 0020     		movs	r0, #0
 423              	.LVL54:
 424              	.LBE142:
 425              	.LBE141:
 426              		.loc 1 1108 0
 427 003a 38BD     		pop	{r3, r4, r5, pc}
 428              	.LVL55:
 429              	.L36:
 430 003c 0546     		mov	r5, r0
ARM GAS  C:\Users\strap\AppData\Local\Temp\cc7bAV43.s 			page 34


1109:lvgl\src\lv_core/lv_style.c **** 
1110:lvgl\src\lv_core/lv_style.c ****     lv_style_t * local_style = lv_mem_alloc(sizeof(lv_style_t));
 431              		.loc 1 1110 0
 432 003e 0420     		movs	r0, #4
 433              	.LVL56:
 434 0040 FFF7FEFF 		bl	lv_mem_alloc
 435              	.LVL57:
 436 0044 0446     		mov	r4, r0
 437              	.LVL58:
1111:lvgl\src\lv_core/lv_style.c ****     LV_ASSERT_MEM(local_style);
 438              		.loc 1 1111 0
 439 0046 FFF7FEFF 		bl	lv_debug_check_null
 440              	.LVL59:
 441 004a 28B9     		cbnz	r0, .L40
 442              		.loc 1 1111 0 is_stmt 0 discriminator 1
 443 004c 2246     		mov	r2, r4
 444 004e 0023     		movs	r3, #0
 445 0050 0948     		ldr	r0, .L46
 446 0052 FFF7FEFF 		bl	lv_debug_log_error
 447              	.LVL60:
 448              	.L41:
 449 0056 FEE7     		b	.L41
 450              	.L40:
1112:lvgl\src\lv_core/lv_style.c ****     if(local_style == NULL) {
 451              		.loc 1 1112 0 is_stmt 1
 452 0058 64B1     		cbz	r4, .L44
1113:lvgl\src\lv_core/lv_style.c ****         LV_LOG_WARN("get_local_style: couldn't create local style");
1114:lvgl\src\lv_core/lv_style.c ****         return NULL;
1115:lvgl\src\lv_core/lv_style.c ****     }
1116:lvgl\src\lv_core/lv_style.c ****     lv_style_init(local_style);
 453              		.loc 1 1116 0
 454 005a 2046     		mov	r0, r4
 455 005c FFF7FEFF 		bl	lv_style_init
 456              	.LVL61:
1117:lvgl\src\lv_core/lv_style.c **** 
1118:lvgl\src\lv_core/lv_style.c ****     /*Add the local style to the first place*/
1119:lvgl\src\lv_core/lv_style.c ****     _lv_style_list_add_style(list, local_style);
 457              		.loc 1 1119 0
 458 0060 2146     		mov	r1, r4
 459 0062 2846     		mov	r0, r5
 460 0064 FFF7FEFF 		bl	_lv_style_list_add_style
 461              	.LVL62:
1120:lvgl\src\lv_core/lv_style.c ****     list->has_local = 1;
 462              		.loc 1 1120 0
 463 0068 2B79     		ldrb	r3, [r5, #4]	@ zero_extendqisi2
 464 006a 43F04003 		orr	r3, r3, #64
 465 006e 2B71     		strb	r3, [r5, #4]
1121:lvgl\src\lv_core/lv_style.c **** 
1122:lvgl\src\lv_core/lv_style.c ****     return local_style;
 466              		.loc 1 1122 0
 467 0070 2046     		mov	r0, r4
 468 0072 38BD     		pop	{r3, r4, r5, pc}
 469              	.LVL63:
 470              	.L44:
1114:lvgl\src\lv_core/lv_style.c ****     }
 471              		.loc 1 1114 0
 472 0074 0020     		movs	r0, #0
ARM GAS  C:\Users\strap\AppData\Local\Temp\cc7bAV43.s 			page 35


1123:lvgl\src\lv_core/lv_style.c **** }
 473              		.loc 1 1123 0
 474 0076 38BD     		pop	{r3, r4, r5, pc}
 475              	.LVL64:
 476              	.L47:
 477              		.align	2
 478              	.L46:
 479 0078 00000000 		.word	.LC0
 480              		.cfi_endproc
 481              	.LFE360:
 482              		.size	get_alloc_local_style, .-get_alloc_local_style
 483              		.section	.text.lv_style_reset,"ax",%progbits
 484              		.align	2
 485              		.global	lv_style_reset
 486              		.thumb
 487              		.thumb_func
 488              		.type	lv_style_reset, %function
 489              	lv_style_reset:
 490              	.LFB336:
 323:lvgl\src\lv_core/lv_style.c ****     LV_ASSERT_STYLE(style);
 491              		.loc 1 323 0
 492              		.cfi_startproc
 493              		@ args = 0, pretend = 0, frame = 0
 494              		@ frame_needed = 0, uses_anonymous_args = 0
 495              	.LVL65:
 496 0000 10B5     		push	{r4, lr}
 497              		.cfi_def_cfa_offset 8
 498              		.cfi_offset 4, -8
 499              		.cfi_offset 14, -4
 500 0002 0446     		mov	r4, r0
 326:lvgl\src\lv_core/lv_style.c ****     style->map = NULL;
 501              		.loc 1 326 0
 502 0004 0068     		ldr	r0, [r0]
 503              	.LVL66:
 504 0006 FFF7FEFF 		bl	lv_mem_free
 505              	.LVL67:
 327:lvgl\src\lv_core/lv_style.c **** }
 506              		.loc 1 327 0
 507 000a 0023     		movs	r3, #0
 508 000c 2360     		str	r3, [r4]
 509 000e 10BD     		pop	{r4, pc}
 510              		.cfi_endproc
 511              	.LFE336:
 512              		.size	lv_style_reset, .-lv_style_reset
 513              		.section	.text._lv_style_get_mem_size,"ax",%progbits
 514              		.align	2
 515              		.global	_lv_style_get_mem_size
 516              		.thumb
 517              		.thumb_func
 518              		.type	_lv_style_get_mem_size, %function
 519              	_lv_style_get_mem_size:
 520              	.LFB337:
 336:lvgl\src\lv_core/lv_style.c ****     LV_ASSERT_STYLE(style);
 521              		.loc 1 336 0
 522              		.cfi_startproc
 523              		@ args = 0, pretend = 0, frame = 8
 524              		@ frame_needed = 0, uses_anonymous_args = 0
ARM GAS  C:\Users\strap\AppData\Local\Temp\cc7bAV43.s 			page 36


 525              		@ link register save eliminated.
 526              	.LVL68:
 339:lvgl\src\lv_core/lv_style.c **** 
 527              		.loc 1 339 0
 528 0000 0368     		ldr	r3, [r0]
 529 0002 03B3     		cbz	r3, .L55
 336:lvgl\src\lv_core/lv_style.c ****     LV_ASSERT_STYLE(style);
 530              		.loc 1 336 0
 531 0004 82B0     		sub	sp, sp, #8
 532              		.cfi_def_cfa_offset 8
 533 0006 0022     		movs	r2, #0
 534 0008 0FE0     		b	.L52
 535              	.LVL69:
 536              	.L54:
 537              	.LBB143:
 538              	.LBB144:
 539              	.LBB145:
 540              	.LBB146:
1124:lvgl\src\lv_core/lv_style.c **** 
1125:lvgl\src\lv_core/lv_style.c **** /**
1126:lvgl\src\lv_core/lv_style.c ****  * Resizes a style map. Useful entry point for debugging.
1127:lvgl\src\lv_core/lv_style.c ****  * @param style pointer to the style to be resized.
1128:lvgl\src\lv_core/lv_style.c ****  * @param size new size
1129:lvgl\src\lv_core/lv_style.c ****  */
1130:lvgl\src\lv_core/lv_style.c **** static inline void style_resize(lv_style_t * style, size_t sz)
1131:lvgl\src\lv_core/lv_style.c **** {
1132:lvgl\src\lv_core/lv_style.c ****     style->map = lv_mem_realloc(style->map, sz);
1133:lvgl\src\lv_core/lv_style.c **** }
1134:lvgl\src\lv_core/lv_style.c **** 
1135:lvgl\src\lv_core/lv_style.c **** /**
1136:lvgl\src\lv_core/lv_style.c ****  * Get style property in index.
1137:lvgl\src\lv_core/lv_style.c ****  * @param style pointer to style.
1138:lvgl\src\lv_core/lv_style.c ****  * @param idx index of the style in style->map
1139:lvgl\src\lv_core/lv_style.c ****  * @return property in style->map + idx
1140:lvgl\src\lv_core/lv_style.c ****  */
1141:lvgl\src\lv_core/lv_style.c **** static inline lv_style_property_t get_style_prop(const lv_style_t * style, size_t idx)
1142:lvgl\src\lv_core/lv_style.c **** {
1143:lvgl\src\lv_core/lv_style.c ****     lv_style_property_t prop;
1144:lvgl\src\lv_core/lv_style.c ****     uint8_t * prop_p = (uint8_t *)&prop;
1145:lvgl\src\lv_core/lv_style.c ****     prop_p[0] = style->map[idx];
1146:lvgl\src\lv_core/lv_style.c ****     prop_p[1] = style->map[idx + 1];
1147:lvgl\src\lv_core/lv_style.c ****     return prop;
1148:lvgl\src\lv_core/lv_style.c **** }
1149:lvgl\src\lv_core/lv_style.c **** 
1150:lvgl\src\lv_core/lv_style.c **** /**
1151:lvgl\src\lv_core/lv_style.c ****  * Get style property id in index.
1152:lvgl\src\lv_core/lv_style.c ****  * @param style pointer to style.
1153:lvgl\src\lv_core/lv_style.c ****  * @param idx index of the style in style->map
1154:lvgl\src\lv_core/lv_style.c ****  * @return id of property in style->map + idx
1155:lvgl\src\lv_core/lv_style.c ****  */
1156:lvgl\src\lv_core/lv_style.c **** static inline uint8_t get_style_prop_id(const lv_style_t * style, size_t idx)
1157:lvgl\src\lv_core/lv_style.c **** {
1158:lvgl\src\lv_core/lv_style.c ****     return get_style_prop(style, idx) & 0xFF;
1159:lvgl\src\lv_core/lv_style.c **** }
1160:lvgl\src\lv_core/lv_style.c **** 
1161:lvgl\src\lv_core/lv_style.c **** /**
1162:lvgl\src\lv_core/lv_style.c ****  * Get style property attributes for index.
ARM GAS  C:\Users\strap\AppData\Local\Temp\cc7bAV43.s 			page 37


1163:lvgl\src\lv_core/lv_style.c ****  * @param style pointer to style.
1164:lvgl\src\lv_core/lv_style.c ****  * @param idx index of the style in style->map
1165:lvgl\src\lv_core/lv_style.c ****  * @return attribute of property in style->map + idx
1166:lvgl\src\lv_core/lv_style.c ****  */
1167:lvgl\src\lv_core/lv_style.c **** static inline uint8_t get_style_prop_attr(const lv_style_t * style, size_t idx)
1168:lvgl\src\lv_core/lv_style.c **** {
1169:lvgl\src\lv_core/lv_style.c ****     return ((get_style_prop(style, idx) >> 8) & 0xFFU);
1170:lvgl\src\lv_core/lv_style.c **** }
1171:lvgl\src\lv_core/lv_style.c **** 
1172:lvgl\src\lv_core/lv_style.c **** 
1173:lvgl\src\lv_core/lv_style.c **** /**
1174:lvgl\src\lv_core/lv_style.c ****  * Get property size.
1175:lvgl\src\lv_core/lv_style.c ****  * @param prop_id property id.
1176:lvgl\src\lv_core/lv_style.c ****  * @param idx index of the style in style->map
1177:lvgl\src\lv_core/lv_style.c ****  * @return attribute of property in style->map + idx
1178:lvgl\src\lv_core/lv_style.c ****  */
1179:lvgl\src\lv_core/lv_style.c **** static inline size_t get_prop_size(uint8_t prop_id)
1180:lvgl\src\lv_core/lv_style.c **** {
1181:lvgl\src\lv_core/lv_style.c ****     prop_id &= 0xF;
 541              		.loc 1 1181 0
 542 000a 03F00F03 		and	r3, r3, #15
 543              	.LVL70:
1182:lvgl\src\lv_core/lv_style.c ****     size_t size = sizeof(lv_style_property_t);
1183:lvgl\src\lv_core/lv_style.c ****     if(prop_id < LV_STYLE_ID_COLOR) size += sizeof(lv_style_int_t);
 544              		.loc 1 1183 0
 545 000e 082B     		cmp	r3, #8
 546 0010 05D9     		bls	.L56
1184:lvgl\src\lv_core/lv_style.c ****     else if(prop_id < LV_STYLE_ID_OPA) size += sizeof(lv_color_t);
 547              		.loc 1 1184 0
 548 0012 0B2B     		cmp	r3, #11
 549 0014 05D9     		bls	.L57
1185:lvgl\src\lv_core/lv_style.c ****     else if(prop_id < LV_STYLE_ID_PTR) size += sizeof(lv_opa_t);
 550              		.loc 1 1185 0
 551 0016 0D2B     		cmp	r3, #13
 552 0018 05D8     		bhi	.L58
 553 001a 0323     		movs	r3, #3
 554              	.LVL71:
 555 001c 04E0     		b	.L53
 556              	.LVL72:
 557              	.L56:
1183:lvgl\src\lv_core/lv_style.c ****     else if(prop_id < LV_STYLE_ID_OPA) size += sizeof(lv_color_t);
 558              		.loc 1 1183 0
 559 001e 0423     		movs	r3, #4
 560              	.LVL73:
 561 0020 02E0     		b	.L53
 562              	.LVL74:
 563              	.L57:
1184:lvgl\src\lv_core/lv_style.c ****     else if(prop_id < LV_STYLE_ID_OPA) size += sizeof(lv_color_t);
 564              		.loc 1 1184 0
 565 0022 0423     		movs	r3, #4
 566              	.LVL75:
 567 0024 00E0     		b	.L53
 568              	.LVL76:
 569              	.L58:
1186:lvgl\src\lv_core/lv_style.c ****     else size += sizeof(const void *);
 570              		.loc 1 1186 0
 571 0026 0623     		movs	r3, #6
ARM GAS  C:\Users\strap\AppData\Local\Temp\cc7bAV43.s 			page 38


 572              	.LVL77:
 573              	.L53:
 574              	.LBE146:
 575              	.LBE145:
1187:lvgl\src\lv_core/lv_style.c ****     return size;
1188:lvgl\src\lv_core/lv_style.c **** }
1189:lvgl\src\lv_core/lv_style.c **** 
1190:lvgl\src\lv_core/lv_style.c **** /**
1191:lvgl\src\lv_core/lv_style.c ****  * Get next property index, given current property and index.
1192:lvgl\src\lv_core/lv_style.c ****  * @param prop_id property id.
1193:lvgl\src\lv_core/lv_style.c ****  * @param idx index of the style in style->map
1194:lvgl\src\lv_core/lv_style.c ****  * @return index of next property in style->map
1195:lvgl\src\lv_core/lv_style.c ****  */
1196:lvgl\src\lv_core/lv_style.c **** static inline size_t get_next_prop_index(uint8_t prop_id, size_t idx)
1197:lvgl\src\lv_core/lv_style.c **** {
1198:lvgl\src\lv_core/lv_style.c ****     return idx + get_prop_size(prop_id);
 576              		.loc 1 1198 0
 577 0028 1A44     		add	r2, r2, r3
 578              	.LVL78:
 579              	.L52:
 580              	.LBE144:
 581              	.LBE143:
 582              	.LBB147:
 583              	.LBB148:
 584              	.LBB149:
 585              	.LBB150:
1145:lvgl\src\lv_core/lv_style.c ****     prop_p[1] = style->map[idx + 1];
 586              		.loc 1 1145 0
 587 002a 0368     		ldr	r3, [r0]
 588 002c 995C     		ldrb	r1, [r3, r2]	@ zero_extendqisi2
 589 002e 8DF80610 		strb	r1, [sp, #6]
1146:lvgl\src\lv_core/lv_style.c ****     return prop;
 590              		.loc 1 1146 0
 591 0032 1344     		add	r3, r3, r2
 592 0034 5B78     		ldrb	r3, [r3, #1]	@ zero_extendqisi2
 593 0036 8DF80730 		strb	r3, [sp, #7]
 594              	.LVL79:
 595              	.LBE150:
 596              	.LBE149:
1158:lvgl\src\lv_core/lv_style.c **** }
 597              		.loc 1 1158 0
 598 003a CBB2     		uxtb	r3, r1
 599              	.LVL80:
 600              	.LBE148:
 601              	.LBE147:
 343:lvgl\src\lv_core/lv_style.c ****         i = get_next_prop_index(prop_id, i);
 602              		.loc 1 343 0
 603 003c FF2B     		cmp	r3, #255
 604 003e E4D1     		bne	.L54
 347:lvgl\src\lv_core/lv_style.c **** }
 605              		.loc 1 347 0
 606 0040 901C     		adds	r0, r2, #2
 607              	.LVL81:
 608 0042 80B2     		uxth	r0, r0
 609 0044 01E0     		b	.L51
 610              	.LVL82:
 611              	.L55:
ARM GAS  C:\Users\strap\AppData\Local\Temp\cc7bAV43.s 			page 39


 612              		.cfi_def_cfa_offset 0
 339:lvgl\src\lv_core/lv_style.c **** 
 613              		.loc 1 339 0
 614 0046 0020     		movs	r0, #0
 615              	.LVL83:
 616 0048 7047     		bx	lr
 617              	.LVL84:
 618              	.L51:
 619              		.cfi_def_cfa_offset 8
 348:lvgl\src\lv_core/lv_style.c **** 
 620              		.loc 1 348 0
 621 004a 02B0     		add	sp, sp, #8
 622              		.cfi_def_cfa_offset 0
 623              	.LVL85:
 624              		@ sp needed
 625 004c 7047     		bx	lr
 626              		.cfi_endproc
 627              	.LFE337:
 628              		.size	_lv_style_get_mem_size, .-_lv_style_get_mem_size
 629 004e 00BF     		.section	.text.lv_style_copy,"ax",%progbits
 630              		.align	2
 631              		.global	lv_style_copy
 632              		.thumb
 633              		.thumb_func
 634              		.type	lv_style_copy, %function
 635              	lv_style_copy:
 636              	.LFB329:
  80:lvgl\src\lv_core/lv_style.c ****     if(style_src == NULL) return;
 637              		.loc 1 80 0
 638              		.cfi_startproc
 639              		@ args = 0, pretend = 0, frame = 0
 640              		@ frame_needed = 0, uses_anonymous_args = 0
 641              	.LVL86:
  81:lvgl\src\lv_core/lv_style.c **** 
 642              		.loc 1 81 0
 643 0000 81B1     		cbz	r1, .L64
  86:lvgl\src\lv_core/lv_style.c **** 
 644              		.loc 1 86 0
 645 0002 0A68     		ldr	r2, [r1]
 646 0004 72B1     		cbz	r2, .L64
  80:lvgl\src\lv_core/lv_style.c ****     if(style_src == NULL) return;
 647              		.loc 1 80 0
 648 0006 70B5     		push	{r4, r5, r6, lr}
 649              		.cfi_def_cfa_offset 16
 650              		.cfi_offset 4, -16
 651              		.cfi_offset 5, -12
 652              		.cfi_offset 6, -8
 653              		.cfi_offset 14, -4
 654 0008 0C46     		mov	r4, r1
 655 000a 0546     		mov	r5, r0
  88:lvgl\src\lv_core/lv_style.c ****     style_dest->map = lv_mem_alloc(size);
 656              		.loc 1 88 0
 657 000c 0846     		mov	r0, r1
 658              	.LVL87:
 659 000e FFF7FEFF 		bl	_lv_style_get_mem_size
 660              	.LVL88:
 661 0012 0646     		mov	r6, r0
ARM GAS  C:\Users\strap\AppData\Local\Temp\cc7bAV43.s 			page 40


 662              	.LVL89:
  89:lvgl\src\lv_core/lv_style.c ****     _lv_memcpy(style_dest->map, style_src->map, size);
 663              		.loc 1 89 0
 664 0014 FFF7FEFF 		bl	lv_mem_alloc
 665              	.LVL90:
 666 0018 2860     		str	r0, [r5]
  90:lvgl\src\lv_core/lv_style.c **** }
 667              		.loc 1 90 0
 668 001a 3246     		mov	r2, r6
 669 001c 2168     		ldr	r1, [r4]
 670 001e FFF7FEFF 		bl	_lv_memcpy
 671              	.LVL91:
 672 0022 70BD     		pop	{r4, r5, r6, pc}
 673              	.LVL92:
 674              	.L64:
 675              		.cfi_def_cfa_offset 0
 676              		.cfi_restore 4
 677              		.cfi_restore 5
 678              		.cfi_restore 6
 679              		.cfi_restore 14
 680 0024 7047     		bx	lr
 681              		.cfi_endproc
 682              	.LFE329:
 683              		.size	lv_style_copy, .-lv_style_copy
 684 0026 00BF     		.section	.text.lv_style_remove_prop,"ax",%progbits
 685              		.align	2
 686              		.global	lv_style_remove_prop
 687              		.thumb
 688              		.thumb_func
 689              		.type	lv_style_remove_prop, %function
 690              	lv_style_remove_prop:
 691              	.LFB330:
 101:lvgl\src\lv_core/lv_style.c ****     if(style == NULL) return false;
 692              		.loc 1 101 0
 693              		.cfi_startproc
 694              		@ args = 0, pretend = 0, frame = 8
 695              		@ frame_needed = 0, uses_anonymous_args = 0
 696              	.LVL93:
 102:lvgl\src\lv_core/lv_style.c ****     LV_ASSERT_STYLE(style);
 697              		.loc 1 102 0
 698 0000 0028     		cmp	r0, #0
 699 0002 00F08580 		beq	.L76
 101:lvgl\src\lv_core/lv_style.c ****     if(style == NULL) return false;
 700              		.loc 1 101 0
 701 0006 2DE9F041 		push	{r4, r5, r6, r7, r8, lr}
 702              		.cfi_def_cfa_offset 24
 703              		.cfi_offset 4, -24
 704              		.cfi_offset 5, -20
 705              		.cfi_offset 6, -16
 706              		.cfi_offset 7, -12
 707              		.cfi_offset 8, -8
 708              		.cfi_offset 14, -4
 709 000a 82B0     		sub	sp, sp, #8
 710              		.cfi_def_cfa_offset 32
 711 000c 0446     		mov	r4, r0
 712              	.LVL94:
 713              	.LBB176:
ARM GAS  C:\Users\strap\AppData\Local\Temp\cc7bAV43.s 			page 41


 714              	.LBB177:
1060:lvgl\src\lv_core/lv_style.c **** 
 715              		.loc 1 1060 0
 716 000e 0368     		ldr	r3, [r0]
 717 0010 002B     		cmp	r3, #0
 718 0012 45D0     		beq	.L77
1062:lvgl\src\lv_core/lv_style.c ****     lv_style_attr_t attr;
 719              		.loc 1 1062 0
 720 0014 CDB2     		uxtb	r5, r1
 721              	.LVL95:
1064:lvgl\src\lv_core/lv_style.c **** 
 722              		.loc 1 1064 0
 723 0016 0E0A     		lsrs	r6, r1, #8
 724              	.LVL96:
1069:lvgl\src\lv_core/lv_style.c **** 
 725              		.loc 1 1069 0
 726 0018 0022     		movs	r2, #0
1067:lvgl\src\lv_core/lv_style.c **** 
 727              		.loc 1 1067 0
 728 001a 4FF0FF37 		mov	r7, #-1
1066:lvgl\src\lv_core/lv_style.c ****     int16_t id_guess = -1;
 729              		.loc 1 1066 0
 730 001e BE46     		mov	lr, r7
 731 0020 31E0     		b	.L68
 732              	.LVL97:
 733              	.L72:
1073:lvgl\src\lv_core/lv_style.c ****             lv_style_attr_t attr_i;
 734              		.loc 1 1073 0
 735 0022 9D42     		cmp	r5, r3
 736 0024 1FD1     		bne	.L69
 737              	.LVL98:
 738              	.LBB178:
 739              	.LBB179:
 740              	.LBB180:
 741              	.LBB181:
 742              	.LBB182:
1145:lvgl\src\lv_core/lv_style.c ****     prop_p[1] = style->map[idx + 1];
 743              		.loc 1 1145 0
 744 0026 D4F800C0 		ldr	ip, [r4]
 745 002a 1CF80280 		ldrb	r8, [ip, r2]	@ zero_extendqisi2
 746 002e 8DF80680 		strb	r8, [sp, #6]
1146:lvgl\src\lv_core/lv_style.c ****     return prop;
 747              		.loc 1 1146 0
 748 0032 1CF80000 		ldrb	r0, [ip, r0]	@ zero_extendqisi2
 749 0036 8DF80700 		strb	r0, [sp, #7]
1147:lvgl\src\lv_core/lv_style.c **** }
 750              		.loc 1 1147 0
 751 003a BDF80600 		ldrh	r0, [sp, #6]
 752              	.LVL99:
 753              	.LBE182:
 754              	.LBE181:
1169:lvgl\src\lv_core/lv_style.c **** }
 755              		.loc 1 1169 0
 756 003e 000A     		lsrs	r0, r0, #8
 757              	.LVL100:
 758              	.LBE180:
 759              	.LBE179:
ARM GAS  C:\Users\strap\AppData\Local\Temp\cc7bAV43.s 			page 42


1078:lvgl\src\lv_core/lv_style.c ****                 return i;
 760              		.loc 1 1078 0
 761 0040 86EA000C 		eor	ip, r6, r0
 762 0044 1CF07F0F 		tst	ip, #127
 763 0048 01D1     		bne	.L70
1079:lvgl\src\lv_core/lv_style.c ****             }
 764              		.loc 1 1079 0
 765 004a 1746     		mov	r7, r2
 766              	.LVL101:
 767 004c 2AE0     		b	.L67
 768              	.LVL102:
 769              	.L70:
 770 004e 00F07F00 		and	r0, r0, #127
1083:lvgl\src\lv_core/lv_style.c ****                 /* Use this property if it describes better the requested state than the current ca
 771              		.loc 1 1083 0
 772 0052 06F07F0C 		and	ip, r6, #127
 773 0056 30EA0C0C 		bics	ip, r0, ip
 774 005a 04D1     		bne	.L69
1086:lvgl\src\lv_core/lv_style.c ****                     weight = LV_STYLE_ATTR_GET_STATE(attr_i);
 775              		.loc 1 1086 0
 776 005c 7045     		cmp	r0, lr
 777 005e 02DD     		ble	.L69
1087:lvgl\src\lv_core/lv_style.c ****                     id_guess = i;
 778              		.loc 1 1087 0
 779 0060 0FFA80FE 		sxth	lr, r0
 780              	.LVL103:
1088:lvgl\src\lv_core/lv_style.c ****                 }
 781              		.loc 1 1088 0
 782 0064 17B2     		sxth	r7, r2
 783              	.LVL104:
 784              	.L69:
 785              	.LBE178:
 786              	.LBB183:
 787              	.LBB184:
 788              	.LBB185:
 789              	.LBB186:
1181:lvgl\src\lv_core/lv_style.c ****     size_t size = sizeof(lv_style_property_t);
 790              		.loc 1 1181 0
 791 0066 03F00F03 		and	r3, r3, #15
 792              	.LVL105:
1183:lvgl\src\lv_core/lv_style.c ****     else if(prop_id < LV_STYLE_ID_OPA) size += sizeof(lv_color_t);
 793              		.loc 1 1183 0
 794 006a 082B     		cmp	r3, #8
 795 006c 05D9     		bls	.L78
1184:lvgl\src\lv_core/lv_style.c ****     else if(prop_id < LV_STYLE_ID_PTR) size += sizeof(lv_opa_t);
 796              		.loc 1 1184 0
 797 006e 0B2B     		cmp	r3, #11
 798 0070 05D9     		bls	.L79
1185:lvgl\src\lv_core/lv_style.c ****     else size += sizeof(const void *);
 799              		.loc 1 1185 0
 800 0072 0D2B     		cmp	r3, #13
 801 0074 05D8     		bhi	.L80
 802 0076 0323     		movs	r3, #3
 803              	.LVL106:
 804 0078 04E0     		b	.L71
 805              	.LVL107:
 806              	.L78:
ARM GAS  C:\Users\strap\AppData\Local\Temp\cc7bAV43.s 			page 43


1183:lvgl\src\lv_core/lv_style.c ****     else if(prop_id < LV_STYLE_ID_OPA) size += sizeof(lv_color_t);
 807              		.loc 1 1183 0
 808 007a 0423     		movs	r3, #4
 809              	.LVL108:
 810 007c 02E0     		b	.L71
 811              	.LVL109:
 812              	.L79:
1184:lvgl\src\lv_core/lv_style.c ****     else if(prop_id < LV_STYLE_ID_PTR) size += sizeof(lv_opa_t);
 813              		.loc 1 1184 0
 814 007e 0423     		movs	r3, #4
 815              	.LVL110:
 816 0080 00E0     		b	.L71
 817              	.LVL111:
 818              	.L80:
1186:lvgl\src\lv_core/lv_style.c ****     return size;
 819              		.loc 1 1186 0
 820 0082 0623     		movs	r3, #6
 821              	.LVL112:
 822              	.L71:
 823              	.LBE186:
 824              	.LBE185:
 825              		.loc 1 1198 0
 826 0084 1A44     		add	r2, r2, r3
 827              	.LVL113:
 828              	.L68:
 829              	.LBE184:
 830              	.LBE183:
 831              	.LBB187:
 832              	.LBB188:
 833              	.LBB189:
 834              	.LBB190:
1145:lvgl\src\lv_core/lv_style.c ****     prop_p[1] = style->map[idx + 1];
 835              		.loc 1 1145 0
 836 0086 2368     		ldr	r3, [r4]
 837 0088 985C     		ldrb	r0, [r3, r2]	@ zero_extendqisi2
 838 008a 8DF80600 		strb	r0, [sp, #6]
1146:lvgl\src\lv_core/lv_style.c ****     return prop;
 839              		.loc 1 1146 0
 840 008e 501C     		adds	r0, r2, #1
 841 0090 1B5C     		ldrb	r3, [r3, r0]	@ zero_extendqisi2
 842 0092 8DF80730 		strb	r3, [sp, #7]
 843              	.LVL114:
 844              	.LBE190:
 845              	.LBE189:
1158:lvgl\src\lv_core/lv_style.c **** }
 846              		.loc 1 1158 0
 847 0096 9DF80630 		ldrb	r3, [sp, #6]	@ zero_extendqisi2
 848              	.LVL115:
 849              	.LBE188:
 850              	.LBE187:
1072:lvgl\src\lv_core/lv_style.c ****         if(prop_id == id_to_find) {
 851              		.loc 1 1072 0
 852 009a FF2B     		cmp	r3, #255
 853 009c C1D1     		bne	.L72
 854 009e 01E0     		b	.L67
 855              	.LVL116:
 856              	.L77:
ARM GAS  C:\Users\strap\AppData\Local\Temp\cc7bAV43.s 			page 44


1060:lvgl\src\lv_core/lv_style.c **** 
 857              		.loc 1 1060 0
 858 00a0 4FF0FF37 		mov	r7, #-1
 859              	.LVL117:
 860              	.L67:
 861              	.LBE177:
 862              	.LBE176:
 107:lvgl\src\lv_core/lv_style.c ****         lv_style_attr_t attr_found;
 863              		.loc 1 107 0
 864 00a4 002F     		cmp	r7, #0
 865 00a6 35DB     		blt	.L81
 866              	.LBB191:
 111:lvgl\src\lv_core/lv_style.c ****         attr_goal = (prop >> 8) & 0xFFU;
 867              		.loc 1 111 0
 868 00a8 3D46     		mov	r5, r7
 869              	.LVL118:
 870              	.LBB192:
 871              	.LBB193:
 872              	.LBB194:
 873              	.LBB195:
1145:lvgl\src\lv_core/lv_style.c ****     prop_p[1] = style->map[idx + 1];
 874              		.loc 1 1145 0
 875 00aa 2268     		ldr	r2, [r4]
 876 00ac D35D     		ldrb	r3, [r2, r7]	@ zero_extendqisi2
 877 00ae 8DF80630 		strb	r3, [sp, #6]
1146:lvgl\src\lv_core/lv_style.c ****     return prop;
 878              		.loc 1 1146 0
 879 00b2 1744     		add	r7, r7, r2
 880 00b4 7B78     		ldrb	r3, [r7, #1]	@ zero_extendqisi2
 881 00b6 8DF80730 		strb	r3, [sp, #7]
1147:lvgl\src\lv_core/lv_style.c **** }
 882              		.loc 1 1147 0
 883 00ba BDF80620 		ldrh	r2, [sp, #6]
 884              	.LVL119:
 885              	.LBE195:
 886              	.LBE194:
 887              	.LBE193:
 888              	.LBE192:
 112:lvgl\src\lv_core/lv_style.c **** 
 889              		.loc 1 112 0
 890 00be 0B0A     		lsrs	r3, r1, #8
 891              	.LVL120:
 114:lvgl\src\lv_core/lv_style.c ****             uint32_t map_size = _lv_style_get_mem_size(style);
 892              		.loc 1 114 0
 893 00c0 83EA1223 		eor	r3, r3, r2, lsr #8
 894              	.LVL121:
 895 00c4 13F07F0F 		tst	r3, #127
 896 00c8 26D1     		bne	.L82
 897 00ca 0E46     		mov	r6, r1
 898              	.LBB196:
 115:lvgl\src\lv_core/lv_style.c ****             uint8_t prop_size = get_prop_size(prop);
 899              		.loc 1 115 0
 900 00cc 2046     		mov	r0, r4
 901 00ce FFF7FEFF 		bl	_lv_style_get_mem_size
 902              	.LVL122:
 903              	.LBB197:
 904              	.LBB198:
ARM GAS  C:\Users\strap\AppData\Local\Temp\cc7bAV43.s 			page 45


1181:lvgl\src\lv_core/lv_style.c ****     size_t size = sizeof(lv_style_property_t);
 905              		.loc 1 1181 0
 906 00d2 06F00F01 		and	r1, r6, #15
 907              	.LVL123:
1183:lvgl\src\lv_core/lv_style.c ****     else if(prop_id < LV_STYLE_ID_OPA) size += sizeof(lv_color_t);
 908              		.loc 1 1183 0
 909 00d6 0829     		cmp	r1, #8
 910 00d8 05D9     		bls	.L83
1184:lvgl\src\lv_core/lv_style.c ****     else if(prop_id < LV_STYLE_ID_PTR) size += sizeof(lv_opa_t);
 911              		.loc 1 1184 0
 912 00da 0B29     		cmp	r1, #11
 913 00dc 05D9     		bls	.L84
1185:lvgl\src\lv_core/lv_style.c ****     else size += sizeof(const void *);
 914              		.loc 1 1185 0
 915 00de 0D29     		cmp	r1, #13
 916 00e0 05D8     		bhi	.L85
 917 00e2 0326     		movs	r6, #3
 918              	.LVL124:
 919 00e4 0AE0     		b	.L74
 920              	.LVL125:
 921              	.L83:
1183:lvgl\src\lv_core/lv_style.c ****     else if(prop_id < LV_STYLE_ID_OPA) size += sizeof(lv_color_t);
 922              		.loc 1 1183 0
 923 00e6 0426     		movs	r6, #4
 924              	.LVL126:
 925 00e8 08E0     		b	.L74
 926              	.LVL127:
 927              	.L84:
1184:lvgl\src\lv_core/lv_style.c ****     else if(prop_id < LV_STYLE_ID_PTR) size += sizeof(lv_opa_t);
 928              		.loc 1 1184 0
 929 00ea 0426     		movs	r6, #4
 930              	.LVL128:
 931 00ec 06E0     		b	.L74
 932              	.LVL129:
 933              	.L85:
1186:lvgl\src\lv_core/lv_style.c ****     return size;
 934              		.loc 1 1186 0
 935 00ee 0626     		movs	r6, #6
 936              	.LVL130:
 937              	.LBE198:
 938              	.LBE197:
 120:lvgl\src\lv_core/lv_style.c ****                 style->map[i] = style->map[i + prop_size];
 939              		.loc 1 120 0
 940 00f0 04E0     		b	.L74
 941              	.LVL131:
 942              	.L75:
 121:lvgl\src\lv_core/lv_style.c ****             }
 943              		.loc 1 121 0 discriminator 3
 944 00f2 2268     		ldr	r2, [r4]
 945 00f4 5119     		adds	r1, r2, r5
 946 00f6 CB5C     		ldrb	r3, [r1, r3]	@ zero_extendqisi2
 947 00f8 5355     		strb	r3, [r2, r5]
 120:lvgl\src\lv_core/lv_style.c ****                 style->map[i] = style->map[i + prop_size];
 948              		.loc 1 120 0 discriminator 3
 949 00fa 0135     		adds	r5, r5, #1
 950              	.LVL132:
 951              	.L74:
ARM GAS  C:\Users\strap\AppData\Local\Temp\cc7bAV43.s 			page 46


 952 00fc F3B2     		uxtb	r3, r6
 120:lvgl\src\lv_core/lv_style.c ****                 style->map[i] = style->map[i + prop_size];
 953              		.loc 1 120 0 is_stmt 0 discriminator 1
 954 00fe C11A     		subs	r1, r0, r3
 955 0100 8D42     		cmp	r5, r1
 956 0102 F6D3     		bcc	.L75
 957              	.LVL133:
 958              	.LBB199:
 959              	.LBB200:
1132:lvgl\src\lv_core/lv_style.c **** }
 960              		.loc 1 1132 0 is_stmt 1
 961 0104 2068     		ldr	r0, [r4]
 962              	.LVL134:
 963 0106 FFF7FEFF 		bl	lv_mem_realloc
 964              	.LVL135:
 965 010a 2060     		str	r0, [r4]
 966              	.LVL136:
 967              	.LBE200:
 968              	.LBE199:
 126:lvgl\src\lv_core/lv_style.c ****         }
 969              		.loc 1 126 0
 970 010c 0120     		movs	r0, #1
 971 010e 04E0     		b	.L66
 972              	.LVL137:
 973              	.L76:
 974              		.cfi_def_cfa_offset 0
 975              		.cfi_restore 4
 976              		.cfi_restore 5
 977              		.cfi_restore 6
 978              		.cfi_restore 7
 979              		.cfi_restore 8
 980              		.cfi_restore 14
 981              	.LBE196:
 982              	.LBE191:
 102:lvgl\src\lv_core/lv_style.c ****     LV_ASSERT_STYLE(style);
 983              		.loc 1 102 0
 984 0110 0020     		movs	r0, #0
 985              	.LVL138:
 131:lvgl\src\lv_core/lv_style.c **** 
 986              		.loc 1 131 0
 987 0112 7047     		bx	lr
 988              	.LVL139:
 989              	.L81:
 990              		.cfi_def_cfa_offset 32
 991              		.cfi_offset 4, -24
 992              		.cfi_offset 5, -20
 993              		.cfi_offset 6, -16
 994              		.cfi_offset 7, -12
 995              		.cfi_offset 8, -8
 996              		.cfi_offset 14, -4
 130:lvgl\src\lv_core/lv_style.c **** }
 997              		.loc 1 130 0
 998 0114 0020     		movs	r0, #0
 999 0116 00E0     		b	.L66
 1000              	.LVL140:
 1001              	.L82:
 1002 0118 0020     		movs	r0, #0
ARM GAS  C:\Users\strap\AppData\Local\Temp\cc7bAV43.s 			page 47


 1003              	.LVL141:
 1004              	.L66:
 131:lvgl\src\lv_core/lv_style.c **** 
 1005              		.loc 1 131 0
 1006 011a 02B0     		add	sp, sp, #8
 1007              		.cfi_def_cfa_offset 24
 1008              		@ sp needed
 1009 011c BDE8F081 		pop	{r4, r5, r6, r7, r8, pc}
 1010              		.cfi_endproc
 1011              	.LFE330:
 1012              		.size	lv_style_remove_prop, .-lv_style_remove_prop
 1013              		.section	.text._lv_style_set_int,"ax",%progbits
 1014              		.align	2
 1015              		.global	_lv_style_set_int
 1016              		.thumb
 1017              		.thumb_func
 1018              		.type	_lv_style_set_int, %function
 1019              	_lv_style_set_int:
 1020              	.LFB338:
 361:lvgl\src\lv_core/lv_style.c ****     LV_ASSERT_STYLE(style);
 1021              		.loc 1 361 0
 1022              		.cfi_startproc
 1023              		@ args = 0, pretend = 0, frame = 16
 1024              		@ frame_needed = 0, uses_anonymous_args = 0
 1025              	.LVL142:
 1026 0000 F0B5     		push	{r4, r5, r6, r7, lr}
 1027              		.cfi_def_cfa_offset 20
 1028              		.cfi_offset 4, -20
 1029              		.cfi_offset 5, -16
 1030              		.cfi_offset 6, -12
 1031              		.cfi_offset 7, -8
 1032              		.cfi_offset 14, -4
 1033 0002 85B0     		sub	sp, sp, #20
 1034              		.cfi_def_cfa_offset 40
 1035 0004 ADF80610 		strh	r1, [sp, #6]	@ movhi
 1036 0008 ADF80420 		strh	r2, [sp, #4]	@ movhi
 1037              	.LVL143:
 1038              	.LBB231:
 1039              	.LBB232:
1060:lvgl\src\lv_core/lv_style.c **** 
 1040              		.loc 1 1060 0
 1041 000c 0368     		ldr	r3, [r0]
 1042 000e 002B     		cmp	r3, #0
 1043 0010 43D0     		beq	.L108
1062:lvgl\src\lv_core/lv_style.c ****     lv_style_attr_t attr;
 1044              		.loc 1 1062 0
 1045 0012 CEB2     		uxtb	r6, r1
 1046              	.LVL144:
1064:lvgl\src\lv_core/lv_style.c **** 
 1047              		.loc 1 1064 0
 1048 0014 0D0A     		lsrs	r5, r1, #8
 1049              	.LVL145:
1069:lvgl\src\lv_core/lv_style.c **** 
 1050              		.loc 1 1069 0
 1051 0016 0022     		movs	r2, #0
 1052              	.LVL146:
1067:lvgl\src\lv_core/lv_style.c **** 
ARM GAS  C:\Users\strap\AppData\Local\Temp\cc7bAV43.s 			page 48


 1053              		.loc 1 1067 0
 1054 0018 4FF0FF34 		mov	r4, #-1
1066:lvgl\src\lv_core/lv_style.c ****     int16_t id_guess = -1;
 1055              		.loc 1 1066 0
 1056 001c 2746     		mov	r7, r4
 1057 001e 2EE0     		b	.L89
 1058              	.LVL147:
 1059              	.L93:
1073:lvgl\src\lv_core/lv_style.c ****             lv_style_attr_t attr_i;
 1060              		.loc 1 1073 0
 1061 0020 9E42     		cmp	r6, r3
 1062 0022 1CD1     		bne	.L90
 1063              	.LVL148:
 1064              	.LBB233:
 1065              	.LBB234:
 1066              	.LBB235:
 1067              	.LBB236:
 1068              	.LBB237:
1145:lvgl\src\lv_core/lv_style.c ****     prop_p[1] = style->map[idx + 1];
 1069              		.loc 1 1145 0
 1070 0024 D0F800E0 		ldr	lr, [r0]
 1071 0028 1EF802C0 		ldrb	ip, [lr, r2]	@ zero_extendqisi2
 1072 002c 8DF80CC0 		strb	ip, [sp, #12]
1146:lvgl\src\lv_core/lv_style.c ****     return prop;
 1073              		.loc 1 1146 0
 1074 0030 1EF80110 		ldrb	r1, [lr, r1]	@ zero_extendqisi2
 1075 0034 8DF80D10 		strb	r1, [sp, #13]
1147:lvgl\src\lv_core/lv_style.c **** }
 1076              		.loc 1 1147 0
 1077 0038 BDF80C10 		ldrh	r1, [sp, #12]
 1078              	.LVL149:
 1079              	.LBE237:
 1080              	.LBE236:
1169:lvgl\src\lv_core/lv_style.c **** }
 1081              		.loc 1 1169 0
 1082 003c 090A     		lsrs	r1, r1, #8
 1083              	.LVL150:
 1084              	.LBE235:
 1085              	.LBE234:
1078:lvgl\src\lv_core/lv_style.c ****                 return i;
 1086              		.loc 1 1078 0
 1087 003e 85EA010E 		eor	lr, r5, r1
 1088 0042 1EF07F0F 		tst	lr, #127
 1089 0046 2AD0     		beq	.L88
 1090 0048 01F07F01 		and	r1, r1, #127
1083:lvgl\src\lv_core/lv_style.c ****                 /* Use this property if it describes better the requested state than the current ca
 1091              		.loc 1 1083 0
 1092 004c 05F07F0E 		and	lr, r5, #127
 1093 0050 31EA0E0E 		bics	lr, r1, lr
 1094 0054 03D1     		bne	.L90
1086:lvgl\src\lv_core/lv_style.c ****                     weight = LV_STYLE_ATTR_GET_STATE(attr_i);
 1095              		.loc 1 1086 0
 1096 0056 B942     		cmp	r1, r7
 1097 0058 01DD     		ble	.L90
1087:lvgl\src\lv_core/lv_style.c ****                     id_guess = i;
 1098              		.loc 1 1087 0
 1099 005a 0FB2     		sxth	r7, r1
ARM GAS  C:\Users\strap\AppData\Local\Temp\cc7bAV43.s 			page 49


 1100              	.LVL151:
1088:lvgl\src\lv_core/lv_style.c ****                 }
 1101              		.loc 1 1088 0
 1102 005c 14B2     		sxth	r4, r2
 1103              	.LVL152:
 1104              	.L90:
 1105              	.LBE233:
 1106              	.LBB238:
 1107              	.LBB239:
 1108              	.LBB240:
 1109              	.LBB241:
1181:lvgl\src\lv_core/lv_style.c ****     size_t size = sizeof(lv_style_property_t);
 1110              		.loc 1 1181 0
 1111 005e 03F00F03 		and	r3, r3, #15
 1112              	.LVL153:
1183:lvgl\src\lv_core/lv_style.c ****     else if(prop_id < LV_STYLE_ID_OPA) size += sizeof(lv_color_t);
 1113              		.loc 1 1183 0
 1114 0062 082B     		cmp	r3, #8
 1115 0064 05D9     		bls	.L109
1184:lvgl\src\lv_core/lv_style.c ****     else if(prop_id < LV_STYLE_ID_PTR) size += sizeof(lv_opa_t);
 1116              		.loc 1 1184 0
 1117 0066 0B2B     		cmp	r3, #11
 1118 0068 05D9     		bls	.L110
1185:lvgl\src\lv_core/lv_style.c ****     else size += sizeof(const void *);
 1119              		.loc 1 1185 0
 1120 006a 0D2B     		cmp	r3, #13
 1121 006c 05D8     		bhi	.L111
 1122 006e 0323     		movs	r3, #3
 1123              	.LVL154:
 1124 0070 04E0     		b	.L92
 1125              	.LVL155:
 1126              	.L109:
1183:lvgl\src\lv_core/lv_style.c ****     else if(prop_id < LV_STYLE_ID_OPA) size += sizeof(lv_color_t);
 1127              		.loc 1 1183 0
 1128 0072 0423     		movs	r3, #4
 1129              	.LVL156:
 1130 0074 02E0     		b	.L92
 1131              	.LVL157:
 1132              	.L110:
1184:lvgl\src\lv_core/lv_style.c ****     else if(prop_id < LV_STYLE_ID_PTR) size += sizeof(lv_opa_t);
 1133              		.loc 1 1184 0
 1134 0076 0423     		movs	r3, #4
 1135              	.LVL158:
 1136 0078 00E0     		b	.L92
 1137              	.LVL159:
 1138              	.L111:
1186:lvgl\src\lv_core/lv_style.c ****     return size;
 1139              		.loc 1 1186 0
 1140 007a 0623     		movs	r3, #6
 1141              	.LVL160:
 1142              	.L92:
 1143              	.LBE241:
 1144              	.LBE240:
 1145              		.loc 1 1198 0
 1146 007c 1A44     		add	r2, r2, r3
 1147              	.LVL161:
 1148              	.L89:
ARM GAS  C:\Users\strap\AppData\Local\Temp\cc7bAV43.s 			page 50


 1149              	.LBE239:
 1150              	.LBE238:
 1151              	.LBB242:
 1152              	.LBB243:
 1153              	.LBB244:
 1154              	.LBB245:
1145:lvgl\src\lv_core/lv_style.c ****     prop_p[1] = style->map[idx + 1];
 1155              		.loc 1 1145 0
 1156 007e 0368     		ldr	r3, [r0]
 1157 0080 995C     		ldrb	r1, [r3, r2]	@ zero_extendqisi2
 1158 0082 8DF80C10 		strb	r1, [sp, #12]
1146:lvgl\src\lv_core/lv_style.c ****     return prop;
 1159              		.loc 1 1146 0
 1160 0086 511C     		adds	r1, r2, #1
 1161 0088 5B5C     		ldrb	r3, [r3, r1]	@ zero_extendqisi2
 1162 008a 8DF80D30 		strb	r3, [sp, #13]
 1163              	.LVL162:
 1164              	.LBE245:
 1165              	.LBE244:
1158:lvgl\src\lv_core/lv_style.c **** }
 1166              		.loc 1 1158 0
 1167 008e 9DF80C30 		ldrb	r3, [sp, #12]	@ zero_extendqisi2
 1168              	.LVL163:
 1169              	.LBE243:
 1170              	.LBE242:
1072:lvgl\src\lv_core/lv_style.c ****         if(prop_id == id_to_find) {
 1171              		.loc 1 1072 0
 1172 0092 FF2B     		cmp	r3, #255
 1173 0094 C4D1     		bne	.L93
1096:lvgl\src\lv_core/lv_style.c **** }
 1174              		.loc 1 1096 0
 1175 0096 2246     		mov	r2, r4
 1176              	.LVL164:
 1177 0098 01E0     		b	.L88
 1178              	.LVL165:
 1179              	.L108:
1060:lvgl\src\lv_core/lv_style.c **** 
 1180              		.loc 1 1060 0
 1181 009a 4FF0FF32 		mov	r2, #-1
 1182              	.LVL166:
 1183              	.L88:
 1184              	.LBE232:
 1185              	.LBE231:
 366:lvgl\src\lv_core/lv_style.c ****         lv_style_attr_t attr_found;
 1186              		.loc 1 366 0
 1187 009e 002A     		cmp	r2, #0
 1188 00a0 1FDB     		blt	.L94
 1189              	.LVL167:
 1190              	.LBB246:
 1191              	.LBB247:
 1192              	.LBB248:
 1193              	.LBB249:
 1194              	.LBB250:
1145:lvgl\src\lv_core/lv_style.c ****     prop_p[1] = style->map[idx + 1];
 1195              		.loc 1 1145 0
 1196 00a2 0368     		ldr	r3, [r0]
 1197 00a4 995C     		ldrb	r1, [r3, r2]	@ zero_extendqisi2
ARM GAS  C:\Users\strap\AppData\Local\Temp\cc7bAV43.s 			page 51


 1198 00a6 8DF80C10 		strb	r1, [sp, #12]
1146:lvgl\src\lv_core/lv_style.c ****     return prop;
 1199              		.loc 1 1146 0
 1200 00aa 1344     		add	r3, r3, r2
 1201 00ac 5B78     		ldrb	r3, [r3, #1]	@ zero_extendqisi2
 1202 00ae 8DF80D30 		strb	r3, [sp, #13]
1147:lvgl\src\lv_core/lv_style.c **** }
 1203              		.loc 1 1147 0
 1204 00b2 BDF80C10 		ldrh	r1, [sp, #12]
 1205              	.LVL168:
 1206              	.LBE250:
 1207              	.LBE249:
 1208              	.LBE248:
 1209              	.LBE247:
 371:lvgl\src\lv_core/lv_style.c **** 
 1210              		.loc 1 371 0
 1211 00b6 BDF80630 		ldrh	r3, [sp, #6]
 1212 00ba 1B0A     		lsrs	r3, r3, #8
 1213              	.LVL169:
 373:lvgl\src\lv_core/lv_style.c ****             _lv_memcpy_small(style->map + id + sizeof(lv_style_property_t), &value, sizeof(lv_style
 1214              		.loc 1 373 0
 1215 00bc 83EA1123 		eor	r3, r3, r1, lsr #8
 1216              	.LVL170:
 1217 00c0 13F07F0F 		tst	r3, #127
 1218 00c4 0DD1     		bne	.L94
 374:lvgl\src\lv_core/lv_style.c ****             return;
 1219              		.loc 1 374 0
 1220 00c6 0368     		ldr	r3, [r0]
 1221 00c8 0232     		adds	r2, r2, #2
 1222 00ca 1344     		add	r3, r3, r2
 1223              	.LVL171:
 1224              	.LBB251:
 1225              	.LBB252:
 1226              		.file 3 "lvgl\\src\\lv_core\\../lv_font/../lv_misc/lv_mem.h"
   1:lvgl\src\lv_core\../lv_font/../lv_misc/lv_mem.h **** /**
   2:lvgl\src\lv_core\../lv_font/../lv_misc/lv_mem.h ****  * @file lv_mem.h
   3:lvgl\src\lv_core\../lv_font/../lv_misc/lv_mem.h ****  *
   4:lvgl\src\lv_core\../lv_font/../lv_misc/lv_mem.h ****  */
   5:lvgl\src\lv_core\../lv_font/../lv_misc/lv_mem.h **** 
   6:lvgl\src\lv_core\../lv_font/../lv_misc/lv_mem.h **** #ifndef LV_MEM_H
   7:lvgl\src\lv_core\../lv_font/../lv_misc/lv_mem.h **** #define LV_MEM_H
   8:lvgl\src\lv_core\../lv_font/../lv_misc/lv_mem.h **** 
   9:lvgl\src\lv_core\../lv_font/../lv_misc/lv_mem.h **** #ifdef __cplusplus
  10:lvgl\src\lv_core\../lv_font/../lv_misc/lv_mem.h **** extern "C" {
  11:lvgl\src\lv_core\../lv_font/../lv_misc/lv_mem.h **** #endif
  12:lvgl\src\lv_core\../lv_font/../lv_misc/lv_mem.h **** 
  13:lvgl\src\lv_core\../lv_font/../lv_misc/lv_mem.h **** /*********************
  14:lvgl\src\lv_core\../lv_font/../lv_misc/lv_mem.h ****  *      INCLUDES
  15:lvgl\src\lv_core\../lv_font/../lv_misc/lv_mem.h ****  *********************/
  16:lvgl\src\lv_core\../lv_font/../lv_misc/lv_mem.h **** #include "../lv_conf_internal.h"
  17:lvgl\src\lv_core\../lv_font/../lv_misc/lv_mem.h **** 
  18:lvgl\src\lv_core\../lv_font/../lv_misc/lv_mem.h **** #include <stdint.h>
  19:lvgl\src\lv_core\../lv_font/../lv_misc/lv_mem.h **** #include <stddef.h>
  20:lvgl\src\lv_core\../lv_font/../lv_misc/lv_mem.h **** #include "lv_log.h"
  21:lvgl\src\lv_core\../lv_font/../lv_misc/lv_mem.h **** #include "lv_types.h"
  22:lvgl\src\lv_core\../lv_font/../lv_misc/lv_mem.h **** 
  23:lvgl\src\lv_core\../lv_font/../lv_misc/lv_mem.h **** #if LV_MEMCPY_MEMSET_STD
ARM GAS  C:\Users\strap\AppData\Local\Temp\cc7bAV43.s 			page 52


  24:lvgl\src\lv_core\../lv_font/../lv_misc/lv_mem.h **** #include <string.h>
  25:lvgl\src\lv_core\../lv_font/../lv_misc/lv_mem.h **** #endif
  26:lvgl\src\lv_core\../lv_font/../lv_misc/lv_mem.h **** 
  27:lvgl\src\lv_core\../lv_font/../lv_misc/lv_mem.h **** /*********************
  28:lvgl\src\lv_core\../lv_font/../lv_misc/lv_mem.h ****  *      DEFINES
  29:lvgl\src\lv_core\../lv_font/../lv_misc/lv_mem.h ****  *********************/
  30:lvgl\src\lv_core\../lv_font/../lv_misc/lv_mem.h **** 
  31:lvgl\src\lv_core\../lv_font/../lv_misc/lv_mem.h **** #ifndef LV_MEM_BUF_MAX_NUM
  32:lvgl\src\lv_core\../lv_font/../lv_misc/lv_mem.h **** #define LV_MEM_BUF_MAX_NUM    16
  33:lvgl\src\lv_core\../lv_font/../lv_misc/lv_mem.h **** #endif
  34:lvgl\src\lv_core\../lv_font/../lv_misc/lv_mem.h **** 
  35:lvgl\src\lv_core\../lv_font/../lv_misc/lv_mem.h **** /**********************
  36:lvgl\src\lv_core\../lv_font/../lv_misc/lv_mem.h ****  *      TYPEDEFS
  37:lvgl\src\lv_core\../lv_font/../lv_misc/lv_mem.h ****  **********************/
  38:lvgl\src\lv_core\../lv_font/../lv_misc/lv_mem.h **** 
  39:lvgl\src\lv_core\../lv_font/../lv_misc/lv_mem.h **** /**
  40:lvgl\src\lv_core\../lv_font/../lv_misc/lv_mem.h ****  * Heap information structure.
  41:lvgl\src\lv_core\../lv_font/../lv_misc/lv_mem.h ****  */
  42:lvgl\src\lv_core\../lv_font/../lv_misc/lv_mem.h **** typedef struct {
  43:lvgl\src\lv_core\../lv_font/../lv_misc/lv_mem.h ****     uint32_t total_size; /**< Total heap size */
  44:lvgl\src\lv_core\../lv_font/../lv_misc/lv_mem.h ****     uint32_t free_cnt;
  45:lvgl\src\lv_core\../lv_font/../lv_misc/lv_mem.h ****     uint32_t free_size; /**< Size of available memory */
  46:lvgl\src\lv_core\../lv_font/../lv_misc/lv_mem.h ****     uint32_t free_biggest_size;
  47:lvgl\src\lv_core\../lv_font/../lv_misc/lv_mem.h ****     uint32_t used_cnt;
  48:lvgl\src\lv_core\../lv_font/../lv_misc/lv_mem.h ****     uint32_t max_used; /**< Max size of Heap memory used */
  49:lvgl\src\lv_core\../lv_font/../lv_misc/lv_mem.h ****     uint8_t used_pct; /**< Percentage used */
  50:lvgl\src\lv_core\../lv_font/../lv_misc/lv_mem.h ****     uint8_t frag_pct; /**< Amount of fragmentation */
  51:lvgl\src\lv_core\../lv_font/../lv_misc/lv_mem.h **** } lv_mem_monitor_t;
  52:lvgl\src\lv_core\../lv_font/../lv_misc/lv_mem.h **** 
  53:lvgl\src\lv_core\../lv_font/../lv_misc/lv_mem.h **** typedef struct {
  54:lvgl\src\lv_core\../lv_font/../lv_misc/lv_mem.h ****     void * p;
  55:lvgl\src\lv_core\../lv_font/../lv_misc/lv_mem.h ****     uint16_t size;
  56:lvgl\src\lv_core\../lv_font/../lv_misc/lv_mem.h ****     uint8_t used    : 1;
  57:lvgl\src\lv_core\../lv_font/../lv_misc/lv_mem.h **** } lv_mem_buf_t;
  58:lvgl\src\lv_core\../lv_font/../lv_misc/lv_mem.h **** 
  59:lvgl\src\lv_core\../lv_font/../lv_misc/lv_mem.h **** typedef lv_mem_buf_t lv_mem_buf_arr_t[LV_MEM_BUF_MAX_NUM];
  60:lvgl\src\lv_core\../lv_font/../lv_misc/lv_mem.h **** extern lv_mem_buf_arr_t _lv_mem_buf;
  61:lvgl\src\lv_core\../lv_font/../lv_misc/lv_mem.h **** 
  62:lvgl\src\lv_core\../lv_font/../lv_misc/lv_mem.h **** /**********************
  63:lvgl\src\lv_core\../lv_font/../lv_misc/lv_mem.h ****  * GLOBAL PROTOTYPES
  64:lvgl\src\lv_core\../lv_font/../lv_misc/lv_mem.h ****  **********************/
  65:lvgl\src\lv_core\../lv_font/../lv_misc/lv_mem.h **** 
  66:lvgl\src\lv_core\../lv_font/../lv_misc/lv_mem.h **** /**
  67:lvgl\src\lv_core\../lv_font/../lv_misc/lv_mem.h ****  * Initialize the dyn_mem module (work memory and other variables)
  68:lvgl\src\lv_core\../lv_font/../lv_misc/lv_mem.h ****  */
  69:lvgl\src\lv_core\../lv_font/../lv_misc/lv_mem.h **** void _lv_mem_init(void);
  70:lvgl\src\lv_core\../lv_font/../lv_misc/lv_mem.h **** 
  71:lvgl\src\lv_core\../lv_font/../lv_misc/lv_mem.h **** /**
  72:lvgl\src\lv_core\../lv_font/../lv_misc/lv_mem.h ****  * Clean up the memory buffer which frees all the allocated memories.
  73:lvgl\src\lv_core\../lv_font/../lv_misc/lv_mem.h ****  * @note It work only if `LV_MEM_CUSTOM == 0`
  74:lvgl\src\lv_core\../lv_font/../lv_misc/lv_mem.h ****  */
  75:lvgl\src\lv_core\../lv_font/../lv_misc/lv_mem.h **** void _lv_mem_deinit(void);
  76:lvgl\src\lv_core\../lv_font/../lv_misc/lv_mem.h **** 
  77:lvgl\src\lv_core\../lv_font/../lv_misc/lv_mem.h **** /**
  78:lvgl\src\lv_core\../lv_font/../lv_misc/lv_mem.h ****  * Allocate a memory dynamically
  79:lvgl\src\lv_core\../lv_font/../lv_misc/lv_mem.h ****  * @param size size of the memory to allocate in bytes
  80:lvgl\src\lv_core\../lv_font/../lv_misc/lv_mem.h ****  * @return pointer to the allocated memory
ARM GAS  C:\Users\strap\AppData\Local\Temp\cc7bAV43.s 			page 53


  81:lvgl\src\lv_core\../lv_font/../lv_misc/lv_mem.h ****  */
  82:lvgl\src\lv_core\../lv_font/../lv_misc/lv_mem.h **** void * lv_mem_alloc(size_t size);
  83:lvgl\src\lv_core\../lv_font/../lv_misc/lv_mem.h **** 
  84:lvgl\src\lv_core\../lv_font/../lv_misc/lv_mem.h **** /**
  85:lvgl\src\lv_core\../lv_font/../lv_misc/lv_mem.h ****  * Free an allocated data
  86:lvgl\src\lv_core\../lv_font/../lv_misc/lv_mem.h ****  * @param data pointer to an allocated memory
  87:lvgl\src\lv_core\../lv_font/../lv_misc/lv_mem.h ****  */
  88:lvgl\src\lv_core\../lv_font/../lv_misc/lv_mem.h **** void lv_mem_free(const void * data);
  89:lvgl\src\lv_core\../lv_font/../lv_misc/lv_mem.h **** 
  90:lvgl\src\lv_core\../lv_font/../lv_misc/lv_mem.h **** /**
  91:lvgl\src\lv_core\../lv_font/../lv_misc/lv_mem.h ****  * Reallocate a memory with a new size. The old content will be kept.
  92:lvgl\src\lv_core\../lv_font/../lv_misc/lv_mem.h ****  * @param data pointer to an allocated memory.
  93:lvgl\src\lv_core\../lv_font/../lv_misc/lv_mem.h ****  * Its content will be copied to the new memory block and freed
  94:lvgl\src\lv_core\../lv_font/../lv_misc/lv_mem.h ****  * @param new_size the desired new size in byte
  95:lvgl\src\lv_core\../lv_font/../lv_misc/lv_mem.h ****  * @return pointer to the new memory
  96:lvgl\src\lv_core\../lv_font/../lv_misc/lv_mem.h ****  */
  97:lvgl\src\lv_core\../lv_font/../lv_misc/lv_mem.h **** void * lv_mem_realloc(void * data_p, size_t new_size);
  98:lvgl\src\lv_core\../lv_font/../lv_misc/lv_mem.h **** 
  99:lvgl\src\lv_core\../lv_font/../lv_misc/lv_mem.h **** /**
 100:lvgl\src\lv_core\../lv_font/../lv_misc/lv_mem.h ****  * Join the adjacent free memory blocks
 101:lvgl\src\lv_core\../lv_font/../lv_misc/lv_mem.h ****  */
 102:lvgl\src\lv_core\../lv_font/../lv_misc/lv_mem.h **** void lv_mem_defrag(void);
 103:lvgl\src\lv_core\../lv_font/../lv_misc/lv_mem.h **** 
 104:lvgl\src\lv_core\../lv_font/../lv_misc/lv_mem.h **** /**
 105:lvgl\src\lv_core\../lv_font/../lv_misc/lv_mem.h ****  *
 106:lvgl\src\lv_core\../lv_font/../lv_misc/lv_mem.h ****  * @return
 107:lvgl\src\lv_core\../lv_font/../lv_misc/lv_mem.h ****  */
 108:lvgl\src\lv_core\../lv_font/../lv_misc/lv_mem.h **** lv_res_t lv_mem_test(void);
 109:lvgl\src\lv_core\../lv_font/../lv_misc/lv_mem.h **** 
 110:lvgl\src\lv_core\../lv_font/../lv_misc/lv_mem.h **** /**
 111:lvgl\src\lv_core\../lv_font/../lv_misc/lv_mem.h ****  * Give information about the work memory of dynamic allocation
 112:lvgl\src\lv_core\../lv_font/../lv_misc/lv_mem.h ****  * @param mon_p pointer to a dm_mon_p variable,
 113:lvgl\src\lv_core\../lv_font/../lv_misc/lv_mem.h ****  *              the result of the analysis will be stored here
 114:lvgl\src\lv_core\../lv_font/../lv_misc/lv_mem.h ****  */
 115:lvgl\src\lv_core\../lv_font/../lv_misc/lv_mem.h **** void lv_mem_monitor(lv_mem_monitor_t * mon_p);
 116:lvgl\src\lv_core\../lv_font/../lv_misc/lv_mem.h **** 
 117:lvgl\src\lv_core\../lv_font/../lv_misc/lv_mem.h **** /**
 118:lvgl\src\lv_core\../lv_font/../lv_misc/lv_mem.h ****  * Give the size of an allocated memory
 119:lvgl\src\lv_core\../lv_font/../lv_misc/lv_mem.h ****  * @param data pointer to an allocated memory
 120:lvgl\src\lv_core\../lv_font/../lv_misc/lv_mem.h ****  * @return the size of data memory in bytes
 121:lvgl\src\lv_core\../lv_font/../lv_misc/lv_mem.h ****  */
 122:lvgl\src\lv_core\../lv_font/../lv_misc/lv_mem.h **** uint32_t _lv_mem_get_size(const void * data);
 123:lvgl\src\lv_core\../lv_font/../lv_misc/lv_mem.h **** 
 124:lvgl\src\lv_core\../lv_font/../lv_misc/lv_mem.h **** /**
 125:lvgl\src\lv_core\../lv_font/../lv_misc/lv_mem.h ****  * Get a temporal buffer with the given size.
 126:lvgl\src\lv_core\../lv_font/../lv_misc/lv_mem.h ****  * @param size the required size
 127:lvgl\src\lv_core\../lv_font/../lv_misc/lv_mem.h ****  */
 128:lvgl\src\lv_core\../lv_font/../lv_misc/lv_mem.h **** void * _lv_mem_buf_get(uint32_t size);
 129:lvgl\src\lv_core\../lv_font/../lv_misc/lv_mem.h **** 
 130:lvgl\src\lv_core\../lv_font/../lv_misc/lv_mem.h **** /**
 131:lvgl\src\lv_core\../lv_font/../lv_misc/lv_mem.h ****  * Release a memory buffer
 132:lvgl\src\lv_core\../lv_font/../lv_misc/lv_mem.h ****  * @param p buffer to release
 133:lvgl\src\lv_core\../lv_font/../lv_misc/lv_mem.h ****  */
 134:lvgl\src\lv_core\../lv_font/../lv_misc/lv_mem.h **** void _lv_mem_buf_release(void * p);
 135:lvgl\src\lv_core\../lv_font/../lv_misc/lv_mem.h **** 
 136:lvgl\src\lv_core\../lv_font/../lv_misc/lv_mem.h **** /**
 137:lvgl\src\lv_core\../lv_font/../lv_misc/lv_mem.h ****  * Free all memory buffers
ARM GAS  C:\Users\strap\AppData\Local\Temp\cc7bAV43.s 			page 54


 138:lvgl\src\lv_core\../lv_font/../lv_misc/lv_mem.h ****  */
 139:lvgl\src\lv_core\../lv_font/../lv_misc/lv_mem.h **** void _lv_mem_buf_free_all(void);
 140:lvgl\src\lv_core\../lv_font/../lv_misc/lv_mem.h **** 
 141:lvgl\src\lv_core\../lv_font/../lv_misc/lv_mem.h **** 
 142:lvgl\src\lv_core\../lv_font/../lv_misc/lv_mem.h **** //! @cond Doxygen_Suppress
 143:lvgl\src\lv_core\../lv_font/../lv_misc/lv_mem.h **** 
 144:lvgl\src\lv_core\../lv_font/../lv_misc/lv_mem.h **** #if LV_MEMCPY_MEMSET_STD
 145:lvgl\src\lv_core\../lv_font/../lv_misc/lv_mem.h **** 
 146:lvgl\src\lv_core\../lv_font/../lv_misc/lv_mem.h **** /**
 147:lvgl\src\lv_core\../lv_font/../lv_misc/lv_mem.h ****  * Wrapper for the standard memcpy
 148:lvgl\src\lv_core\../lv_font/../lv_misc/lv_mem.h ****  * @param dst pointer to the destination buffer
 149:lvgl\src\lv_core\../lv_font/../lv_misc/lv_mem.h ****  * @param src pointer to the source buffer
 150:lvgl\src\lv_core\../lv_font/../lv_misc/lv_mem.h ****  * @param len number of byte to copy
 151:lvgl\src\lv_core\../lv_font/../lv_misc/lv_mem.h ****  */
 152:lvgl\src\lv_core\../lv_font/../lv_misc/lv_mem.h **** static inline void * _lv_memcpy(void * dst, const void * src, size_t len)
 153:lvgl\src\lv_core\../lv_font/../lv_misc/lv_mem.h **** {
 154:lvgl\src\lv_core\../lv_font/../lv_misc/lv_mem.h ****     return memcpy(dst, src, len);
 155:lvgl\src\lv_core\../lv_font/../lv_misc/lv_mem.h **** }
 156:lvgl\src\lv_core\../lv_font/../lv_misc/lv_mem.h **** 
 157:lvgl\src\lv_core\../lv_font/../lv_misc/lv_mem.h **** /**
 158:lvgl\src\lv_core\../lv_font/../lv_misc/lv_mem.h ****  * Wrapper for the standard memcpy
 159:lvgl\src\lv_core\../lv_font/../lv_misc/lv_mem.h ****  * @param dst pointer to the destination buffer
 160:lvgl\src\lv_core\../lv_font/../lv_misc/lv_mem.h ****  * @param src pointer to the source buffer
 161:lvgl\src\lv_core\../lv_font/../lv_misc/lv_mem.h ****  * @param len number of byte to copy
 162:lvgl\src\lv_core\../lv_font/../lv_misc/lv_mem.h ****  */
 163:lvgl\src\lv_core\../lv_font/../lv_misc/lv_mem.h **** static inline void * _lv_memcpy_small(void * dst, const void * src, size_t len)
 164:lvgl\src\lv_core\../lv_font/../lv_misc/lv_mem.h **** {
 165:lvgl\src\lv_core\../lv_font/../lv_misc/lv_mem.h ****     return memcpy(dst, src, len);
 166:lvgl\src\lv_core\../lv_font/../lv_misc/lv_mem.h **** }
 167:lvgl\src\lv_core\../lv_font/../lv_misc/lv_mem.h **** 
 168:lvgl\src\lv_core\../lv_font/../lv_misc/lv_mem.h **** /**
 169:lvgl\src\lv_core\../lv_font/../lv_misc/lv_mem.h ****  * Wrapper for the standard memset
 170:lvgl\src\lv_core\../lv_font/../lv_misc/lv_mem.h ****  * @param dst pointer to the destination buffer
 171:lvgl\src\lv_core\../lv_font/../lv_misc/lv_mem.h ****  * @param v value to set [0..255]
 172:lvgl\src\lv_core\../lv_font/../lv_misc/lv_mem.h ****  * @param len number of byte to set
 173:lvgl\src\lv_core\../lv_font/../lv_misc/lv_mem.h ****  */
 174:lvgl\src\lv_core\../lv_font/../lv_misc/lv_mem.h **** static inline void _lv_memset(void * dst, uint8_t v, size_t len)
 175:lvgl\src\lv_core\../lv_font/../lv_misc/lv_mem.h **** {
 176:lvgl\src\lv_core\../lv_font/../lv_misc/lv_mem.h ****     memset(dst, v, len);
 177:lvgl\src\lv_core\../lv_font/../lv_misc/lv_mem.h **** }
 178:lvgl\src\lv_core\../lv_font/../lv_misc/lv_mem.h **** 
 179:lvgl\src\lv_core\../lv_font/../lv_misc/lv_mem.h **** /**
 180:lvgl\src\lv_core\../lv_font/../lv_misc/lv_mem.h ****  * Wrapper for the standard memset with fixed 0x00 value
 181:lvgl\src\lv_core\../lv_font/../lv_misc/lv_mem.h ****  * @param dst pointer to the destination buffer
 182:lvgl\src\lv_core\../lv_font/../lv_misc/lv_mem.h ****  * @param len number of byte to set
 183:lvgl\src\lv_core\../lv_font/../lv_misc/lv_mem.h ****  */
 184:lvgl\src\lv_core\../lv_font/../lv_misc/lv_mem.h **** static inline void _lv_memset_00(void * dst, size_t len)
 185:lvgl\src\lv_core\../lv_font/../lv_misc/lv_mem.h **** {
 186:lvgl\src\lv_core\../lv_font/../lv_misc/lv_mem.h ****     memset(dst, 0x00, len);
 187:lvgl\src\lv_core\../lv_font/../lv_misc/lv_mem.h **** }
 188:lvgl\src\lv_core\../lv_font/../lv_misc/lv_mem.h **** 
 189:lvgl\src\lv_core\../lv_font/../lv_misc/lv_mem.h **** /**
 190:lvgl\src\lv_core\../lv_font/../lv_misc/lv_mem.h ****  * Wrapper for the standard memset with fixed 0xFF value
 191:lvgl\src\lv_core\../lv_font/../lv_misc/lv_mem.h ****  * @param dst pointer to the destination buffer
 192:lvgl\src\lv_core\../lv_font/../lv_misc/lv_mem.h ****  * @param len number of byte to set
 193:lvgl\src\lv_core\../lv_font/../lv_misc/lv_mem.h ****  */
 194:lvgl\src\lv_core\../lv_font/../lv_misc/lv_mem.h **** static inline void _lv_memset_ff(void * dst, size_t len)
ARM GAS  C:\Users\strap\AppData\Local\Temp\cc7bAV43.s 			page 55


 195:lvgl\src\lv_core\../lv_font/../lv_misc/lv_mem.h **** {
 196:lvgl\src\lv_core\../lv_font/../lv_misc/lv_mem.h ****     memset(dst, 0xFF, len);
 197:lvgl\src\lv_core\../lv_font/../lv_misc/lv_mem.h **** }
 198:lvgl\src\lv_core\../lv_font/../lv_misc/lv_mem.h **** 
 199:lvgl\src\lv_core\../lv_font/../lv_misc/lv_mem.h **** #else
 200:lvgl\src\lv_core\../lv_font/../lv_misc/lv_mem.h **** /**
 201:lvgl\src\lv_core\../lv_font/../lv_misc/lv_mem.h ****  * Same as `memcpy` but optimized for 4 byte operation.
 202:lvgl\src\lv_core\../lv_font/../lv_misc/lv_mem.h ****  * @param dst pointer to the destination buffer
 203:lvgl\src\lv_core\../lv_font/../lv_misc/lv_mem.h ****  * @param src pointer to the source buffer
 204:lvgl\src\lv_core\../lv_font/../lv_misc/lv_mem.h ****  * @param len number of byte to copy
 205:lvgl\src\lv_core\../lv_font/../lv_misc/lv_mem.h ****  */
 206:lvgl\src\lv_core\../lv_font/../lv_misc/lv_mem.h **** LV_ATTRIBUTE_FAST_MEM void * _lv_memcpy(void * dst, const void * src, size_t len);
 207:lvgl\src\lv_core\../lv_font/../lv_misc/lv_mem.h **** 
 208:lvgl\src\lv_core\../lv_font/../lv_misc/lv_mem.h **** /**
 209:lvgl\src\lv_core\../lv_font/../lv_misc/lv_mem.h ****  * Same as `memcpy` but optimized to copy only a few bytes.
 210:lvgl\src\lv_core\../lv_font/../lv_misc/lv_mem.h ****  * @param dst pointer to the destination buffer
 211:lvgl\src\lv_core\../lv_font/../lv_misc/lv_mem.h ****  * @param src pointer to the source buffer
 212:lvgl\src\lv_core\../lv_font/../lv_misc/lv_mem.h ****  * @param len number of byte to copy
 213:lvgl\src\lv_core\../lv_font/../lv_misc/lv_mem.h ****  */
 214:lvgl\src\lv_core\../lv_font/../lv_misc/lv_mem.h **** LV_ATTRIBUTE_FAST_MEM static inline void * _lv_memcpy_small(void * dst, const void * src, size_t le
 215:lvgl\src\lv_core\../lv_font/../lv_misc/lv_mem.h **** {
 216:lvgl\src\lv_core\../lv_font/../lv_misc/lv_mem.h ****     uint8_t * d8 = (uint8_t *)dst;
 217:lvgl\src\lv_core\../lv_font/../lv_misc/lv_mem.h ****     const uint8_t * s8 = (const uint8_t *)src;
 1227              		.loc 3 217 0
 1228 00cc 01A9     		add	r1, sp, #4
 1229              	.LVL172:
 1230              	.LBE252:
 1231              	.LBE251:
 374:lvgl\src\lv_core/lv_style.c ****             return;
 1232              		.loc 1 374 0
 1233 00ce 0222     		movs	r2, #2
 1234 00d0 04E0     		b	.L95
 1235              	.LVL173:
 1236              	.L96:
 1237              	.LBB254:
 1238              	.LBB253:
 218:lvgl\src\lv_core\../lv_font/../lv_misc/lv_mem.h **** 
 219:lvgl\src\lv_core\../lv_font/../lv_misc/lv_mem.h ****     while(len) {
 220:lvgl\src\lv_core\../lv_font/../lv_misc/lv_mem.h ****         *d8 = *s8;
 1239              		.loc 3 220 0
 1240 00d2 11F8010B 		ldrb	r0, [r1], #1	@ zero_extendqisi2
 1241              	.LVL174:
 1242 00d6 03F8010B 		strb	r0, [r3], #1
 1243              	.LVL175:
 221:lvgl\src\lv_core\../lv_font/../lv_misc/lv_mem.h ****         d8++;
 222:lvgl\src\lv_core\../lv_font/../lv_misc/lv_mem.h ****         s8++;
 223:lvgl\src\lv_core\../lv_font/../lv_misc/lv_mem.h ****         len--;
 1244              		.loc 3 223 0
 1245 00da 013A     		subs	r2, r2, #1
 1246              	.LVL176:
 1247              	.L95:
 219:lvgl\src\lv_core\../lv_font/../lv_misc/lv_mem.h ****         *d8 = *s8;
 1248              		.loc 3 219 0
 1249 00dc 002A     		cmp	r2, #0
 1250 00de F8D1     		bne	.L96
 1251 00e0 43E0     		b	.L87
 1252              	.LVL177:
ARM GAS  C:\Users\strap\AppData\Local\Temp\cc7bAV43.s 			page 56


 1253              	.L94:
 1254 00e2 0546     		mov	r5, r0
 1255              	.LVL178:
 1256              	.LBE253:
 1257              	.LBE254:
 1258              	.LBE246:
 381:lvgl\src\lv_core/lv_style.c ****     uint8_t end_mark_size = sizeof(end_mark);
 1259              		.loc 1 381 0
 1260 00e4 FF23     		movs	r3, #255
 1261 00e6 ADF80E30 		strh	r3, [sp, #14]	@ movhi
 1262              	.LVL179:
 384:lvgl\src\lv_core/lv_style.c ****     if(size == 0) size += end_mark_size;
 1263              		.loc 1 384 0
 1264 00ea FFF7FEFF 		bl	_lv_style_get_mem_size
 1265              	.LVL180:
 385:lvgl\src\lv_core/lv_style.c ****     size += sizeof(lv_style_property_t) + sizeof(lv_style_int_t);
 1266              		.loc 1 385 0
 1267 00ee 0346     		mov	r3, r0
 1268 00f0 08B9     		cbnz	r0, .L98
 385:lvgl\src\lv_core/lv_style.c ****     size += sizeof(lv_style_property_t) + sizeof(lv_style_int_t);
 1269              		.loc 1 385 0 is_stmt 0 discriminator 1
 1270 00f2 0233     		adds	r3, r3, #2
 1271 00f4 9BB2     		uxth	r3, r3
 1272              	.LVL181:
 1273              	.L98:
 386:lvgl\src\lv_core/lv_style.c ****     style_resize(style, size);
 1274              		.loc 1 386 0 is_stmt 1
 1275 00f6 0433     		adds	r3, r3, #4
 1276              	.LVL182:
 1277 00f8 9CB2     		uxth	r4, r3
 1278              	.LVL183:
 1279              	.LBB255:
 1280              	.LBB256:
1132:lvgl\src\lv_core/lv_style.c **** }
 1281              		.loc 1 1132 0
 1282 00fa 2146     		mov	r1, r4
 1283 00fc 2868     		ldr	r0, [r5]
 1284 00fe FFF7FEFF 		bl	lv_mem_realloc
 1285              	.LVL184:
 1286 0102 2860     		str	r0, [r5]
 1287              	.LVL185:
 1288              	.LBE256:
 1289              	.LBE255:
 388:lvgl\src\lv_core/lv_style.c ****     if(style == NULL) return;
 1290              		.loc 1 388 0
 1291 0104 FFF7FEFF 		bl	lv_debug_check_null
 1292              	.LVL186:
 1293 0108 28B9     		cbnz	r0, .L99
 388:lvgl\src\lv_core/lv_style.c ****     if(style == NULL) return;
 1294              		.loc 1 388 0 is_stmt 0 discriminator 1
 1295 010a 2A68     		ldr	r2, [r5]
 1296 010c 0023     		movs	r3, #0
 1297 010e 1848     		ldr	r0, .L113
 1298 0110 FFF7FEFF 		bl	lv_debug_log_error
 1299              	.LVL187:
 1300              	.L100:
 1301 0114 FEE7     		b	.L100
ARM GAS  C:\Users\strap\AppData\Local\Temp\cc7bAV43.s 			page 57


 1302              	.L99:
 389:lvgl\src\lv_core/lv_style.c **** 
 1303              		.loc 1 389 0 is_stmt 1
 1304 0116 45B3     		cbz	r5, .L87
 391:lvgl\src\lv_core/lv_style.c ****     _lv_memcpy_small(style->map + size - sizeof(lv_style_int_t) - end_mark_size, &value, sizeof(lv_
 1305              		.loc 1 391 0
 1306 0118 2A68     		ldr	r2, [r5]
 1307 011a A31F     		subs	r3, r4, #6
 1308 011c 1344     		add	r3, r3, r2
 1309              	.LVL188:
 1310              	.LBB257:
 1311              	.LBB258:
 217:lvgl\src\lv_core\../lv_font/../lv_misc/lv_mem.h **** 
 1312              		.loc 3 217 0
 1313 011e 0DF10601 		add	r1, sp, #6
 1314              	.LVL189:
 1315              	.LBE258:
 1316              	.LBE257:
 391:lvgl\src\lv_core/lv_style.c ****     _lv_memcpy_small(style->map + size - sizeof(lv_style_int_t) - end_mark_size, &value, sizeof(lv_
 1317              		.loc 1 391 0
 1318 0122 0222     		movs	r2, #2
 1319 0124 04E0     		b	.L101
 1320              	.LVL190:
 1321              	.L102:
 1322              	.LBB260:
 1323              	.LBB259:
 220:lvgl\src\lv_core\../lv_font/../lv_misc/lv_mem.h ****         d8++;
 1324              		.loc 3 220 0
 1325 0126 11F8010B 		ldrb	r0, [r1], #1	@ zero_extendqisi2
 1326              	.LVL191:
 1327 012a 03F8010B 		strb	r0, [r3], #1
 1328              	.LVL192:
 1329              		.loc 3 223 0
 1330 012e 013A     		subs	r2, r2, #1
 1331              	.LVL193:
 1332              	.L101:
 219:lvgl\src\lv_core\../lv_font/../lv_misc/lv_mem.h ****         *d8 = *s8;
 1333              		.loc 3 219 0
 1334 0130 002A     		cmp	r2, #0
 1335 0132 F8D1     		bne	.L102
 1336              	.LVL194:
 1337              	.LBE259:
 1338              	.LBE260:
 392:lvgl\src\lv_core/lv_style.c ****     _lv_memcpy_small(style->map + size - end_mark_size, &end_mark, sizeof(end_mark));
 1339              		.loc 1 392 0
 1340 0134 2A68     		ldr	r2, [r5]
 1341 0136 231F     		subs	r3, r4, #4
 1342              	.LVL195:
 1343 0138 1344     		add	r3, r3, r2
 1344              	.LVL196:
 1345              	.LBB261:
 1346              	.LBB262:
 217:lvgl\src\lv_core\../lv_font/../lv_misc/lv_mem.h **** 
 1347              		.loc 3 217 0
 1348 013a 01A9     		add	r1, sp, #4
 1349              	.LVL197:
 1350              	.LBE262:
ARM GAS  C:\Users\strap\AppData\Local\Temp\cc7bAV43.s 			page 58


 1351              	.LBE261:
 392:lvgl\src\lv_core/lv_style.c ****     _lv_memcpy_small(style->map + size - end_mark_size, &end_mark, sizeof(end_mark));
 1352              		.loc 1 392 0
 1353 013c 0222     		movs	r2, #2
 1354 013e 04E0     		b	.L103
 1355              	.LVL198:
 1356              	.L104:
 1357              	.LBB264:
 1358              	.LBB263:
 220:lvgl\src\lv_core\../lv_font/../lv_misc/lv_mem.h ****         d8++;
 1359              		.loc 3 220 0
 1360 0140 11F8010B 		ldrb	r0, [r1], #1	@ zero_extendqisi2
 1361              	.LVL199:
 1362 0144 03F8010B 		strb	r0, [r3], #1
 1363              	.LVL200:
 1364              		.loc 3 223 0
 1365 0148 013A     		subs	r2, r2, #1
 1366              	.LVL201:
 1367              	.L103:
 219:lvgl\src\lv_core\../lv_font/../lv_misc/lv_mem.h ****         *d8 = *s8;
 1368              		.loc 3 219 0
 1369 014a 002A     		cmp	r2, #0
 1370 014c F8D1     		bne	.L104
 1371              	.LVL202:
 1372              	.LBE263:
 1373              	.LBE264:
 393:lvgl\src\lv_core/lv_style.c **** }
 1374              		.loc 1 393 0
 1375 014e 2B68     		ldr	r3, [r5]
 1376              	.LVL203:
 1377 0150 023C     		subs	r4, r4, #2
 1378 0152 2344     		add	r3, r3, r4
 1379              	.LVL204:
 1380              	.LBB265:
 1381              	.LBB266:
 217:lvgl\src\lv_core\../lv_font/../lv_misc/lv_mem.h **** 
 1382              		.loc 3 217 0
 1383 0154 0DF10E01 		add	r1, sp, #14
 1384              	.LVL205:
 1385              	.LBE266:
 1386              	.LBE265:
 393:lvgl\src\lv_core/lv_style.c **** }
 1387              		.loc 1 393 0
 1388 0158 0222     		movs	r2, #2
 1389 015a 04E0     		b	.L105
 1390              	.LVL206:
 1391              	.L106:
 1392              	.LBB268:
 1393              	.LBB267:
 220:lvgl\src\lv_core\../lv_font/../lv_misc/lv_mem.h ****         d8++;
 1394              		.loc 3 220 0
 1395 015c 11F8010B 		ldrb	r0, [r1], #1	@ zero_extendqisi2
 1396              	.LVL207:
 1397 0160 03F8010B 		strb	r0, [r3], #1
 1398              	.LVL208:
 1399              		.loc 3 223 0
 1400 0164 013A     		subs	r2, r2, #1
ARM GAS  C:\Users\strap\AppData\Local\Temp\cc7bAV43.s 			page 59


 1401              	.LVL209:
 1402              	.L105:
 219:lvgl\src\lv_core\../lv_font/../lv_misc/lv_mem.h ****         *d8 = *s8;
 1403              		.loc 3 219 0
 1404 0166 002A     		cmp	r2, #0
 1405 0168 F8D1     		bne	.L106
 1406              	.LVL210:
 1407              	.L87:
 1408              	.LBE267:
 1409              	.LBE268:
 394:lvgl\src\lv_core/lv_style.c **** 
 1410              		.loc 1 394 0
 1411 016a 05B0     		add	sp, sp, #20
 1412              		.cfi_def_cfa_offset 20
 1413              		@ sp needed
 1414 016c F0BD     		pop	{r4, r5, r6, r7, pc}
 1415              	.L114:
 1416 016e 00BF     		.align	2
 1417              	.L113:
 1418 0170 00000000 		.word	.LC0
 1419              		.cfi_endproc
 1420              	.LFE338:
 1421              		.size	_lv_style_set_int, .-_lv_style_set_int
 1422              		.section	.text._lv_style_set_color,"ax",%progbits
 1423              		.align	2
 1424              		.global	_lv_style_set_color
 1425              		.thumb
 1426              		.thumb_func
 1427              		.type	_lv_style_set_color, %function
 1428              	_lv_style_set_color:
 1429              	.LFB339:
 407:lvgl\src\lv_core/lv_style.c ****     LV_ASSERT_STYLE(style);
 1430              		.loc 1 407 0
 1431              		.cfi_startproc
 1432              		@ args = 0, pretend = 0, frame = 16
 1433              		@ frame_needed = 0, uses_anonymous_args = 0
 1434              	.LVL211:
 1435 0000 F0B5     		push	{r4, r5, r6, r7, lr}
 1436              		.cfi_def_cfa_offset 20
 1437              		.cfi_offset 4, -20
 1438              		.cfi_offset 5, -16
 1439              		.cfi_offset 6, -12
 1440              		.cfi_offset 7, -8
 1441              		.cfi_offset 14, -4
 1442 0002 85B0     		sub	sp, sp, #20
 1443              		.cfi_def_cfa_offset 40
 1444 0004 ADF80420 		strh	r2, [sp, #4]	@ movhi
 1445 0008 ADF80610 		strh	r1, [sp, #6]	@ movhi
 1446              	.LVL212:
 1447              	.LBB299:
 1448              	.LBB300:
1060:lvgl\src\lv_core/lv_style.c **** 
 1449              		.loc 1 1060 0
 1450 000c 0368     		ldr	r3, [r0]
 1451 000e 002B     		cmp	r3, #0
 1452 0010 43D0     		beq	.L136
1062:lvgl\src\lv_core/lv_style.c ****     lv_style_attr_t attr;
ARM GAS  C:\Users\strap\AppData\Local\Temp\cc7bAV43.s 			page 60


 1453              		.loc 1 1062 0
 1454 0012 CEB2     		uxtb	r6, r1
 1455              	.LVL213:
1064:lvgl\src\lv_core/lv_style.c **** 
 1456              		.loc 1 1064 0
 1457 0014 0D0A     		lsrs	r5, r1, #8
 1458              	.LVL214:
1069:lvgl\src\lv_core/lv_style.c **** 
 1459              		.loc 1 1069 0
 1460 0016 0022     		movs	r2, #0
1067:lvgl\src\lv_core/lv_style.c **** 
 1461              		.loc 1 1067 0
 1462 0018 4FF0FF34 		mov	r4, #-1
1066:lvgl\src\lv_core/lv_style.c ****     int16_t id_guess = -1;
 1463              		.loc 1 1066 0
 1464 001c 2746     		mov	r7, r4
 1465 001e 2EE0     		b	.L117
 1466              	.LVL215:
 1467              	.L121:
1073:lvgl\src\lv_core/lv_style.c ****             lv_style_attr_t attr_i;
 1468              		.loc 1 1073 0
 1469 0020 9E42     		cmp	r6, r3
 1470 0022 1CD1     		bne	.L118
 1471              	.LVL216:
 1472              	.LBB301:
 1473              	.LBB302:
 1474              	.LBB303:
 1475              	.LBB304:
 1476              	.LBB305:
1145:lvgl\src\lv_core/lv_style.c ****     prop_p[1] = style->map[idx + 1];
 1477              		.loc 1 1145 0
 1478 0024 D0F800E0 		ldr	lr, [r0]
 1479 0028 1EF802C0 		ldrb	ip, [lr, r2]	@ zero_extendqisi2
 1480 002c 8DF80CC0 		strb	ip, [sp, #12]
1146:lvgl\src\lv_core/lv_style.c ****     return prop;
 1481              		.loc 1 1146 0
 1482 0030 1EF80110 		ldrb	r1, [lr, r1]	@ zero_extendqisi2
 1483 0034 8DF80D10 		strb	r1, [sp, #13]
1147:lvgl\src\lv_core/lv_style.c **** }
 1484              		.loc 1 1147 0
 1485 0038 BDF80C10 		ldrh	r1, [sp, #12]
 1486              	.LVL217:
 1487              	.LBE305:
 1488              	.LBE304:
1169:lvgl\src\lv_core/lv_style.c **** }
 1489              		.loc 1 1169 0
 1490 003c 090A     		lsrs	r1, r1, #8
 1491              	.LVL218:
 1492              	.LBE303:
 1493              	.LBE302:
1078:lvgl\src\lv_core/lv_style.c ****                 return i;
 1494              		.loc 1 1078 0
 1495 003e 85EA010E 		eor	lr, r5, r1
 1496 0042 1EF07F0F 		tst	lr, #127
 1497 0046 2AD0     		beq	.L116
 1498 0048 01F07F01 		and	r1, r1, #127
1083:lvgl\src\lv_core/lv_style.c ****                 /* Use this property if it describes better the requested state than the current ca
ARM GAS  C:\Users\strap\AppData\Local\Temp\cc7bAV43.s 			page 61


 1499              		.loc 1 1083 0
 1500 004c 05F07F0E 		and	lr, r5, #127
 1501 0050 31EA0E0E 		bics	lr, r1, lr
 1502 0054 03D1     		bne	.L118
1086:lvgl\src\lv_core/lv_style.c ****                     weight = LV_STYLE_ATTR_GET_STATE(attr_i);
 1503              		.loc 1 1086 0
 1504 0056 B942     		cmp	r1, r7
 1505 0058 01DD     		ble	.L118
1087:lvgl\src\lv_core/lv_style.c ****                     id_guess = i;
 1506              		.loc 1 1087 0
 1507 005a 0FB2     		sxth	r7, r1
 1508              	.LVL219:
1088:lvgl\src\lv_core/lv_style.c ****                 }
 1509              		.loc 1 1088 0
 1510 005c 14B2     		sxth	r4, r2
 1511              	.LVL220:
 1512              	.L118:
 1513              	.LBE301:
 1514              	.LBB306:
 1515              	.LBB307:
 1516              	.LBB308:
 1517              	.LBB309:
1181:lvgl\src\lv_core/lv_style.c ****     size_t size = sizeof(lv_style_property_t);
 1518              		.loc 1 1181 0
 1519 005e 03F00F03 		and	r3, r3, #15
 1520              	.LVL221:
1183:lvgl\src\lv_core/lv_style.c ****     else if(prop_id < LV_STYLE_ID_OPA) size += sizeof(lv_color_t);
 1521              		.loc 1 1183 0
 1522 0062 082B     		cmp	r3, #8
 1523 0064 05D9     		bls	.L137
1184:lvgl\src\lv_core/lv_style.c ****     else if(prop_id < LV_STYLE_ID_PTR) size += sizeof(lv_opa_t);
 1524              		.loc 1 1184 0
 1525 0066 0B2B     		cmp	r3, #11
 1526 0068 05D9     		bls	.L138
1185:lvgl\src\lv_core/lv_style.c ****     else size += sizeof(const void *);
 1527              		.loc 1 1185 0
 1528 006a 0D2B     		cmp	r3, #13
 1529 006c 05D8     		bhi	.L139
 1530 006e 0323     		movs	r3, #3
 1531              	.LVL222:
 1532 0070 04E0     		b	.L120
 1533              	.LVL223:
 1534              	.L137:
1183:lvgl\src\lv_core/lv_style.c ****     else if(prop_id < LV_STYLE_ID_OPA) size += sizeof(lv_color_t);
 1535              		.loc 1 1183 0
 1536 0072 0423     		movs	r3, #4
 1537              	.LVL224:
 1538 0074 02E0     		b	.L120
 1539              	.LVL225:
 1540              	.L138:
1184:lvgl\src\lv_core/lv_style.c ****     else if(prop_id < LV_STYLE_ID_PTR) size += sizeof(lv_opa_t);
 1541              		.loc 1 1184 0
 1542 0076 0423     		movs	r3, #4
 1543              	.LVL226:
 1544 0078 00E0     		b	.L120
 1545              	.LVL227:
 1546              	.L139:
ARM GAS  C:\Users\strap\AppData\Local\Temp\cc7bAV43.s 			page 62


1186:lvgl\src\lv_core/lv_style.c ****     return size;
 1547              		.loc 1 1186 0
 1548 007a 0623     		movs	r3, #6
 1549              	.LVL228:
 1550              	.L120:
 1551              	.LBE309:
 1552              	.LBE308:
 1553              		.loc 1 1198 0
 1554 007c 1A44     		add	r2, r2, r3
 1555              	.LVL229:
 1556              	.L117:
 1557              	.LBE307:
 1558              	.LBE306:
 1559              	.LBB310:
 1560              	.LBB311:
 1561              	.LBB312:
 1562              	.LBB313:
1145:lvgl\src\lv_core/lv_style.c ****     prop_p[1] = style->map[idx + 1];
 1563              		.loc 1 1145 0
 1564 007e 0368     		ldr	r3, [r0]
 1565 0080 995C     		ldrb	r1, [r3, r2]	@ zero_extendqisi2
 1566 0082 8DF80C10 		strb	r1, [sp, #12]
1146:lvgl\src\lv_core/lv_style.c ****     return prop;
 1567              		.loc 1 1146 0
 1568 0086 511C     		adds	r1, r2, #1
 1569 0088 5B5C     		ldrb	r3, [r3, r1]	@ zero_extendqisi2
 1570 008a 8DF80D30 		strb	r3, [sp, #13]
 1571              	.LVL230:
 1572              	.LBE313:
 1573              	.LBE312:
1158:lvgl\src\lv_core/lv_style.c **** }
 1574              		.loc 1 1158 0
 1575 008e 9DF80C30 		ldrb	r3, [sp, #12]	@ zero_extendqisi2
 1576              	.LVL231:
 1577              	.LBE311:
 1578              	.LBE310:
1072:lvgl\src\lv_core/lv_style.c ****         if(prop_id == id_to_find) {
 1579              		.loc 1 1072 0
 1580 0092 FF2B     		cmp	r3, #255
 1581 0094 C4D1     		bne	.L121
1096:lvgl\src\lv_core/lv_style.c **** }
 1582              		.loc 1 1096 0
 1583 0096 2246     		mov	r2, r4
 1584              	.LVL232:
 1585 0098 01E0     		b	.L116
 1586              	.LVL233:
 1587              	.L136:
1060:lvgl\src\lv_core/lv_style.c **** 
 1588              		.loc 1 1060 0
 1589 009a 4FF0FF32 		mov	r2, #-1
 1590              	.LVL234:
 1591              	.L116:
 1592              	.LBE300:
 1593              	.LBE299:
 412:lvgl\src\lv_core/lv_style.c ****         lv_style_attr_t attr_found;
 1594              		.loc 1 412 0
 1595 009e 002A     		cmp	r2, #0
ARM GAS  C:\Users\strap\AppData\Local\Temp\cc7bAV43.s 			page 63


 1596 00a0 1FDB     		blt	.L122
 1597              	.LVL235:
 1598              	.LBB314:
 1599              	.LBB315:
 1600              	.LBB316:
 1601              	.LBB317:
 1602              	.LBB318:
1145:lvgl\src\lv_core/lv_style.c ****     prop_p[1] = style->map[idx + 1];
 1603              		.loc 1 1145 0
 1604 00a2 0368     		ldr	r3, [r0]
 1605 00a4 995C     		ldrb	r1, [r3, r2]	@ zero_extendqisi2
 1606 00a6 8DF80C10 		strb	r1, [sp, #12]
1146:lvgl\src\lv_core/lv_style.c ****     return prop;
 1607              		.loc 1 1146 0
 1608 00aa 1344     		add	r3, r3, r2
 1609 00ac 5B78     		ldrb	r3, [r3, #1]	@ zero_extendqisi2
 1610 00ae 8DF80D30 		strb	r3, [sp, #13]
1147:lvgl\src\lv_core/lv_style.c **** }
 1611              		.loc 1 1147 0
 1612 00b2 BDF80C10 		ldrh	r1, [sp, #12]
 1613              	.LVL236:
 1614              	.LBE318:
 1615              	.LBE317:
 1616              	.LBE316:
 1617              	.LBE315:
 417:lvgl\src\lv_core/lv_style.c **** 
 1618              		.loc 1 417 0
 1619 00b6 BDF80630 		ldrh	r3, [sp, #6]
 1620 00ba 1B0A     		lsrs	r3, r3, #8
 1621              	.LVL237:
 419:lvgl\src\lv_core/lv_style.c ****             _lv_memcpy_small(style->map + id + sizeof(lv_style_property_t), &color, sizeof(lv_color
 1622              		.loc 1 419 0
 1623 00bc 83EA1123 		eor	r3, r3, r1, lsr #8
 1624              	.LVL238:
 1625 00c0 13F07F0F 		tst	r3, #127
 1626 00c4 0DD1     		bne	.L122
 420:lvgl\src\lv_core/lv_style.c ****             return;
 1627              		.loc 1 420 0
 1628 00c6 0368     		ldr	r3, [r0]
 1629 00c8 0232     		adds	r2, r2, #2
 1630 00ca 1344     		add	r3, r3, r2
 1631              	.LVL239:
 1632              	.LBB319:
 1633              	.LBB320:
 217:lvgl\src\lv_core\../lv_font/../lv_misc/lv_mem.h **** 
 1634              		.loc 3 217 0
 1635 00cc 01A9     		add	r1, sp, #4
 1636              	.LVL240:
 1637              	.LBE320:
 1638              	.LBE319:
 420:lvgl\src\lv_core/lv_style.c ****             return;
 1639              		.loc 1 420 0
 1640 00ce 0222     		movs	r2, #2
 1641 00d0 04E0     		b	.L123
 1642              	.LVL241:
 1643              	.L124:
 1644              	.LBB322:
ARM GAS  C:\Users\strap\AppData\Local\Temp\cc7bAV43.s 			page 64


 1645              	.LBB321:
 220:lvgl\src\lv_core\../lv_font/../lv_misc/lv_mem.h ****         d8++;
 1646              		.loc 3 220 0
 1647 00d2 11F8010B 		ldrb	r0, [r1], #1	@ zero_extendqisi2
 1648              	.LVL242:
 1649 00d6 03F8010B 		strb	r0, [r3], #1
 1650              	.LVL243:
 1651              		.loc 3 223 0
 1652 00da 013A     		subs	r2, r2, #1
 1653              	.LVL244:
 1654              	.L123:
 219:lvgl\src\lv_core\../lv_font/../lv_misc/lv_mem.h ****         *d8 = *s8;
 1655              		.loc 3 219 0
 1656 00dc 002A     		cmp	r2, #0
 1657 00de F8D1     		bne	.L124
 1658 00e0 43E0     		b	.L115
 1659              	.LVL245:
 1660              	.L122:
 1661 00e2 0546     		mov	r5, r0
 1662              	.LVL246:
 1663              	.LBE321:
 1664              	.LBE322:
 1665              	.LBE314:
 427:lvgl\src\lv_core/lv_style.c ****     uint8_t end_mark_size = sizeof(end_mark);
 1666              		.loc 1 427 0
 1667 00e4 FF23     		movs	r3, #255
 1668 00e6 ADF80E30 		strh	r3, [sp, #14]	@ movhi
 1669              	.LVL247:
 430:lvgl\src\lv_core/lv_style.c ****     if(size == 0) size += end_mark_size;
 1670              		.loc 1 430 0
 1671 00ea FFF7FEFF 		bl	_lv_style_get_mem_size
 1672              	.LVL248:
 431:lvgl\src\lv_core/lv_style.c **** 
 1673              		.loc 1 431 0
 1674 00ee 0346     		mov	r3, r0
 1675 00f0 08B9     		cbnz	r0, .L126
 431:lvgl\src\lv_core/lv_style.c **** 
 1676              		.loc 1 431 0 is_stmt 0 discriminator 1
 1677 00f2 0233     		adds	r3, r3, #2
 1678 00f4 9BB2     		uxth	r3, r3
 1679              	.LVL249:
 1680              	.L126:
 433:lvgl\src\lv_core/lv_style.c ****     style_resize(style, size);
 1681              		.loc 1 433 0 is_stmt 1
 1682 00f6 0433     		adds	r3, r3, #4
 1683              	.LVL250:
 1684 00f8 9CB2     		uxth	r4, r3
 1685              	.LVL251:
 1686              	.LBB323:
 1687              	.LBB324:
1132:lvgl\src\lv_core/lv_style.c **** }
 1688              		.loc 1 1132 0
 1689 00fa 2146     		mov	r1, r4
 1690 00fc 2868     		ldr	r0, [r5]
 1691 00fe FFF7FEFF 		bl	lv_mem_realloc
 1692              	.LVL252:
 1693 0102 2860     		str	r0, [r5]
ARM GAS  C:\Users\strap\AppData\Local\Temp\cc7bAV43.s 			page 65


 1694              	.LVL253:
 1695              	.LBE324:
 1696              	.LBE323:
 435:lvgl\src\lv_core/lv_style.c ****     if(style == NULL) return;
 1697              		.loc 1 435 0
 1698 0104 FFF7FEFF 		bl	lv_debug_check_null
 1699              	.LVL254:
 1700 0108 28B9     		cbnz	r0, .L127
 435:lvgl\src\lv_core/lv_style.c ****     if(style == NULL) return;
 1701              		.loc 1 435 0 is_stmt 0 discriminator 1
 1702 010a 2A68     		ldr	r2, [r5]
 1703 010c 0023     		movs	r3, #0
 1704 010e 1848     		ldr	r0, .L141
 1705 0110 FFF7FEFF 		bl	lv_debug_log_error
 1706              	.LVL255:
 1707              	.L128:
 1708 0114 FEE7     		b	.L128
 1709              	.L127:
 436:lvgl\src\lv_core/lv_style.c **** 
 1710              		.loc 1 436 0 is_stmt 1
 1711 0116 45B3     		cbz	r5, .L115
 438:lvgl\src\lv_core/lv_style.c ****     _lv_memcpy_small(style->map + size - sizeof(lv_color_t) - end_mark_size, &color, sizeof(lv_colo
 1712              		.loc 1 438 0
 1713 0118 2A68     		ldr	r2, [r5]
 1714 011a A31F     		subs	r3, r4, #6
 1715 011c 1344     		add	r3, r3, r2
 1716              	.LVL256:
 1717              	.LBB325:
 1718              	.LBB326:
 217:lvgl\src\lv_core\../lv_font/../lv_misc/lv_mem.h **** 
 1719              		.loc 3 217 0
 1720 011e 0DF10601 		add	r1, sp, #6
 1721              	.LVL257:
 1722              	.LBE326:
 1723              	.LBE325:
 438:lvgl\src\lv_core/lv_style.c ****     _lv_memcpy_small(style->map + size - sizeof(lv_color_t) - end_mark_size, &color, sizeof(lv_colo
 1724              		.loc 1 438 0
 1725 0122 0222     		movs	r2, #2
 1726 0124 04E0     		b	.L129
 1727              	.LVL258:
 1728              	.L130:
 1729              	.LBB328:
 1730              	.LBB327:
 220:lvgl\src\lv_core\../lv_font/../lv_misc/lv_mem.h ****         d8++;
 1731              		.loc 3 220 0
 1732 0126 11F8010B 		ldrb	r0, [r1], #1	@ zero_extendqisi2
 1733              	.LVL259:
 1734 012a 03F8010B 		strb	r0, [r3], #1
 1735              	.LVL260:
 1736              		.loc 3 223 0
 1737 012e 013A     		subs	r2, r2, #1
 1738              	.LVL261:
 1739              	.L129:
 219:lvgl\src\lv_core\../lv_font/../lv_misc/lv_mem.h ****         *d8 = *s8;
 1740              		.loc 3 219 0
 1741 0130 002A     		cmp	r2, #0
 1742 0132 F8D1     		bne	.L130
ARM GAS  C:\Users\strap\AppData\Local\Temp\cc7bAV43.s 			page 66


 1743              	.LVL262:
 1744              	.LBE327:
 1745              	.LBE328:
 439:lvgl\src\lv_core/lv_style.c ****     _lv_memcpy_small(style->map + size - end_mark_size, &end_mark, sizeof(end_mark));
 1746              		.loc 1 439 0
 1747 0134 2A68     		ldr	r2, [r5]
 1748 0136 231F     		subs	r3, r4, #4
 1749              	.LVL263:
 1750 0138 1344     		add	r3, r3, r2
 1751              	.LVL264:
 1752              	.LBB329:
 1753              	.LBB330:
 217:lvgl\src\lv_core\../lv_font/../lv_misc/lv_mem.h **** 
 1754              		.loc 3 217 0
 1755 013a 01A9     		add	r1, sp, #4
 1756              	.LVL265:
 1757              	.LBE330:
 1758              	.LBE329:
 439:lvgl\src\lv_core/lv_style.c ****     _lv_memcpy_small(style->map + size - end_mark_size, &end_mark, sizeof(end_mark));
 1759              		.loc 1 439 0
 1760 013c 0222     		movs	r2, #2
 1761 013e 04E0     		b	.L131
 1762              	.LVL266:
 1763              	.L132:
 1764              	.LBB332:
 1765              	.LBB331:
 220:lvgl\src\lv_core\../lv_font/../lv_misc/lv_mem.h ****         d8++;
 1766              		.loc 3 220 0
 1767 0140 11F8010B 		ldrb	r0, [r1], #1	@ zero_extendqisi2
 1768              	.LVL267:
 1769 0144 03F8010B 		strb	r0, [r3], #1
 1770              	.LVL268:
 1771              		.loc 3 223 0
 1772 0148 013A     		subs	r2, r2, #1
 1773              	.LVL269:
 1774              	.L131:
 219:lvgl\src\lv_core\../lv_font/../lv_misc/lv_mem.h ****         *d8 = *s8;
 1775              		.loc 3 219 0
 1776 014a 002A     		cmp	r2, #0
 1777 014c F8D1     		bne	.L132
 1778              	.LVL270:
 1779              	.LBE331:
 1780              	.LBE332:
 440:lvgl\src\lv_core/lv_style.c **** }
 1781              		.loc 1 440 0
 1782 014e 2B68     		ldr	r3, [r5]
 1783              	.LVL271:
 1784 0150 023C     		subs	r4, r4, #2
 1785 0152 2344     		add	r3, r3, r4
 1786              	.LVL272:
 1787              	.LBB333:
 1788              	.LBB334:
 217:lvgl\src\lv_core\../lv_font/../lv_misc/lv_mem.h **** 
 1789              		.loc 3 217 0
 1790 0154 0DF10E01 		add	r1, sp, #14
 1791              	.LVL273:
 1792              	.LBE334:
ARM GAS  C:\Users\strap\AppData\Local\Temp\cc7bAV43.s 			page 67


 1793              	.LBE333:
 440:lvgl\src\lv_core/lv_style.c **** }
 1794              		.loc 1 440 0
 1795 0158 0222     		movs	r2, #2
 1796 015a 04E0     		b	.L133
 1797              	.LVL274:
 1798              	.L134:
 1799              	.LBB336:
 1800              	.LBB335:
 220:lvgl\src\lv_core\../lv_font/../lv_misc/lv_mem.h ****         d8++;
 1801              		.loc 3 220 0
 1802 015c 11F8010B 		ldrb	r0, [r1], #1	@ zero_extendqisi2
 1803              	.LVL275:
 1804 0160 03F8010B 		strb	r0, [r3], #1
 1805              	.LVL276:
 1806              		.loc 3 223 0
 1807 0164 013A     		subs	r2, r2, #1
 1808              	.LVL277:
 1809              	.L133:
 219:lvgl\src\lv_core\../lv_font/../lv_misc/lv_mem.h ****         *d8 = *s8;
 1810              		.loc 3 219 0
 1811 0166 002A     		cmp	r2, #0
 1812 0168 F8D1     		bne	.L134
 1813              	.LVL278:
 1814              	.L115:
 1815              	.LBE335:
 1816              	.LBE336:
 441:lvgl\src\lv_core/lv_style.c **** 
 1817              		.loc 1 441 0
 1818 016a 05B0     		add	sp, sp, #20
 1819              		.cfi_def_cfa_offset 20
 1820              		@ sp needed
 1821 016c F0BD     		pop	{r4, r5, r6, r7, pc}
 1822              	.L142:
 1823 016e 00BF     		.align	2
 1824              	.L141:
 1825 0170 00000000 		.word	.LC0
 1826              		.cfi_endproc
 1827              	.LFE339:
 1828              		.size	_lv_style_set_color, .-_lv_style_set_color
 1829              		.section	.text._lv_style_set_opa,"ax",%progbits
 1830              		.align	2
 1831              		.global	_lv_style_set_opa
 1832              		.thumb
 1833              		.thumb_func
 1834              		.type	_lv_style_set_opa, %function
 1835              	_lv_style_set_opa:
 1836              	.LFB340:
 454:lvgl\src\lv_core/lv_style.c ****     LV_ASSERT_STYLE(style);
 1837              		.loc 1 454 0
 1838              		.cfi_startproc
 1839              		@ args = 0, pretend = 0, frame = 16
 1840              		@ frame_needed = 0, uses_anonymous_args = 0
 1841              	.LVL279:
 1842 0000 F0B5     		push	{r4, r5, r6, r7, lr}
 1843              		.cfi_def_cfa_offset 20
 1844              		.cfi_offset 4, -20
ARM GAS  C:\Users\strap\AppData\Local\Temp\cc7bAV43.s 			page 68


 1845              		.cfi_offset 5, -16
 1846              		.cfi_offset 6, -12
 1847              		.cfi_offset 7, -8
 1848              		.cfi_offset 14, -4
 1849 0002 85B0     		sub	sp, sp, #20
 1850              		.cfi_def_cfa_offset 40
 1851 0004 ADF80610 		strh	r1, [sp, #6]	@ movhi
 1852 0008 8DF80520 		strb	r2, [sp, #5]
 1853              	.LVL280:
 1854              	.LBB367:
 1855              	.LBB368:
1060:lvgl\src\lv_core/lv_style.c **** 
 1856              		.loc 1 1060 0
 1857 000c 0368     		ldr	r3, [r0]
 1858 000e 002B     		cmp	r3, #0
 1859 0010 43D0     		beq	.L164
1062:lvgl\src\lv_core/lv_style.c ****     lv_style_attr_t attr;
 1860              		.loc 1 1062 0
 1861 0012 CEB2     		uxtb	r6, r1
 1862              	.LVL281:
1064:lvgl\src\lv_core/lv_style.c **** 
 1863              		.loc 1 1064 0
 1864 0014 0D0A     		lsrs	r5, r1, #8
 1865              	.LVL282:
1069:lvgl\src\lv_core/lv_style.c **** 
 1866              		.loc 1 1069 0
 1867 0016 0022     		movs	r2, #0
 1868              	.LVL283:
1067:lvgl\src\lv_core/lv_style.c **** 
 1869              		.loc 1 1067 0
 1870 0018 4FF0FF34 		mov	r4, #-1
1066:lvgl\src\lv_core/lv_style.c ****     int16_t id_guess = -1;
 1871              		.loc 1 1066 0
 1872 001c 2746     		mov	r7, r4
 1873 001e 2EE0     		b	.L145
 1874              	.LVL284:
 1875              	.L149:
1073:lvgl\src\lv_core/lv_style.c ****             lv_style_attr_t attr_i;
 1876              		.loc 1 1073 0
 1877 0020 9E42     		cmp	r6, r3
 1878 0022 1CD1     		bne	.L146
 1879              	.LVL285:
 1880              	.LBB369:
 1881              	.LBB370:
 1882              	.LBB371:
 1883              	.LBB372:
 1884              	.LBB373:
1145:lvgl\src\lv_core/lv_style.c ****     prop_p[1] = style->map[idx + 1];
 1885              		.loc 1 1145 0
 1886 0024 D0F800E0 		ldr	lr, [r0]
 1887 0028 1EF802C0 		ldrb	ip, [lr, r2]	@ zero_extendqisi2
 1888 002c 8DF80CC0 		strb	ip, [sp, #12]
1146:lvgl\src\lv_core/lv_style.c ****     return prop;
 1889              		.loc 1 1146 0
 1890 0030 1EF80110 		ldrb	r1, [lr, r1]	@ zero_extendqisi2
 1891 0034 8DF80D10 		strb	r1, [sp, #13]
1147:lvgl\src\lv_core/lv_style.c **** }
ARM GAS  C:\Users\strap\AppData\Local\Temp\cc7bAV43.s 			page 69


 1892              		.loc 1 1147 0
 1893 0038 BDF80C10 		ldrh	r1, [sp, #12]
 1894              	.LVL286:
 1895              	.LBE373:
 1896              	.LBE372:
1169:lvgl\src\lv_core/lv_style.c **** }
 1897              		.loc 1 1169 0
 1898 003c 090A     		lsrs	r1, r1, #8
 1899              	.LVL287:
 1900              	.LBE371:
 1901              	.LBE370:
1078:lvgl\src\lv_core/lv_style.c ****                 return i;
 1902              		.loc 1 1078 0
 1903 003e 85EA010E 		eor	lr, r5, r1
 1904 0042 1EF07F0F 		tst	lr, #127
 1905 0046 2AD0     		beq	.L144
 1906 0048 01F07F01 		and	r1, r1, #127
1083:lvgl\src\lv_core/lv_style.c ****                 /* Use this property if it describes better the requested state than the current ca
 1907              		.loc 1 1083 0
 1908 004c 05F07F0E 		and	lr, r5, #127
 1909 0050 31EA0E0E 		bics	lr, r1, lr
 1910 0054 03D1     		bne	.L146
1086:lvgl\src\lv_core/lv_style.c ****                     weight = LV_STYLE_ATTR_GET_STATE(attr_i);
 1911              		.loc 1 1086 0
 1912 0056 B942     		cmp	r1, r7
 1913 0058 01DD     		ble	.L146
1087:lvgl\src\lv_core/lv_style.c ****                     id_guess = i;
 1914              		.loc 1 1087 0
 1915 005a 0FB2     		sxth	r7, r1
 1916              	.LVL288:
1088:lvgl\src\lv_core/lv_style.c ****                 }
 1917              		.loc 1 1088 0
 1918 005c 14B2     		sxth	r4, r2
 1919              	.LVL289:
 1920              	.L146:
 1921              	.LBE369:
 1922              	.LBB374:
 1923              	.LBB375:
 1924              	.LBB376:
 1925              	.LBB377:
1181:lvgl\src\lv_core/lv_style.c ****     size_t size = sizeof(lv_style_property_t);
 1926              		.loc 1 1181 0
 1927 005e 03F00F03 		and	r3, r3, #15
 1928              	.LVL290:
1183:lvgl\src\lv_core/lv_style.c ****     else if(prop_id < LV_STYLE_ID_OPA) size += sizeof(lv_color_t);
 1929              		.loc 1 1183 0
 1930 0062 082B     		cmp	r3, #8
 1931 0064 05D9     		bls	.L165
1184:lvgl\src\lv_core/lv_style.c ****     else if(prop_id < LV_STYLE_ID_PTR) size += sizeof(lv_opa_t);
 1932              		.loc 1 1184 0
 1933 0066 0B2B     		cmp	r3, #11
 1934 0068 05D9     		bls	.L166
1185:lvgl\src\lv_core/lv_style.c ****     else size += sizeof(const void *);
 1935              		.loc 1 1185 0
 1936 006a 0D2B     		cmp	r3, #13
 1937 006c 05D8     		bhi	.L167
 1938 006e 0323     		movs	r3, #3
ARM GAS  C:\Users\strap\AppData\Local\Temp\cc7bAV43.s 			page 70


 1939              	.LVL291:
 1940 0070 04E0     		b	.L148
 1941              	.LVL292:
 1942              	.L165:
1183:lvgl\src\lv_core/lv_style.c ****     else if(prop_id < LV_STYLE_ID_OPA) size += sizeof(lv_color_t);
 1943              		.loc 1 1183 0
 1944 0072 0423     		movs	r3, #4
 1945              	.LVL293:
 1946 0074 02E0     		b	.L148
 1947              	.LVL294:
 1948              	.L166:
1184:lvgl\src\lv_core/lv_style.c ****     else if(prop_id < LV_STYLE_ID_PTR) size += sizeof(lv_opa_t);
 1949              		.loc 1 1184 0
 1950 0076 0423     		movs	r3, #4
 1951              	.LVL295:
 1952 0078 00E0     		b	.L148
 1953              	.LVL296:
 1954              	.L167:
1186:lvgl\src\lv_core/lv_style.c ****     return size;
 1955              		.loc 1 1186 0
 1956 007a 0623     		movs	r3, #6
 1957              	.LVL297:
 1958              	.L148:
 1959              	.LBE377:
 1960              	.LBE376:
 1961              		.loc 1 1198 0
 1962 007c 1A44     		add	r2, r2, r3
 1963              	.LVL298:
 1964              	.L145:
 1965              	.LBE375:
 1966              	.LBE374:
 1967              	.LBB378:
 1968              	.LBB379:
 1969              	.LBB380:
 1970              	.LBB381:
1145:lvgl\src\lv_core/lv_style.c ****     prop_p[1] = style->map[idx + 1];
 1971              		.loc 1 1145 0
 1972 007e 0368     		ldr	r3, [r0]
 1973 0080 995C     		ldrb	r1, [r3, r2]	@ zero_extendqisi2
 1974 0082 8DF80C10 		strb	r1, [sp, #12]
1146:lvgl\src\lv_core/lv_style.c ****     return prop;
 1975              		.loc 1 1146 0
 1976 0086 511C     		adds	r1, r2, #1
 1977 0088 5B5C     		ldrb	r3, [r3, r1]	@ zero_extendqisi2
 1978 008a 8DF80D30 		strb	r3, [sp, #13]
 1979              	.LVL299:
 1980              	.LBE381:
 1981              	.LBE380:
1158:lvgl\src\lv_core/lv_style.c **** }
 1982              		.loc 1 1158 0
 1983 008e 9DF80C30 		ldrb	r3, [sp, #12]	@ zero_extendqisi2
 1984              	.LVL300:
 1985              	.LBE379:
 1986              	.LBE378:
1072:lvgl\src\lv_core/lv_style.c ****         if(prop_id == id_to_find) {
 1987              		.loc 1 1072 0
 1988 0092 FF2B     		cmp	r3, #255
ARM GAS  C:\Users\strap\AppData\Local\Temp\cc7bAV43.s 			page 71


 1989 0094 C4D1     		bne	.L149
1096:lvgl\src\lv_core/lv_style.c **** }
 1990              		.loc 1 1096 0
 1991 0096 2246     		mov	r2, r4
 1992              	.LVL301:
 1993 0098 01E0     		b	.L144
 1994              	.LVL302:
 1995              	.L164:
1060:lvgl\src\lv_core/lv_style.c **** 
 1996              		.loc 1 1060 0
 1997 009a 4FF0FF32 		mov	r2, #-1
 1998              	.LVL303:
 1999              	.L144:
 2000              	.LBE368:
 2001              	.LBE367:
 459:lvgl\src\lv_core/lv_style.c ****         lv_style_attr_t attr_found;
 2002              		.loc 1 459 0
 2003 009e 002A     		cmp	r2, #0
 2004 00a0 20DB     		blt	.L150
 2005              	.LVL304:
 2006              	.LBB382:
 2007              	.LBB383:
 2008              	.LBB384:
 2009              	.LBB385:
 2010              	.LBB386:
1145:lvgl\src\lv_core/lv_style.c ****     prop_p[1] = style->map[idx + 1];
 2011              		.loc 1 1145 0
 2012 00a2 0368     		ldr	r3, [r0]
 2013 00a4 995C     		ldrb	r1, [r3, r2]	@ zero_extendqisi2
 2014 00a6 8DF80C10 		strb	r1, [sp, #12]
1146:lvgl\src\lv_core/lv_style.c ****     return prop;
 2015              		.loc 1 1146 0
 2016 00aa 1344     		add	r3, r3, r2
 2017 00ac 5B78     		ldrb	r3, [r3, #1]	@ zero_extendqisi2
 2018 00ae 8DF80D30 		strb	r3, [sp, #13]
1147:lvgl\src\lv_core/lv_style.c **** }
 2019              		.loc 1 1147 0
 2020 00b2 BDF80C10 		ldrh	r1, [sp, #12]
 2021              	.LVL305:
 2022              	.LBE386:
 2023              	.LBE385:
 2024              	.LBE384:
 2025              	.LBE383:
 464:lvgl\src\lv_core/lv_style.c **** 
 2026              		.loc 1 464 0
 2027 00b6 BDF80630 		ldrh	r3, [sp, #6]
 2028 00ba 1B0A     		lsrs	r3, r3, #8
 2029              	.LVL306:
 466:lvgl\src\lv_core/lv_style.c ****             _lv_memcpy_small(style->map + id + sizeof(lv_style_property_t), &opa, sizeof(lv_opa_t))
 2030              		.loc 1 466 0
 2031 00bc 83EA1123 		eor	r3, r3, r1, lsr #8
 2032              	.LVL307:
 2033 00c0 13F07F0F 		tst	r3, #127
 2034 00c4 0ED1     		bne	.L150
 467:lvgl\src\lv_core/lv_style.c ****             return;
 2035              		.loc 1 467 0
 2036 00c6 0368     		ldr	r3, [r0]
ARM GAS  C:\Users\strap\AppData\Local\Temp\cc7bAV43.s 			page 72


 2037 00c8 0232     		adds	r2, r2, #2
 2038 00ca 1344     		add	r3, r3, r2
 2039              	.LVL308:
 2040              	.LBB387:
 2041              	.LBB388:
 217:lvgl\src\lv_core\../lv_font/../lv_misc/lv_mem.h **** 
 2042              		.loc 3 217 0
 2043 00cc 0DF10501 		add	r1, sp, #5
 2044              	.LVL309:
 2045              	.LBE388:
 2046              	.LBE387:
 467:lvgl\src\lv_core/lv_style.c ****             return;
 2047              		.loc 1 467 0
 2048 00d0 0122     		movs	r2, #1
 2049 00d2 04E0     		b	.L151
 2050              	.LVL310:
 2051              	.L152:
 2052              	.LBB390:
 2053              	.LBB389:
 220:lvgl\src\lv_core\../lv_font/../lv_misc/lv_mem.h ****         d8++;
 2054              		.loc 3 220 0
 2055 00d4 11F8010B 		ldrb	r0, [r1], #1	@ zero_extendqisi2
 2056              	.LVL311:
 2057 00d8 03F8010B 		strb	r0, [r3], #1
 2058              	.LVL312:
 2059              		.loc 3 223 0
 2060 00dc 013A     		subs	r2, r2, #1
 2061              	.LVL313:
 2062              	.L151:
 219:lvgl\src\lv_core\../lv_font/../lv_misc/lv_mem.h ****         *d8 = *s8;
 2063              		.loc 3 219 0
 2064 00de 002A     		cmp	r2, #0
 2065 00e0 F8D1     		bne	.L152
 2066 00e2 44E0     		b	.L143
 2067              	.LVL314:
 2068              	.L150:
 2069 00e4 0546     		mov	r5, r0
 2070              	.LVL315:
 2071              	.LBE389:
 2072              	.LBE390:
 2073              	.LBE382:
 474:lvgl\src\lv_core/lv_style.c ****     uint8_t end_mark_size = sizeof(end_mark);
 2074              		.loc 1 474 0
 2075 00e6 FF23     		movs	r3, #255
 2076 00e8 ADF80E30 		strh	r3, [sp, #14]	@ movhi
 2077              	.LVL316:
 477:lvgl\src\lv_core/lv_style.c ****     if(size == 0) size += end_mark_size;
 2078              		.loc 1 477 0
 2079 00ec FFF7FEFF 		bl	_lv_style_get_mem_size
 2080              	.LVL317:
 478:lvgl\src\lv_core/lv_style.c **** 
 2081              		.loc 1 478 0
 2082 00f0 0346     		mov	r3, r0
 2083 00f2 08B9     		cbnz	r0, .L154
 478:lvgl\src\lv_core/lv_style.c **** 
 2084              		.loc 1 478 0 is_stmt 0 discriminator 1
 2085 00f4 0233     		adds	r3, r3, #2
ARM GAS  C:\Users\strap\AppData\Local\Temp\cc7bAV43.s 			page 73


 2086 00f6 9BB2     		uxth	r3, r3
 2087              	.LVL318:
 2088              	.L154:
 480:lvgl\src\lv_core/lv_style.c ****     style_resize(style, size);
 2089              		.loc 1 480 0 is_stmt 1
 2090 00f8 0333     		adds	r3, r3, #3
 2091              	.LVL319:
 2092 00fa 9CB2     		uxth	r4, r3
 2093              	.LVL320:
 2094              	.LBB391:
 2095              	.LBB392:
1132:lvgl\src\lv_core/lv_style.c **** }
 2096              		.loc 1 1132 0
 2097 00fc 2146     		mov	r1, r4
 2098 00fe 2868     		ldr	r0, [r5]
 2099 0100 FFF7FEFF 		bl	lv_mem_realloc
 2100              	.LVL321:
 2101 0104 2860     		str	r0, [r5]
 2102              	.LVL322:
 2103              	.LBE392:
 2104              	.LBE391:
 482:lvgl\src\lv_core/lv_style.c ****     if(style == NULL) return;
 2105              		.loc 1 482 0
 2106 0106 FFF7FEFF 		bl	lv_debug_check_null
 2107              	.LVL323:
 2108 010a 28B9     		cbnz	r0, .L155
 482:lvgl\src\lv_core/lv_style.c ****     if(style == NULL) return;
 2109              		.loc 1 482 0 is_stmt 0 discriminator 1
 2110 010c 2A68     		ldr	r2, [r5]
 2111 010e 0023     		movs	r3, #0
 2112 0110 1848     		ldr	r0, .L169
 2113 0112 FFF7FEFF 		bl	lv_debug_log_error
 2114              	.LVL324:
 2115              	.L156:
 2116 0116 FEE7     		b	.L156
 2117              	.L155:
 483:lvgl\src\lv_core/lv_style.c **** 
 2118              		.loc 1 483 0 is_stmt 1
 2119 0118 4DB3     		cbz	r5, .L143
 485:lvgl\src\lv_core/lv_style.c ****     _lv_memcpy_small(style->map + size - sizeof(lv_opa_t) - end_mark_size, &opa, sizeof(lv_opa_t));
 2120              		.loc 1 485 0
 2121 011a 2A68     		ldr	r2, [r5]
 2122 011c 631F     		subs	r3, r4, #5
 2123 011e 1344     		add	r3, r3, r2
 2124              	.LVL325:
 2125              	.LBB393:
 2126              	.LBB394:
 217:lvgl\src\lv_core\../lv_font/../lv_misc/lv_mem.h **** 
 2127              		.loc 3 217 0
 2128 0120 0DF10601 		add	r1, sp, #6
 2129              	.LVL326:
 2130              	.LBE394:
 2131              	.LBE393:
 485:lvgl\src\lv_core/lv_style.c ****     _lv_memcpy_small(style->map + size - sizeof(lv_opa_t) - end_mark_size, &opa, sizeof(lv_opa_t));
 2132              		.loc 1 485 0
 2133 0124 0222     		movs	r2, #2
 2134 0126 04E0     		b	.L157
ARM GAS  C:\Users\strap\AppData\Local\Temp\cc7bAV43.s 			page 74


 2135              	.LVL327:
 2136              	.L158:
 2137              	.LBB396:
 2138              	.LBB395:
 220:lvgl\src\lv_core\../lv_font/../lv_misc/lv_mem.h ****         d8++;
 2139              		.loc 3 220 0
 2140 0128 11F8010B 		ldrb	r0, [r1], #1	@ zero_extendqisi2
 2141              	.LVL328:
 2142 012c 03F8010B 		strb	r0, [r3], #1
 2143              	.LVL329:
 2144              		.loc 3 223 0
 2145 0130 013A     		subs	r2, r2, #1
 2146              	.LVL330:
 2147              	.L157:
 219:lvgl\src\lv_core\../lv_font/../lv_misc/lv_mem.h ****         *d8 = *s8;
 2148              		.loc 3 219 0
 2149 0132 002A     		cmp	r2, #0
 2150 0134 F8D1     		bne	.L158
 2151              	.LVL331:
 2152              	.LBE395:
 2153              	.LBE396:
 486:lvgl\src\lv_core/lv_style.c ****     _lv_memcpy_small(style->map + size - end_mark_size, &end_mark, sizeof(end_mark));
 2154              		.loc 1 486 0
 2155 0136 2A68     		ldr	r2, [r5]
 2156 0138 E31E     		subs	r3, r4, #3
 2157              	.LVL332:
 2158 013a 1344     		add	r3, r3, r2
 2159              	.LVL333:
 2160              	.LBB397:
 2161              	.LBB398:
 217:lvgl\src\lv_core\../lv_font/../lv_misc/lv_mem.h **** 
 2162              		.loc 3 217 0
 2163 013c 0DF10501 		add	r1, sp, #5
 2164              	.LVL334:
 2165              	.LBE398:
 2166              	.LBE397:
 486:lvgl\src\lv_core/lv_style.c ****     _lv_memcpy_small(style->map + size - end_mark_size, &end_mark, sizeof(end_mark));
 2167              		.loc 1 486 0
 2168 0140 0122     		movs	r2, #1
 2169 0142 04E0     		b	.L159
 2170              	.LVL335:
 2171              	.L160:
 2172              	.LBB400:
 2173              	.LBB399:
 220:lvgl\src\lv_core\../lv_font/../lv_misc/lv_mem.h ****         d8++;
 2174              		.loc 3 220 0
 2175 0144 11F8010B 		ldrb	r0, [r1], #1	@ zero_extendqisi2
 2176              	.LVL336:
 2177 0148 03F8010B 		strb	r0, [r3], #1
 2178              	.LVL337:
 2179              		.loc 3 223 0
 2180 014c 013A     		subs	r2, r2, #1
 2181              	.LVL338:
 2182              	.L159:
 219:lvgl\src\lv_core\../lv_font/../lv_misc/lv_mem.h ****         *d8 = *s8;
 2183              		.loc 3 219 0
 2184 014e 002A     		cmp	r2, #0
ARM GAS  C:\Users\strap\AppData\Local\Temp\cc7bAV43.s 			page 75


 2185 0150 F8D1     		bne	.L160
 2186              	.LVL339:
 2187              	.LBE399:
 2188              	.LBE400:
 487:lvgl\src\lv_core/lv_style.c **** }
 2189              		.loc 1 487 0
 2190 0152 2B68     		ldr	r3, [r5]
 2191              	.LVL340:
 2192 0154 023C     		subs	r4, r4, #2
 2193 0156 2344     		add	r3, r3, r4
 2194              	.LVL341:
 2195              	.LBB401:
 2196              	.LBB402:
 217:lvgl\src\lv_core\../lv_font/../lv_misc/lv_mem.h **** 
 2197              		.loc 3 217 0
 2198 0158 0DF10E01 		add	r1, sp, #14
 2199              	.LVL342:
 2200              	.LBE402:
 2201              	.LBE401:
 487:lvgl\src\lv_core/lv_style.c **** }
 2202              		.loc 1 487 0
 2203 015c 0222     		movs	r2, #2
 2204 015e 04E0     		b	.L161
 2205              	.LVL343:
 2206              	.L162:
 2207              	.LBB404:
 2208              	.LBB403:
 220:lvgl\src\lv_core\../lv_font/../lv_misc/lv_mem.h ****         d8++;
 2209              		.loc 3 220 0
 2210 0160 11F8010B 		ldrb	r0, [r1], #1	@ zero_extendqisi2
 2211              	.LVL344:
 2212 0164 03F8010B 		strb	r0, [r3], #1
 2213              	.LVL345:
 2214              		.loc 3 223 0
 2215 0168 013A     		subs	r2, r2, #1
 2216              	.LVL346:
 2217              	.L161:
 219:lvgl\src\lv_core\../lv_font/../lv_misc/lv_mem.h ****         *d8 = *s8;
 2218              		.loc 3 219 0
 2219 016a 002A     		cmp	r2, #0
 2220 016c F8D1     		bne	.L162
 2221              	.LVL347:
 2222              	.L143:
 2223              	.LBE403:
 2224              	.LBE404:
 488:lvgl\src\lv_core/lv_style.c **** 
 2225              		.loc 1 488 0
 2226 016e 05B0     		add	sp, sp, #20
 2227              		.cfi_def_cfa_offset 20
 2228              		@ sp needed
 2229 0170 F0BD     		pop	{r4, r5, r6, r7, pc}
 2230              	.L170:
 2231 0172 00BF     		.align	2
 2232              	.L169:
 2233 0174 00000000 		.word	.LC0
 2234              		.cfi_endproc
 2235              	.LFE340:
ARM GAS  C:\Users\strap\AppData\Local\Temp\cc7bAV43.s 			page 76


 2236              		.size	_lv_style_set_opa, .-_lv_style_set_opa
 2237              		.section	.text._lv_style_set_ptr,"ax",%progbits
 2238              		.align	2
 2239              		.global	_lv_style_set_ptr
 2240              		.thumb
 2241              		.thumb_func
 2242              		.type	_lv_style_set_ptr, %function
 2243              	_lv_style_set_ptr:
 2244              	.LFB341:
 501:lvgl\src\lv_core/lv_style.c ****     LV_ASSERT_STYLE(style);
 2245              		.loc 1 501 0
 2246              		.cfi_startproc
 2247              		@ args = 0, pretend = 0, frame = 16
 2248              		@ frame_needed = 0, uses_anonymous_args = 0
 2249              	.LVL348:
 2250 0000 F0B5     		push	{r4, r5, r6, r7, lr}
 2251              		.cfi_def_cfa_offset 20
 2252              		.cfi_offset 4, -20
 2253              		.cfi_offset 5, -16
 2254              		.cfi_offset 6, -12
 2255              		.cfi_offset 7, -8
 2256              		.cfi_offset 14, -4
 2257 0002 85B0     		sub	sp, sp, #20
 2258              		.cfi_def_cfa_offset 40
 2259 0004 0092     		str	r2, [sp]
 2260 0006 ADF80610 		strh	r1, [sp, #6]	@ movhi
 2261              	.LVL349:
 2262              	.LBB435:
 2263              	.LBB436:
1060:lvgl\src\lv_core/lv_style.c **** 
 2264              		.loc 1 1060 0
 2265 000a 0368     		ldr	r3, [r0]
 2266 000c 002B     		cmp	r3, #0
 2267 000e 43D0     		beq	.L192
1062:lvgl\src\lv_core/lv_style.c ****     lv_style_attr_t attr;
 2268              		.loc 1 1062 0
 2269 0010 CEB2     		uxtb	r6, r1
 2270              	.LVL350:
1064:lvgl\src\lv_core/lv_style.c **** 
 2271              		.loc 1 1064 0
 2272 0012 0D0A     		lsrs	r5, r1, #8
 2273              	.LVL351:
1069:lvgl\src\lv_core/lv_style.c **** 
 2274              		.loc 1 1069 0
 2275 0014 0022     		movs	r2, #0
 2276              	.LVL352:
1067:lvgl\src\lv_core/lv_style.c **** 
 2277              		.loc 1 1067 0
 2278 0016 4FF0FF34 		mov	r4, #-1
1066:lvgl\src\lv_core/lv_style.c ****     int16_t id_guess = -1;
 2279              		.loc 1 1066 0
 2280 001a 2746     		mov	r7, r4
 2281 001c 2EE0     		b	.L173
 2282              	.LVL353:
 2283              	.L177:
1073:lvgl\src\lv_core/lv_style.c ****             lv_style_attr_t attr_i;
 2284              		.loc 1 1073 0
ARM GAS  C:\Users\strap\AppData\Local\Temp\cc7bAV43.s 			page 77


 2285 001e 9E42     		cmp	r6, r3
 2286 0020 1CD1     		bne	.L174
 2287              	.LVL354:
 2288              	.LBB437:
 2289              	.LBB438:
 2290              	.LBB439:
 2291              	.LBB440:
 2292              	.LBB441:
1145:lvgl\src\lv_core/lv_style.c ****     prop_p[1] = style->map[idx + 1];
 2293              		.loc 1 1145 0
 2294 0022 D0F800E0 		ldr	lr, [r0]
 2295 0026 1EF802C0 		ldrb	ip, [lr, r2]	@ zero_extendqisi2
 2296 002a 8DF80CC0 		strb	ip, [sp, #12]
1146:lvgl\src\lv_core/lv_style.c ****     return prop;
 2297              		.loc 1 1146 0
 2298 002e 1EF80110 		ldrb	r1, [lr, r1]	@ zero_extendqisi2
 2299 0032 8DF80D10 		strb	r1, [sp, #13]
1147:lvgl\src\lv_core/lv_style.c **** }
 2300              		.loc 1 1147 0
 2301 0036 BDF80C10 		ldrh	r1, [sp, #12]
 2302              	.LVL355:
 2303              	.LBE441:
 2304              	.LBE440:
1169:lvgl\src\lv_core/lv_style.c **** }
 2305              		.loc 1 1169 0
 2306 003a 090A     		lsrs	r1, r1, #8
 2307              	.LVL356:
 2308              	.LBE439:
 2309              	.LBE438:
1078:lvgl\src\lv_core/lv_style.c ****                 return i;
 2310              		.loc 1 1078 0
 2311 003c 85EA010E 		eor	lr, r5, r1
 2312 0040 1EF07F0F 		tst	lr, #127
 2313 0044 2AD0     		beq	.L172
 2314 0046 01F07F01 		and	r1, r1, #127
1083:lvgl\src\lv_core/lv_style.c ****                 /* Use this property if it describes better the requested state than the current ca
 2315              		.loc 1 1083 0
 2316 004a 05F07F0E 		and	lr, r5, #127
 2317 004e 31EA0E0E 		bics	lr, r1, lr
 2318 0052 03D1     		bne	.L174
1086:lvgl\src\lv_core/lv_style.c ****                     weight = LV_STYLE_ATTR_GET_STATE(attr_i);
 2319              		.loc 1 1086 0
 2320 0054 B942     		cmp	r1, r7
 2321 0056 01DD     		ble	.L174
1087:lvgl\src\lv_core/lv_style.c ****                     id_guess = i;
 2322              		.loc 1 1087 0
 2323 0058 0FB2     		sxth	r7, r1
 2324              	.LVL357:
1088:lvgl\src\lv_core/lv_style.c ****                 }
 2325              		.loc 1 1088 0
 2326 005a 14B2     		sxth	r4, r2
 2327              	.LVL358:
 2328              	.L174:
 2329              	.LBE437:
 2330              	.LBB442:
 2331              	.LBB443:
 2332              	.LBB444:
ARM GAS  C:\Users\strap\AppData\Local\Temp\cc7bAV43.s 			page 78


 2333              	.LBB445:
1181:lvgl\src\lv_core/lv_style.c ****     size_t size = sizeof(lv_style_property_t);
 2334              		.loc 1 1181 0
 2335 005c 03F00F03 		and	r3, r3, #15
 2336              	.LVL359:
1183:lvgl\src\lv_core/lv_style.c ****     else if(prop_id < LV_STYLE_ID_OPA) size += sizeof(lv_color_t);
 2337              		.loc 1 1183 0
 2338 0060 082B     		cmp	r3, #8
 2339 0062 05D9     		bls	.L193
1184:lvgl\src\lv_core/lv_style.c ****     else if(prop_id < LV_STYLE_ID_PTR) size += sizeof(lv_opa_t);
 2340              		.loc 1 1184 0
 2341 0064 0B2B     		cmp	r3, #11
 2342 0066 05D9     		bls	.L194
1185:lvgl\src\lv_core/lv_style.c ****     else size += sizeof(const void *);
 2343              		.loc 1 1185 0
 2344 0068 0D2B     		cmp	r3, #13
 2345 006a 05D8     		bhi	.L195
 2346 006c 0323     		movs	r3, #3
 2347              	.LVL360:
 2348 006e 04E0     		b	.L176
 2349              	.LVL361:
 2350              	.L193:
1183:lvgl\src\lv_core/lv_style.c ****     else if(prop_id < LV_STYLE_ID_OPA) size += sizeof(lv_color_t);
 2351              		.loc 1 1183 0
 2352 0070 0423     		movs	r3, #4
 2353              	.LVL362:
 2354 0072 02E0     		b	.L176
 2355              	.LVL363:
 2356              	.L194:
1184:lvgl\src\lv_core/lv_style.c ****     else if(prop_id < LV_STYLE_ID_PTR) size += sizeof(lv_opa_t);
 2357              		.loc 1 1184 0
 2358 0074 0423     		movs	r3, #4
 2359              	.LVL364:
 2360 0076 00E0     		b	.L176
 2361              	.LVL365:
 2362              	.L195:
1186:lvgl\src\lv_core/lv_style.c ****     return size;
 2363              		.loc 1 1186 0
 2364 0078 0623     		movs	r3, #6
 2365              	.LVL366:
 2366              	.L176:
 2367              	.LBE445:
 2368              	.LBE444:
 2369              		.loc 1 1198 0
 2370 007a 1A44     		add	r2, r2, r3
 2371              	.LVL367:
 2372              	.L173:
 2373              	.LBE443:
 2374              	.LBE442:
 2375              	.LBB446:
 2376              	.LBB447:
 2377              	.LBB448:
 2378              	.LBB449:
1145:lvgl\src\lv_core/lv_style.c ****     prop_p[1] = style->map[idx + 1];
 2379              		.loc 1 1145 0
 2380 007c 0368     		ldr	r3, [r0]
 2381 007e 995C     		ldrb	r1, [r3, r2]	@ zero_extendqisi2
ARM GAS  C:\Users\strap\AppData\Local\Temp\cc7bAV43.s 			page 79


 2382 0080 8DF80C10 		strb	r1, [sp, #12]
1146:lvgl\src\lv_core/lv_style.c ****     return prop;
 2383              		.loc 1 1146 0
 2384 0084 511C     		adds	r1, r2, #1
 2385 0086 5B5C     		ldrb	r3, [r3, r1]	@ zero_extendqisi2
 2386 0088 8DF80D30 		strb	r3, [sp, #13]
 2387              	.LVL368:
 2388              	.LBE449:
 2389              	.LBE448:
1158:lvgl\src\lv_core/lv_style.c **** }
 2390              		.loc 1 1158 0
 2391 008c 9DF80C30 		ldrb	r3, [sp, #12]	@ zero_extendqisi2
 2392              	.LVL369:
 2393              	.LBE447:
 2394              	.LBE446:
1072:lvgl\src\lv_core/lv_style.c ****         if(prop_id == id_to_find) {
 2395              		.loc 1 1072 0
 2396 0090 FF2B     		cmp	r3, #255
 2397 0092 C4D1     		bne	.L177
1096:lvgl\src\lv_core/lv_style.c **** }
 2398              		.loc 1 1096 0
 2399 0094 2246     		mov	r2, r4
 2400              	.LVL370:
 2401 0096 01E0     		b	.L172
 2402              	.LVL371:
 2403              	.L192:
1060:lvgl\src\lv_core/lv_style.c **** 
 2404              		.loc 1 1060 0
 2405 0098 4FF0FF32 		mov	r2, #-1
 2406              	.LVL372:
 2407              	.L172:
 2408              	.LBE436:
 2409              	.LBE435:
 506:lvgl\src\lv_core/lv_style.c ****         lv_style_attr_t attr_found;
 2410              		.loc 1 506 0
 2411 009c 002A     		cmp	r2, #0
 2412 009e 1FDB     		blt	.L178
 2413              	.LVL373:
 2414              	.LBB450:
 2415              	.LBB451:
 2416              	.LBB452:
 2417              	.LBB453:
 2418              	.LBB454:
1145:lvgl\src\lv_core/lv_style.c ****     prop_p[1] = style->map[idx + 1];
 2419              		.loc 1 1145 0
 2420 00a0 0368     		ldr	r3, [r0]
 2421 00a2 995C     		ldrb	r1, [r3, r2]	@ zero_extendqisi2
 2422 00a4 8DF80C10 		strb	r1, [sp, #12]
1146:lvgl\src\lv_core/lv_style.c ****     return prop;
 2423              		.loc 1 1146 0
 2424 00a8 1344     		add	r3, r3, r2
 2425 00aa 5B78     		ldrb	r3, [r3, #1]	@ zero_extendqisi2
 2426 00ac 8DF80D30 		strb	r3, [sp, #13]
1147:lvgl\src\lv_core/lv_style.c **** }
 2427              		.loc 1 1147 0
 2428 00b0 BDF80C10 		ldrh	r1, [sp, #12]
 2429              	.LVL374:
ARM GAS  C:\Users\strap\AppData\Local\Temp\cc7bAV43.s 			page 80


 2430              	.LBE454:
 2431              	.LBE453:
 2432              	.LBE452:
 2433              	.LBE451:
 511:lvgl\src\lv_core/lv_style.c **** 
 2434              		.loc 1 511 0
 2435 00b4 BDF80630 		ldrh	r3, [sp, #6]
 2436 00b8 1B0A     		lsrs	r3, r3, #8
 2437              	.LVL375:
 513:lvgl\src\lv_core/lv_style.c ****             _lv_memcpy_small(style->map + id + sizeof(lv_style_property_t), &p, sizeof(const void *
 2438              		.loc 1 513 0
 2439 00ba 83EA1123 		eor	r3, r3, r1, lsr #8
 2440              	.LVL376:
 2441 00be 13F07F0F 		tst	r3, #127
 2442 00c2 0DD1     		bne	.L178
 514:lvgl\src\lv_core/lv_style.c ****             return;
 2443              		.loc 1 514 0
 2444 00c4 0368     		ldr	r3, [r0]
 2445 00c6 0232     		adds	r2, r2, #2
 2446 00c8 1344     		add	r3, r3, r2
 2447              	.LVL377:
 2448              	.LBB455:
 2449              	.LBB456:
 217:lvgl\src\lv_core\../lv_font/../lv_misc/lv_mem.h **** 
 2450              		.loc 3 217 0
 2451 00ca 6946     		mov	r1, sp
 2452              	.LBE456:
 2453              	.LBE455:
 514:lvgl\src\lv_core/lv_style.c ****             return;
 2454              		.loc 1 514 0
 2455 00cc 0422     		movs	r2, #4
 2456 00ce 04E0     		b	.L179
 2457              	.LVL378:
 2458              	.L180:
 2459              	.LBB458:
 2460              	.LBB457:
 220:lvgl\src\lv_core\../lv_font/../lv_misc/lv_mem.h ****         d8++;
 2461              		.loc 3 220 0
 2462 00d0 11F8010B 		ldrb	r0, [r1], #1	@ zero_extendqisi2
 2463              	.LVL379:
 2464 00d4 03F8010B 		strb	r0, [r3], #1
 2465              	.LVL380:
 2466              		.loc 3 223 0
 2467 00d8 013A     		subs	r2, r2, #1
 2468              	.LVL381:
 2469              	.L179:
 219:lvgl\src\lv_core\../lv_font/../lv_misc/lv_mem.h ****         *d8 = *s8;
 2470              		.loc 3 219 0
 2471 00da 002A     		cmp	r2, #0
 2472 00dc F8D1     		bne	.L180
 2473 00de 44E0     		b	.L171
 2474              	.LVL382:
 2475              	.L178:
 2476 00e0 0546     		mov	r5, r0
 2477              	.LVL383:
 2478              	.LBE457:
 2479              	.LBE458:
ARM GAS  C:\Users\strap\AppData\Local\Temp\cc7bAV43.s 			page 81


 2480              	.LBE450:
 521:lvgl\src\lv_core/lv_style.c ****     uint8_t end_mark_size = sizeof(end_mark);
 2481              		.loc 1 521 0
 2482 00e2 FF23     		movs	r3, #255
 2483 00e4 ADF80E30 		strh	r3, [sp, #14]	@ movhi
 2484              	.LVL384:
 524:lvgl\src\lv_core/lv_style.c ****     if(size == 0) size += end_mark_size;
 2485              		.loc 1 524 0
 2486 00e8 FFF7FEFF 		bl	_lv_style_get_mem_size
 2487              	.LVL385:
 525:lvgl\src\lv_core/lv_style.c **** 
 2488              		.loc 1 525 0
 2489 00ec 0346     		mov	r3, r0
 2490 00ee 08B9     		cbnz	r0, .L182
 525:lvgl\src\lv_core/lv_style.c **** 
 2491              		.loc 1 525 0 is_stmt 0 discriminator 1
 2492 00f0 0233     		adds	r3, r3, #2
 2493 00f2 9BB2     		uxth	r3, r3
 2494              	.LVL386:
 2495              	.L182:
 527:lvgl\src\lv_core/lv_style.c ****     style_resize(style, size);
 2496              		.loc 1 527 0 is_stmt 1
 2497 00f4 0633     		adds	r3, r3, #6
 2498              	.LVL387:
 2499 00f6 9CB2     		uxth	r4, r3
 2500              	.LVL388:
 2501              	.LBB459:
 2502              	.LBB460:
1132:lvgl\src\lv_core/lv_style.c **** }
 2503              		.loc 1 1132 0
 2504 00f8 2146     		mov	r1, r4
 2505 00fa 2868     		ldr	r0, [r5]
 2506 00fc FFF7FEFF 		bl	lv_mem_realloc
 2507              	.LVL389:
 2508 0100 2860     		str	r0, [r5]
 2509              	.LVL390:
 2510              	.LBE460:
 2511              	.LBE459:
 529:lvgl\src\lv_core/lv_style.c ****     if(style == NULL) return;
 2512              		.loc 1 529 0
 2513 0102 FFF7FEFF 		bl	lv_debug_check_null
 2514              	.LVL391:
 2515 0106 28B9     		cbnz	r0, .L183
 529:lvgl\src\lv_core/lv_style.c ****     if(style == NULL) return;
 2516              		.loc 1 529 0 is_stmt 0 discriminator 1
 2517 0108 2A68     		ldr	r2, [r5]
 2518 010a 0023     		movs	r3, #0
 2519 010c 1848     		ldr	r0, .L197
 2520 010e FFF7FEFF 		bl	lv_debug_log_error
 2521              	.LVL392:
 2522              	.L184:
 2523 0112 FEE7     		b	.L184
 2524              	.L183:
 530:lvgl\src\lv_core/lv_style.c **** 
 2525              		.loc 1 530 0 is_stmt 1
 2526 0114 4DB3     		cbz	r5, .L171
 532:lvgl\src\lv_core/lv_style.c ****     _lv_memcpy_small(style->map + size - sizeof(const void *) - end_mark_size, &p, sizeof(const voi
ARM GAS  C:\Users\strap\AppData\Local\Temp\cc7bAV43.s 			page 82


 2527              		.loc 1 532 0
 2528 0116 2A68     		ldr	r2, [r5]
 2529 0118 A4F10803 		sub	r3, r4, #8
 2530 011c 1344     		add	r3, r3, r2
 2531              	.LVL393:
 2532              	.LBB461:
 2533              	.LBB462:
 217:lvgl\src\lv_core\../lv_font/../lv_misc/lv_mem.h **** 
 2534              		.loc 3 217 0
 2535 011e 0DF10601 		add	r1, sp, #6
 2536              	.LVL394:
 2537              	.LBE462:
 2538              	.LBE461:
 532:lvgl\src\lv_core/lv_style.c ****     _lv_memcpy_small(style->map + size - sizeof(const void *) - end_mark_size, &p, sizeof(const voi
 2539              		.loc 1 532 0
 2540 0122 0222     		movs	r2, #2
 2541 0124 04E0     		b	.L185
 2542              	.LVL395:
 2543              	.L186:
 2544              	.LBB464:
 2545              	.LBB463:
 220:lvgl\src\lv_core\../lv_font/../lv_misc/lv_mem.h ****         d8++;
 2546              		.loc 3 220 0
 2547 0126 11F8010B 		ldrb	r0, [r1], #1	@ zero_extendqisi2
 2548              	.LVL396:
 2549 012a 03F8010B 		strb	r0, [r3], #1
 2550              	.LVL397:
 2551              		.loc 3 223 0
 2552 012e 013A     		subs	r2, r2, #1
 2553              	.LVL398:
 2554              	.L185:
 219:lvgl\src\lv_core\../lv_font/../lv_misc/lv_mem.h ****         *d8 = *s8;
 2555              		.loc 3 219 0
 2556 0130 002A     		cmp	r2, #0
 2557 0132 F8D1     		bne	.L186
 2558              	.LVL399:
 2559              	.LBE463:
 2560              	.LBE464:
 533:lvgl\src\lv_core/lv_style.c ****     _lv_memcpy_small(style->map + size - end_mark_size, &end_mark, sizeof(end_mark));
 2561              		.loc 1 533 0
 2562 0134 2A68     		ldr	r2, [r5]
 2563 0136 A31F     		subs	r3, r4, #6
 2564              	.LVL400:
 2565 0138 1344     		add	r3, r3, r2
 2566              	.LVL401:
 2567              	.LBB465:
 2568              	.LBB466:
 217:lvgl\src\lv_core\../lv_font/../lv_misc/lv_mem.h **** 
 2569              		.loc 3 217 0
 2570 013a 6946     		mov	r1, sp
 2571              	.LVL402:
 2572              	.LBE466:
 2573              	.LBE465:
 533:lvgl\src\lv_core/lv_style.c ****     _lv_memcpy_small(style->map + size - end_mark_size, &end_mark, sizeof(end_mark));
 2574              		.loc 1 533 0
 2575 013c 0422     		movs	r2, #4
 2576 013e 04E0     		b	.L187
ARM GAS  C:\Users\strap\AppData\Local\Temp\cc7bAV43.s 			page 83


 2577              	.LVL403:
 2578              	.L188:
 2579              	.LBB468:
 2580              	.LBB467:
 220:lvgl\src\lv_core\../lv_font/../lv_misc/lv_mem.h ****         d8++;
 2581              		.loc 3 220 0
 2582 0140 11F8010B 		ldrb	r0, [r1], #1	@ zero_extendqisi2
 2583              	.LVL404:
 2584 0144 03F8010B 		strb	r0, [r3], #1
 2585              	.LVL405:
 2586              		.loc 3 223 0
 2587 0148 013A     		subs	r2, r2, #1
 2588              	.LVL406:
 2589              	.L187:
 219:lvgl\src\lv_core\../lv_font/../lv_misc/lv_mem.h ****         *d8 = *s8;
 2590              		.loc 3 219 0
 2591 014a 002A     		cmp	r2, #0
 2592 014c F8D1     		bne	.L188
 2593              	.LVL407:
 2594              	.LBE467:
 2595              	.LBE468:
 534:lvgl\src\lv_core/lv_style.c **** }
 2596              		.loc 1 534 0
 2597 014e 2B68     		ldr	r3, [r5]
 2598              	.LVL408:
 2599 0150 023C     		subs	r4, r4, #2
 2600 0152 2344     		add	r3, r3, r4
 2601              	.LVL409:
 2602              	.LBB469:
 2603              	.LBB470:
 217:lvgl\src\lv_core\../lv_font/../lv_misc/lv_mem.h **** 
 2604              		.loc 3 217 0
 2605 0154 0DF10E01 		add	r1, sp, #14
 2606              	.LVL410:
 2607              	.LBE470:
 2608              	.LBE469:
 534:lvgl\src\lv_core/lv_style.c **** }
 2609              		.loc 1 534 0
 2610 0158 0222     		movs	r2, #2
 2611 015a 04E0     		b	.L189
 2612              	.LVL411:
 2613              	.L190:
 2614              	.LBB472:
 2615              	.LBB471:
 220:lvgl\src\lv_core\../lv_font/../lv_misc/lv_mem.h ****         d8++;
 2616              		.loc 3 220 0
 2617 015c 11F8010B 		ldrb	r0, [r1], #1	@ zero_extendqisi2
 2618              	.LVL412:
 2619 0160 03F8010B 		strb	r0, [r3], #1
 2620              	.LVL413:
 2621              		.loc 3 223 0
 2622 0164 013A     		subs	r2, r2, #1
 2623              	.LVL414:
 2624              	.L189:
 219:lvgl\src\lv_core\../lv_font/../lv_misc/lv_mem.h ****         *d8 = *s8;
 2625              		.loc 3 219 0
 2626 0166 002A     		cmp	r2, #0
ARM GAS  C:\Users\strap\AppData\Local\Temp\cc7bAV43.s 			page 84


 2627 0168 F8D1     		bne	.L190
 2628              	.LVL415:
 2629              	.L171:
 2630              	.LBE471:
 2631              	.LBE472:
 535:lvgl\src\lv_core/lv_style.c **** 
 2632              		.loc 1 535 0
 2633 016a 05B0     		add	sp, sp, #20
 2634              		.cfi_def_cfa_offset 20
 2635              		@ sp needed
 2636 016c F0BD     		pop	{r4, r5, r6, r7, pc}
 2637              	.L198:
 2638 016e 00BF     		.align	2
 2639              	.L197:
 2640 0170 00000000 		.word	.LC0
 2641              		.cfi_endproc
 2642              	.LFE341:
 2643              		.size	_lv_style_set_ptr, .-_lv_style_set_ptr
 2644              		.section	.text._lv_style_get_int,"ax",%progbits
 2645              		.align	2
 2646              		.global	_lv_style_get_int
 2647              		.thumb
 2648              		.thumb_func
 2649              		.type	_lv_style_get_int, %function
 2650              	_lv_style_get_int:
 2651              	.LFB342:
 548:lvgl\src\lv_core/lv_style.c ****     lv_style_int_t * res = (lv_style_int_t *)v_res;
 2652              		.loc 1 548 0
 2653              		.cfi_startproc
 2654              		@ args = 0, pretend = 0, frame = 8
 2655              		@ frame_needed = 0, uses_anonymous_args = 0
 2656              	.LVL416:
 552:lvgl\src\lv_core/lv_style.c ****     if(style->map == NULL) return -1;
 2657              		.loc 1 552 0
 2658 0000 0028     		cmp	r0, #0
 2659 0002 70D0     		beq	.L209
 548:lvgl\src\lv_core/lv_style.c ****     lv_style_int_t * res = (lv_style_int_t *)v_res;
 2660              		.loc 1 548 0
 2661 0004 2DE9F043 		push	{r4, r5, r6, r7, r8, r9, lr}
 2662              		.cfi_def_cfa_offset 28
 2663              		.cfi_offset 4, -28
 2664              		.cfi_offset 5, -24
 2665              		.cfi_offset 6, -20
 2666              		.cfi_offset 7, -16
 2667              		.cfi_offset 8, -12
 2668              		.cfi_offset 9, -8
 2669              		.cfi_offset 14, -4
 2670 0008 83B0     		sub	sp, sp, #12
 2671              		.cfi_def_cfa_offset 40
 2672 000a 0546     		mov	r5, r0
 553:lvgl\src\lv_core/lv_style.c **** 
 2673              		.loc 1 553 0
 2674 000c 0368     		ldr	r3, [r0]
 2675 000e 002B     		cmp	r3, #0
 2676 0010 6CD0     		beq	.L210
 2677              	.LVL417:
 2678              	.LBB495:
ARM GAS  C:\Users\strap\AppData\Local\Temp\cc7bAV43.s 			page 85


 2679              	.LBB496:
1060:lvgl\src\lv_core/lv_style.c **** 
 2680              		.loc 1 1060 0
 2681 0012 002B     		cmp	r3, #0
 2682 0014 46D0     		beq	.L211
1062:lvgl\src\lv_core/lv_style.c ****     lv_style_attr_t attr;
 2683              		.loc 1 1062 0
 2684 0016 CEB2     		uxtb	r6, r1
 2685              	.LVL418:
1064:lvgl\src\lv_core/lv_style.c **** 
 2686              		.loc 1 1064 0
 2687 0018 4FEA112E 		lsr	lr, r1, #8
 2688              	.LVL419:
1069:lvgl\src\lv_core/lv_style.c **** 
 2689              		.loc 1 1069 0
 2690 001c 0020     		movs	r0, #0
 2691              	.LVL420:
1067:lvgl\src\lv_core/lv_style.c **** 
 2692              		.loc 1 1067 0
 2693 001e 4FF0FF37 		mov	r7, #-1
1066:lvgl\src\lv_core/lv_style.c ****     int16_t id_guess = -1;
 2694              		.loc 1 1066 0
 2695 0022 BC46     		mov	ip, r7
 2696 0024 31E0     		b	.L202
 2697              	.LVL421:
 2698              	.L206:
1073:lvgl\src\lv_core/lv_style.c ****             lv_style_attr_t attr_i;
 2699              		.loc 1 1073 0
 2700 0026 9E42     		cmp	r6, r3
 2701 0028 1FD1     		bne	.L203
 2702              	.LVL422:
 2703              	.LBB497:
 2704              	.LBB498:
 2705              	.LBB499:
 2706              	.LBB500:
 2707              	.LBB501:
1145:lvgl\src\lv_core/lv_style.c ****     prop_p[1] = style->map[idx + 1];
 2708              		.loc 1 1145 0
 2709 002a D5F80080 		ldr	r8, [r5]
 2710 002e 18F80090 		ldrb	r9, [r8, r0]	@ zero_extendqisi2
 2711 0032 8DF80690 		strb	r9, [sp, #6]
1146:lvgl\src\lv_core/lv_style.c ****     return prop;
 2712              		.loc 1 1146 0
 2713 0036 18F80440 		ldrb	r4, [r8, r4]	@ zero_extendqisi2
 2714 003a 8DF80740 		strb	r4, [sp, #7]
1147:lvgl\src\lv_core/lv_style.c **** }
 2715              		.loc 1 1147 0
 2716 003e BDF80640 		ldrh	r4, [sp, #6]
 2717              	.LVL423:
 2718              	.LBE501:
 2719              	.LBE500:
1169:lvgl\src\lv_core/lv_style.c **** }
 2720              		.loc 1 1169 0
 2721 0042 240A     		lsrs	r4, r4, #8
 2722              	.LVL424:
 2723              	.LBE499:
 2724              	.LBE498:
ARM GAS  C:\Users\strap\AppData\Local\Temp\cc7bAV43.s 			page 86


1078:lvgl\src\lv_core/lv_style.c ****                 return i;
 2725              		.loc 1 1078 0
 2726 0044 8EEA0408 		eor	r8, lr, r4
 2727 0048 18F07F0F 		tst	r8, #127
 2728 004c 01D1     		bne	.L204
1079:lvgl\src\lv_core/lv_style.c ****             }
 2729              		.loc 1 1079 0
 2730 004e 0746     		mov	r7, r0
 2731              	.LVL425:
 2732 0050 2AE0     		b	.L201
 2733              	.LVL426:
 2734              	.L204:
 2735 0052 04F07F04 		and	r4, r4, #127
1083:lvgl\src\lv_core/lv_style.c ****                 /* Use this property if it describes better the requested state than the current ca
 2736              		.loc 1 1083 0
 2737 0056 0EF07F08 		and	r8, lr, #127
 2738 005a 34EA0808 		bics	r8, r4, r8
 2739 005e 04D1     		bne	.L203
1086:lvgl\src\lv_core/lv_style.c ****                     weight = LV_STYLE_ATTR_GET_STATE(attr_i);
 2740              		.loc 1 1086 0
 2741 0060 6445     		cmp	r4, ip
 2742 0062 02DD     		ble	.L203
1087:lvgl\src\lv_core/lv_style.c ****                     id_guess = i;
 2743              		.loc 1 1087 0
 2744 0064 0FFA84FC 		sxth	ip, r4
 2745              	.LVL427:
1088:lvgl\src\lv_core/lv_style.c ****                 }
 2746              		.loc 1 1088 0
 2747 0068 07B2     		sxth	r7, r0
 2748              	.LVL428:
 2749              	.L203:
 2750              	.LBE497:
 2751              	.LBB502:
 2752              	.LBB503:
 2753              	.LBB504:
 2754              	.LBB505:
1181:lvgl\src\lv_core/lv_style.c ****     size_t size = sizeof(lv_style_property_t);
 2755              		.loc 1 1181 0
 2756 006a 03F00F03 		and	r3, r3, #15
 2757              	.LVL429:
1183:lvgl\src\lv_core/lv_style.c ****     else if(prop_id < LV_STYLE_ID_OPA) size += sizeof(lv_color_t);
 2758              		.loc 1 1183 0
 2759 006e 082B     		cmp	r3, #8
 2760 0070 05D9     		bls	.L212
1184:lvgl\src\lv_core/lv_style.c ****     else if(prop_id < LV_STYLE_ID_PTR) size += sizeof(lv_opa_t);
 2761              		.loc 1 1184 0
 2762 0072 0B2B     		cmp	r3, #11
 2763 0074 05D9     		bls	.L213
1185:lvgl\src\lv_core/lv_style.c ****     else size += sizeof(const void *);
 2764              		.loc 1 1185 0
 2765 0076 0D2B     		cmp	r3, #13
 2766 0078 05D8     		bhi	.L214
 2767 007a 0323     		movs	r3, #3
 2768              	.LVL430:
 2769 007c 04E0     		b	.L205
 2770              	.LVL431:
 2771              	.L212:
ARM GAS  C:\Users\strap\AppData\Local\Temp\cc7bAV43.s 			page 87


1183:lvgl\src\lv_core/lv_style.c ****     else if(prop_id < LV_STYLE_ID_OPA) size += sizeof(lv_color_t);
 2772              		.loc 1 1183 0
 2773 007e 0423     		movs	r3, #4
 2774              	.LVL432:
 2775 0080 02E0     		b	.L205
 2776              	.LVL433:
 2777              	.L213:
1184:lvgl\src\lv_core/lv_style.c ****     else if(prop_id < LV_STYLE_ID_PTR) size += sizeof(lv_opa_t);
 2778              		.loc 1 1184 0
 2779 0082 0423     		movs	r3, #4
 2780              	.LVL434:
 2781 0084 00E0     		b	.L205
 2782              	.LVL435:
 2783              	.L214:
1186:lvgl\src\lv_core/lv_style.c ****     return size;
 2784              		.loc 1 1186 0
 2785 0086 0623     		movs	r3, #6
 2786              	.LVL436:
 2787              	.L205:
 2788              	.LBE505:
 2789              	.LBE504:
 2790              		.loc 1 1198 0
 2791 0088 1844     		add	r0, r0, r3
 2792              	.LVL437:
 2793              	.L202:
 2794              	.LBE503:
 2795              	.LBE502:
 2796              	.LBB506:
 2797              	.LBB507:
 2798              	.LBB508:
 2799              	.LBB509:
1145:lvgl\src\lv_core/lv_style.c ****     prop_p[1] = style->map[idx + 1];
 2800              		.loc 1 1145 0
 2801 008a 2B68     		ldr	r3, [r5]
 2802 008c 1C5C     		ldrb	r4, [r3, r0]	@ zero_extendqisi2
 2803 008e 8DF80640 		strb	r4, [sp, #6]
1146:lvgl\src\lv_core/lv_style.c ****     return prop;
 2804              		.loc 1 1146 0
 2805 0092 441C     		adds	r4, r0, #1
 2806 0094 1B5D     		ldrb	r3, [r3, r4]	@ zero_extendqisi2
 2807 0096 8DF80730 		strb	r3, [sp, #7]
 2808              	.LVL438:
 2809              	.LBE509:
 2810              	.LBE508:
1158:lvgl\src\lv_core/lv_style.c **** }
 2811              		.loc 1 1158 0
 2812 009a 9DF80630 		ldrb	r3, [sp, #6]	@ zero_extendqisi2
 2813              	.LVL439:
 2814              	.LBE507:
 2815              	.LBE506:
1072:lvgl\src\lv_core/lv_style.c ****         if(prop_id == id_to_find) {
 2816              		.loc 1 1072 0
 2817 009e FF2B     		cmp	r3, #255
 2818 00a0 C1D1     		bne	.L206
 2819 00a2 01E0     		b	.L201
 2820              	.LVL440:
 2821              	.L211:
ARM GAS  C:\Users\strap\AppData\Local\Temp\cc7bAV43.s 			page 88


1060:lvgl\src\lv_core/lv_style.c **** 
 2822              		.loc 1 1060 0
 2823 00a4 4FF0FF37 		mov	r7, #-1
 2824              	.LVL441:
 2825              	.L201:
 2826              	.LBE496:
 2827              	.LBE495:
 556:lvgl\src\lv_core/lv_style.c ****         return -1;
 2828              		.loc 1 556 0
 2829 00a8 002F     		cmp	r7, #0
 2830 00aa 22DB     		blt	.L215
 2831              	.LBB510:
 560:lvgl\src\lv_core/lv_style.c ****         lv_style_attr_t attr_act;
 2832              		.loc 1 560 0
 2833 00ac 2B68     		ldr	r3, [r5]
 2834 00ae 3C46     		mov	r4, r7
 2835 00b0 0237     		adds	r7, r7, #2
 2836 00b2 3B44     		add	r3, r3, r7
 2837              	.LVL442:
 2838 00b4 0220     		movs	r0, #2
 2839 00b6 04E0     		b	.L207
 2840              	.LVL443:
 2841              	.L208:
 2842              	.LBB511:
 2843              	.LBB512:
 220:lvgl\src\lv_core\../lv_font/../lv_misc/lv_mem.h ****         d8++;
 2844              		.loc 3 220 0
 2845 00b8 13F8016B 		ldrb	r6, [r3], #1	@ zero_extendqisi2
 2846              	.LVL444:
 2847 00bc 02F8016B 		strb	r6, [r2], #1
 2848              	.LVL445:
 2849              		.loc 3 223 0
 2850 00c0 0138     		subs	r0, r0, #1
 2851              	.LVL446:
 2852              	.L207:
 219:lvgl\src\lv_core\../lv_font/../lv_misc/lv_mem.h ****         *d8 = *s8;
 2853              		.loc 3 219 0
 2854 00c2 0028     		cmp	r0, #0
 2855 00c4 F8D1     		bne	.L208
 2856              	.LVL447:
 2857              	.LBE512:
 2858              	.LBE511:
 2859              	.LBB513:
 2860              	.LBB514:
 2861              	.LBB515:
 2862              	.LBB516:
1145:lvgl\src\lv_core/lv_style.c ****     prop_p[1] = style->map[idx + 1];
 2863              		.loc 1 1145 0
 2864 00c6 2B68     		ldr	r3, [r5]
 2865              	.LVL448:
 2866 00c8 1A5D     		ldrb	r2, [r3, r4]	@ zero_extendqisi2
 2867              	.LVL449:
 2868 00ca 8DF80620 		strb	r2, [sp, #6]
1146:lvgl\src\lv_core/lv_style.c ****     return prop;
 2869              		.loc 1 1146 0
 2870 00ce 1C44     		add	r4, r4, r3
 2871              	.LVL450:
ARM GAS  C:\Users\strap\AppData\Local\Temp\cc7bAV43.s 			page 89


 2872 00d0 6378     		ldrb	r3, [r4, #1]	@ zero_extendqisi2
 2873 00d2 8DF80730 		strb	r3, [sp, #7]
1147:lvgl\src\lv_core/lv_style.c **** }
 2874              		.loc 1 1147 0
 2875 00d6 BDF80600 		ldrh	r0, [sp, #6]
 2876              	.LVL451:
 2877              	.LBE516:
 2878              	.LBE515:
 2879              	.LBE514:
 2880              	.LBE513:
 565:lvgl\src\lv_core/lv_style.c **** 
 2881              		.loc 1 565 0
 2882 00da 090A     		lsrs	r1, r1, #8
 2883              	.LVL452:
 567:lvgl\src\lv_core/lv_style.c ****     }
 2884              		.loc 1 567 0
 2885 00dc 01EA1020 		and	r0, r1, r0, lsr #8
 2886 00e0 00F07F00 		and	r0, r0, #127
 2887 00e4 07E0     		b	.L200
 2888              	.LVL453:
 2889              	.L209:
 2890              		.cfi_def_cfa_offset 0
 2891              		.cfi_restore 4
 2892              		.cfi_restore 5
 2893              		.cfi_restore 6
 2894              		.cfi_restore 7
 2895              		.cfi_restore 8
 2896              		.cfi_restore 9
 2897              		.cfi_restore 14
 2898              	.LBE510:
 552:lvgl\src\lv_core/lv_style.c ****     if(style->map == NULL) return -1;
 2899              		.loc 1 552 0
 2900 00e6 4FF0FF30 		mov	r0, #-1
 2901              	.LVL454:
 569:lvgl\src\lv_core/lv_style.c **** 
 2902              		.loc 1 569 0
 2903 00ea 7047     		bx	lr
 2904              	.LVL455:
 2905              	.L210:
 2906              		.cfi_def_cfa_offset 40
 2907              		.cfi_offset 4, -28
 2908              		.cfi_offset 5, -24
 2909              		.cfi_offset 6, -20
 2910              		.cfi_offset 7, -16
 2911              		.cfi_offset 8, -12
 2912              		.cfi_offset 9, -8
 2913              		.cfi_offset 14, -4
 553:lvgl\src\lv_core/lv_style.c **** 
 2914              		.loc 1 553 0
 2915 00ec 4FF0FF30 		mov	r0, #-1
 2916              	.LVL456:
 2917 00f0 01E0     		b	.L200
 2918              	.L215:
 557:lvgl\src\lv_core/lv_style.c ****     }
 2919              		.loc 1 557 0
 2920 00f2 4FF0FF30 		mov	r0, #-1
 2921              	.LVL457:
ARM GAS  C:\Users\strap\AppData\Local\Temp\cc7bAV43.s 			page 90


 2922              	.L200:
 569:lvgl\src\lv_core/lv_style.c **** 
 2923              		.loc 1 569 0
 2924 00f6 03B0     		add	sp, sp, #12
 2925              		.cfi_def_cfa_offset 28
 2926              		@ sp needed
 2927 00f8 BDE8F083 		pop	{r4, r5, r6, r7, r8, r9, pc}
 2928              		.cfi_endproc
 2929              	.LFE342:
 2930              		.size	_lv_style_get_int, .-_lv_style_get_int
 2931              		.section	.text._lv_style_get_opa,"ax",%progbits
 2932              		.align	2
 2933              		.global	_lv_style_get_opa
 2934              		.thumb
 2935              		.thumb_func
 2936              		.type	_lv_style_get_opa, %function
 2937              	_lv_style_get_opa:
 2938              	.LFB343:
 585:lvgl\src\lv_core/lv_style.c ****     lv_opa_t * res = (lv_opa_t *)v_res;
 2939              		.loc 1 585 0
 2940              		.cfi_startproc
 2941              		@ args = 0, pretend = 0, frame = 8
 2942              		@ frame_needed = 0, uses_anonymous_args = 0
 2943              	.LVL458:
 589:lvgl\src\lv_core/lv_style.c ****     if(style->map == NULL) return -1;
 2944              		.loc 1 589 0
 2945 0000 0028     		cmp	r0, #0
 2946 0002 70D0     		beq	.L227
 585:lvgl\src\lv_core/lv_style.c ****     lv_opa_t * res = (lv_opa_t *)v_res;
 2947              		.loc 1 585 0
 2948 0004 2DE9F043 		push	{r4, r5, r6, r7, r8, r9, lr}
 2949              		.cfi_def_cfa_offset 28
 2950              		.cfi_offset 4, -28
 2951              		.cfi_offset 5, -24
 2952              		.cfi_offset 6, -20
 2953              		.cfi_offset 7, -16
 2954              		.cfi_offset 8, -12
 2955              		.cfi_offset 9, -8
 2956              		.cfi_offset 14, -4
 2957 0008 83B0     		sub	sp, sp, #12
 2958              		.cfi_def_cfa_offset 40
 2959 000a 0546     		mov	r5, r0
 590:lvgl\src\lv_core/lv_style.c **** 
 2960              		.loc 1 590 0
 2961 000c 0368     		ldr	r3, [r0]
 2962 000e 002B     		cmp	r3, #0
 2963 0010 6CD0     		beq	.L228
 2964              	.LVL459:
 2965              	.LBB539:
 2966              	.LBB540:
1060:lvgl\src\lv_core/lv_style.c **** 
 2967              		.loc 1 1060 0
 2968 0012 002B     		cmp	r3, #0
 2969 0014 46D0     		beq	.L229
1062:lvgl\src\lv_core/lv_style.c ****     lv_style_attr_t attr;
 2970              		.loc 1 1062 0
 2971 0016 CEB2     		uxtb	r6, r1
ARM GAS  C:\Users\strap\AppData\Local\Temp\cc7bAV43.s 			page 91


 2972              	.LVL460:
1064:lvgl\src\lv_core/lv_style.c **** 
 2973              		.loc 1 1064 0
 2974 0018 4FEA112E 		lsr	lr, r1, #8
 2975              	.LVL461:
1069:lvgl\src\lv_core/lv_style.c **** 
 2976              		.loc 1 1069 0
 2977 001c 0020     		movs	r0, #0
 2978              	.LVL462:
1067:lvgl\src\lv_core/lv_style.c **** 
 2979              		.loc 1 1067 0
 2980 001e 4FF0FF37 		mov	r7, #-1
1066:lvgl\src\lv_core/lv_style.c ****     int16_t id_guess = -1;
 2981              		.loc 1 1066 0
 2982 0022 BC46     		mov	ip, r7
 2983 0024 31E0     		b	.L220
 2984              	.LVL463:
 2985              	.L224:
1073:lvgl\src\lv_core/lv_style.c ****             lv_style_attr_t attr_i;
 2986              		.loc 1 1073 0
 2987 0026 9E42     		cmp	r6, r3
 2988 0028 1FD1     		bne	.L221
 2989              	.LVL464:
 2990              	.LBB541:
 2991              	.LBB542:
 2992              	.LBB543:
 2993              	.LBB544:
 2994              	.LBB545:
1145:lvgl\src\lv_core/lv_style.c ****     prop_p[1] = style->map[idx + 1];
 2995              		.loc 1 1145 0
 2996 002a D5F80080 		ldr	r8, [r5]
 2997 002e 18F80090 		ldrb	r9, [r8, r0]	@ zero_extendqisi2
 2998 0032 8DF80690 		strb	r9, [sp, #6]
1146:lvgl\src\lv_core/lv_style.c ****     return prop;
 2999              		.loc 1 1146 0
 3000 0036 18F80440 		ldrb	r4, [r8, r4]	@ zero_extendqisi2
 3001 003a 8DF80740 		strb	r4, [sp, #7]
1147:lvgl\src\lv_core/lv_style.c **** }
 3002              		.loc 1 1147 0
 3003 003e BDF80640 		ldrh	r4, [sp, #6]
 3004              	.LVL465:
 3005              	.LBE545:
 3006              	.LBE544:
1169:lvgl\src\lv_core/lv_style.c **** }
 3007              		.loc 1 1169 0
 3008 0042 240A     		lsrs	r4, r4, #8
 3009              	.LVL466:
 3010              	.LBE543:
 3011              	.LBE542:
1078:lvgl\src\lv_core/lv_style.c ****                 return i;
 3012              		.loc 1 1078 0
 3013 0044 8EEA0408 		eor	r8, lr, r4
 3014 0048 18F07F0F 		tst	r8, #127
 3015 004c 01D1     		bne	.L222
1079:lvgl\src\lv_core/lv_style.c ****             }
 3016              		.loc 1 1079 0
 3017 004e 0746     		mov	r7, r0
ARM GAS  C:\Users\strap\AppData\Local\Temp\cc7bAV43.s 			page 92


 3018              	.LVL467:
 3019 0050 2AE0     		b	.L219
 3020              	.LVL468:
 3021              	.L222:
 3022 0052 04F07F04 		and	r4, r4, #127
1083:lvgl\src\lv_core/lv_style.c ****                 /* Use this property if it describes better the requested state than the current ca
 3023              		.loc 1 1083 0
 3024 0056 0EF07F08 		and	r8, lr, #127
 3025 005a 34EA0808 		bics	r8, r4, r8
 3026 005e 04D1     		bne	.L221
1086:lvgl\src\lv_core/lv_style.c ****                     weight = LV_STYLE_ATTR_GET_STATE(attr_i);
 3027              		.loc 1 1086 0
 3028 0060 6445     		cmp	r4, ip
 3029 0062 02DD     		ble	.L221
1087:lvgl\src\lv_core/lv_style.c ****                     id_guess = i;
 3030              		.loc 1 1087 0
 3031 0064 0FFA84FC 		sxth	ip, r4
 3032              	.LVL469:
1088:lvgl\src\lv_core/lv_style.c ****                 }
 3033              		.loc 1 1088 0
 3034 0068 07B2     		sxth	r7, r0
 3035              	.LVL470:
 3036              	.L221:
 3037              	.LBE541:
 3038              	.LBB546:
 3039              	.LBB547:
 3040              	.LBB548:
 3041              	.LBB549:
1181:lvgl\src\lv_core/lv_style.c ****     size_t size = sizeof(lv_style_property_t);
 3042              		.loc 1 1181 0
 3043 006a 03F00F03 		and	r3, r3, #15
 3044              	.LVL471:
1183:lvgl\src\lv_core/lv_style.c ****     else if(prop_id < LV_STYLE_ID_OPA) size += sizeof(lv_color_t);
 3045              		.loc 1 1183 0
 3046 006e 082B     		cmp	r3, #8
 3047 0070 05D9     		bls	.L230
1184:lvgl\src\lv_core/lv_style.c ****     else if(prop_id < LV_STYLE_ID_PTR) size += sizeof(lv_opa_t);
 3048              		.loc 1 1184 0
 3049 0072 0B2B     		cmp	r3, #11
 3050 0074 05D9     		bls	.L231
1185:lvgl\src\lv_core/lv_style.c ****     else size += sizeof(const void *);
 3051              		.loc 1 1185 0
 3052 0076 0D2B     		cmp	r3, #13
 3053 0078 05D8     		bhi	.L232
 3054 007a 0323     		movs	r3, #3
 3055              	.LVL472:
 3056 007c 04E0     		b	.L223
 3057              	.LVL473:
 3058              	.L230:
1183:lvgl\src\lv_core/lv_style.c ****     else if(prop_id < LV_STYLE_ID_OPA) size += sizeof(lv_color_t);
 3059              		.loc 1 1183 0
 3060 007e 0423     		movs	r3, #4
 3061              	.LVL474:
 3062 0080 02E0     		b	.L223
 3063              	.LVL475:
 3064              	.L231:
1184:lvgl\src\lv_core/lv_style.c ****     else if(prop_id < LV_STYLE_ID_PTR) size += sizeof(lv_opa_t);
ARM GAS  C:\Users\strap\AppData\Local\Temp\cc7bAV43.s 			page 93


 3065              		.loc 1 1184 0
 3066 0082 0423     		movs	r3, #4
 3067              	.LVL476:
 3068 0084 00E0     		b	.L223
 3069              	.LVL477:
 3070              	.L232:
1186:lvgl\src\lv_core/lv_style.c ****     return size;
 3071              		.loc 1 1186 0
 3072 0086 0623     		movs	r3, #6
 3073              	.LVL478:
 3074              	.L223:
 3075              	.LBE549:
 3076              	.LBE548:
 3077              		.loc 1 1198 0
 3078 0088 1844     		add	r0, r0, r3
 3079              	.LVL479:
 3080              	.L220:
 3081              	.LBE547:
 3082              	.LBE546:
 3083              	.LBB550:
 3084              	.LBB551:
 3085              	.LBB552:
 3086              	.LBB553:
1145:lvgl\src\lv_core/lv_style.c ****     prop_p[1] = style->map[idx + 1];
 3087              		.loc 1 1145 0
 3088 008a 2B68     		ldr	r3, [r5]
 3089 008c 1C5C     		ldrb	r4, [r3, r0]	@ zero_extendqisi2
 3090 008e 8DF80640 		strb	r4, [sp, #6]
1146:lvgl\src\lv_core/lv_style.c ****     return prop;
 3091              		.loc 1 1146 0
 3092 0092 441C     		adds	r4, r0, #1
 3093 0094 1B5D     		ldrb	r3, [r3, r4]	@ zero_extendqisi2
 3094 0096 8DF80730 		strb	r3, [sp, #7]
 3095              	.LVL480:
 3096              	.LBE553:
 3097              	.LBE552:
1158:lvgl\src\lv_core/lv_style.c **** }
 3098              		.loc 1 1158 0
 3099 009a 9DF80630 		ldrb	r3, [sp, #6]	@ zero_extendqisi2
 3100              	.LVL481:
 3101              	.LBE551:
 3102              	.LBE550:
1072:lvgl\src\lv_core/lv_style.c ****         if(prop_id == id_to_find) {
 3103              		.loc 1 1072 0
 3104 009e FF2B     		cmp	r3, #255
 3105 00a0 C1D1     		bne	.L224
 3106 00a2 01E0     		b	.L219
 3107              	.LVL482:
 3108              	.L229:
1060:lvgl\src\lv_core/lv_style.c **** 
 3109              		.loc 1 1060 0
 3110 00a4 4FF0FF37 		mov	r7, #-1
 3111              	.LVL483:
 3112              	.L219:
 3113              	.LBE540:
 3114              	.LBE539:
 593:lvgl\src\lv_core/lv_style.c ****         return -1;
ARM GAS  C:\Users\strap\AppData\Local\Temp\cc7bAV43.s 			page 94


 3115              		.loc 1 593 0
 3116 00a8 002F     		cmp	r7, #0
 3117 00aa 22DB     		blt	.L233
 3118              	.LBB554:
 597:lvgl\src\lv_core/lv_style.c ****         lv_style_attr_t attr_act;
 3119              		.loc 1 597 0
 3120 00ac 2B68     		ldr	r3, [r5]
 3121 00ae 3846     		mov	r0, r7
 3122 00b0 0237     		adds	r7, r7, #2
 3123 00b2 1F44     		add	r7, r7, r3
 3124              	.LVL484:
 3125 00b4 0123     		movs	r3, #1
 3126 00b6 04E0     		b	.L225
 3127              	.LVL485:
 3128              	.L226:
 3129              	.LBB555:
 3130              	.LBB556:
 220:lvgl\src\lv_core\../lv_font/../lv_misc/lv_mem.h ****         d8++;
 3131              		.loc 3 220 0
 3132 00b8 17F8014B 		ldrb	r4, [r7], #1	@ zero_extendqisi2
 3133              	.LVL486:
 3134 00bc 02F8014B 		strb	r4, [r2], #1
 3135              	.LVL487:
 3136              		.loc 3 223 0
 3137 00c0 013B     		subs	r3, r3, #1
 3138              	.LVL488:
 3139              	.L225:
 219:lvgl\src\lv_core\../lv_font/../lv_misc/lv_mem.h ****         *d8 = *s8;
 3140              		.loc 3 219 0
 3141 00c2 002B     		cmp	r3, #0
 3142 00c4 F8D1     		bne	.L226
 3143              	.LVL489:
 3144              	.LBE556:
 3145              	.LBE555:
 3146              	.LBB557:
 3147              	.LBB558:
 3148              	.LBB559:
 3149              	.LBB560:
1145:lvgl\src\lv_core/lv_style.c ****     prop_p[1] = style->map[idx + 1];
 3150              		.loc 1 1145 0
 3151 00c6 2B68     		ldr	r3, [r5]
 3152 00c8 1A5C     		ldrb	r2, [r3, r0]	@ zero_extendqisi2
 3153              	.LVL490:
 3154 00ca 8DF80620 		strb	r2, [sp, #6]
1146:lvgl\src\lv_core/lv_style.c ****     return prop;
 3155              		.loc 1 1146 0
 3156 00ce 1844     		add	r0, r0, r3
 3157              	.LVL491:
 3158 00d0 4378     		ldrb	r3, [r0, #1]	@ zero_extendqisi2
 3159 00d2 8DF80730 		strb	r3, [sp, #7]
1147:lvgl\src\lv_core/lv_style.c **** }
 3160              		.loc 1 1147 0
 3161 00d6 BDF80600 		ldrh	r0, [sp, #6]
 3162              	.LVL492:
 3163              	.LBE560:
 3164              	.LBE559:
 3165              	.LBE558:
ARM GAS  C:\Users\strap\AppData\Local\Temp\cc7bAV43.s 			page 95


 3166              	.LBE557:
 602:lvgl\src\lv_core/lv_style.c **** 
 3167              		.loc 1 602 0
 3168 00da 090A     		lsrs	r1, r1, #8
 3169              	.LVL493:
 604:lvgl\src\lv_core/lv_style.c ****     }
 3170              		.loc 1 604 0
 3171 00dc 01EA1020 		and	r0, r1, r0, lsr #8
 3172 00e0 00F07F00 		and	r0, r0, #127
 3173 00e4 07E0     		b	.L218
 3174              	.LVL494:
 3175              	.L227:
 3176              		.cfi_def_cfa_offset 0
 3177              		.cfi_restore 4
 3178              		.cfi_restore 5
 3179              		.cfi_restore 6
 3180              		.cfi_restore 7
 3181              		.cfi_restore 8
 3182              		.cfi_restore 9
 3183              		.cfi_restore 14
 3184              	.LBE554:
 589:lvgl\src\lv_core/lv_style.c ****     if(style->map == NULL) return -1;
 3185              		.loc 1 589 0
 3186 00e6 4FF0FF30 		mov	r0, #-1
 3187              	.LVL495:
 606:lvgl\src\lv_core/lv_style.c **** 
 3188              		.loc 1 606 0
 3189 00ea 7047     		bx	lr
 3190              	.LVL496:
 3191              	.L228:
 3192              		.cfi_def_cfa_offset 40
 3193              		.cfi_offset 4, -28
 3194              		.cfi_offset 5, -24
 3195              		.cfi_offset 6, -20
 3196              		.cfi_offset 7, -16
 3197              		.cfi_offset 8, -12
 3198              		.cfi_offset 9, -8
 3199              		.cfi_offset 14, -4
 590:lvgl\src\lv_core/lv_style.c **** 
 3200              		.loc 1 590 0
 3201 00ec 4FF0FF30 		mov	r0, #-1
 3202              	.LVL497:
 3203 00f0 01E0     		b	.L218
 3204              	.L233:
 594:lvgl\src\lv_core/lv_style.c ****     }
 3205              		.loc 1 594 0
 3206 00f2 4FF0FF30 		mov	r0, #-1
 3207              	.LVL498:
 3208              	.L218:
 606:lvgl\src\lv_core/lv_style.c **** 
 3209              		.loc 1 606 0
 3210 00f6 03B0     		add	sp, sp, #12
 3211              		.cfi_def_cfa_offset 28
 3212              		@ sp needed
 3213 00f8 BDE8F083 		pop	{r4, r5, r6, r7, r8, r9, pc}
 3214              		.cfi_endproc
 3215              	.LFE343:
ARM GAS  C:\Users\strap\AppData\Local\Temp\cc7bAV43.s 			page 96


 3216              		.size	_lv_style_get_opa, .-_lv_style_get_opa
 3217              		.section	.text._lv_style_get_color,"ax",%progbits
 3218              		.align	2
 3219              		.global	_lv_style_get_color
 3220              		.thumb
 3221              		.thumb_func
 3222              		.type	_lv_style_get_color, %function
 3223              	_lv_style_get_color:
 3224              	.LFB344:
 622:lvgl\src\lv_core/lv_style.c ****     lv_color_t * res = (lv_color_t *)v_res;
 3225              		.loc 1 622 0
 3226              		.cfi_startproc
 3227              		@ args = 0, pretend = 0, frame = 8
 3228              		@ frame_needed = 0, uses_anonymous_args = 0
 3229              	.LVL499:
 624:lvgl\src\lv_core/lv_style.c ****     if(style->map == NULL) return -1;
 3230              		.loc 1 624 0
 3231 0000 0028     		cmp	r0, #0
 3232 0002 70D0     		beq	.L245
 622:lvgl\src\lv_core/lv_style.c ****     lv_color_t * res = (lv_color_t *)v_res;
 3233              		.loc 1 622 0
 3234 0004 2DE9F043 		push	{r4, r5, r6, r7, r8, r9, lr}
 3235              		.cfi_def_cfa_offset 28
 3236              		.cfi_offset 4, -28
 3237              		.cfi_offset 5, -24
 3238              		.cfi_offset 6, -20
 3239              		.cfi_offset 7, -16
 3240              		.cfi_offset 8, -12
 3241              		.cfi_offset 9, -8
 3242              		.cfi_offset 14, -4
 3243 0008 83B0     		sub	sp, sp, #12
 3244              		.cfi_def_cfa_offset 40
 3245 000a 0546     		mov	r5, r0
 625:lvgl\src\lv_core/lv_style.c ****     int32_t id = get_property_index(style, prop);
 3246              		.loc 1 625 0
 3247 000c 0368     		ldr	r3, [r0]
 3248 000e 002B     		cmp	r3, #0
 3249 0010 6CD0     		beq	.L246
 3250              	.LVL500:
 3251              	.LBB583:
 3252              	.LBB584:
1060:lvgl\src\lv_core/lv_style.c **** 
 3253              		.loc 1 1060 0
 3254 0012 002B     		cmp	r3, #0
 3255 0014 46D0     		beq	.L247
1062:lvgl\src\lv_core/lv_style.c ****     lv_style_attr_t attr;
 3256              		.loc 1 1062 0
 3257 0016 CEB2     		uxtb	r6, r1
 3258              	.LVL501:
1064:lvgl\src\lv_core/lv_style.c **** 
 3259              		.loc 1 1064 0
 3260 0018 4FEA112E 		lsr	lr, r1, #8
 3261              	.LVL502:
1069:lvgl\src\lv_core/lv_style.c **** 
 3262              		.loc 1 1069 0
 3263 001c 0020     		movs	r0, #0
 3264              	.LVL503:
ARM GAS  C:\Users\strap\AppData\Local\Temp\cc7bAV43.s 			page 97


1067:lvgl\src\lv_core/lv_style.c **** 
 3265              		.loc 1 1067 0
 3266 001e 4FF0FF37 		mov	r7, #-1
1066:lvgl\src\lv_core/lv_style.c ****     int16_t id_guess = -1;
 3267              		.loc 1 1066 0
 3268 0022 BC46     		mov	ip, r7
 3269 0024 31E0     		b	.L238
 3270              	.LVL504:
 3271              	.L242:
1073:lvgl\src\lv_core/lv_style.c ****             lv_style_attr_t attr_i;
 3272              		.loc 1 1073 0
 3273 0026 9E42     		cmp	r6, r3
 3274 0028 1FD1     		bne	.L239
 3275              	.LVL505:
 3276              	.LBB585:
 3277              	.LBB586:
 3278              	.LBB587:
 3279              	.LBB588:
 3280              	.LBB589:
1145:lvgl\src\lv_core/lv_style.c ****     prop_p[1] = style->map[idx + 1];
 3281              		.loc 1 1145 0
 3282 002a D5F80080 		ldr	r8, [r5]
 3283 002e 18F80090 		ldrb	r9, [r8, r0]	@ zero_extendqisi2
 3284 0032 8DF80690 		strb	r9, [sp, #6]
1146:lvgl\src\lv_core/lv_style.c ****     return prop;
 3285              		.loc 1 1146 0
 3286 0036 18F80440 		ldrb	r4, [r8, r4]	@ zero_extendqisi2
 3287 003a 8DF80740 		strb	r4, [sp, #7]
1147:lvgl\src\lv_core/lv_style.c **** }
 3288              		.loc 1 1147 0
 3289 003e BDF80640 		ldrh	r4, [sp, #6]
 3290              	.LVL506:
 3291              	.LBE589:
 3292              	.LBE588:
1169:lvgl\src\lv_core/lv_style.c **** }
 3293              		.loc 1 1169 0
 3294 0042 240A     		lsrs	r4, r4, #8
 3295              	.LVL507:
 3296              	.LBE587:
 3297              	.LBE586:
1078:lvgl\src\lv_core/lv_style.c ****                 return i;
 3298              		.loc 1 1078 0
 3299 0044 8EEA0408 		eor	r8, lr, r4
 3300 0048 18F07F0F 		tst	r8, #127
 3301 004c 01D1     		bne	.L240
1079:lvgl\src\lv_core/lv_style.c ****             }
 3302              		.loc 1 1079 0
 3303 004e 0746     		mov	r7, r0
 3304              	.LVL508:
 3305 0050 2AE0     		b	.L237
 3306              	.LVL509:
 3307              	.L240:
 3308 0052 04F07F04 		and	r4, r4, #127
1083:lvgl\src\lv_core/lv_style.c ****                 /* Use this property if it describes better the requested state than the current ca
 3309              		.loc 1 1083 0
 3310 0056 0EF07F08 		and	r8, lr, #127
 3311 005a 34EA0808 		bics	r8, r4, r8
ARM GAS  C:\Users\strap\AppData\Local\Temp\cc7bAV43.s 			page 98


 3312 005e 04D1     		bne	.L239
1086:lvgl\src\lv_core/lv_style.c ****                     weight = LV_STYLE_ATTR_GET_STATE(attr_i);
 3313              		.loc 1 1086 0
 3314 0060 6445     		cmp	r4, ip
 3315 0062 02DD     		ble	.L239
1087:lvgl\src\lv_core/lv_style.c ****                     id_guess = i;
 3316              		.loc 1 1087 0
 3317 0064 0FFA84FC 		sxth	ip, r4
 3318              	.LVL510:
1088:lvgl\src\lv_core/lv_style.c ****                 }
 3319              		.loc 1 1088 0
 3320 0068 07B2     		sxth	r7, r0
 3321              	.LVL511:
 3322              	.L239:
 3323              	.LBE585:
 3324              	.LBB590:
 3325              	.LBB591:
 3326              	.LBB592:
 3327              	.LBB593:
1181:lvgl\src\lv_core/lv_style.c ****     size_t size = sizeof(lv_style_property_t);
 3328              		.loc 1 1181 0
 3329 006a 03F00F03 		and	r3, r3, #15
 3330              	.LVL512:
1183:lvgl\src\lv_core/lv_style.c ****     else if(prop_id < LV_STYLE_ID_OPA) size += sizeof(lv_color_t);
 3331              		.loc 1 1183 0
 3332 006e 082B     		cmp	r3, #8
 3333 0070 05D9     		bls	.L248
1184:lvgl\src\lv_core/lv_style.c ****     else if(prop_id < LV_STYLE_ID_PTR) size += sizeof(lv_opa_t);
 3334              		.loc 1 1184 0
 3335 0072 0B2B     		cmp	r3, #11
 3336 0074 05D9     		bls	.L249
1185:lvgl\src\lv_core/lv_style.c ****     else size += sizeof(const void *);
 3337              		.loc 1 1185 0
 3338 0076 0D2B     		cmp	r3, #13
 3339 0078 05D8     		bhi	.L250
 3340 007a 0323     		movs	r3, #3
 3341              	.LVL513:
 3342 007c 04E0     		b	.L241
 3343              	.LVL514:
 3344              	.L248:
1183:lvgl\src\lv_core/lv_style.c ****     else if(prop_id < LV_STYLE_ID_OPA) size += sizeof(lv_color_t);
 3345              		.loc 1 1183 0
 3346 007e 0423     		movs	r3, #4
 3347              	.LVL515:
 3348 0080 02E0     		b	.L241
 3349              	.LVL516:
 3350              	.L249:
1184:lvgl\src\lv_core/lv_style.c ****     else if(prop_id < LV_STYLE_ID_PTR) size += sizeof(lv_opa_t);
 3351              		.loc 1 1184 0
 3352 0082 0423     		movs	r3, #4
 3353              	.LVL517:
 3354 0084 00E0     		b	.L241
 3355              	.LVL518:
 3356              	.L250:
1186:lvgl\src\lv_core/lv_style.c ****     return size;
 3357              		.loc 1 1186 0
 3358 0086 0623     		movs	r3, #6
ARM GAS  C:\Users\strap\AppData\Local\Temp\cc7bAV43.s 			page 99


 3359              	.LVL519:
 3360              	.L241:
 3361              	.LBE593:
 3362              	.LBE592:
 3363              		.loc 1 1198 0
 3364 0088 1844     		add	r0, r0, r3
 3365              	.LVL520:
 3366              	.L238:
 3367              	.LBE591:
 3368              	.LBE590:
 3369              	.LBB594:
 3370              	.LBB595:
 3371              	.LBB596:
 3372              	.LBB597:
1145:lvgl\src\lv_core/lv_style.c ****     prop_p[1] = style->map[idx + 1];
 3373              		.loc 1 1145 0
 3374 008a 2B68     		ldr	r3, [r5]
 3375 008c 1C5C     		ldrb	r4, [r3, r0]	@ zero_extendqisi2
 3376 008e 8DF80640 		strb	r4, [sp, #6]
1146:lvgl\src\lv_core/lv_style.c ****     return prop;
 3377              		.loc 1 1146 0
 3378 0092 441C     		adds	r4, r0, #1
 3379 0094 1B5D     		ldrb	r3, [r3, r4]	@ zero_extendqisi2
 3380 0096 8DF80730 		strb	r3, [sp, #7]
 3381              	.LVL521:
 3382              	.LBE597:
 3383              	.LBE596:
1158:lvgl\src\lv_core/lv_style.c **** }
 3384              		.loc 1 1158 0
 3385 009a 9DF80630 		ldrb	r3, [sp, #6]	@ zero_extendqisi2
 3386              	.LVL522:
 3387              	.LBE595:
 3388              	.LBE594:
1072:lvgl\src\lv_core/lv_style.c ****         if(prop_id == id_to_find) {
 3389              		.loc 1 1072 0
 3390 009e FF2B     		cmp	r3, #255
 3391 00a0 C1D1     		bne	.L242
 3392 00a2 01E0     		b	.L237
 3393              	.LVL523:
 3394              	.L247:
1060:lvgl\src\lv_core/lv_style.c **** 
 3395              		.loc 1 1060 0
 3396 00a4 4FF0FF37 		mov	r7, #-1
 3397              	.LVL524:
 3398              	.L237:
 3399              	.LBE584:
 3400              	.LBE583:
 627:lvgl\src\lv_core/lv_style.c ****         return -1;
 3401              		.loc 1 627 0
 3402 00a8 002F     		cmp	r7, #0
 3403 00aa 22DB     		blt	.L251
 3404              	.LBB598:
 631:lvgl\src\lv_core/lv_style.c ****         lv_style_attr_t attr_act;
 3405              		.loc 1 631 0
 3406 00ac 2B68     		ldr	r3, [r5]
 3407 00ae 3C46     		mov	r4, r7
 3408 00b0 0237     		adds	r7, r7, #2
ARM GAS  C:\Users\strap\AppData\Local\Temp\cc7bAV43.s 			page 100


 3409 00b2 3B44     		add	r3, r3, r7
 3410              	.LVL525:
 3411 00b4 0220     		movs	r0, #2
 3412 00b6 04E0     		b	.L243
 3413              	.LVL526:
 3414              	.L244:
 3415              	.LBB599:
 3416              	.LBB600:
 220:lvgl\src\lv_core\../lv_font/../lv_misc/lv_mem.h ****         d8++;
 3417              		.loc 3 220 0
 3418 00b8 13F8016B 		ldrb	r6, [r3], #1	@ zero_extendqisi2
 3419              	.LVL527:
 3420 00bc 02F8016B 		strb	r6, [r2], #1
 3421              	.LVL528:
 3422              		.loc 3 223 0
 3423 00c0 0138     		subs	r0, r0, #1
 3424              	.LVL529:
 3425              	.L243:
 219:lvgl\src\lv_core\../lv_font/../lv_misc/lv_mem.h ****         *d8 = *s8;
 3426              		.loc 3 219 0
 3427 00c2 0028     		cmp	r0, #0
 3428 00c4 F8D1     		bne	.L244
 3429              	.LVL530:
 3430              	.LBE600:
 3431              	.LBE599:
 3432              	.LBB601:
 3433              	.LBB602:
 3434              	.LBB603:
 3435              	.LBB604:
1145:lvgl\src\lv_core/lv_style.c ****     prop_p[1] = style->map[idx + 1];
 3436              		.loc 1 1145 0
 3437 00c6 2B68     		ldr	r3, [r5]
 3438              	.LVL531:
 3439 00c8 1A5D     		ldrb	r2, [r3, r4]	@ zero_extendqisi2
 3440              	.LVL532:
 3441 00ca 8DF80620 		strb	r2, [sp, #6]
1146:lvgl\src\lv_core/lv_style.c ****     return prop;
 3442              		.loc 1 1146 0
 3443 00ce 1C44     		add	r4, r4, r3
 3444              	.LVL533:
 3445 00d0 6378     		ldrb	r3, [r4, #1]	@ zero_extendqisi2
 3446 00d2 8DF80730 		strb	r3, [sp, #7]
1147:lvgl\src\lv_core/lv_style.c **** }
 3447              		.loc 1 1147 0
 3448 00d6 BDF80600 		ldrh	r0, [sp, #6]
 3449              	.LVL534:
 3450              	.LBE604:
 3451              	.LBE603:
 3452              	.LBE602:
 3453              	.LBE601:
 636:lvgl\src\lv_core/lv_style.c **** 
 3454              		.loc 1 636 0
 3455 00da 090A     		lsrs	r1, r1, #8
 3456              	.LVL535:
 638:lvgl\src\lv_core/lv_style.c ****     }
 3457              		.loc 1 638 0
 3458 00dc 01EA1020 		and	r0, r1, r0, lsr #8
ARM GAS  C:\Users\strap\AppData\Local\Temp\cc7bAV43.s 			page 101


 3459 00e0 00F07F00 		and	r0, r0, #127
 3460 00e4 07E0     		b	.L236
 3461              	.LVL536:
 3462              	.L245:
 3463              		.cfi_def_cfa_offset 0
 3464              		.cfi_restore 4
 3465              		.cfi_restore 5
 3466              		.cfi_restore 6
 3467              		.cfi_restore 7
 3468              		.cfi_restore 8
 3469              		.cfi_restore 9
 3470              		.cfi_restore 14
 3471              	.LBE598:
 624:lvgl\src\lv_core/lv_style.c ****     if(style->map == NULL) return -1;
 3472              		.loc 1 624 0
 3473 00e6 4FF0FF30 		mov	r0, #-1
 3474              	.LVL537:
 640:lvgl\src\lv_core/lv_style.c **** 
 3475              		.loc 1 640 0
 3476 00ea 7047     		bx	lr
 3477              	.LVL538:
 3478              	.L246:
 3479              		.cfi_def_cfa_offset 40
 3480              		.cfi_offset 4, -28
 3481              		.cfi_offset 5, -24
 3482              		.cfi_offset 6, -20
 3483              		.cfi_offset 7, -16
 3484              		.cfi_offset 8, -12
 3485              		.cfi_offset 9, -8
 3486              		.cfi_offset 14, -4
 625:lvgl\src\lv_core/lv_style.c ****     int32_t id = get_property_index(style, prop);
 3487              		.loc 1 625 0
 3488 00ec 4FF0FF30 		mov	r0, #-1
 3489              	.LVL539:
 3490 00f0 01E0     		b	.L236
 3491              	.L251:
 628:lvgl\src\lv_core/lv_style.c ****     }
 3492              		.loc 1 628 0
 3493 00f2 4FF0FF30 		mov	r0, #-1
 3494              	.LVL540:
 3495              	.L236:
 640:lvgl\src\lv_core/lv_style.c **** 
 3496              		.loc 1 640 0
 3497 00f6 03B0     		add	sp, sp, #12
 3498              		.cfi_def_cfa_offset 28
 3499              		@ sp needed
 3500 00f8 BDE8F083 		pop	{r4, r5, r6, r7, r8, r9, pc}
 3501              		.cfi_endproc
 3502              	.LFE344:
 3503              		.size	_lv_style_get_color, .-_lv_style_get_color
 3504              		.section	.text._lv_style_get_ptr,"ax",%progbits
 3505              		.align	2
 3506              		.global	_lv_style_get_ptr
 3507              		.thumb
 3508              		.thumb_func
 3509              		.type	_lv_style_get_ptr, %function
 3510              	_lv_style_get_ptr:
ARM GAS  C:\Users\strap\AppData\Local\Temp\cc7bAV43.s 			page 102


 3511              	.LFB345:
 656:lvgl\src\lv_core/lv_style.c ****     const void ** res = (const void **)v_res;
 3512              		.loc 1 656 0
 3513              		.cfi_startproc
 3514              		@ args = 0, pretend = 0, frame = 8
 3515              		@ frame_needed = 0, uses_anonymous_args = 0
 3516              	.LVL541:
 658:lvgl\src\lv_core/lv_style.c ****     if(style->map == NULL) return -1;
 3517              		.loc 1 658 0
 3518 0000 0028     		cmp	r0, #0
 3519 0002 70D0     		beq	.L263
 656:lvgl\src\lv_core/lv_style.c ****     const void ** res = (const void **)v_res;
 3520              		.loc 1 656 0
 3521 0004 2DE9F043 		push	{r4, r5, r6, r7, r8, r9, lr}
 3522              		.cfi_def_cfa_offset 28
 3523              		.cfi_offset 4, -28
 3524              		.cfi_offset 5, -24
 3525              		.cfi_offset 6, -20
 3526              		.cfi_offset 7, -16
 3527              		.cfi_offset 8, -12
 3528              		.cfi_offset 9, -8
 3529              		.cfi_offset 14, -4
 3530 0008 83B0     		sub	sp, sp, #12
 3531              		.cfi_def_cfa_offset 40
 3532 000a 0546     		mov	r5, r0
 659:lvgl\src\lv_core/lv_style.c **** 
 3533              		.loc 1 659 0
 3534 000c 0368     		ldr	r3, [r0]
 3535 000e 002B     		cmp	r3, #0
 3536 0010 6CD0     		beq	.L264
 3537              	.LVL542:
 3538              	.LBB627:
 3539              	.LBB628:
1060:lvgl\src\lv_core/lv_style.c **** 
 3540              		.loc 1 1060 0
 3541 0012 002B     		cmp	r3, #0
 3542 0014 46D0     		beq	.L265
1062:lvgl\src\lv_core/lv_style.c ****     lv_style_attr_t attr;
 3543              		.loc 1 1062 0
 3544 0016 CFB2     		uxtb	r7, r1
 3545              	.LVL543:
1064:lvgl\src\lv_core/lv_style.c **** 
 3546              		.loc 1 1064 0
 3547 0018 4FEA112E 		lsr	lr, r1, #8
 3548              	.LVL544:
1069:lvgl\src\lv_core/lv_style.c **** 
 3549              		.loc 1 1069 0
 3550 001c 0020     		movs	r0, #0
 3551              	.LVL545:
1067:lvgl\src\lv_core/lv_style.c **** 
 3552              		.loc 1 1067 0
 3553 001e 4FF0FF36 		mov	r6, #-1
1066:lvgl\src\lv_core/lv_style.c ****     int16_t id_guess = -1;
 3554              		.loc 1 1066 0
 3555 0022 B446     		mov	ip, r6
 3556 0024 31E0     		b	.L256
 3557              	.LVL546:
ARM GAS  C:\Users\strap\AppData\Local\Temp\cc7bAV43.s 			page 103


 3558              	.L260:
1073:lvgl\src\lv_core/lv_style.c ****             lv_style_attr_t attr_i;
 3559              		.loc 1 1073 0
 3560 0026 9F42     		cmp	r7, r3
 3561 0028 1FD1     		bne	.L257
 3562              	.LVL547:
 3563              	.LBB629:
 3564              	.LBB630:
 3565              	.LBB631:
 3566              	.LBB632:
 3567              	.LBB633:
1145:lvgl\src\lv_core/lv_style.c ****     prop_p[1] = style->map[idx + 1];
 3568              		.loc 1 1145 0
 3569 002a D5F80080 		ldr	r8, [r5]
 3570 002e 18F80090 		ldrb	r9, [r8, r0]	@ zero_extendqisi2
 3571 0032 8DF80690 		strb	r9, [sp, #6]
1146:lvgl\src\lv_core/lv_style.c ****     return prop;
 3572              		.loc 1 1146 0
 3573 0036 18F80440 		ldrb	r4, [r8, r4]	@ zero_extendqisi2
 3574 003a 8DF80740 		strb	r4, [sp, #7]
1147:lvgl\src\lv_core/lv_style.c **** }
 3575              		.loc 1 1147 0
 3576 003e BDF80640 		ldrh	r4, [sp, #6]
 3577              	.LVL548:
 3578              	.LBE633:
 3579              	.LBE632:
1169:lvgl\src\lv_core/lv_style.c **** }
 3580              		.loc 1 1169 0
 3581 0042 240A     		lsrs	r4, r4, #8
 3582              	.LVL549:
 3583              	.LBE631:
 3584              	.LBE630:
1078:lvgl\src\lv_core/lv_style.c ****                 return i;
 3585              		.loc 1 1078 0
 3586 0044 8EEA0408 		eor	r8, lr, r4
 3587 0048 18F07F0F 		tst	r8, #127
 3588 004c 01D1     		bne	.L258
1079:lvgl\src\lv_core/lv_style.c ****             }
 3589              		.loc 1 1079 0
 3590 004e 0646     		mov	r6, r0
 3591              	.LVL550:
 3592 0050 2AE0     		b	.L255
 3593              	.LVL551:
 3594              	.L258:
 3595 0052 04F07F04 		and	r4, r4, #127
1083:lvgl\src\lv_core/lv_style.c ****                 /* Use this property if it describes better the requested state than the current ca
 3596              		.loc 1 1083 0
 3597 0056 0EF07F08 		and	r8, lr, #127
 3598 005a 34EA0808 		bics	r8, r4, r8
 3599 005e 04D1     		bne	.L257
1086:lvgl\src\lv_core/lv_style.c ****                     weight = LV_STYLE_ATTR_GET_STATE(attr_i);
 3600              		.loc 1 1086 0
 3601 0060 6445     		cmp	r4, ip
 3602 0062 02DD     		ble	.L257
1087:lvgl\src\lv_core/lv_style.c ****                     id_guess = i;
 3603              		.loc 1 1087 0
 3604 0064 0FFA84FC 		sxth	ip, r4
ARM GAS  C:\Users\strap\AppData\Local\Temp\cc7bAV43.s 			page 104


 3605              	.LVL552:
1088:lvgl\src\lv_core/lv_style.c ****                 }
 3606              		.loc 1 1088 0
 3607 0068 06B2     		sxth	r6, r0
 3608              	.LVL553:
 3609              	.L257:
 3610              	.LBE629:
 3611              	.LBB634:
 3612              	.LBB635:
 3613              	.LBB636:
 3614              	.LBB637:
1181:lvgl\src\lv_core/lv_style.c ****     size_t size = sizeof(lv_style_property_t);
 3615              		.loc 1 1181 0
 3616 006a 03F00F03 		and	r3, r3, #15
 3617              	.LVL554:
1183:lvgl\src\lv_core/lv_style.c ****     else if(prop_id < LV_STYLE_ID_OPA) size += sizeof(lv_color_t);
 3618              		.loc 1 1183 0
 3619 006e 082B     		cmp	r3, #8
 3620 0070 05D9     		bls	.L266
1184:lvgl\src\lv_core/lv_style.c ****     else if(prop_id < LV_STYLE_ID_PTR) size += sizeof(lv_opa_t);
 3621              		.loc 1 1184 0
 3622 0072 0B2B     		cmp	r3, #11
 3623 0074 05D9     		bls	.L267
1185:lvgl\src\lv_core/lv_style.c ****     else size += sizeof(const void *);
 3624              		.loc 1 1185 0
 3625 0076 0D2B     		cmp	r3, #13
 3626 0078 05D8     		bhi	.L268
 3627 007a 0323     		movs	r3, #3
 3628              	.LVL555:
 3629 007c 04E0     		b	.L259
 3630              	.LVL556:
 3631              	.L266:
1183:lvgl\src\lv_core/lv_style.c ****     else if(prop_id < LV_STYLE_ID_OPA) size += sizeof(lv_color_t);
 3632              		.loc 1 1183 0
 3633 007e 0423     		movs	r3, #4
 3634              	.LVL557:
 3635 0080 02E0     		b	.L259
 3636              	.LVL558:
 3637              	.L267:
1184:lvgl\src\lv_core/lv_style.c ****     else if(prop_id < LV_STYLE_ID_PTR) size += sizeof(lv_opa_t);
 3638              		.loc 1 1184 0
 3639 0082 0423     		movs	r3, #4
 3640              	.LVL559:
 3641 0084 00E0     		b	.L259
 3642              	.LVL560:
 3643              	.L268:
1186:lvgl\src\lv_core/lv_style.c ****     return size;
 3644              		.loc 1 1186 0
 3645 0086 0623     		movs	r3, #6
 3646              	.LVL561:
 3647              	.L259:
 3648              	.LBE637:
 3649              	.LBE636:
 3650              		.loc 1 1198 0
 3651 0088 1844     		add	r0, r0, r3
 3652              	.LVL562:
 3653              	.L256:
ARM GAS  C:\Users\strap\AppData\Local\Temp\cc7bAV43.s 			page 105


 3654              	.LBE635:
 3655              	.LBE634:
 3656              	.LBB638:
 3657              	.LBB639:
 3658              	.LBB640:
 3659              	.LBB641:
1145:lvgl\src\lv_core/lv_style.c ****     prop_p[1] = style->map[idx + 1];
 3660              		.loc 1 1145 0
 3661 008a 2B68     		ldr	r3, [r5]
 3662 008c 1C5C     		ldrb	r4, [r3, r0]	@ zero_extendqisi2
 3663 008e 8DF80640 		strb	r4, [sp, #6]
1146:lvgl\src\lv_core/lv_style.c ****     return prop;
 3664              		.loc 1 1146 0
 3665 0092 441C     		adds	r4, r0, #1
 3666 0094 1B5D     		ldrb	r3, [r3, r4]	@ zero_extendqisi2
 3667 0096 8DF80730 		strb	r3, [sp, #7]
 3668              	.LVL563:
 3669              	.LBE641:
 3670              	.LBE640:
1158:lvgl\src\lv_core/lv_style.c **** }
 3671              		.loc 1 1158 0
 3672 009a 9DF80630 		ldrb	r3, [sp, #6]	@ zero_extendqisi2
 3673              	.LVL564:
 3674              	.LBE639:
 3675              	.LBE638:
1072:lvgl\src\lv_core/lv_style.c ****         if(prop_id == id_to_find) {
 3676              		.loc 1 1072 0
 3677 009e FF2B     		cmp	r3, #255
 3678 00a0 C1D1     		bne	.L260
 3679 00a2 01E0     		b	.L255
 3680              	.LVL565:
 3681              	.L265:
1060:lvgl\src\lv_core/lv_style.c **** 
 3682              		.loc 1 1060 0
 3683 00a4 4FF0FF36 		mov	r6, #-1
 3684              	.LVL566:
 3685              	.L255:
 3686              	.LBE628:
 3687              	.LBE627:
 662:lvgl\src\lv_core/lv_style.c ****         return -1;
 3688              		.loc 1 662 0
 3689 00a8 002E     		cmp	r6, #0
 3690 00aa 22DB     		blt	.L269
 3691              	.LBB642:
 666:lvgl\src\lv_core/lv_style.c ****         lv_style_attr_t attr_act;
 3692              		.loc 1 666 0
 3693 00ac 2B68     		ldr	r3, [r5]
 3694 00ae 3746     		mov	r7, r6
 3695 00b0 0236     		adds	r6, r6, #2
 3696 00b2 3344     		add	r3, r3, r6
 3697              	.LVL567:
 3698 00b4 0420     		movs	r0, #4
 3699 00b6 04E0     		b	.L261
 3700              	.LVL568:
 3701              	.L262:
 3702              	.LBB643:
 3703              	.LBB644:
ARM GAS  C:\Users\strap\AppData\Local\Temp\cc7bAV43.s 			page 106


 220:lvgl\src\lv_core\../lv_font/../lv_misc/lv_mem.h ****         d8++;
 3704              		.loc 3 220 0
 3705 00b8 13F8014B 		ldrb	r4, [r3], #1	@ zero_extendqisi2
 3706              	.LVL569:
 3707 00bc 02F8014B 		strb	r4, [r2], #1
 3708              	.LVL570:
 3709              		.loc 3 223 0
 3710 00c0 0138     		subs	r0, r0, #1
 3711              	.LVL571:
 3712              	.L261:
 219:lvgl\src\lv_core\../lv_font/../lv_misc/lv_mem.h ****         *d8 = *s8;
 3713              		.loc 3 219 0
 3714 00c2 0028     		cmp	r0, #0
 3715 00c4 F8D1     		bne	.L262
 3716              	.LVL572:
 3717              	.LBE644:
 3718              	.LBE643:
 3719              	.LBB645:
 3720              	.LBB646:
 3721              	.LBB647:
 3722              	.LBB648:
1145:lvgl\src\lv_core/lv_style.c ****     prop_p[1] = style->map[idx + 1];
 3723              		.loc 1 1145 0
 3724 00c6 2B68     		ldr	r3, [r5]
 3725              	.LVL573:
 3726 00c8 DA5D     		ldrb	r2, [r3, r7]	@ zero_extendqisi2
 3727              	.LVL574:
 3728 00ca 8DF80620 		strb	r2, [sp, #6]
1146:lvgl\src\lv_core/lv_style.c ****     return prop;
 3729              		.loc 1 1146 0
 3730 00ce 1F44     		add	r7, r7, r3
 3731              	.LVL575:
 3732 00d0 7B78     		ldrb	r3, [r7, #1]	@ zero_extendqisi2
 3733 00d2 8DF80730 		strb	r3, [sp, #7]
1147:lvgl\src\lv_core/lv_style.c **** }
 3734              		.loc 1 1147 0
 3735 00d6 BDF80600 		ldrh	r0, [sp, #6]
 3736              	.LVL576:
 3737              	.LBE648:
 3738              	.LBE647:
 3739              	.LBE646:
 3740              	.LBE645:
 671:lvgl\src\lv_core/lv_style.c **** 
 3741              		.loc 1 671 0
 3742 00da 090A     		lsrs	r1, r1, #8
 3743              	.LVL577:
 673:lvgl\src\lv_core/lv_style.c ****     }
 3744              		.loc 1 673 0
 3745 00dc 01EA1020 		and	r0, r1, r0, lsr #8
 3746 00e0 00F07F00 		and	r0, r0, #127
 3747 00e4 07E0     		b	.L254
 3748              	.LVL578:
 3749              	.L263:
 3750              		.cfi_def_cfa_offset 0
 3751              		.cfi_restore 4
 3752              		.cfi_restore 5
 3753              		.cfi_restore 6
ARM GAS  C:\Users\strap\AppData\Local\Temp\cc7bAV43.s 			page 107


 3754              		.cfi_restore 7
 3755              		.cfi_restore 8
 3756              		.cfi_restore 9
 3757              		.cfi_restore 14
 3758              	.LBE642:
 658:lvgl\src\lv_core/lv_style.c ****     if(style->map == NULL) return -1;
 3759              		.loc 1 658 0
 3760 00e6 4FF0FF30 		mov	r0, #-1
 3761              	.LVL579:
 675:lvgl\src\lv_core/lv_style.c **** 
 3762              		.loc 1 675 0
 3763 00ea 7047     		bx	lr
 3764              	.LVL580:
 3765              	.L264:
 3766              		.cfi_def_cfa_offset 40
 3767              		.cfi_offset 4, -28
 3768              		.cfi_offset 5, -24
 3769              		.cfi_offset 6, -20
 3770              		.cfi_offset 7, -16
 3771              		.cfi_offset 8, -12
 3772              		.cfi_offset 9, -8
 3773              		.cfi_offset 14, -4
 659:lvgl\src\lv_core/lv_style.c **** 
 3774              		.loc 1 659 0
 3775 00ec 4FF0FF30 		mov	r0, #-1
 3776              	.LVL581:
 3777 00f0 01E0     		b	.L254
 3778              	.L269:
 663:lvgl\src\lv_core/lv_style.c ****     }
 3779              		.loc 1 663 0
 3780 00f2 4FF0FF30 		mov	r0, #-1
 3781              	.LVL582:
 3782              	.L254:
 675:lvgl\src\lv_core/lv_style.c **** 
 3783              		.loc 1 675 0
 3784 00f6 03B0     		add	sp, sp, #12
 3785              		.cfi_def_cfa_offset 28
 3786              		@ sp needed
 3787 00f8 BDE8F083 		pop	{r4, r5, r6, r7, r8, r9, pc}
 3788              		.cfi_endproc
 3789              	.LFE345:
 3790              		.size	_lv_style_get_ptr, .-_lv_style_get_ptr
 3791              		.section	.text.lv_style_list_get_local_style,"ax",%progbits
 3792              		.align	2
 3793              		.global	lv_style_list_get_local_style
 3794              		.thumb
 3795              		.thumb_func
 3796              		.type	lv_style_list_get_local_style, %function
 3797              	lv_style_list_get_local_style:
 3798              	.LFB346:
 683:lvgl\src\lv_core/lv_style.c ****     LV_ASSERT_STYLE_LIST(list);
 3799              		.loc 1 683 0
 3800              		.cfi_startproc
 3801              		@ args = 0, pretend = 0, frame = 0
 3802              		@ frame_needed = 0, uses_anonymous_args = 0
 3803              		@ link register save eliminated.
 3804              	.LVL583:
ARM GAS  C:\Users\strap\AppData\Local\Temp\cc7bAV43.s 			page 108


 686:lvgl\src\lv_core/lv_style.c ****     if(list->has_trans) return list->style_list[1];
 3805              		.loc 1 686 0
 3806 0000 0379     		ldrb	r3, [r0, #4]	@ zero_extendqisi2
 3807 0002 13F0400F 		tst	r3, #64
 3808 0006 08D0     		beq	.L274
 687:lvgl\src\lv_core/lv_style.c ****     else return list->style_list[0];
 3809              		.loc 1 687 0
 3810 0008 13F0800F 		tst	r3, #128
 3811 000c 02D0     		beq	.L273
 687:lvgl\src\lv_core/lv_style.c ****     else return list->style_list[0];
 3812              		.loc 1 687 0 is_stmt 0 discriminator 1
 3813 000e 0368     		ldr	r3, [r0]
 3814 0010 5868     		ldr	r0, [r3, #4]
 3815              	.LVL584:
 3816 0012 7047     		bx	lr
 3817              	.LVL585:
 3818              	.L273:
 688:lvgl\src\lv_core/lv_style.c **** }
 3819              		.loc 1 688 0 is_stmt 1
 3820 0014 0368     		ldr	r3, [r0]
 3821 0016 1868     		ldr	r0, [r3]
 3822              	.LVL586:
 3823 0018 7047     		bx	lr
 3824              	.LVL587:
 3825              	.L274:
 686:lvgl\src\lv_core/lv_style.c ****     if(list->has_trans) return list->style_list[1];
 3826              		.loc 1 686 0
 3827 001a 0020     		movs	r0, #0
 3828              	.LVL588:
 689:lvgl\src\lv_core/lv_style.c **** 
 3829              		.loc 1 689 0
 3830 001c 7047     		bx	lr
 3831              		.cfi_endproc
 3832              	.LFE346:
 3833              		.size	lv_style_list_get_local_style, .-lv_style_list_get_local_style
 3834 001e 00BF     		.section	.text._lv_style_list_get_transition_style,"ax",%progbits
 3835              		.align	2
 3836              		.global	_lv_style_list_get_transition_style
 3837              		.thumb
 3838              		.thumb_func
 3839              		.type	_lv_style_list_get_transition_style, %function
 3840              	_lv_style_list_get_transition_style:
 3841              	.LFB347:
 697:lvgl\src\lv_core/lv_style.c ****     LV_ASSERT_STYLE_LIST(list);
 3842              		.loc 1 697 0
 3843              		.cfi_startproc
 3844              		@ args = 0, pretend = 0, frame = 0
 3845              		@ frame_needed = 0, uses_anonymous_args = 0
 3846              		@ link register save eliminated.
 3847              	.LVL589:
 700:lvgl\src\lv_core/lv_style.c ****     return list->style_list[0];
 3848              		.loc 1 700 0
 3849 0000 0379     		ldrb	r3, [r0, #4]	@ zero_extendqisi2
 3850 0002 13F0800F 		tst	r3, #128
 3851 0006 02D0     		beq	.L277
 701:lvgl\src\lv_core/lv_style.c **** }
 3852              		.loc 1 701 0
ARM GAS  C:\Users\strap\AppData\Local\Temp\cc7bAV43.s 			page 109


 3853 0008 0368     		ldr	r3, [r0]
 3854 000a 1868     		ldr	r0, [r3]
 3855              	.LVL590:
 3856 000c 7047     		bx	lr
 3857              	.LVL591:
 3858              	.L277:
 700:lvgl\src\lv_core/lv_style.c ****     return list->style_list[0];
 3859              		.loc 1 700 0
 3860 000e 0020     		movs	r0, #0
 3861              	.LVL592:
 702:lvgl\src\lv_core/lv_style.c **** 
 3862              		.loc 1 702 0
 3863 0010 7047     		bx	lr
 3864              		.cfi_endproc
 3865              	.LFE347:
 3866              		.size	_lv_style_list_get_transition_style, .-_lv_style_list_get_transition_style
 3867 0012 00BF     		.section	.text._lv_style_list_reset,"ax",%progbits
 3868              		.align	2
 3869              		.global	_lv_style_list_reset
 3870              		.thumb
 3871              		.thumb_func
 3872              		.type	_lv_style_list_reset, %function
 3873              	_lv_style_list_reset:
 3874              	.LFB335:
 286:lvgl\src\lv_core/lv_style.c ****     LV_ASSERT_STYLE_LIST(list);
 3875              		.loc 1 286 0
 3876              		.cfi_startproc
 3877              		@ args = 0, pretend = 0, frame = 0
 3878              		@ frame_needed = 0, uses_anonymous_args = 0
 3879              	.LVL593:
 289:lvgl\src\lv_core/lv_style.c **** 
 3880              		.loc 1 289 0
 3881 0000 80B3     		cbz	r0, .L284
 286:lvgl\src\lv_core/lv_style.c ****     LV_ASSERT_STYLE_LIST(list);
 3882              		.loc 1 286 0
 3883 0002 38B5     		push	{r3, r4, r5, lr}
 3884              		.cfi_def_cfa_offset 16
 3885              		.cfi_offset 3, -16
 3886              		.cfi_offset 4, -12
 3887              		.cfi_offset 5, -8
 3888              		.cfi_offset 14, -4
 3889 0004 0446     		mov	r4, r0
 291:lvgl\src\lv_core/lv_style.c ****         lv_style_t * local = lv_style_list_get_local_style(list);
 3890              		.loc 1 291 0
 3891 0006 0379     		ldrb	r3, [r0, #4]	@ zero_extendqisi2
 3892 0008 13F0400F 		tst	r3, #64
 3893 000c 08D0     		beq	.L280
 3894              	.LBB649:
 292:lvgl\src\lv_core/lv_style.c ****         if(local) {
 3895              		.loc 1 292 0
 3896 000e FFF7FEFF 		bl	lv_style_list_get_local_style
 3897              	.LVL594:
 293:lvgl\src\lv_core/lv_style.c ****             lv_style_reset(local);
 3898              		.loc 1 293 0
 3899 0012 0546     		mov	r5, r0
 3900 0014 20B1     		cbz	r0, .L280
 294:lvgl\src\lv_core/lv_style.c ****             lv_mem_free(local);
ARM GAS  C:\Users\strap\AppData\Local\Temp\cc7bAV43.s 			page 110


 3901              		.loc 1 294 0
 3902 0016 FFF7FEFF 		bl	lv_style_reset
 3903              	.LVL595:
 295:lvgl\src\lv_core/lv_style.c ****         }
 3904              		.loc 1 295 0
 3905 001a 2846     		mov	r0, r5
 3906 001c FFF7FEFF 		bl	lv_mem_free
 3907              	.LVL596:
 3908              	.L280:
 3909              	.LBE649:
 299:lvgl\src\lv_core/lv_style.c ****         lv_style_t * trans = _lv_style_list_get_transition_style(list);
 3910              		.loc 1 299 0
 3911 0020 2379     		ldrb	r3, [r4, #4]	@ zero_extendqisi2
 3912 0022 13F0800F 		tst	r3, #128
 3913 0026 09D0     		beq	.L281
 3914              	.LBB650:
 300:lvgl\src\lv_core/lv_style.c ****         if(trans) {
 3915              		.loc 1 300 0
 3916 0028 2046     		mov	r0, r4
 3917 002a FFF7FEFF 		bl	_lv_style_list_get_transition_style
 3918              	.LVL597:
 301:lvgl\src\lv_core/lv_style.c ****             lv_style_reset(trans);
 3919              		.loc 1 301 0
 3920 002e 0546     		mov	r5, r0
 3921 0030 20B1     		cbz	r0, .L281
 302:lvgl\src\lv_core/lv_style.c ****             lv_mem_free(trans);
 3922              		.loc 1 302 0
 3923 0032 FFF7FEFF 		bl	lv_style_reset
 3924              	.LVL598:
 303:lvgl\src\lv_core/lv_style.c ****         }
 3925              		.loc 1 303 0
 3926 0036 2846     		mov	r0, r5
 3927 0038 FFF7FEFF 		bl	lv_mem_free
 3928              	.LVL599:
 3929              	.L281:
 3930              	.LBE650:
 307:lvgl\src\lv_core/lv_style.c ****     list->style_list = NULL;
 3931              		.loc 1 307 0
 3932 003c 2379     		ldrb	r3, [r4, #4]	@ zero_extendqisi2
 3933 003e 13F03F0F 		tst	r3, #63
 3934 0042 02D0     		beq	.L282
 307:lvgl\src\lv_core/lv_style.c ****     list->style_list = NULL;
 3935              		.loc 1 307 0 is_stmt 0 discriminator 1
 3936 0044 2068     		ldr	r0, [r4]
 3937 0046 FFF7FEFF 		bl	lv_mem_free
 3938              	.LVL600:
 3939              	.L282:
 308:lvgl\src\lv_core/lv_style.c ****     list->style_cnt = 0;
 3940              		.loc 1 308 0 is_stmt 1
 3941 004a 0022     		movs	r2, #0
 3942 004c 2260     		str	r2, [r4]
 309:lvgl\src\lv_core/lv_style.c ****     list->has_local = 0;
 3943              		.loc 1 309 0
 3944 004e 2379     		ldrb	r3, [r4, #4]	@ zero_extendqisi2
 311:lvgl\src\lv_core/lv_style.c ****     list->skip_trans = 0;
 3945              		.loc 1 311 0
 3946 0050 03F08003 		and	r3, r3, #128
ARM GAS  C:\Users\strap\AppData\Local\Temp\cc7bAV43.s 			page 111


 3947 0054 62F3C713 		bfi	r3, r2, #7, #1
 3948 0058 2371     		strb	r3, [r4, #4]
 312:lvgl\src\lv_core/lv_style.c **** 
 3949              		.loc 1 312 0
 3950 005a 6379     		ldrb	r3, [r4, #5]	@ zero_extendqisi2
 3951 005c 62F30003 		bfi	r3, r2, #0, #1
 3952 0060 6371     		strb	r3, [r4, #5]
 3953 0062 38BD     		pop	{r3, r4, r5, pc}
 3954              	.LVL601:
 3955              	.L284:
 3956              		.cfi_def_cfa_offset 0
 3957              		.cfi_restore 3
 3958              		.cfi_restore 4
 3959              		.cfi_restore 5
 3960              		.cfi_restore 14
 3961 0064 7047     		bx	lr
 3962              		.cfi_endproc
 3963              	.LFE335:
 3964              		.size	_lv_style_list_reset, .-_lv_style_list_reset
 3965 0066 00BF     		.section	.text.lv_style_list_copy,"ax",%progbits
 3966              		.align	2
 3967              		.global	lv_style_list_copy
 3968              		.thumb
 3969              		.thumb_func
 3970              		.type	lv_style_list_copy, %function
 3971              	lv_style_list_copy:
 3972              	.LFB332:
 151:lvgl\src\lv_core/lv_style.c ****     LV_ASSERT_STYLE_LIST(list_dest);
 3973              		.loc 1 151 0
 3974              		.cfi_startproc
 3975              		@ args = 0, pretend = 0, frame = 0
 3976              		@ frame_needed = 0, uses_anonymous_args = 0
 3977              	.LVL602:
 3978 0000 38B5     		push	{r3, r4, r5, lr}
 3979              		.cfi_def_cfa_offset 16
 3980              		.cfi_offset 3, -16
 3981              		.cfi_offset 4, -12
 3982              		.cfi_offset 5, -8
 3983              		.cfi_offset 14, -4
 3984 0002 0546     		mov	r5, r0
 3985 0004 0C46     		mov	r4, r1
 155:lvgl\src\lv_core/lv_style.c **** 
 3986              		.loc 1 155 0
 3987 0006 FFF7FEFF 		bl	_lv_style_list_reset
 3988              	.LVL603:
 157:lvgl\src\lv_core/lv_style.c **** 
 3989              		.loc 1 157 0
 3990 000a 2368     		ldr	r3, [r4]
 3991 000c 002B     		cmp	r3, #0
 3992 000e 74D0     		beq	.L285
 160:lvgl\src\lv_core/lv_style.c ****         if(list_src->has_trans) {
 3993              		.loc 1 160 0
 3994 0010 2379     		ldrb	r3, [r4, #4]	@ zero_extendqisi2
 3995 0012 13F0400F 		tst	r3, #64
 3996 0016 2FD1     		bne	.L287
 161:lvgl\src\lv_core/lv_style.c ****             list_dest->style_list = lv_mem_alloc((list_src->style_cnt - 1) * sizeof(lv_style_t *));
 3997              		.loc 1 161 0
ARM GAS  C:\Users\strap\AppData\Local\Temp\cc7bAV43.s 			page 112


 3998 0018 13F0800F 		tst	r3, #128
 3999 001c 18D0     		beq	.L288
 162:lvgl\src\lv_core/lv_style.c ****             _lv_memcpy(list_dest->style_list, list_src->style_list + 1, (list_src->style_cnt - 1) *
 4000              		.loc 1 162 0
 4001 001e 03F03F00 		and	r0, r3, #63
 4002 0022 0138     		subs	r0, r0, #1
 4003 0024 8000     		lsls	r0, r0, #2
 4004 0026 FFF7FEFF 		bl	lv_mem_alloc
 4005              	.LVL604:
 4006 002a 2860     		str	r0, [r5]
 163:lvgl\src\lv_core/lv_style.c ****             list_dest->style_cnt = list_src->style_cnt - 1;
 4007              		.loc 1 163 0
 4008 002c 2168     		ldr	r1, [r4]
 4009 002e 2279     		ldrb	r2, [r4, #4]	@ zero_extendqisi2
 4010 0030 02F03F02 		and	r2, r2, #63
 4011 0034 013A     		subs	r2, r2, #1
 4012 0036 9200     		lsls	r2, r2, #2
 4013 0038 0431     		adds	r1, r1, #4
 4014 003a FFF7FEFF 		bl	_lv_memcpy
 4015              	.LVL605:
 164:lvgl\src\lv_core/lv_style.c ****         }
 4016              		.loc 1 164 0
 4017 003e 2379     		ldrb	r3, [r4, #4]	@ zero_extendqisi2
 4018 0040 03F03F03 		and	r3, r3, #63
 4019 0044 013B     		subs	r3, r3, #1
 4020 0046 2A79     		ldrb	r2, [r5, #4]	@ zero_extendqisi2
 4021 0048 63F30502 		bfi	r2, r3, #0, #6
 4022 004c 2A71     		strb	r2, [r5, #4]
 4023 004e 38BD     		pop	{r3, r4, r5, pc}
 4024              	.LVL606:
 4025              	.L288:
 167:lvgl\src\lv_core/lv_style.c ****             _lv_memcpy(list_dest->style_list, list_src->style_list, list_src->style_cnt * sizeof(lv
 4026              		.loc 1 167 0
 4027 0050 2079     		ldrb	r0, [r4, #4]	@ zero_extendqisi2
 4028 0052 00F03F00 		and	r0, r0, #63
 4029 0056 8000     		lsls	r0, r0, #2
 4030 0058 FFF7FEFF 		bl	lv_mem_alloc
 4031              	.LVL607:
 4032 005c 2860     		str	r0, [r5]
 168:lvgl\src\lv_core/lv_style.c ****             list_dest->style_cnt = list_src->style_cnt;
 4033              		.loc 1 168 0
 4034 005e 2279     		ldrb	r2, [r4, #4]	@ zero_extendqisi2
 4035 0060 02F03F02 		and	r2, r2, #63
 4036 0064 9200     		lsls	r2, r2, #2
 4037 0066 2168     		ldr	r1, [r4]
 4038 0068 FFF7FEFF 		bl	_lv_memcpy
 4039              	.LVL608:
 169:lvgl\src\lv_core/lv_style.c ****         }
 4040              		.loc 1 169 0
 4041 006c 2279     		ldrb	r2, [r4, #4]	@ zero_extendqisi2
 4042 006e 2B79     		ldrb	r3, [r5, #4]	@ zero_extendqisi2
 4043 0070 62F30503 		bfi	r3, r2, #0, #6
 4044 0074 2B71     		strb	r3, [r5, #4]
 4045 0076 38BD     		pop	{r3, r4, r5, pc}
 4046              	.LVL609:
 4047              	.L287:
 4048              	.LBB651:
ARM GAS  C:\Users\strap\AppData\Local\Temp\cc7bAV43.s 			page 113


 173:lvgl\src\lv_core/lv_style.c ****             list_dest->style_list = lv_mem_alloc((list_src->style_cnt - 2) * sizeof(lv_style_t *));
 4049              		.loc 1 173 0
 4050 0078 13F0800F 		tst	r3, #128
 4051 007c 19D0     		beq	.L289
 174:lvgl\src\lv_core/lv_style.c ****             _lv_memcpy(list_dest->style_list, list_src->style_list + 2, (list_src->style_cnt - 2) *
 4052              		.loc 1 174 0
 4053 007e 2079     		ldrb	r0, [r4, #4]	@ zero_extendqisi2
 4054 0080 00F03F00 		and	r0, r0, #63
 4055 0084 0238     		subs	r0, r0, #2
 4056 0086 8000     		lsls	r0, r0, #2
 4057 0088 FFF7FEFF 		bl	lv_mem_alloc
 4058              	.LVL610:
 4059 008c 2860     		str	r0, [r5]
 175:lvgl\src\lv_core/lv_style.c ****             list_dest->style_cnt = list_src->style_cnt - 2;
 4060              		.loc 1 175 0
 4061 008e 2168     		ldr	r1, [r4]
 4062 0090 2279     		ldrb	r2, [r4, #4]	@ zero_extendqisi2
 4063 0092 02F03F02 		and	r2, r2, #63
 4064 0096 023A     		subs	r2, r2, #2
 4065 0098 9200     		lsls	r2, r2, #2
 4066 009a 0831     		adds	r1, r1, #8
 4067 009c FFF7FEFF 		bl	_lv_memcpy
 4068              	.LVL611:
 176:lvgl\src\lv_core/lv_style.c ****         }
 4069              		.loc 1 176 0
 4070 00a0 2379     		ldrb	r3, [r4, #4]	@ zero_extendqisi2
 4071 00a2 03F03F03 		and	r3, r3, #63
 4072 00a6 023B     		subs	r3, r3, #2
 4073 00a8 2A79     		ldrb	r2, [r5, #4]	@ zero_extendqisi2
 4074 00aa 63F30502 		bfi	r2, r3, #0, #6
 4075 00ae 2A71     		strb	r2, [r5, #4]
 4076 00b0 18E0     		b	.L290
 4077              	.L289:
 179:lvgl\src\lv_core/lv_style.c ****             _lv_memcpy(list_dest->style_list, list_src->style_list + 1, (list_src->style_cnt - 1) *
 4078              		.loc 1 179 0
 4079 00b2 2079     		ldrb	r0, [r4, #4]	@ zero_extendqisi2
 4080 00b4 00F03F00 		and	r0, r0, #63
 4081 00b8 0138     		subs	r0, r0, #1
 4082 00ba 8000     		lsls	r0, r0, #2
 4083 00bc FFF7FEFF 		bl	lv_mem_alloc
 4084              	.LVL612:
 4085 00c0 2860     		str	r0, [r5]
 180:lvgl\src\lv_core/lv_style.c ****             list_dest->style_cnt = list_src->style_cnt - 1;
 4086              		.loc 1 180 0
 4087 00c2 2168     		ldr	r1, [r4]
 4088 00c4 2279     		ldrb	r2, [r4, #4]	@ zero_extendqisi2
 4089 00c6 02F03F02 		and	r2, r2, #63
 4090 00ca 013A     		subs	r2, r2, #1
 4091 00cc 9200     		lsls	r2, r2, #2
 4092 00ce 0431     		adds	r1, r1, #4
 4093 00d0 FFF7FEFF 		bl	_lv_memcpy
 4094              	.LVL613:
 181:lvgl\src\lv_core/lv_style.c ****         }
 4095              		.loc 1 181 0
 4096 00d4 2379     		ldrb	r3, [r4, #4]	@ zero_extendqisi2
 4097 00d6 03F03F03 		and	r3, r3, #63
 4098 00da 013B     		subs	r3, r3, #1
ARM GAS  C:\Users\strap\AppData\Local\Temp\cc7bAV43.s 			page 114


 4099 00dc 2A79     		ldrb	r2, [r5, #4]	@ zero_extendqisi2
 4100 00de 63F30502 		bfi	r2, r3, #0, #6
 4101 00e2 2A71     		strb	r2, [r5, #4]
 4102              	.L290:
 184:lvgl\src\lv_core/lv_style.c ****         lv_style_copy(local_style, get_alloc_local_style((lv_style_list_t *)list_src));
 4103              		.loc 1 184 0
 4104 00e4 2846     		mov	r0, r5
 4105 00e6 FFF7FEFF 		bl	get_alloc_local_style
 4106              	.LVL614:
 4107 00ea 0546     		mov	r5, r0
 4108              	.LVL615:
 185:lvgl\src\lv_core/lv_style.c ****     }
 4109              		.loc 1 185 0
 4110 00ec 2046     		mov	r0, r4
 4111              	.LVL616:
 4112 00ee FFF7FEFF 		bl	get_alloc_local_style
 4113              	.LVL617:
 4114 00f2 0146     		mov	r1, r0
 4115 00f4 2846     		mov	r0, r5
 4116 00f6 FFF7FEFF 		bl	lv_style_copy
 4117              	.LVL618:
 4118              	.L285:
 4119 00fa 38BD     		pop	{r3, r4, r5, pc}
 4120              	.LBE651:
 4121              		.cfi_endproc
 4122              	.LFE332:
 4123              		.size	lv_style_list_copy, .-lv_style_list_copy
 4124              		.section	.text._lv_style_list_add_trans_style,"ax",%progbits
 4125              		.align	2
 4126              		.global	_lv_style_list_add_trans_style
 4127              		.thumb
 4128              		.thumb_func
 4129              		.type	_lv_style_list_add_trans_style, %function
 4130              	_lv_style_list_add_trans_style:
 4131              	.LFB348:
 710:lvgl\src\lv_core/lv_style.c ****     LV_ASSERT_STYLE_LIST(list);
 4132              		.loc 1 710 0
 4133              		.cfi_startproc
 4134              		@ args = 0, pretend = 0, frame = 0
 4135              		@ frame_needed = 0, uses_anonymous_args = 0
 4136              	.LVL619:
 4137 0000 38B5     		push	{r3, r4, r5, lr}
 4138              		.cfi_def_cfa_offset 16
 4139              		.cfi_offset 3, -16
 4140              		.cfi_offset 4, -12
 4141              		.cfi_offset 5, -8
 4142              		.cfi_offset 14, -4
 4143 0002 0546     		mov	r5, r0
 712:lvgl\src\lv_core/lv_style.c **** 
 4144              		.loc 1 712 0
 4145 0004 0379     		ldrb	r3, [r0, #4]	@ zero_extendqisi2
 4146 0006 13F0800F 		tst	r3, #128
 4147 000a 02D0     		beq	.L293
 712:lvgl\src\lv_core/lv_style.c **** 
 4148              		.loc 1 712 0 is_stmt 0 discriminator 1
 4149 000c FFF7FEFF 		bl	_lv_style_list_get_transition_style
 4150              	.LVL620:
ARM GAS  C:\Users\strap\AppData\Local\Temp\cc7bAV43.s 			page 115


 4151 0010 38BD     		pop	{r3, r4, r5, pc}
 4152              	.LVL621:
 4153              	.L293:
 714:lvgl\src\lv_core/lv_style.c ****     LV_ASSERT_MEM(trans_style);
 4154              		.loc 1 714 0 is_stmt 1
 4155 0012 0420     		movs	r0, #4
 4156              	.LVL622:
 4157 0014 FFF7FEFF 		bl	lv_mem_alloc
 4158              	.LVL623:
 4159 0018 0446     		mov	r4, r0
 4160              	.LVL624:
 715:lvgl\src\lv_core/lv_style.c ****     if(trans_style == NULL) {
 4161              		.loc 1 715 0
 4162 001a FFF7FEFF 		bl	lv_debug_check_null
 4163              	.LVL625:
 4164 001e 28B9     		cbnz	r0, .L295
 715:lvgl\src\lv_core/lv_style.c ****     if(trans_style == NULL) {
 4165              		.loc 1 715 0 is_stmt 0 discriminator 1
 4166 0020 2246     		mov	r2, r4
 4167 0022 0023     		movs	r3, #0
 4168 0024 0F48     		ldr	r0, .L300
 4169 0026 FFF7FEFF 		bl	lv_debug_log_error
 4170              	.LVL626:
 4171              	.L296:
 4172 002a FEE7     		b	.L296
 4173              	.L295:
 716:lvgl\src\lv_core/lv_style.c ****         LV_LOG_WARN("lv_style_list_add_trans_style: couldn't create transition style");
 4174              		.loc 1 716 0 is_stmt 1
 4175 002c ACB1     		cbz	r4, .L297
 721:lvgl\src\lv_core/lv_style.c **** 
 4176              		.loc 1 721 0
 4177 002e 2046     		mov	r0, r4
 4178 0030 FFF7FEFF 		bl	lv_style_init
 4179              	.LVL627:
 723:lvgl\src\lv_core/lv_style.c ****     list->has_trans = 1;
 4180              		.loc 1 723 0
 4181 0034 2146     		mov	r1, r4
 4182 0036 2846     		mov	r0, r5
 4183 0038 FFF7FEFF 		bl	_lv_style_list_add_style
 4184              	.LVL628:
 724:lvgl\src\lv_core/lv_style.c **** 
 4185              		.loc 1 724 0
 4186 003c 2B79     		ldrb	r3, [r5, #4]	@ zero_extendqisi2
 4187 003e 43F08003 		orr	r3, r3, #128
 4188 0042 2B71     		strb	r3, [r5, #4]
 727:lvgl\src\lv_core/lv_style.c ****         lv_style_t * tmp = list->style_list[0];
 4189              		.loc 1 727 0
 4190 0044 13F0400F 		tst	r3, #64
 4191 0048 09D0     		beq	.L298
 4192              	.LBB652:
 728:lvgl\src\lv_core/lv_style.c ****         list->style_list[0] = list->style_list[1];
 4193              		.loc 1 728 0
 4194 004a 2B68     		ldr	r3, [r5]
 4195 004c 1A68     		ldr	r2, [r3]
 4196              	.LVL629:
 729:lvgl\src\lv_core/lv_style.c ****         list->style_list[1] = tmp;
 4197              		.loc 1 729 0
ARM GAS  C:\Users\strap\AppData\Local\Temp\cc7bAV43.s 			page 116


 4198 004e 5968     		ldr	r1, [r3, #4]
 4199 0050 1960     		str	r1, [r3]
 730:lvgl\src\lv_core/lv_style.c ****     }
 4200              		.loc 1 730 0
 4201 0052 2B68     		ldr	r3, [r5]
 4202 0054 5A60     		str	r2, [r3, #4]
 4203              	.LBE652:
 732:lvgl\src\lv_core/lv_style.c **** }
 4204              		.loc 1 732 0
 4205 0056 2046     		mov	r0, r4
 4206 0058 38BD     		pop	{r3, r4, r5, pc}
 4207              	.LVL630:
 4208              	.L297:
 718:lvgl\src\lv_core/lv_style.c ****     }
 4209              		.loc 1 718 0
 4210 005a 0020     		movs	r0, #0
 4211 005c 38BD     		pop	{r3, r4, r5, pc}
 4212              	.LVL631:
 4213              	.L298:
 732:lvgl\src\lv_core/lv_style.c **** }
 4214              		.loc 1 732 0
 4215 005e 2046     		mov	r0, r4
 733:lvgl\src\lv_core/lv_style.c **** 
 4216              		.loc 1 733 0
 4217 0060 38BD     		pop	{r3, r4, r5, pc}
 4218              	.LVL632:
 4219              	.L301:
 4220 0062 00BF     		.align	2
 4221              	.L300:
 4222 0064 00000000 		.word	.LC0
 4223              		.cfi_endproc
 4224              	.LFE348:
 4225              		.size	_lv_style_list_add_trans_style, .-_lv_style_list_add_trans_style
 4226              		.section	.text._lv_style_list_set_local_int,"ax",%progbits
 4227              		.align	2
 4228              		.global	_lv_style_list_set_local_int
 4229              		.thumb
 4230              		.thumb_func
 4231              		.type	_lv_style_list_set_local_int, %function
 4232              	_lv_style_list_set_local_int:
 4233              	.LFB349:
 745:lvgl\src\lv_core/lv_style.c ****     LV_ASSERT_STYLE_LIST(list);
 4234              		.loc 1 745 0
 4235              		.cfi_startproc
 4236              		@ args = 0, pretend = 0, frame = 0
 4237              		@ frame_needed = 0, uses_anonymous_args = 0
 4238              	.LVL633:
 4239 0000 38B5     		push	{r3, r4, r5, lr}
 4240              		.cfi_def_cfa_offset 16
 4241              		.cfi_offset 3, -16
 4242              		.cfi_offset 4, -12
 4243              		.cfi_offset 5, -8
 4244              		.cfi_offset 14, -4
 4245 0002 0C46     		mov	r4, r1
 4246 0004 1546     		mov	r5, r2
 748:lvgl\src\lv_core/lv_style.c ****     _lv_style_set_int(local, prop, value);
 4247              		.loc 1 748 0
ARM GAS  C:\Users\strap\AppData\Local\Temp\cc7bAV43.s 			page 117


 4248 0006 FFF7FEFF 		bl	get_alloc_local_style
 4249              	.LVL634:
 749:lvgl\src\lv_core/lv_style.c **** }
 4250              		.loc 1 749 0
 4251 000a 2A46     		mov	r2, r5
 4252 000c 2146     		mov	r1, r4
 4253 000e FFF7FEFF 		bl	_lv_style_set_int
 4254              	.LVL635:
 4255 0012 38BD     		pop	{r3, r4, r5, pc}
 4256              		.cfi_endproc
 4257              	.LFE349:
 4258              		.size	_lv_style_list_set_local_int, .-_lv_style_list_set_local_int
 4259              		.section	.text._lv_style_list_set_local_opa,"ax",%progbits
 4260              		.align	2
 4261              		.global	_lv_style_list_set_local_opa
 4262              		.thumb
 4263              		.thumb_func
 4264              		.type	_lv_style_list_set_local_opa, %function
 4265              	_lv_style_list_set_local_opa:
 4266              	.LFB350:
 761:lvgl\src\lv_core/lv_style.c ****     LV_ASSERT_STYLE_LIST(list);
 4267              		.loc 1 761 0
 4268              		.cfi_startproc
 4269              		@ args = 0, pretend = 0, frame = 0
 4270              		@ frame_needed = 0, uses_anonymous_args = 0
 4271              	.LVL636:
 4272 0000 38B5     		push	{r3, r4, r5, lr}
 4273              		.cfi_def_cfa_offset 16
 4274              		.cfi_offset 3, -16
 4275              		.cfi_offset 4, -12
 4276              		.cfi_offset 5, -8
 4277              		.cfi_offset 14, -4
 4278 0002 0C46     		mov	r4, r1
 4279 0004 1546     		mov	r5, r2
 764:lvgl\src\lv_core/lv_style.c ****     _lv_style_set_opa(local, prop, value);
 4280              		.loc 1 764 0
 4281 0006 FFF7FEFF 		bl	get_alloc_local_style
 4282              	.LVL637:
 765:lvgl\src\lv_core/lv_style.c **** }
 4283              		.loc 1 765 0
 4284 000a 2A46     		mov	r2, r5
 4285 000c 2146     		mov	r1, r4
 4286 000e FFF7FEFF 		bl	_lv_style_set_opa
 4287              	.LVL638:
 4288 0012 38BD     		pop	{r3, r4, r5, pc}
 4289              		.cfi_endproc
 4290              	.LFE350:
 4291              		.size	_lv_style_list_set_local_opa, .-_lv_style_list_set_local_opa
 4292              		.section	.text._lv_style_list_set_local_color,"ax",%progbits
 4293              		.align	2
 4294              		.global	_lv_style_list_set_local_color
 4295              		.thumb
 4296              		.thumb_func
 4297              		.type	_lv_style_list_set_local_color, %function
 4298              	_lv_style_list_set_local_color:
 4299              	.LFB351:
 777:lvgl\src\lv_core/lv_style.c ****     LV_ASSERT_STYLE_LIST(list);
ARM GAS  C:\Users\strap\AppData\Local\Temp\cc7bAV43.s 			page 118


 4300              		.loc 1 777 0
 4301              		.cfi_startproc
 4302              		@ args = 0, pretend = 0, frame = 0
 4303              		@ frame_needed = 0, uses_anonymous_args = 0
 4304              	.LVL639:
 4305 0000 38B5     		push	{r3, r4, r5, lr}
 4306              		.cfi_def_cfa_offset 16
 4307              		.cfi_offset 3, -16
 4308              		.cfi_offset 4, -12
 4309              		.cfi_offset 5, -8
 4310              		.cfi_offset 14, -4
 4311 0002 0C46     		mov	r4, r1
 4312 0004 1546     		mov	r5, r2	@ movhi
 780:lvgl\src\lv_core/lv_style.c ****     _lv_style_set_color(local, prop, value);
 4313              		.loc 1 780 0
 4314 0006 FFF7FEFF 		bl	get_alloc_local_style
 4315              	.LVL640:
 781:lvgl\src\lv_core/lv_style.c **** }
 4316              		.loc 1 781 0
 4317 000a 2A46     		mov	r2, r5	@ movhi
 4318 000c 2146     		mov	r1, r4
 4319 000e FFF7FEFF 		bl	_lv_style_set_color
 4320              	.LVL641:
 4321 0012 38BD     		pop	{r3, r4, r5, pc}
 4322              		.cfi_endproc
 4323              	.LFE351:
 4324              		.size	_lv_style_list_set_local_color, .-_lv_style_list_set_local_color
 4325              		.section	.text._lv_style_list_set_local_ptr,"ax",%progbits
 4326              		.align	2
 4327              		.global	_lv_style_list_set_local_ptr
 4328              		.thumb
 4329              		.thumb_func
 4330              		.type	_lv_style_list_set_local_ptr, %function
 4331              	_lv_style_list_set_local_ptr:
 4332              	.LFB352:
 793:lvgl\src\lv_core/lv_style.c ****     LV_ASSERT_STYLE_LIST(list);
 4333              		.loc 1 793 0
 4334              		.cfi_startproc
 4335              		@ args = 0, pretend = 0, frame = 0
 4336              		@ frame_needed = 0, uses_anonymous_args = 0
 4337              	.LVL642:
 4338 0000 38B5     		push	{r3, r4, r5, lr}
 4339              		.cfi_def_cfa_offset 16
 4340              		.cfi_offset 3, -16
 4341              		.cfi_offset 4, -12
 4342              		.cfi_offset 5, -8
 4343              		.cfi_offset 14, -4
 4344 0002 0C46     		mov	r4, r1
 4345 0004 1546     		mov	r5, r2
 796:lvgl\src\lv_core/lv_style.c ****     _lv_style_set_ptr(local, prop, value);
 4346              		.loc 1 796 0
 4347 0006 FFF7FEFF 		bl	get_alloc_local_style
 4348              	.LVL643:
 797:lvgl\src\lv_core/lv_style.c **** }
 4349              		.loc 1 797 0
 4350 000a 2A46     		mov	r2, r5
 4351 000c 2146     		mov	r1, r4
ARM GAS  C:\Users\strap\AppData\Local\Temp\cc7bAV43.s 			page 119


 4352 000e FFF7FEFF 		bl	_lv_style_set_ptr
 4353              	.LVL644:
 4354 0012 38BD     		pop	{r3, r4, r5, pc}
 4355              		.cfi_endproc
 4356              	.LFE352:
 4357              		.size	_lv_style_list_set_local_ptr, .-_lv_style_list_set_local_ptr
 4358              		.section	.text._lv_style_list_get_int,"ax",%progbits
 4359              		.align	2
 4360              		.global	_lv_style_list_get_int
 4361              		.thumb
 4362              		.thumb_func
 4363              		.type	_lv_style_list_get_int, %function
 4364              	_lv_style_list_get_int:
 4365              	.LFB353:
 814:lvgl\src\lv_core/lv_style.c ****     LV_ASSERT_STYLE_LIST(list);
 4366              		.loc 1 814 0
 4367              		.cfi_startproc
 4368              		@ args = 0, pretend = 0, frame = 8
 4369              		@ frame_needed = 0, uses_anonymous_args = 0
 4370              	.LVL645:
 817:lvgl\src\lv_core/lv_style.c ****     if(list->style_list == NULL) return LV_RES_INV;
 4371              		.loc 1 817 0
 4372 0000 0028     		cmp	r0, #0
 4373 0002 56D0     		beq	.L319
 814:lvgl\src\lv_core/lv_style.c ****     LV_ASSERT_STYLE_LIST(list);
 4374              		.loc 1 814 0
 4375 0004 2DE9F043 		push	{r4, r5, r6, r7, r8, r9, lr}
 4376              		.cfi_def_cfa_offset 28
 4377              		.cfi_offset 4, -28
 4378              		.cfi_offset 5, -24
 4379              		.cfi_offset 6, -20
 4380              		.cfi_offset 7, -16
 4381              		.cfi_offset 8, -12
 4382              		.cfi_offset 9, -8
 4383              		.cfi_offset 14, -4
 4384 0008 83B0     		sub	sp, sp, #12
 4385              		.cfi_def_cfa_offset 40
 4386 000a 0546     		mov	r5, r0
 818:lvgl\src\lv_core/lv_style.c **** 
 4387              		.loc 1 818 0
 4388 000c 0368     		ldr	r3, [r0]
 4389 000e 002B     		cmp	r3, #0
 4390 0010 51D0     		beq	.L320
 4391 0012 9146     		mov	r9, r2
 4392 0014 0F46     		mov	r7, r1
 4393              	.LVL646:
 822:lvgl\src\lv_core/lv_style.c **** 
 4394              		.loc 1 822 0
 4395 0016 4FEA1128 		lsr	r8, r1, #8
 4396              	.LVL647:
 826:lvgl\src\lv_core/lv_style.c **** 
 4397              		.loc 1 826 0
 4398 001a 0024     		movs	r4, #0
 4399 001c ADF80640 		strh	r4, [sp, #6]	@ movhi
 4400              	.LVL648:
 824:lvgl\src\lv_core/lv_style.c **** 
 4401              		.loc 1 824 0
ARM GAS  C:\Users\strap\AppData\Local\Temp\cc7bAV43.s 			page 120


 4402 0020 4FF0FF36 		mov	r6, #-1
 829:lvgl\src\lv_core/lv_style.c ****         /* changed class to _class to allow compilation as c++ */
 4403              		.loc 1 829 0
 4404 0024 3CE0     		b	.L312
 4405              	.LVL649:
 4406              	.L318:
 4407              	.LBB653:
 831:lvgl\src\lv_core/lv_style.c ****         int16_t weight_act = _lv_style_get_int(_class, prop, &value_act);
 4408              		.loc 1 831 0
 4409 0026 E1B2     		uxtb	r1, r4
 4410              	.LVL650:
 4411              	.LBB654:
 4412              	.LBB655:
 313:lvgl\src\lv_core/lv_style.h ****     if(list->style_cnt == 0 || id >= list->style_cnt) return NULL;
 4413              		.loc 2 313 0
 4414 0028 AA88     		ldrh	r2, [r5, #4]
 4415 002a 02F4C072 		and	r2, r2, #384
 4416 002e B2F5C07F 		cmp	r2, #384
 4417 0032 01D1     		bne	.L313
 4418 0034 0131     		adds	r1, r1, #1
 4419              	.LVL651:
 4420 0036 C9B2     		uxtb	r1, r1
 4421              	.LVL652:
 4422              	.L313:
 314:lvgl\src\lv_core/lv_style.h ****     return list->style_list[id];
 4423              		.loc 2 314 0
 4424 0038 2A79     		ldrb	r2, [r5, #4]	@ zero_extendqisi2
 4425 003a 12F03F0F 		tst	r2, #63
 4426 003e 05D0     		beq	.L321
 4427 0040 8B42     		cmp	r3, r1
 4428 0042 05DD     		ble	.L322
 4429              		.loc 2 315 0
 4430 0044 2B68     		ldr	r3, [r5]
 4431 0046 53F82100 		ldr	r0, [r3, r1, lsl #2]
 4432 004a 02E0     		b	.L314
 4433              	.L321:
 314:lvgl\src\lv_core/lv_style.h ****     return list->style_list[id];
 4434              		.loc 2 314 0
 4435 004c 0020     		movs	r0, #0
 4436 004e 00E0     		b	.L314
 4437              	.L322:
 4438 0050 0020     		movs	r0, #0
 4439              	.L314:
 4440              	.LVL653:
 4441              	.LBE655:
 4442              	.LBE654:
 832:lvgl\src\lv_core/lv_style.c **** 
 4443              		.loc 1 832 0
 4444 0052 0DF10602 		add	r2, sp, #6
 4445 0056 3946     		mov	r1, r7
 4446 0058 FFF7FEFF 		bl	_lv_style_get_int
 4447              	.LVL654:
 835:lvgl\src\lv_core/lv_style.c ****             *res = value_act;
 4448              		.loc 1 835 0
 4449 005c 8045     		cmp	r8, r0
 4450 005e 05D1     		bne	.L315
 836:lvgl\src\lv_core/lv_style.c ****             return LV_RES_OK;
ARM GAS  C:\Users\strap\AppData\Local\Temp\cc7bAV43.s 			page 121


 4451              		.loc 1 836 0
 4452 0060 BDF90630 		ldrsh	r3, [sp, #6]
 4453 0064 A9F80030 		strh	r3, [r9]	@ movhi
 837:lvgl\src\lv_core/lv_style.c ****         }
 4454              		.loc 1 837 0
 4455 0068 0120     		movs	r0, #1
 4456              	.LVL655:
 4457 006a 27E0     		b	.L311
 4458              	.LVL656:
 4459              	.L315:
 839:lvgl\src\lv_core/lv_style.c ****             *res = value_act;
 4460              		.loc 1 839 0
 4461 006c 2B79     		ldrb	r3, [r5, #4]	@ zero_extendqisi2
 4462 006e 13F0800F 		tst	r3, #128
 4463 0072 0CD0     		beq	.L316
 839:lvgl\src\lv_core/lv_style.c ****             *res = value_act;
 4464              		.loc 1 839 0 is_stmt 0 discriminator 1
 4465 0074 0028     		cmp	r0, #0
 4466 0076 0ADB     		blt	.L316
 839:lvgl\src\lv_core/lv_style.c ****             *res = value_act;
 4467              		.loc 1 839 0 discriminator 2
 4468 0078 4CB9     		cbnz	r4, .L316
 839:lvgl\src\lv_core/lv_style.c ****             *res = value_act;
 4469              		.loc 1 839 0 discriminator 3
 4470 007a 6B79     		ldrb	r3, [r5, #5]	@ zero_extendqisi2
 4471 007c 13F0010F 		tst	r3, #1
 4472 0080 05D1     		bne	.L316
 840:lvgl\src\lv_core/lv_style.c ****             return LV_RES_OK;
 4473              		.loc 1 840 0 is_stmt 1
 4474 0082 BDF90630 		ldrsh	r3, [sp, #6]
 4475 0086 A9F80030 		strh	r3, [r9]	@ movhi
 841:lvgl\src\lv_core/lv_style.c ****         }
 4476              		.loc 1 841 0
 4477 008a 0120     		movs	r0, #1
 4478              	.LVL657:
 4479 008c 16E0     		b	.L311
 4480              	.LVL658:
 4481              	.L316:
 844:lvgl\src\lv_core/lv_style.c ****             weight =  weight_act;
 4482              		.loc 1 844 0
 4483 008e 8642     		cmp	r6, r0
 4484 0090 04DA     		bge	.L317
 4485              	.LVL659:
 846:lvgl\src\lv_core/lv_style.c ****         }
 4486              		.loc 1 846 0
 4487 0092 BDF90630 		ldrsh	r3, [sp, #6]
 4488 0096 A9F80030 		strh	r3, [r9]	@ movhi
 845:lvgl\src\lv_core/lv_style.c ****             *res = value_act;
 4489              		.loc 1 845 0
 4490 009a 0646     		mov	r6, r0
 4491              	.LVL660:
 4492              	.L317:
 4493              	.LBE653:
 829:lvgl\src\lv_core/lv_style.c ****         /* changed class to _class to allow compilation as c++ */
 4494              		.loc 1 829 0 discriminator 2
 4495 009c 0134     		adds	r4, r4, #1
 4496              	.LVL661:
ARM GAS  C:\Users\strap\AppData\Local\Temp\cc7bAV43.s 			page 122


 4497 009e 24B2     		sxth	r4, r4
 4498              	.LVL662:
 4499              	.L312:
 829:lvgl\src\lv_core/lv_style.c ****         /* changed class to _class to allow compilation as c++ */
 4500              		.loc 1 829 0 is_stmt 0 discriminator 1
 4501 00a0 2B79     		ldrb	r3, [r5, #4]	@ zero_extendqisi2
 4502 00a2 03F03F03 		and	r3, r3, #63
 4503 00a6 9C42     		cmp	r4, r3
 4504 00a8 BDDB     		blt	.L318
 850:lvgl\src\lv_core/lv_style.c ****     else return LV_RES_INV;
 4505              		.loc 1 850 0 is_stmt 1
 4506 00aa 002E     		cmp	r6, #0
 4507 00ac 05DB     		blt	.L323
 4508 00ae 0120     		movs	r0, #1
 4509 00b0 04E0     		b	.L311
 4510              	.LVL663:
 4511              	.L319:
 4512              		.cfi_def_cfa_offset 0
 4513              		.cfi_restore 4
 4514              		.cfi_restore 5
 4515              		.cfi_restore 6
 4516              		.cfi_restore 7
 4517              		.cfi_restore 8
 4518              		.cfi_restore 9
 4519              		.cfi_restore 14
 817:lvgl\src\lv_core/lv_style.c ****     if(list->style_list == NULL) return LV_RES_INV;
 4520              		.loc 1 817 0
 4521 00b2 0020     		movs	r0, #0
 4522              	.LVL664:
 853:lvgl\src\lv_core/lv_style.c **** 
 4523              		.loc 1 853 0
 4524 00b4 7047     		bx	lr
 4525              	.LVL665:
 4526              	.L320:
 4527              		.cfi_def_cfa_offset 40
 4528              		.cfi_offset 4, -28
 4529              		.cfi_offset 5, -24
 4530              		.cfi_offset 6, -20
 4531              		.cfi_offset 7, -16
 4532              		.cfi_offset 8, -12
 4533              		.cfi_offset 9, -8
 4534              		.cfi_offset 14, -4
 818:lvgl\src\lv_core/lv_style.c **** 
 4535              		.loc 1 818 0
 4536 00b6 0020     		movs	r0, #0
 4537              	.LVL666:
 4538 00b8 00E0     		b	.L311
 4539              	.LVL667:
 4540              	.L323:
 851:lvgl\src\lv_core/lv_style.c **** 
 4541              		.loc 1 851 0
 4542 00ba 0020     		movs	r0, #0
 4543              	.LVL668:
 4544              	.L311:
 853:lvgl\src\lv_core/lv_style.c **** 
 4545              		.loc 1 853 0
 4546 00bc 03B0     		add	sp, sp, #12
ARM GAS  C:\Users\strap\AppData\Local\Temp\cc7bAV43.s 			page 123


 4547              		.cfi_def_cfa_offset 28
 4548              		@ sp needed
 4549 00be BDE8F083 		pop	{r4, r5, r6, r7, r8, r9, pc}
 4550              		.cfi_endproc
 4551              	.LFE353:
 4552              		.size	_lv_style_list_get_int, .-_lv_style_list_get_int
 4553 00c2 00BF     		.section	.text._lv_style_list_get_color,"ax",%progbits
 4554              		.align	2
 4555              		.global	_lv_style_list_get_color
 4556              		.thumb
 4557              		.thumb_func
 4558              		.type	_lv_style_list_get_color, %function
 4559              	_lv_style_list_get_color:
 4560              	.LFB354:
 867:lvgl\src\lv_core/lv_style.c ****     LV_ASSERT_STYLE_LIST(list);
 4561              		.loc 1 867 0
 4562              		.cfi_startproc
 4563              		@ args = 0, pretend = 0, frame = 8
 4564              		@ frame_needed = 0, uses_anonymous_args = 0
 4565              	.LVL669:
 870:lvgl\src\lv_core/lv_style.c ****     if(list->style_list == NULL) return LV_RES_INV;
 4566              		.loc 1 870 0
 4567 0000 0028     		cmp	r0, #0
 4568 0002 55D0     		beq	.L334
 867:lvgl\src\lv_core/lv_style.c ****     LV_ASSERT_STYLE_LIST(list);
 4569              		.loc 1 867 0
 4570 0004 2DE9F043 		push	{r4, r5, r6, r7, r8, r9, lr}
 4571              		.cfi_def_cfa_offset 28
 4572              		.cfi_offset 4, -28
 4573              		.cfi_offset 5, -24
 4574              		.cfi_offset 6, -20
 4575              		.cfi_offset 7, -16
 4576              		.cfi_offset 8, -12
 4577              		.cfi_offset 9, -8
 4578              		.cfi_offset 14, -4
 4579 0008 83B0     		sub	sp, sp, #12
 4580              		.cfi_def_cfa_offset 40
 4581 000a 0546     		mov	r5, r0
 871:lvgl\src\lv_core/lv_style.c **** 
 4582              		.loc 1 871 0
 4583 000c 0368     		ldr	r3, [r0]
 4584 000e 002B     		cmp	r3, #0
 4585 0010 50D0     		beq	.L335
 4586 0012 9146     		mov	r9, r2
 4587 0014 0F46     		mov	r7, r1
 4588              	.LVL670:
 875:lvgl\src\lv_core/lv_style.c **** 
 4589              		.loc 1 875 0
 4590 0016 4FEA1128 		lsr	r8, r1, #8
 4591              	.LVL671:
 880:lvgl\src\lv_core/lv_style.c **** 
 4592              		.loc 1 880 0
 4593 001a 0024     		movs	r4, #0
 4594 001c ADF80440 		strh	r4, [sp, #4]	@ movhi
 4595              	.LVL672:
 877:lvgl\src\lv_core/lv_style.c **** 
 4596              		.loc 1 877 0
ARM GAS  C:\Users\strap\AppData\Local\Temp\cc7bAV43.s 			page 124


 4597 0020 4FF0FF36 		mov	r6, #-1
 883:lvgl\src\lv_core/lv_style.c ****         lv_style_t * _class = lv_style_list_get_style(list, ci);
 4598              		.loc 1 883 0
 4599 0024 3BE0     		b	.L327
 4600              	.LVL673:
 4601              	.L333:
 4602              	.LBB656:
 884:lvgl\src\lv_core/lv_style.c ****         int16_t weight_act = _lv_style_get_color(_class, prop, &value_act);
 4603              		.loc 1 884 0
 4604 0026 E1B2     		uxtb	r1, r4
 4605              	.LVL674:
 4606              	.LBB657:
 4607              	.LBB658:
 313:lvgl\src\lv_core/lv_style.h ****     if(list->style_cnt == 0 || id >= list->style_cnt) return NULL;
 4608              		.loc 2 313 0
 4609 0028 AA88     		ldrh	r2, [r5, #4]
 4610 002a 02F4C072 		and	r2, r2, #384
 4611 002e B2F5C07F 		cmp	r2, #384
 4612 0032 01D1     		bne	.L328
 4613 0034 0131     		adds	r1, r1, #1
 4614              	.LVL675:
 4615 0036 C9B2     		uxtb	r1, r1
 4616              	.LVL676:
 4617              	.L328:
 314:lvgl\src\lv_core/lv_style.h ****     return list->style_list[id];
 4618              		.loc 2 314 0
 4619 0038 2A79     		ldrb	r2, [r5, #4]	@ zero_extendqisi2
 4620 003a 12F03F0F 		tst	r2, #63
 4621 003e 05D0     		beq	.L336
 4622 0040 8B42     		cmp	r3, r1
 4623 0042 05DD     		ble	.L337
 4624              		.loc 2 315 0
 4625 0044 2B68     		ldr	r3, [r5]
 4626 0046 53F82100 		ldr	r0, [r3, r1, lsl #2]
 4627 004a 02E0     		b	.L329
 4628              	.L336:
 314:lvgl\src\lv_core/lv_style.h ****     return list->style_list[id];
 4629              		.loc 2 314 0
 4630 004c 0020     		movs	r0, #0
 4631 004e 00E0     		b	.L329
 4632              	.L337:
 4633 0050 0020     		movs	r0, #0
 4634              	.L329:
 4635              	.LVL677:
 4636              	.LBE658:
 4637              	.LBE657:
 885:lvgl\src\lv_core/lv_style.c ****         /*On perfect match return the value immediately*/
 4638              		.loc 1 885 0
 4639 0052 01AA     		add	r2, sp, #4
 4640 0054 3946     		mov	r1, r7
 4641 0056 FFF7FEFF 		bl	_lv_style_get_color
 4642              	.LVL678:
 887:lvgl\src\lv_core/lv_style.c ****             *res = value_act;
 4643              		.loc 1 887 0
 4644 005a 8045     		cmp	r8, r0
 4645 005c 05D1     		bne	.L330
 888:lvgl\src\lv_core/lv_style.c ****             return LV_RES_OK;
ARM GAS  C:\Users\strap\AppData\Local\Temp\cc7bAV43.s 			page 125


 4646              		.loc 1 888 0
 4647 005e BDF80430 		ldrh	r3, [sp, #4]
 4648 0062 A9F80030 		strh	r3, [r9]	@ movhi
 889:lvgl\src\lv_core/lv_style.c ****         }
 4649              		.loc 1 889 0
 4650 0066 0120     		movs	r0, #1
 4651              	.LVL679:
 4652 0068 27E0     		b	.L326
 4653              	.LVL680:
 4654              	.L330:
 891:lvgl\src\lv_core/lv_style.c ****             *res = value_act;
 4655              		.loc 1 891 0
 4656 006a 2B79     		ldrb	r3, [r5, #4]	@ zero_extendqisi2
 4657 006c 13F0800F 		tst	r3, #128
 4658 0070 0CD0     		beq	.L331
 891:lvgl\src\lv_core/lv_style.c ****             *res = value_act;
 4659              		.loc 1 891 0 is_stmt 0 discriminator 1
 4660 0072 0028     		cmp	r0, #0
 4661 0074 0ADB     		blt	.L331
 891:lvgl\src\lv_core/lv_style.c ****             *res = value_act;
 4662              		.loc 1 891 0 discriminator 2
 4663 0076 4CB9     		cbnz	r4, .L331
 891:lvgl\src\lv_core/lv_style.c ****             *res = value_act;
 4664              		.loc 1 891 0 discriminator 3
 4665 0078 6B79     		ldrb	r3, [r5, #5]	@ zero_extendqisi2
 4666 007a 13F0010F 		tst	r3, #1
 4667 007e 05D1     		bne	.L331
 892:lvgl\src\lv_core/lv_style.c ****             return LV_RES_OK;
 4668              		.loc 1 892 0 is_stmt 1
 4669 0080 BDF80430 		ldrh	r3, [sp, #4]
 4670 0084 A9F80030 		strh	r3, [r9]	@ movhi
 893:lvgl\src\lv_core/lv_style.c ****         }
 4671              		.loc 1 893 0
 4672 0088 0120     		movs	r0, #1
 4673              	.LVL681:
 4674 008a 16E0     		b	.L326
 4675              	.LVL682:
 4676              	.L331:
 896:lvgl\src\lv_core/lv_style.c ****             weight =  weight_act;
 4677              		.loc 1 896 0
 4678 008c 8642     		cmp	r6, r0
 4679 008e 04DA     		bge	.L332
 4680              	.LVL683:
 898:lvgl\src\lv_core/lv_style.c ****         }
 4681              		.loc 1 898 0
 4682 0090 BDF80430 		ldrh	r3, [sp, #4]
 4683 0094 A9F80030 		strh	r3, [r9]	@ movhi
 897:lvgl\src\lv_core/lv_style.c ****             *res = value_act;
 4684              		.loc 1 897 0
 4685 0098 0646     		mov	r6, r0
 4686              	.LVL684:
 4687              	.L332:
 4688              	.LBE656:
 883:lvgl\src\lv_core/lv_style.c ****         lv_style_t * _class = lv_style_list_get_style(list, ci);
 4689              		.loc 1 883 0 discriminator 2
 4690 009a 0134     		adds	r4, r4, #1
 4691              	.LVL685:
ARM GAS  C:\Users\strap\AppData\Local\Temp\cc7bAV43.s 			page 126


 4692 009c 24B2     		sxth	r4, r4
 4693              	.LVL686:
 4694              	.L327:
 883:lvgl\src\lv_core/lv_style.c ****         lv_style_t * _class = lv_style_list_get_style(list, ci);
 4695              		.loc 1 883 0 is_stmt 0 discriminator 1
 4696 009e 2B79     		ldrb	r3, [r5, #4]	@ zero_extendqisi2
 4697 00a0 03F03F03 		and	r3, r3, #63
 4698 00a4 9C42     		cmp	r4, r3
 4699 00a6 BEDB     		blt	.L333
 902:lvgl\src\lv_core/lv_style.c ****     else return LV_RES_INV;
 4700              		.loc 1 902 0 is_stmt 1
 4701 00a8 002E     		cmp	r6, #0
 4702 00aa 05DB     		blt	.L338
 4703 00ac 0120     		movs	r0, #1
 4704 00ae 04E0     		b	.L326
 4705              	.LVL687:
 4706              	.L334:
 4707              		.cfi_def_cfa_offset 0
 4708              		.cfi_restore 4
 4709              		.cfi_restore 5
 4710              		.cfi_restore 6
 4711              		.cfi_restore 7
 4712              		.cfi_restore 8
 4713              		.cfi_restore 9
 4714              		.cfi_restore 14
 870:lvgl\src\lv_core/lv_style.c ****     if(list->style_list == NULL) return LV_RES_INV;
 4715              		.loc 1 870 0
 4716 00b0 0020     		movs	r0, #0
 4717              	.LVL688:
 904:lvgl\src\lv_core/lv_style.c **** 
 4718              		.loc 1 904 0
 4719 00b2 7047     		bx	lr
 4720              	.LVL689:
 4721              	.L335:
 4722              		.cfi_def_cfa_offset 40
 4723              		.cfi_offset 4, -28
 4724              		.cfi_offset 5, -24
 4725              		.cfi_offset 6, -20
 4726              		.cfi_offset 7, -16
 4727              		.cfi_offset 8, -12
 4728              		.cfi_offset 9, -8
 4729              		.cfi_offset 14, -4
 871:lvgl\src\lv_core/lv_style.c **** 
 4730              		.loc 1 871 0
 4731 00b4 0020     		movs	r0, #0
 4732              	.LVL690:
 4733 00b6 00E0     		b	.L326
 4734              	.LVL691:
 4735              	.L338:
 903:lvgl\src\lv_core/lv_style.c **** }
 4736              		.loc 1 903 0
 4737 00b8 0020     		movs	r0, #0
 4738              	.LVL692:
 4739              	.L326:
 904:lvgl\src\lv_core/lv_style.c **** 
 4740              		.loc 1 904 0
 4741 00ba 03B0     		add	sp, sp, #12
ARM GAS  C:\Users\strap\AppData\Local\Temp\cc7bAV43.s 			page 127


 4742              		.cfi_def_cfa_offset 28
 4743              		@ sp needed
 4744 00bc BDE8F083 		pop	{r4, r5, r6, r7, r8, r9, pc}
 4745              		.cfi_endproc
 4746              	.LFE354:
 4747              		.size	_lv_style_list_get_color, .-_lv_style_list_get_color
 4748              		.section	.text._lv_style_list_get_opa,"ax",%progbits
 4749              		.align	2
 4750              		.global	_lv_style_list_get_opa
 4751              		.thumb
 4752              		.thumb_func
 4753              		.type	_lv_style_list_get_opa, %function
 4754              	_lv_style_list_get_opa:
 4755              	.LFB355:
 918:lvgl\src\lv_core/lv_style.c ****     LV_ASSERT_STYLE_LIST(list);
 4756              		.loc 1 918 0
 4757              		.cfi_startproc
 4758              		@ args = 0, pretend = 0, frame = 8
 4759              		@ frame_needed = 0, uses_anonymous_args = 0
 4760              	.LVL693:
 921:lvgl\src\lv_core/lv_style.c ****     if(list->style_list == NULL) return LV_RES_INV;
 4761              		.loc 1 921 0
 4762 0000 0028     		cmp	r0, #0
 4763 0002 56D0     		beq	.L349
 918:lvgl\src\lv_core/lv_style.c ****     LV_ASSERT_STYLE_LIST(list);
 4764              		.loc 1 918 0
 4765 0004 2DE9F043 		push	{r4, r5, r6, r7, r8, r9, lr}
 4766              		.cfi_def_cfa_offset 28
 4767              		.cfi_offset 4, -28
 4768              		.cfi_offset 5, -24
 4769              		.cfi_offset 6, -20
 4770              		.cfi_offset 7, -16
 4771              		.cfi_offset 8, -12
 4772              		.cfi_offset 9, -8
 4773              		.cfi_offset 14, -4
 4774 0008 83B0     		sub	sp, sp, #12
 4775              		.cfi_def_cfa_offset 40
 4776 000a 0546     		mov	r5, r0
 922:lvgl\src\lv_core/lv_style.c **** 
 4777              		.loc 1 922 0
 4778 000c 0368     		ldr	r3, [r0]
 4779 000e 002B     		cmp	r3, #0
 4780 0010 51D0     		beq	.L350
 4781 0012 9146     		mov	r9, r2
 4782 0014 0F46     		mov	r7, r1
 4783              	.LVL694:
 926:lvgl\src\lv_core/lv_style.c **** 
 4784              		.loc 1 926 0
 4785 0016 4FEA1128 		lsr	r8, r1, #8
 4786              	.LVL695:
 930:lvgl\src\lv_core/lv_style.c **** 
 4787              		.loc 1 930 0
 4788 001a 0024     		movs	r4, #0
 4789 001c 8DF80740 		strb	r4, [sp, #7]
 4790              	.LVL696:
 928:lvgl\src\lv_core/lv_style.c **** 
 4791              		.loc 1 928 0
ARM GAS  C:\Users\strap\AppData\Local\Temp\cc7bAV43.s 			page 128


 4792 0020 4FF0FF36 		mov	r6, #-1
 933:lvgl\src\lv_core/lv_style.c ****         lv_style_t * _class = lv_style_list_get_style(list, ci);
 4793              		.loc 1 933 0
 4794 0024 3CE0     		b	.L342
 4795              	.LVL697:
 4796              	.L348:
 4797              	.LBB659:
 934:lvgl\src\lv_core/lv_style.c ****         int16_t weight_act = _lv_style_get_opa(_class, prop, &value_act);
 4798              		.loc 1 934 0
 4799 0026 E1B2     		uxtb	r1, r4
 4800              	.LVL698:
 4801              	.LBB660:
 4802              	.LBB661:
 313:lvgl\src\lv_core/lv_style.h ****     if(list->style_cnt == 0 || id >= list->style_cnt) return NULL;
 4803              		.loc 2 313 0
 4804 0028 AA88     		ldrh	r2, [r5, #4]
 4805 002a 02F4C072 		and	r2, r2, #384
 4806 002e B2F5C07F 		cmp	r2, #384
 4807 0032 01D1     		bne	.L343
 4808 0034 0131     		adds	r1, r1, #1
 4809              	.LVL699:
 4810 0036 C9B2     		uxtb	r1, r1
 4811              	.LVL700:
 4812              	.L343:
 314:lvgl\src\lv_core/lv_style.h ****     return list->style_list[id];
 4813              		.loc 2 314 0
 4814 0038 2A79     		ldrb	r2, [r5, #4]	@ zero_extendqisi2
 4815 003a 12F03F0F 		tst	r2, #63
 4816 003e 05D0     		beq	.L351
 4817 0040 8B42     		cmp	r3, r1
 4818 0042 05DD     		ble	.L352
 4819              		.loc 2 315 0
 4820 0044 2B68     		ldr	r3, [r5]
 4821 0046 53F82100 		ldr	r0, [r3, r1, lsl #2]
 4822 004a 02E0     		b	.L344
 4823              	.L351:
 314:lvgl\src\lv_core/lv_style.h ****     return list->style_list[id];
 4824              		.loc 2 314 0
 4825 004c 0020     		movs	r0, #0
 4826 004e 00E0     		b	.L344
 4827              	.L352:
 4828 0050 0020     		movs	r0, #0
 4829              	.L344:
 4830              	.LVL701:
 4831              	.LBE661:
 4832              	.LBE660:
 935:lvgl\src\lv_core/lv_style.c ****         /*On perfect match return the value immediately*/
 4833              		.loc 1 935 0
 4834 0052 0DF10702 		add	r2, sp, #7
 4835 0056 3946     		mov	r1, r7
 4836 0058 FFF7FEFF 		bl	_lv_style_get_opa
 4837              	.LVL702:
 937:lvgl\src\lv_core/lv_style.c ****             *res = value_act;
 4838              		.loc 1 937 0
 4839 005c 8045     		cmp	r8, r0
 4840 005e 05D1     		bne	.L345
 938:lvgl\src\lv_core/lv_style.c ****             return LV_RES_OK;
ARM GAS  C:\Users\strap\AppData\Local\Temp\cc7bAV43.s 			page 129


 4841              		.loc 1 938 0
 4842 0060 9DF80730 		ldrb	r3, [sp, #7]	@ zero_extendqisi2
 4843 0064 89F80030 		strb	r3, [r9]
 939:lvgl\src\lv_core/lv_style.c ****         }
 4844              		.loc 1 939 0
 4845 0068 0120     		movs	r0, #1
 4846              	.LVL703:
 4847 006a 27E0     		b	.L341
 4848              	.LVL704:
 4849              	.L345:
 941:lvgl\src\lv_core/lv_style.c ****             *res = value_act;
 4850              		.loc 1 941 0
 4851 006c 2B79     		ldrb	r3, [r5, #4]	@ zero_extendqisi2
 4852 006e 13F0800F 		tst	r3, #128
 4853 0072 0CD0     		beq	.L346
 941:lvgl\src\lv_core/lv_style.c ****             *res = value_act;
 4854              		.loc 1 941 0 is_stmt 0 discriminator 1
 4855 0074 0028     		cmp	r0, #0
 4856 0076 0ADB     		blt	.L346
 941:lvgl\src\lv_core/lv_style.c ****             *res = value_act;
 4857              		.loc 1 941 0 discriminator 2
 4858 0078 4CB9     		cbnz	r4, .L346
 941:lvgl\src\lv_core/lv_style.c ****             *res = value_act;
 4859              		.loc 1 941 0 discriminator 3
 4860 007a 6B79     		ldrb	r3, [r5, #5]	@ zero_extendqisi2
 4861 007c 13F0010F 		tst	r3, #1
 4862 0080 05D1     		bne	.L346
 942:lvgl\src\lv_core/lv_style.c ****             return LV_RES_OK;
 4863              		.loc 1 942 0 is_stmt 1
 4864 0082 9DF80730 		ldrb	r3, [sp, #7]	@ zero_extendqisi2
 4865 0086 89F80030 		strb	r3, [r9]
 943:lvgl\src\lv_core/lv_style.c ****         }
 4866              		.loc 1 943 0
 4867 008a 0120     		movs	r0, #1
 4868              	.LVL705:
 4869 008c 16E0     		b	.L341
 4870              	.LVL706:
 4871              	.L346:
 946:lvgl\src\lv_core/lv_style.c ****             weight =  weight_act;
 4872              		.loc 1 946 0
 4873 008e 8642     		cmp	r6, r0
 4874 0090 04DA     		bge	.L347
 4875              	.LVL707:
 948:lvgl\src\lv_core/lv_style.c ****         }
 4876              		.loc 1 948 0
 4877 0092 9DF80730 		ldrb	r3, [sp, #7]	@ zero_extendqisi2
 4878 0096 89F80030 		strb	r3, [r9]
 947:lvgl\src\lv_core/lv_style.c ****             *res = value_act;
 4879              		.loc 1 947 0
 4880 009a 0646     		mov	r6, r0
 4881              	.LVL708:
 4882              	.L347:
 4883              	.LBE659:
 933:lvgl\src\lv_core/lv_style.c ****         lv_style_t * _class = lv_style_list_get_style(list, ci);
 4884              		.loc 1 933 0 discriminator 2
 4885 009c 0134     		adds	r4, r4, #1
 4886              	.LVL709:
ARM GAS  C:\Users\strap\AppData\Local\Temp\cc7bAV43.s 			page 130


 4887 009e 24B2     		sxth	r4, r4
 4888              	.LVL710:
 4889              	.L342:
 933:lvgl\src\lv_core/lv_style.c ****         lv_style_t * _class = lv_style_list_get_style(list, ci);
 4890              		.loc 1 933 0 is_stmt 0 discriminator 1
 4891 00a0 2B79     		ldrb	r3, [r5, #4]	@ zero_extendqisi2
 4892 00a2 03F03F03 		and	r3, r3, #63
 4893 00a6 9C42     		cmp	r4, r3
 4894 00a8 BDDB     		blt	.L348
 952:lvgl\src\lv_core/lv_style.c ****     else return LV_RES_INV;
 4895              		.loc 1 952 0 is_stmt 1
 4896 00aa 002E     		cmp	r6, #0
 4897 00ac 05DB     		blt	.L353
 4898 00ae 0120     		movs	r0, #1
 4899 00b0 04E0     		b	.L341
 4900              	.LVL711:
 4901              	.L349:
 4902              		.cfi_def_cfa_offset 0
 4903              		.cfi_restore 4
 4904              		.cfi_restore 5
 4905              		.cfi_restore 6
 4906              		.cfi_restore 7
 4907              		.cfi_restore 8
 4908              		.cfi_restore 9
 4909              		.cfi_restore 14
 921:lvgl\src\lv_core/lv_style.c ****     if(list->style_list == NULL) return LV_RES_INV;
 4910              		.loc 1 921 0
 4911 00b2 0020     		movs	r0, #0
 4912              	.LVL712:
 954:lvgl\src\lv_core/lv_style.c **** 
 4913              		.loc 1 954 0
 4914 00b4 7047     		bx	lr
 4915              	.LVL713:
 4916              	.L350:
 4917              		.cfi_def_cfa_offset 40
 4918              		.cfi_offset 4, -28
 4919              		.cfi_offset 5, -24
 4920              		.cfi_offset 6, -20
 4921              		.cfi_offset 7, -16
 4922              		.cfi_offset 8, -12
 4923              		.cfi_offset 9, -8
 4924              		.cfi_offset 14, -4
 922:lvgl\src\lv_core/lv_style.c **** 
 4925              		.loc 1 922 0
 4926 00b6 0020     		movs	r0, #0
 4927              	.LVL714:
 4928 00b8 00E0     		b	.L341
 4929              	.LVL715:
 4930              	.L353:
 953:lvgl\src\lv_core/lv_style.c **** }
 4931              		.loc 1 953 0
 4932 00ba 0020     		movs	r0, #0
 4933              	.LVL716:
 4934              	.L341:
 954:lvgl\src\lv_core/lv_style.c **** 
 4935              		.loc 1 954 0
 4936 00bc 03B0     		add	sp, sp, #12
ARM GAS  C:\Users\strap\AppData\Local\Temp\cc7bAV43.s 			page 131


 4937              		.cfi_def_cfa_offset 28
 4938              		@ sp needed
 4939 00be BDE8F083 		pop	{r4, r5, r6, r7, r8, r9, pc}
 4940              		.cfi_endproc
 4941              	.LFE355:
 4942              		.size	_lv_style_list_get_opa, .-_lv_style_list_get_opa
 4943 00c2 00BF     		.section	.text._lv_style_list_get_ptr,"ax",%progbits
 4944              		.align	2
 4945              		.global	_lv_style_list_get_ptr
 4946              		.thumb
 4947              		.thumb_func
 4948              		.type	_lv_style_list_get_ptr, %function
 4949              	_lv_style_list_get_ptr:
 4950              	.LFB356:
 968:lvgl\src\lv_core/lv_style.c ****     LV_ASSERT_STYLE_LIST(list);
 4951              		.loc 1 968 0
 4952              		.cfi_startproc
 4953              		@ args = 0, pretend = 0, frame = 8
 4954              		@ frame_needed = 0, uses_anonymous_args = 0
 4955              	.LVL717:
 971:lvgl\src\lv_core/lv_style.c ****     if(list->style_list == NULL) return LV_RES_INV;
 4956              		.loc 1 971 0
 4957 0000 0028     		cmp	r0, #0
 4958 0002 50D0     		beq	.L364
 968:lvgl\src\lv_core/lv_style.c ****     LV_ASSERT_STYLE_LIST(list);
 4959              		.loc 1 968 0
 4960 0004 2DE9F043 		push	{r4, r5, r6, r7, r8, r9, lr}
 4961              		.cfi_def_cfa_offset 28
 4962              		.cfi_offset 4, -28
 4963              		.cfi_offset 5, -24
 4964              		.cfi_offset 6, -20
 4965              		.cfi_offset 7, -16
 4966              		.cfi_offset 8, -12
 4967              		.cfi_offset 9, -8
 4968              		.cfi_offset 14, -4
 4969 0008 83B0     		sub	sp, sp, #12
 4970              		.cfi_def_cfa_offset 40
 4971 000a 0546     		mov	r5, r0
 972:lvgl\src\lv_core/lv_style.c **** 
 4972              		.loc 1 972 0
 4973 000c 0368     		ldr	r3, [r0]
 4974 000e 002B     		cmp	r3, #0
 4975 0010 4BD0     		beq	.L365
 4976 0012 9146     		mov	r9, r2
 4977 0014 0F46     		mov	r7, r1
 4978              	.LVL718:
 976:lvgl\src\lv_core/lv_style.c **** 
 4979              		.loc 1 976 0
 4980 0016 4FEA1128 		lsr	r8, r1, #8
 4981              	.LVL719:
 983:lvgl\src\lv_core/lv_style.c ****         lv_style_t * _class = lv_style_list_get_style(list, ci);
 4982              		.loc 1 983 0
 4983 001a 0024     		movs	r4, #0
 978:lvgl\src\lv_core/lv_style.c **** 
 4984              		.loc 1 978 0
 4985 001c 4FF0FF36 		mov	r6, #-1
 983:lvgl\src\lv_core/lv_style.c ****         lv_style_t * _class = lv_style_list_get_style(list, ci);
ARM GAS  C:\Users\strap\AppData\Local\Temp\cc7bAV43.s 			page 132


 4986              		.loc 1 983 0
 4987 0020 38E0     		b	.L357
 4988              	.LVL720:
 4989              	.L363:
 4990              	.LBB662:
 984:lvgl\src\lv_core/lv_style.c ****         int16_t weight_act = _lv_style_get_ptr(_class, prop, &value_act);
 4991              		.loc 1 984 0
 4992 0022 E1B2     		uxtb	r1, r4
 4993              	.LVL721:
 4994              	.LBB663:
 4995              	.LBB664:
 313:lvgl\src\lv_core/lv_style.h ****     if(list->style_cnt == 0 || id >= list->style_cnt) return NULL;
 4996              		.loc 2 313 0
 4997 0024 AA88     		ldrh	r2, [r5, #4]
 4998 0026 02F4C072 		and	r2, r2, #384
 4999 002a B2F5C07F 		cmp	r2, #384
 5000 002e 01D1     		bne	.L358
 5001 0030 0131     		adds	r1, r1, #1
 5002              	.LVL722:
 5003 0032 C9B2     		uxtb	r1, r1
 5004              	.LVL723:
 5005              	.L358:
 314:lvgl\src\lv_core/lv_style.h ****     return list->style_list[id];
 5006              		.loc 2 314 0
 5007 0034 2A79     		ldrb	r2, [r5, #4]	@ zero_extendqisi2
 5008 0036 12F03F0F 		tst	r2, #63
 5009 003a 05D0     		beq	.L366
 5010 003c 8B42     		cmp	r3, r1
 5011 003e 05DD     		ble	.L367
 5012              		.loc 2 315 0
 5013 0040 2B68     		ldr	r3, [r5]
 5014 0042 53F82100 		ldr	r0, [r3, r1, lsl #2]
 5015 0046 02E0     		b	.L359
 5016              	.L366:
 314:lvgl\src\lv_core/lv_style.h ****     return list->style_list[id];
 5017              		.loc 2 314 0
 5018 0048 0020     		movs	r0, #0
 5019 004a 00E0     		b	.L359
 5020              	.L367:
 5021 004c 0020     		movs	r0, #0
 5022              	.L359:
 5023              	.LVL724:
 5024              	.LBE664:
 5025              	.LBE663:
 985:lvgl\src\lv_core/lv_style.c ****         /*On perfect match return the value immediately*/
 5026              		.loc 1 985 0
 5027 004e 01AA     		add	r2, sp, #4
 5028 0050 3946     		mov	r1, r7
 5029 0052 FFF7FEFF 		bl	_lv_style_get_ptr
 5030              	.LVL725:
 987:lvgl\src\lv_core/lv_style.c ****             *res = value_act;
 5031              		.loc 1 987 0
 5032 0056 8045     		cmp	r8, r0
 5033 0058 04D1     		bne	.L360
 988:lvgl\src\lv_core/lv_style.c ****             return LV_RES_OK;
 5034              		.loc 1 988 0
 5035 005a 019B     		ldr	r3, [sp, #4]
ARM GAS  C:\Users\strap\AppData\Local\Temp\cc7bAV43.s 			page 133


 5036 005c C9F80030 		str	r3, [r9]
 989:lvgl\src\lv_core/lv_style.c ****         }
 5037              		.loc 1 989 0
 5038 0060 0120     		movs	r0, #1
 5039              	.LVL726:
 5040 0062 25E0     		b	.L356
 5041              	.LVL727:
 5042              	.L360:
 991:lvgl\src\lv_core/lv_style.c ****             *res = value_act;
 5043              		.loc 1 991 0
 5044 0064 2B79     		ldrb	r3, [r5, #4]	@ zero_extendqisi2
 5045 0066 13F0800F 		tst	r3, #128
 5046 006a 0BD0     		beq	.L361
 991:lvgl\src\lv_core/lv_style.c ****             *res = value_act;
 5047              		.loc 1 991 0 is_stmt 0 discriminator 1
 5048 006c 0028     		cmp	r0, #0
 5049 006e 09DB     		blt	.L361
 991:lvgl\src\lv_core/lv_style.c ****             *res = value_act;
 5050              		.loc 1 991 0 discriminator 2
 5051 0070 44B9     		cbnz	r4, .L361
 991:lvgl\src\lv_core/lv_style.c ****             *res = value_act;
 5052              		.loc 1 991 0 discriminator 3
 5053 0072 6B79     		ldrb	r3, [r5, #5]	@ zero_extendqisi2
 5054 0074 13F0010F 		tst	r3, #1
 5055 0078 04D1     		bne	.L361
 992:lvgl\src\lv_core/lv_style.c ****             return LV_RES_OK;
 5056              		.loc 1 992 0 is_stmt 1
 5057 007a 019B     		ldr	r3, [sp, #4]
 5058 007c C9F80030 		str	r3, [r9]
 993:lvgl\src\lv_core/lv_style.c ****         }
 5059              		.loc 1 993 0
 5060 0080 0120     		movs	r0, #1
 5061              	.LVL728:
 5062 0082 15E0     		b	.L356
 5063              	.LVL729:
 5064              	.L361:
 996:lvgl\src\lv_core/lv_style.c ****             weight =  weight_act;
 5065              		.loc 1 996 0
 5066 0084 8642     		cmp	r6, r0
 5067 0086 03DA     		bge	.L362
 5068              	.LVL730:
 998:lvgl\src\lv_core/lv_style.c ****         }
 5069              		.loc 1 998 0
 5070 0088 019B     		ldr	r3, [sp, #4]
 5071 008a C9F80030 		str	r3, [r9]
 997:lvgl\src\lv_core/lv_style.c ****             *res = value_act;
 5072              		.loc 1 997 0
 5073 008e 0646     		mov	r6, r0
 5074              	.LVL731:
 5075              	.L362:
 5076              	.LBE662:
 983:lvgl\src\lv_core/lv_style.c ****         lv_style_t * _class = lv_style_list_get_style(list, ci);
 5077              		.loc 1 983 0 discriminator 2
 5078 0090 0134     		adds	r4, r4, #1
 5079              	.LVL732:
 5080 0092 24B2     		sxth	r4, r4
 5081              	.LVL733:
ARM GAS  C:\Users\strap\AppData\Local\Temp\cc7bAV43.s 			page 134


 5082              	.L357:
 983:lvgl\src\lv_core/lv_style.c ****         lv_style_t * _class = lv_style_list_get_style(list, ci);
 5083              		.loc 1 983 0 is_stmt 0 discriminator 1
 5084 0094 2B79     		ldrb	r3, [r5, #4]	@ zero_extendqisi2
 5085 0096 03F03F03 		and	r3, r3, #63
 5086 009a 9C42     		cmp	r4, r3
 5087 009c C1DB     		blt	.L363
1002:lvgl\src\lv_core/lv_style.c ****     else return LV_RES_INV;
 5088              		.loc 1 1002 0 is_stmt 1
 5089 009e 002E     		cmp	r6, #0
 5090 00a0 05DB     		blt	.L368
 5091 00a2 0120     		movs	r0, #1
 5092 00a4 04E0     		b	.L356
 5093              	.LVL734:
 5094              	.L364:
 5095              		.cfi_def_cfa_offset 0
 5096              		.cfi_restore 4
 5097              		.cfi_restore 5
 5098              		.cfi_restore 6
 5099              		.cfi_restore 7
 5100              		.cfi_restore 8
 5101              		.cfi_restore 9
 5102              		.cfi_restore 14
 971:lvgl\src\lv_core/lv_style.c ****     if(list->style_list == NULL) return LV_RES_INV;
 5103              		.loc 1 971 0
 5104 00a6 0020     		movs	r0, #0
 5105              	.LVL735:
1004:lvgl\src\lv_core/lv_style.c **** 
 5106              		.loc 1 1004 0
 5107 00a8 7047     		bx	lr
 5108              	.LVL736:
 5109              	.L365:
 5110              		.cfi_def_cfa_offset 40
 5111              		.cfi_offset 4, -28
 5112              		.cfi_offset 5, -24
 5113              		.cfi_offset 6, -20
 5114              		.cfi_offset 7, -16
 5115              		.cfi_offset 8, -12
 5116              		.cfi_offset 9, -8
 5117              		.cfi_offset 14, -4
 972:lvgl\src\lv_core/lv_style.c **** 
 5118              		.loc 1 972 0
 5119 00aa 0020     		movs	r0, #0
 5120              	.LVL737:
 5121 00ac 00E0     		b	.L356
 5122              	.LVL738:
 5123              	.L368:
1003:lvgl\src\lv_core/lv_style.c **** }
 5124              		.loc 1 1003 0
 5125 00ae 0020     		movs	r0, #0
 5126              	.LVL739:
 5127              	.L356:
1004:lvgl\src\lv_core/lv_style.c **** 
 5128              		.loc 1 1004 0
 5129 00b0 03B0     		add	sp, sp, #12
 5130              		.cfi_def_cfa_offset 28
 5131              		@ sp needed
ARM GAS  C:\Users\strap\AppData\Local\Temp\cc7bAV43.s 			page 135


 5132 00b2 BDE8F083 		pop	{r4, r5, r6, r7, r8, r9, pc}
 5133              		.cfi_endproc
 5134              	.LFE356:
 5135              		.size	_lv_style_list_get_ptr, .-_lv_style_list_get_ptr
 5136 00b6 00BF     		.section	.text.lv_debug_check_style,"ax",%progbits
 5137              		.align	2
 5138              		.global	lv_debug_check_style
 5139              		.thumb
 5140              		.thumb_func
 5141              		.type	lv_debug_check_style, %function
 5142              	lv_debug_check_style:
 5143              	.LFB357:
1012:lvgl\src\lv_core/lv_style.c ****     if(style == NULL) return true;  /*NULL style is still valid*/
 5144              		.loc 1 1012 0
 5145              		.cfi_startproc
 5146              		@ args = 0, pretend = 0, frame = 0
 5147              		@ frame_needed = 0, uses_anonymous_args = 0
 5148              		@ link register save eliminated.
 5149              	.LVL740:
1023:lvgl\src\lv_core/lv_style.c **** 
 5150              		.loc 1 1023 0
 5151 0000 0120     		movs	r0, #1
 5152              	.LVL741:
 5153 0002 7047     		bx	lr
 5154              		.cfi_endproc
 5155              	.LFE357:
 5156              		.size	lv_debug_check_style, .-lv_debug_check_style
 5157              		.section	.text.lv_debug_check_style_list,"ax",%progbits
 5158              		.align	2
 5159              		.global	lv_debug_check_style_list
 5160              		.thumb
 5161              		.thumb_func
 5162              		.type	lv_debug_check_style_list, %function
 5163              	lv_debug_check_style_list:
 5164              	.LFB358:
1031:lvgl\src\lv_core/lv_style.c ****     if(list == NULL) return true;  /*NULL list is still valid*/
 5165              		.loc 1 1031 0
 5166              		.cfi_startproc
 5167              		@ args = 0, pretend = 0, frame = 0
 5168              		@ frame_needed = 0, uses_anonymous_args = 0
 5169              		@ link register save eliminated.
 5170              	.LVL742:
1042:lvgl\src\lv_core/lv_style.c **** 
 5171              		.loc 1 1042 0
 5172 0000 0120     		movs	r0, #1
 5173              	.LVL743:
 5174 0002 7047     		bx	lr
 5175              		.cfi_endproc
 5176              	.LFE358:
 5177              		.size	lv_debug_check_style_list, .-lv_debug_check_style_list
 5178              		.section	.rodata.str1.4,"aMS",%progbits,1
 5179              		.align	2
 5180              	.LC0:
 5181 0000 4F757420 		.ascii	"Out of memory\000"
 5181      6F66206D 
 5181      656D6F72 
 5181      7900
ARM GAS  C:\Users\strap\AppData\Local\Temp\cc7bAV43.s 			page 136


 5182              		.text
 5183              	.Letext0:
 5184              		.file 4 "c:\\program files (x86)\\cypress\\psoc creator\\4.4\\psoc creator\\import\\gnu\\arm\\5.4.
 5185              		.file 5 "c:\\program files (x86)\\cypress\\psoc creator\\4.4\\psoc creator\\import\\gnu\\arm\\5.4.
 5186              		.file 6 "c:\\program files (x86)\\cypress\\psoc creator\\4.4\\psoc creator\\import\\gnu\\arm\\5.4.
 5187              		.file 7 "lvgl\\src\\lv_core\\../lv_font/../lv_misc/lv_types.h"
 5188              		.file 8 "lvgl\\src\\lv_core\\../lv_misc/lv_color.h"
 5189              		.file 9 "lvgl\\src\\lv_core\\../lv_misc/lv_debug.h"
 5190              		.section	.debug_info,"",%progbits
 5191              	.Ldebug_info0:
 5192 0000 F5320000 		.4byte	0x32f5
 5193 0004 0400     		.2byte	0x4
 5194 0006 00000000 		.4byte	.Ldebug_abbrev0
 5195 000a 04       		.byte	0x4
 5196 000b 01       		.uleb128 0x1
 5197 000c 07070000 		.4byte	.LASF167
 5198 0010 0C       		.byte	0xc
 5199 0011 3C090000 		.4byte	.LASF168
 5200 0015 44050000 		.4byte	.LASF169
 5201 0019 80010000 		.4byte	.Ldebug_ranges0+0x180
 5202 001d 00000000 		.4byte	0
 5203 0021 00000000 		.4byte	.Ldebug_line0
 5204 0025 02       		.uleb128 0x2
 5205 0026 01       		.byte	0x1
 5206 0027 06       		.byte	0x6
 5207 0028 F5000000 		.4byte	.LASF0
 5208 002c 03       		.uleb128 0x3
 5209 002d 81000000 		.4byte	.LASF2
 5210 0031 04       		.byte	0x4
 5211 0032 1D       		.byte	0x1d
 5212 0033 37000000 		.4byte	0x37
 5213 0037 02       		.uleb128 0x2
 5214 0038 01       		.byte	0x1
 5215 0039 08       		.byte	0x8
 5216 003a 6A060000 		.4byte	.LASF1
 5217 003e 03       		.uleb128 0x3
 5218 003f 6E020000 		.4byte	.LASF3
 5219 0043 04       		.byte	0x4
 5220 0044 29       		.byte	0x29
 5221 0045 49000000 		.4byte	0x49
 5222 0049 02       		.uleb128 0x2
 5223 004a 02       		.byte	0x2
 5224 004b 05       		.byte	0x5
 5225 004c 8D060000 		.4byte	.LASF4
 5226 0050 03       		.uleb128 0x3
 5227 0051 25080000 		.4byte	.LASF5
 5228 0055 04       		.byte	0x4
 5229 0056 2B       		.byte	0x2b
 5230 0057 5B000000 		.4byte	0x5b
 5231 005b 02       		.uleb128 0x2
 5232 005c 02       		.byte	0x2
 5233 005d 07       		.byte	0x7
 5234 005e 6B030000 		.4byte	.LASF6
 5235 0062 03       		.uleb128 0x3
 5236 0063 6E080000 		.4byte	.LASF7
 5237 0067 04       		.byte	0x4
 5238 0068 3F       		.byte	0x3f
ARM GAS  C:\Users\strap\AppData\Local\Temp\cc7bAV43.s 			page 137


 5239 0069 6D000000 		.4byte	0x6d
 5240 006d 02       		.uleb128 0x2
 5241 006e 04       		.byte	0x4
 5242 006f 05       		.byte	0x5
 5243 0070 A4010000 		.4byte	.LASF8
 5244 0074 03       		.uleb128 0x3
 5245 0075 59020000 		.4byte	.LASF9
 5246 0079 04       		.byte	0x4
 5247 007a 41       		.byte	0x41
 5248 007b 7F000000 		.4byte	0x7f
 5249 007f 02       		.uleb128 0x2
 5250 0080 04       		.byte	0x4
 5251 0081 07       		.byte	0x7
 5252 0082 01030000 		.4byte	.LASF10
 5253 0086 02       		.uleb128 0x2
 5254 0087 08       		.byte	0x8
 5255 0088 05       		.byte	0x5
 5256 0089 E7000000 		.4byte	.LASF11
 5257 008d 03       		.uleb128 0x3
 5258 008e C6050000 		.4byte	.LASF12
 5259 0092 04       		.byte	0x4
 5260 0093 5B       		.byte	0x5b
 5261 0094 98000000 		.4byte	0x98
 5262 0098 02       		.uleb128 0x2
 5263 0099 08       		.byte	0x8
 5264 009a 07       		.byte	0x7
 5265 009b B4000000 		.4byte	.LASF13
 5266 009f 04       		.uleb128 0x4
 5267 00a0 04       		.byte	0x4
 5268 00a1 05       		.byte	0x5
 5269 00a2 696E7400 		.ascii	"int\000"
 5270 00a6 03       		.uleb128 0x3
 5271 00a7 E7060000 		.4byte	.LASF14
 5272 00ab 04       		.byte	0x4
 5273 00ac CA       		.byte	0xca
 5274 00ad B1000000 		.4byte	0xb1
 5275 00b1 02       		.uleb128 0x2
 5276 00b2 04       		.byte	0x4
 5277 00b3 07       		.byte	0x7
 5278 00b4 B7020000 		.4byte	.LASF15
 5279 00b8 03       		.uleb128 0x3
 5280 00b9 58090000 		.4byte	.LASF16
 5281 00bd 05       		.byte	0x5
 5282 00be 18       		.byte	0x18
 5283 00bf 2C000000 		.4byte	0x2c
 5284 00c3 03       		.uleb128 0x3
 5285 00c4 DF000000 		.4byte	.LASF17
 5286 00c8 05       		.byte	0x5
 5287 00c9 20       		.byte	0x20
 5288 00ca 3E000000 		.4byte	0x3e
 5289 00ce 03       		.uleb128 0x3
 5290 00cf CC020000 		.4byte	.LASF18
 5291 00d3 05       		.byte	0x5
 5292 00d4 24       		.byte	0x24
 5293 00d5 50000000 		.4byte	0x50
 5294 00d9 03       		.uleb128 0x3
 5295 00da 62060000 		.4byte	.LASF19
ARM GAS  C:\Users\strap\AppData\Local\Temp\cc7bAV43.s 			page 138


 5296 00de 05       		.byte	0x5
 5297 00df 2C       		.byte	0x2c
 5298 00e0 62000000 		.4byte	0x62
 5299 00e4 03       		.uleb128 0x3
 5300 00e5 050A0000 		.4byte	.LASF20
 5301 00e9 05       		.byte	0x5
 5302 00ea 30       		.byte	0x30
 5303 00eb 74000000 		.4byte	0x74
 5304 00ef 03       		.uleb128 0x3
 5305 00f0 67000000 		.4byte	.LASF21
 5306 00f4 05       		.byte	0x5
 5307 00f5 3C       		.byte	0x3c
 5308 00f6 8D000000 		.4byte	0x8d
 5309 00fa 03       		.uleb128 0x3
 5310 00fb 5D000000 		.4byte	.LASF22
 5311 00ff 05       		.byte	0x5
 5312 0100 48       		.byte	0x48
 5313 0101 A6000000 		.4byte	0xa6
 5314 0105 05       		.uleb128 0x5
 5315 0106 04       		.byte	0x4
 5316 0107 03       		.uleb128 0x3
 5317 0108 56000000 		.4byte	.LASF23
 5318 010c 06       		.byte	0x6
 5319 010d D8       		.byte	0xd8
 5320 010e B1000000 		.4byte	0xb1
 5321 0112 02       		.uleb128 0x2
 5322 0113 08       		.byte	0x8
 5323 0114 04       		.byte	0x4
 5324 0115 F9040000 		.4byte	.LASF24
 5325 0119 02       		.uleb128 0x2
 5326 011a 04       		.byte	0x4
 5327 011b 07       		.byte	0x7
 5328 011c BB040000 		.4byte	.LASF25
 5329 0120 02       		.uleb128 0x2
 5330 0121 01       		.byte	0x1
 5331 0122 08       		.byte	0x8
 5332 0123 F5070000 		.4byte	.LASF26
 5333 0127 06       		.uleb128 0x6
 5334 0128 01       		.byte	0x1
 5335 0129 37000000 		.4byte	0x37
 5336 012d 07       		.byte	0x7
 5337 012e 2F       		.byte	0x2f
 5338 012f 40010000 		.4byte	0x140
 5339 0133 07       		.uleb128 0x7
 5340 0134 CB000000 		.4byte	.LASF27
 5341 0138 00       		.byte	0
 5342 0139 07       		.uleb128 0x7
 5343 013a 1A050000 		.4byte	.LASF28
 5344 013e 01       		.byte	0x1
 5345 013f 00       		.byte	0
 5346 0140 03       		.uleb128 0x3
 5347 0141 78020000 		.4byte	.LASF29
 5348 0145 07       		.byte	0x7
 5349 0146 34       		.byte	0x34
 5350 0147 B8000000 		.4byte	0xb8
 5351 014b 02       		.uleb128 0x2
 5352 014c 01       		.byte	0x1
ARM GAS  C:\Users\strap\AppData\Local\Temp\cc7bAV43.s 			page 139


 5353 014d 02       		.byte	0x2
 5354 014e 5C060000 		.4byte	.LASF30
 5355 0152 08       		.uleb128 0x8
 5356 0153 04       		.byte	0x4
 5357 0154 58010000 		.4byte	0x158
 5358 0158 09       		.uleb128 0x9
 5359 0159 B8000000 		.4byte	0xb8
 5360 015d 06       		.uleb128 0x6
 5361 015e 01       		.byte	0x1
 5362 015f 37000000 		.4byte	0x37
 5363 0163 08       		.byte	0x8
 5364 0164 3B       		.byte	0x3b
 5365 0165 B8010000 		.4byte	0x1b8
 5366 0169 07       		.uleb128 0x7
 5367 016a 24050000 		.4byte	.LASF31
 5368 016e 00       		.byte	0
 5369 016f 07       		.uleb128 0x7
 5370 0170 60090000 		.4byte	.LASF32
 5371 0174 00       		.byte	0
 5372 0175 07       		.uleb128 0x7
 5373 0176 42060000 		.4byte	.LASF33
 5374 017a 19       		.byte	0x19
 5375 017b 07       		.uleb128 0x7
 5376 017c 14080000 		.4byte	.LASF34
 5377 0180 33       		.byte	0x33
 5378 0181 07       		.uleb128 0x7
 5379 0182 32010000 		.4byte	.LASF35
 5380 0186 4C       		.byte	0x4c
 5381 0187 07       		.uleb128 0x7
 5382 0188 84050000 		.4byte	.LASF36
 5383 018c 66       		.byte	0x66
 5384 018d 07       		.uleb128 0x7
 5385 018e 23010000 		.4byte	.LASF37
 5386 0192 7F       		.byte	0x7f
 5387 0193 07       		.uleb128 0x7
 5388 0194 64020000 		.4byte	.LASF38
 5389 0198 99       		.byte	0x99
 5390 0199 07       		.uleb128 0x7
 5391 019a F8030000 		.4byte	.LASF39
 5392 019e B2       		.byte	0xb2
 5393 019f 07       		.uleb128 0x7
 5394 01a0 F7020000 		.4byte	.LASF40
 5395 01a4 CC       		.byte	0xcc
 5396 01a5 07       		.uleb128 0x7
 5397 01a6 F6050000 		.4byte	.LASF41
 5398 01aa E5       		.byte	0xe5
 5399 01ab 07       		.uleb128 0x7
 5400 01ac 83080000 		.4byte	.LASF42
 5401 01b0 FF       		.byte	0xff
 5402 01b1 07       		.uleb128 0x7
 5403 01b2 19020000 		.4byte	.LASF43
 5404 01b6 FF       		.byte	0xff
 5405 01b7 00       		.byte	0
 5406 01b8 0A       		.uleb128 0xa
 5407 01b9 02       		.byte	0x2
 5408 01ba 08       		.byte	0x8
 5409 01bb EA       		.byte	0xea
ARM GAS  C:\Users\strap\AppData\Local\Temp\cc7bAV43.s 			page 140


 5410 01bc FD010000 		.4byte	0x1fd
 5411 01c0 0B       		.uleb128 0xb
 5412 01c1 EE050000 		.4byte	.LASF44
 5413 01c5 08       		.byte	0x8
 5414 01c6 F0       		.byte	0xf0
 5415 01c7 CE000000 		.4byte	0xce
 5416 01cb 02       		.byte	0x2
 5417 01cc 03       		.byte	0x3
 5418 01cd 0D       		.byte	0xd
 5419 01ce 00       		.byte	0
 5420 01cf 0C       		.uleb128 0xc
 5421 01d0 72656400 		.ascii	"red\000"
 5422 01d4 08       		.byte	0x8
 5423 01d5 F1       		.byte	0xf1
 5424 01d6 CE000000 		.4byte	0xce
 5425 01da 02       		.byte	0x2
 5426 01db 05       		.byte	0x5
 5427 01dc 08       		.byte	0x8
 5428 01dd 00       		.byte	0
 5429 01de 0B       		.uleb128 0xb
 5430 01df EA070000 		.4byte	.LASF45
 5431 01e3 08       		.byte	0x8
 5432 01e4 F2       		.byte	0xf2
 5433 01e5 CE000000 		.4byte	0xce
 5434 01e9 02       		.byte	0x2
 5435 01ea 05       		.byte	0x5
 5436 01eb 03       		.byte	0x3
 5437 01ec 00       		.byte	0
 5438 01ed 0B       		.uleb128 0xb
 5439 01ee C4020000 		.4byte	.LASF46
 5440 01f2 08       		.byte	0x8
 5441 01f3 F3       		.byte	0xf3
 5442 01f4 CE000000 		.4byte	0xce
 5443 01f8 02       		.byte	0x2
 5444 01f9 03       		.byte	0x3
 5445 01fa 00       		.byte	0
 5446 01fb 00       		.byte	0
 5447 01fc 00       		.byte	0
 5448 01fd 0D       		.uleb128 0xd
 5449 01fe 02       		.byte	0x2
 5450 01ff 08       		.byte	0x8
 5451 0200 E9       		.byte	0xe9
 5452 0201 1B020000 		.4byte	0x21b
 5453 0205 0E       		.uleb128 0xe
 5454 0206 636800   		.ascii	"ch\000"
 5455 0209 08       		.byte	0x8
 5456 020a F5       		.byte	0xf5
 5457 020b B8010000 		.4byte	0x1b8
 5458 020f 0F       		.uleb128 0xf
 5459 0210 15050000 		.4byte	.LASF47
 5460 0214 08       		.byte	0x8
 5461 0215 F6       		.byte	0xf6
 5462 0216 CE000000 		.4byte	0xce
 5463 021a 00       		.byte	0
 5464 021b 03       		.uleb128 0x3
 5465 021c 13060000 		.4byte	.LASF48
 5466 0220 08       		.byte	0x8
ARM GAS  C:\Users\strap\AppData\Local\Temp\cc7bAV43.s 			page 141


 5467 0221 F7       		.byte	0xf7
 5468 0222 FD010000 		.4byte	0x1fd
 5469 0226 10       		.uleb128 0x10
 5470 0227 78080000 		.4byte	.LASF49
 5471 022b 08       		.byte	0x8
 5472 022c 0D01     		.2byte	0x10d
 5473 022e 1B020000 		.4byte	0x21b
 5474 0232 10       		.uleb128 0x10
 5475 0233 2F040000 		.4byte	.LASF50
 5476 0237 08       		.byte	0x8
 5477 0238 2001     		.2byte	0x120
 5478 023a B8000000 		.4byte	0xb8
 5479 023e 08       		.uleb128 0x8
 5480 023f 04       		.byte	0x4
 5481 0240 32020000 		.4byte	0x232
 5482 0244 03       		.uleb128 0x3
 5483 0245 4C060000 		.4byte	.LASF51
 5484 0249 02       		.byte	0x2
 5485 024a 54       		.byte	0x54
 5486 024b B8000000 		.4byte	0xb8
 5487 024f 03       		.uleb128 0x3
 5488 0250 0F010000 		.4byte	.LASF52
 5489 0254 02       		.byte	0x2
 5490 0255 CB       		.byte	0xcb
 5491 0256 CE000000 		.4byte	0xce
 5492 025a 0A       		.uleb128 0xa
 5493 025b 04       		.byte	0x4
 5494 025c 02       		.byte	0x2
 5495 025d D3       		.byte	0xd3
 5496 025e 6F020000 		.4byte	0x26f
 5497 0262 11       		.uleb128 0x11
 5498 0263 6D617000 		.ascii	"map\000"
 5499 0267 02       		.byte	0x2
 5500 0268 D4       		.byte	0xd4
 5501 0269 6F020000 		.4byte	0x26f
 5502 026d 00       		.byte	0
 5503 026e 00       		.byte	0
 5504 026f 08       		.uleb128 0x8
 5505 0270 04       		.byte	0x4
 5506 0271 B8000000 		.4byte	0xb8
 5507 0275 03       		.uleb128 0x3
 5508 0276 78060000 		.4byte	.LASF53
 5509 027a 02       		.byte	0x2
 5510 027b D8       		.byte	0xd8
 5511 027c 5A020000 		.4byte	0x25a
 5512 0280 03       		.uleb128 0x3
 5513 0281 A9070000 		.4byte	.LASF54
 5514 0285 02       		.byte	0x2
 5515 0286 DA       		.byte	0xda
 5516 0287 C3000000 		.4byte	0xc3
 5517 028b 0A       		.uleb128 0xa
 5518 028c 08       		.byte	0x8
 5519 028d 02       		.byte	0x2
 5520 028e DC       		.byte	0xdc
 5521 028f 35040000 		.4byte	0x435
 5522 0293 12       		.uleb128 0x12
 5523 0294 D4070000 		.4byte	.LASF55
ARM GAS  C:\Users\strap\AppData\Local\Temp\cc7bAV43.s 			page 142


 5524 0298 02       		.byte	0x2
 5525 0299 DD       		.byte	0xdd
 5526 029a 35040000 		.4byte	0x435
 5527 029e 00       		.byte	0
 5528 029f 0B       		.uleb128 0xb
 5529 02a0 54010000 		.4byte	.LASF56
 5530 02a4 02       		.byte	0x2
 5531 02a5 E1       		.byte	0xe1
 5532 02a6 E4000000 		.4byte	0xe4
 5533 02aa 04       		.byte	0x4
 5534 02ab 06       		.byte	0x6
 5535 02ac 1A       		.byte	0x1a
 5536 02ad 04       		.byte	0x4
 5537 02ae 0B       		.uleb128 0xb
 5538 02af CD030000 		.4byte	.LASF57
 5539 02b3 02       		.byte	0x2
 5540 02b4 E2       		.byte	0xe2
 5541 02b5 E4000000 		.4byte	0xe4
 5542 02b9 04       		.byte	0x4
 5543 02ba 01       		.byte	0x1
 5544 02bb 19       		.byte	0x19
 5545 02bc 04       		.byte	0x4
 5546 02bd 0B       		.uleb128 0xb
 5547 02be 83010000 		.4byte	.LASF58
 5548 02c2 02       		.byte	0x2
 5549 02c3 E3       		.byte	0xe3
 5550 02c4 E4000000 		.4byte	0xe4
 5551 02c8 04       		.byte	0x4
 5552 02c9 01       		.byte	0x1
 5553 02ca 18       		.byte	0x18
 5554 02cb 04       		.byte	0x4
 5555 02cc 0B       		.uleb128 0xb
 5556 02cd FA090000 		.4byte	.LASF59
 5557 02d1 02       		.byte	0x2
 5558 02d2 E4       		.byte	0xe4
 5559 02d3 E4000000 		.4byte	0xe4
 5560 02d7 04       		.byte	0x4
 5561 02d8 01       		.byte	0x1
 5562 02d9 17       		.byte	0x17
 5563 02da 04       		.byte	0x4
 5564 02db 0B       		.uleb128 0xb
 5565 02dc 49040000 		.4byte	.LASF60
 5566 02e0 02       		.byte	0x2
 5567 02e1 E5       		.byte	0xe5
 5568 02e2 E4000000 		.4byte	0xe4
 5569 02e6 04       		.byte	0x4
 5570 02e7 01       		.byte	0x1
 5571 02e8 16       		.byte	0x16
 5572 02e9 04       		.byte	0x4
 5573 02ea 0B       		.uleb128 0xb
 5574 02eb C8070000 		.4byte	.LASF61
 5575 02ef 02       		.byte	0x2
 5576 02f0 E6       		.byte	0xe6
 5577 02f1 E4000000 		.4byte	0xe4
 5578 02f5 04       		.byte	0x4
 5579 02f6 01       		.byte	0x1
 5580 02f7 15       		.byte	0x15
ARM GAS  C:\Users\strap\AppData\Local\Temp\cc7bAV43.s 			page 143


 5581 02f8 04       		.byte	0x4
 5582 02f9 0B       		.uleb128 0xb
 5583 02fa 56040000 		.4byte	.LASF62
 5584 02fe 02       		.byte	0x2
 5585 02ff E7       		.byte	0xe7
 5586 0300 E4000000 		.4byte	0xe4
 5587 0304 04       		.byte	0x4
 5588 0305 01       		.byte	0x1
 5589 0306 14       		.byte	0x14
 5590 0307 04       		.byte	0x4
 5591 0308 0B       		.uleb128 0xb
 5592 0309 AB020000 		.4byte	.LASF63
 5593 030d 02       		.byte	0x2
 5594 030e E9       		.byte	0xe9
 5595 030f E4000000 		.4byte	0xe4
 5596 0313 04       		.byte	0x4
 5597 0314 01       		.byte	0x1
 5598 0315 13       		.byte	0x13
 5599 0316 04       		.byte	0x4
 5600 0317 0B       		.uleb128 0xb
 5601 0318 B8070000 		.4byte	.LASF64
 5602 031c 02       		.byte	0x2
 5603 031d EA       		.byte	0xea
 5604 031e E4000000 		.4byte	0xe4
 5605 0322 04       		.byte	0x4
 5606 0323 01       		.byte	0x1
 5607 0324 12       		.byte	0x12
 5608 0325 04       		.byte	0x4
 5609 0326 0B       		.uleb128 0xb
 5610 0327 8E030000 		.4byte	.LASF65
 5611 032b 02       		.byte	0x2
 5612 032c EB       		.byte	0xeb
 5613 032d E4000000 		.4byte	0xe4
 5614 0331 04       		.byte	0x4
 5615 0332 01       		.byte	0x1
 5616 0333 11       		.byte	0x11
 5617 0334 04       		.byte	0x4
 5618 0335 0B       		.uleb128 0xb
 5619 0336 DA040000 		.4byte	.LASF66
 5620 033a 02       		.byte	0x2
 5621 033b EC       		.byte	0xec
 5622 033c E4000000 		.4byte	0xe4
 5623 0340 04       		.byte	0x4
 5624 0341 01       		.byte	0x1
 5625 0342 10       		.byte	0x10
 5626 0343 04       		.byte	0x4
 5627 0344 0B       		.uleb128 0xb
 5628 0345 C2090000 		.4byte	.LASF67
 5629 0349 02       		.byte	0x2
 5630 034a ED       		.byte	0xed
 5631 034b E4000000 		.4byte	0xe4
 5632 034f 04       		.byte	0x4
 5633 0350 01       		.byte	0x1
 5634 0351 0F       		.byte	0xf
 5635 0352 04       		.byte	0x4
 5636 0353 0B       		.uleb128 0xb
 5637 0354 05050000 		.4byte	.LASF68
ARM GAS  C:\Users\strap\AppData\Local\Temp\cc7bAV43.s 			page 144


 5638 0358 02       		.byte	0x2
 5639 0359 EE       		.byte	0xee
 5640 035a E4000000 		.4byte	0xe4
 5641 035e 04       		.byte	0x4
 5642 035f 01       		.byte	0x1
 5643 0360 0E       		.byte	0xe
 5644 0361 04       		.byte	0x4
 5645 0362 0B       		.uleb128 0xb
 5646 0363 C4040000 		.4byte	.LASF69
 5647 0367 02       		.byte	0x2
 5648 0368 EF       		.byte	0xef
 5649 0369 E4000000 		.4byte	0xe4
 5650 036d 04       		.byte	0x4
 5651 036e 01       		.byte	0x1
 5652 036f 0D       		.byte	0xd
 5653 0370 04       		.byte	0x4
 5654 0371 0B       		.uleb128 0xb
 5655 0372 E1010000 		.4byte	.LASF70
 5656 0376 02       		.byte	0x2
 5657 0377 F0       		.byte	0xf0
 5658 0378 E4000000 		.4byte	0xe4
 5659 037c 04       		.byte	0x4
 5660 037d 01       		.byte	0x1
 5661 037e 0C       		.byte	0xc
 5662 037f 04       		.byte	0x4
 5663 0380 0B       		.uleb128 0xb
 5664 0381 3E030000 		.4byte	.LASF71
 5665 0385 02       		.byte	0x2
 5666 0386 F1       		.byte	0xf1
 5667 0387 E4000000 		.4byte	0xe4
 5668 038b 04       		.byte	0x4
 5669 038c 01       		.byte	0x1
 5670 038d 0B       		.byte	0xb
 5671 038e 04       		.byte	0x4
 5672 038f 0B       		.uleb128 0xb
 5673 0390 BB030000 		.4byte	.LASF72
 5674 0394 02       		.byte	0x2
 5675 0395 F3       		.byte	0xf3
 5676 0396 E4000000 		.4byte	0xe4
 5677 039a 04       		.byte	0x4
 5678 039b 01       		.byte	0x1
 5679 039c 0A       		.byte	0xa
 5680 039d 04       		.byte	0x4
 5681 039e 0B       		.uleb128 0xb
 5682 039f 5A030000 		.4byte	.LASF73
 5683 03a3 02       		.byte	0x2
 5684 03a4 F4       		.byte	0xf4
 5685 03a5 E4000000 		.4byte	0xe4
 5686 03a9 04       		.byte	0x4
 5687 03aa 01       		.byte	0x1
 5688 03ab 09       		.byte	0x9
 5689 03ac 04       		.byte	0x4
 5690 03ad 0B       		.uleb128 0xb
 5691 03ae 1F040000 		.4byte	.LASF74
 5692 03b2 02       		.byte	0x2
 5693 03b3 F5       		.byte	0xf5
 5694 03b4 E4000000 		.4byte	0xe4
ARM GAS  C:\Users\strap\AppData\Local\Temp\cc7bAV43.s 			page 145


 5695 03b8 04       		.byte	0x4
 5696 03b9 01       		.byte	0x1
 5697 03ba 08       		.byte	0x8
 5698 03bb 04       		.byte	0x4
 5699 03bc 0B       		.uleb128 0xb
 5700 03bd A8030000 		.4byte	.LASF75
 5701 03c1 02       		.byte	0x2
 5702 03c2 F7       		.byte	0xf7
 5703 03c3 E4000000 		.4byte	0xe4
 5704 03c7 04       		.byte	0x4
 5705 03c8 01       		.byte	0x1
 5706 03c9 07       		.byte	0x7
 5707 03ca 04       		.byte	0x4
 5708 03cb 0B       		.uleb128 0xb
 5709 03cc 98050000 		.4byte	.LASF76
 5710 03d0 02       		.byte	0x2
 5711 03d1 F8       		.byte	0xf8
 5712 03d2 E4000000 		.4byte	0xe4
 5713 03d6 04       		.byte	0x4
 5714 03d7 01       		.byte	0x1
 5715 03d8 06       		.byte	0x6
 5716 03d9 04       		.byte	0x4
 5717 03da 0B       		.uleb128 0xb
 5718 03db 69090000 		.4byte	.LASF77
 5719 03df 02       		.byte	0x2
 5720 03e0 F9       		.byte	0xf9
 5721 03e1 E4000000 		.4byte	0xe4
 5722 03e5 04       		.byte	0x4
 5723 03e6 01       		.byte	0x1
 5724 03e7 05       		.byte	0x5
 5725 03e8 04       		.byte	0x4
 5726 03e9 0B       		.uleb128 0xb
 5727 03ea 48000000 		.4byte	.LASF78
 5728 03ee 02       		.byte	0x2
 5729 03ef FA       		.byte	0xfa
 5730 03f0 E4000000 		.4byte	0xe4
 5731 03f4 04       		.byte	0x4
 5732 03f5 01       		.byte	0x1
 5733 03f6 04       		.byte	0x4
 5734 03f7 04       		.byte	0x4
 5735 03f8 0B       		.uleb128 0xb
 5736 03f9 D5020000 		.4byte	.LASF79
 5737 03fd 02       		.byte	0x2
 5738 03fe FB       		.byte	0xfb
 5739 03ff E4000000 		.4byte	0xe4
 5740 0403 04       		.byte	0x4
 5741 0404 01       		.byte	0x1
 5742 0405 03       		.byte	0x3
 5743 0406 04       		.byte	0x4
 5744 0407 0B       		.uleb128 0xb
 5745 0408 00000000 		.4byte	.LASF80
 5746 040c 02       		.byte	0x2
 5747 040d FD       		.byte	0xfd
 5748 040e E4000000 		.4byte	0xe4
 5749 0412 04       		.byte	0x4
 5750 0413 01       		.byte	0x1
 5751 0414 02       		.byte	0x2
ARM GAS  C:\Users\strap\AppData\Local\Temp\cc7bAV43.s 			page 146


 5752 0415 04       		.byte	0x4
 5753 0416 0B       		.uleb128 0xb
 5754 0417 F6010000 		.4byte	.LASF81
 5755 041b 02       		.byte	0x2
 5756 041c FE       		.byte	0xfe
 5757 041d E4000000 		.4byte	0xe4
 5758 0421 04       		.byte	0x4
 5759 0422 01       		.byte	0x1
 5760 0423 01       		.byte	0x1
 5761 0424 04       		.byte	0x4
 5762 0425 0B       		.uleb128 0xb
 5763 0426 70000000 		.4byte	.LASF82
 5764 042a 02       		.byte	0x2
 5765 042b FF       		.byte	0xff
 5766 042c E4000000 		.4byte	0xe4
 5767 0430 04       		.byte	0x4
 5768 0431 01       		.byte	0x1
 5769 0432 00       		.byte	0
 5770 0433 04       		.byte	0x4
 5771 0434 00       		.byte	0
 5772 0435 08       		.uleb128 0x8
 5773 0436 04       		.byte	0x4
 5774 0437 3B040000 		.4byte	0x43b
 5775 043b 08       		.uleb128 0x8
 5776 043c 04       		.byte	0x4
 5777 043d 75020000 		.4byte	0x275
 5778 0441 10       		.uleb128 0x10
 5779 0442 7E030000 		.4byte	.LASF83
 5780 0446 02       		.byte	0x2
 5781 0447 0001     		.2byte	0x100
 5782 0449 8B020000 		.4byte	0x28b
 5783 044d 08       		.uleb128 0x8
 5784 044e 04       		.byte	0x4
 5785 044f 26020000 		.4byte	0x226
 5786 0453 08       		.uleb128 0x8
 5787 0454 04       		.byte	0x4
 5788 0455 59040000 		.4byte	0x459
 5789 0459 13       		.uleb128 0x13
 5790 045a 08       		.uleb128 0x8
 5791 045b 04       		.byte	0x4
 5792 045c 41040000 		.4byte	0x441
 5793 0460 14       		.uleb128 0x14
 5794 0461 87020000 		.4byte	.LASF87
 5795 0465 01       		.byte	0x1
 5796 0466 7504     		.2byte	0x475
 5797 0468 4F020000 		.4byte	0x24f
 5798 046c 03       		.byte	0x3
 5799 046d A2040000 		.4byte	0x4a2
 5800 0471 15       		.uleb128 0x15
 5801 0472 DB010000 		.4byte	.LASF84
 5802 0476 01       		.byte	0x1
 5803 0477 7504     		.2byte	0x475
 5804 0479 A2040000 		.4byte	0x4a2
 5805 047d 16       		.uleb128 0x16
 5806 047e 69647800 		.ascii	"idx\000"
 5807 0482 01       		.byte	0x1
 5808 0483 7504     		.2byte	0x475
ARM GAS  C:\Users\strap\AppData\Local\Temp\cc7bAV43.s 			page 147


 5809 0485 07010000 		.4byte	0x107
 5810 0489 17       		.uleb128 0x17
 5811 048a 25030000 		.4byte	.LASF85
 5812 048e 01       		.byte	0x1
 5813 048f 7704     		.2byte	0x477
 5814 0491 4F020000 		.4byte	0x24f
 5815 0495 17       		.uleb128 0x17
 5816 0496 06020000 		.4byte	.LASF86
 5817 049a 01       		.byte	0x1
 5818 049b 7804     		.2byte	0x478
 5819 049d 6F020000 		.4byte	0x26f
 5820 04a1 00       		.byte	0
 5821 04a2 08       		.uleb128 0x8
 5822 04a3 04       		.byte	0x4
 5823 04a4 A8040000 		.4byte	0x4a8
 5824 04a8 09       		.uleb128 0x9
 5825 04a9 75020000 		.4byte	0x275
 5826 04ad 14       		.uleb128 0x14
 5827 04ae 2E090000 		.4byte	.LASF88
 5828 04b2 01       		.byte	0x1
 5829 04b3 9B04     		.2byte	0x49b
 5830 04b5 07010000 		.4byte	0x107
 5831 04b9 03       		.byte	0x3
 5832 04ba D7040000 		.4byte	0x4d7
 5833 04be 15       		.uleb128 0x15
 5834 04bf 8F090000 		.4byte	.LASF89
 5835 04c3 01       		.byte	0x1
 5836 04c4 9B04     		.2byte	0x49b
 5837 04c6 B8000000 		.4byte	0xb8
 5838 04ca 17       		.uleb128 0x17
 5839 04cb 2D010000 		.4byte	.LASF90
 5840 04cf 01       		.byte	0x1
 5841 04d0 9E04     		.2byte	0x49e
 5842 04d2 07010000 		.4byte	0x107
 5843 04d6 00       		.byte	0
 5844 04d7 14       		.uleb128 0x14
 5845 04d8 95070000 		.4byte	.LASF91
 5846 04dc 01       		.byte	0x1
 5847 04dd 8F04     		.2byte	0x48f
 5848 04df B8000000 		.4byte	0xb8
 5849 04e3 03       		.byte	0x3
 5850 04e4 01050000 		.4byte	0x501
 5851 04e8 15       		.uleb128 0x15
 5852 04e9 DB010000 		.4byte	.LASF84
 5853 04ed 01       		.byte	0x1
 5854 04ee 8F04     		.2byte	0x48f
 5855 04f0 A2040000 		.4byte	0x4a2
 5856 04f4 16       		.uleb128 0x16
 5857 04f5 69647800 		.ascii	"idx\000"
 5858 04f9 01       		.byte	0x1
 5859 04fa 8F04     		.2byte	0x48f
 5860 04fc 07010000 		.4byte	0x107
 5861 0500 00       		.byte	0
 5862 0501 14       		.uleb128 0x14
 5863 0502 E6090000 		.4byte	.LASF92
 5864 0506 01       		.byte	0x1
 5865 0507 AC04     		.2byte	0x4ac
ARM GAS  C:\Users\strap\AppData\Local\Temp\cc7bAV43.s 			page 148


 5866 0509 07010000 		.4byte	0x107
 5867 050d 03       		.byte	0x3
 5868 050e 2B050000 		.4byte	0x52b
 5869 0512 15       		.uleb128 0x15
 5870 0513 8F090000 		.4byte	.LASF89
 5871 0517 01       		.byte	0x1
 5872 0518 AC04     		.2byte	0x4ac
 5873 051a B8000000 		.4byte	0xb8
 5874 051e 16       		.uleb128 0x16
 5875 051f 69647800 		.ascii	"idx\000"
 5876 0523 01       		.byte	0x1
 5877 0524 AC04     		.2byte	0x4ac
 5878 0526 07010000 		.4byte	0x107
 5879 052a 00       		.byte	0
 5880 052b 14       		.uleb128 0x14
 5881 052c 32050000 		.4byte	.LASF93
 5882 0530 01       		.byte	0x1
 5883 0531 8404     		.2byte	0x484
 5884 0533 B8000000 		.4byte	0xb8
 5885 0537 03       		.byte	0x3
 5886 0538 55050000 		.4byte	0x555
 5887 053c 15       		.uleb128 0x15
 5888 053d DB010000 		.4byte	.LASF84
 5889 0541 01       		.byte	0x1
 5890 0542 8404     		.2byte	0x484
 5891 0544 A2040000 		.4byte	0x4a2
 5892 0548 16       		.uleb128 0x16
 5893 0549 69647800 		.ascii	"idx\000"
 5894 054d 01       		.byte	0x1
 5895 054e 8404     		.2byte	0x484
 5896 0550 07010000 		.4byte	0x107
 5897 0554 00       		.byte	0
 5898 0555 14       		.uleb128 0x14
 5899 0556 30000000 		.4byte	.LASF94
 5900 055a 02       		.byte	0x2
 5901 055b 3701     		.2byte	0x137
 5902 055d 3B040000 		.4byte	0x43b
 5903 0561 03       		.byte	0x3
 5904 0562 7E050000 		.4byte	0x57e
 5905 0566 15       		.uleb128 0x15
 5906 0567 CF090000 		.4byte	.LASF95
 5907 056b 02       		.byte	0x2
 5908 056c 3701     		.2byte	0x137
 5909 056e 5A040000 		.4byte	0x45a
 5910 0572 16       		.uleb128 0x16
 5911 0573 696400   		.ascii	"id\000"
 5912 0576 02       		.byte	0x2
 5913 0577 3701     		.2byte	0x137
 5914 0579 B8000000 		.4byte	0xb8
 5915 057d 00       		.byte	0
 5916 057e 18       		.uleb128 0x18
 5917 057f 30080000 		.4byte	.LASF170
 5918 0583 01       		.byte	0x1
 5919 0584 6A04     		.2byte	0x46a
 5920 0586 03       		.byte	0x3
 5921 0587 A3050000 		.4byte	0x5a3
 5922 058b 15       		.uleb128 0x15
ARM GAS  C:\Users\strap\AppData\Local\Temp\cc7bAV43.s 			page 149


 5923 058c DB010000 		.4byte	.LASF84
 5924 0590 01       		.byte	0x1
 5925 0591 6A04     		.2byte	0x46a
 5926 0593 3B040000 		.4byte	0x43b
 5927 0597 16       		.uleb128 0x16
 5928 0598 737A00   		.ascii	"sz\000"
 5929 059b 01       		.byte	0x1
 5930 059c 6A04     		.2byte	0x46a
 5931 059e 07010000 		.4byte	0x107
 5932 05a2 00       		.byte	0
 5933 05a3 19       		.uleb128 0x19
 5934 05a4 38040000 		.4byte	.LASF96
 5935 05a8 03       		.byte	0x3
 5936 05a9 D6       		.byte	0xd6
 5937 05aa 05010000 		.4byte	0x105
 5938 05ae 03       		.byte	0x3
 5939 05af E9050000 		.4byte	0x5e9
 5940 05b3 1A       		.uleb128 0x1a
 5941 05b4 64737400 		.ascii	"dst\000"
 5942 05b8 03       		.byte	0x3
 5943 05b9 D6       		.byte	0xd6
 5944 05ba 05010000 		.4byte	0x105
 5945 05be 1A       		.uleb128 0x1a
 5946 05bf 73726300 		.ascii	"src\000"
 5947 05c3 03       		.byte	0x3
 5948 05c4 D6       		.byte	0xd6
 5949 05c5 53040000 		.4byte	0x453
 5950 05c9 1A       		.uleb128 0x1a
 5951 05ca 6C656E00 		.ascii	"len\000"
 5952 05ce 03       		.byte	0x3
 5953 05cf D6       		.byte	0xd6
 5954 05d0 07010000 		.4byte	0x107
 5955 05d4 1B       		.uleb128 0x1b
 5956 05d5 643800   		.ascii	"d8\000"
 5957 05d8 03       		.byte	0x3
 5958 05d9 D8       		.byte	0xd8
 5959 05da 6F020000 		.4byte	0x26f
 5960 05de 1B       		.uleb128 0x1b
 5961 05df 733800   		.ascii	"s8\000"
 5962 05e2 03       		.byte	0x3
 5963 05e3 D9       		.byte	0xd9
 5964 05e4 52010000 		.4byte	0x152
 5965 05e8 00       		.byte	0
 5966 05e9 1C       		.uleb128 0x1c
 5967 05ea B4090000 		.4byte	.LASF97
 5968 05ee 01       		.byte	0x1
 5969 05ef 42       		.byte	0x42
 5970 05f0 00000000 		.4byte	.LFB328
 5971 05f4 0A000000 		.4byte	.LFE328-.LFB328
 5972 05f8 01       		.uleb128 0x1
 5973 05f9 9C       		.byte	0x9c
 5974 05fa 24060000 		.4byte	0x624
 5975 05fe 1D       		.uleb128 0x1d
 5976 05ff DB010000 		.4byte	.LASF84
 5977 0603 01       		.byte	0x1
 5978 0604 42       		.byte	0x42
 5979 0605 3B040000 		.4byte	0x43b
ARM GAS  C:\Users\strap\AppData\Local\Temp\cc7bAV43.s 			page 150


 5980 0609 00000000 		.4byte	.LLST0
 5981 060d 1E       		.uleb128 0x1e
 5982 060e 08000000 		.4byte	.LVL1
 5983 0612 AB320000 		.4byte	0x32ab
 5984 0616 1F       		.uleb128 0x1f
 5985 0617 01       		.uleb128 0x1
 5986 0618 50       		.byte	0x50
 5987 0619 03       		.uleb128 0x3
 5988 061a F3       		.byte	0xf3
 5989 061b 01       		.uleb128 0x1
 5990 061c 50       		.byte	0x50
 5991 061d 1F       		.uleb128 0x1f
 5992 061e 01       		.uleb128 0x1
 5993 061f 51       		.byte	0x51
 5994 0620 01       		.uleb128 0x1
 5995 0621 34       		.byte	0x34
 5996 0622 00       		.byte	0
 5997 0623 00       		.byte	0
 5998 0624 1C       		.uleb128 0x1c
 5999 0625 00060000 		.4byte	.LASF98
 6000 0629 01       		.byte	0x1
 6001 062a 89       		.byte	0x89
 6002 062b 00000000 		.4byte	.LFB331
 6003 062f 0A000000 		.4byte	.LFE331-.LFB331
 6004 0633 01       		.uleb128 0x1
 6005 0634 9C       		.byte	0x9c
 6006 0635 5F060000 		.4byte	0x65f
 6007 0639 1D       		.uleb128 0x1d
 6008 063a CF090000 		.4byte	.LASF95
 6009 063e 01       		.byte	0x1
 6010 063f 89       		.byte	0x89
 6011 0640 5A040000 		.4byte	0x45a
 6012 0644 21000000 		.4byte	.LLST1
 6013 0648 1E       		.uleb128 0x1e
 6014 0649 08000000 		.4byte	.LVL3
 6015 064d AB320000 		.4byte	0x32ab
 6016 0651 1F       		.uleb128 0x1f
 6017 0652 01       		.uleb128 0x1
 6018 0653 50       		.byte	0x50
 6019 0654 03       		.uleb128 0x3
 6020 0655 F3       		.byte	0xf3
 6021 0656 01       		.uleb128 0x1
 6022 0657 50       		.byte	0x50
 6023 0658 1F       		.uleb128 0x1f
 6024 0659 01       		.uleb128 0x1
 6025 065a 51       		.byte	0x51
 6026 065b 01       		.uleb128 0x1
 6027 065c 38       		.byte	0x38
 6028 065d 00       		.byte	0
 6029 065e 00       		.byte	0
 6030 065f 1C       		.uleb128 0x1c
 6031 0660 3D080000 		.4byte	.LASF99
 6032 0664 01       		.byte	0x1
 6033 0665 EA       		.byte	0xea
 6034 0666 00000000 		.4byte	.LFB334
 6035 066a B0000000 		.4byte	.LFE334-.LFB334
 6036 066e 01       		.uleb128 0x1
ARM GAS  C:\Users\strap\AppData\Local\Temp\cc7bAV43.s 			page 151


 6037 066f 9C       		.byte	0x9c
 6038 0670 13070000 		.4byte	0x713
 6039 0674 1D       		.uleb128 0x1d
 6040 0675 CF090000 		.4byte	.LASF95
 6041 0679 01       		.byte	0x1
 6042 067a EA       		.byte	0xea
 6043 067b 5A040000 		.4byte	0x45a
 6044 067f 42000000 		.4byte	.LLST2
 6045 0683 1D       		.uleb128 0x1d
 6046 0684 DB010000 		.4byte	.LASF84
 6047 0688 01       		.byte	0x1
 6048 0689 EA       		.byte	0xea
 6049 068a 3B040000 		.4byte	0x43b
 6050 068e 84000000 		.4byte	.LLST3
 6051 0692 20       		.uleb128 0x20
 6052 0693 6900     		.ascii	"i\000"
 6053 0695 01       		.byte	0x1
 6054 0696 F2       		.byte	0xf2
 6055 0697 B8000000 		.4byte	0xb8
 6056 069b C6000000 		.4byte	.LLST4
 6057 069f 21       		.uleb128 0x21
 6058 06a0 F2080000 		.4byte	.LASF100
 6059 06a4 01       		.byte	0x1
 6060 06a5 F3       		.byte	0xf3
 6061 06a6 4B010000 		.4byte	0x14b
 6062 06aa 05010000 		.4byte	.LLST5
 6063 06ae 22       		.uleb128 0x22
 6064 06af D7030000 		.4byte	.LASF101
 6065 06b3 01       		.byte	0x1
 6066 06b4 0401     		.2byte	0x104
 6067 06b6 35040000 		.4byte	0x435
 6068 06ba 23010000 		.4byte	.LLST6
 6069 06be 23       		.uleb128 0x23
 6070 06bf 6A00     		.ascii	"j\000"
 6071 06c1 01       		.byte	0x1
 6072 06c2 0A01     		.2byte	0x10a
 6073 06c4 B8000000 		.4byte	0xb8
 6074 06c8 41010000 		.4byte	.LLST7
 6075 06cc 24       		.uleb128 0x24
 6076 06cd 3E000000 		.4byte	.LVL12
 6077 06d1 B6320000 		.4byte	0x32b6
 6078 06d5 24       		.uleb128 0x24
 6079 06d6 58000000 		.4byte	.LVL15
 6080 06da C1320000 		.4byte	0x32c1
 6081 06de 25       		.uleb128 0x25
 6082 06df 5E000000 		.4byte	.LVL17
 6083 06e3 CC320000 		.4byte	0x32cc
 6084 06e7 F2060000 		.4byte	0x6f2
 6085 06eb 1F       		.uleb128 0x1f
 6086 06ec 01       		.uleb128 0x1
 6087 06ed 50       		.byte	0x50
 6088 06ee 02       		.uleb128 0x2
 6089 06ef 76       		.byte	0x76
 6090 06f0 00       		.sleb128 0
 6091 06f1 00       		.byte	0
 6092 06f2 25       		.uleb128 0x25
 6093 06f3 6A000000 		.4byte	.LVL18
ARM GAS  C:\Users\strap\AppData\Local\Temp\cc7bAV43.s 			page 152


 6094 06f7 D7320000 		.4byte	0x32d7
 6095 06fb 09070000 		.4byte	0x709
 6096 06ff 1F       		.uleb128 0x1f
 6097 0700 01       		.uleb128 0x1
 6098 0701 50       		.byte	0x50
 6099 0702 05       		.uleb128 0x5
 6100 0703 03       		.byte	0x3
 6101 0704 00000000 		.4byte	.LC0
 6102 0708 00       		.byte	0
 6103 0709 24       		.uleb128 0x24
 6104 070a 9A000000 		.4byte	.LVL24
 6105 070e B6320000 		.4byte	0x32b6
 6106 0712 00       		.byte	0
 6107 0713 1C       		.uleb128 0x1c
 6108 0714 26020000 		.4byte	.LASF102
 6109 0718 01       		.byte	0x1
 6110 0719 C4       		.byte	0xc4
 6111 071a 00000000 		.4byte	.LFB333
 6112 071e 9C000000 		.4byte	.LFE333-.LFB333
 6113 0722 01       		.uleb128 0x1
 6114 0723 9C       		.byte	0x9c
 6115 0724 CF070000 		.4byte	0x7cf
 6116 0728 1D       		.uleb128 0x1d
 6117 0729 CF090000 		.4byte	.LASF95
 6118 072d 01       		.byte	0x1
 6119 072e C4       		.byte	0xc4
 6120 072f 5A040000 		.4byte	0x45a
 6121 0733 5F010000 		.4byte	.LLST8
 6122 0737 1D       		.uleb128 0x1d
 6123 0738 DB010000 		.4byte	.LASF84
 6124 073c 01       		.byte	0x1
 6125 073d C4       		.byte	0xc4
 6126 073e 3B040000 		.4byte	0x43b
 6127 0742 88010000 		.4byte	.LLST9
 6128 0746 21       		.uleb128 0x21
 6129 0747 D7030000 		.4byte	.LASF101
 6130 074b 01       		.byte	0x1
 6131 074c CE       		.byte	0xce
 6132 074d 35040000 		.4byte	0x435
 6133 0751 B1010000 		.4byte	.LLST10
 6134 0755 20       		.uleb128 0x20
 6135 0756 6900     		.ascii	"i\000"
 6136 0758 01       		.byte	0x1
 6137 0759 D8       		.byte	0xd8
 6138 075a B8000000 		.4byte	0xb8
 6139 075e DA010000 		.4byte	.LLST11
 6140 0762 21       		.uleb128 0x21
 6141 0763 96020000 		.4byte	.LASF103
 6142 0767 01       		.byte	0x1
 6143 0768 D9       		.byte	0xd9
 6144 0769 B8000000 		.4byte	0xb8
 6145 076d 10020000 		.4byte	.LLST12
 6146 0771 25       		.uleb128 0x25
 6147 0772 0E000000 		.4byte	.LVL27
 6148 0776 5F060000 		.4byte	0x65f
 6149 077a 8B070000 		.4byte	0x78b
 6150 077e 1F       		.uleb128 0x1f
ARM GAS  C:\Users\strap\AppData\Local\Temp\cc7bAV43.s 			page 153


 6151 077f 01       		.uleb128 0x1
 6152 0780 50       		.byte	0x50
 6153 0781 02       		.uleb128 0x2
 6154 0782 74       		.byte	0x74
 6155 0783 00       		.sleb128 0
 6156 0784 1F       		.uleb128 0x1f
 6157 0785 01       		.uleb128 0x1
 6158 0786 51       		.byte	0x51
 6159 0787 02       		.uleb128 0x2
 6160 0788 76       		.byte	0x76
 6161 0789 00       		.sleb128 0
 6162 078a 00       		.byte	0
 6163 078b 25       		.uleb128 0x25
 6164 078c 1C000000 		.4byte	.LVL28
 6165 0790 C1320000 		.4byte	0x32c1
 6166 0794 9E070000 		.4byte	0x79e
 6167 0798 1F       		.uleb128 0x1f
 6168 0799 01       		.uleb128 0x1
 6169 079a 50       		.byte	0x50
 6170 079b 01       		.uleb128 0x1
 6171 079c 34       		.byte	0x34
 6172 079d 00       		.byte	0
 6173 079e 24       		.uleb128 0x24
 6174 079f 30000000 		.4byte	.LVL31
 6175 07a3 E2320000 		.4byte	0x32e2
 6176 07a7 25       		.uleb128 0x25
 6177 07a8 38000000 		.4byte	.LVL33
 6178 07ac CC320000 		.4byte	0x32cc
 6179 07b0 BB070000 		.4byte	0x7bb
 6180 07b4 1F       		.uleb128 0x1f
 6181 07b5 01       		.uleb128 0x1
 6182 07b6 50       		.byte	0x50
 6183 07b7 02       		.uleb128 0x2
 6184 07b8 75       		.byte	0x75
 6185 07b9 00       		.sleb128 0
 6186 07ba 00       		.byte	0
 6187 07bb 1E       		.uleb128 0x1e
 6188 07bc 44000000 		.4byte	.LVL34
 6189 07c0 D7320000 		.4byte	0x32d7
 6190 07c4 1F       		.uleb128 0x1f
 6191 07c5 01       		.uleb128 0x1
 6192 07c6 50       		.byte	0x50
 6193 07c7 05       		.uleb128 0x5
 6194 07c8 03       		.byte	0x3
 6195 07c9 00000000 		.4byte	.LC0
 6196 07cd 00       		.byte	0
 6197 07ce 00       		.byte	0
 6198 07cf 26       		.uleb128 0x26
 6199 07d0 AE060000 		.4byte	.LASF171
 6200 07d4 01       		.byte	0x1
 6201 07d5 5004     		.2byte	0x450
 6202 07d7 3B040000 		.4byte	0x43b
 6203 07db 00000000 		.4byte	.LFB360
 6204 07df 7C000000 		.4byte	.LFE360-.LFB360
 6205 07e3 01       		.uleb128 0x1
 6206 07e4 9C       		.byte	0x9c
 6207 07e5 99080000 		.4byte	0x899
ARM GAS  C:\Users\strap\AppData\Local\Temp\cc7bAV43.s 			page 154


 6208 07e9 27       		.uleb128 0x27
 6209 07ea CF090000 		.4byte	.LASF95
 6210 07ee 01       		.byte	0x1
 6211 07ef 5004     		.2byte	0x450
 6212 07f1 5A040000 		.4byte	0x45a
 6213 07f5 3A020000 		.4byte	.LLST13
 6214 07f9 22       		.uleb128 0x22
 6215 07fa ED040000 		.4byte	.LASF104
 6216 07fe 01       		.byte	0x1
 6217 07ff 5604     		.2byte	0x456
 6218 0801 3B040000 		.4byte	0x43b
 6219 0805 B1020000 		.4byte	.LLST14
 6220 0809 28       		.uleb128 0x28
 6221 080a 55050000 		.4byte	0x555
 6222 080e 0C000000 		.4byte	.LBB141
 6223 0812 2E000000 		.4byte	.LBE141-.LBB141
 6224 0816 01       		.byte	0x1
 6225 0817 5404     		.2byte	0x454
 6226 0819 30080000 		.4byte	0x830
 6227 081d 29       		.uleb128 0x29
 6228 081e 72050000 		.4byte	0x572
 6229 0822 CF020000 		.4byte	.LLST15
 6230 0826 29       		.uleb128 0x29
 6231 0827 66050000 		.4byte	0x566
 6232 082b FA020000 		.4byte	.LLST16
 6233 082f 00       		.byte	0
 6234 0830 25       		.uleb128 0x25
 6235 0831 44000000 		.4byte	.LVL57
 6236 0835 C1320000 		.4byte	0x32c1
 6237 0839 43080000 		.4byte	0x843
 6238 083d 1F       		.uleb128 0x1f
 6239 083e 01       		.uleb128 0x1
 6240 083f 50       		.byte	0x50
 6241 0840 01       		.uleb128 0x1
 6242 0841 34       		.byte	0x34
 6243 0842 00       		.byte	0
 6244 0843 25       		.uleb128 0x25
 6245 0844 4A000000 		.4byte	.LVL59
 6246 0848 CC320000 		.4byte	0x32cc
 6247 084c 57080000 		.4byte	0x857
 6248 0850 1F       		.uleb128 0x1f
 6249 0851 01       		.uleb128 0x1
 6250 0852 50       		.byte	0x50
 6251 0853 02       		.uleb128 0x2
 6252 0854 74       		.byte	0x74
 6253 0855 00       		.sleb128 0
 6254 0856 00       		.byte	0
 6255 0857 25       		.uleb128 0x25
 6256 0858 56000000 		.4byte	.LVL60
 6257 085c D7320000 		.4byte	0x32d7
 6258 0860 6E080000 		.4byte	0x86e
 6259 0864 1F       		.uleb128 0x1f
 6260 0865 01       		.uleb128 0x1
 6261 0866 50       		.byte	0x50
 6262 0867 05       		.uleb128 0x5
 6263 0868 03       		.byte	0x3
 6264 0869 00000000 		.4byte	.LC0
ARM GAS  C:\Users\strap\AppData\Local\Temp\cc7bAV43.s 			page 155


 6265 086d 00       		.byte	0
 6266 086e 25       		.uleb128 0x25
 6267 086f 60000000 		.4byte	.LVL61
 6268 0873 E9050000 		.4byte	0x5e9
 6269 0877 82080000 		.4byte	0x882
 6270 087b 1F       		.uleb128 0x1f
 6271 087c 01       		.uleb128 0x1
 6272 087d 50       		.byte	0x50
 6273 087e 02       		.uleb128 0x2
 6274 087f 74       		.byte	0x74
 6275 0880 00       		.sleb128 0
 6276 0881 00       		.byte	0
 6277 0882 1E       		.uleb128 0x1e
 6278 0883 68000000 		.4byte	.LVL62
 6279 0887 13070000 		.4byte	0x713
 6280 088b 1F       		.uleb128 0x1f
 6281 088c 01       		.uleb128 0x1
 6282 088d 50       		.byte	0x50
 6283 088e 02       		.uleb128 0x2
 6284 088f 75       		.byte	0x75
 6285 0890 00       		.sleb128 0
 6286 0891 1F       		.uleb128 0x1f
 6287 0892 01       		.uleb128 0x1
 6288 0893 51       		.byte	0x51
 6289 0894 02       		.uleb128 0x2
 6290 0895 74       		.byte	0x74
 6291 0896 00       		.sleb128 0
 6292 0897 00       		.byte	0
 6293 0898 00       		.byte	0
 6294 0899 2A       		.uleb128 0x2a
 6295 089a 4B030000 		.4byte	.LASF105
 6296 089e 01       		.byte	0x1
 6297 089f 4201     		.2byte	0x142
 6298 08a1 00000000 		.4byte	.LFB336
 6299 08a5 10000000 		.4byte	.LFE336-.LFB336
 6300 08a9 01       		.uleb128 0x1
 6301 08aa 9C       		.byte	0x9c
 6302 08ab C9080000 		.4byte	0x8c9
 6303 08af 27       		.uleb128 0x27
 6304 08b0 DB010000 		.4byte	.LASF84
 6305 08b4 01       		.byte	0x1
 6306 08b5 4201     		.2byte	0x142
 6307 08b7 3B040000 		.4byte	0x43b
 6308 08bb 3F030000 		.4byte	.LLST17
 6309 08bf 24       		.uleb128 0x24
 6310 08c0 0A000000 		.4byte	.LVL67
 6311 08c4 B6320000 		.4byte	0x32b6
 6312 08c8 00       		.byte	0
 6313 08c9 2B       		.uleb128 0x2b
 6314 08ca C4060000 		.4byte	.LASF115
 6315 08ce 01       		.byte	0x1
 6316 08cf 4F01     		.2byte	0x14f
 6317 08d1 CE000000 		.4byte	0xce
 6318 08d5 00000000 		.4byte	.LFB337
 6319 08d9 4E000000 		.4byte	.LFE337-.LFB337
 6320 08dd 01       		.uleb128 0x1
 6321 08de 9C       		.byte	0x9c
ARM GAS  C:\Users\strap\AppData\Local\Temp\cc7bAV43.s 			page 156


 6322 08df BF090000 		.4byte	0x9bf
 6323 08e3 27       		.uleb128 0x27
 6324 08e4 DB010000 		.4byte	.LASF84
 6325 08e8 01       		.byte	0x1
 6326 08e9 4F01     		.2byte	0x14f
 6327 08eb A2040000 		.4byte	0x4a2
 6328 08ef 5D030000 		.4byte	.LLST18
 6329 08f3 23       		.uleb128 0x23
 6330 08f4 6900     		.ascii	"i\000"
 6331 08f6 01       		.byte	0x1
 6332 08f7 5501     		.2byte	0x155
 6333 08f9 07010000 		.4byte	0x107
 6334 08fd 97030000 		.4byte	.LLST19
 6335 0901 17       		.uleb128 0x17
 6336 0902 8F090000 		.4byte	.LASF89
 6337 0906 01       		.byte	0x1
 6338 0907 5601     		.2byte	0x156
 6339 0909 B8000000 		.4byte	0xb8
 6340 090d 28       		.uleb128 0x28
 6341 090e 01050000 		.4byte	0x501
 6342 0912 0A000000 		.4byte	.LBB143
 6343 0916 20000000 		.4byte	.LBE143-.LBB143
 6344 091a 01       		.byte	0x1
 6345 091b 5801     		.2byte	0x158
 6346 091d 5D090000 		.4byte	0x95d
 6347 0921 29       		.uleb128 0x29
 6348 0922 1E050000 		.4byte	0x51e
 6349 0926 B5030000 		.4byte	.LLST20
 6350 092a 2C       		.uleb128 0x2c
 6351 092b 12050000 		.4byte	0x512
 6352 092f 2D       		.uleb128 0x2d
 6353 0930 AD040000 		.4byte	0x4ad
 6354 0934 0A000000 		.4byte	.LBB145
 6355 0938 1E000000 		.4byte	.LBE145-.LBB145
 6356 093c 01       		.byte	0x1
 6357 093d AE04     		.2byte	0x4ae
 6358 093f 29       		.uleb128 0x29
 6359 0940 BE040000 		.4byte	0x4be
 6360 0944 C8030000 		.4byte	.LLST21
 6361 0948 2E       		.uleb128 0x2e
 6362 0949 0A000000 		.4byte	.LBB146
 6363 094d 1E000000 		.4byte	.LBE146-.LBB146
 6364 0951 2F       		.uleb128 0x2f
 6365 0952 CA040000 		.4byte	0x4ca
 6366 0956 29040000 		.4byte	.LLST22
 6367 095a 00       		.byte	0
 6368 095b 00       		.byte	0
 6369 095c 00       		.byte	0
 6370 095d 2D       		.uleb128 0x2d
 6371 095e 2B050000 		.4byte	0x52b
 6372 0962 2A000000 		.4byte	.LBB147
 6373 0966 12000000 		.4byte	.LBE147-.LBB147
 6374 096a 01       		.byte	0x1
 6375 096b 5701     		.2byte	0x157
 6376 096d 29       		.uleb128 0x29
 6377 096e 48050000 		.4byte	0x548
 6378 0972 3D040000 		.4byte	.LLST23
ARM GAS  C:\Users\strap\AppData\Local\Temp\cc7bAV43.s 			page 157


 6379 0976 29       		.uleb128 0x29
 6380 0977 3C050000 		.4byte	0x53c
 6381 097b 50040000 		.4byte	.LLST24
 6382 097f 2D       		.uleb128 0x2d
 6383 0980 60040000 		.4byte	0x460
 6384 0984 2A000000 		.4byte	.LBB149
 6385 0988 10000000 		.4byte	.LBE149-.LBB149
 6386 098c 01       		.byte	0x1
 6387 098d 8604     		.2byte	0x486
 6388 098f 29       		.uleb128 0x29
 6389 0990 7D040000 		.4byte	0x47d
 6390 0994 63040000 		.4byte	.LLST25
 6391 0998 29       		.uleb128 0x29
 6392 0999 71040000 		.4byte	0x471
 6393 099d 76040000 		.4byte	.LLST26
 6394 09a1 2E       		.uleb128 0x2e
 6395 09a2 2A000000 		.4byte	.LBB150
 6396 09a6 10000000 		.4byte	.LBE150-.LBB150
 6397 09aa 30       		.uleb128 0x30
 6398 09ab 89040000 		.4byte	0x489
 6399 09af 02       		.uleb128 0x2
 6400 09b0 91       		.byte	0x91
 6401 09b1 7E       		.sleb128 -2
 6402 09b2 2F       		.uleb128 0x2f
 6403 09b3 95040000 		.4byte	0x495
 6404 09b7 89040000 		.4byte	.LLST27
 6405 09bb 00       		.byte	0
 6406 09bc 00       		.byte	0
 6407 09bd 00       		.byte	0
 6408 09be 00       		.byte	0
 6409 09bf 1C       		.uleb128 0x1c
 6410 09c0 2A030000 		.4byte	.LASF106
 6411 09c4 01       		.byte	0x1
 6412 09c5 4F       		.byte	0x4f
 6413 09c6 00000000 		.4byte	.LFB329
 6414 09ca 26000000 		.4byte	.LFE329-.LFB329
 6415 09ce 01       		.uleb128 0x1
 6416 09cf 9C       		.byte	0x9c
 6417 09d0 3A0A0000 		.4byte	0xa3a
 6418 09d4 1D       		.uleb128 0x1d
 6419 09d5 EC020000 		.4byte	.LASF107
 6420 09d9 01       		.byte	0x1
 6421 09da 4F       		.byte	0x4f
 6422 09db 3B040000 		.4byte	0x43b
 6423 09df B8040000 		.4byte	.LLST28
 6424 09e3 1D       		.uleb128 0x1d
 6425 09e4 83060000 		.4byte	.LASF108
 6426 09e8 01       		.byte	0x1
 6427 09e9 4F       		.byte	0x4f
 6428 09ea A2040000 		.4byte	0x4a2
 6429 09ee E1040000 		.4byte	.LLST29
 6430 09f2 21       		.uleb128 0x21
 6431 09f3 2D010000 		.4byte	.LASF90
 6432 09f7 01       		.byte	0x1
 6433 09f8 58       		.byte	0x58
 6434 09f9 CE000000 		.4byte	0xce
 6435 09fd 0A050000 		.4byte	.LLST30
ARM GAS  C:\Users\strap\AppData\Local\Temp\cc7bAV43.s 			page 158


 6436 0a01 25       		.uleb128 0x25
 6437 0a02 12000000 		.4byte	.LVL88
 6438 0a06 C9080000 		.4byte	0x8c9
 6439 0a0a 150A0000 		.4byte	0xa15
 6440 0a0e 1F       		.uleb128 0x1f
 6441 0a0f 01       		.uleb128 0x1
 6442 0a10 50       		.byte	0x50
 6443 0a11 02       		.uleb128 0x2
 6444 0a12 74       		.byte	0x74
 6445 0a13 00       		.sleb128 0
 6446 0a14 00       		.byte	0
 6447 0a15 25       		.uleb128 0x25
 6448 0a16 18000000 		.4byte	.LVL90
 6449 0a1a C1320000 		.4byte	0x32c1
 6450 0a1e 290A0000 		.4byte	0xa29
 6451 0a22 1F       		.uleb128 0x1f
 6452 0a23 01       		.uleb128 0x1
 6453 0a24 50       		.byte	0x50
 6454 0a25 02       		.uleb128 0x2
 6455 0a26 76       		.byte	0x76
 6456 0a27 00       		.sleb128 0
 6457 0a28 00       		.byte	0
 6458 0a29 1E       		.uleb128 0x1e
 6459 0a2a 22000000 		.4byte	.LVL91
 6460 0a2e ED320000 		.4byte	0x32ed
 6461 0a32 1F       		.uleb128 0x1f
 6462 0a33 01       		.uleb128 0x1
 6463 0a34 52       		.byte	0x52
 6464 0a35 02       		.uleb128 0x2
 6465 0a36 76       		.byte	0x76
 6466 0a37 00       		.sleb128 0
 6467 0a38 00       		.byte	0
 6468 0a39 00       		.byte	0
 6469 0a3a 14       		.uleb128 0x14
 6470 0a3b 2F060000 		.4byte	.LASF109
 6471 0a3f 01       		.byte	0x1
 6472 0a40 2004     		.2byte	0x420
 6473 0a42 D9000000 		.4byte	0xd9
 6474 0a46 03       		.byte	0x3
 6475 0a47 B80A0000 		.4byte	0xab8
 6476 0a4b 15       		.uleb128 0x15
 6477 0a4c DB010000 		.4byte	.LASF84
 6478 0a50 01       		.byte	0x1
 6479 0a51 2004     		.2byte	0x420
 6480 0a53 A2040000 		.4byte	0x4a2
 6481 0a57 15       		.uleb128 0x15
 6482 0a58 25030000 		.4byte	.LASF85
 6483 0a5c 01       		.byte	0x1
 6484 0a5d 2004     		.2byte	0x420
 6485 0a5f 4F020000 		.4byte	0x24f
 6486 0a63 17       		.uleb128 0x17
 6487 0a64 A9000000 		.4byte	.LASF110
 6488 0a68 01       		.byte	0x1
 6489 0a69 2604     		.2byte	0x426
 6490 0a6b B8000000 		.4byte	0xb8
 6491 0a6f 17       		.uleb128 0x17
 6492 0a70 2A060000 		.4byte	.LASF111
ARM GAS  C:\Users\strap\AppData\Local\Temp\cc7bAV43.s 			page 159


 6493 0a74 01       		.byte	0x1
 6494 0a75 2704     		.2byte	0x427
 6495 0a77 44020000 		.4byte	0x244
 6496 0a7b 17       		.uleb128 0x17
 6497 0a7c 0E0A0000 		.4byte	.LASF112
 6498 0a80 01       		.byte	0x1
 6499 0a81 2A04     		.2byte	0x42a
 6500 0a83 C3000000 		.4byte	0xc3
 6501 0a87 17       		.uleb128 0x17
 6502 0a88 B9080000 		.4byte	.LASF113
 6503 0a8c 01       		.byte	0x1
 6504 0a8d 2B04     		.2byte	0x42b
 6505 0a8f C3000000 		.4byte	0xc3
 6506 0a93 31       		.uleb128 0x31
 6507 0a94 6900     		.ascii	"i\000"
 6508 0a96 01       		.byte	0x1
 6509 0a97 2D04     		.2byte	0x42d
 6510 0a99 07010000 		.4byte	0x107
 6511 0a9d 17       		.uleb128 0x17
 6512 0a9e 8F090000 		.4byte	.LASF89
 6513 0aa2 01       		.byte	0x1
 6514 0aa3 2F04     		.2byte	0x42f
 6515 0aa5 B8000000 		.4byte	0xb8
 6516 0aa9 32       		.uleb128 0x32
 6517 0aaa 17       		.uleb128 0x17
 6518 0aab EF010000 		.4byte	.LASF114
 6519 0aaf 01       		.byte	0x1
 6520 0ab0 3204     		.2byte	0x432
 6521 0ab2 44020000 		.4byte	0x244
 6522 0ab6 00       		.byte	0
 6523 0ab7 00       		.byte	0
 6524 0ab8 33       		.uleb128 0x33
 6525 0ab9 E3030000 		.4byte	.LASF116
 6526 0abd 01       		.byte	0x1
 6527 0abe 64       		.byte	0x64
 6528 0abf 4B010000 		.4byte	0x14b
 6529 0ac3 00000000 		.4byte	.LFB330
 6530 0ac7 20010000 		.4byte	.LFE330-.LFB330
 6531 0acb 01       		.uleb128 0x1
 6532 0acc 9C       		.byte	0x9c
 6533 0acd AD0D0000 		.4byte	0xdad
 6534 0ad1 1D       		.uleb128 0x1d
 6535 0ad2 DB010000 		.4byte	.LASF84
 6536 0ad6 01       		.byte	0x1
 6537 0ad7 64       		.byte	0x64
 6538 0ad8 3B040000 		.4byte	0x43b
 6539 0adc 1D050000 		.4byte	.LLST31
 6540 0ae0 1D       		.uleb128 0x1d
 6541 0ae1 25030000 		.4byte	.LASF85
 6542 0ae5 01       		.byte	0x1
 6543 0ae6 64       		.byte	0x64
 6544 0ae7 4F020000 		.4byte	0x24f
 6545 0aeb 75050000 		.4byte	.LLST32
 6546 0aef 1B       		.uleb128 0x1b
 6547 0af0 696400   		.ascii	"id\000"
 6548 0af3 01       		.byte	0x1
 6549 0af4 69       		.byte	0x69
ARM GAS  C:\Users\strap\AppData\Local\Temp\cc7bAV43.s 			page 160


 6550 0af5 D9000000 		.4byte	0xd9
 6551 0af9 34       		.uleb128 0x34
 6552 0afa 3A0A0000 		.4byte	0xa3a
 6553 0afe 0E000000 		.4byte	.LBB176
 6554 0b02 96000000 		.4byte	.LBE176-.LBB176
 6555 0b06 01       		.byte	0x1
 6556 0b07 69       		.byte	0x69
 6557 0b08 800C0000 		.4byte	0xc80
 6558 0b0c 29       		.uleb128 0x29
 6559 0b0d 570A0000 		.4byte	0xa57
 6560 0b11 AF050000 		.4byte	.LLST33
 6561 0b15 29       		.uleb128 0x29
 6562 0b16 4B0A0000 		.4byte	0xa4b
 6563 0b1a C2050000 		.4byte	.LLST34
 6564 0b1e 2E       		.uleb128 0x2e
 6565 0b1f 0E000000 		.4byte	.LBB177
 6566 0b23 96000000 		.4byte	.LBE177-.LBB177
 6567 0b27 2F       		.uleb128 0x2f
 6568 0b28 630A0000 		.4byte	0xa63
 6569 0b2c EB050000 		.4byte	.LLST35
 6570 0b30 2F       		.uleb128 0x2f
 6571 0b31 6F0A0000 		.4byte	0xa6f
 6572 0b35 FE050000 		.4byte	.LLST36
 6573 0b39 2F       		.uleb128 0x2f
 6574 0b3a 7B0A0000 		.4byte	0xa7b
 6575 0b3e 11060000 		.4byte	.LLST37
 6576 0b42 2F       		.uleb128 0x2f
 6577 0b43 870A0000 		.4byte	0xa87
 6578 0b47 31060000 		.4byte	.LLST38
 6579 0b4b 2F       		.uleb128 0x2f
 6580 0b4c 930A0000 		.4byte	0xa93
 6581 0b50 5C060000 		.4byte	.LLST39
 6582 0b54 35       		.uleb128 0x35
 6583 0b55 9D0A0000 		.4byte	0xa9d
 6584 0b59 36       		.uleb128 0x36
 6585 0b5a 26000000 		.4byte	.LBB178
 6586 0b5e 40000000 		.4byte	.LBE178-.LBB178
 6587 0b62 CD0B0000 		.4byte	0xbcd
 6588 0b66 35       		.uleb128 0x35
 6589 0b67 AA0A0000 		.4byte	0xaaa
 6590 0b6b 2D       		.uleb128 0x2d
 6591 0b6c D7040000 		.4byte	0x4d7
 6592 0b70 26000000 		.4byte	.LBB179
 6593 0b74 1A000000 		.4byte	.LBE179-.LBB179
 6594 0b78 01       		.byte	0x1
 6595 0b79 3304     		.2byte	0x433
 6596 0b7b 29       		.uleb128 0x29
 6597 0b7c F4040000 		.4byte	0x4f4
 6598 0b80 7B060000 		.4byte	.LLST40
 6599 0b84 29       		.uleb128 0x29
 6600 0b85 E8040000 		.4byte	0x4e8
 6601 0b89 8E060000 		.4byte	.LLST41
 6602 0b8d 2D       		.uleb128 0x2d
 6603 0b8e 60040000 		.4byte	0x460
 6604 0b92 26000000 		.4byte	.LBB181
 6605 0b96 18000000 		.4byte	.LBE181-.LBB181
 6606 0b9a 01       		.byte	0x1
ARM GAS  C:\Users\strap\AppData\Local\Temp\cc7bAV43.s 			page 161


 6607 0b9b 9104     		.2byte	0x491
 6608 0b9d 29       		.uleb128 0x29
 6609 0b9e 7D040000 		.4byte	0x47d
 6610 0ba2 A1060000 		.4byte	.LLST42
 6611 0ba6 29       		.uleb128 0x29
 6612 0ba7 71040000 		.4byte	0x471
 6613 0bab B4060000 		.4byte	.LLST43
 6614 0baf 2E       		.uleb128 0x2e
 6615 0bb0 26000000 		.4byte	.LBB182
 6616 0bb4 18000000 		.4byte	.LBE182-.LBB182
 6617 0bb8 30       		.uleb128 0x30
 6618 0bb9 89040000 		.4byte	0x489
 6619 0bbd 02       		.uleb128 0x2
 6620 0bbe 91       		.byte	0x91
 6621 0bbf 66       		.sleb128 -26
 6622 0bc0 2F       		.uleb128 0x2f
 6623 0bc1 95040000 		.4byte	0x495
 6624 0bc5 C7060000 		.4byte	.LLST44
 6625 0bc9 00       		.byte	0
 6626 0bca 00       		.byte	0
 6627 0bcb 00       		.byte	0
 6628 0bcc 00       		.byte	0
 6629 0bcd 28       		.uleb128 0x28
 6630 0bce 01050000 		.4byte	0x501
 6631 0bd2 66000000 		.4byte	.LBB183
 6632 0bd6 20000000 		.4byte	.LBE183-.LBB183
 6633 0bda 01       		.byte	0x1
 6634 0bdb 4504     		.2byte	0x445
 6635 0bdd 1D0C0000 		.4byte	0xc1d
 6636 0be1 29       		.uleb128 0x29
 6637 0be2 1E050000 		.4byte	0x51e
 6638 0be6 DC060000 		.4byte	.LLST45
 6639 0bea 2C       		.uleb128 0x2c
 6640 0beb 12050000 		.4byte	0x512
 6641 0bef 2D       		.uleb128 0x2d
 6642 0bf0 AD040000 		.4byte	0x4ad
 6643 0bf4 66000000 		.4byte	.LBB185
 6644 0bf8 1E000000 		.4byte	.LBE185-.LBB185
 6645 0bfc 01       		.byte	0x1
 6646 0bfd AE04     		.2byte	0x4ae
 6647 0bff 29       		.uleb128 0x29
 6648 0c00 BE040000 		.4byte	0x4be
 6649 0c04 EF060000 		.4byte	.LLST46
 6650 0c08 2E       		.uleb128 0x2e
 6651 0c09 66000000 		.4byte	.LBB186
 6652 0c0d 1E000000 		.4byte	.LBE186-.LBB186
 6653 0c11 2F       		.uleb128 0x2f
 6654 0c12 CA040000 		.4byte	0x4ca
 6655 0c16 23070000 		.4byte	.LLST47
 6656 0c1a 00       		.byte	0
 6657 0c1b 00       		.byte	0
 6658 0c1c 00       		.byte	0
 6659 0c1d 2D       		.uleb128 0x2d
 6660 0c1e 2B050000 		.4byte	0x52b
 6661 0c22 86000000 		.4byte	.LBB187
 6662 0c26 14000000 		.4byte	.LBE187-.LBB187
 6663 0c2a 01       		.byte	0x1
ARM GAS  C:\Users\strap\AppData\Local\Temp\cc7bAV43.s 			page 162


 6664 0c2b 3004     		.2byte	0x430
 6665 0c2d 29       		.uleb128 0x29
 6666 0c2e 48050000 		.4byte	0x548
 6667 0c32 37070000 		.4byte	.LLST48
 6668 0c36 29       		.uleb128 0x29
 6669 0c37 3C050000 		.4byte	0x53c
 6670 0c3b 4A070000 		.4byte	.LLST49
 6671 0c3f 2D       		.uleb128 0x2d
 6672 0c40 60040000 		.4byte	0x460
 6673 0c44 86000000 		.4byte	.LBB189
 6674 0c48 10000000 		.4byte	.LBE189-.LBB189
 6675 0c4c 01       		.byte	0x1
 6676 0c4d 8604     		.2byte	0x486
 6677 0c4f 29       		.uleb128 0x29
 6678 0c50 7D040000 		.4byte	0x47d
 6679 0c54 5D070000 		.4byte	.LLST50
 6680 0c58 29       		.uleb128 0x29
 6681 0c59 71040000 		.4byte	0x471
 6682 0c5d 70070000 		.4byte	.LLST51
 6683 0c61 2E       		.uleb128 0x2e
 6684 0c62 86000000 		.4byte	.LBB190
 6685 0c66 10000000 		.4byte	.LBE190-.LBB190
 6686 0c6a 30       		.uleb128 0x30
 6687 0c6b 89040000 		.4byte	0x489
 6688 0c6f 02       		.uleb128 0x2
 6689 0c70 91       		.byte	0x91
 6690 0c71 66       		.sleb128 -26
 6691 0c72 2F       		.uleb128 0x2f
 6692 0c73 95040000 		.4byte	0x495
 6693 0c77 83070000 		.4byte	.LLST52
 6694 0c7b 00       		.byte	0
 6695 0c7c 00       		.byte	0
 6696 0c7d 00       		.byte	0
 6697 0c7e 00       		.byte	0
 6698 0c7f 00       		.byte	0
 6699 0c80 2E       		.uleb128 0x2e
 6700 0c81 A8000000 		.4byte	.LBB191
 6701 0c85 68000000 		.4byte	.LBE191-.LBB191
 6702 0c89 37       		.uleb128 0x37
 6703 0c8a DF070000 		.4byte	.LASF117
 6704 0c8e 01       		.byte	0x1
 6705 0c8f 6C       		.byte	0x6c
 6706 0c90 44020000 		.4byte	0x244
 6707 0c94 21       		.uleb128 0x21
 6708 0c95 9E030000 		.4byte	.LASF118
 6709 0c99 01       		.byte	0x1
 6710 0c9a 6D       		.byte	0x6d
 6711 0c9b 44020000 		.4byte	0x244
 6712 0c9f 98070000 		.4byte	.LLST53
 6713 0ca3 34       		.uleb128 0x34
 6714 0ca4 D7040000 		.4byte	0x4d7
 6715 0ca8 AA000000 		.4byte	.LBB192
 6716 0cac 14000000 		.4byte	.LBE192-.LBB192
 6717 0cb0 01       		.byte	0x1
 6718 0cb1 6F       		.byte	0x6f
 6719 0cb2 070D0000 		.4byte	0xd07
 6720 0cb6 29       		.uleb128 0x29
ARM GAS  C:\Users\strap\AppData\Local\Temp\cc7bAV43.s 			page 163


 6721 0cb7 F4040000 		.4byte	0x4f4
 6722 0cbb 05080000 		.4byte	.LLST54
 6723 0cbf 29       		.uleb128 0x29
 6724 0cc0 E8040000 		.4byte	0x4e8
 6725 0cc4 18080000 		.4byte	.LLST55
 6726 0cc8 2D       		.uleb128 0x2d
 6727 0cc9 60040000 		.4byte	0x460
 6728 0ccd AA000000 		.4byte	.LBB194
 6729 0cd1 14000000 		.4byte	.LBE194-.LBB194
 6730 0cd5 01       		.byte	0x1
 6731 0cd6 9104     		.2byte	0x491
 6732 0cd8 29       		.uleb128 0x29
 6733 0cd9 7D040000 		.4byte	0x47d
 6734 0cdd 05080000 		.4byte	.LLST54
 6735 0ce1 29       		.uleb128 0x29
 6736 0ce2 71040000 		.4byte	0x471
 6737 0ce6 18080000 		.4byte	.LLST55
 6738 0cea 2E       		.uleb128 0x2e
 6739 0ceb AA000000 		.4byte	.LBB195
 6740 0cef 14000000 		.4byte	.LBE195-.LBB195
 6741 0cf3 30       		.uleb128 0x30
 6742 0cf4 89040000 		.4byte	0x489
 6743 0cf8 02       		.uleb128 0x2
 6744 0cf9 91       		.byte	0x91
 6745 0cfa 66       		.sleb128 -26
 6746 0cfb 2F       		.uleb128 0x2f
 6747 0cfc 95040000 		.4byte	0x495
 6748 0d00 2B080000 		.4byte	.LLST58
 6749 0d04 00       		.byte	0
 6750 0d05 00       		.byte	0
 6751 0d06 00       		.byte	0
 6752 0d07 2E       		.uleb128 0x2e
 6753 0d08 CC000000 		.4byte	.LBB196
 6754 0d0c 44000000 		.4byte	.LBE196-.LBB196
 6755 0d10 21       		.uleb128 0x21
 6756 0d11 A2020000 		.4byte	.LASF119
 6757 0d15 01       		.byte	0x1
 6758 0d16 73       		.byte	0x73
 6759 0d17 E4000000 		.4byte	0xe4
 6760 0d1b 4D080000 		.4byte	.LLST59
 6761 0d1f 21       		.uleb128 0x21
 6762 0d20 3C010000 		.4byte	.LASF120
 6763 0d24 01       		.byte	0x1
 6764 0d25 74       		.byte	0x74
 6765 0d26 B8000000 		.4byte	0xb8
 6766 0d2a 60080000 		.4byte	.LLST60
 6767 0d2e 20       		.uleb128 0x20
 6768 0d2f 6900     		.ascii	"i\000"
 6769 0d31 01       		.byte	0x1
 6770 0d32 77       		.byte	0x77
 6771 0d33 E4000000 		.4byte	0xe4
 6772 0d37 73080000 		.4byte	.LLST61
 6773 0d3b 34       		.uleb128 0x34
 6774 0d3c AD040000 		.4byte	0x4ad
 6775 0d40 D2000000 		.4byte	.LBB197
 6776 0d44 1E000000 		.4byte	.LBE197-.LBB197
 6777 0d48 01       		.byte	0x1
ARM GAS  C:\Users\strap\AppData\Local\Temp\cc7bAV43.s 			page 164


 6778 0d49 74       		.byte	0x74
 6779 0d4a 6B0D0000 		.4byte	0xd6b
 6780 0d4e 29       		.uleb128 0x29
 6781 0d4f BE040000 		.4byte	0x4be
 6782 0d53 86080000 		.4byte	.LLST62
 6783 0d57 2E       		.uleb128 0x2e
 6784 0d58 D2000000 		.4byte	.LBB198
 6785 0d5c 1E000000 		.4byte	.LBE198-.LBB198
 6786 0d60 2F       		.uleb128 0x2f
 6787 0d61 CA040000 		.4byte	0x4ca
 6788 0d65 A4080000 		.4byte	.LLST63
 6789 0d69 00       		.byte	0
 6790 0d6a 00       		.byte	0
 6791 0d6b 34       		.uleb128 0x34
 6792 0d6c 7E050000 		.4byte	0x57e
 6793 0d70 04010000 		.4byte	.LBB199
 6794 0d74 08000000 		.4byte	.LBE199-.LBB199
 6795 0d78 01       		.byte	0x1
 6796 0d79 7C       		.byte	0x7c
 6797 0d7a 9A0D0000 		.4byte	0xd9a
 6798 0d7e 29       		.uleb128 0x29
 6799 0d7f 97050000 		.4byte	0x597
 6800 0d83 B8080000 		.4byte	.LLST64
 6801 0d87 29       		.uleb128 0x29
 6802 0d88 8B050000 		.4byte	0x58b
 6803 0d8c CB080000 		.4byte	.LLST65
 6804 0d90 24       		.uleb128 0x24
 6805 0d91 0A010000 		.4byte	.LVL135
 6806 0d95 E2320000 		.4byte	0x32e2
 6807 0d99 00       		.byte	0
 6808 0d9a 1E       		.uleb128 0x1e
 6809 0d9b D2000000 		.4byte	.LVL122
 6810 0d9f C9080000 		.4byte	0x8c9
 6811 0da3 1F       		.uleb128 0x1f
 6812 0da4 01       		.uleb128 0x1
 6813 0da5 50       		.byte	0x50
 6814 0da6 02       		.uleb128 0x2
 6815 0da7 74       		.byte	0x74
 6816 0da8 00       		.sleb128 0
 6817 0da9 00       		.byte	0
 6818 0daa 00       		.byte	0
 6819 0dab 00       		.byte	0
 6820 0dac 00       		.byte	0
 6821 0dad 2A       		.uleb128 0x2a
 6822 0dae C2080000 		.4byte	.LASF121
 6823 0db2 01       		.byte	0x1
 6824 0db3 6801     		.2byte	0x168
 6825 0db5 00000000 		.4byte	.LFB338
 6826 0db9 74010000 		.4byte	.LFE338-.LFB338
 6827 0dbd 01       		.uleb128 0x1
 6828 0dbe 9C       		.byte	0x9c
 6829 0dbf D8110000 		.4byte	0x11d8
 6830 0dc3 27       		.uleb128 0x27
 6831 0dc4 DB010000 		.4byte	.LASF84
 6832 0dc8 01       		.byte	0x1
 6833 0dc9 6801     		.2byte	0x168
 6834 0dcb 3B040000 		.4byte	0x43b
ARM GAS  C:\Users\strap\AppData\Local\Temp\cc7bAV43.s 			page 165


 6835 0dcf DE080000 		.4byte	.LLST66
 6836 0dd3 27       		.uleb128 0x27
 6837 0dd4 25030000 		.4byte	.LASF85
 6838 0dd8 01       		.byte	0x1
 6839 0dd9 6801     		.2byte	0x168
 6840 0ddb 4F020000 		.4byte	0x24f
 6841 0ddf 23090000 		.4byte	.LLST67
 6842 0de3 27       		.uleb128 0x27
 6843 0de4 81020000 		.4byte	.LASF122
 6844 0de8 01       		.byte	0x1
 6845 0de9 6801     		.2byte	0x168
 6846 0deb 80020000 		.4byte	0x280
 6847 0def 8B090000 		.4byte	.LLST68
 6848 0df3 31       		.uleb128 0x31
 6849 0df4 696400   		.ascii	"id\000"
 6850 0df7 01       		.byte	0x1
 6851 0df8 6C01     		.2byte	0x16c
 6852 0dfa D9000000 		.4byte	0xd9
 6853 0dfe 22       		.uleb128 0x22
 6854 0dff 46010000 		.4byte	.LASF123
 6855 0e03 01       		.byte	0x1
 6856 0e04 7C01     		.2byte	0x17c
 6857 0e06 B8000000 		.4byte	0xb8
 6858 0e0a FF090000 		.4byte	.LLST69
 6859 0e0e 38       		.uleb128 0x38
 6860 0e0f B0080000 		.4byte	.LASF124
 6861 0e13 01       		.byte	0x1
 6862 0e14 7D01     		.2byte	0x17d
 6863 0e16 4F020000 		.4byte	0x24f
 6864 0e1a 02       		.uleb128 0x2
 6865 0e1b 91       		.byte	0x91
 6866 0e1c 66       		.sleb128 -26
 6867 0e1d 22       		.uleb128 0x22
 6868 0e1e 01010000 		.4byte	.LASF125
 6869 0e22 01       		.byte	0x1
 6870 0e23 7E01     		.2byte	0x17e
 6871 0e25 B8000000 		.4byte	0xb8
 6872 0e29 130A0000 		.4byte	.LLST70
 6873 0e2d 22       		.uleb128 0x22
 6874 0e2e 2D010000 		.4byte	.LASF90
 6875 0e32 01       		.byte	0x1
 6876 0e33 8001     		.2byte	0x180
 6877 0e35 CE000000 		.4byte	0xce
 6878 0e39 270A0000 		.4byte	.LLST71
 6879 0e3d 28       		.uleb128 0x28
 6880 0e3e 3A0A0000 		.4byte	0xa3a
 6881 0e42 0C000000 		.4byte	.LBB231
 6882 0e46 92000000 		.4byte	.LBE231-.LBB231
 6883 0e4a 01       		.byte	0x1
 6884 0e4b 6C01     		.2byte	0x16c
 6885 0e4d C50F0000 		.4byte	0xfc5
 6886 0e51 29       		.uleb128 0x29
 6887 0e52 570A0000 		.4byte	0xa57
 6888 0e56 450A0000 		.4byte	.LLST72
 6889 0e5a 29       		.uleb128 0x29
 6890 0e5b 4B0A0000 		.4byte	0xa4b
 6891 0e5f 6F0A0000 		.4byte	.LLST73
ARM GAS  C:\Users\strap\AppData\Local\Temp\cc7bAV43.s 			page 166


 6892 0e63 2E       		.uleb128 0x2e
 6893 0e64 0C000000 		.4byte	.LBB232
 6894 0e68 92000000 		.4byte	.LBE232-.LBB232
 6895 0e6c 2F       		.uleb128 0x2f
 6896 0e6d 630A0000 		.4byte	0xa63
 6897 0e71 820A0000 		.4byte	.LLST74
 6898 0e75 2F       		.uleb128 0x2f
 6899 0e76 6F0A0000 		.4byte	0xa6f
 6900 0e7a 950A0000 		.4byte	.LLST75
 6901 0e7e 2F       		.uleb128 0x2f
 6902 0e7f 7B0A0000 		.4byte	0xa7b
 6903 0e83 A80A0000 		.4byte	.LLST76
 6904 0e87 2F       		.uleb128 0x2f
 6905 0e88 870A0000 		.4byte	0xa87
 6906 0e8c C80A0000 		.4byte	.LLST77
 6907 0e90 2F       		.uleb128 0x2f
 6908 0e91 930A0000 		.4byte	0xa93
 6909 0e95 E80A0000 		.4byte	.LLST78
 6910 0e99 35       		.uleb128 0x35
 6911 0e9a 9D0A0000 		.4byte	0xa9d
 6912 0e9e 36       		.uleb128 0x36
 6913 0e9f 24000000 		.4byte	.LBB233
 6914 0ea3 3A000000 		.4byte	.LBE233-.LBB233
 6915 0ea7 120F0000 		.4byte	0xf12
 6916 0eab 35       		.uleb128 0x35
 6917 0eac AA0A0000 		.4byte	0xaaa
 6918 0eb0 2D       		.uleb128 0x2d
 6919 0eb1 D7040000 		.4byte	0x4d7
 6920 0eb5 24000000 		.4byte	.LBB234
 6921 0eb9 1A000000 		.4byte	.LBE234-.LBB234
 6922 0ebd 01       		.byte	0x1
 6923 0ebe 3304     		.2byte	0x433
 6924 0ec0 29       		.uleb128 0x29
 6925 0ec1 F4040000 		.4byte	0x4f4
 6926 0ec5 140B0000 		.4byte	.LLST79
 6927 0ec9 29       		.uleb128 0x29
 6928 0eca E8040000 		.4byte	0x4e8
 6929 0ece 270B0000 		.4byte	.LLST80
 6930 0ed2 2D       		.uleb128 0x2d
 6931 0ed3 60040000 		.4byte	0x460
 6932 0ed7 24000000 		.4byte	.LBB236
 6933 0edb 18000000 		.4byte	.LBE236-.LBB236
 6934 0edf 01       		.byte	0x1
 6935 0ee0 9104     		.2byte	0x491
 6936 0ee2 29       		.uleb128 0x29
 6937 0ee3 7D040000 		.4byte	0x47d
 6938 0ee7 3A0B0000 		.4byte	.LLST81
 6939 0eeb 29       		.uleb128 0x29
 6940 0eec 71040000 		.4byte	0x471
 6941 0ef0 4D0B0000 		.4byte	.LLST82
 6942 0ef4 2E       		.uleb128 0x2e
 6943 0ef5 24000000 		.4byte	.LBB237
 6944 0ef9 18000000 		.4byte	.LBE237-.LBB237
 6945 0efd 30       		.uleb128 0x30
 6946 0efe 89040000 		.4byte	0x489
 6947 0f02 02       		.uleb128 0x2
 6948 0f03 91       		.byte	0x91
ARM GAS  C:\Users\strap\AppData\Local\Temp\cc7bAV43.s 			page 167


 6949 0f04 64       		.sleb128 -28
 6950 0f05 2F       		.uleb128 0x2f
 6951 0f06 95040000 		.4byte	0x495
 6952 0f0a 600B0000 		.4byte	.LLST83
 6953 0f0e 00       		.byte	0
 6954 0f0f 00       		.byte	0
 6955 0f10 00       		.byte	0
 6956 0f11 00       		.byte	0
 6957 0f12 28       		.uleb128 0x28
 6958 0f13 01050000 		.4byte	0x501
 6959 0f17 5E000000 		.4byte	.LBB238
 6960 0f1b 20000000 		.4byte	.LBE238-.LBB238
 6961 0f1f 01       		.byte	0x1
 6962 0f20 4504     		.2byte	0x445
 6963 0f22 620F0000 		.4byte	0xf62
 6964 0f26 29       		.uleb128 0x29
 6965 0f27 1E050000 		.4byte	0x51e
 6966 0f2b 750B0000 		.4byte	.LLST84
 6967 0f2f 2C       		.uleb128 0x2c
 6968 0f30 12050000 		.4byte	0x512
 6969 0f34 2D       		.uleb128 0x2d
 6970 0f35 AD040000 		.4byte	0x4ad
 6971 0f39 5E000000 		.4byte	.LBB240
 6972 0f3d 1E000000 		.4byte	.LBE240-.LBB240
 6973 0f41 01       		.byte	0x1
 6974 0f42 AE04     		.2byte	0x4ae
 6975 0f44 29       		.uleb128 0x29
 6976 0f45 BE040000 		.4byte	0x4be
 6977 0f49 880B0000 		.4byte	.LLST85
 6978 0f4d 2E       		.uleb128 0x2e
 6979 0f4e 5E000000 		.4byte	.LBB241
 6980 0f52 1E000000 		.4byte	.LBE241-.LBB241
 6981 0f56 2F       		.uleb128 0x2f
 6982 0f57 CA040000 		.4byte	0x4ca
 6983 0f5b BC0B0000 		.4byte	.LLST86
 6984 0f5f 00       		.byte	0
 6985 0f60 00       		.byte	0
 6986 0f61 00       		.byte	0
 6987 0f62 2D       		.uleb128 0x2d
 6988 0f63 2B050000 		.4byte	0x52b
 6989 0f67 7E000000 		.4byte	.LBB242
 6990 0f6b 14000000 		.4byte	.LBE242-.LBB242
 6991 0f6f 01       		.byte	0x1
 6992 0f70 3004     		.2byte	0x430
 6993 0f72 29       		.uleb128 0x29
 6994 0f73 48050000 		.4byte	0x548
 6995 0f77 D00B0000 		.4byte	.LLST87
 6996 0f7b 29       		.uleb128 0x29
 6997 0f7c 3C050000 		.4byte	0x53c
 6998 0f80 E30B0000 		.4byte	.LLST88
 6999 0f84 2D       		.uleb128 0x2d
 7000 0f85 60040000 		.4byte	0x460
 7001 0f89 7E000000 		.4byte	.LBB244
 7002 0f8d 10000000 		.4byte	.LBE244-.LBB244
 7003 0f91 01       		.byte	0x1
 7004 0f92 8604     		.2byte	0x486
 7005 0f94 29       		.uleb128 0x29
ARM GAS  C:\Users\strap\AppData\Local\Temp\cc7bAV43.s 			page 168


 7006 0f95 7D040000 		.4byte	0x47d
 7007 0f99 F60B0000 		.4byte	.LLST89
 7008 0f9d 29       		.uleb128 0x29
 7009 0f9e 71040000 		.4byte	0x471
 7010 0fa2 090C0000 		.4byte	.LLST90
 7011 0fa6 2E       		.uleb128 0x2e
 7012 0fa7 7E000000 		.4byte	.LBB245
 7013 0fab 10000000 		.4byte	.LBE245-.LBB245
 7014 0faf 30       		.uleb128 0x30
 7015 0fb0 89040000 		.4byte	0x489
 7016 0fb4 02       		.uleb128 0x2
 7017 0fb5 91       		.byte	0x91
 7018 0fb6 64       		.sleb128 -28
 7019 0fb7 2F       		.uleb128 0x2f
 7020 0fb8 95040000 		.4byte	0x495
 7021 0fbc 1C0C0000 		.4byte	.LLST91
 7022 0fc0 00       		.byte	0
 7023 0fc1 00       		.byte	0
 7024 0fc2 00       		.byte	0
 7025 0fc3 00       		.byte	0
 7026 0fc4 00       		.byte	0
 7027 0fc5 36       		.uleb128 0x36
 7028 0fc6 A2000000 		.4byte	.LBB246
 7029 0fca 42000000 		.4byte	.LBE246-.LBB246
 7030 0fce 98100000 		.4byte	0x1098
 7031 0fd2 17       		.uleb128 0x17
 7032 0fd3 DF070000 		.4byte	.LASF117
 7033 0fd7 01       		.byte	0x1
 7034 0fd8 6F01     		.2byte	0x16f
 7035 0fda 44020000 		.4byte	0x244
 7036 0fde 22       		.uleb128 0x22
 7037 0fdf 9E030000 		.4byte	.LASF118
 7038 0fe3 01       		.byte	0x1
 7039 0fe4 7001     		.2byte	0x170
 7040 0fe6 44020000 		.4byte	0x244
 7041 0fea 310C0000 		.4byte	.LLST92
 7042 0fee 28       		.uleb128 0x28
 7043 0fef D7040000 		.4byte	0x4d7
 7044 0ff3 A2000000 		.4byte	.LBB247
 7045 0ff7 14000000 		.4byte	.LBE247-.LBB247
 7046 0ffb 01       		.byte	0x1
 7047 0ffc 7201     		.2byte	0x172
 7048 0ffe 53100000 		.4byte	0x1053
 7049 1002 29       		.uleb128 0x29
 7050 1003 F4040000 		.4byte	0x4f4
 7051 1007 590C0000 		.4byte	.LLST93
 7052 100b 29       		.uleb128 0x29
 7053 100c E8040000 		.4byte	0x4e8
 7054 1010 6C0C0000 		.4byte	.LLST94
 7055 1014 2D       		.uleb128 0x2d
 7056 1015 60040000 		.4byte	0x460
 7057 1019 A2000000 		.4byte	.LBB249
 7058 101d 14000000 		.4byte	.LBE249-.LBB249
 7059 1021 01       		.byte	0x1
 7060 1022 9104     		.2byte	0x491
 7061 1024 29       		.uleb128 0x29
 7062 1025 7D040000 		.4byte	0x47d
ARM GAS  C:\Users\strap\AppData\Local\Temp\cc7bAV43.s 			page 169


 7063 1029 590C0000 		.4byte	.LLST93
 7064 102d 29       		.uleb128 0x29
 7065 102e 71040000 		.4byte	0x471
 7066 1032 6C0C0000 		.4byte	.LLST94
 7067 1036 2E       		.uleb128 0x2e
 7068 1037 A2000000 		.4byte	.LBB250
 7069 103b 14000000 		.4byte	.LBE250-.LBB250
 7070 103f 30       		.uleb128 0x30
 7071 1040 89040000 		.4byte	0x489
 7072 1044 02       		.uleb128 0x2
 7073 1045 91       		.byte	0x91
 7074 1046 64       		.sleb128 -28
 7075 1047 2F       		.uleb128 0x2f
 7076 1048 95040000 		.4byte	0x495
 7077 104c 7F0C0000 		.4byte	.LLST97
 7078 1050 00       		.byte	0
 7079 1051 00       		.byte	0
 7080 1052 00       		.byte	0
 7081 1053 39       		.uleb128 0x39
 7082 1054 A3050000 		.4byte	0x5a3
 7083 1058 CC000000 		.4byte	.LBB251
 7084 105c 00000000 		.4byte	.Ldebug_ranges0+0
 7085 1060 01       		.byte	0x1
 7086 1061 7601     		.2byte	0x176
 7087 1063 29       		.uleb128 0x29
 7088 1064 C9050000 		.4byte	0x5c9
 7089 1068 940C0000 		.4byte	.LLST98
 7090 106c 29       		.uleb128 0x29
 7091 106d BE050000 		.4byte	0x5be
 7092 1071 B30C0000 		.4byte	.LLST99
 7093 1075 29       		.uleb128 0x29
 7094 1076 B3050000 		.4byte	0x5b3
 7095 107a E00C0000 		.4byte	.LLST100
 7096 107e 3A       		.uleb128 0x3a
 7097 107f 00000000 		.4byte	.Ldebug_ranges0+0
 7098 1083 2F       		.uleb128 0x2f
 7099 1084 D4050000 		.4byte	0x5d4
 7100 1088 F30C0000 		.4byte	.LLST101
 7101 108c 2F       		.uleb128 0x2f
 7102 108d DE050000 		.4byte	0x5de
 7103 1091 060D0000 		.4byte	.LLST102
 7104 1095 00       		.byte	0
 7105 1096 00       		.byte	0
 7106 1097 00       		.byte	0
 7107 1098 28       		.uleb128 0x28
 7108 1099 7E050000 		.4byte	0x57e
 7109 109d FA000000 		.4byte	.LBB255
 7110 10a1 0A000000 		.4byte	.LBE255-.LBB255
 7111 10a5 01       		.byte	0x1
 7112 10a6 8301     		.2byte	0x183
 7113 10a8 CF100000 		.4byte	0x10cf
 7114 10ac 29       		.uleb128 0x29
 7115 10ad 97050000 		.4byte	0x597
 7116 10b1 3E0D0000 		.4byte	.LLST103
 7117 10b5 29       		.uleb128 0x29
 7118 10b6 8B050000 		.4byte	0x58b
 7119 10ba 510D0000 		.4byte	.LLST104
ARM GAS  C:\Users\strap\AppData\Local\Temp\cc7bAV43.s 			page 170


 7120 10be 1E       		.uleb128 0x1e
 7121 10bf 02010000 		.4byte	.LVL184
 7122 10c3 E2320000 		.4byte	0x32e2
 7123 10c7 1F       		.uleb128 0x1f
 7124 10c8 01       		.uleb128 0x1
 7125 10c9 51       		.byte	0x51
 7126 10ca 02       		.uleb128 0x2
 7127 10cb 74       		.byte	0x74
 7128 10cc 00       		.sleb128 0
 7129 10cd 00       		.byte	0
 7130 10ce 00       		.byte	0
 7131 10cf 3B       		.uleb128 0x3b
 7132 10d0 A3050000 		.4byte	0x5a3
 7133 10d4 1E010000 		.4byte	.LBB257
 7134 10d8 18000000 		.4byte	.Ldebug_ranges0+0x18
 7135 10dc 01       		.byte	0x1
 7136 10dd 8701     		.2byte	0x187
 7137 10df 17110000 		.4byte	0x1117
 7138 10e3 29       		.uleb128 0x29
 7139 10e4 C9050000 		.4byte	0x5c9
 7140 10e8 640D0000 		.4byte	.LLST105
 7141 10ec 29       		.uleb128 0x29
 7142 10ed BE050000 		.4byte	0x5be
 7143 10f1 830D0000 		.4byte	.LLST106
 7144 10f5 29       		.uleb128 0x29
 7145 10f6 B3050000 		.4byte	0x5b3
 7146 10fa B00D0000 		.4byte	.LLST107
 7147 10fe 3A       		.uleb128 0x3a
 7148 10ff 18000000 		.4byte	.Ldebug_ranges0+0x18
 7149 1103 2F       		.uleb128 0x2f
 7150 1104 D4050000 		.4byte	0x5d4
 7151 1108 C30D0000 		.4byte	.LLST108
 7152 110c 2F       		.uleb128 0x2f
 7153 110d DE050000 		.4byte	0x5de
 7154 1111 D60D0000 		.4byte	.LLST109
 7155 1115 00       		.byte	0
 7156 1116 00       		.byte	0
 7157 1117 3B       		.uleb128 0x3b
 7158 1118 A3050000 		.4byte	0x5a3
 7159 111c 3A010000 		.4byte	.LBB261
 7160 1120 30000000 		.4byte	.Ldebug_ranges0+0x30
 7161 1124 01       		.byte	0x1
 7162 1125 8801     		.2byte	0x188
 7163 1127 5F110000 		.4byte	0x115f
 7164 112b 29       		.uleb128 0x29
 7165 112c C9050000 		.4byte	0x5c9
 7166 1130 0E0E0000 		.4byte	.LLST110
 7167 1134 29       		.uleb128 0x29
 7168 1135 BE050000 		.4byte	0x5be
 7169 1139 2D0E0000 		.4byte	.LLST111
 7170 113d 29       		.uleb128 0x29
 7171 113e B3050000 		.4byte	0x5b3
 7172 1142 5A0E0000 		.4byte	.LLST112
 7173 1146 3A       		.uleb128 0x3a
 7174 1147 30000000 		.4byte	.Ldebug_ranges0+0x30
 7175 114b 2F       		.uleb128 0x2f
 7176 114c D4050000 		.4byte	0x5d4
ARM GAS  C:\Users\strap\AppData\Local\Temp\cc7bAV43.s 			page 171


 7177 1150 6D0E0000 		.4byte	.LLST113
 7178 1154 2F       		.uleb128 0x2f
 7179 1155 DE050000 		.4byte	0x5de
 7180 1159 800E0000 		.4byte	.LLST114
 7181 115d 00       		.byte	0
 7182 115e 00       		.byte	0
 7183 115f 3B       		.uleb128 0x3b
 7184 1160 A3050000 		.4byte	0x5a3
 7185 1164 54010000 		.4byte	.LBB265
 7186 1168 48000000 		.4byte	.Ldebug_ranges0+0x48
 7187 116c 01       		.byte	0x1
 7188 116d 8901     		.2byte	0x189
 7189 116f A7110000 		.4byte	0x11a7
 7190 1173 29       		.uleb128 0x29
 7191 1174 C9050000 		.4byte	0x5c9
 7192 1178 AB0E0000 		.4byte	.LLST115
 7193 117c 29       		.uleb128 0x29
 7194 117d BE050000 		.4byte	0x5be
 7195 1181 CA0E0000 		.4byte	.LLST116
 7196 1185 29       		.uleb128 0x29
 7197 1186 B3050000 		.4byte	0x5b3
 7198 118a F70E0000 		.4byte	.LLST117
 7199 118e 3A       		.uleb128 0x3a
 7200 118f 48000000 		.4byte	.Ldebug_ranges0+0x48
 7201 1193 2F       		.uleb128 0x2f
 7202 1194 D4050000 		.4byte	0x5d4
 7203 1198 0A0F0000 		.4byte	.LLST118
 7204 119c 2F       		.uleb128 0x2f
 7205 119d DE050000 		.4byte	0x5de
 7206 11a1 1D0F0000 		.4byte	.LLST119
 7207 11a5 00       		.byte	0
 7208 11a6 00       		.byte	0
 7209 11a7 25       		.uleb128 0x25
 7210 11a8 EE000000 		.4byte	.LVL180
 7211 11ac C9080000 		.4byte	0x8c9
 7212 11b0 BB110000 		.4byte	0x11bb
 7213 11b4 1F       		.uleb128 0x1f
 7214 11b5 01       		.uleb128 0x1
 7215 11b6 50       		.byte	0x50
 7216 11b7 02       		.uleb128 0x2
 7217 11b8 75       		.byte	0x75
 7218 11b9 00       		.sleb128 0
 7219 11ba 00       		.byte	0
 7220 11bb 24       		.uleb128 0x24
 7221 11bc 08010000 		.4byte	.LVL186
 7222 11c0 CC320000 		.4byte	0x32cc
 7223 11c4 1E       		.uleb128 0x1e
 7224 11c5 14010000 		.4byte	.LVL187
 7225 11c9 D7320000 		.4byte	0x32d7
 7226 11cd 1F       		.uleb128 0x1f
 7227 11ce 01       		.uleb128 0x1
 7228 11cf 50       		.byte	0x50
 7229 11d0 05       		.uleb128 0x5
 7230 11d1 03       		.byte	0x3
 7231 11d2 00000000 		.4byte	.LC0
 7232 11d6 00       		.byte	0
 7233 11d7 00       		.byte	0
ARM GAS  C:\Users\strap\AppData\Local\Temp\cc7bAV43.s 			page 172


 7234 11d8 2A       		.uleb128 0x2a
 7235 11d9 63040000 		.4byte	.LASF126
 7236 11dd 01       		.byte	0x1
 7237 11de 9601     		.2byte	0x196
 7238 11e0 00000000 		.4byte	.LFB339
 7239 11e4 74010000 		.4byte	.LFE339-.LFB339
 7240 11e8 01       		.uleb128 0x1
 7241 11e9 9C       		.byte	0x9c
 7242 11ea 02160000 		.4byte	0x1602
 7243 11ee 27       		.uleb128 0x27
 7244 11ef DB010000 		.4byte	.LASF84
 7245 11f3 01       		.byte	0x1
 7246 11f4 9601     		.2byte	0x196
 7247 11f6 3B040000 		.4byte	0x43b
 7248 11fa 480F0000 		.4byte	.LLST120
 7249 11fe 27       		.uleb128 0x27
 7250 11ff 25030000 		.4byte	.LASF85
 7251 1203 01       		.byte	0x1
 7252 1204 9601     		.2byte	0x196
 7253 1206 4F020000 		.4byte	0x24f
 7254 120a 8D0F0000 		.4byte	.LLST121
 7255 120e 3C       		.uleb128 0x3c
 7256 120f EF070000 		.4byte	.LASF127
 7257 1213 01       		.byte	0x1
 7258 1214 9601     		.2byte	0x196
 7259 1216 26020000 		.4byte	0x226
 7260 121a 02       		.uleb128 0x2
 7261 121b 91       		.byte	0x91
 7262 121c 5C       		.sleb128 -36
 7263 121d 31       		.uleb128 0x31
 7264 121e 696400   		.ascii	"id\000"
 7265 1221 01       		.byte	0x1
 7266 1222 9A01     		.2byte	0x19a
 7267 1224 D9000000 		.4byte	0xd9
 7268 1228 22       		.uleb128 0x22
 7269 1229 46010000 		.4byte	.LASF123
 7270 122d 01       		.byte	0x1
 7271 122e AA01     		.2byte	0x1aa
 7272 1230 B8000000 		.4byte	0xb8
 7273 1234 F50F0000 		.4byte	.LLST122
 7274 1238 38       		.uleb128 0x38
 7275 1239 B0080000 		.4byte	.LASF124
 7276 123d 01       		.byte	0x1
 7277 123e AB01     		.2byte	0x1ab
 7278 1240 4F020000 		.4byte	0x24f
 7279 1244 02       		.uleb128 0x2
 7280 1245 91       		.byte	0x91
 7281 1246 66       		.sleb128 -26
 7282 1247 22       		.uleb128 0x22
 7283 1248 01010000 		.4byte	.LASF125
 7284 124c 01       		.byte	0x1
 7285 124d AC01     		.2byte	0x1ac
 7286 124f B8000000 		.4byte	0xb8
 7287 1253 09100000 		.4byte	.LLST123
 7288 1257 22       		.uleb128 0x22
 7289 1258 2D010000 		.4byte	.LASF90
 7290 125c 01       		.byte	0x1
ARM GAS  C:\Users\strap\AppData\Local\Temp\cc7bAV43.s 			page 173


 7291 125d AE01     		.2byte	0x1ae
 7292 125f CE000000 		.4byte	0xce
 7293 1263 1D100000 		.4byte	.LLST124
 7294 1267 28       		.uleb128 0x28
 7295 1268 3A0A0000 		.4byte	0xa3a
 7296 126c 0C000000 		.4byte	.LBB299
 7297 1270 92000000 		.4byte	.LBE299-.LBB299
 7298 1274 01       		.byte	0x1
 7299 1275 9A01     		.2byte	0x19a
 7300 1277 EF130000 		.4byte	0x13ef
 7301 127b 29       		.uleb128 0x29
 7302 127c 570A0000 		.4byte	0xa57
 7303 1280 3B100000 		.4byte	.LLST125
 7304 1284 29       		.uleb128 0x29
 7305 1285 4B0A0000 		.4byte	0xa4b
 7306 1289 65100000 		.4byte	.LLST126
 7307 128d 2E       		.uleb128 0x2e
 7308 128e 0C000000 		.4byte	.LBB300
 7309 1292 92000000 		.4byte	.LBE300-.LBB300
 7310 1296 2F       		.uleb128 0x2f
 7311 1297 630A0000 		.4byte	0xa63
 7312 129b 78100000 		.4byte	.LLST127
 7313 129f 2F       		.uleb128 0x2f
 7314 12a0 6F0A0000 		.4byte	0xa6f
 7315 12a4 8B100000 		.4byte	.LLST128
 7316 12a8 2F       		.uleb128 0x2f
 7317 12a9 7B0A0000 		.4byte	0xa7b
 7318 12ad 9E100000 		.4byte	.LLST129
 7319 12b1 2F       		.uleb128 0x2f
 7320 12b2 870A0000 		.4byte	0xa87
 7321 12b6 BE100000 		.4byte	.LLST130
 7322 12ba 2F       		.uleb128 0x2f
 7323 12bb 930A0000 		.4byte	0xa93
 7324 12bf DE100000 		.4byte	.LLST131
 7325 12c3 35       		.uleb128 0x35
 7326 12c4 9D0A0000 		.4byte	0xa9d
 7327 12c8 36       		.uleb128 0x36
 7328 12c9 24000000 		.4byte	.LBB301
 7329 12cd 3A000000 		.4byte	.LBE301-.LBB301
 7330 12d1 3C130000 		.4byte	0x133c
 7331 12d5 35       		.uleb128 0x35
 7332 12d6 AA0A0000 		.4byte	0xaaa
 7333 12da 2D       		.uleb128 0x2d
 7334 12db D7040000 		.4byte	0x4d7
 7335 12df 24000000 		.4byte	.LBB302
 7336 12e3 1A000000 		.4byte	.LBE302-.LBB302
 7337 12e7 01       		.byte	0x1
 7338 12e8 3304     		.2byte	0x433
 7339 12ea 29       		.uleb128 0x29
 7340 12eb F4040000 		.4byte	0x4f4
 7341 12ef 0A110000 		.4byte	.LLST132
 7342 12f3 29       		.uleb128 0x29
 7343 12f4 E8040000 		.4byte	0x4e8
 7344 12f8 1D110000 		.4byte	.LLST133
 7345 12fc 2D       		.uleb128 0x2d
 7346 12fd 60040000 		.4byte	0x460
 7347 1301 24000000 		.4byte	.LBB304
ARM GAS  C:\Users\strap\AppData\Local\Temp\cc7bAV43.s 			page 174


 7348 1305 18000000 		.4byte	.LBE304-.LBB304
 7349 1309 01       		.byte	0x1
 7350 130a 9104     		.2byte	0x491
 7351 130c 29       		.uleb128 0x29
 7352 130d 7D040000 		.4byte	0x47d
 7353 1311 30110000 		.4byte	.LLST134
 7354 1315 29       		.uleb128 0x29
 7355 1316 71040000 		.4byte	0x471
 7356 131a 43110000 		.4byte	.LLST135
 7357 131e 2E       		.uleb128 0x2e
 7358 131f 24000000 		.4byte	.LBB305
 7359 1323 18000000 		.4byte	.LBE305-.LBB305
 7360 1327 30       		.uleb128 0x30
 7361 1328 89040000 		.4byte	0x489
 7362 132c 02       		.uleb128 0x2
 7363 132d 91       		.byte	0x91
 7364 132e 64       		.sleb128 -28
 7365 132f 2F       		.uleb128 0x2f
 7366 1330 95040000 		.4byte	0x495
 7367 1334 56110000 		.4byte	.LLST136
 7368 1338 00       		.byte	0
 7369 1339 00       		.byte	0
 7370 133a 00       		.byte	0
 7371 133b 00       		.byte	0
 7372 133c 28       		.uleb128 0x28
 7373 133d 01050000 		.4byte	0x501
 7374 1341 5E000000 		.4byte	.LBB306
 7375 1345 20000000 		.4byte	.LBE306-.LBB306
 7376 1349 01       		.byte	0x1
 7377 134a 4504     		.2byte	0x445
 7378 134c 8C130000 		.4byte	0x138c
 7379 1350 29       		.uleb128 0x29
 7380 1351 1E050000 		.4byte	0x51e
 7381 1355 6B110000 		.4byte	.LLST137
 7382 1359 2C       		.uleb128 0x2c
 7383 135a 12050000 		.4byte	0x512
 7384 135e 2D       		.uleb128 0x2d
 7385 135f AD040000 		.4byte	0x4ad
 7386 1363 5E000000 		.4byte	.LBB308
 7387 1367 1E000000 		.4byte	.LBE308-.LBB308
 7388 136b 01       		.byte	0x1
 7389 136c AE04     		.2byte	0x4ae
 7390 136e 29       		.uleb128 0x29
 7391 136f BE040000 		.4byte	0x4be
 7392 1373 7E110000 		.4byte	.LLST138
 7393 1377 2E       		.uleb128 0x2e
 7394 1378 5E000000 		.4byte	.LBB309
 7395 137c 1E000000 		.4byte	.LBE309-.LBB309
 7396 1380 2F       		.uleb128 0x2f
 7397 1381 CA040000 		.4byte	0x4ca
 7398 1385 B2110000 		.4byte	.LLST139
 7399 1389 00       		.byte	0
 7400 138a 00       		.byte	0
 7401 138b 00       		.byte	0
 7402 138c 2D       		.uleb128 0x2d
 7403 138d 2B050000 		.4byte	0x52b
 7404 1391 7E000000 		.4byte	.LBB310
ARM GAS  C:\Users\strap\AppData\Local\Temp\cc7bAV43.s 			page 175


 7405 1395 14000000 		.4byte	.LBE310-.LBB310
 7406 1399 01       		.byte	0x1
 7407 139a 3004     		.2byte	0x430
 7408 139c 29       		.uleb128 0x29
 7409 139d 48050000 		.4byte	0x548
 7410 13a1 C6110000 		.4byte	.LLST140
 7411 13a5 29       		.uleb128 0x29
 7412 13a6 3C050000 		.4byte	0x53c
 7413 13aa D9110000 		.4byte	.LLST141
 7414 13ae 2D       		.uleb128 0x2d
 7415 13af 60040000 		.4byte	0x460
 7416 13b3 7E000000 		.4byte	.LBB312
 7417 13b7 10000000 		.4byte	.LBE312-.LBB312
 7418 13bb 01       		.byte	0x1
 7419 13bc 8604     		.2byte	0x486
 7420 13be 29       		.uleb128 0x29
 7421 13bf 7D040000 		.4byte	0x47d
 7422 13c3 EC110000 		.4byte	.LLST142
 7423 13c7 29       		.uleb128 0x29
 7424 13c8 71040000 		.4byte	0x471
 7425 13cc FF110000 		.4byte	.LLST143
 7426 13d0 2E       		.uleb128 0x2e
 7427 13d1 7E000000 		.4byte	.LBB313
 7428 13d5 10000000 		.4byte	.LBE313-.LBB313
 7429 13d9 30       		.uleb128 0x30
 7430 13da 89040000 		.4byte	0x489
 7431 13de 02       		.uleb128 0x2
 7432 13df 91       		.byte	0x91
 7433 13e0 64       		.sleb128 -28
 7434 13e1 2F       		.uleb128 0x2f
 7435 13e2 95040000 		.4byte	0x495
 7436 13e6 12120000 		.4byte	.LLST144
 7437 13ea 00       		.byte	0
 7438 13eb 00       		.byte	0
 7439 13ec 00       		.byte	0
 7440 13ed 00       		.byte	0
 7441 13ee 00       		.byte	0
 7442 13ef 36       		.uleb128 0x36
 7443 13f0 A2000000 		.4byte	.LBB314
 7444 13f4 42000000 		.4byte	.LBE314-.LBB314
 7445 13f8 C2140000 		.4byte	0x14c2
 7446 13fc 17       		.uleb128 0x17
 7447 13fd DF070000 		.4byte	.LASF117
 7448 1401 01       		.byte	0x1
 7449 1402 9D01     		.2byte	0x19d
 7450 1404 44020000 		.4byte	0x244
 7451 1408 22       		.uleb128 0x22
 7452 1409 9E030000 		.4byte	.LASF118
 7453 140d 01       		.byte	0x1
 7454 140e 9E01     		.2byte	0x19e
 7455 1410 44020000 		.4byte	0x244
 7456 1414 27120000 		.4byte	.LLST145
 7457 1418 28       		.uleb128 0x28
 7458 1419 D7040000 		.4byte	0x4d7
 7459 141d A2000000 		.4byte	.LBB315
 7460 1421 14000000 		.4byte	.LBE315-.LBB315
 7461 1425 01       		.byte	0x1
ARM GAS  C:\Users\strap\AppData\Local\Temp\cc7bAV43.s 			page 176


 7462 1426 A001     		.2byte	0x1a0
 7463 1428 7D140000 		.4byte	0x147d
 7464 142c 29       		.uleb128 0x29
 7465 142d F4040000 		.4byte	0x4f4
 7466 1431 4F120000 		.4byte	.LLST146
 7467 1435 29       		.uleb128 0x29
 7468 1436 E8040000 		.4byte	0x4e8
 7469 143a 62120000 		.4byte	.LLST147
 7470 143e 2D       		.uleb128 0x2d
 7471 143f 60040000 		.4byte	0x460
 7472 1443 A2000000 		.4byte	.LBB317
 7473 1447 14000000 		.4byte	.LBE317-.LBB317
 7474 144b 01       		.byte	0x1
 7475 144c 9104     		.2byte	0x491
 7476 144e 29       		.uleb128 0x29
 7477 144f 7D040000 		.4byte	0x47d
 7478 1453 4F120000 		.4byte	.LLST146
 7479 1457 29       		.uleb128 0x29
 7480 1458 71040000 		.4byte	0x471
 7481 145c 62120000 		.4byte	.LLST147
 7482 1460 2E       		.uleb128 0x2e
 7483 1461 A2000000 		.4byte	.LBB318
 7484 1465 14000000 		.4byte	.LBE318-.LBB318
 7485 1469 30       		.uleb128 0x30
 7486 146a 89040000 		.4byte	0x489
 7487 146e 02       		.uleb128 0x2
 7488 146f 91       		.byte	0x91
 7489 1470 64       		.sleb128 -28
 7490 1471 2F       		.uleb128 0x2f
 7491 1472 95040000 		.4byte	0x495
 7492 1476 75120000 		.4byte	.LLST150
 7493 147a 00       		.byte	0
 7494 147b 00       		.byte	0
 7495 147c 00       		.byte	0
 7496 147d 39       		.uleb128 0x39
 7497 147e A3050000 		.4byte	0x5a3
 7498 1482 CC000000 		.4byte	.LBB319
 7499 1486 60000000 		.4byte	.Ldebug_ranges0+0x60
 7500 148a 01       		.byte	0x1
 7501 148b A401     		.2byte	0x1a4
 7502 148d 29       		.uleb128 0x29
 7503 148e C9050000 		.4byte	0x5c9
 7504 1492 8A120000 		.4byte	.LLST151
 7505 1496 29       		.uleb128 0x29
 7506 1497 BE050000 		.4byte	0x5be
 7507 149b A9120000 		.4byte	.LLST152
 7508 149f 29       		.uleb128 0x29
 7509 14a0 B3050000 		.4byte	0x5b3
 7510 14a4 D6120000 		.4byte	.LLST153
 7511 14a8 3A       		.uleb128 0x3a
 7512 14a9 60000000 		.4byte	.Ldebug_ranges0+0x60
 7513 14ad 2F       		.uleb128 0x2f
 7514 14ae D4050000 		.4byte	0x5d4
 7515 14b2 E9120000 		.4byte	.LLST154
 7516 14b6 2F       		.uleb128 0x2f
 7517 14b7 DE050000 		.4byte	0x5de
 7518 14bb FC120000 		.4byte	.LLST155
ARM GAS  C:\Users\strap\AppData\Local\Temp\cc7bAV43.s 			page 177


 7519 14bf 00       		.byte	0
 7520 14c0 00       		.byte	0
 7521 14c1 00       		.byte	0
 7522 14c2 28       		.uleb128 0x28
 7523 14c3 7E050000 		.4byte	0x57e
 7524 14c7 FA000000 		.4byte	.LBB323
 7525 14cb 0A000000 		.4byte	.LBE323-.LBB323
 7526 14cf 01       		.byte	0x1
 7527 14d0 B201     		.2byte	0x1b2
 7528 14d2 F9140000 		.4byte	0x14f9
 7529 14d6 29       		.uleb128 0x29
 7530 14d7 97050000 		.4byte	0x597
 7531 14db 34130000 		.4byte	.LLST156
 7532 14df 29       		.uleb128 0x29
 7533 14e0 8B050000 		.4byte	0x58b
 7534 14e4 47130000 		.4byte	.LLST157
 7535 14e8 1E       		.uleb128 0x1e
 7536 14e9 02010000 		.4byte	.LVL252
 7537 14ed E2320000 		.4byte	0x32e2
 7538 14f1 1F       		.uleb128 0x1f
 7539 14f2 01       		.uleb128 0x1
 7540 14f3 51       		.byte	0x51
 7541 14f4 02       		.uleb128 0x2
 7542 14f5 74       		.byte	0x74
 7543 14f6 00       		.sleb128 0
 7544 14f7 00       		.byte	0
 7545 14f8 00       		.byte	0
 7546 14f9 3B       		.uleb128 0x3b
 7547 14fa A3050000 		.4byte	0x5a3
 7548 14fe 1E010000 		.4byte	.LBB325
 7549 1502 78000000 		.4byte	.Ldebug_ranges0+0x78
 7550 1506 01       		.byte	0x1
 7551 1507 B601     		.2byte	0x1b6
 7552 1509 41150000 		.4byte	0x1541
 7553 150d 29       		.uleb128 0x29
 7554 150e C9050000 		.4byte	0x5c9
 7555 1512 5A130000 		.4byte	.LLST158
 7556 1516 29       		.uleb128 0x29
 7557 1517 BE050000 		.4byte	0x5be
 7558 151b 79130000 		.4byte	.LLST159
 7559 151f 29       		.uleb128 0x29
 7560 1520 B3050000 		.4byte	0x5b3
 7561 1524 A6130000 		.4byte	.LLST160
 7562 1528 3A       		.uleb128 0x3a
 7563 1529 78000000 		.4byte	.Ldebug_ranges0+0x78
 7564 152d 2F       		.uleb128 0x2f
 7565 152e D4050000 		.4byte	0x5d4
 7566 1532 B9130000 		.4byte	.LLST161
 7567 1536 2F       		.uleb128 0x2f
 7568 1537 DE050000 		.4byte	0x5de
 7569 153b CC130000 		.4byte	.LLST162
 7570 153f 00       		.byte	0
 7571 1540 00       		.byte	0
 7572 1541 3B       		.uleb128 0x3b
 7573 1542 A3050000 		.4byte	0x5a3
 7574 1546 3A010000 		.4byte	.LBB329
 7575 154a 90000000 		.4byte	.Ldebug_ranges0+0x90
ARM GAS  C:\Users\strap\AppData\Local\Temp\cc7bAV43.s 			page 178


 7576 154e 01       		.byte	0x1
 7577 154f B701     		.2byte	0x1b7
 7578 1551 89150000 		.4byte	0x1589
 7579 1555 29       		.uleb128 0x29
 7580 1556 C9050000 		.4byte	0x5c9
 7581 155a 04140000 		.4byte	.LLST163
 7582 155e 29       		.uleb128 0x29
 7583 155f BE050000 		.4byte	0x5be
 7584 1563 23140000 		.4byte	.LLST164
 7585 1567 29       		.uleb128 0x29
 7586 1568 B3050000 		.4byte	0x5b3
 7587 156c 50140000 		.4byte	.LLST165
 7588 1570 3A       		.uleb128 0x3a
 7589 1571 90000000 		.4byte	.Ldebug_ranges0+0x90
 7590 1575 2F       		.uleb128 0x2f
 7591 1576 D4050000 		.4byte	0x5d4
 7592 157a 63140000 		.4byte	.LLST166
 7593 157e 2F       		.uleb128 0x2f
 7594 157f DE050000 		.4byte	0x5de
 7595 1583 76140000 		.4byte	.LLST167
 7596 1587 00       		.byte	0
 7597 1588 00       		.byte	0
 7598 1589 3B       		.uleb128 0x3b
 7599 158a A3050000 		.4byte	0x5a3
 7600 158e 54010000 		.4byte	.LBB333
 7601 1592 A8000000 		.4byte	.Ldebug_ranges0+0xa8
 7602 1596 01       		.byte	0x1
 7603 1597 B801     		.2byte	0x1b8
 7604 1599 D1150000 		.4byte	0x15d1
 7605 159d 29       		.uleb128 0x29
 7606 159e C9050000 		.4byte	0x5c9
 7607 15a2 A1140000 		.4byte	.LLST168
 7608 15a6 29       		.uleb128 0x29
 7609 15a7 BE050000 		.4byte	0x5be
 7610 15ab C0140000 		.4byte	.LLST169
 7611 15af 29       		.uleb128 0x29
 7612 15b0 B3050000 		.4byte	0x5b3
 7613 15b4 ED140000 		.4byte	.LLST170
 7614 15b8 3A       		.uleb128 0x3a
 7615 15b9 A8000000 		.4byte	.Ldebug_ranges0+0xa8
 7616 15bd 2F       		.uleb128 0x2f
 7617 15be D4050000 		.4byte	0x5d4
 7618 15c2 00150000 		.4byte	.LLST171
 7619 15c6 2F       		.uleb128 0x2f
 7620 15c7 DE050000 		.4byte	0x5de
 7621 15cb 13150000 		.4byte	.LLST172
 7622 15cf 00       		.byte	0
 7623 15d0 00       		.byte	0
 7624 15d1 25       		.uleb128 0x25
 7625 15d2 EE000000 		.4byte	.LVL248
 7626 15d6 C9080000 		.4byte	0x8c9
 7627 15da E5150000 		.4byte	0x15e5
 7628 15de 1F       		.uleb128 0x1f
 7629 15df 01       		.uleb128 0x1
 7630 15e0 50       		.byte	0x50
 7631 15e1 02       		.uleb128 0x2
 7632 15e2 75       		.byte	0x75
ARM GAS  C:\Users\strap\AppData\Local\Temp\cc7bAV43.s 			page 179


 7633 15e3 00       		.sleb128 0
 7634 15e4 00       		.byte	0
 7635 15e5 24       		.uleb128 0x24
 7636 15e6 08010000 		.4byte	.LVL254
 7637 15ea CC320000 		.4byte	0x32cc
 7638 15ee 1E       		.uleb128 0x1e
 7639 15ef 14010000 		.4byte	.LVL255
 7640 15f3 D7320000 		.4byte	0x32d7
 7641 15f7 1F       		.uleb128 0x1f
 7642 15f8 01       		.uleb128 0x1
 7643 15f9 50       		.byte	0x50
 7644 15fa 05       		.uleb128 0x5
 7645 15fb 03       		.byte	0x3
 7646 15fc 00000000 		.4byte	.LC0
 7647 1600 00       		.byte	0
 7648 1601 00       		.byte	0
 7649 1602 2A       		.uleb128 0x2a
 7650 1603 D4090000 		.4byte	.LASF128
 7651 1607 01       		.byte	0x1
 7652 1608 C501     		.2byte	0x1c5
 7653 160a 00000000 		.4byte	.LFB340
 7654 160e 78010000 		.4byte	.LFE340-.LFB340
 7655 1612 01       		.uleb128 0x1
 7656 1613 9C       		.byte	0x9c
 7657 1614 2D1A0000 		.4byte	0x1a2d
 7658 1618 27       		.uleb128 0x27
 7659 1619 DB010000 		.4byte	.LASF84
 7660 161d 01       		.byte	0x1
 7661 161e C501     		.2byte	0x1c5
 7662 1620 3B040000 		.4byte	0x43b
 7663 1624 3E150000 		.4byte	.LLST173
 7664 1628 27       		.uleb128 0x27
 7665 1629 25030000 		.4byte	.LASF85
 7666 162d 01       		.byte	0x1
 7667 162e C501     		.2byte	0x1c5
 7668 1630 4F020000 		.4byte	0x24f
 7669 1634 83150000 		.4byte	.LLST174
 7670 1638 3D       		.uleb128 0x3d
 7671 1639 6F706100 		.ascii	"opa\000"
 7672 163d 01       		.byte	0x1
 7673 163e C501     		.2byte	0x1c5
 7674 1640 32020000 		.4byte	0x232
 7675 1644 EB150000 		.4byte	.LLST175
 7676 1648 31       		.uleb128 0x31
 7677 1649 696400   		.ascii	"id\000"
 7678 164c 01       		.byte	0x1
 7679 164d C901     		.2byte	0x1c9
 7680 164f D9000000 		.4byte	0xd9
 7681 1653 22       		.uleb128 0x22
 7682 1654 46010000 		.4byte	.LASF123
 7683 1658 01       		.byte	0x1
 7684 1659 D901     		.2byte	0x1d9
 7685 165b B8000000 		.4byte	0xb8
 7686 165f 5F160000 		.4byte	.LLST176
 7687 1663 38       		.uleb128 0x38
 7688 1664 B0080000 		.4byte	.LASF124
 7689 1668 01       		.byte	0x1
ARM GAS  C:\Users\strap\AppData\Local\Temp\cc7bAV43.s 			page 180


 7690 1669 DA01     		.2byte	0x1da
 7691 166b 4F020000 		.4byte	0x24f
 7692 166f 02       		.uleb128 0x2
 7693 1670 91       		.byte	0x91
 7694 1671 66       		.sleb128 -26
 7695 1672 22       		.uleb128 0x22
 7696 1673 01010000 		.4byte	.LASF125
 7697 1677 01       		.byte	0x1
 7698 1678 DB01     		.2byte	0x1db
 7699 167a B8000000 		.4byte	0xb8
 7700 167e 73160000 		.4byte	.LLST177
 7701 1682 22       		.uleb128 0x22
 7702 1683 2D010000 		.4byte	.LASF90
 7703 1687 01       		.byte	0x1
 7704 1688 DD01     		.2byte	0x1dd
 7705 168a CE000000 		.4byte	0xce
 7706 168e 87160000 		.4byte	.LLST178
 7707 1692 28       		.uleb128 0x28
 7708 1693 3A0A0000 		.4byte	0xa3a
 7709 1697 0C000000 		.4byte	.LBB367
 7710 169b 92000000 		.4byte	.LBE367-.LBB367
 7711 169f 01       		.byte	0x1
 7712 16a0 C901     		.2byte	0x1c9
 7713 16a2 1A180000 		.4byte	0x181a
 7714 16a6 29       		.uleb128 0x29
 7715 16a7 570A0000 		.4byte	0xa57
 7716 16ab A5160000 		.4byte	.LLST179
 7717 16af 29       		.uleb128 0x29
 7718 16b0 4B0A0000 		.4byte	0xa4b
 7719 16b4 CF160000 		.4byte	.LLST180
 7720 16b8 2E       		.uleb128 0x2e
 7721 16b9 0C000000 		.4byte	.LBB368
 7722 16bd 92000000 		.4byte	.LBE368-.LBB368
 7723 16c1 2F       		.uleb128 0x2f
 7724 16c2 630A0000 		.4byte	0xa63
 7725 16c6 E2160000 		.4byte	.LLST181
 7726 16ca 2F       		.uleb128 0x2f
 7727 16cb 6F0A0000 		.4byte	0xa6f
 7728 16cf F5160000 		.4byte	.LLST182
 7729 16d3 2F       		.uleb128 0x2f
 7730 16d4 7B0A0000 		.4byte	0xa7b
 7731 16d8 08170000 		.4byte	.LLST183
 7732 16dc 2F       		.uleb128 0x2f
 7733 16dd 870A0000 		.4byte	0xa87
 7734 16e1 28170000 		.4byte	.LLST184
 7735 16e5 2F       		.uleb128 0x2f
 7736 16e6 930A0000 		.4byte	0xa93
 7737 16ea 48170000 		.4byte	.LLST185
 7738 16ee 35       		.uleb128 0x35
 7739 16ef 9D0A0000 		.4byte	0xa9d
 7740 16f3 36       		.uleb128 0x36
 7741 16f4 24000000 		.4byte	.LBB369
 7742 16f8 3A000000 		.4byte	.LBE369-.LBB369
 7743 16fc 67170000 		.4byte	0x1767
 7744 1700 35       		.uleb128 0x35
 7745 1701 AA0A0000 		.4byte	0xaaa
 7746 1705 2D       		.uleb128 0x2d
ARM GAS  C:\Users\strap\AppData\Local\Temp\cc7bAV43.s 			page 181


 7747 1706 D7040000 		.4byte	0x4d7
 7748 170a 24000000 		.4byte	.LBB370
 7749 170e 1A000000 		.4byte	.LBE370-.LBB370
 7750 1712 01       		.byte	0x1
 7751 1713 3304     		.2byte	0x433
 7752 1715 29       		.uleb128 0x29
 7753 1716 F4040000 		.4byte	0x4f4
 7754 171a 74170000 		.4byte	.LLST186
 7755 171e 29       		.uleb128 0x29
 7756 171f E8040000 		.4byte	0x4e8
 7757 1723 87170000 		.4byte	.LLST187
 7758 1727 2D       		.uleb128 0x2d
 7759 1728 60040000 		.4byte	0x460
 7760 172c 24000000 		.4byte	.LBB372
 7761 1730 18000000 		.4byte	.LBE372-.LBB372
 7762 1734 01       		.byte	0x1
 7763 1735 9104     		.2byte	0x491
 7764 1737 29       		.uleb128 0x29
 7765 1738 7D040000 		.4byte	0x47d
 7766 173c 9A170000 		.4byte	.LLST188
 7767 1740 29       		.uleb128 0x29
 7768 1741 71040000 		.4byte	0x471
 7769 1745 AD170000 		.4byte	.LLST189
 7770 1749 2E       		.uleb128 0x2e
 7771 174a 24000000 		.4byte	.LBB373
 7772 174e 18000000 		.4byte	.LBE373-.LBB373
 7773 1752 30       		.uleb128 0x30
 7774 1753 89040000 		.4byte	0x489
 7775 1757 02       		.uleb128 0x2
 7776 1758 91       		.byte	0x91
 7777 1759 64       		.sleb128 -28
 7778 175a 2F       		.uleb128 0x2f
 7779 175b 95040000 		.4byte	0x495
 7780 175f C0170000 		.4byte	.LLST190
 7781 1763 00       		.byte	0
 7782 1764 00       		.byte	0
 7783 1765 00       		.byte	0
 7784 1766 00       		.byte	0
 7785 1767 28       		.uleb128 0x28
 7786 1768 01050000 		.4byte	0x501
 7787 176c 5E000000 		.4byte	.LBB374
 7788 1770 20000000 		.4byte	.LBE374-.LBB374
 7789 1774 01       		.byte	0x1
 7790 1775 4504     		.2byte	0x445
 7791 1777 B7170000 		.4byte	0x17b7
 7792 177b 29       		.uleb128 0x29
 7793 177c 1E050000 		.4byte	0x51e
 7794 1780 D5170000 		.4byte	.LLST191
 7795 1784 2C       		.uleb128 0x2c
 7796 1785 12050000 		.4byte	0x512
 7797 1789 2D       		.uleb128 0x2d
 7798 178a AD040000 		.4byte	0x4ad
 7799 178e 5E000000 		.4byte	.LBB376
 7800 1792 1E000000 		.4byte	.LBE376-.LBB376
 7801 1796 01       		.byte	0x1
 7802 1797 AE04     		.2byte	0x4ae
 7803 1799 29       		.uleb128 0x29
ARM GAS  C:\Users\strap\AppData\Local\Temp\cc7bAV43.s 			page 182


 7804 179a BE040000 		.4byte	0x4be
 7805 179e E8170000 		.4byte	.LLST192
 7806 17a2 2E       		.uleb128 0x2e
 7807 17a3 5E000000 		.4byte	.LBB377
 7808 17a7 1E000000 		.4byte	.LBE377-.LBB377
 7809 17ab 2F       		.uleb128 0x2f
 7810 17ac CA040000 		.4byte	0x4ca
 7811 17b0 1C180000 		.4byte	.LLST193
 7812 17b4 00       		.byte	0
 7813 17b5 00       		.byte	0
 7814 17b6 00       		.byte	0
 7815 17b7 2D       		.uleb128 0x2d
 7816 17b8 2B050000 		.4byte	0x52b
 7817 17bc 7E000000 		.4byte	.LBB378
 7818 17c0 14000000 		.4byte	.LBE378-.LBB378
 7819 17c4 01       		.byte	0x1
 7820 17c5 3004     		.2byte	0x430
 7821 17c7 29       		.uleb128 0x29
 7822 17c8 48050000 		.4byte	0x548
 7823 17cc 30180000 		.4byte	.LLST194
 7824 17d0 29       		.uleb128 0x29
 7825 17d1 3C050000 		.4byte	0x53c
 7826 17d5 43180000 		.4byte	.LLST195
 7827 17d9 2D       		.uleb128 0x2d
 7828 17da 60040000 		.4byte	0x460
 7829 17de 7E000000 		.4byte	.LBB380
 7830 17e2 10000000 		.4byte	.LBE380-.LBB380
 7831 17e6 01       		.byte	0x1
 7832 17e7 8604     		.2byte	0x486
 7833 17e9 29       		.uleb128 0x29
 7834 17ea 7D040000 		.4byte	0x47d
 7835 17ee 56180000 		.4byte	.LLST196
 7836 17f2 29       		.uleb128 0x29
 7837 17f3 71040000 		.4byte	0x471
 7838 17f7 69180000 		.4byte	.LLST197
 7839 17fb 2E       		.uleb128 0x2e
 7840 17fc 7E000000 		.4byte	.LBB381
 7841 1800 10000000 		.4byte	.LBE381-.LBB381
 7842 1804 30       		.uleb128 0x30
 7843 1805 89040000 		.4byte	0x489
 7844 1809 02       		.uleb128 0x2
 7845 180a 91       		.byte	0x91
 7846 180b 64       		.sleb128 -28
 7847 180c 2F       		.uleb128 0x2f
 7848 180d 95040000 		.4byte	0x495
 7849 1811 7C180000 		.4byte	.LLST198
 7850 1815 00       		.byte	0
 7851 1816 00       		.byte	0
 7852 1817 00       		.byte	0
 7853 1818 00       		.byte	0
 7854 1819 00       		.byte	0
 7855 181a 36       		.uleb128 0x36
 7856 181b A2000000 		.4byte	.LBB382
 7857 181f 44000000 		.4byte	.LBE382-.LBB382
 7858 1823 ED180000 		.4byte	0x18ed
 7859 1827 17       		.uleb128 0x17
 7860 1828 DF070000 		.4byte	.LASF117
ARM GAS  C:\Users\strap\AppData\Local\Temp\cc7bAV43.s 			page 183


 7861 182c 01       		.byte	0x1
 7862 182d CC01     		.2byte	0x1cc
 7863 182f 44020000 		.4byte	0x244
 7864 1833 22       		.uleb128 0x22
 7865 1834 9E030000 		.4byte	.LASF118
 7866 1838 01       		.byte	0x1
 7867 1839 CD01     		.2byte	0x1cd
 7868 183b 44020000 		.4byte	0x244
 7869 183f 91180000 		.4byte	.LLST199
 7870 1843 28       		.uleb128 0x28
 7871 1844 D7040000 		.4byte	0x4d7
 7872 1848 A2000000 		.4byte	.LBB383
 7873 184c 14000000 		.4byte	.LBE383-.LBB383
 7874 1850 01       		.byte	0x1
 7875 1851 CF01     		.2byte	0x1cf
 7876 1853 A8180000 		.4byte	0x18a8
 7877 1857 29       		.uleb128 0x29
 7878 1858 F4040000 		.4byte	0x4f4
 7879 185c B9180000 		.4byte	.LLST200
 7880 1860 29       		.uleb128 0x29
 7881 1861 E8040000 		.4byte	0x4e8
 7882 1865 CC180000 		.4byte	.LLST201
 7883 1869 2D       		.uleb128 0x2d
 7884 186a 60040000 		.4byte	0x460
 7885 186e A2000000 		.4byte	.LBB385
 7886 1872 14000000 		.4byte	.LBE385-.LBB385
 7887 1876 01       		.byte	0x1
 7888 1877 9104     		.2byte	0x491
 7889 1879 29       		.uleb128 0x29
 7890 187a 7D040000 		.4byte	0x47d
 7891 187e B9180000 		.4byte	.LLST200
 7892 1882 29       		.uleb128 0x29
 7893 1883 71040000 		.4byte	0x471
 7894 1887 CC180000 		.4byte	.LLST201
 7895 188b 2E       		.uleb128 0x2e
 7896 188c A2000000 		.4byte	.LBB386
 7897 1890 14000000 		.4byte	.LBE386-.LBB386
 7898 1894 30       		.uleb128 0x30
 7899 1895 89040000 		.4byte	0x489
 7900 1899 02       		.uleb128 0x2
 7901 189a 91       		.byte	0x91
 7902 189b 64       		.sleb128 -28
 7903 189c 2F       		.uleb128 0x2f
 7904 189d 95040000 		.4byte	0x495
 7905 18a1 DF180000 		.4byte	.LLST204
 7906 18a5 00       		.byte	0
 7907 18a6 00       		.byte	0
 7908 18a7 00       		.byte	0
 7909 18a8 39       		.uleb128 0x39
 7910 18a9 A3050000 		.4byte	0x5a3
 7911 18ad CC000000 		.4byte	.LBB387
 7912 18b1 C0000000 		.4byte	.Ldebug_ranges0+0xc0
 7913 18b5 01       		.byte	0x1
 7914 18b6 D301     		.2byte	0x1d3
 7915 18b8 29       		.uleb128 0x29
 7916 18b9 C9050000 		.4byte	0x5c9
 7917 18bd F4180000 		.4byte	.LLST205
ARM GAS  C:\Users\strap\AppData\Local\Temp\cc7bAV43.s 			page 184


 7918 18c1 29       		.uleb128 0x29
 7919 18c2 BE050000 		.4byte	0x5be
 7920 18c6 13190000 		.4byte	.LLST206
 7921 18ca 29       		.uleb128 0x29
 7922 18cb B3050000 		.4byte	0x5b3
 7923 18cf 40190000 		.4byte	.LLST207
 7924 18d3 3A       		.uleb128 0x3a
 7925 18d4 C0000000 		.4byte	.Ldebug_ranges0+0xc0
 7926 18d8 2F       		.uleb128 0x2f
 7927 18d9 D4050000 		.4byte	0x5d4
 7928 18dd 53190000 		.4byte	.LLST208
 7929 18e1 2F       		.uleb128 0x2f
 7930 18e2 DE050000 		.4byte	0x5de
 7931 18e6 66190000 		.4byte	.LLST209
 7932 18ea 00       		.byte	0
 7933 18eb 00       		.byte	0
 7934 18ec 00       		.byte	0
 7935 18ed 28       		.uleb128 0x28
 7936 18ee 7E050000 		.4byte	0x57e
 7937 18f2 FC000000 		.4byte	.LBB391
 7938 18f6 0A000000 		.4byte	.LBE391-.LBB391
 7939 18fa 01       		.byte	0x1
 7940 18fb E101     		.2byte	0x1e1
 7941 18fd 24190000 		.4byte	0x1924
 7942 1901 29       		.uleb128 0x29
 7943 1902 97050000 		.4byte	0x597
 7944 1906 9E190000 		.4byte	.LLST210
 7945 190a 29       		.uleb128 0x29
 7946 190b 8B050000 		.4byte	0x58b
 7947 190f B1190000 		.4byte	.LLST211
 7948 1913 1E       		.uleb128 0x1e
 7949 1914 04010000 		.4byte	.LVL321
 7950 1918 E2320000 		.4byte	0x32e2
 7951 191c 1F       		.uleb128 0x1f
 7952 191d 01       		.uleb128 0x1
 7953 191e 51       		.byte	0x51
 7954 191f 02       		.uleb128 0x2
 7955 1920 74       		.byte	0x74
 7956 1921 00       		.sleb128 0
 7957 1922 00       		.byte	0
 7958 1923 00       		.byte	0
 7959 1924 3B       		.uleb128 0x3b
 7960 1925 A3050000 		.4byte	0x5a3
 7961 1929 20010000 		.4byte	.LBB393
 7962 192d D8000000 		.4byte	.Ldebug_ranges0+0xd8
 7963 1931 01       		.byte	0x1
 7964 1932 E501     		.2byte	0x1e5
 7965 1934 6C190000 		.4byte	0x196c
 7966 1938 29       		.uleb128 0x29
 7967 1939 C9050000 		.4byte	0x5c9
 7968 193d C4190000 		.4byte	.LLST212
 7969 1941 29       		.uleb128 0x29
 7970 1942 BE050000 		.4byte	0x5be
 7971 1946 E3190000 		.4byte	.LLST213
 7972 194a 29       		.uleb128 0x29
 7973 194b B3050000 		.4byte	0x5b3
 7974 194f 101A0000 		.4byte	.LLST214
ARM GAS  C:\Users\strap\AppData\Local\Temp\cc7bAV43.s 			page 185


 7975 1953 3A       		.uleb128 0x3a
 7976 1954 D8000000 		.4byte	.Ldebug_ranges0+0xd8
 7977 1958 2F       		.uleb128 0x2f
 7978 1959 D4050000 		.4byte	0x5d4
 7979 195d 231A0000 		.4byte	.LLST215
 7980 1961 2F       		.uleb128 0x2f
 7981 1962 DE050000 		.4byte	0x5de
 7982 1966 361A0000 		.4byte	.LLST216
 7983 196a 00       		.byte	0
 7984 196b 00       		.byte	0
 7985 196c 3B       		.uleb128 0x3b
 7986 196d A3050000 		.4byte	0x5a3
 7987 1971 3C010000 		.4byte	.LBB397
 7988 1975 F0000000 		.4byte	.Ldebug_ranges0+0xf0
 7989 1979 01       		.byte	0x1
 7990 197a E601     		.2byte	0x1e6
 7991 197c B4190000 		.4byte	0x19b4
 7992 1980 29       		.uleb128 0x29
 7993 1981 C9050000 		.4byte	0x5c9
 7994 1985 6E1A0000 		.4byte	.LLST217
 7995 1989 29       		.uleb128 0x29
 7996 198a BE050000 		.4byte	0x5be
 7997 198e 8D1A0000 		.4byte	.LLST218
 7998 1992 29       		.uleb128 0x29
 7999 1993 B3050000 		.4byte	0x5b3
 8000 1997 BA1A0000 		.4byte	.LLST219
 8001 199b 3A       		.uleb128 0x3a
 8002 199c F0000000 		.4byte	.Ldebug_ranges0+0xf0
 8003 19a0 2F       		.uleb128 0x2f
 8004 19a1 D4050000 		.4byte	0x5d4
 8005 19a5 CD1A0000 		.4byte	.LLST220
 8006 19a9 2F       		.uleb128 0x2f
 8007 19aa DE050000 		.4byte	0x5de
 8008 19ae E01A0000 		.4byte	.LLST221
 8009 19b2 00       		.byte	0
 8010 19b3 00       		.byte	0
 8011 19b4 3B       		.uleb128 0x3b
 8012 19b5 A3050000 		.4byte	0x5a3
 8013 19b9 58010000 		.4byte	.LBB401
 8014 19bd 08010000 		.4byte	.Ldebug_ranges0+0x108
 8015 19c1 01       		.byte	0x1
 8016 19c2 E701     		.2byte	0x1e7
 8017 19c4 FC190000 		.4byte	0x19fc
 8018 19c8 29       		.uleb128 0x29
 8019 19c9 C9050000 		.4byte	0x5c9
 8020 19cd 0B1B0000 		.4byte	.LLST222
 8021 19d1 29       		.uleb128 0x29
 8022 19d2 BE050000 		.4byte	0x5be
 8023 19d6 2A1B0000 		.4byte	.LLST223
 8024 19da 29       		.uleb128 0x29
 8025 19db B3050000 		.4byte	0x5b3
 8026 19df 571B0000 		.4byte	.LLST224
 8027 19e3 3A       		.uleb128 0x3a
 8028 19e4 08010000 		.4byte	.Ldebug_ranges0+0x108
 8029 19e8 2F       		.uleb128 0x2f
 8030 19e9 D4050000 		.4byte	0x5d4
 8031 19ed 6A1B0000 		.4byte	.LLST225
ARM GAS  C:\Users\strap\AppData\Local\Temp\cc7bAV43.s 			page 186


 8032 19f1 2F       		.uleb128 0x2f
 8033 19f2 DE050000 		.4byte	0x5de
 8034 19f6 7D1B0000 		.4byte	.LLST226
 8035 19fa 00       		.byte	0
 8036 19fb 00       		.byte	0
 8037 19fc 25       		.uleb128 0x25
 8038 19fd F0000000 		.4byte	.LVL317
 8039 1a01 C9080000 		.4byte	0x8c9
 8040 1a05 101A0000 		.4byte	0x1a10
 8041 1a09 1F       		.uleb128 0x1f
 8042 1a0a 01       		.uleb128 0x1
 8043 1a0b 50       		.byte	0x50
 8044 1a0c 02       		.uleb128 0x2
 8045 1a0d 75       		.byte	0x75
 8046 1a0e 00       		.sleb128 0
 8047 1a0f 00       		.byte	0
 8048 1a10 24       		.uleb128 0x24
 8049 1a11 0A010000 		.4byte	.LVL323
 8050 1a15 CC320000 		.4byte	0x32cc
 8051 1a19 1E       		.uleb128 0x1e
 8052 1a1a 16010000 		.4byte	.LVL324
 8053 1a1e D7320000 		.4byte	0x32d7
 8054 1a22 1F       		.uleb128 0x1f
 8055 1a23 01       		.uleb128 0x1
 8056 1a24 50       		.byte	0x50
 8057 1a25 05       		.uleb128 0x5
 8058 1a26 03       		.byte	0x3
 8059 1a27 00000000 		.4byte	.LC0
 8060 1a2b 00       		.byte	0
 8061 1a2c 00       		.byte	0
 8062 1a2d 2A       		.uleb128 0x2a
 8063 1a2e E0080000 		.4byte	.LASF129
 8064 1a32 01       		.byte	0x1
 8065 1a33 F401     		.2byte	0x1f4
 8066 1a35 00000000 		.4byte	.LFB341
 8067 1a39 74010000 		.4byte	.LFE341-.LFB341
 8068 1a3d 01       		.uleb128 0x1
 8069 1a3e 9C       		.byte	0x9c
 8070 1a3f 561E0000 		.4byte	0x1e56
 8071 1a43 27       		.uleb128 0x27
 8072 1a44 DB010000 		.4byte	.LASF84
 8073 1a48 01       		.byte	0x1
 8074 1a49 F401     		.2byte	0x1f4
 8075 1a4b 3B040000 		.4byte	0x43b
 8076 1a4f A81B0000 		.4byte	.LLST227
 8077 1a53 27       		.uleb128 0x27
 8078 1a54 25030000 		.4byte	.LASF85
 8079 1a58 01       		.byte	0x1
 8080 1a59 F401     		.2byte	0x1f4
 8081 1a5b 4F020000 		.4byte	0x24f
 8082 1a5f ED1B0000 		.4byte	.LLST228
 8083 1a63 3D       		.uleb128 0x3d
 8084 1a64 7000     		.ascii	"p\000"
 8085 1a66 01       		.byte	0x1
 8086 1a67 F401     		.2byte	0x1f4
 8087 1a69 53040000 		.4byte	0x453
 8088 1a6d 551C0000 		.4byte	.LLST229
ARM GAS  C:\Users\strap\AppData\Local\Temp\cc7bAV43.s 			page 187


 8089 1a71 31       		.uleb128 0x31
 8090 1a72 696400   		.ascii	"id\000"
 8091 1a75 01       		.byte	0x1
 8092 1a76 F801     		.2byte	0x1f8
 8093 1a78 D9000000 		.4byte	0xd9
 8094 1a7c 22       		.uleb128 0x22
 8095 1a7d 46010000 		.4byte	.LASF123
 8096 1a81 01       		.byte	0x1
 8097 1a82 0802     		.2byte	0x208
 8098 1a84 B8000000 		.4byte	0xb8
 8099 1a88 A51C0000 		.4byte	.LLST230
 8100 1a8c 38       		.uleb128 0x38
 8101 1a8d B0080000 		.4byte	.LASF124
 8102 1a91 01       		.byte	0x1
 8103 1a92 0902     		.2byte	0x209
 8104 1a94 4F020000 		.4byte	0x24f
 8105 1a98 02       		.uleb128 0x2
 8106 1a99 91       		.byte	0x91
 8107 1a9a 66       		.sleb128 -26
 8108 1a9b 22       		.uleb128 0x22
 8109 1a9c 01010000 		.4byte	.LASF125
 8110 1aa0 01       		.byte	0x1
 8111 1aa1 0A02     		.2byte	0x20a
 8112 1aa3 B8000000 		.4byte	0xb8
 8113 1aa7 B91C0000 		.4byte	.LLST231
 8114 1aab 22       		.uleb128 0x22
 8115 1aac 2D010000 		.4byte	.LASF90
 8116 1ab0 01       		.byte	0x1
 8117 1ab1 0C02     		.2byte	0x20c
 8118 1ab3 CE000000 		.4byte	0xce
 8119 1ab7 CD1C0000 		.4byte	.LLST232
 8120 1abb 28       		.uleb128 0x28
 8121 1abc 3A0A0000 		.4byte	0xa3a
 8122 1ac0 0A000000 		.4byte	.LBB435
 8123 1ac4 92000000 		.4byte	.LBE435-.LBB435
 8124 1ac8 01       		.byte	0x1
 8125 1ac9 F801     		.2byte	0x1f8
 8126 1acb 431C0000 		.4byte	0x1c43
 8127 1acf 29       		.uleb128 0x29
 8128 1ad0 570A0000 		.4byte	0xa57
 8129 1ad4 EB1C0000 		.4byte	.LLST233
 8130 1ad8 29       		.uleb128 0x29
 8131 1ad9 4B0A0000 		.4byte	0xa4b
 8132 1add 151D0000 		.4byte	.LLST234
 8133 1ae1 2E       		.uleb128 0x2e
 8134 1ae2 0A000000 		.4byte	.LBB436
 8135 1ae6 92000000 		.4byte	.LBE436-.LBB436
 8136 1aea 2F       		.uleb128 0x2f
 8137 1aeb 630A0000 		.4byte	0xa63
 8138 1aef 281D0000 		.4byte	.LLST235
 8139 1af3 2F       		.uleb128 0x2f
 8140 1af4 6F0A0000 		.4byte	0xa6f
 8141 1af8 3B1D0000 		.4byte	.LLST236
 8142 1afc 2F       		.uleb128 0x2f
 8143 1afd 7B0A0000 		.4byte	0xa7b
 8144 1b01 4E1D0000 		.4byte	.LLST237
 8145 1b05 2F       		.uleb128 0x2f
ARM GAS  C:\Users\strap\AppData\Local\Temp\cc7bAV43.s 			page 188


 8146 1b06 870A0000 		.4byte	0xa87
 8147 1b0a 6E1D0000 		.4byte	.LLST238
 8148 1b0e 2F       		.uleb128 0x2f
 8149 1b0f 930A0000 		.4byte	0xa93
 8150 1b13 8E1D0000 		.4byte	.LLST239
 8151 1b17 35       		.uleb128 0x35
 8152 1b18 9D0A0000 		.4byte	0xa9d
 8153 1b1c 36       		.uleb128 0x36
 8154 1b1d 22000000 		.4byte	.LBB437
 8155 1b21 3A000000 		.4byte	.LBE437-.LBB437
 8156 1b25 901B0000 		.4byte	0x1b90
 8157 1b29 35       		.uleb128 0x35
 8158 1b2a AA0A0000 		.4byte	0xaaa
 8159 1b2e 2D       		.uleb128 0x2d
 8160 1b2f D7040000 		.4byte	0x4d7
 8161 1b33 22000000 		.4byte	.LBB438
 8162 1b37 1A000000 		.4byte	.LBE438-.LBB438
 8163 1b3b 01       		.byte	0x1
 8164 1b3c 3304     		.2byte	0x433
 8165 1b3e 29       		.uleb128 0x29
 8166 1b3f F4040000 		.4byte	0x4f4
 8167 1b43 BA1D0000 		.4byte	.LLST240
 8168 1b47 29       		.uleb128 0x29
 8169 1b48 E8040000 		.4byte	0x4e8
 8170 1b4c CD1D0000 		.4byte	.LLST241
 8171 1b50 2D       		.uleb128 0x2d
 8172 1b51 60040000 		.4byte	0x460
 8173 1b55 22000000 		.4byte	.LBB440
 8174 1b59 18000000 		.4byte	.LBE440-.LBB440
 8175 1b5d 01       		.byte	0x1
 8176 1b5e 9104     		.2byte	0x491
 8177 1b60 29       		.uleb128 0x29
 8178 1b61 7D040000 		.4byte	0x47d
 8179 1b65 E01D0000 		.4byte	.LLST242
 8180 1b69 29       		.uleb128 0x29
 8181 1b6a 71040000 		.4byte	0x471
 8182 1b6e F31D0000 		.4byte	.LLST243
 8183 1b72 2E       		.uleb128 0x2e
 8184 1b73 22000000 		.4byte	.LBB441
 8185 1b77 18000000 		.4byte	.LBE441-.LBB441
 8186 1b7b 30       		.uleb128 0x30
 8187 1b7c 89040000 		.4byte	0x489
 8188 1b80 02       		.uleb128 0x2
 8189 1b81 91       		.byte	0x91
 8190 1b82 64       		.sleb128 -28
 8191 1b83 2F       		.uleb128 0x2f
 8192 1b84 95040000 		.4byte	0x495
 8193 1b88 061E0000 		.4byte	.LLST244
 8194 1b8c 00       		.byte	0
 8195 1b8d 00       		.byte	0
 8196 1b8e 00       		.byte	0
 8197 1b8f 00       		.byte	0
 8198 1b90 28       		.uleb128 0x28
 8199 1b91 01050000 		.4byte	0x501
 8200 1b95 5C000000 		.4byte	.LBB442
 8201 1b99 20000000 		.4byte	.LBE442-.LBB442
 8202 1b9d 01       		.byte	0x1
ARM GAS  C:\Users\strap\AppData\Local\Temp\cc7bAV43.s 			page 189


 8203 1b9e 4504     		.2byte	0x445
 8204 1ba0 E01B0000 		.4byte	0x1be0
 8205 1ba4 29       		.uleb128 0x29
 8206 1ba5 1E050000 		.4byte	0x51e
 8207 1ba9 1B1E0000 		.4byte	.LLST245
 8208 1bad 2C       		.uleb128 0x2c
 8209 1bae 12050000 		.4byte	0x512
 8210 1bb2 2D       		.uleb128 0x2d
 8211 1bb3 AD040000 		.4byte	0x4ad
 8212 1bb7 5C000000 		.4byte	.LBB444
 8213 1bbb 1E000000 		.4byte	.LBE444-.LBB444
 8214 1bbf 01       		.byte	0x1
 8215 1bc0 AE04     		.2byte	0x4ae
 8216 1bc2 29       		.uleb128 0x29
 8217 1bc3 BE040000 		.4byte	0x4be
 8218 1bc7 2E1E0000 		.4byte	.LLST246
 8219 1bcb 2E       		.uleb128 0x2e
 8220 1bcc 5C000000 		.4byte	.LBB445
 8221 1bd0 1E000000 		.4byte	.LBE445-.LBB445
 8222 1bd4 2F       		.uleb128 0x2f
 8223 1bd5 CA040000 		.4byte	0x4ca
 8224 1bd9 621E0000 		.4byte	.LLST247
 8225 1bdd 00       		.byte	0
 8226 1bde 00       		.byte	0
 8227 1bdf 00       		.byte	0
 8228 1be0 2D       		.uleb128 0x2d
 8229 1be1 2B050000 		.4byte	0x52b
 8230 1be5 7C000000 		.4byte	.LBB446
 8231 1be9 14000000 		.4byte	.LBE446-.LBB446
 8232 1bed 01       		.byte	0x1
 8233 1bee 3004     		.2byte	0x430
 8234 1bf0 29       		.uleb128 0x29
 8235 1bf1 48050000 		.4byte	0x548
 8236 1bf5 761E0000 		.4byte	.LLST248
 8237 1bf9 29       		.uleb128 0x29
 8238 1bfa 3C050000 		.4byte	0x53c
 8239 1bfe 891E0000 		.4byte	.LLST249
 8240 1c02 2D       		.uleb128 0x2d
 8241 1c03 60040000 		.4byte	0x460
 8242 1c07 7C000000 		.4byte	.LBB448
 8243 1c0b 10000000 		.4byte	.LBE448-.LBB448
 8244 1c0f 01       		.byte	0x1
 8245 1c10 8604     		.2byte	0x486
 8246 1c12 29       		.uleb128 0x29
 8247 1c13 7D040000 		.4byte	0x47d
 8248 1c17 9C1E0000 		.4byte	.LLST250
 8249 1c1b 29       		.uleb128 0x29
 8250 1c1c 71040000 		.4byte	0x471
 8251 1c20 AF1E0000 		.4byte	.LLST251
 8252 1c24 2E       		.uleb128 0x2e
 8253 1c25 7C000000 		.4byte	.LBB449
 8254 1c29 10000000 		.4byte	.LBE449-.LBB449
 8255 1c2d 30       		.uleb128 0x30
 8256 1c2e 89040000 		.4byte	0x489
 8257 1c32 02       		.uleb128 0x2
 8258 1c33 91       		.byte	0x91
 8259 1c34 64       		.sleb128 -28
ARM GAS  C:\Users\strap\AppData\Local\Temp\cc7bAV43.s 			page 190


 8260 1c35 2F       		.uleb128 0x2f
 8261 1c36 95040000 		.4byte	0x495
 8262 1c3a C21E0000 		.4byte	.LLST252
 8263 1c3e 00       		.byte	0
 8264 1c3f 00       		.byte	0
 8265 1c40 00       		.byte	0
 8266 1c41 00       		.byte	0
 8267 1c42 00       		.byte	0
 8268 1c43 36       		.uleb128 0x36
 8269 1c44 A0000000 		.4byte	.LBB450
 8270 1c48 42000000 		.4byte	.LBE450-.LBB450
 8271 1c4c 161D0000 		.4byte	0x1d16
 8272 1c50 17       		.uleb128 0x17
 8273 1c51 DF070000 		.4byte	.LASF117
 8274 1c55 01       		.byte	0x1
 8275 1c56 FB01     		.2byte	0x1fb
 8276 1c58 44020000 		.4byte	0x244
 8277 1c5c 22       		.uleb128 0x22
 8278 1c5d 9E030000 		.4byte	.LASF118
 8279 1c61 01       		.byte	0x1
 8280 1c62 FC01     		.2byte	0x1fc
 8281 1c64 44020000 		.4byte	0x244
 8282 1c68 D71E0000 		.4byte	.LLST253
 8283 1c6c 28       		.uleb128 0x28
 8284 1c6d D7040000 		.4byte	0x4d7
 8285 1c71 A0000000 		.4byte	.LBB451
 8286 1c75 14000000 		.4byte	.LBE451-.LBB451
 8287 1c79 01       		.byte	0x1
 8288 1c7a FE01     		.2byte	0x1fe
 8289 1c7c D11C0000 		.4byte	0x1cd1
 8290 1c80 29       		.uleb128 0x29
 8291 1c81 F4040000 		.4byte	0x4f4
 8292 1c85 FF1E0000 		.4byte	.LLST254
 8293 1c89 29       		.uleb128 0x29
 8294 1c8a E8040000 		.4byte	0x4e8
 8295 1c8e 121F0000 		.4byte	.LLST255
 8296 1c92 2D       		.uleb128 0x2d
 8297 1c93 60040000 		.4byte	0x460
 8298 1c97 A0000000 		.4byte	.LBB453
 8299 1c9b 14000000 		.4byte	.LBE453-.LBB453
 8300 1c9f 01       		.byte	0x1
 8301 1ca0 9104     		.2byte	0x491
 8302 1ca2 29       		.uleb128 0x29
 8303 1ca3 7D040000 		.4byte	0x47d
 8304 1ca7 FF1E0000 		.4byte	.LLST254
 8305 1cab 29       		.uleb128 0x29
 8306 1cac 71040000 		.4byte	0x471
 8307 1cb0 121F0000 		.4byte	.LLST255
 8308 1cb4 2E       		.uleb128 0x2e
 8309 1cb5 A0000000 		.4byte	.LBB454
 8310 1cb9 14000000 		.4byte	.LBE454-.LBB454
 8311 1cbd 30       		.uleb128 0x30
 8312 1cbe 89040000 		.4byte	0x489
 8313 1cc2 02       		.uleb128 0x2
 8314 1cc3 91       		.byte	0x91
 8315 1cc4 64       		.sleb128 -28
 8316 1cc5 2F       		.uleb128 0x2f
ARM GAS  C:\Users\strap\AppData\Local\Temp\cc7bAV43.s 			page 191


 8317 1cc6 95040000 		.4byte	0x495
 8318 1cca 251F0000 		.4byte	.LLST258
 8319 1cce 00       		.byte	0
 8320 1ccf 00       		.byte	0
 8321 1cd0 00       		.byte	0
 8322 1cd1 39       		.uleb128 0x39
 8323 1cd2 A3050000 		.4byte	0x5a3
 8324 1cd6 CA000000 		.4byte	.LBB455
 8325 1cda 20010000 		.4byte	.Ldebug_ranges0+0x120
 8326 1cde 01       		.byte	0x1
 8327 1cdf 0202     		.2byte	0x202
 8328 1ce1 29       		.uleb128 0x29
 8329 1ce2 C9050000 		.4byte	0x5c9
 8330 1ce6 3A1F0000 		.4byte	.LLST259
 8331 1cea 29       		.uleb128 0x29
 8332 1ceb BE050000 		.4byte	0x5be
 8333 1cef 591F0000 		.4byte	.LLST260
 8334 1cf3 29       		.uleb128 0x29
 8335 1cf4 B3050000 		.4byte	0x5b3
 8336 1cf8 6C1F0000 		.4byte	.LLST261
 8337 1cfc 3A       		.uleb128 0x3a
 8338 1cfd 20010000 		.4byte	.Ldebug_ranges0+0x120
 8339 1d01 2F       		.uleb128 0x2f
 8340 1d02 D4050000 		.4byte	0x5d4
 8341 1d06 7F1F0000 		.4byte	.LLST262
 8342 1d0a 2F       		.uleb128 0x2f
 8343 1d0b DE050000 		.4byte	0x5de
 8344 1d0f 921F0000 		.4byte	.LLST263
 8345 1d13 00       		.byte	0
 8346 1d14 00       		.byte	0
 8347 1d15 00       		.byte	0
 8348 1d16 28       		.uleb128 0x28
 8349 1d17 7E050000 		.4byte	0x57e
 8350 1d1b F8000000 		.4byte	.LBB459
 8351 1d1f 0A000000 		.4byte	.LBE459-.LBB459
 8352 1d23 01       		.byte	0x1
 8353 1d24 1002     		.2byte	0x210
 8354 1d26 4D1D0000 		.4byte	0x1d4d
 8355 1d2a 29       		.uleb128 0x29
 8356 1d2b 97050000 		.4byte	0x597
 8357 1d2f C81F0000 		.4byte	.LLST264
 8358 1d33 29       		.uleb128 0x29
 8359 1d34 8B050000 		.4byte	0x58b
 8360 1d38 DB1F0000 		.4byte	.LLST265
 8361 1d3c 1E       		.uleb128 0x1e
 8362 1d3d 00010000 		.4byte	.LVL389
 8363 1d41 E2320000 		.4byte	0x32e2
 8364 1d45 1F       		.uleb128 0x1f
 8365 1d46 01       		.uleb128 0x1
 8366 1d47 51       		.byte	0x51
 8367 1d48 02       		.uleb128 0x2
 8368 1d49 74       		.byte	0x74
 8369 1d4a 00       		.sleb128 0
 8370 1d4b 00       		.byte	0
 8371 1d4c 00       		.byte	0
 8372 1d4d 3B       		.uleb128 0x3b
 8373 1d4e A3050000 		.4byte	0x5a3
ARM GAS  C:\Users\strap\AppData\Local\Temp\cc7bAV43.s 			page 192


 8374 1d52 1E010000 		.4byte	.LBB461
 8375 1d56 38010000 		.4byte	.Ldebug_ranges0+0x138
 8376 1d5a 01       		.byte	0x1
 8377 1d5b 1402     		.2byte	0x214
 8378 1d5d 951D0000 		.4byte	0x1d95
 8379 1d61 29       		.uleb128 0x29
 8380 1d62 C9050000 		.4byte	0x5c9
 8381 1d66 EE1F0000 		.4byte	.LLST266
 8382 1d6a 29       		.uleb128 0x29
 8383 1d6b BE050000 		.4byte	0x5be
 8384 1d6f 0D200000 		.4byte	.LLST267
 8385 1d73 29       		.uleb128 0x29
 8386 1d74 B3050000 		.4byte	0x5b3
 8387 1d78 3A200000 		.4byte	.LLST268
 8388 1d7c 3A       		.uleb128 0x3a
 8389 1d7d 38010000 		.4byte	.Ldebug_ranges0+0x138
 8390 1d81 2F       		.uleb128 0x2f
 8391 1d82 D4050000 		.4byte	0x5d4
 8392 1d86 4D200000 		.4byte	.LLST269
 8393 1d8a 2F       		.uleb128 0x2f
 8394 1d8b DE050000 		.4byte	0x5de
 8395 1d8f 60200000 		.4byte	.LLST270
 8396 1d93 00       		.byte	0
 8397 1d94 00       		.byte	0
 8398 1d95 3B       		.uleb128 0x3b
 8399 1d96 A3050000 		.4byte	0x5a3
 8400 1d9a 3A010000 		.4byte	.LBB465
 8401 1d9e 50010000 		.4byte	.Ldebug_ranges0+0x150
 8402 1da2 01       		.byte	0x1
 8403 1da3 1502     		.2byte	0x215
 8404 1da5 DD1D0000 		.4byte	0x1ddd
 8405 1da9 29       		.uleb128 0x29
 8406 1daa C9050000 		.4byte	0x5c9
 8407 1dae 98200000 		.4byte	.LLST271
 8408 1db2 29       		.uleb128 0x29
 8409 1db3 BE050000 		.4byte	0x5be
 8410 1db7 B7200000 		.4byte	.LLST272
 8411 1dbb 29       		.uleb128 0x29
 8412 1dbc B3050000 		.4byte	0x5b3
 8413 1dc0 CA200000 		.4byte	.LLST273
 8414 1dc4 3A       		.uleb128 0x3a
 8415 1dc5 50010000 		.4byte	.Ldebug_ranges0+0x150
 8416 1dc9 2F       		.uleb128 0x2f
 8417 1dca D4050000 		.4byte	0x5d4
 8418 1dce DD200000 		.4byte	.LLST274
 8419 1dd2 2F       		.uleb128 0x2f
 8420 1dd3 DE050000 		.4byte	0x5de
 8421 1dd7 F0200000 		.4byte	.LLST275
 8422 1ddb 00       		.byte	0
 8423 1ddc 00       		.byte	0
 8424 1ddd 3B       		.uleb128 0x3b
 8425 1dde A3050000 		.4byte	0x5a3
 8426 1de2 54010000 		.4byte	.LBB469
 8427 1de6 68010000 		.4byte	.Ldebug_ranges0+0x168
 8428 1dea 01       		.byte	0x1
 8429 1deb 1602     		.2byte	0x216
 8430 1ded 251E0000 		.4byte	0x1e25
ARM GAS  C:\Users\strap\AppData\Local\Temp\cc7bAV43.s 			page 193


 8431 1df1 29       		.uleb128 0x29
 8432 1df2 C9050000 		.4byte	0x5c9
 8433 1df6 1B210000 		.4byte	.LLST276
 8434 1dfa 29       		.uleb128 0x29
 8435 1dfb BE050000 		.4byte	0x5be
 8436 1dff 3A210000 		.4byte	.LLST277
 8437 1e03 29       		.uleb128 0x29
 8438 1e04 B3050000 		.4byte	0x5b3
 8439 1e08 67210000 		.4byte	.LLST278
 8440 1e0c 3A       		.uleb128 0x3a
 8441 1e0d 68010000 		.4byte	.Ldebug_ranges0+0x168
 8442 1e11 2F       		.uleb128 0x2f
 8443 1e12 D4050000 		.4byte	0x5d4
 8444 1e16 7A210000 		.4byte	.LLST279
 8445 1e1a 2F       		.uleb128 0x2f
 8446 1e1b DE050000 		.4byte	0x5de
 8447 1e1f 8D210000 		.4byte	.LLST280
 8448 1e23 00       		.byte	0
 8449 1e24 00       		.byte	0
 8450 1e25 25       		.uleb128 0x25
 8451 1e26 EC000000 		.4byte	.LVL385
 8452 1e2a C9080000 		.4byte	0x8c9
 8453 1e2e 391E0000 		.4byte	0x1e39
 8454 1e32 1F       		.uleb128 0x1f
 8455 1e33 01       		.uleb128 0x1
 8456 1e34 50       		.byte	0x50
 8457 1e35 02       		.uleb128 0x2
 8458 1e36 75       		.byte	0x75
 8459 1e37 00       		.sleb128 0
 8460 1e38 00       		.byte	0
 8461 1e39 24       		.uleb128 0x24
 8462 1e3a 06010000 		.4byte	.LVL391
 8463 1e3e CC320000 		.4byte	0x32cc
 8464 1e42 1E       		.uleb128 0x1e
 8465 1e43 12010000 		.4byte	.LVL392
 8466 1e47 D7320000 		.4byte	0x32d7
 8467 1e4b 1F       		.uleb128 0x1f
 8468 1e4c 01       		.uleb128 0x1
 8469 1e4d 50       		.byte	0x50
 8470 1e4e 05       		.uleb128 0x5
 8471 1e4f 03       		.byte	0x3
 8472 1e50 00000000 		.4byte	.LC0
 8473 1e54 00       		.byte	0
 8474 1e55 00       		.byte	0
 8475 1e56 2B       		.uleb128 0x2b
 8476 1e57 13030000 		.4byte	.LASF130
 8477 1e5b 01       		.byte	0x1
 8478 1e5c 2302     		.2byte	0x223
 8479 1e5e C3000000 		.4byte	0xc3
 8480 1e62 00000000 		.4byte	.LFB342
 8481 1e66 FC000000 		.4byte	.LFE342-.LFB342
 8482 1e6a 01       		.uleb128 0x1
 8483 1e6b 9C       		.byte	0x9c
 8484 1e6c 17210000 		.4byte	0x2117
 8485 1e70 27       		.uleb128 0x27
 8486 1e71 DB010000 		.4byte	.LASF84
 8487 1e75 01       		.byte	0x1
ARM GAS  C:\Users\strap\AppData\Local\Temp\cc7bAV43.s 			page 194


 8488 1e76 2302     		.2byte	0x223
 8489 1e78 A2040000 		.4byte	0x4a2
 8490 1e7c B8210000 		.4byte	.LLST281
 8491 1e80 27       		.uleb128 0x27
 8492 1e81 25030000 		.4byte	.LASF85
 8493 1e85 01       		.byte	0x1
 8494 1e86 2302     		.2byte	0x223
 8495 1e88 4F020000 		.4byte	0x24f
 8496 1e8c 1B220000 		.4byte	.LLST282
 8497 1e90 27       		.uleb128 0x27
 8498 1e91 38030000 		.4byte	.LASF131
 8499 1e95 01       		.byte	0x1
 8500 1e96 2302     		.2byte	0x223
 8501 1e98 05010000 		.4byte	0x105
 8502 1e9c 55220000 		.4byte	.LLST283
 8503 1ea0 23       		.uleb128 0x23
 8504 1ea1 72657300 		.ascii	"res\000"
 8505 1ea5 01       		.byte	0x1
 8506 1ea6 2502     		.2byte	0x225
 8507 1ea8 17210000 		.4byte	0x2117
 8508 1eac 8F220000 		.4byte	.LLST284
 8509 1eb0 31       		.uleb128 0x31
 8510 1eb1 696400   		.ascii	"id\000"
 8511 1eb4 01       		.byte	0x1
 8512 1eb5 2B02     		.2byte	0x22b
 8513 1eb7 D9000000 		.4byte	0xd9
 8514 1ebb 28       		.uleb128 0x28
 8515 1ebc 3A0A0000 		.4byte	0xa3a
 8516 1ec0 12000000 		.4byte	.LBB495
 8517 1ec4 96000000 		.4byte	.LBE495-.LBB495
 8518 1ec8 01       		.byte	0x1
 8519 1ec9 2B02     		.2byte	0x22b
 8520 1ecb 43200000 		.4byte	0x2043
 8521 1ecf 29       		.uleb128 0x29
 8522 1ed0 570A0000 		.4byte	0xa57
 8523 1ed4 C9220000 		.4byte	.LLST285
 8524 1ed8 29       		.uleb128 0x29
 8525 1ed9 4B0A0000 		.4byte	0xa4b
 8526 1edd DC220000 		.4byte	.LLST286
 8527 1ee1 2E       		.uleb128 0x2e
 8528 1ee2 12000000 		.4byte	.LBB496
 8529 1ee6 96000000 		.4byte	.LBE496-.LBB496
 8530 1eea 2F       		.uleb128 0x2f
 8531 1eeb 630A0000 		.4byte	0xa63
 8532 1eef 05230000 		.4byte	.LLST287
 8533 1ef3 2F       		.uleb128 0x2f
 8534 1ef4 6F0A0000 		.4byte	0xa6f
 8535 1ef8 18230000 		.4byte	.LLST288
 8536 1efc 2F       		.uleb128 0x2f
 8537 1efd 7B0A0000 		.4byte	0xa7b
 8538 1f01 2B230000 		.4byte	.LLST289
 8539 1f05 2F       		.uleb128 0x2f
 8540 1f06 870A0000 		.4byte	0xa87
 8541 1f0a 4B230000 		.4byte	.LLST290
 8542 1f0e 2F       		.uleb128 0x2f
 8543 1f0f 930A0000 		.4byte	0xa93
 8544 1f13 76230000 		.4byte	.LLST291
ARM GAS  C:\Users\strap\AppData\Local\Temp\cc7bAV43.s 			page 195


 8545 1f17 35       		.uleb128 0x35
 8546 1f18 9D0A0000 		.4byte	0xa9d
 8547 1f1c 36       		.uleb128 0x36
 8548 1f1d 2A000000 		.4byte	.LBB497
 8549 1f21 40000000 		.4byte	.LBE497-.LBB497
 8550 1f25 901F0000 		.4byte	0x1f90
 8551 1f29 35       		.uleb128 0x35
 8552 1f2a AA0A0000 		.4byte	0xaaa
 8553 1f2e 2D       		.uleb128 0x2d
 8554 1f2f D7040000 		.4byte	0x4d7
 8555 1f33 2A000000 		.4byte	.LBB498
 8556 1f37 1A000000 		.4byte	.LBE498-.LBB498
 8557 1f3b 01       		.byte	0x1
 8558 1f3c 3304     		.2byte	0x433
 8559 1f3e 29       		.uleb128 0x29
 8560 1f3f F4040000 		.4byte	0x4f4
 8561 1f43 95230000 		.4byte	.LLST292
 8562 1f47 29       		.uleb128 0x29
 8563 1f48 E8040000 		.4byte	0x4e8
 8564 1f4c A8230000 		.4byte	.LLST293
 8565 1f50 2D       		.uleb128 0x2d
 8566 1f51 60040000 		.4byte	0x460
 8567 1f55 2A000000 		.4byte	.LBB500
 8568 1f59 18000000 		.4byte	.LBE500-.LBB500
 8569 1f5d 01       		.byte	0x1
 8570 1f5e 9104     		.2byte	0x491
 8571 1f60 29       		.uleb128 0x29
 8572 1f61 7D040000 		.4byte	0x47d
 8573 1f65 BB230000 		.4byte	.LLST294
 8574 1f69 29       		.uleb128 0x29
 8575 1f6a 71040000 		.4byte	0x471
 8576 1f6e CE230000 		.4byte	.LLST295
 8577 1f72 2E       		.uleb128 0x2e
 8578 1f73 2A000000 		.4byte	.LBB501
 8579 1f77 18000000 		.4byte	.LBE501-.LBB501
 8580 1f7b 30       		.uleb128 0x30
 8581 1f7c 89040000 		.4byte	0x489
 8582 1f80 02       		.uleb128 0x2
 8583 1f81 91       		.byte	0x91
 8584 1f82 5E       		.sleb128 -34
 8585 1f83 2F       		.uleb128 0x2f
 8586 1f84 95040000 		.4byte	0x495
 8587 1f88 E1230000 		.4byte	.LLST296
 8588 1f8c 00       		.byte	0
 8589 1f8d 00       		.byte	0
 8590 1f8e 00       		.byte	0
 8591 1f8f 00       		.byte	0
 8592 1f90 28       		.uleb128 0x28
 8593 1f91 01050000 		.4byte	0x501
 8594 1f95 6A000000 		.4byte	.LBB502
 8595 1f99 20000000 		.4byte	.LBE502-.LBB502
 8596 1f9d 01       		.byte	0x1
 8597 1f9e 4504     		.2byte	0x445
 8598 1fa0 E01F0000 		.4byte	0x1fe0
 8599 1fa4 29       		.uleb128 0x29
 8600 1fa5 1E050000 		.4byte	0x51e
 8601 1fa9 F6230000 		.4byte	.LLST297
ARM GAS  C:\Users\strap\AppData\Local\Temp\cc7bAV43.s 			page 196


 8602 1fad 2C       		.uleb128 0x2c
 8603 1fae 12050000 		.4byte	0x512
 8604 1fb2 2D       		.uleb128 0x2d
 8605 1fb3 AD040000 		.4byte	0x4ad
 8606 1fb7 6A000000 		.4byte	.LBB504
 8607 1fbb 1E000000 		.4byte	.LBE504-.LBB504
 8608 1fbf 01       		.byte	0x1
 8609 1fc0 AE04     		.2byte	0x4ae
 8610 1fc2 29       		.uleb128 0x29
 8611 1fc3 BE040000 		.4byte	0x4be
 8612 1fc7 09240000 		.4byte	.LLST298
 8613 1fcb 2E       		.uleb128 0x2e
 8614 1fcc 6A000000 		.4byte	.LBB505
 8615 1fd0 1E000000 		.4byte	.LBE505-.LBB505
 8616 1fd4 2F       		.uleb128 0x2f
 8617 1fd5 CA040000 		.4byte	0x4ca
 8618 1fd9 3D240000 		.4byte	.LLST299
 8619 1fdd 00       		.byte	0
 8620 1fde 00       		.byte	0
 8621 1fdf 00       		.byte	0
 8622 1fe0 2D       		.uleb128 0x2d
 8623 1fe1 2B050000 		.4byte	0x52b
 8624 1fe5 8A000000 		.4byte	.LBB506
 8625 1fe9 14000000 		.4byte	.LBE506-.LBB506
 8626 1fed 01       		.byte	0x1
 8627 1fee 3004     		.2byte	0x430
 8628 1ff0 29       		.uleb128 0x29
 8629 1ff1 48050000 		.4byte	0x548
 8630 1ff5 51240000 		.4byte	.LLST300
 8631 1ff9 29       		.uleb128 0x29
 8632 1ffa 3C050000 		.4byte	0x53c
 8633 1ffe 64240000 		.4byte	.LLST301
 8634 2002 2D       		.uleb128 0x2d
 8635 2003 60040000 		.4byte	0x460
 8636 2007 8A000000 		.4byte	.LBB508
 8637 200b 10000000 		.4byte	.LBE508-.LBB508
 8638 200f 01       		.byte	0x1
 8639 2010 8604     		.2byte	0x486
 8640 2012 29       		.uleb128 0x29
 8641 2013 7D040000 		.4byte	0x47d
 8642 2017 77240000 		.4byte	.LLST302
 8643 201b 29       		.uleb128 0x29
 8644 201c 71040000 		.4byte	0x471
 8645 2020 8A240000 		.4byte	.LLST303
 8646 2024 2E       		.uleb128 0x2e
 8647 2025 8A000000 		.4byte	.LBB509
 8648 2029 10000000 		.4byte	.LBE509-.LBB509
 8649 202d 30       		.uleb128 0x30
 8650 202e 89040000 		.4byte	0x489
 8651 2032 02       		.uleb128 0x2
 8652 2033 91       		.byte	0x91
 8653 2034 5E       		.sleb128 -34
 8654 2035 2F       		.uleb128 0x2f
 8655 2036 95040000 		.4byte	0x495
 8656 203a 9D240000 		.4byte	.LLST304
 8657 203e 00       		.byte	0
 8658 203f 00       		.byte	0
ARM GAS  C:\Users\strap\AppData\Local\Temp\cc7bAV43.s 			page 197


 8659 2040 00       		.byte	0
 8660 2041 00       		.byte	0
 8661 2042 00       		.byte	0
 8662 2043 2E       		.uleb128 0x2e
 8663 2044 AC000000 		.4byte	.LBB510
 8664 2048 3A000000 		.4byte	.LBE510-.LBB510
 8665 204c 17       		.uleb128 0x17
 8666 204d D6000000 		.4byte	.LASF132
 8667 2051 01       		.byte	0x1
 8668 2052 3102     		.2byte	0x231
 8669 2054 44020000 		.4byte	0x244
 8670 2058 22       		.uleb128 0x22
 8671 2059 9E030000 		.4byte	.LASF118
 8672 205d 01       		.byte	0x1
 8673 205e 3402     		.2byte	0x234
 8674 2060 44020000 		.4byte	0x244
 8675 2064 B2240000 		.4byte	.LLST305
 8676 2068 28       		.uleb128 0x28
 8677 2069 A3050000 		.4byte	0x5a3
 8678 206d B8000000 		.4byte	.LBB511
 8679 2071 0E000000 		.4byte	.LBE511-.LBB511
 8680 2075 01       		.byte	0x1
 8681 2076 3002     		.2byte	0x230
 8682 2078 B4200000 		.4byte	0x20b4
 8683 207c 29       		.uleb128 0x29
 8684 207d C9050000 		.4byte	0x5c9
 8685 2081 C5240000 		.4byte	.LLST306
 8686 2085 29       		.uleb128 0x29
 8687 2086 BE050000 		.4byte	0x5be
 8688 208a E4240000 		.4byte	.LLST307
 8689 208e 29       		.uleb128 0x29
 8690 208f B3050000 		.4byte	0x5b3
 8691 2093 F7240000 		.4byte	.LLST308
 8692 2097 2E       		.uleb128 0x2e
 8693 2098 B8000000 		.4byte	.LBB512
 8694 209c 0E000000 		.4byte	.LBE512-.LBB512
 8695 20a0 2F       		.uleb128 0x2f
 8696 20a1 D4050000 		.4byte	0x5d4
 8697 20a5 18250000 		.4byte	.LLST309
 8698 20a9 2F       		.uleb128 0x2f
 8699 20aa DE050000 		.4byte	0x5de
 8700 20ae 2B250000 		.4byte	.LLST310
 8701 20b2 00       		.byte	0
 8702 20b3 00       		.byte	0
 8703 20b4 2D       		.uleb128 0x2d
 8704 20b5 D7040000 		.4byte	0x4d7
 8705 20b9 C6000000 		.4byte	.LBB513
 8706 20bd 14000000 		.4byte	.LBE513-.LBB513
 8707 20c1 01       		.byte	0x1
 8708 20c2 3202     		.2byte	0x232
 8709 20c4 29       		.uleb128 0x29
 8710 20c5 F4040000 		.4byte	0x4f4
 8711 20c9 56250000 		.4byte	.LLST311
 8712 20cd 29       		.uleb128 0x29
 8713 20ce E8040000 		.4byte	0x4e8
 8714 20d2 76250000 		.4byte	.LLST312
 8715 20d6 2D       		.uleb128 0x2d
ARM GAS  C:\Users\strap\AppData\Local\Temp\cc7bAV43.s 			page 198


 8716 20d7 60040000 		.4byte	0x460
 8717 20db C6000000 		.4byte	.LBB515
 8718 20df 14000000 		.4byte	.LBE515-.LBB515
 8719 20e3 01       		.byte	0x1
 8720 20e4 9104     		.2byte	0x491
 8721 20e6 29       		.uleb128 0x29
 8722 20e7 7D040000 		.4byte	0x47d
 8723 20eb 56250000 		.4byte	.LLST311
 8724 20ef 29       		.uleb128 0x29
 8725 20f0 71040000 		.4byte	0x471
 8726 20f4 76250000 		.4byte	.LLST312
 8727 20f8 2E       		.uleb128 0x2e
 8728 20f9 C6000000 		.4byte	.LBB516
 8729 20fd 14000000 		.4byte	.LBE516-.LBB516
 8730 2101 30       		.uleb128 0x30
 8731 2102 89040000 		.4byte	0x489
 8732 2106 02       		.uleb128 0x2
 8733 2107 91       		.byte	0x91
 8734 2108 5E       		.sleb128 -34
 8735 2109 2F       		.uleb128 0x2f
 8736 210a 95040000 		.4byte	0x495
 8737 210e 89250000 		.4byte	.LLST315
 8738 2112 00       		.byte	0
 8739 2113 00       		.byte	0
 8740 2114 00       		.byte	0
 8741 2115 00       		.byte	0
 8742 2116 00       		.byte	0
 8743 2117 08       		.uleb128 0x8
 8744 2118 04       		.byte	0x4
 8745 2119 80020000 		.4byte	0x280
 8746 211d 2B       		.uleb128 0x2b
 8747 211e 8A040000 		.4byte	.LASF133
 8748 2122 01       		.byte	0x1
 8749 2123 4802     		.2byte	0x248
 8750 2125 C3000000 		.4byte	0xc3
 8751 2129 00000000 		.4byte	.LFB343
 8752 212d FC000000 		.4byte	.LFE343-.LFB343
 8753 2131 01       		.uleb128 0x1
 8754 2132 9C       		.byte	0x9c
 8755 2133 DE230000 		.4byte	0x23de
 8756 2137 27       		.uleb128 0x27
 8757 2138 DB010000 		.4byte	.LASF84
 8758 213c 01       		.byte	0x1
 8759 213d 4802     		.2byte	0x248
 8760 213f A2040000 		.4byte	0x4a2
 8761 2143 9E250000 		.4byte	.LLST316
 8762 2147 27       		.uleb128 0x27
 8763 2148 25030000 		.4byte	.LASF85
 8764 214c 01       		.byte	0x1
 8765 214d 4802     		.2byte	0x248
 8766 214f 4F020000 		.4byte	0x24f
 8767 2153 01260000 		.4byte	.LLST317
 8768 2157 27       		.uleb128 0x27
 8769 2158 38030000 		.4byte	.LASF131
 8770 215c 01       		.byte	0x1
 8771 215d 4802     		.2byte	0x248
 8772 215f 05010000 		.4byte	0x105
ARM GAS  C:\Users\strap\AppData\Local\Temp\cc7bAV43.s 			page 199


 8773 2163 3B260000 		.4byte	.LLST318
 8774 2167 23       		.uleb128 0x23
 8775 2168 72657300 		.ascii	"res\000"
 8776 216c 01       		.byte	0x1
 8777 216d 4A02     		.2byte	0x24a
 8778 216f 3E020000 		.4byte	0x23e
 8779 2173 75260000 		.4byte	.LLST319
 8780 2177 31       		.uleb128 0x31
 8781 2178 696400   		.ascii	"id\000"
 8782 217b 01       		.byte	0x1
 8783 217c 5002     		.2byte	0x250
 8784 217e D9000000 		.4byte	0xd9
 8785 2182 28       		.uleb128 0x28
 8786 2183 3A0A0000 		.4byte	0xa3a
 8787 2187 12000000 		.4byte	.LBB539
 8788 218b 96000000 		.4byte	.LBE539-.LBB539
 8789 218f 01       		.byte	0x1
 8790 2190 5002     		.2byte	0x250
 8791 2192 0A230000 		.4byte	0x230a
 8792 2196 29       		.uleb128 0x29
 8793 2197 570A0000 		.4byte	0xa57
 8794 219b AF260000 		.4byte	.LLST320
 8795 219f 29       		.uleb128 0x29
 8796 21a0 4B0A0000 		.4byte	0xa4b
 8797 21a4 C2260000 		.4byte	.LLST321
 8798 21a8 2E       		.uleb128 0x2e
 8799 21a9 12000000 		.4byte	.LBB540
 8800 21ad 96000000 		.4byte	.LBE540-.LBB540
 8801 21b1 2F       		.uleb128 0x2f
 8802 21b2 630A0000 		.4byte	0xa63
 8803 21b6 EB260000 		.4byte	.LLST322
 8804 21ba 2F       		.uleb128 0x2f
 8805 21bb 6F0A0000 		.4byte	0xa6f
 8806 21bf FE260000 		.4byte	.LLST323
 8807 21c3 2F       		.uleb128 0x2f
 8808 21c4 7B0A0000 		.4byte	0xa7b
 8809 21c8 11270000 		.4byte	.LLST324
 8810 21cc 2F       		.uleb128 0x2f
 8811 21cd 870A0000 		.4byte	0xa87
 8812 21d1 31270000 		.4byte	.LLST325
 8813 21d5 2F       		.uleb128 0x2f
 8814 21d6 930A0000 		.4byte	0xa93
 8815 21da 5C270000 		.4byte	.LLST326
 8816 21de 35       		.uleb128 0x35
 8817 21df 9D0A0000 		.4byte	0xa9d
 8818 21e3 36       		.uleb128 0x36
 8819 21e4 2A000000 		.4byte	.LBB541
 8820 21e8 40000000 		.4byte	.LBE541-.LBB541
 8821 21ec 57220000 		.4byte	0x2257
 8822 21f0 35       		.uleb128 0x35
 8823 21f1 AA0A0000 		.4byte	0xaaa
 8824 21f5 2D       		.uleb128 0x2d
 8825 21f6 D7040000 		.4byte	0x4d7
 8826 21fa 2A000000 		.4byte	.LBB542
 8827 21fe 1A000000 		.4byte	.LBE542-.LBB542
 8828 2202 01       		.byte	0x1
 8829 2203 3304     		.2byte	0x433
ARM GAS  C:\Users\strap\AppData\Local\Temp\cc7bAV43.s 			page 200


 8830 2205 29       		.uleb128 0x29
 8831 2206 F4040000 		.4byte	0x4f4
 8832 220a 7B270000 		.4byte	.LLST327
 8833 220e 29       		.uleb128 0x29
 8834 220f E8040000 		.4byte	0x4e8
 8835 2213 8E270000 		.4byte	.LLST328
 8836 2217 2D       		.uleb128 0x2d
 8837 2218 60040000 		.4byte	0x460
 8838 221c 2A000000 		.4byte	.LBB544
 8839 2220 18000000 		.4byte	.LBE544-.LBB544
 8840 2224 01       		.byte	0x1
 8841 2225 9104     		.2byte	0x491
 8842 2227 29       		.uleb128 0x29
 8843 2228 7D040000 		.4byte	0x47d
 8844 222c A1270000 		.4byte	.LLST329
 8845 2230 29       		.uleb128 0x29
 8846 2231 71040000 		.4byte	0x471
 8847 2235 B4270000 		.4byte	.LLST330
 8848 2239 2E       		.uleb128 0x2e
 8849 223a 2A000000 		.4byte	.LBB545
 8850 223e 18000000 		.4byte	.LBE545-.LBB545
 8851 2242 30       		.uleb128 0x30
 8852 2243 89040000 		.4byte	0x489
 8853 2247 02       		.uleb128 0x2
 8854 2248 91       		.byte	0x91
 8855 2249 5E       		.sleb128 -34
 8856 224a 2F       		.uleb128 0x2f
 8857 224b 95040000 		.4byte	0x495
 8858 224f C7270000 		.4byte	.LLST331
 8859 2253 00       		.byte	0
 8860 2254 00       		.byte	0
 8861 2255 00       		.byte	0
 8862 2256 00       		.byte	0
 8863 2257 28       		.uleb128 0x28
 8864 2258 01050000 		.4byte	0x501
 8865 225c 6A000000 		.4byte	.LBB546
 8866 2260 20000000 		.4byte	.LBE546-.LBB546
 8867 2264 01       		.byte	0x1
 8868 2265 4504     		.2byte	0x445
 8869 2267 A7220000 		.4byte	0x22a7
 8870 226b 29       		.uleb128 0x29
 8871 226c 1E050000 		.4byte	0x51e
 8872 2270 DC270000 		.4byte	.LLST332
 8873 2274 2C       		.uleb128 0x2c
 8874 2275 12050000 		.4byte	0x512
 8875 2279 2D       		.uleb128 0x2d
 8876 227a AD040000 		.4byte	0x4ad
 8877 227e 6A000000 		.4byte	.LBB548
 8878 2282 1E000000 		.4byte	.LBE548-.LBB548
 8879 2286 01       		.byte	0x1
 8880 2287 AE04     		.2byte	0x4ae
 8881 2289 29       		.uleb128 0x29
 8882 228a BE040000 		.4byte	0x4be
 8883 228e EF270000 		.4byte	.LLST333
 8884 2292 2E       		.uleb128 0x2e
 8885 2293 6A000000 		.4byte	.LBB549
 8886 2297 1E000000 		.4byte	.LBE549-.LBB549
ARM GAS  C:\Users\strap\AppData\Local\Temp\cc7bAV43.s 			page 201


 8887 229b 2F       		.uleb128 0x2f
 8888 229c CA040000 		.4byte	0x4ca
 8889 22a0 23280000 		.4byte	.LLST334
 8890 22a4 00       		.byte	0
 8891 22a5 00       		.byte	0
 8892 22a6 00       		.byte	0
 8893 22a7 2D       		.uleb128 0x2d
 8894 22a8 2B050000 		.4byte	0x52b
 8895 22ac 8A000000 		.4byte	.LBB550
 8896 22b0 14000000 		.4byte	.LBE550-.LBB550
 8897 22b4 01       		.byte	0x1
 8898 22b5 3004     		.2byte	0x430
 8899 22b7 29       		.uleb128 0x29
 8900 22b8 48050000 		.4byte	0x548
 8901 22bc 37280000 		.4byte	.LLST335
 8902 22c0 29       		.uleb128 0x29
 8903 22c1 3C050000 		.4byte	0x53c
 8904 22c5 4A280000 		.4byte	.LLST336
 8905 22c9 2D       		.uleb128 0x2d
 8906 22ca 60040000 		.4byte	0x460
 8907 22ce 8A000000 		.4byte	.LBB552
 8908 22d2 10000000 		.4byte	.LBE552-.LBB552
 8909 22d6 01       		.byte	0x1
 8910 22d7 8604     		.2byte	0x486
 8911 22d9 29       		.uleb128 0x29
 8912 22da 7D040000 		.4byte	0x47d
 8913 22de 5D280000 		.4byte	.LLST337
 8914 22e2 29       		.uleb128 0x29
 8915 22e3 71040000 		.4byte	0x471
 8916 22e7 70280000 		.4byte	.LLST338
 8917 22eb 2E       		.uleb128 0x2e
 8918 22ec 8A000000 		.4byte	.LBB553
 8919 22f0 10000000 		.4byte	.LBE553-.LBB553
 8920 22f4 30       		.uleb128 0x30
 8921 22f5 89040000 		.4byte	0x489
 8922 22f9 02       		.uleb128 0x2
 8923 22fa 91       		.byte	0x91
 8924 22fb 5E       		.sleb128 -34
 8925 22fc 2F       		.uleb128 0x2f
 8926 22fd 95040000 		.4byte	0x495
 8927 2301 83280000 		.4byte	.LLST339
 8928 2305 00       		.byte	0
 8929 2306 00       		.byte	0
 8930 2307 00       		.byte	0
 8931 2308 00       		.byte	0
 8932 2309 00       		.byte	0
 8933 230a 2E       		.uleb128 0x2e
 8934 230b AC000000 		.4byte	.LBB554
 8935 230f 3A000000 		.4byte	.LBE554-.LBB554
 8936 2313 17       		.uleb128 0x17
 8937 2314 D6000000 		.4byte	.LASF132
 8938 2318 01       		.byte	0x1
 8939 2319 5602     		.2byte	0x256
 8940 231b 44020000 		.4byte	0x244
 8941 231f 22       		.uleb128 0x22
 8942 2320 9E030000 		.4byte	.LASF118
 8943 2324 01       		.byte	0x1
ARM GAS  C:\Users\strap\AppData\Local\Temp\cc7bAV43.s 			page 202


 8944 2325 5902     		.2byte	0x259
 8945 2327 44020000 		.4byte	0x244
 8946 232b 98280000 		.4byte	.LLST340
 8947 232f 28       		.uleb128 0x28
 8948 2330 A3050000 		.4byte	0x5a3
 8949 2334 B8000000 		.4byte	.LBB555
 8950 2338 0E000000 		.4byte	.LBE555-.LBB555
 8951 233c 01       		.byte	0x1
 8952 233d 5502     		.2byte	0x255
 8953 233f 7B230000 		.4byte	0x237b
 8954 2343 29       		.uleb128 0x29
 8955 2344 C9050000 		.4byte	0x5c9
 8956 2348 AB280000 		.4byte	.LLST341
 8957 234c 29       		.uleb128 0x29
 8958 234d BE050000 		.4byte	0x5be
 8959 2351 CA280000 		.4byte	.LLST342
 8960 2355 29       		.uleb128 0x29
 8961 2356 B3050000 		.4byte	0x5b3
 8962 235a DD280000 		.4byte	.LLST343
 8963 235e 2E       		.uleb128 0x2e
 8964 235f B8000000 		.4byte	.LBB556
 8965 2363 0E000000 		.4byte	.LBE556-.LBB556
 8966 2367 2F       		.uleb128 0x2f
 8967 2368 D4050000 		.4byte	0x5d4
 8968 236c FE280000 		.4byte	.LLST344
 8969 2370 2F       		.uleb128 0x2f
 8970 2371 DE050000 		.4byte	0x5de
 8971 2375 11290000 		.4byte	.LLST345
 8972 2379 00       		.byte	0
 8973 237a 00       		.byte	0
 8974 237b 2D       		.uleb128 0x2d
 8975 237c D7040000 		.4byte	0x4d7
 8976 2380 C6000000 		.4byte	.LBB557
 8977 2384 14000000 		.4byte	.LBE557-.LBB557
 8978 2388 01       		.byte	0x1
 8979 2389 5702     		.2byte	0x257
 8980 238b 29       		.uleb128 0x29
 8981 238c F4040000 		.4byte	0x4f4
 8982 2390 3C290000 		.4byte	.LLST346
 8983 2394 29       		.uleb128 0x29
 8984 2395 E8040000 		.4byte	0x4e8
 8985 2399 4F290000 		.4byte	.LLST347
 8986 239d 2D       		.uleb128 0x2d
 8987 239e 60040000 		.4byte	0x460
 8988 23a2 C6000000 		.4byte	.LBB559
 8989 23a6 14000000 		.4byte	.LBE559-.LBB559
 8990 23aa 01       		.byte	0x1
 8991 23ab 9104     		.2byte	0x491
 8992 23ad 29       		.uleb128 0x29
 8993 23ae 7D040000 		.4byte	0x47d
 8994 23b2 3C290000 		.4byte	.LLST346
 8995 23b6 29       		.uleb128 0x29
 8996 23b7 71040000 		.4byte	0x471
 8997 23bb 4F290000 		.4byte	.LLST347
 8998 23bf 2E       		.uleb128 0x2e
 8999 23c0 C6000000 		.4byte	.LBB560
 9000 23c4 14000000 		.4byte	.LBE560-.LBB560
ARM GAS  C:\Users\strap\AppData\Local\Temp\cc7bAV43.s 			page 203


 9001 23c8 30       		.uleb128 0x30
 9002 23c9 89040000 		.4byte	0x489
 9003 23cd 02       		.uleb128 0x2
 9004 23ce 91       		.byte	0x91
 9005 23cf 5E       		.sleb128 -34
 9006 23d0 2F       		.uleb128 0x2f
 9007 23d1 95040000 		.4byte	0x495
 9008 23d5 62290000 		.4byte	.LLST350
 9009 23d9 00       		.byte	0
 9010 23da 00       		.byte	0
 9011 23db 00       		.byte	0
 9012 23dc 00       		.byte	0
 9013 23dd 00       		.byte	0
 9014 23de 2B       		.uleb128 0x2b
 9015 23df F3060000 		.4byte	.LASF134
 9016 23e3 01       		.byte	0x1
 9017 23e4 6D02     		.2byte	0x26d
 9018 23e6 C3000000 		.4byte	0xc3
 9019 23ea 00000000 		.4byte	.LFB344
 9020 23ee FC000000 		.4byte	.LFE344-.LFB344
 9021 23f2 01       		.uleb128 0x1
 9022 23f3 9C       		.byte	0x9c
 9023 23f4 9F260000 		.4byte	0x269f
 9024 23f8 27       		.uleb128 0x27
 9025 23f9 DB010000 		.4byte	.LASF84
 9026 23fd 01       		.byte	0x1
 9027 23fe 6D02     		.2byte	0x26d
 9028 2400 A2040000 		.4byte	0x4a2
 9029 2404 77290000 		.4byte	.LLST351
 9030 2408 27       		.uleb128 0x27
 9031 2409 25030000 		.4byte	.LASF85
 9032 240d 01       		.byte	0x1
 9033 240e 6D02     		.2byte	0x26d
 9034 2410 4F020000 		.4byte	0x24f
 9035 2414 DA290000 		.4byte	.LLST352
 9036 2418 27       		.uleb128 0x27
 9037 2419 38030000 		.4byte	.LASF131
 9038 241d 01       		.byte	0x1
 9039 241e 6D02     		.2byte	0x26d
 9040 2420 05010000 		.4byte	0x105
 9041 2424 142A0000 		.4byte	.LLST353
 9042 2428 23       		.uleb128 0x23
 9043 2429 72657300 		.ascii	"res\000"
 9044 242d 01       		.byte	0x1
 9045 242e 6F02     		.2byte	0x26f
 9046 2430 4D040000 		.4byte	0x44d
 9047 2434 4E2A0000 		.4byte	.LLST354
 9048 2438 31       		.uleb128 0x31
 9049 2439 696400   		.ascii	"id\000"
 9050 243c 01       		.byte	0x1
 9051 243d 7202     		.2byte	0x272
 9052 243f D9000000 		.4byte	0xd9
 9053 2443 28       		.uleb128 0x28
 9054 2444 3A0A0000 		.4byte	0xa3a
 9055 2448 12000000 		.4byte	.LBB583
 9056 244c 96000000 		.4byte	.LBE583-.LBB583
 9057 2450 01       		.byte	0x1
ARM GAS  C:\Users\strap\AppData\Local\Temp\cc7bAV43.s 			page 204


 9058 2451 7202     		.2byte	0x272
 9059 2453 CB250000 		.4byte	0x25cb
 9060 2457 29       		.uleb128 0x29
 9061 2458 570A0000 		.4byte	0xa57
 9062 245c 882A0000 		.4byte	.LLST355
 9063 2460 29       		.uleb128 0x29
 9064 2461 4B0A0000 		.4byte	0xa4b
 9065 2465 9B2A0000 		.4byte	.LLST356
 9066 2469 2E       		.uleb128 0x2e
 9067 246a 12000000 		.4byte	.LBB584
 9068 246e 96000000 		.4byte	.LBE584-.LBB584
 9069 2472 2F       		.uleb128 0x2f
 9070 2473 630A0000 		.4byte	0xa63
 9071 2477 C42A0000 		.4byte	.LLST357
 9072 247b 2F       		.uleb128 0x2f
 9073 247c 6F0A0000 		.4byte	0xa6f
 9074 2480 D72A0000 		.4byte	.LLST358
 9075 2484 2F       		.uleb128 0x2f
 9076 2485 7B0A0000 		.4byte	0xa7b
 9077 2489 EA2A0000 		.4byte	.LLST359
 9078 248d 2F       		.uleb128 0x2f
 9079 248e 870A0000 		.4byte	0xa87
 9080 2492 0A2B0000 		.4byte	.LLST360
 9081 2496 2F       		.uleb128 0x2f
 9082 2497 930A0000 		.4byte	0xa93
 9083 249b 352B0000 		.4byte	.LLST361
 9084 249f 35       		.uleb128 0x35
 9085 24a0 9D0A0000 		.4byte	0xa9d
 9086 24a4 36       		.uleb128 0x36
 9087 24a5 2A000000 		.4byte	.LBB585
 9088 24a9 40000000 		.4byte	.LBE585-.LBB585
 9089 24ad 18250000 		.4byte	0x2518
 9090 24b1 35       		.uleb128 0x35
 9091 24b2 AA0A0000 		.4byte	0xaaa
 9092 24b6 2D       		.uleb128 0x2d
 9093 24b7 D7040000 		.4byte	0x4d7
 9094 24bb 2A000000 		.4byte	.LBB586
 9095 24bf 1A000000 		.4byte	.LBE586-.LBB586
 9096 24c3 01       		.byte	0x1
 9097 24c4 3304     		.2byte	0x433
 9098 24c6 29       		.uleb128 0x29
 9099 24c7 F4040000 		.4byte	0x4f4
 9100 24cb 542B0000 		.4byte	.LLST362
 9101 24cf 29       		.uleb128 0x29
 9102 24d0 E8040000 		.4byte	0x4e8
 9103 24d4 672B0000 		.4byte	.LLST363
 9104 24d8 2D       		.uleb128 0x2d
 9105 24d9 60040000 		.4byte	0x460
 9106 24dd 2A000000 		.4byte	.LBB588
 9107 24e1 18000000 		.4byte	.LBE588-.LBB588
 9108 24e5 01       		.byte	0x1
 9109 24e6 9104     		.2byte	0x491
 9110 24e8 29       		.uleb128 0x29
 9111 24e9 7D040000 		.4byte	0x47d
 9112 24ed 7A2B0000 		.4byte	.LLST364
 9113 24f1 29       		.uleb128 0x29
 9114 24f2 71040000 		.4byte	0x471
ARM GAS  C:\Users\strap\AppData\Local\Temp\cc7bAV43.s 			page 205


 9115 24f6 8D2B0000 		.4byte	.LLST365
 9116 24fa 2E       		.uleb128 0x2e
 9117 24fb 2A000000 		.4byte	.LBB589
 9118 24ff 18000000 		.4byte	.LBE589-.LBB589
 9119 2503 30       		.uleb128 0x30
 9120 2504 89040000 		.4byte	0x489
 9121 2508 02       		.uleb128 0x2
 9122 2509 91       		.byte	0x91
 9123 250a 5E       		.sleb128 -34
 9124 250b 2F       		.uleb128 0x2f
 9125 250c 95040000 		.4byte	0x495
 9126 2510 A02B0000 		.4byte	.LLST366
 9127 2514 00       		.byte	0
 9128 2515 00       		.byte	0
 9129 2516 00       		.byte	0
 9130 2517 00       		.byte	0
 9131 2518 28       		.uleb128 0x28
 9132 2519 01050000 		.4byte	0x501
 9133 251d 6A000000 		.4byte	.LBB590
 9134 2521 20000000 		.4byte	.LBE590-.LBB590
 9135 2525 01       		.byte	0x1
 9136 2526 4504     		.2byte	0x445
 9137 2528 68250000 		.4byte	0x2568
 9138 252c 29       		.uleb128 0x29
 9139 252d 1E050000 		.4byte	0x51e
 9140 2531 B52B0000 		.4byte	.LLST367
 9141 2535 2C       		.uleb128 0x2c
 9142 2536 12050000 		.4byte	0x512
 9143 253a 2D       		.uleb128 0x2d
 9144 253b AD040000 		.4byte	0x4ad
 9145 253f 6A000000 		.4byte	.LBB592
 9146 2543 1E000000 		.4byte	.LBE592-.LBB592
 9147 2547 01       		.byte	0x1
 9148 2548 AE04     		.2byte	0x4ae
 9149 254a 29       		.uleb128 0x29
 9150 254b BE040000 		.4byte	0x4be
 9151 254f C82B0000 		.4byte	.LLST368
 9152 2553 2E       		.uleb128 0x2e
 9153 2554 6A000000 		.4byte	.LBB593
 9154 2558 1E000000 		.4byte	.LBE593-.LBB593
 9155 255c 2F       		.uleb128 0x2f
 9156 255d CA040000 		.4byte	0x4ca
 9157 2561 FC2B0000 		.4byte	.LLST369
 9158 2565 00       		.byte	0
 9159 2566 00       		.byte	0
 9160 2567 00       		.byte	0
 9161 2568 2D       		.uleb128 0x2d
 9162 2569 2B050000 		.4byte	0x52b
 9163 256d 8A000000 		.4byte	.LBB594
 9164 2571 14000000 		.4byte	.LBE594-.LBB594
 9165 2575 01       		.byte	0x1
 9166 2576 3004     		.2byte	0x430
 9167 2578 29       		.uleb128 0x29
 9168 2579 48050000 		.4byte	0x548
 9169 257d 102C0000 		.4byte	.LLST370
 9170 2581 29       		.uleb128 0x29
 9171 2582 3C050000 		.4byte	0x53c
ARM GAS  C:\Users\strap\AppData\Local\Temp\cc7bAV43.s 			page 206


 9172 2586 232C0000 		.4byte	.LLST371
 9173 258a 2D       		.uleb128 0x2d
 9174 258b 60040000 		.4byte	0x460
 9175 258f 8A000000 		.4byte	.LBB596
 9176 2593 10000000 		.4byte	.LBE596-.LBB596
 9177 2597 01       		.byte	0x1
 9178 2598 8604     		.2byte	0x486
 9179 259a 29       		.uleb128 0x29
 9180 259b 7D040000 		.4byte	0x47d
 9181 259f 362C0000 		.4byte	.LLST372
 9182 25a3 29       		.uleb128 0x29
 9183 25a4 71040000 		.4byte	0x471
 9184 25a8 492C0000 		.4byte	.LLST373
 9185 25ac 2E       		.uleb128 0x2e
 9186 25ad 8A000000 		.4byte	.LBB597
 9187 25b1 10000000 		.4byte	.LBE597-.LBB597
 9188 25b5 30       		.uleb128 0x30
 9189 25b6 89040000 		.4byte	0x489
 9190 25ba 02       		.uleb128 0x2
 9191 25bb 91       		.byte	0x91
 9192 25bc 5E       		.sleb128 -34
 9193 25bd 2F       		.uleb128 0x2f
 9194 25be 95040000 		.4byte	0x495
 9195 25c2 5C2C0000 		.4byte	.LLST374
 9196 25c6 00       		.byte	0
 9197 25c7 00       		.byte	0
 9198 25c8 00       		.byte	0
 9199 25c9 00       		.byte	0
 9200 25ca 00       		.byte	0
 9201 25cb 2E       		.uleb128 0x2e
 9202 25cc AC000000 		.4byte	.LBB598
 9203 25d0 3A000000 		.4byte	.LBE598-.LBB598
 9204 25d4 17       		.uleb128 0x17
 9205 25d5 D6000000 		.4byte	.LASF132
 9206 25d9 01       		.byte	0x1
 9207 25da 7802     		.2byte	0x278
 9208 25dc 44020000 		.4byte	0x244
 9209 25e0 22       		.uleb128 0x22
 9210 25e1 9E030000 		.4byte	.LASF118
 9211 25e5 01       		.byte	0x1
 9212 25e6 7B02     		.2byte	0x27b
 9213 25e8 44020000 		.4byte	0x244
 9214 25ec 712C0000 		.4byte	.LLST375
 9215 25f0 28       		.uleb128 0x28
 9216 25f1 A3050000 		.4byte	0x5a3
 9217 25f5 B8000000 		.4byte	.LBB599
 9218 25f9 0E000000 		.4byte	.LBE599-.LBB599
 9219 25fd 01       		.byte	0x1
 9220 25fe 7702     		.2byte	0x277
 9221 2600 3C260000 		.4byte	0x263c
 9222 2604 29       		.uleb128 0x29
 9223 2605 C9050000 		.4byte	0x5c9
 9224 2609 842C0000 		.4byte	.LLST376
 9225 260d 29       		.uleb128 0x29
 9226 260e BE050000 		.4byte	0x5be
 9227 2612 A32C0000 		.4byte	.LLST377
 9228 2616 29       		.uleb128 0x29
ARM GAS  C:\Users\strap\AppData\Local\Temp\cc7bAV43.s 			page 207


 9229 2617 B3050000 		.4byte	0x5b3
 9230 261b B62C0000 		.4byte	.LLST378
 9231 261f 2E       		.uleb128 0x2e
 9232 2620 B8000000 		.4byte	.LBB600
 9233 2624 0E000000 		.4byte	.LBE600-.LBB600
 9234 2628 2F       		.uleb128 0x2f
 9235 2629 D4050000 		.4byte	0x5d4
 9236 262d D72C0000 		.4byte	.LLST379
 9237 2631 2F       		.uleb128 0x2f
 9238 2632 DE050000 		.4byte	0x5de
 9239 2636 EA2C0000 		.4byte	.LLST380
 9240 263a 00       		.byte	0
 9241 263b 00       		.byte	0
 9242 263c 2D       		.uleb128 0x2d
 9243 263d D7040000 		.4byte	0x4d7
 9244 2641 C6000000 		.4byte	.LBB601
 9245 2645 14000000 		.4byte	.LBE601-.LBB601
 9246 2649 01       		.byte	0x1
 9247 264a 7902     		.2byte	0x279
 9248 264c 29       		.uleb128 0x29
 9249 264d F4040000 		.4byte	0x4f4
 9250 2651 152D0000 		.4byte	.LLST381
 9251 2655 29       		.uleb128 0x29
 9252 2656 E8040000 		.4byte	0x4e8
 9253 265a 352D0000 		.4byte	.LLST382
 9254 265e 2D       		.uleb128 0x2d
 9255 265f 60040000 		.4byte	0x460
 9256 2663 C6000000 		.4byte	.LBB603
 9257 2667 14000000 		.4byte	.LBE603-.LBB603
 9258 266b 01       		.byte	0x1
 9259 266c 9104     		.2byte	0x491
 9260 266e 29       		.uleb128 0x29
 9261 266f 7D040000 		.4byte	0x47d
 9262 2673 152D0000 		.4byte	.LLST381
 9263 2677 29       		.uleb128 0x29
 9264 2678 71040000 		.4byte	0x471
 9265 267c 352D0000 		.4byte	.LLST382
 9266 2680 2E       		.uleb128 0x2e
 9267 2681 C6000000 		.4byte	.LBB604
 9268 2685 14000000 		.4byte	.LBE604-.LBB604
 9269 2689 30       		.uleb128 0x30
 9270 268a 89040000 		.4byte	0x489
 9271 268e 02       		.uleb128 0x2
 9272 268f 91       		.byte	0x91
 9273 2690 5E       		.sleb128 -34
 9274 2691 2F       		.uleb128 0x2f
 9275 2692 95040000 		.4byte	0x495
 9276 2696 482D0000 		.4byte	.LLST385
 9277 269a 00       		.byte	0
 9278 269b 00       		.byte	0
 9279 269c 00       		.byte	0
 9280 269d 00       		.byte	0
 9281 269e 00       		.byte	0
 9282 269f 2B       		.uleb128 0x2b
 9283 26a0 1C090000 		.4byte	.LASF135
 9284 26a4 01       		.byte	0x1
 9285 26a5 8F02     		.2byte	0x28f
ARM GAS  C:\Users\strap\AppData\Local\Temp\cc7bAV43.s 			page 208


 9286 26a7 C3000000 		.4byte	0xc3
 9287 26ab 00000000 		.4byte	.LFB345
 9288 26af FC000000 		.4byte	.LFE345-.LFB345
 9289 26b3 01       		.uleb128 0x1
 9290 26b4 9C       		.byte	0x9c
 9291 26b5 60290000 		.4byte	0x2960
 9292 26b9 27       		.uleb128 0x27
 9293 26ba DB010000 		.4byte	.LASF84
 9294 26be 01       		.byte	0x1
 9295 26bf 8F02     		.2byte	0x28f
 9296 26c1 A2040000 		.4byte	0x4a2
 9297 26c5 5D2D0000 		.4byte	.LLST386
 9298 26c9 27       		.uleb128 0x27
 9299 26ca 25030000 		.4byte	.LASF85
 9300 26ce 01       		.byte	0x1
 9301 26cf 8F02     		.2byte	0x28f
 9302 26d1 4F020000 		.4byte	0x24f
 9303 26d5 C02D0000 		.4byte	.LLST387
 9304 26d9 27       		.uleb128 0x27
 9305 26da 38030000 		.4byte	.LASF131
 9306 26de 01       		.byte	0x1
 9307 26df 8F02     		.2byte	0x28f
 9308 26e1 05010000 		.4byte	0x105
 9309 26e5 FA2D0000 		.4byte	.LLST388
 9310 26e9 23       		.uleb128 0x23
 9311 26ea 72657300 		.ascii	"res\000"
 9312 26ee 01       		.byte	0x1
 9313 26ef 9102     		.2byte	0x291
 9314 26f1 60290000 		.4byte	0x2960
 9315 26f5 342E0000 		.4byte	.LLST389
 9316 26f9 31       		.uleb128 0x31
 9317 26fa 696400   		.ascii	"id\000"
 9318 26fd 01       		.byte	0x1
 9319 26fe 9502     		.2byte	0x295
 9320 2700 D9000000 		.4byte	0xd9
 9321 2704 28       		.uleb128 0x28
 9322 2705 3A0A0000 		.4byte	0xa3a
 9323 2709 12000000 		.4byte	.LBB627
 9324 270d 96000000 		.4byte	.LBE627-.LBB627
 9325 2711 01       		.byte	0x1
 9326 2712 9502     		.2byte	0x295
 9327 2714 8C280000 		.4byte	0x288c
 9328 2718 29       		.uleb128 0x29
 9329 2719 570A0000 		.4byte	0xa57
 9330 271d 6E2E0000 		.4byte	.LLST390
 9331 2721 29       		.uleb128 0x29
 9332 2722 4B0A0000 		.4byte	0xa4b
 9333 2726 812E0000 		.4byte	.LLST391
 9334 272a 2E       		.uleb128 0x2e
 9335 272b 12000000 		.4byte	.LBB628
 9336 272f 96000000 		.4byte	.LBE628-.LBB628
 9337 2733 2F       		.uleb128 0x2f
 9338 2734 630A0000 		.4byte	0xa63
 9339 2738 AA2E0000 		.4byte	.LLST392
 9340 273c 2F       		.uleb128 0x2f
 9341 273d 6F0A0000 		.4byte	0xa6f
 9342 2741 BD2E0000 		.4byte	.LLST393
ARM GAS  C:\Users\strap\AppData\Local\Temp\cc7bAV43.s 			page 209


 9343 2745 2F       		.uleb128 0x2f
 9344 2746 7B0A0000 		.4byte	0xa7b
 9345 274a D02E0000 		.4byte	.LLST394
 9346 274e 2F       		.uleb128 0x2f
 9347 274f 870A0000 		.4byte	0xa87
 9348 2753 F02E0000 		.4byte	.LLST395
 9349 2757 2F       		.uleb128 0x2f
 9350 2758 930A0000 		.4byte	0xa93
 9351 275c 1B2F0000 		.4byte	.LLST396
 9352 2760 35       		.uleb128 0x35
 9353 2761 9D0A0000 		.4byte	0xa9d
 9354 2765 36       		.uleb128 0x36
 9355 2766 2A000000 		.4byte	.LBB629
 9356 276a 40000000 		.4byte	.LBE629-.LBB629
 9357 276e D9270000 		.4byte	0x27d9
 9358 2772 35       		.uleb128 0x35
 9359 2773 AA0A0000 		.4byte	0xaaa
 9360 2777 2D       		.uleb128 0x2d
 9361 2778 D7040000 		.4byte	0x4d7
 9362 277c 2A000000 		.4byte	.LBB630
 9363 2780 1A000000 		.4byte	.LBE630-.LBB630
 9364 2784 01       		.byte	0x1
 9365 2785 3304     		.2byte	0x433
 9366 2787 29       		.uleb128 0x29
 9367 2788 F4040000 		.4byte	0x4f4
 9368 278c 3A2F0000 		.4byte	.LLST397
 9369 2790 29       		.uleb128 0x29
 9370 2791 E8040000 		.4byte	0x4e8
 9371 2795 4D2F0000 		.4byte	.LLST398
 9372 2799 2D       		.uleb128 0x2d
 9373 279a 60040000 		.4byte	0x460
 9374 279e 2A000000 		.4byte	.LBB632
 9375 27a2 18000000 		.4byte	.LBE632-.LBB632
 9376 27a6 01       		.byte	0x1
 9377 27a7 9104     		.2byte	0x491
 9378 27a9 29       		.uleb128 0x29
 9379 27aa 7D040000 		.4byte	0x47d
 9380 27ae 602F0000 		.4byte	.LLST399
 9381 27b2 29       		.uleb128 0x29
 9382 27b3 71040000 		.4byte	0x471
 9383 27b7 732F0000 		.4byte	.LLST400
 9384 27bb 2E       		.uleb128 0x2e
 9385 27bc 2A000000 		.4byte	.LBB633
 9386 27c0 18000000 		.4byte	.LBE633-.LBB633
 9387 27c4 30       		.uleb128 0x30
 9388 27c5 89040000 		.4byte	0x489
 9389 27c9 02       		.uleb128 0x2
 9390 27ca 91       		.byte	0x91
 9391 27cb 5E       		.sleb128 -34
 9392 27cc 2F       		.uleb128 0x2f
 9393 27cd 95040000 		.4byte	0x495
 9394 27d1 862F0000 		.4byte	.LLST401
 9395 27d5 00       		.byte	0
 9396 27d6 00       		.byte	0
 9397 27d7 00       		.byte	0
 9398 27d8 00       		.byte	0
 9399 27d9 28       		.uleb128 0x28
ARM GAS  C:\Users\strap\AppData\Local\Temp\cc7bAV43.s 			page 210


 9400 27da 01050000 		.4byte	0x501
 9401 27de 6A000000 		.4byte	.LBB634
 9402 27e2 20000000 		.4byte	.LBE634-.LBB634
 9403 27e6 01       		.byte	0x1
 9404 27e7 4504     		.2byte	0x445
 9405 27e9 29280000 		.4byte	0x2829
 9406 27ed 29       		.uleb128 0x29
 9407 27ee 1E050000 		.4byte	0x51e
 9408 27f2 9B2F0000 		.4byte	.LLST402
 9409 27f6 2C       		.uleb128 0x2c
 9410 27f7 12050000 		.4byte	0x512
 9411 27fb 2D       		.uleb128 0x2d
 9412 27fc AD040000 		.4byte	0x4ad
 9413 2800 6A000000 		.4byte	.LBB636
 9414 2804 1E000000 		.4byte	.LBE636-.LBB636
 9415 2808 01       		.byte	0x1
 9416 2809 AE04     		.2byte	0x4ae
 9417 280b 29       		.uleb128 0x29
 9418 280c BE040000 		.4byte	0x4be
 9419 2810 AE2F0000 		.4byte	.LLST403
 9420 2814 2E       		.uleb128 0x2e
 9421 2815 6A000000 		.4byte	.LBB637
 9422 2819 1E000000 		.4byte	.LBE637-.LBB637
 9423 281d 2F       		.uleb128 0x2f
 9424 281e CA040000 		.4byte	0x4ca
 9425 2822 E22F0000 		.4byte	.LLST404
 9426 2826 00       		.byte	0
 9427 2827 00       		.byte	0
 9428 2828 00       		.byte	0
 9429 2829 2D       		.uleb128 0x2d
 9430 282a 2B050000 		.4byte	0x52b
 9431 282e 8A000000 		.4byte	.LBB638
 9432 2832 14000000 		.4byte	.LBE638-.LBB638
 9433 2836 01       		.byte	0x1
 9434 2837 3004     		.2byte	0x430
 9435 2839 29       		.uleb128 0x29
 9436 283a 48050000 		.4byte	0x548
 9437 283e F62F0000 		.4byte	.LLST405
 9438 2842 29       		.uleb128 0x29
 9439 2843 3C050000 		.4byte	0x53c
 9440 2847 09300000 		.4byte	.LLST406
 9441 284b 2D       		.uleb128 0x2d
 9442 284c 60040000 		.4byte	0x460
 9443 2850 8A000000 		.4byte	.LBB640
 9444 2854 10000000 		.4byte	.LBE640-.LBB640
 9445 2858 01       		.byte	0x1
 9446 2859 8604     		.2byte	0x486
 9447 285b 29       		.uleb128 0x29
 9448 285c 7D040000 		.4byte	0x47d
 9449 2860 1C300000 		.4byte	.LLST407
 9450 2864 29       		.uleb128 0x29
 9451 2865 71040000 		.4byte	0x471
 9452 2869 2F300000 		.4byte	.LLST408
 9453 286d 2E       		.uleb128 0x2e
 9454 286e 8A000000 		.4byte	.LBB641
 9455 2872 10000000 		.4byte	.LBE641-.LBB641
 9456 2876 30       		.uleb128 0x30
ARM GAS  C:\Users\strap\AppData\Local\Temp\cc7bAV43.s 			page 211


 9457 2877 89040000 		.4byte	0x489
 9458 287b 02       		.uleb128 0x2
 9459 287c 91       		.byte	0x91
 9460 287d 5E       		.sleb128 -34
 9461 287e 2F       		.uleb128 0x2f
 9462 287f 95040000 		.4byte	0x495
 9463 2883 42300000 		.4byte	.LLST409
 9464 2887 00       		.byte	0
 9465 2888 00       		.byte	0
 9466 2889 00       		.byte	0
 9467 288a 00       		.byte	0
 9468 288b 00       		.byte	0
 9469 288c 2E       		.uleb128 0x2e
 9470 288d AC000000 		.4byte	.LBB642
 9471 2891 3A000000 		.4byte	.LBE642-.LBB642
 9472 2895 17       		.uleb128 0x17
 9473 2896 D6000000 		.4byte	.LASF132
 9474 289a 01       		.byte	0x1
 9475 289b 9B02     		.2byte	0x29b
 9476 289d 44020000 		.4byte	0x244
 9477 28a1 22       		.uleb128 0x22
 9478 28a2 9E030000 		.4byte	.LASF118
 9479 28a6 01       		.byte	0x1
 9480 28a7 9E02     		.2byte	0x29e
 9481 28a9 44020000 		.4byte	0x244
 9482 28ad 57300000 		.4byte	.LLST410
 9483 28b1 28       		.uleb128 0x28
 9484 28b2 A3050000 		.4byte	0x5a3
 9485 28b6 B8000000 		.4byte	.LBB643
 9486 28ba 0E000000 		.4byte	.LBE643-.LBB643
 9487 28be 01       		.byte	0x1
 9488 28bf 9A02     		.2byte	0x29a
 9489 28c1 FD280000 		.4byte	0x28fd
 9490 28c5 29       		.uleb128 0x29
 9491 28c6 C9050000 		.4byte	0x5c9
 9492 28ca 6A300000 		.4byte	.LLST411
 9493 28ce 29       		.uleb128 0x29
 9494 28cf BE050000 		.4byte	0x5be
 9495 28d3 89300000 		.4byte	.LLST412
 9496 28d7 29       		.uleb128 0x29
 9497 28d8 B3050000 		.4byte	0x5b3
 9498 28dc 9C300000 		.4byte	.LLST413
 9499 28e0 2E       		.uleb128 0x2e
 9500 28e1 B8000000 		.4byte	.LBB644
 9501 28e5 0E000000 		.4byte	.LBE644-.LBB644
 9502 28e9 2F       		.uleb128 0x2f
 9503 28ea D4050000 		.4byte	0x5d4
 9504 28ee BD300000 		.4byte	.LLST414
 9505 28f2 2F       		.uleb128 0x2f
 9506 28f3 DE050000 		.4byte	0x5de
 9507 28f7 D0300000 		.4byte	.LLST415
 9508 28fb 00       		.byte	0
 9509 28fc 00       		.byte	0
 9510 28fd 2D       		.uleb128 0x2d
 9511 28fe D7040000 		.4byte	0x4d7
 9512 2902 C6000000 		.4byte	.LBB645
 9513 2906 14000000 		.4byte	.LBE645-.LBB645
ARM GAS  C:\Users\strap\AppData\Local\Temp\cc7bAV43.s 			page 212


 9514 290a 01       		.byte	0x1
 9515 290b 9C02     		.2byte	0x29c
 9516 290d 29       		.uleb128 0x29
 9517 290e F4040000 		.4byte	0x4f4
 9518 2912 FB300000 		.4byte	.LLST416
 9519 2916 29       		.uleb128 0x29
 9520 2917 E8040000 		.4byte	0x4e8
 9521 291b 1B310000 		.4byte	.LLST417
 9522 291f 2D       		.uleb128 0x2d
 9523 2920 60040000 		.4byte	0x460
 9524 2924 C6000000 		.4byte	.LBB647
 9525 2928 14000000 		.4byte	.LBE647-.LBB647
 9526 292c 01       		.byte	0x1
 9527 292d 9104     		.2byte	0x491
 9528 292f 29       		.uleb128 0x29
 9529 2930 7D040000 		.4byte	0x47d
 9530 2934 FB300000 		.4byte	.LLST416
 9531 2938 29       		.uleb128 0x29
 9532 2939 71040000 		.4byte	0x471
 9533 293d 1B310000 		.4byte	.LLST417
 9534 2941 2E       		.uleb128 0x2e
 9535 2942 C6000000 		.4byte	.LBB648
 9536 2946 14000000 		.4byte	.LBE648-.LBB648
 9537 294a 30       		.uleb128 0x30
 9538 294b 89040000 		.4byte	0x489
 9539 294f 02       		.uleb128 0x2
 9540 2950 91       		.byte	0x91
 9541 2951 5E       		.sleb128 -34
 9542 2952 2F       		.uleb128 0x2f
 9543 2953 95040000 		.4byte	0x495
 9544 2957 2E310000 		.4byte	.LLST420
 9545 295b 00       		.byte	0
 9546 295c 00       		.byte	0
 9547 295d 00       		.byte	0
 9548 295e 00       		.byte	0
 9549 295f 00       		.byte	0
 9550 2960 08       		.uleb128 0x8
 9551 2961 04       		.byte	0x4
 9552 2962 53040000 		.4byte	0x453
 9553 2966 2B       		.uleb128 0x2b
 9554 2967 8B000000 		.4byte	.LASF136
 9555 296b 01       		.byte	0x1
 9556 296c AA02     		.2byte	0x2aa
 9557 296e 3B040000 		.4byte	0x43b
 9558 2972 00000000 		.4byte	.LFB346
 9559 2976 1E000000 		.4byte	.LFE346-.LFB346
 9560 297a 01       		.uleb128 0x1
 9561 297b 9C       		.byte	0x9c
 9562 297c 91290000 		.4byte	0x2991
 9563 2980 27       		.uleb128 0x27
 9564 2981 CF090000 		.4byte	.LASF95
 9565 2985 01       		.byte	0x1
 9566 2986 AA02     		.2byte	0x2aa
 9567 2988 5A040000 		.4byte	0x45a
 9568 298c 43310000 		.4byte	.LLST421
 9569 2990 00       		.byte	0
 9570 2991 2B       		.uleb128 0x2b
ARM GAS  C:\Users\strap\AppData\Local\Temp\cc7bAV43.s 			page 213


 9571 2992 F8080000 		.4byte	.LASF137
 9572 2996 01       		.byte	0x1
 9573 2997 B802     		.2byte	0x2b8
 9574 2999 3B040000 		.4byte	0x43b
 9575 299d 00000000 		.4byte	.LFB347
 9576 29a1 12000000 		.4byte	.LFE347-.LFB347
 9577 29a5 01       		.uleb128 0x1
 9578 29a6 9C       		.byte	0x9c
 9579 29a7 BC290000 		.4byte	0x29bc
 9580 29ab 27       		.uleb128 0x27
 9581 29ac CF090000 		.4byte	.LASF95
 9582 29b0 01       		.byte	0x1
 9583 29b1 B802     		.2byte	0x2b8
 9584 29b3 5A040000 		.4byte	0x45a
 9585 29b7 96310000 		.4byte	.LLST422
 9586 29bb 00       		.byte	0
 9587 29bc 2A       		.uleb128 0x2a
 9588 29bd 59080000 		.4byte	.LASF138
 9589 29c1 01       		.byte	0x1
 9590 29c2 1D01     		.2byte	0x11d
 9591 29c4 00000000 		.4byte	.LFB335
 9592 29c8 66000000 		.4byte	.LFE335-.LFB335
 9593 29cc 01       		.uleb128 0x1
 9594 29cd 9C       		.byte	0x9c
 9595 29ce 982A0000 		.4byte	0x2a98
 9596 29d2 27       		.uleb128 0x27
 9597 29d3 CF090000 		.4byte	.LASF95
 9598 29d7 01       		.byte	0x1
 9599 29d8 1D01     		.2byte	0x11d
 9600 29da 5A040000 		.4byte	0x45a
 9601 29de D0310000 		.4byte	.LLST423
 9602 29e2 36       		.uleb128 0x36
 9603 29e3 0E000000 		.4byte	.LBB649
 9604 29e7 12000000 		.4byte	.LBE649-.LBB649
 9605 29eb 382A0000 		.4byte	0x2a38
 9606 29ef 22       		.uleb128 0x22
 9607 29f0 7D010000 		.4byte	.LASF139
 9608 29f4 01       		.byte	0x1
 9609 29f5 2401     		.2byte	0x124
 9610 29f7 3B040000 		.4byte	0x43b
 9611 29fb F9310000 		.4byte	.LLST424
 9612 29ff 25       		.uleb128 0x25
 9613 2a00 12000000 		.4byte	.LVL594
 9614 2a04 66290000 		.4byte	0x2966
 9615 2a08 132A0000 		.4byte	0x2a13
 9616 2a0c 1F       		.uleb128 0x1f
 9617 2a0d 01       		.uleb128 0x1
 9618 2a0e 50       		.byte	0x50
 9619 2a0f 02       		.uleb128 0x2
 9620 2a10 74       		.byte	0x74
 9621 2a11 00       		.sleb128 0
 9622 2a12 00       		.byte	0
 9623 2a13 25       		.uleb128 0x25
 9624 2a14 1A000000 		.4byte	.LVL595
 9625 2a18 99080000 		.4byte	0x899
 9626 2a1c 272A0000 		.4byte	0x2a27
 9627 2a20 1F       		.uleb128 0x1f
ARM GAS  C:\Users\strap\AppData\Local\Temp\cc7bAV43.s 			page 214


 9628 2a21 01       		.uleb128 0x1
 9629 2a22 50       		.byte	0x50
 9630 2a23 02       		.uleb128 0x2
 9631 2a24 75       		.byte	0x75
 9632 2a25 00       		.sleb128 0
 9633 2a26 00       		.byte	0
 9634 2a27 1E       		.uleb128 0x1e
 9635 2a28 20000000 		.4byte	.LVL596
 9636 2a2c B6320000 		.4byte	0x32b6
 9637 2a30 1F       		.uleb128 0x1f
 9638 2a31 01       		.uleb128 0x1
 9639 2a32 50       		.byte	0x50
 9640 2a33 02       		.uleb128 0x2
 9641 2a34 75       		.byte	0x75
 9642 2a35 00       		.sleb128 0
 9643 2a36 00       		.byte	0
 9644 2a37 00       		.byte	0
 9645 2a38 36       		.uleb128 0x36
 9646 2a39 28000000 		.4byte	.LBB650
 9647 2a3d 14000000 		.4byte	.LBE650-.LBB650
 9648 2a41 8E2A0000 		.4byte	0x2a8e
 9649 2a45 22       		.uleb128 0x22
 9650 2a46 53020000 		.4byte	.LASF140
 9651 2a4a 01       		.byte	0x1
 9652 2a4b 2C01     		.2byte	0x12c
 9653 2a4d 3B040000 		.4byte	0x43b
 9654 2a51 17320000 		.4byte	.LLST425
 9655 2a55 25       		.uleb128 0x25
 9656 2a56 2E000000 		.4byte	.LVL597
 9657 2a5a 91290000 		.4byte	0x2991
 9658 2a5e 692A0000 		.4byte	0x2a69
 9659 2a62 1F       		.uleb128 0x1f
 9660 2a63 01       		.uleb128 0x1
 9661 2a64 50       		.byte	0x50
 9662 2a65 02       		.uleb128 0x2
 9663 2a66 74       		.byte	0x74
 9664 2a67 00       		.sleb128 0
 9665 2a68 00       		.byte	0
 9666 2a69 25       		.uleb128 0x25
 9667 2a6a 36000000 		.4byte	.LVL598
 9668 2a6e 99080000 		.4byte	0x899
 9669 2a72 7D2A0000 		.4byte	0x2a7d
 9670 2a76 1F       		.uleb128 0x1f
 9671 2a77 01       		.uleb128 0x1
 9672 2a78 50       		.byte	0x50
 9673 2a79 02       		.uleb128 0x2
 9674 2a7a 75       		.byte	0x75
 9675 2a7b 00       		.sleb128 0
 9676 2a7c 00       		.byte	0
 9677 2a7d 1E       		.uleb128 0x1e
 9678 2a7e 3C000000 		.4byte	.LVL599
 9679 2a82 B6320000 		.4byte	0x32b6
 9680 2a86 1F       		.uleb128 0x1f
 9681 2a87 01       		.uleb128 0x1
 9682 2a88 50       		.byte	0x50
 9683 2a89 02       		.uleb128 0x2
 9684 2a8a 75       		.byte	0x75
ARM GAS  C:\Users\strap\AppData\Local\Temp\cc7bAV43.s 			page 215


 9685 2a8b 00       		.sleb128 0
 9686 2a8c 00       		.byte	0
 9687 2a8d 00       		.byte	0
 9688 2a8e 24       		.uleb128 0x24
 9689 2a8f 4A000000 		.4byte	.LVL600
 9690 2a93 B6320000 		.4byte	0x32b6
 9691 2a97 00       		.byte	0
 9692 2a98 1C       		.uleb128 0x1c
 9693 2a99 1D000000 		.4byte	.LASF141
 9694 2a9d 01       		.byte	0x1
 9695 2a9e 96       		.byte	0x96
 9696 2a9f 00000000 		.4byte	.LFB332
 9697 2aa3 FC000000 		.4byte	.LFE332-.LFB332
 9698 2aa7 01       		.uleb128 0x1
 9699 2aa8 9C       		.byte	0x9c
 9700 2aa9 7D2B0000 		.4byte	0x2b7d
 9701 2aad 1D       		.uleb128 0x1d
 9702 2aae 20060000 		.4byte	.LASF142
 9703 2ab2 01       		.byte	0x1
 9704 2ab3 96       		.byte	0x96
 9705 2ab4 5A040000 		.4byte	0x45a
 9706 2ab8 35320000 		.4byte	.LLST426
 9707 2abc 1D       		.uleb128 0x1d
 9708 2abd 86090000 		.4byte	.LASF143
 9709 2ac1 01       		.byte	0x1
 9710 2ac2 96       		.byte	0x96
 9711 2ac3 7D2B0000 		.4byte	0x2b7d
 9712 2ac7 61320000 		.4byte	.LLST427
 9713 2acb 36       		.uleb128 0x36
 9714 2acc 78000000 		.4byte	.LBB651
 9715 2ad0 84000000 		.4byte	.LBE651-.LBB651
 9716 2ad4 442B0000 		.4byte	0x2b44
 9717 2ad8 21       		.uleb128 0x21
 9718 2ad9 ED040000 		.4byte	.LASF104
 9719 2add 01       		.byte	0x1
 9720 2ade B8       		.byte	0xb8
 9721 2adf 3B040000 		.4byte	0x43b
 9722 2ae3 7F320000 		.4byte	.LLST428
 9723 2ae7 24       		.uleb128 0x24
 9724 2ae8 8C000000 		.4byte	.LVL610
 9725 2aec C1320000 		.4byte	0x32c1
 9726 2af0 24       		.uleb128 0x24
 9727 2af1 A0000000 		.4byte	.LVL611
 9728 2af5 ED320000 		.4byte	0x32ed
 9729 2af9 24       		.uleb128 0x24
 9730 2afa C0000000 		.4byte	.LVL612
 9731 2afe C1320000 		.4byte	0x32c1
 9732 2b02 24       		.uleb128 0x24
 9733 2b03 D4000000 		.4byte	.LVL613
 9734 2b07 ED320000 		.4byte	0x32ed
 9735 2b0b 25       		.uleb128 0x25
 9736 2b0c EA000000 		.4byte	.LVL614
 9737 2b10 CF070000 		.4byte	0x7cf
 9738 2b14 1F2B0000 		.4byte	0x2b1f
 9739 2b18 1F       		.uleb128 0x1f
 9740 2b19 01       		.uleb128 0x1
 9741 2b1a 50       		.byte	0x50
ARM GAS  C:\Users\strap\AppData\Local\Temp\cc7bAV43.s 			page 216


 9742 2b1b 02       		.uleb128 0x2
 9743 2b1c 75       		.byte	0x75
 9744 2b1d 00       		.sleb128 0
 9745 2b1e 00       		.byte	0
 9746 2b1f 25       		.uleb128 0x25
 9747 2b20 F2000000 		.4byte	.LVL617
 9748 2b24 CF070000 		.4byte	0x7cf
 9749 2b28 332B0000 		.4byte	0x2b33
 9750 2b2c 1F       		.uleb128 0x1f
 9751 2b2d 01       		.uleb128 0x1
 9752 2b2e 50       		.byte	0x50
 9753 2b2f 02       		.uleb128 0x2
 9754 2b30 74       		.byte	0x74
 9755 2b31 00       		.sleb128 0
 9756 2b32 00       		.byte	0
 9757 2b33 1E       		.uleb128 0x1e
 9758 2b34 FA000000 		.4byte	.LVL618
 9759 2b38 BF090000 		.4byte	0x9bf
 9760 2b3c 1F       		.uleb128 0x1f
 9761 2b3d 01       		.uleb128 0x1
 9762 2b3e 50       		.byte	0x50
 9763 2b3f 02       		.uleb128 0x2
 9764 2b40 75       		.byte	0x75
 9765 2b41 00       		.sleb128 0
 9766 2b42 00       		.byte	0
 9767 2b43 00       		.byte	0
 9768 2b44 25       		.uleb128 0x25
 9769 2b45 0A000000 		.4byte	.LVL603
 9770 2b49 BC290000 		.4byte	0x29bc
 9771 2b4d 582B0000 		.4byte	0x2b58
 9772 2b51 1F       		.uleb128 0x1f
 9773 2b52 01       		.uleb128 0x1
 9774 2b53 50       		.byte	0x50
 9775 2b54 02       		.uleb128 0x2
 9776 2b55 75       		.byte	0x75
 9777 2b56 00       		.sleb128 0
 9778 2b57 00       		.byte	0
 9779 2b58 24       		.uleb128 0x24
 9780 2b59 2A000000 		.4byte	.LVL604
 9781 2b5d C1320000 		.4byte	0x32c1
 9782 2b61 24       		.uleb128 0x24
 9783 2b62 3E000000 		.4byte	.LVL605
 9784 2b66 ED320000 		.4byte	0x32ed
 9785 2b6a 24       		.uleb128 0x24
 9786 2b6b 5C000000 		.4byte	.LVL607
 9787 2b6f C1320000 		.4byte	0x32c1
 9788 2b73 24       		.uleb128 0x24
 9789 2b74 6C000000 		.4byte	.LVL608
 9790 2b78 ED320000 		.4byte	0x32ed
 9791 2b7c 00       		.byte	0
 9792 2b7d 08       		.uleb128 0x8
 9793 2b7e 04       		.byte	0x4
 9794 2b7f 832B0000 		.4byte	0x2b83
 9795 2b83 09       		.uleb128 0x9
 9796 2b84 41040000 		.4byte	0x441
 9797 2b88 2B       		.uleb128 0x2b
 9798 2b89 9C040000 		.4byte	.LASF144
ARM GAS  C:\Users\strap\AppData\Local\Temp\cc7bAV43.s 			page 217


 9799 2b8d 01       		.byte	0x1
 9800 2b8e C502     		.2byte	0x2c5
 9801 2b90 3B040000 		.4byte	0x43b
 9802 2b94 00000000 		.4byte	.LFB348
 9803 2b98 68000000 		.4byte	.LFE348-.LFB348
 9804 2b9c 01       		.uleb128 0x1
 9805 2b9d 9C       		.byte	0x9c
 9806 2b9e 5D2C0000 		.4byte	0x2c5d
 9807 2ba2 27       		.uleb128 0x27
 9808 2ba3 CF090000 		.4byte	.LASF95
 9809 2ba7 01       		.byte	0x1
 9810 2ba8 C502     		.2byte	0x2c5
 9811 2baa 5A040000 		.4byte	0x45a
 9812 2bae 9D320000 		.4byte	.LLST429
 9813 2bb2 22       		.uleb128 0x22
 9814 2bb3 DB060000 		.4byte	.LASF145
 9815 2bb7 01       		.byte	0x1
 9816 2bb8 CA02     		.2byte	0x2ca
 9817 2bba 3B040000 		.4byte	0x43b
 9818 2bbe DF320000 		.4byte	.LLST430
 9819 2bc2 36       		.uleb128 0x36
 9820 2bc3 4A000000 		.4byte	.LBB652
 9821 2bc7 0C000000 		.4byte	.LBE652-.LBB652
 9822 2bcb E02B0000 		.4byte	0x2be0
 9823 2bcf 23       		.uleb128 0x23
 9824 2bd0 746D7000 		.ascii	"tmp\000"
 9825 2bd4 01       		.byte	0x1
 9826 2bd5 D802     		.2byte	0x2d8
 9827 2bd7 3B040000 		.4byte	0x43b
 9828 2bdb 08330000 		.4byte	.LLST431
 9829 2bdf 00       		.byte	0
 9830 2be0 25       		.uleb128 0x25
 9831 2be1 10000000 		.4byte	.LVL620
 9832 2be5 91290000 		.4byte	0x2991
 9833 2be9 F42B0000 		.4byte	0x2bf4
 9834 2bed 1F       		.uleb128 0x1f
 9835 2bee 01       		.uleb128 0x1
 9836 2bef 50       		.byte	0x50
 9837 2bf0 02       		.uleb128 0x2
 9838 2bf1 75       		.byte	0x75
 9839 2bf2 00       		.sleb128 0
 9840 2bf3 00       		.byte	0
 9841 2bf4 25       		.uleb128 0x25
 9842 2bf5 18000000 		.4byte	.LVL623
 9843 2bf9 C1320000 		.4byte	0x32c1
 9844 2bfd 072C0000 		.4byte	0x2c07
 9845 2c01 1F       		.uleb128 0x1f
 9846 2c02 01       		.uleb128 0x1
 9847 2c03 50       		.byte	0x50
 9848 2c04 01       		.uleb128 0x1
 9849 2c05 34       		.byte	0x34
 9850 2c06 00       		.byte	0
 9851 2c07 25       		.uleb128 0x25
 9852 2c08 1E000000 		.4byte	.LVL625
 9853 2c0c CC320000 		.4byte	0x32cc
 9854 2c10 1B2C0000 		.4byte	0x2c1b
 9855 2c14 1F       		.uleb128 0x1f
ARM GAS  C:\Users\strap\AppData\Local\Temp\cc7bAV43.s 			page 218


 9856 2c15 01       		.uleb128 0x1
 9857 2c16 50       		.byte	0x50
 9858 2c17 02       		.uleb128 0x2
 9859 2c18 74       		.byte	0x74
 9860 2c19 00       		.sleb128 0
 9861 2c1a 00       		.byte	0
 9862 2c1b 25       		.uleb128 0x25
 9863 2c1c 2A000000 		.4byte	.LVL626
 9864 2c20 D7320000 		.4byte	0x32d7
 9865 2c24 322C0000 		.4byte	0x2c32
 9866 2c28 1F       		.uleb128 0x1f
 9867 2c29 01       		.uleb128 0x1
 9868 2c2a 50       		.byte	0x50
 9869 2c2b 05       		.uleb128 0x5
 9870 2c2c 03       		.byte	0x3
 9871 2c2d 00000000 		.4byte	.LC0
 9872 2c31 00       		.byte	0
 9873 2c32 25       		.uleb128 0x25
 9874 2c33 34000000 		.4byte	.LVL627
 9875 2c37 E9050000 		.4byte	0x5e9
 9876 2c3b 462C0000 		.4byte	0x2c46
 9877 2c3f 1F       		.uleb128 0x1f
 9878 2c40 01       		.uleb128 0x1
 9879 2c41 50       		.byte	0x50
 9880 2c42 02       		.uleb128 0x2
 9881 2c43 74       		.byte	0x74
 9882 2c44 00       		.sleb128 0
 9883 2c45 00       		.byte	0
 9884 2c46 1E       		.uleb128 0x1e
 9885 2c47 3C000000 		.4byte	.LVL628
 9886 2c4b 13070000 		.4byte	0x713
 9887 2c4f 1F       		.uleb128 0x1f
 9888 2c50 01       		.uleb128 0x1
 9889 2c51 50       		.byte	0x50
 9890 2c52 02       		.uleb128 0x2
 9891 2c53 75       		.byte	0x75
 9892 2c54 00       		.sleb128 0
 9893 2c55 1F       		.uleb128 0x1f
 9894 2c56 01       		.uleb128 0x1
 9895 2c57 51       		.byte	0x51
 9896 2c58 02       		.uleb128 0x2
 9897 2c59 74       		.byte	0x74
 9898 2c5a 00       		.sleb128 0
 9899 2c5b 00       		.byte	0
 9900 2c5c 00       		.byte	0
 9901 2c5d 2A       		.uleb128 0x2a
 9902 2c5e 02040000 		.4byte	.LASF146
 9903 2c62 01       		.byte	0x1
 9904 2c63 E802     		.2byte	0x2e8
 9905 2c65 00000000 		.4byte	.LFB349
 9906 2c69 14000000 		.4byte	.LFE349-.LFB349
 9907 2c6d 01       		.uleb128 0x1
 9908 2c6e 9C       		.byte	0x9c
 9909 2c6f DF2C0000 		.4byte	0x2cdf
 9910 2c73 27       		.uleb128 0x27
 9911 2c74 CF090000 		.4byte	.LASF95
 9912 2c78 01       		.byte	0x1
ARM GAS  C:\Users\strap\AppData\Local\Temp\cc7bAV43.s 			page 219


 9913 2c79 E802     		.2byte	0x2e8
 9914 2c7b 5A040000 		.4byte	0x45a
 9915 2c7f 1B330000 		.4byte	.LLST432
 9916 2c83 27       		.uleb128 0x27
 9917 2c84 25030000 		.4byte	.LASF85
 9918 2c88 01       		.byte	0x1
 9919 2c89 E802     		.2byte	0x2e8
 9920 2c8b 4F020000 		.4byte	0x24f
 9921 2c8f 3C330000 		.4byte	.LLST433
 9922 2c93 27       		.uleb128 0x27
 9923 2c94 81020000 		.4byte	.LASF122
 9924 2c98 01       		.byte	0x1
 9925 2c99 E802     		.2byte	0x2e8
 9926 2c9b 80020000 		.4byte	0x280
 9927 2c9f 5D330000 		.4byte	.LLST434
 9928 2ca3 22       		.uleb128 0x22
 9929 2ca4 7D010000 		.4byte	.LASF139
 9930 2ca8 01       		.byte	0x1
 9931 2ca9 EC02     		.2byte	0x2ec
 9932 2cab 3B040000 		.4byte	0x43b
 9933 2caf 7E330000 		.4byte	.LLST435
 9934 2cb3 25       		.uleb128 0x25
 9935 2cb4 0A000000 		.4byte	.LVL634
 9936 2cb8 CF070000 		.4byte	0x7cf
 9937 2cbc C82C0000 		.4byte	0x2cc8
 9938 2cc0 1F       		.uleb128 0x1f
 9939 2cc1 01       		.uleb128 0x1
 9940 2cc2 50       		.byte	0x50
 9941 2cc3 03       		.uleb128 0x3
 9942 2cc4 F3       		.byte	0xf3
 9943 2cc5 01       		.uleb128 0x1
 9944 2cc6 50       		.byte	0x50
 9945 2cc7 00       		.byte	0
 9946 2cc8 1E       		.uleb128 0x1e
 9947 2cc9 12000000 		.4byte	.LVL635
 9948 2ccd AD0D0000 		.4byte	0xdad
 9949 2cd1 1F       		.uleb128 0x1f
 9950 2cd2 01       		.uleb128 0x1
 9951 2cd3 51       		.byte	0x51
 9952 2cd4 02       		.uleb128 0x2
 9953 2cd5 74       		.byte	0x74
 9954 2cd6 00       		.sleb128 0
 9955 2cd7 1F       		.uleb128 0x1f
 9956 2cd8 01       		.uleb128 0x1
 9957 2cd9 52       		.byte	0x52
 9958 2cda 02       		.uleb128 0x2
 9959 2cdb 75       		.byte	0x75
 9960 2cdc 00       		.sleb128 0
 9961 2cdd 00       		.byte	0
 9962 2cde 00       		.byte	0
 9963 2cdf 2A       		.uleb128 0x2a
 9964 2ce0 A9050000 		.4byte	.LASF147
 9965 2ce4 01       		.byte	0x1
 9966 2ce5 F802     		.2byte	0x2f8
 9967 2ce7 00000000 		.4byte	.LFB350
 9968 2ceb 14000000 		.4byte	.LFE350-.LFB350
 9969 2cef 01       		.uleb128 0x1
ARM GAS  C:\Users\strap\AppData\Local\Temp\cc7bAV43.s 			page 220


 9970 2cf0 9C       		.byte	0x9c
 9971 2cf1 612D0000 		.4byte	0x2d61
 9972 2cf5 27       		.uleb128 0x27
 9973 2cf6 CF090000 		.4byte	.LASF95
 9974 2cfa 01       		.byte	0x1
 9975 2cfb F802     		.2byte	0x2f8
 9976 2cfd 5A040000 		.4byte	0x45a
 9977 2d01 91330000 		.4byte	.LLST436
 9978 2d05 27       		.uleb128 0x27
 9979 2d06 25030000 		.4byte	.LASF85
 9980 2d0a 01       		.byte	0x1
 9981 2d0b F802     		.2byte	0x2f8
 9982 2d0d 4F020000 		.4byte	0x24f
 9983 2d11 B2330000 		.4byte	.LLST437
 9984 2d15 27       		.uleb128 0x27
 9985 2d16 81020000 		.4byte	.LASF122
 9986 2d1a 01       		.byte	0x1
 9987 2d1b F802     		.2byte	0x2f8
 9988 2d1d 32020000 		.4byte	0x232
 9989 2d21 D3330000 		.4byte	.LLST438
 9990 2d25 22       		.uleb128 0x22
 9991 2d26 7D010000 		.4byte	.LASF139
 9992 2d2a 01       		.byte	0x1
 9993 2d2b FC02     		.2byte	0x2fc
 9994 2d2d 3B040000 		.4byte	0x43b
 9995 2d31 F4330000 		.4byte	.LLST439
 9996 2d35 25       		.uleb128 0x25
 9997 2d36 0A000000 		.4byte	.LVL637
 9998 2d3a CF070000 		.4byte	0x7cf
 9999 2d3e 4A2D0000 		.4byte	0x2d4a
 10000 2d42 1F       		.uleb128 0x1f
 10001 2d43 01       		.uleb128 0x1
 10002 2d44 50       		.byte	0x50
 10003 2d45 03       		.uleb128 0x3
 10004 2d46 F3       		.byte	0xf3
 10005 2d47 01       		.uleb128 0x1
 10006 2d48 50       		.byte	0x50
 10007 2d49 00       		.byte	0
 10008 2d4a 1E       		.uleb128 0x1e
 10009 2d4b 12000000 		.4byte	.LVL638
 10010 2d4f 02160000 		.4byte	0x1602
 10011 2d53 1F       		.uleb128 0x1f
 10012 2d54 01       		.uleb128 0x1
 10013 2d55 51       		.byte	0x51
 10014 2d56 02       		.uleb128 0x2
 10015 2d57 74       		.byte	0x74
 10016 2d58 00       		.sleb128 0
 10017 2d59 1F       		.uleb128 0x1f
 10018 2d5a 01       		.uleb128 0x1
 10019 2d5b 52       		.byte	0x52
 10020 2d5c 02       		.uleb128 0x2
 10021 2d5d 75       		.byte	0x75
 10022 2d5e 00       		.sleb128 0
 10023 2d5f 00       		.byte	0
 10024 2d60 00       		.byte	0
 10025 2d61 2A       		.uleb128 0x2a
 10026 2d62 5E010000 		.4byte	.LASF148
ARM GAS  C:\Users\strap\AppData\Local\Temp\cc7bAV43.s 			page 221


 10027 2d66 01       		.byte	0x1
 10028 2d67 0803     		.2byte	0x308
 10029 2d69 00000000 		.4byte	.LFB351
 10030 2d6d 14000000 		.4byte	.LFE351-.LFB351
 10031 2d71 01       		.uleb128 0x1
 10032 2d72 9C       		.byte	0x9c
 10033 2d73 E32D0000 		.4byte	0x2de3
 10034 2d77 27       		.uleb128 0x27
 10035 2d78 CF090000 		.4byte	.LASF95
 10036 2d7c 01       		.byte	0x1
 10037 2d7d 0803     		.2byte	0x308
 10038 2d7f 5A040000 		.4byte	0x45a
 10039 2d83 07340000 		.4byte	.LLST440
 10040 2d87 27       		.uleb128 0x27
 10041 2d88 25030000 		.4byte	.LASF85
 10042 2d8c 01       		.byte	0x1
 10043 2d8d 0803     		.2byte	0x308
 10044 2d8f 4F020000 		.4byte	0x24f
 10045 2d93 28340000 		.4byte	.LLST441
 10046 2d97 27       		.uleb128 0x27
 10047 2d98 81020000 		.4byte	.LASF122
 10048 2d9c 01       		.byte	0x1
 10049 2d9d 0803     		.2byte	0x308
 10050 2d9f 26020000 		.4byte	0x226
 10051 2da3 49340000 		.4byte	.LLST442
 10052 2da7 22       		.uleb128 0x22
 10053 2da8 7D010000 		.4byte	.LASF139
 10054 2dac 01       		.byte	0x1
 10055 2dad 0C03     		.2byte	0x30c
 10056 2daf 3B040000 		.4byte	0x43b
 10057 2db3 67340000 		.4byte	.LLST443
 10058 2db7 25       		.uleb128 0x25
 10059 2db8 0A000000 		.4byte	.LVL640
 10060 2dbc CF070000 		.4byte	0x7cf
 10061 2dc0 CC2D0000 		.4byte	0x2dcc
 10062 2dc4 1F       		.uleb128 0x1f
 10063 2dc5 01       		.uleb128 0x1
 10064 2dc6 50       		.byte	0x50
 10065 2dc7 03       		.uleb128 0x3
 10066 2dc8 F3       		.byte	0xf3
 10067 2dc9 01       		.uleb128 0x1
 10068 2dca 50       		.byte	0x50
 10069 2dcb 00       		.byte	0
 10070 2dcc 1E       		.uleb128 0x1e
 10071 2dcd 12000000 		.4byte	.LVL641
 10072 2dd1 D8110000 		.4byte	0x11d8
 10073 2dd5 1F       		.uleb128 0x1f
 10074 2dd6 01       		.uleb128 0x1
 10075 2dd7 51       		.byte	0x51
 10076 2dd8 02       		.uleb128 0x2
 10077 2dd9 74       		.byte	0x74
 10078 2dda 00       		.sleb128 0
 10079 2ddb 1F       		.uleb128 0x1f
 10080 2ddc 01       		.uleb128 0x1
 10081 2ddd 52       		.byte	0x52
 10082 2dde 02       		.uleb128 0x2
 10083 2ddf 75       		.byte	0x75
ARM GAS  C:\Users\strap\AppData\Local\Temp\cc7bAV43.s 			page 222


 10084 2de0 00       		.sleb128 0
 10085 2de1 00       		.byte	0
 10086 2de2 00       		.byte	0
 10087 2de3 2A       		.uleb128 0x2a
 10088 2de4 97090000 		.4byte	.LASF149
 10089 2de8 01       		.byte	0x1
 10090 2de9 1803     		.2byte	0x318
 10091 2deb 00000000 		.4byte	.LFB352
 10092 2def 14000000 		.4byte	.LFE352-.LFB352
 10093 2df3 01       		.uleb128 0x1
 10094 2df4 9C       		.byte	0x9c
 10095 2df5 652E0000 		.4byte	0x2e65
 10096 2df9 27       		.uleb128 0x27
 10097 2dfa CF090000 		.4byte	.LASF95
 10098 2dfe 01       		.byte	0x1
 10099 2dff 1803     		.2byte	0x318
 10100 2e01 5A040000 		.4byte	0x45a
 10101 2e05 7A340000 		.4byte	.LLST444
 10102 2e09 27       		.uleb128 0x27
 10103 2e0a 25030000 		.4byte	.LASF85
 10104 2e0e 01       		.byte	0x1
 10105 2e0f 1803     		.2byte	0x318
 10106 2e11 4F020000 		.4byte	0x24f
 10107 2e15 9B340000 		.4byte	.LLST445
 10108 2e19 27       		.uleb128 0x27
 10109 2e1a 81020000 		.4byte	.LASF122
 10110 2e1e 01       		.byte	0x1
 10111 2e1f 1803     		.2byte	0x318
 10112 2e21 53040000 		.4byte	0x453
 10113 2e25 BC340000 		.4byte	.LLST446
 10114 2e29 22       		.uleb128 0x22
 10115 2e2a 7D010000 		.4byte	.LASF139
 10116 2e2e 01       		.byte	0x1
 10117 2e2f 1C03     		.2byte	0x31c
 10118 2e31 3B040000 		.4byte	0x43b
 10119 2e35 DA340000 		.4byte	.LLST447
 10120 2e39 25       		.uleb128 0x25
 10121 2e3a 0A000000 		.4byte	.LVL643
 10122 2e3e CF070000 		.4byte	0x7cf
 10123 2e42 4E2E0000 		.4byte	0x2e4e
 10124 2e46 1F       		.uleb128 0x1f
 10125 2e47 01       		.uleb128 0x1
 10126 2e48 50       		.byte	0x50
 10127 2e49 03       		.uleb128 0x3
 10128 2e4a F3       		.byte	0xf3
 10129 2e4b 01       		.uleb128 0x1
 10130 2e4c 50       		.byte	0x50
 10131 2e4d 00       		.byte	0
 10132 2e4e 1E       		.uleb128 0x1e
 10133 2e4f 12000000 		.4byte	.LVL644
 10134 2e53 2D1A0000 		.4byte	0x1a2d
 10135 2e57 1F       		.uleb128 0x1f
 10136 2e58 01       		.uleb128 0x1
 10137 2e59 51       		.byte	0x51
 10138 2e5a 02       		.uleb128 0x2
 10139 2e5b 74       		.byte	0x74
 10140 2e5c 00       		.sleb128 0
ARM GAS  C:\Users\strap\AppData\Local\Temp\cc7bAV43.s 			page 223


 10141 2e5d 1F       		.uleb128 0x1f
 10142 2e5e 01       		.uleb128 0x1
 10143 2e5f 52       		.byte	0x52
 10144 2e60 02       		.uleb128 0x2
 10145 2e61 75       		.byte	0x75
 10146 2e62 00       		.sleb128 0
 10147 2e63 00       		.byte	0
 10148 2e64 00       		.byte	0
 10149 2e65 2B       		.uleb128 0x2b
 10150 2e66 97060000 		.4byte	.LASF150
 10151 2e6a 01       		.byte	0x1
 10152 2e6b 2D03     		.2byte	0x32d
 10153 2e6d 40010000 		.4byte	0x140
 10154 2e71 00000000 		.4byte	.LFB353
 10155 2e75 C2000000 		.4byte	.LFE353-.LFB353
 10156 2e79 01       		.uleb128 0x1
 10157 2e7a 9C       		.byte	0x9c
 10158 2e7b 612F0000 		.4byte	0x2f61
 10159 2e7f 27       		.uleb128 0x27
 10160 2e80 CF090000 		.4byte	.LASF95
 10161 2e84 01       		.byte	0x1
 10162 2e85 2D03     		.2byte	0x32d
 10163 2e87 5A040000 		.4byte	0x45a
 10164 2e8b ED340000 		.4byte	.LLST448
 10165 2e8f 27       		.uleb128 0x27
 10166 2e90 25030000 		.4byte	.LASF85
 10167 2e94 01       		.byte	0x1
 10168 2e95 2D03     		.2byte	0x32d
 10169 2e97 4F020000 		.4byte	0x24f
 10170 2e9b 3A350000 		.4byte	.LLST449
 10171 2e9f 3D       		.uleb128 0x3d
 10172 2ea0 72657300 		.ascii	"res\000"
 10173 2ea4 01       		.byte	0x1
 10174 2ea5 2D03     		.2byte	0x32d
 10175 2ea7 17210000 		.4byte	0x2117
 10176 2eab 74350000 		.4byte	.LLST450
 10177 2eaf 22       		.uleb128 0x22
 10178 2eb0 2A060000 		.4byte	.LASF111
 10179 2eb4 01       		.byte	0x1
 10180 2eb5 3403     		.2byte	0x334
 10181 2eb7 44020000 		.4byte	0x244
 10182 2ebb B6350000 		.4byte	.LLST451
 10183 2ebf 22       		.uleb128 0x22
 10184 2ec0 D4080000 		.4byte	.LASF151
 10185 2ec4 01       		.byte	0x1
 10186 2ec5 3603     		.2byte	0x336
 10187 2ec7 C3000000 		.4byte	0xc3
 10188 2ecb EB350000 		.4byte	.LLST452
 10189 2ecf 22       		.uleb128 0x22
 10190 2ed0 0E0A0000 		.4byte	.LASF112
 10191 2ed4 01       		.byte	0x1
 10192 2ed5 3803     		.2byte	0x338
 10193 2ed7 C3000000 		.4byte	0xc3
 10194 2edb 09360000 		.4byte	.LLST453
 10195 2edf 38       		.uleb128 0x38
 10196 2ee0 8E050000 		.4byte	.LASF152
 10197 2ee4 01       		.byte	0x1
ARM GAS  C:\Users\strap\AppData\Local\Temp\cc7bAV43.s 			page 224


 10198 2ee5 3A03     		.2byte	0x33a
 10199 2ee7 80020000 		.4byte	0x280
 10200 2eeb 02       		.uleb128 0x2
 10201 2eec 91       		.byte	0x91
 10202 2eed 5E       		.sleb128 -34
 10203 2eee 23       		.uleb128 0x23
 10204 2eef 636900   		.ascii	"ci\000"
 10205 2ef2 01       		.byte	0x1
 10206 2ef3 3C03     		.2byte	0x33c
 10207 2ef5 C3000000 		.4byte	0xc3
 10208 2ef9 4A360000 		.4byte	.LLST454
 10209 2efd 2E       		.uleb128 0x2e
 10210 2efe 26000000 		.4byte	.LBB653
 10211 2f02 76000000 		.4byte	.LBE653-.LBB653
 10212 2f06 17       		.uleb128 0x17
 10213 2f07 1E080000 		.4byte	.LASF153
 10214 2f0b 01       		.byte	0x1
 10215 2f0c 3F03     		.2byte	0x33f
 10216 2f0e 3B040000 		.4byte	0x43b
 10217 2f12 22       		.uleb128 0x22
 10218 2f13 A5080000 		.4byte	.LASF154
 10219 2f17 01       		.byte	0x1
 10220 2f18 4003     		.2byte	0x340
 10221 2f1a C3000000 		.4byte	0xc3
 10222 2f1e 7F360000 		.4byte	.LLST455
 10223 2f22 28       		.uleb128 0x28
 10224 2f23 55050000 		.4byte	0x555
 10225 2f27 28000000 		.4byte	.LBB654
 10226 2f2b 2A000000 		.4byte	.LBE654-.LBB654
 10227 2f2f 01       		.byte	0x1
 10228 2f30 3F03     		.2byte	0x33f
 10229 2f32 492F0000 		.4byte	0x2f49
 10230 2f36 29       		.uleb128 0x29
 10231 2f37 72050000 		.4byte	0x572
 10232 2f3b A8360000 		.4byte	.LLST456
 10233 2f3f 29       		.uleb128 0x29
 10234 2f40 66050000 		.4byte	0x566
 10235 2f44 D3360000 		.4byte	.LLST457
 10236 2f48 00       		.byte	0
 10237 2f49 1E       		.uleb128 0x1e
 10238 2f4a 5C000000 		.4byte	.LVL654
 10239 2f4e 561E0000 		.4byte	0x1e56
 10240 2f52 1F       		.uleb128 0x1f
 10241 2f53 01       		.uleb128 0x1
 10242 2f54 51       		.byte	0x51
 10243 2f55 02       		.uleb128 0x2
 10244 2f56 77       		.byte	0x77
 10245 2f57 00       		.sleb128 0
 10246 2f58 1F       		.uleb128 0x1f
 10247 2f59 01       		.uleb128 0x1
 10248 2f5a 52       		.byte	0x52
 10249 2f5b 02       		.uleb128 0x2
 10250 2f5c 91       		.byte	0x91
 10251 2f5d 5E       		.sleb128 -34
 10252 2f5e 00       		.byte	0
 10253 2f5f 00       		.byte	0
 10254 2f60 00       		.byte	0
ARM GAS  C:\Users\strap\AppData\Local\Temp\cc7bAV43.s 			page 225


 10255 2f61 2B       		.uleb128 0x2b
 10256 2f62 AD010000 		.4byte	.LASF155
 10257 2f66 01       		.byte	0x1
 10258 2f67 6203     		.2byte	0x362
 10259 2f69 40010000 		.4byte	0x140
 10260 2f6d 00000000 		.4byte	.LFB354
 10261 2f71 C0000000 		.4byte	.LFE354-.LFB354
 10262 2f75 01       		.uleb128 0x1
 10263 2f76 9C       		.byte	0x9c
 10264 2f77 5D300000 		.4byte	0x305d
 10265 2f7b 27       		.uleb128 0x27
 10266 2f7c CF090000 		.4byte	.LASF95
 10267 2f80 01       		.byte	0x1
 10268 2f81 6203     		.2byte	0x362
 10269 2f83 5A040000 		.4byte	0x45a
 10270 2f87 E6360000 		.4byte	.LLST458
 10271 2f8b 27       		.uleb128 0x27
 10272 2f8c 25030000 		.4byte	.LASF85
 10273 2f90 01       		.byte	0x1
 10274 2f91 6203     		.2byte	0x362
 10275 2f93 4F020000 		.4byte	0x24f
 10276 2f97 33370000 		.4byte	.LLST459
 10277 2f9b 3D       		.uleb128 0x3d
 10278 2f9c 72657300 		.ascii	"res\000"
 10279 2fa0 01       		.byte	0x1
 10280 2fa1 6203     		.2byte	0x362
 10281 2fa3 4D040000 		.4byte	0x44d
 10282 2fa7 6D370000 		.4byte	.LLST460
 10283 2fab 22       		.uleb128 0x22
 10284 2fac 2A060000 		.4byte	.LASF111
 10285 2fb0 01       		.byte	0x1
 10286 2fb1 6903     		.2byte	0x369
 10287 2fb3 44020000 		.4byte	0x244
 10288 2fb7 AF370000 		.4byte	.LLST461
 10289 2fbb 22       		.uleb128 0x22
 10290 2fbc D4080000 		.4byte	.LASF151
 10291 2fc0 01       		.byte	0x1
 10292 2fc1 6B03     		.2byte	0x36b
 10293 2fc3 C3000000 		.4byte	0xc3
 10294 2fc7 E4370000 		.4byte	.LLST462
 10295 2fcb 22       		.uleb128 0x22
 10296 2fcc 0E0A0000 		.4byte	.LASF112
 10297 2fd0 01       		.byte	0x1
 10298 2fd1 6D03     		.2byte	0x36d
 10299 2fd3 C3000000 		.4byte	0xc3
 10300 2fd7 02380000 		.4byte	.LLST463
 10301 2fdb 38       		.uleb128 0x38
 10302 2fdc 8E050000 		.4byte	.LASF152
 10303 2fe0 01       		.byte	0x1
 10304 2fe1 6F03     		.2byte	0x36f
 10305 2fe3 26020000 		.4byte	0x226
 10306 2fe7 02       		.uleb128 0x2
 10307 2fe8 91       		.byte	0x91
 10308 2fe9 5C       		.sleb128 -36
 10309 2fea 23       		.uleb128 0x23
 10310 2feb 636900   		.ascii	"ci\000"
 10311 2fee 01       		.byte	0x1
ARM GAS  C:\Users\strap\AppData\Local\Temp\cc7bAV43.s 			page 226


 10312 2fef 7203     		.2byte	0x372
 10313 2ff1 C3000000 		.4byte	0xc3
 10314 2ff5 43380000 		.4byte	.LLST464
 10315 2ff9 2E       		.uleb128 0x2e
 10316 2ffa 26000000 		.4byte	.LBB656
 10317 2ffe 74000000 		.4byte	.LBE656-.LBB656
 10318 3002 17       		.uleb128 0x17
 10319 3003 1E080000 		.4byte	.LASF153
 10320 3007 01       		.byte	0x1
 10321 3008 7403     		.2byte	0x374
 10322 300a 3B040000 		.4byte	0x43b
 10323 300e 22       		.uleb128 0x22
 10324 300f A5080000 		.4byte	.LASF154
 10325 3013 01       		.byte	0x1
 10326 3014 7503     		.2byte	0x375
 10327 3016 C3000000 		.4byte	0xc3
 10328 301a 78380000 		.4byte	.LLST465
 10329 301e 28       		.uleb128 0x28
 10330 301f 55050000 		.4byte	0x555
 10331 3023 28000000 		.4byte	.LBB657
 10332 3027 2A000000 		.4byte	.LBE657-.LBB657
 10333 302b 01       		.byte	0x1
 10334 302c 7403     		.2byte	0x374
 10335 302e 45300000 		.4byte	0x3045
 10336 3032 29       		.uleb128 0x29
 10337 3033 72050000 		.4byte	0x572
 10338 3037 A1380000 		.4byte	.LLST466
 10339 303b 29       		.uleb128 0x29
 10340 303c 66050000 		.4byte	0x566
 10341 3040 CC380000 		.4byte	.LLST467
 10342 3044 00       		.byte	0
 10343 3045 1E       		.uleb128 0x1e
 10344 3046 5A000000 		.4byte	.LVL678
 10345 304a DE230000 		.4byte	0x23de
 10346 304e 1F       		.uleb128 0x1f
 10347 304f 01       		.uleb128 0x1
 10348 3050 51       		.byte	0x51
 10349 3051 02       		.uleb128 0x2
 10350 3052 77       		.byte	0x77
 10351 3053 00       		.sleb128 0
 10352 3054 1F       		.uleb128 0x1f
 10353 3055 01       		.uleb128 0x1
 10354 3056 52       		.byte	0x52
 10355 3057 02       		.uleb128 0x2
 10356 3058 91       		.byte	0x91
 10357 3059 5C       		.sleb128 -36
 10358 305a 00       		.byte	0
 10359 305b 00       		.byte	0
 10360 305c 00       		.byte	0
 10361 305d 2B       		.uleb128 0x2b
 10362 305e 8E080000 		.4byte	.LASF156
 10363 3062 01       		.byte	0x1
 10364 3063 9503     		.2byte	0x395
 10365 3065 40010000 		.4byte	0x140
 10366 3069 00000000 		.4byte	.LFB355
 10367 306d C2000000 		.4byte	.LFE355-.LFB355
 10368 3071 01       		.uleb128 0x1
ARM GAS  C:\Users\strap\AppData\Local\Temp\cc7bAV43.s 			page 227


 10369 3072 9C       		.byte	0x9c
 10370 3073 59310000 		.4byte	0x3159
 10371 3077 27       		.uleb128 0x27
 10372 3078 CF090000 		.4byte	.LASF95
 10373 307c 01       		.byte	0x1
 10374 307d 9503     		.2byte	0x395
 10375 307f 5A040000 		.4byte	0x45a
 10376 3083 DF380000 		.4byte	.LLST468
 10377 3087 27       		.uleb128 0x27
 10378 3088 25030000 		.4byte	.LASF85
 10379 308c 01       		.byte	0x1
 10380 308d 9503     		.2byte	0x395
 10381 308f 4F020000 		.4byte	0x24f
 10382 3093 2C390000 		.4byte	.LLST469
 10383 3097 3D       		.uleb128 0x3d
 10384 3098 72657300 		.ascii	"res\000"
 10385 309c 01       		.byte	0x1
 10386 309d 9503     		.2byte	0x395
 10387 309f 3E020000 		.4byte	0x23e
 10388 30a3 66390000 		.4byte	.LLST470
 10389 30a7 22       		.uleb128 0x22
 10390 30a8 2A060000 		.4byte	.LASF111
 10391 30ac 01       		.byte	0x1
 10392 30ad 9C03     		.2byte	0x39c
 10393 30af 44020000 		.4byte	0x244
 10394 30b3 A8390000 		.4byte	.LLST471
 10395 30b7 22       		.uleb128 0x22
 10396 30b8 D4080000 		.4byte	.LASF151
 10397 30bc 01       		.byte	0x1
 10398 30bd 9E03     		.2byte	0x39e
 10399 30bf C3000000 		.4byte	0xc3
 10400 30c3 DD390000 		.4byte	.LLST472
 10401 30c7 22       		.uleb128 0x22
 10402 30c8 0E0A0000 		.4byte	.LASF112
 10403 30cc 01       		.byte	0x1
 10404 30cd A003     		.2byte	0x3a0
 10405 30cf C3000000 		.4byte	0xc3
 10406 30d3 FB390000 		.4byte	.LLST473
 10407 30d7 38       		.uleb128 0x38
 10408 30d8 8E050000 		.4byte	.LASF152
 10409 30dc 01       		.byte	0x1
 10410 30dd A203     		.2byte	0x3a2
 10411 30df 32020000 		.4byte	0x232
 10412 30e3 02       		.uleb128 0x2
 10413 30e4 91       		.byte	0x91
 10414 30e5 5F       		.sleb128 -33
 10415 30e6 23       		.uleb128 0x23
 10416 30e7 636900   		.ascii	"ci\000"
 10417 30ea 01       		.byte	0x1
 10418 30eb A403     		.2byte	0x3a4
 10419 30ed C3000000 		.4byte	0xc3
 10420 30f1 3C3A0000 		.4byte	.LLST474
 10421 30f5 2E       		.uleb128 0x2e
 10422 30f6 26000000 		.4byte	.LBB659
 10423 30fa 76000000 		.4byte	.LBE659-.LBB659
 10424 30fe 17       		.uleb128 0x17
 10425 30ff 1E080000 		.4byte	.LASF153
ARM GAS  C:\Users\strap\AppData\Local\Temp\cc7bAV43.s 			page 228


 10426 3103 01       		.byte	0x1
 10427 3104 A603     		.2byte	0x3a6
 10428 3106 3B040000 		.4byte	0x43b
 10429 310a 22       		.uleb128 0x22
 10430 310b A5080000 		.4byte	.LASF154
 10431 310f 01       		.byte	0x1
 10432 3110 A703     		.2byte	0x3a7
 10433 3112 C3000000 		.4byte	0xc3
 10434 3116 713A0000 		.4byte	.LLST475
 10435 311a 28       		.uleb128 0x28
 10436 311b 55050000 		.4byte	0x555
 10437 311f 28000000 		.4byte	.LBB660
 10438 3123 2A000000 		.4byte	.LBE660-.LBB660
 10439 3127 01       		.byte	0x1
 10440 3128 A603     		.2byte	0x3a6
 10441 312a 41310000 		.4byte	0x3141
 10442 312e 29       		.uleb128 0x29
 10443 312f 72050000 		.4byte	0x572
 10444 3133 9A3A0000 		.4byte	.LLST476
 10445 3137 29       		.uleb128 0x29
 10446 3138 66050000 		.4byte	0x566
 10447 313c C53A0000 		.4byte	.LLST477
 10448 3140 00       		.byte	0
 10449 3141 1E       		.uleb128 0x1e
 10450 3142 5C000000 		.4byte	.LVL702
 10451 3146 1D210000 		.4byte	0x211d
 10452 314a 1F       		.uleb128 0x1f
 10453 314b 01       		.uleb128 0x1
 10454 314c 51       		.byte	0x51
 10455 314d 02       		.uleb128 0x2
 10456 314e 77       		.byte	0x77
 10457 314f 00       		.sleb128 0
 10458 3150 1F       		.uleb128 0x1f
 10459 3151 01       		.uleb128 0x1
 10460 3152 52       		.byte	0x52
 10461 3153 02       		.uleb128 0x2
 10462 3154 91       		.byte	0x91
 10463 3155 5F       		.sleb128 -33
 10464 3156 00       		.byte	0
 10465 3157 00       		.byte	0
 10466 3158 00       		.byte	0
 10467 3159 2B       		.uleb128 0x2b
 10468 315a 8D010000 		.4byte	.LASF157
 10469 315e 01       		.byte	0x1
 10470 315f C703     		.2byte	0x3c7
 10471 3161 40010000 		.4byte	0x140
 10472 3165 00000000 		.4byte	.LFB356
 10473 3169 B6000000 		.4byte	.LFE356-.LFB356
 10474 316d 01       		.uleb128 0x1
 10475 316e 9C       		.byte	0x9c
 10476 316f 55320000 		.4byte	0x3255
 10477 3173 27       		.uleb128 0x27
 10478 3174 CF090000 		.4byte	.LASF95
 10479 3178 01       		.byte	0x1
 10480 3179 C703     		.2byte	0x3c7
 10481 317b 5A040000 		.4byte	0x45a
 10482 317f D83A0000 		.4byte	.LLST478
ARM GAS  C:\Users\strap\AppData\Local\Temp\cc7bAV43.s 			page 229


 10483 3183 27       		.uleb128 0x27
 10484 3184 25030000 		.4byte	.LASF85
 10485 3188 01       		.byte	0x1
 10486 3189 C703     		.2byte	0x3c7
 10487 318b 4F020000 		.4byte	0x24f
 10488 318f 253B0000 		.4byte	.LLST479
 10489 3193 3D       		.uleb128 0x3d
 10490 3194 72657300 		.ascii	"res\000"
 10491 3198 01       		.byte	0x1
 10492 3199 C703     		.2byte	0x3c7
 10493 319b 60290000 		.4byte	0x2960
 10494 319f 5F3B0000 		.4byte	.LLST480
 10495 31a3 22       		.uleb128 0x22
 10496 31a4 2A060000 		.4byte	.LASF111
 10497 31a8 01       		.byte	0x1
 10498 31a9 CE03     		.2byte	0x3ce
 10499 31ab 44020000 		.4byte	0x244
 10500 31af A13B0000 		.4byte	.LLST481
 10501 31b3 22       		.uleb128 0x22
 10502 31b4 D4080000 		.4byte	.LASF151
 10503 31b8 01       		.byte	0x1
 10504 31b9 D003     		.2byte	0x3d0
 10505 31bb C3000000 		.4byte	0xc3
 10506 31bf D63B0000 		.4byte	.LLST482
 10507 31c3 22       		.uleb128 0x22
 10508 31c4 0E0A0000 		.4byte	.LASF112
 10509 31c8 01       		.byte	0x1
 10510 31c9 D203     		.2byte	0x3d2
 10511 31cb C3000000 		.4byte	0xc3
 10512 31cf F43B0000 		.4byte	.LLST483
 10513 31d3 38       		.uleb128 0x38
 10514 31d4 8E050000 		.4byte	.LASF152
 10515 31d8 01       		.byte	0x1
 10516 31d9 D403     		.2byte	0x3d4
 10517 31db 53040000 		.4byte	0x453
 10518 31df 02       		.uleb128 0x2
 10519 31e0 91       		.byte	0x91
 10520 31e1 5C       		.sleb128 -36
 10521 31e2 23       		.uleb128 0x23
 10522 31e3 636900   		.ascii	"ci\000"
 10523 31e6 01       		.byte	0x1
 10524 31e7 D603     		.2byte	0x3d6
 10525 31e9 C3000000 		.4byte	0xc3
 10526 31ed 353C0000 		.4byte	.LLST484
 10527 31f1 2E       		.uleb128 0x2e
 10528 31f2 22000000 		.4byte	.LBB662
 10529 31f6 6E000000 		.4byte	.LBE662-.LBB662
 10530 31fa 17       		.uleb128 0x17
 10531 31fb 1E080000 		.4byte	.LASF153
 10532 31ff 01       		.byte	0x1
 10533 3200 D803     		.2byte	0x3d8
 10534 3202 3B040000 		.4byte	0x43b
 10535 3206 22       		.uleb128 0x22
 10536 3207 A5080000 		.4byte	.LASF154
 10537 320b 01       		.byte	0x1
 10538 320c D903     		.2byte	0x3d9
 10539 320e C3000000 		.4byte	0xc3
ARM GAS  C:\Users\strap\AppData\Local\Temp\cc7bAV43.s 			page 230


 10540 3212 6A3C0000 		.4byte	.LLST485
 10541 3216 28       		.uleb128 0x28
 10542 3217 55050000 		.4byte	0x555
 10543 321b 24000000 		.4byte	.LBB663
 10544 321f 2A000000 		.4byte	.LBE663-.LBB663
 10545 3223 01       		.byte	0x1
 10546 3224 D803     		.2byte	0x3d8
 10547 3226 3D320000 		.4byte	0x323d
 10548 322a 29       		.uleb128 0x29
 10549 322b 72050000 		.4byte	0x572
 10550 322f 933C0000 		.4byte	.LLST486
 10551 3233 29       		.uleb128 0x29
 10552 3234 66050000 		.4byte	0x566
 10553 3238 BE3C0000 		.4byte	.LLST487
 10554 323c 00       		.byte	0
 10555 323d 1E       		.uleb128 0x1e
 10556 323e 56000000 		.4byte	.LVL725
 10557 3242 9F260000 		.4byte	0x269f
 10558 3246 1F       		.uleb128 0x1f
 10559 3247 01       		.uleb128 0x1
 10560 3248 51       		.byte	0x51
 10561 3249 02       		.uleb128 0x2
 10562 324a 77       		.byte	0x77
 10563 324b 00       		.sleb128 0
 10564 324c 1F       		.uleb128 0x1f
 10565 324d 01       		.uleb128 0x1
 10566 324e 52       		.byte	0x52
 10567 324f 02       		.uleb128 0x2
 10568 3250 91       		.byte	0x91
 10569 3251 5C       		.sleb128 -36
 10570 3252 00       		.byte	0
 10571 3253 00       		.byte	0
 10572 3254 00       		.byte	0
 10573 3255 2B       		.uleb128 0x2b
 10574 3256 C6010000 		.4byte	.LASF158
 10575 325a 01       		.byte	0x1
 10576 325b F303     		.2byte	0x3f3
 10577 325d 4B010000 		.4byte	0x14b
 10578 3261 00000000 		.4byte	.LFB357
 10579 3265 04000000 		.4byte	.LFE357-.LFB357
 10580 3269 01       		.uleb128 0x1
 10581 326a 9C       		.byte	0x9c
 10582 326b 80320000 		.4byte	0x3280
 10583 326f 27       		.uleb128 0x27
 10584 3270 DB010000 		.4byte	.LASF84
 10585 3274 01       		.byte	0x1
 10586 3275 F303     		.2byte	0x3f3
 10587 3277 A2040000 		.4byte	0x4a2
 10588 327b D13C0000 		.4byte	.LLST488
 10589 327f 00       		.byte	0
 10590 3280 2B       		.uleb128 0x2b
 10591 3281 FA070000 		.4byte	.LASF159
 10592 3285 01       		.byte	0x1
 10593 3286 0604     		.2byte	0x406
 10594 3288 4B010000 		.4byte	0x14b
 10595 328c 00000000 		.4byte	.LFB358
 10596 3290 04000000 		.4byte	.LFE358-.LFB358
ARM GAS  C:\Users\strap\AppData\Local\Temp\cc7bAV43.s 			page 231


 10597 3294 01       		.uleb128 0x1
 10598 3295 9C       		.byte	0x9c
 10599 3296 AB320000 		.4byte	0x32ab
 10600 329a 27       		.uleb128 0x27
 10601 329b CF090000 		.4byte	.LASF95
 10602 329f 01       		.byte	0x1
 10603 32a0 0604     		.2byte	0x406
 10604 32a2 7D2B0000 		.4byte	0x2b7d
 10605 32a6 F23C0000 		.4byte	.LLST489
 10606 32aa 00       		.byte	0
 10607 32ab 3E       		.uleb128 0x3e
 10608 32ac D1050000 		.4byte	.LASF160
 10609 32b0 D1050000 		.4byte	.LASF160
 10610 32b4 03       		.byte	0x3
 10611 32b5 F2       		.byte	0xf2
 10612 32b6 3E       		.uleb128 0x3e
 10613 32b7 0D020000 		.4byte	.LASF161
 10614 32bb 0D020000 		.4byte	.LASF161
 10615 32bf 03       		.byte	0x3
 10616 32c0 58       		.byte	0x58
 10617 32c1 3E       		.uleb128 0x3e
 10618 32c2 10000000 		.4byte	.LASF162
 10619 32c6 10000000 		.4byte	.LASF162
 10620 32ca 03       		.byte	0x3
 10621 32cb 52       		.byte	0x52
 10622 32cc 3E       		.uleb128 0x3e
 10623 32cd 3F020000 		.4byte	.LASF163
 10624 32d1 3F020000 		.4byte	.LASF163
 10625 32d5 09       		.byte	0x9
 10626 32d6 20       		.byte	0x20
 10627 32d7 3E       		.uleb128 0x3e
 10628 32d8 77040000 		.4byte	.LASF164
 10629 32dc 77040000 		.4byte	.LASF164
 10630 32e0 09       		.byte	0x9
 10631 32e1 26       		.byte	0x26
 10632 32e2 3E       		.uleb128 0x3e
 10633 32e3 DF050000 		.4byte	.LASF165
 10634 32e7 DF050000 		.4byte	.LASF165
 10635 32eb 03       		.byte	0x3
 10636 32ec 61       		.byte	0x61
 10637 32ed 3E       		.uleb128 0x3e
 10638 32ee 7B090000 		.4byte	.LASF166
 10639 32f2 7B090000 		.4byte	.LASF166
 10640 32f6 03       		.byte	0x3
 10641 32f7 CE       		.byte	0xce
 10642 32f8 00       		.byte	0
 10643              		.section	.debug_abbrev,"",%progbits
 10644              	.Ldebug_abbrev0:
 10645 0000 01       		.uleb128 0x1
 10646 0001 11       		.uleb128 0x11
 10647 0002 01       		.byte	0x1
 10648 0003 25       		.uleb128 0x25
 10649 0004 0E       		.uleb128 0xe
 10650 0005 13       		.uleb128 0x13
 10651 0006 0B       		.uleb128 0xb
 10652 0007 03       		.uleb128 0x3
 10653 0008 0E       		.uleb128 0xe
ARM GAS  C:\Users\strap\AppData\Local\Temp\cc7bAV43.s 			page 232


 10654 0009 1B       		.uleb128 0x1b
 10655 000a 0E       		.uleb128 0xe
 10656 000b 55       		.uleb128 0x55
 10657 000c 17       		.uleb128 0x17
 10658 000d 11       		.uleb128 0x11
 10659 000e 01       		.uleb128 0x1
 10660 000f 10       		.uleb128 0x10
 10661 0010 17       		.uleb128 0x17
 10662 0011 00       		.byte	0
 10663 0012 00       		.byte	0
 10664 0013 02       		.uleb128 0x2
 10665 0014 24       		.uleb128 0x24
 10666 0015 00       		.byte	0
 10667 0016 0B       		.uleb128 0xb
 10668 0017 0B       		.uleb128 0xb
 10669 0018 3E       		.uleb128 0x3e
 10670 0019 0B       		.uleb128 0xb
 10671 001a 03       		.uleb128 0x3
 10672 001b 0E       		.uleb128 0xe
 10673 001c 00       		.byte	0
 10674 001d 00       		.byte	0
 10675 001e 03       		.uleb128 0x3
 10676 001f 16       		.uleb128 0x16
 10677 0020 00       		.byte	0
 10678 0021 03       		.uleb128 0x3
 10679 0022 0E       		.uleb128 0xe
 10680 0023 3A       		.uleb128 0x3a
 10681 0024 0B       		.uleb128 0xb
 10682 0025 3B       		.uleb128 0x3b
 10683 0026 0B       		.uleb128 0xb
 10684 0027 49       		.uleb128 0x49
 10685 0028 13       		.uleb128 0x13
 10686 0029 00       		.byte	0
 10687 002a 00       		.byte	0
 10688 002b 04       		.uleb128 0x4
 10689 002c 24       		.uleb128 0x24
 10690 002d 00       		.byte	0
 10691 002e 0B       		.uleb128 0xb
 10692 002f 0B       		.uleb128 0xb
 10693 0030 3E       		.uleb128 0x3e
 10694 0031 0B       		.uleb128 0xb
 10695 0032 03       		.uleb128 0x3
 10696 0033 08       		.uleb128 0x8
 10697 0034 00       		.byte	0
 10698 0035 00       		.byte	0
 10699 0036 05       		.uleb128 0x5
 10700 0037 0F       		.uleb128 0xf
 10701 0038 00       		.byte	0
 10702 0039 0B       		.uleb128 0xb
 10703 003a 0B       		.uleb128 0xb
 10704 003b 00       		.byte	0
 10705 003c 00       		.byte	0
 10706 003d 06       		.uleb128 0x6
 10707 003e 04       		.uleb128 0x4
 10708 003f 01       		.byte	0x1
 10709 0040 0B       		.uleb128 0xb
 10710 0041 0B       		.uleb128 0xb
ARM GAS  C:\Users\strap\AppData\Local\Temp\cc7bAV43.s 			page 233


 10711 0042 49       		.uleb128 0x49
 10712 0043 13       		.uleb128 0x13
 10713 0044 3A       		.uleb128 0x3a
 10714 0045 0B       		.uleb128 0xb
 10715 0046 3B       		.uleb128 0x3b
 10716 0047 0B       		.uleb128 0xb
 10717 0048 01       		.uleb128 0x1
 10718 0049 13       		.uleb128 0x13
 10719 004a 00       		.byte	0
 10720 004b 00       		.byte	0
 10721 004c 07       		.uleb128 0x7
 10722 004d 28       		.uleb128 0x28
 10723 004e 00       		.byte	0
 10724 004f 03       		.uleb128 0x3
 10725 0050 0E       		.uleb128 0xe
 10726 0051 1C       		.uleb128 0x1c
 10727 0052 0B       		.uleb128 0xb
 10728 0053 00       		.byte	0
 10729 0054 00       		.byte	0
 10730 0055 08       		.uleb128 0x8
 10731 0056 0F       		.uleb128 0xf
 10732 0057 00       		.byte	0
 10733 0058 0B       		.uleb128 0xb
 10734 0059 0B       		.uleb128 0xb
 10735 005a 49       		.uleb128 0x49
 10736 005b 13       		.uleb128 0x13
 10737 005c 00       		.byte	0
 10738 005d 00       		.byte	0
 10739 005e 09       		.uleb128 0x9
 10740 005f 26       		.uleb128 0x26
 10741 0060 00       		.byte	0
 10742 0061 49       		.uleb128 0x49
 10743 0062 13       		.uleb128 0x13
 10744 0063 00       		.byte	0
 10745 0064 00       		.byte	0
 10746 0065 0A       		.uleb128 0xa
 10747 0066 13       		.uleb128 0x13
 10748 0067 01       		.byte	0x1
 10749 0068 0B       		.uleb128 0xb
 10750 0069 0B       		.uleb128 0xb
 10751 006a 3A       		.uleb128 0x3a
 10752 006b 0B       		.uleb128 0xb
 10753 006c 3B       		.uleb128 0x3b
 10754 006d 0B       		.uleb128 0xb
 10755 006e 01       		.uleb128 0x1
 10756 006f 13       		.uleb128 0x13
 10757 0070 00       		.byte	0
 10758 0071 00       		.byte	0
 10759 0072 0B       		.uleb128 0xb
 10760 0073 0D       		.uleb128 0xd
 10761 0074 00       		.byte	0
 10762 0075 03       		.uleb128 0x3
 10763 0076 0E       		.uleb128 0xe
 10764 0077 3A       		.uleb128 0x3a
 10765 0078 0B       		.uleb128 0xb
 10766 0079 3B       		.uleb128 0x3b
 10767 007a 0B       		.uleb128 0xb
ARM GAS  C:\Users\strap\AppData\Local\Temp\cc7bAV43.s 			page 234


 10768 007b 49       		.uleb128 0x49
 10769 007c 13       		.uleb128 0x13
 10770 007d 0B       		.uleb128 0xb
 10771 007e 0B       		.uleb128 0xb
 10772 007f 0D       		.uleb128 0xd
 10773 0080 0B       		.uleb128 0xb
 10774 0081 0C       		.uleb128 0xc
 10775 0082 0B       		.uleb128 0xb
 10776 0083 38       		.uleb128 0x38
 10777 0084 0B       		.uleb128 0xb
 10778 0085 00       		.byte	0
 10779 0086 00       		.byte	0
 10780 0087 0C       		.uleb128 0xc
 10781 0088 0D       		.uleb128 0xd
 10782 0089 00       		.byte	0
 10783 008a 03       		.uleb128 0x3
 10784 008b 08       		.uleb128 0x8
 10785 008c 3A       		.uleb128 0x3a
 10786 008d 0B       		.uleb128 0xb
 10787 008e 3B       		.uleb128 0x3b
 10788 008f 0B       		.uleb128 0xb
 10789 0090 49       		.uleb128 0x49
 10790 0091 13       		.uleb128 0x13
 10791 0092 0B       		.uleb128 0xb
 10792 0093 0B       		.uleb128 0xb
 10793 0094 0D       		.uleb128 0xd
 10794 0095 0B       		.uleb128 0xb
 10795 0096 0C       		.uleb128 0xc
 10796 0097 0B       		.uleb128 0xb
 10797 0098 38       		.uleb128 0x38
 10798 0099 0B       		.uleb128 0xb
 10799 009a 00       		.byte	0
 10800 009b 00       		.byte	0
 10801 009c 0D       		.uleb128 0xd
 10802 009d 17       		.uleb128 0x17
 10803 009e 01       		.byte	0x1
 10804 009f 0B       		.uleb128 0xb
 10805 00a0 0B       		.uleb128 0xb
 10806 00a1 3A       		.uleb128 0x3a
 10807 00a2 0B       		.uleb128 0xb
 10808 00a3 3B       		.uleb128 0x3b
 10809 00a4 0B       		.uleb128 0xb
 10810 00a5 01       		.uleb128 0x1
 10811 00a6 13       		.uleb128 0x13
 10812 00a7 00       		.byte	0
 10813 00a8 00       		.byte	0
 10814 00a9 0E       		.uleb128 0xe
 10815 00aa 0D       		.uleb128 0xd
 10816 00ab 00       		.byte	0
 10817 00ac 03       		.uleb128 0x3
 10818 00ad 08       		.uleb128 0x8
 10819 00ae 3A       		.uleb128 0x3a
 10820 00af 0B       		.uleb128 0xb
 10821 00b0 3B       		.uleb128 0x3b
 10822 00b1 0B       		.uleb128 0xb
 10823 00b2 49       		.uleb128 0x49
 10824 00b3 13       		.uleb128 0x13
ARM GAS  C:\Users\strap\AppData\Local\Temp\cc7bAV43.s 			page 235


 10825 00b4 00       		.byte	0
 10826 00b5 00       		.byte	0
 10827 00b6 0F       		.uleb128 0xf
 10828 00b7 0D       		.uleb128 0xd
 10829 00b8 00       		.byte	0
 10830 00b9 03       		.uleb128 0x3
 10831 00ba 0E       		.uleb128 0xe
 10832 00bb 3A       		.uleb128 0x3a
 10833 00bc 0B       		.uleb128 0xb
 10834 00bd 3B       		.uleb128 0x3b
 10835 00be 0B       		.uleb128 0xb
 10836 00bf 49       		.uleb128 0x49
 10837 00c0 13       		.uleb128 0x13
 10838 00c1 00       		.byte	0
 10839 00c2 00       		.byte	0
 10840 00c3 10       		.uleb128 0x10
 10841 00c4 16       		.uleb128 0x16
 10842 00c5 00       		.byte	0
 10843 00c6 03       		.uleb128 0x3
 10844 00c7 0E       		.uleb128 0xe
 10845 00c8 3A       		.uleb128 0x3a
 10846 00c9 0B       		.uleb128 0xb
 10847 00ca 3B       		.uleb128 0x3b
 10848 00cb 05       		.uleb128 0x5
 10849 00cc 49       		.uleb128 0x49
 10850 00cd 13       		.uleb128 0x13
 10851 00ce 00       		.byte	0
 10852 00cf 00       		.byte	0
 10853 00d0 11       		.uleb128 0x11
 10854 00d1 0D       		.uleb128 0xd
 10855 00d2 00       		.byte	0
 10856 00d3 03       		.uleb128 0x3
 10857 00d4 08       		.uleb128 0x8
 10858 00d5 3A       		.uleb128 0x3a
 10859 00d6 0B       		.uleb128 0xb
 10860 00d7 3B       		.uleb128 0x3b
 10861 00d8 0B       		.uleb128 0xb
 10862 00d9 49       		.uleb128 0x49
 10863 00da 13       		.uleb128 0x13
 10864 00db 38       		.uleb128 0x38
 10865 00dc 0B       		.uleb128 0xb
 10866 00dd 00       		.byte	0
 10867 00de 00       		.byte	0
 10868 00df 12       		.uleb128 0x12
 10869 00e0 0D       		.uleb128 0xd
 10870 00e1 00       		.byte	0
 10871 00e2 03       		.uleb128 0x3
 10872 00e3 0E       		.uleb128 0xe
 10873 00e4 3A       		.uleb128 0x3a
 10874 00e5 0B       		.uleb128 0xb
 10875 00e6 3B       		.uleb128 0x3b
 10876 00e7 0B       		.uleb128 0xb
 10877 00e8 49       		.uleb128 0x49
 10878 00e9 13       		.uleb128 0x13
 10879 00ea 38       		.uleb128 0x38
 10880 00eb 0B       		.uleb128 0xb
 10881 00ec 00       		.byte	0
ARM GAS  C:\Users\strap\AppData\Local\Temp\cc7bAV43.s 			page 236


 10882 00ed 00       		.byte	0
 10883 00ee 13       		.uleb128 0x13
 10884 00ef 26       		.uleb128 0x26
 10885 00f0 00       		.byte	0
 10886 00f1 00       		.byte	0
 10887 00f2 00       		.byte	0
 10888 00f3 14       		.uleb128 0x14
 10889 00f4 2E       		.uleb128 0x2e
 10890 00f5 01       		.byte	0x1
 10891 00f6 03       		.uleb128 0x3
 10892 00f7 0E       		.uleb128 0xe
 10893 00f8 3A       		.uleb128 0x3a
 10894 00f9 0B       		.uleb128 0xb
 10895 00fa 3B       		.uleb128 0x3b
 10896 00fb 05       		.uleb128 0x5
 10897 00fc 27       		.uleb128 0x27
 10898 00fd 19       		.uleb128 0x19
 10899 00fe 49       		.uleb128 0x49
 10900 00ff 13       		.uleb128 0x13
 10901 0100 20       		.uleb128 0x20
 10902 0101 0B       		.uleb128 0xb
 10903 0102 01       		.uleb128 0x1
 10904 0103 13       		.uleb128 0x13
 10905 0104 00       		.byte	0
 10906 0105 00       		.byte	0
 10907 0106 15       		.uleb128 0x15
 10908 0107 05       		.uleb128 0x5
 10909 0108 00       		.byte	0
 10910 0109 03       		.uleb128 0x3
 10911 010a 0E       		.uleb128 0xe
 10912 010b 3A       		.uleb128 0x3a
 10913 010c 0B       		.uleb128 0xb
 10914 010d 3B       		.uleb128 0x3b
 10915 010e 05       		.uleb128 0x5
 10916 010f 49       		.uleb128 0x49
 10917 0110 13       		.uleb128 0x13
 10918 0111 00       		.byte	0
 10919 0112 00       		.byte	0
 10920 0113 16       		.uleb128 0x16
 10921 0114 05       		.uleb128 0x5
 10922 0115 00       		.byte	0
 10923 0116 03       		.uleb128 0x3
 10924 0117 08       		.uleb128 0x8
 10925 0118 3A       		.uleb128 0x3a
 10926 0119 0B       		.uleb128 0xb
 10927 011a 3B       		.uleb128 0x3b
 10928 011b 05       		.uleb128 0x5
 10929 011c 49       		.uleb128 0x49
 10930 011d 13       		.uleb128 0x13
 10931 011e 00       		.byte	0
 10932 011f 00       		.byte	0
 10933 0120 17       		.uleb128 0x17
 10934 0121 34       		.uleb128 0x34
 10935 0122 00       		.byte	0
 10936 0123 03       		.uleb128 0x3
 10937 0124 0E       		.uleb128 0xe
 10938 0125 3A       		.uleb128 0x3a
ARM GAS  C:\Users\strap\AppData\Local\Temp\cc7bAV43.s 			page 237


 10939 0126 0B       		.uleb128 0xb
 10940 0127 3B       		.uleb128 0x3b
 10941 0128 05       		.uleb128 0x5
 10942 0129 49       		.uleb128 0x49
 10943 012a 13       		.uleb128 0x13
 10944 012b 00       		.byte	0
 10945 012c 00       		.byte	0
 10946 012d 18       		.uleb128 0x18
 10947 012e 2E       		.uleb128 0x2e
 10948 012f 01       		.byte	0x1
 10949 0130 03       		.uleb128 0x3
 10950 0131 0E       		.uleb128 0xe
 10951 0132 3A       		.uleb128 0x3a
 10952 0133 0B       		.uleb128 0xb
 10953 0134 3B       		.uleb128 0x3b
 10954 0135 05       		.uleb128 0x5
 10955 0136 27       		.uleb128 0x27
 10956 0137 19       		.uleb128 0x19
 10957 0138 20       		.uleb128 0x20
 10958 0139 0B       		.uleb128 0xb
 10959 013a 01       		.uleb128 0x1
 10960 013b 13       		.uleb128 0x13
 10961 013c 00       		.byte	0
 10962 013d 00       		.byte	0
 10963 013e 19       		.uleb128 0x19
 10964 013f 2E       		.uleb128 0x2e
 10965 0140 01       		.byte	0x1
 10966 0141 03       		.uleb128 0x3
 10967 0142 0E       		.uleb128 0xe
 10968 0143 3A       		.uleb128 0x3a
 10969 0144 0B       		.uleb128 0xb
 10970 0145 3B       		.uleb128 0x3b
 10971 0146 0B       		.uleb128 0xb
 10972 0147 27       		.uleb128 0x27
 10973 0148 19       		.uleb128 0x19
 10974 0149 49       		.uleb128 0x49
 10975 014a 13       		.uleb128 0x13
 10976 014b 20       		.uleb128 0x20
 10977 014c 0B       		.uleb128 0xb
 10978 014d 01       		.uleb128 0x1
 10979 014e 13       		.uleb128 0x13
 10980 014f 00       		.byte	0
 10981 0150 00       		.byte	0
 10982 0151 1A       		.uleb128 0x1a
 10983 0152 05       		.uleb128 0x5
 10984 0153 00       		.byte	0
 10985 0154 03       		.uleb128 0x3
 10986 0155 08       		.uleb128 0x8
 10987 0156 3A       		.uleb128 0x3a
 10988 0157 0B       		.uleb128 0xb
 10989 0158 3B       		.uleb128 0x3b
 10990 0159 0B       		.uleb128 0xb
 10991 015a 49       		.uleb128 0x49
 10992 015b 13       		.uleb128 0x13
 10993 015c 00       		.byte	0
 10994 015d 00       		.byte	0
 10995 015e 1B       		.uleb128 0x1b
ARM GAS  C:\Users\strap\AppData\Local\Temp\cc7bAV43.s 			page 238


 10996 015f 34       		.uleb128 0x34
 10997 0160 00       		.byte	0
 10998 0161 03       		.uleb128 0x3
 10999 0162 08       		.uleb128 0x8
 11000 0163 3A       		.uleb128 0x3a
 11001 0164 0B       		.uleb128 0xb
 11002 0165 3B       		.uleb128 0x3b
 11003 0166 0B       		.uleb128 0xb
 11004 0167 49       		.uleb128 0x49
 11005 0168 13       		.uleb128 0x13
 11006 0169 00       		.byte	0
 11007 016a 00       		.byte	0
 11008 016b 1C       		.uleb128 0x1c
 11009 016c 2E       		.uleb128 0x2e
 11010 016d 01       		.byte	0x1
 11011 016e 3F       		.uleb128 0x3f
 11012 016f 19       		.uleb128 0x19
 11013 0170 03       		.uleb128 0x3
 11014 0171 0E       		.uleb128 0xe
 11015 0172 3A       		.uleb128 0x3a
 11016 0173 0B       		.uleb128 0xb
 11017 0174 3B       		.uleb128 0x3b
 11018 0175 0B       		.uleb128 0xb
 11019 0176 27       		.uleb128 0x27
 11020 0177 19       		.uleb128 0x19
 11021 0178 11       		.uleb128 0x11
 11022 0179 01       		.uleb128 0x1
 11023 017a 12       		.uleb128 0x12
 11024 017b 06       		.uleb128 0x6
 11025 017c 40       		.uleb128 0x40
 11026 017d 18       		.uleb128 0x18
 11027 017e 9742     		.uleb128 0x2117
 11028 0180 19       		.uleb128 0x19
 11029 0181 01       		.uleb128 0x1
 11030 0182 13       		.uleb128 0x13
 11031 0183 00       		.byte	0
 11032 0184 00       		.byte	0
 11033 0185 1D       		.uleb128 0x1d
 11034 0186 05       		.uleb128 0x5
 11035 0187 00       		.byte	0
 11036 0188 03       		.uleb128 0x3
 11037 0189 0E       		.uleb128 0xe
 11038 018a 3A       		.uleb128 0x3a
 11039 018b 0B       		.uleb128 0xb
 11040 018c 3B       		.uleb128 0x3b
 11041 018d 0B       		.uleb128 0xb
 11042 018e 49       		.uleb128 0x49
 11043 018f 13       		.uleb128 0x13
 11044 0190 02       		.uleb128 0x2
 11045 0191 17       		.uleb128 0x17
 11046 0192 00       		.byte	0
 11047 0193 00       		.byte	0
 11048 0194 1E       		.uleb128 0x1e
 11049 0195 898201   		.uleb128 0x4109
 11050 0198 01       		.byte	0x1
 11051 0199 11       		.uleb128 0x11
 11052 019a 01       		.uleb128 0x1
ARM GAS  C:\Users\strap\AppData\Local\Temp\cc7bAV43.s 			page 239


 11053 019b 31       		.uleb128 0x31
 11054 019c 13       		.uleb128 0x13
 11055 019d 00       		.byte	0
 11056 019e 00       		.byte	0
 11057 019f 1F       		.uleb128 0x1f
 11058 01a0 8A8201   		.uleb128 0x410a
 11059 01a3 00       		.byte	0
 11060 01a4 02       		.uleb128 0x2
 11061 01a5 18       		.uleb128 0x18
 11062 01a6 9142     		.uleb128 0x2111
 11063 01a8 18       		.uleb128 0x18
 11064 01a9 00       		.byte	0
 11065 01aa 00       		.byte	0
 11066 01ab 20       		.uleb128 0x20
 11067 01ac 34       		.uleb128 0x34
 11068 01ad 00       		.byte	0
 11069 01ae 03       		.uleb128 0x3
 11070 01af 08       		.uleb128 0x8
 11071 01b0 3A       		.uleb128 0x3a
 11072 01b1 0B       		.uleb128 0xb
 11073 01b2 3B       		.uleb128 0x3b
 11074 01b3 0B       		.uleb128 0xb
 11075 01b4 49       		.uleb128 0x49
 11076 01b5 13       		.uleb128 0x13
 11077 01b6 02       		.uleb128 0x2
 11078 01b7 17       		.uleb128 0x17
 11079 01b8 00       		.byte	0
 11080 01b9 00       		.byte	0
 11081 01ba 21       		.uleb128 0x21
 11082 01bb 34       		.uleb128 0x34
 11083 01bc 00       		.byte	0
 11084 01bd 03       		.uleb128 0x3
 11085 01be 0E       		.uleb128 0xe
 11086 01bf 3A       		.uleb128 0x3a
 11087 01c0 0B       		.uleb128 0xb
 11088 01c1 3B       		.uleb128 0x3b
 11089 01c2 0B       		.uleb128 0xb
 11090 01c3 49       		.uleb128 0x49
 11091 01c4 13       		.uleb128 0x13
 11092 01c5 02       		.uleb128 0x2
 11093 01c6 17       		.uleb128 0x17
 11094 01c7 00       		.byte	0
 11095 01c8 00       		.byte	0
 11096 01c9 22       		.uleb128 0x22
 11097 01ca 34       		.uleb128 0x34
 11098 01cb 00       		.byte	0
 11099 01cc 03       		.uleb128 0x3
 11100 01cd 0E       		.uleb128 0xe
 11101 01ce 3A       		.uleb128 0x3a
 11102 01cf 0B       		.uleb128 0xb
 11103 01d0 3B       		.uleb128 0x3b
 11104 01d1 05       		.uleb128 0x5
 11105 01d2 49       		.uleb128 0x49
 11106 01d3 13       		.uleb128 0x13
 11107 01d4 02       		.uleb128 0x2
 11108 01d5 17       		.uleb128 0x17
 11109 01d6 00       		.byte	0
ARM GAS  C:\Users\strap\AppData\Local\Temp\cc7bAV43.s 			page 240


 11110 01d7 00       		.byte	0
 11111 01d8 23       		.uleb128 0x23
 11112 01d9 34       		.uleb128 0x34
 11113 01da 00       		.byte	0
 11114 01db 03       		.uleb128 0x3
 11115 01dc 08       		.uleb128 0x8
 11116 01dd 3A       		.uleb128 0x3a
 11117 01de 0B       		.uleb128 0xb
 11118 01df 3B       		.uleb128 0x3b
 11119 01e0 05       		.uleb128 0x5
 11120 01e1 49       		.uleb128 0x49
 11121 01e2 13       		.uleb128 0x13
 11122 01e3 02       		.uleb128 0x2
 11123 01e4 17       		.uleb128 0x17
 11124 01e5 00       		.byte	0
 11125 01e6 00       		.byte	0
 11126 01e7 24       		.uleb128 0x24
 11127 01e8 898201   		.uleb128 0x4109
 11128 01eb 00       		.byte	0
 11129 01ec 11       		.uleb128 0x11
 11130 01ed 01       		.uleb128 0x1
 11131 01ee 31       		.uleb128 0x31
 11132 01ef 13       		.uleb128 0x13
 11133 01f0 00       		.byte	0
 11134 01f1 00       		.byte	0
 11135 01f2 25       		.uleb128 0x25
 11136 01f3 898201   		.uleb128 0x4109
 11137 01f6 01       		.byte	0x1
 11138 01f7 11       		.uleb128 0x11
 11139 01f8 01       		.uleb128 0x1
 11140 01f9 31       		.uleb128 0x31
 11141 01fa 13       		.uleb128 0x13
 11142 01fb 01       		.uleb128 0x1
 11143 01fc 13       		.uleb128 0x13
 11144 01fd 00       		.byte	0
 11145 01fe 00       		.byte	0
 11146 01ff 26       		.uleb128 0x26
 11147 0200 2E       		.uleb128 0x2e
 11148 0201 01       		.byte	0x1
 11149 0202 03       		.uleb128 0x3
 11150 0203 0E       		.uleb128 0xe
 11151 0204 3A       		.uleb128 0x3a
 11152 0205 0B       		.uleb128 0xb
 11153 0206 3B       		.uleb128 0x3b
 11154 0207 05       		.uleb128 0x5
 11155 0208 27       		.uleb128 0x27
 11156 0209 19       		.uleb128 0x19
 11157 020a 49       		.uleb128 0x49
 11158 020b 13       		.uleb128 0x13
 11159 020c 11       		.uleb128 0x11
 11160 020d 01       		.uleb128 0x1
 11161 020e 12       		.uleb128 0x12
 11162 020f 06       		.uleb128 0x6
 11163 0210 40       		.uleb128 0x40
 11164 0211 18       		.uleb128 0x18
 11165 0212 9742     		.uleb128 0x2117
 11166 0214 19       		.uleb128 0x19
ARM GAS  C:\Users\strap\AppData\Local\Temp\cc7bAV43.s 			page 241


 11167 0215 01       		.uleb128 0x1
 11168 0216 13       		.uleb128 0x13
 11169 0217 00       		.byte	0
 11170 0218 00       		.byte	0
 11171 0219 27       		.uleb128 0x27
 11172 021a 05       		.uleb128 0x5
 11173 021b 00       		.byte	0
 11174 021c 03       		.uleb128 0x3
 11175 021d 0E       		.uleb128 0xe
 11176 021e 3A       		.uleb128 0x3a
 11177 021f 0B       		.uleb128 0xb
 11178 0220 3B       		.uleb128 0x3b
 11179 0221 05       		.uleb128 0x5
 11180 0222 49       		.uleb128 0x49
 11181 0223 13       		.uleb128 0x13
 11182 0224 02       		.uleb128 0x2
 11183 0225 17       		.uleb128 0x17
 11184 0226 00       		.byte	0
 11185 0227 00       		.byte	0
 11186 0228 28       		.uleb128 0x28
 11187 0229 1D       		.uleb128 0x1d
 11188 022a 01       		.byte	0x1
 11189 022b 31       		.uleb128 0x31
 11190 022c 13       		.uleb128 0x13
 11191 022d 11       		.uleb128 0x11
 11192 022e 01       		.uleb128 0x1
 11193 022f 12       		.uleb128 0x12
 11194 0230 06       		.uleb128 0x6
 11195 0231 58       		.uleb128 0x58
 11196 0232 0B       		.uleb128 0xb
 11197 0233 59       		.uleb128 0x59
 11198 0234 05       		.uleb128 0x5
 11199 0235 01       		.uleb128 0x1
 11200 0236 13       		.uleb128 0x13
 11201 0237 00       		.byte	0
 11202 0238 00       		.byte	0
 11203 0239 29       		.uleb128 0x29
 11204 023a 05       		.uleb128 0x5
 11205 023b 00       		.byte	0
 11206 023c 31       		.uleb128 0x31
 11207 023d 13       		.uleb128 0x13
 11208 023e 02       		.uleb128 0x2
 11209 023f 17       		.uleb128 0x17
 11210 0240 00       		.byte	0
 11211 0241 00       		.byte	0
 11212 0242 2A       		.uleb128 0x2a
 11213 0243 2E       		.uleb128 0x2e
 11214 0244 01       		.byte	0x1
 11215 0245 3F       		.uleb128 0x3f
 11216 0246 19       		.uleb128 0x19
 11217 0247 03       		.uleb128 0x3
 11218 0248 0E       		.uleb128 0xe
 11219 0249 3A       		.uleb128 0x3a
 11220 024a 0B       		.uleb128 0xb
 11221 024b 3B       		.uleb128 0x3b
 11222 024c 05       		.uleb128 0x5
 11223 024d 27       		.uleb128 0x27
ARM GAS  C:\Users\strap\AppData\Local\Temp\cc7bAV43.s 			page 242


 11224 024e 19       		.uleb128 0x19
 11225 024f 11       		.uleb128 0x11
 11226 0250 01       		.uleb128 0x1
 11227 0251 12       		.uleb128 0x12
 11228 0252 06       		.uleb128 0x6
 11229 0253 40       		.uleb128 0x40
 11230 0254 18       		.uleb128 0x18
 11231 0255 9742     		.uleb128 0x2117
 11232 0257 19       		.uleb128 0x19
 11233 0258 01       		.uleb128 0x1
 11234 0259 13       		.uleb128 0x13
 11235 025a 00       		.byte	0
 11236 025b 00       		.byte	0
 11237 025c 2B       		.uleb128 0x2b
 11238 025d 2E       		.uleb128 0x2e
 11239 025e 01       		.byte	0x1
 11240 025f 3F       		.uleb128 0x3f
 11241 0260 19       		.uleb128 0x19
 11242 0261 03       		.uleb128 0x3
 11243 0262 0E       		.uleb128 0xe
 11244 0263 3A       		.uleb128 0x3a
 11245 0264 0B       		.uleb128 0xb
 11246 0265 3B       		.uleb128 0x3b
 11247 0266 05       		.uleb128 0x5
 11248 0267 27       		.uleb128 0x27
 11249 0268 19       		.uleb128 0x19
 11250 0269 49       		.uleb128 0x49
 11251 026a 13       		.uleb128 0x13
 11252 026b 11       		.uleb128 0x11
 11253 026c 01       		.uleb128 0x1
 11254 026d 12       		.uleb128 0x12
 11255 026e 06       		.uleb128 0x6
 11256 026f 40       		.uleb128 0x40
 11257 0270 18       		.uleb128 0x18
 11258 0271 9742     		.uleb128 0x2117
 11259 0273 19       		.uleb128 0x19
 11260 0274 01       		.uleb128 0x1
 11261 0275 13       		.uleb128 0x13
 11262 0276 00       		.byte	0
 11263 0277 00       		.byte	0
 11264 0278 2C       		.uleb128 0x2c
 11265 0279 05       		.uleb128 0x5
 11266 027a 00       		.byte	0
 11267 027b 31       		.uleb128 0x31
 11268 027c 13       		.uleb128 0x13
 11269 027d 00       		.byte	0
 11270 027e 00       		.byte	0
 11271 027f 2D       		.uleb128 0x2d
 11272 0280 1D       		.uleb128 0x1d
 11273 0281 01       		.byte	0x1
 11274 0282 31       		.uleb128 0x31
 11275 0283 13       		.uleb128 0x13
 11276 0284 11       		.uleb128 0x11
 11277 0285 01       		.uleb128 0x1
 11278 0286 12       		.uleb128 0x12
 11279 0287 06       		.uleb128 0x6
 11280 0288 58       		.uleb128 0x58
ARM GAS  C:\Users\strap\AppData\Local\Temp\cc7bAV43.s 			page 243


 11281 0289 0B       		.uleb128 0xb
 11282 028a 59       		.uleb128 0x59
 11283 028b 05       		.uleb128 0x5
 11284 028c 00       		.byte	0
 11285 028d 00       		.byte	0
 11286 028e 2E       		.uleb128 0x2e
 11287 028f 0B       		.uleb128 0xb
 11288 0290 01       		.byte	0x1
 11289 0291 11       		.uleb128 0x11
 11290 0292 01       		.uleb128 0x1
 11291 0293 12       		.uleb128 0x12
 11292 0294 06       		.uleb128 0x6
 11293 0295 00       		.byte	0
 11294 0296 00       		.byte	0
 11295 0297 2F       		.uleb128 0x2f
 11296 0298 34       		.uleb128 0x34
 11297 0299 00       		.byte	0
 11298 029a 31       		.uleb128 0x31
 11299 029b 13       		.uleb128 0x13
 11300 029c 02       		.uleb128 0x2
 11301 029d 17       		.uleb128 0x17
 11302 029e 00       		.byte	0
 11303 029f 00       		.byte	0
 11304 02a0 30       		.uleb128 0x30
 11305 02a1 34       		.uleb128 0x34
 11306 02a2 00       		.byte	0
 11307 02a3 31       		.uleb128 0x31
 11308 02a4 13       		.uleb128 0x13
 11309 02a5 02       		.uleb128 0x2
 11310 02a6 18       		.uleb128 0x18
 11311 02a7 00       		.byte	0
 11312 02a8 00       		.byte	0
 11313 02a9 31       		.uleb128 0x31
 11314 02aa 34       		.uleb128 0x34
 11315 02ab 00       		.byte	0
 11316 02ac 03       		.uleb128 0x3
 11317 02ad 08       		.uleb128 0x8
 11318 02ae 3A       		.uleb128 0x3a
 11319 02af 0B       		.uleb128 0xb
 11320 02b0 3B       		.uleb128 0x3b
 11321 02b1 05       		.uleb128 0x5
 11322 02b2 49       		.uleb128 0x49
 11323 02b3 13       		.uleb128 0x13
 11324 02b4 00       		.byte	0
 11325 02b5 00       		.byte	0
 11326 02b6 32       		.uleb128 0x32
 11327 02b7 0B       		.uleb128 0xb
 11328 02b8 01       		.byte	0x1
 11329 02b9 00       		.byte	0
 11330 02ba 00       		.byte	0
 11331 02bb 33       		.uleb128 0x33
 11332 02bc 2E       		.uleb128 0x2e
 11333 02bd 01       		.byte	0x1
 11334 02be 3F       		.uleb128 0x3f
 11335 02bf 19       		.uleb128 0x19
 11336 02c0 03       		.uleb128 0x3
 11337 02c1 0E       		.uleb128 0xe
ARM GAS  C:\Users\strap\AppData\Local\Temp\cc7bAV43.s 			page 244


 11338 02c2 3A       		.uleb128 0x3a
 11339 02c3 0B       		.uleb128 0xb
 11340 02c4 3B       		.uleb128 0x3b
 11341 02c5 0B       		.uleb128 0xb
 11342 02c6 27       		.uleb128 0x27
 11343 02c7 19       		.uleb128 0x19
 11344 02c8 49       		.uleb128 0x49
 11345 02c9 13       		.uleb128 0x13
 11346 02ca 11       		.uleb128 0x11
 11347 02cb 01       		.uleb128 0x1
 11348 02cc 12       		.uleb128 0x12
 11349 02cd 06       		.uleb128 0x6
 11350 02ce 40       		.uleb128 0x40
 11351 02cf 18       		.uleb128 0x18
 11352 02d0 9742     		.uleb128 0x2117
 11353 02d2 19       		.uleb128 0x19
 11354 02d3 01       		.uleb128 0x1
 11355 02d4 13       		.uleb128 0x13
 11356 02d5 00       		.byte	0
 11357 02d6 00       		.byte	0
 11358 02d7 34       		.uleb128 0x34
 11359 02d8 1D       		.uleb128 0x1d
 11360 02d9 01       		.byte	0x1
 11361 02da 31       		.uleb128 0x31
 11362 02db 13       		.uleb128 0x13
 11363 02dc 11       		.uleb128 0x11
 11364 02dd 01       		.uleb128 0x1
 11365 02de 12       		.uleb128 0x12
 11366 02df 06       		.uleb128 0x6
 11367 02e0 58       		.uleb128 0x58
 11368 02e1 0B       		.uleb128 0xb
 11369 02e2 59       		.uleb128 0x59
 11370 02e3 0B       		.uleb128 0xb
 11371 02e4 01       		.uleb128 0x1
 11372 02e5 13       		.uleb128 0x13
 11373 02e6 00       		.byte	0
 11374 02e7 00       		.byte	0
 11375 02e8 35       		.uleb128 0x35
 11376 02e9 34       		.uleb128 0x34
 11377 02ea 00       		.byte	0
 11378 02eb 31       		.uleb128 0x31
 11379 02ec 13       		.uleb128 0x13
 11380 02ed 00       		.byte	0
 11381 02ee 00       		.byte	0
 11382 02ef 36       		.uleb128 0x36
 11383 02f0 0B       		.uleb128 0xb
 11384 02f1 01       		.byte	0x1
 11385 02f2 11       		.uleb128 0x11
 11386 02f3 01       		.uleb128 0x1
 11387 02f4 12       		.uleb128 0x12
 11388 02f5 06       		.uleb128 0x6
 11389 02f6 01       		.uleb128 0x1
 11390 02f7 13       		.uleb128 0x13
 11391 02f8 00       		.byte	0
 11392 02f9 00       		.byte	0
 11393 02fa 37       		.uleb128 0x37
 11394 02fb 34       		.uleb128 0x34
ARM GAS  C:\Users\strap\AppData\Local\Temp\cc7bAV43.s 			page 245


 11395 02fc 00       		.byte	0
 11396 02fd 03       		.uleb128 0x3
 11397 02fe 0E       		.uleb128 0xe
 11398 02ff 3A       		.uleb128 0x3a
 11399 0300 0B       		.uleb128 0xb
 11400 0301 3B       		.uleb128 0x3b
 11401 0302 0B       		.uleb128 0xb
 11402 0303 49       		.uleb128 0x49
 11403 0304 13       		.uleb128 0x13
 11404 0305 00       		.byte	0
 11405 0306 00       		.byte	0
 11406 0307 38       		.uleb128 0x38
 11407 0308 34       		.uleb128 0x34
 11408 0309 00       		.byte	0
 11409 030a 03       		.uleb128 0x3
 11410 030b 0E       		.uleb128 0xe
 11411 030c 3A       		.uleb128 0x3a
 11412 030d 0B       		.uleb128 0xb
 11413 030e 3B       		.uleb128 0x3b
 11414 030f 05       		.uleb128 0x5
 11415 0310 49       		.uleb128 0x49
 11416 0311 13       		.uleb128 0x13
 11417 0312 02       		.uleb128 0x2
 11418 0313 18       		.uleb128 0x18
 11419 0314 00       		.byte	0
 11420 0315 00       		.byte	0
 11421 0316 39       		.uleb128 0x39
 11422 0317 1D       		.uleb128 0x1d
 11423 0318 01       		.byte	0x1
 11424 0319 31       		.uleb128 0x31
 11425 031a 13       		.uleb128 0x13
 11426 031b 52       		.uleb128 0x52
 11427 031c 01       		.uleb128 0x1
 11428 031d 55       		.uleb128 0x55
 11429 031e 17       		.uleb128 0x17
 11430 031f 58       		.uleb128 0x58
 11431 0320 0B       		.uleb128 0xb
 11432 0321 59       		.uleb128 0x59
 11433 0322 05       		.uleb128 0x5
 11434 0323 00       		.byte	0
 11435 0324 00       		.byte	0
 11436 0325 3A       		.uleb128 0x3a
 11437 0326 0B       		.uleb128 0xb
 11438 0327 01       		.byte	0x1
 11439 0328 55       		.uleb128 0x55
 11440 0329 17       		.uleb128 0x17
 11441 032a 00       		.byte	0
 11442 032b 00       		.byte	0
 11443 032c 3B       		.uleb128 0x3b
 11444 032d 1D       		.uleb128 0x1d
 11445 032e 01       		.byte	0x1
 11446 032f 31       		.uleb128 0x31
 11447 0330 13       		.uleb128 0x13
 11448 0331 52       		.uleb128 0x52
 11449 0332 01       		.uleb128 0x1
 11450 0333 55       		.uleb128 0x55
 11451 0334 17       		.uleb128 0x17
ARM GAS  C:\Users\strap\AppData\Local\Temp\cc7bAV43.s 			page 246


 11452 0335 58       		.uleb128 0x58
 11453 0336 0B       		.uleb128 0xb
 11454 0337 59       		.uleb128 0x59
 11455 0338 05       		.uleb128 0x5
 11456 0339 01       		.uleb128 0x1
 11457 033a 13       		.uleb128 0x13
 11458 033b 00       		.byte	0
 11459 033c 00       		.byte	0
 11460 033d 3C       		.uleb128 0x3c
 11461 033e 05       		.uleb128 0x5
 11462 033f 00       		.byte	0
 11463 0340 03       		.uleb128 0x3
 11464 0341 0E       		.uleb128 0xe
 11465 0342 3A       		.uleb128 0x3a
 11466 0343 0B       		.uleb128 0xb
 11467 0344 3B       		.uleb128 0x3b
 11468 0345 05       		.uleb128 0x5
 11469 0346 49       		.uleb128 0x49
 11470 0347 13       		.uleb128 0x13
 11471 0348 02       		.uleb128 0x2
 11472 0349 18       		.uleb128 0x18
 11473 034a 00       		.byte	0
 11474 034b 00       		.byte	0
 11475 034c 3D       		.uleb128 0x3d
 11476 034d 05       		.uleb128 0x5
 11477 034e 00       		.byte	0
 11478 034f 03       		.uleb128 0x3
 11479 0350 08       		.uleb128 0x8
 11480 0351 3A       		.uleb128 0x3a
 11481 0352 0B       		.uleb128 0xb
 11482 0353 3B       		.uleb128 0x3b
 11483 0354 05       		.uleb128 0x5
 11484 0355 49       		.uleb128 0x49
 11485 0356 13       		.uleb128 0x13
 11486 0357 02       		.uleb128 0x2
 11487 0358 17       		.uleb128 0x17
 11488 0359 00       		.byte	0
 11489 035a 00       		.byte	0
 11490 035b 3E       		.uleb128 0x3e
 11491 035c 2E       		.uleb128 0x2e
 11492 035d 00       		.byte	0
 11493 035e 3F       		.uleb128 0x3f
 11494 035f 19       		.uleb128 0x19
 11495 0360 3C       		.uleb128 0x3c
 11496 0361 19       		.uleb128 0x19
 11497 0362 6E       		.uleb128 0x6e
 11498 0363 0E       		.uleb128 0xe
 11499 0364 03       		.uleb128 0x3
 11500 0365 0E       		.uleb128 0xe
 11501 0366 3A       		.uleb128 0x3a
 11502 0367 0B       		.uleb128 0xb
 11503 0368 3B       		.uleb128 0x3b
 11504 0369 0B       		.uleb128 0xb
 11505 036a 00       		.byte	0
 11506 036b 00       		.byte	0
 11507 036c 00       		.byte	0
 11508              		.section	.debug_loc,"",%progbits
ARM GAS  C:\Users\strap\AppData\Local\Temp\cc7bAV43.s 			page 247


 11509              	.Ldebug_loc0:
 11510              	.LLST0:
 11511 0000 00000000 		.4byte	.LVL0
 11512 0004 07000000 		.4byte	.LVL1-1
 11513 0008 0100     		.2byte	0x1
 11514 000a 50       		.byte	0x50
 11515 000b 07000000 		.4byte	.LVL1-1
 11516 000f 0A000000 		.4byte	.LFE328
 11517 0013 0400     		.2byte	0x4
 11518 0015 F3       		.byte	0xf3
 11519 0016 01       		.uleb128 0x1
 11520 0017 50       		.byte	0x50
 11521 0018 9F       		.byte	0x9f
 11522 0019 00000000 		.4byte	0
 11523 001d 00000000 		.4byte	0
 11524              	.LLST1:
 11525 0021 00000000 		.4byte	.LVL2
 11526 0025 07000000 		.4byte	.LVL3-1
 11527 0029 0100     		.2byte	0x1
 11528 002b 50       		.byte	0x50
 11529 002c 07000000 		.4byte	.LVL3-1
 11530 0030 0A000000 		.4byte	.LFE331
 11531 0034 0400     		.2byte	0x4
 11532 0036 F3       		.byte	0xf3
 11533 0037 01       		.uleb128 0x1
 11534 0038 50       		.byte	0x50
 11535 0039 9F       		.byte	0x9f
 11536 003a 00000000 		.4byte	0
 11537 003e 00000000 		.4byte	0
 11538              	.LLST2:
 11539 0042 00000000 		.4byte	.LVL4
 11540 0046 3A000000 		.4byte	.LVL11
 11541 004a 0100     		.2byte	0x1
 11542 004c 50       		.byte	0x50
 11543 004d 3A000000 		.4byte	.LVL11
 11544 0051 50000000 		.4byte	.LVL13
 11545 0055 0100     		.2byte	0x1
 11546 0057 54       		.byte	0x54
 11547 0058 50000000 		.4byte	.LVL13
 11548 005c 52000000 		.4byte	.LVL14
 11549 0060 0100     		.2byte	0x1
 11550 0062 50       		.byte	0x50
 11551 0063 52000000 		.4byte	.LVL14
 11552 0067 AA000000 		.4byte	.LVL25
 11553 006b 0100     		.2byte	0x1
 11554 006d 54       		.byte	0x54
 11555 006e AA000000 		.4byte	.LVL25
 11556 0072 B0000000 		.4byte	.LFE334
 11557 0076 0400     		.2byte	0x4
 11558 0078 F3       		.byte	0xf3
 11559 0079 01       		.uleb128 0x1
 11560 007a 50       		.byte	0x50
 11561 007b 9F       		.byte	0x9f
 11562 007c 00000000 		.4byte	0
 11563 0080 00000000 		.4byte	0
 11564              	.LLST3:
 11565 0084 00000000 		.4byte	.LVL4
ARM GAS  C:\Users\strap\AppData\Local\Temp\cc7bAV43.s 			page 248


 11566 0088 3D000000 		.4byte	.LVL12-1
 11567 008c 0100     		.2byte	0x1
 11568 008e 51       		.byte	0x51
 11569 008f 3D000000 		.4byte	.LVL12-1
 11570 0093 50000000 		.4byte	.LVL13
 11571 0097 0100     		.2byte	0x1
 11572 0099 55       		.byte	0x55
 11573 009a 50000000 		.4byte	.LVL13
 11574 009e 57000000 		.4byte	.LVL15-1
 11575 00a2 0100     		.2byte	0x1
 11576 00a4 51       		.byte	0x51
 11577 00a5 57000000 		.4byte	.LVL15-1
 11578 00a9 AA000000 		.4byte	.LVL25
 11579 00ad 0100     		.2byte	0x1
 11580 00af 55       		.byte	0x55
 11581 00b0 AA000000 		.4byte	.LVL25
 11582 00b4 B0000000 		.4byte	.LFE334
 11583 00b8 0400     		.2byte	0x4
 11584 00ba F3       		.byte	0xf3
 11585 00bb 01       		.uleb128 0x1
 11586 00bc 51       		.byte	0x51
 11587 00bd 9F       		.byte	0x9f
 11588 00be 00000000 		.4byte	0
 11589 00c2 00000000 		.4byte	0
 11590              	.LLST4:
 11591 00c6 0E000000 		.4byte	.LVL5
 11592 00ca 1A000000 		.4byte	.LVL6
 11593 00ce 0100     		.2byte	0x1
 11594 00d0 53       		.byte	0x53
 11595 00d1 1C000000 		.4byte	.LVL7
 11596 00d5 28000000 		.4byte	.LVL8
 11597 00d9 0100     		.2byte	0x1
 11598 00db 53       		.byte	0x53
 11599 00dc 2A000000 		.4byte	.LVL9
 11600 00e0 2C000000 		.4byte	.LVL10
 11601 00e4 0100     		.2byte	0x1
 11602 00e6 53       		.byte	0x53
 11603 00e7 74000000 		.4byte	.LVL19
 11604 00eb 88000000 		.4byte	.LVL22
 11605 00ef 0100     		.2byte	0x1
 11606 00f1 53       		.byte	0x53
 11607 00f2 8A000000 		.4byte	.LVL23
 11608 00f6 99000000 		.4byte	.LVL24-1
 11609 00fa 0100     		.2byte	0x1
 11610 00fc 53       		.byte	0x53
 11611 00fd 00000000 		.4byte	0
 11612 0101 00000000 		.4byte	0
 11613              	.LLST5:
 11614 0105 2C000000 		.4byte	.LVL10
 11615 0109 3D000000 		.4byte	.LVL12-1
 11616 010d 0100     		.2byte	0x1
 11617 010f 53       		.byte	0x53
 11618 0110 50000000 		.4byte	.LVL13
 11619 0114 57000000 		.4byte	.LVL15-1
 11620 0118 0100     		.2byte	0x1
 11621 011a 53       		.byte	0x53
 11622 011b 00000000 		.4byte	0
ARM GAS  C:\Users\strap\AppData\Local\Temp\cc7bAV43.s 			page 249


 11623 011f 00000000 		.4byte	0
 11624              	.LLST6:
 11625 0123 5A000000 		.4byte	.LVL16
 11626 0127 5D000000 		.4byte	.LVL17-1
 11627 012b 0100     		.2byte	0x1
 11628 012d 50       		.byte	0x50
 11629 012e 5D000000 		.4byte	.LVL17-1
 11630 0132 AA000000 		.4byte	.LVL25
 11631 0136 0100     		.2byte	0x1
 11632 0138 56       		.byte	0x56
 11633 0139 00000000 		.4byte	0
 11634 013d 00000000 		.4byte	0
 11635              	.LLST7:
 11636 0141 74000000 		.4byte	.LVL19
 11637 0145 84000000 		.4byte	.LVL20
 11638 0149 0100     		.2byte	0x1
 11639 014b 51       		.byte	0x51
 11640 014c 86000000 		.4byte	.LVL21
 11641 0150 99000000 		.4byte	.LVL24-1
 11642 0154 0100     		.2byte	0x1
 11643 0156 51       		.byte	0x51
 11644 0157 00000000 		.4byte	0
 11645 015b 00000000 		.4byte	0
 11646              	.LLST8:
 11647 015f 00000000 		.4byte	.LVL26
 11648 0163 0D000000 		.4byte	.LVL27-1
 11649 0167 0100     		.2byte	0x1
 11650 0169 50       		.byte	0x50
 11651 016a 0D000000 		.4byte	.LVL27-1
 11652 016e 94000000 		.4byte	.LVL45
 11653 0172 0100     		.2byte	0x1
 11654 0174 54       		.byte	0x54
 11655 0175 94000000 		.4byte	.LVL45
 11656 0179 9C000000 		.4byte	.LFE333
 11657 017d 0100     		.2byte	0x1
 11658 017f 50       		.byte	0x50
 11659 0180 00000000 		.4byte	0
 11660 0184 00000000 		.4byte	0
 11661              	.LLST9:
 11662 0188 00000000 		.4byte	.LVL26
 11663 018c 0D000000 		.4byte	.LVL27-1
 11664 0190 0100     		.2byte	0x1
 11665 0192 51       		.byte	0x51
 11666 0193 0D000000 		.4byte	.LVL27-1
 11667 0197 94000000 		.4byte	.LVL45
 11668 019b 0100     		.2byte	0x1
 11669 019d 56       		.byte	0x56
 11670 019e 94000000 		.4byte	.LVL45
 11671 01a2 9C000000 		.4byte	.LFE333
 11672 01a6 0100     		.2byte	0x1
 11673 01a8 51       		.byte	0x51
 11674 01a9 00000000 		.4byte	0
 11675 01ad 00000000 		.4byte	0
 11676              	.LLST10:
 11677 01b1 1E000000 		.4byte	.LVL29
 11678 01b5 20000000 		.4byte	.LVL30
 11679 01b9 0100     		.2byte	0x1
ARM GAS  C:\Users\strap\AppData\Local\Temp\cc7bAV43.s 			page 250


 11680 01bb 50       		.byte	0x50
 11681 01bc 32000000 		.4byte	.LVL32
 11682 01c0 37000000 		.4byte	.LVL33-1
 11683 01c4 0100     		.2byte	0x1
 11684 01c6 50       		.byte	0x50
 11685 01c7 37000000 		.4byte	.LVL33-1
 11686 01cb 94000000 		.4byte	.LVL45
 11687 01cf 0100     		.2byte	0x1
 11688 01d1 55       		.byte	0x55
 11689 01d2 00000000 		.4byte	0
 11690 01d6 00000000 		.4byte	0
 11691              	.LLST11:
 11692 01da 66000000 		.4byte	.LVL39
 11693 01de 68000000 		.4byte	.LVL40
 11694 01e2 0E00     		.2byte	0xe
 11695 01e4 74       		.byte	0x74
 11696 01e5 04       		.sleb128 4
 11697 01e6 94       		.byte	0x94
 11698 01e7 01       		.byte	0x1
 11699 01e8 08       		.byte	0x8
 11700 01e9 FF       		.byte	0xff
 11701 01ea 1A       		.byte	0x1a
 11702 01eb 09       		.byte	0x9
 11703 01ec FE       		.byte	0xfe
 11704 01ed 24       		.byte	0x24
 11705 01ee 09       		.byte	0x9
 11706 01ef FE       		.byte	0xfe
 11707 01f0 25       		.byte	0x25
 11708 01f1 9F       		.byte	0x9f
 11709 01f2 68000000 		.4byte	.LVL40
 11710 01f6 78000000 		.4byte	.LVL41
 11711 01fa 0100     		.2byte	0x1
 11712 01fc 53       		.byte	0x53
 11713 01fd 7A000000 		.4byte	.LVL42
 11714 0201 84000000 		.4byte	.LVL43
 11715 0205 0100     		.2byte	0x1
 11716 0207 53       		.byte	0x53
 11717 0208 00000000 		.4byte	0
 11718 020c 00000000 		.4byte	0
 11719              	.LLST12:
 11720 0210 48000000 		.4byte	.LVL35
 11721 0214 56000000 		.4byte	.LVL36
 11722 0218 0200     		.2byte	0x2
 11723 021a 30       		.byte	0x30
 11724 021b 9F       		.byte	0x9f
 11725 021c 56000000 		.4byte	.LVL36
 11726 0220 5E000000 		.4byte	.LVL37
 11727 0224 0100     		.2byte	0x1
 11728 0226 52       		.byte	0x52
 11729 0227 60000000 		.4byte	.LVL38
 11730 022b 88000000 		.4byte	.LVL44
 11731 022f 0100     		.2byte	0x1
 11732 0231 52       		.byte	0x52
 11733 0232 00000000 		.4byte	0
 11734 0236 00000000 		.4byte	0
 11735              	.LLST13:
 11736 023a 00000000 		.4byte	.LVL46
ARM GAS  C:\Users\strap\AppData\Local\Temp\cc7bAV43.s 			page 251


 11737 023e 32000000 		.4byte	.LVL50
 11738 0242 0100     		.2byte	0x1
 11739 0244 50       		.byte	0x50
 11740 0245 32000000 		.4byte	.LVL50
 11741 0249 34000000 		.4byte	.LVL51
 11742 024d 0400     		.2byte	0x4
 11743 024f F3       		.byte	0xf3
 11744 0250 01       		.uleb128 0x1
 11745 0251 50       		.byte	0x50
 11746 0252 9F       		.byte	0x9f
 11747 0253 34000000 		.4byte	.LVL51
 11748 0257 36000000 		.4byte	.LVL52
 11749 025b 0100     		.2byte	0x1
 11750 025d 50       		.byte	0x50
 11751 025e 36000000 		.4byte	.LVL52
 11752 0262 38000000 		.4byte	.LVL53
 11753 0266 0400     		.2byte	0x4
 11754 0268 F3       		.byte	0xf3
 11755 0269 01       		.uleb128 0x1
 11756 026a 50       		.byte	0x50
 11757 026b 9F       		.byte	0x9f
 11758 026c 38000000 		.4byte	.LVL53
 11759 0270 3A000000 		.4byte	.LVL54
 11760 0274 0100     		.2byte	0x1
 11761 0276 50       		.byte	0x50
 11762 0277 3A000000 		.4byte	.LVL54
 11763 027b 3C000000 		.4byte	.LVL55
 11764 027f 0400     		.2byte	0x4
 11765 0281 F3       		.byte	0xf3
 11766 0282 01       		.uleb128 0x1
 11767 0283 50       		.byte	0x50
 11768 0284 9F       		.byte	0x9f
 11769 0285 3C000000 		.4byte	.LVL55
 11770 0289 40000000 		.4byte	.LVL56
 11771 028d 0100     		.2byte	0x1
 11772 028f 50       		.byte	0x50
 11773 0290 40000000 		.4byte	.LVL56
 11774 0294 78000000 		.4byte	.LVL64
 11775 0298 0100     		.2byte	0x1
 11776 029a 55       		.byte	0x55
 11777 029b 78000000 		.4byte	.LVL64
 11778 029f 7C000000 		.4byte	.LFE360
 11779 02a3 0400     		.2byte	0x4
 11780 02a5 F3       		.byte	0xf3
 11781 02a6 01       		.uleb128 0x1
 11782 02a7 50       		.byte	0x50
 11783 02a8 9F       		.byte	0x9f
 11784 02a9 00000000 		.4byte	0
 11785 02ad 00000000 		.4byte	0
 11786              	.LLST14:
 11787 02b1 46000000 		.4byte	.LVL58
 11788 02b5 49000000 		.4byte	.LVL59-1
 11789 02b9 0100     		.2byte	0x1
 11790 02bb 50       		.byte	0x50
 11791 02bc 49000000 		.4byte	.LVL59-1
 11792 02c0 78000000 		.4byte	.LVL64
 11793 02c4 0100     		.2byte	0x1
ARM GAS  C:\Users\strap\AppData\Local\Temp\cc7bAV43.s 			page 252


 11794 02c6 54       		.byte	0x54
 11795 02c7 00000000 		.4byte	0
 11796 02cb 00000000 		.4byte	0
 11797              	.LLST15:
 11798 02cf 0C000000 		.4byte	.LVL47
 11799 02d3 1A000000 		.4byte	.LVL48
 11800 02d7 0100     		.2byte	0x1
 11801 02d9 53       		.byte	0x53
 11802 02da 1A000000 		.4byte	.LVL48
 11803 02de 1C000000 		.4byte	.LVL49
 11804 02e2 0300     		.2byte	0x3
 11805 02e4 73       		.byte	0x73
 11806 02e5 7F       		.sleb128 -1
 11807 02e6 9F       		.byte	0x9f
 11808 02e7 1C000000 		.4byte	.LVL49
 11809 02eb 3A000000 		.4byte	.LVL54
 11810 02ef 0100     		.2byte	0x1
 11811 02f1 53       		.byte	0x53
 11812 02f2 00000000 		.4byte	0
 11813 02f6 00000000 		.4byte	0
 11814              	.LLST16:
 11815 02fa 0C000000 		.4byte	.LVL47
 11816 02fe 32000000 		.4byte	.LVL50
 11817 0302 0100     		.2byte	0x1
 11818 0304 50       		.byte	0x50
 11819 0305 32000000 		.4byte	.LVL50
 11820 0309 34000000 		.4byte	.LVL51
 11821 030d 0400     		.2byte	0x4
 11822 030f F3       		.byte	0xf3
 11823 0310 01       		.uleb128 0x1
 11824 0311 50       		.byte	0x50
 11825 0312 9F       		.byte	0x9f
 11826 0313 34000000 		.4byte	.LVL51
 11827 0317 36000000 		.4byte	.LVL52
 11828 031b 0100     		.2byte	0x1
 11829 031d 50       		.byte	0x50
 11830 031e 36000000 		.4byte	.LVL52
 11831 0322 38000000 		.4byte	.LVL53
 11832 0326 0400     		.2byte	0x4
 11833 0328 F3       		.byte	0xf3
 11834 0329 01       		.uleb128 0x1
 11835 032a 50       		.byte	0x50
 11836 032b 9F       		.byte	0x9f
 11837 032c 38000000 		.4byte	.LVL53
 11838 0330 3A000000 		.4byte	.LVL54
 11839 0334 0100     		.2byte	0x1
 11840 0336 50       		.byte	0x50
 11841 0337 00000000 		.4byte	0
 11842 033b 00000000 		.4byte	0
 11843              	.LLST17:
 11844 033f 00000000 		.4byte	.LVL65
 11845 0343 06000000 		.4byte	.LVL66
 11846 0347 0100     		.2byte	0x1
 11847 0349 50       		.byte	0x50
 11848 034a 06000000 		.4byte	.LVL66
 11849 034e 10000000 		.4byte	.LFE336
 11850 0352 0100     		.2byte	0x1
ARM GAS  C:\Users\strap\AppData\Local\Temp\cc7bAV43.s 			page 253


 11851 0354 54       		.byte	0x54
 11852 0355 00000000 		.4byte	0
 11853 0359 00000000 		.4byte	0
 11854              	.LLST18:
 11855 035d 00000000 		.4byte	.LVL68
 11856 0361 42000000 		.4byte	.LVL81
 11857 0365 0100     		.2byte	0x1
 11858 0367 50       		.byte	0x50
 11859 0368 42000000 		.4byte	.LVL81
 11860 036c 46000000 		.4byte	.LVL82
 11861 0370 0400     		.2byte	0x4
 11862 0372 F3       		.byte	0xf3
 11863 0373 01       		.uleb128 0x1
 11864 0374 50       		.byte	0x50
 11865 0375 9F       		.byte	0x9f
 11866 0376 46000000 		.4byte	.LVL82
 11867 037a 48000000 		.4byte	.LVL83
 11868 037e 0100     		.2byte	0x1
 11869 0380 50       		.byte	0x50
 11870 0381 48000000 		.4byte	.LVL83
 11871 0385 4E000000 		.4byte	.LFE337
 11872 0389 0400     		.2byte	0x4
 11873 038b F3       		.byte	0xf3
 11874 038c 01       		.uleb128 0x1
 11875 038d 50       		.byte	0x50
 11876 038e 9F       		.byte	0x9f
 11877 038f 00000000 		.4byte	0
 11878 0393 00000000 		.4byte	0
 11879              	.LLST19:
 11880 0397 0A000000 		.4byte	.LVL69
 11881 039b 46000000 		.4byte	.LVL82
 11882 039f 0100     		.2byte	0x1
 11883 03a1 52       		.byte	0x52
 11884 03a2 4A000000 		.4byte	.LVL84
 11885 03a6 4E000000 		.4byte	.LFE337
 11886 03aa 0100     		.2byte	0x1
 11887 03ac 52       		.byte	0x52
 11888 03ad 00000000 		.4byte	0
 11889 03b1 00000000 		.4byte	0
 11890              	.LLST20:
 11891 03b5 0A000000 		.4byte	.LVL69
 11892 03b9 2A000000 		.4byte	.LVL78
 11893 03bd 0100     		.2byte	0x1
 11894 03bf 52       		.byte	0x52
 11895 03c0 00000000 		.4byte	0
 11896 03c4 00000000 		.4byte	0
 11897              	.LLST21:
 11898 03c8 0E000000 		.4byte	.LVL70
 11899 03cc 1C000000 		.4byte	.LVL71
 11900 03d0 0100     		.2byte	0x1
 11901 03d2 53       		.byte	0x53
 11902 03d3 1C000000 		.4byte	.LVL71
 11903 03d7 1E000000 		.4byte	.LVL72
 11904 03db 0500     		.2byte	0x5
 11905 03dd 71       		.byte	0x71
 11906 03de 00       		.sleb128 0
 11907 03df 3F       		.byte	0x3f
ARM GAS  C:\Users\strap\AppData\Local\Temp\cc7bAV43.s 			page 254


 11908 03e0 1A       		.byte	0x1a
 11909 03e1 9F       		.byte	0x9f
 11910 03e2 1E000000 		.4byte	.LVL72
 11911 03e6 20000000 		.4byte	.LVL73
 11912 03ea 0100     		.2byte	0x1
 11913 03ec 53       		.byte	0x53
 11914 03ed 20000000 		.4byte	.LVL73
 11915 03f1 22000000 		.4byte	.LVL74
 11916 03f5 0500     		.2byte	0x5
 11917 03f7 71       		.byte	0x71
 11918 03f8 00       		.sleb128 0
 11919 03f9 3F       		.byte	0x3f
 11920 03fa 1A       		.byte	0x1a
 11921 03fb 9F       		.byte	0x9f
 11922 03fc 22000000 		.4byte	.LVL74
 11923 0400 24000000 		.4byte	.LVL75
 11924 0404 0100     		.2byte	0x1
 11925 0406 53       		.byte	0x53
 11926 0407 24000000 		.4byte	.LVL75
 11927 040b 26000000 		.4byte	.LVL76
 11928 040f 0500     		.2byte	0x5
 11929 0411 71       		.byte	0x71
 11930 0412 00       		.sleb128 0
 11931 0413 3F       		.byte	0x3f
 11932 0414 1A       		.byte	0x1a
 11933 0415 9F       		.byte	0x9f
 11934 0416 26000000 		.4byte	.LVL76
 11935 041a 28000000 		.4byte	.LVL77
 11936 041e 0100     		.2byte	0x1
 11937 0420 53       		.byte	0x53
 11938 0421 00000000 		.4byte	0
 11939 0425 00000000 		.4byte	0
 11940              	.LLST22:
 11941 0429 0E000000 		.4byte	.LVL70
 11942 042d 28000000 		.4byte	.LVL77
 11943 0431 0200     		.2byte	0x2
 11944 0433 32       		.byte	0x32
 11945 0434 9F       		.byte	0x9f
 11946 0435 00000000 		.4byte	0
 11947 0439 00000000 		.4byte	0
 11948              	.LLST23:
 11949 043d 2A000000 		.4byte	.LVL78
 11950 0441 3C000000 		.4byte	.LVL80
 11951 0445 0100     		.2byte	0x1
 11952 0447 52       		.byte	0x52
 11953 0448 00000000 		.4byte	0
 11954 044c 00000000 		.4byte	0
 11955              	.LLST24:
 11956 0450 2A000000 		.4byte	.LVL78
 11957 0454 3C000000 		.4byte	.LVL80
 11958 0458 0100     		.2byte	0x1
 11959 045a 50       		.byte	0x50
 11960 045b 00000000 		.4byte	0
 11961 045f 00000000 		.4byte	0
 11962              	.LLST25:
 11963 0463 2A000000 		.4byte	.LVL78
 11964 0467 3A000000 		.4byte	.LVL79
ARM GAS  C:\Users\strap\AppData\Local\Temp\cc7bAV43.s 			page 255


 11965 046b 0100     		.2byte	0x1
 11966 046d 52       		.byte	0x52
 11967 046e 00000000 		.4byte	0
 11968 0472 00000000 		.4byte	0
 11969              	.LLST26:
 11970 0476 2A000000 		.4byte	.LVL78
 11971 047a 3A000000 		.4byte	.LVL79
 11972 047e 0100     		.2byte	0x1
 11973 0480 50       		.byte	0x50
 11974 0481 00000000 		.4byte	0
 11975 0485 00000000 		.4byte	0
 11976              	.LLST27:
 11977 0489 0A000000 		.4byte	.LVL69
 11978 048d 46000000 		.4byte	.LVL82
 11979 0491 0300     		.2byte	0x3
 11980 0493 91       		.byte	0x91
 11981 0494 7E       		.sleb128 -2
 11982 0495 9F       		.byte	0x9f
 11983 0496 4A000000 		.4byte	.LVL84
 11984 049a 4C000000 		.4byte	.LVL85
 11985 049e 0300     		.2byte	0x3
 11986 04a0 91       		.byte	0x91
 11987 04a1 7E       		.sleb128 -2
 11988 04a2 9F       		.byte	0x9f
 11989 04a3 4C000000 		.4byte	.LVL85
 11990 04a7 4E000000 		.4byte	.LFE337
 11991 04ab 0300     		.2byte	0x3
 11992 04ad 7D       		.byte	0x7d
 11993 04ae 7E       		.sleb128 -2
 11994 04af 9F       		.byte	0x9f
 11995 04b0 00000000 		.4byte	0
 11996 04b4 00000000 		.4byte	0
 11997              	.LLST28:
 11998 04b8 00000000 		.4byte	.LVL86
 11999 04bc 0E000000 		.4byte	.LVL87
 12000 04c0 0100     		.2byte	0x1
 12001 04c2 50       		.byte	0x50
 12002 04c3 0E000000 		.4byte	.LVL87
 12003 04c7 24000000 		.4byte	.LVL92
 12004 04cb 0100     		.2byte	0x1
 12005 04cd 55       		.byte	0x55
 12006 04ce 24000000 		.4byte	.LVL92
 12007 04d2 26000000 		.4byte	.LFE329
 12008 04d6 0100     		.2byte	0x1
 12009 04d8 50       		.byte	0x50
 12010 04d9 00000000 		.4byte	0
 12011 04dd 00000000 		.4byte	0
 12012              	.LLST29:
 12013 04e1 00000000 		.4byte	.LVL86
 12014 04e5 11000000 		.4byte	.LVL88-1
 12015 04e9 0100     		.2byte	0x1
 12016 04eb 51       		.byte	0x51
 12017 04ec 11000000 		.4byte	.LVL88-1
 12018 04f0 24000000 		.4byte	.LVL92
 12019 04f4 0100     		.2byte	0x1
 12020 04f6 54       		.byte	0x54
 12021 04f7 24000000 		.4byte	.LVL92
ARM GAS  C:\Users\strap\AppData\Local\Temp\cc7bAV43.s 			page 256


 12022 04fb 26000000 		.4byte	.LFE329
 12023 04ff 0100     		.2byte	0x1
 12024 0501 51       		.byte	0x51
 12025 0502 00000000 		.4byte	0
 12026 0506 00000000 		.4byte	0
 12027              	.LLST30:
 12028 050a 14000000 		.4byte	.LVL89
 12029 050e 24000000 		.4byte	.LVL92
 12030 0512 0100     		.2byte	0x1
 12031 0514 56       		.byte	0x56
 12032 0515 00000000 		.4byte	0
 12033 0519 00000000 		.4byte	0
 12034              	.LLST31:
 12035 051d 00000000 		.4byte	.LVL93
 12036 0521 22000000 		.4byte	.LVL97
 12037 0525 0100     		.2byte	0x1
 12038 0527 50       		.byte	0x50
 12039 0528 22000000 		.4byte	.LVL97
 12040 052c A0000000 		.4byte	.LVL116
 12041 0530 0100     		.2byte	0x1
 12042 0532 54       		.byte	0x54
 12043 0533 A0000000 		.4byte	.LVL116
 12044 0537 A4000000 		.4byte	.LVL117
 12045 053b 0100     		.2byte	0x1
 12046 053d 50       		.byte	0x50
 12047 053e A4000000 		.4byte	.LVL117
 12048 0542 10010000 		.4byte	.LVL137
 12049 0546 0100     		.2byte	0x1
 12050 0548 54       		.byte	0x54
 12051 0549 10010000 		.4byte	.LVL137
 12052 054d 12010000 		.4byte	.LVL138
 12053 0551 0100     		.2byte	0x1
 12054 0553 50       		.byte	0x50
 12055 0554 12010000 		.4byte	.LVL138
 12056 0558 14010000 		.4byte	.LVL139
 12057 055c 0400     		.2byte	0x4
 12058 055e F3       		.byte	0xf3
 12059 055f 01       		.uleb128 0x1
 12060 0560 50       		.byte	0x50
 12061 0561 9F       		.byte	0x9f
 12062 0562 14010000 		.4byte	.LVL139
 12063 0566 20010000 		.4byte	.LFE330
 12064 056a 0100     		.2byte	0x1
 12065 056c 54       		.byte	0x54
 12066 056d 00000000 		.4byte	0
 12067 0571 00000000 		.4byte	0
 12068              	.LLST32:
 12069 0575 00000000 		.4byte	.LVL93
 12070 0579 D1000000 		.4byte	.LVL122-1
 12071 057d 0100     		.2byte	0x1
 12072 057f 51       		.byte	0x51
 12073 0580 D1000000 		.4byte	.LVL122-1
 12074 0584 10010000 		.4byte	.LVL137
 12075 0588 0400     		.2byte	0x4
 12076 058a F3       		.byte	0xf3
 12077 058b 01       		.uleb128 0x1
 12078 058c 51       		.byte	0x51
ARM GAS  C:\Users\strap\AppData\Local\Temp\cc7bAV43.s 			page 257


 12079 058d 9F       		.byte	0x9f
 12080 058e 10010000 		.4byte	.LVL137
 12081 0592 1A010000 		.4byte	.LVL141
 12082 0596 0100     		.2byte	0x1
 12083 0598 51       		.byte	0x51
 12084 0599 1A010000 		.4byte	.LVL141
 12085 059d 20010000 		.4byte	.LFE330
 12086 05a1 0400     		.2byte	0x4
 12087 05a3 F3       		.byte	0xf3
 12088 05a4 01       		.uleb128 0x1
 12089 05a5 51       		.byte	0x51
 12090 05a6 9F       		.byte	0x9f
 12091 05a7 00000000 		.4byte	0
 12092 05ab 00000000 		.4byte	0
 12093              	.LLST33:
 12094 05af 0E000000 		.4byte	.LVL94
 12095 05b3 A4000000 		.4byte	.LVL117
 12096 05b7 0100     		.2byte	0x1
 12097 05b9 51       		.byte	0x51
 12098 05ba 00000000 		.4byte	0
 12099 05be 00000000 		.4byte	0
 12100              	.LLST34:
 12101 05c2 0E000000 		.4byte	.LVL94
 12102 05c6 22000000 		.4byte	.LVL97
 12103 05ca 0100     		.2byte	0x1
 12104 05cc 50       		.byte	0x50
 12105 05cd 22000000 		.4byte	.LVL97
 12106 05d1 A0000000 		.4byte	.LVL116
 12107 05d5 0100     		.2byte	0x1
 12108 05d7 54       		.byte	0x54
 12109 05d8 A0000000 		.4byte	.LVL116
 12110 05dc A4000000 		.4byte	.LVL117
 12111 05e0 0100     		.2byte	0x1
 12112 05e2 50       		.byte	0x50
 12113 05e3 00000000 		.4byte	0
 12114 05e7 00000000 		.4byte	0
 12115              	.LLST35:
 12116 05eb 16000000 		.4byte	.LVL95
 12117 05ef A0000000 		.4byte	.LVL116
 12118 05f3 0100     		.2byte	0x1
 12119 05f5 55       		.byte	0x55
 12120 05f6 00000000 		.4byte	0
 12121 05fa 00000000 		.4byte	0
 12122              	.LLST36:
 12123 05fe 18000000 		.4byte	.LVL96
 12124 0602 A0000000 		.4byte	.LVL116
 12125 0606 0100     		.2byte	0x1
 12126 0608 56       		.byte	0x56
 12127 0609 00000000 		.4byte	0
 12128 060d 00000000 		.4byte	0
 12129              	.LLST37:
 12130 0611 18000000 		.4byte	.LVL96
 12131 0615 22000000 		.4byte	.LVL97
 12132 0619 0300     		.2byte	0x3
 12133 061b 09       		.byte	0x9
 12134 061c FF       		.byte	0xff
 12135 061d 9F       		.byte	0x9f
ARM GAS  C:\Users\strap\AppData\Local\Temp\cc7bAV43.s 			page 258


 12136 061e 22000000 		.4byte	.LVL97
 12137 0622 A0000000 		.4byte	.LVL116
 12138 0626 0100     		.2byte	0x1
 12139 0628 5E       		.byte	0x5e
 12140 0629 00000000 		.4byte	0
 12141 062d 00000000 		.4byte	0
 12142              	.LLST38:
 12143 0631 18000000 		.4byte	.LVL96
 12144 0635 22000000 		.4byte	.LVL97
 12145 0639 0300     		.2byte	0x3
 12146 063b 09       		.byte	0x9
 12147 063c FF       		.byte	0xff
 12148 063d 9F       		.byte	0x9f
 12149 063e 22000000 		.4byte	.LVL97
 12150 0642 4C000000 		.4byte	.LVL101
 12151 0646 0100     		.2byte	0x1
 12152 0648 57       		.byte	0x57
 12153 0649 4E000000 		.4byte	.LVL102
 12154 064d A0000000 		.4byte	.LVL116
 12155 0651 0100     		.2byte	0x1
 12156 0653 57       		.byte	0x57
 12157 0654 00000000 		.4byte	0
 12158 0658 00000000 		.4byte	0
 12159              	.LLST39:
 12160 065c 18000000 		.4byte	.LVL96
 12161 0660 22000000 		.4byte	.LVL97
 12162 0664 0200     		.2byte	0x2
 12163 0666 30       		.byte	0x30
 12164 0667 9F       		.byte	0x9f
 12165 0668 22000000 		.4byte	.LVL97
 12166 066c A0000000 		.4byte	.LVL116
 12167 0670 0100     		.2byte	0x1
 12168 0672 52       		.byte	0x52
 12169 0673 00000000 		.4byte	0
 12170 0677 00000000 		.4byte	0
 12171              	.LLST40:
 12172 067b 26000000 		.4byte	.LVL98
 12173 067f 40000000 		.4byte	.LVL100
 12174 0683 0100     		.2byte	0x1
 12175 0685 52       		.byte	0x52
 12176 0686 00000000 		.4byte	0
 12177 068a 00000000 		.4byte	0
 12178              	.LLST41:
 12179 068e 26000000 		.4byte	.LVL98
 12180 0692 40000000 		.4byte	.LVL100
 12181 0696 0100     		.2byte	0x1
 12182 0698 54       		.byte	0x54
 12183 0699 00000000 		.4byte	0
 12184 069d 00000000 		.4byte	0
 12185              	.LLST42:
 12186 06a1 26000000 		.4byte	.LVL98
 12187 06a5 3E000000 		.4byte	.LVL99
 12188 06a9 0100     		.2byte	0x1
 12189 06ab 52       		.byte	0x52
 12190 06ac 00000000 		.4byte	0
 12191 06b0 00000000 		.4byte	0
 12192              	.LLST43:
ARM GAS  C:\Users\strap\AppData\Local\Temp\cc7bAV43.s 			page 259


 12193 06b4 26000000 		.4byte	.LVL98
 12194 06b8 3E000000 		.4byte	.LVL99
 12195 06bc 0100     		.2byte	0x1
 12196 06be 54       		.byte	0x54
 12197 06bf 00000000 		.4byte	0
 12198 06c3 00000000 		.4byte	0
 12199              	.LLST44:
 12200 06c7 26000000 		.4byte	.LVL98
 12201 06cb 66000000 		.4byte	.LVL104
 12202 06cf 0300     		.2byte	0x3
 12203 06d1 91       		.byte	0x91
 12204 06d2 66       		.sleb128 -26
 12205 06d3 9F       		.byte	0x9f
 12206 06d4 00000000 		.4byte	0
 12207 06d8 00000000 		.4byte	0
 12208              	.LLST45:
 12209 06dc 66000000 		.4byte	.LVL104
 12210 06e0 86000000 		.4byte	.LVL113
 12211 06e4 0100     		.2byte	0x1
 12212 06e6 52       		.byte	0x52
 12213 06e7 00000000 		.4byte	0
 12214 06eb 00000000 		.4byte	0
 12215              	.LLST46:
 12216 06ef 6A000000 		.4byte	.LVL105
 12217 06f3 78000000 		.4byte	.LVL106
 12218 06f7 0100     		.2byte	0x1
 12219 06f9 53       		.byte	0x53
 12220 06fa 7A000000 		.4byte	.LVL107
 12221 06fe 7C000000 		.4byte	.LVL108
 12222 0702 0100     		.2byte	0x1
 12223 0704 53       		.byte	0x53
 12224 0705 7E000000 		.4byte	.LVL109
 12225 0709 80000000 		.4byte	.LVL110
 12226 070d 0100     		.2byte	0x1
 12227 070f 53       		.byte	0x53
 12228 0710 82000000 		.4byte	.LVL111
 12229 0714 84000000 		.4byte	.LVL112
 12230 0718 0100     		.2byte	0x1
 12231 071a 53       		.byte	0x53
 12232 071b 00000000 		.4byte	0
 12233 071f 00000000 		.4byte	0
 12234              	.LLST47:
 12235 0723 6A000000 		.4byte	.LVL105
 12236 0727 84000000 		.4byte	.LVL112
 12237 072b 0200     		.2byte	0x2
 12238 072d 32       		.byte	0x32
 12239 072e 9F       		.byte	0x9f
 12240 072f 00000000 		.4byte	0
 12241 0733 00000000 		.4byte	0
 12242              	.LLST48:
 12243 0737 86000000 		.4byte	.LVL113
 12244 073b 9A000000 		.4byte	.LVL115
 12245 073f 0100     		.2byte	0x1
 12246 0741 52       		.byte	0x52
 12247 0742 00000000 		.4byte	0
 12248 0746 00000000 		.4byte	0
 12249              	.LLST49:
ARM GAS  C:\Users\strap\AppData\Local\Temp\cc7bAV43.s 			page 260


 12250 074a 86000000 		.4byte	.LVL113
 12251 074e 9A000000 		.4byte	.LVL115
 12252 0752 0100     		.2byte	0x1
 12253 0754 54       		.byte	0x54
 12254 0755 00000000 		.4byte	0
 12255 0759 00000000 		.4byte	0
 12256              	.LLST50:
 12257 075d 86000000 		.4byte	.LVL113
 12258 0761 96000000 		.4byte	.LVL114
 12259 0765 0100     		.2byte	0x1
 12260 0767 52       		.byte	0x52
 12261 0768 00000000 		.4byte	0
 12262 076c 00000000 		.4byte	0
 12263              	.LLST51:
 12264 0770 86000000 		.4byte	.LVL113
 12265 0774 96000000 		.4byte	.LVL114
 12266 0778 0100     		.2byte	0x1
 12267 077a 54       		.byte	0x54
 12268 077b 00000000 		.4byte	0
 12269 077f 00000000 		.4byte	0
 12270              	.LLST52:
 12271 0783 22000000 		.4byte	.LVL97
 12272 0787 A0000000 		.4byte	.LVL116
 12273 078b 0300     		.2byte	0x3
 12274 078d 91       		.byte	0x91
 12275 078e 66       		.sleb128 -26
 12276 078f 9F       		.byte	0x9f
 12277 0790 00000000 		.4byte	0
 12278 0794 00000000 		.4byte	0
 12279              	.LLST53:
 12280 0798 C0000000 		.4byte	.LVL120
 12281 079c C4000000 		.4byte	.LVL121
 12282 07a0 0100     		.2byte	0x1
 12283 07a2 53       		.byte	0x53
 12284 07a3 C4000000 		.4byte	.LVL121
 12285 07a7 D1000000 		.4byte	.LVL122-1
 12286 07ab 0500     		.2byte	0x5
 12287 07ad 71       		.byte	0x71
 12288 07ae 00       		.sleb128 0
 12289 07af 38       		.byte	0x38
 12290 07b0 25       		.byte	0x25
 12291 07b1 9F       		.byte	0x9f
 12292 07b2 D1000000 		.4byte	.LVL122-1
 12293 07b6 E4000000 		.4byte	.LVL124
 12294 07ba 0500     		.2byte	0x5
 12295 07bc 76       		.byte	0x76
 12296 07bd 00       		.sleb128 0
 12297 07be 38       		.byte	0x38
 12298 07bf 25       		.byte	0x25
 12299 07c0 9F       		.byte	0x9f
 12300 07c1 E6000000 		.4byte	.LVL125
 12301 07c5 E8000000 		.4byte	.LVL126
 12302 07c9 0500     		.2byte	0x5
 12303 07cb 76       		.byte	0x76
 12304 07cc 00       		.sleb128 0
 12305 07cd 38       		.byte	0x38
 12306 07ce 25       		.byte	0x25
ARM GAS  C:\Users\strap\AppData\Local\Temp\cc7bAV43.s 			page 261


 12307 07cf 9F       		.byte	0x9f
 12308 07d0 EA000000 		.4byte	.LVL127
 12309 07d4 EC000000 		.4byte	.LVL128
 12310 07d8 0500     		.2byte	0x5
 12311 07da 76       		.byte	0x76
 12312 07db 00       		.sleb128 0
 12313 07dc 38       		.byte	0x38
 12314 07dd 25       		.byte	0x25
 12315 07de 9F       		.byte	0x9f
 12316 07df EE000000 		.4byte	.LVL129
 12317 07e3 F0000000 		.4byte	.LVL130
 12318 07e7 0500     		.2byte	0x5
 12319 07e9 76       		.byte	0x76
 12320 07ea 00       		.sleb128 0
 12321 07eb 38       		.byte	0x38
 12322 07ec 25       		.byte	0x25
 12323 07ed 9F       		.byte	0x9f
 12324 07ee 18010000 		.4byte	.LVL140
 12325 07f2 1A010000 		.4byte	.LVL141
 12326 07f6 0500     		.2byte	0x5
 12327 07f8 71       		.byte	0x71
 12328 07f9 00       		.sleb128 0
 12329 07fa 38       		.byte	0x38
 12330 07fb 25       		.byte	0x25
 12331 07fc 9F       		.byte	0x9f
 12332 07fd 00000000 		.4byte	0
 12333 0801 00000000 		.4byte	0
 12334              	.LLST54:
 12335 0805 AA000000 		.4byte	.LVL118
 12336 0809 BE000000 		.4byte	.LVL119
 12337 080d 0100     		.2byte	0x1
 12338 080f 55       		.byte	0x55
 12339 0810 00000000 		.4byte	0
 12340 0814 00000000 		.4byte	0
 12341              	.LLST55:
 12342 0818 AA000000 		.4byte	.LVL118
 12343 081c BE000000 		.4byte	.LVL119
 12344 0820 0100     		.2byte	0x1
 12345 0822 54       		.byte	0x54
 12346 0823 00000000 		.4byte	0
 12347 0827 00000000 		.4byte	0
 12348              	.LLST58:
 12349 082b AA000000 		.4byte	.LVL118
 12350 082f 10010000 		.4byte	.LVL137
 12351 0833 0300     		.2byte	0x3
 12352 0835 91       		.byte	0x91
 12353 0836 66       		.sleb128 -26
 12354 0837 9F       		.byte	0x9f
 12355 0838 18010000 		.4byte	.LVL140
 12356 083c 1A010000 		.4byte	.LVL141
 12357 0840 0300     		.2byte	0x3
 12358 0842 91       		.byte	0x91
 12359 0843 66       		.sleb128 -26
 12360 0844 9F       		.byte	0x9f
 12361 0845 00000000 		.4byte	0
 12362 0849 00000000 		.4byte	0
 12363              	.LLST59:
ARM GAS  C:\Users\strap\AppData\Local\Temp\cc7bAV43.s 			page 262


 12364 084d D2000000 		.4byte	.LVL122
 12365 0851 06010000 		.4byte	.LVL134
 12366 0855 0100     		.2byte	0x1
 12367 0857 50       		.byte	0x50
 12368 0858 00000000 		.4byte	0
 12369 085c 00000000 		.4byte	0
 12370              	.LLST60:
 12371 0860 F0000000 		.4byte	.LVL130
 12372 0864 F2000000 		.4byte	.LVL131
 12373 0868 0100     		.2byte	0x1
 12374 086a 56       		.byte	0x56
 12375 086b 00000000 		.4byte	0
 12376 086f 00000000 		.4byte	0
 12377              	.LLST61:
 12378 0873 F0000000 		.4byte	.LVL130
 12379 0877 10010000 		.4byte	.LVL137
 12380 087b 0100     		.2byte	0x1
 12381 087d 55       		.byte	0x55
 12382 087e 00000000 		.4byte	0
 12383 0882 00000000 		.4byte	0
 12384              	.LLST62:
 12385 0886 D2000000 		.4byte	.LVL122
 12386 088a D6000000 		.4byte	.LVL123
 12387 088e 0100     		.2byte	0x1
 12388 0890 56       		.byte	0x56
 12389 0891 D6000000 		.4byte	.LVL123
 12390 0895 F0000000 		.4byte	.LVL130
 12391 0899 0100     		.2byte	0x1
 12392 089b 51       		.byte	0x51
 12393 089c 00000000 		.4byte	0
 12394 08a0 00000000 		.4byte	0
 12395              	.LLST63:
 12396 08a4 D6000000 		.4byte	.LVL123
 12397 08a8 F0000000 		.4byte	.LVL130
 12398 08ac 0200     		.2byte	0x2
 12399 08ae 32       		.byte	0x32
 12400 08af 9F       		.byte	0x9f
 12401 08b0 00000000 		.4byte	0
 12402 08b4 00000000 		.4byte	0
 12403              	.LLST64:
 12404 08b8 04010000 		.4byte	.LVL133
 12405 08bc 09010000 		.4byte	.LVL135-1
 12406 08c0 0100     		.2byte	0x1
 12407 08c2 51       		.byte	0x51
 12408 08c3 00000000 		.4byte	0
 12409 08c7 00000000 		.4byte	0
 12410              	.LLST65:
 12411 08cb 04010000 		.4byte	.LVL133
 12412 08cf 0C010000 		.4byte	.LVL136
 12413 08d3 0100     		.2byte	0x1
 12414 08d5 54       		.byte	0x54
 12415 08d6 00000000 		.4byte	0
 12416 08da 00000000 		.4byte	0
 12417              	.LLST66:
 12418 08de 00000000 		.4byte	.LVL142
 12419 08e2 D2000000 		.4byte	.LVL173
 12420 08e6 0100     		.2byte	0x1
ARM GAS  C:\Users\strap\AppData\Local\Temp\cc7bAV43.s 			page 263


 12421 08e8 50       		.byte	0x50
 12422 08e9 D2000000 		.4byte	.LVL173
 12423 08ed E2000000 		.4byte	.LVL177
 12424 08f1 0400     		.2byte	0x4
 12425 08f3 F3       		.byte	0xf3
 12426 08f4 01       		.uleb128 0x1
 12427 08f5 50       		.byte	0x50
 12428 08f6 9F       		.byte	0x9f
 12429 08f7 E2000000 		.4byte	.LVL177
 12430 08fb ED000000 		.4byte	.LVL180-1
 12431 08ff 0100     		.2byte	0x1
 12432 0901 50       		.byte	0x50
 12433 0902 ED000000 		.4byte	.LVL180-1
 12434 0906 6A010000 		.4byte	.LVL210
 12435 090a 0100     		.2byte	0x1
 12436 090c 55       		.byte	0x55
 12437 090d 6A010000 		.4byte	.LVL210
 12438 0911 74010000 		.4byte	.LFE338
 12439 0915 0400     		.2byte	0x4
 12440 0917 F3       		.byte	0xf3
 12441 0918 01       		.uleb128 0x1
 12442 0919 50       		.byte	0x50
 12443 091a 9F       		.byte	0x9f
 12444 091b 00000000 		.4byte	0
 12445 091f 00000000 		.4byte	0
 12446              	.LLST67:
 12447 0923 00000000 		.4byte	.LVL142
 12448 0927 20000000 		.4byte	.LVL147
 12449 092b 0100     		.2byte	0x1
 12450 092d 51       		.byte	0x51
 12451 092e 20000000 		.4byte	.LVL147
 12452 0932 9A000000 		.4byte	.LVL165
 12453 0936 0200     		.2byte	0x2
 12454 0938 91       		.byte	0x91
 12455 0939 5E       		.sleb128 -34
 12456 093a 9A000000 		.4byte	.LVL165
 12457 093e 9E000000 		.4byte	.LVL166
 12458 0942 0100     		.2byte	0x1
 12459 0944 51       		.byte	0x51
 12460 0945 9E000000 		.4byte	.LVL166
 12461 0949 D2000000 		.4byte	.LVL173
 12462 094d 0200     		.2byte	0x2
 12463 094f 91       		.byte	0x91
 12464 0950 5E       		.sleb128 -34
 12465 0951 D2000000 		.4byte	.LVL173
 12466 0955 E2000000 		.4byte	.LVL177
 12467 0959 0400     		.2byte	0x4
 12468 095b F3       		.byte	0xf3
 12469 095c 01       		.uleb128 0x1
 12470 095d 51       		.byte	0x51
 12471 095e 9F       		.byte	0x9f
 12472 095f E2000000 		.4byte	.LVL177
 12473 0963 22010000 		.4byte	.LVL189
 12474 0967 0200     		.2byte	0x2
 12475 0969 91       		.byte	0x91
 12476 096a 5E       		.sleb128 -34
 12477 096b 22010000 		.4byte	.LVL189
ARM GAS  C:\Users\strap\AppData\Local\Temp\cc7bAV43.s 			page 264


 12478 096f 26010000 		.4byte	.LVL190
 12479 0973 0200     		.2byte	0x2
 12480 0975 71       		.byte	0x71
 12481 0976 00       		.sleb128 0
 12482 0977 26010000 		.4byte	.LVL190
 12483 097b 6A010000 		.4byte	.LVL210
 12484 097f 0200     		.2byte	0x2
 12485 0981 91       		.byte	0x91
 12486 0982 5E       		.sleb128 -34
 12487 0983 00000000 		.4byte	0
 12488 0987 00000000 		.4byte	0
 12489              	.LLST68:
 12490 098b 00000000 		.4byte	.LVL142
 12491 098f 18000000 		.4byte	.LVL146
 12492 0993 0100     		.2byte	0x1
 12493 0995 52       		.byte	0x52
 12494 0996 18000000 		.4byte	.LVL146
 12495 099a 9A000000 		.4byte	.LVL165
 12496 099e 0200     		.2byte	0x2
 12497 09a0 91       		.byte	0x91
 12498 09a1 5C       		.sleb128 -36
 12499 09a2 9A000000 		.4byte	.LVL165
 12500 09a6 9E000000 		.4byte	.LVL166
 12501 09aa 0100     		.2byte	0x1
 12502 09ac 52       		.byte	0x52
 12503 09ad 9E000000 		.4byte	.LVL166
 12504 09b1 CE000000 		.4byte	.LVL172
 12505 09b5 0200     		.2byte	0x2
 12506 09b7 91       		.byte	0x91
 12507 09b8 5C       		.sleb128 -36
 12508 09b9 CE000000 		.4byte	.LVL172
 12509 09bd D2000000 		.4byte	.LVL173
 12510 09c1 0200     		.2byte	0x2
 12511 09c3 71       		.byte	0x71
 12512 09c4 00       		.sleb128 0
 12513 09c5 D2000000 		.4byte	.LVL173
 12514 09c9 E2000000 		.4byte	.LVL177
 12515 09cd 0400     		.2byte	0x4
 12516 09cf F3       		.byte	0xf3
 12517 09d0 01       		.uleb128 0x1
 12518 09d1 52       		.byte	0x52
 12519 09d2 9F       		.byte	0x9f
 12520 09d3 E2000000 		.4byte	.LVL177
 12521 09d7 3C010000 		.4byte	.LVL197
 12522 09db 0200     		.2byte	0x2
 12523 09dd 91       		.byte	0x91
 12524 09de 5C       		.sleb128 -36
 12525 09df 3C010000 		.4byte	.LVL197
 12526 09e3 40010000 		.4byte	.LVL198
 12527 09e7 0200     		.2byte	0x2
 12528 09e9 71       		.byte	0x71
 12529 09ea 00       		.sleb128 0
 12530 09eb 40010000 		.4byte	.LVL198
 12531 09ef 6A010000 		.4byte	.LVL210
 12532 09f3 0200     		.2byte	0x2
 12533 09f5 91       		.byte	0x91
 12534 09f6 5C       		.sleb128 -36
ARM GAS  C:\Users\strap\AppData\Local\Temp\cc7bAV43.s 			page 265


 12535 09f7 00000000 		.4byte	0
 12536 09fb 00000000 		.4byte	0
 12537              	.LLST69:
 12538 09ff E4000000 		.4byte	.LVL178
 12539 0a03 6A010000 		.4byte	.LVL210
 12540 0a07 0200     		.2byte	0x2
 12541 0a09 34       		.byte	0x34
 12542 0a0a 9F       		.byte	0x9f
 12543 0a0b 00000000 		.4byte	0
 12544 0a0f 00000000 		.4byte	0
 12545              	.LLST70:
 12546 0a13 EA000000 		.4byte	.LVL179
 12547 0a17 6A010000 		.4byte	.LVL210
 12548 0a1b 0200     		.2byte	0x2
 12549 0a1d 32       		.byte	0x32
 12550 0a1e 9F       		.byte	0x9f
 12551 0a1f 00000000 		.4byte	0
 12552 0a23 00000000 		.4byte	0
 12553              	.LLST71:
 12554 0a27 EE000000 		.4byte	.LVL180
 12555 0a2b F6000000 		.4byte	.LVL181
 12556 0a2f 0100     		.2byte	0x1
 12557 0a31 50       		.byte	0x50
 12558 0a32 F6000000 		.4byte	.LVL181
 12559 0a36 F8000000 		.4byte	.LVL182
 12560 0a3a 0100     		.2byte	0x1
 12561 0a3c 53       		.byte	0x53
 12562 0a3d 00000000 		.4byte	0
 12563 0a41 00000000 		.4byte	0
 12564              	.LLST72:
 12565 0a45 0C000000 		.4byte	.LVL143
 12566 0a49 20000000 		.4byte	.LVL147
 12567 0a4d 0100     		.2byte	0x1
 12568 0a4f 51       		.byte	0x51
 12569 0a50 20000000 		.4byte	.LVL147
 12570 0a54 9A000000 		.4byte	.LVL165
 12571 0a58 0200     		.2byte	0x2
 12572 0a5a 91       		.byte	0x91
 12573 0a5b 5E       		.sleb128 -34
 12574 0a5c 9A000000 		.4byte	.LVL165
 12575 0a60 9E000000 		.4byte	.LVL166
 12576 0a64 0100     		.2byte	0x1
 12577 0a66 51       		.byte	0x51
 12578 0a67 00000000 		.4byte	0
 12579 0a6b 00000000 		.4byte	0
 12580              	.LLST73:
 12581 0a6f 0C000000 		.4byte	.LVL143
 12582 0a73 9E000000 		.4byte	.LVL166
 12583 0a77 0100     		.2byte	0x1
 12584 0a79 50       		.byte	0x50
 12585 0a7a 00000000 		.4byte	0
 12586 0a7e 00000000 		.4byte	0
 12587              	.LLST74:
 12588 0a82 14000000 		.4byte	.LVL144
 12589 0a86 9A000000 		.4byte	.LVL165
 12590 0a8a 0100     		.2byte	0x1
 12591 0a8c 56       		.byte	0x56
ARM GAS  C:\Users\strap\AppData\Local\Temp\cc7bAV43.s 			page 266


 12592 0a8d 00000000 		.4byte	0
 12593 0a91 00000000 		.4byte	0
 12594              	.LLST75:
 12595 0a95 16000000 		.4byte	.LVL145
 12596 0a99 9A000000 		.4byte	.LVL165
 12597 0a9d 0100     		.2byte	0x1
 12598 0a9f 55       		.byte	0x55
 12599 0aa0 00000000 		.4byte	0
 12600 0aa4 00000000 		.4byte	0
 12601              	.LLST76:
 12602 0aa8 16000000 		.4byte	.LVL145
 12603 0aac 20000000 		.4byte	.LVL147
 12604 0ab0 0300     		.2byte	0x3
 12605 0ab2 09       		.byte	0x9
 12606 0ab3 FF       		.byte	0xff
 12607 0ab4 9F       		.byte	0x9f
 12608 0ab5 20000000 		.4byte	.LVL147
 12609 0ab9 9A000000 		.4byte	.LVL165
 12610 0abd 0100     		.2byte	0x1
 12611 0abf 57       		.byte	0x57
 12612 0ac0 00000000 		.4byte	0
 12613 0ac4 00000000 		.4byte	0
 12614              	.LLST77:
 12615 0ac8 16000000 		.4byte	.LVL145
 12616 0acc 20000000 		.4byte	.LVL147
 12617 0ad0 0300     		.2byte	0x3
 12618 0ad2 09       		.byte	0x9
 12619 0ad3 FF       		.byte	0xff
 12620 0ad4 9F       		.byte	0x9f
 12621 0ad5 20000000 		.4byte	.LVL147
 12622 0ad9 9A000000 		.4byte	.LVL165
 12623 0add 0100     		.2byte	0x1
 12624 0adf 54       		.byte	0x54
 12625 0ae0 00000000 		.4byte	0
 12626 0ae4 00000000 		.4byte	0
 12627              	.LLST78:
 12628 0ae8 16000000 		.4byte	.LVL145
 12629 0aec 20000000 		.4byte	.LVL147
 12630 0af0 0200     		.2byte	0x2
 12631 0af2 30       		.byte	0x30
 12632 0af3 9F       		.byte	0x9f
 12633 0af4 20000000 		.4byte	.LVL147
 12634 0af8 98000000 		.4byte	.LVL164
 12635 0afc 0100     		.2byte	0x1
 12636 0afe 52       		.byte	0x52
 12637 0aff 98000000 		.4byte	.LVL164
 12638 0b03 9A000000 		.4byte	.LVL165
 12639 0b07 0300     		.2byte	0x3
 12640 0b09 71       		.byte	0x71
 12641 0b0a 7F       		.sleb128 -1
 12642 0b0b 9F       		.byte	0x9f
 12643 0b0c 00000000 		.4byte	0
 12644 0b10 00000000 		.4byte	0
 12645              	.LLST79:
 12646 0b14 24000000 		.4byte	.LVL148
 12647 0b18 3E000000 		.4byte	.LVL150
 12648 0b1c 0100     		.2byte	0x1
ARM GAS  C:\Users\strap\AppData\Local\Temp\cc7bAV43.s 			page 267


 12649 0b1e 52       		.byte	0x52
 12650 0b1f 00000000 		.4byte	0
 12651 0b23 00000000 		.4byte	0
 12652              	.LLST80:
 12653 0b27 24000000 		.4byte	.LVL148
 12654 0b2b 3E000000 		.4byte	.LVL150
 12655 0b2f 0100     		.2byte	0x1
 12656 0b31 50       		.byte	0x50
 12657 0b32 00000000 		.4byte	0
 12658 0b36 00000000 		.4byte	0
 12659              	.LLST81:
 12660 0b3a 24000000 		.4byte	.LVL148
 12661 0b3e 3C000000 		.4byte	.LVL149
 12662 0b42 0100     		.2byte	0x1
 12663 0b44 52       		.byte	0x52
 12664 0b45 00000000 		.4byte	0
 12665 0b49 00000000 		.4byte	0
 12666              	.LLST82:
 12667 0b4d 24000000 		.4byte	.LVL148
 12668 0b51 3C000000 		.4byte	.LVL149
 12669 0b55 0100     		.2byte	0x1
 12670 0b57 50       		.byte	0x50
 12671 0b58 00000000 		.4byte	0
 12672 0b5c 00000000 		.4byte	0
 12673              	.LLST83:
 12674 0b60 24000000 		.4byte	.LVL148
 12675 0b64 5E000000 		.4byte	.LVL152
 12676 0b68 0300     		.2byte	0x3
 12677 0b6a 91       		.byte	0x91
 12678 0b6b 64       		.sleb128 -28
 12679 0b6c 9F       		.byte	0x9f
 12680 0b6d 00000000 		.4byte	0
 12681 0b71 00000000 		.4byte	0
 12682              	.LLST84:
 12683 0b75 5E000000 		.4byte	.LVL152
 12684 0b79 7E000000 		.4byte	.LVL161
 12685 0b7d 0100     		.2byte	0x1
 12686 0b7f 52       		.byte	0x52
 12687 0b80 00000000 		.4byte	0
 12688 0b84 00000000 		.4byte	0
 12689              	.LLST85:
 12690 0b88 62000000 		.4byte	.LVL153
 12691 0b8c 70000000 		.4byte	.LVL154
 12692 0b90 0100     		.2byte	0x1
 12693 0b92 53       		.byte	0x53
 12694 0b93 72000000 		.4byte	.LVL155
 12695 0b97 74000000 		.4byte	.LVL156
 12696 0b9b 0100     		.2byte	0x1
 12697 0b9d 53       		.byte	0x53
 12698 0b9e 76000000 		.4byte	.LVL157
 12699 0ba2 78000000 		.4byte	.LVL158
 12700 0ba6 0100     		.2byte	0x1
 12701 0ba8 53       		.byte	0x53
 12702 0ba9 7A000000 		.4byte	.LVL159
 12703 0bad 7C000000 		.4byte	.LVL160
 12704 0bb1 0100     		.2byte	0x1
 12705 0bb3 53       		.byte	0x53
ARM GAS  C:\Users\strap\AppData\Local\Temp\cc7bAV43.s 			page 268


 12706 0bb4 00000000 		.4byte	0
 12707 0bb8 00000000 		.4byte	0
 12708              	.LLST86:
 12709 0bbc 62000000 		.4byte	.LVL153
 12710 0bc0 7C000000 		.4byte	.LVL160
 12711 0bc4 0200     		.2byte	0x2
 12712 0bc6 32       		.byte	0x32
 12713 0bc7 9F       		.byte	0x9f
 12714 0bc8 00000000 		.4byte	0
 12715 0bcc 00000000 		.4byte	0
 12716              	.LLST87:
 12717 0bd0 7E000000 		.4byte	.LVL161
 12718 0bd4 92000000 		.4byte	.LVL163
 12719 0bd8 0100     		.2byte	0x1
 12720 0bda 52       		.byte	0x52
 12721 0bdb 00000000 		.4byte	0
 12722 0bdf 00000000 		.4byte	0
 12723              	.LLST88:
 12724 0be3 7E000000 		.4byte	.LVL161
 12725 0be7 92000000 		.4byte	.LVL163
 12726 0beb 0100     		.2byte	0x1
 12727 0bed 50       		.byte	0x50
 12728 0bee 00000000 		.4byte	0
 12729 0bf2 00000000 		.4byte	0
 12730              	.LLST89:
 12731 0bf6 7E000000 		.4byte	.LVL161
 12732 0bfa 8E000000 		.4byte	.LVL162
 12733 0bfe 0100     		.2byte	0x1
 12734 0c00 52       		.byte	0x52
 12735 0c01 00000000 		.4byte	0
 12736 0c05 00000000 		.4byte	0
 12737              	.LLST90:
 12738 0c09 7E000000 		.4byte	.LVL161
 12739 0c0d 8E000000 		.4byte	.LVL162
 12740 0c11 0100     		.2byte	0x1
 12741 0c13 50       		.byte	0x50
 12742 0c14 00000000 		.4byte	0
 12743 0c18 00000000 		.4byte	0
 12744              	.LLST91:
 12745 0c1c 20000000 		.4byte	.LVL147
 12746 0c20 9A000000 		.4byte	.LVL165
 12747 0c24 0300     		.2byte	0x3
 12748 0c26 91       		.byte	0x91
 12749 0c27 64       		.sleb128 -28
 12750 0c28 9F       		.byte	0x9f
 12751 0c29 00000000 		.4byte	0
 12752 0c2d 00000000 		.4byte	0
 12753              	.LLST92:
 12754 0c31 BC000000 		.4byte	.LVL169
 12755 0c35 C0000000 		.4byte	.LVL170
 12756 0c39 0100     		.2byte	0x1
 12757 0c3b 53       		.byte	0x53
 12758 0c3c C0000000 		.4byte	.LVL170
 12759 0c40 D2000000 		.4byte	.LVL173
 12760 0c44 0B00     		.2byte	0xb
 12761 0c46 91       		.byte	0x91
 12762 0c47 5E       		.sleb128 -34
ARM GAS  C:\Users\strap\AppData\Local\Temp\cc7bAV43.s 			page 269


 12763 0c48 94       		.byte	0x94
 12764 0c49 02       		.byte	0x2
 12765 0c4a 0A       		.byte	0xa
 12766 0c4b FFFF     		.2byte	0xffff
 12767 0c4d 1A       		.byte	0x1a
 12768 0c4e 38       		.byte	0x38
 12769 0c4f 25       		.byte	0x25
 12770 0c50 9F       		.byte	0x9f
 12771 0c51 00000000 		.4byte	0
 12772 0c55 00000000 		.4byte	0
 12773              	.LLST93:
 12774 0c59 A2000000 		.4byte	.LVL167
 12775 0c5d B6000000 		.4byte	.LVL168
 12776 0c61 0100     		.2byte	0x1
 12777 0c63 52       		.byte	0x52
 12778 0c64 00000000 		.4byte	0
 12779 0c68 00000000 		.4byte	0
 12780              	.LLST94:
 12781 0c6c A2000000 		.4byte	.LVL167
 12782 0c70 B6000000 		.4byte	.LVL168
 12783 0c74 0100     		.2byte	0x1
 12784 0c76 50       		.byte	0x50
 12785 0c77 00000000 		.4byte	0
 12786 0c7b 00000000 		.4byte	0
 12787              	.LLST97:
 12788 0c7f A2000000 		.4byte	.LVL167
 12789 0c83 E2000000 		.4byte	.LVL177
 12790 0c87 0300     		.2byte	0x3
 12791 0c89 91       		.byte	0x91
 12792 0c8a 64       		.sleb128 -28
 12793 0c8b 9F       		.byte	0x9f
 12794 0c8c 00000000 		.4byte	0
 12795 0c90 00000000 		.4byte	0
 12796              	.LLST98:
 12797 0c94 CC000000 		.4byte	.LVL171
 12798 0c98 D2000000 		.4byte	.LVL173
 12799 0c9c 0200     		.2byte	0x2
 12800 0c9e 32       		.byte	0x32
 12801 0c9f 9F       		.byte	0x9f
 12802 0ca0 D2000000 		.4byte	.LVL173
 12803 0ca4 E2000000 		.4byte	.LVL177
 12804 0ca8 0100     		.2byte	0x1
 12805 0caa 52       		.byte	0x52
 12806 0cab 00000000 		.4byte	0
 12807 0caf 00000000 		.4byte	0
 12808              	.LLST99:
 12809 0cb3 CC000000 		.4byte	.LVL171
 12810 0cb7 CE000000 		.4byte	.LVL172
 12811 0cbb 0300     		.2byte	0x3
 12812 0cbd 91       		.byte	0x91
 12813 0cbe 5C       		.sleb128 -36
 12814 0cbf 9F       		.byte	0x9f
 12815 0cc0 CE000000 		.4byte	.LVL172
 12816 0cc4 D2000000 		.4byte	.LVL173
 12817 0cc8 0100     		.2byte	0x1
 12818 0cca 51       		.byte	0x51
 12819 0ccb D2000000 		.4byte	.LVL173
ARM GAS  C:\Users\strap\AppData\Local\Temp\cc7bAV43.s 			page 270


 12820 0ccf E2000000 		.4byte	.LVL177
 12821 0cd3 0300     		.2byte	0x3
 12822 0cd5 91       		.byte	0x91
 12823 0cd6 5C       		.sleb128 -36
 12824 0cd7 9F       		.byte	0x9f
 12825 0cd8 00000000 		.4byte	0
 12826 0cdc 00000000 		.4byte	0
 12827              	.LLST100:
 12828 0ce0 CC000000 		.4byte	.LVL171
 12829 0ce4 D2000000 		.4byte	.LVL173
 12830 0ce8 0100     		.2byte	0x1
 12831 0cea 53       		.byte	0x53
 12832 0ceb 00000000 		.4byte	0
 12833 0cef 00000000 		.4byte	0
 12834              	.LLST101:
 12835 0cf3 CC000000 		.4byte	.LVL171
 12836 0cf7 E2000000 		.4byte	.LVL177
 12837 0cfb 0100     		.2byte	0x1
 12838 0cfd 53       		.byte	0x53
 12839 0cfe 00000000 		.4byte	0
 12840 0d02 00000000 		.4byte	0
 12841              	.LLST102:
 12842 0d06 CC000000 		.4byte	.LVL171
 12843 0d0a CE000000 		.4byte	.LVL172
 12844 0d0e 0300     		.2byte	0x3
 12845 0d10 91       		.byte	0x91
 12846 0d11 5C       		.sleb128 -36
 12847 0d12 9F       		.byte	0x9f
 12848 0d13 CE000000 		.4byte	.LVL172
 12849 0d17 D6000000 		.4byte	.LVL174
 12850 0d1b 0100     		.2byte	0x1
 12851 0d1d 51       		.byte	0x51
 12852 0d1e D6000000 		.4byte	.LVL174
 12853 0d22 DA000000 		.4byte	.LVL175
 12854 0d26 0300     		.2byte	0x3
 12855 0d28 71       		.byte	0x71
 12856 0d29 7F       		.sleb128 -1
 12857 0d2a 9F       		.byte	0x9f
 12858 0d2b DA000000 		.4byte	.LVL175
 12859 0d2f E2000000 		.4byte	.LVL177
 12860 0d33 0100     		.2byte	0x1
 12861 0d35 51       		.byte	0x51
 12862 0d36 00000000 		.4byte	0
 12863 0d3a 00000000 		.4byte	0
 12864              	.LLST103:
 12865 0d3e FA000000 		.4byte	.LVL183
 12866 0d42 04010000 		.4byte	.LVL185
 12867 0d46 0100     		.2byte	0x1
 12868 0d48 54       		.byte	0x54
 12869 0d49 00000000 		.4byte	0
 12870 0d4d 00000000 		.4byte	0
 12871              	.LLST104:
 12872 0d51 FA000000 		.4byte	.LVL183
 12873 0d55 04010000 		.4byte	.LVL185
 12874 0d59 0100     		.2byte	0x1
 12875 0d5b 55       		.byte	0x55
 12876 0d5c 00000000 		.4byte	0
ARM GAS  C:\Users\strap\AppData\Local\Temp\cc7bAV43.s 			page 271


 12877 0d60 00000000 		.4byte	0
 12878              	.LLST105:
 12879 0d64 1E010000 		.4byte	.LVL188
 12880 0d68 26010000 		.4byte	.LVL190
 12881 0d6c 0200     		.2byte	0x2
 12882 0d6e 32       		.byte	0x32
 12883 0d6f 9F       		.byte	0x9f
 12884 0d70 26010000 		.4byte	.LVL190
 12885 0d74 34010000 		.4byte	.LVL194
 12886 0d78 0100     		.2byte	0x1
 12887 0d7a 52       		.byte	0x52
 12888 0d7b 00000000 		.4byte	0
 12889 0d7f 00000000 		.4byte	0
 12890              	.LLST106:
 12891 0d83 1E010000 		.4byte	.LVL188
 12892 0d87 22010000 		.4byte	.LVL189
 12893 0d8b 0300     		.2byte	0x3
 12894 0d8d 91       		.byte	0x91
 12895 0d8e 5E       		.sleb128 -34
 12896 0d8f 9F       		.byte	0x9f
 12897 0d90 22010000 		.4byte	.LVL189
 12898 0d94 26010000 		.4byte	.LVL190
 12899 0d98 0100     		.2byte	0x1
 12900 0d9a 51       		.byte	0x51
 12901 0d9b 26010000 		.4byte	.LVL190
 12902 0d9f 34010000 		.4byte	.LVL194
 12903 0da3 0300     		.2byte	0x3
 12904 0da5 91       		.byte	0x91
 12905 0da6 5E       		.sleb128 -34
 12906 0da7 9F       		.byte	0x9f
 12907 0da8 00000000 		.4byte	0
 12908 0dac 00000000 		.4byte	0
 12909              	.LLST107:
 12910 0db0 1E010000 		.4byte	.LVL188
 12911 0db4 26010000 		.4byte	.LVL190
 12912 0db8 0100     		.2byte	0x1
 12913 0dba 53       		.byte	0x53
 12914 0dbb 00000000 		.4byte	0
 12915 0dbf 00000000 		.4byte	0
 12916              	.LLST108:
 12917 0dc3 1E010000 		.4byte	.LVL188
 12918 0dc7 38010000 		.4byte	.LVL195
 12919 0dcb 0100     		.2byte	0x1
 12920 0dcd 53       		.byte	0x53
 12921 0dce 00000000 		.4byte	0
 12922 0dd2 00000000 		.4byte	0
 12923              	.LLST109:
 12924 0dd6 1E010000 		.4byte	.LVL188
 12925 0dda 22010000 		.4byte	.LVL189
 12926 0dde 0300     		.2byte	0x3
 12927 0de0 91       		.byte	0x91
 12928 0de1 5E       		.sleb128 -34
 12929 0de2 9F       		.byte	0x9f
 12930 0de3 22010000 		.4byte	.LVL189
 12931 0de7 2A010000 		.4byte	.LVL191
 12932 0deb 0100     		.2byte	0x1
 12933 0ded 51       		.byte	0x51
ARM GAS  C:\Users\strap\AppData\Local\Temp\cc7bAV43.s 			page 272


 12934 0dee 2A010000 		.4byte	.LVL191
 12935 0df2 2E010000 		.4byte	.LVL192
 12936 0df6 0300     		.2byte	0x3
 12937 0df8 71       		.byte	0x71
 12938 0df9 7F       		.sleb128 -1
 12939 0dfa 9F       		.byte	0x9f
 12940 0dfb 2E010000 		.4byte	.LVL192
 12941 0dff 3C010000 		.4byte	.LVL197
 12942 0e03 0100     		.2byte	0x1
 12943 0e05 51       		.byte	0x51
 12944 0e06 00000000 		.4byte	0
 12945 0e0a 00000000 		.4byte	0
 12946              	.LLST110:
 12947 0e0e 3A010000 		.4byte	.LVL196
 12948 0e12 40010000 		.4byte	.LVL198
 12949 0e16 0200     		.2byte	0x2
 12950 0e18 32       		.byte	0x32
 12951 0e19 9F       		.byte	0x9f
 12952 0e1a 40010000 		.4byte	.LVL198
 12953 0e1e 4E010000 		.4byte	.LVL202
 12954 0e22 0100     		.2byte	0x1
 12955 0e24 52       		.byte	0x52
 12956 0e25 00000000 		.4byte	0
 12957 0e29 00000000 		.4byte	0
 12958              	.LLST111:
 12959 0e2d 3A010000 		.4byte	.LVL196
 12960 0e31 3C010000 		.4byte	.LVL197
 12961 0e35 0300     		.2byte	0x3
 12962 0e37 91       		.byte	0x91
 12963 0e38 5C       		.sleb128 -36
 12964 0e39 9F       		.byte	0x9f
 12965 0e3a 3C010000 		.4byte	.LVL197
 12966 0e3e 40010000 		.4byte	.LVL198
 12967 0e42 0100     		.2byte	0x1
 12968 0e44 51       		.byte	0x51
 12969 0e45 40010000 		.4byte	.LVL198
 12970 0e49 4E010000 		.4byte	.LVL202
 12971 0e4d 0300     		.2byte	0x3
 12972 0e4f 91       		.byte	0x91
 12973 0e50 5C       		.sleb128 -36
 12974 0e51 9F       		.byte	0x9f
 12975 0e52 00000000 		.4byte	0
 12976 0e56 00000000 		.4byte	0
 12977              	.LLST112:
 12978 0e5a 3A010000 		.4byte	.LVL196
 12979 0e5e 40010000 		.4byte	.LVL198
 12980 0e62 0100     		.2byte	0x1
 12981 0e64 53       		.byte	0x53
 12982 0e65 00000000 		.4byte	0
 12983 0e69 00000000 		.4byte	0
 12984              	.LLST113:
 12985 0e6d 40010000 		.4byte	.LVL198
 12986 0e71 50010000 		.4byte	.LVL203
 12987 0e75 0100     		.2byte	0x1
 12988 0e77 53       		.byte	0x53
 12989 0e78 00000000 		.4byte	0
 12990 0e7c 00000000 		.4byte	0
ARM GAS  C:\Users\strap\AppData\Local\Temp\cc7bAV43.s 			page 273


 12991              	.LLST114:
 12992 0e80 40010000 		.4byte	.LVL198
 12993 0e84 44010000 		.4byte	.LVL199
 12994 0e88 0100     		.2byte	0x1
 12995 0e8a 51       		.byte	0x51
 12996 0e8b 44010000 		.4byte	.LVL199
 12997 0e8f 48010000 		.4byte	.LVL200
 12998 0e93 0300     		.2byte	0x3
 12999 0e95 71       		.byte	0x71
 13000 0e96 7F       		.sleb128 -1
 13001 0e97 9F       		.byte	0x9f
 13002 0e98 48010000 		.4byte	.LVL200
 13003 0e9c 58010000 		.4byte	.LVL205
 13004 0ea0 0100     		.2byte	0x1
 13005 0ea2 51       		.byte	0x51
 13006 0ea3 00000000 		.4byte	0
 13007 0ea7 00000000 		.4byte	0
 13008              	.LLST115:
 13009 0eab 54010000 		.4byte	.LVL204
 13010 0eaf 5C010000 		.4byte	.LVL206
 13011 0eb3 0200     		.2byte	0x2
 13012 0eb5 32       		.byte	0x32
 13013 0eb6 9F       		.byte	0x9f
 13014 0eb7 5C010000 		.4byte	.LVL206
 13015 0ebb 6A010000 		.4byte	.LVL210
 13016 0ebf 0100     		.2byte	0x1
 13017 0ec1 52       		.byte	0x52
 13018 0ec2 00000000 		.4byte	0
 13019 0ec6 00000000 		.4byte	0
 13020              	.LLST116:
 13021 0eca 54010000 		.4byte	.LVL204
 13022 0ece 58010000 		.4byte	.LVL205
 13023 0ed2 0300     		.2byte	0x3
 13024 0ed4 91       		.byte	0x91
 13025 0ed5 66       		.sleb128 -26
 13026 0ed6 9F       		.byte	0x9f
 13027 0ed7 58010000 		.4byte	.LVL205
 13028 0edb 5C010000 		.4byte	.LVL206
 13029 0edf 0100     		.2byte	0x1
 13030 0ee1 51       		.byte	0x51
 13031 0ee2 5C010000 		.4byte	.LVL206
 13032 0ee6 6A010000 		.4byte	.LVL210
 13033 0eea 0300     		.2byte	0x3
 13034 0eec 91       		.byte	0x91
 13035 0eed 66       		.sleb128 -26
 13036 0eee 9F       		.byte	0x9f
 13037 0eef 00000000 		.4byte	0
 13038 0ef3 00000000 		.4byte	0
 13039              	.LLST117:
 13040 0ef7 54010000 		.4byte	.LVL204
 13041 0efb 5C010000 		.4byte	.LVL206
 13042 0eff 0100     		.2byte	0x1
 13043 0f01 53       		.byte	0x53
 13044 0f02 00000000 		.4byte	0
 13045 0f06 00000000 		.4byte	0
 13046              	.LLST118:
 13047 0f0a 5C010000 		.4byte	.LVL206
ARM GAS  C:\Users\strap\AppData\Local\Temp\cc7bAV43.s 			page 274


 13048 0f0e 6A010000 		.4byte	.LVL210
 13049 0f12 0100     		.2byte	0x1
 13050 0f14 53       		.byte	0x53
 13051 0f15 00000000 		.4byte	0
 13052 0f19 00000000 		.4byte	0
 13053              	.LLST119:
 13054 0f1d 5C010000 		.4byte	.LVL206
 13055 0f21 60010000 		.4byte	.LVL207
 13056 0f25 0100     		.2byte	0x1
 13057 0f27 51       		.byte	0x51
 13058 0f28 60010000 		.4byte	.LVL207
 13059 0f2c 64010000 		.4byte	.LVL208
 13060 0f30 0300     		.2byte	0x3
 13061 0f32 71       		.byte	0x71
 13062 0f33 7F       		.sleb128 -1
 13063 0f34 9F       		.byte	0x9f
 13064 0f35 64010000 		.4byte	.LVL208
 13065 0f39 6A010000 		.4byte	.LVL210
 13066 0f3d 0100     		.2byte	0x1
 13067 0f3f 51       		.byte	0x51
 13068 0f40 00000000 		.4byte	0
 13069 0f44 00000000 		.4byte	0
 13070              	.LLST120:
 13071 0f48 00000000 		.4byte	.LVL211
 13072 0f4c D2000000 		.4byte	.LVL241
 13073 0f50 0100     		.2byte	0x1
 13074 0f52 50       		.byte	0x50
 13075 0f53 D2000000 		.4byte	.LVL241
 13076 0f57 E2000000 		.4byte	.LVL245
 13077 0f5b 0400     		.2byte	0x4
 13078 0f5d F3       		.byte	0xf3
 13079 0f5e 01       		.uleb128 0x1
 13080 0f5f 50       		.byte	0x50
 13081 0f60 9F       		.byte	0x9f
 13082 0f61 E2000000 		.4byte	.LVL245
 13083 0f65 ED000000 		.4byte	.LVL248-1
 13084 0f69 0100     		.2byte	0x1
 13085 0f6b 50       		.byte	0x50
 13086 0f6c ED000000 		.4byte	.LVL248-1
 13087 0f70 6A010000 		.4byte	.LVL278
 13088 0f74 0100     		.2byte	0x1
 13089 0f76 55       		.byte	0x55
 13090 0f77 6A010000 		.4byte	.LVL278
 13091 0f7b 74010000 		.4byte	.LFE339
 13092 0f7f 0400     		.2byte	0x4
 13093 0f81 F3       		.byte	0xf3
 13094 0f82 01       		.uleb128 0x1
 13095 0f83 50       		.byte	0x50
 13096 0f84 9F       		.byte	0x9f
 13097 0f85 00000000 		.4byte	0
 13098 0f89 00000000 		.4byte	0
 13099              	.LLST121:
 13100 0f8d 00000000 		.4byte	.LVL211
 13101 0f91 20000000 		.4byte	.LVL215
 13102 0f95 0100     		.2byte	0x1
 13103 0f97 51       		.byte	0x51
 13104 0f98 20000000 		.4byte	.LVL215
ARM GAS  C:\Users\strap\AppData\Local\Temp\cc7bAV43.s 			page 275


 13105 0f9c 9A000000 		.4byte	.LVL233
 13106 0fa0 0200     		.2byte	0x2
 13107 0fa2 91       		.byte	0x91
 13108 0fa3 5E       		.sleb128 -34
 13109 0fa4 9A000000 		.4byte	.LVL233
 13110 0fa8 9E000000 		.4byte	.LVL234
 13111 0fac 0100     		.2byte	0x1
 13112 0fae 51       		.byte	0x51
 13113 0faf 9E000000 		.4byte	.LVL234
 13114 0fb3 D2000000 		.4byte	.LVL241
 13115 0fb7 0200     		.2byte	0x2
 13116 0fb9 91       		.byte	0x91
 13117 0fba 5E       		.sleb128 -34
 13118 0fbb D2000000 		.4byte	.LVL241
 13119 0fbf E2000000 		.4byte	.LVL245
 13120 0fc3 0400     		.2byte	0x4
 13121 0fc5 F3       		.byte	0xf3
 13122 0fc6 01       		.uleb128 0x1
 13123 0fc7 51       		.byte	0x51
 13124 0fc8 9F       		.byte	0x9f
 13125 0fc9 E2000000 		.4byte	.LVL245
 13126 0fcd 22010000 		.4byte	.LVL257
 13127 0fd1 0200     		.2byte	0x2
 13128 0fd3 91       		.byte	0x91
 13129 0fd4 5E       		.sleb128 -34
 13130 0fd5 22010000 		.4byte	.LVL257
 13131 0fd9 26010000 		.4byte	.LVL258
 13132 0fdd 0200     		.2byte	0x2
 13133 0fdf 71       		.byte	0x71
 13134 0fe0 00       		.sleb128 0
 13135 0fe1 26010000 		.4byte	.LVL258
 13136 0fe5 6A010000 		.4byte	.LVL278
 13137 0fe9 0200     		.2byte	0x2
 13138 0feb 91       		.byte	0x91
 13139 0fec 5E       		.sleb128 -34
 13140 0fed 00000000 		.4byte	0
 13141 0ff1 00000000 		.4byte	0
 13142              	.LLST122:
 13143 0ff5 E4000000 		.4byte	.LVL246
 13144 0ff9 6A010000 		.4byte	.LVL278
 13145 0ffd 0200     		.2byte	0x2
 13146 0fff 34       		.byte	0x34
 13147 1000 9F       		.byte	0x9f
 13148 1001 00000000 		.4byte	0
 13149 1005 00000000 		.4byte	0
 13150              	.LLST123:
 13151 1009 EA000000 		.4byte	.LVL247
 13152 100d 6A010000 		.4byte	.LVL278
 13153 1011 0200     		.2byte	0x2
 13154 1013 32       		.byte	0x32
 13155 1014 9F       		.byte	0x9f
 13156 1015 00000000 		.4byte	0
 13157 1019 00000000 		.4byte	0
 13158              	.LLST124:
 13159 101d EE000000 		.4byte	.LVL248
 13160 1021 F6000000 		.4byte	.LVL249
 13161 1025 0100     		.2byte	0x1
ARM GAS  C:\Users\strap\AppData\Local\Temp\cc7bAV43.s 			page 276


 13162 1027 50       		.byte	0x50
 13163 1028 F6000000 		.4byte	.LVL249
 13164 102c F8000000 		.4byte	.LVL250
 13165 1030 0100     		.2byte	0x1
 13166 1032 53       		.byte	0x53
 13167 1033 00000000 		.4byte	0
 13168 1037 00000000 		.4byte	0
 13169              	.LLST125:
 13170 103b 0C000000 		.4byte	.LVL212
 13171 103f 20000000 		.4byte	.LVL215
 13172 1043 0100     		.2byte	0x1
 13173 1045 51       		.byte	0x51
 13174 1046 20000000 		.4byte	.LVL215
 13175 104a 9A000000 		.4byte	.LVL233
 13176 104e 0200     		.2byte	0x2
 13177 1050 91       		.byte	0x91
 13178 1051 5E       		.sleb128 -34
 13179 1052 9A000000 		.4byte	.LVL233
 13180 1056 9E000000 		.4byte	.LVL234
 13181 105a 0100     		.2byte	0x1
 13182 105c 51       		.byte	0x51
 13183 105d 00000000 		.4byte	0
 13184 1061 00000000 		.4byte	0
 13185              	.LLST126:
 13186 1065 0C000000 		.4byte	.LVL212
 13187 1069 9E000000 		.4byte	.LVL234
 13188 106d 0100     		.2byte	0x1
 13189 106f 50       		.byte	0x50
 13190 1070 00000000 		.4byte	0
 13191 1074 00000000 		.4byte	0
 13192              	.LLST127:
 13193 1078 14000000 		.4byte	.LVL213
 13194 107c 9A000000 		.4byte	.LVL233
 13195 1080 0100     		.2byte	0x1
 13196 1082 56       		.byte	0x56
 13197 1083 00000000 		.4byte	0
 13198 1087 00000000 		.4byte	0
 13199              	.LLST128:
 13200 108b 16000000 		.4byte	.LVL214
 13201 108f 9A000000 		.4byte	.LVL233
 13202 1093 0100     		.2byte	0x1
 13203 1095 55       		.byte	0x55
 13204 1096 00000000 		.4byte	0
 13205 109a 00000000 		.4byte	0
 13206              	.LLST129:
 13207 109e 16000000 		.4byte	.LVL214
 13208 10a2 20000000 		.4byte	.LVL215
 13209 10a6 0300     		.2byte	0x3
 13210 10a8 09       		.byte	0x9
 13211 10a9 FF       		.byte	0xff
 13212 10aa 9F       		.byte	0x9f
 13213 10ab 20000000 		.4byte	.LVL215
 13214 10af 9A000000 		.4byte	.LVL233
 13215 10b3 0100     		.2byte	0x1
 13216 10b5 57       		.byte	0x57
 13217 10b6 00000000 		.4byte	0
 13218 10ba 00000000 		.4byte	0
ARM GAS  C:\Users\strap\AppData\Local\Temp\cc7bAV43.s 			page 277


 13219              	.LLST130:
 13220 10be 16000000 		.4byte	.LVL214
 13221 10c2 20000000 		.4byte	.LVL215
 13222 10c6 0300     		.2byte	0x3
 13223 10c8 09       		.byte	0x9
 13224 10c9 FF       		.byte	0xff
 13225 10ca 9F       		.byte	0x9f
 13226 10cb 20000000 		.4byte	.LVL215
 13227 10cf 9A000000 		.4byte	.LVL233
 13228 10d3 0100     		.2byte	0x1
 13229 10d5 54       		.byte	0x54
 13230 10d6 00000000 		.4byte	0
 13231 10da 00000000 		.4byte	0
 13232              	.LLST131:
 13233 10de 16000000 		.4byte	.LVL214
 13234 10e2 20000000 		.4byte	.LVL215
 13235 10e6 0200     		.2byte	0x2
 13236 10e8 30       		.byte	0x30
 13237 10e9 9F       		.byte	0x9f
 13238 10ea 20000000 		.4byte	.LVL215
 13239 10ee 98000000 		.4byte	.LVL232
 13240 10f2 0100     		.2byte	0x1
 13241 10f4 52       		.byte	0x52
 13242 10f5 98000000 		.4byte	.LVL232
 13243 10f9 9A000000 		.4byte	.LVL233
 13244 10fd 0300     		.2byte	0x3
 13245 10ff 71       		.byte	0x71
 13246 1100 7F       		.sleb128 -1
 13247 1101 9F       		.byte	0x9f
 13248 1102 00000000 		.4byte	0
 13249 1106 00000000 		.4byte	0
 13250              	.LLST132:
 13251 110a 24000000 		.4byte	.LVL216
 13252 110e 3E000000 		.4byte	.LVL218
 13253 1112 0100     		.2byte	0x1
 13254 1114 52       		.byte	0x52
 13255 1115 00000000 		.4byte	0
 13256 1119 00000000 		.4byte	0
 13257              	.LLST133:
 13258 111d 24000000 		.4byte	.LVL216
 13259 1121 3E000000 		.4byte	.LVL218
 13260 1125 0100     		.2byte	0x1
 13261 1127 50       		.byte	0x50
 13262 1128 00000000 		.4byte	0
 13263 112c 00000000 		.4byte	0
 13264              	.LLST134:
 13265 1130 24000000 		.4byte	.LVL216
 13266 1134 3C000000 		.4byte	.LVL217
 13267 1138 0100     		.2byte	0x1
 13268 113a 52       		.byte	0x52
 13269 113b 00000000 		.4byte	0
 13270 113f 00000000 		.4byte	0
 13271              	.LLST135:
 13272 1143 24000000 		.4byte	.LVL216
 13273 1147 3C000000 		.4byte	.LVL217
 13274 114b 0100     		.2byte	0x1
 13275 114d 50       		.byte	0x50
ARM GAS  C:\Users\strap\AppData\Local\Temp\cc7bAV43.s 			page 278


 13276 114e 00000000 		.4byte	0
 13277 1152 00000000 		.4byte	0
 13278              	.LLST136:
 13279 1156 24000000 		.4byte	.LVL216
 13280 115a 5E000000 		.4byte	.LVL220
 13281 115e 0300     		.2byte	0x3
 13282 1160 91       		.byte	0x91
 13283 1161 64       		.sleb128 -28
 13284 1162 9F       		.byte	0x9f
 13285 1163 00000000 		.4byte	0
 13286 1167 00000000 		.4byte	0
 13287              	.LLST137:
 13288 116b 5E000000 		.4byte	.LVL220
 13289 116f 7E000000 		.4byte	.LVL229
 13290 1173 0100     		.2byte	0x1
 13291 1175 52       		.byte	0x52
 13292 1176 00000000 		.4byte	0
 13293 117a 00000000 		.4byte	0
 13294              	.LLST138:
 13295 117e 62000000 		.4byte	.LVL221
 13296 1182 70000000 		.4byte	.LVL222
 13297 1186 0100     		.2byte	0x1
 13298 1188 53       		.byte	0x53
 13299 1189 72000000 		.4byte	.LVL223
 13300 118d 74000000 		.4byte	.LVL224
 13301 1191 0100     		.2byte	0x1
 13302 1193 53       		.byte	0x53
 13303 1194 76000000 		.4byte	.LVL225
 13304 1198 78000000 		.4byte	.LVL226
 13305 119c 0100     		.2byte	0x1
 13306 119e 53       		.byte	0x53
 13307 119f 7A000000 		.4byte	.LVL227
 13308 11a3 7C000000 		.4byte	.LVL228
 13309 11a7 0100     		.2byte	0x1
 13310 11a9 53       		.byte	0x53
 13311 11aa 00000000 		.4byte	0
 13312 11ae 00000000 		.4byte	0
 13313              	.LLST139:
 13314 11b2 62000000 		.4byte	.LVL221
 13315 11b6 7C000000 		.4byte	.LVL228
 13316 11ba 0200     		.2byte	0x2
 13317 11bc 32       		.byte	0x32
 13318 11bd 9F       		.byte	0x9f
 13319 11be 00000000 		.4byte	0
 13320 11c2 00000000 		.4byte	0
 13321              	.LLST140:
 13322 11c6 7E000000 		.4byte	.LVL229
 13323 11ca 92000000 		.4byte	.LVL231
 13324 11ce 0100     		.2byte	0x1
 13325 11d0 52       		.byte	0x52
 13326 11d1 00000000 		.4byte	0
 13327 11d5 00000000 		.4byte	0
 13328              	.LLST141:
 13329 11d9 7E000000 		.4byte	.LVL229
 13330 11dd 92000000 		.4byte	.LVL231
 13331 11e1 0100     		.2byte	0x1
 13332 11e3 50       		.byte	0x50
ARM GAS  C:\Users\strap\AppData\Local\Temp\cc7bAV43.s 			page 279


 13333 11e4 00000000 		.4byte	0
 13334 11e8 00000000 		.4byte	0
 13335              	.LLST142:
 13336 11ec 7E000000 		.4byte	.LVL229
 13337 11f0 8E000000 		.4byte	.LVL230
 13338 11f4 0100     		.2byte	0x1
 13339 11f6 52       		.byte	0x52
 13340 11f7 00000000 		.4byte	0
 13341 11fb 00000000 		.4byte	0
 13342              	.LLST143:
 13343 11ff 7E000000 		.4byte	.LVL229
 13344 1203 8E000000 		.4byte	.LVL230
 13345 1207 0100     		.2byte	0x1
 13346 1209 50       		.byte	0x50
 13347 120a 00000000 		.4byte	0
 13348 120e 00000000 		.4byte	0
 13349              	.LLST144:
 13350 1212 20000000 		.4byte	.LVL215
 13351 1216 9A000000 		.4byte	.LVL233
 13352 121a 0300     		.2byte	0x3
 13353 121c 91       		.byte	0x91
 13354 121d 64       		.sleb128 -28
 13355 121e 9F       		.byte	0x9f
 13356 121f 00000000 		.4byte	0
 13357 1223 00000000 		.4byte	0
 13358              	.LLST145:
 13359 1227 BC000000 		.4byte	.LVL237
 13360 122b C0000000 		.4byte	.LVL238
 13361 122f 0100     		.2byte	0x1
 13362 1231 53       		.byte	0x53
 13363 1232 C0000000 		.4byte	.LVL238
 13364 1236 D2000000 		.4byte	.LVL241
 13365 123a 0B00     		.2byte	0xb
 13366 123c 91       		.byte	0x91
 13367 123d 5E       		.sleb128 -34
 13368 123e 94       		.byte	0x94
 13369 123f 02       		.byte	0x2
 13370 1240 0A       		.byte	0xa
 13371 1241 FFFF     		.2byte	0xffff
 13372 1243 1A       		.byte	0x1a
 13373 1244 38       		.byte	0x38
 13374 1245 25       		.byte	0x25
 13375 1246 9F       		.byte	0x9f
 13376 1247 00000000 		.4byte	0
 13377 124b 00000000 		.4byte	0
 13378              	.LLST146:
 13379 124f A2000000 		.4byte	.LVL235
 13380 1253 B6000000 		.4byte	.LVL236
 13381 1257 0100     		.2byte	0x1
 13382 1259 52       		.byte	0x52
 13383 125a 00000000 		.4byte	0
 13384 125e 00000000 		.4byte	0
 13385              	.LLST147:
 13386 1262 A2000000 		.4byte	.LVL235
 13387 1266 B6000000 		.4byte	.LVL236
 13388 126a 0100     		.2byte	0x1
 13389 126c 50       		.byte	0x50
ARM GAS  C:\Users\strap\AppData\Local\Temp\cc7bAV43.s 			page 280


 13390 126d 00000000 		.4byte	0
 13391 1271 00000000 		.4byte	0
 13392              	.LLST150:
 13393 1275 A2000000 		.4byte	.LVL235
 13394 1279 E2000000 		.4byte	.LVL245
 13395 127d 0300     		.2byte	0x3
 13396 127f 91       		.byte	0x91
 13397 1280 64       		.sleb128 -28
 13398 1281 9F       		.byte	0x9f
 13399 1282 00000000 		.4byte	0
 13400 1286 00000000 		.4byte	0
 13401              	.LLST151:
 13402 128a CC000000 		.4byte	.LVL239
 13403 128e D2000000 		.4byte	.LVL241
 13404 1292 0200     		.2byte	0x2
 13405 1294 32       		.byte	0x32
 13406 1295 9F       		.byte	0x9f
 13407 1296 D2000000 		.4byte	.LVL241
 13408 129a E2000000 		.4byte	.LVL245
 13409 129e 0100     		.2byte	0x1
 13410 12a0 52       		.byte	0x52
 13411 12a1 00000000 		.4byte	0
 13412 12a5 00000000 		.4byte	0
 13413              	.LLST152:
 13414 12a9 CC000000 		.4byte	.LVL239
 13415 12ad CE000000 		.4byte	.LVL240
 13416 12b1 0300     		.2byte	0x3
 13417 12b3 91       		.byte	0x91
 13418 12b4 5C       		.sleb128 -36
 13419 12b5 9F       		.byte	0x9f
 13420 12b6 CE000000 		.4byte	.LVL240
 13421 12ba D2000000 		.4byte	.LVL241
 13422 12be 0100     		.2byte	0x1
 13423 12c0 51       		.byte	0x51
 13424 12c1 D2000000 		.4byte	.LVL241
 13425 12c5 E2000000 		.4byte	.LVL245
 13426 12c9 0300     		.2byte	0x3
 13427 12cb 91       		.byte	0x91
 13428 12cc 5C       		.sleb128 -36
 13429 12cd 9F       		.byte	0x9f
 13430 12ce 00000000 		.4byte	0
 13431 12d2 00000000 		.4byte	0
 13432              	.LLST153:
 13433 12d6 CC000000 		.4byte	.LVL239
 13434 12da D2000000 		.4byte	.LVL241
 13435 12de 0100     		.2byte	0x1
 13436 12e0 53       		.byte	0x53
 13437 12e1 00000000 		.4byte	0
 13438 12e5 00000000 		.4byte	0
 13439              	.LLST154:
 13440 12e9 CC000000 		.4byte	.LVL239
 13441 12ed E2000000 		.4byte	.LVL245
 13442 12f1 0100     		.2byte	0x1
 13443 12f3 53       		.byte	0x53
 13444 12f4 00000000 		.4byte	0
 13445 12f8 00000000 		.4byte	0
 13446              	.LLST155:
ARM GAS  C:\Users\strap\AppData\Local\Temp\cc7bAV43.s 			page 281


 13447 12fc CC000000 		.4byte	.LVL239
 13448 1300 CE000000 		.4byte	.LVL240
 13449 1304 0300     		.2byte	0x3
 13450 1306 91       		.byte	0x91
 13451 1307 5C       		.sleb128 -36
 13452 1308 9F       		.byte	0x9f
 13453 1309 CE000000 		.4byte	.LVL240
 13454 130d D6000000 		.4byte	.LVL242
 13455 1311 0100     		.2byte	0x1
 13456 1313 51       		.byte	0x51
 13457 1314 D6000000 		.4byte	.LVL242
 13458 1318 DA000000 		.4byte	.LVL243
 13459 131c 0300     		.2byte	0x3
 13460 131e 71       		.byte	0x71
 13461 131f 7F       		.sleb128 -1
 13462 1320 9F       		.byte	0x9f
 13463 1321 DA000000 		.4byte	.LVL243
 13464 1325 E2000000 		.4byte	.LVL245
 13465 1329 0100     		.2byte	0x1
 13466 132b 51       		.byte	0x51
 13467 132c 00000000 		.4byte	0
 13468 1330 00000000 		.4byte	0
 13469              	.LLST156:
 13470 1334 FA000000 		.4byte	.LVL251
 13471 1338 04010000 		.4byte	.LVL253
 13472 133c 0100     		.2byte	0x1
 13473 133e 54       		.byte	0x54
 13474 133f 00000000 		.4byte	0
 13475 1343 00000000 		.4byte	0
 13476              	.LLST157:
 13477 1347 FA000000 		.4byte	.LVL251
 13478 134b 04010000 		.4byte	.LVL253
 13479 134f 0100     		.2byte	0x1
 13480 1351 55       		.byte	0x55
 13481 1352 00000000 		.4byte	0
 13482 1356 00000000 		.4byte	0
 13483              	.LLST158:
 13484 135a 1E010000 		.4byte	.LVL256
 13485 135e 26010000 		.4byte	.LVL258
 13486 1362 0200     		.2byte	0x2
 13487 1364 32       		.byte	0x32
 13488 1365 9F       		.byte	0x9f
 13489 1366 26010000 		.4byte	.LVL258
 13490 136a 34010000 		.4byte	.LVL262
 13491 136e 0100     		.2byte	0x1
 13492 1370 52       		.byte	0x52
 13493 1371 00000000 		.4byte	0
 13494 1375 00000000 		.4byte	0
 13495              	.LLST159:
 13496 1379 1E010000 		.4byte	.LVL256
 13497 137d 22010000 		.4byte	.LVL257
 13498 1381 0300     		.2byte	0x3
 13499 1383 91       		.byte	0x91
 13500 1384 5E       		.sleb128 -34
 13501 1385 9F       		.byte	0x9f
 13502 1386 22010000 		.4byte	.LVL257
 13503 138a 26010000 		.4byte	.LVL258
ARM GAS  C:\Users\strap\AppData\Local\Temp\cc7bAV43.s 			page 282


 13504 138e 0100     		.2byte	0x1
 13505 1390 51       		.byte	0x51
 13506 1391 26010000 		.4byte	.LVL258
 13507 1395 34010000 		.4byte	.LVL262
 13508 1399 0300     		.2byte	0x3
 13509 139b 91       		.byte	0x91
 13510 139c 5E       		.sleb128 -34
 13511 139d 9F       		.byte	0x9f
 13512 139e 00000000 		.4byte	0
 13513 13a2 00000000 		.4byte	0
 13514              	.LLST160:
 13515 13a6 1E010000 		.4byte	.LVL256
 13516 13aa 26010000 		.4byte	.LVL258
 13517 13ae 0100     		.2byte	0x1
 13518 13b0 53       		.byte	0x53
 13519 13b1 00000000 		.4byte	0
 13520 13b5 00000000 		.4byte	0
 13521              	.LLST161:
 13522 13b9 1E010000 		.4byte	.LVL256
 13523 13bd 38010000 		.4byte	.LVL263
 13524 13c1 0100     		.2byte	0x1
 13525 13c3 53       		.byte	0x53
 13526 13c4 00000000 		.4byte	0
 13527 13c8 00000000 		.4byte	0
 13528              	.LLST162:
 13529 13cc 1E010000 		.4byte	.LVL256
 13530 13d0 22010000 		.4byte	.LVL257
 13531 13d4 0300     		.2byte	0x3
 13532 13d6 91       		.byte	0x91
 13533 13d7 5E       		.sleb128 -34
 13534 13d8 9F       		.byte	0x9f
 13535 13d9 22010000 		.4byte	.LVL257
 13536 13dd 2A010000 		.4byte	.LVL259
 13537 13e1 0100     		.2byte	0x1
 13538 13e3 51       		.byte	0x51
 13539 13e4 2A010000 		.4byte	.LVL259
 13540 13e8 2E010000 		.4byte	.LVL260
 13541 13ec 0300     		.2byte	0x3
 13542 13ee 71       		.byte	0x71
 13543 13ef 7F       		.sleb128 -1
 13544 13f0 9F       		.byte	0x9f
 13545 13f1 2E010000 		.4byte	.LVL260
 13546 13f5 3C010000 		.4byte	.LVL265
 13547 13f9 0100     		.2byte	0x1
 13548 13fb 51       		.byte	0x51
 13549 13fc 00000000 		.4byte	0
 13550 1400 00000000 		.4byte	0
 13551              	.LLST163:
 13552 1404 3A010000 		.4byte	.LVL264
 13553 1408 40010000 		.4byte	.LVL266
 13554 140c 0200     		.2byte	0x2
 13555 140e 32       		.byte	0x32
 13556 140f 9F       		.byte	0x9f
 13557 1410 40010000 		.4byte	.LVL266
 13558 1414 4E010000 		.4byte	.LVL270
 13559 1418 0100     		.2byte	0x1
 13560 141a 52       		.byte	0x52
ARM GAS  C:\Users\strap\AppData\Local\Temp\cc7bAV43.s 			page 283


 13561 141b 00000000 		.4byte	0
 13562 141f 00000000 		.4byte	0
 13563              	.LLST164:
 13564 1423 3A010000 		.4byte	.LVL264
 13565 1427 3C010000 		.4byte	.LVL265
 13566 142b 0300     		.2byte	0x3
 13567 142d 91       		.byte	0x91
 13568 142e 5C       		.sleb128 -36
 13569 142f 9F       		.byte	0x9f
 13570 1430 3C010000 		.4byte	.LVL265
 13571 1434 40010000 		.4byte	.LVL266
 13572 1438 0100     		.2byte	0x1
 13573 143a 51       		.byte	0x51
 13574 143b 40010000 		.4byte	.LVL266
 13575 143f 4E010000 		.4byte	.LVL270
 13576 1443 0300     		.2byte	0x3
 13577 1445 91       		.byte	0x91
 13578 1446 5C       		.sleb128 -36
 13579 1447 9F       		.byte	0x9f
 13580 1448 00000000 		.4byte	0
 13581 144c 00000000 		.4byte	0
 13582              	.LLST165:
 13583 1450 3A010000 		.4byte	.LVL264
 13584 1454 40010000 		.4byte	.LVL266
 13585 1458 0100     		.2byte	0x1
 13586 145a 53       		.byte	0x53
 13587 145b 00000000 		.4byte	0
 13588 145f 00000000 		.4byte	0
 13589              	.LLST166:
 13590 1463 40010000 		.4byte	.LVL266
 13591 1467 50010000 		.4byte	.LVL271
 13592 146b 0100     		.2byte	0x1
 13593 146d 53       		.byte	0x53
 13594 146e 00000000 		.4byte	0
 13595 1472 00000000 		.4byte	0
 13596              	.LLST167:
 13597 1476 40010000 		.4byte	.LVL266
 13598 147a 44010000 		.4byte	.LVL267
 13599 147e 0100     		.2byte	0x1
 13600 1480 51       		.byte	0x51
 13601 1481 44010000 		.4byte	.LVL267
 13602 1485 48010000 		.4byte	.LVL268
 13603 1489 0300     		.2byte	0x3
 13604 148b 71       		.byte	0x71
 13605 148c 7F       		.sleb128 -1
 13606 148d 9F       		.byte	0x9f
 13607 148e 48010000 		.4byte	.LVL268
 13608 1492 58010000 		.4byte	.LVL273
 13609 1496 0100     		.2byte	0x1
 13610 1498 51       		.byte	0x51
 13611 1499 00000000 		.4byte	0
 13612 149d 00000000 		.4byte	0
 13613              	.LLST168:
 13614 14a1 54010000 		.4byte	.LVL272
 13615 14a5 5C010000 		.4byte	.LVL274
 13616 14a9 0200     		.2byte	0x2
 13617 14ab 32       		.byte	0x32
ARM GAS  C:\Users\strap\AppData\Local\Temp\cc7bAV43.s 			page 284


 13618 14ac 9F       		.byte	0x9f
 13619 14ad 5C010000 		.4byte	.LVL274
 13620 14b1 6A010000 		.4byte	.LVL278
 13621 14b5 0100     		.2byte	0x1
 13622 14b7 52       		.byte	0x52
 13623 14b8 00000000 		.4byte	0
 13624 14bc 00000000 		.4byte	0
 13625              	.LLST169:
 13626 14c0 54010000 		.4byte	.LVL272
 13627 14c4 58010000 		.4byte	.LVL273
 13628 14c8 0300     		.2byte	0x3
 13629 14ca 91       		.byte	0x91
 13630 14cb 66       		.sleb128 -26
 13631 14cc 9F       		.byte	0x9f
 13632 14cd 58010000 		.4byte	.LVL273
 13633 14d1 5C010000 		.4byte	.LVL274
 13634 14d5 0100     		.2byte	0x1
 13635 14d7 51       		.byte	0x51
 13636 14d8 5C010000 		.4byte	.LVL274
 13637 14dc 6A010000 		.4byte	.LVL278
 13638 14e0 0300     		.2byte	0x3
 13639 14e2 91       		.byte	0x91
 13640 14e3 66       		.sleb128 -26
 13641 14e4 9F       		.byte	0x9f
 13642 14e5 00000000 		.4byte	0
 13643 14e9 00000000 		.4byte	0
 13644              	.LLST170:
 13645 14ed 54010000 		.4byte	.LVL272
 13646 14f1 5C010000 		.4byte	.LVL274
 13647 14f5 0100     		.2byte	0x1
 13648 14f7 53       		.byte	0x53
 13649 14f8 00000000 		.4byte	0
 13650 14fc 00000000 		.4byte	0
 13651              	.LLST171:
 13652 1500 5C010000 		.4byte	.LVL274
 13653 1504 6A010000 		.4byte	.LVL278
 13654 1508 0100     		.2byte	0x1
 13655 150a 53       		.byte	0x53
 13656 150b 00000000 		.4byte	0
 13657 150f 00000000 		.4byte	0
 13658              	.LLST172:
 13659 1513 5C010000 		.4byte	.LVL274
 13660 1517 60010000 		.4byte	.LVL275
 13661 151b 0100     		.2byte	0x1
 13662 151d 51       		.byte	0x51
 13663 151e 60010000 		.4byte	.LVL275
 13664 1522 64010000 		.4byte	.LVL276
 13665 1526 0300     		.2byte	0x3
 13666 1528 71       		.byte	0x71
 13667 1529 7F       		.sleb128 -1
 13668 152a 9F       		.byte	0x9f
 13669 152b 64010000 		.4byte	.LVL276
 13670 152f 6A010000 		.4byte	.LVL278
 13671 1533 0100     		.2byte	0x1
 13672 1535 51       		.byte	0x51
 13673 1536 00000000 		.4byte	0
 13674 153a 00000000 		.4byte	0
ARM GAS  C:\Users\strap\AppData\Local\Temp\cc7bAV43.s 			page 285


 13675              	.LLST173:
 13676 153e 00000000 		.4byte	.LVL279
 13677 1542 D4000000 		.4byte	.LVL310
 13678 1546 0100     		.2byte	0x1
 13679 1548 50       		.byte	0x50
 13680 1549 D4000000 		.4byte	.LVL310
 13681 154d E4000000 		.4byte	.LVL314
 13682 1551 0400     		.2byte	0x4
 13683 1553 F3       		.byte	0xf3
 13684 1554 01       		.uleb128 0x1
 13685 1555 50       		.byte	0x50
 13686 1556 9F       		.byte	0x9f
 13687 1557 E4000000 		.4byte	.LVL314
 13688 155b EF000000 		.4byte	.LVL317-1
 13689 155f 0100     		.2byte	0x1
 13690 1561 50       		.byte	0x50
 13691 1562 EF000000 		.4byte	.LVL317-1
 13692 1566 6E010000 		.4byte	.LVL347
 13693 156a 0100     		.2byte	0x1
 13694 156c 55       		.byte	0x55
 13695 156d 6E010000 		.4byte	.LVL347
 13696 1571 78010000 		.4byte	.LFE340
 13697 1575 0400     		.2byte	0x4
 13698 1577 F3       		.byte	0xf3
 13699 1578 01       		.uleb128 0x1
 13700 1579 50       		.byte	0x50
 13701 157a 9F       		.byte	0x9f
 13702 157b 00000000 		.4byte	0
 13703 157f 00000000 		.4byte	0
 13704              	.LLST174:
 13705 1583 00000000 		.4byte	.LVL279
 13706 1587 20000000 		.4byte	.LVL284
 13707 158b 0100     		.2byte	0x1
 13708 158d 51       		.byte	0x51
 13709 158e 20000000 		.4byte	.LVL284
 13710 1592 9A000000 		.4byte	.LVL302
 13711 1596 0200     		.2byte	0x2
 13712 1598 91       		.byte	0x91
 13713 1599 5E       		.sleb128 -34
 13714 159a 9A000000 		.4byte	.LVL302
 13715 159e 9E000000 		.4byte	.LVL303
 13716 15a2 0100     		.2byte	0x1
 13717 15a4 51       		.byte	0x51
 13718 15a5 9E000000 		.4byte	.LVL303
 13719 15a9 D4000000 		.4byte	.LVL310
 13720 15ad 0200     		.2byte	0x2
 13721 15af 91       		.byte	0x91
 13722 15b0 5E       		.sleb128 -34
 13723 15b1 D4000000 		.4byte	.LVL310
 13724 15b5 E4000000 		.4byte	.LVL314
 13725 15b9 0400     		.2byte	0x4
 13726 15bb F3       		.byte	0xf3
 13727 15bc 01       		.uleb128 0x1
 13728 15bd 51       		.byte	0x51
 13729 15be 9F       		.byte	0x9f
 13730 15bf E4000000 		.4byte	.LVL314
 13731 15c3 24010000 		.4byte	.LVL326
ARM GAS  C:\Users\strap\AppData\Local\Temp\cc7bAV43.s 			page 286


 13732 15c7 0200     		.2byte	0x2
 13733 15c9 91       		.byte	0x91
 13734 15ca 5E       		.sleb128 -34
 13735 15cb 24010000 		.4byte	.LVL326
 13736 15cf 28010000 		.4byte	.LVL327
 13737 15d3 0200     		.2byte	0x2
 13738 15d5 71       		.byte	0x71
 13739 15d6 00       		.sleb128 0
 13740 15d7 28010000 		.4byte	.LVL327
 13741 15db 6E010000 		.4byte	.LVL347
 13742 15df 0200     		.2byte	0x2
 13743 15e1 91       		.byte	0x91
 13744 15e2 5E       		.sleb128 -34
 13745 15e3 00000000 		.4byte	0
 13746 15e7 00000000 		.4byte	0
 13747              	.LLST175:
 13748 15eb 00000000 		.4byte	.LVL279
 13749 15ef 18000000 		.4byte	.LVL283
 13750 15f3 0100     		.2byte	0x1
 13751 15f5 52       		.byte	0x52
 13752 15f6 18000000 		.4byte	.LVL283
 13753 15fa 9A000000 		.4byte	.LVL302
 13754 15fe 0200     		.2byte	0x2
 13755 1600 91       		.byte	0x91
 13756 1601 5D       		.sleb128 -35
 13757 1602 9A000000 		.4byte	.LVL302
 13758 1606 9E000000 		.4byte	.LVL303
 13759 160a 0100     		.2byte	0x1
 13760 160c 52       		.byte	0x52
 13761 160d 9E000000 		.4byte	.LVL303
 13762 1611 D0000000 		.4byte	.LVL309
 13763 1615 0200     		.2byte	0x2
 13764 1617 91       		.byte	0x91
 13765 1618 5D       		.sleb128 -35
 13766 1619 D0000000 		.4byte	.LVL309
 13767 161d D4000000 		.4byte	.LVL310
 13768 1621 0200     		.2byte	0x2
 13769 1623 71       		.byte	0x71
 13770 1624 00       		.sleb128 0
 13771 1625 D4000000 		.4byte	.LVL310
 13772 1629 E4000000 		.4byte	.LVL314
 13773 162d 0400     		.2byte	0x4
 13774 162f F3       		.byte	0xf3
 13775 1630 01       		.uleb128 0x1
 13776 1631 52       		.byte	0x52
 13777 1632 9F       		.byte	0x9f
 13778 1633 E4000000 		.4byte	.LVL314
 13779 1637 40010000 		.4byte	.LVL334
 13780 163b 0200     		.2byte	0x2
 13781 163d 91       		.byte	0x91
 13782 163e 5D       		.sleb128 -35
 13783 163f 40010000 		.4byte	.LVL334
 13784 1643 44010000 		.4byte	.LVL335
 13785 1647 0200     		.2byte	0x2
 13786 1649 71       		.byte	0x71
 13787 164a 00       		.sleb128 0
 13788 164b 44010000 		.4byte	.LVL335
ARM GAS  C:\Users\strap\AppData\Local\Temp\cc7bAV43.s 			page 287


 13789 164f 6E010000 		.4byte	.LVL347
 13790 1653 0200     		.2byte	0x2
 13791 1655 91       		.byte	0x91
 13792 1656 5D       		.sleb128 -35
 13793 1657 00000000 		.4byte	0
 13794 165b 00000000 		.4byte	0
 13795              	.LLST176:
 13796 165f E6000000 		.4byte	.LVL315
 13797 1663 6E010000 		.4byte	.LVL347
 13798 1667 0200     		.2byte	0x2
 13799 1669 33       		.byte	0x33
 13800 166a 9F       		.byte	0x9f
 13801 166b 00000000 		.4byte	0
 13802 166f 00000000 		.4byte	0
 13803              	.LLST177:
 13804 1673 EC000000 		.4byte	.LVL316
 13805 1677 6E010000 		.4byte	.LVL347
 13806 167b 0200     		.2byte	0x2
 13807 167d 32       		.byte	0x32
 13808 167e 9F       		.byte	0x9f
 13809 167f 00000000 		.4byte	0
 13810 1683 00000000 		.4byte	0
 13811              	.LLST178:
 13812 1687 F0000000 		.4byte	.LVL317
 13813 168b F8000000 		.4byte	.LVL318
 13814 168f 0100     		.2byte	0x1
 13815 1691 50       		.byte	0x50
 13816 1692 F8000000 		.4byte	.LVL318
 13817 1696 FA000000 		.4byte	.LVL319
 13818 169a 0100     		.2byte	0x1
 13819 169c 53       		.byte	0x53
 13820 169d 00000000 		.4byte	0
 13821 16a1 00000000 		.4byte	0
 13822              	.LLST179:
 13823 16a5 0C000000 		.4byte	.LVL280
 13824 16a9 20000000 		.4byte	.LVL284
 13825 16ad 0100     		.2byte	0x1
 13826 16af 51       		.byte	0x51
 13827 16b0 20000000 		.4byte	.LVL284
 13828 16b4 9A000000 		.4byte	.LVL302
 13829 16b8 0200     		.2byte	0x2
 13830 16ba 91       		.byte	0x91
 13831 16bb 5E       		.sleb128 -34
 13832 16bc 9A000000 		.4byte	.LVL302
 13833 16c0 9E000000 		.4byte	.LVL303
 13834 16c4 0100     		.2byte	0x1
 13835 16c6 51       		.byte	0x51
 13836 16c7 00000000 		.4byte	0
 13837 16cb 00000000 		.4byte	0
 13838              	.LLST180:
 13839 16cf 0C000000 		.4byte	.LVL280
 13840 16d3 9E000000 		.4byte	.LVL303
 13841 16d7 0100     		.2byte	0x1
 13842 16d9 50       		.byte	0x50
 13843 16da 00000000 		.4byte	0
 13844 16de 00000000 		.4byte	0
 13845              	.LLST181:
ARM GAS  C:\Users\strap\AppData\Local\Temp\cc7bAV43.s 			page 288


 13846 16e2 14000000 		.4byte	.LVL281
 13847 16e6 9A000000 		.4byte	.LVL302
 13848 16ea 0100     		.2byte	0x1
 13849 16ec 56       		.byte	0x56
 13850 16ed 00000000 		.4byte	0
 13851 16f1 00000000 		.4byte	0
 13852              	.LLST182:
 13853 16f5 16000000 		.4byte	.LVL282
 13854 16f9 9A000000 		.4byte	.LVL302
 13855 16fd 0100     		.2byte	0x1
 13856 16ff 55       		.byte	0x55
 13857 1700 00000000 		.4byte	0
 13858 1704 00000000 		.4byte	0
 13859              	.LLST183:
 13860 1708 16000000 		.4byte	.LVL282
 13861 170c 20000000 		.4byte	.LVL284
 13862 1710 0300     		.2byte	0x3
 13863 1712 09       		.byte	0x9
 13864 1713 FF       		.byte	0xff
 13865 1714 9F       		.byte	0x9f
 13866 1715 20000000 		.4byte	.LVL284
 13867 1719 9A000000 		.4byte	.LVL302
 13868 171d 0100     		.2byte	0x1
 13869 171f 57       		.byte	0x57
 13870 1720 00000000 		.4byte	0
 13871 1724 00000000 		.4byte	0
 13872              	.LLST184:
 13873 1728 16000000 		.4byte	.LVL282
 13874 172c 20000000 		.4byte	.LVL284
 13875 1730 0300     		.2byte	0x3
 13876 1732 09       		.byte	0x9
 13877 1733 FF       		.byte	0xff
 13878 1734 9F       		.byte	0x9f
 13879 1735 20000000 		.4byte	.LVL284
 13880 1739 9A000000 		.4byte	.LVL302
 13881 173d 0100     		.2byte	0x1
 13882 173f 54       		.byte	0x54
 13883 1740 00000000 		.4byte	0
 13884 1744 00000000 		.4byte	0
 13885              	.LLST185:
 13886 1748 16000000 		.4byte	.LVL282
 13887 174c 20000000 		.4byte	.LVL284
 13888 1750 0200     		.2byte	0x2
 13889 1752 30       		.byte	0x30
 13890 1753 9F       		.byte	0x9f
 13891 1754 20000000 		.4byte	.LVL284
 13892 1758 98000000 		.4byte	.LVL301
 13893 175c 0100     		.2byte	0x1
 13894 175e 52       		.byte	0x52
 13895 175f 98000000 		.4byte	.LVL301
 13896 1763 9A000000 		.4byte	.LVL302
 13897 1767 0300     		.2byte	0x3
 13898 1769 71       		.byte	0x71
 13899 176a 7F       		.sleb128 -1
 13900 176b 9F       		.byte	0x9f
 13901 176c 00000000 		.4byte	0
 13902 1770 00000000 		.4byte	0
ARM GAS  C:\Users\strap\AppData\Local\Temp\cc7bAV43.s 			page 289


 13903              	.LLST186:
 13904 1774 24000000 		.4byte	.LVL285
 13905 1778 3E000000 		.4byte	.LVL287
 13906 177c 0100     		.2byte	0x1
 13907 177e 52       		.byte	0x52
 13908 177f 00000000 		.4byte	0
 13909 1783 00000000 		.4byte	0
 13910              	.LLST187:
 13911 1787 24000000 		.4byte	.LVL285
 13912 178b 3E000000 		.4byte	.LVL287
 13913 178f 0100     		.2byte	0x1
 13914 1791 50       		.byte	0x50
 13915 1792 00000000 		.4byte	0
 13916 1796 00000000 		.4byte	0
 13917              	.LLST188:
 13918 179a 24000000 		.4byte	.LVL285
 13919 179e 3C000000 		.4byte	.LVL286
 13920 17a2 0100     		.2byte	0x1
 13921 17a4 52       		.byte	0x52
 13922 17a5 00000000 		.4byte	0
 13923 17a9 00000000 		.4byte	0
 13924              	.LLST189:
 13925 17ad 24000000 		.4byte	.LVL285
 13926 17b1 3C000000 		.4byte	.LVL286
 13927 17b5 0100     		.2byte	0x1
 13928 17b7 50       		.byte	0x50
 13929 17b8 00000000 		.4byte	0
 13930 17bc 00000000 		.4byte	0
 13931              	.LLST190:
 13932 17c0 24000000 		.4byte	.LVL285
 13933 17c4 5E000000 		.4byte	.LVL289
 13934 17c8 0300     		.2byte	0x3
 13935 17ca 91       		.byte	0x91
 13936 17cb 64       		.sleb128 -28
 13937 17cc 9F       		.byte	0x9f
 13938 17cd 00000000 		.4byte	0
 13939 17d1 00000000 		.4byte	0
 13940              	.LLST191:
 13941 17d5 5E000000 		.4byte	.LVL289
 13942 17d9 7E000000 		.4byte	.LVL298
 13943 17dd 0100     		.2byte	0x1
 13944 17df 52       		.byte	0x52
 13945 17e0 00000000 		.4byte	0
 13946 17e4 00000000 		.4byte	0
 13947              	.LLST192:
 13948 17e8 62000000 		.4byte	.LVL290
 13949 17ec 70000000 		.4byte	.LVL291
 13950 17f0 0100     		.2byte	0x1
 13951 17f2 53       		.byte	0x53
 13952 17f3 72000000 		.4byte	.LVL292
 13953 17f7 74000000 		.4byte	.LVL293
 13954 17fb 0100     		.2byte	0x1
 13955 17fd 53       		.byte	0x53
 13956 17fe 76000000 		.4byte	.LVL294
 13957 1802 78000000 		.4byte	.LVL295
 13958 1806 0100     		.2byte	0x1
 13959 1808 53       		.byte	0x53
ARM GAS  C:\Users\strap\AppData\Local\Temp\cc7bAV43.s 			page 290


 13960 1809 7A000000 		.4byte	.LVL296
 13961 180d 7C000000 		.4byte	.LVL297
 13962 1811 0100     		.2byte	0x1
 13963 1813 53       		.byte	0x53
 13964 1814 00000000 		.4byte	0
 13965 1818 00000000 		.4byte	0
 13966              	.LLST193:
 13967 181c 62000000 		.4byte	.LVL290
 13968 1820 7C000000 		.4byte	.LVL297
 13969 1824 0200     		.2byte	0x2
 13970 1826 32       		.byte	0x32
 13971 1827 9F       		.byte	0x9f
 13972 1828 00000000 		.4byte	0
 13973 182c 00000000 		.4byte	0
 13974              	.LLST194:
 13975 1830 7E000000 		.4byte	.LVL298
 13976 1834 92000000 		.4byte	.LVL300
 13977 1838 0100     		.2byte	0x1
 13978 183a 52       		.byte	0x52
 13979 183b 00000000 		.4byte	0
 13980 183f 00000000 		.4byte	0
 13981              	.LLST195:
 13982 1843 7E000000 		.4byte	.LVL298
 13983 1847 92000000 		.4byte	.LVL300
 13984 184b 0100     		.2byte	0x1
 13985 184d 50       		.byte	0x50
 13986 184e 00000000 		.4byte	0
 13987 1852 00000000 		.4byte	0
 13988              	.LLST196:
 13989 1856 7E000000 		.4byte	.LVL298
 13990 185a 8E000000 		.4byte	.LVL299
 13991 185e 0100     		.2byte	0x1
 13992 1860 52       		.byte	0x52
 13993 1861 00000000 		.4byte	0
 13994 1865 00000000 		.4byte	0
 13995              	.LLST197:
 13996 1869 7E000000 		.4byte	.LVL298
 13997 186d 8E000000 		.4byte	.LVL299
 13998 1871 0100     		.2byte	0x1
 13999 1873 50       		.byte	0x50
 14000 1874 00000000 		.4byte	0
 14001 1878 00000000 		.4byte	0
 14002              	.LLST198:
 14003 187c 20000000 		.4byte	.LVL284
 14004 1880 9A000000 		.4byte	.LVL302
 14005 1884 0300     		.2byte	0x3
 14006 1886 91       		.byte	0x91
 14007 1887 64       		.sleb128 -28
 14008 1888 9F       		.byte	0x9f
 14009 1889 00000000 		.4byte	0
 14010 188d 00000000 		.4byte	0
 14011              	.LLST199:
 14012 1891 BC000000 		.4byte	.LVL306
 14013 1895 C0000000 		.4byte	.LVL307
 14014 1899 0100     		.2byte	0x1
 14015 189b 53       		.byte	0x53
 14016 189c C0000000 		.4byte	.LVL307
ARM GAS  C:\Users\strap\AppData\Local\Temp\cc7bAV43.s 			page 291


 14017 18a0 D4000000 		.4byte	.LVL310
 14018 18a4 0B00     		.2byte	0xb
 14019 18a6 91       		.byte	0x91
 14020 18a7 5E       		.sleb128 -34
 14021 18a8 94       		.byte	0x94
 14022 18a9 02       		.byte	0x2
 14023 18aa 0A       		.byte	0xa
 14024 18ab FFFF     		.2byte	0xffff
 14025 18ad 1A       		.byte	0x1a
 14026 18ae 38       		.byte	0x38
 14027 18af 25       		.byte	0x25
 14028 18b0 9F       		.byte	0x9f
 14029 18b1 00000000 		.4byte	0
 14030 18b5 00000000 		.4byte	0
 14031              	.LLST200:
 14032 18b9 A2000000 		.4byte	.LVL304
 14033 18bd B6000000 		.4byte	.LVL305
 14034 18c1 0100     		.2byte	0x1
 14035 18c3 52       		.byte	0x52
 14036 18c4 00000000 		.4byte	0
 14037 18c8 00000000 		.4byte	0
 14038              	.LLST201:
 14039 18cc A2000000 		.4byte	.LVL304
 14040 18d0 B6000000 		.4byte	.LVL305
 14041 18d4 0100     		.2byte	0x1
 14042 18d6 50       		.byte	0x50
 14043 18d7 00000000 		.4byte	0
 14044 18db 00000000 		.4byte	0
 14045              	.LLST204:
 14046 18df A2000000 		.4byte	.LVL304
 14047 18e3 E4000000 		.4byte	.LVL314
 14048 18e7 0300     		.2byte	0x3
 14049 18e9 91       		.byte	0x91
 14050 18ea 64       		.sleb128 -28
 14051 18eb 9F       		.byte	0x9f
 14052 18ec 00000000 		.4byte	0
 14053 18f0 00000000 		.4byte	0
 14054              	.LLST205:
 14055 18f4 CC000000 		.4byte	.LVL308
 14056 18f8 D4000000 		.4byte	.LVL310
 14057 18fc 0200     		.2byte	0x2
 14058 18fe 31       		.byte	0x31
 14059 18ff 9F       		.byte	0x9f
 14060 1900 D4000000 		.4byte	.LVL310
 14061 1904 E4000000 		.4byte	.LVL314
 14062 1908 0100     		.2byte	0x1
 14063 190a 52       		.byte	0x52
 14064 190b 00000000 		.4byte	0
 14065 190f 00000000 		.4byte	0
 14066              	.LLST206:
 14067 1913 CC000000 		.4byte	.LVL308
 14068 1917 D0000000 		.4byte	.LVL309
 14069 191b 0300     		.2byte	0x3
 14070 191d 91       		.byte	0x91
 14071 191e 5D       		.sleb128 -35
 14072 191f 9F       		.byte	0x9f
 14073 1920 D0000000 		.4byte	.LVL309
ARM GAS  C:\Users\strap\AppData\Local\Temp\cc7bAV43.s 			page 292


 14074 1924 D4000000 		.4byte	.LVL310
 14075 1928 0100     		.2byte	0x1
 14076 192a 51       		.byte	0x51
 14077 192b D4000000 		.4byte	.LVL310
 14078 192f E4000000 		.4byte	.LVL314
 14079 1933 0300     		.2byte	0x3
 14080 1935 91       		.byte	0x91
 14081 1936 5D       		.sleb128 -35
 14082 1937 9F       		.byte	0x9f
 14083 1938 00000000 		.4byte	0
 14084 193c 00000000 		.4byte	0
 14085              	.LLST207:
 14086 1940 CC000000 		.4byte	.LVL308
 14087 1944 D4000000 		.4byte	.LVL310
 14088 1948 0100     		.2byte	0x1
 14089 194a 53       		.byte	0x53
 14090 194b 00000000 		.4byte	0
 14091 194f 00000000 		.4byte	0
 14092              	.LLST208:
 14093 1953 CC000000 		.4byte	.LVL308
 14094 1957 E4000000 		.4byte	.LVL314
 14095 195b 0100     		.2byte	0x1
 14096 195d 53       		.byte	0x53
 14097 195e 00000000 		.4byte	0
 14098 1962 00000000 		.4byte	0
 14099              	.LLST209:
 14100 1966 CC000000 		.4byte	.LVL308
 14101 196a D0000000 		.4byte	.LVL309
 14102 196e 0300     		.2byte	0x3
 14103 1970 91       		.byte	0x91
 14104 1971 5D       		.sleb128 -35
 14105 1972 9F       		.byte	0x9f
 14106 1973 D0000000 		.4byte	.LVL309
 14107 1977 D8000000 		.4byte	.LVL311
 14108 197b 0100     		.2byte	0x1
 14109 197d 51       		.byte	0x51
 14110 197e D8000000 		.4byte	.LVL311
 14111 1982 DC000000 		.4byte	.LVL312
 14112 1986 0300     		.2byte	0x3
 14113 1988 71       		.byte	0x71
 14114 1989 7F       		.sleb128 -1
 14115 198a 9F       		.byte	0x9f
 14116 198b DC000000 		.4byte	.LVL312
 14117 198f E4000000 		.4byte	.LVL314
 14118 1993 0100     		.2byte	0x1
 14119 1995 51       		.byte	0x51
 14120 1996 00000000 		.4byte	0
 14121 199a 00000000 		.4byte	0
 14122              	.LLST210:
 14123 199e FC000000 		.4byte	.LVL320
 14124 19a2 06010000 		.4byte	.LVL322
 14125 19a6 0100     		.2byte	0x1
 14126 19a8 54       		.byte	0x54
 14127 19a9 00000000 		.4byte	0
 14128 19ad 00000000 		.4byte	0
 14129              	.LLST211:
 14130 19b1 FC000000 		.4byte	.LVL320
ARM GAS  C:\Users\strap\AppData\Local\Temp\cc7bAV43.s 			page 293


 14131 19b5 06010000 		.4byte	.LVL322
 14132 19b9 0100     		.2byte	0x1
 14133 19bb 55       		.byte	0x55
 14134 19bc 00000000 		.4byte	0
 14135 19c0 00000000 		.4byte	0
 14136              	.LLST212:
 14137 19c4 20010000 		.4byte	.LVL325
 14138 19c8 28010000 		.4byte	.LVL327
 14139 19cc 0200     		.2byte	0x2
 14140 19ce 32       		.byte	0x32
 14141 19cf 9F       		.byte	0x9f
 14142 19d0 28010000 		.4byte	.LVL327
 14143 19d4 36010000 		.4byte	.LVL331
 14144 19d8 0100     		.2byte	0x1
 14145 19da 52       		.byte	0x52
 14146 19db 00000000 		.4byte	0
 14147 19df 00000000 		.4byte	0
 14148              	.LLST213:
 14149 19e3 20010000 		.4byte	.LVL325
 14150 19e7 24010000 		.4byte	.LVL326
 14151 19eb 0300     		.2byte	0x3
 14152 19ed 91       		.byte	0x91
 14153 19ee 5E       		.sleb128 -34
 14154 19ef 9F       		.byte	0x9f
 14155 19f0 24010000 		.4byte	.LVL326
 14156 19f4 28010000 		.4byte	.LVL327
 14157 19f8 0100     		.2byte	0x1
 14158 19fa 51       		.byte	0x51
 14159 19fb 28010000 		.4byte	.LVL327
 14160 19ff 36010000 		.4byte	.LVL331
 14161 1a03 0300     		.2byte	0x3
 14162 1a05 91       		.byte	0x91
 14163 1a06 5E       		.sleb128 -34
 14164 1a07 9F       		.byte	0x9f
 14165 1a08 00000000 		.4byte	0
 14166 1a0c 00000000 		.4byte	0
 14167              	.LLST214:
 14168 1a10 20010000 		.4byte	.LVL325
 14169 1a14 28010000 		.4byte	.LVL327
 14170 1a18 0100     		.2byte	0x1
 14171 1a1a 53       		.byte	0x53
 14172 1a1b 00000000 		.4byte	0
 14173 1a1f 00000000 		.4byte	0
 14174              	.LLST215:
 14175 1a23 20010000 		.4byte	.LVL325
 14176 1a27 3A010000 		.4byte	.LVL332
 14177 1a2b 0100     		.2byte	0x1
 14178 1a2d 53       		.byte	0x53
 14179 1a2e 00000000 		.4byte	0
 14180 1a32 00000000 		.4byte	0
 14181              	.LLST216:
 14182 1a36 20010000 		.4byte	.LVL325
 14183 1a3a 24010000 		.4byte	.LVL326
 14184 1a3e 0300     		.2byte	0x3
 14185 1a40 91       		.byte	0x91
 14186 1a41 5E       		.sleb128 -34
 14187 1a42 9F       		.byte	0x9f
ARM GAS  C:\Users\strap\AppData\Local\Temp\cc7bAV43.s 			page 294


 14188 1a43 24010000 		.4byte	.LVL326
 14189 1a47 2C010000 		.4byte	.LVL328
 14190 1a4b 0100     		.2byte	0x1
 14191 1a4d 51       		.byte	0x51
 14192 1a4e 2C010000 		.4byte	.LVL328
 14193 1a52 30010000 		.4byte	.LVL329
 14194 1a56 0300     		.2byte	0x3
 14195 1a58 71       		.byte	0x71
 14196 1a59 7F       		.sleb128 -1
 14197 1a5a 9F       		.byte	0x9f
 14198 1a5b 30010000 		.4byte	.LVL329
 14199 1a5f 40010000 		.4byte	.LVL334
 14200 1a63 0100     		.2byte	0x1
 14201 1a65 51       		.byte	0x51
 14202 1a66 00000000 		.4byte	0
 14203 1a6a 00000000 		.4byte	0
 14204              	.LLST217:
 14205 1a6e 3C010000 		.4byte	.LVL333
 14206 1a72 44010000 		.4byte	.LVL335
 14207 1a76 0200     		.2byte	0x2
 14208 1a78 31       		.byte	0x31
 14209 1a79 9F       		.byte	0x9f
 14210 1a7a 44010000 		.4byte	.LVL335
 14211 1a7e 52010000 		.4byte	.LVL339
 14212 1a82 0100     		.2byte	0x1
 14213 1a84 52       		.byte	0x52
 14214 1a85 00000000 		.4byte	0
 14215 1a89 00000000 		.4byte	0
 14216              	.LLST218:
 14217 1a8d 3C010000 		.4byte	.LVL333
 14218 1a91 40010000 		.4byte	.LVL334
 14219 1a95 0300     		.2byte	0x3
 14220 1a97 91       		.byte	0x91
 14221 1a98 5D       		.sleb128 -35
 14222 1a99 9F       		.byte	0x9f
 14223 1a9a 40010000 		.4byte	.LVL334
 14224 1a9e 44010000 		.4byte	.LVL335
 14225 1aa2 0100     		.2byte	0x1
 14226 1aa4 51       		.byte	0x51
 14227 1aa5 44010000 		.4byte	.LVL335
 14228 1aa9 52010000 		.4byte	.LVL339
 14229 1aad 0300     		.2byte	0x3
 14230 1aaf 91       		.byte	0x91
 14231 1ab0 5D       		.sleb128 -35
 14232 1ab1 9F       		.byte	0x9f
 14233 1ab2 00000000 		.4byte	0
 14234 1ab6 00000000 		.4byte	0
 14235              	.LLST219:
 14236 1aba 3C010000 		.4byte	.LVL333
 14237 1abe 44010000 		.4byte	.LVL335
 14238 1ac2 0100     		.2byte	0x1
 14239 1ac4 53       		.byte	0x53
 14240 1ac5 00000000 		.4byte	0
 14241 1ac9 00000000 		.4byte	0
 14242              	.LLST220:
 14243 1acd 44010000 		.4byte	.LVL335
 14244 1ad1 54010000 		.4byte	.LVL340
ARM GAS  C:\Users\strap\AppData\Local\Temp\cc7bAV43.s 			page 295


 14245 1ad5 0100     		.2byte	0x1
 14246 1ad7 53       		.byte	0x53
 14247 1ad8 00000000 		.4byte	0
 14248 1adc 00000000 		.4byte	0
 14249              	.LLST221:
 14250 1ae0 44010000 		.4byte	.LVL335
 14251 1ae4 48010000 		.4byte	.LVL336
 14252 1ae8 0100     		.2byte	0x1
 14253 1aea 51       		.byte	0x51
 14254 1aeb 48010000 		.4byte	.LVL336
 14255 1aef 4C010000 		.4byte	.LVL337
 14256 1af3 0300     		.2byte	0x3
 14257 1af5 71       		.byte	0x71
 14258 1af6 7F       		.sleb128 -1
 14259 1af7 9F       		.byte	0x9f
 14260 1af8 4C010000 		.4byte	.LVL337
 14261 1afc 5C010000 		.4byte	.LVL342
 14262 1b00 0100     		.2byte	0x1
 14263 1b02 51       		.byte	0x51
 14264 1b03 00000000 		.4byte	0
 14265 1b07 00000000 		.4byte	0
 14266              	.LLST222:
 14267 1b0b 58010000 		.4byte	.LVL341
 14268 1b0f 60010000 		.4byte	.LVL343
 14269 1b13 0200     		.2byte	0x2
 14270 1b15 32       		.byte	0x32
 14271 1b16 9F       		.byte	0x9f
 14272 1b17 60010000 		.4byte	.LVL343
 14273 1b1b 6E010000 		.4byte	.LVL347
 14274 1b1f 0100     		.2byte	0x1
 14275 1b21 52       		.byte	0x52
 14276 1b22 00000000 		.4byte	0
 14277 1b26 00000000 		.4byte	0
 14278              	.LLST223:
 14279 1b2a 58010000 		.4byte	.LVL341
 14280 1b2e 5C010000 		.4byte	.LVL342
 14281 1b32 0300     		.2byte	0x3
 14282 1b34 91       		.byte	0x91
 14283 1b35 66       		.sleb128 -26
 14284 1b36 9F       		.byte	0x9f
 14285 1b37 5C010000 		.4byte	.LVL342
 14286 1b3b 60010000 		.4byte	.LVL343
 14287 1b3f 0100     		.2byte	0x1
 14288 1b41 51       		.byte	0x51
 14289 1b42 60010000 		.4byte	.LVL343
 14290 1b46 6E010000 		.4byte	.LVL347
 14291 1b4a 0300     		.2byte	0x3
 14292 1b4c 91       		.byte	0x91
 14293 1b4d 66       		.sleb128 -26
 14294 1b4e 9F       		.byte	0x9f
 14295 1b4f 00000000 		.4byte	0
 14296 1b53 00000000 		.4byte	0
 14297              	.LLST224:
 14298 1b57 58010000 		.4byte	.LVL341
 14299 1b5b 60010000 		.4byte	.LVL343
 14300 1b5f 0100     		.2byte	0x1
 14301 1b61 53       		.byte	0x53
ARM GAS  C:\Users\strap\AppData\Local\Temp\cc7bAV43.s 			page 296


 14302 1b62 00000000 		.4byte	0
 14303 1b66 00000000 		.4byte	0
 14304              	.LLST225:
 14305 1b6a 60010000 		.4byte	.LVL343
 14306 1b6e 6E010000 		.4byte	.LVL347
 14307 1b72 0100     		.2byte	0x1
 14308 1b74 53       		.byte	0x53
 14309 1b75 00000000 		.4byte	0
 14310 1b79 00000000 		.4byte	0
 14311              	.LLST226:
 14312 1b7d 60010000 		.4byte	.LVL343
 14313 1b81 64010000 		.4byte	.LVL344
 14314 1b85 0100     		.2byte	0x1
 14315 1b87 51       		.byte	0x51
 14316 1b88 64010000 		.4byte	.LVL344
 14317 1b8c 68010000 		.4byte	.LVL345
 14318 1b90 0300     		.2byte	0x3
 14319 1b92 71       		.byte	0x71
 14320 1b93 7F       		.sleb128 -1
 14321 1b94 9F       		.byte	0x9f
 14322 1b95 68010000 		.4byte	.LVL345
 14323 1b99 6E010000 		.4byte	.LVL347
 14324 1b9d 0100     		.2byte	0x1
 14325 1b9f 51       		.byte	0x51
 14326 1ba0 00000000 		.4byte	0
 14327 1ba4 00000000 		.4byte	0
 14328              	.LLST227:
 14329 1ba8 00000000 		.4byte	.LVL348
 14330 1bac D0000000 		.4byte	.LVL378
 14331 1bb0 0100     		.2byte	0x1
 14332 1bb2 50       		.byte	0x50
 14333 1bb3 D0000000 		.4byte	.LVL378
 14334 1bb7 E0000000 		.4byte	.LVL382
 14335 1bbb 0400     		.2byte	0x4
 14336 1bbd F3       		.byte	0xf3
 14337 1bbe 01       		.uleb128 0x1
 14338 1bbf 50       		.byte	0x50
 14339 1bc0 9F       		.byte	0x9f
 14340 1bc1 E0000000 		.4byte	.LVL382
 14341 1bc5 EB000000 		.4byte	.LVL385-1
 14342 1bc9 0100     		.2byte	0x1
 14343 1bcb 50       		.byte	0x50
 14344 1bcc EB000000 		.4byte	.LVL385-1
 14345 1bd0 6A010000 		.4byte	.LVL415
 14346 1bd4 0100     		.2byte	0x1
 14347 1bd6 55       		.byte	0x55
 14348 1bd7 6A010000 		.4byte	.LVL415
 14349 1bdb 74010000 		.4byte	.LFE341
 14350 1bdf 0400     		.2byte	0x4
 14351 1be1 F3       		.byte	0xf3
 14352 1be2 01       		.uleb128 0x1
 14353 1be3 50       		.byte	0x50
 14354 1be4 9F       		.byte	0x9f
 14355 1be5 00000000 		.4byte	0
 14356 1be9 00000000 		.4byte	0
 14357              	.LLST228:
 14358 1bed 00000000 		.4byte	.LVL348
ARM GAS  C:\Users\strap\AppData\Local\Temp\cc7bAV43.s 			page 297


 14359 1bf1 1E000000 		.4byte	.LVL353
 14360 1bf5 0100     		.2byte	0x1
 14361 1bf7 51       		.byte	0x51
 14362 1bf8 1E000000 		.4byte	.LVL353
 14363 1bfc 98000000 		.4byte	.LVL371
 14364 1c00 0200     		.2byte	0x2
 14365 1c02 91       		.byte	0x91
 14366 1c03 5E       		.sleb128 -34
 14367 1c04 98000000 		.4byte	.LVL371
 14368 1c08 9C000000 		.4byte	.LVL372
 14369 1c0c 0100     		.2byte	0x1
 14370 1c0e 51       		.byte	0x51
 14371 1c0f 9C000000 		.4byte	.LVL372
 14372 1c13 D0000000 		.4byte	.LVL378
 14373 1c17 0200     		.2byte	0x2
 14374 1c19 91       		.byte	0x91
 14375 1c1a 5E       		.sleb128 -34
 14376 1c1b D0000000 		.4byte	.LVL378
 14377 1c1f E0000000 		.4byte	.LVL382
 14378 1c23 0400     		.2byte	0x4
 14379 1c25 F3       		.byte	0xf3
 14380 1c26 01       		.uleb128 0x1
 14381 1c27 51       		.byte	0x51
 14382 1c28 9F       		.byte	0x9f
 14383 1c29 E0000000 		.4byte	.LVL382
 14384 1c2d 22010000 		.4byte	.LVL394
 14385 1c31 0200     		.2byte	0x2
 14386 1c33 91       		.byte	0x91
 14387 1c34 5E       		.sleb128 -34
 14388 1c35 22010000 		.4byte	.LVL394
 14389 1c39 26010000 		.4byte	.LVL395
 14390 1c3d 0200     		.2byte	0x2
 14391 1c3f 71       		.byte	0x71
 14392 1c40 00       		.sleb128 0
 14393 1c41 26010000 		.4byte	.LVL395
 14394 1c45 6A010000 		.4byte	.LVL415
 14395 1c49 0200     		.2byte	0x2
 14396 1c4b 91       		.byte	0x91
 14397 1c4c 5E       		.sleb128 -34
 14398 1c4d 00000000 		.4byte	0
 14399 1c51 00000000 		.4byte	0
 14400              	.LLST229:
 14401 1c55 00000000 		.4byte	.LVL348
 14402 1c59 16000000 		.4byte	.LVL352
 14403 1c5d 0100     		.2byte	0x1
 14404 1c5f 52       		.byte	0x52
 14405 1c60 16000000 		.4byte	.LVL352
 14406 1c64 98000000 		.4byte	.LVL371
 14407 1c68 0200     		.2byte	0x2
 14408 1c6a 7D       		.byte	0x7d
 14409 1c6b 00       		.sleb128 0
 14410 1c6c 98000000 		.4byte	.LVL371
 14411 1c70 9C000000 		.4byte	.LVL372
 14412 1c74 0100     		.2byte	0x1
 14413 1c76 52       		.byte	0x52
 14414 1c77 9C000000 		.4byte	.LVL372
 14415 1c7b D0000000 		.4byte	.LVL378
ARM GAS  C:\Users\strap\AppData\Local\Temp\cc7bAV43.s 			page 298


 14416 1c7f 0200     		.2byte	0x2
 14417 1c81 7D       		.byte	0x7d
 14418 1c82 00       		.sleb128 0
 14419 1c83 D0000000 		.4byte	.LVL378
 14420 1c87 E0000000 		.4byte	.LVL382
 14421 1c8b 0400     		.2byte	0x4
 14422 1c8d F3       		.byte	0xf3
 14423 1c8e 01       		.uleb128 0x1
 14424 1c8f 52       		.byte	0x52
 14425 1c90 9F       		.byte	0x9f
 14426 1c91 E0000000 		.4byte	.LVL382
 14427 1c95 6A010000 		.4byte	.LVL415
 14428 1c99 0200     		.2byte	0x2
 14429 1c9b 7D       		.byte	0x7d
 14430 1c9c 00       		.sleb128 0
 14431 1c9d 00000000 		.4byte	0
 14432 1ca1 00000000 		.4byte	0
 14433              	.LLST230:
 14434 1ca5 E2000000 		.4byte	.LVL383
 14435 1ca9 6A010000 		.4byte	.LVL415
 14436 1cad 0200     		.2byte	0x2
 14437 1caf 36       		.byte	0x36
 14438 1cb0 9F       		.byte	0x9f
 14439 1cb1 00000000 		.4byte	0
 14440 1cb5 00000000 		.4byte	0
 14441              	.LLST231:
 14442 1cb9 E8000000 		.4byte	.LVL384
 14443 1cbd 6A010000 		.4byte	.LVL415
 14444 1cc1 0200     		.2byte	0x2
 14445 1cc3 32       		.byte	0x32
 14446 1cc4 9F       		.byte	0x9f
 14447 1cc5 00000000 		.4byte	0
 14448 1cc9 00000000 		.4byte	0
 14449              	.LLST232:
 14450 1ccd EC000000 		.4byte	.LVL385
 14451 1cd1 F4000000 		.4byte	.LVL386
 14452 1cd5 0100     		.2byte	0x1
 14453 1cd7 50       		.byte	0x50
 14454 1cd8 F4000000 		.4byte	.LVL386
 14455 1cdc F6000000 		.4byte	.LVL387
 14456 1ce0 0100     		.2byte	0x1
 14457 1ce2 53       		.byte	0x53
 14458 1ce3 00000000 		.4byte	0
 14459 1ce7 00000000 		.4byte	0
 14460              	.LLST233:
 14461 1ceb 0A000000 		.4byte	.LVL349
 14462 1cef 1E000000 		.4byte	.LVL353
 14463 1cf3 0100     		.2byte	0x1
 14464 1cf5 51       		.byte	0x51
 14465 1cf6 1E000000 		.4byte	.LVL353
 14466 1cfa 98000000 		.4byte	.LVL371
 14467 1cfe 0200     		.2byte	0x2
 14468 1d00 91       		.byte	0x91
 14469 1d01 5E       		.sleb128 -34
 14470 1d02 98000000 		.4byte	.LVL371
 14471 1d06 9C000000 		.4byte	.LVL372
 14472 1d0a 0100     		.2byte	0x1
ARM GAS  C:\Users\strap\AppData\Local\Temp\cc7bAV43.s 			page 299


 14473 1d0c 51       		.byte	0x51
 14474 1d0d 00000000 		.4byte	0
 14475 1d11 00000000 		.4byte	0
 14476              	.LLST234:
 14477 1d15 0A000000 		.4byte	.LVL349
 14478 1d19 9C000000 		.4byte	.LVL372
 14479 1d1d 0100     		.2byte	0x1
 14480 1d1f 50       		.byte	0x50
 14481 1d20 00000000 		.4byte	0
 14482 1d24 00000000 		.4byte	0
 14483              	.LLST235:
 14484 1d28 12000000 		.4byte	.LVL350
 14485 1d2c 98000000 		.4byte	.LVL371
 14486 1d30 0100     		.2byte	0x1
 14487 1d32 56       		.byte	0x56
 14488 1d33 00000000 		.4byte	0
 14489 1d37 00000000 		.4byte	0
 14490              	.LLST236:
 14491 1d3b 14000000 		.4byte	.LVL351
 14492 1d3f 98000000 		.4byte	.LVL371
 14493 1d43 0100     		.2byte	0x1
 14494 1d45 55       		.byte	0x55
 14495 1d46 00000000 		.4byte	0
 14496 1d4a 00000000 		.4byte	0
 14497              	.LLST237:
 14498 1d4e 14000000 		.4byte	.LVL351
 14499 1d52 1E000000 		.4byte	.LVL353
 14500 1d56 0300     		.2byte	0x3
 14501 1d58 09       		.byte	0x9
 14502 1d59 FF       		.byte	0xff
 14503 1d5a 9F       		.byte	0x9f
 14504 1d5b 1E000000 		.4byte	.LVL353
 14505 1d5f 98000000 		.4byte	.LVL371
 14506 1d63 0100     		.2byte	0x1
 14507 1d65 57       		.byte	0x57
 14508 1d66 00000000 		.4byte	0
 14509 1d6a 00000000 		.4byte	0
 14510              	.LLST238:
 14511 1d6e 14000000 		.4byte	.LVL351
 14512 1d72 1E000000 		.4byte	.LVL353
 14513 1d76 0300     		.2byte	0x3
 14514 1d78 09       		.byte	0x9
 14515 1d79 FF       		.byte	0xff
 14516 1d7a 9F       		.byte	0x9f
 14517 1d7b 1E000000 		.4byte	.LVL353
 14518 1d7f 98000000 		.4byte	.LVL371
 14519 1d83 0100     		.2byte	0x1
 14520 1d85 54       		.byte	0x54
 14521 1d86 00000000 		.4byte	0
 14522 1d8a 00000000 		.4byte	0
 14523              	.LLST239:
 14524 1d8e 14000000 		.4byte	.LVL351
 14525 1d92 1E000000 		.4byte	.LVL353
 14526 1d96 0200     		.2byte	0x2
 14527 1d98 30       		.byte	0x30
 14528 1d99 9F       		.byte	0x9f
 14529 1d9a 1E000000 		.4byte	.LVL353
ARM GAS  C:\Users\strap\AppData\Local\Temp\cc7bAV43.s 			page 300


 14530 1d9e 96000000 		.4byte	.LVL370
 14531 1da2 0100     		.2byte	0x1
 14532 1da4 52       		.byte	0x52
 14533 1da5 96000000 		.4byte	.LVL370
 14534 1da9 98000000 		.4byte	.LVL371
 14535 1dad 0300     		.2byte	0x3
 14536 1daf 71       		.byte	0x71
 14537 1db0 7F       		.sleb128 -1
 14538 1db1 9F       		.byte	0x9f
 14539 1db2 00000000 		.4byte	0
 14540 1db6 00000000 		.4byte	0
 14541              	.LLST240:
 14542 1dba 22000000 		.4byte	.LVL354
 14543 1dbe 3C000000 		.4byte	.LVL356
 14544 1dc2 0100     		.2byte	0x1
 14545 1dc4 52       		.byte	0x52
 14546 1dc5 00000000 		.4byte	0
 14547 1dc9 00000000 		.4byte	0
 14548              	.LLST241:
 14549 1dcd 22000000 		.4byte	.LVL354
 14550 1dd1 3C000000 		.4byte	.LVL356
 14551 1dd5 0100     		.2byte	0x1
 14552 1dd7 50       		.byte	0x50
 14553 1dd8 00000000 		.4byte	0
 14554 1ddc 00000000 		.4byte	0
 14555              	.LLST242:
 14556 1de0 22000000 		.4byte	.LVL354
 14557 1de4 3A000000 		.4byte	.LVL355
 14558 1de8 0100     		.2byte	0x1
 14559 1dea 52       		.byte	0x52
 14560 1deb 00000000 		.4byte	0
 14561 1def 00000000 		.4byte	0
 14562              	.LLST243:
 14563 1df3 22000000 		.4byte	.LVL354
 14564 1df7 3A000000 		.4byte	.LVL355
 14565 1dfb 0100     		.2byte	0x1
 14566 1dfd 50       		.byte	0x50
 14567 1dfe 00000000 		.4byte	0
 14568 1e02 00000000 		.4byte	0
 14569              	.LLST244:
 14570 1e06 22000000 		.4byte	.LVL354
 14571 1e0a 5C000000 		.4byte	.LVL358
 14572 1e0e 0300     		.2byte	0x3
 14573 1e10 91       		.byte	0x91
 14574 1e11 64       		.sleb128 -28
 14575 1e12 9F       		.byte	0x9f
 14576 1e13 00000000 		.4byte	0
 14577 1e17 00000000 		.4byte	0
 14578              	.LLST245:
 14579 1e1b 5C000000 		.4byte	.LVL358
 14580 1e1f 7C000000 		.4byte	.LVL367
 14581 1e23 0100     		.2byte	0x1
 14582 1e25 52       		.byte	0x52
 14583 1e26 00000000 		.4byte	0
 14584 1e2a 00000000 		.4byte	0
 14585              	.LLST246:
 14586 1e2e 60000000 		.4byte	.LVL359
ARM GAS  C:\Users\strap\AppData\Local\Temp\cc7bAV43.s 			page 301


 14587 1e32 6E000000 		.4byte	.LVL360
 14588 1e36 0100     		.2byte	0x1
 14589 1e38 53       		.byte	0x53
 14590 1e39 70000000 		.4byte	.LVL361
 14591 1e3d 72000000 		.4byte	.LVL362
 14592 1e41 0100     		.2byte	0x1
 14593 1e43 53       		.byte	0x53
 14594 1e44 74000000 		.4byte	.LVL363
 14595 1e48 76000000 		.4byte	.LVL364
 14596 1e4c 0100     		.2byte	0x1
 14597 1e4e 53       		.byte	0x53
 14598 1e4f 78000000 		.4byte	.LVL365
 14599 1e53 7A000000 		.4byte	.LVL366
 14600 1e57 0100     		.2byte	0x1
 14601 1e59 53       		.byte	0x53
 14602 1e5a 00000000 		.4byte	0
 14603 1e5e 00000000 		.4byte	0
 14604              	.LLST247:
 14605 1e62 60000000 		.4byte	.LVL359
 14606 1e66 7A000000 		.4byte	.LVL366
 14607 1e6a 0200     		.2byte	0x2
 14608 1e6c 32       		.byte	0x32
 14609 1e6d 9F       		.byte	0x9f
 14610 1e6e 00000000 		.4byte	0
 14611 1e72 00000000 		.4byte	0
 14612              	.LLST248:
 14613 1e76 7C000000 		.4byte	.LVL367
 14614 1e7a 90000000 		.4byte	.LVL369
 14615 1e7e 0100     		.2byte	0x1
 14616 1e80 52       		.byte	0x52
 14617 1e81 00000000 		.4byte	0
 14618 1e85 00000000 		.4byte	0
 14619              	.LLST249:
 14620 1e89 7C000000 		.4byte	.LVL367
 14621 1e8d 90000000 		.4byte	.LVL369
 14622 1e91 0100     		.2byte	0x1
 14623 1e93 50       		.byte	0x50
 14624 1e94 00000000 		.4byte	0
 14625 1e98 00000000 		.4byte	0
 14626              	.LLST250:
 14627 1e9c 7C000000 		.4byte	.LVL367
 14628 1ea0 8C000000 		.4byte	.LVL368
 14629 1ea4 0100     		.2byte	0x1
 14630 1ea6 52       		.byte	0x52
 14631 1ea7 00000000 		.4byte	0
 14632 1eab 00000000 		.4byte	0
 14633              	.LLST251:
 14634 1eaf 7C000000 		.4byte	.LVL367
 14635 1eb3 8C000000 		.4byte	.LVL368
 14636 1eb7 0100     		.2byte	0x1
 14637 1eb9 50       		.byte	0x50
 14638 1eba 00000000 		.4byte	0
 14639 1ebe 00000000 		.4byte	0
 14640              	.LLST252:
 14641 1ec2 1E000000 		.4byte	.LVL353
 14642 1ec6 98000000 		.4byte	.LVL371
 14643 1eca 0300     		.2byte	0x3
ARM GAS  C:\Users\strap\AppData\Local\Temp\cc7bAV43.s 			page 302


 14644 1ecc 91       		.byte	0x91
 14645 1ecd 64       		.sleb128 -28
 14646 1ece 9F       		.byte	0x9f
 14647 1ecf 00000000 		.4byte	0
 14648 1ed3 00000000 		.4byte	0
 14649              	.LLST253:
 14650 1ed7 BA000000 		.4byte	.LVL375
 14651 1edb BE000000 		.4byte	.LVL376
 14652 1edf 0100     		.2byte	0x1
 14653 1ee1 53       		.byte	0x53
 14654 1ee2 BE000000 		.4byte	.LVL376
 14655 1ee6 D0000000 		.4byte	.LVL378
 14656 1eea 0B00     		.2byte	0xb
 14657 1eec 91       		.byte	0x91
 14658 1eed 5E       		.sleb128 -34
 14659 1eee 94       		.byte	0x94
 14660 1eef 02       		.byte	0x2
 14661 1ef0 0A       		.byte	0xa
 14662 1ef1 FFFF     		.2byte	0xffff
 14663 1ef3 1A       		.byte	0x1a
 14664 1ef4 38       		.byte	0x38
 14665 1ef5 25       		.byte	0x25
 14666 1ef6 9F       		.byte	0x9f
 14667 1ef7 00000000 		.4byte	0
 14668 1efb 00000000 		.4byte	0
 14669              	.LLST254:
 14670 1eff A0000000 		.4byte	.LVL373
 14671 1f03 B4000000 		.4byte	.LVL374
 14672 1f07 0100     		.2byte	0x1
 14673 1f09 52       		.byte	0x52
 14674 1f0a 00000000 		.4byte	0
 14675 1f0e 00000000 		.4byte	0
 14676              	.LLST255:
 14677 1f12 A0000000 		.4byte	.LVL373
 14678 1f16 B4000000 		.4byte	.LVL374
 14679 1f1a 0100     		.2byte	0x1
 14680 1f1c 50       		.byte	0x50
 14681 1f1d 00000000 		.4byte	0
 14682 1f21 00000000 		.4byte	0
 14683              	.LLST258:
 14684 1f25 A0000000 		.4byte	.LVL373
 14685 1f29 E0000000 		.4byte	.LVL382
 14686 1f2d 0300     		.2byte	0x3
 14687 1f2f 91       		.byte	0x91
 14688 1f30 64       		.sleb128 -28
 14689 1f31 9F       		.byte	0x9f
 14690 1f32 00000000 		.4byte	0
 14691 1f36 00000000 		.4byte	0
 14692              	.LLST259:
 14693 1f3a CA000000 		.4byte	.LVL377
 14694 1f3e D0000000 		.4byte	.LVL378
 14695 1f42 0200     		.2byte	0x2
 14696 1f44 34       		.byte	0x34
 14697 1f45 9F       		.byte	0x9f
 14698 1f46 D0000000 		.4byte	.LVL378
 14699 1f4a E0000000 		.4byte	.LVL382
 14700 1f4e 0100     		.2byte	0x1
ARM GAS  C:\Users\strap\AppData\Local\Temp\cc7bAV43.s 			page 303


 14701 1f50 52       		.byte	0x52
 14702 1f51 00000000 		.4byte	0
 14703 1f55 00000000 		.4byte	0
 14704              	.LLST260:
 14705 1f59 CA000000 		.4byte	.LVL377
 14706 1f5d E0000000 		.4byte	.LVL382
 14707 1f61 0100     		.2byte	0x1
 14708 1f63 5D       		.byte	0x5d
 14709 1f64 00000000 		.4byte	0
 14710 1f68 00000000 		.4byte	0
 14711              	.LLST261:
 14712 1f6c CA000000 		.4byte	.LVL377
 14713 1f70 D0000000 		.4byte	.LVL378
 14714 1f74 0100     		.2byte	0x1
 14715 1f76 53       		.byte	0x53
 14716 1f77 00000000 		.4byte	0
 14717 1f7b 00000000 		.4byte	0
 14718              	.LLST262:
 14719 1f7f CA000000 		.4byte	.LVL377
 14720 1f83 E0000000 		.4byte	.LVL382
 14721 1f87 0100     		.2byte	0x1
 14722 1f89 53       		.byte	0x53
 14723 1f8a 00000000 		.4byte	0
 14724 1f8e 00000000 		.4byte	0
 14725              	.LLST263:
 14726 1f92 CA000000 		.4byte	.LVL377
 14727 1f96 D0000000 		.4byte	.LVL378
 14728 1f9a 0100     		.2byte	0x1
 14729 1f9c 5D       		.byte	0x5d
 14730 1f9d D0000000 		.4byte	.LVL378
 14731 1fa1 D4000000 		.4byte	.LVL379
 14732 1fa5 0100     		.2byte	0x1
 14733 1fa7 51       		.byte	0x51
 14734 1fa8 D4000000 		.4byte	.LVL379
 14735 1fac D8000000 		.4byte	.LVL380
 14736 1fb0 0300     		.2byte	0x3
 14737 1fb2 71       		.byte	0x71
 14738 1fb3 7F       		.sleb128 -1
 14739 1fb4 9F       		.byte	0x9f
 14740 1fb5 D8000000 		.4byte	.LVL380
 14741 1fb9 E0000000 		.4byte	.LVL382
 14742 1fbd 0100     		.2byte	0x1
 14743 1fbf 51       		.byte	0x51
 14744 1fc0 00000000 		.4byte	0
 14745 1fc4 00000000 		.4byte	0
 14746              	.LLST264:
 14747 1fc8 F8000000 		.4byte	.LVL388
 14748 1fcc 02010000 		.4byte	.LVL390
 14749 1fd0 0100     		.2byte	0x1
 14750 1fd2 54       		.byte	0x54
 14751 1fd3 00000000 		.4byte	0
 14752 1fd7 00000000 		.4byte	0
 14753              	.LLST265:
 14754 1fdb F8000000 		.4byte	.LVL388
 14755 1fdf 02010000 		.4byte	.LVL390
 14756 1fe3 0100     		.2byte	0x1
 14757 1fe5 55       		.byte	0x55
ARM GAS  C:\Users\strap\AppData\Local\Temp\cc7bAV43.s 			page 304


 14758 1fe6 00000000 		.4byte	0
 14759 1fea 00000000 		.4byte	0
 14760              	.LLST266:
 14761 1fee 1E010000 		.4byte	.LVL393
 14762 1ff2 26010000 		.4byte	.LVL395
 14763 1ff6 0200     		.2byte	0x2
 14764 1ff8 32       		.byte	0x32
 14765 1ff9 9F       		.byte	0x9f
 14766 1ffa 26010000 		.4byte	.LVL395
 14767 1ffe 34010000 		.4byte	.LVL399
 14768 2002 0100     		.2byte	0x1
 14769 2004 52       		.byte	0x52
 14770 2005 00000000 		.4byte	0
 14771 2009 00000000 		.4byte	0
 14772              	.LLST267:
 14773 200d 1E010000 		.4byte	.LVL393
 14774 2011 22010000 		.4byte	.LVL394
 14775 2015 0300     		.2byte	0x3
 14776 2017 91       		.byte	0x91
 14777 2018 5E       		.sleb128 -34
 14778 2019 9F       		.byte	0x9f
 14779 201a 22010000 		.4byte	.LVL394
 14780 201e 26010000 		.4byte	.LVL395
 14781 2022 0100     		.2byte	0x1
 14782 2024 51       		.byte	0x51
 14783 2025 26010000 		.4byte	.LVL395
 14784 2029 34010000 		.4byte	.LVL399
 14785 202d 0300     		.2byte	0x3
 14786 202f 91       		.byte	0x91
 14787 2030 5E       		.sleb128 -34
 14788 2031 9F       		.byte	0x9f
 14789 2032 00000000 		.4byte	0
 14790 2036 00000000 		.4byte	0
 14791              	.LLST268:
 14792 203a 1E010000 		.4byte	.LVL393
 14793 203e 26010000 		.4byte	.LVL395
 14794 2042 0100     		.2byte	0x1
 14795 2044 53       		.byte	0x53
 14796 2045 00000000 		.4byte	0
 14797 2049 00000000 		.4byte	0
 14798              	.LLST269:
 14799 204d 1E010000 		.4byte	.LVL393
 14800 2051 38010000 		.4byte	.LVL400
 14801 2055 0100     		.2byte	0x1
 14802 2057 53       		.byte	0x53
 14803 2058 00000000 		.4byte	0
 14804 205c 00000000 		.4byte	0
 14805              	.LLST270:
 14806 2060 1E010000 		.4byte	.LVL393
 14807 2064 22010000 		.4byte	.LVL394
 14808 2068 0300     		.2byte	0x3
 14809 206a 91       		.byte	0x91
 14810 206b 5E       		.sleb128 -34
 14811 206c 9F       		.byte	0x9f
 14812 206d 22010000 		.4byte	.LVL394
 14813 2071 2A010000 		.4byte	.LVL396
 14814 2075 0100     		.2byte	0x1
ARM GAS  C:\Users\strap\AppData\Local\Temp\cc7bAV43.s 			page 305


 14815 2077 51       		.byte	0x51
 14816 2078 2A010000 		.4byte	.LVL396
 14817 207c 2E010000 		.4byte	.LVL397
 14818 2080 0300     		.2byte	0x3
 14819 2082 71       		.byte	0x71
 14820 2083 7F       		.sleb128 -1
 14821 2084 9F       		.byte	0x9f
 14822 2085 2E010000 		.4byte	.LVL397
 14823 2089 3C010000 		.4byte	.LVL402
 14824 208d 0100     		.2byte	0x1
 14825 208f 51       		.byte	0x51
 14826 2090 00000000 		.4byte	0
 14827 2094 00000000 		.4byte	0
 14828              	.LLST271:
 14829 2098 3A010000 		.4byte	.LVL401
 14830 209c 40010000 		.4byte	.LVL403
 14831 20a0 0200     		.2byte	0x2
 14832 20a2 34       		.byte	0x34
 14833 20a3 9F       		.byte	0x9f
 14834 20a4 40010000 		.4byte	.LVL403
 14835 20a8 4E010000 		.4byte	.LVL407
 14836 20ac 0100     		.2byte	0x1
 14837 20ae 52       		.byte	0x52
 14838 20af 00000000 		.4byte	0
 14839 20b3 00000000 		.4byte	0
 14840              	.LLST272:
 14841 20b7 3A010000 		.4byte	.LVL401
 14842 20bb 4E010000 		.4byte	.LVL407
 14843 20bf 0100     		.2byte	0x1
 14844 20c1 5D       		.byte	0x5d
 14845 20c2 00000000 		.4byte	0
 14846 20c6 00000000 		.4byte	0
 14847              	.LLST273:
 14848 20ca 3A010000 		.4byte	.LVL401
 14849 20ce 40010000 		.4byte	.LVL403
 14850 20d2 0100     		.2byte	0x1
 14851 20d4 53       		.byte	0x53
 14852 20d5 00000000 		.4byte	0
 14853 20d9 00000000 		.4byte	0
 14854              	.LLST274:
 14855 20dd 40010000 		.4byte	.LVL403
 14856 20e1 50010000 		.4byte	.LVL408
 14857 20e5 0100     		.2byte	0x1
 14858 20e7 53       		.byte	0x53
 14859 20e8 00000000 		.4byte	0
 14860 20ec 00000000 		.4byte	0
 14861              	.LLST275:
 14862 20f0 40010000 		.4byte	.LVL403
 14863 20f4 44010000 		.4byte	.LVL404
 14864 20f8 0100     		.2byte	0x1
 14865 20fa 51       		.byte	0x51
 14866 20fb 44010000 		.4byte	.LVL404
 14867 20ff 48010000 		.4byte	.LVL405
 14868 2103 0300     		.2byte	0x3
 14869 2105 71       		.byte	0x71
 14870 2106 7F       		.sleb128 -1
 14871 2107 9F       		.byte	0x9f
ARM GAS  C:\Users\strap\AppData\Local\Temp\cc7bAV43.s 			page 306


 14872 2108 48010000 		.4byte	.LVL405
 14873 210c 58010000 		.4byte	.LVL410
 14874 2110 0100     		.2byte	0x1
 14875 2112 51       		.byte	0x51
 14876 2113 00000000 		.4byte	0
 14877 2117 00000000 		.4byte	0
 14878              	.LLST276:
 14879 211b 54010000 		.4byte	.LVL409
 14880 211f 5C010000 		.4byte	.LVL411
 14881 2123 0200     		.2byte	0x2
 14882 2125 32       		.byte	0x32
 14883 2126 9F       		.byte	0x9f
 14884 2127 5C010000 		.4byte	.LVL411
 14885 212b 6A010000 		.4byte	.LVL415
 14886 212f 0100     		.2byte	0x1
 14887 2131 52       		.byte	0x52
 14888 2132 00000000 		.4byte	0
 14889 2136 00000000 		.4byte	0
 14890              	.LLST277:
 14891 213a 54010000 		.4byte	.LVL409
 14892 213e 58010000 		.4byte	.LVL410
 14893 2142 0300     		.2byte	0x3
 14894 2144 91       		.byte	0x91
 14895 2145 66       		.sleb128 -26
 14896 2146 9F       		.byte	0x9f
 14897 2147 58010000 		.4byte	.LVL410
 14898 214b 5C010000 		.4byte	.LVL411
 14899 214f 0100     		.2byte	0x1
 14900 2151 51       		.byte	0x51
 14901 2152 5C010000 		.4byte	.LVL411
 14902 2156 6A010000 		.4byte	.LVL415
 14903 215a 0300     		.2byte	0x3
 14904 215c 91       		.byte	0x91
 14905 215d 66       		.sleb128 -26
 14906 215e 9F       		.byte	0x9f
 14907 215f 00000000 		.4byte	0
 14908 2163 00000000 		.4byte	0
 14909              	.LLST278:
 14910 2167 54010000 		.4byte	.LVL409
 14911 216b 5C010000 		.4byte	.LVL411
 14912 216f 0100     		.2byte	0x1
 14913 2171 53       		.byte	0x53
 14914 2172 00000000 		.4byte	0
 14915 2176 00000000 		.4byte	0
 14916              	.LLST279:
 14917 217a 5C010000 		.4byte	.LVL411
 14918 217e 6A010000 		.4byte	.LVL415
 14919 2182 0100     		.2byte	0x1
 14920 2184 53       		.byte	0x53
 14921 2185 00000000 		.4byte	0
 14922 2189 00000000 		.4byte	0
 14923              	.LLST280:
 14924 218d 5C010000 		.4byte	.LVL411
 14925 2191 60010000 		.4byte	.LVL412
 14926 2195 0100     		.2byte	0x1
 14927 2197 51       		.byte	0x51
 14928 2198 60010000 		.4byte	.LVL412
ARM GAS  C:\Users\strap\AppData\Local\Temp\cc7bAV43.s 			page 307


 14929 219c 64010000 		.4byte	.LVL413
 14930 21a0 0300     		.2byte	0x3
 14931 21a2 71       		.byte	0x71
 14932 21a3 7F       		.sleb128 -1
 14933 21a4 9F       		.byte	0x9f
 14934 21a5 64010000 		.4byte	.LVL413
 14935 21a9 6A010000 		.4byte	.LVL415
 14936 21ad 0100     		.2byte	0x1
 14937 21af 51       		.byte	0x51
 14938 21b0 00000000 		.4byte	0
 14939 21b4 00000000 		.4byte	0
 14940              	.LLST281:
 14941 21b8 00000000 		.4byte	.LVL416
 14942 21bc 1E000000 		.4byte	.LVL420
 14943 21c0 0100     		.2byte	0x1
 14944 21c2 50       		.byte	0x50
 14945 21c3 1E000000 		.4byte	.LVL420
 14946 21c7 A4000000 		.4byte	.LVL440
 14947 21cb 0100     		.2byte	0x1
 14948 21cd 55       		.byte	0x55
 14949 21ce A4000000 		.4byte	.LVL440
 14950 21d2 A8000000 		.4byte	.LVL441
 14951 21d6 0100     		.2byte	0x1
 14952 21d8 50       		.byte	0x50
 14953 21d9 A8000000 		.4byte	.LVL441
 14954 21dd E6000000 		.4byte	.LVL453
 14955 21e1 0100     		.2byte	0x1
 14956 21e3 55       		.byte	0x55
 14957 21e4 E6000000 		.4byte	.LVL453
 14958 21e8 EA000000 		.4byte	.LVL454
 14959 21ec 0100     		.2byte	0x1
 14960 21ee 50       		.byte	0x50
 14961 21ef EA000000 		.4byte	.LVL454
 14962 21f3 EC000000 		.4byte	.LVL455
 14963 21f7 0400     		.2byte	0x4
 14964 21f9 F3       		.byte	0xf3
 14965 21fa 01       		.uleb128 0x1
 14966 21fb 50       		.byte	0x50
 14967 21fc 9F       		.byte	0x9f
 14968 21fd EC000000 		.4byte	.LVL455
 14969 2201 F0000000 		.4byte	.LVL456
 14970 2205 0100     		.2byte	0x1
 14971 2207 50       		.byte	0x50
 14972 2208 F0000000 		.4byte	.LVL456
 14973 220c FC000000 		.4byte	.LFE342
 14974 2210 0100     		.2byte	0x1
 14975 2212 55       		.byte	0x55
 14976 2213 00000000 		.4byte	0
 14977 2217 00000000 		.4byte	0
 14978              	.LLST282:
 14979 221b 00000000 		.4byte	.LVL416
 14980 221f DC000000 		.4byte	.LVL452
 14981 2223 0100     		.2byte	0x1
 14982 2225 51       		.byte	0x51
 14983 2226 DC000000 		.4byte	.LVL452
 14984 222a E6000000 		.4byte	.LVL453
 14985 222e 0400     		.2byte	0x4
ARM GAS  C:\Users\strap\AppData\Local\Temp\cc7bAV43.s 			page 308


 14986 2230 F3       		.byte	0xf3
 14987 2231 01       		.uleb128 0x1
 14988 2232 51       		.byte	0x51
 14989 2233 9F       		.byte	0x9f
 14990 2234 E6000000 		.4byte	.LVL453
 14991 2238 F6000000 		.4byte	.LVL457
 14992 223c 0100     		.2byte	0x1
 14993 223e 51       		.byte	0x51
 14994 223f F6000000 		.4byte	.LVL457
 14995 2243 FC000000 		.4byte	.LFE342
 14996 2247 0400     		.2byte	0x4
 14997 2249 F3       		.byte	0xf3
 14998 224a 01       		.uleb128 0x1
 14999 224b 51       		.byte	0x51
 15000 224c 9F       		.byte	0x9f
 15001 224d 00000000 		.4byte	0
 15002 2251 00000000 		.4byte	0
 15003              	.LLST283:
 15004 2255 00000000 		.4byte	.LVL416
 15005 2259 B8000000 		.4byte	.LVL443
 15006 225d 0100     		.2byte	0x1
 15007 225f 52       		.byte	0x52
 15008 2260 B8000000 		.4byte	.LVL443
 15009 2264 E6000000 		.4byte	.LVL453
 15010 2268 0400     		.2byte	0x4
 15011 226a F3       		.byte	0xf3
 15012 226b 01       		.uleb128 0x1
 15013 226c 52       		.byte	0x52
 15014 226d 9F       		.byte	0x9f
 15015 226e E6000000 		.4byte	.LVL453
 15016 2272 F6000000 		.4byte	.LVL457
 15017 2276 0100     		.2byte	0x1
 15018 2278 52       		.byte	0x52
 15019 2279 F6000000 		.4byte	.LVL457
 15020 227d FC000000 		.4byte	.LFE342
 15021 2281 0400     		.2byte	0x4
 15022 2283 F3       		.byte	0xf3
 15023 2284 01       		.uleb128 0x1
 15024 2285 52       		.byte	0x52
 15025 2286 9F       		.byte	0x9f
 15026 2287 00000000 		.4byte	0
 15027 228b 00000000 		.4byte	0
 15028              	.LLST284:
 15029 228f 00000000 		.4byte	.LVL416
 15030 2293 B8000000 		.4byte	.LVL443
 15031 2297 0100     		.2byte	0x1
 15032 2299 52       		.byte	0x52
 15033 229a B8000000 		.4byte	.LVL443
 15034 229e E6000000 		.4byte	.LVL453
 15035 22a2 0400     		.2byte	0x4
 15036 22a4 F3       		.byte	0xf3
 15037 22a5 01       		.uleb128 0x1
 15038 22a6 52       		.byte	0x52
 15039 22a7 9F       		.byte	0x9f
 15040 22a8 E6000000 		.4byte	.LVL453
 15041 22ac F6000000 		.4byte	.LVL457
 15042 22b0 0100     		.2byte	0x1
ARM GAS  C:\Users\strap\AppData\Local\Temp\cc7bAV43.s 			page 309


 15043 22b2 52       		.byte	0x52
 15044 22b3 F6000000 		.4byte	.LVL457
 15045 22b7 FC000000 		.4byte	.LFE342
 15046 22bb 0400     		.2byte	0x4
 15047 22bd F3       		.byte	0xf3
 15048 22be 01       		.uleb128 0x1
 15049 22bf 52       		.byte	0x52
 15050 22c0 9F       		.byte	0x9f
 15051 22c1 00000000 		.4byte	0
 15052 22c5 00000000 		.4byte	0
 15053              	.LLST285:
 15054 22c9 12000000 		.4byte	.LVL417
 15055 22cd A8000000 		.4byte	.LVL441
 15056 22d1 0100     		.2byte	0x1
 15057 22d3 51       		.byte	0x51
 15058 22d4 00000000 		.4byte	0
 15059 22d8 00000000 		.4byte	0
 15060              	.LLST286:
 15061 22dc 12000000 		.4byte	.LVL417
 15062 22e0 1E000000 		.4byte	.LVL420
 15063 22e4 0100     		.2byte	0x1
 15064 22e6 50       		.byte	0x50
 15065 22e7 1E000000 		.4byte	.LVL420
 15066 22eb A4000000 		.4byte	.LVL440
 15067 22ef 0100     		.2byte	0x1
 15068 22f1 55       		.byte	0x55
 15069 22f2 A4000000 		.4byte	.LVL440
 15070 22f6 A8000000 		.4byte	.LVL441
 15071 22fa 0100     		.2byte	0x1
 15072 22fc 50       		.byte	0x50
 15073 22fd 00000000 		.4byte	0
 15074 2301 00000000 		.4byte	0
 15075              	.LLST287:
 15076 2305 18000000 		.4byte	.LVL418
 15077 2309 A4000000 		.4byte	.LVL440
 15078 230d 0100     		.2byte	0x1
 15079 230f 56       		.byte	0x56
 15080 2310 00000000 		.4byte	0
 15081 2314 00000000 		.4byte	0
 15082              	.LLST288:
 15083 2318 1C000000 		.4byte	.LVL419
 15084 231c A4000000 		.4byte	.LVL440
 15085 2320 0100     		.2byte	0x1
 15086 2322 5E       		.byte	0x5e
 15087 2323 00000000 		.4byte	0
 15088 2327 00000000 		.4byte	0
 15089              	.LLST289:
 15090 232b 1C000000 		.4byte	.LVL419
 15091 232f 26000000 		.4byte	.LVL421
 15092 2333 0300     		.2byte	0x3
 15093 2335 09       		.byte	0x9
 15094 2336 FF       		.byte	0xff
 15095 2337 9F       		.byte	0x9f
 15096 2338 26000000 		.4byte	.LVL421
 15097 233c A4000000 		.4byte	.LVL440
 15098 2340 0100     		.2byte	0x1
 15099 2342 5C       		.byte	0x5c
ARM GAS  C:\Users\strap\AppData\Local\Temp\cc7bAV43.s 			page 310


 15100 2343 00000000 		.4byte	0
 15101 2347 00000000 		.4byte	0
 15102              	.LLST290:
 15103 234b 1C000000 		.4byte	.LVL419
 15104 234f 26000000 		.4byte	.LVL421
 15105 2353 0300     		.2byte	0x3
 15106 2355 09       		.byte	0x9
 15107 2356 FF       		.byte	0xff
 15108 2357 9F       		.byte	0x9f
 15109 2358 26000000 		.4byte	.LVL421
 15110 235c 50000000 		.4byte	.LVL425
 15111 2360 0100     		.2byte	0x1
 15112 2362 57       		.byte	0x57
 15113 2363 52000000 		.4byte	.LVL426
 15114 2367 A4000000 		.4byte	.LVL440
 15115 236b 0100     		.2byte	0x1
 15116 236d 57       		.byte	0x57
 15117 236e 00000000 		.4byte	0
 15118 2372 00000000 		.4byte	0
 15119              	.LLST291:
 15120 2376 1C000000 		.4byte	.LVL419
 15121 237a 26000000 		.4byte	.LVL421
 15122 237e 0200     		.2byte	0x2
 15123 2380 30       		.byte	0x30
 15124 2381 9F       		.byte	0x9f
 15125 2382 26000000 		.4byte	.LVL421
 15126 2386 A4000000 		.4byte	.LVL440
 15127 238a 0100     		.2byte	0x1
 15128 238c 50       		.byte	0x50
 15129 238d 00000000 		.4byte	0
 15130 2391 00000000 		.4byte	0
 15131              	.LLST292:
 15132 2395 2A000000 		.4byte	.LVL422
 15133 2399 44000000 		.4byte	.LVL424
 15134 239d 0100     		.2byte	0x1
 15135 239f 50       		.byte	0x50
 15136 23a0 00000000 		.4byte	0
 15137 23a4 00000000 		.4byte	0
 15138              	.LLST293:
 15139 23a8 2A000000 		.4byte	.LVL422
 15140 23ac 44000000 		.4byte	.LVL424
 15141 23b0 0100     		.2byte	0x1
 15142 23b2 55       		.byte	0x55
 15143 23b3 00000000 		.4byte	0
 15144 23b7 00000000 		.4byte	0
 15145              	.LLST294:
 15146 23bb 2A000000 		.4byte	.LVL422
 15147 23bf 42000000 		.4byte	.LVL423
 15148 23c3 0100     		.2byte	0x1
 15149 23c5 50       		.byte	0x50
 15150 23c6 00000000 		.4byte	0
 15151 23ca 00000000 		.4byte	0
 15152              	.LLST295:
 15153 23ce 2A000000 		.4byte	.LVL422
 15154 23d2 42000000 		.4byte	.LVL423
 15155 23d6 0100     		.2byte	0x1
 15156 23d8 55       		.byte	0x55
ARM GAS  C:\Users\strap\AppData\Local\Temp\cc7bAV43.s 			page 311


 15157 23d9 00000000 		.4byte	0
 15158 23dd 00000000 		.4byte	0
 15159              	.LLST296:
 15160 23e1 2A000000 		.4byte	.LVL422
 15161 23e5 6A000000 		.4byte	.LVL428
 15162 23e9 0300     		.2byte	0x3
 15163 23eb 91       		.byte	0x91
 15164 23ec 5E       		.sleb128 -34
 15165 23ed 9F       		.byte	0x9f
 15166 23ee 00000000 		.4byte	0
 15167 23f2 00000000 		.4byte	0
 15168              	.LLST297:
 15169 23f6 6A000000 		.4byte	.LVL428
 15170 23fa 8A000000 		.4byte	.LVL437
 15171 23fe 0100     		.2byte	0x1
 15172 2400 50       		.byte	0x50
 15173 2401 00000000 		.4byte	0
 15174 2405 00000000 		.4byte	0
 15175              	.LLST298:
 15176 2409 6E000000 		.4byte	.LVL429
 15177 240d 7C000000 		.4byte	.LVL430
 15178 2411 0100     		.2byte	0x1
 15179 2413 53       		.byte	0x53
 15180 2414 7E000000 		.4byte	.LVL431
 15181 2418 80000000 		.4byte	.LVL432
 15182 241c 0100     		.2byte	0x1
 15183 241e 53       		.byte	0x53
 15184 241f 82000000 		.4byte	.LVL433
 15185 2423 84000000 		.4byte	.LVL434
 15186 2427 0100     		.2byte	0x1
 15187 2429 53       		.byte	0x53
 15188 242a 86000000 		.4byte	.LVL435
 15189 242e 88000000 		.4byte	.LVL436
 15190 2432 0100     		.2byte	0x1
 15191 2434 53       		.byte	0x53
 15192 2435 00000000 		.4byte	0
 15193 2439 00000000 		.4byte	0
 15194              	.LLST299:
 15195 243d 6E000000 		.4byte	.LVL429
 15196 2441 88000000 		.4byte	.LVL436
 15197 2445 0200     		.2byte	0x2
 15198 2447 32       		.byte	0x32
 15199 2448 9F       		.byte	0x9f
 15200 2449 00000000 		.4byte	0
 15201 244d 00000000 		.4byte	0
 15202              	.LLST300:
 15203 2451 8A000000 		.4byte	.LVL437
 15204 2455 9E000000 		.4byte	.LVL439
 15205 2459 0100     		.2byte	0x1
 15206 245b 50       		.byte	0x50
 15207 245c 00000000 		.4byte	0
 15208 2460 00000000 		.4byte	0
 15209              	.LLST301:
 15210 2464 8A000000 		.4byte	.LVL437
 15211 2468 9E000000 		.4byte	.LVL439
 15212 246c 0100     		.2byte	0x1
 15213 246e 55       		.byte	0x55
ARM GAS  C:\Users\strap\AppData\Local\Temp\cc7bAV43.s 			page 312


 15214 246f 00000000 		.4byte	0
 15215 2473 00000000 		.4byte	0
 15216              	.LLST302:
 15217 2477 8A000000 		.4byte	.LVL437
 15218 247b 9A000000 		.4byte	.LVL438
 15219 247f 0100     		.2byte	0x1
 15220 2481 50       		.byte	0x50
 15221 2482 00000000 		.4byte	0
 15222 2486 00000000 		.4byte	0
 15223              	.LLST303:
 15224 248a 8A000000 		.4byte	.LVL437
 15225 248e 9A000000 		.4byte	.LVL438
 15226 2492 0100     		.2byte	0x1
 15227 2494 55       		.byte	0x55
 15228 2495 00000000 		.4byte	0
 15229 2499 00000000 		.4byte	0
 15230              	.LLST304:
 15231 249d 26000000 		.4byte	.LVL421
 15232 24a1 A4000000 		.4byte	.LVL440
 15233 24a5 0300     		.2byte	0x3
 15234 24a7 91       		.byte	0x91
 15235 24a8 5E       		.sleb128 -34
 15236 24a9 9F       		.byte	0x9f
 15237 24aa 00000000 		.4byte	0
 15238 24ae 00000000 		.4byte	0
 15239              	.LLST305:
 15240 24b2 DC000000 		.4byte	.LVL452
 15241 24b6 E6000000 		.4byte	.LVL453
 15242 24ba 0100     		.2byte	0x1
 15243 24bc 51       		.byte	0x51
 15244 24bd 00000000 		.4byte	0
 15245 24c1 00000000 		.4byte	0
 15246              	.LLST306:
 15247 24c5 B4000000 		.4byte	.LVL442
 15248 24c9 B8000000 		.4byte	.LVL443
 15249 24cd 0200     		.2byte	0x2
 15250 24cf 32       		.byte	0x32
 15251 24d0 9F       		.byte	0x9f
 15252 24d1 B8000000 		.4byte	.LVL443
 15253 24d5 C6000000 		.4byte	.LVL447
 15254 24d9 0100     		.2byte	0x1
 15255 24db 50       		.byte	0x50
 15256 24dc 00000000 		.4byte	0
 15257 24e0 00000000 		.4byte	0
 15258              	.LLST307:
 15259 24e4 B4000000 		.4byte	.LVL442
 15260 24e8 B8000000 		.4byte	.LVL443
 15261 24ec 0100     		.2byte	0x1
 15262 24ee 53       		.byte	0x53
 15263 24ef 00000000 		.4byte	0
 15264 24f3 00000000 		.4byte	0
 15265              	.LLST308:
 15266 24f7 B4000000 		.4byte	.LVL442
 15267 24fb B8000000 		.4byte	.LVL443
 15268 24ff 0100     		.2byte	0x1
 15269 2501 52       		.byte	0x52
 15270 2502 B8000000 		.4byte	.LVL443
ARM GAS  C:\Users\strap\AppData\Local\Temp\cc7bAV43.s 			page 313


 15271 2506 C6000000 		.4byte	.LVL447
 15272 250a 0400     		.2byte	0x4
 15273 250c F3       		.byte	0xf3
 15274 250d 01       		.uleb128 0x1
 15275 250e 52       		.byte	0x52
 15276 250f 9F       		.byte	0x9f
 15277 2510 00000000 		.4byte	0
 15278 2514 00000000 		.4byte	0
 15279              	.LLST309:
 15280 2518 B4000000 		.4byte	.LVL442
 15281 251c CA000000 		.4byte	.LVL449
 15282 2520 0100     		.2byte	0x1
 15283 2522 52       		.byte	0x52
 15284 2523 00000000 		.4byte	0
 15285 2527 00000000 		.4byte	0
 15286              	.LLST310:
 15287 252b B4000000 		.4byte	.LVL442
 15288 252f BC000000 		.4byte	.LVL444
 15289 2533 0100     		.2byte	0x1
 15290 2535 53       		.byte	0x53
 15291 2536 BC000000 		.4byte	.LVL444
 15292 253a C0000000 		.4byte	.LVL445
 15293 253e 0300     		.2byte	0x3
 15294 2540 73       		.byte	0x73
 15295 2541 7F       		.sleb128 -1
 15296 2542 9F       		.byte	0x9f
 15297 2543 C0000000 		.4byte	.LVL445
 15298 2547 C8000000 		.4byte	.LVL448
 15299 254b 0100     		.2byte	0x1
 15300 254d 53       		.byte	0x53
 15301 254e 00000000 		.4byte	0
 15302 2552 00000000 		.4byte	0
 15303              	.LLST311:
 15304 2556 C6000000 		.4byte	.LVL447
 15305 255a D0000000 		.4byte	.LVL450
 15306 255e 0100     		.2byte	0x1
 15307 2560 54       		.byte	0x54
 15308 2561 D0000000 		.4byte	.LVL450
 15309 2565 DA000000 		.4byte	.LVL451
 15310 2569 0300     		.2byte	0x3
 15311 256b 77       		.byte	0x77
 15312 256c 7E       		.sleb128 -2
 15313 256d 9F       		.byte	0x9f
 15314 256e 00000000 		.4byte	0
 15315 2572 00000000 		.4byte	0
 15316              	.LLST312:
 15317 2576 C6000000 		.4byte	.LVL447
 15318 257a DA000000 		.4byte	.LVL451
 15319 257e 0100     		.2byte	0x1
 15320 2580 55       		.byte	0x55
 15321 2581 00000000 		.4byte	0
 15322 2585 00000000 		.4byte	0
 15323              	.LLST315:
 15324 2589 C6000000 		.4byte	.LVL447
 15325 258d E6000000 		.4byte	.LVL453
 15326 2591 0300     		.2byte	0x3
 15327 2593 91       		.byte	0x91
ARM GAS  C:\Users\strap\AppData\Local\Temp\cc7bAV43.s 			page 314


 15328 2594 5E       		.sleb128 -34
 15329 2595 9F       		.byte	0x9f
 15330 2596 00000000 		.4byte	0
 15331 259a 00000000 		.4byte	0
 15332              	.LLST316:
 15333 259e 00000000 		.4byte	.LVL458
 15334 25a2 1E000000 		.4byte	.LVL462
 15335 25a6 0100     		.2byte	0x1
 15336 25a8 50       		.byte	0x50
 15337 25a9 1E000000 		.4byte	.LVL462
 15338 25ad A4000000 		.4byte	.LVL482
 15339 25b1 0100     		.2byte	0x1
 15340 25b3 55       		.byte	0x55
 15341 25b4 A4000000 		.4byte	.LVL482
 15342 25b8 A8000000 		.4byte	.LVL483
 15343 25bc 0100     		.2byte	0x1
 15344 25be 50       		.byte	0x50
 15345 25bf A8000000 		.4byte	.LVL483
 15346 25c3 E6000000 		.4byte	.LVL494
 15347 25c7 0100     		.2byte	0x1
 15348 25c9 55       		.byte	0x55
 15349 25ca E6000000 		.4byte	.LVL494
 15350 25ce EA000000 		.4byte	.LVL495
 15351 25d2 0100     		.2byte	0x1
 15352 25d4 50       		.byte	0x50
 15353 25d5 EA000000 		.4byte	.LVL495
 15354 25d9 EC000000 		.4byte	.LVL496
 15355 25dd 0400     		.2byte	0x4
 15356 25df F3       		.byte	0xf3
 15357 25e0 01       		.uleb128 0x1
 15358 25e1 50       		.byte	0x50
 15359 25e2 9F       		.byte	0x9f
 15360 25e3 EC000000 		.4byte	.LVL496
 15361 25e7 F0000000 		.4byte	.LVL497
 15362 25eb 0100     		.2byte	0x1
 15363 25ed 50       		.byte	0x50
 15364 25ee F0000000 		.4byte	.LVL497
 15365 25f2 FC000000 		.4byte	.LFE343
 15366 25f6 0100     		.2byte	0x1
 15367 25f8 55       		.byte	0x55
 15368 25f9 00000000 		.4byte	0
 15369 25fd 00000000 		.4byte	0
 15370              	.LLST317:
 15371 2601 00000000 		.4byte	.LVL458
 15372 2605 DC000000 		.4byte	.LVL493
 15373 2609 0100     		.2byte	0x1
 15374 260b 51       		.byte	0x51
 15375 260c DC000000 		.4byte	.LVL493
 15376 2610 E6000000 		.4byte	.LVL494
 15377 2614 0400     		.2byte	0x4
 15378 2616 F3       		.byte	0xf3
 15379 2617 01       		.uleb128 0x1
 15380 2618 51       		.byte	0x51
 15381 2619 9F       		.byte	0x9f
 15382 261a E6000000 		.4byte	.LVL494
 15383 261e F6000000 		.4byte	.LVL498
 15384 2622 0100     		.2byte	0x1
ARM GAS  C:\Users\strap\AppData\Local\Temp\cc7bAV43.s 			page 315


 15385 2624 51       		.byte	0x51
 15386 2625 F6000000 		.4byte	.LVL498
 15387 2629 FC000000 		.4byte	.LFE343
 15388 262d 0400     		.2byte	0x4
 15389 262f F3       		.byte	0xf3
 15390 2630 01       		.uleb128 0x1
 15391 2631 51       		.byte	0x51
 15392 2632 9F       		.byte	0x9f
 15393 2633 00000000 		.4byte	0
 15394 2637 00000000 		.4byte	0
 15395              	.LLST318:
 15396 263b 00000000 		.4byte	.LVL458
 15397 263f B8000000 		.4byte	.LVL485
 15398 2643 0100     		.2byte	0x1
 15399 2645 52       		.byte	0x52
 15400 2646 B8000000 		.4byte	.LVL485
 15401 264a E6000000 		.4byte	.LVL494
 15402 264e 0400     		.2byte	0x4
 15403 2650 F3       		.byte	0xf3
 15404 2651 01       		.uleb128 0x1
 15405 2652 52       		.byte	0x52
 15406 2653 9F       		.byte	0x9f
 15407 2654 E6000000 		.4byte	.LVL494
 15408 2658 F6000000 		.4byte	.LVL498
 15409 265c 0100     		.2byte	0x1
 15410 265e 52       		.byte	0x52
 15411 265f F6000000 		.4byte	.LVL498
 15412 2663 FC000000 		.4byte	.LFE343
 15413 2667 0400     		.2byte	0x4
 15414 2669 F3       		.byte	0xf3
 15415 266a 01       		.uleb128 0x1
 15416 266b 52       		.byte	0x52
 15417 266c 9F       		.byte	0x9f
 15418 266d 00000000 		.4byte	0
 15419 2671 00000000 		.4byte	0
 15420              	.LLST319:
 15421 2675 00000000 		.4byte	.LVL458
 15422 2679 B8000000 		.4byte	.LVL485
 15423 267d 0100     		.2byte	0x1
 15424 267f 52       		.byte	0x52
 15425 2680 B8000000 		.4byte	.LVL485
 15426 2684 E6000000 		.4byte	.LVL494
 15427 2688 0400     		.2byte	0x4
 15428 268a F3       		.byte	0xf3
 15429 268b 01       		.uleb128 0x1
 15430 268c 52       		.byte	0x52
 15431 268d 9F       		.byte	0x9f
 15432 268e E6000000 		.4byte	.LVL494
 15433 2692 F6000000 		.4byte	.LVL498
 15434 2696 0100     		.2byte	0x1
 15435 2698 52       		.byte	0x52
 15436 2699 F6000000 		.4byte	.LVL498
 15437 269d FC000000 		.4byte	.LFE343
 15438 26a1 0400     		.2byte	0x4
 15439 26a3 F3       		.byte	0xf3
 15440 26a4 01       		.uleb128 0x1
 15441 26a5 52       		.byte	0x52
ARM GAS  C:\Users\strap\AppData\Local\Temp\cc7bAV43.s 			page 316


 15442 26a6 9F       		.byte	0x9f
 15443 26a7 00000000 		.4byte	0
 15444 26ab 00000000 		.4byte	0
 15445              	.LLST320:
 15446 26af 12000000 		.4byte	.LVL459
 15447 26b3 A8000000 		.4byte	.LVL483
 15448 26b7 0100     		.2byte	0x1
 15449 26b9 51       		.byte	0x51
 15450 26ba 00000000 		.4byte	0
 15451 26be 00000000 		.4byte	0
 15452              	.LLST321:
 15453 26c2 12000000 		.4byte	.LVL459
 15454 26c6 1E000000 		.4byte	.LVL462
 15455 26ca 0100     		.2byte	0x1
 15456 26cc 50       		.byte	0x50
 15457 26cd 1E000000 		.4byte	.LVL462
 15458 26d1 A4000000 		.4byte	.LVL482
 15459 26d5 0100     		.2byte	0x1
 15460 26d7 55       		.byte	0x55
 15461 26d8 A4000000 		.4byte	.LVL482
 15462 26dc A8000000 		.4byte	.LVL483
 15463 26e0 0100     		.2byte	0x1
 15464 26e2 50       		.byte	0x50
 15465 26e3 00000000 		.4byte	0
 15466 26e7 00000000 		.4byte	0
 15467              	.LLST322:
 15468 26eb 18000000 		.4byte	.LVL460
 15469 26ef A4000000 		.4byte	.LVL482
 15470 26f3 0100     		.2byte	0x1
 15471 26f5 56       		.byte	0x56
 15472 26f6 00000000 		.4byte	0
 15473 26fa 00000000 		.4byte	0
 15474              	.LLST323:
 15475 26fe 1C000000 		.4byte	.LVL461
 15476 2702 A4000000 		.4byte	.LVL482
 15477 2706 0100     		.2byte	0x1
 15478 2708 5E       		.byte	0x5e
 15479 2709 00000000 		.4byte	0
 15480 270d 00000000 		.4byte	0
 15481              	.LLST324:
 15482 2711 1C000000 		.4byte	.LVL461
 15483 2715 26000000 		.4byte	.LVL463
 15484 2719 0300     		.2byte	0x3
 15485 271b 09       		.byte	0x9
 15486 271c FF       		.byte	0xff
 15487 271d 9F       		.byte	0x9f
 15488 271e 26000000 		.4byte	.LVL463
 15489 2722 A4000000 		.4byte	.LVL482
 15490 2726 0100     		.2byte	0x1
 15491 2728 5C       		.byte	0x5c
 15492 2729 00000000 		.4byte	0
 15493 272d 00000000 		.4byte	0
 15494              	.LLST325:
 15495 2731 1C000000 		.4byte	.LVL461
 15496 2735 26000000 		.4byte	.LVL463
 15497 2739 0300     		.2byte	0x3
 15498 273b 09       		.byte	0x9
ARM GAS  C:\Users\strap\AppData\Local\Temp\cc7bAV43.s 			page 317


 15499 273c FF       		.byte	0xff
 15500 273d 9F       		.byte	0x9f
 15501 273e 26000000 		.4byte	.LVL463
 15502 2742 50000000 		.4byte	.LVL467
 15503 2746 0100     		.2byte	0x1
 15504 2748 57       		.byte	0x57
 15505 2749 52000000 		.4byte	.LVL468
 15506 274d A4000000 		.4byte	.LVL482
 15507 2751 0100     		.2byte	0x1
 15508 2753 57       		.byte	0x57
 15509 2754 00000000 		.4byte	0
 15510 2758 00000000 		.4byte	0
 15511              	.LLST326:
 15512 275c 1C000000 		.4byte	.LVL461
 15513 2760 26000000 		.4byte	.LVL463
 15514 2764 0200     		.2byte	0x2
 15515 2766 30       		.byte	0x30
 15516 2767 9F       		.byte	0x9f
 15517 2768 26000000 		.4byte	.LVL463
 15518 276c A4000000 		.4byte	.LVL482
 15519 2770 0100     		.2byte	0x1
 15520 2772 50       		.byte	0x50
 15521 2773 00000000 		.4byte	0
 15522 2777 00000000 		.4byte	0
 15523              	.LLST327:
 15524 277b 2A000000 		.4byte	.LVL464
 15525 277f 44000000 		.4byte	.LVL466
 15526 2783 0100     		.2byte	0x1
 15527 2785 50       		.byte	0x50
 15528 2786 00000000 		.4byte	0
 15529 278a 00000000 		.4byte	0
 15530              	.LLST328:
 15531 278e 2A000000 		.4byte	.LVL464
 15532 2792 44000000 		.4byte	.LVL466
 15533 2796 0100     		.2byte	0x1
 15534 2798 55       		.byte	0x55
 15535 2799 00000000 		.4byte	0
 15536 279d 00000000 		.4byte	0
 15537              	.LLST329:
 15538 27a1 2A000000 		.4byte	.LVL464
 15539 27a5 42000000 		.4byte	.LVL465
 15540 27a9 0100     		.2byte	0x1
 15541 27ab 50       		.byte	0x50
 15542 27ac 00000000 		.4byte	0
 15543 27b0 00000000 		.4byte	0
 15544              	.LLST330:
 15545 27b4 2A000000 		.4byte	.LVL464
 15546 27b8 42000000 		.4byte	.LVL465
 15547 27bc 0100     		.2byte	0x1
 15548 27be 55       		.byte	0x55
 15549 27bf 00000000 		.4byte	0
 15550 27c3 00000000 		.4byte	0
 15551              	.LLST331:
 15552 27c7 2A000000 		.4byte	.LVL464
 15553 27cb 6A000000 		.4byte	.LVL470
 15554 27cf 0300     		.2byte	0x3
 15555 27d1 91       		.byte	0x91
ARM GAS  C:\Users\strap\AppData\Local\Temp\cc7bAV43.s 			page 318


 15556 27d2 5E       		.sleb128 -34
 15557 27d3 9F       		.byte	0x9f
 15558 27d4 00000000 		.4byte	0
 15559 27d8 00000000 		.4byte	0
 15560              	.LLST332:
 15561 27dc 6A000000 		.4byte	.LVL470
 15562 27e0 8A000000 		.4byte	.LVL479
 15563 27e4 0100     		.2byte	0x1
 15564 27e6 50       		.byte	0x50
 15565 27e7 00000000 		.4byte	0
 15566 27eb 00000000 		.4byte	0
 15567              	.LLST333:
 15568 27ef 6E000000 		.4byte	.LVL471
 15569 27f3 7C000000 		.4byte	.LVL472
 15570 27f7 0100     		.2byte	0x1
 15571 27f9 53       		.byte	0x53
 15572 27fa 7E000000 		.4byte	.LVL473
 15573 27fe 80000000 		.4byte	.LVL474
 15574 2802 0100     		.2byte	0x1
 15575 2804 53       		.byte	0x53
 15576 2805 82000000 		.4byte	.LVL475
 15577 2809 84000000 		.4byte	.LVL476
 15578 280d 0100     		.2byte	0x1
 15579 280f 53       		.byte	0x53
 15580 2810 86000000 		.4byte	.LVL477
 15581 2814 88000000 		.4byte	.LVL478
 15582 2818 0100     		.2byte	0x1
 15583 281a 53       		.byte	0x53
 15584 281b 00000000 		.4byte	0
 15585 281f 00000000 		.4byte	0
 15586              	.LLST334:
 15587 2823 6E000000 		.4byte	.LVL471
 15588 2827 88000000 		.4byte	.LVL478
 15589 282b 0200     		.2byte	0x2
 15590 282d 32       		.byte	0x32
 15591 282e 9F       		.byte	0x9f
 15592 282f 00000000 		.4byte	0
 15593 2833 00000000 		.4byte	0
 15594              	.LLST335:
 15595 2837 8A000000 		.4byte	.LVL479
 15596 283b 9E000000 		.4byte	.LVL481
 15597 283f 0100     		.2byte	0x1
 15598 2841 50       		.byte	0x50
 15599 2842 00000000 		.4byte	0
 15600 2846 00000000 		.4byte	0
 15601              	.LLST336:
 15602 284a 8A000000 		.4byte	.LVL479
 15603 284e 9E000000 		.4byte	.LVL481
 15604 2852 0100     		.2byte	0x1
 15605 2854 55       		.byte	0x55
 15606 2855 00000000 		.4byte	0
 15607 2859 00000000 		.4byte	0
 15608              	.LLST337:
 15609 285d 8A000000 		.4byte	.LVL479
 15610 2861 9A000000 		.4byte	.LVL480
 15611 2865 0100     		.2byte	0x1
 15612 2867 50       		.byte	0x50
ARM GAS  C:\Users\strap\AppData\Local\Temp\cc7bAV43.s 			page 319


 15613 2868 00000000 		.4byte	0
 15614 286c 00000000 		.4byte	0
 15615              	.LLST338:
 15616 2870 8A000000 		.4byte	.LVL479
 15617 2874 9A000000 		.4byte	.LVL480
 15618 2878 0100     		.2byte	0x1
 15619 287a 55       		.byte	0x55
 15620 287b 00000000 		.4byte	0
 15621 287f 00000000 		.4byte	0
 15622              	.LLST339:
 15623 2883 26000000 		.4byte	.LVL463
 15624 2887 A4000000 		.4byte	.LVL482
 15625 288b 0300     		.2byte	0x3
 15626 288d 91       		.byte	0x91
 15627 288e 5E       		.sleb128 -34
 15628 288f 9F       		.byte	0x9f
 15629 2890 00000000 		.4byte	0
 15630 2894 00000000 		.4byte	0
 15631              	.LLST340:
 15632 2898 DC000000 		.4byte	.LVL493
 15633 289c E6000000 		.4byte	.LVL494
 15634 28a0 0100     		.2byte	0x1
 15635 28a2 51       		.byte	0x51
 15636 28a3 00000000 		.4byte	0
 15637 28a7 00000000 		.4byte	0
 15638              	.LLST341:
 15639 28ab B4000000 		.4byte	.LVL484
 15640 28af B8000000 		.4byte	.LVL485
 15641 28b3 0200     		.2byte	0x2
 15642 28b5 31       		.byte	0x31
 15643 28b6 9F       		.byte	0x9f
 15644 28b7 B8000000 		.4byte	.LVL485
 15645 28bb C6000000 		.4byte	.LVL489
 15646 28bf 0100     		.2byte	0x1
 15647 28c1 53       		.byte	0x53
 15648 28c2 00000000 		.4byte	0
 15649 28c6 00000000 		.4byte	0
 15650              	.LLST342:
 15651 28ca B4000000 		.4byte	.LVL484
 15652 28ce B8000000 		.4byte	.LVL485
 15653 28d2 0100     		.2byte	0x1
 15654 28d4 57       		.byte	0x57
 15655 28d5 00000000 		.4byte	0
 15656 28d9 00000000 		.4byte	0
 15657              	.LLST343:
 15658 28dd B4000000 		.4byte	.LVL484
 15659 28e1 B8000000 		.4byte	.LVL485
 15660 28e5 0100     		.2byte	0x1
 15661 28e7 52       		.byte	0x52
 15662 28e8 B8000000 		.4byte	.LVL485
 15663 28ec C6000000 		.4byte	.LVL489
 15664 28f0 0400     		.2byte	0x4
 15665 28f2 F3       		.byte	0xf3
 15666 28f3 01       		.uleb128 0x1
 15667 28f4 52       		.byte	0x52
 15668 28f5 9F       		.byte	0x9f
 15669 28f6 00000000 		.4byte	0
ARM GAS  C:\Users\strap\AppData\Local\Temp\cc7bAV43.s 			page 320


 15670 28fa 00000000 		.4byte	0
 15671              	.LLST344:
 15672 28fe B4000000 		.4byte	.LVL484
 15673 2902 CA000000 		.4byte	.LVL490
 15674 2906 0100     		.2byte	0x1
 15675 2908 52       		.byte	0x52
 15676 2909 00000000 		.4byte	0
 15677 290d 00000000 		.4byte	0
 15678              	.LLST345:
 15679 2911 B4000000 		.4byte	.LVL484
 15680 2915 BC000000 		.4byte	.LVL486
 15681 2919 0100     		.2byte	0x1
 15682 291b 57       		.byte	0x57
 15683 291c BC000000 		.4byte	.LVL486
 15684 2920 C0000000 		.4byte	.LVL487
 15685 2924 0300     		.2byte	0x3
 15686 2926 77       		.byte	0x77
 15687 2927 7F       		.sleb128 -1
 15688 2928 9F       		.byte	0x9f
 15689 2929 C0000000 		.4byte	.LVL487
 15690 292d E6000000 		.4byte	.LVL494
 15691 2931 0100     		.2byte	0x1
 15692 2933 57       		.byte	0x57
 15693 2934 00000000 		.4byte	0
 15694 2938 00000000 		.4byte	0
 15695              	.LLST346:
 15696 293c C6000000 		.4byte	.LVL489
 15697 2940 D0000000 		.4byte	.LVL491
 15698 2944 0100     		.2byte	0x1
 15699 2946 50       		.byte	0x50
 15700 2947 00000000 		.4byte	0
 15701 294b 00000000 		.4byte	0
 15702              	.LLST347:
 15703 294f C6000000 		.4byte	.LVL489
 15704 2953 DA000000 		.4byte	.LVL492
 15705 2957 0100     		.2byte	0x1
 15706 2959 55       		.byte	0x55
 15707 295a 00000000 		.4byte	0
 15708 295e 00000000 		.4byte	0
 15709              	.LLST350:
 15710 2962 C6000000 		.4byte	.LVL489
 15711 2966 E6000000 		.4byte	.LVL494
 15712 296a 0300     		.2byte	0x3
 15713 296c 91       		.byte	0x91
 15714 296d 5E       		.sleb128 -34
 15715 296e 9F       		.byte	0x9f
 15716 296f 00000000 		.4byte	0
 15717 2973 00000000 		.4byte	0
 15718              	.LLST351:
 15719 2977 00000000 		.4byte	.LVL499
 15720 297b 1E000000 		.4byte	.LVL503
 15721 297f 0100     		.2byte	0x1
 15722 2981 50       		.byte	0x50
 15723 2982 1E000000 		.4byte	.LVL503
 15724 2986 A4000000 		.4byte	.LVL523
 15725 298a 0100     		.2byte	0x1
 15726 298c 55       		.byte	0x55
ARM GAS  C:\Users\strap\AppData\Local\Temp\cc7bAV43.s 			page 321


 15727 298d A4000000 		.4byte	.LVL523
 15728 2991 A8000000 		.4byte	.LVL524
 15729 2995 0100     		.2byte	0x1
 15730 2997 50       		.byte	0x50
 15731 2998 A8000000 		.4byte	.LVL524
 15732 299c E6000000 		.4byte	.LVL536
 15733 29a0 0100     		.2byte	0x1
 15734 29a2 55       		.byte	0x55
 15735 29a3 E6000000 		.4byte	.LVL536
 15736 29a7 EA000000 		.4byte	.LVL537
 15737 29ab 0100     		.2byte	0x1
 15738 29ad 50       		.byte	0x50
 15739 29ae EA000000 		.4byte	.LVL537
 15740 29b2 EC000000 		.4byte	.LVL538
 15741 29b6 0400     		.2byte	0x4
 15742 29b8 F3       		.byte	0xf3
 15743 29b9 01       		.uleb128 0x1
 15744 29ba 50       		.byte	0x50
 15745 29bb 9F       		.byte	0x9f
 15746 29bc EC000000 		.4byte	.LVL538
 15747 29c0 F0000000 		.4byte	.LVL539
 15748 29c4 0100     		.2byte	0x1
 15749 29c6 50       		.byte	0x50
 15750 29c7 F0000000 		.4byte	.LVL539
 15751 29cb FC000000 		.4byte	.LFE344
 15752 29cf 0100     		.2byte	0x1
 15753 29d1 55       		.byte	0x55
 15754 29d2 00000000 		.4byte	0
 15755 29d6 00000000 		.4byte	0
 15756              	.LLST352:
 15757 29da 00000000 		.4byte	.LVL499
 15758 29de DC000000 		.4byte	.LVL535
 15759 29e2 0100     		.2byte	0x1
 15760 29e4 51       		.byte	0x51
 15761 29e5 DC000000 		.4byte	.LVL535
 15762 29e9 E6000000 		.4byte	.LVL536
 15763 29ed 0400     		.2byte	0x4
 15764 29ef F3       		.byte	0xf3
 15765 29f0 01       		.uleb128 0x1
 15766 29f1 51       		.byte	0x51
 15767 29f2 9F       		.byte	0x9f
 15768 29f3 E6000000 		.4byte	.LVL536
 15769 29f7 F6000000 		.4byte	.LVL540
 15770 29fb 0100     		.2byte	0x1
 15771 29fd 51       		.byte	0x51
 15772 29fe F6000000 		.4byte	.LVL540
 15773 2a02 FC000000 		.4byte	.LFE344
 15774 2a06 0400     		.2byte	0x4
 15775 2a08 F3       		.byte	0xf3
 15776 2a09 01       		.uleb128 0x1
 15777 2a0a 51       		.byte	0x51
 15778 2a0b 9F       		.byte	0x9f
 15779 2a0c 00000000 		.4byte	0
 15780 2a10 00000000 		.4byte	0
 15781              	.LLST353:
 15782 2a14 00000000 		.4byte	.LVL499
 15783 2a18 B8000000 		.4byte	.LVL526
ARM GAS  C:\Users\strap\AppData\Local\Temp\cc7bAV43.s 			page 322


 15784 2a1c 0100     		.2byte	0x1
 15785 2a1e 52       		.byte	0x52
 15786 2a1f B8000000 		.4byte	.LVL526
 15787 2a23 E6000000 		.4byte	.LVL536
 15788 2a27 0400     		.2byte	0x4
 15789 2a29 F3       		.byte	0xf3
 15790 2a2a 01       		.uleb128 0x1
 15791 2a2b 52       		.byte	0x52
 15792 2a2c 9F       		.byte	0x9f
 15793 2a2d E6000000 		.4byte	.LVL536
 15794 2a31 F6000000 		.4byte	.LVL540
 15795 2a35 0100     		.2byte	0x1
 15796 2a37 52       		.byte	0x52
 15797 2a38 F6000000 		.4byte	.LVL540
 15798 2a3c FC000000 		.4byte	.LFE344
 15799 2a40 0400     		.2byte	0x4
 15800 2a42 F3       		.byte	0xf3
 15801 2a43 01       		.uleb128 0x1
 15802 2a44 52       		.byte	0x52
 15803 2a45 9F       		.byte	0x9f
 15804 2a46 00000000 		.4byte	0
 15805 2a4a 00000000 		.4byte	0
 15806              	.LLST354:
 15807 2a4e 00000000 		.4byte	.LVL499
 15808 2a52 B8000000 		.4byte	.LVL526
 15809 2a56 0100     		.2byte	0x1
 15810 2a58 52       		.byte	0x52
 15811 2a59 B8000000 		.4byte	.LVL526
 15812 2a5d E6000000 		.4byte	.LVL536
 15813 2a61 0400     		.2byte	0x4
 15814 2a63 F3       		.byte	0xf3
 15815 2a64 01       		.uleb128 0x1
 15816 2a65 52       		.byte	0x52
 15817 2a66 9F       		.byte	0x9f
 15818 2a67 E6000000 		.4byte	.LVL536
 15819 2a6b F6000000 		.4byte	.LVL540
 15820 2a6f 0100     		.2byte	0x1
 15821 2a71 52       		.byte	0x52
 15822 2a72 F6000000 		.4byte	.LVL540
 15823 2a76 FC000000 		.4byte	.LFE344
 15824 2a7a 0400     		.2byte	0x4
 15825 2a7c F3       		.byte	0xf3
 15826 2a7d 01       		.uleb128 0x1
 15827 2a7e 52       		.byte	0x52
 15828 2a7f 9F       		.byte	0x9f
 15829 2a80 00000000 		.4byte	0
 15830 2a84 00000000 		.4byte	0
 15831              	.LLST355:
 15832 2a88 12000000 		.4byte	.LVL500
 15833 2a8c A8000000 		.4byte	.LVL524
 15834 2a90 0100     		.2byte	0x1
 15835 2a92 51       		.byte	0x51
 15836 2a93 00000000 		.4byte	0
 15837 2a97 00000000 		.4byte	0
 15838              	.LLST356:
 15839 2a9b 12000000 		.4byte	.LVL500
 15840 2a9f 1E000000 		.4byte	.LVL503
ARM GAS  C:\Users\strap\AppData\Local\Temp\cc7bAV43.s 			page 323


 15841 2aa3 0100     		.2byte	0x1
 15842 2aa5 50       		.byte	0x50
 15843 2aa6 1E000000 		.4byte	.LVL503
 15844 2aaa A4000000 		.4byte	.LVL523
 15845 2aae 0100     		.2byte	0x1
 15846 2ab0 55       		.byte	0x55
 15847 2ab1 A4000000 		.4byte	.LVL523
 15848 2ab5 A8000000 		.4byte	.LVL524
 15849 2ab9 0100     		.2byte	0x1
 15850 2abb 50       		.byte	0x50
 15851 2abc 00000000 		.4byte	0
 15852 2ac0 00000000 		.4byte	0
 15853              	.LLST357:
 15854 2ac4 18000000 		.4byte	.LVL501
 15855 2ac8 A4000000 		.4byte	.LVL523
 15856 2acc 0100     		.2byte	0x1
 15857 2ace 56       		.byte	0x56
 15858 2acf 00000000 		.4byte	0
 15859 2ad3 00000000 		.4byte	0
 15860              	.LLST358:
 15861 2ad7 1C000000 		.4byte	.LVL502
 15862 2adb A4000000 		.4byte	.LVL523
 15863 2adf 0100     		.2byte	0x1
 15864 2ae1 5E       		.byte	0x5e
 15865 2ae2 00000000 		.4byte	0
 15866 2ae6 00000000 		.4byte	0
 15867              	.LLST359:
 15868 2aea 1C000000 		.4byte	.LVL502
 15869 2aee 26000000 		.4byte	.LVL504
 15870 2af2 0300     		.2byte	0x3
 15871 2af4 09       		.byte	0x9
 15872 2af5 FF       		.byte	0xff
 15873 2af6 9F       		.byte	0x9f
 15874 2af7 26000000 		.4byte	.LVL504
 15875 2afb A4000000 		.4byte	.LVL523
 15876 2aff 0100     		.2byte	0x1
 15877 2b01 5C       		.byte	0x5c
 15878 2b02 00000000 		.4byte	0
 15879 2b06 00000000 		.4byte	0
 15880              	.LLST360:
 15881 2b0a 1C000000 		.4byte	.LVL502
 15882 2b0e 26000000 		.4byte	.LVL504
 15883 2b12 0300     		.2byte	0x3
 15884 2b14 09       		.byte	0x9
 15885 2b15 FF       		.byte	0xff
 15886 2b16 9F       		.byte	0x9f
 15887 2b17 26000000 		.4byte	.LVL504
 15888 2b1b 50000000 		.4byte	.LVL508
 15889 2b1f 0100     		.2byte	0x1
 15890 2b21 57       		.byte	0x57
 15891 2b22 52000000 		.4byte	.LVL509
 15892 2b26 A4000000 		.4byte	.LVL523
 15893 2b2a 0100     		.2byte	0x1
 15894 2b2c 57       		.byte	0x57
 15895 2b2d 00000000 		.4byte	0
 15896 2b31 00000000 		.4byte	0
 15897              	.LLST361:
ARM GAS  C:\Users\strap\AppData\Local\Temp\cc7bAV43.s 			page 324


 15898 2b35 1C000000 		.4byte	.LVL502
 15899 2b39 26000000 		.4byte	.LVL504
 15900 2b3d 0200     		.2byte	0x2
 15901 2b3f 30       		.byte	0x30
 15902 2b40 9F       		.byte	0x9f
 15903 2b41 26000000 		.4byte	.LVL504
 15904 2b45 A4000000 		.4byte	.LVL523
 15905 2b49 0100     		.2byte	0x1
 15906 2b4b 50       		.byte	0x50
 15907 2b4c 00000000 		.4byte	0
 15908 2b50 00000000 		.4byte	0
 15909              	.LLST362:
 15910 2b54 2A000000 		.4byte	.LVL505
 15911 2b58 44000000 		.4byte	.LVL507
 15912 2b5c 0100     		.2byte	0x1
 15913 2b5e 50       		.byte	0x50
 15914 2b5f 00000000 		.4byte	0
 15915 2b63 00000000 		.4byte	0
 15916              	.LLST363:
 15917 2b67 2A000000 		.4byte	.LVL505
 15918 2b6b 44000000 		.4byte	.LVL507
 15919 2b6f 0100     		.2byte	0x1
 15920 2b71 55       		.byte	0x55
 15921 2b72 00000000 		.4byte	0
 15922 2b76 00000000 		.4byte	0
 15923              	.LLST364:
 15924 2b7a 2A000000 		.4byte	.LVL505
 15925 2b7e 42000000 		.4byte	.LVL506
 15926 2b82 0100     		.2byte	0x1
 15927 2b84 50       		.byte	0x50
 15928 2b85 00000000 		.4byte	0
 15929 2b89 00000000 		.4byte	0
 15930              	.LLST365:
 15931 2b8d 2A000000 		.4byte	.LVL505
 15932 2b91 42000000 		.4byte	.LVL506
 15933 2b95 0100     		.2byte	0x1
 15934 2b97 55       		.byte	0x55
 15935 2b98 00000000 		.4byte	0
 15936 2b9c 00000000 		.4byte	0
 15937              	.LLST366:
 15938 2ba0 2A000000 		.4byte	.LVL505
 15939 2ba4 6A000000 		.4byte	.LVL511
 15940 2ba8 0300     		.2byte	0x3
 15941 2baa 91       		.byte	0x91
 15942 2bab 5E       		.sleb128 -34
 15943 2bac 9F       		.byte	0x9f
 15944 2bad 00000000 		.4byte	0
 15945 2bb1 00000000 		.4byte	0
 15946              	.LLST367:
 15947 2bb5 6A000000 		.4byte	.LVL511
 15948 2bb9 8A000000 		.4byte	.LVL520
 15949 2bbd 0100     		.2byte	0x1
 15950 2bbf 50       		.byte	0x50
 15951 2bc0 00000000 		.4byte	0
 15952 2bc4 00000000 		.4byte	0
 15953              	.LLST368:
 15954 2bc8 6E000000 		.4byte	.LVL512
ARM GAS  C:\Users\strap\AppData\Local\Temp\cc7bAV43.s 			page 325


 15955 2bcc 7C000000 		.4byte	.LVL513
 15956 2bd0 0100     		.2byte	0x1
 15957 2bd2 53       		.byte	0x53
 15958 2bd3 7E000000 		.4byte	.LVL514
 15959 2bd7 80000000 		.4byte	.LVL515
 15960 2bdb 0100     		.2byte	0x1
 15961 2bdd 53       		.byte	0x53
 15962 2bde 82000000 		.4byte	.LVL516
 15963 2be2 84000000 		.4byte	.LVL517
 15964 2be6 0100     		.2byte	0x1
 15965 2be8 53       		.byte	0x53
 15966 2be9 86000000 		.4byte	.LVL518
 15967 2bed 88000000 		.4byte	.LVL519
 15968 2bf1 0100     		.2byte	0x1
 15969 2bf3 53       		.byte	0x53
 15970 2bf4 00000000 		.4byte	0
 15971 2bf8 00000000 		.4byte	0
 15972              	.LLST369:
 15973 2bfc 6E000000 		.4byte	.LVL512
 15974 2c00 88000000 		.4byte	.LVL519
 15975 2c04 0200     		.2byte	0x2
 15976 2c06 32       		.byte	0x32
 15977 2c07 9F       		.byte	0x9f
 15978 2c08 00000000 		.4byte	0
 15979 2c0c 00000000 		.4byte	0
 15980              	.LLST370:
 15981 2c10 8A000000 		.4byte	.LVL520
 15982 2c14 9E000000 		.4byte	.LVL522
 15983 2c18 0100     		.2byte	0x1
 15984 2c1a 50       		.byte	0x50
 15985 2c1b 00000000 		.4byte	0
 15986 2c1f 00000000 		.4byte	0
 15987              	.LLST371:
 15988 2c23 8A000000 		.4byte	.LVL520
 15989 2c27 9E000000 		.4byte	.LVL522
 15990 2c2b 0100     		.2byte	0x1
 15991 2c2d 55       		.byte	0x55
 15992 2c2e 00000000 		.4byte	0
 15993 2c32 00000000 		.4byte	0
 15994              	.LLST372:
 15995 2c36 8A000000 		.4byte	.LVL520
 15996 2c3a 9A000000 		.4byte	.LVL521
 15997 2c3e 0100     		.2byte	0x1
 15998 2c40 50       		.byte	0x50
 15999 2c41 00000000 		.4byte	0
 16000 2c45 00000000 		.4byte	0
 16001              	.LLST373:
 16002 2c49 8A000000 		.4byte	.LVL520
 16003 2c4d 9A000000 		.4byte	.LVL521
 16004 2c51 0100     		.2byte	0x1
 16005 2c53 55       		.byte	0x55
 16006 2c54 00000000 		.4byte	0
 16007 2c58 00000000 		.4byte	0
 16008              	.LLST374:
 16009 2c5c 26000000 		.4byte	.LVL504
 16010 2c60 A4000000 		.4byte	.LVL523
 16011 2c64 0300     		.2byte	0x3
ARM GAS  C:\Users\strap\AppData\Local\Temp\cc7bAV43.s 			page 326


 16012 2c66 91       		.byte	0x91
 16013 2c67 5E       		.sleb128 -34
 16014 2c68 9F       		.byte	0x9f
 16015 2c69 00000000 		.4byte	0
 16016 2c6d 00000000 		.4byte	0
 16017              	.LLST375:
 16018 2c71 DC000000 		.4byte	.LVL535
 16019 2c75 E6000000 		.4byte	.LVL536
 16020 2c79 0100     		.2byte	0x1
 16021 2c7b 51       		.byte	0x51
 16022 2c7c 00000000 		.4byte	0
 16023 2c80 00000000 		.4byte	0
 16024              	.LLST376:
 16025 2c84 B4000000 		.4byte	.LVL525
 16026 2c88 B8000000 		.4byte	.LVL526
 16027 2c8c 0200     		.2byte	0x2
 16028 2c8e 32       		.byte	0x32
 16029 2c8f 9F       		.byte	0x9f
 16030 2c90 B8000000 		.4byte	.LVL526
 16031 2c94 C6000000 		.4byte	.LVL530
 16032 2c98 0100     		.2byte	0x1
 16033 2c9a 50       		.byte	0x50
 16034 2c9b 00000000 		.4byte	0
 16035 2c9f 00000000 		.4byte	0
 16036              	.LLST377:
 16037 2ca3 B4000000 		.4byte	.LVL525
 16038 2ca7 B8000000 		.4byte	.LVL526
 16039 2cab 0100     		.2byte	0x1
 16040 2cad 53       		.byte	0x53
 16041 2cae 00000000 		.4byte	0
 16042 2cb2 00000000 		.4byte	0
 16043              	.LLST378:
 16044 2cb6 B4000000 		.4byte	.LVL525
 16045 2cba B8000000 		.4byte	.LVL526
 16046 2cbe 0100     		.2byte	0x1
 16047 2cc0 52       		.byte	0x52
 16048 2cc1 B8000000 		.4byte	.LVL526
 16049 2cc5 C6000000 		.4byte	.LVL530
 16050 2cc9 0400     		.2byte	0x4
 16051 2ccb F3       		.byte	0xf3
 16052 2ccc 01       		.uleb128 0x1
 16053 2ccd 52       		.byte	0x52
 16054 2cce 9F       		.byte	0x9f
 16055 2ccf 00000000 		.4byte	0
 16056 2cd3 00000000 		.4byte	0
 16057              	.LLST379:
 16058 2cd7 B4000000 		.4byte	.LVL525
 16059 2cdb CA000000 		.4byte	.LVL532
 16060 2cdf 0100     		.2byte	0x1
 16061 2ce1 52       		.byte	0x52
 16062 2ce2 00000000 		.4byte	0
 16063 2ce6 00000000 		.4byte	0
 16064              	.LLST380:
 16065 2cea B4000000 		.4byte	.LVL525
 16066 2cee BC000000 		.4byte	.LVL527
 16067 2cf2 0100     		.2byte	0x1
 16068 2cf4 53       		.byte	0x53
ARM GAS  C:\Users\strap\AppData\Local\Temp\cc7bAV43.s 			page 327


 16069 2cf5 BC000000 		.4byte	.LVL527
 16070 2cf9 C0000000 		.4byte	.LVL528
 16071 2cfd 0300     		.2byte	0x3
 16072 2cff 73       		.byte	0x73
 16073 2d00 7F       		.sleb128 -1
 16074 2d01 9F       		.byte	0x9f
 16075 2d02 C0000000 		.4byte	.LVL528
 16076 2d06 C8000000 		.4byte	.LVL531
 16077 2d0a 0100     		.2byte	0x1
 16078 2d0c 53       		.byte	0x53
 16079 2d0d 00000000 		.4byte	0
 16080 2d11 00000000 		.4byte	0
 16081              	.LLST381:
 16082 2d15 C6000000 		.4byte	.LVL530
 16083 2d19 D0000000 		.4byte	.LVL533
 16084 2d1d 0100     		.2byte	0x1
 16085 2d1f 54       		.byte	0x54
 16086 2d20 D0000000 		.4byte	.LVL533
 16087 2d24 DA000000 		.4byte	.LVL534
 16088 2d28 0300     		.2byte	0x3
 16089 2d2a 77       		.byte	0x77
 16090 2d2b 7E       		.sleb128 -2
 16091 2d2c 9F       		.byte	0x9f
 16092 2d2d 00000000 		.4byte	0
 16093 2d31 00000000 		.4byte	0
 16094              	.LLST382:
 16095 2d35 C6000000 		.4byte	.LVL530
 16096 2d39 DA000000 		.4byte	.LVL534
 16097 2d3d 0100     		.2byte	0x1
 16098 2d3f 55       		.byte	0x55
 16099 2d40 00000000 		.4byte	0
 16100 2d44 00000000 		.4byte	0
 16101              	.LLST385:
 16102 2d48 C6000000 		.4byte	.LVL530
 16103 2d4c E6000000 		.4byte	.LVL536
 16104 2d50 0300     		.2byte	0x3
 16105 2d52 91       		.byte	0x91
 16106 2d53 5E       		.sleb128 -34
 16107 2d54 9F       		.byte	0x9f
 16108 2d55 00000000 		.4byte	0
 16109 2d59 00000000 		.4byte	0
 16110              	.LLST386:
 16111 2d5d 00000000 		.4byte	.LVL541
 16112 2d61 1E000000 		.4byte	.LVL545
 16113 2d65 0100     		.2byte	0x1
 16114 2d67 50       		.byte	0x50
 16115 2d68 1E000000 		.4byte	.LVL545
 16116 2d6c A4000000 		.4byte	.LVL565
 16117 2d70 0100     		.2byte	0x1
 16118 2d72 55       		.byte	0x55
 16119 2d73 A4000000 		.4byte	.LVL565
 16120 2d77 A8000000 		.4byte	.LVL566
 16121 2d7b 0100     		.2byte	0x1
 16122 2d7d 50       		.byte	0x50
 16123 2d7e A8000000 		.4byte	.LVL566
 16124 2d82 E6000000 		.4byte	.LVL578
 16125 2d86 0100     		.2byte	0x1
ARM GAS  C:\Users\strap\AppData\Local\Temp\cc7bAV43.s 			page 328


 16126 2d88 55       		.byte	0x55
 16127 2d89 E6000000 		.4byte	.LVL578
 16128 2d8d EA000000 		.4byte	.LVL579
 16129 2d91 0100     		.2byte	0x1
 16130 2d93 50       		.byte	0x50
 16131 2d94 EA000000 		.4byte	.LVL579
 16132 2d98 EC000000 		.4byte	.LVL580
 16133 2d9c 0400     		.2byte	0x4
 16134 2d9e F3       		.byte	0xf3
 16135 2d9f 01       		.uleb128 0x1
 16136 2da0 50       		.byte	0x50
 16137 2da1 9F       		.byte	0x9f
 16138 2da2 EC000000 		.4byte	.LVL580
 16139 2da6 F0000000 		.4byte	.LVL581
 16140 2daa 0100     		.2byte	0x1
 16141 2dac 50       		.byte	0x50
 16142 2dad F0000000 		.4byte	.LVL581
 16143 2db1 FC000000 		.4byte	.LFE345
 16144 2db5 0100     		.2byte	0x1
 16145 2db7 55       		.byte	0x55
 16146 2db8 00000000 		.4byte	0
 16147 2dbc 00000000 		.4byte	0
 16148              	.LLST387:
 16149 2dc0 00000000 		.4byte	.LVL541
 16150 2dc4 DC000000 		.4byte	.LVL577
 16151 2dc8 0100     		.2byte	0x1
 16152 2dca 51       		.byte	0x51
 16153 2dcb DC000000 		.4byte	.LVL577
 16154 2dcf E6000000 		.4byte	.LVL578
 16155 2dd3 0400     		.2byte	0x4
 16156 2dd5 F3       		.byte	0xf3
 16157 2dd6 01       		.uleb128 0x1
 16158 2dd7 51       		.byte	0x51
 16159 2dd8 9F       		.byte	0x9f
 16160 2dd9 E6000000 		.4byte	.LVL578
 16161 2ddd F6000000 		.4byte	.LVL582
 16162 2de1 0100     		.2byte	0x1
 16163 2de3 51       		.byte	0x51
 16164 2de4 F6000000 		.4byte	.LVL582
 16165 2de8 FC000000 		.4byte	.LFE345
 16166 2dec 0400     		.2byte	0x4
 16167 2dee F3       		.byte	0xf3
 16168 2def 01       		.uleb128 0x1
 16169 2df0 51       		.byte	0x51
 16170 2df1 9F       		.byte	0x9f
 16171 2df2 00000000 		.4byte	0
 16172 2df6 00000000 		.4byte	0
 16173              	.LLST388:
 16174 2dfa 00000000 		.4byte	.LVL541
 16175 2dfe B8000000 		.4byte	.LVL568
 16176 2e02 0100     		.2byte	0x1
 16177 2e04 52       		.byte	0x52
 16178 2e05 B8000000 		.4byte	.LVL568
 16179 2e09 E6000000 		.4byte	.LVL578
 16180 2e0d 0400     		.2byte	0x4
 16181 2e0f F3       		.byte	0xf3
 16182 2e10 01       		.uleb128 0x1
ARM GAS  C:\Users\strap\AppData\Local\Temp\cc7bAV43.s 			page 329


 16183 2e11 52       		.byte	0x52
 16184 2e12 9F       		.byte	0x9f
 16185 2e13 E6000000 		.4byte	.LVL578
 16186 2e17 F6000000 		.4byte	.LVL582
 16187 2e1b 0100     		.2byte	0x1
 16188 2e1d 52       		.byte	0x52
 16189 2e1e F6000000 		.4byte	.LVL582
 16190 2e22 FC000000 		.4byte	.LFE345
 16191 2e26 0400     		.2byte	0x4
 16192 2e28 F3       		.byte	0xf3
 16193 2e29 01       		.uleb128 0x1
 16194 2e2a 52       		.byte	0x52
 16195 2e2b 9F       		.byte	0x9f
 16196 2e2c 00000000 		.4byte	0
 16197 2e30 00000000 		.4byte	0
 16198              	.LLST389:
 16199 2e34 00000000 		.4byte	.LVL541
 16200 2e38 B8000000 		.4byte	.LVL568
 16201 2e3c 0100     		.2byte	0x1
 16202 2e3e 52       		.byte	0x52
 16203 2e3f B8000000 		.4byte	.LVL568
 16204 2e43 E6000000 		.4byte	.LVL578
 16205 2e47 0400     		.2byte	0x4
 16206 2e49 F3       		.byte	0xf3
 16207 2e4a 01       		.uleb128 0x1
 16208 2e4b 52       		.byte	0x52
 16209 2e4c 9F       		.byte	0x9f
 16210 2e4d E6000000 		.4byte	.LVL578
 16211 2e51 F6000000 		.4byte	.LVL582
 16212 2e55 0100     		.2byte	0x1
 16213 2e57 52       		.byte	0x52
 16214 2e58 F6000000 		.4byte	.LVL582
 16215 2e5c FC000000 		.4byte	.LFE345
 16216 2e60 0400     		.2byte	0x4
 16217 2e62 F3       		.byte	0xf3
 16218 2e63 01       		.uleb128 0x1
 16219 2e64 52       		.byte	0x52
 16220 2e65 9F       		.byte	0x9f
 16221 2e66 00000000 		.4byte	0
 16222 2e6a 00000000 		.4byte	0
 16223              	.LLST390:
 16224 2e6e 12000000 		.4byte	.LVL542
 16225 2e72 A8000000 		.4byte	.LVL566
 16226 2e76 0100     		.2byte	0x1
 16227 2e78 51       		.byte	0x51
 16228 2e79 00000000 		.4byte	0
 16229 2e7d 00000000 		.4byte	0
 16230              	.LLST391:
 16231 2e81 12000000 		.4byte	.LVL542
 16232 2e85 1E000000 		.4byte	.LVL545
 16233 2e89 0100     		.2byte	0x1
 16234 2e8b 50       		.byte	0x50
 16235 2e8c 1E000000 		.4byte	.LVL545
 16236 2e90 A4000000 		.4byte	.LVL565
 16237 2e94 0100     		.2byte	0x1
 16238 2e96 55       		.byte	0x55
 16239 2e97 A4000000 		.4byte	.LVL565
ARM GAS  C:\Users\strap\AppData\Local\Temp\cc7bAV43.s 			page 330


 16240 2e9b A8000000 		.4byte	.LVL566
 16241 2e9f 0100     		.2byte	0x1
 16242 2ea1 50       		.byte	0x50
 16243 2ea2 00000000 		.4byte	0
 16244 2ea6 00000000 		.4byte	0
 16245              	.LLST392:
 16246 2eaa 18000000 		.4byte	.LVL543
 16247 2eae A4000000 		.4byte	.LVL565
 16248 2eb2 0100     		.2byte	0x1
 16249 2eb4 57       		.byte	0x57
 16250 2eb5 00000000 		.4byte	0
 16251 2eb9 00000000 		.4byte	0
 16252              	.LLST393:
 16253 2ebd 1C000000 		.4byte	.LVL544
 16254 2ec1 A4000000 		.4byte	.LVL565
 16255 2ec5 0100     		.2byte	0x1
 16256 2ec7 5E       		.byte	0x5e
 16257 2ec8 00000000 		.4byte	0
 16258 2ecc 00000000 		.4byte	0
 16259              	.LLST394:
 16260 2ed0 1C000000 		.4byte	.LVL544
 16261 2ed4 26000000 		.4byte	.LVL546
 16262 2ed8 0300     		.2byte	0x3
 16263 2eda 09       		.byte	0x9
 16264 2edb FF       		.byte	0xff
 16265 2edc 9F       		.byte	0x9f
 16266 2edd 26000000 		.4byte	.LVL546
 16267 2ee1 A4000000 		.4byte	.LVL565
 16268 2ee5 0100     		.2byte	0x1
 16269 2ee7 5C       		.byte	0x5c
 16270 2ee8 00000000 		.4byte	0
 16271 2eec 00000000 		.4byte	0
 16272              	.LLST395:
 16273 2ef0 1C000000 		.4byte	.LVL544
 16274 2ef4 26000000 		.4byte	.LVL546
 16275 2ef8 0300     		.2byte	0x3
 16276 2efa 09       		.byte	0x9
 16277 2efb FF       		.byte	0xff
 16278 2efc 9F       		.byte	0x9f
 16279 2efd 26000000 		.4byte	.LVL546
 16280 2f01 50000000 		.4byte	.LVL550
 16281 2f05 0100     		.2byte	0x1
 16282 2f07 56       		.byte	0x56
 16283 2f08 52000000 		.4byte	.LVL551
 16284 2f0c A4000000 		.4byte	.LVL565
 16285 2f10 0100     		.2byte	0x1
 16286 2f12 56       		.byte	0x56
 16287 2f13 00000000 		.4byte	0
 16288 2f17 00000000 		.4byte	0
 16289              	.LLST396:
 16290 2f1b 1C000000 		.4byte	.LVL544
 16291 2f1f 26000000 		.4byte	.LVL546
 16292 2f23 0200     		.2byte	0x2
 16293 2f25 30       		.byte	0x30
 16294 2f26 9F       		.byte	0x9f
 16295 2f27 26000000 		.4byte	.LVL546
 16296 2f2b A4000000 		.4byte	.LVL565
ARM GAS  C:\Users\strap\AppData\Local\Temp\cc7bAV43.s 			page 331


 16297 2f2f 0100     		.2byte	0x1
 16298 2f31 50       		.byte	0x50
 16299 2f32 00000000 		.4byte	0
 16300 2f36 00000000 		.4byte	0
 16301              	.LLST397:
 16302 2f3a 2A000000 		.4byte	.LVL547
 16303 2f3e 44000000 		.4byte	.LVL549
 16304 2f42 0100     		.2byte	0x1
 16305 2f44 50       		.byte	0x50
 16306 2f45 00000000 		.4byte	0
 16307 2f49 00000000 		.4byte	0
 16308              	.LLST398:
 16309 2f4d 2A000000 		.4byte	.LVL547
 16310 2f51 44000000 		.4byte	.LVL549
 16311 2f55 0100     		.2byte	0x1
 16312 2f57 55       		.byte	0x55
 16313 2f58 00000000 		.4byte	0
 16314 2f5c 00000000 		.4byte	0
 16315              	.LLST399:
 16316 2f60 2A000000 		.4byte	.LVL547
 16317 2f64 42000000 		.4byte	.LVL548
 16318 2f68 0100     		.2byte	0x1
 16319 2f6a 50       		.byte	0x50
 16320 2f6b 00000000 		.4byte	0
 16321 2f6f 00000000 		.4byte	0
 16322              	.LLST400:
 16323 2f73 2A000000 		.4byte	.LVL547
 16324 2f77 42000000 		.4byte	.LVL548
 16325 2f7b 0100     		.2byte	0x1
 16326 2f7d 55       		.byte	0x55
 16327 2f7e 00000000 		.4byte	0
 16328 2f82 00000000 		.4byte	0
 16329              	.LLST401:
 16330 2f86 2A000000 		.4byte	.LVL547
 16331 2f8a 6A000000 		.4byte	.LVL553
 16332 2f8e 0300     		.2byte	0x3
 16333 2f90 91       		.byte	0x91
 16334 2f91 5E       		.sleb128 -34
 16335 2f92 9F       		.byte	0x9f
 16336 2f93 00000000 		.4byte	0
 16337 2f97 00000000 		.4byte	0
 16338              	.LLST402:
 16339 2f9b 6A000000 		.4byte	.LVL553
 16340 2f9f 8A000000 		.4byte	.LVL562
 16341 2fa3 0100     		.2byte	0x1
 16342 2fa5 50       		.byte	0x50
 16343 2fa6 00000000 		.4byte	0
 16344 2faa 00000000 		.4byte	0
 16345              	.LLST403:
 16346 2fae 6E000000 		.4byte	.LVL554
 16347 2fb2 7C000000 		.4byte	.LVL555
 16348 2fb6 0100     		.2byte	0x1
 16349 2fb8 53       		.byte	0x53
 16350 2fb9 7E000000 		.4byte	.LVL556
 16351 2fbd 80000000 		.4byte	.LVL557
 16352 2fc1 0100     		.2byte	0x1
 16353 2fc3 53       		.byte	0x53
ARM GAS  C:\Users\strap\AppData\Local\Temp\cc7bAV43.s 			page 332


 16354 2fc4 82000000 		.4byte	.LVL558
 16355 2fc8 84000000 		.4byte	.LVL559
 16356 2fcc 0100     		.2byte	0x1
 16357 2fce 53       		.byte	0x53
 16358 2fcf 86000000 		.4byte	.LVL560
 16359 2fd3 88000000 		.4byte	.LVL561
 16360 2fd7 0100     		.2byte	0x1
 16361 2fd9 53       		.byte	0x53
 16362 2fda 00000000 		.4byte	0
 16363 2fde 00000000 		.4byte	0
 16364              	.LLST404:
 16365 2fe2 6E000000 		.4byte	.LVL554
 16366 2fe6 88000000 		.4byte	.LVL561
 16367 2fea 0200     		.2byte	0x2
 16368 2fec 32       		.byte	0x32
 16369 2fed 9F       		.byte	0x9f
 16370 2fee 00000000 		.4byte	0
 16371 2ff2 00000000 		.4byte	0
 16372              	.LLST405:
 16373 2ff6 8A000000 		.4byte	.LVL562
 16374 2ffa 9E000000 		.4byte	.LVL564
 16375 2ffe 0100     		.2byte	0x1
 16376 3000 50       		.byte	0x50
 16377 3001 00000000 		.4byte	0
 16378 3005 00000000 		.4byte	0
 16379              	.LLST406:
 16380 3009 8A000000 		.4byte	.LVL562
 16381 300d 9E000000 		.4byte	.LVL564
 16382 3011 0100     		.2byte	0x1
 16383 3013 55       		.byte	0x55
 16384 3014 00000000 		.4byte	0
 16385 3018 00000000 		.4byte	0
 16386              	.LLST407:
 16387 301c 8A000000 		.4byte	.LVL562
 16388 3020 9A000000 		.4byte	.LVL563
 16389 3024 0100     		.2byte	0x1
 16390 3026 50       		.byte	0x50
 16391 3027 00000000 		.4byte	0
 16392 302b 00000000 		.4byte	0
 16393              	.LLST408:
 16394 302f 8A000000 		.4byte	.LVL562
 16395 3033 9A000000 		.4byte	.LVL563
 16396 3037 0100     		.2byte	0x1
 16397 3039 55       		.byte	0x55
 16398 303a 00000000 		.4byte	0
 16399 303e 00000000 		.4byte	0
 16400              	.LLST409:
 16401 3042 26000000 		.4byte	.LVL546
 16402 3046 A4000000 		.4byte	.LVL565
 16403 304a 0300     		.2byte	0x3
 16404 304c 91       		.byte	0x91
 16405 304d 5E       		.sleb128 -34
 16406 304e 9F       		.byte	0x9f
 16407 304f 00000000 		.4byte	0
 16408 3053 00000000 		.4byte	0
 16409              	.LLST410:
 16410 3057 DC000000 		.4byte	.LVL577
ARM GAS  C:\Users\strap\AppData\Local\Temp\cc7bAV43.s 			page 333


 16411 305b E6000000 		.4byte	.LVL578
 16412 305f 0100     		.2byte	0x1
 16413 3061 51       		.byte	0x51
 16414 3062 00000000 		.4byte	0
 16415 3066 00000000 		.4byte	0
 16416              	.LLST411:
 16417 306a B4000000 		.4byte	.LVL567
 16418 306e B8000000 		.4byte	.LVL568
 16419 3072 0200     		.2byte	0x2
 16420 3074 34       		.byte	0x34
 16421 3075 9F       		.byte	0x9f
 16422 3076 B8000000 		.4byte	.LVL568
 16423 307a C6000000 		.4byte	.LVL572
 16424 307e 0100     		.2byte	0x1
 16425 3080 50       		.byte	0x50
 16426 3081 00000000 		.4byte	0
 16427 3085 00000000 		.4byte	0
 16428              	.LLST412:
 16429 3089 B4000000 		.4byte	.LVL567
 16430 308d B8000000 		.4byte	.LVL568
 16431 3091 0100     		.2byte	0x1
 16432 3093 53       		.byte	0x53
 16433 3094 00000000 		.4byte	0
 16434 3098 00000000 		.4byte	0
 16435              	.LLST413:
 16436 309c B4000000 		.4byte	.LVL567
 16437 30a0 B8000000 		.4byte	.LVL568
 16438 30a4 0100     		.2byte	0x1
 16439 30a6 52       		.byte	0x52
 16440 30a7 B8000000 		.4byte	.LVL568
 16441 30ab C6000000 		.4byte	.LVL572
 16442 30af 0400     		.2byte	0x4
 16443 30b1 F3       		.byte	0xf3
 16444 30b2 01       		.uleb128 0x1
 16445 30b3 52       		.byte	0x52
 16446 30b4 9F       		.byte	0x9f
 16447 30b5 00000000 		.4byte	0
 16448 30b9 00000000 		.4byte	0
 16449              	.LLST414:
 16450 30bd B4000000 		.4byte	.LVL567
 16451 30c1 CA000000 		.4byte	.LVL574
 16452 30c5 0100     		.2byte	0x1
 16453 30c7 52       		.byte	0x52
 16454 30c8 00000000 		.4byte	0
 16455 30cc 00000000 		.4byte	0
 16456              	.LLST415:
 16457 30d0 B4000000 		.4byte	.LVL567
 16458 30d4 BC000000 		.4byte	.LVL569
 16459 30d8 0100     		.2byte	0x1
 16460 30da 53       		.byte	0x53
 16461 30db BC000000 		.4byte	.LVL569
 16462 30df C0000000 		.4byte	.LVL570
 16463 30e3 0300     		.2byte	0x3
 16464 30e5 73       		.byte	0x73
 16465 30e6 7F       		.sleb128 -1
 16466 30e7 9F       		.byte	0x9f
 16467 30e8 C0000000 		.4byte	.LVL570
ARM GAS  C:\Users\strap\AppData\Local\Temp\cc7bAV43.s 			page 334


 16468 30ec C8000000 		.4byte	.LVL573
 16469 30f0 0100     		.2byte	0x1
 16470 30f2 53       		.byte	0x53
 16471 30f3 00000000 		.4byte	0
 16472 30f7 00000000 		.4byte	0
 16473              	.LLST416:
 16474 30fb C6000000 		.4byte	.LVL572
 16475 30ff D0000000 		.4byte	.LVL575
 16476 3103 0100     		.2byte	0x1
 16477 3105 57       		.byte	0x57
 16478 3106 D0000000 		.4byte	.LVL575
 16479 310a DA000000 		.4byte	.LVL576
 16480 310e 0300     		.2byte	0x3
 16481 3110 76       		.byte	0x76
 16482 3111 7E       		.sleb128 -2
 16483 3112 9F       		.byte	0x9f
 16484 3113 00000000 		.4byte	0
 16485 3117 00000000 		.4byte	0
 16486              	.LLST417:
 16487 311b C6000000 		.4byte	.LVL572
 16488 311f DA000000 		.4byte	.LVL576
 16489 3123 0100     		.2byte	0x1
 16490 3125 55       		.byte	0x55
 16491 3126 00000000 		.4byte	0
 16492 312a 00000000 		.4byte	0
 16493              	.LLST420:
 16494 312e C6000000 		.4byte	.LVL572
 16495 3132 E6000000 		.4byte	.LVL578
 16496 3136 0300     		.2byte	0x3
 16497 3138 91       		.byte	0x91
 16498 3139 5E       		.sleb128 -34
 16499 313a 9F       		.byte	0x9f
 16500 313b 00000000 		.4byte	0
 16501 313f 00000000 		.4byte	0
 16502              	.LLST421:
 16503 3143 00000000 		.4byte	.LVL583
 16504 3147 12000000 		.4byte	.LVL584
 16505 314b 0100     		.2byte	0x1
 16506 314d 50       		.byte	0x50
 16507 314e 12000000 		.4byte	.LVL584
 16508 3152 14000000 		.4byte	.LVL585
 16509 3156 0400     		.2byte	0x4
 16510 3158 F3       		.byte	0xf3
 16511 3159 01       		.uleb128 0x1
 16512 315a 50       		.byte	0x50
 16513 315b 9F       		.byte	0x9f
 16514 315c 14000000 		.4byte	.LVL585
 16515 3160 18000000 		.4byte	.LVL586
 16516 3164 0100     		.2byte	0x1
 16517 3166 50       		.byte	0x50
 16518 3167 18000000 		.4byte	.LVL586
 16519 316b 1A000000 		.4byte	.LVL587
 16520 316f 0400     		.2byte	0x4
 16521 3171 F3       		.byte	0xf3
 16522 3172 01       		.uleb128 0x1
 16523 3173 50       		.byte	0x50
 16524 3174 9F       		.byte	0x9f
ARM GAS  C:\Users\strap\AppData\Local\Temp\cc7bAV43.s 			page 335


 16525 3175 1A000000 		.4byte	.LVL587
 16526 3179 1C000000 		.4byte	.LVL588
 16527 317d 0100     		.2byte	0x1
 16528 317f 50       		.byte	0x50
 16529 3180 1C000000 		.4byte	.LVL588
 16530 3184 1E000000 		.4byte	.LFE346
 16531 3188 0400     		.2byte	0x4
 16532 318a F3       		.byte	0xf3
 16533 318b 01       		.uleb128 0x1
 16534 318c 50       		.byte	0x50
 16535 318d 9F       		.byte	0x9f
 16536 318e 00000000 		.4byte	0
 16537 3192 00000000 		.4byte	0
 16538              	.LLST422:
 16539 3196 00000000 		.4byte	.LVL589
 16540 319a 0C000000 		.4byte	.LVL590
 16541 319e 0100     		.2byte	0x1
 16542 31a0 50       		.byte	0x50
 16543 31a1 0C000000 		.4byte	.LVL590
 16544 31a5 0E000000 		.4byte	.LVL591
 16545 31a9 0400     		.2byte	0x4
 16546 31ab F3       		.byte	0xf3
 16547 31ac 01       		.uleb128 0x1
 16548 31ad 50       		.byte	0x50
 16549 31ae 9F       		.byte	0x9f
 16550 31af 0E000000 		.4byte	.LVL591
 16551 31b3 10000000 		.4byte	.LVL592
 16552 31b7 0100     		.2byte	0x1
 16553 31b9 50       		.byte	0x50
 16554 31ba 10000000 		.4byte	.LVL592
 16555 31be 12000000 		.4byte	.LFE347
 16556 31c2 0400     		.2byte	0x4
 16557 31c4 F3       		.byte	0xf3
 16558 31c5 01       		.uleb128 0x1
 16559 31c6 50       		.byte	0x50
 16560 31c7 9F       		.byte	0x9f
 16561 31c8 00000000 		.4byte	0
 16562 31cc 00000000 		.4byte	0
 16563              	.LLST423:
 16564 31d0 00000000 		.4byte	.LVL593
 16565 31d4 11000000 		.4byte	.LVL594-1
 16566 31d8 0100     		.2byte	0x1
 16567 31da 50       		.byte	0x50
 16568 31db 11000000 		.4byte	.LVL594-1
 16569 31df 64000000 		.4byte	.LVL601
 16570 31e3 0100     		.2byte	0x1
 16571 31e5 54       		.byte	0x54
 16572 31e6 64000000 		.4byte	.LVL601
 16573 31ea 66000000 		.4byte	.LFE335
 16574 31ee 0100     		.2byte	0x1
 16575 31f0 50       		.byte	0x50
 16576 31f1 00000000 		.4byte	0
 16577 31f5 00000000 		.4byte	0
 16578              	.LLST424:
 16579 31f9 12000000 		.4byte	.LVL594
 16580 31fd 19000000 		.4byte	.LVL595-1
 16581 3201 0100     		.2byte	0x1
ARM GAS  C:\Users\strap\AppData\Local\Temp\cc7bAV43.s 			page 336


 16582 3203 50       		.byte	0x50
 16583 3204 19000000 		.4byte	.LVL595-1
 16584 3208 20000000 		.4byte	.LVL596
 16585 320c 0100     		.2byte	0x1
 16586 320e 55       		.byte	0x55
 16587 320f 00000000 		.4byte	0
 16588 3213 00000000 		.4byte	0
 16589              	.LLST425:
 16590 3217 2E000000 		.4byte	.LVL597
 16591 321b 35000000 		.4byte	.LVL598-1
 16592 321f 0100     		.2byte	0x1
 16593 3221 50       		.byte	0x50
 16594 3222 35000000 		.4byte	.LVL598-1
 16595 3226 3C000000 		.4byte	.LVL599
 16596 322a 0100     		.2byte	0x1
 16597 322c 55       		.byte	0x55
 16598 322d 00000000 		.4byte	0
 16599 3231 00000000 		.4byte	0
 16600              	.LLST426:
 16601 3235 00000000 		.4byte	.LVL602
 16602 3239 09000000 		.4byte	.LVL603-1
 16603 323d 0100     		.2byte	0x1
 16604 323f 50       		.byte	0x50
 16605 3240 09000000 		.4byte	.LVL603-1
 16606 3244 EC000000 		.4byte	.LVL615
 16607 3248 0100     		.2byte	0x1
 16608 324a 55       		.byte	0x55
 16609 324b EC000000 		.4byte	.LVL615
 16610 324f FC000000 		.4byte	.LFE332
 16611 3253 0400     		.2byte	0x4
 16612 3255 F3       		.byte	0xf3
 16613 3256 01       		.uleb128 0x1
 16614 3257 50       		.byte	0x50
 16615 3258 9F       		.byte	0x9f
 16616 3259 00000000 		.4byte	0
 16617 325d 00000000 		.4byte	0
 16618              	.LLST427:
 16619 3261 00000000 		.4byte	.LVL602
 16620 3265 09000000 		.4byte	.LVL603-1
 16621 3269 0100     		.2byte	0x1
 16622 326b 51       		.byte	0x51
 16623 326c 09000000 		.4byte	.LVL603-1
 16624 3270 FC000000 		.4byte	.LFE332
 16625 3274 0100     		.2byte	0x1
 16626 3276 54       		.byte	0x54
 16627 3277 00000000 		.4byte	0
 16628 327b 00000000 		.4byte	0
 16629              	.LLST428:
 16630 327f EC000000 		.4byte	.LVL615
 16631 3283 EE000000 		.4byte	.LVL616
 16632 3287 0100     		.2byte	0x1
 16633 3289 50       		.byte	0x50
 16634 328a EE000000 		.4byte	.LVL616
 16635 328e FA000000 		.4byte	.LVL618
 16636 3292 0100     		.2byte	0x1
 16637 3294 55       		.byte	0x55
 16638 3295 00000000 		.4byte	0
ARM GAS  C:\Users\strap\AppData\Local\Temp\cc7bAV43.s 			page 337


 16639 3299 00000000 		.4byte	0
 16640              	.LLST429:
 16641 329d 00000000 		.4byte	.LVL619
 16642 32a1 0F000000 		.4byte	.LVL620-1
 16643 32a5 0100     		.2byte	0x1
 16644 32a7 50       		.byte	0x50
 16645 32a8 0F000000 		.4byte	.LVL620-1
 16646 32ac 12000000 		.4byte	.LVL621
 16647 32b0 0100     		.2byte	0x1
 16648 32b2 55       		.byte	0x55
 16649 32b3 12000000 		.4byte	.LVL621
 16650 32b7 14000000 		.4byte	.LVL622
 16651 32bb 0100     		.2byte	0x1
 16652 32bd 50       		.byte	0x50
 16653 32be 14000000 		.4byte	.LVL622
 16654 32c2 62000000 		.4byte	.LVL632
 16655 32c6 0100     		.2byte	0x1
 16656 32c8 55       		.byte	0x55
 16657 32c9 62000000 		.4byte	.LVL632
 16658 32cd 68000000 		.4byte	.LFE348
 16659 32d1 0400     		.2byte	0x4
 16660 32d3 F3       		.byte	0xf3
 16661 32d4 01       		.uleb128 0x1
 16662 32d5 50       		.byte	0x50
 16663 32d6 9F       		.byte	0x9f
 16664 32d7 00000000 		.4byte	0
 16665 32db 00000000 		.4byte	0
 16666              	.LLST430:
 16667 32df 1A000000 		.4byte	.LVL624
 16668 32e3 1D000000 		.4byte	.LVL625-1
 16669 32e7 0100     		.2byte	0x1
 16670 32e9 50       		.byte	0x50
 16671 32ea 1D000000 		.4byte	.LVL625-1
 16672 32ee 62000000 		.4byte	.LVL632
 16673 32f2 0100     		.2byte	0x1
 16674 32f4 54       		.byte	0x54
 16675 32f5 62000000 		.4byte	.LVL632
 16676 32f9 68000000 		.4byte	.LFE348
 16677 32fd 0100     		.2byte	0x1
 16678 32ff 50       		.byte	0x50
 16679 3300 00000000 		.4byte	0
 16680 3304 00000000 		.4byte	0
 16681              	.LLST431:
 16682 3308 4E000000 		.4byte	.LVL629
 16683 330c 5A000000 		.4byte	.LVL630
 16684 3310 0100     		.2byte	0x1
 16685 3312 52       		.byte	0x52
 16686 3313 00000000 		.4byte	0
 16687 3317 00000000 		.4byte	0
 16688              	.LLST432:
 16689 331b 00000000 		.4byte	.LVL633
 16690 331f 09000000 		.4byte	.LVL634-1
 16691 3323 0100     		.2byte	0x1
 16692 3325 50       		.byte	0x50
 16693 3326 09000000 		.4byte	.LVL634-1
 16694 332a 14000000 		.4byte	.LFE349
 16695 332e 0400     		.2byte	0x4
ARM GAS  C:\Users\strap\AppData\Local\Temp\cc7bAV43.s 			page 338


 16696 3330 F3       		.byte	0xf3
 16697 3331 01       		.uleb128 0x1
 16698 3332 50       		.byte	0x50
 16699 3333 9F       		.byte	0x9f
 16700 3334 00000000 		.4byte	0
 16701 3338 00000000 		.4byte	0
 16702              	.LLST433:
 16703 333c 00000000 		.4byte	.LVL633
 16704 3340 09000000 		.4byte	.LVL634-1
 16705 3344 0100     		.2byte	0x1
 16706 3346 51       		.byte	0x51
 16707 3347 09000000 		.4byte	.LVL634-1
 16708 334b 14000000 		.4byte	.LFE349
 16709 334f 0400     		.2byte	0x4
 16710 3351 F3       		.byte	0xf3
 16711 3352 01       		.uleb128 0x1
 16712 3353 51       		.byte	0x51
 16713 3354 9F       		.byte	0x9f
 16714 3355 00000000 		.4byte	0
 16715 3359 00000000 		.4byte	0
 16716              	.LLST434:
 16717 335d 00000000 		.4byte	.LVL633
 16718 3361 09000000 		.4byte	.LVL634-1
 16719 3365 0100     		.2byte	0x1
 16720 3367 52       		.byte	0x52
 16721 3368 09000000 		.4byte	.LVL634-1
 16722 336c 14000000 		.4byte	.LFE349
 16723 3370 0400     		.2byte	0x4
 16724 3372 F3       		.byte	0xf3
 16725 3373 01       		.uleb128 0x1
 16726 3374 52       		.byte	0x52
 16727 3375 9F       		.byte	0x9f
 16728 3376 00000000 		.4byte	0
 16729 337a 00000000 		.4byte	0
 16730              	.LLST435:
 16731 337e 0A000000 		.4byte	.LVL634
 16732 3382 11000000 		.4byte	.LVL635-1
 16733 3386 0100     		.2byte	0x1
 16734 3388 50       		.byte	0x50
 16735 3389 00000000 		.4byte	0
 16736 338d 00000000 		.4byte	0
 16737              	.LLST436:
 16738 3391 00000000 		.4byte	.LVL636
 16739 3395 09000000 		.4byte	.LVL637-1
 16740 3399 0100     		.2byte	0x1
 16741 339b 50       		.byte	0x50
 16742 339c 09000000 		.4byte	.LVL637-1
 16743 33a0 14000000 		.4byte	.LFE350
 16744 33a4 0400     		.2byte	0x4
 16745 33a6 F3       		.byte	0xf3
 16746 33a7 01       		.uleb128 0x1
 16747 33a8 50       		.byte	0x50
 16748 33a9 9F       		.byte	0x9f
 16749 33aa 00000000 		.4byte	0
 16750 33ae 00000000 		.4byte	0
 16751              	.LLST437:
 16752 33b2 00000000 		.4byte	.LVL636
ARM GAS  C:\Users\strap\AppData\Local\Temp\cc7bAV43.s 			page 339


 16753 33b6 09000000 		.4byte	.LVL637-1
 16754 33ba 0100     		.2byte	0x1
 16755 33bc 51       		.byte	0x51
 16756 33bd 09000000 		.4byte	.LVL637-1
 16757 33c1 14000000 		.4byte	.LFE350
 16758 33c5 0400     		.2byte	0x4
 16759 33c7 F3       		.byte	0xf3
 16760 33c8 01       		.uleb128 0x1
 16761 33c9 51       		.byte	0x51
 16762 33ca 9F       		.byte	0x9f
 16763 33cb 00000000 		.4byte	0
 16764 33cf 00000000 		.4byte	0
 16765              	.LLST438:
 16766 33d3 00000000 		.4byte	.LVL636
 16767 33d7 09000000 		.4byte	.LVL637-1
 16768 33db 0100     		.2byte	0x1
 16769 33dd 52       		.byte	0x52
 16770 33de 09000000 		.4byte	.LVL637-1
 16771 33e2 14000000 		.4byte	.LFE350
 16772 33e6 0400     		.2byte	0x4
 16773 33e8 F3       		.byte	0xf3
 16774 33e9 01       		.uleb128 0x1
 16775 33ea 52       		.byte	0x52
 16776 33eb 9F       		.byte	0x9f
 16777 33ec 00000000 		.4byte	0
 16778 33f0 00000000 		.4byte	0
 16779              	.LLST439:
 16780 33f4 0A000000 		.4byte	.LVL637
 16781 33f8 11000000 		.4byte	.LVL638-1
 16782 33fc 0100     		.2byte	0x1
 16783 33fe 50       		.byte	0x50
 16784 33ff 00000000 		.4byte	0
 16785 3403 00000000 		.4byte	0
 16786              	.LLST440:
 16787 3407 00000000 		.4byte	.LVL639
 16788 340b 09000000 		.4byte	.LVL640-1
 16789 340f 0100     		.2byte	0x1
 16790 3411 50       		.byte	0x50
 16791 3412 09000000 		.4byte	.LVL640-1
 16792 3416 14000000 		.4byte	.LFE351
 16793 341a 0400     		.2byte	0x4
 16794 341c F3       		.byte	0xf3
 16795 341d 01       		.uleb128 0x1
 16796 341e 50       		.byte	0x50
 16797 341f 9F       		.byte	0x9f
 16798 3420 00000000 		.4byte	0
 16799 3424 00000000 		.4byte	0
 16800              	.LLST441:
 16801 3428 00000000 		.4byte	.LVL639
 16802 342c 09000000 		.4byte	.LVL640-1
 16803 3430 0100     		.2byte	0x1
 16804 3432 51       		.byte	0x51
 16805 3433 09000000 		.4byte	.LVL640-1
 16806 3437 14000000 		.4byte	.LFE351
 16807 343b 0400     		.2byte	0x4
 16808 343d F3       		.byte	0xf3
 16809 343e 01       		.uleb128 0x1
ARM GAS  C:\Users\strap\AppData\Local\Temp\cc7bAV43.s 			page 340


 16810 343f 51       		.byte	0x51
 16811 3440 9F       		.byte	0x9f
 16812 3441 00000000 		.4byte	0
 16813 3445 00000000 		.4byte	0
 16814              	.LLST442:
 16815 3449 00000000 		.4byte	.LVL639
 16816 344d 09000000 		.4byte	.LVL640-1
 16817 3451 0100     		.2byte	0x1
 16818 3453 52       		.byte	0x52
 16819 3454 0A000000 		.4byte	.LVL640
 16820 3458 14000000 		.4byte	.LFE351
 16821 345c 0100     		.2byte	0x1
 16822 345e 55       		.byte	0x55
 16823 345f 00000000 		.4byte	0
 16824 3463 00000000 		.4byte	0
 16825              	.LLST443:
 16826 3467 0A000000 		.4byte	.LVL640
 16827 346b 11000000 		.4byte	.LVL641-1
 16828 346f 0100     		.2byte	0x1
 16829 3471 50       		.byte	0x50
 16830 3472 00000000 		.4byte	0
 16831 3476 00000000 		.4byte	0
 16832              	.LLST444:
 16833 347a 00000000 		.4byte	.LVL642
 16834 347e 09000000 		.4byte	.LVL643-1
 16835 3482 0100     		.2byte	0x1
 16836 3484 50       		.byte	0x50
 16837 3485 09000000 		.4byte	.LVL643-1
 16838 3489 14000000 		.4byte	.LFE352
 16839 348d 0400     		.2byte	0x4
 16840 348f F3       		.byte	0xf3
 16841 3490 01       		.uleb128 0x1
 16842 3491 50       		.byte	0x50
 16843 3492 9F       		.byte	0x9f
 16844 3493 00000000 		.4byte	0
 16845 3497 00000000 		.4byte	0
 16846              	.LLST445:
 16847 349b 00000000 		.4byte	.LVL642
 16848 349f 09000000 		.4byte	.LVL643-1
 16849 34a3 0100     		.2byte	0x1
 16850 34a5 51       		.byte	0x51
 16851 34a6 09000000 		.4byte	.LVL643-1
 16852 34aa 14000000 		.4byte	.LFE352
 16853 34ae 0400     		.2byte	0x4
 16854 34b0 F3       		.byte	0xf3
 16855 34b1 01       		.uleb128 0x1
 16856 34b2 51       		.byte	0x51
 16857 34b3 9F       		.byte	0x9f
 16858 34b4 00000000 		.4byte	0
 16859 34b8 00000000 		.4byte	0
 16860              	.LLST446:
 16861 34bc 00000000 		.4byte	.LVL642
 16862 34c0 09000000 		.4byte	.LVL643-1
 16863 34c4 0100     		.2byte	0x1
 16864 34c6 52       		.byte	0x52
 16865 34c7 09000000 		.4byte	.LVL643-1
 16866 34cb 14000000 		.4byte	.LFE352
ARM GAS  C:\Users\strap\AppData\Local\Temp\cc7bAV43.s 			page 341


 16867 34cf 0100     		.2byte	0x1
 16868 34d1 55       		.byte	0x55
 16869 34d2 00000000 		.4byte	0
 16870 34d6 00000000 		.4byte	0
 16871              	.LLST447:
 16872 34da 0A000000 		.4byte	.LVL643
 16873 34de 11000000 		.4byte	.LVL644-1
 16874 34e2 0100     		.2byte	0x1
 16875 34e4 50       		.byte	0x50
 16876 34e5 00000000 		.4byte	0
 16877 34e9 00000000 		.4byte	0
 16878              	.LLST448:
 16879 34ed 00000000 		.4byte	.LVL645
 16880 34f1 26000000 		.4byte	.LVL649
 16881 34f5 0100     		.2byte	0x1
 16882 34f7 50       		.byte	0x50
 16883 34f8 26000000 		.4byte	.LVL649
 16884 34fc B2000000 		.4byte	.LVL663
 16885 3500 0100     		.2byte	0x1
 16886 3502 55       		.byte	0x55
 16887 3503 B2000000 		.4byte	.LVL663
 16888 3507 B4000000 		.4byte	.LVL664
 16889 350b 0100     		.2byte	0x1
 16890 350d 50       		.byte	0x50
 16891 350e B4000000 		.4byte	.LVL664
 16892 3512 B6000000 		.4byte	.LVL665
 16893 3516 0400     		.2byte	0x4
 16894 3518 F3       		.byte	0xf3
 16895 3519 01       		.uleb128 0x1
 16896 351a 50       		.byte	0x50
 16897 351b 9F       		.byte	0x9f
 16898 351c B6000000 		.4byte	.LVL665
 16899 3520 B8000000 		.4byte	.LVL666
 16900 3524 0100     		.2byte	0x1
 16901 3526 50       		.byte	0x50
 16902 3527 B8000000 		.4byte	.LVL666
 16903 352b C2000000 		.4byte	.LFE353
 16904 352f 0100     		.2byte	0x1
 16905 3531 55       		.byte	0x55
 16906 3532 00000000 		.4byte	0
 16907 3536 00000000 		.4byte	0
 16908              	.LLST449:
 16909 353a 00000000 		.4byte	.LVL645
 16910 353e 26000000 		.4byte	.LVL649
 16911 3542 0100     		.2byte	0x1
 16912 3544 51       		.byte	0x51
 16913 3545 26000000 		.4byte	.LVL649
 16914 3549 B2000000 		.4byte	.LVL663
 16915 354d 0400     		.2byte	0x4
 16916 354f F3       		.byte	0xf3
 16917 3550 01       		.uleb128 0x1
 16918 3551 51       		.byte	0x51
 16919 3552 9F       		.byte	0x9f
 16920 3553 B2000000 		.4byte	.LVL663
 16921 3557 BA000000 		.4byte	.LVL667
 16922 355b 0100     		.2byte	0x1
 16923 355d 51       		.byte	0x51
ARM GAS  C:\Users\strap\AppData\Local\Temp\cc7bAV43.s 			page 342


 16924 355e BA000000 		.4byte	.LVL667
 16925 3562 C2000000 		.4byte	.LFE353
 16926 3566 0400     		.2byte	0x4
 16927 3568 F3       		.byte	0xf3
 16928 3569 01       		.uleb128 0x1
 16929 356a 51       		.byte	0x51
 16930 356b 9F       		.byte	0x9f
 16931 356c 00000000 		.4byte	0
 16932 3570 00000000 		.4byte	0
 16933              	.LLST450:
 16934 3574 00000000 		.4byte	.LVL645
 16935 3578 26000000 		.4byte	.LVL649
 16936 357c 0100     		.2byte	0x1
 16937 357e 52       		.byte	0x52
 16938 357f 26000000 		.4byte	.LVL649
 16939 3583 B2000000 		.4byte	.LVL663
 16940 3587 0100     		.2byte	0x1
 16941 3589 59       		.byte	0x59
 16942 358a B2000000 		.4byte	.LVL663
 16943 358e BA000000 		.4byte	.LVL667
 16944 3592 0100     		.2byte	0x1
 16945 3594 52       		.byte	0x52
 16946 3595 BA000000 		.4byte	.LVL667
 16947 3599 BC000000 		.4byte	.LVL668
 16948 359d 0100     		.2byte	0x1
 16949 359f 59       		.byte	0x59
 16950 35a0 BC000000 		.4byte	.LVL668
 16951 35a4 C2000000 		.4byte	.LFE353
 16952 35a8 0400     		.2byte	0x4
 16953 35aa F3       		.byte	0xf3
 16954 35ab 01       		.uleb128 0x1
 16955 35ac 52       		.byte	0x52
 16956 35ad 9F       		.byte	0x9f
 16957 35ae 00000000 		.4byte	0
 16958 35b2 00000000 		.4byte	0
 16959              	.LLST451:
 16960 35b6 16000000 		.4byte	.LVL646
 16961 35ba 26000000 		.4byte	.LVL649
 16962 35be 0500     		.2byte	0x5
 16963 35c0 71       		.byte	0x71
 16964 35c1 00       		.sleb128 0
 16965 35c2 38       		.byte	0x38
 16966 35c3 25       		.byte	0x25
 16967 35c4 9F       		.byte	0x9f
 16968 35c5 26000000 		.4byte	.LVL649
 16969 35c9 B2000000 		.4byte	.LVL663
 16970 35cd 0500     		.2byte	0x5
 16971 35cf 77       		.byte	0x77
 16972 35d0 00       		.sleb128 0
 16973 35d1 38       		.byte	0x38
 16974 35d2 25       		.byte	0x25
 16975 35d3 9F       		.byte	0x9f
 16976 35d4 BA000000 		.4byte	.LVL667
 16977 35d8 BC000000 		.4byte	.LVL668
 16978 35dc 0500     		.2byte	0x5
 16979 35de 77       		.byte	0x77
 16980 35df 00       		.sleb128 0
ARM GAS  C:\Users\strap\AppData\Local\Temp\cc7bAV43.s 			page 343


 16981 35e0 38       		.byte	0x38
 16982 35e1 25       		.byte	0x25
 16983 35e2 9F       		.byte	0x9f
 16984 35e3 00000000 		.4byte	0
 16985 35e7 00000000 		.4byte	0
 16986              	.LLST452:
 16987 35eb 1A000000 		.4byte	.LVL647
 16988 35ef B2000000 		.4byte	.LVL663
 16989 35f3 0100     		.2byte	0x1
 16990 35f5 58       		.byte	0x58
 16991 35f6 BA000000 		.4byte	.LVL667
 16992 35fa BC000000 		.4byte	.LVL668
 16993 35fe 0100     		.2byte	0x1
 16994 3600 58       		.byte	0x58
 16995 3601 00000000 		.4byte	0
 16996 3605 00000000 		.4byte	0
 16997              	.LLST453:
 16998 3609 1A000000 		.4byte	.LVL647
 16999 360d 26000000 		.4byte	.LVL649
 17000 3611 0300     		.2byte	0x3
 17001 3613 09       		.byte	0x9
 17002 3614 FF       		.byte	0xff
 17003 3615 9F       		.byte	0x9f
 17004 3616 26000000 		.4byte	.LVL649
 17005 361a 92000000 		.4byte	.LVL659
 17006 361e 0100     		.2byte	0x1
 17007 3620 56       		.byte	0x56
 17008 3621 92000000 		.4byte	.LVL659
 17009 3625 9C000000 		.4byte	.LVL660
 17010 3629 0100     		.2byte	0x1
 17011 362b 50       		.byte	0x50
 17012 362c 9C000000 		.4byte	.LVL660
 17013 3630 B2000000 		.4byte	.LVL663
 17014 3634 0100     		.2byte	0x1
 17015 3636 56       		.byte	0x56
 17016 3637 BA000000 		.4byte	.LVL667
 17017 363b BC000000 		.4byte	.LVL668
 17018 363f 0100     		.2byte	0x1
 17019 3641 56       		.byte	0x56
 17020 3642 00000000 		.4byte	0
 17021 3646 00000000 		.4byte	0
 17022              	.LLST454:
 17023 364a 20000000 		.4byte	.LVL648
 17024 364e 26000000 		.4byte	.LVL649
 17025 3652 0200     		.2byte	0x2
 17026 3654 30       		.byte	0x30
 17027 3655 9F       		.byte	0x9f
 17028 3656 26000000 		.4byte	.LVL649
 17029 365a 9E000000 		.4byte	.LVL661
 17030 365e 0100     		.2byte	0x1
 17031 3660 54       		.byte	0x54
 17032 3661 A0000000 		.4byte	.LVL662
 17033 3665 B2000000 		.4byte	.LVL663
 17034 3669 0100     		.2byte	0x1
 17035 366b 54       		.byte	0x54
 17036 366c BA000000 		.4byte	.LVL667
 17037 3670 BC000000 		.4byte	.LVL668
ARM GAS  C:\Users\strap\AppData\Local\Temp\cc7bAV43.s 			page 344


 17038 3674 0100     		.2byte	0x1
 17039 3676 54       		.byte	0x54
 17040 3677 00000000 		.4byte	0
 17041 367b 00000000 		.4byte	0
 17042              	.LLST455:
 17043 367f 5C000000 		.4byte	.LVL654
 17044 3683 6A000000 		.4byte	.LVL655
 17045 3687 0100     		.2byte	0x1
 17046 3689 50       		.byte	0x50
 17047 368a 6C000000 		.4byte	.LVL656
 17048 368e 8C000000 		.4byte	.LVL657
 17049 3692 0100     		.2byte	0x1
 17050 3694 50       		.byte	0x50
 17051 3695 8E000000 		.4byte	.LVL658
 17052 3699 A0000000 		.4byte	.LVL662
 17053 369d 0100     		.2byte	0x1
 17054 369f 50       		.byte	0x50
 17055 36a0 00000000 		.4byte	0
 17056 36a4 00000000 		.4byte	0
 17057              	.LLST456:
 17058 36a8 28000000 		.4byte	.LVL650
 17059 36ac 36000000 		.4byte	.LVL651
 17060 36b0 0100     		.2byte	0x1
 17061 36b2 51       		.byte	0x51
 17062 36b3 36000000 		.4byte	.LVL651
 17063 36b7 38000000 		.4byte	.LVL652
 17064 36bb 0300     		.2byte	0x3
 17065 36bd 71       		.byte	0x71
 17066 36be 7F       		.sleb128 -1
 17067 36bf 9F       		.byte	0x9f
 17068 36c0 38000000 		.4byte	.LVL652
 17069 36c4 52000000 		.4byte	.LVL653
 17070 36c8 0100     		.2byte	0x1
 17071 36ca 51       		.byte	0x51
 17072 36cb 00000000 		.4byte	0
 17073 36cf 00000000 		.4byte	0
 17074              	.LLST457:
 17075 36d3 28000000 		.4byte	.LVL650
 17076 36d7 52000000 		.4byte	.LVL653
 17077 36db 0100     		.2byte	0x1
 17078 36dd 55       		.byte	0x55
 17079 36de 00000000 		.4byte	0
 17080 36e2 00000000 		.4byte	0
 17081              	.LLST458:
 17082 36e6 00000000 		.4byte	.LVL669
 17083 36ea 26000000 		.4byte	.LVL673
 17084 36ee 0100     		.2byte	0x1
 17085 36f0 50       		.byte	0x50
 17086 36f1 26000000 		.4byte	.LVL673
 17087 36f5 B0000000 		.4byte	.LVL687
 17088 36f9 0100     		.2byte	0x1
 17089 36fb 55       		.byte	0x55
 17090 36fc B0000000 		.4byte	.LVL687
 17091 3700 B2000000 		.4byte	.LVL688
 17092 3704 0100     		.2byte	0x1
 17093 3706 50       		.byte	0x50
 17094 3707 B2000000 		.4byte	.LVL688
ARM GAS  C:\Users\strap\AppData\Local\Temp\cc7bAV43.s 			page 345


 17095 370b B4000000 		.4byte	.LVL689
 17096 370f 0400     		.2byte	0x4
 17097 3711 F3       		.byte	0xf3
 17098 3712 01       		.uleb128 0x1
 17099 3713 50       		.byte	0x50
 17100 3714 9F       		.byte	0x9f
 17101 3715 B4000000 		.4byte	.LVL689
 17102 3719 B6000000 		.4byte	.LVL690
 17103 371d 0100     		.2byte	0x1
 17104 371f 50       		.byte	0x50
 17105 3720 B6000000 		.4byte	.LVL690
 17106 3724 C0000000 		.4byte	.LFE354
 17107 3728 0100     		.2byte	0x1
 17108 372a 55       		.byte	0x55
 17109 372b 00000000 		.4byte	0
 17110 372f 00000000 		.4byte	0
 17111              	.LLST459:
 17112 3733 00000000 		.4byte	.LVL669
 17113 3737 26000000 		.4byte	.LVL673
 17114 373b 0100     		.2byte	0x1
 17115 373d 51       		.byte	0x51
 17116 373e 26000000 		.4byte	.LVL673
 17117 3742 B0000000 		.4byte	.LVL687
 17118 3746 0400     		.2byte	0x4
 17119 3748 F3       		.byte	0xf3
 17120 3749 01       		.uleb128 0x1
 17121 374a 51       		.byte	0x51
 17122 374b 9F       		.byte	0x9f
 17123 374c B0000000 		.4byte	.LVL687
 17124 3750 B8000000 		.4byte	.LVL691
 17125 3754 0100     		.2byte	0x1
 17126 3756 51       		.byte	0x51
 17127 3757 B8000000 		.4byte	.LVL691
 17128 375b C0000000 		.4byte	.LFE354
 17129 375f 0400     		.2byte	0x4
 17130 3761 F3       		.byte	0xf3
 17131 3762 01       		.uleb128 0x1
 17132 3763 51       		.byte	0x51
 17133 3764 9F       		.byte	0x9f
 17134 3765 00000000 		.4byte	0
 17135 3769 00000000 		.4byte	0
 17136              	.LLST460:
 17137 376d 00000000 		.4byte	.LVL669
 17138 3771 26000000 		.4byte	.LVL673
 17139 3775 0100     		.2byte	0x1
 17140 3777 52       		.byte	0x52
 17141 3778 26000000 		.4byte	.LVL673
 17142 377c B0000000 		.4byte	.LVL687
 17143 3780 0100     		.2byte	0x1
 17144 3782 59       		.byte	0x59
 17145 3783 B0000000 		.4byte	.LVL687
 17146 3787 B8000000 		.4byte	.LVL691
 17147 378b 0100     		.2byte	0x1
 17148 378d 52       		.byte	0x52
 17149 378e B8000000 		.4byte	.LVL691
 17150 3792 BA000000 		.4byte	.LVL692
 17151 3796 0100     		.2byte	0x1
ARM GAS  C:\Users\strap\AppData\Local\Temp\cc7bAV43.s 			page 346


 17152 3798 59       		.byte	0x59
 17153 3799 BA000000 		.4byte	.LVL692
 17154 379d C0000000 		.4byte	.LFE354
 17155 37a1 0400     		.2byte	0x4
 17156 37a3 F3       		.byte	0xf3
 17157 37a4 01       		.uleb128 0x1
 17158 37a5 52       		.byte	0x52
 17159 37a6 9F       		.byte	0x9f
 17160 37a7 00000000 		.4byte	0
 17161 37ab 00000000 		.4byte	0
 17162              	.LLST461:
 17163 37af 16000000 		.4byte	.LVL670
 17164 37b3 26000000 		.4byte	.LVL673
 17165 37b7 0500     		.2byte	0x5
 17166 37b9 71       		.byte	0x71
 17167 37ba 00       		.sleb128 0
 17168 37bb 38       		.byte	0x38
 17169 37bc 25       		.byte	0x25
 17170 37bd 9F       		.byte	0x9f
 17171 37be 26000000 		.4byte	.LVL673
 17172 37c2 B0000000 		.4byte	.LVL687
 17173 37c6 0500     		.2byte	0x5
 17174 37c8 77       		.byte	0x77
 17175 37c9 00       		.sleb128 0
 17176 37ca 38       		.byte	0x38
 17177 37cb 25       		.byte	0x25
 17178 37cc 9F       		.byte	0x9f
 17179 37cd B8000000 		.4byte	.LVL691
 17180 37d1 BA000000 		.4byte	.LVL692
 17181 37d5 0500     		.2byte	0x5
 17182 37d7 77       		.byte	0x77
 17183 37d8 00       		.sleb128 0
 17184 37d9 38       		.byte	0x38
 17185 37da 25       		.byte	0x25
 17186 37db 9F       		.byte	0x9f
 17187 37dc 00000000 		.4byte	0
 17188 37e0 00000000 		.4byte	0
 17189              	.LLST462:
 17190 37e4 1A000000 		.4byte	.LVL671
 17191 37e8 B0000000 		.4byte	.LVL687
 17192 37ec 0100     		.2byte	0x1
 17193 37ee 58       		.byte	0x58
 17194 37ef B8000000 		.4byte	.LVL691
 17195 37f3 BA000000 		.4byte	.LVL692
 17196 37f7 0100     		.2byte	0x1
 17197 37f9 58       		.byte	0x58
 17198 37fa 00000000 		.4byte	0
 17199 37fe 00000000 		.4byte	0
 17200              	.LLST463:
 17201 3802 1A000000 		.4byte	.LVL671
 17202 3806 26000000 		.4byte	.LVL673
 17203 380a 0300     		.2byte	0x3
 17204 380c 09       		.byte	0x9
 17205 380d FF       		.byte	0xff
 17206 380e 9F       		.byte	0x9f
 17207 380f 26000000 		.4byte	.LVL673
 17208 3813 90000000 		.4byte	.LVL683
ARM GAS  C:\Users\strap\AppData\Local\Temp\cc7bAV43.s 			page 347


 17209 3817 0100     		.2byte	0x1
 17210 3819 56       		.byte	0x56
 17211 381a 90000000 		.4byte	.LVL683
 17212 381e 9A000000 		.4byte	.LVL684
 17213 3822 0100     		.2byte	0x1
 17214 3824 50       		.byte	0x50
 17215 3825 9A000000 		.4byte	.LVL684
 17216 3829 B0000000 		.4byte	.LVL687
 17217 382d 0100     		.2byte	0x1
 17218 382f 56       		.byte	0x56
 17219 3830 B8000000 		.4byte	.LVL691
 17220 3834 BA000000 		.4byte	.LVL692
 17221 3838 0100     		.2byte	0x1
 17222 383a 56       		.byte	0x56
 17223 383b 00000000 		.4byte	0
 17224 383f 00000000 		.4byte	0
 17225              	.LLST464:
 17226 3843 20000000 		.4byte	.LVL672
 17227 3847 26000000 		.4byte	.LVL673
 17228 384b 0200     		.2byte	0x2
 17229 384d 30       		.byte	0x30
 17230 384e 9F       		.byte	0x9f
 17231 384f 26000000 		.4byte	.LVL673
 17232 3853 9C000000 		.4byte	.LVL685
 17233 3857 0100     		.2byte	0x1
 17234 3859 54       		.byte	0x54
 17235 385a 9E000000 		.4byte	.LVL686
 17236 385e B0000000 		.4byte	.LVL687
 17237 3862 0100     		.2byte	0x1
 17238 3864 54       		.byte	0x54
 17239 3865 B8000000 		.4byte	.LVL691
 17240 3869 BA000000 		.4byte	.LVL692
 17241 386d 0100     		.2byte	0x1
 17242 386f 54       		.byte	0x54
 17243 3870 00000000 		.4byte	0
 17244 3874 00000000 		.4byte	0
 17245              	.LLST465:
 17246 3878 5A000000 		.4byte	.LVL678
 17247 387c 68000000 		.4byte	.LVL679
 17248 3880 0100     		.2byte	0x1
 17249 3882 50       		.byte	0x50
 17250 3883 6A000000 		.4byte	.LVL680
 17251 3887 8A000000 		.4byte	.LVL681
 17252 388b 0100     		.2byte	0x1
 17253 388d 50       		.byte	0x50
 17254 388e 8C000000 		.4byte	.LVL682
 17255 3892 9E000000 		.4byte	.LVL686
 17256 3896 0100     		.2byte	0x1
 17257 3898 50       		.byte	0x50
 17258 3899 00000000 		.4byte	0
 17259 389d 00000000 		.4byte	0
 17260              	.LLST466:
 17261 38a1 28000000 		.4byte	.LVL674
 17262 38a5 36000000 		.4byte	.LVL675
 17263 38a9 0100     		.2byte	0x1
 17264 38ab 51       		.byte	0x51
 17265 38ac 36000000 		.4byte	.LVL675
ARM GAS  C:\Users\strap\AppData\Local\Temp\cc7bAV43.s 			page 348


 17266 38b0 38000000 		.4byte	.LVL676
 17267 38b4 0300     		.2byte	0x3
 17268 38b6 71       		.byte	0x71
 17269 38b7 7F       		.sleb128 -1
 17270 38b8 9F       		.byte	0x9f
 17271 38b9 38000000 		.4byte	.LVL676
 17272 38bd 52000000 		.4byte	.LVL677
 17273 38c1 0100     		.2byte	0x1
 17274 38c3 51       		.byte	0x51
 17275 38c4 00000000 		.4byte	0
 17276 38c8 00000000 		.4byte	0
 17277              	.LLST467:
 17278 38cc 28000000 		.4byte	.LVL674
 17279 38d0 52000000 		.4byte	.LVL677
 17280 38d4 0100     		.2byte	0x1
 17281 38d6 55       		.byte	0x55
 17282 38d7 00000000 		.4byte	0
 17283 38db 00000000 		.4byte	0
 17284              	.LLST468:
 17285 38df 00000000 		.4byte	.LVL693
 17286 38e3 26000000 		.4byte	.LVL697
 17287 38e7 0100     		.2byte	0x1
 17288 38e9 50       		.byte	0x50
 17289 38ea 26000000 		.4byte	.LVL697
 17290 38ee B2000000 		.4byte	.LVL711
 17291 38f2 0100     		.2byte	0x1
 17292 38f4 55       		.byte	0x55
 17293 38f5 B2000000 		.4byte	.LVL711
 17294 38f9 B4000000 		.4byte	.LVL712
 17295 38fd 0100     		.2byte	0x1
 17296 38ff 50       		.byte	0x50
 17297 3900 B4000000 		.4byte	.LVL712
 17298 3904 B6000000 		.4byte	.LVL713
 17299 3908 0400     		.2byte	0x4
 17300 390a F3       		.byte	0xf3
 17301 390b 01       		.uleb128 0x1
 17302 390c 50       		.byte	0x50
 17303 390d 9F       		.byte	0x9f
 17304 390e B6000000 		.4byte	.LVL713
 17305 3912 B8000000 		.4byte	.LVL714
 17306 3916 0100     		.2byte	0x1
 17307 3918 50       		.byte	0x50
 17308 3919 B8000000 		.4byte	.LVL714
 17309 391d C2000000 		.4byte	.LFE355
 17310 3921 0100     		.2byte	0x1
 17311 3923 55       		.byte	0x55
 17312 3924 00000000 		.4byte	0
 17313 3928 00000000 		.4byte	0
 17314              	.LLST469:
 17315 392c 00000000 		.4byte	.LVL693
 17316 3930 26000000 		.4byte	.LVL697
 17317 3934 0100     		.2byte	0x1
 17318 3936 51       		.byte	0x51
 17319 3937 26000000 		.4byte	.LVL697
 17320 393b B2000000 		.4byte	.LVL711
 17321 393f 0400     		.2byte	0x4
 17322 3941 F3       		.byte	0xf3
ARM GAS  C:\Users\strap\AppData\Local\Temp\cc7bAV43.s 			page 349


 17323 3942 01       		.uleb128 0x1
 17324 3943 51       		.byte	0x51
 17325 3944 9F       		.byte	0x9f
 17326 3945 B2000000 		.4byte	.LVL711
 17327 3949 BA000000 		.4byte	.LVL715
 17328 394d 0100     		.2byte	0x1
 17329 394f 51       		.byte	0x51
 17330 3950 BA000000 		.4byte	.LVL715
 17331 3954 C2000000 		.4byte	.LFE355
 17332 3958 0400     		.2byte	0x4
 17333 395a F3       		.byte	0xf3
 17334 395b 01       		.uleb128 0x1
 17335 395c 51       		.byte	0x51
 17336 395d 9F       		.byte	0x9f
 17337 395e 00000000 		.4byte	0
 17338 3962 00000000 		.4byte	0
 17339              	.LLST470:
 17340 3966 00000000 		.4byte	.LVL693
 17341 396a 26000000 		.4byte	.LVL697
 17342 396e 0100     		.2byte	0x1
 17343 3970 52       		.byte	0x52
 17344 3971 26000000 		.4byte	.LVL697
 17345 3975 B2000000 		.4byte	.LVL711
 17346 3979 0100     		.2byte	0x1
 17347 397b 59       		.byte	0x59
 17348 397c B2000000 		.4byte	.LVL711
 17349 3980 BA000000 		.4byte	.LVL715
 17350 3984 0100     		.2byte	0x1
 17351 3986 52       		.byte	0x52
 17352 3987 BA000000 		.4byte	.LVL715
 17353 398b BC000000 		.4byte	.LVL716
 17354 398f 0100     		.2byte	0x1
 17355 3991 59       		.byte	0x59
 17356 3992 BC000000 		.4byte	.LVL716
 17357 3996 C2000000 		.4byte	.LFE355
 17358 399a 0400     		.2byte	0x4
 17359 399c F3       		.byte	0xf3
 17360 399d 01       		.uleb128 0x1
 17361 399e 52       		.byte	0x52
 17362 399f 9F       		.byte	0x9f
 17363 39a0 00000000 		.4byte	0
 17364 39a4 00000000 		.4byte	0
 17365              	.LLST471:
 17366 39a8 16000000 		.4byte	.LVL694
 17367 39ac 26000000 		.4byte	.LVL697
 17368 39b0 0500     		.2byte	0x5
 17369 39b2 71       		.byte	0x71
 17370 39b3 00       		.sleb128 0
 17371 39b4 38       		.byte	0x38
 17372 39b5 25       		.byte	0x25
 17373 39b6 9F       		.byte	0x9f
 17374 39b7 26000000 		.4byte	.LVL697
 17375 39bb B2000000 		.4byte	.LVL711
 17376 39bf 0500     		.2byte	0x5
 17377 39c1 77       		.byte	0x77
 17378 39c2 00       		.sleb128 0
 17379 39c3 38       		.byte	0x38
ARM GAS  C:\Users\strap\AppData\Local\Temp\cc7bAV43.s 			page 350


 17380 39c4 25       		.byte	0x25
 17381 39c5 9F       		.byte	0x9f
 17382 39c6 BA000000 		.4byte	.LVL715
 17383 39ca BC000000 		.4byte	.LVL716
 17384 39ce 0500     		.2byte	0x5
 17385 39d0 77       		.byte	0x77
 17386 39d1 00       		.sleb128 0
 17387 39d2 38       		.byte	0x38
 17388 39d3 25       		.byte	0x25
 17389 39d4 9F       		.byte	0x9f
 17390 39d5 00000000 		.4byte	0
 17391 39d9 00000000 		.4byte	0
 17392              	.LLST472:
 17393 39dd 1A000000 		.4byte	.LVL695
 17394 39e1 B2000000 		.4byte	.LVL711
 17395 39e5 0100     		.2byte	0x1
 17396 39e7 58       		.byte	0x58
 17397 39e8 BA000000 		.4byte	.LVL715
 17398 39ec BC000000 		.4byte	.LVL716
 17399 39f0 0100     		.2byte	0x1
 17400 39f2 58       		.byte	0x58
 17401 39f3 00000000 		.4byte	0
 17402 39f7 00000000 		.4byte	0
 17403              	.LLST473:
 17404 39fb 1A000000 		.4byte	.LVL695
 17405 39ff 26000000 		.4byte	.LVL697
 17406 3a03 0300     		.2byte	0x3
 17407 3a05 09       		.byte	0x9
 17408 3a06 FF       		.byte	0xff
 17409 3a07 9F       		.byte	0x9f
 17410 3a08 26000000 		.4byte	.LVL697
 17411 3a0c 92000000 		.4byte	.LVL707
 17412 3a10 0100     		.2byte	0x1
 17413 3a12 56       		.byte	0x56
 17414 3a13 92000000 		.4byte	.LVL707
 17415 3a17 9C000000 		.4byte	.LVL708
 17416 3a1b 0100     		.2byte	0x1
 17417 3a1d 50       		.byte	0x50
 17418 3a1e 9C000000 		.4byte	.LVL708
 17419 3a22 B2000000 		.4byte	.LVL711
 17420 3a26 0100     		.2byte	0x1
 17421 3a28 56       		.byte	0x56
 17422 3a29 BA000000 		.4byte	.LVL715
 17423 3a2d BC000000 		.4byte	.LVL716
 17424 3a31 0100     		.2byte	0x1
 17425 3a33 56       		.byte	0x56
 17426 3a34 00000000 		.4byte	0
 17427 3a38 00000000 		.4byte	0
 17428              	.LLST474:
 17429 3a3c 20000000 		.4byte	.LVL696
 17430 3a40 26000000 		.4byte	.LVL697
 17431 3a44 0200     		.2byte	0x2
 17432 3a46 30       		.byte	0x30
 17433 3a47 9F       		.byte	0x9f
 17434 3a48 26000000 		.4byte	.LVL697
 17435 3a4c 9E000000 		.4byte	.LVL709
 17436 3a50 0100     		.2byte	0x1
ARM GAS  C:\Users\strap\AppData\Local\Temp\cc7bAV43.s 			page 351


 17437 3a52 54       		.byte	0x54
 17438 3a53 A0000000 		.4byte	.LVL710
 17439 3a57 B2000000 		.4byte	.LVL711
 17440 3a5b 0100     		.2byte	0x1
 17441 3a5d 54       		.byte	0x54
 17442 3a5e BA000000 		.4byte	.LVL715
 17443 3a62 BC000000 		.4byte	.LVL716
 17444 3a66 0100     		.2byte	0x1
 17445 3a68 54       		.byte	0x54
 17446 3a69 00000000 		.4byte	0
 17447 3a6d 00000000 		.4byte	0
 17448              	.LLST475:
 17449 3a71 5C000000 		.4byte	.LVL702
 17450 3a75 6A000000 		.4byte	.LVL703
 17451 3a79 0100     		.2byte	0x1
 17452 3a7b 50       		.byte	0x50
 17453 3a7c 6C000000 		.4byte	.LVL704
 17454 3a80 8C000000 		.4byte	.LVL705
 17455 3a84 0100     		.2byte	0x1
 17456 3a86 50       		.byte	0x50
 17457 3a87 8E000000 		.4byte	.LVL706
 17458 3a8b A0000000 		.4byte	.LVL710
 17459 3a8f 0100     		.2byte	0x1
 17460 3a91 50       		.byte	0x50
 17461 3a92 00000000 		.4byte	0
 17462 3a96 00000000 		.4byte	0
 17463              	.LLST476:
 17464 3a9a 28000000 		.4byte	.LVL698
 17465 3a9e 36000000 		.4byte	.LVL699
 17466 3aa2 0100     		.2byte	0x1
 17467 3aa4 51       		.byte	0x51
 17468 3aa5 36000000 		.4byte	.LVL699
 17469 3aa9 38000000 		.4byte	.LVL700
 17470 3aad 0300     		.2byte	0x3
 17471 3aaf 71       		.byte	0x71
 17472 3ab0 7F       		.sleb128 -1
 17473 3ab1 9F       		.byte	0x9f
 17474 3ab2 38000000 		.4byte	.LVL700
 17475 3ab6 52000000 		.4byte	.LVL701
 17476 3aba 0100     		.2byte	0x1
 17477 3abc 51       		.byte	0x51
 17478 3abd 00000000 		.4byte	0
 17479 3ac1 00000000 		.4byte	0
 17480              	.LLST477:
 17481 3ac5 28000000 		.4byte	.LVL698
 17482 3ac9 52000000 		.4byte	.LVL701
 17483 3acd 0100     		.2byte	0x1
 17484 3acf 55       		.byte	0x55
 17485 3ad0 00000000 		.4byte	0
 17486 3ad4 00000000 		.4byte	0
 17487              	.LLST478:
 17488 3ad8 00000000 		.4byte	.LVL717
 17489 3adc 22000000 		.4byte	.LVL720
 17490 3ae0 0100     		.2byte	0x1
 17491 3ae2 50       		.byte	0x50
 17492 3ae3 22000000 		.4byte	.LVL720
 17493 3ae7 A6000000 		.4byte	.LVL734
ARM GAS  C:\Users\strap\AppData\Local\Temp\cc7bAV43.s 			page 352


 17494 3aeb 0100     		.2byte	0x1
 17495 3aed 55       		.byte	0x55
 17496 3aee A6000000 		.4byte	.LVL734
 17497 3af2 A8000000 		.4byte	.LVL735
 17498 3af6 0100     		.2byte	0x1
 17499 3af8 50       		.byte	0x50
 17500 3af9 A8000000 		.4byte	.LVL735
 17501 3afd AA000000 		.4byte	.LVL736
 17502 3b01 0400     		.2byte	0x4
 17503 3b03 F3       		.byte	0xf3
 17504 3b04 01       		.uleb128 0x1
 17505 3b05 50       		.byte	0x50
 17506 3b06 9F       		.byte	0x9f
 17507 3b07 AA000000 		.4byte	.LVL736
 17508 3b0b AC000000 		.4byte	.LVL737
 17509 3b0f 0100     		.2byte	0x1
 17510 3b11 50       		.byte	0x50
 17511 3b12 AC000000 		.4byte	.LVL737
 17512 3b16 B6000000 		.4byte	.LFE356
 17513 3b1a 0100     		.2byte	0x1
 17514 3b1c 55       		.byte	0x55
 17515 3b1d 00000000 		.4byte	0
 17516 3b21 00000000 		.4byte	0
 17517              	.LLST479:
 17518 3b25 00000000 		.4byte	.LVL717
 17519 3b29 22000000 		.4byte	.LVL720
 17520 3b2d 0100     		.2byte	0x1
 17521 3b2f 51       		.byte	0x51
 17522 3b30 22000000 		.4byte	.LVL720
 17523 3b34 A6000000 		.4byte	.LVL734
 17524 3b38 0400     		.2byte	0x4
 17525 3b3a F3       		.byte	0xf3
 17526 3b3b 01       		.uleb128 0x1
 17527 3b3c 51       		.byte	0x51
 17528 3b3d 9F       		.byte	0x9f
 17529 3b3e A6000000 		.4byte	.LVL734
 17530 3b42 AE000000 		.4byte	.LVL738
 17531 3b46 0100     		.2byte	0x1
 17532 3b48 51       		.byte	0x51
 17533 3b49 AE000000 		.4byte	.LVL738
 17534 3b4d B6000000 		.4byte	.LFE356
 17535 3b51 0400     		.2byte	0x4
 17536 3b53 F3       		.byte	0xf3
 17537 3b54 01       		.uleb128 0x1
 17538 3b55 51       		.byte	0x51
 17539 3b56 9F       		.byte	0x9f
 17540 3b57 00000000 		.4byte	0
 17541 3b5b 00000000 		.4byte	0
 17542              	.LLST480:
 17543 3b5f 00000000 		.4byte	.LVL717
 17544 3b63 22000000 		.4byte	.LVL720
 17545 3b67 0100     		.2byte	0x1
 17546 3b69 52       		.byte	0x52
 17547 3b6a 22000000 		.4byte	.LVL720
 17548 3b6e A6000000 		.4byte	.LVL734
 17549 3b72 0100     		.2byte	0x1
 17550 3b74 59       		.byte	0x59
ARM GAS  C:\Users\strap\AppData\Local\Temp\cc7bAV43.s 			page 353


 17551 3b75 A6000000 		.4byte	.LVL734
 17552 3b79 AE000000 		.4byte	.LVL738
 17553 3b7d 0100     		.2byte	0x1
 17554 3b7f 52       		.byte	0x52
 17555 3b80 AE000000 		.4byte	.LVL738
 17556 3b84 B0000000 		.4byte	.LVL739
 17557 3b88 0100     		.2byte	0x1
 17558 3b8a 59       		.byte	0x59
 17559 3b8b B0000000 		.4byte	.LVL739
 17560 3b8f B6000000 		.4byte	.LFE356
 17561 3b93 0400     		.2byte	0x4
 17562 3b95 F3       		.byte	0xf3
 17563 3b96 01       		.uleb128 0x1
 17564 3b97 52       		.byte	0x52
 17565 3b98 9F       		.byte	0x9f
 17566 3b99 00000000 		.4byte	0
 17567 3b9d 00000000 		.4byte	0
 17568              	.LLST481:
 17569 3ba1 16000000 		.4byte	.LVL718
 17570 3ba5 22000000 		.4byte	.LVL720
 17571 3ba9 0500     		.2byte	0x5
 17572 3bab 71       		.byte	0x71
 17573 3bac 00       		.sleb128 0
 17574 3bad 38       		.byte	0x38
 17575 3bae 25       		.byte	0x25
 17576 3baf 9F       		.byte	0x9f
 17577 3bb0 22000000 		.4byte	.LVL720
 17578 3bb4 A6000000 		.4byte	.LVL734
 17579 3bb8 0500     		.2byte	0x5
 17580 3bba 77       		.byte	0x77
 17581 3bbb 00       		.sleb128 0
 17582 3bbc 38       		.byte	0x38
 17583 3bbd 25       		.byte	0x25
 17584 3bbe 9F       		.byte	0x9f
 17585 3bbf AE000000 		.4byte	.LVL738
 17586 3bc3 B0000000 		.4byte	.LVL739
 17587 3bc7 0500     		.2byte	0x5
 17588 3bc9 77       		.byte	0x77
 17589 3bca 00       		.sleb128 0
 17590 3bcb 38       		.byte	0x38
 17591 3bcc 25       		.byte	0x25
 17592 3bcd 9F       		.byte	0x9f
 17593 3bce 00000000 		.4byte	0
 17594 3bd2 00000000 		.4byte	0
 17595              	.LLST482:
 17596 3bd6 1A000000 		.4byte	.LVL719
 17597 3bda A6000000 		.4byte	.LVL734
 17598 3bde 0100     		.2byte	0x1
 17599 3be0 58       		.byte	0x58
 17600 3be1 AE000000 		.4byte	.LVL738
 17601 3be5 B0000000 		.4byte	.LVL739
 17602 3be9 0100     		.2byte	0x1
 17603 3beb 58       		.byte	0x58
 17604 3bec 00000000 		.4byte	0
 17605 3bf0 00000000 		.4byte	0
 17606              	.LLST483:
 17607 3bf4 1A000000 		.4byte	.LVL719
ARM GAS  C:\Users\strap\AppData\Local\Temp\cc7bAV43.s 			page 354


 17608 3bf8 22000000 		.4byte	.LVL720
 17609 3bfc 0300     		.2byte	0x3
 17610 3bfe 09       		.byte	0x9
 17611 3bff FF       		.byte	0xff
 17612 3c00 9F       		.byte	0x9f
 17613 3c01 22000000 		.4byte	.LVL720
 17614 3c05 88000000 		.4byte	.LVL730
 17615 3c09 0100     		.2byte	0x1
 17616 3c0b 56       		.byte	0x56
 17617 3c0c 88000000 		.4byte	.LVL730
 17618 3c10 90000000 		.4byte	.LVL731
 17619 3c14 0100     		.2byte	0x1
 17620 3c16 50       		.byte	0x50
 17621 3c17 90000000 		.4byte	.LVL731
 17622 3c1b A6000000 		.4byte	.LVL734
 17623 3c1f 0100     		.2byte	0x1
 17624 3c21 56       		.byte	0x56
 17625 3c22 AE000000 		.4byte	.LVL738
 17626 3c26 B0000000 		.4byte	.LVL739
 17627 3c2a 0100     		.2byte	0x1
 17628 3c2c 56       		.byte	0x56
 17629 3c2d 00000000 		.4byte	0
 17630 3c31 00000000 		.4byte	0
 17631              	.LLST484:
 17632 3c35 1A000000 		.4byte	.LVL719
 17633 3c39 22000000 		.4byte	.LVL720
 17634 3c3d 0200     		.2byte	0x2
 17635 3c3f 30       		.byte	0x30
 17636 3c40 9F       		.byte	0x9f
 17637 3c41 22000000 		.4byte	.LVL720
 17638 3c45 92000000 		.4byte	.LVL732
 17639 3c49 0100     		.2byte	0x1
 17640 3c4b 54       		.byte	0x54
 17641 3c4c 94000000 		.4byte	.LVL733
 17642 3c50 A6000000 		.4byte	.LVL734
 17643 3c54 0100     		.2byte	0x1
 17644 3c56 54       		.byte	0x54
 17645 3c57 AE000000 		.4byte	.LVL738
 17646 3c5b B0000000 		.4byte	.LVL739
 17647 3c5f 0100     		.2byte	0x1
 17648 3c61 54       		.byte	0x54
 17649 3c62 00000000 		.4byte	0
 17650 3c66 00000000 		.4byte	0
 17651              	.LLST485:
 17652 3c6a 56000000 		.4byte	.LVL725
 17653 3c6e 62000000 		.4byte	.LVL726
 17654 3c72 0100     		.2byte	0x1
 17655 3c74 50       		.byte	0x50
 17656 3c75 64000000 		.4byte	.LVL727
 17657 3c79 82000000 		.4byte	.LVL728
 17658 3c7d 0100     		.2byte	0x1
 17659 3c7f 50       		.byte	0x50
 17660 3c80 84000000 		.4byte	.LVL729
 17661 3c84 94000000 		.4byte	.LVL733
 17662 3c88 0100     		.2byte	0x1
 17663 3c8a 50       		.byte	0x50
 17664 3c8b 00000000 		.4byte	0
ARM GAS  C:\Users\strap\AppData\Local\Temp\cc7bAV43.s 			page 355


 17665 3c8f 00000000 		.4byte	0
 17666              	.LLST486:
 17667 3c93 24000000 		.4byte	.LVL721
 17668 3c97 32000000 		.4byte	.LVL722
 17669 3c9b 0100     		.2byte	0x1
 17670 3c9d 51       		.byte	0x51
 17671 3c9e 32000000 		.4byte	.LVL722
 17672 3ca2 34000000 		.4byte	.LVL723
 17673 3ca6 0300     		.2byte	0x3
 17674 3ca8 71       		.byte	0x71
 17675 3ca9 7F       		.sleb128 -1
 17676 3caa 9F       		.byte	0x9f
 17677 3cab 34000000 		.4byte	.LVL723
 17678 3caf 4E000000 		.4byte	.LVL724
 17679 3cb3 0100     		.2byte	0x1
 17680 3cb5 51       		.byte	0x51
 17681 3cb6 00000000 		.4byte	0
 17682 3cba 00000000 		.4byte	0
 17683              	.LLST487:
 17684 3cbe 24000000 		.4byte	.LVL721
 17685 3cc2 4E000000 		.4byte	.LVL724
 17686 3cc6 0100     		.2byte	0x1
 17687 3cc8 55       		.byte	0x55
 17688 3cc9 00000000 		.4byte	0
 17689 3ccd 00000000 		.4byte	0
 17690              	.LLST488:
 17691 3cd1 00000000 		.4byte	.LVL740
 17692 3cd5 02000000 		.4byte	.LVL741
 17693 3cd9 0100     		.2byte	0x1
 17694 3cdb 50       		.byte	0x50
 17695 3cdc 02000000 		.4byte	.LVL741
 17696 3ce0 04000000 		.4byte	.LFE357
 17697 3ce4 0400     		.2byte	0x4
 17698 3ce6 F3       		.byte	0xf3
 17699 3ce7 01       		.uleb128 0x1
 17700 3ce8 50       		.byte	0x50
 17701 3ce9 9F       		.byte	0x9f
 17702 3cea 00000000 		.4byte	0
 17703 3cee 00000000 		.4byte	0
 17704              	.LLST489:
 17705 3cf2 00000000 		.4byte	.LVL742
 17706 3cf6 02000000 		.4byte	.LVL743
 17707 3cfa 0100     		.2byte	0x1
 17708 3cfc 50       		.byte	0x50
 17709 3cfd 02000000 		.4byte	.LVL743
 17710 3d01 04000000 		.4byte	.LFE358
 17711 3d05 0400     		.2byte	0x4
 17712 3d07 F3       		.byte	0xf3
 17713 3d08 01       		.uleb128 0x1
 17714 3d09 50       		.byte	0x50
 17715 3d0a 9F       		.byte	0x9f
 17716 3d0b 00000000 		.4byte	0
 17717 3d0f 00000000 		.4byte	0
 17718              		.section	.debug_aranges,"",%progbits
 17719 0000 14010000 		.4byte	0x114
 17720 0004 0200     		.2byte	0x2
 17721 0006 00000000 		.4byte	.Ldebug_info0
ARM GAS  C:\Users\strap\AppData\Local\Temp\cc7bAV43.s 			page 356


 17722 000a 04       		.byte	0x4
 17723 000b 00       		.byte	0
 17724 000c 0000     		.2byte	0
 17725 000e 0000     		.2byte	0
 17726 0010 00000000 		.4byte	.LFB328
 17727 0014 0A000000 		.4byte	.LFE328-.LFB328
 17728 0018 00000000 		.4byte	.LFB331
 17729 001c 0A000000 		.4byte	.LFE331-.LFB331
 17730 0020 00000000 		.4byte	.LFB334
 17731 0024 B0000000 		.4byte	.LFE334-.LFB334
 17732 0028 00000000 		.4byte	.LFB333
 17733 002c 9C000000 		.4byte	.LFE333-.LFB333
 17734 0030 00000000 		.4byte	.LFB360
 17735 0034 7C000000 		.4byte	.LFE360-.LFB360
 17736 0038 00000000 		.4byte	.LFB336
 17737 003c 10000000 		.4byte	.LFE336-.LFB336
 17738 0040 00000000 		.4byte	.LFB337
 17739 0044 4E000000 		.4byte	.LFE337-.LFB337
 17740 0048 00000000 		.4byte	.LFB329
 17741 004c 26000000 		.4byte	.LFE329-.LFB329
 17742 0050 00000000 		.4byte	.LFB330
 17743 0054 20010000 		.4byte	.LFE330-.LFB330
 17744 0058 00000000 		.4byte	.LFB338
 17745 005c 74010000 		.4byte	.LFE338-.LFB338
 17746 0060 00000000 		.4byte	.LFB339
 17747 0064 74010000 		.4byte	.LFE339-.LFB339
 17748 0068 00000000 		.4byte	.LFB340
 17749 006c 78010000 		.4byte	.LFE340-.LFB340
 17750 0070 00000000 		.4byte	.LFB341
 17751 0074 74010000 		.4byte	.LFE341-.LFB341
 17752 0078 00000000 		.4byte	.LFB342
 17753 007c FC000000 		.4byte	.LFE342-.LFB342
 17754 0080 00000000 		.4byte	.LFB343
 17755 0084 FC000000 		.4byte	.LFE343-.LFB343
 17756 0088 00000000 		.4byte	.LFB344
 17757 008c FC000000 		.4byte	.LFE344-.LFB344
 17758 0090 00000000 		.4byte	.LFB345
 17759 0094 FC000000 		.4byte	.LFE345-.LFB345
 17760 0098 00000000 		.4byte	.LFB346
 17761 009c 1E000000 		.4byte	.LFE346-.LFB346
 17762 00a0 00000000 		.4byte	.LFB347
 17763 00a4 12000000 		.4byte	.LFE347-.LFB347
 17764 00a8 00000000 		.4byte	.LFB335
 17765 00ac 66000000 		.4byte	.LFE335-.LFB335
 17766 00b0 00000000 		.4byte	.LFB332
 17767 00b4 FC000000 		.4byte	.LFE332-.LFB332
 17768 00b8 00000000 		.4byte	.LFB348
 17769 00bc 68000000 		.4byte	.LFE348-.LFB348
 17770 00c0 00000000 		.4byte	.LFB349
 17771 00c4 14000000 		.4byte	.LFE349-.LFB349
 17772 00c8 00000000 		.4byte	.LFB350
 17773 00cc 14000000 		.4byte	.LFE350-.LFB350
 17774 00d0 00000000 		.4byte	.LFB351
 17775 00d4 14000000 		.4byte	.LFE351-.LFB351
 17776 00d8 00000000 		.4byte	.LFB352
 17777 00dc 14000000 		.4byte	.LFE352-.LFB352
 17778 00e0 00000000 		.4byte	.LFB353
ARM GAS  C:\Users\strap\AppData\Local\Temp\cc7bAV43.s 			page 357


 17779 00e4 C2000000 		.4byte	.LFE353-.LFB353
 17780 00e8 00000000 		.4byte	.LFB354
 17781 00ec C0000000 		.4byte	.LFE354-.LFB354
 17782 00f0 00000000 		.4byte	.LFB355
 17783 00f4 C2000000 		.4byte	.LFE355-.LFB355
 17784 00f8 00000000 		.4byte	.LFB356
 17785 00fc B6000000 		.4byte	.LFE356-.LFB356
 17786 0100 00000000 		.4byte	.LFB357
 17787 0104 04000000 		.4byte	.LFE357-.LFB357
 17788 0108 00000000 		.4byte	.LFB358
 17789 010c 04000000 		.4byte	.LFE358-.LFB358
 17790 0110 00000000 		.4byte	0
 17791 0114 00000000 		.4byte	0
 17792              		.section	.debug_ranges,"",%progbits
 17793              	.Ldebug_ranges0:
 17794 0000 CC000000 		.4byte	.LBB251
 17795 0004 CE000000 		.4byte	.LBE251
 17796 0008 D2000000 		.4byte	.LBB254
 17797 000c E4000000 		.4byte	.LBE254
 17798 0010 00000000 		.4byte	0
 17799 0014 00000000 		.4byte	0
 17800 0018 1E010000 		.4byte	.LBB257
 17801 001c 22010000 		.4byte	.LBE257
 17802 0020 26010000 		.4byte	.LBB260
 17803 0024 34010000 		.4byte	.LBE260
 17804 0028 00000000 		.4byte	0
 17805 002c 00000000 		.4byte	0
 17806 0030 3A010000 		.4byte	.LBB261
 17807 0034 3C010000 		.4byte	.LBE261
 17808 0038 40010000 		.4byte	.LBB264
 17809 003c 4E010000 		.4byte	.LBE264
 17810 0040 00000000 		.4byte	0
 17811 0044 00000000 		.4byte	0
 17812 0048 54010000 		.4byte	.LBB265
 17813 004c 58010000 		.4byte	.LBE265
 17814 0050 5C010000 		.4byte	.LBB268
 17815 0054 6A010000 		.4byte	.LBE268
 17816 0058 00000000 		.4byte	0
 17817 005c 00000000 		.4byte	0
 17818 0060 CC000000 		.4byte	.LBB319
 17819 0064 CE000000 		.4byte	.LBE319
 17820 0068 D2000000 		.4byte	.LBB322
 17821 006c E4000000 		.4byte	.LBE322
 17822 0070 00000000 		.4byte	0
 17823 0074 00000000 		.4byte	0
 17824 0078 1E010000 		.4byte	.LBB325
 17825 007c 22010000 		.4byte	.LBE325
 17826 0080 26010000 		.4byte	.LBB328
 17827 0084 34010000 		.4byte	.LBE328
 17828 0088 00000000 		.4byte	0
 17829 008c 00000000 		.4byte	0
 17830 0090 3A010000 		.4byte	.LBB329
 17831 0094 3C010000 		.4byte	.LBE329
 17832 0098 40010000 		.4byte	.LBB332
 17833 009c 4E010000 		.4byte	.LBE332
 17834 00a0 00000000 		.4byte	0
 17835 00a4 00000000 		.4byte	0
ARM GAS  C:\Users\strap\AppData\Local\Temp\cc7bAV43.s 			page 358


 17836 00a8 54010000 		.4byte	.LBB333
 17837 00ac 58010000 		.4byte	.LBE333
 17838 00b0 5C010000 		.4byte	.LBB336
 17839 00b4 6A010000 		.4byte	.LBE336
 17840 00b8 00000000 		.4byte	0
 17841 00bc 00000000 		.4byte	0
 17842 00c0 CC000000 		.4byte	.LBB387
 17843 00c4 D0000000 		.4byte	.LBE387
 17844 00c8 D4000000 		.4byte	.LBB390
 17845 00cc E6000000 		.4byte	.LBE390
 17846 00d0 00000000 		.4byte	0
 17847 00d4 00000000 		.4byte	0
 17848 00d8 20010000 		.4byte	.LBB393
 17849 00dc 24010000 		.4byte	.LBE393
 17850 00e0 28010000 		.4byte	.LBB396
 17851 00e4 36010000 		.4byte	.LBE396
 17852 00e8 00000000 		.4byte	0
 17853 00ec 00000000 		.4byte	0
 17854 00f0 3C010000 		.4byte	.LBB397
 17855 00f4 40010000 		.4byte	.LBE397
 17856 00f8 44010000 		.4byte	.LBB400
 17857 00fc 52010000 		.4byte	.LBE400
 17858 0100 00000000 		.4byte	0
 17859 0104 00000000 		.4byte	0
 17860 0108 58010000 		.4byte	.LBB401
 17861 010c 5C010000 		.4byte	.LBE401
 17862 0110 60010000 		.4byte	.LBB404
 17863 0114 6E010000 		.4byte	.LBE404
 17864 0118 00000000 		.4byte	0
 17865 011c 00000000 		.4byte	0
 17866 0120 CA000000 		.4byte	.LBB455
 17867 0124 CC000000 		.4byte	.LBE455
 17868 0128 D0000000 		.4byte	.LBB458
 17869 012c E2000000 		.4byte	.LBE458
 17870 0130 00000000 		.4byte	0
 17871 0134 00000000 		.4byte	0
 17872 0138 1E010000 		.4byte	.LBB461
 17873 013c 22010000 		.4byte	.LBE461
 17874 0140 26010000 		.4byte	.LBB464
 17875 0144 34010000 		.4byte	.LBE464
 17876 0148 00000000 		.4byte	0
 17877 014c 00000000 		.4byte	0
 17878 0150 3A010000 		.4byte	.LBB465
 17879 0154 3C010000 		.4byte	.LBE465
 17880 0158 40010000 		.4byte	.LBB468
 17881 015c 4E010000 		.4byte	.LBE468
 17882 0160 00000000 		.4byte	0
 17883 0164 00000000 		.4byte	0
 17884 0168 54010000 		.4byte	.LBB469
 17885 016c 58010000 		.4byte	.LBE469
 17886 0170 5C010000 		.4byte	.LBB472
 17887 0174 6A010000 		.4byte	.LBE472
 17888 0178 00000000 		.4byte	0
 17889 017c 00000000 		.4byte	0
 17890 0180 00000000 		.4byte	.LFB328
 17891 0184 0A000000 		.4byte	.LFE328
 17892 0188 00000000 		.4byte	.LFB331
ARM GAS  C:\Users\strap\AppData\Local\Temp\cc7bAV43.s 			page 359


 17893 018c 0A000000 		.4byte	.LFE331
 17894 0190 00000000 		.4byte	.LFB334
 17895 0194 B0000000 		.4byte	.LFE334
 17896 0198 00000000 		.4byte	.LFB333
 17897 019c 9C000000 		.4byte	.LFE333
 17898 01a0 00000000 		.4byte	.LFB360
 17899 01a4 7C000000 		.4byte	.LFE360
 17900 01a8 00000000 		.4byte	.LFB336
 17901 01ac 10000000 		.4byte	.LFE336
 17902 01b0 00000000 		.4byte	.LFB337
 17903 01b4 4E000000 		.4byte	.LFE337
 17904 01b8 00000000 		.4byte	.LFB329
 17905 01bc 26000000 		.4byte	.LFE329
 17906 01c0 00000000 		.4byte	.LFB330
 17907 01c4 20010000 		.4byte	.LFE330
 17908 01c8 00000000 		.4byte	.LFB338
 17909 01cc 74010000 		.4byte	.LFE338
 17910 01d0 00000000 		.4byte	.LFB339
 17911 01d4 74010000 		.4byte	.LFE339
 17912 01d8 00000000 		.4byte	.LFB340
 17913 01dc 78010000 		.4byte	.LFE340
 17914 01e0 00000000 		.4byte	.LFB341
 17915 01e4 74010000 		.4byte	.LFE341
 17916 01e8 00000000 		.4byte	.LFB342
 17917 01ec FC000000 		.4byte	.LFE342
 17918 01f0 00000000 		.4byte	.LFB343
 17919 01f4 FC000000 		.4byte	.LFE343
 17920 01f8 00000000 		.4byte	.LFB344
 17921 01fc FC000000 		.4byte	.LFE344
 17922 0200 00000000 		.4byte	.LFB345
 17923 0204 FC000000 		.4byte	.LFE345
 17924 0208 00000000 		.4byte	.LFB346
 17925 020c 1E000000 		.4byte	.LFE346
 17926 0210 00000000 		.4byte	.LFB347
 17927 0214 12000000 		.4byte	.LFE347
 17928 0218 00000000 		.4byte	.LFB335
 17929 021c 66000000 		.4byte	.LFE335
 17930 0220 00000000 		.4byte	.LFB332
 17931 0224 FC000000 		.4byte	.LFE332
 17932 0228 00000000 		.4byte	.LFB348
 17933 022c 68000000 		.4byte	.LFE348
 17934 0230 00000000 		.4byte	.LFB349
 17935 0234 14000000 		.4byte	.LFE349
 17936 0238 00000000 		.4byte	.LFB350
 17937 023c 14000000 		.4byte	.LFE350
 17938 0240 00000000 		.4byte	.LFB351
 17939 0244 14000000 		.4byte	.LFE351
 17940 0248 00000000 		.4byte	.LFB352
 17941 024c 14000000 		.4byte	.LFE352
 17942 0250 00000000 		.4byte	.LFB353
 17943 0254 C2000000 		.4byte	.LFE353
 17944 0258 00000000 		.4byte	.LFB354
 17945 025c C0000000 		.4byte	.LFE354
 17946 0260 00000000 		.4byte	.LFB355
 17947 0264 C2000000 		.4byte	.LFE355
 17948 0268 00000000 		.4byte	.LFB356
 17949 026c B6000000 		.4byte	.LFE356
ARM GAS  C:\Users\strap\AppData\Local\Temp\cc7bAV43.s 			page 360


 17950 0270 00000000 		.4byte	.LFB357
 17951 0274 04000000 		.4byte	.LFE357
 17952 0278 00000000 		.4byte	.LFB358
 17953 027c 04000000 		.4byte	.LFE358
 17954 0280 00000000 		.4byte	0
 17955 0284 00000000 		.4byte	0
 17956              		.section	.debug_line,"",%progbits
 17957              	.Ldebug_line0:
 17958 0000 D80B0000 		.section	.debug_str,"MS",%progbits,1
 17958      02003802 
 17958      00000201 
 17958      FB0E0D00 
 17958      01010101 
 17959              	.LASF80:
 17960 0000 74657874 		.ascii	"text_space_zero\000"
 17960      5F737061 
 17960      63655F7A 
 17960      65726F00 
 17961              	.LASF162:
 17962 0010 6C765F6D 		.ascii	"lv_mem_alloc\000"
 17962      656D5F61 
 17962      6C6C6F63 
 17962      00
 17963              	.LASF141:
 17964 001d 6C765F73 		.ascii	"lv_style_list_copy\000"
 17964      74796C65 
 17964      5F6C6973 
 17964      745F636F 
 17964      707900
 17965              	.LASF94:
 17966 0030 6C765F73 		.ascii	"lv_style_list_get_style\000"
 17966      74796C65 
 17966      5F6C6973 
 17966      745F6765 
 17966      745F7374 
 17967              	.LASF78:
 17968 0048 76616C75 		.ascii	"value_txt_str\000"
 17968      655F7478 
 17968      745F7374 
 17968      7200
 17969              	.LASF23:
 17970 0056 73697A65 		.ascii	"size_t\000"
 17970      5F7400
 17971              	.LASF22:
 17972 005d 75696E74 		.ascii	"uintptr_t\000"
 17972      7074725F 
 17972      7400
 17973              	.LASF21:
 17974 0067 75696E74 		.ascii	"uint64_t\000"
 17974      36345F74 
 17974      00
 17975              	.LASF82:
 17976 0070 74657874 		.ascii	"text_font_normal\000"
 17976      5F666F6E 
 17976      745F6E6F 
 17976      726D616C 
 17976      00
ARM GAS  C:\Users\strap\AppData\Local\Temp\cc7bAV43.s 			page 361


 17977              	.LASF2:
 17978 0081 5F5F7569 		.ascii	"__uint8_t\000"
 17978      6E74385F 
 17978      7400
 17979              	.LASF136:
 17980 008b 6C765F73 		.ascii	"lv_style_list_get_local_style\000"
 17980      74796C65 
 17980      5F6C6973 
 17980      745F6765 
 17980      745F6C6F 
 17981              	.LASF110:
 17982 00a9 69645F74 		.ascii	"id_to_find\000"
 17982      6F5F6669 
 17982      6E6400
 17983              	.LASF13:
 17984 00b4 6C6F6E67 		.ascii	"long long unsigned int\000"
 17984      206C6F6E 
 17984      6720756E 
 17984      7369676E 
 17984      65642069 
 17985              	.LASF27:
 17986 00cb 4C565F52 		.ascii	"LV_RES_INV\000"
 17986      45535F49 
 17986      4E5600
 17987              	.LASF132:
 17988 00d6 61747472 		.ascii	"attr_act\000"
 17988      5F616374 
 17988      00
 17989              	.LASF17:
 17990 00df 696E7431 		.ascii	"int16_t\000"
 17990      365F7400 
 17991              	.LASF11:
 17992 00e7 6C6F6E67 		.ascii	"long long int\000"
 17992      206C6F6E 
 17992      6720696E 
 17992      7400
 17993              	.LASF0:
 17994 00f5 7369676E 		.ascii	"signed char\000"
 17994      65642063 
 17994      68617200 
 17995              	.LASF125:
 17996 0101 656E645F 		.ascii	"end_mark_size\000"
 17996      6D61726B 
 17996      5F73697A 
 17996      6500
 17997              	.LASF52:
 17998 010f 6C765F73 		.ascii	"lv_style_property_t\000"
 17998      74796C65 
 17998      5F70726F 
 17998      70657274 
 17998      795F7400 
 17999              	.LASF37:
 18000 0123 4C565F4F 		.ascii	"LV_OPA_50\000"
 18000      50415F35 
 18000      3000
 18001              	.LASF90:
 18002 012d 73697A65 		.ascii	"size\000"
ARM GAS  C:\Users\strap\AppData\Local\Temp\cc7bAV43.s 			page 362


 18002      00
 18003              	.LASF35:
 18004 0132 4C565F4F 		.ascii	"LV_OPA_30\000"
 18004      50415F33 
 18004      3000
 18005              	.LASF120:
 18006 013c 70726F70 		.ascii	"prop_size\000"
 18006      5F73697A 
 18006      6500
 18007              	.LASF123:
 18008 0146 6E65775F 		.ascii	"new_prop_size\000"
 18008      70726F70 
 18008      5F73697A 
 18008      6500
 18009              	.LASF56:
 18010 0154 7374796C 		.ascii	"style_cnt\000"
 18010      655F636E 
 18010      7400
 18011              	.LASF148:
 18012 015e 5F6C765F 		.ascii	"_lv_style_list_set_local_color\000"
 18012      7374796C 
 18012      655F6C69 
 18012      73745F73 
 18012      65745F6C 
 18013              	.LASF139:
 18014 017d 6C6F6361 		.ascii	"local\000"
 18014      6C00
 18015              	.LASF58:
 18016 0183 6861735F 		.ascii	"has_trans\000"
 18016      7472616E 
 18016      7300
 18017              	.LASF157:
 18018 018d 5F6C765F 		.ascii	"_lv_style_list_get_ptr\000"
 18018      7374796C 
 18018      655F6C69 
 18018      73745F67 
 18018      65745F70 
 18019              	.LASF8:
 18020 01a4 6C6F6E67 		.ascii	"long int\000"
 18020      20696E74 
 18020      00
 18021              	.LASF155:
 18022 01ad 5F6C765F 		.ascii	"_lv_style_list_get_color\000"
 18022      7374796C 
 18022      655F6C69 
 18022      73745F67 
 18022      65745F63 
 18023              	.LASF158:
 18024 01c6 6C765F64 		.ascii	"lv_debug_check_style\000"
 18024      65627567 
 18024      5F636865 
 18024      636B5F73 
 18024      74796C65 
 18025              	.LASF84:
 18026 01db 7374796C 		.ascii	"style\000"
 18026      6500
 18027              	.LASF70:
ARM GAS  C:\Users\strap\AppData\Local\Temp\cc7bAV43.s 			page 363


 18028 01e1 62675F6F 		.ascii	"bg_opa_transp\000"
 18028      70615F74 
 18028      72616E73 
 18028      7000
 18029              	.LASF114:
 18030 01ef 61747472 		.ascii	"attr_i\000"
 18030      5F6900
 18031              	.LASF81:
 18032 01f6 74657874 		.ascii	"text_decor_none\000"
 18032      5F646563 
 18032      6F725F6E 
 18032      6F6E6500 
 18033              	.LASF86:
 18034 0206 70726F70 		.ascii	"prop_p\000"
 18034      5F7000
 18035              	.LASF161:
 18036 020d 6C765F6D 		.ascii	"lv_mem_free\000"
 18036      656D5F66 
 18036      72656500 
 18037              	.LASF43:
 18038 0219 4C565F4F 		.ascii	"LV_OPA_COVER\000"
 18038      50415F43 
 18038      4F564552 
 18038      00
 18039              	.LASF102:
 18040 0226 5F6C765F 		.ascii	"_lv_style_list_add_style\000"
 18040      7374796C 
 18040      655F6C69 
 18040      73745F61 
 18040      64645F73 
 18041              	.LASF163:
 18042 023f 6C765F64 		.ascii	"lv_debug_check_null\000"
 18042      65627567 
 18042      5F636865 
 18042      636B5F6E 
 18042      756C6C00 
 18043              	.LASF140:
 18044 0253 7472616E 		.ascii	"trans\000"
 18044      7300
 18045              	.LASF9:
 18046 0259 5F5F7569 		.ascii	"__uint32_t\000"
 18046      6E743332 
 18046      5F7400
 18047              	.LASF38:
 18048 0264 4C565F4F 		.ascii	"LV_OPA_60\000"
 18048      50415F36 
 18048      3000
 18049              	.LASF3:
 18050 026e 5F5F696E 		.ascii	"__int16_t\000"
 18050      7431365F 
 18050      7400
 18051              	.LASF29:
 18052 0278 6C765F72 		.ascii	"lv_res_t\000"
 18052      65735F74 
 18052      00
 18053              	.LASF122:
 18054 0281 76616C75 		.ascii	"value\000"
ARM GAS  C:\Users\strap\AppData\Local\Temp\cc7bAV43.s 			page 364


 18054      6500
 18055              	.LASF87:
 18056 0287 6765745F 		.ascii	"get_style_prop\000"
 18056      7374796C 
 18056      655F7072 
 18056      6F7000
 18057              	.LASF103:
 18058 0296 66697273 		.ascii	"first_style\000"
 18058      745F7374 
 18058      796C6500 
 18059              	.LASF119:
 18060 02a2 6D61705F 		.ascii	"map_size\000"
 18060      73697A65 
 18060      00
 18061              	.LASF63:
 18062 02ab 72616469 		.ascii	"radius_zero\000"
 18062      75735F7A 
 18062      65726F00 
 18063              	.LASF15:
 18064 02b7 756E7369 		.ascii	"unsigned int\000"
 18064      676E6564 
 18064      20696E74 
 18064      00
 18065              	.LASF46:
 18066 02c4 67726565 		.ascii	"green_l\000"
 18066      6E5F6C00 
 18067              	.LASF18:
 18068 02cc 75696E74 		.ascii	"uint16_t\000"
 18068      31365F74 
 18068      00
 18069              	.LASF79:
 18070 02d5 696D675F 		.ascii	"img_recolor_opa_transp\000"
 18070      7265636F 
 18070      6C6F725F 
 18070      6F70615F 
 18070      7472616E 
 18071              	.LASF107:
 18072 02ec 7374796C 		.ascii	"style_dest\000"
 18072      655F6465 
 18072      737400
 18073              	.LASF40:
 18074 02f7 4C565F4F 		.ascii	"LV_OPA_80\000"
 18074      50415F38 
 18074      3000
 18075              	.LASF10:
 18076 0301 6C6F6E67 		.ascii	"long unsigned int\000"
 18076      20756E73 
 18076      69676E65 
 18076      6420696E 
 18076      7400
 18077              	.LASF130:
 18078 0313 5F6C765F 		.ascii	"_lv_style_get_int\000"
 18078      7374796C 
 18078      655F6765 
 18078      745F696E 
 18078      7400
 18079              	.LASF85:
ARM GAS  C:\Users\strap\AppData\Local\Temp\cc7bAV43.s 			page 365


 18080 0325 70726F70 		.ascii	"prop\000"
 18080      00
 18081              	.LASF106:
 18082 032a 6C765F73 		.ascii	"lv_style_copy\000"
 18082      74796C65 
 18082      5F636F70 
 18082      7900
 18083              	.LASF131:
 18084 0338 765F7265 		.ascii	"v_res\000"
 18084      7300
 18085              	.LASF71:
 18086 033e 62675F6F 		.ascii	"bg_opa_cover\000"
 18086      70615F63 
 18086      6F766572 
 18086      00
 18087              	.LASF105:
 18088 034b 6C765F73 		.ascii	"lv_style_reset\000"
 18088      74796C65 
 18088      5F726573 
 18088      657400
 18089              	.LASF73:
 18090 035a 626F7264 		.ascii	"border_side_full\000"
 18090      65725F73 
 18090      6964655F 
 18090      66756C6C 
 18090      00
 18091              	.LASF6:
 18092 036b 73686F72 		.ascii	"short unsigned int\000"
 18092      7420756E 
 18092      7369676E 
 18092      65642069 
 18092      6E7400
 18093              	.LASF83:
 18094 037e 6C765F73 		.ascii	"lv_style_list_t\000"
 18094      74796C65 
 18094      5F6C6973 
 18094      745F7400 
 18095              	.LASF65:
 18096 038e 636C6970 		.ascii	"clip_corner_off\000"
 18096      5F636F72 
 18096      6E65725F 
 18096      6F666600 
 18097              	.LASF118:
 18098 039e 61747472 		.ascii	"attr_goal\000"
 18098      5F676F61 
 18098      6C00
 18099              	.LASF75:
 18100 03a8 6F75746C 		.ascii	"outline_width_zero\000"
 18100      696E655F 
 18100      77696474 
 18100      685F7A65 
 18100      726F00
 18101              	.LASF72:
 18102 03bb 626F7264 		.ascii	"border_width_zero\000"
 18102      65725F77 
 18102      69647468 
 18102      5F7A6572 
ARM GAS  C:\Users\strap\AppData\Local\Temp\cc7bAV43.s 			page 366


 18102      6F00
 18103              	.LASF57:
 18104 03cd 6861735F 		.ascii	"has_local\000"
 18104      6C6F6361 
 18104      6C00
 18105              	.LASF101:
 18106 03d7 6E65775F 		.ascii	"new_classes\000"
 18106      636C6173 
 18106      73657300 
 18107              	.LASF116:
 18108 03e3 6C765F73 		.ascii	"lv_style_remove_prop\000"
 18108      74796C65 
 18108      5F72656D 
 18108      6F76655F 
 18108      70726F70 
 18109              	.LASF39:
 18110 03f8 4C565F4F 		.ascii	"LV_OPA_70\000"
 18110      50415F37 
 18110      3000
 18111              	.LASF146:
 18112 0402 5F6C765F 		.ascii	"_lv_style_list_set_local_int\000"
 18112      7374796C 
 18112      655F6C69 
 18112      73745F73 
 18112      65745F6C 
 18113              	.LASF74:
 18114 041f 626F7264 		.ascii	"border_post_off\000"
 18114      65725F70 
 18114      6F73745F 
 18114      6F666600 
 18115              	.LASF50:
 18116 042f 6C765F6F 		.ascii	"lv_opa_t\000"
 18116      70615F74 
 18116      00
 18117              	.LASF96:
 18118 0438 5F6C765F 		.ascii	"_lv_memcpy_small\000"
 18118      6D656D63 
 18118      70795F73 
 18118      6D616C6C 
 18118      00
 18119              	.LASF60:
 18120 0449 69676E6F 		.ascii	"ignore_trans\000"
 18120      72655F74 
 18120      72616E73 
 18120      00
 18121              	.LASF62:
 18122 0456 69676E6F 		.ascii	"ignore_cache\000"
 18122      72655F63 
 18122      61636865 
 18122      00
 18123              	.LASF126:
 18124 0463 5F6C765F 		.ascii	"_lv_style_set_color\000"
 18124      7374796C 
 18124      655F7365 
 18124      745F636F 
 18124      6C6F7200 
 18125              	.LASF164:
ARM GAS  C:\Users\strap\AppData\Local\Temp\cc7bAV43.s 			page 367


 18126 0477 6C765F64 		.ascii	"lv_debug_log_error\000"
 18126      65627567 
 18126      5F6C6F67 
 18126      5F657272 
 18126      6F7200
 18127              	.LASF133:
 18128 048a 5F6C765F 		.ascii	"_lv_style_get_opa\000"
 18128      7374796C 
 18128      655F6765 
 18128      745F6F70 
 18128      6100
 18129              	.LASF144:
 18130 049c 5F6C765F 		.ascii	"_lv_style_list_add_trans_style\000"
 18130      7374796C 
 18130      655F6C69 
 18130      73745F61 
 18130      64645F74 
 18131              	.LASF25:
 18132 04bb 73697A65 		.ascii	"sizetype\000"
 18132      74797065 
 18132      00
 18133              	.LASF69:
 18134 04c4 626C656E 		.ascii	"blend_mode_all_normal\000"
 18134      645F6D6F 
 18134      64655F61 
 18134      6C6C5F6E 
 18134      6F726D61 
 18135              	.LASF66:
 18136 04da 7472616E 		.ascii	"transform_all_zero\000"
 18136      73666F72 
 18136      6D5F616C 
 18136      6C5F7A65 
 18136      726F00
 18137              	.LASF104:
 18138 04ed 6C6F6361 		.ascii	"local_style\000"
 18138      6C5F7374 
 18138      796C6500 
 18139              	.LASF24:
 18140 04f9 6C6F6E67 		.ascii	"long double\000"
 18140      20646F75 
 18140      626C6500 
 18141              	.LASF68:
 18142 0505 6D617267 		.ascii	"margin_all_zero\000"
 18142      696E5F61 
 18142      6C6C5F7A 
 18142      65726F00 
 18143              	.LASF47:
 18144 0515 66756C6C 		.ascii	"full\000"
 18144      00
 18145              	.LASF28:
 18146 051a 4C565F52 		.ascii	"LV_RES_OK\000"
 18146      45535F4F 
 18146      4B00
 18147              	.LASF31:
 18148 0524 4C565F4F 		.ascii	"LV_OPA_TRANSP\000"
 18148      50415F54 
 18148      52414E53 
ARM GAS  C:\Users\strap\AppData\Local\Temp\cc7bAV43.s 			page 368


 18148      5000
 18149              	.LASF93:
 18150 0532 6765745F 		.ascii	"get_style_prop_id\000"
 18150      7374796C 
 18150      655F7072 
 18150      6F705F69 
 18150      6400
 18151              	.LASF169:
 18152 0544 433A5C55 		.ascii	"C:\\Users\\strap\\Documents\\Creator\\test_lvgl\\il"
 18152      73657273 
 18152      5C737472 
 18152      61705C44 
 18152      6F63756D 
 18153 0571 69393334 		.ascii	"i9341_master.cydsn\000"
 18153      315F6D61 
 18153      73746572 
 18153      2E637964 
 18153      736E00
 18154              	.LASF36:
 18155 0584 4C565F4F 		.ascii	"LV_OPA_40\000"
 18155      50415F34 
 18155      3000
 18156              	.LASF152:
 18157 058e 76616C75 		.ascii	"value_act\000"
 18157      655F6163 
 18157      7400
 18158              	.LASF76:
 18159 0598 70617474 		.ascii	"pattern_img_null\000"
 18159      65726E5F 
 18159      696D675F 
 18159      6E756C6C 
 18159      00
 18160              	.LASF147:
 18161 05a9 5F6C765F 		.ascii	"_lv_style_list_set_local_opa\000"
 18161      7374796C 
 18161      655F6C69 
 18161      73745F73 
 18161      65745F6C 
 18162              	.LASF12:
 18163 05c6 5F5F7569 		.ascii	"__uint64_t\000"
 18163      6E743634 
 18163      5F7400
 18164              	.LASF160:
 18165 05d1 5F6C765F 		.ascii	"_lv_memset_00\000"
 18165      6D656D73 
 18165      65745F30 
 18165      3000
 18166              	.LASF165:
 18167 05df 6C765F6D 		.ascii	"lv_mem_realloc\000"
 18167      656D5F72 
 18167      65616C6C 
 18167      6F6300
 18168              	.LASF44:
 18169 05ee 67726565 		.ascii	"green_h\000"
 18169      6E5F6800 
 18170              	.LASF41:
 18171 05f6 4C565F4F 		.ascii	"LV_OPA_90\000"
ARM GAS  C:\Users\strap\AppData\Local\Temp\cc7bAV43.s 			page 369


 18171      50415F39 
 18171      3000
 18172              	.LASF98:
 18173 0600 6C765F73 		.ascii	"lv_style_list_init\000"
 18173      74796C65 
 18173      5F6C6973 
 18173      745F696E 
 18173      697400
 18174              	.LASF48:
 18175 0613 6C765F63 		.ascii	"lv_color16_t\000"
 18175      6F6C6F72 
 18175      31365F74 
 18175      00
 18176              	.LASF142:
 18177 0620 6C697374 		.ascii	"list_dest\000"
 18177      5F646573 
 18177      7400
 18178              	.LASF111:
 18179 062a 61747472 		.ascii	"attr\000"
 18179      00
 18180              	.LASF109:
 18181 062f 6765745F 		.ascii	"get_property_index\000"
 18181      70726F70 
 18181      65727479 
 18181      5F696E64 
 18181      657800
 18182              	.LASF33:
 18183 0642 4C565F4F 		.ascii	"LV_OPA_10\000"
 18183      50415F31 
 18183      3000
 18184              	.LASF51:
 18185 064c 6C765F73 		.ascii	"lv_style_attr_t\000"
 18185      74796C65 
 18185      5F617474 
 18185      725F7400 
 18186              	.LASF30:
 18187 065c 5F426F6F 		.ascii	"_Bool\000"
 18187      6C00
 18188              	.LASF19:
 18189 0662 696E7433 		.ascii	"int32_t\000"
 18189      325F7400 
 18190              	.LASF1:
 18191 066a 756E7369 		.ascii	"unsigned char\000"
 18191      676E6564 
 18191      20636861 
 18191      7200
 18192              	.LASF53:
 18193 0678 6C765F73 		.ascii	"lv_style_t\000"
 18193      74796C65 
 18193      5F7400
 18194              	.LASF108:
 18195 0683 7374796C 		.ascii	"style_src\000"
 18195      655F7372 
 18195      6300
 18196              	.LASF4:
 18197 068d 73686F72 		.ascii	"short int\000"
 18197      7420696E 
ARM GAS  C:\Users\strap\AppData\Local\Temp\cc7bAV43.s 			page 370


 18197      7400
 18198              	.LASF150:
 18199 0697 5F6C765F 		.ascii	"_lv_style_list_get_int\000"
 18199      7374796C 
 18199      655F6C69 
 18199      73745F67 
 18199      65745F69 
 18200              	.LASF171:
 18201 06ae 6765745F 		.ascii	"get_alloc_local_style\000"
 18201      616C6C6F 
 18201      635F6C6F 
 18201      63616C5F 
 18201      7374796C 
 18202              	.LASF115:
 18203 06c4 5F6C765F 		.ascii	"_lv_style_get_mem_size\000"
 18203      7374796C 
 18203      655F6765 
 18203      745F6D65 
 18203      6D5F7369 
 18204              	.LASF145:
 18205 06db 7472616E 		.ascii	"trans_style\000"
 18205      735F7374 
 18205      796C6500 
 18206              	.LASF14:
 18207 06e7 5F5F7569 		.ascii	"__uintptr_t\000"
 18207      6E747074 
 18207      725F7400 
 18208              	.LASF134:
 18209 06f3 5F6C765F 		.ascii	"_lv_style_get_color\000"
 18209      7374796C 
 18209      655F6765 
 18209      745F636F 
 18209      6C6F7200 
 18210              	.LASF167:
 18211 0707 474E5520 		.ascii	"GNU C11 5.4.1 20160609 (release) [ARM/embedded-5-br"
 18211      43313120 
 18211      352E342E 
 18211      31203230 
 18211      31363036 
 18212 073a 616E6368 		.ascii	"anch revision 237715] -mcpu=cortex-m3 -mthumb -g -O"
 18212      20726576 
 18212      6973696F 
 18212      6E203233 
 18212      37373135 
 18213 076d 67202D66 		.ascii	"g -ffunction-sections -ffat-lto-objects\000"
 18213      66756E63 
 18213      74696F6E 
 18213      2D736563 
 18213      74696F6E 
 18214              	.LASF91:
 18215 0795 6765745F 		.ascii	"get_style_prop_attr\000"
 18215      7374796C 
 18215      655F7072 
 18215      6F705F61 
 18215      74747200 
 18216              	.LASF54:
 18217 07a9 6C765F73 		.ascii	"lv_style_int_t\000"
ARM GAS  C:\Users\strap\AppData\Local\Temp\cc7bAV43.s 			page 371


 18217      74796C65 
 18217      5F696E74 
 18217      5F7400
 18218              	.LASF64:
 18219 07b8 6F70615F 		.ascii	"opa_scale_cover\000"
 18219      7363616C 
 18219      655F636F 
 18219      76657200 
 18220              	.LASF61:
 18221 07c8 76616C69 		.ascii	"valid_cache\000"
 18221      645F6361 
 18221      63686500 
 18222              	.LASF55:
 18223 07d4 7374796C 		.ascii	"style_list\000"
 18223      655F6C69 
 18223      737400
 18224              	.LASF117:
 18225 07df 61747472 		.ascii	"attr_found\000"
 18225      5F666F75 
 18225      6E6400
 18226              	.LASF45:
 18227 07ea 626C7565 		.ascii	"blue\000"
 18227      00
 18228              	.LASF127:
 18229 07ef 636F6C6F 		.ascii	"color\000"
 18229      7200
 18230              	.LASF26:
 18231 07f5 63686172 		.ascii	"char\000"
 18231      00
 18232              	.LASF159:
 18233 07fa 6C765F64 		.ascii	"lv_debug_check_style_list\000"
 18233      65627567 
 18233      5F636865 
 18233      636B5F73 
 18233      74796C65 
 18234              	.LASF34:
 18235 0814 4C565F4F 		.ascii	"LV_OPA_20\000"
 18235      50415F32 
 18235      3000
 18236              	.LASF153:
 18237 081e 5F636C61 		.ascii	"_class\000"
 18237      737300
 18238              	.LASF5:
 18239 0825 5F5F7569 		.ascii	"__uint16_t\000"
 18239      6E743136 
 18239      5F7400
 18240              	.LASF170:
 18241 0830 7374796C 		.ascii	"style_resize\000"
 18241      655F7265 
 18241      73697A65 
 18241      00
 18242              	.LASF99:
 18243 083d 5F6C765F 		.ascii	"_lv_style_list_remove_style\000"
 18243      7374796C 
 18243      655F6C69 
 18243      73745F72 
 18243      656D6F76 
ARM GAS  C:\Users\strap\AppData\Local\Temp\cc7bAV43.s 			page 372


 18244              	.LASF138:
 18245 0859 5F6C765F 		.ascii	"_lv_style_list_reset\000"
 18245      7374796C 
 18245      655F6C69 
 18245      73745F72 
 18245      65736574 
 18246              	.LASF7:
 18247 086e 5F5F696E 		.ascii	"__int32_t\000"
 18247      7433325F 
 18247      7400
 18248              	.LASF49:
 18249 0878 6C765F63 		.ascii	"lv_color_t\000"
 18249      6F6C6F72 
 18249      5F7400
 18250              	.LASF42:
 18251 0883 4C565F4F 		.ascii	"LV_OPA_100\000"
 18251      50415F31 
 18251      303000
 18252              	.LASF156:
 18253 088e 5F6C765F 		.ascii	"_lv_style_list_get_opa\000"
 18253      7374796C 
 18253      655F6C69 
 18253      73745F67 
 18253      65745F6F 
 18254              	.LASF154:
 18255 08a5 77656967 		.ascii	"weight_act\000"
 18255      68745F61 
 18255      637400
 18256              	.LASF124:
 18257 08b0 656E645F 		.ascii	"end_mark\000"
 18257      6D61726B 
 18257      00
 18258              	.LASF113:
 18259 08b9 69645F67 		.ascii	"id_guess\000"
 18259      75657373 
 18259      00
 18260              	.LASF121:
 18261 08c2 5F6C765F 		.ascii	"_lv_style_set_int\000"
 18261      7374796C 
 18261      655F7365 
 18261      745F696E 
 18261      7400
 18262              	.LASF151:
 18263 08d4 77656967 		.ascii	"weight_goal\000"
 18263      68745F67 
 18263      6F616C00 
 18264              	.LASF129:
 18265 08e0 5F6C765F 		.ascii	"_lv_style_set_ptr\000"
 18265      7374796C 
 18265      655F7365 
 18265      745F7074 
 18265      7200
 18266              	.LASF100:
 18267 08f2 666F756E 		.ascii	"found\000"
 18267      6400
 18268              	.LASF137:
 18269 08f8 5F6C765F 		.ascii	"_lv_style_list_get_transition_style\000"
ARM GAS  C:\Users\strap\AppData\Local\Temp\cc7bAV43.s 			page 373


 18269      7374796C 
 18269      655F6C69 
 18269      73745F67 
 18269      65745F74 
 18270              	.LASF135:
 18271 091c 5F6C765F 		.ascii	"_lv_style_get_ptr\000"
 18271      7374796C 
 18271      655F6765 
 18271      745F7074 
 18271      7200
 18272              	.LASF88:
 18273 092e 6765745F 		.ascii	"get_prop_size\000"
 18273      70726F70 
 18273      5F73697A 
 18273      6500
 18274              	.LASF168:
 18275 093c 6C76676C 		.ascii	"lvgl\\src\\lv_core\\lv_style.c\000"
 18275      5C737263 
 18275      5C6C765F 
 18275      636F7265 
 18275      5C6C765F 
 18276              	.LASF16:
 18277 0958 75696E74 		.ascii	"uint8_t\000"
 18277      385F7400 
 18278              	.LASF32:
 18279 0960 4C565F4F 		.ascii	"LV_OPA_0\000"
 18279      50415F30 
 18279      00
 18280              	.LASF77:
 18281 0969 73686164 		.ascii	"shadow_width_zero\000"
 18281      6F775F77 
 18281      69647468 
 18281      5F7A6572 
 18281      6F00
 18282              	.LASF166:
 18283 097b 5F6C765F 		.ascii	"_lv_memcpy\000"
 18283      6D656D63 
 18283      707900
 18284              	.LASF143:
 18285 0986 6C697374 		.ascii	"list_src\000"
 18285      5F737263 
 18285      00
 18286              	.LASF89:
 18287 098f 70726F70 		.ascii	"prop_id\000"
 18287      5F696400 
 18288              	.LASF149:
 18289 0997 5F6C765F 		.ascii	"_lv_style_list_set_local_ptr\000"
 18289      7374796C 
 18289      655F6C69 
 18289      73745F73 
 18289      65745F6C 
 18290              	.LASF97:
 18291 09b4 6C765F73 		.ascii	"lv_style_init\000"
 18291      74796C65 
 18291      5F696E69 
 18291      7400
 18292              	.LASF67:
ARM GAS  C:\Users\strap\AppData\Local\Temp\cc7bAV43.s 			page 374


 18293 09c2 7061645F 		.ascii	"pad_all_zero\000"
 18293      616C6C5F 
 18293      7A65726F 
 18293      00
 18294              	.LASF95:
 18295 09cf 6C697374 		.ascii	"list\000"
 18295      00
 18296              	.LASF128:
 18297 09d4 5F6C765F 		.ascii	"_lv_style_set_opa\000"
 18297      7374796C 
 18297      655F7365 
 18297      745F6F70 
 18297      6100
 18298              	.LASF92:
 18299 09e6 6765745F 		.ascii	"get_next_prop_index\000"
 18299      6E657874 
 18299      5F70726F 
 18299      705F696E 
 18299      64657800 
 18300              	.LASF59:
 18301 09fa 736B6970 		.ascii	"skip_trans\000"
 18301      5F747261 
 18301      6E7300
 18302              	.LASF20:
 18303 0a05 75696E74 		.ascii	"uint32_t\000"
 18303      33325F74 
 18303      00
 18304              	.LASF112:
 18305 0a0e 77656967 		.ascii	"weight\000"
 18305      687400
 18306              		.ident	"GCC: (GNU Tools for ARM Embedded Processors) 5.4.1 20160609 (release) [ARM/embedded-5-bran
