ARM GAS  C:\Users\strap\AppData\Local\Temp\ccCgIabb.s 			page 1


   1              		.syntax unified
   2              		.cpu cortex-m3
   3              		.fpu softvfp
   4              		.eabi_attribute 20, 1
   5              		.eabi_attribute 21, 1
   6              		.eabi_attribute 23, 3
   7              		.eabi_attribute 24, 1
   8              		.eabi_attribute 25, 1
   9              		.eabi_attribute 26, 1
  10              		.eabi_attribute 30, 1
  11              		.eabi_attribute 34, 1
  12              		.eabi_attribute 18, 4
  13              		.thumb
  14              		.syntax unified
  15              		.file	"lv_txt.c"
  16              		.text
  17              	.Ltext0:
  18              		.cfi_sections	.debug_frame
  19              		.section	.text.lv_txt_utf8_size,"ax",%progbits
  20              		.align	2
  21              		.thumb
  22              		.thumb_func
  23              		.type	lv_txt_utf8_size, %function
  24              	lv_txt_utf8_size:
  25              	.LFB12:
  26              		.file 1 "lvgl\\src\\lv_misc\\lv_txt.c"
   1:lvgl\src\lv_misc/lv_txt.c **** /**
   2:lvgl\src\lv_misc/lv_txt.c ****  * @file lv_text.c
   3:lvgl\src\lv_misc/lv_txt.c ****  *
   4:lvgl\src\lv_misc/lv_txt.c ****  */
   5:lvgl\src\lv_misc/lv_txt.c **** 
   6:lvgl\src\lv_misc/lv_txt.c **** /*********************
   7:lvgl\src\lv_misc/lv_txt.c ****  *      INCLUDES
   8:lvgl\src\lv_misc/lv_txt.c ****  *********************/
   9:lvgl\src\lv_misc/lv_txt.c **** #include "lv_txt.h"
  10:lvgl\src\lv_misc/lv_txt.c **** #include "lv_math.h"
  11:lvgl\src\lv_misc/lv_txt.c **** #include "lv_log.h"
  12:lvgl\src\lv_misc/lv_txt.c **** 
  13:lvgl\src\lv_misc/lv_txt.c **** /*********************
  14:lvgl\src\lv_misc/lv_txt.c ****  *      DEFINES
  15:lvgl\src\lv_misc/lv_txt.c ****  *********************/
  16:lvgl\src\lv_misc/lv_txt.c **** #define NO_BREAK_FOUND UINT32_MAX
  17:lvgl\src\lv_misc/lv_txt.c **** 
  18:lvgl\src\lv_misc/lv_txt.c **** /**********************
  19:lvgl\src\lv_misc/lv_txt.c ****  *      TYPEDEFS
  20:lvgl\src\lv_misc/lv_txt.c ****  **********************/
  21:lvgl\src\lv_misc/lv_txt.c **** 
  22:lvgl\src\lv_misc/lv_txt.c **** /**********************
  23:lvgl\src\lv_misc/lv_txt.c ****  *  STATIC PROTOTYPES
  24:lvgl\src\lv_misc/lv_txt.c ****  **********************/
  25:lvgl\src\lv_misc/lv_txt.c **** static inline bool is_break_char(uint32_t letter);
  26:lvgl\src\lv_misc/lv_txt.c **** 
  27:lvgl\src\lv_misc/lv_txt.c **** #if LV_TXT_ENC == LV_TXT_ENC_UTF8
  28:lvgl\src\lv_misc/lv_txt.c ****     static uint8_t lv_txt_utf8_size(const char * str);
  29:lvgl\src\lv_misc/lv_txt.c ****     static uint32_t lv_txt_unicode_to_utf8(uint32_t letter_uni);
  30:lvgl\src\lv_misc/lv_txt.c ****     static uint32_t lv_txt_utf8_conv_wc(uint32_t c);
  31:lvgl\src\lv_misc/lv_txt.c ****     static uint32_t lv_txt_utf8_next(const char * txt, uint32_t * i);
ARM GAS  C:\Users\strap\AppData\Local\Temp\ccCgIabb.s 			page 2


  32:lvgl\src\lv_misc/lv_txt.c ****     static uint32_t lv_txt_utf8_prev(const char * txt, uint32_t * i_start);
  33:lvgl\src\lv_misc/lv_txt.c ****     static uint32_t lv_txt_utf8_get_byte_id(const char * txt, uint32_t utf8_id);
  34:lvgl\src\lv_misc/lv_txt.c ****     static uint32_t lv_txt_utf8_get_char_id(const char * txt, uint32_t byte_id);
  35:lvgl\src\lv_misc/lv_txt.c ****     static uint32_t lv_txt_utf8_get_length(const char * txt);
  36:lvgl\src\lv_misc/lv_txt.c **** #elif LV_TXT_ENC == LV_TXT_ENC_ASCII
  37:lvgl\src\lv_misc/lv_txt.c ****     static uint8_t lv_txt_iso8859_1_size(const char * str);
  38:lvgl\src\lv_misc/lv_txt.c ****     static uint32_t lv_txt_unicode_to_iso8859_1(uint32_t letter_uni);
  39:lvgl\src\lv_misc/lv_txt.c ****     static uint32_t lv_txt_iso8859_1_conv_wc(uint32_t c);
  40:lvgl\src\lv_misc/lv_txt.c ****     static uint32_t lv_txt_iso8859_1_next(const char * txt, uint32_t * i);
  41:lvgl\src\lv_misc/lv_txt.c ****     static uint32_t lv_txt_iso8859_1_prev(const char * txt, uint32_t * i_start);
  42:lvgl\src\lv_misc/lv_txt.c ****     static uint32_t lv_txt_iso8859_1_get_byte_id(const char * txt, uint32_t utf8_id);
  43:lvgl\src\lv_misc/lv_txt.c ****     static uint32_t lv_txt_iso8859_1_get_char_id(const char * txt, uint32_t byte_id);
  44:lvgl\src\lv_misc/lv_txt.c ****     static uint32_t lv_txt_iso8859_1_get_length(const char * txt);
  45:lvgl\src\lv_misc/lv_txt.c **** #endif
  46:lvgl\src\lv_misc/lv_txt.c **** /**********************
  47:lvgl\src\lv_misc/lv_txt.c ****  *  STATIC VARIABLES
  48:lvgl\src\lv_misc/lv_txt.c ****  **********************/
  49:lvgl\src\lv_misc/lv_txt.c **** 
  50:lvgl\src\lv_misc/lv_txt.c **** /**********************
  51:lvgl\src\lv_misc/lv_txt.c ****  *  GLOBAL VARIABLES
  52:lvgl\src\lv_misc/lv_txt.c ****  **********************/
  53:lvgl\src\lv_misc/lv_txt.c **** #if LV_TXT_ENC == LV_TXT_ENC_UTF8
  54:lvgl\src\lv_misc/lv_txt.c ****     uint8_t (*_lv_txt_encoded_size)(const char *)                   = lv_txt_utf8_size;
  55:lvgl\src\lv_misc/lv_txt.c ****     uint32_t (*_lv_txt_unicode_to_encoded)(uint32_t)                = lv_txt_unicode_to_utf8;
  56:lvgl\src\lv_misc/lv_txt.c ****     uint32_t (*_lv_txt_encoded_conv_wc)(uint32_t)                   = lv_txt_utf8_conv_wc;
  57:lvgl\src\lv_misc/lv_txt.c ****     uint32_t (*_lv_txt_encoded_next)(const char *, uint32_t *)      = lv_txt_utf8_next;
  58:lvgl\src\lv_misc/lv_txt.c ****     uint32_t (*_lv_txt_encoded_prev)(const char *, uint32_t *)      = lv_txt_utf8_prev;
  59:lvgl\src\lv_misc/lv_txt.c ****     uint32_t (*_lv_txt_encoded_get_byte_id)(const char *, uint32_t) = lv_txt_utf8_get_byte_id;
  60:lvgl\src\lv_misc/lv_txt.c ****     uint32_t (*_lv_txt_encoded_get_char_id)(const char *, uint32_t) = lv_txt_utf8_get_char_id;
  61:lvgl\src\lv_misc/lv_txt.c ****     uint32_t (*_lv_txt_get_encoded_length)(const char *)            = lv_txt_utf8_get_length;
  62:lvgl\src\lv_misc/lv_txt.c **** #elif LV_TXT_ENC == LV_TXT_ENC_ASCII
  63:lvgl\src\lv_misc/lv_txt.c ****     uint8_t (*_lv_txt_encoded_size)(const char *)                   = lv_txt_iso8859_1_size;
  64:lvgl\src\lv_misc/lv_txt.c ****     uint32_t (*_lv_txt_unicode_to_encoded)(uint32_t)                = lv_txt_unicode_to_iso8859_1;
  65:lvgl\src\lv_misc/lv_txt.c ****     uint32_t (*_lv_txt_encoded_conv_wc)(uint32_t)                   = lv_txt_iso8859_1_conv_wc;
  66:lvgl\src\lv_misc/lv_txt.c ****     uint32_t (*_lv_txt_encoded_next)(const char *, uint32_t *)      = lv_txt_iso8859_1_next;
  67:lvgl\src\lv_misc/lv_txt.c ****     uint32_t (*_lv_txt_encoded_prev)(const char *, uint32_t *)      = lv_txt_iso8859_1_prev;
  68:lvgl\src\lv_misc/lv_txt.c ****     uint32_t (*_lv_txt_encoded_get_byte_id)(const char *, uint32_t) = lv_txt_iso8859_1_get_byte_id;
  69:lvgl\src\lv_misc/lv_txt.c ****     uint32_t (*_lv_txt_encoded_get_char_id)(const char *, uint32_t)     = lv_txt_iso8859_1_get_char
  70:lvgl\src\lv_misc/lv_txt.c ****     uint32_t (*_lv_txt_get_encoded_length)(const char *)            = lv_txt_iso8859_1_get_length;
  71:lvgl\src\lv_misc/lv_txt.c **** 
  72:lvgl\src\lv_misc/lv_txt.c **** #endif
  73:lvgl\src\lv_misc/lv_txt.c **** 
  74:lvgl\src\lv_misc/lv_txt.c **** /**********************
  75:lvgl\src\lv_misc/lv_txt.c ****  *      MACROS
  76:lvgl\src\lv_misc/lv_txt.c ****  **********************/
  77:lvgl\src\lv_misc/lv_txt.c **** 
  78:lvgl\src\lv_misc/lv_txt.c **** /**********************
  79:lvgl\src\lv_misc/lv_txt.c ****  *   GLOBAL FUNCTIONS
  80:lvgl\src\lv_misc/lv_txt.c ****  **********************/
  81:lvgl\src\lv_misc/lv_txt.c **** 
  82:lvgl\src\lv_misc/lv_txt.c **** /**
  83:lvgl\src\lv_misc/lv_txt.c ****  * Get size of a text
  84:lvgl\src\lv_misc/lv_txt.c ****  * @param size_res pointer to a 'point_t' variable to store the result
  85:lvgl\src\lv_misc/lv_txt.c ****  * @param text pointer to a text
  86:lvgl\src\lv_misc/lv_txt.c ****  * @param font pointer to font of the text
  87:lvgl\src\lv_misc/lv_txt.c ****  * @param letter_space letter space of the text
  88:lvgl\src\lv_misc/lv_txt.c ****  * @param txt.line_space line space of the text
ARM GAS  C:\Users\strap\AppData\Local\Temp\ccCgIabb.s 			page 3


  89:lvgl\src\lv_misc/lv_txt.c ****  * @param flags settings for the text from 'txt_flag_t' enum
  90:lvgl\src\lv_misc/lv_txt.c ****  * @param max_width max with of the text (break the lines to fit this size) Set CORD_MAX to avoid
  91:lvgl\src\lv_misc/lv_txt.c ****  * line breaks
  92:lvgl\src\lv_misc/lv_txt.c ****  */
  93:lvgl\src\lv_misc/lv_txt.c **** void _lv_txt_get_size(lv_point_t * size_res, const char * text, const lv_font_t * font, lv_coord_t 
  94:lvgl\src\lv_misc/lv_txt.c ****                       lv_coord_t line_space, lv_coord_t max_width, lv_txt_flag_t flag)
  95:lvgl\src\lv_misc/lv_txt.c **** {
  96:lvgl\src\lv_misc/lv_txt.c ****     size_res->x = 0;
  97:lvgl\src\lv_misc/lv_txt.c ****     size_res->y = 0;
  98:lvgl\src\lv_misc/lv_txt.c **** 
  99:lvgl\src\lv_misc/lv_txt.c ****     if(text == NULL) return;
 100:lvgl\src\lv_misc/lv_txt.c ****     if(font == NULL) return;
 101:lvgl\src\lv_misc/lv_txt.c **** 
 102:lvgl\src\lv_misc/lv_txt.c ****     if(flag & LV_TXT_FLAG_EXPAND) max_width = LV_COORD_MAX;
 103:lvgl\src\lv_misc/lv_txt.c **** 
 104:lvgl\src\lv_misc/lv_txt.c ****     uint32_t line_start     = 0;
 105:lvgl\src\lv_misc/lv_txt.c ****     uint32_t new_line_start = 0;
 106:lvgl\src\lv_misc/lv_txt.c ****     uint16_t letter_height = lv_font_get_line_height(font);
 107:lvgl\src\lv_misc/lv_txt.c **** 
 108:lvgl\src\lv_misc/lv_txt.c ****     /*Calc. the height and longest line*/
 109:lvgl\src\lv_misc/lv_txt.c ****     while(text[line_start] != '\0') {
 110:lvgl\src\lv_misc/lv_txt.c ****         new_line_start += _lv_txt_get_next_line(&text[line_start], font, letter_space, max_width, f
 111:lvgl\src\lv_misc/lv_txt.c **** 
 112:lvgl\src\lv_misc/lv_txt.c ****         if((unsigned long)size_res->y + (unsigned long)letter_height + (unsigned long)line_space > 
 113:lvgl\src\lv_misc/lv_txt.c ****             LV_LOG_WARN("lv_txt_get_size: integer overflow while calculating text height");
 114:lvgl\src\lv_misc/lv_txt.c ****             return;
 115:lvgl\src\lv_misc/lv_txt.c ****         }
 116:lvgl\src\lv_misc/lv_txt.c ****         else {
 117:lvgl\src\lv_misc/lv_txt.c ****             size_res->y += letter_height;
 118:lvgl\src\lv_misc/lv_txt.c ****             size_res->y += line_space;
 119:lvgl\src\lv_misc/lv_txt.c ****         }
 120:lvgl\src\lv_misc/lv_txt.c **** 
 121:lvgl\src\lv_misc/lv_txt.c ****         /*Calculate the the longest line*/
 122:lvgl\src\lv_misc/lv_txt.c ****         lv_coord_t act_line_length = _lv_txt_get_width(&text[line_start], new_line_start - line_sta
 123:lvgl\src\lv_misc/lv_txt.c ****                                                        flag);
 124:lvgl\src\lv_misc/lv_txt.c **** 
 125:lvgl\src\lv_misc/lv_txt.c ****         size_res->x = LV_MATH_MAX(act_line_length, size_res->x);
 126:lvgl\src\lv_misc/lv_txt.c ****         line_start  = new_line_start;
 127:lvgl\src\lv_misc/lv_txt.c ****     }
 128:lvgl\src\lv_misc/lv_txt.c **** 
 129:lvgl\src\lv_misc/lv_txt.c ****     /*Make the text one line taller if the last character is '\n' or '\r'*/
 130:lvgl\src\lv_misc/lv_txt.c ****     if((line_start != 0) && (text[line_start - 1] == '\n' || text[line_start - 1] == '\r')) {
 131:lvgl\src\lv_misc/lv_txt.c ****         size_res->y += letter_height + line_space;
 132:lvgl\src\lv_misc/lv_txt.c ****     }
 133:lvgl\src\lv_misc/lv_txt.c **** 
 134:lvgl\src\lv_misc/lv_txt.c ****     /*Correction with the last line space or set the height manually if the text is empty*/
 135:lvgl\src\lv_misc/lv_txt.c ****     if(size_res->y == 0)
 136:lvgl\src\lv_misc/lv_txt.c ****         size_res->y = letter_height;
 137:lvgl\src\lv_misc/lv_txt.c ****     else
 138:lvgl\src\lv_misc/lv_txt.c ****         size_res->y -= line_space;
 139:lvgl\src\lv_misc/lv_txt.c **** }
 140:lvgl\src\lv_misc/lv_txt.c **** 
 141:lvgl\src\lv_misc/lv_txt.c **** /**
 142:lvgl\src\lv_misc/lv_txt.c ****  * Get the next word of text. A word is delimited by break characters.
 143:lvgl\src\lv_misc/lv_txt.c ****  *
 144:lvgl\src\lv_misc/lv_txt.c ****  * If the word cannot fit in the max_width space, obey LV_TXT_LINE_BREAK_LONG_* rules.
 145:lvgl\src\lv_misc/lv_txt.c ****  *
ARM GAS  C:\Users\strap\AppData\Local\Temp\ccCgIabb.s 			page 4


 146:lvgl\src\lv_misc/lv_txt.c ****  * If the next word cannot fit anything, return 0.
 147:lvgl\src\lv_misc/lv_txt.c ****  *
 148:lvgl\src\lv_misc/lv_txt.c ****  * If the first character is a break character, returns the next index.
 149:lvgl\src\lv_misc/lv_txt.c ****  *
 150:lvgl\src\lv_misc/lv_txt.c ****  * Example calls from lv_txt_get_next_line() assuming sufficient max_width and
 151:lvgl\src\lv_misc/lv_txt.c ****  * txt = "Test text\n"
 152:lvgl\src\lv_misc/lv_txt.c ****  *        0123456789
 153:lvgl\src\lv_misc/lv_txt.c ****  *
 154:lvgl\src\lv_misc/lv_txt.c ****  * Calls would be as follows:
 155:lvgl\src\lv_misc/lv_txt.c ****  *     1. Return i=4, pointing at breakchar ' ', for the string "Test"
 156:lvgl\src\lv_misc/lv_txt.c ****  *     2. Return i=5, since i=4 was a breakchar.
 157:lvgl\src\lv_misc/lv_txt.c ****  *     3. Return i=9, pointing at breakchar '\n'
 158:lvgl\src\lv_misc/lv_txt.c ****  *     4. Parenting lv_txt_get_next_line() would detect subsequent '\0'
 159:lvgl\src\lv_misc/lv_txt.c ****  *
 160:lvgl\src\lv_misc/lv_txt.c ****  * TODO: Returned word_w_ptr may overestimate the returned word's width when
 161:lvgl\src\lv_misc/lv_txt.c ****  * max_width is reached. In current usage, this has no impact.
 162:lvgl\src\lv_misc/lv_txt.c ****  *
 163:lvgl\src\lv_misc/lv_txt.c ****  * @param txt a '\0' terminated string
 164:lvgl\src\lv_misc/lv_txt.c ****  * @param font pointer to a font
 165:lvgl\src\lv_misc/lv_txt.c ****  * @param letter_space letter space
 166:lvgl\src\lv_misc/lv_txt.c ****  * @param max_width max with of the text (break the lines to fit this size) Set CORD_MAX to avoid l
 167:lvgl\src\lv_misc/lv_txt.c ****  * @param flags settings for the text from 'txt_flag_type' enum
 168:lvgl\src\lv_misc/lv_txt.c ****  * @param[out] word_w_ptr width (in pixels) of the parsed word. May be NULL.
 169:lvgl\src\lv_misc/lv_txt.c ****  * @param force Force return the fraction of the word that can fit in the provided space.
 170:lvgl\src\lv_misc/lv_txt.c ****  * @return the index of the first char of the next word (in byte index not letter index. With UTF-8
 171:lvgl\src\lv_misc/lv_txt.c ****  */
 172:lvgl\src\lv_misc/lv_txt.c **** static uint32_t lv_txt_get_next_word(const char * txt, const lv_font_t * font,
 173:lvgl\src\lv_misc/lv_txt.c ****                                      lv_coord_t letter_space, lv_coord_t max_width,
 174:lvgl\src\lv_misc/lv_txt.c ****                                      lv_txt_flag_t flag, uint32_t * word_w_ptr, lv_txt_cmd_state_t 
 175:lvgl\src\lv_misc/lv_txt.c **** {
 176:lvgl\src\lv_misc/lv_txt.c ****     if(txt == NULL || txt[0] == '\0') return 0;
 177:lvgl\src\lv_misc/lv_txt.c ****     if(font == NULL) return 0;
 178:lvgl\src\lv_misc/lv_txt.c **** 
 179:lvgl\src\lv_misc/lv_txt.c ****     if(flag & LV_TXT_FLAG_EXPAND) max_width = LV_COORD_MAX;
 180:lvgl\src\lv_misc/lv_txt.c **** 
 181:lvgl\src\lv_misc/lv_txt.c ****     uint32_t i = 0, i_next = 0, i_next_next = 0;  /* Iterating index into txt */
 182:lvgl\src\lv_misc/lv_txt.c ****     uint32_t letter = 0;      /* Letter at i */
 183:lvgl\src\lv_misc/lv_txt.c ****     uint32_t letter_next = 0; /* Letter at i_next */
 184:lvgl\src\lv_misc/lv_txt.c ****     lv_coord_t letter_w;
 185:lvgl\src\lv_misc/lv_txt.c ****     lv_coord_t cur_w = 0;  /* Pixel Width of transversed string */
 186:lvgl\src\lv_misc/lv_txt.c ****     uint32_t word_len = 0;   /* Number of characters in the transversed word */
 187:lvgl\src\lv_misc/lv_txt.c ****     uint32_t break_index = NO_BREAK_FOUND; /* only used for "long" words */
 188:lvgl\src\lv_misc/lv_txt.c ****     uint32_t break_letter_count = 0; /* Number of characters up to the long word break point */
 189:lvgl\src\lv_misc/lv_txt.c **** 
 190:lvgl\src\lv_misc/lv_txt.c ****     letter = _lv_txt_encoded_next(txt, &i_next);
 191:lvgl\src\lv_misc/lv_txt.c ****     i_next_next = i_next;
 192:lvgl\src\lv_misc/lv_txt.c **** 
 193:lvgl\src\lv_misc/lv_txt.c ****     /* Obtain the full word, regardless if it fits or not in max_width */
 194:lvgl\src\lv_misc/lv_txt.c ****     while(txt[i] != '\0') {
 195:lvgl\src\lv_misc/lv_txt.c ****         letter_next = _lv_txt_encoded_next(txt, &i_next_next);
 196:lvgl\src\lv_misc/lv_txt.c ****         word_len++;
 197:lvgl\src\lv_misc/lv_txt.c **** 
 198:lvgl\src\lv_misc/lv_txt.c ****         /*Handle the recolor command*/
 199:lvgl\src\lv_misc/lv_txt.c ****         if((flag & LV_TXT_FLAG_RECOLOR) != 0) {
 200:lvgl\src\lv_misc/lv_txt.c ****             if(_lv_txt_is_cmd(cmd_state, letter) != false) {
 201:lvgl\src\lv_misc/lv_txt.c ****                 i = i_next;
 202:lvgl\src\lv_misc/lv_txt.c ****                 i_next = i_next_next;
ARM GAS  C:\Users\strap\AppData\Local\Temp\ccCgIabb.s 			page 5


 203:lvgl\src\lv_misc/lv_txt.c ****                 letter = letter_next;
 204:lvgl\src\lv_misc/lv_txt.c ****                 continue;   /*Skip the letter is it is part of a command*/
 205:lvgl\src\lv_misc/lv_txt.c ****             }
 206:lvgl\src\lv_misc/lv_txt.c ****         }
 207:lvgl\src\lv_misc/lv_txt.c **** 
 208:lvgl\src\lv_misc/lv_txt.c ****         letter_w = lv_font_get_glyph_width(font, letter, letter_next);
 209:lvgl\src\lv_misc/lv_txt.c ****         cur_w += letter_w;
 210:lvgl\src\lv_misc/lv_txt.c **** 
 211:lvgl\src\lv_misc/lv_txt.c ****         if(letter_w > 0) {
 212:lvgl\src\lv_misc/lv_txt.c ****             cur_w += letter_space;
 213:lvgl\src\lv_misc/lv_txt.c ****         }
 214:lvgl\src\lv_misc/lv_txt.c **** 
 215:lvgl\src\lv_misc/lv_txt.c ****         /* Test if this character fits within max_width */
 216:lvgl\src\lv_misc/lv_txt.c ****         if(break_index == NO_BREAK_FOUND && (cur_w - letter_space) > max_width) {
 217:lvgl\src\lv_misc/lv_txt.c ****             break_index = i;
 218:lvgl\src\lv_misc/lv_txt.c ****             break_letter_count = word_len - 1;
 219:lvgl\src\lv_misc/lv_txt.c ****             /* break_index is now pointing at the character that doesn't fit */
 220:lvgl\src\lv_misc/lv_txt.c ****         }
 221:lvgl\src\lv_misc/lv_txt.c **** 
 222:lvgl\src\lv_misc/lv_txt.c ****         /*Check for new line chars and breakchars*/
 223:lvgl\src\lv_misc/lv_txt.c ****         if(letter == '\n' || letter == '\r' || is_break_char(letter)) {
 224:lvgl\src\lv_misc/lv_txt.c ****             /* Update the output width on the first character if it fits.
 225:lvgl\src\lv_misc/lv_txt.c ****              * Must do this here incase first letter is a break character. */
 226:lvgl\src\lv_misc/lv_txt.c ****             if(i == 0 && break_index == NO_BREAK_FOUND && word_w_ptr != NULL) *word_w_ptr = cur_w;
 227:lvgl\src\lv_misc/lv_txt.c ****             word_len--;
 228:lvgl\src\lv_misc/lv_txt.c ****             break;
 229:lvgl\src\lv_misc/lv_txt.c ****         }
 230:lvgl\src\lv_misc/lv_txt.c **** 
 231:lvgl\src\lv_misc/lv_txt.c ****         /* Update the output width */
 232:lvgl\src\lv_misc/lv_txt.c ****         if(word_w_ptr != NULL && break_index == NO_BREAK_FOUND) *word_w_ptr = cur_w;
 233:lvgl\src\lv_misc/lv_txt.c **** 
 234:lvgl\src\lv_misc/lv_txt.c **** 
 235:lvgl\src\lv_misc/lv_txt.c ****         i = i_next;
 236:lvgl\src\lv_misc/lv_txt.c ****         i_next = i_next_next;
 237:lvgl\src\lv_misc/lv_txt.c ****         letter = letter_next;
 238:lvgl\src\lv_misc/lv_txt.c ****     }
 239:lvgl\src\lv_misc/lv_txt.c **** 
 240:lvgl\src\lv_misc/lv_txt.c ****     /* Entire Word fits in the provided space */
 241:lvgl\src\lv_misc/lv_txt.c ****     if(break_index == NO_BREAK_FOUND) {
 242:lvgl\src\lv_misc/lv_txt.c ****         if(word_len == 0 || (letter == '\r' && letter_next == '\n')) i = i_next;
 243:lvgl\src\lv_misc/lv_txt.c ****         return i;
 244:lvgl\src\lv_misc/lv_txt.c ****     }
 245:lvgl\src\lv_misc/lv_txt.c **** 
 246:lvgl\src\lv_misc/lv_txt.c **** #if LV_TXT_LINE_BREAK_LONG_LEN > 0
 247:lvgl\src\lv_misc/lv_txt.c ****     /* Word doesn't fit in provided space, but isn't "long" */
 248:lvgl\src\lv_misc/lv_txt.c ****     if(word_len < LV_TXT_LINE_BREAK_LONG_LEN) {
 249:lvgl\src\lv_misc/lv_txt.c ****         if(force) return break_index;
 250:lvgl\src\lv_misc/lv_txt.c ****         if(word_w_ptr != NULL) *word_w_ptr = 0; /* Return no word */
 251:lvgl\src\lv_misc/lv_txt.c ****         return 0;
 252:lvgl\src\lv_misc/lv_txt.c ****     }
 253:lvgl\src\lv_misc/lv_txt.c **** 
 254:lvgl\src\lv_misc/lv_txt.c ****     /* Word is "long," but insufficient amounts can fit in provided space */
 255:lvgl\src\lv_misc/lv_txt.c ****     if(break_letter_count < LV_TXT_LINE_BREAK_LONG_PRE_MIN_LEN) {
 256:lvgl\src\lv_misc/lv_txt.c ****         if(force) return break_index;
 257:lvgl\src\lv_misc/lv_txt.c ****         if(word_w_ptr != NULL) *word_w_ptr = 0;
 258:lvgl\src\lv_misc/lv_txt.c ****         return 0;
 259:lvgl\src\lv_misc/lv_txt.c ****     }
ARM GAS  C:\Users\strap\AppData\Local\Temp\ccCgIabb.s 			page 6


 260:lvgl\src\lv_misc/lv_txt.c **** 
 261:lvgl\src\lv_misc/lv_txt.c ****     /* Word is a "long", but letters may need to be better distributed */
 262:lvgl\src\lv_misc/lv_txt.c ****     {
 263:lvgl\src\lv_misc/lv_txt.c ****         i = break_index;
 264:lvgl\src\lv_misc/lv_txt.c ****         int32_t n_move = LV_TXT_LINE_BREAK_LONG_POST_MIN_LEN - (word_len - break_letter_count);
 265:lvgl\src\lv_misc/lv_txt.c ****         /* Move pointer "i" backwards */
 266:lvgl\src\lv_misc/lv_txt.c ****         for(; n_move > 0; n_move--) {
 267:lvgl\src\lv_misc/lv_txt.c ****             _lv_txt_encoded_prev(txt, &i);
 268:lvgl\src\lv_misc/lv_txt.c ****             // TODO: it would be appropriate to update the returned word width here
 269:lvgl\src\lv_misc/lv_txt.c ****             // However, in current usage, this doesn't impact anything.
 270:lvgl\src\lv_misc/lv_txt.c ****         }
 271:lvgl\src\lv_misc/lv_txt.c ****     }
 272:lvgl\src\lv_misc/lv_txt.c ****     return i;
 273:lvgl\src\lv_misc/lv_txt.c **** #else
 274:lvgl\src\lv_misc/lv_txt.c ****     if(force) return break_index;
 275:lvgl\src\lv_misc/lv_txt.c ****     if(word_w_ptr != NULL) *word_w_ptr = 0; /* Return no word */
 276:lvgl\src\lv_misc/lv_txt.c ****     (void) break_letter_count;
 277:lvgl\src\lv_misc/lv_txt.c ****     return 0;
 278:lvgl\src\lv_misc/lv_txt.c **** #endif
 279:lvgl\src\lv_misc/lv_txt.c **** }
 280:lvgl\src\lv_misc/lv_txt.c **** 
 281:lvgl\src\lv_misc/lv_txt.c **** /**
 282:lvgl\src\lv_misc/lv_txt.c ****  * Get the next line of text. Check line length and break chars too.
 283:lvgl\src\lv_misc/lv_txt.c ****  *
 284:lvgl\src\lv_misc/lv_txt.c ****  * A line of txt includes the \n character.
 285:lvgl\src\lv_misc/lv_txt.c ****  *
 286:lvgl\src\lv_misc/lv_txt.c ****  * @param txt a '\0' terminated string
 287:lvgl\src\lv_misc/lv_txt.c ****  * @param font pointer to a font
 288:lvgl\src\lv_misc/lv_txt.c ****  * @param letter_space letter space
 289:lvgl\src\lv_misc/lv_txt.c ****  * @param max_width max with of the text (break the lines to fit this size) Set CORD_MAX to avoid l
 290:lvgl\src\lv_misc/lv_txt.c ****  * @param flags settings for the text from 'txt_flag_type' enum
 291:lvgl\src\lv_misc/lv_txt.c ****  * @return the index of the first char of the new line (in byte index not letter index. With UTF-8 
 292:lvgl\src\lv_misc/lv_txt.c ****  */
 293:lvgl\src\lv_misc/lv_txt.c **** uint32_t _lv_txt_get_next_line(const char * txt, const lv_font_t * font,
 294:lvgl\src\lv_misc/lv_txt.c ****                                lv_coord_t letter_space, lv_coord_t max_width, lv_txt_flag_t flag)
 295:lvgl\src\lv_misc/lv_txt.c **** {
 296:lvgl\src\lv_misc/lv_txt.c ****     if(txt == NULL) return 0;
 297:lvgl\src\lv_misc/lv_txt.c ****     if(font == NULL) return 0;
 298:lvgl\src\lv_misc/lv_txt.c **** 
 299:lvgl\src\lv_misc/lv_txt.c ****     /* If max_width doesn't mater simply find the new line character
 300:lvgl\src\lv_misc/lv_txt.c ****      * without thinking about word wrapping*/
 301:lvgl\src\lv_misc/lv_txt.c ****     if((flag & LV_TXT_FLAG_EXPAND) || (flag & LV_TXT_FLAG_FIT)) {
 302:lvgl\src\lv_misc/lv_txt.c ****         uint32_t i;
 303:lvgl\src\lv_misc/lv_txt.c ****         for(i = 0; txt[i] != '\n' && txt[i] != '\r' && txt[i] != '\0'; i++) {
 304:lvgl\src\lv_misc/lv_txt.c ****             /*Just find the new line chars or string ends by incrementing `i`*/
 305:lvgl\src\lv_misc/lv_txt.c ****         }
 306:lvgl\src\lv_misc/lv_txt.c ****         if(txt[i] != '\0') i++;    /*To go beyond `\n`*/
 307:lvgl\src\lv_misc/lv_txt.c ****         return i;
 308:lvgl\src\lv_misc/lv_txt.c ****     }
 309:lvgl\src\lv_misc/lv_txt.c **** 
 310:lvgl\src\lv_misc/lv_txt.c ****     if(flag & LV_TXT_FLAG_EXPAND) max_width = LV_COORD_MAX;
 311:lvgl\src\lv_misc/lv_txt.c ****     lv_txt_cmd_state_t cmd_state = LV_TXT_CMD_STATE_WAIT;
 312:lvgl\src\lv_misc/lv_txt.c ****     uint32_t i = 0;                                        /* Iterating index into txt */
 313:lvgl\src\lv_misc/lv_txt.c **** 
 314:lvgl\src\lv_misc/lv_txt.c ****     while(txt[i] != '\0' && max_width > 0) {
 315:lvgl\src\lv_misc/lv_txt.c ****         uint32_t word_w = 0;
 316:lvgl\src\lv_misc/lv_txt.c ****         uint32_t advance = lv_txt_get_next_word(&txt[i], font, letter_space, max_width, flag, &word
ARM GAS  C:\Users\strap\AppData\Local\Temp\ccCgIabb.s 			page 7


 317:lvgl\src\lv_misc/lv_txt.c ****         max_width -= word_w;
 318:lvgl\src\lv_misc/lv_txt.c **** 
 319:lvgl\src\lv_misc/lv_txt.c ****         if(advance == 0) {
 320:lvgl\src\lv_misc/lv_txt.c ****             if(i == 0) _lv_txt_encoded_next(txt, &i); // prevent inf loops
 321:lvgl\src\lv_misc/lv_txt.c ****             break;
 322:lvgl\src\lv_misc/lv_txt.c ****         }
 323:lvgl\src\lv_misc/lv_txt.c **** 
 324:lvgl\src\lv_misc/lv_txt.c ****         i += advance;
 325:lvgl\src\lv_misc/lv_txt.c **** 
 326:lvgl\src\lv_misc/lv_txt.c ****         if(txt[0] == '\n' || txt[0] == '\r') break;
 327:lvgl\src\lv_misc/lv_txt.c **** 
 328:lvgl\src\lv_misc/lv_txt.c ****         if(txt[i] == '\n' || txt[i] == '\r') {
 329:lvgl\src\lv_misc/lv_txt.c ****             i++;  /* Include the following newline in the current line */
 330:lvgl\src\lv_misc/lv_txt.c ****             break;
 331:lvgl\src\lv_misc/lv_txt.c ****         }
 332:lvgl\src\lv_misc/lv_txt.c **** 
 333:lvgl\src\lv_misc/lv_txt.c ****     }
 334:lvgl\src\lv_misc/lv_txt.c **** 
 335:lvgl\src\lv_misc/lv_txt.c ****     /* Always step at least one to avoid infinite loops */
 336:lvgl\src\lv_misc/lv_txt.c ****     if(i == 0) {
 337:lvgl\src\lv_misc/lv_txt.c ****         _lv_txt_encoded_next(txt, &i);
 338:lvgl\src\lv_misc/lv_txt.c ****     }
 339:lvgl\src\lv_misc/lv_txt.c **** 
 340:lvgl\src\lv_misc/lv_txt.c ****     return i;
 341:lvgl\src\lv_misc/lv_txt.c **** }
 342:lvgl\src\lv_misc/lv_txt.c **** 
 343:lvgl\src\lv_misc/lv_txt.c **** /**
 344:lvgl\src\lv_misc/lv_txt.c ****  * Give the length of a text with a given font
 345:lvgl\src\lv_misc/lv_txt.c ****  * @param txt a '\0' terminate string
 346:lvgl\src\lv_misc/lv_txt.c ****  * @param length length of 'txt' in byte count and not characters (Á is 1 character but 2 bytes in
 347:lvgl\src\lv_misc/lv_txt.c ****  * UTF-8)
 348:lvgl\src\lv_misc/lv_txt.c ****  * @param font pointer to a font
 349:lvgl\src\lv_misc/lv_txt.c ****  * @param letter_space letter space
 350:lvgl\src\lv_misc/lv_txt.c ****  * @param flags settings for the text from 'txt_flag_t' enum
 351:lvgl\src\lv_misc/lv_txt.c ****  * @return length of a char_num long text
 352:lvgl\src\lv_misc/lv_txt.c ****  */
 353:lvgl\src\lv_misc/lv_txt.c **** lv_coord_t _lv_txt_get_width(const char * txt, uint32_t length, const lv_font_t * font, lv_coord_t 
 354:lvgl\src\lv_misc/lv_txt.c ****                              lv_txt_flag_t flag)
 355:lvgl\src\lv_misc/lv_txt.c **** {
 356:lvgl\src\lv_misc/lv_txt.c ****     if(txt == NULL) return 0;
 357:lvgl\src\lv_misc/lv_txt.c ****     if(font == NULL) return 0;
 358:lvgl\src\lv_misc/lv_txt.c **** 
 359:lvgl\src\lv_misc/lv_txt.c ****     uint32_t i                   = 0;
 360:lvgl\src\lv_misc/lv_txt.c ****     lv_coord_t width             = 0;
 361:lvgl\src\lv_misc/lv_txt.c ****     lv_txt_cmd_state_t cmd_state = LV_TXT_CMD_STATE_WAIT;
 362:lvgl\src\lv_misc/lv_txt.c **** 
 363:lvgl\src\lv_misc/lv_txt.c ****     if(length != 0) {
 364:lvgl\src\lv_misc/lv_txt.c ****         while(i < length) {
 365:lvgl\src\lv_misc/lv_txt.c ****             uint32_t letter      = _lv_txt_encoded_next(txt, &i);
 366:lvgl\src\lv_misc/lv_txt.c ****             uint32_t letter_next = _lv_txt_encoded_next(&txt[i], NULL);
 367:lvgl\src\lv_misc/lv_txt.c ****             if((flag & LV_TXT_FLAG_RECOLOR) != 0) {
 368:lvgl\src\lv_misc/lv_txt.c ****                 if(_lv_txt_is_cmd(&cmd_state, letter) != false) {
 369:lvgl\src\lv_misc/lv_txt.c ****                     continue;
 370:lvgl\src\lv_misc/lv_txt.c ****                 }
 371:lvgl\src\lv_misc/lv_txt.c ****             }
 372:lvgl\src\lv_misc/lv_txt.c **** 
 373:lvgl\src\lv_misc/lv_txt.c ****             lv_coord_t char_width = lv_font_get_glyph_width(font, letter, letter_next);
ARM GAS  C:\Users\strap\AppData\Local\Temp\ccCgIabb.s 			page 8


 374:lvgl\src\lv_misc/lv_txt.c ****             if(char_width > 0) {
 375:lvgl\src\lv_misc/lv_txt.c ****                 width += char_width;
 376:lvgl\src\lv_misc/lv_txt.c ****                 width += letter_space;
 377:lvgl\src\lv_misc/lv_txt.c ****             }
 378:lvgl\src\lv_misc/lv_txt.c ****         }
 379:lvgl\src\lv_misc/lv_txt.c **** 
 380:lvgl\src\lv_misc/lv_txt.c ****         if(width > 0) {
 381:lvgl\src\lv_misc/lv_txt.c ****             width -= letter_space; /*Trim the last letter space. Important if the text is center
 382:lvgl\src\lv_misc/lv_txt.c ****                                       aligned */
 383:lvgl\src\lv_misc/lv_txt.c ****         }
 384:lvgl\src\lv_misc/lv_txt.c ****     }
 385:lvgl\src\lv_misc/lv_txt.c **** 
 386:lvgl\src\lv_misc/lv_txt.c ****     return width;
 387:lvgl\src\lv_misc/lv_txt.c **** }
 388:lvgl\src\lv_misc/lv_txt.c **** 
 389:lvgl\src\lv_misc/lv_txt.c **** /**
 390:lvgl\src\lv_misc/lv_txt.c ****  * Check next character in a string and decide if the character is part of the command or not
 391:lvgl\src\lv_misc/lv_txt.c ****  * @param state pointer to a txt_cmd_state_t variable which stores the current state of command
 392:lvgl\src\lv_misc/lv_txt.c ****  * processing (Initied. to TXT_CMD_STATE_WAIT )
 393:lvgl\src\lv_misc/lv_txt.c ****  * @param c the current character
 394:lvgl\src\lv_misc/lv_txt.c ****  * @return true: the character is part of a command and should not be written,
 395:lvgl\src\lv_misc/lv_txt.c ****  *         false: the character should be written
 396:lvgl\src\lv_misc/lv_txt.c ****  */
 397:lvgl\src\lv_misc/lv_txt.c **** bool _lv_txt_is_cmd(lv_txt_cmd_state_t * state, uint32_t c)
 398:lvgl\src\lv_misc/lv_txt.c **** {
 399:lvgl\src\lv_misc/lv_txt.c ****     bool ret = false;
 400:lvgl\src\lv_misc/lv_txt.c **** 
 401:lvgl\src\lv_misc/lv_txt.c ****     if(c == (uint32_t)LV_TXT_COLOR_CMD[0]) {
 402:lvgl\src\lv_misc/lv_txt.c ****         if(*state == LV_TXT_CMD_STATE_WAIT) { /*Start char*/
 403:lvgl\src\lv_misc/lv_txt.c ****             *state = LV_TXT_CMD_STATE_PAR;
 404:lvgl\src\lv_misc/lv_txt.c ****             ret    = true;
 405:lvgl\src\lv_misc/lv_txt.c ****         }
 406:lvgl\src\lv_misc/lv_txt.c ****         /*Other start char in parameter is escaped cmd. char */
 407:lvgl\src\lv_misc/lv_txt.c ****         else if(*state == LV_TXT_CMD_STATE_PAR) {
 408:lvgl\src\lv_misc/lv_txt.c ****             *state = LV_TXT_CMD_STATE_WAIT;
 409:lvgl\src\lv_misc/lv_txt.c ****         }
 410:lvgl\src\lv_misc/lv_txt.c ****         /*Command end */
 411:lvgl\src\lv_misc/lv_txt.c ****         else if(*state == LV_TXT_CMD_STATE_IN) {
 412:lvgl\src\lv_misc/lv_txt.c ****             *state = LV_TXT_CMD_STATE_WAIT;
 413:lvgl\src\lv_misc/lv_txt.c ****             ret    = true;
 414:lvgl\src\lv_misc/lv_txt.c ****         }
 415:lvgl\src\lv_misc/lv_txt.c ****     }
 416:lvgl\src\lv_misc/lv_txt.c **** 
 417:lvgl\src\lv_misc/lv_txt.c ****     /*Skip the color parameter and wait the space after it*/
 418:lvgl\src\lv_misc/lv_txt.c ****     if(*state == LV_TXT_CMD_STATE_PAR) {
 419:lvgl\src\lv_misc/lv_txt.c ****         if(c == ' ') {
 420:lvgl\src\lv_misc/lv_txt.c ****             *state = LV_TXT_CMD_STATE_IN; /*After the parameter the text is in the command*/
 421:lvgl\src\lv_misc/lv_txt.c ****         }
 422:lvgl\src\lv_misc/lv_txt.c ****         ret = true;
 423:lvgl\src\lv_misc/lv_txt.c ****     }
 424:lvgl\src\lv_misc/lv_txt.c **** 
 425:lvgl\src\lv_misc/lv_txt.c ****     return ret;
 426:lvgl\src\lv_misc/lv_txt.c **** }
 427:lvgl\src\lv_misc/lv_txt.c **** 
 428:lvgl\src\lv_misc/lv_txt.c **** /**
 429:lvgl\src\lv_misc/lv_txt.c ****  * Insert a string into an other
 430:lvgl\src\lv_misc/lv_txt.c ****  * @param txt_buf the original text (must be big enough for the result text)
ARM GAS  C:\Users\strap\AppData\Local\Temp\ccCgIabb.s 			page 9


 431:lvgl\src\lv_misc/lv_txt.c ****  * @param pos position to insert. Expressed in character index and not byte index (Different in
 432:lvgl\src\lv_misc/lv_txt.c ****  * UTF-8) 0: before the original text, 1: after the first char etc.
 433:lvgl\src\lv_misc/lv_txt.c ****  * @param ins_txt text to insert
 434:lvgl\src\lv_misc/lv_txt.c ****  */
 435:lvgl\src\lv_misc/lv_txt.c **** void _lv_txt_ins(char * txt_buf, uint32_t pos, const char * ins_txt)
 436:lvgl\src\lv_misc/lv_txt.c **** {
 437:lvgl\src\lv_misc/lv_txt.c ****     size_t old_len = strlen(txt_buf);
 438:lvgl\src\lv_misc/lv_txt.c ****     size_t ins_len = strlen(ins_txt);
 439:lvgl\src\lv_misc/lv_txt.c ****     if(ins_len == 0) return;
 440:lvgl\src\lv_misc/lv_txt.c **** 
 441:lvgl\src\lv_misc/lv_txt.c ****     size_t new_len = ins_len + old_len;
 442:lvgl\src\lv_misc/lv_txt.c ****     pos              = _lv_txt_encoded_get_byte_id(txt_buf, pos); /*Convert to byte index instead o
 443:lvgl\src\lv_misc/lv_txt.c **** 
 444:lvgl\src\lv_misc/lv_txt.c ****     /*Copy the second part into the end to make place to text to insert*/
 445:lvgl\src\lv_misc/lv_txt.c ****     size_t i;
 446:lvgl\src\lv_misc/lv_txt.c ****     for(i = new_len; i >= pos + ins_len; i--) {
 447:lvgl\src\lv_misc/lv_txt.c ****         txt_buf[i] = txt_buf[i - ins_len];
 448:lvgl\src\lv_misc/lv_txt.c ****     }
 449:lvgl\src\lv_misc/lv_txt.c **** 
 450:lvgl\src\lv_misc/lv_txt.c ****     /* Copy the text into the new space*/
 451:lvgl\src\lv_misc/lv_txt.c ****     _lv_memcpy_small(txt_buf + pos, ins_txt, ins_len);
 452:lvgl\src\lv_misc/lv_txt.c **** }
 453:lvgl\src\lv_misc/lv_txt.c **** 
 454:lvgl\src\lv_misc/lv_txt.c **** /**
 455:lvgl\src\lv_misc/lv_txt.c ****  * Delete a part of a string
 456:lvgl\src\lv_misc/lv_txt.c ****  * @param txt string to modify
 457:lvgl\src\lv_misc/lv_txt.c ****  * @param pos position where to start the deleting (0: before the first char, 1: after the first
 458:lvgl\src\lv_misc/lv_txt.c ****  * char etc.)
 459:lvgl\src\lv_misc/lv_txt.c ****  * @param len number of characters to delete
 460:lvgl\src\lv_misc/lv_txt.c ****  */
 461:lvgl\src\lv_misc/lv_txt.c **** void _lv_txt_cut(char * txt, uint32_t pos, uint32_t len)
 462:lvgl\src\lv_misc/lv_txt.c **** {
 463:lvgl\src\lv_misc/lv_txt.c **** 
 464:lvgl\src\lv_misc/lv_txt.c ****     size_t old_len = strlen(txt);
 465:lvgl\src\lv_misc/lv_txt.c **** 
 466:lvgl\src\lv_misc/lv_txt.c ****     pos = _lv_txt_encoded_get_byte_id(txt, pos); /*Convert to byte index instead of letter index*/
 467:lvgl\src\lv_misc/lv_txt.c ****     len = _lv_txt_encoded_get_byte_id(&txt[pos], len);
 468:lvgl\src\lv_misc/lv_txt.c **** 
 469:lvgl\src\lv_misc/lv_txt.c ****     /*Copy the second part into the end to make place to text to insert*/
 470:lvgl\src\lv_misc/lv_txt.c ****     uint32_t i;
 471:lvgl\src\lv_misc/lv_txt.c ****     for(i = pos; i <= old_len - len; i++) {
 472:lvgl\src\lv_misc/lv_txt.c ****         txt[i] = txt[i + len];
 473:lvgl\src\lv_misc/lv_txt.c ****     }
 474:lvgl\src\lv_misc/lv_txt.c **** }
 475:lvgl\src\lv_misc/lv_txt.c **** 
 476:lvgl\src\lv_misc/lv_txt.c **** #if LV_TXT_ENC == LV_TXT_ENC_UTF8
 477:lvgl\src\lv_misc/lv_txt.c **** /*******************************
 478:lvgl\src\lv_misc/lv_txt.c ****  *   UTF-8 ENCODER/DECOER
 479:lvgl\src\lv_misc/lv_txt.c ****  ******************************/
 480:lvgl\src\lv_misc/lv_txt.c **** 
 481:lvgl\src\lv_misc/lv_txt.c **** /**
 482:lvgl\src\lv_misc/lv_txt.c ****  * Give the size of an UTF-8 coded character
 483:lvgl\src\lv_misc/lv_txt.c ****  * @param str pointer to a character in a string
 484:lvgl\src\lv_misc/lv_txt.c ****  * @return length of the UTF-8 character (1,2,3 or 4). O on invalid code
 485:lvgl\src\lv_misc/lv_txt.c ****  */
 486:lvgl\src\lv_misc/lv_txt.c **** static uint8_t lv_txt_utf8_size(const char * str)
 487:lvgl\src\lv_misc/lv_txt.c **** {
ARM GAS  C:\Users\strap\AppData\Local\Temp\ccCgIabb.s 			page 10


  27              		.loc 1 487 0
  28              		.cfi_startproc
  29              		@ args = 0, pretend = 0, frame = 0
  30              		@ frame_needed = 0, uses_anonymous_args = 0
  31              		@ link register save eliminated.
  32              	.LVL0:
 488:lvgl\src\lv_misc/lv_txt.c ****     if((str[0] & 0x80) == 0)
  33              		.loc 1 488 0
  34 0000 0378     		ldrb	r3, [r0]	@ zero_extendqisi2
  35 0002 13F0800F 		tst	r3, #128
  36 0006 0DD0     		beq	.L3
 489:lvgl\src\lv_misc/lv_txt.c ****         return 1;
 490:lvgl\src\lv_misc/lv_txt.c ****     else if((str[0] & 0xE0) == 0xC0)
  37              		.loc 1 490 0
  38 0008 03F0E002 		and	r2, r3, #224
  39 000c C02A     		cmp	r2, #192
  40 000e 0BD0     		beq	.L4
 491:lvgl\src\lv_misc/lv_txt.c ****         return 2;
 492:lvgl\src\lv_misc/lv_txt.c ****     else if((str[0] & 0xF0) == 0xE0)
  41              		.loc 1 492 0
  42 0010 03F0F002 		and	r2, r3, #240
  43 0014 E02A     		cmp	r2, #224
  44 0016 09D0     		beq	.L5
 493:lvgl\src\lv_misc/lv_txt.c ****         return 3;
 494:lvgl\src\lv_misc/lv_txt.c ****     else if((str[0] & 0xF8) == 0xF0)
  45              		.loc 1 494 0
  46 0018 03F0F803 		and	r3, r3, #248
  47 001c F02B     		cmp	r3, #240
  48 001e 07D1     		bne	.L6
 495:lvgl\src\lv_misc/lv_txt.c ****         return 4;
  49              		.loc 1 495 0
  50 0020 0420     		movs	r0, #4
  51              	.LVL1:
  52 0022 7047     		bx	lr
  53              	.LVL2:
  54              	.L3:
 489:lvgl\src\lv_misc/lv_txt.c ****     else if((str[0] & 0xE0) == 0xC0)
  55              		.loc 1 489 0
  56 0024 0120     		movs	r0, #1
  57              	.LVL3:
  58 0026 7047     		bx	lr
  59              	.LVL4:
  60              	.L4:
 491:lvgl\src\lv_misc/lv_txt.c ****     else if((str[0] & 0xF0) == 0xE0)
  61              		.loc 1 491 0
  62 0028 0220     		movs	r0, #2
  63              	.LVL5:
  64 002a 7047     		bx	lr
  65              	.LVL6:
  66              	.L5:
 493:lvgl\src\lv_misc/lv_txt.c ****     else if((str[0] & 0xF8) == 0xF0)
  67              		.loc 1 493 0
  68 002c 0320     		movs	r0, #3
  69              	.LVL7:
  70 002e 7047     		bx	lr
  71              	.LVL8:
  72              	.L6:
ARM GAS  C:\Users\strap\AppData\Local\Temp\ccCgIabb.s 			page 11


 496:lvgl\src\lv_misc/lv_txt.c ****     return 0; /*If the char was invalid tell it's 1 byte long*/
  73              		.loc 1 496 0
  74 0030 0020     		movs	r0, #0
  75              	.LVL9:
 497:lvgl\src\lv_misc/lv_txt.c **** }
  76              		.loc 1 497 0
  77 0032 7047     		bx	lr
  78              		.cfi_endproc
  79              	.LFE12:
  80              		.size	lv_txt_utf8_size, .-lv_txt_utf8_size
  81              		.section	.text.lv_txt_unicode_to_utf8,"ax",%progbits
  82              		.align	2
  83              		.thumb
  84              		.thumb_func
  85              		.type	lv_txt_unicode_to_utf8, %function
  86              	lv_txt_unicode_to_utf8:
  87              	.LFB13:
 498:lvgl\src\lv_misc/lv_txt.c **** 
 499:lvgl\src\lv_misc/lv_txt.c **** /**
 500:lvgl\src\lv_misc/lv_txt.c ****  * Convert an Unicode letter to UTF-8.
 501:lvgl\src\lv_misc/lv_txt.c ****  * @param letter_uni an Unicode letter
 502:lvgl\src\lv_misc/lv_txt.c ****  * @return UTF-8 coded character in Little Endian to be compatible with C chars (e.g. 'Á', 'Ű')
 503:lvgl\src\lv_misc/lv_txt.c ****  */
 504:lvgl\src\lv_misc/lv_txt.c **** static uint32_t lv_txt_unicode_to_utf8(uint32_t letter_uni)
 505:lvgl\src\lv_misc/lv_txt.c **** {
  88              		.loc 1 505 0
  89              		.cfi_startproc
  90              		@ args = 0, pretend = 0, frame = 8
  91              		@ frame_needed = 0, uses_anonymous_args = 0
  92              		@ link register save eliminated.
  93              	.LVL10:
 506:lvgl\src\lv_misc/lv_txt.c ****     if(letter_uni < 128) return letter_uni;
  94              		.loc 1 506 0
  95 0000 7F28     		cmp	r0, #127
  96 0002 4BD9     		bls	.L15
 505:lvgl\src\lv_misc/lv_txt.c ****     if(letter_uni < 128) return letter_uni;
  97              		.loc 1 505 0
  98 0004 82B0     		sub	sp, sp, #8
  99              		.cfi_def_cfa_offset 8
 507:lvgl\src\lv_misc/lv_txt.c ****     uint8_t bytes[4];
 508:lvgl\src\lv_misc/lv_txt.c **** 
 509:lvgl\src\lv_misc/lv_txt.c ****     if(letter_uni < 0x0800) {
 100              		.loc 1 509 0
 101 0006 B0F5006F 		cmp	r0, #2048
 102 000a 11D2     		bcs	.L9
 510:lvgl\src\lv_misc/lv_txt.c ****         bytes[0] = ((letter_uni >> 6) & 0x1F) | 0xC0;
 103              		.loc 1 510 0
 104 000c C0F38413 		ubfx	r3, r0, #6, #5
 105 0010 63F03F03 		orn	r3, r3, #63
 106 0014 8DF80430 		strb	r3, [sp, #4]
 511:lvgl\src\lv_misc/lv_txt.c ****         bytes[1] = ((letter_uni >> 0) & 0x3F) | 0x80;
 107              		.loc 1 511 0
 108 0018 00F03F00 		and	r0, r0, #63
 109              	.LVL11:
 110 001c 60F07F00 		orn	r0, r0, #127
 111 0020 8DF80500 		strb	r0, [sp, #5]
 512:lvgl\src\lv_misc/lv_txt.c ****         bytes[2] = 0;
ARM GAS  C:\Users\strap\AppData\Local\Temp\ccCgIabb.s 			page 12


 112              		.loc 1 512 0
 113 0024 0023     		movs	r3, #0
 114 0026 8DF80630 		strb	r3, [sp, #6]
 513:lvgl\src\lv_misc/lv_txt.c ****         bytes[3] = 0;
 115              		.loc 1 513 0
 116 002a 8DF80730 		strb	r3, [sp, #7]
 117 002e 33E0     		b	.L10
 118              	.LVL12:
 119              	.L9:
 514:lvgl\src\lv_misc/lv_txt.c ****     }
 515:lvgl\src\lv_misc/lv_txt.c ****     else if(letter_uni < 0x010000) {
 120              		.loc 1 515 0
 121 0030 B0F5803F 		cmp	r0, #65536
 122 0034 15D2     		bcs	.L11
 516:lvgl\src\lv_misc/lv_txt.c ****         bytes[0] = ((letter_uni >> 12) & 0x0F) | 0xE0;
 123              		.loc 1 516 0
 124 0036 C0F30333 		ubfx	r3, r0, #12, #4
 125 003a 63F01F03 		orn	r3, r3, #31
 126 003e 8DF80430 		strb	r3, [sp, #4]
 517:lvgl\src\lv_misc/lv_txt.c ****         bytes[1] = ((letter_uni >> 6) & 0x3F) | 0x80;
 127              		.loc 1 517 0
 128 0042 C0F38513 		ubfx	r3, r0, #6, #6
 129 0046 63F07F03 		orn	r3, r3, #127
 130 004a 8DF80530 		strb	r3, [sp, #5]
 518:lvgl\src\lv_misc/lv_txt.c ****         bytes[2] = ((letter_uni >> 0) & 0x3F) | 0x80;
 131              		.loc 1 518 0
 132 004e 00F03F00 		and	r0, r0, #63
 133              	.LVL13:
 134 0052 60F07F00 		orn	r0, r0, #127
 135 0056 8DF80600 		strb	r0, [sp, #6]
 519:lvgl\src\lv_misc/lv_txt.c ****         bytes[3] = 0;
 136              		.loc 1 519 0
 137 005a 0023     		movs	r3, #0
 138 005c 8DF80730 		strb	r3, [sp, #7]
 139 0060 1AE0     		b	.L10
 140              	.LVL14:
 141              	.L11:
 520:lvgl\src\lv_misc/lv_txt.c ****     }
 521:lvgl\src\lv_misc/lv_txt.c ****     else if(letter_uni < 0x110000) {
 142              		.loc 1 521 0
 143 0062 B0F5881F 		cmp	r0, #1114112
 144 0066 17D2     		bcs	.L10
 522:lvgl\src\lv_misc/lv_txt.c ****         bytes[0] = ((letter_uni >> 18) & 0x07) | 0xF0;
 145              		.loc 1 522 0
 146 0068 C0F38243 		ubfx	r3, r0, #18, #3
 147 006c 63F00F03 		orn	r3, r3, #15
 148 0070 8DF80430 		strb	r3, [sp, #4]
 523:lvgl\src\lv_misc/lv_txt.c ****         bytes[1] = ((letter_uni >> 12) & 0x3F) | 0x80;
 149              		.loc 1 523 0
 150 0074 C0F30533 		ubfx	r3, r0, #12, #6
 151 0078 63F07F03 		orn	r3, r3, #127
 152 007c 8DF80530 		strb	r3, [sp, #5]
 524:lvgl\src\lv_misc/lv_txt.c ****         bytes[2] = ((letter_uni >> 6) & 0x3F) | 0x80;
 153              		.loc 1 524 0
 154 0080 C0F38513 		ubfx	r3, r0, #6, #6
 155 0084 63F07F03 		orn	r3, r3, #127
 156 0088 8DF80630 		strb	r3, [sp, #6]
ARM GAS  C:\Users\strap\AppData\Local\Temp\ccCgIabb.s 			page 13


 525:lvgl\src\lv_misc/lv_txt.c ****         bytes[3] = ((letter_uni >> 0) & 0x3F) | 0x80;
 157              		.loc 1 525 0
 158 008c 00F03F00 		and	r0, r0, #63
 159              	.LVL15:
 160 0090 60F07F00 		orn	r0, r0, #127
 161 0094 8DF80700 		strb	r0, [sp, #7]
 162              	.L10:
 163              	.LVL16:
 526:lvgl\src\lv_misc/lv_txt.c ****     }
 527:lvgl\src\lv_misc/lv_txt.c **** 
 528:lvgl\src\lv_misc/lv_txt.c ****     uint32_t * res_p = (uint32_t *)bytes;
 529:lvgl\src\lv_misc/lv_txt.c ****     return *res_p;
 164              		.loc 1 529 0
 165 0098 0198     		ldr	r0, [sp, #4]
 530:lvgl\src\lv_misc/lv_txt.c **** }
 166              		.loc 1 530 0
 167 009a 02B0     		add	sp, sp, #8
 168              		.cfi_def_cfa_offset 0
 169              	.LVL17:
 170              		@ sp needed
 171              	.LVL18:
 172              	.L15:
 173 009c 7047     		bx	lr
 174              		.cfi_endproc
 175              	.LFE13:
 176              		.size	lv_txt_unicode_to_utf8, .-lv_txt_unicode_to_utf8
 177 009e 00BF     		.section	.text.lv_txt_utf8_conv_wc,"ax",%progbits
 178              		.align	2
 179              		.thumb
 180              		.thumb_func
 181              		.type	lv_txt_utf8_conv_wc, %function
 182              	lv_txt_utf8_conv_wc:
 183              	.LFB14:
 531:lvgl\src\lv_misc/lv_txt.c **** 
 532:lvgl\src\lv_misc/lv_txt.c **** /**
 533:lvgl\src\lv_misc/lv_txt.c ****  * Convert a wide character, e.g. 'Á' little endian to be UTF-8 compatible
 534:lvgl\src\lv_misc/lv_txt.c ****  * @param c a wide character or a  Little endian number
 535:lvgl\src\lv_misc/lv_txt.c ****  * @return `c` in big endian
 536:lvgl\src\lv_misc/lv_txt.c ****  */
 537:lvgl\src\lv_misc/lv_txt.c **** static uint32_t lv_txt_utf8_conv_wc(uint32_t c)
 538:lvgl\src\lv_misc/lv_txt.c **** {
 184              		.loc 1 538 0
 185              		.cfi_startproc
 186              		@ args = 0, pretend = 0, frame = 16
 187              		@ frame_needed = 0, uses_anonymous_args = 0
 188              		@ link register save eliminated.
 189              	.LVL19:
 190 0000 84B0     		sub	sp, sp, #16
 191              		.cfi_def_cfa_offset 16
 192 0002 0190     		str	r0, [sp, #4]
 539:lvgl\src\lv_misc/lv_txt.c **** #if LV_BIG_ENDIAN_SYSTEM == 0
 540:lvgl\src\lv_misc/lv_txt.c ****     /*Swap the bytes (UTF-8 is big endian, but the MCUs are little endian)*/
 541:lvgl\src\lv_misc/lv_txt.c ****     if((c & 0x80) != 0) {
 193              		.loc 1 541 0
 194 0004 10F0800F 		tst	r0, #128
 195 0008 06D1     		bne	.L23
 196 000a 23E0     		b	.L18
ARM GAS  C:\Users\strap\AppData\Local\Temp\ccCgIabb.s 			page 14


 197              	.LVL20:
 198              	.L19:
 199              	.LBB12:
 200              	.LBB13:
 201              	.LBB14:
 202              		.file 2 "lvgl\\src\\lv_misc\\lv_mem.h"
   1:lvgl\src\lv_misc/lv_mem.h **** /**
   2:lvgl\src\lv_misc/lv_mem.h ****  * @file lv_mem.h
   3:lvgl\src\lv_misc/lv_mem.h ****  *
   4:lvgl\src\lv_misc/lv_mem.h ****  */
   5:lvgl\src\lv_misc/lv_mem.h **** 
   6:lvgl\src\lv_misc/lv_mem.h **** #ifndef LV_MEM_H
   7:lvgl\src\lv_misc/lv_mem.h **** #define LV_MEM_H
   8:lvgl\src\lv_misc/lv_mem.h **** 
   9:lvgl\src\lv_misc/lv_mem.h **** #ifdef __cplusplus
  10:lvgl\src\lv_misc/lv_mem.h **** extern "C" {
  11:lvgl\src\lv_misc/lv_mem.h **** #endif
  12:lvgl\src\lv_misc/lv_mem.h **** 
  13:lvgl\src\lv_misc/lv_mem.h **** /*********************
  14:lvgl\src\lv_misc/lv_mem.h ****  *      INCLUDES
  15:lvgl\src\lv_misc/lv_mem.h ****  *********************/
  16:lvgl\src\lv_misc/lv_mem.h **** #include "../lv_conf_internal.h"
  17:lvgl\src\lv_misc/lv_mem.h **** 
  18:lvgl\src\lv_misc/lv_mem.h **** #include <stdint.h>
  19:lvgl\src\lv_misc/lv_mem.h **** #include <stddef.h>
  20:lvgl\src\lv_misc/lv_mem.h **** #include "lv_log.h"
  21:lvgl\src\lv_misc/lv_mem.h **** #include "lv_types.h"
  22:lvgl\src\lv_misc/lv_mem.h **** 
  23:lvgl\src\lv_misc/lv_mem.h **** #if LV_MEMCPY_MEMSET_STD
  24:lvgl\src\lv_misc/lv_mem.h **** #include <string.h>
  25:lvgl\src\lv_misc/lv_mem.h **** #endif
  26:lvgl\src\lv_misc/lv_mem.h **** 
  27:lvgl\src\lv_misc/lv_mem.h **** /*********************
  28:lvgl\src\lv_misc/lv_mem.h ****  *      DEFINES
  29:lvgl\src\lv_misc/lv_mem.h ****  *********************/
  30:lvgl\src\lv_misc/lv_mem.h **** 
  31:lvgl\src\lv_misc/lv_mem.h **** #ifndef LV_MEM_BUF_MAX_NUM
  32:lvgl\src\lv_misc/lv_mem.h **** #define LV_MEM_BUF_MAX_NUM    16
  33:lvgl\src\lv_misc/lv_mem.h **** #endif
  34:lvgl\src\lv_misc/lv_mem.h **** 
  35:lvgl\src\lv_misc/lv_mem.h **** /**********************
  36:lvgl\src\lv_misc/lv_mem.h ****  *      TYPEDEFS
  37:lvgl\src\lv_misc/lv_mem.h ****  **********************/
  38:lvgl\src\lv_misc/lv_mem.h **** 
  39:lvgl\src\lv_misc/lv_mem.h **** /**
  40:lvgl\src\lv_misc/lv_mem.h ****  * Heap information structure.
  41:lvgl\src\lv_misc/lv_mem.h ****  */
  42:lvgl\src\lv_misc/lv_mem.h **** typedef struct {
  43:lvgl\src\lv_misc/lv_mem.h ****     uint32_t total_size; /**< Total heap size */
  44:lvgl\src\lv_misc/lv_mem.h ****     uint32_t free_cnt;
  45:lvgl\src\lv_misc/lv_mem.h ****     uint32_t free_size; /**< Size of available memory */
  46:lvgl\src\lv_misc/lv_mem.h ****     uint32_t free_biggest_size;
  47:lvgl\src\lv_misc/lv_mem.h ****     uint32_t used_cnt;
  48:lvgl\src\lv_misc/lv_mem.h ****     uint32_t max_used; /**< Max size of Heap memory used */
  49:lvgl\src\lv_misc/lv_mem.h ****     uint8_t used_pct; /**< Percentage used */
  50:lvgl\src\lv_misc/lv_mem.h ****     uint8_t frag_pct; /**< Amount of fragmentation */
  51:lvgl\src\lv_misc/lv_mem.h **** } lv_mem_monitor_t;
ARM GAS  C:\Users\strap\AppData\Local\Temp\ccCgIabb.s 			page 15


  52:lvgl\src\lv_misc/lv_mem.h **** 
  53:lvgl\src\lv_misc/lv_mem.h **** typedef struct {
  54:lvgl\src\lv_misc/lv_mem.h ****     void * p;
  55:lvgl\src\lv_misc/lv_mem.h ****     uint16_t size;
  56:lvgl\src\lv_misc/lv_mem.h ****     uint8_t used    : 1;
  57:lvgl\src\lv_misc/lv_mem.h **** } lv_mem_buf_t;
  58:lvgl\src\lv_misc/lv_mem.h **** 
  59:lvgl\src\lv_misc/lv_mem.h **** typedef lv_mem_buf_t lv_mem_buf_arr_t[LV_MEM_BUF_MAX_NUM];
  60:lvgl\src\lv_misc/lv_mem.h **** extern lv_mem_buf_arr_t _lv_mem_buf;
  61:lvgl\src\lv_misc/lv_mem.h **** 
  62:lvgl\src\lv_misc/lv_mem.h **** /**********************
  63:lvgl\src\lv_misc/lv_mem.h ****  * GLOBAL PROTOTYPES
  64:lvgl\src\lv_misc/lv_mem.h ****  **********************/
  65:lvgl\src\lv_misc/lv_mem.h **** 
  66:lvgl\src\lv_misc/lv_mem.h **** /**
  67:lvgl\src\lv_misc/lv_mem.h ****  * Initialize the dyn_mem module (work memory and other variables)
  68:lvgl\src\lv_misc/lv_mem.h ****  */
  69:lvgl\src\lv_misc/lv_mem.h **** void _lv_mem_init(void);
  70:lvgl\src\lv_misc/lv_mem.h **** 
  71:lvgl\src\lv_misc/lv_mem.h **** /**
  72:lvgl\src\lv_misc/lv_mem.h ****  * Clean up the memory buffer which frees all the allocated memories.
  73:lvgl\src\lv_misc/lv_mem.h ****  * @note It work only if `LV_MEM_CUSTOM == 0`
  74:lvgl\src\lv_misc/lv_mem.h ****  */
  75:lvgl\src\lv_misc/lv_mem.h **** void _lv_mem_deinit(void);
  76:lvgl\src\lv_misc/lv_mem.h **** 
  77:lvgl\src\lv_misc/lv_mem.h **** /**
  78:lvgl\src\lv_misc/lv_mem.h ****  * Allocate a memory dynamically
  79:lvgl\src\lv_misc/lv_mem.h ****  * @param size size of the memory to allocate in bytes
  80:lvgl\src\lv_misc/lv_mem.h ****  * @return pointer to the allocated memory
  81:lvgl\src\lv_misc/lv_mem.h ****  */
  82:lvgl\src\lv_misc/lv_mem.h **** void * lv_mem_alloc(size_t size);
  83:lvgl\src\lv_misc/lv_mem.h **** 
  84:lvgl\src\lv_misc/lv_mem.h **** /**
  85:lvgl\src\lv_misc/lv_mem.h ****  * Free an allocated data
  86:lvgl\src\lv_misc/lv_mem.h ****  * @param data pointer to an allocated memory
  87:lvgl\src\lv_misc/lv_mem.h ****  */
  88:lvgl\src\lv_misc/lv_mem.h **** void lv_mem_free(const void * data);
  89:lvgl\src\lv_misc/lv_mem.h **** 
  90:lvgl\src\lv_misc/lv_mem.h **** /**
  91:lvgl\src\lv_misc/lv_mem.h ****  * Reallocate a memory with a new size. The old content will be kept.
  92:lvgl\src\lv_misc/lv_mem.h ****  * @param data pointer to an allocated memory.
  93:lvgl\src\lv_misc/lv_mem.h ****  * Its content will be copied to the new memory block and freed
  94:lvgl\src\lv_misc/lv_mem.h ****  * @param new_size the desired new size in byte
  95:lvgl\src\lv_misc/lv_mem.h ****  * @return pointer to the new memory
  96:lvgl\src\lv_misc/lv_mem.h ****  */
  97:lvgl\src\lv_misc/lv_mem.h **** void * lv_mem_realloc(void * data_p, size_t new_size);
  98:lvgl\src\lv_misc/lv_mem.h **** 
  99:lvgl\src\lv_misc/lv_mem.h **** /**
 100:lvgl\src\lv_misc/lv_mem.h ****  * Join the adjacent free memory blocks
 101:lvgl\src\lv_misc/lv_mem.h ****  */
 102:lvgl\src\lv_misc/lv_mem.h **** void lv_mem_defrag(void);
 103:lvgl\src\lv_misc/lv_mem.h **** 
 104:lvgl\src\lv_misc/lv_mem.h **** /**
 105:lvgl\src\lv_misc/lv_mem.h ****  *
 106:lvgl\src\lv_misc/lv_mem.h ****  * @return
 107:lvgl\src\lv_misc/lv_mem.h ****  */
 108:lvgl\src\lv_misc/lv_mem.h **** lv_res_t lv_mem_test(void);
ARM GAS  C:\Users\strap\AppData\Local\Temp\ccCgIabb.s 			page 16


 109:lvgl\src\lv_misc/lv_mem.h **** 
 110:lvgl\src\lv_misc/lv_mem.h **** /**
 111:lvgl\src\lv_misc/lv_mem.h ****  * Give information about the work memory of dynamic allocation
 112:lvgl\src\lv_misc/lv_mem.h ****  * @param mon_p pointer to a dm_mon_p variable,
 113:lvgl\src\lv_misc/lv_mem.h ****  *              the result of the analysis will be stored here
 114:lvgl\src\lv_misc/lv_mem.h ****  */
 115:lvgl\src\lv_misc/lv_mem.h **** void lv_mem_monitor(lv_mem_monitor_t * mon_p);
 116:lvgl\src\lv_misc/lv_mem.h **** 
 117:lvgl\src\lv_misc/lv_mem.h **** /**
 118:lvgl\src\lv_misc/lv_mem.h ****  * Give the size of an allocated memory
 119:lvgl\src\lv_misc/lv_mem.h ****  * @param data pointer to an allocated memory
 120:lvgl\src\lv_misc/lv_mem.h ****  * @return the size of data memory in bytes
 121:lvgl\src\lv_misc/lv_mem.h ****  */
 122:lvgl\src\lv_misc/lv_mem.h **** uint32_t _lv_mem_get_size(const void * data);
 123:lvgl\src\lv_misc/lv_mem.h **** 
 124:lvgl\src\lv_misc/lv_mem.h **** /**
 125:lvgl\src\lv_misc/lv_mem.h ****  * Get a temporal buffer with the given size.
 126:lvgl\src\lv_misc/lv_mem.h ****  * @param size the required size
 127:lvgl\src\lv_misc/lv_mem.h ****  */
 128:lvgl\src\lv_misc/lv_mem.h **** void * _lv_mem_buf_get(uint32_t size);
 129:lvgl\src\lv_misc/lv_mem.h **** 
 130:lvgl\src\lv_misc/lv_mem.h **** /**
 131:lvgl\src\lv_misc/lv_mem.h ****  * Release a memory buffer
 132:lvgl\src\lv_misc/lv_mem.h ****  * @param p buffer to release
 133:lvgl\src\lv_misc/lv_mem.h ****  */
 134:lvgl\src\lv_misc/lv_mem.h **** void _lv_mem_buf_release(void * p);
 135:lvgl\src\lv_misc/lv_mem.h **** 
 136:lvgl\src\lv_misc/lv_mem.h **** /**
 137:lvgl\src\lv_misc/lv_mem.h ****  * Free all memory buffers
 138:lvgl\src\lv_misc/lv_mem.h ****  */
 139:lvgl\src\lv_misc/lv_mem.h **** void _lv_mem_buf_free_all(void);
 140:lvgl\src\lv_misc/lv_mem.h **** 
 141:lvgl\src\lv_misc/lv_mem.h **** 
 142:lvgl\src\lv_misc/lv_mem.h **** //! @cond Doxygen_Suppress
 143:lvgl\src\lv_misc/lv_mem.h **** 
 144:lvgl\src\lv_misc/lv_mem.h **** #if LV_MEMCPY_MEMSET_STD
 145:lvgl\src\lv_misc/lv_mem.h **** 
 146:lvgl\src\lv_misc/lv_mem.h **** /**
 147:lvgl\src\lv_misc/lv_mem.h ****  * Wrapper for the standard memcpy
 148:lvgl\src\lv_misc/lv_mem.h ****  * @param dst pointer to the destination buffer
 149:lvgl\src\lv_misc/lv_mem.h ****  * @param src pointer to the source buffer
 150:lvgl\src\lv_misc/lv_mem.h ****  * @param len number of byte to copy
 151:lvgl\src\lv_misc/lv_mem.h ****  */
 152:lvgl\src\lv_misc/lv_mem.h **** static inline void * _lv_memcpy(void * dst, const void * src, size_t len)
 153:lvgl\src\lv_misc/lv_mem.h **** {
 154:lvgl\src\lv_misc/lv_mem.h ****     return memcpy(dst, src, len);
 155:lvgl\src\lv_misc/lv_mem.h **** }
 156:lvgl\src\lv_misc/lv_mem.h **** 
 157:lvgl\src\lv_misc/lv_mem.h **** /**
 158:lvgl\src\lv_misc/lv_mem.h ****  * Wrapper for the standard memcpy
 159:lvgl\src\lv_misc/lv_mem.h ****  * @param dst pointer to the destination buffer
 160:lvgl\src\lv_misc/lv_mem.h ****  * @param src pointer to the source buffer
 161:lvgl\src\lv_misc/lv_mem.h ****  * @param len number of byte to copy
 162:lvgl\src\lv_misc/lv_mem.h ****  */
 163:lvgl\src\lv_misc/lv_mem.h **** static inline void * _lv_memcpy_small(void * dst, const void * src, size_t len)
 164:lvgl\src\lv_misc/lv_mem.h **** {
 165:lvgl\src\lv_misc/lv_mem.h ****     return memcpy(dst, src, len);
ARM GAS  C:\Users\strap\AppData\Local\Temp\ccCgIabb.s 			page 17


 166:lvgl\src\lv_misc/lv_mem.h **** }
 167:lvgl\src\lv_misc/lv_mem.h **** 
 168:lvgl\src\lv_misc/lv_mem.h **** /**
 169:lvgl\src\lv_misc/lv_mem.h ****  * Wrapper for the standard memset
 170:lvgl\src\lv_misc/lv_mem.h ****  * @param dst pointer to the destination buffer
 171:lvgl\src\lv_misc/lv_mem.h ****  * @param v value to set [0..255]
 172:lvgl\src\lv_misc/lv_mem.h ****  * @param len number of byte to set
 173:lvgl\src\lv_misc/lv_mem.h ****  */
 174:lvgl\src\lv_misc/lv_mem.h **** static inline void _lv_memset(void * dst, uint8_t v, size_t len)
 175:lvgl\src\lv_misc/lv_mem.h **** {
 176:lvgl\src\lv_misc/lv_mem.h ****     memset(dst, v, len);
 177:lvgl\src\lv_misc/lv_mem.h **** }
 178:lvgl\src\lv_misc/lv_mem.h **** 
 179:lvgl\src\lv_misc/lv_mem.h **** /**
 180:lvgl\src\lv_misc/lv_mem.h ****  * Wrapper for the standard memset with fixed 0x00 value
 181:lvgl\src\lv_misc/lv_mem.h ****  * @param dst pointer to the destination buffer
 182:lvgl\src\lv_misc/lv_mem.h ****  * @param len number of byte to set
 183:lvgl\src\lv_misc/lv_mem.h ****  */
 184:lvgl\src\lv_misc/lv_mem.h **** static inline void _lv_memset_00(void * dst, size_t len)
 185:lvgl\src\lv_misc/lv_mem.h **** {
 186:lvgl\src\lv_misc/lv_mem.h ****     memset(dst, 0x00, len);
 187:lvgl\src\lv_misc/lv_mem.h **** }
 188:lvgl\src\lv_misc/lv_mem.h **** 
 189:lvgl\src\lv_misc/lv_mem.h **** /**
 190:lvgl\src\lv_misc/lv_mem.h ****  * Wrapper for the standard memset with fixed 0xFF value
 191:lvgl\src\lv_misc/lv_mem.h ****  * @param dst pointer to the destination buffer
 192:lvgl\src\lv_misc/lv_mem.h ****  * @param len number of byte to set
 193:lvgl\src\lv_misc/lv_mem.h ****  */
 194:lvgl\src\lv_misc/lv_mem.h **** static inline void _lv_memset_ff(void * dst, size_t len)
 195:lvgl\src\lv_misc/lv_mem.h **** {
 196:lvgl\src\lv_misc/lv_mem.h ****     memset(dst, 0xFF, len);
 197:lvgl\src\lv_misc/lv_mem.h **** }
 198:lvgl\src\lv_misc/lv_mem.h **** 
 199:lvgl\src\lv_misc/lv_mem.h **** #else
 200:lvgl\src\lv_misc/lv_mem.h **** /**
 201:lvgl\src\lv_misc/lv_mem.h ****  * Same as `memcpy` but optimized for 4 byte operation.
 202:lvgl\src\lv_misc/lv_mem.h ****  * @param dst pointer to the destination buffer
 203:lvgl\src\lv_misc/lv_mem.h ****  * @param src pointer to the source buffer
 204:lvgl\src\lv_misc/lv_mem.h ****  * @param len number of byte to copy
 205:lvgl\src\lv_misc/lv_mem.h ****  */
 206:lvgl\src\lv_misc/lv_mem.h **** LV_ATTRIBUTE_FAST_MEM void * _lv_memcpy(void * dst, const void * src, size_t len);
 207:lvgl\src\lv_misc/lv_mem.h **** 
 208:lvgl\src\lv_misc/lv_mem.h **** /**
 209:lvgl\src\lv_misc/lv_mem.h ****  * Same as `memcpy` but optimized to copy only a few bytes.
 210:lvgl\src\lv_misc/lv_mem.h ****  * @param dst pointer to the destination buffer
 211:lvgl\src\lv_misc/lv_mem.h ****  * @param src pointer to the source buffer
 212:lvgl\src\lv_misc/lv_mem.h ****  * @param len number of byte to copy
 213:lvgl\src\lv_misc/lv_mem.h ****  */
 214:lvgl\src\lv_misc/lv_mem.h **** LV_ATTRIBUTE_FAST_MEM static inline void * _lv_memcpy_small(void * dst, const void * src, size_t le
 215:lvgl\src\lv_misc/lv_mem.h **** {
 216:lvgl\src\lv_misc/lv_mem.h ****     uint8_t * d8 = (uint8_t *)dst;
 217:lvgl\src\lv_misc/lv_mem.h ****     const uint8_t * s8 = (const uint8_t *)src;
 218:lvgl\src\lv_misc/lv_mem.h **** 
 219:lvgl\src\lv_misc/lv_mem.h ****     while(len) {
 220:lvgl\src\lv_misc/lv_mem.h ****         *d8 = *s8;
 203              		.loc 2 220 0
 204 000c 11F8010B 		ldrb	r0, [r1], #1	@ zero_extendqisi2
ARM GAS  C:\Users\strap\AppData\Local\Temp\ccCgIabb.s 			page 18


 205              	.LVL21:
 206 0010 02F8010B 		strb	r0, [r2], #1
 207              	.LVL22:
 221:lvgl\src\lv_misc/lv_mem.h ****         d8++;
 222:lvgl\src\lv_misc/lv_mem.h ****         s8++;
 223:lvgl\src\lv_misc/lv_mem.h ****         len--;
 208              		.loc 2 223 0
 209 0014 013B     		subs	r3, r3, #1
 210              	.LVL23:
 211 0016 02E0     		b	.L17
 212              	.LVL24:
 213              	.L23:
 214              	.LBE14:
 215              	.LBE13:
 216              	.LBE12:
 217 0018 01A9     		add	r1, sp, #4
 218 001a 03AA     		add	r2, sp, #12
 219 001c 0423     		movs	r3, #4
 220              	.LVL25:
 221              	.L17:
 222              	.LBB17:
 223              	.LBB16:
 224              	.LBB15:
 219:lvgl\src\lv_misc/lv_mem.h ****         *d8 = *s8;
 225              		.loc 2 219 0
 226 001e 002B     		cmp	r3, #0
 227 0020 F4D1     		bne	.L19
 228              	.LVL26:
 229              	.LBE15:
 230              	.LBE16:
 542:lvgl\src\lv_misc/lv_txt.c ****         uint32_t swapped;
 543:lvgl\src\lv_misc/lv_txt.c ****         uint8_t c8[4];
 544:lvgl\src\lv_misc/lv_txt.c ****         _lv_memcpy_small(c8, &c, 4);
 545:lvgl\src\lv_misc/lv_txt.c ****         swapped = (c8[0] << 24) + (c8[1] << 16) + (c8[2] << 8) + (c8[3]);
 231              		.loc 1 545 0
 232 0022 9DF80C20 		ldrb	r2, [sp, #12]	@ zero_extendqisi2
 233              	.LVL27:
 234 0026 9DF80D30 		ldrb	r3, [sp, #13]	@ zero_extendqisi2
 235 002a 1B04     		lsls	r3, r3, #16
 236 002c 03EB0263 		add	r3, r3, r2, lsl #24
 237 0030 9DF80E20 		ldrb	r2, [sp, #14]	@ zero_extendqisi2
 238 0034 03EB0223 		add	r3, r3, r2, lsl #8
 239 0038 9DF80F20 		ldrb	r2, [sp, #15]	@ zero_extendqisi2
 240 003c 1A44     		add	r2, r2, r3
 241              	.LVL28:
 546:lvgl\src\lv_misc/lv_txt.c ****         uint8_t i;
 547:lvgl\src\lv_misc/lv_txt.c ****         for(i = 0; i < 4; i++) {
 242              		.loc 1 547 0
 243 003e 0023     		movs	r3, #0
 244 0040 05E0     		b	.L20
 245              	.LVL29:
 246              	.L22:
 548:lvgl\src\lv_misc/lv_txt.c ****             if((swapped & 0xFF) == 0)
 247              		.loc 1 548 0
 248 0042 12F0FF0F 		tst	r2, #255
 249 0046 00D1     		bne	.L21
 549:lvgl\src\lv_misc/lv_txt.c ****                 swapped = (swapped >> 8); /*Ignore leading zeros (they were in the end originally)*
ARM GAS  C:\Users\strap\AppData\Local\Temp\ccCgIabb.s 			page 19


 250              		.loc 1 549 0
 251 0048 120A     		lsrs	r2, r2, #8
 252              	.LVL30:
 253              	.L21:
 547:lvgl\src\lv_misc/lv_txt.c ****             if((swapped & 0xFF) == 0)
 254              		.loc 1 547 0 discriminator 2
 255 004a 0133     		adds	r3, r3, #1
 256              	.LVL31:
 257 004c DBB2     		uxtb	r3, r3
 258              	.LVL32:
 259              	.L20:
 547:lvgl\src\lv_misc/lv_txt.c ****             if((swapped & 0xFF) == 0)
 260              		.loc 1 547 0 is_stmt 0 discriminator 1
 261 004e 032B     		cmp	r3, #3
 262 0050 F7D9     		bls	.L22
 550:lvgl\src\lv_misc/lv_txt.c ****         }
 551:lvgl\src\lv_misc/lv_txt.c ****         c = swapped;
 263              		.loc 1 551 0 is_stmt 1
 264 0052 0192     		str	r2, [sp, #4]
 265              	.LVL33:
 266              	.L18:
 267              	.LBE17:
 552:lvgl\src\lv_misc/lv_txt.c ****     }
 553:lvgl\src\lv_misc/lv_txt.c **** #endif
 554:lvgl\src\lv_misc/lv_txt.c ****     return c;
 555:lvgl\src\lv_misc/lv_txt.c **** }
 268              		.loc 1 555 0
 269 0054 0198     		ldr	r0, [sp, #4]
 270 0056 04B0     		add	sp, sp, #16
 271              		.cfi_def_cfa_offset 0
 272              		@ sp needed
 273 0058 7047     		bx	lr
 274              		.cfi_endproc
 275              	.LFE14:
 276              		.size	lv_txt_utf8_conv_wc, .-lv_txt_utf8_conv_wc
 277 005a 00BF     		.section	.text.lv_txt_utf8_next,"ax",%progbits
 278              		.align	2
 279              		.thumb
 280              		.thumb_func
 281              		.type	lv_txt_utf8_next, %function
 282              	lv_txt_utf8_next:
 283              	.LFB15:
 556:lvgl\src\lv_misc/lv_txt.c **** 
 557:lvgl\src\lv_misc/lv_txt.c **** /**
 558:lvgl\src\lv_misc/lv_txt.c ****  * Decode an UTF-8 character from a string.
 559:lvgl\src\lv_misc/lv_txt.c ****  * @param txt pointer to '\0' terminated string
 560:lvgl\src\lv_misc/lv_txt.c ****  * @param i start byte index in 'txt' where to start.
 561:lvgl\src\lv_misc/lv_txt.c ****  *          After call it will point to the next UTF-8 char in 'txt'.
 562:lvgl\src\lv_misc/lv_txt.c ****  *          NULL to use txt[0] as index
 563:lvgl\src\lv_misc/lv_txt.c ****  * @return the decoded Unicode character or 0 on invalid UTF-8 code
 564:lvgl\src\lv_misc/lv_txt.c ****  */
 565:lvgl\src\lv_misc/lv_txt.c **** static uint32_t lv_txt_utf8_next(const char * txt, uint32_t * i)
 566:lvgl\src\lv_misc/lv_txt.c **** {
 284              		.loc 1 566 0
 285              		.cfi_startproc
 286              		@ args = 0, pretend = 0, frame = 8
 287              		@ frame_needed = 0, uses_anonymous_args = 0
ARM GAS  C:\Users\strap\AppData\Local\Temp\ccCgIabb.s 			page 20


 288              		@ link register save eliminated.
 289              	.LVL34:
 290 0000 30B4     		push	{r4, r5}
 291              		.cfi_def_cfa_offset 8
 292              		.cfi_offset 4, -8
 293              		.cfi_offset 5, -4
 294 0002 82B0     		sub	sp, sp, #8
 295              		.cfi_def_cfa_offset 16
 296              	.LVL35:
 567:lvgl\src\lv_misc/lv_txt.c ****     /* Unicode to UTF-8
 568:lvgl\src\lv_misc/lv_txt.c ****      * 00000000 00000000 00000000 0xxxxxxx -> 0xxxxxxx
 569:lvgl\src\lv_misc/lv_txt.c ****      * 00000000 00000000 00000yyy yyxxxxxx -> 110yyyyy 10xxxxxx
 570:lvgl\src\lv_misc/lv_txt.c ****      * 00000000 00000000 zzzzyyyy yyxxxxxx -> 1110zzzz 10yyyyyy 10xxxxxx
 571:lvgl\src\lv_misc/lv_txt.c ****      * 00000000 000wwwzz zzzzyyyy yyxxxxxx -> 11110www 10zzzzzz 10yyyyyy 10xxxxxx
 572:lvgl\src\lv_misc/lv_txt.c ****      * */
 573:lvgl\src\lv_misc/lv_txt.c **** 
 574:lvgl\src\lv_misc/lv_txt.c ****     uint32_t result = 0;
 575:lvgl\src\lv_misc/lv_txt.c **** 
 576:lvgl\src\lv_misc/lv_txt.c ****     /*Dummy 'i' pointer is required*/
 577:lvgl\src\lv_misc/lv_txt.c ****     uint32_t i_tmp = 0;
 297              		.loc 1 577 0
 298 0004 0023     		movs	r3, #0
 299 0006 0193     		str	r3, [sp, #4]
 578:lvgl\src\lv_misc/lv_txt.c ****     if(i == NULL) i = &i_tmp;
 300              		.loc 1 578 0
 301 0008 0C46     		mov	r4, r1
 302 000a 01B9     		cbnz	r1, .L26
 303 000c 01AC     		add	r4, sp, #4
 304              	.L26:
 305              	.LVL36:
 579:lvgl\src\lv_misc/lv_txt.c **** 
 580:lvgl\src\lv_misc/lv_txt.c ****     /*Normal ASCII*/
 581:lvgl\src\lv_misc/lv_txt.c ****     if((txt[*i] & 0x80) == 0) {
 306              		.loc 1 581 0
 307 000e 2268     		ldr	r2, [r4]
 308 0010 835C     		ldrb	r3, [r0, r2]	@ zero_extendqisi2
 309 0012 13F0800F 		tst	r3, #128
 310 0016 03D1     		bne	.L27
 311              	.LVL37:
 582:lvgl\src\lv_misc/lv_txt.c ****         result = txt[*i];
 583:lvgl\src\lv_misc/lv_txt.c ****         (*i)++;
 312              		.loc 1 583 0
 313 0018 0132     		adds	r2, r2, #1
 314 001a 2260     		str	r2, [r4]
 582:lvgl\src\lv_misc/lv_txt.c ****         result = txt[*i];
 315              		.loc 1 582 0
 316 001c 1846     		mov	r0, r3
 317              	.LVL38:
 318 001e 6AE0     		b	.L28
 319              	.LVL39:
 320              	.L27:
 584:lvgl\src\lv_misc/lv_txt.c ****     }
 585:lvgl\src\lv_misc/lv_txt.c ****     /*Real UTF-8 decode*/
 586:lvgl\src\lv_misc/lv_txt.c ****     else {
 587:lvgl\src\lv_misc/lv_txt.c ****         /*2 bytes UTF-8 code*/
 588:lvgl\src\lv_misc/lv_txt.c ****         if((txt[*i] & 0xE0) == 0xC0) {
 321              		.loc 1 588 0
ARM GAS  C:\Users\strap\AppData\Local\Temp\ccCgIabb.s 			page 21


 322 0020 03F0E001 		and	r1, r3, #224
 323 0024 C029     		cmp	r1, #192
 324 0026 0FD1     		bne	.L29
 589:lvgl\src\lv_misc/lv_txt.c ****             result = (uint32_t)(txt[*i] & 0x1F) << 6;
 325              		.loc 1 589 0
 326 0028 9B01     		lsls	r3, r3, #6
 327 002a 03F4F863 		and	r3, r3, #1984
 328              	.LVL40:
 590:lvgl\src\lv_misc/lv_txt.c ****             (*i)++;
 329              		.loc 1 590 0
 330 002e 0132     		adds	r2, r2, #1
 331 0030 2260     		str	r2, [r4]
 591:lvgl\src\lv_misc/lv_txt.c ****             if((txt[*i] & 0xC0) != 0x80) return 0; /*Invalid UTF-8 code*/
 332              		.loc 1 591 0
 333 0032 805C     		ldrb	r0, [r0, r2]	@ zero_extendqisi2
 334              	.LVL41:
 335 0034 00F0C001 		and	r1, r0, #192
 336 0038 8029     		cmp	r1, #128
 337 003a 51D1     		bne	.L33
 592:lvgl\src\lv_misc/lv_txt.c ****             result += (txt[*i] & 0x3F);
 338              		.loc 1 592 0
 339 003c 00F03F00 		and	r0, r0, #63
 340              	.LVL42:
 593:lvgl\src\lv_misc/lv_txt.c ****             (*i)++;
 341              		.loc 1 593 0
 342 0040 0132     		adds	r2, r2, #1
 343 0042 2260     		str	r2, [r4]
 592:lvgl\src\lv_misc/lv_txt.c ****             result += (txt[*i] & 0x3F);
 344              		.loc 1 592 0
 345 0044 1844     		add	r0, r0, r3
 346              	.LVL43:
 347 0046 56E0     		b	.L28
 348              	.LVL44:
 349              	.L29:
 594:lvgl\src\lv_misc/lv_txt.c ****         }
 595:lvgl\src\lv_misc/lv_txt.c ****         /*3 bytes UTF-8 code*/
 596:lvgl\src\lv_misc/lv_txt.c ****         else if((txt[*i] & 0xF0) == 0xE0) {
 350              		.loc 1 596 0
 351 0048 03F0F001 		and	r1, r3, #240
 352 004c E029     		cmp	r1, #224
 353 004e 19D1     		bne	.L30
 597:lvgl\src\lv_misc/lv_txt.c ****             result = (uint32_t)(txt[*i] & 0x0F) << 12;
 354              		.loc 1 597 0
 355 0050 1B03     		lsls	r3, r3, #12
 356 0052 9BB2     		uxth	r3, r3
 357              	.LVL45:
 598:lvgl\src\lv_misc/lv_txt.c ****             (*i)++;
 358              		.loc 1 598 0
 359 0054 0132     		adds	r2, r2, #1
 360 0056 2260     		str	r2, [r4]
 599:lvgl\src\lv_misc/lv_txt.c **** 
 600:lvgl\src\lv_misc/lv_txt.c ****             if((txt[*i] & 0xC0) != 0x80) return 0; /*Invalid UTF-8 code*/
 361              		.loc 1 600 0
 362 0058 815C     		ldrb	r1, [r0, r2]	@ zero_extendqisi2
 363 005a 01F0C005 		and	r5, r1, #192
 364 005e 802D     		cmp	r5, #128
 365 0060 40D1     		bne	.L34
ARM GAS  C:\Users\strap\AppData\Local\Temp\ccCgIabb.s 			page 22


 601:lvgl\src\lv_misc/lv_txt.c ****             result += (uint32_t)(txt[*i] & 0x3F) << 6;
 366              		.loc 1 601 0
 367 0062 8901     		lsls	r1, r1, #6
 368 0064 01F47C61 		and	r1, r1, #4032
 369 0068 0B44     		add	r3, r3, r1
 370              	.LVL46:
 602:lvgl\src\lv_misc/lv_txt.c ****             (*i)++;
 371              		.loc 1 602 0
 372 006a 511C     		adds	r1, r2, #1
 373 006c 2160     		str	r1, [r4]
 603:lvgl\src\lv_misc/lv_txt.c **** 
 604:lvgl\src\lv_misc/lv_txt.c ****             if((txt[*i] & 0xC0) != 0x80) return 0; /*Invalid UTF-8 code*/
 374              		.loc 1 604 0
 375 006e 425C     		ldrb	r2, [r0, r1]	@ zero_extendqisi2
 376 0070 02F0C000 		and	r0, r2, #192
 377              	.LVL47:
 378 0074 8028     		cmp	r0, #128
 379 0076 37D1     		bne	.L35
 605:lvgl\src\lv_misc/lv_txt.c ****             result += (txt[*i] & 0x3F);
 380              		.loc 1 605 0
 381 0078 02F03F02 		and	r2, r2, #63
 382              	.LVL48:
 606:lvgl\src\lv_misc/lv_txt.c ****             (*i)++;
 383              		.loc 1 606 0
 384 007c 0131     		adds	r1, r1, #1
 385 007e 2160     		str	r1, [r4]
 605:lvgl\src\lv_misc/lv_txt.c ****             result += (txt[*i] & 0x3F);
 386              		.loc 1 605 0
 387 0080 D018     		adds	r0, r2, r3
 388              	.LVL49:
 389 0082 38E0     		b	.L28
 390              	.LVL50:
 391              	.L30:
 607:lvgl\src\lv_misc/lv_txt.c ****         }
 608:lvgl\src\lv_misc/lv_txt.c ****         /*4 bytes UTF-8 code*/
 609:lvgl\src\lv_misc/lv_txt.c ****         else if((txt[*i] & 0xF8) == 0xF0) {
 392              		.loc 1 609 0
 393 0084 03F0F801 		and	r1, r3, #248
 394 0088 F029     		cmp	r1, #240
 395 008a 25D1     		bne	.L31
 610:lvgl\src\lv_misc/lv_txt.c ****             result = (uint32_t)(txt[*i] & 0x07) << 18;
 396              		.loc 1 610 0
 397 008c 9B04     		lsls	r3, r3, #18
 398 008e 03F4E013 		and	r3, r3, #1835008
 399              	.LVL51:
 611:lvgl\src\lv_misc/lv_txt.c ****             (*i)++;
 400              		.loc 1 611 0
 401 0092 0132     		adds	r2, r2, #1
 402 0094 2260     		str	r2, [r4]
 612:lvgl\src\lv_misc/lv_txt.c **** 
 613:lvgl\src\lv_misc/lv_txt.c ****             if((txt[*i] & 0xC0) != 0x80) return 0; /*Invalid UTF-8 code*/
 403              		.loc 1 613 0
 404 0096 815C     		ldrb	r1, [r0, r2]	@ zero_extendqisi2
 405 0098 01F0C005 		and	r5, r1, #192
 406 009c 802D     		cmp	r5, #128
 407 009e 25D1     		bne	.L36
 614:lvgl\src\lv_misc/lv_txt.c ****             result += (uint32_t)(txt[*i] & 0x3F) << 12;
ARM GAS  C:\Users\strap\AppData\Local\Temp\ccCgIabb.s 			page 23


 408              		.loc 1 614 0
 409 00a0 0903     		lsls	r1, r1, #12
 410 00a2 01F47C31 		and	r1, r1, #258048
 411 00a6 0B44     		add	r3, r3, r1
 412              	.LVL52:
 615:lvgl\src\lv_misc/lv_txt.c ****             (*i)++;
 413              		.loc 1 615 0
 414 00a8 511C     		adds	r1, r2, #1
 415 00aa 2160     		str	r1, [r4]
 616:lvgl\src\lv_misc/lv_txt.c **** 
 617:lvgl\src\lv_misc/lv_txt.c ****             if((txt[*i] & 0xC0) != 0x80) return 0; /*Invalid UTF-8 code*/
 416              		.loc 1 617 0
 417 00ac 425C     		ldrb	r2, [r0, r1]	@ zero_extendqisi2
 418 00ae 02F0C005 		and	r5, r2, #192
 419 00b2 802D     		cmp	r5, #128
 420 00b4 1CD1     		bne	.L37
 618:lvgl\src\lv_misc/lv_txt.c ****             result += (uint32_t)(txt[*i] & 0x3F) << 6;
 421              		.loc 1 618 0
 422 00b6 9201     		lsls	r2, r2, #6
 423 00b8 02F47C62 		and	r2, r2, #4032
 424 00bc 1A44     		add	r2, r2, r3
 425              	.LVL53:
 619:lvgl\src\lv_misc/lv_txt.c ****             (*i)++;
 426              		.loc 1 619 0
 427 00be 0131     		adds	r1, r1, #1
 428 00c0 2160     		str	r1, [r4]
 620:lvgl\src\lv_misc/lv_txt.c **** 
 621:lvgl\src\lv_misc/lv_txt.c ****             if((txt[*i] & 0xC0) != 0x80) return 0; /*Invalid UTF-8 code*/
 429              		.loc 1 621 0
 430 00c2 435C     		ldrb	r3, [r0, r1]	@ zero_extendqisi2
 431 00c4 03F0C000 		and	r0, r3, #192
 432              	.LVL54:
 433 00c8 8028     		cmp	r0, #128
 434 00ca 13D1     		bne	.L38
 622:lvgl\src\lv_misc/lv_txt.c ****             result += txt[*i] & 0x3F;
 435              		.loc 1 622 0
 436 00cc 03F03F03 		and	r3, r3, #63
 437              	.LVL55:
 623:lvgl\src\lv_misc/lv_txt.c ****             (*i)++;
 438              		.loc 1 623 0
 439 00d0 0131     		adds	r1, r1, #1
 440 00d2 2160     		str	r1, [r4]
 622:lvgl\src\lv_misc/lv_txt.c ****             result += txt[*i] & 0x3F;
 441              		.loc 1 622 0
 442 00d4 9818     		adds	r0, r3, r2
 443              	.LVL56:
 444 00d6 0EE0     		b	.L28
 445              	.LVL57:
 446              	.L31:
 624:lvgl\src\lv_misc/lv_txt.c ****         }
 625:lvgl\src\lv_misc/lv_txt.c ****         else {
 626:lvgl\src\lv_misc/lv_txt.c ****             (*i)++; /*Not UTF-8 char. Go the next.*/
 447              		.loc 1 626 0
 448 00d8 0132     		adds	r2, r2, #1
 449 00da 2260     		str	r2, [r4]
 574:lvgl\src\lv_misc/lv_txt.c **** 
 450              		.loc 1 574 0
ARM GAS  C:\Users\strap\AppData\Local\Temp\ccCgIabb.s 			page 24


 451 00dc 0020     		movs	r0, #0
 452              	.LVL58:
 453 00de 0AE0     		b	.L28
 454              	.LVL59:
 455              	.L33:
 591:lvgl\src\lv_misc/lv_txt.c ****             result += (txt[*i] & 0x3F);
 456              		.loc 1 591 0
 457 00e0 0020     		movs	r0, #0
 458 00e2 08E0     		b	.L28
 459              	.LVL60:
 460              	.L34:
 600:lvgl\src\lv_misc/lv_txt.c ****             result += (uint32_t)(txt[*i] & 0x3F) << 6;
 461              		.loc 1 600 0
 462 00e4 0020     		movs	r0, #0
 463              	.LVL61:
 464 00e6 06E0     		b	.L28
 465              	.L35:
 604:lvgl\src\lv_misc/lv_txt.c ****             result += (txt[*i] & 0x3F);
 466              		.loc 1 604 0
 467 00e8 0020     		movs	r0, #0
 468 00ea 04E0     		b	.L28
 469              	.LVL62:
 470              	.L36:
 613:lvgl\src\lv_misc/lv_txt.c ****             result += (uint32_t)(txt[*i] & 0x3F) << 12;
 471              		.loc 1 613 0
 472 00ec 0020     		movs	r0, #0
 473              	.LVL63:
 474 00ee 02E0     		b	.L28
 475              	.LVL64:
 476              	.L37:
 617:lvgl\src\lv_misc/lv_txt.c ****             result += (uint32_t)(txt[*i] & 0x3F) << 6;
 477              		.loc 1 617 0
 478 00f0 0020     		movs	r0, #0
 479              	.LVL65:
 480 00f2 00E0     		b	.L28
 481              	.LVL66:
 482              	.L38:
 621:lvgl\src\lv_misc/lv_txt.c ****             result += txt[*i] & 0x3F;
 483              		.loc 1 621 0
 484 00f4 0020     		movs	r0, #0
 485              	.LVL67:
 486              	.L28:
 627:lvgl\src\lv_misc/lv_txt.c ****         }
 628:lvgl\src\lv_misc/lv_txt.c ****     }
 629:lvgl\src\lv_misc/lv_txt.c ****     return result;
 630:lvgl\src\lv_misc/lv_txt.c **** }
 487              		.loc 1 630 0
 488 00f6 02B0     		add	sp, sp, #8
 489              		.cfi_def_cfa_offset 8
 490              		@ sp needed
 491 00f8 30BC     		pop	{r4, r5}
 492              		.cfi_restore 5
 493              		.cfi_restore 4
 494              		.cfi_def_cfa_offset 0
 495              	.LVL68:
 496 00fa 7047     		bx	lr
 497              		.cfi_endproc
ARM GAS  C:\Users\strap\AppData\Local\Temp\ccCgIabb.s 			page 25


 498              	.LFE15:
 499              		.size	lv_txt_utf8_next, .-lv_txt_utf8_next
 500              		.section	.text.lv_txt_utf8_prev,"ax",%progbits
 501              		.align	2
 502              		.thumb
 503              		.thumb_func
 504              		.type	lv_txt_utf8_prev, %function
 505              	lv_txt_utf8_prev:
 506              	.LFB16:
 631:lvgl\src\lv_misc/lv_txt.c **** 
 632:lvgl\src\lv_misc/lv_txt.c **** /**
 633:lvgl\src\lv_misc/lv_txt.c ****  * Get previous UTF-8 character form a string.
 634:lvgl\src\lv_misc/lv_txt.c ****  * @param txt pointer to '\0' terminated string
 635:lvgl\src\lv_misc/lv_txt.c ****  * @param i start byte index in 'txt' where to start. After the call it will point to the previous
 636:lvgl\src\lv_misc/lv_txt.c ****  * UTF-8 char in 'txt'.
 637:lvgl\src\lv_misc/lv_txt.c ****  * @return the decoded Unicode character or 0 on invalid UTF-8 code
 638:lvgl\src\lv_misc/lv_txt.c ****  */
 639:lvgl\src\lv_misc/lv_txt.c **** static uint32_t lv_txt_utf8_prev(const char * txt, uint32_t * i)
 640:lvgl\src\lv_misc/lv_txt.c **** {
 507              		.loc 1 640 0
 508              		.cfi_startproc
 509              		@ args = 0, pretend = 0, frame = 8
 510              		@ frame_needed = 0, uses_anonymous_args = 0
 511              	.LVL69:
 512 0000 70B5     		push	{r4, r5, r6, lr}
 513              		.cfi_def_cfa_offset 16
 514              		.cfi_offset 4, -16
 515              		.cfi_offset 5, -12
 516              		.cfi_offset 6, -8
 517              		.cfi_offset 14, -4
 518 0002 82B0     		sub	sp, sp, #8
 519              		.cfi_def_cfa_offset 24
 520 0004 0646     		mov	r6, r0
 521 0006 0D46     		mov	r5, r1
 522              	.LVL70:
 641:lvgl\src\lv_misc/lv_txt.c ****     uint8_t c_size;
 642:lvgl\src\lv_misc/lv_txt.c ****     uint8_t cnt = 0;
 643:lvgl\src\lv_misc/lv_txt.c **** 
 644:lvgl\src\lv_misc/lv_txt.c ****     /*Try to find a !0 long UTF-8 char by stepping one character back*/
 645:lvgl\src\lv_misc/lv_txt.c ****     (*i)--;
 523              		.loc 1 645 0
 524 0008 0B68     		ldr	r3, [r1]
 525 000a 013B     		subs	r3, r3, #1
 526 000c 0B60     		str	r3, [r1]
 642:lvgl\src\lv_misc/lv_txt.c **** 
 527              		.loc 1 642 0
 528 000e 0024     		movs	r4, #0
 529              	.LVL71:
 530              	.L43:
 646:lvgl\src\lv_misc/lv_txt.c ****     do {
 647:lvgl\src\lv_misc/lv_txt.c ****         if(cnt >= 4) return 0; /*No UTF-8 char found before the initial*/
 531              		.loc 1 647 0
 532 0010 032C     		cmp	r4, #3
 533 0012 17D8     		bhi	.L44
 648:lvgl\src\lv_misc/lv_txt.c **** 
 649:lvgl\src\lv_misc/lv_txt.c ****         c_size = _lv_txt_encoded_size(&txt[*i]);
 534              		.loc 1 649 0
ARM GAS  C:\Users\strap\AppData\Local\Temp\ccCgIabb.s 			page 26


 535 0014 0D4B     		ldr	r3, .L46
 536 0016 1B68     		ldr	r3, [r3]
 537 0018 2868     		ldr	r0, [r5]
 538 001a 3044     		add	r0, r0, r6
 539 001c 9847     		blx	r3
 540              	.LVL72:
 650:lvgl\src\lv_misc/lv_txt.c ****         if(c_size == 0) {
 541              		.loc 1 650 0
 542 001e 0346     		mov	r3, r0
 543 0020 18B9     		cbnz	r0, .L42
 651:lvgl\src\lv_misc/lv_txt.c ****             if(*i != 0)
 544              		.loc 1 651 0
 545 0022 2868     		ldr	r0, [r5]
 546              	.LVL73:
 547 0024 78B1     		cbz	r0, .L41
 652:lvgl\src\lv_misc/lv_txt.c ****                 (*i)--;
 548              		.loc 1 652 0
 549 0026 0138     		subs	r0, r0, #1
 550 0028 2860     		str	r0, [r5]
 551              	.L42:
 653:lvgl\src\lv_misc/lv_txt.c ****             else
 654:lvgl\src\lv_misc/lv_txt.c ****                 return 0;
 655:lvgl\src\lv_misc/lv_txt.c ****         }
 656:lvgl\src\lv_misc/lv_txt.c ****         cnt++;
 552              		.loc 1 656 0
 553 002a 0134     		adds	r4, r4, #1
 554              	.LVL74:
 555 002c E4B2     		uxtb	r4, r4
 556              	.LVL75:
 657:lvgl\src\lv_misc/lv_txt.c ****     } while(c_size == 0);
 557              		.loc 1 657 0
 558 002e 002B     		cmp	r3, #0
 559 0030 EED0     		beq	.L43
 658:lvgl\src\lv_misc/lv_txt.c **** 
 659:lvgl\src\lv_misc/lv_txt.c ****     uint32_t i_tmp  = *i;
 560              		.loc 1 659 0
 561 0032 2B68     		ldr	r3, [r5]
 562 0034 02A9     		add	r1, sp, #8
 563 0036 41F8043D 		str	r3, [r1, #-4]!
 660:lvgl\src\lv_misc/lv_txt.c ****     uint32_t letter = _lv_txt_encoded_next(txt, &i_tmp); /*Character found, get it*/
 564              		.loc 1 660 0
 565 003a 044B     		ldr	r3, .L46
 566 003c 5B68     		ldr	r3, [r3, #4]
 567 003e 3046     		mov	r0, r6
 568 0040 9847     		blx	r3
 569              	.LVL76:
 661:lvgl\src\lv_misc/lv_txt.c **** 
 662:lvgl\src\lv_misc/lv_txt.c ****     return letter;
 570              		.loc 1 662 0
 571 0042 00E0     		b	.L41
 572              	.L44:
 647:lvgl\src\lv_misc/lv_txt.c **** 
 573              		.loc 1 647 0
 574 0044 0020     		movs	r0, #0
 575              	.L41:
 663:lvgl\src\lv_misc/lv_txt.c **** }
 576              		.loc 1 663 0
ARM GAS  C:\Users\strap\AppData\Local\Temp\ccCgIabb.s 			page 27


 577 0046 02B0     		add	sp, sp, #8
 578              		.cfi_def_cfa_offset 16
 579              		@ sp needed
 580 0048 70BD     		pop	{r4, r5, r6, pc}
 581              	.LVL77:
 582              	.L47:
 583 004a 00BF     		.align	2
 584              	.L46:
 585 004c 00000000 		.word	.LANCHOR0
 586              		.cfi_endproc
 587              	.LFE16:
 588              		.size	lv_txt_utf8_prev, .-lv_txt_utf8_prev
 589              		.section	.text.lv_txt_utf8_get_byte_id,"ax",%progbits
 590              		.align	2
 591              		.thumb
 592              		.thumb_func
 593              		.type	lv_txt_utf8_get_byte_id, %function
 594              	lv_txt_utf8_get_byte_id:
 595              	.LFB17:
 664:lvgl\src\lv_misc/lv_txt.c **** 
 665:lvgl\src\lv_misc/lv_txt.c **** /**
 666:lvgl\src\lv_misc/lv_txt.c ****  * Convert a character index (in an UTF-8 text) to byte index.
 667:lvgl\src\lv_misc/lv_txt.c ****  * E.g. in "AÁRT" index of 'R' is 2th char but start at byte 3 because 'Á' is 2 bytes long
 668:lvgl\src\lv_misc/lv_txt.c ****  * @param txt a '\0' terminated UTF-8 string
 669:lvgl\src\lv_misc/lv_txt.c ****  * @param utf8_id character index
 670:lvgl\src\lv_misc/lv_txt.c ****  * @return byte index of the 'utf8_id'th letter
 671:lvgl\src\lv_misc/lv_txt.c ****  */
 672:lvgl\src\lv_misc/lv_txt.c **** static uint32_t lv_txt_utf8_get_byte_id(const char * txt, uint32_t utf8_id)
 673:lvgl\src\lv_misc/lv_txt.c **** {
 596              		.loc 1 673 0
 597              		.cfi_startproc
 598              		@ args = 0, pretend = 0, frame = 0
 599              		@ frame_needed = 0, uses_anonymous_args = 0
 600              	.LVL78:
 601 0000 F8B5     		push	{r3, r4, r5, r6, r7, lr}
 602              		.cfi_def_cfa_offset 24
 603              		.cfi_offset 3, -24
 604              		.cfi_offset 4, -20
 605              		.cfi_offset 5, -16
 606              		.cfi_offset 6, -12
 607              		.cfi_offset 7, -8
 608              		.cfi_offset 14, -4
 609 0002 0746     		mov	r7, r0
 610 0004 0E46     		mov	r6, r1
 611              	.LVL79:
 674:lvgl\src\lv_misc/lv_txt.c ****     uint32_t i;
 675:lvgl\src\lv_misc/lv_txt.c ****     uint32_t byte_cnt = 0;
 612              		.loc 1 675 0
 613 0006 0024     		movs	r4, #0
 676:lvgl\src\lv_misc/lv_txt.c ****     for(i = 0; i < utf8_id; i++) {
 614              		.loc 1 676 0
 615 0008 2546     		mov	r5, r4
 616 000a 08E0     		b	.L49
 617              	.LVL80:
 618              	.L51:
 619              	.LBB18:
 677:lvgl\src\lv_misc/lv_txt.c ****         uint8_t c_size = _lv_txt_encoded_size(&txt[byte_cnt]);
ARM GAS  C:\Users\strap\AppData\Local\Temp\ccCgIabb.s 			page 28


 620              		.loc 1 677 0
 621 000c 064B     		ldr	r3, .L54
 622 000e 1B68     		ldr	r3, [r3]
 623 0010 3819     		adds	r0, r7, r4
 624 0012 9847     		blx	r3
 625              	.LVL81:
 678:lvgl\src\lv_misc/lv_txt.c ****         byte_cnt += c_size > 0 ? c_size : 1;
 626              		.loc 1 678 0
 627 0014 00B1     		cbz	r0, .L52
 628 0016 00E0     		b	.L50
 629              	.L52:
 630 0018 0120     		movs	r0, #1
 631              	.LVL82:
 632              	.L50:
 633              		.loc 1 678 0 is_stmt 0 discriminator 4
 634 001a 0444     		add	r4, r4, r0
 635              	.LVL83:
 636              	.LBE18:
 676:lvgl\src\lv_misc/lv_txt.c ****     for(i = 0; i < utf8_id; i++) {
 637              		.loc 1 676 0 is_stmt 1 discriminator 4
 638 001c 0135     		adds	r5, r5, #1
 639              	.LVL84:
 640              	.L49:
 676:lvgl\src\lv_misc/lv_txt.c ****     for(i = 0; i < utf8_id; i++) {
 641              		.loc 1 676 0 is_stmt 0 discriminator 2
 642 001e B542     		cmp	r5, r6
 643 0020 F4D3     		bcc	.L51
 679:lvgl\src\lv_misc/lv_txt.c ****     }
 680:lvgl\src\lv_misc/lv_txt.c **** 
 681:lvgl\src\lv_misc/lv_txt.c ****     return byte_cnt;
 682:lvgl\src\lv_misc/lv_txt.c **** }
 644              		.loc 1 682 0 is_stmt 1
 645 0022 2046     		mov	r0, r4
 646 0024 F8BD     		pop	{r3, r4, r5, r6, r7, pc}
 647              	.LVL85:
 648              	.L55:
 649 0026 00BF     		.align	2
 650              	.L54:
 651 0028 00000000 		.word	.LANCHOR0
 652              		.cfi_endproc
 653              	.LFE17:
 654              		.size	lv_txt_utf8_get_byte_id, .-lv_txt_utf8_get_byte_id
 655              		.section	.text.lv_txt_utf8_get_char_id,"ax",%progbits
 656              		.align	2
 657              		.thumb
 658              		.thumb_func
 659              		.type	lv_txt_utf8_get_char_id, %function
 660              	lv_txt_utf8_get_char_id:
 661              	.LFB18:
 683:lvgl\src\lv_misc/lv_txt.c **** 
 684:lvgl\src\lv_misc/lv_txt.c **** /**
 685:lvgl\src\lv_misc/lv_txt.c ****  * Convert a byte index (in an UTF-8 text) to character index.
 686:lvgl\src\lv_misc/lv_txt.c ****  * E.g. in "AÁRT" index of 'R' is 2th char but start at byte 3 because 'Á' is 2 bytes long
 687:lvgl\src\lv_misc/lv_txt.c ****  * @param txt a '\0' terminated UTF-8 string
 688:lvgl\src\lv_misc/lv_txt.c ****  * @param byte_id byte index
 689:lvgl\src\lv_misc/lv_txt.c ****  * @return character index of the letter at 'byte_id'th position
 690:lvgl\src\lv_misc/lv_txt.c ****  */
ARM GAS  C:\Users\strap\AppData\Local\Temp\ccCgIabb.s 			page 29


 691:lvgl\src\lv_misc/lv_txt.c **** static uint32_t lv_txt_utf8_get_char_id(const char * txt, uint32_t byte_id)
 692:lvgl\src\lv_misc/lv_txt.c **** {
 662              		.loc 1 692 0
 663              		.cfi_startproc
 664              		@ args = 0, pretend = 0, frame = 8
 665              		@ frame_needed = 0, uses_anonymous_args = 0
 666              	.LVL86:
 667 0000 70B5     		push	{r4, r5, r6, lr}
 668              		.cfi_def_cfa_offset 16
 669              		.cfi_offset 4, -16
 670              		.cfi_offset 5, -12
 671              		.cfi_offset 6, -8
 672              		.cfi_offset 14, -4
 673 0002 82B0     		sub	sp, sp, #8
 674              		.cfi_def_cfa_offset 24
 675 0004 0646     		mov	r6, r0
 676 0006 0D46     		mov	r5, r1
 693:lvgl\src\lv_misc/lv_txt.c ****     uint32_t i        = 0;
 677              		.loc 1 693 0
 678 0008 0024     		movs	r4, #0
 679 000a 0194     		str	r4, [sp, #4]
 680              	.LVL87:
 694:lvgl\src\lv_misc/lv_txt.c ****     uint32_t char_cnt = 0;
 695:lvgl\src\lv_misc/lv_txt.c **** 
 696:lvgl\src\lv_misc/lv_txt.c ****     while(i < byte_id) {
 681              		.loc 1 696 0
 682 000c 05E0     		b	.L57
 683              	.LVL88:
 684              	.L58:
 697:lvgl\src\lv_misc/lv_txt.c ****         _lv_txt_encoded_next(txt, &i); /*'i' points to the next letter so use the prev. value*/
 685              		.loc 1 697 0
 686 000e 064B     		ldr	r3, .L60
 687 0010 5B68     		ldr	r3, [r3, #4]
 688 0012 01A9     		add	r1, sp, #4
 689 0014 3046     		mov	r0, r6
 690 0016 9847     		blx	r3
 691              	.LVL89:
 698:lvgl\src\lv_misc/lv_txt.c ****         char_cnt++;
 692              		.loc 1 698 0
 693 0018 0134     		adds	r4, r4, #1
 694              	.LVL90:
 695              	.L57:
 696:lvgl\src\lv_misc/lv_txt.c ****         _lv_txt_encoded_next(txt, &i); /*'i' points to the next letter so use the prev. value*/
 696              		.loc 1 696 0
 697 001a 019B     		ldr	r3, [sp, #4]
 698 001c AB42     		cmp	r3, r5
 699 001e F6D3     		bcc	.L58
 699:lvgl\src\lv_misc/lv_txt.c ****     }
 700:lvgl\src\lv_misc/lv_txt.c **** 
 701:lvgl\src\lv_misc/lv_txt.c ****     return char_cnt;
 702:lvgl\src\lv_misc/lv_txt.c **** }
 700              		.loc 1 702 0
 701 0020 2046     		mov	r0, r4
 702 0022 02B0     		add	sp, sp, #8
 703              		.cfi_def_cfa_offset 16
 704              		@ sp needed
 705 0024 70BD     		pop	{r4, r5, r6, pc}
ARM GAS  C:\Users\strap\AppData\Local\Temp\ccCgIabb.s 			page 30


 706              	.LVL91:
 707              	.L61:
 708 0026 00BF     		.align	2
 709              	.L60:
 710 0028 00000000 		.word	.LANCHOR0
 711              		.cfi_endproc
 712              	.LFE18:
 713              		.size	lv_txt_utf8_get_char_id, .-lv_txt_utf8_get_char_id
 714              		.section	.text.lv_txt_utf8_get_length,"ax",%progbits
 715              		.align	2
 716              		.thumb
 717              		.thumb_func
 718              		.type	lv_txt_utf8_get_length, %function
 719              	lv_txt_utf8_get_length:
 720              	.LFB19:
 703:lvgl\src\lv_misc/lv_txt.c **** 
 704:lvgl\src\lv_misc/lv_txt.c **** /**
 705:lvgl\src\lv_misc/lv_txt.c ****  * Get the number of characters (and NOT bytes) in a string. Decode it with UTF-8 if enabled.
 706:lvgl\src\lv_misc/lv_txt.c ****  * E.g.: "ÁBC" is 3 characters (but 4 bytes)
 707:lvgl\src\lv_misc/lv_txt.c ****  * @param txt a '\0' terminated char string
 708:lvgl\src\lv_misc/lv_txt.c ****  * @return number of characters
 709:lvgl\src\lv_misc/lv_txt.c ****  */
 710:lvgl\src\lv_misc/lv_txt.c **** static uint32_t lv_txt_utf8_get_length(const char * txt)
 711:lvgl\src\lv_misc/lv_txt.c **** {
 721              		.loc 1 711 0
 722              		.cfi_startproc
 723              		@ args = 0, pretend = 0, frame = 8
 724              		@ frame_needed = 0, uses_anonymous_args = 0
 725              	.LVL92:
 726 0000 30B5     		push	{r4, r5, lr}
 727              		.cfi_def_cfa_offset 12
 728              		.cfi_offset 4, -12
 729              		.cfi_offset 5, -8
 730              		.cfi_offset 14, -4
 731 0002 83B0     		sub	sp, sp, #12
 732              		.cfi_def_cfa_offset 24
 733 0004 0546     		mov	r5, r0
 734              	.LVL93:
 712:lvgl\src\lv_misc/lv_txt.c ****     uint32_t len = 0;
 713:lvgl\src\lv_misc/lv_txt.c ****     uint32_t i   = 0;
 735              		.loc 1 713 0
 736 0006 0024     		movs	r4, #0
 737 0008 0194     		str	r4, [sp, #4]
 714:lvgl\src\lv_misc/lv_txt.c **** 
 715:lvgl\src\lv_misc/lv_txt.c ****     while(txt[i] != '\0') {
 738              		.loc 1 715 0
 739 000a 05E0     		b	.L63
 740              	.LVL94:
 741              	.L64:
 716:lvgl\src\lv_misc/lv_txt.c ****         _lv_txt_encoded_next(txt, &i);
 742              		.loc 1 716 0
 743 000c 064B     		ldr	r3, .L66
 744 000e 5B68     		ldr	r3, [r3, #4]
 745 0010 01A9     		add	r1, sp, #4
 746 0012 2846     		mov	r0, r5
 747 0014 9847     		blx	r3
 748              	.LVL95:
ARM GAS  C:\Users\strap\AppData\Local\Temp\ccCgIabb.s 			page 31


 717:lvgl\src\lv_misc/lv_txt.c ****         len++;
 749              		.loc 1 717 0
 750 0016 0134     		adds	r4, r4, #1
 751              	.LVL96:
 752              	.L63:
 715:lvgl\src\lv_misc/lv_txt.c ****         _lv_txt_encoded_next(txt, &i);
 753              		.loc 1 715 0
 754 0018 019B     		ldr	r3, [sp, #4]
 755 001a EB5C     		ldrb	r3, [r5, r3]	@ zero_extendqisi2
 756 001c 002B     		cmp	r3, #0
 757 001e F5D1     		bne	.L64
 718:lvgl\src\lv_misc/lv_txt.c ****     }
 719:lvgl\src\lv_misc/lv_txt.c **** 
 720:lvgl\src\lv_misc/lv_txt.c ****     return len;
 721:lvgl\src\lv_misc/lv_txt.c **** }
 758              		.loc 1 721 0
 759 0020 2046     		mov	r0, r4
 760 0022 03B0     		add	sp, sp, #12
 761              		.cfi_def_cfa_offset 12
 762              		@ sp needed
 763 0024 30BD     		pop	{r4, r5, pc}
 764              	.LVL97:
 765              	.L67:
 766 0026 00BF     		.align	2
 767              	.L66:
 768 0028 00000000 		.word	.LANCHOR0
 769              		.cfi_endproc
 770              	.LFE19:
 771              		.size	lv_txt_utf8_get_length, .-lv_txt_utf8_get_length
 772              		.section	.text._lv_txt_is_cmd,"ax",%progbits
 773              		.align	2
 774              		.global	_lv_txt_is_cmd
 775              		.thumb
 776              		.thumb_func
 777              		.type	_lv_txt_is_cmd, %function
 778              	_lv_txt_is_cmd:
 779              	.LFB9:
 398:lvgl\src\lv_misc/lv_txt.c ****     bool ret = false;
 780              		.loc 1 398 0
 781              		.cfi_startproc
 782              		@ args = 0, pretend = 0, frame = 0
 783              		@ frame_needed = 0, uses_anonymous_args = 0
 784              		@ link register save eliminated.
 785              	.LVL98:
 786 0000 0246     		mov	r2, r0
 787              	.LVL99:
 401:lvgl\src\lv_misc/lv_txt.c ****         if(*state == LV_TXT_CMD_STATE_WAIT) { /*Start char*/
 788              		.loc 1 401 0
 789 0002 2329     		cmp	r1, #35
 790 0004 11D1     		bne	.L73
 402:lvgl\src\lv_misc/lv_txt.c ****             *state = LV_TXT_CMD_STATE_PAR;
 791              		.loc 1 402 0
 792 0006 0378     		ldrb	r3, [r0]	@ zero_extendqisi2
 793 0008 1BB9     		cbnz	r3, .L70
 403:lvgl\src\lv_misc/lv_txt.c ****             ret    = true;
 794              		.loc 1 403 0
 795 000a 0123     		movs	r3, #1
ARM GAS  C:\Users\strap\AppData\Local\Temp\ccCgIabb.s 			page 32


 796 000c 0370     		strb	r3, [r0]
 797              	.LVL100:
 404:lvgl\src\lv_misc/lv_txt.c ****         }
 798              		.loc 1 404 0
 799 000e 1846     		mov	r0, r3
 800              	.LVL101:
 801 0010 0EE0     		b	.L69
 802              	.LVL102:
 803              	.L70:
 407:lvgl\src\lv_misc/lv_txt.c ****             *state = LV_TXT_CMD_STATE_WAIT;
 804              		.loc 1 407 0
 805 0012 012B     		cmp	r3, #1
 806 0014 03D1     		bne	.L71
 408:lvgl\src\lv_misc/lv_txt.c ****         }
 807              		.loc 1 408 0
 808 0016 0023     		movs	r3, #0
 809 0018 0370     		strb	r3, [r0]
 399:lvgl\src\lv_misc/lv_txt.c **** 
 810              		.loc 1 399 0
 811 001a 1846     		mov	r0, r3
 812              	.LVL103:
 813 001c 08E0     		b	.L69
 814              	.LVL104:
 815              	.L71:
 411:lvgl\src\lv_misc/lv_txt.c ****             *state = LV_TXT_CMD_STATE_WAIT;
 816              		.loc 1 411 0
 817 001e 022B     		cmp	r3, #2
 818 0020 05D1     		bne	.L74
 412:lvgl\src\lv_misc/lv_txt.c ****             ret    = true;
 819              		.loc 1 412 0
 820 0022 0023     		movs	r3, #0
 821 0024 0370     		strb	r3, [r0]
 822              	.LVL105:
 413:lvgl\src\lv_misc/lv_txt.c ****         }
 823              		.loc 1 413 0
 824 0026 0120     		movs	r0, #1
 825              	.LVL106:
 826 0028 02E0     		b	.L69
 827              	.LVL107:
 828              	.L73:
 399:lvgl\src\lv_misc/lv_txt.c **** 
 829              		.loc 1 399 0
 830 002a 0020     		movs	r0, #0
 831              	.LVL108:
 832 002c 00E0     		b	.L69
 833              	.LVL109:
 834              	.L74:
 835 002e 0020     		movs	r0, #0
 836              	.LVL110:
 837              	.L69:
 418:lvgl\src\lv_misc/lv_txt.c ****         if(c == ' ') {
 838              		.loc 1 418 0
 839 0030 1378     		ldrb	r3, [r2]	@ zero_extendqisi2
 840 0032 012B     		cmp	r3, #1
 841 0034 06D1     		bne	.L72
 419:lvgl\src\lv_misc/lv_txt.c ****             *state = LV_TXT_CMD_STATE_IN; /*After the parameter the text is in the command*/
 842              		.loc 1 419 0
ARM GAS  C:\Users\strap\AppData\Local\Temp\ccCgIabb.s 			page 33


 843 0036 2029     		cmp	r1, #32
 844 0038 03D1     		bne	.L75
 420:lvgl\src\lv_misc/lv_txt.c ****         }
 845              		.loc 1 420 0
 846 003a 0223     		movs	r3, #2
 847 003c 1370     		strb	r3, [r2]
 422:lvgl\src\lv_misc/lv_txt.c ****     }
 848              		.loc 1 422 0
 849 003e 0120     		movs	r0, #1
 850              	.LVL111:
 851 0040 7047     		bx	lr
 852              	.LVL112:
 853              	.L75:
 854 0042 0120     		movs	r0, #1
 855              	.LVL113:
 856              	.L72:
 426:lvgl\src\lv_misc/lv_txt.c **** 
 857              		.loc 1 426 0
 858 0044 7047     		bx	lr
 859              		.cfi_endproc
 860              	.LFE9:
 861              		.size	_lv_txt_is_cmd, .-_lv_txt_is_cmd
 862 0046 00BF     		.section	.text.lv_txt_get_next_word,"ax",%progbits
 863              		.align	2
 864              		.thumb
 865              		.thumb_func
 866              		.type	lv_txt_get_next_word, %function
 867              	lv_txt_get_next_word:
 868              	.LFB6:
 175:lvgl\src\lv_misc/lv_txt.c ****     if(txt == NULL || txt[0] == '\0') return 0;
 869              		.loc 1 175 0
 870              		.cfi_startproc
 871              		@ args = 16, pretend = 0, frame = 32
 872              		@ frame_needed = 0, uses_anonymous_args = 0
 873              	.LVL114:
 874 0000 2DE9F04F 		push	{r4, r5, r6, r7, r8, r9, r10, fp, lr}
 875              		.cfi_def_cfa_offset 36
 876              		.cfi_offset 4, -36
 877              		.cfi_offset 5, -32
 878              		.cfi_offset 6, -28
 879              		.cfi_offset 7, -24
 880              		.cfi_offset 8, -20
 881              		.cfi_offset 9, -16
 882              		.cfi_offset 10, -12
 883              		.cfi_offset 11, -8
 884              		.cfi_offset 14, -4
 885 0004 89B0     		sub	sp, sp, #36
 886              		.cfi_def_cfa_offset 72
 887 0006 0291     		str	r1, [sp, #8]
 888 0008 0392     		str	r2, [sp, #12]
 889 000a 0493     		str	r3, [sp, #16]
 890 000c 9DF848B0 		ldrb	fp, [sp, #72]	@ zero_extendqisi2
 891 0010 9DF85430 		ldrb	r3, [sp, #84]	@ zero_extendqisi2
 892              	.LVL115:
 893 0014 0593     		str	r3, [sp, #20]
 176:lvgl\src\lv_misc/lv_txt.c ****     if(font == NULL) return 0;
 894              		.loc 1 176 0
ARM GAS  C:\Users\strap\AppData\Local\Temp\ccCgIabb.s 			page 34


 895 0016 0028     		cmp	r0, #0
 896 0018 00F08780 		beq	.L94
 897 001c 0746     		mov	r7, r0
 176:lvgl\src\lv_misc/lv_txt.c ****     if(font == NULL) return 0;
 898              		.loc 1 176 0 is_stmt 0 discriminator 2
 899 001e 0378     		ldrb	r3, [r0]	@ zero_extendqisi2
 900 0020 002B     		cmp	r3, #0
 901 0022 00F08480 		beq	.L95
 177:lvgl\src\lv_misc/lv_txt.c **** 
 902              		.loc 1 177 0 is_stmt 1
 903 0026 0029     		cmp	r1, #0
 904 0028 00F08380 		beq	.L96
 179:lvgl\src\lv_misc/lv_txt.c **** 
 905              		.loc 1 179 0
 906 002c 1BF0020F 		tst	fp, #2
 907 0030 02D0     		beq	.L78
 908 0032 47F61843 		movw	r3, #31768
 909 0036 0493     		str	r3, [sp, #16]
 910              	.L78:
 911              	.LVL116:
 181:lvgl\src\lv_misc/lv_txt.c ****     uint32_t letter = 0;      /* Letter at i */
 912              		.loc 1 181 0
 913 0038 0026     		movs	r6, #0
 914 003a 0796     		str	r6, [sp, #28]
 915 003c 0696     		str	r6, [sp, #24]
 916              	.LVL117:
 190:lvgl\src\lv_misc/lv_txt.c ****     i_next_next = i_next;
 917              		.loc 1 190 0
 918 003e 434B     		ldr	r3, .L105
 919 0040 5B68     		ldr	r3, [r3, #4]
 920 0042 07A9     		add	r1, sp, #28
 921              	.LVL118:
 922 0044 3846     		mov	r0, r7
 923              	.LVL119:
 924 0046 9847     		blx	r3
 925              	.LVL120:
 926 0048 0446     		mov	r4, r0
 927              	.LVL121:
 191:lvgl\src\lv_misc/lv_txt.c **** 
 928              		.loc 1 191 0
 929 004a 079B     		ldr	r3, [sp, #28]
 930 004c 0693     		str	r3, [sp, #24]
 187:lvgl\src\lv_misc/lv_txt.c ****     uint32_t break_letter_count = 0; /* Number of characters up to the long word break point */
 931              		.loc 1 187 0
 932 004e 4FF0FF39 		mov	r9, #-1
 186:lvgl\src\lv_misc/lv_txt.c ****     uint32_t break_index = NO_BREAK_FOUND; /* only used for "long" words */
 933              		.loc 1 186 0
 934 0052 B046     		mov	r8, r6
 185:lvgl\src\lv_misc/lv_txt.c ****     uint32_t word_len = 0;   /* Number of characters in the transversed word */
 935              		.loc 1 185 0
 936 0054 3546     		mov	r5, r6
 183:lvgl\src\lv_misc/lv_txt.c ****     lv_coord_t letter_w;
 937              		.loc 1 183 0
 938 0056 0196     		str	r6, [sp, #4]
 194:lvgl\src\lv_misc/lv_txt.c ****         letter_next = _lv_txt_encoded_next(txt, &i_next_next);
 939              		.loc 1 194 0
 940 0058 4FE0     		b	.L79
ARM GAS  C:\Users\strap\AppData\Local\Temp\ccCgIabb.s 			page 35


 941              	.LVL122:
 942              	.L91:
 195:lvgl\src\lv_misc/lv_txt.c ****         word_len++;
 943              		.loc 1 195 0
 944 005a 3C4B     		ldr	r3, .L105
 945 005c 5B68     		ldr	r3, [r3, #4]
 946 005e 06A9     		add	r1, sp, #24
 947 0060 3846     		mov	r0, r7
 948 0062 9847     		blx	r3
 949              	.LVL123:
 950 0064 0190     		str	r0, [sp, #4]
 951              	.LVL124:
 196:lvgl\src\lv_misc/lv_txt.c **** 
 952              		.loc 1 196 0
 953 0066 08F1010A 		add	r10, r8, #1
 954              	.LVL125:
 199:lvgl\src\lv_misc/lv_txt.c ****             if(_lv_txt_is_cmd(cmd_state, letter) != false) {
 955              		.loc 1 199 0
 956 006a 1BF0010F 		tst	fp, #1
 957 006e 08D0     		beq	.L80
 200:lvgl\src\lv_misc/lv_txt.c ****                 i = i_next;
 958              		.loc 1 200 0
 959 0070 2146     		mov	r1, r4
 960 0072 1498     		ldr	r0, [sp, #80]
 961              	.LVL126:
 962 0074 FFF7FEFF 		bl	_lv_txt_is_cmd
 963              	.LVL127:
 964 0078 18B1     		cbz	r0, .L80
 201:lvgl\src\lv_misc/lv_txt.c ****                 i_next = i_next_next;
 965              		.loc 1 201 0
 966 007a 079E     		ldr	r6, [sp, #28]
 967              	.LVL128:
 202:lvgl\src\lv_misc/lv_txt.c ****                 letter = letter_next;
 968              		.loc 1 202 0
 969 007c 069B     		ldr	r3, [sp, #24]
 970 007e 0793     		str	r3, [sp, #28]
 971              	.LVL129:
 204:lvgl\src\lv_misc/lv_txt.c ****             }
 972              		.loc 1 204 0
 973 0080 39E0     		b	.L81
 974              	.LVL130:
 975              	.L80:
 208:lvgl\src\lv_misc/lv_txt.c ****         cur_w += letter_w;
 976              		.loc 1 208 0
 977 0082 019A     		ldr	r2, [sp, #4]
 978 0084 2146     		mov	r1, r4
 979 0086 0298     		ldr	r0, [sp, #8]
 980 0088 FFF7FEFF 		bl	lv_font_get_glyph_width
 981              	.LVL131:
 982 008c 03B2     		sxth	r3, r0
 983              	.LVL132:
 209:lvgl\src\lv_misc/lv_txt.c **** 
 984              		.loc 1 209 0
 985 008e 2844     		add	r0, r0, r5
 986 0090 80B2     		uxth	r0, r0
 987 0092 05B2     		sxth	r5, r0
 988              	.LVL133:
ARM GAS  C:\Users\strap\AppData\Local\Temp\ccCgIabb.s 			page 36


 211:lvgl\src\lv_misc/lv_txt.c ****             cur_w += letter_space;
 989              		.loc 1 211 0
 990 0094 002B     		cmp	r3, #0
 991 0096 02DD     		ble	.L82
 212:lvgl\src\lv_misc/lv_txt.c ****         }
 992              		.loc 1 212 0
 993 0098 039B     		ldr	r3, [sp, #12]
 994              	.LVL134:
 995 009a C518     		adds	r5, r0, r3
 996              	.LVL135:
 997 009c 2DB2     		sxth	r5, r5
 998              	.LVL136:
 999              	.L82:
 216:lvgl\src\lv_misc/lv_txt.c ****             break_index = i;
 1000              		.loc 1 216 0
 1001 009e B9F1FF3F 		cmp	r9, #-1
 1002 00a2 05D1     		bne	.L83
 216:lvgl\src\lv_misc/lv_txt.c ****             break_index = i;
 1003              		.loc 1 216 0 is_stmt 0 discriminator 1
 1004 00a4 039B     		ldr	r3, [sp, #12]
 1005 00a6 EB1A     		subs	r3, r5, r3
 1006 00a8 049A     		ldr	r2, [sp, #16]
 1007 00aa 9342     		cmp	r3, r2
 1008 00ac 00DD     		ble	.L83
 217:lvgl\src\lv_misc/lv_txt.c ****             break_letter_count = word_len - 1;
 1009              		.loc 1 217 0 is_stmt 1
 1010 00ae B146     		mov	r9, r6
 1011              	.LVL137:
 1012              	.L83:
 223:lvgl\src\lv_misc/lv_txt.c ****             /* Update the output width on the first character if it fits.
 1013              		.loc 1 223 0
 1014 00b0 0A2C     		cmp	r4, #10
 1015 00b2 0FD0     		beq	.L84
 223:lvgl\src\lv_misc/lv_txt.c ****             /* Update the output width on the first character if it fits.
 1016              		.loc 1 223 0 is_stmt 0 discriminator 1
 1017 00b4 0D2C     		cmp	r4, #13
 1018 00b6 0DD0     		beq	.L84
 1019 00b8 0023     		movs	r3, #0
 1020 00ba 03E0     		b	.L85
 1021              	.LVL138:
 1022              	.L87:
 1023              	.LBB19:
 1024              	.LBB20:
 722:lvgl\src\lv_misc/lv_txt.c **** 
 723:lvgl\src\lv_misc/lv_txt.c **** #elif LV_TXT_ENC == LV_TXT_ENC_ASCII
 724:lvgl\src\lv_misc/lv_txt.c **** /*******************************
 725:lvgl\src\lv_misc/lv_txt.c ****  *  ASCII ENCODER/DECOER
 726:lvgl\src\lv_misc/lv_txt.c ****  ******************************/
 727:lvgl\src\lv_misc/lv_txt.c **** 
 728:lvgl\src\lv_misc/lv_txt.c **** /**
 729:lvgl\src\lv_misc/lv_txt.c ****  * Give the size of an ISO8859-1 coded character
 730:lvgl\src\lv_misc/lv_txt.c ****  * @param str pointer to a character in a string
 731:lvgl\src\lv_misc/lv_txt.c ****  * @return length of the UTF-8 character (1,2,3 or 4). O on invalid code
 732:lvgl\src\lv_misc/lv_txt.c ****  */
 733:lvgl\src\lv_misc/lv_txt.c **** static uint8_t lv_txt_iso8859_1_size(const char * str)
 734:lvgl\src\lv_misc/lv_txt.c **** {
 735:lvgl\src\lv_misc/lv_txt.c ****     (void)str; /*Unused*/
ARM GAS  C:\Users\strap\AppData\Local\Temp\ccCgIabb.s 			page 37


 736:lvgl\src\lv_misc/lv_txt.c ****     return 1;
 737:lvgl\src\lv_misc/lv_txt.c **** }
 738:lvgl\src\lv_misc/lv_txt.c **** 
 739:lvgl\src\lv_misc/lv_txt.c **** /**
 740:lvgl\src\lv_misc/lv_txt.c ****  * Convert an Unicode letter to ISO8859-1.
 741:lvgl\src\lv_misc/lv_txt.c ****  * @param letter_uni an Unicode letter
 742:lvgl\src\lv_misc/lv_txt.c ****  * @return ISO8859-1 coded character in Little Endian to be compatible with C chars (e.g. 'Á', 'Ű
 743:lvgl\src\lv_misc/lv_txt.c ****  */
 744:lvgl\src\lv_misc/lv_txt.c **** static uint32_t lv_txt_unicode_to_iso8859_1(uint32_t letter_uni)
 745:lvgl\src\lv_misc/lv_txt.c **** {
 746:lvgl\src\lv_misc/lv_txt.c ****     if(letter_uni < 128)
 747:lvgl\src\lv_misc/lv_txt.c ****         return letter_uni;
 748:lvgl\src\lv_misc/lv_txt.c ****     else
 749:lvgl\src\lv_misc/lv_txt.c ****         return ' ';
 750:lvgl\src\lv_misc/lv_txt.c **** }
 751:lvgl\src\lv_misc/lv_txt.c **** 
 752:lvgl\src\lv_misc/lv_txt.c **** /**
 753:lvgl\src\lv_misc/lv_txt.c ****  * Convert wide characters to ASCII, however wide characters in ASCII range (e.g. 'A') are ASCII co
 754:lvgl\src\lv_misc/lv_txt.c ****  * So this function does nothing just returns with `c`.
 755:lvgl\src\lv_misc/lv_txt.c ****  * @param c a character, e.g. 'A'
 756:lvgl\src\lv_misc/lv_txt.c ****  * @return same as `c`
 757:lvgl\src\lv_misc/lv_txt.c ****  */
 758:lvgl\src\lv_misc/lv_txt.c **** static uint32_t lv_txt_iso8859_1_conv_wc(uint32_t c)
 759:lvgl\src\lv_misc/lv_txt.c **** {
 760:lvgl\src\lv_misc/lv_txt.c ****     return c;
 761:lvgl\src\lv_misc/lv_txt.c **** }
 762:lvgl\src\lv_misc/lv_txt.c **** 
 763:lvgl\src\lv_misc/lv_txt.c **** /**
 764:lvgl\src\lv_misc/lv_txt.c ****  * Decode an ISO8859-1 character from a string.
 765:lvgl\src\lv_misc/lv_txt.c ****  * @param txt pointer to '\0' terminated string
 766:lvgl\src\lv_misc/lv_txt.c ****  * @param i start byte index in 'txt' where to start.
 767:lvgl\src\lv_misc/lv_txt.c ****  *          After call it will point to the next UTF-8 char in 'txt'.
 768:lvgl\src\lv_misc/lv_txt.c ****  *          NULL to use txt[0] as index
 769:lvgl\src\lv_misc/lv_txt.c ****  * @return the decoded Unicode character or 0 on invalid UTF-8 code
 770:lvgl\src\lv_misc/lv_txt.c ****  */
 771:lvgl\src\lv_misc/lv_txt.c **** static uint32_t lv_txt_iso8859_1_next(const char * txt, uint32_t * i)
 772:lvgl\src\lv_misc/lv_txt.c **** {
 773:lvgl\src\lv_misc/lv_txt.c ****     if(i == NULL) return txt[1]; /*Get the next char */
 774:lvgl\src\lv_misc/lv_txt.c **** 
 775:lvgl\src\lv_misc/lv_txt.c ****     uint8_t letter = txt[*i];
 776:lvgl\src\lv_misc/lv_txt.c ****     (*i)++;
 777:lvgl\src\lv_misc/lv_txt.c ****     return letter;
 778:lvgl\src\lv_misc/lv_txt.c **** }
 779:lvgl\src\lv_misc/lv_txt.c **** 
 780:lvgl\src\lv_misc/lv_txt.c **** /**
 781:lvgl\src\lv_misc/lv_txt.c ****  * Get previous ISO8859-1 character form a string.
 782:lvgl\src\lv_misc/lv_txt.c ****  * @param txt pointer to '\0' terminated string
 783:lvgl\src\lv_misc/lv_txt.c ****  * @param i start byte index in 'txt' where to start. After the call it will point to the previous 
 784:lvgl\src\lv_misc/lv_txt.c ****  * @return the decoded Unicode character or 0 on invalid UTF-8 code
 785:lvgl\src\lv_misc/lv_txt.c ****  */
 786:lvgl\src\lv_misc/lv_txt.c **** static uint32_t lv_txt_iso8859_1_prev(const char * txt, uint32_t * i)
 787:lvgl\src\lv_misc/lv_txt.c **** {
 788:lvgl\src\lv_misc/lv_txt.c ****     if(i == NULL) return *(txt - 1); /*Get the prev. char */
 789:lvgl\src\lv_misc/lv_txt.c **** 
 790:lvgl\src\lv_misc/lv_txt.c ****     (*i)--;
 791:lvgl\src\lv_misc/lv_txt.c ****     uint8_t letter = txt[*i];
 792:lvgl\src\lv_misc/lv_txt.c **** 
ARM GAS  C:\Users\strap\AppData\Local\Temp\ccCgIabb.s 			page 38


 793:lvgl\src\lv_misc/lv_txt.c ****     return letter;
 794:lvgl\src\lv_misc/lv_txt.c **** }
 795:lvgl\src\lv_misc/lv_txt.c **** 
 796:lvgl\src\lv_misc/lv_txt.c **** /**
 797:lvgl\src\lv_misc/lv_txt.c ****  * Convert a character index (in an ISO8859-1 text) to byte index.
 798:lvgl\src\lv_misc/lv_txt.c ****  * E.g. in "AÁRT" index of 'R' is 2th char but start at byte 3 because 'Á' is 2 bytes long
 799:lvgl\src\lv_misc/lv_txt.c ****  * @param txt a '\0' terminated UTF-8 string
 800:lvgl\src\lv_misc/lv_txt.c ****  * @param utf8_id character index
 801:lvgl\src\lv_misc/lv_txt.c ****  * @return byte index of the 'utf8_id'th letter
 802:lvgl\src\lv_misc/lv_txt.c ****  */
 803:lvgl\src\lv_misc/lv_txt.c **** static uint32_t lv_txt_iso8859_1_get_byte_id(const char * txt, uint32_t utf8_id)
 804:lvgl\src\lv_misc/lv_txt.c **** {
 805:lvgl\src\lv_misc/lv_txt.c ****     (void)txt;      /*Unused*/
 806:lvgl\src\lv_misc/lv_txt.c ****     return utf8_id; /*In Non encoded no difference*/
 807:lvgl\src\lv_misc/lv_txt.c **** }
 808:lvgl\src\lv_misc/lv_txt.c **** 
 809:lvgl\src\lv_misc/lv_txt.c **** /**
 810:lvgl\src\lv_misc/lv_txt.c ****  * Convert a byte index (in an ISO8859-1 text) to character index.
 811:lvgl\src\lv_misc/lv_txt.c ****  * E.g. in "AÁRT" index of 'R' is 2th char but start at byte 3 because 'Á' is 2 bytes long
 812:lvgl\src\lv_misc/lv_txt.c ****  * @param txt a '\0' terminated UTF-8 string
 813:lvgl\src\lv_misc/lv_txt.c ****  * @param byte_id byte index
 814:lvgl\src\lv_misc/lv_txt.c ****  * @return character index of the letter at 'byte_id'th position
 815:lvgl\src\lv_misc/lv_txt.c ****  */
 816:lvgl\src\lv_misc/lv_txt.c **** static uint32_t lv_txt_iso8859_1_get_char_id(const char * txt, uint32_t byte_id)
 817:lvgl\src\lv_misc/lv_txt.c **** {
 818:lvgl\src\lv_misc/lv_txt.c ****     (void)txt;      /*Unused*/
 819:lvgl\src\lv_misc/lv_txt.c ****     return byte_id; /*In Non encoded no difference*/
 820:lvgl\src\lv_misc/lv_txt.c **** }
 821:lvgl\src\lv_misc/lv_txt.c **** 
 822:lvgl\src\lv_misc/lv_txt.c **** /**
 823:lvgl\src\lv_misc/lv_txt.c ****  * Get the number of characters (and NOT bytes) in a string. Decode it with UTF-8 if enabled.
 824:lvgl\src\lv_misc/lv_txt.c ****  * E.g.: "ÁBC" is 3 characters (but 4 bytes)
 825:lvgl\src\lv_misc/lv_txt.c ****  * @param txt a '\0' terminated char string
 826:lvgl\src\lv_misc/lv_txt.c ****  * @return number of characters
 827:lvgl\src\lv_misc/lv_txt.c ****  */
 828:lvgl\src\lv_misc/lv_txt.c **** static uint32_t lv_txt_iso8859_1_get_length(const char * txt)
 829:lvgl\src\lv_misc/lv_txt.c **** {
 830:lvgl\src\lv_misc/lv_txt.c ****     return strlen(txt);
 831:lvgl\src\lv_misc/lv_txt.c **** }
 832:lvgl\src\lv_misc/lv_txt.c **** #else
 833:lvgl\src\lv_misc/lv_txt.c **** 
 834:lvgl\src\lv_misc/lv_txt.c **** #error "Invalid character encoding. See `LV_TXT_ENC` in `lv_conf.h`"
 835:lvgl\src\lv_misc/lv_txt.c **** 
 836:lvgl\src\lv_misc/lv_txt.c **** #endif
 837:lvgl\src\lv_misc/lv_txt.c **** 
 838:lvgl\src\lv_misc/lv_txt.c **** /**********************
 839:lvgl\src\lv_misc/lv_txt.c ****  *   STATIC FUNCTIONS
 840:lvgl\src\lv_misc/lv_txt.c ****  **********************/
 841:lvgl\src\lv_misc/lv_txt.c **** 
 842:lvgl\src\lv_misc/lv_txt.c **** /**
 843:lvgl\src\lv_misc/lv_txt.c ****  * Test if char is break char or not (a text can broken here or not)
 844:lvgl\src\lv_misc/lv_txt.c ****  * @param letter a letter
 845:lvgl\src\lv_misc/lv_txt.c ****  * @return false: 'letter' is not break char
 846:lvgl\src\lv_misc/lv_txt.c ****  */
 847:lvgl\src\lv_misc/lv_txt.c **** static inline bool is_break_char(uint32_t letter)
 848:lvgl\src\lv_misc/lv_txt.c **** {
 849:lvgl\src\lv_misc/lv_txt.c ****     uint8_t i;
ARM GAS  C:\Users\strap\AppData\Local\Temp\ccCgIabb.s 			page 39


 850:lvgl\src\lv_misc/lv_txt.c ****     bool ret = false;
 851:lvgl\src\lv_misc/lv_txt.c **** 
 852:lvgl\src\lv_misc/lv_txt.c ****     /*Compare the letter to TXT_BREAK_CHARS*/
 853:lvgl\src\lv_misc/lv_txt.c ****     for(i = 0; LV_TXT_BREAK_CHARS[i] != '\0'; i++) {
 854:lvgl\src\lv_misc/lv_txt.c ****         if(letter == (uint32_t)LV_TXT_BREAK_CHARS[i]) {
 1025              		.loc 1 854 0 is_stmt 1
 1026 00bc 9442     		cmp	r4, r2
 1027 00be 07D0     		beq	.L99
 853:lvgl\src\lv_misc/lv_txt.c ****         if(letter == (uint32_t)LV_TXT_BREAK_CHARS[i]) {
 1028              		.loc 1 853 0
 1029 00c0 0133     		adds	r3, r3, #1
 1030              	.LVL139:
 1031 00c2 DBB2     		uxtb	r3, r3
 1032              	.LVL140:
 1033              	.L85:
 1034 00c4 224A     		ldr	r2, .L105+4
 1035 00c6 D25C     		ldrb	r2, [r2, r3]	@ zero_extendqisi2
 1036 00c8 002A     		cmp	r2, #0
 1037 00ca F7D1     		bne	.L87
 850:lvgl\src\lv_misc/lv_txt.c **** 
 1038              		.loc 1 850 0
 1039 00cc 0023     		movs	r3, #0
 1040              	.LVL141:
 1041 00ce 00E0     		b	.L86
 1042              	.LVL142:
 1043              	.L99:
 855:lvgl\src\lv_misc/lv_txt.c ****             ret = true; /*If match then it is break char*/
 1044              		.loc 1 855 0
 1045 00d0 0123     		movs	r3, #1
 1046              	.LVL143:
 1047              	.L86:
 1048              	.LBE20:
 1049              	.LBE19:
 223:lvgl\src\lv_misc/lv_txt.c ****             /* Update the output width on the first character if it fits.
 1050              		.loc 1 223 0
 1051 00d2 3BB1     		cbz	r3, .L88
 1052              	.L84:
 226:lvgl\src\lv_misc/lv_txt.c ****             word_len--;
 1053              		.loc 1 226 0
 1054 00d4 A6B9     		cbnz	r6, .L89
 226:lvgl\src\lv_misc/lv_txt.c ****             word_len--;
 1055              		.loc 1 226 0 is_stmt 0 discriminator 1
 1056 00d6 B9F1FF3F 		cmp	r9, #-1
 1057 00da 11D1     		bne	.L89
 226:lvgl\src\lv_misc/lv_txt.c ****             word_len--;
 1058              		.loc 1 226 0 discriminator 2
 1059 00dc 139B     		ldr	r3, [sp, #76]
 1060 00de 7BB1     		cbz	r3, .L89
 226:lvgl\src\lv_misc/lv_txt.c ****             word_len--;
 1061              		.loc 1 226 0 discriminator 3
 1062 00e0 1D60     		str	r5, [r3]
 1063 00e2 0DE0     		b	.L89
 1064              	.L88:
 232:lvgl\src\lv_misc/lv_txt.c **** 
 1065              		.loc 1 232 0 is_stmt 1
 1066 00e4 139B     		ldr	r3, [sp, #76]
 1067 00e6 1BB1     		cbz	r3, .L90
ARM GAS  C:\Users\strap\AppData\Local\Temp\ccCgIabb.s 			page 40


 232:lvgl\src\lv_misc/lv_txt.c **** 
 1068              		.loc 1 232 0 is_stmt 0 discriminator 1
 1069 00e8 B9F1FF3F 		cmp	r9, #-1
 1070 00ec 00D1     		bne	.L90
 232:lvgl\src\lv_misc/lv_txt.c **** 
 1071              		.loc 1 232 0 discriminator 2
 1072 00ee 1D60     		str	r5, [r3]
 1073              	.L90:
 235:lvgl\src\lv_misc/lv_txt.c ****         i_next = i_next_next;
 1074              		.loc 1 235 0 is_stmt 1
 1075 00f0 079E     		ldr	r6, [sp, #28]
 1076              	.LVL144:
 236:lvgl\src\lv_misc/lv_txt.c ****         letter = letter_next;
 1077              		.loc 1 236 0
 1078 00f2 069B     		ldr	r3, [sp, #24]
 1079 00f4 0793     		str	r3, [sp, #28]
 1080              	.LVL145:
 1081              	.L81:
 1082              	.LBB22:
 1083              	.LBB21:
 850:lvgl\src\lv_misc/lv_txt.c **** 
 1084              		.loc 1 850 0
 1085 00f6 D046     		mov	r8, r10
 1086 00f8 019C     		ldr	r4, [sp, #4]
 1087              	.LVL146:
 1088              	.L79:
 1089              	.LBE21:
 1090              	.LBE22:
 194:lvgl\src\lv_misc/lv_txt.c ****         letter_next = _lv_txt_encoded_next(txt, &i_next_next);
 1091              		.loc 1 194 0
 1092 00fa BB5D     		ldrb	r3, [r7, r6]	@ zero_extendqisi2
 1093 00fc 002B     		cmp	r3, #0
 1094 00fe ACD1     		bne	.L91
 1095              	.LVL147:
 1096              	.L89:
 241:lvgl\src\lv_misc/lv_txt.c ****         if(word_len == 0 || (letter == '\r' && letter_next == '\n')) i = i_next;
 1097              		.loc 1 241 0
 1098 0100 B9F1FF3F 		cmp	r9, #-1
 1099 0104 09D1     		bne	.L92
 242:lvgl\src\lv_misc/lv_txt.c ****         return i;
 1100              		.loc 1 242 0
 1101 0106 B8F1000F 		cmp	r8, #0
 1102 010a 04D0     		beq	.L93
 242:lvgl\src\lv_misc/lv_txt.c ****         return i;
 1103              		.loc 1 242 0 is_stmt 0 discriminator 2
 1104 010c 0D2C     		cmp	r4, #13
 1105 010e 12D1     		bne	.L100
 242:lvgl\src\lv_misc/lv_txt.c ****         return i;
 1106              		.loc 1 242 0 discriminator 3
 1107 0110 019B     		ldr	r3, [sp, #4]
 1108 0112 0A2B     		cmp	r3, #10
 1109 0114 11D1     		bne	.L101
 1110              	.L93:
 242:lvgl\src\lv_misc/lv_txt.c ****         return i;
 1111              		.loc 1 242 0 discriminator 4
 1112 0116 0798     		ldr	r0, [sp, #28]
 1113              	.LVL148:
ARM GAS  C:\Users\strap\AppData\Local\Temp\ccCgIabb.s 			page 41


 1114 0118 14E0     		b	.L77
 1115              	.LVL149:
 1116              	.L92:
 274:lvgl\src\lv_misc/lv_txt.c ****     if(word_w_ptr != NULL) *word_w_ptr = 0; /* Return no word */
 1117              		.loc 1 274 0 is_stmt 1
 1118 011a 059B     		ldr	r3, [sp, #20]
 1119 011c 7BB9     		cbnz	r3, .L102
 275:lvgl\src\lv_misc/lv_txt.c ****     (void) break_letter_count;
 1120              		.loc 1 275 0
 1121 011e 139B     		ldr	r3, [sp, #76]
 1122 0120 7BB1     		cbz	r3, .L103
 275:lvgl\src\lv_misc/lv_txt.c ****     (void) break_letter_count;
 1123              		.loc 1 275 0 is_stmt 0 discriminator 1
 1124 0122 0026     		movs	r6, #0
 1125              	.LVL150:
 1126 0124 1E60     		str	r6, [r3]
 277:lvgl\src\lv_misc/lv_txt.c **** #endif
 1127              		.loc 1 277 0 is_stmt 1 discriminator 1
 1128 0126 3046     		mov	r0, r6
 1129 0128 0CE0     		b	.L77
 1130              	.LVL151:
 1131              	.L94:
 176:lvgl\src\lv_misc/lv_txt.c ****     if(font == NULL) return 0;
 1132              		.loc 1 176 0
 1133 012a 0020     		movs	r0, #0
 1134              	.LVL152:
 1135 012c 0AE0     		b	.L77
 1136              	.LVL153:
 1137              	.L95:
 1138 012e 0020     		movs	r0, #0
 1139              	.LVL154:
 1140 0130 08E0     		b	.L77
 1141              	.LVL155:
 1142              	.L96:
 177:lvgl\src\lv_misc/lv_txt.c **** 
 1143              		.loc 1 177 0
 1144 0132 0020     		movs	r0, #0
 1145              	.LVL156:
 1146 0134 06E0     		b	.L77
 1147              	.LVL157:
 1148              	.L100:
 1149 0136 3046     		mov	r0, r6
 1150 0138 04E0     		b	.L77
 1151              	.LVL158:
 1152              	.L101:
 1153 013a 3046     		mov	r0, r6
 1154 013c 02E0     		b	.L77
 1155              	.LVL159:
 1156              	.L102:
 274:lvgl\src\lv_misc/lv_txt.c ****     if(word_w_ptr != NULL) *word_w_ptr = 0; /* Return no word */
 1157              		.loc 1 274 0
 1158 013e 4846     		mov	r0, r9
 1159 0140 00E0     		b	.L77
 1160              	.L103:
 277:lvgl\src\lv_misc/lv_txt.c **** #endif
 1161              		.loc 1 277 0
 1162 0142 0020     		movs	r0, #0
ARM GAS  C:\Users\strap\AppData\Local\Temp\ccCgIabb.s 			page 42


 1163              	.LVL160:
 1164              	.L77:
 279:lvgl\src\lv_misc/lv_txt.c **** 
 1165              		.loc 1 279 0
 1166 0144 09B0     		add	sp, sp, #36
 1167              		.cfi_def_cfa_offset 36
 1168              		@ sp needed
 1169 0146 BDE8F08F 		pop	{r4, r5, r6, r7, r8, r9, r10, fp, pc}
 1170              	.LVL161:
 1171              	.L106:
 1172 014a 00BF     		.align	2
 1173              	.L105:
 1174 014c 00000000 		.word	.LANCHOR0
 1175 0150 00000000 		.word	.LC0
 1176              		.cfi_endproc
 1177              	.LFE6:
 1178              		.size	lv_txt_get_next_word, .-lv_txt_get_next_word
 1179              		.section	.text._lv_txt_get_next_line,"ax",%progbits
 1180              		.align	2
 1181              		.global	_lv_txt_get_next_line
 1182              		.thumb
 1183              		.thumb_func
 1184              		.type	_lv_txt_get_next_line, %function
 1185              	_lv_txt_get_next_line:
 1186              	.LFB7:
 295:lvgl\src\lv_misc/lv_txt.c ****     if(txt == NULL) return 0;
 1187              		.loc 1 295 0
 1188              		.cfi_startproc
 1189              		@ args = 4, pretend = 0, frame = 16
 1190              		@ frame_needed = 0, uses_anonymous_args = 0
 1191              	.LVL162:
 1192 0000 2DE9F041 		push	{r4, r5, r6, r7, r8, lr}
 1193              		.cfi_def_cfa_offset 24
 1194              		.cfi_offset 4, -24
 1195              		.cfi_offset 5, -20
 1196              		.cfi_offset 6, -16
 1197              		.cfi_offset 7, -12
 1198              		.cfi_offset 8, -8
 1199              		.cfi_offset 14, -4
 1200 0004 88B0     		sub	sp, sp, #32
 1201              		.cfi_def_cfa_offset 56
 1202 0006 9DF83860 		ldrb	r6, [sp, #56]	@ zero_extendqisi2
 296:lvgl\src\lv_misc/lv_txt.c ****     if(font == NULL) return 0;
 1203              		.loc 1 296 0
 1204 000a 0028     		cmp	r0, #0
 1205 000c 5ED0     		beq	.L122
 1206 000e 0F46     		mov	r7, r1
 1207 0010 9046     		mov	r8, r2
 1208 0012 1D46     		mov	r5, r3
 1209 0014 0446     		mov	r4, r0
 297:lvgl\src\lv_misc/lv_txt.c **** 
 1210              		.loc 1 297 0
 1211 0016 0029     		cmp	r1, #0
 1212 0018 5AD0     		beq	.L123
 301:lvgl\src\lv_misc/lv_txt.c ****         uint32_t i;
 1213              		.loc 1 301 0
 1214 001a 16F0120F 		tst	r6, #18
ARM GAS  C:\Users\strap\AppData\Local\Temp\ccCgIabb.s 			page 43


 1215 001e 02D1     		bne	.L124
 1216 0020 0DE0     		b	.L127
 1217              	.LVL163:
 1218              	.L112:
 1219              	.LBB23:
 303:lvgl\src\lv_misc/lv_txt.c ****             /*Just find the new line chars or string ends by incrementing `i`*/
 1220              		.loc 1 303 0 discriminator 5
 1221 0022 0130     		adds	r0, r0, #1
 1222              	.LVL164:
 1223 0024 00E0     		b	.L109
 1224              	.LVL165:
 1225              	.L124:
 1226              	.LBE23:
 1227 0026 0020     		movs	r0, #0
 1228              	.LVL166:
 1229              	.L109:
 1230              	.LBB24:
 303:lvgl\src\lv_misc/lv_txt.c ****             /*Just find the new line chars or string ends by incrementing `i`*/
 1231              		.loc 1 303 0 is_stmt 0 discriminator 1
 1232 0028 235C     		ldrb	r3, [r4, r0]	@ zero_extendqisi2
 1233 002a 0A2B     		cmp	r3, #10
 1234 002c 03D0     		beq	.L111
 303:lvgl\src\lv_misc/lv_txt.c ****             /*Just find the new line chars or string ends by incrementing `i`*/
 1235              		.loc 1 303 0 discriminator 3
 1236 002e 0D2B     		cmp	r3, #13
 1237 0030 01D0     		beq	.L111
 303:lvgl\src\lv_misc/lv_txt.c ****             /*Just find the new line chars or string ends by incrementing `i`*/
 1238              		.loc 1 303 0 discriminator 4
 1239 0032 002B     		cmp	r3, #0
 1240 0034 F5D1     		bne	.L112
 1241              	.L111:
 306:lvgl\src\lv_misc/lv_txt.c ****         return i;
 1242              		.loc 1 306 0 is_stmt 1
 1243 0036 002B     		cmp	r3, #0
 1244 0038 4BD0     		beq	.L108
 306:lvgl\src\lv_misc/lv_txt.c ****         return i;
 1245              		.loc 1 306 0 is_stmt 0 discriminator 1
 1246 003a 0130     		adds	r0, r0, #1
 1247              	.LVL167:
 1248 003c 49E0     		b	.L108
 1249              	.LVL168:
 1250              	.L127:
 1251              	.LBE24:
 310:lvgl\src\lv_misc/lv_txt.c ****     lv_txt_cmd_state_t cmd_state = LV_TXT_CMD_STATE_WAIT;
 1252              		.loc 1 310 0 is_stmt 1
 1253 003e 16F0020F 		tst	r6, #2
 1254 0042 01D0     		beq	.L113
 1255 0044 47F61845 		movw	r5, #31768
 1256              	.L113:
 1257              	.LVL169:
 311:lvgl\src\lv_misc/lv_txt.c ****     uint32_t i = 0;                                        /* Iterating index into txt */
 1258              		.loc 1 311 0
 1259 0048 0023     		movs	r3, #0
 1260 004a 8DF81F30 		strb	r3, [sp, #31]
 312:lvgl\src\lv_misc/lv_txt.c **** 
 1261              		.loc 1 312 0
 1262 004e 0693     		str	r3, [sp, #24]
ARM GAS  C:\Users\strap\AppData\Local\Temp\ccCgIabb.s 			page 44


 314:lvgl\src\lv_misc/lv_txt.c ****         uint32_t word_w = 0;
 1263              		.loc 1 314 0
 1264 0050 2DE0     		b	.L114
 1265              	.LVL170:
 1266              	.L120:
 1267              	.LBB25:
 315:lvgl\src\lv_misc/lv_txt.c ****         uint32_t advance = lv_txt_get_next_word(&txt[i], font, letter_space, max_width, flag, &word
 1268              		.loc 1 315 0
 1269 0052 0022     		movs	r2, #0
 1270 0054 0592     		str	r2, [sp, #20]
 316:lvgl\src\lv_misc/lv_txt.c ****         max_width -= word_w;
 1271              		.loc 1 316 0
 1272 0056 B3FA83F3 		clz	r3, r3
 1273 005a 5B09     		lsrs	r3, r3, #5
 1274 005c 0393     		str	r3, [sp, #12]
 1275 005e 0DF11F03 		add	r3, sp, #31
 1276 0062 0293     		str	r3, [sp, #8]
 1277 0064 05AB     		add	r3, sp, #20
 1278 0066 0193     		str	r3, [sp, #4]
 1279 0068 0096     		str	r6, [sp]
 1280 006a 2B46     		mov	r3, r5
 1281 006c 4246     		mov	r2, r8
 1282 006e 3946     		mov	r1, r7
 1283 0070 FFF7FEFF 		bl	lv_txt_get_next_word
 1284              	.LVL171:
 317:lvgl\src\lv_misc/lv_txt.c **** 
 1285              		.loc 1 317 0
 1286 0074 059B     		ldr	r3, [sp, #20]
 1287 0076 ED1A     		subs	r5, r5, r3
 1288              	.LVL172:
 1289 0078 2DB2     		sxth	r5, r5
 1290              	.LVL173:
 319:lvgl\src\lv_misc/lv_txt.c ****             if(i == 0) _lv_txt_encoded_next(txt, &i); // prevent inf loops
 1291              		.loc 1 319 0
 1292 007a 0346     		mov	r3, r0
 1293 007c 38B9     		cbnz	r0, .L115
 320:lvgl\src\lv_misc/lv_txt.c ****             break;
 1294              		.loc 1 320 0
 1295 007e 069B     		ldr	r3, [sp, #24]
 1296 0080 DBB9     		cbnz	r3, .L119
 320:lvgl\src\lv_misc/lv_txt.c ****             break;
 1297              		.loc 1 320 0 is_stmt 0 discriminator 1
 1298 0082 154B     		ldr	r3, .L129
 1299 0084 5B68     		ldr	r3, [r3, #4]
 1300 0086 06A9     		add	r1, sp, #24
 1301 0088 2046     		mov	r0, r4
 1302              	.LVL174:
 1303 008a 9847     		blx	r3
 1304              	.LVL175:
 1305 008c 15E0     		b	.L119
 1306              	.LVL176:
 1307              	.L115:
 324:lvgl\src\lv_misc/lv_txt.c **** 
 1308              		.loc 1 324 0 is_stmt 1
 1309 008e 0698     		ldr	r0, [sp, #24]
 1310              	.LVL177:
 1311 0090 1844     		add	r0, r0, r3
ARM GAS  C:\Users\strap\AppData\Local\Temp\ccCgIabb.s 			page 45


 1312 0092 0690     		str	r0, [sp, #24]
 326:lvgl\src\lv_misc/lv_txt.c **** 
 1313              		.loc 1 326 0
 1314 0094 2378     		ldrb	r3, [r4]	@ zero_extendqisi2
 1315              	.LVL178:
 1316 0096 0A2B     		cmp	r3, #10
 1317 0098 0FD0     		beq	.L119
 326:lvgl\src\lv_misc/lv_txt.c **** 
 1318              		.loc 1 326 0 is_stmt 0 discriminator 1
 1319 009a 0D2B     		cmp	r3, #13
 1320 009c 0DD0     		beq	.L119
 328:lvgl\src\lv_misc/lv_txt.c ****             i++;  /* Include the following newline in the current line */
 1321              		.loc 1 328 0 is_stmt 1
 1322 009e 235C     		ldrb	r3, [r4, r0]	@ zero_extendqisi2
 1323 00a0 0A2B     		cmp	r3, #10
 1324 00a2 01D0     		beq	.L117
 328:lvgl\src\lv_misc/lv_txt.c ****             i++;  /* Include the following newline in the current line */
 1325              		.loc 1 328 0 is_stmt 0 discriminator 1
 1326 00a4 0D2B     		cmp	r3, #13
 1327 00a6 02D1     		bne	.L114
 1328              	.L117:
 329:lvgl\src\lv_misc/lv_txt.c ****             break;
 1329              		.loc 1 329 0 is_stmt 1
 1330 00a8 0130     		adds	r0, r0, #1
 1331 00aa 0690     		str	r0, [sp, #24]
 330:lvgl\src\lv_misc/lv_txt.c ****         }
 1332              		.loc 1 330 0
 1333 00ac 05E0     		b	.L119
 1334              	.L114:
 1335              	.LBE25:
 314:lvgl\src\lv_misc/lv_txt.c ****         uint32_t word_w = 0;
 1336              		.loc 1 314 0
 1337 00ae 069B     		ldr	r3, [sp, #24]
 1338 00b0 E018     		adds	r0, r4, r3
 1339 00b2 E25C     		ldrb	r2, [r4, r3]	@ zero_extendqisi2
 1340 00b4 0AB1     		cbz	r2, .L119
 314:lvgl\src\lv_misc/lv_txt.c ****         uint32_t word_w = 0;
 1341              		.loc 1 314 0 is_stmt 0 discriminator 1
 1342 00b6 002D     		cmp	r5, #0
 1343 00b8 CBDC     		bgt	.L120
 1344              	.L119:
 336:lvgl\src\lv_misc/lv_txt.c ****         _lv_txt_encoded_next(txt, &i);
 1345              		.loc 1 336 0 is_stmt 1
 1346 00ba 069B     		ldr	r3, [sp, #24]
 1347 00bc 23B9     		cbnz	r3, .L121
 337:lvgl\src\lv_misc/lv_txt.c ****     }
 1348              		.loc 1 337 0
 1349 00be 064B     		ldr	r3, .L129
 1350 00c0 5B68     		ldr	r3, [r3, #4]
 1351 00c2 06A9     		add	r1, sp, #24
 1352 00c4 2046     		mov	r0, r4
 1353 00c6 9847     		blx	r3
 1354              	.LVL179:
 1355              	.L121:
 340:lvgl\src\lv_misc/lv_txt.c **** }
 1356              		.loc 1 340 0
 1357 00c8 0698     		ldr	r0, [sp, #24]
ARM GAS  C:\Users\strap\AppData\Local\Temp\ccCgIabb.s 			page 46


 1358 00ca 02E0     		b	.L108
 1359              	.LVL180:
 1360              	.L122:
 296:lvgl\src\lv_misc/lv_txt.c ****     if(font == NULL) return 0;
 1361              		.loc 1 296 0
 1362 00cc 0020     		movs	r0, #0
 1363              	.LVL181:
 1364 00ce 00E0     		b	.L108
 1365              	.LVL182:
 1366              	.L123:
 297:lvgl\src\lv_misc/lv_txt.c **** 
 1367              		.loc 1 297 0
 1368 00d0 0020     		movs	r0, #0
 1369              	.LVL183:
 1370              	.L108:
 341:lvgl\src\lv_misc/lv_txt.c **** 
 1371              		.loc 1 341 0
 1372 00d2 08B0     		add	sp, sp, #32
 1373              		.cfi_def_cfa_offset 24
 1374              		@ sp needed
 1375 00d4 BDE8F081 		pop	{r4, r5, r6, r7, r8, pc}
 1376              	.LVL184:
 1377              	.L130:
 1378              		.align	2
 1379              	.L129:
 1380 00d8 00000000 		.word	.LANCHOR0
 1381              		.cfi_endproc
 1382              	.LFE7:
 1383              		.size	_lv_txt_get_next_line, .-_lv_txt_get_next_line
 1384              		.section	.text._lv_txt_get_width,"ax",%progbits
 1385              		.align	2
 1386              		.global	_lv_txt_get_width
 1387              		.thumb
 1388              		.thumb_func
 1389              		.type	_lv_txt_get_width, %function
 1390              	_lv_txt_get_width:
 1391              	.LFB8:
 355:lvgl\src\lv_misc/lv_txt.c ****     if(txt == NULL) return 0;
 1392              		.loc 1 355 0
 1393              		.cfi_startproc
 1394              		@ args = 4, pretend = 0, frame = 8
 1395              		@ frame_needed = 0, uses_anonymous_args = 0
 1396              	.LVL185:
 1397 0000 2DE9F04F 		push	{r4, r5, r6, r7, r8, r9, r10, fp, lr}
 1398              		.cfi_def_cfa_offset 36
 1399              		.cfi_offset 4, -36
 1400              		.cfi_offset 5, -32
 1401              		.cfi_offset 6, -28
 1402              		.cfi_offset 7, -24
 1403              		.cfi_offset 8, -20
 1404              		.cfi_offset 9, -16
 1405              		.cfi_offset 10, -12
 1406              		.cfi_offset 11, -8
 1407              		.cfi_offset 14, -4
 1408 0004 83B0     		sub	sp, sp, #12
 1409              		.cfi_def_cfa_offset 48
 1410 0006 9DF83080 		ldrb	r8, [sp, #48]	@ zero_extendqisi2
ARM GAS  C:\Users\strap\AppData\Local\Temp\ccCgIabb.s 			page 47


 356:lvgl\src\lv_misc/lv_txt.c ****     if(font == NULL) return 0;
 1411              		.loc 1 356 0
 1412 000a 0028     		cmp	r0, #0
 1413 000c 3BD0     		beq	.L137
 1414 000e 0546     		mov	r5, r0
 357:lvgl\src\lv_misc/lv_txt.c **** 
 1415              		.loc 1 357 0
 1416 0010 002A     		cmp	r2, #0
 1417 0012 3AD0     		beq	.L138
 359:lvgl\src\lv_misc/lv_txt.c ****     lv_coord_t width             = 0;
 1418              		.loc 1 359 0
 1419 0014 0020     		movs	r0, #0
 1420              	.LVL186:
 1421 0016 0190     		str	r0, [sp, #4]
 1422              	.LVL187:
 361:lvgl\src\lv_misc/lv_txt.c **** 
 1423              		.loc 1 361 0
 1424 0018 8DF80300 		strb	r0, [sp, #3]
 363:lvgl\src\lv_misc/lv_txt.c ****         while(i < length) {
 1425              		.loc 1 363 0
 1426 001c 21BB     		cbnz	r1, .L139
 1427 001e 37E0     		b	.L132
 1428              	.LVL188:
 1429              	.L136:
 1430              	.LBB26:
 365:lvgl\src\lv_misc/lv_txt.c ****             uint32_t letter_next = _lv_txt_encoded_next(&txt[i], NULL);
 1431              		.loc 1 365 0
 1432 0020 1D4C     		ldr	r4, .L142
 1433 0022 6368     		ldr	r3, [r4, #4]
 1434 0024 01A9     		add	r1, sp, #4
 1435 0026 2846     		mov	r0, r5
 1436 0028 9847     		blx	r3
 1437              	.LVL189:
 1438 002a 8346     		mov	fp, r0
 1439              	.LVL190:
 366:lvgl\src\lv_misc/lv_txt.c ****             if((flag & LV_TXT_FLAG_RECOLOR) != 0) {
 1440              		.loc 1 366 0
 1441 002c 6368     		ldr	r3, [r4, #4]
 1442 002e 0021     		movs	r1, #0
 1443 0030 0198     		ldr	r0, [sp, #4]
 1444              	.LVL191:
 1445 0032 2844     		add	r0, r0, r5
 1446 0034 9847     		blx	r3
 1447              	.LVL192:
 1448 0036 0446     		mov	r4, r0
 1449              	.LVL193:
 367:lvgl\src\lv_misc/lv_txt.c ****                 if(_lv_txt_is_cmd(&cmd_state, letter) != false) {
 1450              		.loc 1 367 0
 1451 0038 18F0010F 		tst	r8, #1
 1452 003c 05D0     		beq	.L134
 368:lvgl\src\lv_misc/lv_txt.c ****                     continue;
 1453              		.loc 1 368 0
 1454 003e 5946     		mov	r1, fp
 1455 0040 0DF10300 		add	r0, sp, #3
 1456              	.LVL194:
 1457 0044 FFF7FEFF 		bl	_lv_txt_is_cmd
 1458              	.LVL195:
ARM GAS  C:\Users\strap\AppData\Local\Temp\ccCgIabb.s 			page 48


 1459 0048 98B9     		cbnz	r0, .L133
 1460              	.L134:
 373:lvgl\src\lv_misc/lv_txt.c ****             if(char_width > 0) {
 1461              		.loc 1 373 0
 1462 004a 2246     		mov	r2, r4
 1463 004c 5946     		mov	r1, fp
 1464 004e 3846     		mov	r0, r7
 1465 0050 FFF7FEFF 		bl	lv_font_get_glyph_width
 1466              	.LVL196:
 1467 0054 03B2     		sxth	r3, r0
 1468              	.LVL197:
 374:lvgl\src\lv_misc/lv_txt.c ****                 width += char_width;
 1469              		.loc 1 374 0
 1470 0056 002B     		cmp	r3, #0
 1471 0058 0BDD     		ble	.L133
 375:lvgl\src\lv_misc/lv_txt.c ****                 width += letter_space;
 1472              		.loc 1 375 0
 1473 005a 00EB0A04 		add	r4, r0, r10
 1474              	.LVL198:
 1475 005e A4B2     		uxth	r4, r4
 1476              	.LVL199:
 376:lvgl\src\lv_misc/lv_txt.c ****             }
 1477              		.loc 1 376 0
 1478 0060 4C44     		add	r4, r4, r9
 1479              	.LVL200:
 1480 0062 0FFA84FA 		sxth	r10, r4
 1481              	.LVL201:
 1482 0066 04E0     		b	.L133
 1483              	.LVL202:
 1484              	.L139:
 1485 0068 9946     		mov	r9, r3
 1486 006a 1746     		mov	r7, r2
 1487 006c 0E46     		mov	r6, r1
 1488              	.LBE26:
 1489 006e 4FF0000A 		mov	r10, #0
 1490              	.LVL203:
 1491              	.L133:
 364:lvgl\src\lv_misc/lv_txt.c ****             uint32_t letter      = _lv_txt_encoded_next(txt, &i);
 1492              		.loc 1 364 0
 1493 0072 019B     		ldr	r3, [sp, #4]
 1494 0074 9E42     		cmp	r6, r3
 1495 0076 D3D8     		bhi	.L136
 380:lvgl\src\lv_misc/lv_txt.c ****             width -= letter_space; /*Trim the last letter space. Important if the text is center
 1496              		.loc 1 380 0
 1497 0078 BAF1000F 		cmp	r10, #0
 1498 007c 07DD     		ble	.L140
 381:lvgl\src\lv_misc/lv_txt.c ****                                       aligned */
 1499              		.loc 1 381 0
 1500 007e C9EB0A04 		rsb	r4, r9, r10
 1501 0082 20B2     		sxth	r0, r4
 1502              	.LVL204:
 1503 0084 04E0     		b	.L132
 1504              	.LVL205:
 1505              	.L137:
 356:lvgl\src\lv_misc/lv_txt.c ****     if(font == NULL) return 0;
 1506              		.loc 1 356 0
 1507 0086 0020     		movs	r0, #0
ARM GAS  C:\Users\strap\AppData\Local\Temp\ccCgIabb.s 			page 49


 1508              	.LVL206:
 1509 0088 02E0     		b	.L132
 1510              	.LVL207:
 1511              	.L138:
 357:lvgl\src\lv_misc/lv_txt.c **** 
 1512              		.loc 1 357 0
 1513 008a 0020     		movs	r0, #0
 1514              	.LVL208:
 1515 008c 00E0     		b	.L132
 1516              	.LVL209:
 1517              	.L140:
 1518 008e 5046     		mov	r0, r10
 1519              	.LVL210:
 1520              	.L132:
 387:lvgl\src\lv_misc/lv_txt.c **** 
 1521              		.loc 1 387 0
 1522 0090 03B0     		add	sp, sp, #12
 1523              		.cfi_def_cfa_offset 36
 1524              		@ sp needed
 1525 0092 BDE8F08F 		pop	{r4, r5, r6, r7, r8, r9, r10, fp, pc}
 1526              	.LVL211:
 1527              	.L143:
 1528 0096 00BF     		.align	2
 1529              	.L142:
 1530 0098 00000000 		.word	.LANCHOR0
 1531              		.cfi_endproc
 1532              	.LFE8:
 1533              		.size	_lv_txt_get_width, .-_lv_txt_get_width
 1534              		.section	.text._lv_txt_get_size,"ax",%progbits
 1535              		.align	2
 1536              		.global	_lv_txt_get_size
 1537              		.thumb
 1538              		.thumb_func
 1539              		.type	_lv_txt_get_size, %function
 1540              	_lv_txt_get_size:
 1541              	.LFB5:
  95:lvgl\src\lv_misc/lv_txt.c ****     size_res->x = 0;
 1542              		.loc 1 95 0
 1543              		.cfi_startproc
 1544              		@ args = 12, pretend = 0, frame = 16
 1545              		@ frame_needed = 0, uses_anonymous_args = 0
 1546              	.LVL212:
 1547 0000 2DE9F04F 		push	{r4, r5, r6, r7, r8, r9, r10, fp, lr}
 1548              		.cfi_def_cfa_offset 36
 1549              		.cfi_offset 4, -36
 1550              		.cfi_offset 5, -32
 1551              		.cfi_offset 6, -28
 1552              		.cfi_offset 7, -24
 1553              		.cfi_offset 8, -20
 1554              		.cfi_offset 9, -16
 1555              		.cfi_offset 10, -12
 1556              		.cfi_offset 11, -8
 1557              		.cfi_offset 14, -4
 1558 0004 87B0     		sub	sp, sp, #28
 1559              		.cfi_def_cfa_offset 64
 1560 0006 BDF940A0 		ldrsh	r10, [sp, #64]
 1561 000a BDF94440 		ldrsh	r4, [sp, #68]
ARM GAS  C:\Users\strap\AppData\Local\Temp\ccCgIabb.s 			page 50


 1562 000e 0494     		str	r4, [sp, #16]
 1563 0010 9DF84870 		ldrb	r7, [sp, #72]	@ zero_extendqisi2
  96:lvgl\src\lv_misc/lv_txt.c ****     size_res->y = 0;
 1564              		.loc 1 96 0
 1565 0014 0024     		movs	r4, #0
 1566 0016 0480     		strh	r4, [r0]	@ movhi
  97:lvgl\src\lv_misc/lv_txt.c **** 
 1567              		.loc 1 97 0
 1568 0018 4480     		strh	r4, [r0, #2]	@ movhi
  99:lvgl\src\lv_misc/lv_txt.c ****     if(font == NULL) return;
 1569              		.loc 1 99 0
 1570 001a 0029     		cmp	r1, #0
 1571 001c 51D0     		beq	.L144
 1572 001e 8846     		mov	r8, r1
 100:lvgl\src\lv_misc/lv_txt.c **** 
 1573              		.loc 1 100 0
 1574 0020 002A     		cmp	r2, #0
 1575 0022 4ED0     		beq	.L144
 102:lvgl\src\lv_misc/lv_txt.c **** 
 1576              		.loc 1 102 0
 1577 0024 17F0020F 		tst	r7, #2
 1578 0028 02D0     		beq	.L146
 1579 002a 47F61841 		movw	r1, #31768
 1580              	.LVL213:
 1581 002e 0491     		str	r1, [sp, #16]
 1582              	.L146:
 1583 0030 0393     		str	r3, [sp, #12]
 1584 0032 9146     		mov	r9, r2
 1585 0034 0446     		mov	r4, r0
 1586              	.LVL214:
 1587              	.LBB27:
 1588              	.LBB28:
 1589              		.file 3 "lvgl\\src\\lv_misc\\../lv_font/lv_font.h"
   1:lvgl\src\lv_misc\../lv_font/lv_font.h **** /**
   2:lvgl\src\lv_misc\../lv_font/lv_font.h ****  * @file lv_font.h
   3:lvgl\src\lv_misc\../lv_font/lv_font.h ****  *
   4:lvgl\src\lv_misc\../lv_font/lv_font.h ****  */
   5:lvgl\src\lv_misc\../lv_font/lv_font.h **** 
   6:lvgl\src\lv_misc\../lv_font/lv_font.h **** #ifndef LV_FONT_H
   7:lvgl\src\lv_misc\../lv_font/lv_font.h **** #define LV_FONT_H
   8:lvgl\src\lv_misc\../lv_font/lv_font.h **** 
   9:lvgl\src\lv_misc\../lv_font/lv_font.h **** #ifdef __cplusplus
  10:lvgl\src\lv_misc\../lv_font/lv_font.h **** extern "C" {
  11:lvgl\src\lv_misc\../lv_font/lv_font.h **** #endif
  12:lvgl\src\lv_misc\../lv_font/lv_font.h **** 
  13:lvgl\src\lv_misc\../lv_font/lv_font.h **** /*********************
  14:lvgl\src\lv_misc\../lv_font/lv_font.h ****  *      INCLUDES
  15:lvgl\src\lv_misc\../lv_font/lv_font.h ****  *********************/
  16:lvgl\src\lv_misc\../lv_font/lv_font.h **** #include "../lv_conf_internal.h"
  17:lvgl\src\lv_misc\../lv_font/lv_font.h **** #include <stdint.h>
  18:lvgl\src\lv_misc\../lv_font/lv_font.h **** #include <stddef.h>
  19:lvgl\src\lv_misc\../lv_font/lv_font.h **** #include <stdbool.h>
  20:lvgl\src\lv_misc\../lv_font/lv_font.h **** 
  21:lvgl\src\lv_misc\../lv_font/lv_font.h **** #include "lv_symbol_def.h"
  22:lvgl\src\lv_misc\../lv_font/lv_font.h **** #include "../lv_misc/lv_area.h"
  23:lvgl\src\lv_misc\../lv_font/lv_font.h **** 
  24:lvgl\src\lv_misc\../lv_font/lv_font.h **** /*********************
ARM GAS  C:\Users\strap\AppData\Local\Temp\ccCgIabb.s 			page 51


  25:lvgl\src\lv_misc\../lv_font/lv_font.h ****  *      DEFINES
  26:lvgl\src\lv_misc\../lv_font/lv_font.h ****  *********************/
  27:lvgl\src\lv_misc\../lv_font/lv_font.h **** /*Number of fractional digits in the advanced width (`adv_w`) field of `lv_font_glyph_dsc_t`*/
  28:lvgl\src\lv_misc\../lv_font/lv_font.h **** #define LV_FONT_WIDTH_FRACT_DIGIT       4
  29:lvgl\src\lv_misc\../lv_font/lv_font.h **** 
  30:lvgl\src\lv_misc\../lv_font/lv_font.h **** #define LV_FONT_KERN_POSITIVE        0
  31:lvgl\src\lv_misc\../lv_font/lv_font.h **** #define LV_FONT_KERN_NEGATIVE        1
  32:lvgl\src\lv_misc\../lv_font/lv_font.h **** 
  33:lvgl\src\lv_misc\../lv_font/lv_font.h **** /**********************
  34:lvgl\src\lv_misc\../lv_font/lv_font.h ****  *      TYPEDEFS
  35:lvgl\src\lv_misc\../lv_font/lv_font.h ****  **********************/
  36:lvgl\src\lv_misc\../lv_font/lv_font.h **** 
  37:lvgl\src\lv_misc\../lv_font/lv_font.h **** /*------------------
  38:lvgl\src\lv_misc\../lv_font/lv_font.h ****  * General types
  39:lvgl\src\lv_misc\../lv_font/lv_font.h ****  *-----------------*/
  40:lvgl\src\lv_misc\../lv_font/lv_font.h **** 
  41:lvgl\src\lv_misc\../lv_font/lv_font.h **** /** Describes the properties of a glyph. */
  42:lvgl\src\lv_misc\../lv_font/lv_font.h **** typedef struct {
  43:lvgl\src\lv_misc\../lv_font/lv_font.h ****     uint16_t adv_w; /**< The glyph needs this space. Draw the next glyph after this width. 8 bit in
  44:lvgl\src\lv_misc\../lv_font/lv_font.h ****     uint16_t box_w;  /**< Width of the glyph's bounding box*/
  45:lvgl\src\lv_misc\../lv_font/lv_font.h ****     uint16_t box_h;  /**< Height of the glyph's bounding box*/
  46:lvgl\src\lv_misc\../lv_font/lv_font.h ****     int16_t ofs_x;   /**< x offset of the bounding box*/
  47:lvgl\src\lv_misc\../lv_font/lv_font.h ****     int16_t ofs_y;  /**< y offset of the bounding box*/
  48:lvgl\src\lv_misc\../lv_font/lv_font.h ****     uint8_t bpp;   /**< Bit-per-pixel: 1, 2, 4, 8*/
  49:lvgl\src\lv_misc\../lv_font/lv_font.h **** } lv_font_glyph_dsc_t;
  50:lvgl\src\lv_misc\../lv_font/lv_font.h **** 
  51:lvgl\src\lv_misc\../lv_font/lv_font.h **** 
  52:lvgl\src\lv_misc\../lv_font/lv_font.h **** /** The bitmaps might be upscaled by 3 to achieve subpixel rendering. */
  53:lvgl\src\lv_misc\../lv_font/lv_font.h **** enum {
  54:lvgl\src\lv_misc\../lv_font/lv_font.h ****     LV_FONT_SUBPX_NONE,
  55:lvgl\src\lv_misc\../lv_font/lv_font.h ****     LV_FONT_SUBPX_HOR,
  56:lvgl\src\lv_misc\../lv_font/lv_font.h ****     LV_FONT_SUBPX_VER,
  57:lvgl\src\lv_misc\../lv_font/lv_font.h ****     LV_FONT_SUBPX_BOTH,
  58:lvgl\src\lv_misc\../lv_font/lv_font.h **** };
  59:lvgl\src\lv_misc\../lv_font/lv_font.h **** 
  60:lvgl\src\lv_misc\../lv_font/lv_font.h **** typedef uint8_t lv_font_subpx_t;
  61:lvgl\src\lv_misc\../lv_font/lv_font.h **** 
  62:lvgl\src\lv_misc\../lv_font/lv_font.h **** /** Describe the properties of a font*/
  63:lvgl\src\lv_misc\../lv_font/lv_font.h **** typedef struct _lv_font_struct {
  64:lvgl\src\lv_misc\../lv_font/lv_font.h ****     /** Get a glyph's  descriptor from a font*/
  65:lvgl\src\lv_misc\../lv_font/lv_font.h ****     bool (*get_glyph_dsc)(const struct _lv_font_struct *, lv_font_glyph_dsc_t *, uint32_t letter, u
  66:lvgl\src\lv_misc\../lv_font/lv_font.h **** 
  67:lvgl\src\lv_misc\../lv_font/lv_font.h ****     /** Get a glyph's bitmap from a font*/
  68:lvgl\src\lv_misc\../lv_font/lv_font.h ****     const uint8_t * (*get_glyph_bitmap)(const struct _lv_font_struct *, uint32_t);
  69:lvgl\src\lv_misc\../lv_font/lv_font.h **** 
  70:lvgl\src\lv_misc\../lv_font/lv_font.h ****     /*Pointer to the font in a font pack (must have the same line height)*/
  71:lvgl\src\lv_misc\../lv_font/lv_font.h ****     lv_coord_t line_height;         /**< The real line height where any text fits*/
  72:lvgl\src\lv_misc\../lv_font/lv_font.h ****     lv_coord_t base_line;           /**< Base line measured from the top of the line_height*/
  73:lvgl\src\lv_misc\../lv_font/lv_font.h ****     uint8_t subpx  : 2;             /**< An element of `lv_font_subpx_t`*/
  74:lvgl\src\lv_misc\../lv_font/lv_font.h **** 
  75:lvgl\src\lv_misc\../lv_font/lv_font.h ****     int8_t underline_position;      /**< Distance between the top of the underline and base line (<
  76:lvgl\src\lv_misc\../lv_font/lv_font.h ****     int8_t  underline_thickness;     /**< Thickness of the underline*/
  77:lvgl\src\lv_misc\../lv_font/lv_font.h **** 
  78:lvgl\src\lv_misc\../lv_font/lv_font.h ****     void * dsc;                     /**< Store implementation specific or run_time data or caching 
  79:lvgl\src\lv_misc\../lv_font/lv_font.h **** #if LV_USE_USER_DATA
  80:lvgl\src\lv_misc\../lv_font/lv_font.h ****     lv_font_user_data_t user_data;  /**< Custom user data for font. */
  81:lvgl\src\lv_misc\../lv_font/lv_font.h **** #endif
ARM GAS  C:\Users\strap\AppData\Local\Temp\ccCgIabb.s 			page 52


  82:lvgl\src\lv_misc\../lv_font/lv_font.h **** 
  83:lvgl\src\lv_misc\../lv_font/lv_font.h **** 
  84:lvgl\src\lv_misc\../lv_font/lv_font.h **** } lv_font_t;
  85:lvgl\src\lv_misc\../lv_font/lv_font.h **** 
  86:lvgl\src\lv_misc\../lv_font/lv_font.h **** /**********************
  87:lvgl\src\lv_misc\../lv_font/lv_font.h ****  * GLOBAL PROTOTYPES
  88:lvgl\src\lv_misc\../lv_font/lv_font.h ****  **********************/
  89:lvgl\src\lv_misc\../lv_font/lv_font.h **** 
  90:lvgl\src\lv_misc\../lv_font/lv_font.h **** /**
  91:lvgl\src\lv_misc\../lv_font/lv_font.h ****  * Return with the bitmap of a font.
  92:lvgl\src\lv_misc\../lv_font/lv_font.h ****  * @param font_p pointer to a font
  93:lvgl\src\lv_misc\../lv_font/lv_font.h ****  * @param letter an UNICODE character code
  94:lvgl\src\lv_misc\../lv_font/lv_font.h ****  * @return  pointer to the bitmap of the letter
  95:lvgl\src\lv_misc\../lv_font/lv_font.h ****  */
  96:lvgl\src\lv_misc\../lv_font/lv_font.h **** const uint8_t * lv_font_get_glyph_bitmap(const lv_font_t * font_p, uint32_t letter);
  97:lvgl\src\lv_misc\../lv_font/lv_font.h **** 
  98:lvgl\src\lv_misc\../lv_font/lv_font.h **** /**
  99:lvgl\src\lv_misc\../lv_font/lv_font.h ****  * Get the descriptor of a glyph
 100:lvgl\src\lv_misc\../lv_font/lv_font.h ****  * @param font_p pointer to font
 101:lvgl\src\lv_misc\../lv_font/lv_font.h ****  * @param dsc_out store the result descriptor here
 102:lvgl\src\lv_misc\../lv_font/lv_font.h ****  * @param letter an UNICODE letter code
 103:lvgl\src\lv_misc\../lv_font/lv_font.h ****  * @return true: descriptor is successfully loaded into `dsc_out`.
 104:lvgl\src\lv_misc\../lv_font/lv_font.h ****  *         false: the letter was not found, no data is loaded to `dsc_out`
 105:lvgl\src\lv_misc\../lv_font/lv_font.h ****  */
 106:lvgl\src\lv_misc\../lv_font/lv_font.h **** bool lv_font_get_glyph_dsc(const lv_font_t * font_p, lv_font_glyph_dsc_t * dsc_out, uint32_t letter
 107:lvgl\src\lv_misc\../lv_font/lv_font.h ****                            uint32_t letter_next);
 108:lvgl\src\lv_misc\../lv_font/lv_font.h **** 
 109:lvgl\src\lv_misc\../lv_font/lv_font.h **** /**
 110:lvgl\src\lv_misc\../lv_font/lv_font.h ****  * Get the width of a glyph with kerning
 111:lvgl\src\lv_misc\../lv_font/lv_font.h ****  * @param font pointer to a font
 112:lvgl\src\lv_misc\../lv_font/lv_font.h ****  * @param letter an UNICODE letter
 113:lvgl\src\lv_misc\../lv_font/lv_font.h ****  * @param letter_next the next letter after `letter`. Used for kerning
 114:lvgl\src\lv_misc\../lv_font/lv_font.h ****  * @return the width of the glyph
 115:lvgl\src\lv_misc\../lv_font/lv_font.h ****  */
 116:lvgl\src\lv_misc\../lv_font/lv_font.h **** uint16_t lv_font_get_glyph_width(const lv_font_t * font, uint32_t letter, uint32_t letter_next);
 117:lvgl\src\lv_misc\../lv_font/lv_font.h **** 
 118:lvgl\src\lv_misc\../lv_font/lv_font.h **** /**
 119:lvgl\src\lv_misc\../lv_font/lv_font.h ****  * Get the line height of a font. All characters fit into this height
 120:lvgl\src\lv_misc\../lv_font/lv_font.h ****  * @param font_p pointer to a font
 121:lvgl\src\lv_misc\../lv_font/lv_font.h ****  * @return the height of a font
 122:lvgl\src\lv_misc\../lv_font/lv_font.h ****  */
 123:lvgl\src\lv_misc\../lv_font/lv_font.h **** static inline lv_coord_t lv_font_get_line_height(const lv_font_t * font_p)
 124:lvgl\src\lv_misc\../lv_font/lv_font.h **** {
 125:lvgl\src\lv_misc\../lv_font/lv_font.h ****     return font_p->line_height;
 1590              		.loc 3 125 0
 1591 0036 B2F90830 		ldrsh	r3, [r2, #8]
 1592              	.LVL215:
 1593 003a 0593     		str	r3, [sp, #20]
 1594              	.LVL216:
 1595              	.LBE28:
 1596              	.LBE27:
 106:lvgl\src\lv_misc/lv_txt.c **** 
 1597              		.loc 1 106 0
 1598 003c 1FFA83FB 		uxth	fp, r3
 1599              	.LVL217:
 104:lvgl\src\lv_misc/lv_txt.c ****     uint32_t new_line_start = 0;
 1600              		.loc 1 104 0
ARM GAS  C:\Users\strap\AppData\Local\Temp\ccCgIabb.s 			page 53


 1601 0040 0025     		movs	r5, #0
 109:lvgl\src\lv_misc/lv_txt.c ****         new_line_start += _lv_txt_get_next_line(&text[line_start], font, letter_space, max_width, f
 1602              		.loc 1 109 0
 1603 0042 20E0     		b	.L147
 1604              	.LVL218:
 1605              	.L148:
 1606              	.LBB29:
 110:lvgl\src\lv_misc/lv_txt.c **** 
 1607              		.loc 1 110 0
 1608 0044 0097     		str	r7, [sp]
 1609 0046 049B     		ldr	r3, [sp, #16]
 1610 0048 039A     		ldr	r2, [sp, #12]
 1611 004a 4946     		mov	r1, r9
 1612 004c 3046     		mov	r0, r6
 1613 004e FFF7FEFF 		bl	_lv_txt_get_next_line
 1614              	.LVL219:
 1615 0052 0544     		add	r5, r5, r0
 1616              	.LVL220:
 112:lvgl\src\lv_misc/lv_txt.c ****             LV_LOG_WARN("lv_txt_get_size: integer overflow while calculating text height");
 1617              		.loc 1 112 0
 1618 0054 B4F90230 		ldrsh	r3, [r4, #2]
 1619 0058 03EB0B02 		add	r2, r3, fp
 1620 005c 5244     		add	r2, r2, r10
 1621 005e B2F5004F 		cmp	r2, #32768
 1622 0062 2ED2     		bcs	.L144
 117:lvgl\src\lv_misc/lv_txt.c ****             size_res->y += line_space;
 1623              		.loc 1 117 0
 1624 0064 5B44     		add	r3, r3, fp
 1625 0066 9BB2     		uxth	r3, r3
 118:lvgl\src\lv_misc/lv_txt.c ****         }
 1626              		.loc 1 118 0
 1627 0068 5344     		add	r3, r3, r10
 1628 006a 6380     		strh	r3, [r4, #2]	@ movhi
 122:lvgl\src\lv_misc/lv_txt.c ****                                                        flag);
 1629              		.loc 1 122 0
 1630 006c 0097     		str	r7, [sp]
 1631 006e 039B     		ldr	r3, [sp, #12]
 1632 0070 4A46     		mov	r2, r9
 1633 0072 0146     		mov	r1, r0
 1634 0074 3046     		mov	r0, r6
 1635 0076 FFF7FEFF 		bl	_lv_txt_get_width
 1636              	.LVL221:
 125:lvgl\src\lv_misc/lv_txt.c ****         line_start  = new_line_start;
 1637              		.loc 1 125 0
 1638 007a B4F90030 		ldrsh	r3, [r4]
 1639 007e 9842     		cmp	r0, r3
 1640 0080 B8BF     		it	lt
 1641 0082 1846     		movlt	r0, r3
 1642              	.LVL222:
 1643 0084 2080     		strh	r0, [r4]	@ movhi
 1644              	.LVL223:
 1645              	.L147:
 1646              	.LBE29:
 109:lvgl\src\lv_misc/lv_txt.c ****         new_line_start += _lv_txt_get_next_line(&text[line_start], font, letter_space, max_width, f
 1647              		.loc 1 109 0
 1648 0086 08EB0506 		add	r6, r8, r5
 1649 008a 18F80530 		ldrb	r3, [r8, r5]	@ zero_extendqisi2
ARM GAS  C:\Users\strap\AppData\Local\Temp\ccCgIabb.s 			page 54


 1650 008e 002B     		cmp	r3, #0
 1651 0090 D8D1     		bne	.L148
 130:lvgl\src\lv_misc/lv_txt.c ****         size_res->y += letter_height + line_space;
 1652              		.loc 1 130 0
 1653 0092 5DB1     		cbz	r5, .L149
 130:lvgl\src\lv_misc/lv_txt.c ****         size_res->y += letter_height + line_space;
 1654              		.loc 1 130 0 is_stmt 0 discriminator 1
 1655 0094 013D     		subs	r5, r5, #1
 1656              	.LVL224:
 1657 0096 18F80530 		ldrb	r3, [r8, r5]	@ zero_extendqisi2
 1658 009a 0A2B     		cmp	r3, #10
 1659 009c 01D0     		beq	.L150
 130:lvgl\src\lv_misc/lv_txt.c ****         size_res->y += letter_height + line_space;
 1660              		.loc 1 130 0 discriminator 2
 1661 009e 0D2B     		cmp	r3, #13
 1662 00a0 04D1     		bne	.L149
 1663              	.L150:
 131:lvgl\src\lv_misc/lv_txt.c ****     }
 1664              		.loc 1 131 0 is_stmt 1
 1665 00a2 D344     		add	fp, fp, r10
 1666              	.LVL225:
 1667 00a4 6388     		ldrh	r3, [r4, #2]
 1668 00a6 9B44     		add	fp, fp, r3
 1669 00a8 A4F802B0 		strh	fp, [r4, #2]	@ movhi
 1670              	.LVL226:
 1671              	.L149:
 135:lvgl\src\lv_misc/lv_txt.c ****         size_res->y = letter_height;
 1672              		.loc 1 135 0
 1673 00ac B4F90230 		ldrsh	r3, [r4, #2]
 1674 00b0 1BB9     		cbnz	r3, .L151
 136:lvgl\src\lv_misc/lv_txt.c ****     else
 1675              		.loc 1 136 0
 1676 00b2 BDF81430 		ldrh	r3, [sp, #20]
 1677 00b6 6380     		strh	r3, [r4, #2]	@ movhi
 1678 00b8 03E0     		b	.L144
 1679              	.L151:
 138:lvgl\src\lv_misc/lv_txt.c **** }
 1680              		.loc 1 138 0
 1681 00ba CAEB030A 		rsb	r10, r10, r3
 1682 00be A4F802A0 		strh	r10, [r4, #2]	@ movhi
 1683              	.LVL227:
 1684              	.L144:
 139:lvgl\src\lv_misc/lv_txt.c **** 
 1685              		.loc 1 139 0
 1686 00c2 07B0     		add	sp, sp, #28
 1687              		.cfi_def_cfa_offset 36
 1688              		@ sp needed
 1689 00c4 BDE8F08F 		pop	{r4, r5, r6, r7, r8, r9, r10, fp, pc}
 1690              		.cfi_endproc
 1691              	.LFE5:
 1692              		.size	_lv_txt_get_size, .-_lv_txt_get_size
 1693              		.section	.text._lv_txt_ins,"ax",%progbits
 1694              		.align	2
 1695              		.global	_lv_txt_ins
 1696              		.thumb
 1697              		.thumb_func
 1698              		.type	_lv_txt_ins, %function
ARM GAS  C:\Users\strap\AppData\Local\Temp\ccCgIabb.s 			page 55


 1699              	_lv_txt_ins:
 1700              	.LFB10:
 436:lvgl\src\lv_misc/lv_txt.c ****     size_t old_len = strlen(txt_buf);
 1701              		.loc 1 436 0
 1702              		.cfi_startproc
 1703              		@ args = 0, pretend = 0, frame = 0
 1704              		@ frame_needed = 0, uses_anonymous_args = 0
 1705              	.LVL228:
 1706 0000 2DE9F041 		push	{r4, r5, r6, r7, r8, lr}
 1707              		.cfi_def_cfa_offset 24
 1708              		.cfi_offset 4, -24
 1709              		.cfi_offset 5, -20
 1710              		.cfi_offset 6, -16
 1711              		.cfi_offset 7, -12
 1712              		.cfi_offset 8, -8
 1713              		.cfi_offset 14, -4
 1714 0004 0746     		mov	r7, r0
 1715 0006 8846     		mov	r8, r1
 1716 0008 1646     		mov	r6, r2
 437:lvgl\src\lv_misc/lv_txt.c ****     size_t ins_len = strlen(ins_txt);
 1717              		.loc 1 437 0
 1718 000a FFF7FEFF 		bl	strlen
 1719              	.LVL229:
 1720 000e 0546     		mov	r5, r0
 1721              	.LVL230:
 438:lvgl\src\lv_misc/lv_txt.c ****     if(ins_len == 0) return;
 1722              		.loc 1 438 0
 1723 0010 3046     		mov	r0, r6
 1724              	.LVL231:
 1725 0012 FFF7FEFF 		bl	strlen
 1726              	.LVL232:
 439:lvgl\src\lv_misc/lv_txt.c **** 
 1727              		.loc 1 439 0
 1728 0016 B8B1     		cbz	r0, .L154
 1729 0018 0446     		mov	r4, r0
 441:lvgl\src\lv_misc/lv_txt.c ****     pos              = _lv_txt_encoded_get_byte_id(txt_buf, pos); /*Convert to byte index instead o
 1730              		.loc 1 441 0
 1731 001a 0544     		add	r5, r5, r0
 1732              	.LVL233:
 442:lvgl\src\lv_misc/lv_txt.c **** 
 1733              		.loc 1 442 0
 1734 001c 0B4B     		ldr	r3, .L161
 1735 001e 9B68     		ldr	r3, [r3, #8]
 1736 0020 4146     		mov	r1, r8
 1737 0022 3846     		mov	r0, r7
 1738              	.LVL234:
 1739 0024 9847     		blx	r3
 1740              	.LVL235:
 446:lvgl\src\lv_misc/lv_txt.c ****         txt_buf[i] = txt_buf[i - ins_len];
 1741              		.loc 1 446 0
 1742 0026 03E0     		b	.L156
 1743              	.LVL236:
 1744              	.L157:
 447:lvgl\src\lv_misc/lv_txt.c ****     }
 1745              		.loc 1 447 0 discriminator 3
 1746 0028 2B1B     		subs	r3, r5, r4
 1747 002a FB5C     		ldrb	r3, [r7, r3]	@ zero_extendqisi2
ARM GAS  C:\Users\strap\AppData\Local\Temp\ccCgIabb.s 			page 56


 1748 002c 7B55     		strb	r3, [r7, r5]
 446:lvgl\src\lv_misc/lv_txt.c ****         txt_buf[i] = txt_buf[i - ins_len];
 1749              		.loc 1 446 0 discriminator 3
 1750 002e 013D     		subs	r5, r5, #1
 1751              	.LVL237:
 1752              	.L156:
 446:lvgl\src\lv_misc/lv_txt.c ****         txt_buf[i] = txt_buf[i - ins_len];
 1753              		.loc 1 446 0 is_stmt 0 discriminator 1
 1754 0030 2318     		adds	r3, r4, r0
 1755 0032 9D42     		cmp	r5, r3
 1756 0034 F8D2     		bcs	.L157
 451:lvgl\src\lv_misc/lv_txt.c **** }
 1757              		.loc 1 451 0 is_stmt 1
 1758 0036 3844     		add	r0, r0, r7
 1759              	.LVL238:
 1760 0038 04E0     		b	.L158
 1761              	.LVL239:
 1762              	.L159:
 1763              	.LBB30:
 1764              	.LBB31:
 220:lvgl\src\lv_misc/lv_mem.h ****         d8++;
 1765              		.loc 2 220 0
 1766 003a 16F8013B 		ldrb	r3, [r6], #1	@ zero_extendqisi2
 1767              	.LVL240:
 1768 003e 00F8013B 		strb	r3, [r0], #1
 1769              	.LVL241:
 1770              		.loc 2 223 0
 1771 0042 013C     		subs	r4, r4, #1
 1772              	.LVL242:
 1773              	.L158:
 219:lvgl\src\lv_misc/lv_mem.h ****         *d8 = *s8;
 1774              		.loc 2 219 0
 1775 0044 002C     		cmp	r4, #0
 1776 0046 F8D1     		bne	.L159
 1777              	.LVL243:
 1778              	.L154:
 1779 0048 BDE8F081 		pop	{r4, r5, r6, r7, r8, pc}
 1780              	.LVL244:
 1781              	.L162:
 1782              		.align	2
 1783              	.L161:
 1784 004c 00000000 		.word	.LANCHOR0
 1785              	.LBE31:
 1786              	.LBE30:
 1787              		.cfi_endproc
 1788              	.LFE10:
 1789              		.size	_lv_txt_ins, .-_lv_txt_ins
 1790              		.section	.text._lv_txt_cut,"ax",%progbits
 1791              		.align	2
 1792              		.global	_lv_txt_cut
 1793              		.thumb
 1794              		.thumb_func
 1795              		.type	_lv_txt_cut, %function
 1796              	_lv_txt_cut:
 1797              	.LFB11:
 462:lvgl\src\lv_misc/lv_txt.c **** 
 1798              		.loc 1 462 0
ARM GAS  C:\Users\strap\AppData\Local\Temp\ccCgIabb.s 			page 57


 1799              		.cfi_startproc
 1800              		@ args = 0, pretend = 0, frame = 0
 1801              		@ frame_needed = 0, uses_anonymous_args = 0
 1802              	.LVL245:
 1803 0000 2DE9F041 		push	{r4, r5, r6, r7, r8, lr}
 1804              		.cfi_def_cfa_offset 24
 1805              		.cfi_offset 4, -24
 1806              		.cfi_offset 5, -20
 1807              		.cfi_offset 6, -16
 1808              		.cfi_offset 7, -12
 1809              		.cfi_offset 8, -8
 1810              		.cfi_offset 14, -4
 1811 0004 0546     		mov	r5, r0
 1812 0006 0C46     		mov	r4, r1
 1813 0008 9046     		mov	r8, r2
 464:lvgl\src\lv_misc/lv_txt.c **** 
 1814              		.loc 1 464 0
 1815 000a FFF7FEFF 		bl	strlen
 1816              	.LVL246:
 1817 000e 0646     		mov	r6, r0
 1818              	.LVL247:
 466:lvgl\src\lv_misc/lv_txt.c ****     len = _lv_txt_encoded_get_byte_id(&txt[pos], len);
 1819              		.loc 1 466 0
 1820 0010 094F     		ldr	r7, .L167
 1821 0012 BB68     		ldr	r3, [r7, #8]
 1822 0014 2146     		mov	r1, r4
 1823 0016 2846     		mov	r0, r5
 1824              	.LVL248:
 1825 0018 9847     		blx	r3
 1826              	.LVL249:
 1827 001a 0446     		mov	r4, r0
 1828              	.LVL250:
 467:lvgl\src\lv_misc/lv_txt.c **** 
 1829              		.loc 1 467 0
 1830 001c BB68     		ldr	r3, [r7, #8]
 1831 001e 4146     		mov	r1, r8
 1832 0020 2818     		adds	r0, r5, r0
 1833              	.LVL251:
 1834 0022 9847     		blx	r3
 1835              	.LVL252:
 471:lvgl\src\lv_misc/lv_txt.c ****         txt[i] = txt[i + len];
 1836              		.loc 1 471 0
 1837 0024 03E0     		b	.L164
 1838              	.LVL253:
 1839              	.L165:
 472:lvgl\src\lv_misc/lv_txt.c ****     }
 1840              		.loc 1 472 0 discriminator 3
 1841 0026 2B19     		adds	r3, r5, r4
 1842 0028 1B5C     		ldrb	r3, [r3, r0]	@ zero_extendqisi2
 1843 002a 2B55     		strb	r3, [r5, r4]
 471:lvgl\src\lv_misc/lv_txt.c ****         txt[i] = txt[i + len];
 1844              		.loc 1 471 0 discriminator 3
 1845 002c 0134     		adds	r4, r4, #1
 1846              	.LVL254:
 1847              	.L164:
 471:lvgl\src\lv_misc/lv_txt.c ****         txt[i] = txt[i + len];
 1848              		.loc 1 471 0 is_stmt 0 discriminator 1
ARM GAS  C:\Users\strap\AppData\Local\Temp\ccCgIabb.s 			page 58


 1849 002e 331A     		subs	r3, r6, r0
 1850 0030 9C42     		cmp	r4, r3
 1851 0032 F8D9     		bls	.L165
 474:lvgl\src\lv_misc/lv_txt.c **** 
 1852              		.loc 1 474 0 is_stmt 1
 1853 0034 BDE8F081 		pop	{r4, r5, r6, r7, r8, pc}
 1854              	.LVL255:
 1855              	.L168:
 1856              		.align	2
 1857              	.L167:
 1858 0038 00000000 		.word	.LANCHOR0
 1859              		.cfi_endproc
 1860              	.LFE11:
 1861              		.size	_lv_txt_cut, .-_lv_txt_cut
 1862              		.global	_lv_txt_get_encoded_length
 1863              		.global	_lv_txt_encoded_get_char_id
 1864              		.global	_lv_txt_encoded_get_byte_id
 1865              		.global	_lv_txt_encoded_prev
 1866              		.global	_lv_txt_encoded_next
 1867              		.global	_lv_txt_encoded_conv_wc
 1868              		.global	_lv_txt_unicode_to_encoded
 1869              		.global	_lv_txt_encoded_size
 1870              		.data
 1871              		.align	2
 1872              		.set	.LANCHOR0,. + 0
 1873              		.type	_lv_txt_encoded_size, %object
 1874              		.size	_lv_txt_encoded_size, 4
 1875              	_lv_txt_encoded_size:
 1876 0000 00000000 		.word	lv_txt_utf8_size
 1877              		.type	_lv_txt_encoded_next, %object
 1878              		.size	_lv_txt_encoded_next, 4
 1879              	_lv_txt_encoded_next:
 1880 0004 00000000 		.word	lv_txt_utf8_next
 1881              		.type	_lv_txt_encoded_get_byte_id, %object
 1882              		.size	_lv_txt_encoded_get_byte_id, 4
 1883              	_lv_txt_encoded_get_byte_id:
 1884 0008 00000000 		.word	lv_txt_utf8_get_byte_id
 1885              		.type	_lv_txt_get_encoded_length, %object
 1886              		.size	_lv_txt_get_encoded_length, 4
 1887              	_lv_txt_get_encoded_length:
 1888 000c 00000000 		.word	lv_txt_utf8_get_length
 1889              		.type	_lv_txt_encoded_get_char_id, %object
 1890              		.size	_lv_txt_encoded_get_char_id, 4
 1891              	_lv_txt_encoded_get_char_id:
 1892 0010 00000000 		.word	lv_txt_utf8_get_char_id
 1893              		.type	_lv_txt_encoded_prev, %object
 1894              		.size	_lv_txt_encoded_prev, 4
 1895              	_lv_txt_encoded_prev:
 1896 0014 00000000 		.word	lv_txt_utf8_prev
 1897              		.type	_lv_txt_encoded_conv_wc, %object
 1898              		.size	_lv_txt_encoded_conv_wc, 4
 1899              	_lv_txt_encoded_conv_wc:
 1900 0018 00000000 		.word	lv_txt_utf8_conv_wc
 1901              		.type	_lv_txt_unicode_to_encoded, %object
 1902              		.size	_lv_txt_unicode_to_encoded, 4
 1903              	_lv_txt_unicode_to_encoded:
 1904 001c 00000000 		.word	lv_txt_unicode_to_utf8
ARM GAS  C:\Users\strap\AppData\Local\Temp\ccCgIabb.s 			page 59


 1905              		.section	.rodata.str1.4,"aMS",%progbits,1
 1906              		.align	2
 1907              	.LC0:
 1908 0000 202C2E3B 		.ascii	" ,.;:-_\000"
 1908      3A2D5F00 
 1909              		.text
 1910              	.Letext0:
 1911              		.file 4 "c:\\program files (x86)\\cypress\\psoc creator\\4.4\\psoc creator\\import\\gnu\\arm\\5.4.
 1912              		.file 5 "c:\\program files (x86)\\cypress\\psoc creator\\4.4\\psoc creator\\import\\gnu\\arm\\5.4.
 1913              		.file 6 "lvgl\\src\\lv_misc\\../../../lv_conf.h"
 1914              		.file 7 "c:\\program files (x86)\\cypress\\psoc creator\\4.4\\psoc creator\\import\\gnu\\arm\\5.4.
 1915              		.file 8 "lvgl\\src\\lv_misc\\lv_area.h"
 1916              		.file 9 "lvgl\\src\\lv_misc\\lv_txt.h"
 1917              		.file 10 "c:\\program files (x86)\\cypress\\psoc creator\\4.4\\psoc creator\\import\\gnu\\arm\\5.4
 1918              		.section	.debug_info,"",%progbits
 1919              	.Ldebug_info0:
 1920 0000 3D0F0000 		.4byte	0xf3d
 1921 0004 0400     		.2byte	0x4
 1922 0006 00000000 		.4byte	.Ldebug_abbrev0
 1923 000a 04       		.byte	0x4
 1924 000b 01       		.uleb128 0x1
 1925 000c D8010000 		.4byte	.LASF126
 1926 0010 0C       		.byte	0xc
 1927 0011 57060000 		.4byte	.LASF127
 1928 0015 0D070000 		.4byte	.LASF128
 1929 0019 60000000 		.4byte	.Ldebug_ranges0+0x60
 1930 001d 00000000 		.4byte	0
 1931 0021 00000000 		.4byte	.Ldebug_line0
 1932 0025 02       		.uleb128 0x2
 1933 0026 6F040000 		.4byte	.LASF0
 1934 002a 04       		.byte	0x4
 1935 002b 1B       		.byte	0x1b
 1936 002c 30000000 		.4byte	0x30
 1937 0030 03       		.uleb128 0x3
 1938 0031 01       		.byte	0x1
 1939 0032 06       		.byte	0x6
 1940 0033 90060000 		.4byte	.LASF2
 1941 0037 02       		.uleb128 0x2
 1942 0038 15050000 		.4byte	.LASF1
 1943 003c 04       		.byte	0x4
 1944 003d 1D       		.byte	0x1d
 1945 003e 42000000 		.4byte	0x42
 1946 0042 03       		.uleb128 0x3
 1947 0043 01       		.byte	0x1
 1948 0044 08       		.byte	0x8
 1949 0045 FC050000 		.4byte	.LASF3
 1950 0049 02       		.uleb128 0x2
 1951 004a 0C040000 		.4byte	.LASF4
 1952 004e 04       		.byte	0x4
 1953 004f 29       		.byte	0x29
 1954 0050 54000000 		.4byte	0x54
 1955 0054 03       		.uleb128 0x3
 1956 0055 02       		.byte	0x2
 1957 0056 05       		.byte	0x5
 1958 0057 DA040000 		.4byte	.LASF5
 1959 005b 02       		.uleb128 0x2
 1960 005c BB010000 		.4byte	.LASF6
ARM GAS  C:\Users\strap\AppData\Local\Temp\ccCgIabb.s 			page 60


 1961 0060 04       		.byte	0x4
 1962 0061 2B       		.byte	0x2b
 1963 0062 66000000 		.4byte	0x66
 1964 0066 03       		.uleb128 0x3
 1965 0067 02       		.byte	0x2
 1966 0068 07       		.byte	0x7
 1967 0069 AA060000 		.4byte	.LASF7
 1968 006d 03       		.uleb128 0x3
 1969 006e 04       		.byte	0x4
 1970 006f 05       		.byte	0x5
 1971 0070 EF040000 		.4byte	.LASF8
 1972 0074 02       		.uleb128 0x2
 1973 0075 0A060000 		.4byte	.LASF9
 1974 0079 04       		.byte	0x4
 1975 007a 41       		.byte	0x41
 1976 007b 7F000000 		.4byte	0x7f
 1977 007f 03       		.uleb128 0x3
 1978 0080 04       		.byte	0x4
 1979 0081 07       		.byte	0x7
 1980 0082 69050000 		.4byte	.LASF10
 1981 0086 03       		.uleb128 0x3
 1982 0087 08       		.byte	0x8
 1983 0088 05       		.byte	0x5
 1984 0089 D7030000 		.4byte	.LASF11
 1985 008d 03       		.uleb128 0x3
 1986 008e 08       		.byte	0x8
 1987 008f 07       		.byte	0x7
 1988 0090 75010000 		.4byte	.LASF12
 1989 0094 04       		.uleb128 0x4
 1990 0095 04       		.byte	0x4
 1991 0096 05       		.byte	0x5
 1992 0097 696E7400 		.ascii	"int\000"
 1993 009b 03       		.uleb128 0x3
 1994 009c 04       		.byte	0x4
 1995 009d 07       		.byte	0x7
 1996 009e 4D000000 		.4byte	.LASF13
 1997 00a2 02       		.uleb128 0x2
 1998 00a3 FA000000 		.4byte	.LASF14
 1999 00a7 05       		.byte	0x5
 2000 00a8 14       		.byte	0x14
 2001 00a9 25000000 		.4byte	0x25
 2002 00ad 02       		.uleb128 0x2
 2003 00ae 6E030000 		.4byte	.LASF15
 2004 00b2 05       		.byte	0x5
 2005 00b3 18       		.byte	0x18
 2006 00b4 37000000 		.4byte	0x37
 2007 00b8 02       		.uleb128 0x2
 2008 00b9 40010000 		.4byte	.LASF16
 2009 00bd 05       		.byte	0x5
 2010 00be 20       		.byte	0x20
 2011 00bf 49000000 		.4byte	0x49
 2012 00c3 02       		.uleb128 0x2
 2013 00c4 9A040000 		.4byte	.LASF17
 2014 00c8 05       		.byte	0x5
 2015 00c9 24       		.byte	0x24
 2016 00ca 5B000000 		.4byte	0x5b
 2017 00ce 02       		.uleb128 0x2
ARM GAS  C:\Users\strap\AppData\Local\Temp\ccCgIabb.s 			page 61


 2018 00cf F1000000 		.4byte	.LASF18
 2019 00d3 05       		.byte	0x5
 2020 00d4 30       		.byte	0x30
 2021 00d5 74000000 		.4byte	0x74
 2022 00d9 02       		.uleb128 0x2
 2023 00da 0A050000 		.4byte	.LASF19
 2024 00de 06       		.byte	0x6
 2025 00df 46       		.byte	0x46
 2026 00e0 B8000000 		.4byte	0xb8
 2027 00e4 05       		.uleb128 0x5
 2028 00e5 04       		.byte	0x4
 2029 00e6 06       		.uleb128 0x6
 2030 00e7 C3030000 		.4byte	.LASF20
 2031 00eb 06       		.byte	0x6
 2032 00ec A901     		.2byte	0x1a9
 2033 00ee E4000000 		.4byte	0xe4
 2034 00f2 02       		.uleb128 0x2
 2035 00f3 66020000 		.4byte	.LASF21
 2036 00f7 07       		.byte	0x7
 2037 00f8 D8       		.byte	0xd8
 2038 00f9 9B000000 		.4byte	0x9b
 2039 00fd 03       		.uleb128 0x3
 2040 00fe 08       		.byte	0x8
 2041 00ff 04       		.byte	0x4
 2042 0100 8E040000 		.4byte	.LASF22
 2043 0104 03       		.uleb128 0x3
 2044 0105 04       		.byte	0x4
 2045 0106 07       		.byte	0x7
 2046 0107 60050000 		.4byte	.LASF23
 2047 010b 07       		.uleb128 0x7
 2048 010c 04       		.byte	0x4
 2049 010d 11010000 		.4byte	0x111
 2050 0111 03       		.uleb128 0x3
 2051 0112 01       		.byte	0x1
 2052 0113 08       		.byte	0x8
 2053 0114 2B030000 		.4byte	.LASF24
 2054 0118 07       		.uleb128 0x7
 2055 0119 04       		.byte	0x4
 2056 011a 1E010000 		.4byte	0x11e
 2057 011e 08       		.uleb128 0x8
 2058 011f 11010000 		.4byte	0x111
 2059 0123 09       		.uleb128 0x9
 2060 0124 04       		.byte	0x4
 2061 0125 08       		.byte	0x8
 2062 0126 27       		.byte	0x27
 2063 0127 40010000 		.4byte	0x140
 2064 012b 0A       		.uleb128 0xa
 2065 012c 7800     		.ascii	"x\000"
 2066 012e 08       		.byte	0x8
 2067 012f 28       		.byte	0x28
 2068 0130 D9000000 		.4byte	0xd9
 2069 0134 00       		.byte	0
 2070 0135 0A       		.uleb128 0xa
 2071 0136 7900     		.ascii	"y\000"
 2072 0138 08       		.byte	0x8
 2073 0139 29       		.byte	0x29
 2074 013a D9000000 		.4byte	0xd9
ARM GAS  C:\Users\strap\AppData\Local\Temp\ccCgIabb.s 			page 62


 2075 013e 02       		.byte	0x2
 2076 013f 00       		.byte	0
 2077 0140 02       		.uleb128 0x2
 2078 0141 74000000 		.4byte	.LASF25
 2079 0145 08       		.byte	0x8
 2080 0146 2A       		.byte	0x2a
 2081 0147 23010000 		.4byte	0x123
 2082 014b 09       		.uleb128 0x9
 2083 014c 0C       		.byte	0xc
 2084 014d 03       		.byte	0x3
 2085 014e 2A       		.byte	0x2a
 2086 014f 9C010000 		.4byte	0x19c
 2087 0153 0B       		.uleb128 0xb
 2088 0154 59070000 		.4byte	.LASF26
 2089 0158 03       		.byte	0x3
 2090 0159 2B       		.byte	0x2b
 2091 015a C3000000 		.4byte	0xc3
 2092 015e 00       		.byte	0
 2093 015f 0B       		.uleb128 0xb
 2094 0160 91050000 		.4byte	.LASF27
 2095 0164 03       		.byte	0x3
 2096 0165 2C       		.byte	0x2c
 2097 0166 C3000000 		.4byte	0xc3
 2098 016a 02       		.byte	0x2
 2099 016b 0B       		.uleb128 0xb
 2100 016c 30050000 		.4byte	.LASF28
 2101 0170 03       		.byte	0x3
 2102 0171 2D       		.byte	0x2d
 2103 0172 C3000000 		.4byte	0xc3
 2104 0176 04       		.byte	0x4
 2105 0177 0B       		.uleb128 0xb
 2106 0178 5A000000 		.4byte	.LASF29
 2107 017c 03       		.byte	0x3
 2108 017d 2E       		.byte	0x2e
 2109 017e B8000000 		.4byte	0xb8
 2110 0182 06       		.byte	0x6
 2111 0183 0B       		.uleb128 0xb
 2112 0184 60000000 		.4byte	.LASF30
 2113 0188 03       		.byte	0x3
 2114 0189 2F       		.byte	0x2f
 2115 018a B8000000 		.4byte	0xb8
 2116 018e 08       		.byte	0x8
 2117 018f 0A       		.uleb128 0xa
 2118 0190 62707000 		.ascii	"bpp\000"
 2119 0194 03       		.byte	0x3
 2120 0195 30       		.byte	0x30
 2121 0196 AD000000 		.4byte	0xad
 2122 019a 0A       		.byte	0xa
 2123 019b 00       		.byte	0
 2124 019c 02       		.uleb128 0x2
 2125 019d 5A030000 		.4byte	.LASF31
 2126 01a1 03       		.byte	0x3
 2127 01a2 31       		.byte	0x31
 2128 01a3 4B010000 		.4byte	0x14b
 2129 01a7 0C       		.uleb128 0xc
 2130 01a8 B8020000 		.4byte	.LASF129
 2131 01ac 18       		.byte	0x18
ARM GAS  C:\Users\strap\AppData\Local\Temp\ccCgIabb.s 			page 63


 2132 01ad 03       		.byte	0x3
 2133 01ae 3F       		.byte	0x3f
 2134 01af 23020000 		.4byte	0x223
 2135 01b3 0B       		.uleb128 0xb
 2136 01b4 66000000 		.4byte	.LASF32
 2137 01b8 03       		.byte	0x3
 2138 01b9 41       		.byte	0x41
 2139 01ba 59020000 		.4byte	0x259
 2140 01be 00       		.byte	0
 2141 01bf 0B       		.uleb128 0xb
 2142 01c0 46060000 		.4byte	.LASF33
 2143 01c4 03       		.byte	0x3
 2144 01c5 44       		.byte	0x44
 2145 01c6 7E020000 		.4byte	0x27e
 2146 01ca 04       		.byte	0x4
 2147 01cb 0B       		.uleb128 0xb
 2148 01cc 14030000 		.4byte	.LASF34
 2149 01d0 03       		.byte	0x3
 2150 01d1 47       		.byte	0x47
 2151 01d2 D9000000 		.4byte	0xd9
 2152 01d6 08       		.byte	0x8
 2153 01d7 0B       		.uleb128 0xb
 2154 01d8 A6050000 		.4byte	.LASF35
 2155 01dc 03       		.byte	0x3
 2156 01dd 48       		.byte	0x48
 2157 01de D9000000 		.4byte	0xd9
 2158 01e2 0A       		.byte	0xa
 2159 01e3 0D       		.uleb128 0xd
 2160 01e4 69040000 		.4byte	.LASF130
 2161 01e8 03       		.byte	0x3
 2162 01e9 49       		.byte	0x49
 2163 01ea AD000000 		.4byte	0xad
 2164 01ee 01       		.byte	0x1
 2165 01ef 02       		.byte	0x2
 2166 01f0 06       		.byte	0x6
 2167 01f1 0C       		.byte	0xc
 2168 01f2 0B       		.uleb128 0xb
 2169 01f3 25010000 		.4byte	.LASF36
 2170 01f7 03       		.byte	0x3
 2171 01f8 4B       		.byte	0x4b
 2172 01f9 A2000000 		.4byte	0xa2
 2173 01fd 0D       		.byte	0xd
 2174 01fe 0B       		.uleb128 0xb
 2175 01ff 91000000 		.4byte	.LASF37
 2176 0203 03       		.byte	0x3
 2177 0204 4C       		.byte	0x4c
 2178 0205 A2000000 		.4byte	0xa2
 2179 0209 0E       		.byte	0xe
 2180 020a 0A       		.uleb128 0xa
 2181 020b 64736300 		.ascii	"dsc\000"
 2182 020f 03       		.byte	0x3
 2183 0210 4E       		.byte	0x4e
 2184 0211 E4000000 		.4byte	0xe4
 2185 0215 10       		.byte	0x10
 2186 0216 0B       		.uleb128 0xb
 2187 0217 B9030000 		.4byte	.LASF38
 2188 021b 03       		.byte	0x3
ARM GAS  C:\Users\strap\AppData\Local\Temp\ccCgIabb.s 			page 64


 2189 021c 50       		.byte	0x50
 2190 021d E6000000 		.4byte	0xe6
 2191 0221 14       		.byte	0x14
 2192 0222 00       		.byte	0
 2193 0223 0E       		.uleb128 0xe
 2194 0224 41020000 		.4byte	0x241
 2195 0228 41020000 		.4byte	0x241
 2196 022c 0F       		.uleb128 0xf
 2197 022d 48020000 		.4byte	0x248
 2198 0231 0F       		.uleb128 0xf
 2199 0232 53020000 		.4byte	0x253
 2200 0236 0F       		.uleb128 0xf
 2201 0237 CE000000 		.4byte	0xce
 2202 023b 0F       		.uleb128 0xf
 2203 023c CE000000 		.4byte	0xce
 2204 0240 00       		.byte	0
 2205 0241 03       		.uleb128 0x3
 2206 0242 01       		.byte	0x1
 2207 0243 02       		.byte	0x2
 2208 0244 88020000 		.4byte	.LASF39
 2209 0248 07       		.uleb128 0x7
 2210 0249 04       		.byte	0x4
 2211 024a 4E020000 		.4byte	0x24e
 2212 024e 08       		.uleb128 0x8
 2213 024f A7010000 		.4byte	0x1a7
 2214 0253 07       		.uleb128 0x7
 2215 0254 04       		.byte	0x4
 2216 0255 9C010000 		.4byte	0x19c
 2217 0259 07       		.uleb128 0x7
 2218 025a 04       		.byte	0x4
 2219 025b 23020000 		.4byte	0x223
 2220 025f 0E       		.uleb128 0xe
 2221 0260 73020000 		.4byte	0x273
 2222 0264 73020000 		.4byte	0x273
 2223 0268 0F       		.uleb128 0xf
 2224 0269 48020000 		.4byte	0x248
 2225 026d 0F       		.uleb128 0xf
 2226 026e CE000000 		.4byte	0xce
 2227 0272 00       		.byte	0
 2228 0273 07       		.uleb128 0x7
 2229 0274 04       		.byte	0x4
 2230 0275 79020000 		.4byte	0x279
 2231 0279 08       		.uleb128 0x8
 2232 027a AD000000 		.4byte	0xad
 2233 027e 07       		.uleb128 0x7
 2234 027f 04       		.byte	0x4
 2235 0280 5F020000 		.4byte	0x25f
 2236 0284 02       		.uleb128 0x2
 2237 0285 BC040000 		.4byte	.LASF40
 2238 0289 03       		.byte	0x3
 2239 028a 54       		.byte	0x54
 2240 028b A7010000 		.4byte	0x1a7
 2241 028f 10       		.uleb128 0x10
 2242 0290 01       		.byte	0x1
 2243 0291 42000000 		.4byte	0x42
 2244 0295 09       		.byte	0x9
 2245 0296 27       		.byte	0x27
ARM GAS  C:\Users\strap\AppData\Local\Temp\ccCgIabb.s 			page 65


 2246 0297 C0020000 		.4byte	0x2c0
 2247 029b 11       		.uleb128 0x11
 2248 029c E0060000 		.4byte	.LASF41
 2249 02a0 00       		.byte	0
 2250 02a1 11       		.uleb128 0x11
 2251 02a2 A5000000 		.4byte	.LASF42
 2252 02a6 01       		.byte	0x1
 2253 02a7 11       		.uleb128 0x11
 2254 02a8 F1060000 		.4byte	.LASF43
 2255 02ac 02       		.byte	0x2
 2256 02ad 11       		.uleb128 0x11
 2257 02ae DE000000 		.4byte	.LASF44
 2258 02b2 04       		.byte	0x4
 2259 02b3 11       		.uleb128 0x11
 2260 02b4 C6010000 		.4byte	.LASF45
 2261 02b8 08       		.byte	0x8
 2262 02b9 11       		.uleb128 0x11
 2263 02ba C2000000 		.4byte	.LASF46
 2264 02be 10       		.byte	0x10
 2265 02bf 00       		.byte	0
 2266 02c0 02       		.uleb128 0x2
 2267 02c1 9C060000 		.4byte	.LASF47
 2268 02c5 09       		.byte	0x9
 2269 02c6 2F       		.byte	0x2f
 2270 02c7 AD000000 		.4byte	0xad
 2271 02cb 10       		.uleb128 0x10
 2272 02cc 01       		.byte	0x1
 2273 02cd 42000000 		.4byte	0x42
 2274 02d1 09       		.byte	0x9
 2275 02d2 33       		.byte	0x33
 2276 02d3 EA020000 		.4byte	0x2ea
 2277 02d7 11       		.uleb128 0x11
 2278 02d8 7B050000 		.4byte	.LASF48
 2279 02dc 00       		.byte	0
 2280 02dd 11       		.uleb128 0x11
 2281 02de F7030000 		.4byte	.LASF49
 2282 02e2 01       		.byte	0x1
 2283 02e3 11       		.uleb128 0x11
 2284 02e4 9C020000 		.4byte	.LASF50
 2285 02e8 02       		.byte	0x2
 2286 02e9 00       		.byte	0
 2287 02ea 02       		.uleb128 0x2
 2288 02eb FA020000 		.4byte	.LASF51
 2289 02ef 09       		.byte	0x9
 2290 02f0 38       		.byte	0x38
 2291 02f1 AD000000 		.4byte	0xad
 2292 02f5 12       		.uleb128 0x12
 2293 02f6 A0010000 		.4byte	.LASF52
 2294 02fa 02       		.byte	0x2
 2295 02fb D6       		.byte	0xd6
 2296 02fc E4000000 		.4byte	0xe4
 2297 0300 03       		.byte	0x3
 2298 0301 3B030000 		.4byte	0x33b
 2299 0305 13       		.uleb128 0x13
 2300 0306 64737400 		.ascii	"dst\000"
 2301 030a 02       		.byte	0x2
 2302 030b D6       		.byte	0xd6
ARM GAS  C:\Users\strap\AppData\Local\Temp\ccCgIabb.s 			page 66


 2303 030c E4000000 		.4byte	0xe4
 2304 0310 13       		.uleb128 0x13
 2305 0311 73726300 		.ascii	"src\000"
 2306 0315 02       		.byte	0x2
 2307 0316 D6       		.byte	0xd6
 2308 0317 3B030000 		.4byte	0x33b
 2309 031b 13       		.uleb128 0x13
 2310 031c 6C656E00 		.ascii	"len\000"
 2311 0320 02       		.byte	0x2
 2312 0321 D6       		.byte	0xd6
 2313 0322 F2000000 		.4byte	0xf2
 2314 0326 14       		.uleb128 0x14
 2315 0327 643800   		.ascii	"d8\000"
 2316 032a 02       		.byte	0x2
 2317 032b D8       		.byte	0xd8
 2318 032c 42030000 		.4byte	0x342
 2319 0330 14       		.uleb128 0x14
 2320 0331 733800   		.ascii	"s8\000"
 2321 0334 02       		.byte	0x2
 2322 0335 D9       		.byte	0xd9
 2323 0336 73020000 		.4byte	0x273
 2324 033a 00       		.byte	0
 2325 033b 07       		.uleb128 0x7
 2326 033c 04       		.byte	0x4
 2327 033d 41030000 		.4byte	0x341
 2328 0341 15       		.uleb128 0x15
 2329 0342 07       		.uleb128 0x7
 2330 0343 04       		.byte	0x4
 2331 0344 AD000000 		.4byte	0xad
 2332 0348 16       		.uleb128 0x16
 2333 0349 73020000 		.4byte	.LASF53
 2334 034d 01       		.byte	0x1
 2335 034e 4F03     		.2byte	0x34f
 2336 0350 41020000 		.4byte	0x241
 2337 0354 03       		.byte	0x3
 2338 0355 7C030000 		.4byte	0x37c
 2339 0359 17       		.uleb128 0x17
 2340 035a 81020000 		.4byte	.LASF54
 2341 035e 01       		.byte	0x1
 2342 035f 4F03     		.2byte	0x34f
 2343 0361 CE000000 		.4byte	0xce
 2344 0365 18       		.uleb128 0x18
 2345 0366 6900     		.ascii	"i\000"
 2346 0368 01       		.byte	0x1
 2347 0369 5103     		.2byte	0x351
 2348 036b AD000000 		.4byte	0xad
 2349 036f 18       		.uleb128 0x18
 2350 0370 72657400 		.ascii	"ret\000"
 2351 0374 01       		.byte	0x1
 2352 0375 5203     		.2byte	0x352
 2353 0377 41020000 		.4byte	0x241
 2354 037b 00       		.byte	0
 2355 037c 12       		.uleb128 0x12
 2356 037d 2E040000 		.4byte	.LASF55
 2357 0381 03       		.byte	0x3
 2358 0382 7B       		.byte	0x7b
 2359 0383 D9000000 		.4byte	0xd9
ARM GAS  C:\Users\strap\AppData\Local\Temp\ccCgIabb.s 			page 67


 2360 0387 03       		.byte	0x3
 2361 0388 98030000 		.4byte	0x398
 2362 038c 19       		.uleb128 0x19
 2363 038d 0D030000 		.4byte	.LASF56
 2364 0391 03       		.byte	0x3
 2365 0392 7B       		.byte	0x7b
 2366 0393 98030000 		.4byte	0x398
 2367 0397 00       		.byte	0
 2368 0398 07       		.uleb128 0x7
 2369 0399 04       		.byte	0x4
 2370 039a 9E030000 		.4byte	0x39e
 2371 039e 08       		.uleb128 0x8
 2372 039f 84020000 		.4byte	0x284
 2373 03a3 1A       		.uleb128 0x1a
 2374 03a4 4F010000 		.4byte	.LASF57
 2375 03a8 01       		.byte	0x1
 2376 03a9 E601     		.2byte	0x1e6
 2377 03ab AD000000 		.4byte	0xad
 2378 03af 00000000 		.4byte	.LFB12
 2379 03b3 34000000 		.4byte	.LFE12-.LFB12
 2380 03b7 01       		.uleb128 0x1
 2381 03b8 9C       		.byte	0x9c
 2382 03b9 CE030000 		.4byte	0x3ce
 2383 03bd 1B       		.uleb128 0x1b
 2384 03be 73747200 		.ascii	"str\000"
 2385 03c2 01       		.byte	0x1
 2386 03c3 E601     		.2byte	0x1e6
 2387 03c5 18010000 		.4byte	0x118
 2388 03c9 00000000 		.4byte	.LLST0
 2389 03cd 00       		.byte	0
 2390 03ce 1A       		.uleb128 0x1a
 2391 03cf C3050000 		.4byte	.LASF58
 2392 03d3 01       		.byte	0x1
 2393 03d4 F801     		.2byte	0x1f8
 2394 03d6 CE000000 		.4byte	0xce
 2395 03da 00000000 		.4byte	.LFB13
 2396 03de 9E000000 		.4byte	.LFE13-.LFB13
 2397 03e2 01       		.uleb128 0x1
 2398 03e3 9C       		.byte	0x9c
 2399 03e4 18040000 		.4byte	0x418
 2400 03e8 1C       		.uleb128 0x1c
 2401 03e9 46040000 		.4byte	.LASF59
 2402 03ed 01       		.byte	0x1
 2403 03ee F801     		.2byte	0x1f8
 2404 03f0 CE000000 		.4byte	0xce
 2405 03f4 85000000 		.4byte	.LLST1
 2406 03f8 1D       		.uleb128 0x1d
 2407 03f9 F8040000 		.4byte	.LASF60
 2408 03fd 01       		.byte	0x1
 2409 03fe FB01     		.2byte	0x1fb
 2410 0400 18040000 		.4byte	0x418
 2411 0404 02       		.uleb128 0x2
 2412 0405 91       		.byte	0x91
 2413 0406 7C       		.sleb128 -4
 2414 0407 1E       		.uleb128 0x1e
 2415 0408 8E020000 		.4byte	.LASF61
 2416 040c 01       		.byte	0x1
ARM GAS  C:\Users\strap\AppData\Local\Temp\ccCgIabb.s 			page 68


 2417 040d 1002     		.2byte	0x210
 2418 040f 28040000 		.4byte	0x428
 2419 0413 D8000000 		.4byte	.LLST2
 2420 0417 00       		.byte	0
 2421 0418 1F       		.uleb128 0x1f
 2422 0419 AD000000 		.4byte	0xad
 2423 041d 28040000 		.4byte	0x428
 2424 0421 20       		.uleb128 0x20
 2425 0422 04010000 		.4byte	0x104
 2426 0426 03       		.byte	0x3
 2427 0427 00       		.byte	0
 2428 0428 07       		.uleb128 0x7
 2429 0429 04       		.byte	0x4
 2430 042a CE000000 		.4byte	0xce
 2431 042e 1A       		.uleb128 0x1a
 2432 042f 8C010000 		.4byte	.LASF62
 2433 0433 01       		.byte	0x1
 2434 0434 1902     		.2byte	0x219
 2435 0436 CE000000 		.4byte	0xce
 2436 043a 00000000 		.4byte	.LFB14
 2437 043e 5A000000 		.4byte	.LFE14-.LFB14
 2438 0442 01       		.uleb128 0x1
 2439 0443 9C       		.byte	0x9c
 2440 0444 C9040000 		.4byte	0x4c9
 2441 0448 1B       		.uleb128 0x1b
 2442 0449 6300     		.ascii	"c\000"
 2443 044b 01       		.byte	0x1
 2444 044c 1902     		.2byte	0x219
 2445 044e CE000000 		.4byte	0xce
 2446 0452 FA000000 		.4byte	.LLST3
 2447 0456 21       		.uleb128 0x21
 2448 0457 00000000 		.4byte	.Ldebug_ranges0+0
 2449 045b 1E       		.uleb128 0x1e
 2450 045c B4040000 		.4byte	.LASF63
 2451 0460 01       		.byte	0x1
 2452 0461 1E02     		.2byte	0x21e
 2453 0463 CE000000 		.4byte	0xce
 2454 0467 34010000 		.4byte	.LLST4
 2455 046b 22       		.uleb128 0x22
 2456 046c 633800   		.ascii	"c8\000"
 2457 046f 01       		.byte	0x1
 2458 0470 1F02     		.2byte	0x21f
 2459 0472 18040000 		.4byte	0x418
 2460 0476 02       		.uleb128 0x2
 2461 0477 91       		.byte	0x91
 2462 0478 7C       		.sleb128 -4
 2463 0479 23       		.uleb128 0x23
 2464 047a 6900     		.ascii	"i\000"
 2465 047c 01       		.byte	0x1
 2466 047d 2202     		.2byte	0x222
 2467 047f AD000000 		.4byte	0xad
 2468 0483 47010000 		.4byte	.LLST5
 2469 0487 24       		.uleb128 0x24
 2470 0488 F5020000 		.4byte	0x2f5
 2471 048c 0C000000 		.4byte	.LBB13
 2472 0490 18000000 		.4byte	.Ldebug_ranges0+0x18
 2473 0494 01       		.byte	0x1
ARM GAS  C:\Users\strap\AppData\Local\Temp\ccCgIabb.s 			page 69


 2474 0495 2002     		.2byte	0x220
 2475 0497 25       		.uleb128 0x25
 2476 0498 1B030000 		.4byte	0x31b
 2477 049c 71010000 		.4byte	.LLST6
 2478 04a0 26       		.uleb128 0x26
 2479 04a1 10030000 		.4byte	0x310
 2480 04a5 01       		.uleb128 0x1
 2481 04a6 51       		.byte	0x51
 2482 04a7 26       		.uleb128 0x26
 2483 04a8 05030000 		.4byte	0x305
 2484 04ac 01       		.uleb128 0x1
 2485 04ad 52       		.byte	0x52
 2486 04ae 21       		.uleb128 0x21
 2487 04af 18000000 		.4byte	.Ldebug_ranges0+0x18
 2488 04b3 27       		.uleb128 0x27
 2489 04b4 26030000 		.4byte	0x326
 2490 04b8 8F010000 		.4byte	.LLST7
 2491 04bc 27       		.uleb128 0x27
 2492 04bd 30030000 		.4byte	0x330
 2493 04c1 AD010000 		.4byte	.LLST8
 2494 04c5 00       		.byte	0
 2495 04c6 00       		.byte	0
 2496 04c7 00       		.byte	0
 2497 04c8 00       		.byte	0
 2498 04c9 1A       		.uleb128 0x1a
 2499 04ca EB050000 		.4byte	.LASF64
 2500 04ce 01       		.byte	0x1
 2501 04cf 3502     		.2byte	0x235
 2502 04d1 CE000000 		.4byte	0xce
 2503 04d5 00000000 		.4byte	.LFB15
 2504 04d9 FC000000 		.4byte	.LFE15-.LFB15
 2505 04dd 01       		.uleb128 0x1
 2506 04de 9C       		.byte	0x9c
 2507 04df 21050000 		.4byte	0x521
 2508 04e3 1B       		.uleb128 0x1b
 2509 04e4 74787400 		.ascii	"txt\000"
 2510 04e8 01       		.byte	0x1
 2511 04e9 3502     		.2byte	0x235
 2512 04eb 18010000 		.4byte	0x118
 2513 04ef E3010000 		.4byte	.LLST9
 2514 04f3 1B       		.uleb128 0x1b
 2515 04f4 6900     		.ascii	"i\000"
 2516 04f6 01       		.byte	0x1
 2517 04f7 3502     		.2byte	0x235
 2518 04f9 28040000 		.4byte	0x428
 2519 04fd B3020000 		.4byte	.LLST10
 2520 0501 1E       		.uleb128 0x1e
 2521 0502 48010000 		.4byte	.LASF65
 2522 0506 01       		.byte	0x1
 2523 0507 3E02     		.2byte	0x23e
 2524 0509 CE000000 		.4byte	0xce
 2525 050d D1020000 		.4byte	.LLST11
 2526 0511 1D       		.uleb128 0x1d
 2527 0512 54030000 		.4byte	.LASF66
 2528 0516 01       		.byte	0x1
 2529 0517 4102     		.2byte	0x241
 2530 0519 CE000000 		.4byte	0xce
ARM GAS  C:\Users\strap\AppData\Local\Temp\ccCgIabb.s 			page 70


 2531 051d 02       		.uleb128 0x2
 2532 051e 91       		.byte	0x91
 2533 051f 74       		.sleb128 -12
 2534 0520 00       		.byte	0
 2535 0521 28       		.uleb128 0x28
 2536 0522 77060000 		.4byte	.LASF67
 2537 0526 01       		.byte	0x1
 2538 0527 7F02     		.2byte	0x27f
 2539 0529 CE000000 		.4byte	0xce
 2540 052d 00000000 		.4byte	.LFB16
 2541 0531 50000000 		.4byte	.LFE16-.LFB16
 2542 0535 01       		.uleb128 0x1
 2543 0536 9C       		.byte	0x9c
 2544 0537 A7050000 		.4byte	0x5a7
 2545 053b 1B       		.uleb128 0x1b
 2546 053c 74787400 		.ascii	"txt\000"
 2547 0540 01       		.byte	0x1
 2548 0541 7F02     		.2byte	0x27f
 2549 0543 18010000 		.4byte	0x118
 2550 0547 B3030000 		.4byte	.LLST12
 2551 054b 1B       		.uleb128 0x1b
 2552 054c 6900     		.ascii	"i\000"
 2553 054e 01       		.byte	0x1
 2554 054f 7F02     		.2byte	0x27f
 2555 0551 28040000 		.4byte	0x428
 2556 0555 DF030000 		.4byte	.LLST13
 2557 0559 1E       		.uleb128 0x1e
 2558 055a 48030000 		.4byte	.LASF68
 2559 055e 01       		.byte	0x1
 2560 055f 8102     		.2byte	0x281
 2561 0561 AD000000 		.4byte	0xad
 2562 0565 0B040000 		.4byte	.LLST14
 2563 0569 23       		.uleb128 0x23
 2564 056a 636E7400 		.ascii	"cnt\000"
 2565 056e 01       		.byte	0x1
 2566 056f 8202     		.2byte	0x282
 2567 0571 AD000000 		.4byte	0xad
 2568 0575 1E040000 		.4byte	.LLST15
 2569 0579 1D       		.uleb128 0x1d
 2570 057a 54030000 		.4byte	.LASF66
 2571 057e 01       		.byte	0x1
 2572 057f 9302     		.2byte	0x293
 2573 0581 CE000000 		.4byte	0xce
 2574 0585 02       		.uleb128 0x2
 2575 0586 91       		.byte	0x91
 2576 0587 6C       		.sleb128 -20
 2577 0588 29       		.uleb128 0x29
 2578 0589 81020000 		.4byte	.LASF54
 2579 058d 01       		.byte	0x1
 2580 058e 9402     		.2byte	0x294
 2581 0590 CE000000 		.4byte	0xce
 2582 0594 2A       		.uleb128 0x2a
 2583 0595 42000000 		.4byte	.LVL76
 2584 0599 2B       		.uleb128 0x2b
 2585 059a 01       		.uleb128 0x1
 2586 059b 50       		.byte	0x50
 2587 059c 02       		.uleb128 0x2
ARM GAS  C:\Users\strap\AppData\Local\Temp\ccCgIabb.s 			page 71


 2588 059d 76       		.byte	0x76
 2589 059e 00       		.sleb128 0
 2590 059f 2B       		.uleb128 0x2b
 2591 05a0 01       		.uleb128 0x1
 2592 05a1 51       		.byte	0x51
 2593 05a2 02       		.uleb128 0x2
 2594 05a3 91       		.byte	0x91
 2595 05a4 6C       		.sleb128 -20
 2596 05a5 00       		.byte	0
 2597 05a6 00       		.byte	0
 2598 05a7 1A       		.uleb128 0x1a
 2599 05a8 29000000 		.4byte	.LASF69
 2600 05ac 01       		.byte	0x1
 2601 05ad A002     		.2byte	0x2a0
 2602 05af CE000000 		.4byte	0xce
 2603 05b3 00000000 		.4byte	.LFB17
 2604 05b7 2C000000 		.4byte	.LFE17-.LFB17
 2605 05bb 01       		.uleb128 0x1
 2606 05bc 9C       		.byte	0x9c
 2607 05bd 29060000 		.4byte	0x629
 2608 05c1 1B       		.uleb128 0x1b
 2609 05c2 74787400 		.ascii	"txt\000"
 2610 05c6 01       		.byte	0x1
 2611 05c7 A002     		.2byte	0x2a0
 2612 05c9 18010000 		.4byte	0x118
 2613 05cd 48040000 		.4byte	.LLST16
 2614 05d1 1C       		.uleb128 0x1c
 2615 05d2 94020000 		.4byte	.LASF70
 2616 05d6 01       		.byte	0x1
 2617 05d7 A002     		.2byte	0x2a0
 2618 05d9 CE000000 		.4byte	0xce
 2619 05dd 74040000 		.4byte	.LLST17
 2620 05e1 23       		.uleb128 0x23
 2621 05e2 6900     		.ascii	"i\000"
 2622 05e4 01       		.byte	0x1
 2623 05e5 A202     		.2byte	0x2a2
 2624 05e7 CE000000 		.4byte	0xce
 2625 05eb A0040000 		.4byte	.LLST18
 2626 05ef 1E       		.uleb128 0x1e
 2627 05f0 04070000 		.4byte	.LASF71
 2628 05f4 01       		.byte	0x1
 2629 05f5 A302     		.2byte	0x2a3
 2630 05f7 CE000000 		.4byte	0xce
 2631 05fb BF040000 		.4byte	.LLST19
 2632 05ff 2C       		.uleb128 0x2c
 2633 0600 0C000000 		.4byte	.LBB18
 2634 0604 10000000 		.4byte	.LBE18-.LBB18
 2635 0608 1E       		.uleb128 0x1e
 2636 0609 48030000 		.4byte	.LASF68
 2637 060d 01       		.byte	0x1
 2638 060e A502     		.2byte	0x2a5
 2639 0610 AD000000 		.4byte	0xad
 2640 0614 E9040000 		.4byte	.LLST20
 2641 0618 2A       		.uleb128 0x2a
 2642 0619 14000000 		.4byte	.LVL81
 2643 061d 2B       		.uleb128 0x2b
 2644 061e 01       		.uleb128 0x1
ARM GAS  C:\Users\strap\AppData\Local\Temp\ccCgIabb.s 			page 72


 2645 061f 50       		.byte	0x50
 2646 0620 05       		.uleb128 0x5
 2647 0621 77       		.byte	0x77
 2648 0622 00       		.sleb128 0
 2649 0623 74       		.byte	0x74
 2650 0624 00       		.sleb128 0
 2651 0625 22       		.byte	0x22
 2652 0626 00       		.byte	0
 2653 0627 00       		.byte	0
 2654 0628 00       		.byte	0
 2655 0629 1A       		.uleb128 0x1a
 2656 062a 30030000 		.4byte	.LASF72
 2657 062e 01       		.byte	0x1
 2658 062f B302     		.2byte	0x2b3
 2659 0631 CE000000 		.4byte	0xce
 2660 0635 00000000 		.4byte	.LFB18
 2661 0639 2C000000 		.4byte	.LFE18-.LFB18
 2662 063d 01       		.uleb128 0x1
 2663 063e 9C       		.byte	0x9c
 2664 063f 93060000 		.4byte	0x693
 2665 0643 1B       		.uleb128 0x1b
 2666 0644 74787400 		.ascii	"txt\000"
 2667 0648 01       		.byte	0x1
 2668 0649 B302     		.2byte	0x2b3
 2669 064b 18010000 		.4byte	0x118
 2670 064f FC040000 		.4byte	.LLST21
 2671 0653 1C       		.uleb128 0x1c
 2672 0654 88060000 		.4byte	.LASF73
 2673 0658 01       		.byte	0x1
 2674 0659 B302     		.2byte	0x2b3
 2675 065b CE000000 		.4byte	0xce
 2676 065f 28050000 		.4byte	.LLST22
 2677 0663 22       		.uleb128 0x22
 2678 0664 6900     		.ascii	"i\000"
 2679 0666 01       		.byte	0x1
 2680 0667 B502     		.2byte	0x2b5
 2681 0669 CE000000 		.4byte	0xce
 2682 066d 02       		.uleb128 0x2
 2683 066e 91       		.byte	0x91
 2684 066f 6C       		.sleb128 -20
 2685 0670 1E       		.uleb128 0x1e
 2686 0671 E2050000 		.4byte	.LASF74
 2687 0675 01       		.byte	0x1
 2688 0676 B602     		.2byte	0x2b6
 2689 0678 CE000000 		.4byte	0xce
 2690 067c 54050000 		.4byte	.LLST23
 2691 0680 2A       		.uleb128 0x2a
 2692 0681 18000000 		.4byte	.LVL89
 2693 0685 2B       		.uleb128 0x2b
 2694 0686 01       		.uleb128 0x1
 2695 0687 50       		.byte	0x50
 2696 0688 02       		.uleb128 0x2
 2697 0689 76       		.byte	0x76
 2698 068a 00       		.sleb128 0
 2699 068b 2B       		.uleb128 0x2b
 2700 068c 01       		.uleb128 0x1
 2701 068d 51       		.byte	0x51
ARM GAS  C:\Users\strap\AppData\Local\Temp\ccCgIabb.s 			page 73


 2702 068e 02       		.uleb128 0x2
 2703 068f 91       		.byte	0x91
 2704 0690 6C       		.sleb128 -20
 2705 0691 00       		.byte	0
 2706 0692 00       		.byte	0
 2707 0693 1A       		.uleb128 0x1a
 2708 0694 A2030000 		.4byte	.LASF75
 2709 0698 01       		.byte	0x1
 2710 0699 C602     		.2byte	0x2c6
 2711 069b CE000000 		.4byte	0xce
 2712 069f 00000000 		.4byte	.LFB19
 2713 06a3 2C000000 		.4byte	.LFE19-.LFB19
 2714 06a7 01       		.uleb128 0x1
 2715 06a8 9C       		.byte	0x9c
 2716 06a9 ED060000 		.4byte	0x6ed
 2717 06ad 1B       		.uleb128 0x1b
 2718 06ae 74787400 		.ascii	"txt\000"
 2719 06b2 01       		.byte	0x1
 2720 06b3 C602     		.2byte	0x2c6
 2721 06b5 18010000 		.4byte	0x118
 2722 06b9 7E050000 		.4byte	.LLST24
 2723 06bd 23       		.uleb128 0x23
 2724 06be 6C656E00 		.ascii	"len\000"
 2725 06c2 01       		.byte	0x1
 2726 06c3 C802     		.2byte	0x2c8
 2727 06c5 CE000000 		.4byte	0xce
 2728 06c9 AA050000 		.4byte	.LLST25
 2729 06cd 22       		.uleb128 0x22
 2730 06ce 6900     		.ascii	"i\000"
 2731 06d0 01       		.byte	0x1
 2732 06d1 C902     		.2byte	0x2c9
 2733 06d3 CE000000 		.4byte	0xce
 2734 06d7 02       		.uleb128 0x2
 2735 06d8 91       		.byte	0x91
 2736 06d9 6C       		.sleb128 -20
 2737 06da 2A       		.uleb128 0x2a
 2738 06db 16000000 		.4byte	.LVL95
 2739 06df 2B       		.uleb128 0x2b
 2740 06e0 01       		.uleb128 0x1
 2741 06e1 50       		.byte	0x50
 2742 06e2 02       		.uleb128 0x2
 2743 06e3 75       		.byte	0x75
 2744 06e4 00       		.sleb128 0
 2745 06e5 2B       		.uleb128 0x2b
 2746 06e6 01       		.uleb128 0x1
 2747 06e7 51       		.byte	0x51
 2748 06e8 02       		.uleb128 0x2
 2749 06e9 91       		.byte	0x91
 2750 06ea 6C       		.sleb128 -20
 2751 06eb 00       		.byte	0
 2752 06ec 00       		.byte	0
 2753 06ed 2D       		.uleb128 0x2d
 2754 06ee 97050000 		.4byte	.LASF93
 2755 06f2 01       		.byte	0x1
 2756 06f3 8D01     		.2byte	0x18d
 2757 06f5 41020000 		.4byte	0x241
 2758 06f9 00000000 		.4byte	.LFB9
ARM GAS  C:\Users\strap\AppData\Local\Temp\ccCgIabb.s 			page 74


 2759 06fd 46000000 		.4byte	.LFE9-.LFB9
 2760 0701 01       		.uleb128 0x1
 2761 0702 9C       		.byte	0x9c
 2762 0703 34070000 		.4byte	0x734
 2763 0707 1C       		.uleb128 0x1c
 2764 0708 71060000 		.4byte	.LASF76
 2765 070c 01       		.byte	0x1
 2766 070d 8D01     		.2byte	0x18d
 2767 070f 34070000 		.4byte	0x734
 2768 0713 D4050000 		.4byte	.LLST26
 2769 0717 2E       		.uleb128 0x2e
 2770 0718 6300     		.ascii	"c\000"
 2771 071a 01       		.byte	0x1
 2772 071b 8D01     		.2byte	0x18d
 2773 071d CE000000 		.4byte	0xce
 2774 0721 01       		.uleb128 0x1
 2775 0722 51       		.byte	0x51
 2776 0723 23       		.uleb128 0x23
 2777 0724 72657400 		.ascii	"ret\000"
 2778 0728 01       		.byte	0x1
 2779 0729 8F01     		.2byte	0x18f
 2780 072b 41020000 		.4byte	0x241
 2781 072f 4A060000 		.4byte	.LLST27
 2782 0733 00       		.byte	0
 2783 0734 07       		.uleb128 0x7
 2784 0735 04       		.byte	0x4
 2785 0736 EA020000 		.4byte	0x2ea
 2786 073a 2F       		.uleb128 0x2f
 2787 073b 60010000 		.4byte	.LASF77
 2788 073f 01       		.byte	0x1
 2789 0740 AC       		.byte	0xac
 2790 0741 CE000000 		.4byte	0xce
 2791 0745 00000000 		.4byte	.LFB6
 2792 0749 54010000 		.4byte	.LFE6-.LFB6
 2793 074d 01       		.uleb128 0x1
 2794 074e 9C       		.byte	0x9c
 2795 074f F3080000 		.4byte	0x8f3
 2796 0753 30       		.uleb128 0x30
 2797 0754 74787400 		.ascii	"txt\000"
 2798 0758 01       		.byte	0x1
 2799 0759 AC       		.byte	0xac
 2800 075a 18010000 		.4byte	0x118
 2801 075e A4060000 		.4byte	.LLST28
 2802 0762 31       		.uleb128 0x31
 2803 0763 5B050000 		.4byte	.LASF78
 2804 0767 01       		.byte	0x1
 2805 0768 AC       		.byte	0xac
 2806 0769 98030000 		.4byte	0x398
 2807 076d 15070000 		.4byte	.LLST29
 2808 0771 31       		.uleb128 0x31
 2809 0772 C6040000 		.4byte	.LASF79
 2810 0776 01       		.byte	0x1
 2811 0777 AD       		.byte	0xad
 2812 0778 D9000000 		.4byte	0xd9
 2813 077c 57070000 		.4byte	.LLST30
 2814 0780 31       		.uleb128 0x31
 2815 0781 98030000 		.4byte	.LASF80
ARM GAS  C:\Users\strap\AppData\Local\Temp\ccCgIabb.s 			page 75


 2816 0785 01       		.byte	0x1
 2817 0786 AD       		.byte	0xad
 2818 0787 D9000000 		.4byte	0xd9
 2819 078b 91070000 		.4byte	.LLST31
 2820 078f 31       		.uleb128 0x31
 2821 0790 05050000 		.4byte	.LASF81
 2822 0794 01       		.byte	0x1
 2823 0795 AE       		.byte	0xae
 2824 0796 C0020000 		.4byte	0x2c0
 2825 079a D8070000 		.4byte	.LLST32
 2826 079e 31       		.uleb128 0x31
 2827 079f 20030000 		.4byte	.LASF82
 2828 07a3 01       		.byte	0x1
 2829 07a4 AE       		.byte	0xae
 2830 07a5 28040000 		.4byte	0x428
 2831 07a9 F8070000 		.4byte	.LLST33
 2832 07ad 31       		.uleb128 0x31
 2833 07ae B1010000 		.4byte	.LASF83
 2834 07b2 01       		.byte	0x1
 2835 07b3 AE       		.byte	0xae
 2836 07b4 34070000 		.4byte	0x734
 2837 07b8 18080000 		.4byte	.LLST34
 2838 07bc 31       		.uleb128 0x31
 2839 07bd A3040000 		.4byte	.LASF84
 2840 07c1 01       		.byte	0x1
 2841 07c2 AE       		.byte	0xae
 2842 07c3 41020000 		.4byte	0x241
 2843 07c7 38080000 		.4byte	.LLST35
 2844 07cb 32       		.uleb128 0x32
 2845 07cc 6900     		.ascii	"i\000"
 2846 07ce 01       		.byte	0x1
 2847 07cf B5       		.byte	0xb5
 2848 07d0 CE000000 		.4byte	0xce
 2849 07d4 58080000 		.4byte	.LLST36
 2850 07d8 33       		.uleb128 0x33
 2851 07d9 76030000 		.4byte	.LASF85
 2852 07dd 01       		.byte	0x1
 2853 07de B5       		.byte	0xb5
 2854 07df CE000000 		.4byte	0xce
 2855 07e3 02       		.uleb128 0x2
 2856 07e4 91       		.byte	0x91
 2857 07e5 54       		.sleb128 -44
 2858 07e6 33       		.uleb128 0x33
 2859 07e7 00000000 		.4byte	.LASF86
 2860 07eb 01       		.byte	0x1
 2861 07ec B5       		.byte	0xb5
 2862 07ed CE000000 		.4byte	0xce
 2863 07f1 02       		.uleb128 0x2
 2864 07f2 91       		.byte	0x91
 2865 07f3 50       		.sleb128 -48
 2866 07f4 34       		.uleb128 0x34
 2867 07f5 81020000 		.4byte	.LASF54
 2868 07f9 01       		.byte	0x1
 2869 07fa B6       		.byte	0xb6
 2870 07fb CE000000 		.4byte	0xce
 2871 07ff 8D080000 		.4byte	.LLST37
 2872 0803 34       		.uleb128 0x34
ARM GAS  C:\Users\strap\AppData\Local\Temp\ccCgIabb.s 			page 76


 2873 0804 D2000000 		.4byte	.LASF87
 2874 0808 01       		.byte	0x1
 2875 0809 B7       		.byte	0xb7
 2876 080a CE000000 		.4byte	0xce
 2877 080e F2080000 		.4byte	.LLST38
 2878 0812 34       		.uleb128 0x34
 2879 0813 88000000 		.4byte	.LASF88
 2880 0817 01       		.byte	0x1
 2881 0818 B8       		.byte	0xb8
 2882 0819 D9000000 		.4byte	0xd9
 2883 081d 50090000 		.4byte	.LLST39
 2884 0821 34       		.uleb128 0x34
 2885 0822 F1030000 		.4byte	.LASF89
 2886 0826 01       		.byte	0x1
 2887 0827 B9       		.byte	0xb9
 2888 0828 D9000000 		.4byte	0xd9
 2889 082c 63090000 		.4byte	.LLST40
 2890 0830 34       		.uleb128 0x34
 2891 0831 7F000000 		.4byte	.LASF90
 2892 0835 01       		.byte	0x1
 2893 0836 BA       		.byte	0xba
 2894 0837 CE000000 		.4byte	0xce
 2895 083b A3090000 		.4byte	.LLST41
 2896 083f 34       		.uleb128 0x34
 2897 0840 E5030000 		.4byte	.LASF91
 2898 0844 01       		.byte	0x1
 2899 0845 BB       		.byte	0xbb
 2900 0846 CE000000 		.4byte	0xce
 2901 084a E3090000 		.4byte	.LLST42
 2902 084e 34       		.uleb128 0x34
 2903 084f B0050000 		.4byte	.LASF92
 2904 0853 01       		.byte	0x1
 2905 0854 BC       		.byte	0xbc
 2906 0855 CE000000 		.4byte	0xce
 2907 0859 0E0A0000 		.4byte	.LLST43
 2908 085d 35       		.uleb128 0x35
 2909 085e 48030000 		.4byte	0x348
 2910 0862 BC000000 		.4byte	.LBB19
 2911 0866 30000000 		.4byte	.Ldebug_ranges0+0x30
 2912 086a 01       		.byte	0x1
 2913 086b DF       		.byte	0xdf
 2914 086c 8C080000 		.4byte	0x88c
 2915 0870 36       		.uleb128 0x36
 2916 0871 59030000 		.4byte	0x359
 2917 0875 21       		.uleb128 0x21
 2918 0876 30000000 		.4byte	.Ldebug_ranges0+0x30
 2919 087a 27       		.uleb128 0x27
 2920 087b 65030000 		.4byte	0x365
 2921 087f 2E0A0000 		.4byte	.LLST44
 2922 0883 37       		.uleb128 0x37
 2923 0884 6F030000 		.4byte	0x36f
 2924 0888 01       		.uleb128 0x1
 2925 0889 53       		.byte	0x53
 2926 088a 00       		.byte	0
 2927 088b 00       		.byte	0
 2928 088c 38       		.uleb128 0x38
 2929 088d 48000000 		.4byte	.LVL120
ARM GAS  C:\Users\strap\AppData\Local\Temp\ccCgIabb.s 			page 77


 2930 0891 A2080000 		.4byte	0x8a2
 2931 0895 2B       		.uleb128 0x2b
 2932 0896 01       		.uleb128 0x1
 2933 0897 50       		.byte	0x50
 2934 0898 02       		.uleb128 0x2
 2935 0899 77       		.byte	0x77
 2936 089a 00       		.sleb128 0
 2937 089b 2B       		.uleb128 0x2b
 2938 089c 01       		.uleb128 0x1
 2939 089d 51       		.byte	0x51
 2940 089e 02       		.uleb128 0x2
 2941 089f 91       		.byte	0x91
 2942 08a0 54       		.sleb128 -44
 2943 08a1 00       		.byte	0
 2944 08a2 38       		.uleb128 0x38
 2945 08a3 64000000 		.4byte	.LVL123
 2946 08a7 B8080000 		.4byte	0x8b8
 2947 08ab 2B       		.uleb128 0x2b
 2948 08ac 01       		.uleb128 0x1
 2949 08ad 50       		.byte	0x50
 2950 08ae 02       		.uleb128 0x2
 2951 08af 77       		.byte	0x77
 2952 08b0 00       		.sleb128 0
 2953 08b1 2B       		.uleb128 0x2b
 2954 08b2 01       		.uleb128 0x1
 2955 08b3 51       		.byte	0x51
 2956 08b4 02       		.uleb128 0x2
 2957 08b5 91       		.byte	0x91
 2958 08b6 50       		.sleb128 -48
 2959 08b7 00       		.byte	0
 2960 08b8 39       		.uleb128 0x39
 2961 08b9 78000000 		.4byte	.LVL127
 2962 08bd ED060000 		.4byte	0x6ed
 2963 08c1 D3080000 		.4byte	0x8d3
 2964 08c5 2B       		.uleb128 0x2b
 2965 08c6 01       		.uleb128 0x1
 2966 08c7 50       		.byte	0x50
 2967 08c8 03       		.uleb128 0x3
 2968 08c9 91       		.byte	0x91
 2969 08ca 08       		.sleb128 8
 2970 08cb 06       		.byte	0x6
 2971 08cc 2B       		.uleb128 0x2b
 2972 08cd 01       		.uleb128 0x1
 2973 08ce 51       		.byte	0x51
 2974 08cf 02       		.uleb128 0x2
 2975 08d0 74       		.byte	0x74
 2976 08d1 00       		.sleb128 0
 2977 08d2 00       		.byte	0
 2978 08d3 3A       		.uleb128 0x3a
 2979 08d4 8C000000 		.4byte	.LVL131
 2980 08d8 2A0F0000 		.4byte	0xf2a
 2981 08dc 2B       		.uleb128 0x2b
 2982 08dd 01       		.uleb128 0x1
 2983 08de 50       		.byte	0x50
 2984 08df 03       		.uleb128 0x3
 2985 08e0 91       		.byte	0x91
 2986 08e1 40       		.sleb128 -64
ARM GAS  C:\Users\strap\AppData\Local\Temp\ccCgIabb.s 			page 78


 2987 08e2 06       		.byte	0x6
 2988 08e3 2B       		.uleb128 0x2b
 2989 08e4 01       		.uleb128 0x1
 2990 08e5 51       		.byte	0x51
 2991 08e6 02       		.uleb128 0x2
 2992 08e7 74       		.byte	0x74
 2993 08e8 00       		.sleb128 0
 2994 08e9 2B       		.uleb128 0x2b
 2995 08ea 01       		.uleb128 0x1
 2996 08eb 52       		.byte	0x52
 2997 08ec 04       		.uleb128 0x4
 2998 08ed 91       		.byte	0x91
 2999 08ee BC7F     		.sleb128 -68
 3000 08f0 06       		.byte	0x6
 3001 08f1 00       		.byte	0
 3002 08f2 00       		.byte	0
 3003 08f3 2D       		.uleb128 0x2d
 3004 08f4 78040000 		.4byte	.LASF94
 3005 08f8 01       		.byte	0x1
 3006 08f9 2501     		.2byte	0x125
 3007 08fb CE000000 		.4byte	0xce
 3008 08ff 00000000 		.4byte	.LFB7
 3009 0903 DC000000 		.4byte	.LFE7-.LFB7
 3010 0907 01       		.uleb128 0x1
 3011 0908 9C       		.byte	0x9c
 3012 0909 180A0000 		.4byte	0xa18
 3013 090d 1B       		.uleb128 0x1b
 3014 090e 74787400 		.ascii	"txt\000"
 3015 0912 01       		.byte	0x1
 3016 0913 2501     		.2byte	0x125
 3017 0915 18010000 		.4byte	0x118
 3018 0919 570A0000 		.4byte	.LLST45
 3019 091d 1C       		.uleb128 0x1c
 3020 091e 5B050000 		.4byte	.LASF78
 3021 0922 01       		.byte	0x1
 3022 0923 2501     		.2byte	0x125
 3023 0925 98030000 		.4byte	0x398
 3024 0929 D30A0000 		.4byte	.LLST46
 3025 092d 1C       		.uleb128 0x1c
 3026 092e C6040000 		.4byte	.LASF79
 3027 0932 01       		.byte	0x1
 3028 0933 2601     		.2byte	0x126
 3029 0935 D9000000 		.4byte	0xd9
 3030 0939 0A0B0000 		.4byte	.LLST47
 3031 093d 1C       		.uleb128 0x1c
 3032 093e 98030000 		.4byte	.LASF80
 3033 0942 01       		.byte	0x1
 3034 0943 2601     		.2byte	0x126
 3035 0945 D9000000 		.4byte	0xd9
 3036 0949 440B0000 		.4byte	.LLST48
 3037 094d 1C       		.uleb128 0x1c
 3038 094e 05050000 		.4byte	.LASF81
 3039 0952 01       		.byte	0x1
 3040 0953 2601     		.2byte	0x126
 3041 0955 C0020000 		.4byte	0x2c0
 3042 0959 AA0B0000 		.4byte	.LLST49
 3043 095d 1D       		.uleb128 0x1d
ARM GAS  C:\Users\strap\AppData\Local\Temp\ccCgIabb.s 			page 79


 3044 095e B1010000 		.4byte	.LASF83
 3045 0962 01       		.byte	0x1
 3046 0963 3701     		.2byte	0x137
 3047 0965 EA020000 		.4byte	0x2ea
 3048 0969 02       		.uleb128 0x2
 3049 096a 91       		.byte	0x91
 3050 096b 67       		.sleb128 -25
 3051 096c 22       		.uleb128 0x22
 3052 096d 6900     		.ascii	"i\000"
 3053 096f 01       		.byte	0x1
 3054 0970 3801     		.2byte	0x138
 3055 0972 CE000000 		.4byte	0xce
 3056 0976 02       		.uleb128 0x2
 3057 0977 91       		.byte	0x91
 3058 0978 60       		.sleb128 -32
 3059 0979 3B       		.uleb128 0x3b
 3060 097a 48000000 		.4byte	.Ldebug_ranges0+0x48
 3061 097e 91090000 		.4byte	0x991
 3062 0982 23       		.uleb128 0x23
 3063 0983 6900     		.ascii	"i\000"
 3064 0985 01       		.byte	0x1
 3065 0986 2E01     		.2byte	0x12e
 3066 0988 CE000000 		.4byte	0xce
 3067 098c CA0B0000 		.4byte	.LLST50
 3068 0990 00       		.byte	0
 3069 0991 3C       		.uleb128 0x3c
 3070 0992 52000000 		.4byte	.LBB25
 3071 0996 5C000000 		.4byte	.LBE25-.LBB25
 3072 099a 050A0000 		.4byte	0xa05
 3073 099e 1D       		.uleb128 0x1d
 3074 099f D3040000 		.4byte	.LASF95
 3075 09a3 01       		.byte	0x1
 3076 09a4 3B01     		.2byte	0x13b
 3077 09a6 CE000000 		.4byte	0xce
 3078 09aa 02       		.uleb128 0x2
 3079 09ab 91       		.byte	0x91
 3080 09ac 5C       		.sleb128 -36
 3081 09ad 1E       		.uleb128 0x1e
 3082 09ae 1D010000 		.4byte	.LASF96
 3083 09b2 01       		.byte	0x1
 3084 09b3 3C01     		.2byte	0x13c
 3085 09b5 CE000000 		.4byte	0xce
 3086 09b9 E80B0000 		.4byte	.LLST51
 3087 09bd 39       		.uleb128 0x39
 3088 09be 74000000 		.4byte	.LVL171
 3089 09c2 3A070000 		.4byte	0x73a
 3090 09c6 F2090000 		.4byte	0x9f2
 3091 09ca 2B       		.uleb128 0x2b
 3092 09cb 01       		.uleb128 0x1
 3093 09cc 51       		.byte	0x51
 3094 09cd 02       		.uleb128 0x2
 3095 09ce 77       		.byte	0x77
 3096 09cf 00       		.sleb128 0
 3097 09d0 2B       		.uleb128 0x2b
 3098 09d1 01       		.uleb128 0x1
 3099 09d2 52       		.byte	0x52
 3100 09d3 02       		.uleb128 0x2
ARM GAS  C:\Users\strap\AppData\Local\Temp\ccCgIabb.s 			page 80


 3101 09d4 78       		.byte	0x78
 3102 09d5 00       		.sleb128 0
 3103 09d6 2B       		.uleb128 0x2b
 3104 09d7 01       		.uleb128 0x1
 3105 09d8 53       		.byte	0x53
 3106 09d9 02       		.uleb128 0x2
 3107 09da 75       		.byte	0x75
 3108 09db 00       		.sleb128 0
 3109 09dc 2B       		.uleb128 0x2b
 3110 09dd 02       		.uleb128 0x2
 3111 09de 7D       		.byte	0x7d
 3112 09df 00       		.sleb128 0
 3113 09e0 02       		.uleb128 0x2
 3114 09e1 76       		.byte	0x76
 3115 09e2 00       		.sleb128 0
 3116 09e3 2B       		.uleb128 0x2b
 3117 09e4 02       		.uleb128 0x2
 3118 09e5 7D       		.byte	0x7d
 3119 09e6 04       		.sleb128 4
 3120 09e7 02       		.uleb128 0x2
 3121 09e8 91       		.byte	0x91
 3122 09e9 5C       		.sleb128 -36
 3123 09ea 2B       		.uleb128 0x2b
 3124 09eb 02       		.uleb128 0x2
 3125 09ec 7D       		.byte	0x7d
 3126 09ed 08       		.sleb128 8
 3127 09ee 02       		.uleb128 0x2
 3128 09ef 91       		.byte	0x91
 3129 09f0 67       		.sleb128 -25
 3130 09f1 00       		.byte	0
 3131 09f2 2A       		.uleb128 0x2a
 3132 09f3 8C000000 		.4byte	.LVL175
 3133 09f7 2B       		.uleb128 0x2b
 3134 09f8 01       		.uleb128 0x1
 3135 09f9 50       		.byte	0x50
 3136 09fa 02       		.uleb128 0x2
 3137 09fb 74       		.byte	0x74
 3138 09fc 00       		.sleb128 0
 3139 09fd 2B       		.uleb128 0x2b
 3140 09fe 01       		.uleb128 0x1
 3141 09ff 51       		.byte	0x51
 3142 0a00 02       		.uleb128 0x2
 3143 0a01 91       		.byte	0x91
 3144 0a02 60       		.sleb128 -32
 3145 0a03 00       		.byte	0
 3146 0a04 00       		.byte	0
 3147 0a05 2A       		.uleb128 0x2a
 3148 0a06 C8000000 		.4byte	.LVL179
 3149 0a0a 2B       		.uleb128 0x2b
 3150 0a0b 01       		.uleb128 0x1
 3151 0a0c 50       		.byte	0x50
 3152 0a0d 02       		.uleb128 0x2
 3153 0a0e 74       		.byte	0x74
 3154 0a0f 00       		.sleb128 0
 3155 0a10 2B       		.uleb128 0x2b
 3156 0a11 01       		.uleb128 0x1
 3157 0a12 51       		.byte	0x51
ARM GAS  C:\Users\strap\AppData\Local\Temp\ccCgIabb.s 			page 81


 3158 0a13 02       		.uleb128 0x2
 3159 0a14 91       		.byte	0x91
 3160 0a15 60       		.sleb128 -32
 3161 0a16 00       		.byte	0
 3162 0a17 00       		.byte	0
 3163 0a18 2D       		.uleb128 0x2d
 3164 0a19 DD020000 		.4byte	.LASF97
 3165 0a1d 01       		.byte	0x1
 3166 0a1e 6101     		.2byte	0x161
 3167 0a20 D9000000 		.4byte	0xd9
 3168 0a24 00000000 		.4byte	.LFB8
 3169 0a28 9C000000 		.4byte	.LFE8-.LFB8
 3170 0a2c 01       		.uleb128 0x1
 3171 0a2d 9C       		.byte	0x9c
 3172 0a2e 440B0000 		.4byte	0xb44
 3173 0a32 1B       		.uleb128 0x1b
 3174 0a33 74787400 		.ascii	"txt\000"
 3175 0a37 01       		.byte	0x1
 3176 0a38 6101     		.2byte	0x161
 3177 0a3a 18010000 		.4byte	0x118
 3178 0a3e 110C0000 		.4byte	.LLST52
 3179 0a42 1C       		.uleb128 0x1c
 3180 0a43 FE040000 		.4byte	.LASF98
 3181 0a47 01       		.byte	0x1
 3182 0a48 6101     		.2byte	0x161
 3183 0a4a CE000000 		.4byte	0xce
 3184 0a4e 6C0C0000 		.4byte	.LLST53
 3185 0a52 1C       		.uleb128 0x1c
 3186 0a53 5B050000 		.4byte	.LASF78
 3187 0a57 01       		.byte	0x1
 3188 0a58 6101     		.2byte	0x161
 3189 0a5a 98030000 		.4byte	0x398
 3190 0a5e C40C0000 		.4byte	.LLST54
 3191 0a62 1C       		.uleb128 0x1c
 3192 0a63 C6040000 		.4byte	.LASF79
 3193 0a67 01       		.byte	0x1
 3194 0a68 6101     		.2byte	0x161
 3195 0a6a D9000000 		.4byte	0xd9
 3196 0a6e 1C0D0000 		.4byte	.LLST55
 3197 0a72 1C       		.uleb128 0x1c
 3198 0a73 05050000 		.4byte	.LASF81
 3199 0a77 01       		.byte	0x1
 3200 0a78 6201     		.2byte	0x162
 3201 0a7a C0020000 		.4byte	0x2c0
 3202 0a7e 6F0D0000 		.4byte	.LLST56
 3203 0a82 22       		.uleb128 0x22
 3204 0a83 6900     		.ascii	"i\000"
 3205 0a85 01       		.byte	0x1
 3206 0a86 6701     		.2byte	0x167
 3207 0a88 CE000000 		.4byte	0xce
 3208 0a8c 02       		.uleb128 0x2
 3209 0a8d 91       		.byte	0x91
 3210 0a8e 54       		.sleb128 -44
 3211 0a8f 1E       		.uleb128 0x1e
 3212 0a90 6D020000 		.4byte	.LASF99
 3213 0a94 01       		.byte	0x1
 3214 0a95 6801     		.2byte	0x168
ARM GAS  C:\Users\strap\AppData\Local\Temp\ccCgIabb.s 			page 82


 3215 0a97 D9000000 		.4byte	0xd9
 3216 0a9b 8F0D0000 		.4byte	.LLST57
 3217 0a9f 1D       		.uleb128 0x1d
 3218 0aa0 B1010000 		.4byte	.LASF83
 3219 0aa4 01       		.byte	0x1
 3220 0aa5 6901     		.2byte	0x169
 3221 0aa7 EA020000 		.4byte	0x2ea
 3222 0aab 02       		.uleb128 0x2
 3223 0aac 91       		.byte	0x91
 3224 0aad 53       		.sleb128 -45
 3225 0aae 2C       		.uleb128 0x2c
 3226 0aaf 20000000 		.4byte	.LBB26
 3227 0ab3 4E000000 		.4byte	.LBE26-.LBB26
 3228 0ab7 1E       		.uleb128 0x1e
 3229 0ab8 81020000 		.4byte	.LASF54
 3230 0abc 01       		.byte	0x1
 3231 0abd 6D01     		.2byte	0x16d
 3232 0abf CE000000 		.4byte	0xce
 3233 0ac3 F60D0000 		.4byte	.LLST58
 3234 0ac7 1E       		.uleb128 0x1e
 3235 0ac8 D2000000 		.4byte	.LASF87
 3236 0acc 01       		.byte	0x1
 3237 0acd 6E01     		.2byte	0x16e
 3238 0acf CE000000 		.4byte	0xce
 3239 0ad3 140E0000 		.4byte	.LLST59
 3240 0ad7 1E       		.uleb128 0x1e
 3241 0ad8 A9040000 		.4byte	.LASF100
 3242 0adc 01       		.byte	0x1
 3243 0add 7501     		.2byte	0x175
 3244 0adf D9000000 		.4byte	0xd9
 3245 0ae3 320E0000 		.4byte	.LLST60
 3246 0ae7 38       		.uleb128 0x38
 3247 0ae8 2A000000 		.4byte	.LVL189
 3248 0aec FD0A0000 		.4byte	0xafd
 3249 0af0 2B       		.uleb128 0x2b
 3250 0af1 01       		.uleb128 0x1
 3251 0af2 50       		.byte	0x50
 3252 0af3 02       		.uleb128 0x2
 3253 0af4 75       		.byte	0x75
 3254 0af5 00       		.sleb128 0
 3255 0af6 2B       		.uleb128 0x2b
 3256 0af7 01       		.uleb128 0x1
 3257 0af8 51       		.byte	0x51
 3258 0af9 02       		.uleb128 0x2
 3259 0afa 91       		.byte	0x91
 3260 0afb 54       		.sleb128 -44
 3261 0afc 00       		.byte	0
 3262 0afd 38       		.uleb128 0x38
 3263 0afe 36000000 		.4byte	.LVL192
 3264 0b02 0C0B0000 		.4byte	0xb0c
 3265 0b06 2B       		.uleb128 0x2b
 3266 0b07 01       		.uleb128 0x1
 3267 0b08 51       		.byte	0x51
 3268 0b09 01       		.uleb128 0x1
 3269 0b0a 30       		.byte	0x30
 3270 0b0b 00       		.byte	0
 3271 0b0c 39       		.uleb128 0x39
ARM GAS  C:\Users\strap\AppData\Local\Temp\ccCgIabb.s 			page 83


 3272 0b0d 48000000 		.4byte	.LVL195
 3273 0b11 ED060000 		.4byte	0x6ed
 3274 0b15 260B0000 		.4byte	0xb26
 3275 0b19 2B       		.uleb128 0x2b
 3276 0b1a 01       		.uleb128 0x1
 3277 0b1b 50       		.byte	0x50
 3278 0b1c 02       		.uleb128 0x2
 3279 0b1d 91       		.byte	0x91
 3280 0b1e 53       		.sleb128 -45
 3281 0b1f 2B       		.uleb128 0x2b
 3282 0b20 01       		.uleb128 0x1
 3283 0b21 51       		.byte	0x51
 3284 0b22 02       		.uleb128 0x2
 3285 0b23 7B       		.byte	0x7b
 3286 0b24 00       		.sleb128 0
 3287 0b25 00       		.byte	0
 3288 0b26 3A       		.uleb128 0x3a
 3289 0b27 54000000 		.4byte	.LVL196
 3290 0b2b 2A0F0000 		.4byte	0xf2a
 3291 0b2f 2B       		.uleb128 0x2b
 3292 0b30 01       		.uleb128 0x1
 3293 0b31 50       		.byte	0x50
 3294 0b32 02       		.uleb128 0x2
 3295 0b33 77       		.byte	0x77
 3296 0b34 00       		.sleb128 0
 3297 0b35 2B       		.uleb128 0x2b
 3298 0b36 01       		.uleb128 0x1
 3299 0b37 51       		.byte	0x51
 3300 0b38 02       		.uleb128 0x2
 3301 0b39 7B       		.byte	0x7b
 3302 0b3a 00       		.sleb128 0
 3303 0b3b 2B       		.uleb128 0x2b
 3304 0b3c 01       		.uleb128 0x1
 3305 0b3d 52       		.byte	0x52
 3306 0b3e 02       		.uleb128 0x2
 3307 0b3f 74       		.byte	0x74
 3308 0b40 00       		.sleb128 0
 3309 0b41 00       		.byte	0
 3310 0b42 00       		.byte	0
 3311 0b43 00       		.byte	0
 3312 0b44 3D       		.uleb128 0x3d
 3313 0b45 1F050000 		.4byte	.LASF108
 3314 0b49 01       		.byte	0x1
 3315 0b4a 5D       		.byte	0x5d
 3316 0b4b 00000000 		.4byte	.LFB5
 3317 0b4f C8000000 		.4byte	.LFE5-.LFB5
 3318 0b53 01       		.uleb128 0x1
 3319 0b54 9C       		.byte	0x9c
 3320 0b55 7A0C0000 		.4byte	0xc7a
 3321 0b59 31       		.uleb128 0x31
 3322 0b5a B9000000 		.4byte	.LASF101
 3323 0b5e 01       		.byte	0x1
 3324 0b5f 5D       		.byte	0x5d
 3325 0b60 7A0C0000 		.4byte	0xc7a
 3326 0b64 450E0000 		.4byte	.LLST61
 3327 0b68 31       		.uleb128 0x31
 3328 0b69 4F030000 		.4byte	.LASF102
ARM GAS  C:\Users\strap\AppData\Local\Temp\ccCgIabb.s 			page 84


 3329 0b6d 01       		.byte	0x1
 3330 0b6e 5D       		.byte	0x5d
 3331 0b6f 18010000 		.4byte	0x118
 3332 0b73 710E0000 		.4byte	.LLST62
 3333 0b77 31       		.uleb128 0x31
 3334 0b78 5B050000 		.4byte	.LASF78
 3335 0b7c 01       		.byte	0x1
 3336 0b7d 5D       		.byte	0x5d
 3337 0b7e 98030000 		.4byte	0x398
 3338 0b82 9D0E0000 		.4byte	.LLST63
 3339 0b86 31       		.uleb128 0x31
 3340 0b87 C6040000 		.4byte	.LASF79
 3341 0b8b 01       		.byte	0x1
 3342 0b8c 5D       		.byte	0x5d
 3343 0b8d D9000000 		.4byte	0xd9
 3344 0b91 C90E0000 		.4byte	.LLST64
 3345 0b95 3E       		.uleb128 0x3e
 3346 0b96 EF020000 		.4byte	.LASF103
 3347 0b9a 01       		.byte	0x1
 3348 0b9b 5E       		.byte	0x5e
 3349 0b9c D9000000 		.4byte	0xd9
 3350 0ba0 02       		.uleb128 0x2
 3351 0ba1 91       		.byte	0x91
 3352 0ba2 00       		.sleb128 0
 3353 0ba3 31       		.uleb128 0x31
 3354 0ba4 98030000 		.4byte	.LASF80
 3355 0ba8 01       		.byte	0x1
 3356 0ba9 5E       		.byte	0x5e
 3357 0baa D9000000 		.4byte	0xd9
 3358 0bae EA0E0000 		.4byte	.LLST65
 3359 0bb2 3E       		.uleb128 0x3e
 3360 0bb3 05050000 		.4byte	.LASF81
 3361 0bb7 01       		.byte	0x1
 3362 0bb8 5E       		.byte	0x5e
 3363 0bb9 C0020000 		.4byte	0x2c0
 3364 0bbd 02       		.uleb128 0x2
 3365 0bbe 91       		.byte	0x91
 3366 0bbf 08       		.sleb128 8
 3367 0bc0 34       		.uleb128 0x34
 3368 0bc1 E4040000 		.4byte	.LASF104
 3369 0bc5 01       		.byte	0x1
 3370 0bc6 68       		.byte	0x68
 3371 0bc7 CE000000 		.4byte	0xce
 3372 0bcb 0A0F0000 		.4byte	.LLST66
 3373 0bcf 34       		.uleb128 0x34
 3374 0bd0 5F070000 		.4byte	.LASF105
 3375 0bd4 01       		.byte	0x1
 3376 0bd5 69       		.byte	0x69
 3377 0bd6 CE000000 		.4byte	0xce
 3378 0bda 410F0000 		.4byte	.LLST67
 3379 0bde 34       		.uleb128 0x34
 3380 0bdf 14000000 		.4byte	.LASF106
 3381 0be3 01       		.byte	0x1
 3382 0be4 6A       		.byte	0x6a
 3383 0be5 C3000000 		.4byte	0xc3
 3384 0be9 6D0F0000 		.4byte	.LLST68
 3385 0bed 3F       		.uleb128 0x3f
ARM GAS  C:\Users\strap\AppData\Local\Temp\ccCgIabb.s 			page 85


 3386 0bee 7C030000 		.4byte	0x37c
 3387 0bf2 36000000 		.4byte	.LBB27
 3388 0bf6 06000000 		.4byte	.LBE27-.LBB27
 3389 0bfa 01       		.byte	0x1
 3390 0bfb 6A       		.byte	0x6a
 3391 0bfc 0A0C0000 		.4byte	0xc0a
 3392 0c00 25       		.uleb128 0x25
 3393 0c01 8C030000 		.4byte	0x38c
 3394 0c05 8C0F0000 		.4byte	.LLST69
 3395 0c09 00       		.byte	0
 3396 0c0a 2C       		.uleb128 0x2c
 3397 0c0b 44000000 		.4byte	.LBB29
 3398 0c0f 42000000 		.4byte	.LBE29-.LBB29
 3399 0c13 34       		.uleb128 0x34
 3400 0c14 4B050000 		.4byte	.LASF107
 3401 0c18 01       		.byte	0x1
 3402 0c19 7A       		.byte	0x7a
 3403 0c1a D9000000 		.4byte	0xd9
 3404 0c1e 9F0F0000 		.4byte	.LLST70
 3405 0c22 39       		.uleb128 0x39
 3406 0c23 52000000 		.4byte	.LVL219
 3407 0c27 F3080000 		.4byte	0x8f3
 3408 0c2b 530C0000 		.4byte	0xc53
 3409 0c2f 2B       		.uleb128 0x2b
 3410 0c30 01       		.uleb128 0x1
 3411 0c31 50       		.byte	0x50
 3412 0c32 02       		.uleb128 0x2
 3413 0c33 76       		.byte	0x76
 3414 0c34 00       		.sleb128 0
 3415 0c35 2B       		.uleb128 0x2b
 3416 0c36 01       		.uleb128 0x1
 3417 0c37 51       		.byte	0x51
 3418 0c38 02       		.uleb128 0x2
 3419 0c39 79       		.byte	0x79
 3420 0c3a 00       		.sleb128 0
 3421 0c3b 2B       		.uleb128 0x2b
 3422 0c3c 01       		.uleb128 0x1
 3423 0c3d 52       		.byte	0x52
 3424 0c3e 04       		.uleb128 0x4
 3425 0c3f 91       		.byte	0x91
 3426 0c40 4C       		.sleb128 -52
 3427 0c41 94       		.byte	0x94
 3428 0c42 02       		.byte	0x2
 3429 0c43 2B       		.uleb128 0x2b
 3430 0c44 01       		.uleb128 0x1
 3431 0c45 53       		.byte	0x53
 3432 0c46 04       		.uleb128 0x4
 3433 0c47 91       		.byte	0x91
 3434 0c48 50       		.sleb128 -48
 3435 0c49 94       		.byte	0x94
 3436 0c4a 02       		.byte	0x2
 3437 0c4b 2B       		.uleb128 0x2b
 3438 0c4c 02       		.uleb128 0x2
 3439 0c4d 7D       		.byte	0x7d
 3440 0c4e 00       		.sleb128 0
 3441 0c4f 02       		.uleb128 0x2
 3442 0c50 77       		.byte	0x77
ARM GAS  C:\Users\strap\AppData\Local\Temp\ccCgIabb.s 			page 86


 3443 0c51 00       		.sleb128 0
 3444 0c52 00       		.byte	0
 3445 0c53 3A       		.uleb128 0x3a
 3446 0c54 7A000000 		.4byte	.LVL221
 3447 0c58 180A0000 		.4byte	0xa18
 3448 0c5c 2B       		.uleb128 0x2b
 3449 0c5d 01       		.uleb128 0x1
 3450 0c5e 50       		.byte	0x50
 3451 0c5f 02       		.uleb128 0x2
 3452 0c60 76       		.byte	0x76
 3453 0c61 00       		.sleb128 0
 3454 0c62 2B       		.uleb128 0x2b
 3455 0c63 01       		.uleb128 0x1
 3456 0c64 52       		.byte	0x52
 3457 0c65 02       		.uleb128 0x2
 3458 0c66 79       		.byte	0x79
 3459 0c67 00       		.sleb128 0
 3460 0c68 2B       		.uleb128 0x2b
 3461 0c69 01       		.uleb128 0x1
 3462 0c6a 53       		.byte	0x53
 3463 0c6b 04       		.uleb128 0x4
 3464 0c6c 91       		.byte	0x91
 3465 0c6d 4C       		.sleb128 -52
 3466 0c6e 94       		.byte	0x94
 3467 0c6f 02       		.byte	0x2
 3468 0c70 2B       		.uleb128 0x2b
 3469 0c71 02       		.uleb128 0x2
 3470 0c72 7D       		.byte	0x7d
 3471 0c73 00       		.sleb128 0
 3472 0c74 02       		.uleb128 0x2
 3473 0c75 77       		.byte	0x77
 3474 0c76 00       		.sleb128 0
 3475 0c77 00       		.byte	0
 3476 0c78 00       		.byte	0
 3477 0c79 00       		.byte	0
 3478 0c7a 07       		.uleb128 0x7
 3479 0c7b 04       		.byte	0x4
 3480 0c7c 40010000 		.4byte	0x140
 3481 0c80 40       		.uleb128 0x40
 3482 0c81 4D070000 		.4byte	.LASF109
 3483 0c85 01       		.byte	0x1
 3484 0c86 B301     		.2byte	0x1b3
 3485 0c88 00000000 		.4byte	.LFB10
 3486 0c8c 50000000 		.4byte	.LFE10-.LFB10
 3487 0c90 01       		.uleb128 0x1
 3488 0c91 9C       		.byte	0x9c
 3489 0c92 8B0D0000 		.4byte	0xd8b
 3490 0c96 1C       		.uleb128 0x1c
 3491 0c97 38010000 		.4byte	.LASF110
 3492 0c9b 01       		.byte	0x1
 3493 0c9c B301     		.2byte	0x1b3
 3494 0c9e 0B010000 		.4byte	0x10b
 3495 0ca2 B20F0000 		.4byte	.LLST71
 3496 0ca6 1B       		.uleb128 0x1b
 3497 0ca7 706F7300 		.ascii	"pos\000"
 3498 0cab 01       		.byte	0x1
 3499 0cac B301     		.2byte	0x1b3
ARM GAS  C:\Users\strap\AppData\Local\Temp\ccCgIabb.s 			page 87


 3500 0cae CE000000 		.4byte	0xce
 3501 0cb2 DE0F0000 		.4byte	.LLST72
 3502 0cb6 1C       		.uleb128 0x1c
 3503 0cb7 B0020000 		.4byte	.LASF111
 3504 0cbb 01       		.byte	0x1
 3505 0cbc B301     		.2byte	0x1b3
 3506 0cbe 18010000 		.4byte	0x118
 3507 0cc2 07100000 		.4byte	.LLST73
 3508 0cc6 1E       		.uleb128 0x1e
 3509 0cc7 0C000000 		.4byte	.LASF112
 3510 0ccb 01       		.byte	0x1
 3511 0ccc B501     		.2byte	0x1b5
 3512 0cce F2000000 		.4byte	0xf2
 3513 0cd2 33100000 		.4byte	.LLST74
 3514 0cd6 1E       		.uleb128 0x1e
 3515 0cd7 D8060000 		.4byte	.LASF113
 3516 0cdb 01       		.byte	0x1
 3517 0cdc B601     		.2byte	0x1b6
 3518 0cde F2000000 		.4byte	0xf2
 3519 0ce2 51100000 		.4byte	.LLST75
 3520 0ce6 1E       		.uleb128 0x1e
 3521 0ce7 DA050000 		.4byte	.LASF114
 3522 0ceb 01       		.byte	0x1
 3523 0cec B901     		.2byte	0x1b9
 3524 0cee F2000000 		.4byte	0xf2
 3525 0cf2 6F100000 		.4byte	.LLST76
 3526 0cf6 23       		.uleb128 0x23
 3527 0cf7 6900     		.ascii	"i\000"
 3528 0cf9 01       		.byte	0x1
 3529 0cfa BD01     		.2byte	0x1bd
 3530 0cfc F2000000 		.4byte	0xf2
 3531 0d00 82100000 		.4byte	.LLST77
 3532 0d04 41       		.uleb128 0x41
 3533 0d05 F5020000 		.4byte	0x2f5
 3534 0d09 3A000000 		.4byte	.LBB30
 3535 0d0d 16000000 		.4byte	.LBE30-.LBB30
 3536 0d11 01       		.byte	0x1
 3537 0d12 C301     		.2byte	0x1c3
 3538 0d14 500D0000 		.4byte	0xd50
 3539 0d18 25       		.uleb128 0x25
 3540 0d19 1B030000 		.4byte	0x31b
 3541 0d1d 95100000 		.4byte	.LLST78
 3542 0d21 25       		.uleb128 0x25
 3543 0d22 10030000 		.4byte	0x310
 3544 0d26 A8100000 		.4byte	.LLST79
 3545 0d2a 25       		.uleb128 0x25
 3546 0d2b 05030000 		.4byte	0x305
 3547 0d2f C9100000 		.4byte	.LLST80
 3548 0d33 2C       		.uleb128 0x2c
 3549 0d34 3A000000 		.4byte	.LBB31
 3550 0d38 16000000 		.4byte	.LBE31-.LBB31
 3551 0d3c 27       		.uleb128 0x27
 3552 0d3d 26030000 		.4byte	0x326
 3553 0d41 DC100000 		.4byte	.LLST81
 3554 0d45 27       		.uleb128 0x27
 3555 0d46 30030000 		.4byte	0x330
 3556 0d4a EF100000 		.4byte	.LLST82
ARM GAS  C:\Users\strap\AppData\Local\Temp\ccCgIabb.s 			page 88


 3557 0d4e 00       		.byte	0
 3558 0d4f 00       		.byte	0
 3559 0d50 39       		.uleb128 0x39
 3560 0d51 0E000000 		.4byte	.LVL229
 3561 0d55 350F0000 		.4byte	0xf35
 3562 0d59 640D0000 		.4byte	0xd64
 3563 0d5d 2B       		.uleb128 0x2b
 3564 0d5e 01       		.uleb128 0x1
 3565 0d5f 50       		.byte	0x50
 3566 0d60 02       		.uleb128 0x2
 3567 0d61 77       		.byte	0x77
 3568 0d62 00       		.sleb128 0
 3569 0d63 00       		.byte	0
 3570 0d64 39       		.uleb128 0x39
 3571 0d65 16000000 		.4byte	.LVL232
 3572 0d69 350F0000 		.4byte	0xf35
 3573 0d6d 780D0000 		.4byte	0xd78
 3574 0d71 2B       		.uleb128 0x2b
 3575 0d72 01       		.uleb128 0x1
 3576 0d73 50       		.byte	0x50
 3577 0d74 02       		.uleb128 0x2
 3578 0d75 76       		.byte	0x76
 3579 0d76 00       		.sleb128 0
 3580 0d77 00       		.byte	0
 3581 0d78 2A       		.uleb128 0x2a
 3582 0d79 26000000 		.4byte	.LVL235
 3583 0d7d 2B       		.uleb128 0x2b
 3584 0d7e 01       		.uleb128 0x1
 3585 0d7f 50       		.byte	0x50
 3586 0d80 02       		.uleb128 0x2
 3587 0d81 77       		.byte	0x77
 3588 0d82 00       		.sleb128 0
 3589 0d83 2B       		.uleb128 0x2b
 3590 0d84 01       		.uleb128 0x1
 3591 0d85 51       		.byte	0x51
 3592 0d86 02       		.uleb128 0x2
 3593 0d87 78       		.byte	0x78
 3594 0d88 00       		.sleb128 0
 3595 0d89 00       		.byte	0
 3596 0d8a 00       		.byte	0
 3597 0d8b 40       		.uleb128 0x40
 3598 0d8c 41000000 		.4byte	.LASF115
 3599 0d90 01       		.byte	0x1
 3600 0d91 CD01     		.2byte	0x1cd
 3601 0d93 00000000 		.4byte	.LFB11
 3602 0d97 3C000000 		.4byte	.LFE11-.LFB11
 3603 0d9b 01       		.uleb128 0x1
 3604 0d9c 9C       		.byte	0x9c
 3605 0d9d 2F0E0000 		.4byte	0xe2f
 3606 0da1 1B       		.uleb128 0x1b
 3607 0da2 74787400 		.ascii	"txt\000"
 3608 0da6 01       		.byte	0x1
 3609 0da7 CD01     		.2byte	0x1cd
 3610 0da9 0B010000 		.4byte	0x10b
 3611 0dad 1A110000 		.4byte	.LLST83
 3612 0db1 1B       		.uleb128 0x1b
 3613 0db2 706F7300 		.ascii	"pos\000"
ARM GAS  C:\Users\strap\AppData\Local\Temp\ccCgIabb.s 			page 89


 3614 0db6 01       		.byte	0x1
 3615 0db7 CD01     		.2byte	0x1cd
 3616 0db9 CE000000 		.4byte	0xce
 3617 0dbd 46110000 		.4byte	.LLST84
 3618 0dc1 1B       		.uleb128 0x1b
 3619 0dc2 6C656E00 		.ascii	"len\000"
 3620 0dc6 01       		.byte	0x1
 3621 0dc7 CD01     		.2byte	0x1cd
 3622 0dc9 CE000000 		.4byte	0xce
 3623 0dcd 7A110000 		.4byte	.LLST85
 3624 0dd1 1E       		.uleb128 0x1e
 3625 0dd2 0C000000 		.4byte	.LASF112
 3626 0dd6 01       		.byte	0x1
 3627 0dd7 D001     		.2byte	0x1d0
 3628 0dd9 F2000000 		.4byte	0xf2
 3629 0ddd A3110000 		.4byte	.LLST86
 3630 0de1 23       		.uleb128 0x23
 3631 0de2 6900     		.ascii	"i\000"
 3632 0de4 01       		.byte	0x1
 3633 0de5 D601     		.2byte	0x1d6
 3634 0de7 CE000000 		.4byte	0xce
 3635 0deb C1110000 		.4byte	.LLST87
 3636 0def 39       		.uleb128 0x39
 3637 0df0 0E000000 		.4byte	.LVL246
 3638 0df4 350F0000 		.4byte	0xf35
 3639 0df8 030E0000 		.4byte	0xe03
 3640 0dfc 2B       		.uleb128 0x2b
 3641 0dfd 01       		.uleb128 0x1
 3642 0dfe 50       		.byte	0x50
 3643 0dff 02       		.uleb128 0x2
 3644 0e00 75       		.byte	0x75
 3645 0e01 00       		.sleb128 0
 3646 0e02 00       		.byte	0
 3647 0e03 38       		.uleb128 0x38
 3648 0e04 1A000000 		.4byte	.LVL249
 3649 0e08 190E0000 		.4byte	0xe19
 3650 0e0c 2B       		.uleb128 0x2b
 3651 0e0d 01       		.uleb128 0x1
 3652 0e0e 50       		.byte	0x50
 3653 0e0f 02       		.uleb128 0x2
 3654 0e10 75       		.byte	0x75
 3655 0e11 00       		.sleb128 0
 3656 0e12 2B       		.uleb128 0x2b
 3657 0e13 01       		.uleb128 0x1
 3658 0e14 51       		.byte	0x51
 3659 0e15 02       		.uleb128 0x2
 3660 0e16 74       		.byte	0x74
 3661 0e17 00       		.sleb128 0
 3662 0e18 00       		.byte	0
 3663 0e19 2A       		.uleb128 0x2a
 3664 0e1a 24000000 		.4byte	.LVL252
 3665 0e1e 2B       		.uleb128 0x2b
 3666 0e1f 01       		.uleb128 0x1
 3667 0e20 50       		.byte	0x50
 3668 0e21 05       		.uleb128 0x5
 3669 0e22 75       		.byte	0x75
 3670 0e23 00       		.sleb128 0
ARM GAS  C:\Users\strap\AppData\Local\Temp\ccCgIabb.s 			page 90


 3671 0e24 74       		.byte	0x74
 3672 0e25 00       		.sleb128 0
 3673 0e26 22       		.byte	0x22
 3674 0e27 2B       		.uleb128 0x2b
 3675 0e28 01       		.uleb128 0x1
 3676 0e29 51       		.byte	0x51
 3677 0e2a 02       		.uleb128 0x2
 3678 0e2b 78       		.byte	0x78
 3679 0e2c 00       		.sleb128 0
 3680 0e2d 00       		.byte	0
 3681 0e2e 00       		.byte	0
 3682 0e2f 0E       		.uleb128 0xe
 3683 0e30 AD000000 		.4byte	0xad
 3684 0e34 3E0E0000 		.4byte	0xe3e
 3685 0e38 0F       		.uleb128 0xf
 3686 0e39 18010000 		.4byte	0x118
 3687 0e3d 00       		.byte	0
 3688 0e3e 42       		.uleb128 0x42
 3689 0e3f C8020000 		.4byte	.LASF116
 3690 0e43 01       		.byte	0x1
 3691 0e44 36       		.byte	0x36
 3692 0e45 4F0E0000 		.4byte	0xe4f
 3693 0e49 05       		.uleb128 0x5
 3694 0e4a 03       		.byte	0x3
 3695 0e4b 00000000 		.4byte	_lv_txt_encoded_size
 3696 0e4f 07       		.uleb128 0x7
 3697 0e50 04       		.byte	0x4
 3698 0e51 2F0E0000 		.4byte	0xe2f
 3699 0e55 0E       		.uleb128 0xe
 3700 0e56 CE000000 		.4byte	0xce
 3701 0e5a 640E0000 		.4byte	0xe64
 3702 0e5e 0F       		.uleb128 0xf
 3703 0e5f CE000000 		.4byte	0xce
 3704 0e63 00       		.byte	0
 3705 0e64 42       		.uleb128 0x42
 3706 0e65 BD060000 		.4byte	.LASF117
 3707 0e69 01       		.byte	0x1
 3708 0e6a 37       		.byte	0x37
 3709 0e6b 750E0000 		.4byte	0xe75
 3710 0e6f 05       		.uleb128 0x5
 3711 0e70 03       		.byte	0x3
 3712 0e71 00000000 		.4byte	_lv_txt_unicode_to_encoded
 3713 0e75 07       		.uleb128 0x7
 3714 0e76 04       		.byte	0x4
 3715 0e77 550E0000 		.4byte	0xe55
 3716 0e7b 42       		.uleb128 0x42
 3717 0e7c 16040000 		.4byte	.LASF118
 3718 0e80 01       		.byte	0x1
 3719 0e81 38       		.byte	0x38
 3720 0e82 750E0000 		.4byte	0xe75
 3721 0e86 05       		.uleb128 0x5
 3722 0e87 03       		.byte	0x3
 3723 0e88 00000000 		.4byte	_lv_txt_encoded_conv_wc
 3724 0e8c 0E       		.uleb128 0xe
 3725 0e8d CE000000 		.4byte	0xce
 3726 0e91 A00E0000 		.4byte	0xea0
 3727 0e95 0F       		.uleb128 0xf
ARM GAS  C:\Users\strap\AppData\Local\Temp\ccCgIabb.s 			page 91


 3728 0e96 18010000 		.4byte	0x118
 3729 0e9a 0F       		.uleb128 0xf
 3730 0e9b 28040000 		.4byte	0x428
 3731 0e9f 00       		.byte	0
 3732 0ea0 42       		.uleb128 0x42
 3733 0ea1 36050000 		.4byte	.LASF119
 3734 0ea5 01       		.byte	0x1
 3735 0ea6 39       		.byte	0x39
 3736 0ea7 B10E0000 		.4byte	0xeb1
 3737 0eab 05       		.uleb128 0x5
 3738 0eac 03       		.byte	0x3
 3739 0ead 00000000 		.4byte	_lv_txt_encoded_next
 3740 0eb1 07       		.uleb128 0x7
 3741 0eb2 04       		.byte	0x4
 3742 0eb3 8C0E0000 		.4byte	0xe8c
 3743 0eb7 42       		.uleb128 0x42
 3744 0eb8 15060000 		.4byte	.LASF120
 3745 0ebc 01       		.byte	0x1
 3746 0ebd 3A       		.byte	0x3a
 3747 0ebe B10E0000 		.4byte	0xeb1
 3748 0ec2 05       		.uleb128 0x5
 3749 0ec3 03       		.byte	0x3
 3750 0ec4 00000000 		.4byte	_lv_txt_encoded_prev
 3751 0ec8 0E       		.uleb128 0xe
 3752 0ec9 CE000000 		.4byte	0xce
 3753 0ecd DC0E0000 		.4byte	0xedc
 3754 0ed1 0F       		.uleb128 0xf
 3755 0ed2 18010000 		.4byte	0x118
 3756 0ed6 0F       		.uleb128 0xf
 3757 0ed7 CE000000 		.4byte	0xce
 3758 0edb 00       		.byte	0
 3759 0edc 42       		.uleb128 0x42
 3760 0edd 2A060000 		.4byte	.LASF121
 3761 0ee1 01       		.byte	0x1
 3762 0ee2 3B       		.byte	0x3b
 3763 0ee3 ED0E0000 		.4byte	0xeed
 3764 0ee7 05       		.uleb128 0x5
 3765 0ee8 03       		.byte	0x3
 3766 0ee9 00000000 		.4byte	_lv_txt_encoded_get_byte_id
 3767 0eed 07       		.uleb128 0x7
 3768 0eee 04       		.byte	0x4
 3769 0eef C80E0000 		.4byte	0xec8
 3770 0ef3 42       		.uleb128 0x42
 3771 0ef4 01010000 		.4byte	.LASF122
 3772 0ef8 01       		.byte	0x1
 3773 0ef9 3C       		.byte	0x3c
 3774 0efa ED0E0000 		.4byte	0xeed
 3775 0efe 05       		.uleb128 0x5
 3776 0eff 03       		.byte	0x3
 3777 0f00 00000000 		.4byte	_lv_txt_encoded_get_char_id
 3778 0f04 0E       		.uleb128 0xe
 3779 0f05 CE000000 		.4byte	0xce
 3780 0f09 130F0000 		.4byte	0xf13
 3781 0f0d 0F       		.uleb128 0xf
 3782 0f0e 18010000 		.4byte	0x118
 3783 0f12 00       		.byte	0
 3784 0f13 42       		.uleb128 0x42
ARM GAS  C:\Users\strap\AppData\Local\Temp\ccCgIabb.s 			page 92


 3785 0f14 7D030000 		.4byte	.LASF123
 3786 0f18 01       		.byte	0x1
 3787 0f19 3D       		.byte	0x3d
 3788 0f1a 240F0000 		.4byte	0xf24
 3789 0f1e 05       		.uleb128 0x5
 3790 0f1f 03       		.byte	0x3
 3791 0f20 00000000 		.4byte	_lv_txt_get_encoded_length
 3792 0f24 07       		.uleb128 0x7
 3793 0f25 04       		.byte	0x4
 3794 0f26 040F0000 		.4byte	0xf04
 3795 0f2a 43       		.uleb128 0x43
 3796 0f2b 51040000 		.4byte	.LASF124
 3797 0f2f 51040000 		.4byte	.LASF124
 3798 0f33 03       		.byte	0x3
 3799 0f34 74       		.byte	0x74
 3800 0f35 43       		.uleb128 0x43
 3801 0f36 22000000 		.4byte	.LASF125
 3802 0f3a 22000000 		.4byte	.LASF125
 3803 0f3e 0A       		.byte	0xa
 3804 0f3f 21       		.byte	0x21
 3805 0f40 00       		.byte	0
 3806              		.section	.debug_abbrev,"",%progbits
 3807              	.Ldebug_abbrev0:
 3808 0000 01       		.uleb128 0x1
 3809 0001 11       		.uleb128 0x11
 3810 0002 01       		.byte	0x1
 3811 0003 25       		.uleb128 0x25
 3812 0004 0E       		.uleb128 0xe
 3813 0005 13       		.uleb128 0x13
 3814 0006 0B       		.uleb128 0xb
 3815 0007 03       		.uleb128 0x3
 3816 0008 0E       		.uleb128 0xe
 3817 0009 1B       		.uleb128 0x1b
 3818 000a 0E       		.uleb128 0xe
 3819 000b 55       		.uleb128 0x55
 3820 000c 17       		.uleb128 0x17
 3821 000d 11       		.uleb128 0x11
 3822 000e 01       		.uleb128 0x1
 3823 000f 10       		.uleb128 0x10
 3824 0010 17       		.uleb128 0x17
 3825 0011 00       		.byte	0
 3826 0012 00       		.byte	0
 3827 0013 02       		.uleb128 0x2
 3828 0014 16       		.uleb128 0x16
 3829 0015 00       		.byte	0
 3830 0016 03       		.uleb128 0x3
 3831 0017 0E       		.uleb128 0xe
 3832 0018 3A       		.uleb128 0x3a
 3833 0019 0B       		.uleb128 0xb
 3834 001a 3B       		.uleb128 0x3b
 3835 001b 0B       		.uleb128 0xb
 3836 001c 49       		.uleb128 0x49
 3837 001d 13       		.uleb128 0x13
 3838 001e 00       		.byte	0
 3839 001f 00       		.byte	0
 3840 0020 03       		.uleb128 0x3
 3841 0021 24       		.uleb128 0x24
ARM GAS  C:\Users\strap\AppData\Local\Temp\ccCgIabb.s 			page 93


 3842 0022 00       		.byte	0
 3843 0023 0B       		.uleb128 0xb
 3844 0024 0B       		.uleb128 0xb
 3845 0025 3E       		.uleb128 0x3e
 3846 0026 0B       		.uleb128 0xb
 3847 0027 03       		.uleb128 0x3
 3848 0028 0E       		.uleb128 0xe
 3849 0029 00       		.byte	0
 3850 002a 00       		.byte	0
 3851 002b 04       		.uleb128 0x4
 3852 002c 24       		.uleb128 0x24
 3853 002d 00       		.byte	0
 3854 002e 0B       		.uleb128 0xb
 3855 002f 0B       		.uleb128 0xb
 3856 0030 3E       		.uleb128 0x3e
 3857 0031 0B       		.uleb128 0xb
 3858 0032 03       		.uleb128 0x3
 3859 0033 08       		.uleb128 0x8
 3860 0034 00       		.byte	0
 3861 0035 00       		.byte	0
 3862 0036 05       		.uleb128 0x5
 3863 0037 0F       		.uleb128 0xf
 3864 0038 00       		.byte	0
 3865 0039 0B       		.uleb128 0xb
 3866 003a 0B       		.uleb128 0xb
 3867 003b 00       		.byte	0
 3868 003c 00       		.byte	0
 3869 003d 06       		.uleb128 0x6
 3870 003e 16       		.uleb128 0x16
 3871 003f 00       		.byte	0
 3872 0040 03       		.uleb128 0x3
 3873 0041 0E       		.uleb128 0xe
 3874 0042 3A       		.uleb128 0x3a
 3875 0043 0B       		.uleb128 0xb
 3876 0044 3B       		.uleb128 0x3b
 3877 0045 05       		.uleb128 0x5
 3878 0046 49       		.uleb128 0x49
 3879 0047 13       		.uleb128 0x13
 3880 0048 00       		.byte	0
 3881 0049 00       		.byte	0
 3882 004a 07       		.uleb128 0x7
 3883 004b 0F       		.uleb128 0xf
 3884 004c 00       		.byte	0
 3885 004d 0B       		.uleb128 0xb
 3886 004e 0B       		.uleb128 0xb
 3887 004f 49       		.uleb128 0x49
 3888 0050 13       		.uleb128 0x13
 3889 0051 00       		.byte	0
 3890 0052 00       		.byte	0
 3891 0053 08       		.uleb128 0x8
 3892 0054 26       		.uleb128 0x26
 3893 0055 00       		.byte	0
 3894 0056 49       		.uleb128 0x49
 3895 0057 13       		.uleb128 0x13
 3896 0058 00       		.byte	0
 3897 0059 00       		.byte	0
 3898 005a 09       		.uleb128 0x9
ARM GAS  C:\Users\strap\AppData\Local\Temp\ccCgIabb.s 			page 94


 3899 005b 13       		.uleb128 0x13
 3900 005c 01       		.byte	0x1
 3901 005d 0B       		.uleb128 0xb
 3902 005e 0B       		.uleb128 0xb
 3903 005f 3A       		.uleb128 0x3a
 3904 0060 0B       		.uleb128 0xb
 3905 0061 3B       		.uleb128 0x3b
 3906 0062 0B       		.uleb128 0xb
 3907 0063 01       		.uleb128 0x1
 3908 0064 13       		.uleb128 0x13
 3909 0065 00       		.byte	0
 3910 0066 00       		.byte	0
 3911 0067 0A       		.uleb128 0xa
 3912 0068 0D       		.uleb128 0xd
 3913 0069 00       		.byte	0
 3914 006a 03       		.uleb128 0x3
 3915 006b 08       		.uleb128 0x8
 3916 006c 3A       		.uleb128 0x3a
 3917 006d 0B       		.uleb128 0xb
 3918 006e 3B       		.uleb128 0x3b
 3919 006f 0B       		.uleb128 0xb
 3920 0070 49       		.uleb128 0x49
 3921 0071 13       		.uleb128 0x13
 3922 0072 38       		.uleb128 0x38
 3923 0073 0B       		.uleb128 0xb
 3924 0074 00       		.byte	0
 3925 0075 00       		.byte	0
 3926 0076 0B       		.uleb128 0xb
 3927 0077 0D       		.uleb128 0xd
 3928 0078 00       		.byte	0
 3929 0079 03       		.uleb128 0x3
 3930 007a 0E       		.uleb128 0xe
 3931 007b 3A       		.uleb128 0x3a
 3932 007c 0B       		.uleb128 0xb
 3933 007d 3B       		.uleb128 0x3b
 3934 007e 0B       		.uleb128 0xb
 3935 007f 49       		.uleb128 0x49
 3936 0080 13       		.uleb128 0x13
 3937 0081 38       		.uleb128 0x38
 3938 0082 0B       		.uleb128 0xb
 3939 0083 00       		.byte	0
 3940 0084 00       		.byte	0
 3941 0085 0C       		.uleb128 0xc
 3942 0086 13       		.uleb128 0x13
 3943 0087 01       		.byte	0x1
 3944 0088 03       		.uleb128 0x3
 3945 0089 0E       		.uleb128 0xe
 3946 008a 0B       		.uleb128 0xb
 3947 008b 0B       		.uleb128 0xb
 3948 008c 3A       		.uleb128 0x3a
 3949 008d 0B       		.uleb128 0xb
 3950 008e 3B       		.uleb128 0x3b
 3951 008f 0B       		.uleb128 0xb
 3952 0090 01       		.uleb128 0x1
 3953 0091 13       		.uleb128 0x13
 3954 0092 00       		.byte	0
 3955 0093 00       		.byte	0
ARM GAS  C:\Users\strap\AppData\Local\Temp\ccCgIabb.s 			page 95


 3956 0094 0D       		.uleb128 0xd
 3957 0095 0D       		.uleb128 0xd
 3958 0096 00       		.byte	0
 3959 0097 03       		.uleb128 0x3
 3960 0098 0E       		.uleb128 0xe
 3961 0099 3A       		.uleb128 0x3a
 3962 009a 0B       		.uleb128 0xb
 3963 009b 3B       		.uleb128 0x3b
 3964 009c 0B       		.uleb128 0xb
 3965 009d 49       		.uleb128 0x49
 3966 009e 13       		.uleb128 0x13
 3967 009f 0B       		.uleb128 0xb
 3968 00a0 0B       		.uleb128 0xb
 3969 00a1 0D       		.uleb128 0xd
 3970 00a2 0B       		.uleb128 0xb
 3971 00a3 0C       		.uleb128 0xc
 3972 00a4 0B       		.uleb128 0xb
 3973 00a5 38       		.uleb128 0x38
 3974 00a6 0B       		.uleb128 0xb
 3975 00a7 00       		.byte	0
 3976 00a8 00       		.byte	0
 3977 00a9 0E       		.uleb128 0xe
 3978 00aa 15       		.uleb128 0x15
 3979 00ab 01       		.byte	0x1
 3980 00ac 27       		.uleb128 0x27
 3981 00ad 19       		.uleb128 0x19
 3982 00ae 49       		.uleb128 0x49
 3983 00af 13       		.uleb128 0x13
 3984 00b0 01       		.uleb128 0x1
 3985 00b1 13       		.uleb128 0x13
 3986 00b2 00       		.byte	0
 3987 00b3 00       		.byte	0
 3988 00b4 0F       		.uleb128 0xf
 3989 00b5 05       		.uleb128 0x5
 3990 00b6 00       		.byte	0
 3991 00b7 49       		.uleb128 0x49
 3992 00b8 13       		.uleb128 0x13
 3993 00b9 00       		.byte	0
 3994 00ba 00       		.byte	0
 3995 00bb 10       		.uleb128 0x10
 3996 00bc 04       		.uleb128 0x4
 3997 00bd 01       		.byte	0x1
 3998 00be 0B       		.uleb128 0xb
 3999 00bf 0B       		.uleb128 0xb
 4000 00c0 49       		.uleb128 0x49
 4001 00c1 13       		.uleb128 0x13
 4002 00c2 3A       		.uleb128 0x3a
 4003 00c3 0B       		.uleb128 0xb
 4004 00c4 3B       		.uleb128 0x3b
 4005 00c5 0B       		.uleb128 0xb
 4006 00c6 01       		.uleb128 0x1
 4007 00c7 13       		.uleb128 0x13
 4008 00c8 00       		.byte	0
 4009 00c9 00       		.byte	0
 4010 00ca 11       		.uleb128 0x11
 4011 00cb 28       		.uleb128 0x28
 4012 00cc 00       		.byte	0
ARM GAS  C:\Users\strap\AppData\Local\Temp\ccCgIabb.s 			page 96


 4013 00cd 03       		.uleb128 0x3
 4014 00ce 0E       		.uleb128 0xe
 4015 00cf 1C       		.uleb128 0x1c
 4016 00d0 0B       		.uleb128 0xb
 4017 00d1 00       		.byte	0
 4018 00d2 00       		.byte	0
 4019 00d3 12       		.uleb128 0x12
 4020 00d4 2E       		.uleb128 0x2e
 4021 00d5 01       		.byte	0x1
 4022 00d6 03       		.uleb128 0x3
 4023 00d7 0E       		.uleb128 0xe
 4024 00d8 3A       		.uleb128 0x3a
 4025 00d9 0B       		.uleb128 0xb
 4026 00da 3B       		.uleb128 0x3b
 4027 00db 0B       		.uleb128 0xb
 4028 00dc 27       		.uleb128 0x27
 4029 00dd 19       		.uleb128 0x19
 4030 00de 49       		.uleb128 0x49
 4031 00df 13       		.uleb128 0x13
 4032 00e0 20       		.uleb128 0x20
 4033 00e1 0B       		.uleb128 0xb
 4034 00e2 01       		.uleb128 0x1
 4035 00e3 13       		.uleb128 0x13
 4036 00e4 00       		.byte	0
 4037 00e5 00       		.byte	0
 4038 00e6 13       		.uleb128 0x13
 4039 00e7 05       		.uleb128 0x5
 4040 00e8 00       		.byte	0
 4041 00e9 03       		.uleb128 0x3
 4042 00ea 08       		.uleb128 0x8
 4043 00eb 3A       		.uleb128 0x3a
 4044 00ec 0B       		.uleb128 0xb
 4045 00ed 3B       		.uleb128 0x3b
 4046 00ee 0B       		.uleb128 0xb
 4047 00ef 49       		.uleb128 0x49
 4048 00f0 13       		.uleb128 0x13
 4049 00f1 00       		.byte	0
 4050 00f2 00       		.byte	0
 4051 00f3 14       		.uleb128 0x14
 4052 00f4 34       		.uleb128 0x34
 4053 00f5 00       		.byte	0
 4054 00f6 03       		.uleb128 0x3
 4055 00f7 08       		.uleb128 0x8
 4056 00f8 3A       		.uleb128 0x3a
 4057 00f9 0B       		.uleb128 0xb
 4058 00fa 3B       		.uleb128 0x3b
 4059 00fb 0B       		.uleb128 0xb
 4060 00fc 49       		.uleb128 0x49
 4061 00fd 13       		.uleb128 0x13
 4062 00fe 00       		.byte	0
 4063 00ff 00       		.byte	0
 4064 0100 15       		.uleb128 0x15
 4065 0101 26       		.uleb128 0x26
 4066 0102 00       		.byte	0
 4067 0103 00       		.byte	0
 4068 0104 00       		.byte	0
 4069 0105 16       		.uleb128 0x16
ARM GAS  C:\Users\strap\AppData\Local\Temp\ccCgIabb.s 			page 97


 4070 0106 2E       		.uleb128 0x2e
 4071 0107 01       		.byte	0x1
 4072 0108 03       		.uleb128 0x3
 4073 0109 0E       		.uleb128 0xe
 4074 010a 3A       		.uleb128 0x3a
 4075 010b 0B       		.uleb128 0xb
 4076 010c 3B       		.uleb128 0x3b
 4077 010d 05       		.uleb128 0x5
 4078 010e 27       		.uleb128 0x27
 4079 010f 19       		.uleb128 0x19
 4080 0110 49       		.uleb128 0x49
 4081 0111 13       		.uleb128 0x13
 4082 0112 20       		.uleb128 0x20
 4083 0113 0B       		.uleb128 0xb
 4084 0114 01       		.uleb128 0x1
 4085 0115 13       		.uleb128 0x13
 4086 0116 00       		.byte	0
 4087 0117 00       		.byte	0
 4088 0118 17       		.uleb128 0x17
 4089 0119 05       		.uleb128 0x5
 4090 011a 00       		.byte	0
 4091 011b 03       		.uleb128 0x3
 4092 011c 0E       		.uleb128 0xe
 4093 011d 3A       		.uleb128 0x3a
 4094 011e 0B       		.uleb128 0xb
 4095 011f 3B       		.uleb128 0x3b
 4096 0120 05       		.uleb128 0x5
 4097 0121 49       		.uleb128 0x49
 4098 0122 13       		.uleb128 0x13
 4099 0123 00       		.byte	0
 4100 0124 00       		.byte	0
 4101 0125 18       		.uleb128 0x18
 4102 0126 34       		.uleb128 0x34
 4103 0127 00       		.byte	0
 4104 0128 03       		.uleb128 0x3
 4105 0129 08       		.uleb128 0x8
 4106 012a 3A       		.uleb128 0x3a
 4107 012b 0B       		.uleb128 0xb
 4108 012c 3B       		.uleb128 0x3b
 4109 012d 05       		.uleb128 0x5
 4110 012e 49       		.uleb128 0x49
 4111 012f 13       		.uleb128 0x13
 4112 0130 00       		.byte	0
 4113 0131 00       		.byte	0
 4114 0132 19       		.uleb128 0x19
 4115 0133 05       		.uleb128 0x5
 4116 0134 00       		.byte	0
 4117 0135 03       		.uleb128 0x3
 4118 0136 0E       		.uleb128 0xe
 4119 0137 3A       		.uleb128 0x3a
 4120 0138 0B       		.uleb128 0xb
 4121 0139 3B       		.uleb128 0x3b
 4122 013a 0B       		.uleb128 0xb
 4123 013b 49       		.uleb128 0x49
 4124 013c 13       		.uleb128 0x13
 4125 013d 00       		.byte	0
 4126 013e 00       		.byte	0
ARM GAS  C:\Users\strap\AppData\Local\Temp\ccCgIabb.s 			page 98


 4127 013f 1A       		.uleb128 0x1a
 4128 0140 2E       		.uleb128 0x2e
 4129 0141 01       		.byte	0x1
 4130 0142 03       		.uleb128 0x3
 4131 0143 0E       		.uleb128 0xe
 4132 0144 3A       		.uleb128 0x3a
 4133 0145 0B       		.uleb128 0xb
 4134 0146 3B       		.uleb128 0x3b
 4135 0147 05       		.uleb128 0x5
 4136 0148 27       		.uleb128 0x27
 4137 0149 19       		.uleb128 0x19
 4138 014a 49       		.uleb128 0x49
 4139 014b 13       		.uleb128 0x13
 4140 014c 11       		.uleb128 0x11
 4141 014d 01       		.uleb128 0x1
 4142 014e 12       		.uleb128 0x12
 4143 014f 06       		.uleb128 0x6
 4144 0150 40       		.uleb128 0x40
 4145 0151 18       		.uleb128 0x18
 4146 0152 9742     		.uleb128 0x2117
 4147 0154 19       		.uleb128 0x19
 4148 0155 01       		.uleb128 0x1
 4149 0156 13       		.uleb128 0x13
 4150 0157 00       		.byte	0
 4151 0158 00       		.byte	0
 4152 0159 1B       		.uleb128 0x1b
 4153 015a 05       		.uleb128 0x5
 4154 015b 00       		.byte	0
 4155 015c 03       		.uleb128 0x3
 4156 015d 08       		.uleb128 0x8
 4157 015e 3A       		.uleb128 0x3a
 4158 015f 0B       		.uleb128 0xb
 4159 0160 3B       		.uleb128 0x3b
 4160 0161 05       		.uleb128 0x5
 4161 0162 49       		.uleb128 0x49
 4162 0163 13       		.uleb128 0x13
 4163 0164 02       		.uleb128 0x2
 4164 0165 17       		.uleb128 0x17
 4165 0166 00       		.byte	0
 4166 0167 00       		.byte	0
 4167 0168 1C       		.uleb128 0x1c
 4168 0169 05       		.uleb128 0x5
 4169 016a 00       		.byte	0
 4170 016b 03       		.uleb128 0x3
 4171 016c 0E       		.uleb128 0xe
 4172 016d 3A       		.uleb128 0x3a
 4173 016e 0B       		.uleb128 0xb
 4174 016f 3B       		.uleb128 0x3b
 4175 0170 05       		.uleb128 0x5
 4176 0171 49       		.uleb128 0x49
 4177 0172 13       		.uleb128 0x13
 4178 0173 02       		.uleb128 0x2
 4179 0174 17       		.uleb128 0x17
 4180 0175 00       		.byte	0
 4181 0176 00       		.byte	0
 4182 0177 1D       		.uleb128 0x1d
 4183 0178 34       		.uleb128 0x34
ARM GAS  C:\Users\strap\AppData\Local\Temp\ccCgIabb.s 			page 99


 4184 0179 00       		.byte	0
 4185 017a 03       		.uleb128 0x3
 4186 017b 0E       		.uleb128 0xe
 4187 017c 3A       		.uleb128 0x3a
 4188 017d 0B       		.uleb128 0xb
 4189 017e 3B       		.uleb128 0x3b
 4190 017f 05       		.uleb128 0x5
 4191 0180 49       		.uleb128 0x49
 4192 0181 13       		.uleb128 0x13
 4193 0182 02       		.uleb128 0x2
 4194 0183 18       		.uleb128 0x18
 4195 0184 00       		.byte	0
 4196 0185 00       		.byte	0
 4197 0186 1E       		.uleb128 0x1e
 4198 0187 34       		.uleb128 0x34
 4199 0188 00       		.byte	0
 4200 0189 03       		.uleb128 0x3
 4201 018a 0E       		.uleb128 0xe
 4202 018b 3A       		.uleb128 0x3a
 4203 018c 0B       		.uleb128 0xb
 4204 018d 3B       		.uleb128 0x3b
 4205 018e 05       		.uleb128 0x5
 4206 018f 49       		.uleb128 0x49
 4207 0190 13       		.uleb128 0x13
 4208 0191 02       		.uleb128 0x2
 4209 0192 17       		.uleb128 0x17
 4210 0193 00       		.byte	0
 4211 0194 00       		.byte	0
 4212 0195 1F       		.uleb128 0x1f
 4213 0196 01       		.uleb128 0x1
 4214 0197 01       		.byte	0x1
 4215 0198 49       		.uleb128 0x49
 4216 0199 13       		.uleb128 0x13
 4217 019a 01       		.uleb128 0x1
 4218 019b 13       		.uleb128 0x13
 4219 019c 00       		.byte	0
 4220 019d 00       		.byte	0
 4221 019e 20       		.uleb128 0x20
 4222 019f 21       		.uleb128 0x21
 4223 01a0 00       		.byte	0
 4224 01a1 49       		.uleb128 0x49
 4225 01a2 13       		.uleb128 0x13
 4226 01a3 2F       		.uleb128 0x2f
 4227 01a4 0B       		.uleb128 0xb
 4228 01a5 00       		.byte	0
 4229 01a6 00       		.byte	0
 4230 01a7 21       		.uleb128 0x21
 4231 01a8 0B       		.uleb128 0xb
 4232 01a9 01       		.byte	0x1
 4233 01aa 55       		.uleb128 0x55
 4234 01ab 17       		.uleb128 0x17
 4235 01ac 00       		.byte	0
 4236 01ad 00       		.byte	0
 4237 01ae 22       		.uleb128 0x22
 4238 01af 34       		.uleb128 0x34
 4239 01b0 00       		.byte	0
 4240 01b1 03       		.uleb128 0x3
ARM GAS  C:\Users\strap\AppData\Local\Temp\ccCgIabb.s 			page 100


 4241 01b2 08       		.uleb128 0x8
 4242 01b3 3A       		.uleb128 0x3a
 4243 01b4 0B       		.uleb128 0xb
 4244 01b5 3B       		.uleb128 0x3b
 4245 01b6 05       		.uleb128 0x5
 4246 01b7 49       		.uleb128 0x49
 4247 01b8 13       		.uleb128 0x13
 4248 01b9 02       		.uleb128 0x2
 4249 01ba 18       		.uleb128 0x18
 4250 01bb 00       		.byte	0
 4251 01bc 00       		.byte	0
 4252 01bd 23       		.uleb128 0x23
 4253 01be 34       		.uleb128 0x34
 4254 01bf 00       		.byte	0
 4255 01c0 03       		.uleb128 0x3
 4256 01c1 08       		.uleb128 0x8
 4257 01c2 3A       		.uleb128 0x3a
 4258 01c3 0B       		.uleb128 0xb
 4259 01c4 3B       		.uleb128 0x3b
 4260 01c5 05       		.uleb128 0x5
 4261 01c6 49       		.uleb128 0x49
 4262 01c7 13       		.uleb128 0x13
 4263 01c8 02       		.uleb128 0x2
 4264 01c9 17       		.uleb128 0x17
 4265 01ca 00       		.byte	0
 4266 01cb 00       		.byte	0
 4267 01cc 24       		.uleb128 0x24
 4268 01cd 1D       		.uleb128 0x1d
 4269 01ce 01       		.byte	0x1
 4270 01cf 31       		.uleb128 0x31
 4271 01d0 13       		.uleb128 0x13
 4272 01d1 52       		.uleb128 0x52
 4273 01d2 01       		.uleb128 0x1
 4274 01d3 55       		.uleb128 0x55
 4275 01d4 17       		.uleb128 0x17
 4276 01d5 58       		.uleb128 0x58
 4277 01d6 0B       		.uleb128 0xb
 4278 01d7 59       		.uleb128 0x59
 4279 01d8 05       		.uleb128 0x5
 4280 01d9 00       		.byte	0
 4281 01da 00       		.byte	0
 4282 01db 25       		.uleb128 0x25
 4283 01dc 05       		.uleb128 0x5
 4284 01dd 00       		.byte	0
 4285 01de 31       		.uleb128 0x31
 4286 01df 13       		.uleb128 0x13
 4287 01e0 02       		.uleb128 0x2
 4288 01e1 17       		.uleb128 0x17
 4289 01e2 00       		.byte	0
 4290 01e3 00       		.byte	0
 4291 01e4 26       		.uleb128 0x26
 4292 01e5 05       		.uleb128 0x5
 4293 01e6 00       		.byte	0
 4294 01e7 31       		.uleb128 0x31
 4295 01e8 13       		.uleb128 0x13
 4296 01e9 02       		.uleb128 0x2
 4297 01ea 18       		.uleb128 0x18
ARM GAS  C:\Users\strap\AppData\Local\Temp\ccCgIabb.s 			page 101


 4298 01eb 00       		.byte	0
 4299 01ec 00       		.byte	0
 4300 01ed 27       		.uleb128 0x27
 4301 01ee 34       		.uleb128 0x34
 4302 01ef 00       		.byte	0
 4303 01f0 31       		.uleb128 0x31
 4304 01f1 13       		.uleb128 0x13
 4305 01f2 02       		.uleb128 0x2
 4306 01f3 17       		.uleb128 0x17
 4307 01f4 00       		.byte	0
 4308 01f5 00       		.byte	0
 4309 01f6 28       		.uleb128 0x28
 4310 01f7 2E       		.uleb128 0x2e
 4311 01f8 01       		.byte	0x1
 4312 01f9 03       		.uleb128 0x3
 4313 01fa 0E       		.uleb128 0xe
 4314 01fb 3A       		.uleb128 0x3a
 4315 01fc 0B       		.uleb128 0xb
 4316 01fd 3B       		.uleb128 0x3b
 4317 01fe 05       		.uleb128 0x5
 4318 01ff 27       		.uleb128 0x27
 4319 0200 19       		.uleb128 0x19
 4320 0201 49       		.uleb128 0x49
 4321 0202 13       		.uleb128 0x13
 4322 0203 11       		.uleb128 0x11
 4323 0204 01       		.uleb128 0x1
 4324 0205 12       		.uleb128 0x12
 4325 0206 06       		.uleb128 0x6
 4326 0207 40       		.uleb128 0x40
 4327 0208 18       		.uleb128 0x18
 4328 0209 9642     		.uleb128 0x2116
 4329 020b 19       		.uleb128 0x19
 4330 020c 01       		.uleb128 0x1
 4331 020d 13       		.uleb128 0x13
 4332 020e 00       		.byte	0
 4333 020f 00       		.byte	0
 4334 0210 29       		.uleb128 0x29
 4335 0211 34       		.uleb128 0x34
 4336 0212 00       		.byte	0
 4337 0213 03       		.uleb128 0x3
 4338 0214 0E       		.uleb128 0xe
 4339 0215 3A       		.uleb128 0x3a
 4340 0216 0B       		.uleb128 0xb
 4341 0217 3B       		.uleb128 0x3b
 4342 0218 05       		.uleb128 0x5
 4343 0219 49       		.uleb128 0x49
 4344 021a 13       		.uleb128 0x13
 4345 021b 00       		.byte	0
 4346 021c 00       		.byte	0
 4347 021d 2A       		.uleb128 0x2a
 4348 021e 898201   		.uleb128 0x4109
 4349 0221 01       		.byte	0x1
 4350 0222 11       		.uleb128 0x11
 4351 0223 01       		.uleb128 0x1
 4352 0224 00       		.byte	0
 4353 0225 00       		.byte	0
 4354 0226 2B       		.uleb128 0x2b
ARM GAS  C:\Users\strap\AppData\Local\Temp\ccCgIabb.s 			page 102


 4355 0227 8A8201   		.uleb128 0x410a
 4356 022a 00       		.byte	0
 4357 022b 02       		.uleb128 0x2
 4358 022c 18       		.uleb128 0x18
 4359 022d 9142     		.uleb128 0x2111
 4360 022f 18       		.uleb128 0x18
 4361 0230 00       		.byte	0
 4362 0231 00       		.byte	0
 4363 0232 2C       		.uleb128 0x2c
 4364 0233 0B       		.uleb128 0xb
 4365 0234 01       		.byte	0x1
 4366 0235 11       		.uleb128 0x11
 4367 0236 01       		.uleb128 0x1
 4368 0237 12       		.uleb128 0x12
 4369 0238 06       		.uleb128 0x6
 4370 0239 00       		.byte	0
 4371 023a 00       		.byte	0
 4372 023b 2D       		.uleb128 0x2d
 4373 023c 2E       		.uleb128 0x2e
 4374 023d 01       		.byte	0x1
 4375 023e 3F       		.uleb128 0x3f
 4376 023f 19       		.uleb128 0x19
 4377 0240 03       		.uleb128 0x3
 4378 0241 0E       		.uleb128 0xe
 4379 0242 3A       		.uleb128 0x3a
 4380 0243 0B       		.uleb128 0xb
 4381 0244 3B       		.uleb128 0x3b
 4382 0245 05       		.uleb128 0x5
 4383 0246 27       		.uleb128 0x27
 4384 0247 19       		.uleb128 0x19
 4385 0248 49       		.uleb128 0x49
 4386 0249 13       		.uleb128 0x13
 4387 024a 11       		.uleb128 0x11
 4388 024b 01       		.uleb128 0x1
 4389 024c 12       		.uleb128 0x12
 4390 024d 06       		.uleb128 0x6
 4391 024e 40       		.uleb128 0x40
 4392 024f 18       		.uleb128 0x18
 4393 0250 9742     		.uleb128 0x2117
 4394 0252 19       		.uleb128 0x19
 4395 0253 01       		.uleb128 0x1
 4396 0254 13       		.uleb128 0x13
 4397 0255 00       		.byte	0
 4398 0256 00       		.byte	0
 4399 0257 2E       		.uleb128 0x2e
 4400 0258 05       		.uleb128 0x5
 4401 0259 00       		.byte	0
 4402 025a 03       		.uleb128 0x3
 4403 025b 08       		.uleb128 0x8
 4404 025c 3A       		.uleb128 0x3a
 4405 025d 0B       		.uleb128 0xb
 4406 025e 3B       		.uleb128 0x3b
 4407 025f 05       		.uleb128 0x5
 4408 0260 49       		.uleb128 0x49
 4409 0261 13       		.uleb128 0x13
 4410 0262 02       		.uleb128 0x2
 4411 0263 18       		.uleb128 0x18
ARM GAS  C:\Users\strap\AppData\Local\Temp\ccCgIabb.s 			page 103


 4412 0264 00       		.byte	0
 4413 0265 00       		.byte	0
 4414 0266 2F       		.uleb128 0x2f
 4415 0267 2E       		.uleb128 0x2e
 4416 0268 01       		.byte	0x1
 4417 0269 03       		.uleb128 0x3
 4418 026a 0E       		.uleb128 0xe
 4419 026b 3A       		.uleb128 0x3a
 4420 026c 0B       		.uleb128 0xb
 4421 026d 3B       		.uleb128 0x3b
 4422 026e 0B       		.uleb128 0xb
 4423 026f 27       		.uleb128 0x27
 4424 0270 19       		.uleb128 0x19
 4425 0271 49       		.uleb128 0x49
 4426 0272 13       		.uleb128 0x13
 4427 0273 11       		.uleb128 0x11
 4428 0274 01       		.uleb128 0x1
 4429 0275 12       		.uleb128 0x12
 4430 0276 06       		.uleb128 0x6
 4431 0277 40       		.uleb128 0x40
 4432 0278 18       		.uleb128 0x18
 4433 0279 9742     		.uleb128 0x2117
 4434 027b 19       		.uleb128 0x19
 4435 027c 01       		.uleb128 0x1
 4436 027d 13       		.uleb128 0x13
 4437 027e 00       		.byte	0
 4438 027f 00       		.byte	0
 4439 0280 30       		.uleb128 0x30
 4440 0281 05       		.uleb128 0x5
 4441 0282 00       		.byte	0
 4442 0283 03       		.uleb128 0x3
 4443 0284 08       		.uleb128 0x8
 4444 0285 3A       		.uleb128 0x3a
 4445 0286 0B       		.uleb128 0xb
 4446 0287 3B       		.uleb128 0x3b
 4447 0288 0B       		.uleb128 0xb
 4448 0289 49       		.uleb128 0x49
 4449 028a 13       		.uleb128 0x13
 4450 028b 02       		.uleb128 0x2
 4451 028c 17       		.uleb128 0x17
 4452 028d 00       		.byte	0
 4453 028e 00       		.byte	0
 4454 028f 31       		.uleb128 0x31
 4455 0290 05       		.uleb128 0x5
 4456 0291 00       		.byte	0
 4457 0292 03       		.uleb128 0x3
 4458 0293 0E       		.uleb128 0xe
 4459 0294 3A       		.uleb128 0x3a
 4460 0295 0B       		.uleb128 0xb
 4461 0296 3B       		.uleb128 0x3b
 4462 0297 0B       		.uleb128 0xb
 4463 0298 49       		.uleb128 0x49
 4464 0299 13       		.uleb128 0x13
 4465 029a 02       		.uleb128 0x2
 4466 029b 17       		.uleb128 0x17
 4467 029c 00       		.byte	0
 4468 029d 00       		.byte	0
ARM GAS  C:\Users\strap\AppData\Local\Temp\ccCgIabb.s 			page 104


 4469 029e 32       		.uleb128 0x32
 4470 029f 34       		.uleb128 0x34
 4471 02a0 00       		.byte	0
 4472 02a1 03       		.uleb128 0x3
 4473 02a2 08       		.uleb128 0x8
 4474 02a3 3A       		.uleb128 0x3a
 4475 02a4 0B       		.uleb128 0xb
 4476 02a5 3B       		.uleb128 0x3b
 4477 02a6 0B       		.uleb128 0xb
 4478 02a7 49       		.uleb128 0x49
 4479 02a8 13       		.uleb128 0x13
 4480 02a9 02       		.uleb128 0x2
 4481 02aa 17       		.uleb128 0x17
 4482 02ab 00       		.byte	0
 4483 02ac 00       		.byte	0
 4484 02ad 33       		.uleb128 0x33
 4485 02ae 34       		.uleb128 0x34
 4486 02af 00       		.byte	0
 4487 02b0 03       		.uleb128 0x3
 4488 02b1 0E       		.uleb128 0xe
 4489 02b2 3A       		.uleb128 0x3a
 4490 02b3 0B       		.uleb128 0xb
 4491 02b4 3B       		.uleb128 0x3b
 4492 02b5 0B       		.uleb128 0xb
 4493 02b6 49       		.uleb128 0x49
 4494 02b7 13       		.uleb128 0x13
 4495 02b8 02       		.uleb128 0x2
 4496 02b9 18       		.uleb128 0x18
 4497 02ba 00       		.byte	0
 4498 02bb 00       		.byte	0
 4499 02bc 34       		.uleb128 0x34
 4500 02bd 34       		.uleb128 0x34
 4501 02be 00       		.byte	0
 4502 02bf 03       		.uleb128 0x3
 4503 02c0 0E       		.uleb128 0xe
 4504 02c1 3A       		.uleb128 0x3a
 4505 02c2 0B       		.uleb128 0xb
 4506 02c3 3B       		.uleb128 0x3b
 4507 02c4 0B       		.uleb128 0xb
 4508 02c5 49       		.uleb128 0x49
 4509 02c6 13       		.uleb128 0x13
 4510 02c7 02       		.uleb128 0x2
 4511 02c8 17       		.uleb128 0x17
 4512 02c9 00       		.byte	0
 4513 02ca 00       		.byte	0
 4514 02cb 35       		.uleb128 0x35
 4515 02cc 1D       		.uleb128 0x1d
 4516 02cd 01       		.byte	0x1
 4517 02ce 31       		.uleb128 0x31
 4518 02cf 13       		.uleb128 0x13
 4519 02d0 52       		.uleb128 0x52
 4520 02d1 01       		.uleb128 0x1
 4521 02d2 55       		.uleb128 0x55
 4522 02d3 17       		.uleb128 0x17
 4523 02d4 58       		.uleb128 0x58
 4524 02d5 0B       		.uleb128 0xb
 4525 02d6 59       		.uleb128 0x59
ARM GAS  C:\Users\strap\AppData\Local\Temp\ccCgIabb.s 			page 105


 4526 02d7 0B       		.uleb128 0xb
 4527 02d8 01       		.uleb128 0x1
 4528 02d9 13       		.uleb128 0x13
 4529 02da 00       		.byte	0
 4530 02db 00       		.byte	0
 4531 02dc 36       		.uleb128 0x36
 4532 02dd 05       		.uleb128 0x5
 4533 02de 00       		.byte	0
 4534 02df 31       		.uleb128 0x31
 4535 02e0 13       		.uleb128 0x13
 4536 02e1 00       		.byte	0
 4537 02e2 00       		.byte	0
 4538 02e3 37       		.uleb128 0x37
 4539 02e4 34       		.uleb128 0x34
 4540 02e5 00       		.byte	0
 4541 02e6 31       		.uleb128 0x31
 4542 02e7 13       		.uleb128 0x13
 4543 02e8 02       		.uleb128 0x2
 4544 02e9 18       		.uleb128 0x18
 4545 02ea 00       		.byte	0
 4546 02eb 00       		.byte	0
 4547 02ec 38       		.uleb128 0x38
 4548 02ed 898201   		.uleb128 0x4109
 4549 02f0 01       		.byte	0x1
 4550 02f1 11       		.uleb128 0x11
 4551 02f2 01       		.uleb128 0x1
 4552 02f3 01       		.uleb128 0x1
 4553 02f4 13       		.uleb128 0x13
 4554 02f5 00       		.byte	0
 4555 02f6 00       		.byte	0
 4556 02f7 39       		.uleb128 0x39
 4557 02f8 898201   		.uleb128 0x4109
 4558 02fb 01       		.byte	0x1
 4559 02fc 11       		.uleb128 0x11
 4560 02fd 01       		.uleb128 0x1
 4561 02fe 31       		.uleb128 0x31
 4562 02ff 13       		.uleb128 0x13
 4563 0300 01       		.uleb128 0x1
 4564 0301 13       		.uleb128 0x13
 4565 0302 00       		.byte	0
 4566 0303 00       		.byte	0
 4567 0304 3A       		.uleb128 0x3a
 4568 0305 898201   		.uleb128 0x4109
 4569 0308 01       		.byte	0x1
 4570 0309 11       		.uleb128 0x11
 4571 030a 01       		.uleb128 0x1
 4572 030b 31       		.uleb128 0x31
 4573 030c 13       		.uleb128 0x13
 4574 030d 00       		.byte	0
 4575 030e 00       		.byte	0
 4576 030f 3B       		.uleb128 0x3b
 4577 0310 0B       		.uleb128 0xb
 4578 0311 01       		.byte	0x1
 4579 0312 55       		.uleb128 0x55
 4580 0313 17       		.uleb128 0x17
 4581 0314 01       		.uleb128 0x1
 4582 0315 13       		.uleb128 0x13
ARM GAS  C:\Users\strap\AppData\Local\Temp\ccCgIabb.s 			page 106


 4583 0316 00       		.byte	0
 4584 0317 00       		.byte	0
 4585 0318 3C       		.uleb128 0x3c
 4586 0319 0B       		.uleb128 0xb
 4587 031a 01       		.byte	0x1
 4588 031b 11       		.uleb128 0x11
 4589 031c 01       		.uleb128 0x1
 4590 031d 12       		.uleb128 0x12
 4591 031e 06       		.uleb128 0x6
 4592 031f 01       		.uleb128 0x1
 4593 0320 13       		.uleb128 0x13
 4594 0321 00       		.byte	0
 4595 0322 00       		.byte	0
 4596 0323 3D       		.uleb128 0x3d
 4597 0324 2E       		.uleb128 0x2e
 4598 0325 01       		.byte	0x1
 4599 0326 3F       		.uleb128 0x3f
 4600 0327 19       		.uleb128 0x19
 4601 0328 03       		.uleb128 0x3
 4602 0329 0E       		.uleb128 0xe
 4603 032a 3A       		.uleb128 0x3a
 4604 032b 0B       		.uleb128 0xb
 4605 032c 3B       		.uleb128 0x3b
 4606 032d 0B       		.uleb128 0xb
 4607 032e 27       		.uleb128 0x27
 4608 032f 19       		.uleb128 0x19
 4609 0330 11       		.uleb128 0x11
 4610 0331 01       		.uleb128 0x1
 4611 0332 12       		.uleb128 0x12
 4612 0333 06       		.uleb128 0x6
 4613 0334 40       		.uleb128 0x40
 4614 0335 18       		.uleb128 0x18
 4615 0336 9742     		.uleb128 0x2117
 4616 0338 19       		.uleb128 0x19
 4617 0339 01       		.uleb128 0x1
 4618 033a 13       		.uleb128 0x13
 4619 033b 00       		.byte	0
 4620 033c 00       		.byte	0
 4621 033d 3E       		.uleb128 0x3e
 4622 033e 05       		.uleb128 0x5
 4623 033f 00       		.byte	0
 4624 0340 03       		.uleb128 0x3
 4625 0341 0E       		.uleb128 0xe
 4626 0342 3A       		.uleb128 0x3a
 4627 0343 0B       		.uleb128 0xb
 4628 0344 3B       		.uleb128 0x3b
 4629 0345 0B       		.uleb128 0xb
 4630 0346 49       		.uleb128 0x49
 4631 0347 13       		.uleb128 0x13
 4632 0348 02       		.uleb128 0x2
 4633 0349 18       		.uleb128 0x18
 4634 034a 00       		.byte	0
 4635 034b 00       		.byte	0
 4636 034c 3F       		.uleb128 0x3f
 4637 034d 1D       		.uleb128 0x1d
 4638 034e 01       		.byte	0x1
 4639 034f 31       		.uleb128 0x31
ARM GAS  C:\Users\strap\AppData\Local\Temp\ccCgIabb.s 			page 107


 4640 0350 13       		.uleb128 0x13
 4641 0351 11       		.uleb128 0x11
 4642 0352 01       		.uleb128 0x1
 4643 0353 12       		.uleb128 0x12
 4644 0354 06       		.uleb128 0x6
 4645 0355 58       		.uleb128 0x58
 4646 0356 0B       		.uleb128 0xb
 4647 0357 59       		.uleb128 0x59
 4648 0358 0B       		.uleb128 0xb
 4649 0359 01       		.uleb128 0x1
 4650 035a 13       		.uleb128 0x13
 4651 035b 00       		.byte	0
 4652 035c 00       		.byte	0
 4653 035d 40       		.uleb128 0x40
 4654 035e 2E       		.uleb128 0x2e
 4655 035f 01       		.byte	0x1
 4656 0360 3F       		.uleb128 0x3f
 4657 0361 19       		.uleb128 0x19
 4658 0362 03       		.uleb128 0x3
 4659 0363 0E       		.uleb128 0xe
 4660 0364 3A       		.uleb128 0x3a
 4661 0365 0B       		.uleb128 0xb
 4662 0366 3B       		.uleb128 0x3b
 4663 0367 05       		.uleb128 0x5
 4664 0368 27       		.uleb128 0x27
 4665 0369 19       		.uleb128 0x19
 4666 036a 11       		.uleb128 0x11
 4667 036b 01       		.uleb128 0x1
 4668 036c 12       		.uleb128 0x12
 4669 036d 06       		.uleb128 0x6
 4670 036e 40       		.uleb128 0x40
 4671 036f 18       		.uleb128 0x18
 4672 0370 9742     		.uleb128 0x2117
 4673 0372 19       		.uleb128 0x19
 4674 0373 01       		.uleb128 0x1
 4675 0374 13       		.uleb128 0x13
 4676 0375 00       		.byte	0
 4677 0376 00       		.byte	0
 4678 0377 41       		.uleb128 0x41
 4679 0378 1D       		.uleb128 0x1d
 4680 0379 01       		.byte	0x1
 4681 037a 31       		.uleb128 0x31
 4682 037b 13       		.uleb128 0x13
 4683 037c 11       		.uleb128 0x11
 4684 037d 01       		.uleb128 0x1
 4685 037e 12       		.uleb128 0x12
 4686 037f 06       		.uleb128 0x6
 4687 0380 58       		.uleb128 0x58
 4688 0381 0B       		.uleb128 0xb
 4689 0382 59       		.uleb128 0x59
 4690 0383 05       		.uleb128 0x5
 4691 0384 01       		.uleb128 0x1
 4692 0385 13       		.uleb128 0x13
 4693 0386 00       		.byte	0
 4694 0387 00       		.byte	0
 4695 0388 42       		.uleb128 0x42
 4696 0389 34       		.uleb128 0x34
ARM GAS  C:\Users\strap\AppData\Local\Temp\ccCgIabb.s 			page 108


 4697 038a 00       		.byte	0
 4698 038b 03       		.uleb128 0x3
 4699 038c 0E       		.uleb128 0xe
 4700 038d 3A       		.uleb128 0x3a
 4701 038e 0B       		.uleb128 0xb
 4702 038f 3B       		.uleb128 0x3b
 4703 0390 0B       		.uleb128 0xb
 4704 0391 49       		.uleb128 0x49
 4705 0392 13       		.uleb128 0x13
 4706 0393 3F       		.uleb128 0x3f
 4707 0394 19       		.uleb128 0x19
 4708 0395 02       		.uleb128 0x2
 4709 0396 18       		.uleb128 0x18
 4710 0397 00       		.byte	0
 4711 0398 00       		.byte	0
 4712 0399 43       		.uleb128 0x43
 4713 039a 2E       		.uleb128 0x2e
 4714 039b 00       		.byte	0
 4715 039c 3F       		.uleb128 0x3f
 4716 039d 19       		.uleb128 0x19
 4717 039e 3C       		.uleb128 0x3c
 4718 039f 19       		.uleb128 0x19
 4719 03a0 6E       		.uleb128 0x6e
 4720 03a1 0E       		.uleb128 0xe
 4721 03a2 03       		.uleb128 0x3
 4722 03a3 0E       		.uleb128 0xe
 4723 03a4 3A       		.uleb128 0x3a
 4724 03a5 0B       		.uleb128 0xb
 4725 03a6 3B       		.uleb128 0x3b
 4726 03a7 0B       		.uleb128 0xb
 4727 03a8 00       		.byte	0
 4728 03a9 00       		.byte	0
 4729 03aa 00       		.byte	0
 4730              		.section	.debug_loc,"",%progbits
 4731              	.Ldebug_loc0:
 4732              	.LLST0:
 4733 0000 00000000 		.4byte	.LVL0
 4734 0004 22000000 		.4byte	.LVL1
 4735 0008 0100     		.2byte	0x1
 4736 000a 50       		.byte	0x50
 4737 000b 22000000 		.4byte	.LVL1
 4738 000f 24000000 		.4byte	.LVL2
 4739 0013 0400     		.2byte	0x4
 4740 0015 F3       		.byte	0xf3
 4741 0016 01       		.uleb128 0x1
 4742 0017 50       		.byte	0x50
 4743 0018 9F       		.byte	0x9f
 4744 0019 24000000 		.4byte	.LVL2
 4745 001d 26000000 		.4byte	.LVL3
 4746 0021 0100     		.2byte	0x1
 4747 0023 50       		.byte	0x50
 4748 0024 26000000 		.4byte	.LVL3
 4749 0028 28000000 		.4byte	.LVL4
 4750 002c 0400     		.2byte	0x4
 4751 002e F3       		.byte	0xf3
 4752 002f 01       		.uleb128 0x1
 4753 0030 50       		.byte	0x50
ARM GAS  C:\Users\strap\AppData\Local\Temp\ccCgIabb.s 			page 109


 4754 0031 9F       		.byte	0x9f
 4755 0032 28000000 		.4byte	.LVL4
 4756 0036 2A000000 		.4byte	.LVL5
 4757 003a 0100     		.2byte	0x1
 4758 003c 50       		.byte	0x50
 4759 003d 2A000000 		.4byte	.LVL5
 4760 0041 2C000000 		.4byte	.LVL6
 4761 0045 0400     		.2byte	0x4
 4762 0047 F3       		.byte	0xf3
 4763 0048 01       		.uleb128 0x1
 4764 0049 50       		.byte	0x50
 4765 004a 9F       		.byte	0x9f
 4766 004b 2C000000 		.4byte	.LVL6
 4767 004f 2E000000 		.4byte	.LVL7
 4768 0053 0100     		.2byte	0x1
 4769 0055 50       		.byte	0x50
 4770 0056 2E000000 		.4byte	.LVL7
 4771 005a 30000000 		.4byte	.LVL8
 4772 005e 0400     		.2byte	0x4
 4773 0060 F3       		.byte	0xf3
 4774 0061 01       		.uleb128 0x1
 4775 0062 50       		.byte	0x50
 4776 0063 9F       		.byte	0x9f
 4777 0064 30000000 		.4byte	.LVL8
 4778 0068 32000000 		.4byte	.LVL9
 4779 006c 0100     		.2byte	0x1
 4780 006e 50       		.byte	0x50
 4781 006f 32000000 		.4byte	.LVL9
 4782 0073 34000000 		.4byte	.LFE12
 4783 0077 0400     		.2byte	0x4
 4784 0079 F3       		.byte	0xf3
 4785 007a 01       		.uleb128 0x1
 4786 007b 50       		.byte	0x50
 4787 007c 9F       		.byte	0x9f
 4788 007d 00000000 		.4byte	0
 4789 0081 00000000 		.4byte	0
 4790              	.LLST1:
 4791 0085 00000000 		.4byte	.LVL10
 4792 0089 1C000000 		.4byte	.LVL11
 4793 008d 0100     		.2byte	0x1
 4794 008f 50       		.byte	0x50
 4795 0090 1C000000 		.4byte	.LVL11
 4796 0094 30000000 		.4byte	.LVL12
 4797 0098 0400     		.2byte	0x4
 4798 009a F3       		.byte	0xf3
 4799 009b 01       		.uleb128 0x1
 4800 009c 50       		.byte	0x50
 4801 009d 9F       		.byte	0x9f
 4802 009e 30000000 		.4byte	.LVL12
 4803 00a2 52000000 		.4byte	.LVL13
 4804 00a6 0100     		.2byte	0x1
 4805 00a8 50       		.byte	0x50
 4806 00a9 52000000 		.4byte	.LVL13
 4807 00ad 62000000 		.4byte	.LVL14
 4808 00b1 0400     		.2byte	0x4
 4809 00b3 F3       		.byte	0xf3
 4810 00b4 01       		.uleb128 0x1
ARM GAS  C:\Users\strap\AppData\Local\Temp\ccCgIabb.s 			page 110


 4811 00b5 50       		.byte	0x50
 4812 00b6 9F       		.byte	0x9f
 4813 00b7 62000000 		.4byte	.LVL14
 4814 00bb 90000000 		.4byte	.LVL15
 4815 00bf 0100     		.2byte	0x1
 4816 00c1 50       		.byte	0x50
 4817 00c2 90000000 		.4byte	.LVL15
 4818 00c6 9E000000 		.4byte	.LFE13
 4819 00ca 0400     		.2byte	0x4
 4820 00cc F3       		.byte	0xf3
 4821 00cd 01       		.uleb128 0x1
 4822 00ce 50       		.byte	0x50
 4823 00cf 9F       		.byte	0x9f
 4824 00d0 00000000 		.4byte	0
 4825 00d4 00000000 		.4byte	0
 4826              	.LLST2:
 4827 00d8 98000000 		.4byte	.LVL16
 4828 00dc 9C000000 		.4byte	.LVL17
 4829 00e0 0300     		.2byte	0x3
 4830 00e2 91       		.byte	0x91
 4831 00e3 7C       		.sleb128 -4
 4832 00e4 9F       		.byte	0x9f
 4833 00e5 9C000000 		.4byte	.LVL17
 4834 00e9 9C000000 		.4byte	.LVL18
 4835 00ed 0300     		.2byte	0x3
 4836 00ef 7D       		.byte	0x7d
 4837 00f0 7C       		.sleb128 -4
 4838 00f1 9F       		.byte	0x9f
 4839 00f2 00000000 		.4byte	0
 4840 00f6 00000000 		.4byte	0
 4841              	.LLST3:
 4842 00fa 00000000 		.4byte	.LVL19
 4843 00fe 0C000000 		.4byte	.LVL20
 4844 0102 0100     		.2byte	0x1
 4845 0104 50       		.byte	0x50
 4846 0105 0C000000 		.4byte	.LVL20
 4847 0109 18000000 		.4byte	.LVL24
 4848 010d 0400     		.2byte	0x4
 4849 010f F3       		.byte	0xf3
 4850 0110 01       		.uleb128 0x1
 4851 0111 50       		.byte	0x50
 4852 0112 9F       		.byte	0x9f
 4853 0113 18000000 		.4byte	.LVL24
 4854 0117 1E000000 		.4byte	.LVL25
 4855 011b 0100     		.2byte	0x1
 4856 011d 50       		.byte	0x50
 4857 011e 1E000000 		.4byte	.LVL25
 4858 0122 5A000000 		.4byte	.LFE14
 4859 0126 0400     		.2byte	0x4
 4860 0128 F3       		.byte	0xf3
 4861 0129 01       		.uleb128 0x1
 4862 012a 50       		.byte	0x50
 4863 012b 9F       		.byte	0x9f
 4864 012c 00000000 		.4byte	0
 4865 0130 00000000 		.4byte	0
 4866              	.LLST4:
 4867 0134 3E000000 		.4byte	.LVL28
ARM GAS  C:\Users\strap\AppData\Local\Temp\ccCgIabb.s 			page 111


 4868 0138 54000000 		.4byte	.LVL33
 4869 013c 0100     		.2byte	0x1
 4870 013e 52       		.byte	0x52
 4871 013f 00000000 		.4byte	0
 4872 0143 00000000 		.4byte	0
 4873              	.LLST5:
 4874 0147 3E000000 		.4byte	.LVL28
 4875 014b 42000000 		.4byte	.LVL29
 4876 014f 0200     		.2byte	0x2
 4877 0151 30       		.byte	0x30
 4878 0152 9F       		.byte	0x9f
 4879 0153 42000000 		.4byte	.LVL29
 4880 0157 4C000000 		.4byte	.LVL31
 4881 015b 0100     		.2byte	0x1
 4882 015d 53       		.byte	0x53
 4883 015e 4E000000 		.4byte	.LVL32
 4884 0162 54000000 		.4byte	.LVL33
 4885 0166 0100     		.2byte	0x1
 4886 0168 53       		.byte	0x53
 4887 0169 00000000 		.4byte	0
 4888 016d 00000000 		.4byte	0
 4889              	.LLST6:
 4890 0171 0C000000 		.4byte	.LVL20
 4891 0175 18000000 		.4byte	.LVL24
 4892 0179 0100     		.2byte	0x1
 4893 017b 53       		.byte	0x53
 4894 017c 1E000000 		.4byte	.LVL25
 4895 0180 22000000 		.4byte	.LVL26
 4896 0184 0100     		.2byte	0x1
 4897 0186 53       		.byte	0x53
 4898 0187 00000000 		.4byte	0
 4899 018b 00000000 		.4byte	0
 4900              	.LLST7:
 4901 018f 0C000000 		.4byte	.LVL20
 4902 0193 18000000 		.4byte	.LVL24
 4903 0197 0100     		.2byte	0x1
 4904 0199 52       		.byte	0x52
 4905 019a 1E000000 		.4byte	.LVL25
 4906 019e 26000000 		.4byte	.LVL27
 4907 01a2 0100     		.2byte	0x1
 4908 01a4 52       		.byte	0x52
 4909 01a5 00000000 		.4byte	0
 4910 01a9 00000000 		.4byte	0
 4911              	.LLST8:
 4912 01ad 0C000000 		.4byte	.LVL20
 4913 01b1 10000000 		.4byte	.LVL21
 4914 01b5 0100     		.2byte	0x1
 4915 01b7 51       		.byte	0x51
 4916 01b8 10000000 		.4byte	.LVL21
 4917 01bc 14000000 		.4byte	.LVL22
 4918 01c0 0300     		.2byte	0x3
 4919 01c2 71       		.byte	0x71
 4920 01c3 7F       		.sleb128 -1
 4921 01c4 9F       		.byte	0x9f
 4922 01c5 14000000 		.4byte	.LVL22
 4923 01c9 18000000 		.4byte	.LVL24
 4924 01cd 0100     		.2byte	0x1
ARM GAS  C:\Users\strap\AppData\Local\Temp\ccCgIabb.s 			page 112


 4925 01cf 51       		.byte	0x51
 4926 01d0 1E000000 		.4byte	.LVL25
 4927 01d4 54000000 		.4byte	.LVL33
 4928 01d8 0100     		.2byte	0x1
 4929 01da 51       		.byte	0x51
 4930 01db 00000000 		.4byte	0
 4931 01df 00000000 		.4byte	0
 4932              	.LLST9:
 4933 01e3 00000000 		.4byte	.LVL34
 4934 01e7 1E000000 		.4byte	.LVL38
 4935 01eb 0100     		.2byte	0x1
 4936 01ed 50       		.byte	0x50
 4937 01ee 1E000000 		.4byte	.LVL38
 4938 01f2 20000000 		.4byte	.LVL39
 4939 01f6 0400     		.2byte	0x4
 4940 01f8 F3       		.byte	0xf3
 4941 01f9 01       		.uleb128 0x1
 4942 01fa 50       		.byte	0x50
 4943 01fb 9F       		.byte	0x9f
 4944 01fc 20000000 		.4byte	.LVL39
 4945 0200 34000000 		.4byte	.LVL41
 4946 0204 0100     		.2byte	0x1
 4947 0206 50       		.byte	0x50
 4948 0207 34000000 		.4byte	.LVL41
 4949 020b 48000000 		.4byte	.LVL44
 4950 020f 0400     		.2byte	0x4
 4951 0211 F3       		.byte	0xf3
 4952 0212 01       		.uleb128 0x1
 4953 0213 50       		.byte	0x50
 4954 0214 9F       		.byte	0x9f
 4955 0215 48000000 		.4byte	.LVL44
 4956 0219 74000000 		.4byte	.LVL47
 4957 021d 0100     		.2byte	0x1
 4958 021f 50       		.byte	0x50
 4959 0220 74000000 		.4byte	.LVL47
 4960 0224 84000000 		.4byte	.LVL50
 4961 0228 0400     		.2byte	0x4
 4962 022a F3       		.byte	0xf3
 4963 022b 01       		.uleb128 0x1
 4964 022c 50       		.byte	0x50
 4965 022d 9F       		.byte	0x9f
 4966 022e 84000000 		.4byte	.LVL50
 4967 0232 C8000000 		.4byte	.LVL54
 4968 0236 0100     		.2byte	0x1
 4969 0238 50       		.byte	0x50
 4970 0239 C8000000 		.4byte	.LVL54
 4971 023d D8000000 		.4byte	.LVL57
 4972 0241 0400     		.2byte	0x4
 4973 0243 F3       		.byte	0xf3
 4974 0244 01       		.uleb128 0x1
 4975 0245 50       		.byte	0x50
 4976 0246 9F       		.byte	0x9f
 4977 0247 D8000000 		.4byte	.LVL57
 4978 024b DE000000 		.4byte	.LVL58
 4979 024f 0100     		.2byte	0x1
 4980 0251 50       		.byte	0x50
 4981 0252 DE000000 		.4byte	.LVL58
ARM GAS  C:\Users\strap\AppData\Local\Temp\ccCgIabb.s 			page 113


 4982 0256 E4000000 		.4byte	.LVL60
 4983 025a 0400     		.2byte	0x4
 4984 025c F3       		.byte	0xf3
 4985 025d 01       		.uleb128 0x1
 4986 025e 50       		.byte	0x50
 4987 025f 9F       		.byte	0x9f
 4988 0260 E4000000 		.4byte	.LVL60
 4989 0264 E6000000 		.4byte	.LVL61
 4990 0268 0100     		.2byte	0x1
 4991 026a 50       		.byte	0x50
 4992 026b E6000000 		.4byte	.LVL61
 4993 026f EC000000 		.4byte	.LVL62
 4994 0273 0400     		.2byte	0x4
 4995 0275 F3       		.byte	0xf3
 4996 0276 01       		.uleb128 0x1
 4997 0277 50       		.byte	0x50
 4998 0278 9F       		.byte	0x9f
 4999 0279 EC000000 		.4byte	.LVL62
 5000 027d EE000000 		.4byte	.LVL63
 5001 0281 0100     		.2byte	0x1
 5002 0283 50       		.byte	0x50
 5003 0284 EE000000 		.4byte	.LVL63
 5004 0288 F0000000 		.4byte	.LVL64
 5005 028c 0400     		.2byte	0x4
 5006 028e F3       		.byte	0xf3
 5007 028f 01       		.uleb128 0x1
 5008 0290 50       		.byte	0x50
 5009 0291 9F       		.byte	0x9f
 5010 0292 F0000000 		.4byte	.LVL64
 5011 0296 F2000000 		.4byte	.LVL65
 5012 029a 0100     		.2byte	0x1
 5013 029c 50       		.byte	0x50
 5014 029d F2000000 		.4byte	.LVL65
 5015 02a1 FC000000 		.4byte	.LFE15
 5016 02a5 0400     		.2byte	0x4
 5017 02a7 F3       		.byte	0xf3
 5018 02a8 01       		.uleb128 0x1
 5019 02a9 50       		.byte	0x50
 5020 02aa 9F       		.byte	0x9f
 5021 02ab 00000000 		.4byte	0
 5022 02af 00000000 		.4byte	0
 5023              	.LLST10:
 5024 02b3 00000000 		.4byte	.LVL34
 5025 02b7 0E000000 		.4byte	.LVL36
 5026 02bb 0100     		.2byte	0x1
 5027 02bd 51       		.byte	0x51
 5028 02be 0E000000 		.4byte	.LVL36
 5029 02c2 FA000000 		.4byte	.LVL68
 5030 02c6 0100     		.2byte	0x1
 5031 02c8 54       		.byte	0x54
 5032 02c9 00000000 		.4byte	0
 5033 02cd 00000000 		.4byte	0
 5034              	.LLST11:
 5035 02d1 04000000 		.4byte	.LVL35
 5036 02d5 18000000 		.4byte	.LVL37
 5037 02d9 0200     		.2byte	0x2
 5038 02db 30       		.byte	0x30
ARM GAS  C:\Users\strap\AppData\Local\Temp\ccCgIabb.s 			page 114


 5039 02dc 9F       		.byte	0x9f
 5040 02dd 18000000 		.4byte	.LVL37
 5041 02e1 20000000 		.4byte	.LVL39
 5042 02e5 0100     		.2byte	0x1
 5043 02e7 53       		.byte	0x53
 5044 02e8 20000000 		.4byte	.LVL39
 5045 02ec 2E000000 		.4byte	.LVL40
 5046 02f0 0200     		.2byte	0x2
 5047 02f2 30       		.byte	0x30
 5048 02f3 9F       		.byte	0x9f
 5049 02f4 2E000000 		.4byte	.LVL40
 5050 02f8 40000000 		.4byte	.LVL42
 5051 02fc 0100     		.2byte	0x1
 5052 02fe 53       		.byte	0x53
 5053 02ff 40000000 		.4byte	.LVL42
 5054 0303 46000000 		.4byte	.LVL43
 5055 0307 0600     		.2byte	0x6
 5056 0309 70       		.byte	0x70
 5057 030a 00       		.sleb128 0
 5058 030b 73       		.byte	0x73
 5059 030c 00       		.sleb128 0
 5060 030d 22       		.byte	0x22
 5061 030e 9F       		.byte	0x9f
 5062 030f 46000000 		.4byte	.LVL43
 5063 0313 48000000 		.4byte	.LVL44
 5064 0317 0100     		.2byte	0x1
 5065 0319 50       		.byte	0x50
 5066 031a 48000000 		.4byte	.LVL44
 5067 031e 54000000 		.4byte	.LVL45
 5068 0322 0200     		.2byte	0x2
 5069 0324 30       		.byte	0x30
 5070 0325 9F       		.byte	0x9f
 5071 0326 54000000 		.4byte	.LVL45
 5072 032a 7C000000 		.4byte	.LVL48
 5073 032e 0100     		.2byte	0x1
 5074 0330 53       		.byte	0x53
 5075 0331 7C000000 		.4byte	.LVL48
 5076 0335 82000000 		.4byte	.LVL49
 5077 0339 0600     		.2byte	0x6
 5078 033b 72       		.byte	0x72
 5079 033c 00       		.sleb128 0
 5080 033d 73       		.byte	0x73
 5081 033e 00       		.sleb128 0
 5082 033f 22       		.byte	0x22
 5083 0340 9F       		.byte	0x9f
 5084 0341 82000000 		.4byte	.LVL49
 5085 0345 84000000 		.4byte	.LVL50
 5086 0349 0100     		.2byte	0x1
 5087 034b 50       		.byte	0x50
 5088 034c 84000000 		.4byte	.LVL50
 5089 0350 92000000 		.4byte	.LVL51
 5090 0354 0200     		.2byte	0x2
 5091 0356 30       		.byte	0x30
 5092 0357 9F       		.byte	0x9f
 5093 0358 92000000 		.4byte	.LVL51
 5094 035c BE000000 		.4byte	.LVL53
 5095 0360 0100     		.2byte	0x1
ARM GAS  C:\Users\strap\AppData\Local\Temp\ccCgIabb.s 			page 115


 5096 0362 53       		.byte	0x53
 5097 0363 BE000000 		.4byte	.LVL53
 5098 0367 D0000000 		.4byte	.LVL55
 5099 036b 0100     		.2byte	0x1
 5100 036d 52       		.byte	0x52
 5101 036e D0000000 		.4byte	.LVL55
 5102 0372 D6000000 		.4byte	.LVL56
 5103 0376 0600     		.2byte	0x6
 5104 0378 73       		.byte	0x73
 5105 0379 00       		.sleb128 0
 5106 037a 72       		.byte	0x72
 5107 037b 00       		.sleb128 0
 5108 037c 22       		.byte	0x22
 5109 037d 9F       		.byte	0x9f
 5110 037e D6000000 		.4byte	.LVL56
 5111 0382 D8000000 		.4byte	.LVL57
 5112 0386 0100     		.2byte	0x1
 5113 0388 50       		.byte	0x50
 5114 0389 D8000000 		.4byte	.LVL57
 5115 038d E0000000 		.4byte	.LVL59
 5116 0391 0200     		.2byte	0x2
 5117 0393 30       		.byte	0x30
 5118 0394 9F       		.byte	0x9f
 5119 0395 E0000000 		.4byte	.LVL59
 5120 0399 F4000000 		.4byte	.LVL66
 5121 039d 0100     		.2byte	0x1
 5122 039f 53       		.byte	0x53
 5123 03a0 F4000000 		.4byte	.LVL66
 5124 03a4 F6000000 		.4byte	.LVL67
 5125 03a8 0100     		.2byte	0x1
 5126 03aa 52       		.byte	0x52
 5127 03ab 00000000 		.4byte	0
 5128 03af 00000000 		.4byte	0
 5129              	.LLST12:
 5130 03b3 00000000 		.4byte	.LVL69
 5131 03b7 10000000 		.4byte	.LVL71
 5132 03bb 0100     		.2byte	0x1
 5133 03bd 50       		.byte	0x50
 5134 03be 10000000 		.4byte	.LVL71
 5135 03c2 4A000000 		.4byte	.LVL77
 5136 03c6 0100     		.2byte	0x1
 5137 03c8 56       		.byte	0x56
 5138 03c9 4A000000 		.4byte	.LVL77
 5139 03cd 50000000 		.4byte	.LFE16
 5140 03d1 0400     		.2byte	0x4
 5141 03d3 F3       		.byte	0xf3
 5142 03d4 01       		.uleb128 0x1
 5143 03d5 50       		.byte	0x50
 5144 03d6 9F       		.byte	0x9f
 5145 03d7 00000000 		.4byte	0
 5146 03db 00000000 		.4byte	0
 5147              	.LLST13:
 5148 03df 00000000 		.4byte	.LVL69
 5149 03e3 10000000 		.4byte	.LVL71
 5150 03e7 0100     		.2byte	0x1
 5151 03e9 51       		.byte	0x51
 5152 03ea 10000000 		.4byte	.LVL71
ARM GAS  C:\Users\strap\AppData\Local\Temp\ccCgIabb.s 			page 116


 5153 03ee 4A000000 		.4byte	.LVL77
 5154 03f2 0100     		.2byte	0x1
 5155 03f4 55       		.byte	0x55
 5156 03f5 4A000000 		.4byte	.LVL77
 5157 03f9 50000000 		.4byte	.LFE16
 5158 03fd 0400     		.2byte	0x4
 5159 03ff F3       		.byte	0xf3
 5160 0400 01       		.uleb128 0x1
 5161 0401 51       		.byte	0x51
 5162 0402 9F       		.byte	0x9f
 5163 0403 00000000 		.4byte	0
 5164 0407 00000000 		.4byte	0
 5165              	.LLST14:
 5166 040b 1E000000 		.4byte	.LVL72
 5167 040f 24000000 		.4byte	.LVL73
 5168 0413 0100     		.2byte	0x1
 5169 0415 50       		.byte	0x50
 5170 0416 00000000 		.4byte	0
 5171 041a 00000000 		.4byte	0
 5172              	.LLST15:
 5173 041e 08000000 		.4byte	.LVL70
 5174 0422 10000000 		.4byte	.LVL71
 5175 0426 0200     		.2byte	0x2
 5176 0428 30       		.byte	0x30
 5177 0429 9F       		.byte	0x9f
 5178 042a 10000000 		.4byte	.LVL71
 5179 042e 2C000000 		.4byte	.LVL74
 5180 0432 0100     		.2byte	0x1
 5181 0434 54       		.byte	0x54
 5182 0435 2E000000 		.4byte	.LVL75
 5183 0439 4A000000 		.4byte	.LVL77
 5184 043d 0100     		.2byte	0x1
 5185 043f 54       		.byte	0x54
 5186 0440 00000000 		.4byte	0
 5187 0444 00000000 		.4byte	0
 5188              	.LLST16:
 5189 0448 00000000 		.4byte	.LVL78
 5190 044c 0C000000 		.4byte	.LVL80
 5191 0450 0100     		.2byte	0x1
 5192 0452 50       		.byte	0x50
 5193 0453 0C000000 		.4byte	.LVL80
 5194 0457 26000000 		.4byte	.LVL85
 5195 045b 0100     		.2byte	0x1
 5196 045d 57       		.byte	0x57
 5197 045e 26000000 		.4byte	.LVL85
 5198 0462 2C000000 		.4byte	.LFE17
 5199 0466 0400     		.2byte	0x4
 5200 0468 F3       		.byte	0xf3
 5201 0469 01       		.uleb128 0x1
 5202 046a 50       		.byte	0x50
 5203 046b 9F       		.byte	0x9f
 5204 046c 00000000 		.4byte	0
 5205 0470 00000000 		.4byte	0
 5206              	.LLST17:
 5207 0474 00000000 		.4byte	.LVL78
 5208 0478 0C000000 		.4byte	.LVL80
 5209 047c 0100     		.2byte	0x1
ARM GAS  C:\Users\strap\AppData\Local\Temp\ccCgIabb.s 			page 117


 5210 047e 51       		.byte	0x51
 5211 047f 0C000000 		.4byte	.LVL80
 5212 0483 26000000 		.4byte	.LVL85
 5213 0487 0100     		.2byte	0x1
 5214 0489 56       		.byte	0x56
 5215 048a 26000000 		.4byte	.LVL85
 5216 048e 2C000000 		.4byte	.LFE17
 5217 0492 0400     		.2byte	0x4
 5218 0494 F3       		.byte	0xf3
 5219 0495 01       		.uleb128 0x1
 5220 0496 51       		.byte	0x51
 5221 0497 9F       		.byte	0x9f
 5222 0498 00000000 		.4byte	0
 5223 049c 00000000 		.4byte	0
 5224              	.LLST18:
 5225 04a0 06000000 		.4byte	.LVL79
 5226 04a4 0C000000 		.4byte	.LVL80
 5227 04a8 0200     		.2byte	0x2
 5228 04aa 30       		.byte	0x30
 5229 04ab 9F       		.byte	0x9f
 5230 04ac 0C000000 		.4byte	.LVL80
 5231 04b0 26000000 		.4byte	.LVL85
 5232 04b4 0100     		.2byte	0x1
 5233 04b6 55       		.byte	0x55
 5234 04b7 00000000 		.4byte	0
 5235 04bb 00000000 		.4byte	0
 5236              	.LLST19:
 5237 04bf 06000000 		.4byte	.LVL79
 5238 04c3 0C000000 		.4byte	.LVL80
 5239 04c7 0200     		.2byte	0x2
 5240 04c9 30       		.byte	0x30
 5241 04ca 9F       		.byte	0x9f
 5242 04cb 0C000000 		.4byte	.LVL80
 5243 04cf 26000000 		.4byte	.LVL85
 5244 04d3 0100     		.2byte	0x1
 5245 04d5 54       		.byte	0x54
 5246 04d6 26000000 		.4byte	.LVL85
 5247 04da 2C000000 		.4byte	.LFE17
 5248 04de 0100     		.2byte	0x1
 5249 04e0 50       		.byte	0x50
 5250 04e1 00000000 		.4byte	0
 5251 04e5 00000000 		.4byte	0
 5252              	.LLST20:
 5253 04e9 14000000 		.4byte	.LVL81
 5254 04ed 1A000000 		.4byte	.LVL82
 5255 04f1 0100     		.2byte	0x1
 5256 04f3 50       		.byte	0x50
 5257 04f4 00000000 		.4byte	0
 5258 04f8 00000000 		.4byte	0
 5259              	.LLST21:
 5260 04fc 00000000 		.4byte	.LVL86
 5261 0500 0E000000 		.4byte	.LVL88
 5262 0504 0100     		.2byte	0x1
 5263 0506 50       		.byte	0x50
 5264 0507 0E000000 		.4byte	.LVL88
 5265 050b 26000000 		.4byte	.LVL91
 5266 050f 0100     		.2byte	0x1
ARM GAS  C:\Users\strap\AppData\Local\Temp\ccCgIabb.s 			page 118


 5267 0511 56       		.byte	0x56
 5268 0512 26000000 		.4byte	.LVL91
 5269 0516 2C000000 		.4byte	.LFE18
 5270 051a 0400     		.2byte	0x4
 5271 051c F3       		.byte	0xf3
 5272 051d 01       		.uleb128 0x1
 5273 051e 50       		.byte	0x50
 5274 051f 9F       		.byte	0x9f
 5275 0520 00000000 		.4byte	0
 5276 0524 00000000 		.4byte	0
 5277              	.LLST22:
 5278 0528 00000000 		.4byte	.LVL86
 5279 052c 0E000000 		.4byte	.LVL88
 5280 0530 0100     		.2byte	0x1
 5281 0532 51       		.byte	0x51
 5282 0533 0E000000 		.4byte	.LVL88
 5283 0537 26000000 		.4byte	.LVL91
 5284 053b 0100     		.2byte	0x1
 5285 053d 55       		.byte	0x55
 5286 053e 26000000 		.4byte	.LVL91
 5287 0542 2C000000 		.4byte	.LFE18
 5288 0546 0400     		.2byte	0x4
 5289 0548 F3       		.byte	0xf3
 5290 0549 01       		.uleb128 0x1
 5291 054a 51       		.byte	0x51
 5292 054b 9F       		.byte	0x9f
 5293 054c 00000000 		.4byte	0
 5294 0550 00000000 		.4byte	0
 5295              	.LLST23:
 5296 0554 0C000000 		.4byte	.LVL87
 5297 0558 0E000000 		.4byte	.LVL88
 5298 055c 0200     		.2byte	0x2
 5299 055e 30       		.byte	0x30
 5300 055f 9F       		.byte	0x9f
 5301 0560 0E000000 		.4byte	.LVL88
 5302 0564 26000000 		.4byte	.LVL91
 5303 0568 0100     		.2byte	0x1
 5304 056a 54       		.byte	0x54
 5305 056b 26000000 		.4byte	.LVL91
 5306 056f 2C000000 		.4byte	.LFE18
 5307 0573 0100     		.2byte	0x1
 5308 0575 50       		.byte	0x50
 5309 0576 00000000 		.4byte	0
 5310 057a 00000000 		.4byte	0
 5311              	.LLST24:
 5312 057e 00000000 		.4byte	.LVL92
 5313 0582 0C000000 		.4byte	.LVL94
 5314 0586 0100     		.2byte	0x1
 5315 0588 50       		.byte	0x50
 5316 0589 0C000000 		.4byte	.LVL94
 5317 058d 26000000 		.4byte	.LVL97
 5318 0591 0100     		.2byte	0x1
 5319 0593 55       		.byte	0x55
 5320 0594 26000000 		.4byte	.LVL97
 5321 0598 2C000000 		.4byte	.LFE19
 5322 059c 0400     		.2byte	0x4
 5323 059e F3       		.byte	0xf3
ARM GAS  C:\Users\strap\AppData\Local\Temp\ccCgIabb.s 			page 119


 5324 059f 01       		.uleb128 0x1
 5325 05a0 50       		.byte	0x50
 5326 05a1 9F       		.byte	0x9f
 5327 05a2 00000000 		.4byte	0
 5328 05a6 00000000 		.4byte	0
 5329              	.LLST25:
 5330 05aa 06000000 		.4byte	.LVL93
 5331 05ae 0C000000 		.4byte	.LVL94
 5332 05b2 0200     		.2byte	0x2
 5333 05b4 30       		.byte	0x30
 5334 05b5 9F       		.byte	0x9f
 5335 05b6 0C000000 		.4byte	.LVL94
 5336 05ba 26000000 		.4byte	.LVL97
 5337 05be 0100     		.2byte	0x1
 5338 05c0 54       		.byte	0x54
 5339 05c1 26000000 		.4byte	.LVL97
 5340 05c5 2C000000 		.4byte	.LFE19
 5341 05c9 0100     		.2byte	0x1
 5342 05cb 50       		.byte	0x50
 5343 05cc 00000000 		.4byte	0
 5344 05d0 00000000 		.4byte	0
 5345              	.LLST26:
 5346 05d4 00000000 		.4byte	.LVL98
 5347 05d8 10000000 		.4byte	.LVL101
 5348 05dc 0100     		.2byte	0x1
 5349 05de 50       		.byte	0x50
 5350 05df 10000000 		.4byte	.LVL101
 5351 05e3 12000000 		.4byte	.LVL102
 5352 05e7 0100     		.2byte	0x1
 5353 05e9 52       		.byte	0x52
 5354 05ea 12000000 		.4byte	.LVL102
 5355 05ee 1C000000 		.4byte	.LVL103
 5356 05f2 0100     		.2byte	0x1
 5357 05f4 50       		.byte	0x50
 5358 05f5 1C000000 		.4byte	.LVL103
 5359 05f9 1E000000 		.4byte	.LVL104
 5360 05fd 0100     		.2byte	0x1
 5361 05ff 52       		.byte	0x52
 5362 0600 1E000000 		.4byte	.LVL104
 5363 0604 28000000 		.4byte	.LVL106
 5364 0608 0100     		.2byte	0x1
 5365 060a 50       		.byte	0x50
 5366 060b 28000000 		.4byte	.LVL106
 5367 060f 2A000000 		.4byte	.LVL107
 5368 0613 0100     		.2byte	0x1
 5369 0615 52       		.byte	0x52
 5370 0616 2A000000 		.4byte	.LVL107
 5371 061a 2C000000 		.4byte	.LVL108
 5372 061e 0100     		.2byte	0x1
 5373 0620 50       		.byte	0x50
 5374 0621 2C000000 		.4byte	.LVL108
 5375 0625 2E000000 		.4byte	.LVL109
 5376 0629 0100     		.2byte	0x1
 5377 062b 52       		.byte	0x52
 5378 062c 2E000000 		.4byte	.LVL109
 5379 0630 30000000 		.4byte	.LVL110
 5380 0634 0100     		.2byte	0x1
ARM GAS  C:\Users\strap\AppData\Local\Temp\ccCgIabb.s 			page 120


 5381 0636 50       		.byte	0x50
 5382 0637 30000000 		.4byte	.LVL110
 5383 063b 46000000 		.4byte	.LFE9
 5384 063f 0100     		.2byte	0x1
 5385 0641 52       		.byte	0x52
 5386 0642 00000000 		.4byte	0
 5387 0646 00000000 		.4byte	0
 5388              	.LLST27:
 5389 064a 02000000 		.4byte	.LVL99
 5390 064e 0E000000 		.4byte	.LVL100
 5391 0652 0200     		.2byte	0x2
 5392 0654 30       		.byte	0x30
 5393 0655 9F       		.byte	0x9f
 5394 0656 0E000000 		.4byte	.LVL100
 5395 065a 12000000 		.4byte	.LVL102
 5396 065e 0200     		.2byte	0x2
 5397 0660 31       		.byte	0x31
 5398 0661 9F       		.byte	0x9f
 5399 0662 12000000 		.4byte	.LVL102
 5400 0666 26000000 		.4byte	.LVL105
 5401 066a 0200     		.2byte	0x2
 5402 066c 30       		.byte	0x30
 5403 066d 9F       		.byte	0x9f
 5404 066e 26000000 		.4byte	.LVL105
 5405 0672 2A000000 		.4byte	.LVL107
 5406 0676 0200     		.2byte	0x2
 5407 0678 31       		.byte	0x31
 5408 0679 9F       		.byte	0x9f
 5409 067a 2A000000 		.4byte	.LVL107
 5410 067e 30000000 		.4byte	.LVL110
 5411 0682 0200     		.2byte	0x2
 5412 0684 30       		.byte	0x30
 5413 0685 9F       		.byte	0x9f
 5414 0686 30000000 		.4byte	.LVL110
 5415 068a 40000000 		.4byte	.LVL111
 5416 068e 0100     		.2byte	0x1
 5417 0690 50       		.byte	0x50
 5418 0691 42000000 		.4byte	.LVL112
 5419 0695 46000000 		.4byte	.LFE9
 5420 0699 0100     		.2byte	0x1
 5421 069b 50       		.byte	0x50
 5422 069c 00000000 		.4byte	0
 5423 06a0 00000000 		.4byte	0
 5424              	.LLST28:
 5425 06a4 00000000 		.4byte	.LVL114
 5426 06a8 46000000 		.4byte	.LVL119
 5427 06ac 0100     		.2byte	0x1
 5428 06ae 50       		.byte	0x50
 5429 06af 46000000 		.4byte	.LVL119
 5430 06b3 2A010000 		.4byte	.LVL151
 5431 06b7 0100     		.2byte	0x1
 5432 06b9 57       		.byte	0x57
 5433 06ba 2A010000 		.4byte	.LVL151
 5434 06be 2C010000 		.4byte	.LVL152
 5435 06c2 0100     		.2byte	0x1
 5436 06c4 50       		.byte	0x50
 5437 06c5 2C010000 		.4byte	.LVL152
ARM GAS  C:\Users\strap\AppData\Local\Temp\ccCgIabb.s 			page 121


 5438 06c9 2E010000 		.4byte	.LVL153
 5439 06cd 0400     		.2byte	0x4
 5440 06cf F3       		.byte	0xf3
 5441 06d0 01       		.uleb128 0x1
 5442 06d1 50       		.byte	0x50
 5443 06d2 9F       		.byte	0x9f
 5444 06d3 2E010000 		.4byte	.LVL153
 5445 06d7 30010000 		.4byte	.LVL154
 5446 06db 0100     		.2byte	0x1
 5447 06dd 50       		.byte	0x50
 5448 06de 30010000 		.4byte	.LVL154
 5449 06e2 32010000 		.4byte	.LVL155
 5450 06e6 0100     		.2byte	0x1
 5451 06e8 57       		.byte	0x57
 5452 06e9 32010000 		.4byte	.LVL155
 5453 06ed 34010000 		.4byte	.LVL156
 5454 06f1 0100     		.2byte	0x1
 5455 06f3 50       		.byte	0x50
 5456 06f4 34010000 		.4byte	.LVL156
 5457 06f8 44010000 		.4byte	.LVL160
 5458 06fc 0100     		.2byte	0x1
 5459 06fe 57       		.byte	0x57
 5460 06ff 44010000 		.4byte	.LVL160
 5461 0703 54010000 		.4byte	.LFE6
 5462 0707 0400     		.2byte	0x4
 5463 0709 F3       		.byte	0xf3
 5464 070a 01       		.uleb128 0x1
 5465 070b 50       		.byte	0x50
 5466 070c 9F       		.byte	0x9f
 5467 070d 00000000 		.4byte	0
 5468 0711 00000000 		.4byte	0
 5469              	.LLST29:
 5470 0715 00000000 		.4byte	.LVL114
 5471 0719 44000000 		.4byte	.LVL118
 5472 071d 0100     		.2byte	0x1
 5473 071f 51       		.byte	0x51
 5474 0720 44000000 		.4byte	.LVL118
 5475 0724 2A010000 		.4byte	.LVL151
 5476 0728 0200     		.2byte	0x2
 5477 072a 91       		.byte	0x91
 5478 072b 40       		.sleb128 -64
 5479 072c 2A010000 		.4byte	.LVL151
 5480 0730 36010000 		.4byte	.LVL157
 5481 0734 0100     		.2byte	0x1
 5482 0736 51       		.byte	0x51
 5483 0737 36010000 		.4byte	.LVL157
 5484 073b 4A010000 		.4byte	.LVL161
 5485 073f 0200     		.2byte	0x2
 5486 0741 91       		.byte	0x91
 5487 0742 40       		.sleb128 -64
 5488 0743 4A010000 		.4byte	.LVL161
 5489 0747 54010000 		.4byte	.LFE6
 5490 074b 0200     		.2byte	0x2
 5491 074d 7D       		.byte	0x7d
 5492 074e 40       		.sleb128 -64
 5493 074f 00000000 		.4byte	0
 5494 0753 00000000 		.4byte	0
ARM GAS  C:\Users\strap\AppData\Local\Temp\ccCgIabb.s 			page 122


 5495              	.LLST30:
 5496 0757 00000000 		.4byte	.LVL114
 5497 075b 47000000 		.4byte	.LVL120-1
 5498 075f 0100     		.2byte	0x1
 5499 0761 52       		.byte	0x52
 5500 0762 47000000 		.4byte	.LVL120-1
 5501 0766 2A010000 		.4byte	.LVL151
 5502 076a 0400     		.2byte	0x4
 5503 076c F3       		.byte	0xf3
 5504 076d 01       		.uleb128 0x1
 5505 076e 52       		.byte	0x52
 5506 076f 9F       		.byte	0x9f
 5507 0770 2A010000 		.4byte	.LVL151
 5508 0774 36010000 		.4byte	.LVL157
 5509 0778 0100     		.2byte	0x1
 5510 077a 52       		.byte	0x52
 5511 077b 36010000 		.4byte	.LVL157
 5512 077f 54010000 		.4byte	.LFE6
 5513 0783 0400     		.2byte	0x4
 5514 0785 F3       		.byte	0xf3
 5515 0786 01       		.uleb128 0x1
 5516 0787 52       		.byte	0x52
 5517 0788 9F       		.byte	0x9f
 5518 0789 00000000 		.4byte	0
 5519 078d 00000000 		.4byte	0
 5520              	.LLST31:
 5521 0791 00000000 		.4byte	.LVL114
 5522 0795 14000000 		.4byte	.LVL115
 5523 0799 0100     		.2byte	0x1
 5524 079b 53       		.byte	0x53
 5525 079c 14000000 		.4byte	.LVL115
 5526 07a0 38000000 		.4byte	.LVL116
 5527 07a4 0400     		.2byte	0x4
 5528 07a6 F3       		.byte	0xf3
 5529 07a7 01       		.uleb128 0x1
 5530 07a8 53       		.byte	0x53
 5531 07a9 9F       		.byte	0x9f
 5532 07aa 38000000 		.4byte	.LVL116
 5533 07ae 2A010000 		.4byte	.LVL151
 5534 07b2 0200     		.2byte	0x2
 5535 07b4 91       		.byte	0x91
 5536 07b5 48       		.sleb128 -56
 5537 07b6 2A010000 		.4byte	.LVL151
 5538 07ba 36010000 		.4byte	.LVL157
 5539 07be 0400     		.2byte	0x4
 5540 07c0 F3       		.byte	0xf3
 5541 07c1 01       		.uleb128 0x1
 5542 07c2 53       		.byte	0x53
 5543 07c3 9F       		.byte	0x9f
 5544 07c4 36010000 		.4byte	.LVL157
 5545 07c8 44010000 		.4byte	.LVL160
 5546 07cc 0200     		.2byte	0x2
 5547 07ce 91       		.byte	0x91
 5548 07cf 48       		.sleb128 -56
 5549 07d0 00000000 		.4byte	0
 5550 07d4 00000000 		.4byte	0
 5551              	.LLST32:
ARM GAS  C:\Users\strap\AppData\Local\Temp\ccCgIabb.s 			page 123


 5552 07d8 00000000 		.4byte	.LVL114
 5553 07dc 4A010000 		.4byte	.LVL161
 5554 07e0 0200     		.2byte	0x2
 5555 07e2 91       		.byte	0x91
 5556 07e3 00       		.sleb128 0
 5557 07e4 4A010000 		.4byte	.LVL161
 5558 07e8 54010000 		.4byte	.LFE6
 5559 07ec 0200     		.2byte	0x2
 5560 07ee 7D       		.byte	0x7d
 5561 07ef 00       		.sleb128 0
 5562 07f0 00000000 		.4byte	0
 5563 07f4 00000000 		.4byte	0
 5564              	.LLST33:
 5565 07f8 00000000 		.4byte	.LVL114
 5566 07fc 4A010000 		.4byte	.LVL161
 5567 0800 0200     		.2byte	0x2
 5568 0802 91       		.byte	0x91
 5569 0803 04       		.sleb128 4
 5570 0804 4A010000 		.4byte	.LVL161
 5571 0808 54010000 		.4byte	.LFE6
 5572 080c 0200     		.2byte	0x2
 5573 080e 7D       		.byte	0x7d
 5574 080f 04       		.sleb128 4
 5575 0810 00000000 		.4byte	0
 5576 0814 00000000 		.4byte	0
 5577              	.LLST34:
 5578 0818 00000000 		.4byte	.LVL114
 5579 081c 4A010000 		.4byte	.LVL161
 5580 0820 0200     		.2byte	0x2
 5581 0822 91       		.byte	0x91
 5582 0823 08       		.sleb128 8
 5583 0824 4A010000 		.4byte	.LVL161
 5584 0828 54010000 		.4byte	.LFE6
 5585 082c 0200     		.2byte	0x2
 5586 082e 7D       		.byte	0x7d
 5587 082f 08       		.sleb128 8
 5588 0830 00000000 		.4byte	0
 5589 0834 00000000 		.4byte	0
 5590              	.LLST35:
 5591 0838 00000000 		.4byte	.LVL114
 5592 083c 4A010000 		.4byte	.LVL161
 5593 0840 0200     		.2byte	0x2
 5594 0842 91       		.byte	0x91
 5595 0843 0C       		.sleb128 12
 5596 0844 4A010000 		.4byte	.LVL161
 5597 0848 54010000 		.4byte	.LFE6
 5598 084c 0200     		.2byte	0x2
 5599 084e 7D       		.byte	0x7d
 5600 084f 0C       		.sleb128 12
 5601 0850 00000000 		.4byte	0
 5602 0854 00000000 		.4byte	0
 5603              	.LLST36:
 5604 0858 38000000 		.4byte	.LVL116
 5605 085c 5A000000 		.4byte	.LVL122
 5606 0860 0200     		.2byte	0x2
 5607 0862 30       		.byte	0x30
 5608 0863 9F       		.byte	0x9f
ARM GAS  C:\Users\strap\AppData\Local\Temp\ccCgIabb.s 			page 124


 5609 0864 5A000000 		.4byte	.LVL122
 5610 0868 18010000 		.4byte	.LVL148
 5611 086c 0100     		.2byte	0x1
 5612 086e 56       		.byte	0x56
 5613 086f 1A010000 		.4byte	.LVL149
 5614 0873 24010000 		.4byte	.LVL150
 5615 0877 0100     		.2byte	0x1
 5616 0879 56       		.byte	0x56
 5617 087a 36010000 		.4byte	.LVL157
 5618 087e 44010000 		.4byte	.LVL160
 5619 0882 0100     		.2byte	0x1
 5620 0884 56       		.byte	0x56
 5621 0885 00000000 		.4byte	0
 5622 0889 00000000 		.4byte	0
 5623              	.LLST37:
 5624 088d 3E000000 		.4byte	.LVL117
 5625 0891 4A000000 		.4byte	.LVL121
 5626 0895 0200     		.2byte	0x2
 5627 0897 30       		.byte	0x30
 5628 0898 9F       		.byte	0x9f
 5629 0899 4A000000 		.4byte	.LVL121
 5630 089d 5A000000 		.4byte	.LVL122
 5631 08a1 0100     		.2byte	0x1
 5632 08a3 50       		.byte	0x50
 5633 08a4 5A000000 		.4byte	.LVL122
 5634 08a8 80000000 		.4byte	.LVL129
 5635 08ac 0100     		.2byte	0x1
 5636 08ae 54       		.byte	0x54
 5637 08af 80000000 		.4byte	.LVL129
 5638 08b3 82000000 		.4byte	.LVL130
 5639 08b7 0300     		.2byte	0x3
 5640 08b9 91       		.byte	0x91
 5641 08ba BC7F     		.sleb128 -68
 5642 08bc 82000000 		.4byte	.LVL130
 5643 08c0 F6000000 		.4byte	.LVL145
 5644 08c4 0100     		.2byte	0x1
 5645 08c6 54       		.byte	0x54
 5646 08c7 F6000000 		.4byte	.LVL145
 5647 08cb FA000000 		.4byte	.LVL146
 5648 08cf 0300     		.2byte	0x3
 5649 08d1 91       		.byte	0x91
 5650 08d2 BC7F     		.sleb128 -68
 5651 08d4 FA000000 		.4byte	.LVL146
 5652 08d8 2A010000 		.4byte	.LVL151
 5653 08dc 0100     		.2byte	0x1
 5654 08de 54       		.byte	0x54
 5655 08df 36010000 		.4byte	.LVL157
 5656 08e3 44010000 		.4byte	.LVL160
 5657 08e7 0100     		.2byte	0x1
 5658 08e9 54       		.byte	0x54
 5659 08ea 00000000 		.4byte	0
 5660 08ee 00000000 		.4byte	0
 5661              	.LLST38:
 5662 08f2 3E000000 		.4byte	.LVL117
 5663 08f6 5A000000 		.4byte	.LVL122
 5664 08fa 0200     		.2byte	0x2
 5665 08fc 30       		.byte	0x30
ARM GAS  C:\Users\strap\AppData\Local\Temp\ccCgIabb.s 			page 125


 5666 08fd 9F       		.byte	0x9f
 5667 08fe 5A000000 		.4byte	.LVL122
 5668 0902 66000000 		.4byte	.LVL124
 5669 0906 0300     		.2byte	0x3
 5670 0908 91       		.byte	0x91
 5671 0909 BC7F     		.sleb128 -68
 5672 090b 66000000 		.4byte	.LVL124
 5673 090f 74000000 		.4byte	.LVL126
 5674 0913 0100     		.2byte	0x1
 5675 0915 50       		.byte	0x50
 5676 0916 74000000 		.4byte	.LVL126
 5677 091a 2A010000 		.4byte	.LVL151
 5678 091e 0300     		.2byte	0x3
 5679 0920 91       		.byte	0x91
 5680 0921 BC7F     		.sleb128 -68
 5681 0923 36010000 		.4byte	.LVL157
 5682 0927 3A010000 		.4byte	.LVL158
 5683 092b 0300     		.2byte	0x3
 5684 092d 91       		.byte	0x91
 5685 092e BC7F     		.sleb128 -68
 5686 0930 3A010000 		.4byte	.LVL158
 5687 0934 3E010000 		.4byte	.LVL159
 5688 0938 0100     		.2byte	0x1
 5689 093a 53       		.byte	0x53
 5690 093b 3E010000 		.4byte	.LVL159
 5691 093f 44010000 		.4byte	.LVL160
 5692 0943 0300     		.2byte	0x3
 5693 0945 91       		.byte	0x91
 5694 0946 BC7F     		.sleb128 -68
 5695 0948 00000000 		.4byte	0
 5696 094c 00000000 		.4byte	0
 5697              	.LLST39:
 5698 0950 8E000000 		.4byte	.LVL132
 5699 0954 9A000000 		.4byte	.LVL134
 5700 0958 0100     		.2byte	0x1
 5701 095a 53       		.byte	0x53
 5702 095b 00000000 		.4byte	0
 5703 095f 00000000 		.4byte	0
 5704              	.LLST40:
 5705 0963 3E000000 		.4byte	.LVL117
 5706 0967 5A000000 		.4byte	.LVL122
 5707 096b 0200     		.2byte	0x2
 5708 096d 30       		.byte	0x30
 5709 096e 9F       		.byte	0x9f
 5710 096f 5A000000 		.4byte	.LVL122
 5711 0973 9C000000 		.4byte	.LVL135
 5712 0977 0100     		.2byte	0x1
 5713 0979 55       		.byte	0x55
 5714 097a 9C000000 		.4byte	.LVL135
 5715 097e 9E000000 		.4byte	.LVL136
 5716 0982 0100     		.2byte	0x1
 5717 0984 50       		.byte	0x50
 5718 0985 9E000000 		.4byte	.LVL136
 5719 0989 2A010000 		.4byte	.LVL151
 5720 098d 0100     		.2byte	0x1
 5721 098f 55       		.byte	0x55
 5722 0990 36010000 		.4byte	.LVL157
ARM GAS  C:\Users\strap\AppData\Local\Temp\ccCgIabb.s 			page 126


 5723 0994 44010000 		.4byte	.LVL160
 5724 0998 0100     		.2byte	0x1
 5725 099a 55       		.byte	0x55
 5726 099b 00000000 		.4byte	0
 5727 099f 00000000 		.4byte	0
 5728              	.LLST41:
 5729 09a3 3E000000 		.4byte	.LVL117
 5730 09a7 5A000000 		.4byte	.LVL122
 5731 09ab 0200     		.2byte	0x2
 5732 09ad 30       		.byte	0x30
 5733 09ae 9F       		.byte	0x9f
 5734 09af 5A000000 		.4byte	.LVL122
 5735 09b3 6A000000 		.4byte	.LVL125
 5736 09b7 0100     		.2byte	0x1
 5737 09b9 58       		.byte	0x58
 5738 09ba 6A000000 		.4byte	.LVL125
 5739 09be FA000000 		.4byte	.LVL146
 5740 09c2 0100     		.2byte	0x1
 5741 09c4 5A       		.byte	0x5a
 5742 09c5 FA000000 		.4byte	.LVL146
 5743 09c9 2A010000 		.4byte	.LVL151
 5744 09cd 0100     		.2byte	0x1
 5745 09cf 58       		.byte	0x58
 5746 09d0 36010000 		.4byte	.LVL157
 5747 09d4 44010000 		.4byte	.LVL160
 5748 09d8 0100     		.2byte	0x1
 5749 09da 58       		.byte	0x58
 5750 09db 00000000 		.4byte	0
 5751 09df 00000000 		.4byte	0
 5752              	.LLST42:
 5753 09e3 3E000000 		.4byte	.LVL117
 5754 09e7 5A000000 		.4byte	.LVL122
 5755 09eb 0300     		.2byte	0x3
 5756 09ed 09       		.byte	0x9
 5757 09ee FF       		.byte	0xff
 5758 09ef 9F       		.byte	0x9f
 5759 09f0 5A000000 		.4byte	.LVL122
 5760 09f4 2A010000 		.4byte	.LVL151
 5761 09f8 0100     		.2byte	0x1
 5762 09fa 59       		.byte	0x59
 5763 09fb 36010000 		.4byte	.LVL157
 5764 09ff 44010000 		.4byte	.LVL160
 5765 0a03 0100     		.2byte	0x1
 5766 0a05 59       		.byte	0x59
 5767 0a06 00000000 		.4byte	0
 5768 0a0a 00000000 		.4byte	0
 5769              	.LLST43:
 5770 0a0e 3E000000 		.4byte	.LVL117
 5771 0a12 2A010000 		.4byte	.LVL151
 5772 0a16 0200     		.2byte	0x2
 5773 0a18 30       		.byte	0x30
 5774 0a19 9F       		.byte	0x9f
 5775 0a1a 36010000 		.4byte	.LVL157
 5776 0a1e 44010000 		.4byte	.LVL160
 5777 0a22 0200     		.2byte	0x2
 5778 0a24 30       		.byte	0x30
 5779 0a25 9F       		.byte	0x9f
ARM GAS  C:\Users\strap\AppData\Local\Temp\ccCgIabb.s 			page 127


 5780 0a26 00000000 		.4byte	0
 5781 0a2a 00000000 		.4byte	0
 5782              	.LLST44:
 5783 0a2e BC000000 		.4byte	.LVL138
 5784 0a32 C2000000 		.4byte	.LVL139
 5785 0a36 0100     		.2byte	0x1
 5786 0a38 53       		.byte	0x53
 5787 0a39 C4000000 		.4byte	.LVL140
 5788 0a3d CE000000 		.4byte	.LVL141
 5789 0a41 0100     		.2byte	0x1
 5790 0a43 53       		.byte	0x53
 5791 0a44 D0000000 		.4byte	.LVL142
 5792 0a48 D2000000 		.4byte	.LVL143
 5793 0a4c 0100     		.2byte	0x1
 5794 0a4e 53       		.byte	0x53
 5795 0a4f 00000000 		.4byte	0
 5796 0a53 00000000 		.4byte	0
 5797              	.LLST45:
 5798 0a57 00000000 		.4byte	.LVL162
 5799 0a5b 22000000 		.4byte	.LVL163
 5800 0a5f 0100     		.2byte	0x1
 5801 0a61 50       		.byte	0x50
 5802 0a62 22000000 		.4byte	.LVL163
 5803 0a66 26000000 		.4byte	.LVL165
 5804 0a6a 0100     		.2byte	0x1
 5805 0a6c 54       		.byte	0x54
 5806 0a6d 26000000 		.4byte	.LVL165
 5807 0a71 28000000 		.4byte	.LVL166
 5808 0a75 0100     		.2byte	0x1
 5809 0a77 50       		.byte	0x50
 5810 0a78 28000000 		.4byte	.LVL166
 5811 0a7c 3E000000 		.4byte	.LVL168
 5812 0a80 0100     		.2byte	0x1
 5813 0a82 54       		.byte	0x54
 5814 0a83 3E000000 		.4byte	.LVL168
 5815 0a87 52000000 		.4byte	.LVL170
 5816 0a8b 0100     		.2byte	0x1
 5817 0a8d 50       		.byte	0x50
 5818 0a8e 52000000 		.4byte	.LVL170
 5819 0a92 CC000000 		.4byte	.LVL180
 5820 0a96 0100     		.2byte	0x1
 5821 0a98 54       		.byte	0x54
 5822 0a99 CC000000 		.4byte	.LVL180
 5823 0a9d CE000000 		.4byte	.LVL181
 5824 0aa1 0100     		.2byte	0x1
 5825 0aa3 50       		.byte	0x50
 5826 0aa4 CE000000 		.4byte	.LVL181
 5827 0aa8 D0000000 		.4byte	.LVL182
 5828 0aac 0400     		.2byte	0x4
 5829 0aae F3       		.byte	0xf3
 5830 0aaf 01       		.uleb128 0x1
 5831 0ab0 50       		.byte	0x50
 5832 0ab1 9F       		.byte	0x9f
 5833 0ab2 D0000000 		.4byte	.LVL182
 5834 0ab6 D2000000 		.4byte	.LVL183
 5835 0aba 0100     		.2byte	0x1
 5836 0abc 50       		.byte	0x50
ARM GAS  C:\Users\strap\AppData\Local\Temp\ccCgIabb.s 			page 128


 5837 0abd D2000000 		.4byte	.LVL183
 5838 0ac1 DC000000 		.4byte	.LFE7
 5839 0ac5 0400     		.2byte	0x4
 5840 0ac7 F3       		.byte	0xf3
 5841 0ac8 01       		.uleb128 0x1
 5842 0ac9 50       		.byte	0x50
 5843 0aca 9F       		.byte	0x9f
 5844 0acb 00000000 		.4byte	0
 5845 0acf 00000000 		.4byte	0
 5846              	.LLST46:
 5847 0ad3 00000000 		.4byte	.LVL162
 5848 0ad7 52000000 		.4byte	.LVL170
 5849 0adb 0100     		.2byte	0x1
 5850 0add 51       		.byte	0x51
 5851 0ade 52000000 		.4byte	.LVL170
 5852 0ae2 CC000000 		.4byte	.LVL180
 5853 0ae6 0100     		.2byte	0x1
 5854 0ae8 57       		.byte	0x57
 5855 0ae9 CC000000 		.4byte	.LVL180
 5856 0aed D2000000 		.4byte	.LVL183
 5857 0af1 0100     		.2byte	0x1
 5858 0af3 51       		.byte	0x51
 5859 0af4 D2000000 		.4byte	.LVL183
 5860 0af8 DC000000 		.4byte	.LFE7
 5861 0afc 0400     		.2byte	0x4
 5862 0afe F3       		.byte	0xf3
 5863 0aff 01       		.uleb128 0x1
 5864 0b00 51       		.byte	0x51
 5865 0b01 9F       		.byte	0x9f
 5866 0b02 00000000 		.4byte	0
 5867 0b06 00000000 		.4byte	0
 5868              	.LLST47:
 5869 0b0a 00000000 		.4byte	.LVL162
 5870 0b0e 52000000 		.4byte	.LVL170
 5871 0b12 0100     		.2byte	0x1
 5872 0b14 52       		.byte	0x52
 5873 0b15 52000000 		.4byte	.LVL170
 5874 0b19 CC000000 		.4byte	.LVL180
 5875 0b1d 0400     		.2byte	0x4
 5876 0b1f F3       		.byte	0xf3
 5877 0b20 01       		.uleb128 0x1
 5878 0b21 52       		.byte	0x52
 5879 0b22 9F       		.byte	0x9f
 5880 0b23 CC000000 		.4byte	.LVL180
 5881 0b27 D2000000 		.4byte	.LVL183
 5882 0b2b 0100     		.2byte	0x1
 5883 0b2d 52       		.byte	0x52
 5884 0b2e D2000000 		.4byte	.LVL183
 5885 0b32 DC000000 		.4byte	.LFE7
 5886 0b36 0400     		.2byte	0x4
 5887 0b38 F3       		.byte	0xf3
 5888 0b39 01       		.uleb128 0x1
 5889 0b3a 52       		.byte	0x52
 5890 0b3b 9F       		.byte	0x9f
 5891 0b3c 00000000 		.4byte	0
 5892 0b40 00000000 		.4byte	0
 5893              	.LLST48:
ARM GAS  C:\Users\strap\AppData\Local\Temp\ccCgIabb.s 			page 129


 5894 0b44 00000000 		.4byte	.LVL162
 5895 0b48 22000000 		.4byte	.LVL163
 5896 0b4c 0100     		.2byte	0x1
 5897 0b4e 53       		.byte	0x53
 5898 0b4f 22000000 		.4byte	.LVL163
 5899 0b53 26000000 		.4byte	.LVL165
 5900 0b57 0400     		.2byte	0x4
 5901 0b59 F3       		.byte	0xf3
 5902 0b5a 01       		.uleb128 0x1
 5903 0b5b 53       		.byte	0x53
 5904 0b5c 9F       		.byte	0x9f
 5905 0b5d 26000000 		.4byte	.LVL165
 5906 0b61 28000000 		.4byte	.LVL166
 5907 0b65 0100     		.2byte	0x1
 5908 0b67 53       		.byte	0x53
 5909 0b68 28000000 		.4byte	.LVL166
 5910 0b6c 3E000000 		.4byte	.LVL168
 5911 0b70 0400     		.2byte	0x4
 5912 0b72 F3       		.byte	0xf3
 5913 0b73 01       		.uleb128 0x1
 5914 0b74 53       		.byte	0x53
 5915 0b75 9F       		.byte	0x9f
 5916 0b76 3E000000 		.4byte	.LVL168
 5917 0b7a 48000000 		.4byte	.LVL169
 5918 0b7e 0100     		.2byte	0x1
 5919 0b80 53       		.byte	0x53
 5920 0b81 48000000 		.4byte	.LVL169
 5921 0b85 78000000 		.4byte	.LVL172
 5922 0b89 0100     		.2byte	0x1
 5923 0b8b 55       		.byte	0x55
 5924 0b8c 7A000000 		.4byte	.LVL173
 5925 0b90 CC000000 		.4byte	.LVL180
 5926 0b94 0100     		.2byte	0x1
 5927 0b96 55       		.byte	0x55
 5928 0b97 CC000000 		.4byte	.LVL180
 5929 0b9b D2000000 		.4byte	.LVL183
 5930 0b9f 0100     		.2byte	0x1
 5931 0ba1 53       		.byte	0x53
 5932 0ba2 00000000 		.4byte	0
 5933 0ba6 00000000 		.4byte	0
 5934              	.LLST49:
 5935 0baa 00000000 		.4byte	.LVL162
 5936 0bae D8000000 		.4byte	.LVL184
 5937 0bb2 0200     		.2byte	0x2
 5938 0bb4 91       		.byte	0x91
 5939 0bb5 00       		.sleb128 0
 5940 0bb6 D8000000 		.4byte	.LVL184
 5941 0bba DC000000 		.4byte	.LFE7
 5942 0bbe 0200     		.2byte	0x2
 5943 0bc0 7D       		.byte	0x7d
 5944 0bc1 00       		.sleb128 0
 5945 0bc2 00000000 		.4byte	0
 5946 0bc6 00000000 		.4byte	0
 5947              	.LLST50:
 5948 0bca 22000000 		.4byte	.LVL163
 5949 0bce 26000000 		.4byte	.LVL165
 5950 0bd2 0100     		.2byte	0x1
ARM GAS  C:\Users\strap\AppData\Local\Temp\ccCgIabb.s 			page 130


 5951 0bd4 50       		.byte	0x50
 5952 0bd5 28000000 		.4byte	.LVL166
 5953 0bd9 3C000000 		.4byte	.LVL167
 5954 0bdd 0100     		.2byte	0x1
 5955 0bdf 50       		.byte	0x50
 5956 0be0 00000000 		.4byte	0
 5957 0be4 00000000 		.4byte	0
 5958              	.LLST51:
 5959 0be8 74000000 		.4byte	.LVL171
 5960 0bec 8A000000 		.4byte	.LVL174
 5961 0bf0 0100     		.2byte	0x1
 5962 0bf2 50       		.byte	0x50
 5963 0bf3 8E000000 		.4byte	.LVL176
 5964 0bf7 90000000 		.4byte	.LVL177
 5965 0bfb 0100     		.2byte	0x1
 5966 0bfd 50       		.byte	0x50
 5967 0bfe 90000000 		.4byte	.LVL177
 5968 0c02 96000000 		.4byte	.LVL178
 5969 0c06 0100     		.2byte	0x1
 5970 0c08 53       		.byte	0x53
 5971 0c09 00000000 		.4byte	0
 5972 0c0d 00000000 		.4byte	0
 5973              	.LLST52:
 5974 0c11 00000000 		.4byte	.LVL185
 5975 0c15 16000000 		.4byte	.LVL186
 5976 0c19 0100     		.2byte	0x1
 5977 0c1b 50       		.byte	0x50
 5978 0c1c 16000000 		.4byte	.LVL186
 5979 0c20 86000000 		.4byte	.LVL205
 5980 0c24 0100     		.2byte	0x1
 5981 0c26 55       		.byte	0x55
 5982 0c27 86000000 		.4byte	.LVL205
 5983 0c2b 88000000 		.4byte	.LVL206
 5984 0c2f 0100     		.2byte	0x1
 5985 0c31 50       		.byte	0x50
 5986 0c32 88000000 		.4byte	.LVL206
 5987 0c36 8A000000 		.4byte	.LVL207
 5988 0c3a 0400     		.2byte	0x4
 5989 0c3c F3       		.byte	0xf3
 5990 0c3d 01       		.uleb128 0x1
 5991 0c3e 50       		.byte	0x50
 5992 0c3f 9F       		.byte	0x9f
 5993 0c40 8A000000 		.4byte	.LVL207
 5994 0c44 8C000000 		.4byte	.LVL208
 5995 0c48 0100     		.2byte	0x1
 5996 0c4a 50       		.byte	0x50
 5997 0c4b 8C000000 		.4byte	.LVL208
 5998 0c4f 90000000 		.4byte	.LVL210
 5999 0c53 0100     		.2byte	0x1
 6000 0c55 55       		.byte	0x55
 6001 0c56 90000000 		.4byte	.LVL210
 6002 0c5a 9C000000 		.4byte	.LFE8
 6003 0c5e 0400     		.2byte	0x4
 6004 0c60 F3       		.byte	0xf3
 6005 0c61 01       		.uleb128 0x1
 6006 0c62 50       		.byte	0x50
 6007 0c63 9F       		.byte	0x9f
ARM GAS  C:\Users\strap\AppData\Local\Temp\ccCgIabb.s 			page 131


 6008 0c64 00000000 		.4byte	0
 6009 0c68 00000000 		.4byte	0
 6010              	.LLST53:
 6011 0c6c 00000000 		.4byte	.LVL185
 6012 0c70 20000000 		.4byte	.LVL188
 6013 0c74 0100     		.2byte	0x1
 6014 0c76 51       		.byte	0x51
 6015 0c77 20000000 		.4byte	.LVL188
 6016 0c7b 68000000 		.4byte	.LVL202
 6017 0c7f 0100     		.2byte	0x1
 6018 0c81 56       		.byte	0x56
 6019 0c82 68000000 		.4byte	.LVL202
 6020 0c86 72000000 		.4byte	.LVL203
 6021 0c8a 0100     		.2byte	0x1
 6022 0c8c 51       		.byte	0x51
 6023 0c8d 72000000 		.4byte	.LVL203
 6024 0c91 86000000 		.4byte	.LVL205
 6025 0c95 0100     		.2byte	0x1
 6026 0c97 56       		.byte	0x56
 6027 0c98 86000000 		.4byte	.LVL205
 6028 0c9c 8E000000 		.4byte	.LVL209
 6029 0ca0 0100     		.2byte	0x1
 6030 0ca2 51       		.byte	0x51
 6031 0ca3 8E000000 		.4byte	.LVL209
 6032 0ca7 90000000 		.4byte	.LVL210
 6033 0cab 0100     		.2byte	0x1
 6034 0cad 56       		.byte	0x56
 6035 0cae 90000000 		.4byte	.LVL210
 6036 0cb2 9C000000 		.4byte	.LFE8
 6037 0cb6 0400     		.2byte	0x4
 6038 0cb8 F3       		.byte	0xf3
 6039 0cb9 01       		.uleb128 0x1
 6040 0cba 51       		.byte	0x51
 6041 0cbb 9F       		.byte	0x9f
 6042 0cbc 00000000 		.4byte	0
 6043 0cc0 00000000 		.4byte	0
 6044              	.LLST54:
 6045 0cc4 00000000 		.4byte	.LVL185
 6046 0cc8 20000000 		.4byte	.LVL188
 6047 0ccc 0100     		.2byte	0x1
 6048 0cce 52       		.byte	0x52
 6049 0ccf 20000000 		.4byte	.LVL188
 6050 0cd3 68000000 		.4byte	.LVL202
 6051 0cd7 0100     		.2byte	0x1
 6052 0cd9 57       		.byte	0x57
 6053 0cda 68000000 		.4byte	.LVL202
 6054 0cde 72000000 		.4byte	.LVL203
 6055 0ce2 0100     		.2byte	0x1
 6056 0ce4 52       		.byte	0x52
 6057 0ce5 72000000 		.4byte	.LVL203
 6058 0ce9 86000000 		.4byte	.LVL205
 6059 0ced 0100     		.2byte	0x1
 6060 0cef 57       		.byte	0x57
 6061 0cf0 86000000 		.4byte	.LVL205
 6062 0cf4 8E000000 		.4byte	.LVL209
 6063 0cf8 0100     		.2byte	0x1
 6064 0cfa 52       		.byte	0x52
ARM GAS  C:\Users\strap\AppData\Local\Temp\ccCgIabb.s 			page 132


 6065 0cfb 8E000000 		.4byte	.LVL209
 6066 0cff 90000000 		.4byte	.LVL210
 6067 0d03 0100     		.2byte	0x1
 6068 0d05 57       		.byte	0x57
 6069 0d06 90000000 		.4byte	.LVL210
 6070 0d0a 9C000000 		.4byte	.LFE8
 6071 0d0e 0400     		.2byte	0x4
 6072 0d10 F3       		.byte	0xf3
 6073 0d11 01       		.uleb128 0x1
 6074 0d12 52       		.byte	0x52
 6075 0d13 9F       		.byte	0x9f
 6076 0d14 00000000 		.4byte	0
 6077 0d18 00000000 		.4byte	0
 6078              	.LLST55:
 6079 0d1c 00000000 		.4byte	.LVL185
 6080 0d20 20000000 		.4byte	.LVL188
 6081 0d24 0100     		.2byte	0x1
 6082 0d26 53       		.byte	0x53
 6083 0d27 20000000 		.4byte	.LVL188
 6084 0d2b 68000000 		.4byte	.LVL202
 6085 0d2f 0400     		.2byte	0x4
 6086 0d31 F3       		.byte	0xf3
 6087 0d32 01       		.uleb128 0x1
 6088 0d33 53       		.byte	0x53
 6089 0d34 9F       		.byte	0x9f
 6090 0d35 68000000 		.4byte	.LVL202
 6091 0d39 72000000 		.4byte	.LVL203
 6092 0d3d 0100     		.2byte	0x1
 6093 0d3f 53       		.byte	0x53
 6094 0d40 72000000 		.4byte	.LVL203
 6095 0d44 86000000 		.4byte	.LVL205
 6096 0d48 0400     		.2byte	0x4
 6097 0d4a F3       		.byte	0xf3
 6098 0d4b 01       		.uleb128 0x1
 6099 0d4c 53       		.byte	0x53
 6100 0d4d 9F       		.byte	0x9f
 6101 0d4e 86000000 		.4byte	.LVL205
 6102 0d52 8E000000 		.4byte	.LVL209
 6103 0d56 0100     		.2byte	0x1
 6104 0d58 53       		.byte	0x53
 6105 0d59 8E000000 		.4byte	.LVL209
 6106 0d5d 9C000000 		.4byte	.LFE8
 6107 0d61 0400     		.2byte	0x4
 6108 0d63 F3       		.byte	0xf3
 6109 0d64 01       		.uleb128 0x1
 6110 0d65 53       		.byte	0x53
 6111 0d66 9F       		.byte	0x9f
 6112 0d67 00000000 		.4byte	0
 6113 0d6b 00000000 		.4byte	0
 6114              	.LLST56:
 6115 0d6f 00000000 		.4byte	.LVL185
 6116 0d73 96000000 		.4byte	.LVL211
 6117 0d77 0200     		.2byte	0x2
 6118 0d79 91       		.byte	0x91
 6119 0d7a 00       		.sleb128 0
 6120 0d7b 96000000 		.4byte	.LVL211
 6121 0d7f 9C000000 		.4byte	.LFE8
ARM GAS  C:\Users\strap\AppData\Local\Temp\ccCgIabb.s 			page 133


 6122 0d83 0200     		.2byte	0x2
 6123 0d85 7D       		.byte	0x7d
 6124 0d86 00       		.sleb128 0
 6125 0d87 00000000 		.4byte	0
 6126 0d8b 00000000 		.4byte	0
 6127              	.LLST57:
 6128 0d8f 18000000 		.4byte	.LVL187
 6129 0d93 20000000 		.4byte	.LVL188
 6130 0d97 0200     		.2byte	0x2
 6131 0d99 30       		.byte	0x30
 6132 0d9a 9F       		.byte	0x9f
 6133 0d9b 20000000 		.4byte	.LVL188
 6134 0d9f 60000000 		.4byte	.LVL199
 6135 0da3 0100     		.2byte	0x1
 6136 0da5 5A       		.byte	0x5a
 6137 0da6 60000000 		.4byte	.LVL199
 6138 0daa 62000000 		.4byte	.LVL200
 6139 0dae 0100     		.2byte	0x1
 6140 0db0 54       		.byte	0x54
 6141 0db1 62000000 		.4byte	.LVL200
 6142 0db5 66000000 		.4byte	.LVL201
 6143 0db9 0600     		.2byte	0x6
 6144 0dbb 70       		.byte	0x70
 6145 0dbc 00       		.sleb128 0
 6146 0dbd 7A       		.byte	0x7a
 6147 0dbe 00       		.sleb128 0
 6148 0dbf 22       		.byte	0x22
 6149 0dc0 9F       		.byte	0x9f
 6150 0dc1 66000000 		.4byte	.LVL201
 6151 0dc5 68000000 		.4byte	.LVL202
 6152 0dc9 0100     		.2byte	0x1
 6153 0dcb 5A       		.byte	0x5a
 6154 0dcc 68000000 		.4byte	.LVL202
 6155 0dd0 72000000 		.4byte	.LVL203
 6156 0dd4 0200     		.2byte	0x2
 6157 0dd6 30       		.byte	0x30
 6158 0dd7 9F       		.byte	0x9f
 6159 0dd8 72000000 		.4byte	.LVL203
 6160 0ddc 84000000 		.4byte	.LVL204
 6161 0de0 0100     		.2byte	0x1
 6162 0de2 5A       		.byte	0x5a
 6163 0de3 8E000000 		.4byte	.LVL209
 6164 0de7 90000000 		.4byte	.LVL210
 6165 0deb 0100     		.2byte	0x1
 6166 0ded 5A       		.byte	0x5a
 6167 0dee 00000000 		.4byte	0
 6168 0df2 00000000 		.4byte	0
 6169              	.LLST58:
 6170 0df6 2C000000 		.4byte	.LVL190
 6171 0dfa 32000000 		.4byte	.LVL191
 6172 0dfe 0100     		.2byte	0x1
 6173 0e00 50       		.byte	0x50
 6174 0e01 32000000 		.4byte	.LVL191
 6175 0e05 68000000 		.4byte	.LVL202
 6176 0e09 0100     		.2byte	0x1
 6177 0e0b 5B       		.byte	0x5b
 6178 0e0c 00000000 		.4byte	0
ARM GAS  C:\Users\strap\AppData\Local\Temp\ccCgIabb.s 			page 134


 6179 0e10 00000000 		.4byte	0
 6180              	.LLST59:
 6181 0e14 38000000 		.4byte	.LVL193
 6182 0e18 44000000 		.4byte	.LVL194
 6183 0e1c 0100     		.2byte	0x1
 6184 0e1e 50       		.byte	0x50
 6185 0e1f 44000000 		.4byte	.LVL194
 6186 0e23 5E000000 		.4byte	.LVL198
 6187 0e27 0100     		.2byte	0x1
 6188 0e29 54       		.byte	0x54
 6189 0e2a 00000000 		.4byte	0
 6190 0e2e 00000000 		.4byte	0
 6191              	.LLST60:
 6192 0e32 56000000 		.4byte	.LVL197
 6193 0e36 68000000 		.4byte	.LVL202
 6194 0e3a 0100     		.2byte	0x1
 6195 0e3c 53       		.byte	0x53
 6196 0e3d 00000000 		.4byte	0
 6197 0e41 00000000 		.4byte	0
 6198              	.LLST61:
 6199 0e45 00000000 		.4byte	.LVL212
 6200 0e49 44000000 		.4byte	.LVL218
 6201 0e4d 0100     		.2byte	0x1
 6202 0e4f 50       		.byte	0x50
 6203 0e50 44000000 		.4byte	.LVL218
 6204 0e54 C2000000 		.4byte	.LVL227
 6205 0e58 0100     		.2byte	0x1
 6206 0e5a 54       		.byte	0x54
 6207 0e5b C2000000 		.4byte	.LVL227
 6208 0e5f C8000000 		.4byte	.LFE5
 6209 0e63 0400     		.2byte	0x4
 6210 0e65 F3       		.byte	0xf3
 6211 0e66 01       		.uleb128 0x1
 6212 0e67 50       		.byte	0x50
 6213 0e68 9F       		.byte	0x9f
 6214 0e69 00000000 		.4byte	0
 6215 0e6d 00000000 		.4byte	0
 6216              	.LLST62:
 6217 0e71 00000000 		.4byte	.LVL212
 6218 0e75 2E000000 		.4byte	.LVL213
 6219 0e79 0100     		.2byte	0x1
 6220 0e7b 51       		.byte	0x51
 6221 0e7c 2E000000 		.4byte	.LVL213
 6222 0e80 C2000000 		.4byte	.LVL227
 6223 0e84 0100     		.2byte	0x1
 6224 0e86 58       		.byte	0x58
 6225 0e87 C2000000 		.4byte	.LVL227
 6226 0e8b C8000000 		.4byte	.LFE5
 6227 0e8f 0400     		.2byte	0x4
 6228 0e91 F3       		.byte	0xf3
 6229 0e92 01       		.uleb128 0x1
 6230 0e93 51       		.byte	0x51
 6231 0e94 9F       		.byte	0x9f
 6232 0e95 00000000 		.4byte	0
 6233 0e99 00000000 		.4byte	0
 6234              	.LLST63:
 6235 0e9d 00000000 		.4byte	.LVL212
ARM GAS  C:\Users\strap\AppData\Local\Temp\ccCgIabb.s 			page 135


 6236 0ea1 44000000 		.4byte	.LVL218
 6237 0ea5 0100     		.2byte	0x1
 6238 0ea7 52       		.byte	0x52
 6239 0ea8 44000000 		.4byte	.LVL218
 6240 0eac C2000000 		.4byte	.LVL227
 6241 0eb0 0100     		.2byte	0x1
 6242 0eb2 59       		.byte	0x59
 6243 0eb3 C2000000 		.4byte	.LVL227
 6244 0eb7 C8000000 		.4byte	.LFE5
 6245 0ebb 0400     		.2byte	0x4
 6246 0ebd F3       		.byte	0xf3
 6247 0ebe 01       		.uleb128 0x1
 6248 0ebf 52       		.byte	0x52
 6249 0ec0 9F       		.byte	0x9f
 6250 0ec1 00000000 		.4byte	0
 6251 0ec5 00000000 		.4byte	0
 6252              	.LLST64:
 6253 0ec9 00000000 		.4byte	.LVL212
 6254 0ecd 3A000000 		.4byte	.LVL215
 6255 0ed1 0100     		.2byte	0x1
 6256 0ed3 53       		.byte	0x53
 6257 0ed4 3A000000 		.4byte	.LVL215
 6258 0ed8 C8000000 		.4byte	.LFE5
 6259 0edc 0400     		.2byte	0x4
 6260 0ede F3       		.byte	0xf3
 6261 0edf 01       		.uleb128 0x1
 6262 0ee0 53       		.byte	0x53
 6263 0ee1 9F       		.byte	0x9f
 6264 0ee2 00000000 		.4byte	0
 6265 0ee6 00000000 		.4byte	0
 6266              	.LLST65:
 6267 0eea 00000000 		.4byte	.LVL212
 6268 0eee 36000000 		.4byte	.LVL214
 6269 0ef2 0200     		.2byte	0x2
 6270 0ef4 91       		.byte	0x91
 6271 0ef5 04       		.sleb128 4
 6272 0ef6 36000000 		.4byte	.LVL214
 6273 0efa C2000000 		.4byte	.LVL227
 6274 0efe 0200     		.2byte	0x2
 6275 0f00 91       		.byte	0x91
 6276 0f01 50       		.sleb128 -48
 6277 0f02 00000000 		.4byte	0
 6278 0f06 00000000 		.4byte	0
 6279              	.LLST66:
 6280 0f0a 36000000 		.4byte	.LVL214
 6281 0f0e 44000000 		.4byte	.LVL218
 6282 0f12 0200     		.2byte	0x2
 6283 0f14 30       		.byte	0x30
 6284 0f15 9F       		.byte	0x9f
 6285 0f16 44000000 		.4byte	.LVL218
 6286 0f1a 54000000 		.4byte	.LVL220
 6287 0f1e 0100     		.2byte	0x1
 6288 0f20 55       		.byte	0x55
 6289 0f21 86000000 		.4byte	.LVL223
 6290 0f25 96000000 		.4byte	.LVL224
 6291 0f29 0100     		.2byte	0x1
 6292 0f2b 55       		.byte	0x55
ARM GAS  C:\Users\strap\AppData\Local\Temp\ccCgIabb.s 			page 136


 6293 0f2c 96000000 		.4byte	.LVL224
 6294 0f30 AC000000 		.4byte	.LVL226
 6295 0f34 0300     		.2byte	0x3
 6296 0f36 75       		.byte	0x75
 6297 0f37 01       		.sleb128 1
 6298 0f38 9F       		.byte	0x9f
 6299 0f39 00000000 		.4byte	0
 6300 0f3d 00000000 		.4byte	0
 6301              	.LLST67:
 6302 0f41 36000000 		.4byte	.LVL214
 6303 0f45 44000000 		.4byte	.LVL218
 6304 0f49 0200     		.2byte	0x2
 6305 0f4b 30       		.byte	0x30
 6306 0f4c 9F       		.byte	0x9f
 6307 0f4d 44000000 		.4byte	.LVL218
 6308 0f51 96000000 		.4byte	.LVL224
 6309 0f55 0100     		.2byte	0x1
 6310 0f57 55       		.byte	0x55
 6311 0f58 96000000 		.4byte	.LVL224
 6312 0f5c AC000000 		.4byte	.LVL226
 6313 0f60 0300     		.2byte	0x3
 6314 0f62 75       		.byte	0x75
 6315 0f63 01       		.sleb128 1
 6316 0f64 9F       		.byte	0x9f
 6317 0f65 00000000 		.4byte	0
 6318 0f69 00000000 		.4byte	0
 6319              	.LLST68:
 6320 0f6d 40000000 		.4byte	.LVL217
 6321 0f71 A4000000 		.4byte	.LVL225
 6322 0f75 0100     		.2byte	0x1
 6323 0f77 5B       		.byte	0x5b
 6324 0f78 A4000000 		.4byte	.LVL225
 6325 0f7c C2000000 		.4byte	.LVL227
 6326 0f80 0200     		.2byte	0x2
 6327 0f82 91       		.byte	0x91
 6328 0f83 54       		.sleb128 -44
 6329 0f84 00000000 		.4byte	0
 6330 0f88 00000000 		.4byte	0
 6331              	.LLST69:
 6332 0f8c 36000000 		.4byte	.LVL214
 6333 0f90 3C000000 		.4byte	.LVL216
 6334 0f94 0100     		.2byte	0x1
 6335 0f96 59       		.byte	0x59
 6336 0f97 00000000 		.4byte	0
 6337 0f9b 00000000 		.4byte	0
 6338              	.LLST70:
 6339 0f9f 7A000000 		.4byte	.LVL221
 6340 0fa3 84000000 		.4byte	.LVL222
 6341 0fa7 0100     		.2byte	0x1
 6342 0fa9 50       		.byte	0x50
 6343 0faa 00000000 		.4byte	0
 6344 0fae 00000000 		.4byte	0
 6345              	.LLST71:
 6346 0fb2 00000000 		.4byte	.LVL228
 6347 0fb6 0D000000 		.4byte	.LVL229-1
 6348 0fba 0100     		.2byte	0x1
 6349 0fbc 50       		.byte	0x50
ARM GAS  C:\Users\strap\AppData\Local\Temp\ccCgIabb.s 			page 137


 6350 0fbd 0D000000 		.4byte	.LVL229-1
 6351 0fc1 4C000000 		.4byte	.LVL244
 6352 0fc5 0100     		.2byte	0x1
 6353 0fc7 57       		.byte	0x57
 6354 0fc8 4C000000 		.4byte	.LVL244
 6355 0fcc 50000000 		.4byte	.LFE10
 6356 0fd0 0400     		.2byte	0x4
 6357 0fd2 F3       		.byte	0xf3
 6358 0fd3 01       		.uleb128 0x1
 6359 0fd4 50       		.byte	0x50
 6360 0fd5 9F       		.byte	0x9f
 6361 0fd6 00000000 		.4byte	0
 6362 0fda 00000000 		.4byte	0
 6363              	.LLST72:
 6364 0fde 00000000 		.4byte	.LVL228
 6365 0fe2 0D000000 		.4byte	.LVL229-1
 6366 0fe6 0100     		.2byte	0x1
 6367 0fe8 51       		.byte	0x51
 6368 0fe9 0D000000 		.4byte	.LVL229-1
 6369 0fed 26000000 		.4byte	.LVL235
 6370 0ff1 0100     		.2byte	0x1
 6371 0ff3 58       		.byte	0x58
 6372 0ff4 26000000 		.4byte	.LVL235
 6373 0ff8 38000000 		.4byte	.LVL238
 6374 0ffc 0100     		.2byte	0x1
 6375 0ffe 50       		.byte	0x50
 6376 0fff 00000000 		.4byte	0
 6377 1003 00000000 		.4byte	0
 6378              	.LLST73:
 6379 1007 00000000 		.4byte	.LVL228
 6380 100b 0D000000 		.4byte	.LVL229-1
 6381 100f 0100     		.2byte	0x1
 6382 1011 52       		.byte	0x52
 6383 1012 0D000000 		.4byte	.LVL229-1
 6384 1016 3A000000 		.4byte	.LVL239
 6385 101a 0100     		.2byte	0x1
 6386 101c 56       		.byte	0x56
 6387 101d 3A000000 		.4byte	.LVL239
 6388 1021 50000000 		.4byte	.LFE10
 6389 1025 0400     		.2byte	0x4
 6390 1027 F3       		.byte	0xf3
 6391 1028 01       		.uleb128 0x1
 6392 1029 52       		.byte	0x52
 6393 102a 9F       		.byte	0x9f
 6394 102b 00000000 		.4byte	0
 6395 102f 00000000 		.4byte	0
 6396              	.LLST74:
 6397 1033 10000000 		.4byte	.LVL230
 6398 1037 12000000 		.4byte	.LVL231
 6399 103b 0100     		.2byte	0x1
 6400 103d 50       		.byte	0x50
 6401 103e 12000000 		.4byte	.LVL231
 6402 1042 1C000000 		.4byte	.LVL233
 6403 1046 0100     		.2byte	0x1
 6404 1048 55       		.byte	0x55
 6405 1049 00000000 		.4byte	0
 6406 104d 00000000 		.4byte	0
ARM GAS  C:\Users\strap\AppData\Local\Temp\ccCgIabb.s 			page 138


 6407              	.LLST75:
 6408 1051 16000000 		.4byte	.LVL232
 6409 1055 24000000 		.4byte	.LVL234
 6410 1059 0100     		.2byte	0x1
 6411 105b 50       		.byte	0x50
 6412 105c 24000000 		.4byte	.LVL234
 6413 1060 3A000000 		.4byte	.LVL239
 6414 1064 0100     		.2byte	0x1
 6415 1066 54       		.byte	0x54
 6416 1067 00000000 		.4byte	0
 6417 106b 00000000 		.4byte	0
 6418              	.LLST76:
 6419 106f 1C000000 		.4byte	.LVL233
 6420 1073 28000000 		.4byte	.LVL236
 6421 1077 0100     		.2byte	0x1
 6422 1079 55       		.byte	0x55
 6423 107a 00000000 		.4byte	0
 6424 107e 00000000 		.4byte	0
 6425              	.LLST77:
 6426 1082 26000000 		.4byte	.LVL235
 6427 1086 48000000 		.4byte	.LVL243
 6428 108a 0100     		.2byte	0x1
 6429 108c 55       		.byte	0x55
 6430 108d 00000000 		.4byte	0
 6431 1091 00000000 		.4byte	0
 6432              	.LLST78:
 6433 1095 38000000 		.4byte	.LVL238
 6434 1099 48000000 		.4byte	.LVL243
 6435 109d 0100     		.2byte	0x1
 6436 109f 54       		.byte	0x54
 6437 10a0 00000000 		.4byte	0
 6438 10a4 00000000 		.4byte	0
 6439              	.LLST79:
 6440 10a8 38000000 		.4byte	.LVL238
 6441 10ac 3A000000 		.4byte	.LVL239
 6442 10b0 0100     		.2byte	0x1
 6443 10b2 56       		.byte	0x56
 6444 10b3 3A000000 		.4byte	.LVL239
 6445 10b7 48000000 		.4byte	.LVL243
 6446 10bb 0400     		.2byte	0x4
 6447 10bd F3       		.byte	0xf3
 6448 10be 01       		.uleb128 0x1
 6449 10bf 52       		.byte	0x52
 6450 10c0 9F       		.byte	0x9f
 6451 10c1 00000000 		.4byte	0
 6452 10c5 00000000 		.4byte	0
 6453              	.LLST80:
 6454 10c9 38000000 		.4byte	.LVL238
 6455 10cd 3A000000 		.4byte	.LVL239
 6456 10d1 0100     		.2byte	0x1
 6457 10d3 50       		.byte	0x50
 6458 10d4 00000000 		.4byte	0
 6459 10d8 00000000 		.4byte	0
 6460              	.LLST81:
 6461 10dc 38000000 		.4byte	.LVL238
 6462 10e0 48000000 		.4byte	.LVL243
 6463 10e4 0100     		.2byte	0x1
ARM GAS  C:\Users\strap\AppData\Local\Temp\ccCgIabb.s 			page 139


 6464 10e6 50       		.byte	0x50
 6465 10e7 00000000 		.4byte	0
 6466 10eb 00000000 		.4byte	0
 6467              	.LLST82:
 6468 10ef 38000000 		.4byte	.LVL238
 6469 10f3 3E000000 		.4byte	.LVL240
 6470 10f7 0100     		.2byte	0x1
 6471 10f9 56       		.byte	0x56
 6472 10fa 3E000000 		.4byte	.LVL240
 6473 10fe 42000000 		.4byte	.LVL241
 6474 1102 0300     		.2byte	0x3
 6475 1104 76       		.byte	0x76
 6476 1105 7F       		.sleb128 -1
 6477 1106 9F       		.byte	0x9f
 6478 1107 42000000 		.4byte	.LVL241
 6479 110b 48000000 		.4byte	.LVL243
 6480 110f 0100     		.2byte	0x1
 6481 1111 56       		.byte	0x56
 6482 1112 00000000 		.4byte	0
 6483 1116 00000000 		.4byte	0
 6484              	.LLST83:
 6485 111a 00000000 		.4byte	.LVL245
 6486 111e 0D000000 		.4byte	.LVL246-1
 6487 1122 0100     		.2byte	0x1
 6488 1124 50       		.byte	0x50
 6489 1125 0D000000 		.4byte	.LVL246-1
 6490 1129 38000000 		.4byte	.LVL255
 6491 112d 0100     		.2byte	0x1
 6492 112f 55       		.byte	0x55
 6493 1130 38000000 		.4byte	.LVL255
 6494 1134 3C000000 		.4byte	.LFE11
 6495 1138 0400     		.2byte	0x4
 6496 113a F3       		.byte	0xf3
 6497 113b 01       		.uleb128 0x1
 6498 113c 50       		.byte	0x50
 6499 113d 9F       		.byte	0x9f
 6500 113e 00000000 		.4byte	0
 6501 1142 00000000 		.4byte	0
 6502              	.LLST84:
 6503 1146 00000000 		.4byte	.LVL245
 6504 114a 0D000000 		.4byte	.LVL246-1
 6505 114e 0100     		.2byte	0x1
 6506 1150 51       		.byte	0x51
 6507 1151 0D000000 		.4byte	.LVL246-1
 6508 1155 1C000000 		.4byte	.LVL250
 6509 1159 0100     		.2byte	0x1
 6510 115b 54       		.byte	0x54
 6511 115c 1C000000 		.4byte	.LVL250
 6512 1160 22000000 		.4byte	.LVL251
 6513 1164 0100     		.2byte	0x1
 6514 1166 50       		.byte	0x50
 6515 1167 22000000 		.4byte	.LVL251
 6516 116b 26000000 		.4byte	.LVL253
 6517 116f 0100     		.2byte	0x1
 6518 1171 54       		.byte	0x54
 6519 1172 00000000 		.4byte	0
 6520 1176 00000000 		.4byte	0
ARM GAS  C:\Users\strap\AppData\Local\Temp\ccCgIabb.s 			page 140


 6521              	.LLST85:
 6522 117a 00000000 		.4byte	.LVL245
 6523 117e 0D000000 		.4byte	.LVL246-1
 6524 1182 0100     		.2byte	0x1
 6525 1184 52       		.byte	0x52
 6526 1185 0D000000 		.4byte	.LVL246-1
 6527 1189 24000000 		.4byte	.LVL252
 6528 118d 0100     		.2byte	0x1
 6529 118f 58       		.byte	0x58
 6530 1190 24000000 		.4byte	.LVL252
 6531 1194 3C000000 		.4byte	.LFE11
 6532 1198 0100     		.2byte	0x1
 6533 119a 50       		.byte	0x50
 6534 119b 00000000 		.4byte	0
 6535 119f 00000000 		.4byte	0
 6536              	.LLST86:
 6537 11a3 10000000 		.4byte	.LVL247
 6538 11a7 18000000 		.4byte	.LVL248
 6539 11ab 0100     		.2byte	0x1
 6540 11ad 50       		.byte	0x50
 6541 11ae 18000000 		.4byte	.LVL248
 6542 11b2 38000000 		.4byte	.LVL255
 6543 11b6 0100     		.2byte	0x1
 6544 11b8 56       		.byte	0x56
 6545 11b9 00000000 		.4byte	0
 6546 11bd 00000000 		.4byte	0
 6547              	.LLST87:
 6548 11c1 24000000 		.4byte	.LVL252
 6549 11c5 38000000 		.4byte	.LVL255
 6550 11c9 0100     		.2byte	0x1
 6551 11cb 54       		.byte	0x54
 6552 11cc 00000000 		.4byte	0
 6553 11d0 00000000 		.4byte	0
 6554              		.section	.debug_aranges,"",%progbits
 6555 0000 8C000000 		.4byte	0x8c
 6556 0004 0200     		.2byte	0x2
 6557 0006 00000000 		.4byte	.Ldebug_info0
 6558 000a 04       		.byte	0x4
 6559 000b 00       		.byte	0
 6560 000c 0000     		.2byte	0
 6561 000e 0000     		.2byte	0
 6562 0010 00000000 		.4byte	.LFB12
 6563 0014 34000000 		.4byte	.LFE12-.LFB12
 6564 0018 00000000 		.4byte	.LFB13
 6565 001c 9E000000 		.4byte	.LFE13-.LFB13
 6566 0020 00000000 		.4byte	.LFB14
 6567 0024 5A000000 		.4byte	.LFE14-.LFB14
 6568 0028 00000000 		.4byte	.LFB15
 6569 002c FC000000 		.4byte	.LFE15-.LFB15
 6570 0030 00000000 		.4byte	.LFB16
 6571 0034 50000000 		.4byte	.LFE16-.LFB16
 6572 0038 00000000 		.4byte	.LFB17
 6573 003c 2C000000 		.4byte	.LFE17-.LFB17
 6574 0040 00000000 		.4byte	.LFB18
 6575 0044 2C000000 		.4byte	.LFE18-.LFB18
 6576 0048 00000000 		.4byte	.LFB19
 6577 004c 2C000000 		.4byte	.LFE19-.LFB19
ARM GAS  C:\Users\strap\AppData\Local\Temp\ccCgIabb.s 			page 141


 6578 0050 00000000 		.4byte	.LFB9
 6579 0054 46000000 		.4byte	.LFE9-.LFB9
 6580 0058 00000000 		.4byte	.LFB6
 6581 005c 54010000 		.4byte	.LFE6-.LFB6
 6582 0060 00000000 		.4byte	.LFB7
 6583 0064 DC000000 		.4byte	.LFE7-.LFB7
 6584 0068 00000000 		.4byte	.LFB8
 6585 006c 9C000000 		.4byte	.LFE8-.LFB8
 6586 0070 00000000 		.4byte	.LFB5
 6587 0074 C8000000 		.4byte	.LFE5-.LFB5
 6588 0078 00000000 		.4byte	.LFB10
 6589 007c 50000000 		.4byte	.LFE10-.LFB10
 6590 0080 00000000 		.4byte	.LFB11
 6591 0084 3C000000 		.4byte	.LFE11-.LFB11
 6592 0088 00000000 		.4byte	0
 6593 008c 00000000 		.4byte	0
 6594              		.section	.debug_ranges,"",%progbits
 6595              	.Ldebug_ranges0:
 6596 0000 0C000000 		.4byte	.LBB12
 6597 0004 18000000 		.4byte	.LBE12
 6598 0008 1E000000 		.4byte	.LBB17
 6599 000c 54000000 		.4byte	.LBE17
 6600 0010 00000000 		.4byte	0
 6601 0014 00000000 		.4byte	0
 6602 0018 0C000000 		.4byte	.LBB13
 6603 001c 18000000 		.4byte	.LBE13
 6604 0020 1E000000 		.4byte	.LBB16
 6605 0024 22000000 		.4byte	.LBE16
 6606 0028 00000000 		.4byte	0
 6607 002c 00000000 		.4byte	0
 6608 0030 BC000000 		.4byte	.LBB19
 6609 0034 D2000000 		.4byte	.LBE19
 6610 0038 F6000000 		.4byte	.LBB22
 6611 003c FA000000 		.4byte	.LBE22
 6612 0040 00000000 		.4byte	0
 6613 0044 00000000 		.4byte	0
 6614 0048 22000000 		.4byte	.LBB23
 6615 004c 26000000 		.4byte	.LBE23
 6616 0050 28000000 		.4byte	.LBB24
 6617 0054 3E000000 		.4byte	.LBE24
 6618 0058 00000000 		.4byte	0
 6619 005c 00000000 		.4byte	0
 6620 0060 00000000 		.4byte	.LFB12
 6621 0064 34000000 		.4byte	.LFE12
 6622 0068 00000000 		.4byte	.LFB13
 6623 006c 9E000000 		.4byte	.LFE13
 6624 0070 00000000 		.4byte	.LFB14
 6625 0074 5A000000 		.4byte	.LFE14
 6626 0078 00000000 		.4byte	.LFB15
 6627 007c FC000000 		.4byte	.LFE15
 6628 0080 00000000 		.4byte	.LFB16
 6629 0084 50000000 		.4byte	.LFE16
 6630 0088 00000000 		.4byte	.LFB17
 6631 008c 2C000000 		.4byte	.LFE17
 6632 0090 00000000 		.4byte	.LFB18
 6633 0094 2C000000 		.4byte	.LFE18
 6634 0098 00000000 		.4byte	.LFB19
ARM GAS  C:\Users\strap\AppData\Local\Temp\ccCgIabb.s 			page 142


 6635 009c 2C000000 		.4byte	.LFE19
 6636 00a0 00000000 		.4byte	.LFB9
 6637 00a4 46000000 		.4byte	.LFE9
 6638 00a8 00000000 		.4byte	.LFB6
 6639 00ac 54010000 		.4byte	.LFE6
 6640 00b0 00000000 		.4byte	.LFB7
 6641 00b4 DC000000 		.4byte	.LFE7
 6642 00b8 00000000 		.4byte	.LFB8
 6643 00bc 9C000000 		.4byte	.LFE8
 6644 00c0 00000000 		.4byte	.LFB5
 6645 00c4 C8000000 		.4byte	.LFE5
 6646 00c8 00000000 		.4byte	.LFB10
 6647 00cc 50000000 		.4byte	.LFE10
 6648 00d0 00000000 		.4byte	.LFB11
 6649 00d4 3C000000 		.4byte	.LFE11
 6650 00d8 00000000 		.4byte	0
 6651 00dc 00000000 		.4byte	0
 6652              		.section	.debug_line,"",%progbits
 6653              	.Ldebug_line0:
 6654 0000 C2050000 		.section	.debug_str,"MS",%progbits,1
 6654      02009802 
 6654      00000201 
 6654      FB0E0D00 
 6654      01010101 
 6655              	.LASF86:
 6656 0000 695F6E65 		.ascii	"i_next_next\000"
 6656      78745F6E 
 6656      65787400 
 6657              	.LASF112:
 6658 000c 6F6C645F 		.ascii	"old_len\000"
 6658      6C656E00 
 6659              	.LASF106:
 6660 0014 6C657474 		.ascii	"letter_height\000"
 6660      65725F68 
 6660      65696768 
 6660      7400
 6661              	.LASF125:
 6662 0022 7374726C 		.ascii	"strlen\000"
 6662      656E00
 6663              	.LASF69:
 6664 0029 6C765F74 		.ascii	"lv_txt_utf8_get_byte_id\000"
 6664      78745F75 
 6664      7466385F 
 6664      6765745F 
 6664      62797465 
 6665              	.LASF115:
 6666 0041 5F6C765F 		.ascii	"_lv_txt_cut\000"
 6666      7478745F 
 6666      63757400 
 6667              	.LASF13:
 6668 004d 756E7369 		.ascii	"unsigned int\000"
 6668      676E6564 
 6668      20696E74 
 6668      00
 6669              	.LASF29:
 6670 005a 6F66735F 		.ascii	"ofs_x\000"
 6670      7800
ARM GAS  C:\Users\strap\AppData\Local\Temp\ccCgIabb.s 			page 143


 6671              	.LASF30:
 6672 0060 6F66735F 		.ascii	"ofs_y\000"
 6672      7900
 6673              	.LASF32:
 6674 0066 6765745F 		.ascii	"get_glyph_dsc\000"
 6674      676C7970 
 6674      685F6473 
 6674      6300
 6675              	.LASF25:
 6676 0074 6C765F70 		.ascii	"lv_point_t\000"
 6676      6F696E74 
 6676      5F7400
 6677              	.LASF90:
 6678 007f 776F7264 		.ascii	"word_len\000"
 6678      5F6C656E 
 6678      00
 6679              	.LASF88:
 6680 0088 6C657474 		.ascii	"letter_w\000"
 6680      65725F77 
 6680      00
 6681              	.LASF37:
 6682 0091 756E6465 		.ascii	"underline_thickness\000"
 6682      726C696E 
 6682      655F7468 
 6682      69636B6E 
 6682      65737300 
 6683              	.LASF42:
 6684 00a5 4C565F54 		.ascii	"LV_TXT_FLAG_RECOLOR\000"
 6684      58545F46 
 6684      4C41475F 
 6684      5245434F 
 6684      4C4F5200 
 6685              	.LASF101:
 6686 00b9 73697A65 		.ascii	"size_res\000"
 6686      5F726573 
 6686      00
 6687              	.LASF46:
 6688 00c2 4C565F54 		.ascii	"LV_TXT_FLAG_FIT\000"
 6688      58545F46 
 6688      4C41475F 
 6688      46495400 
 6689              	.LASF87:
 6690 00d2 6C657474 		.ascii	"letter_next\000"
 6690      65725F6E 
 6690      65787400 
 6691              	.LASF44:
 6692 00de 4C565F54 		.ascii	"LV_TXT_FLAG_CENTER\000"
 6692      58545F46 
 6692      4C41475F 
 6692      43454E54 
 6692      455200
 6693              	.LASF18:
 6694 00f1 75696E74 		.ascii	"uint32_t\000"
 6694      33325F74 
 6694      00
 6695              	.LASF14:
 6696 00fa 696E7438 		.ascii	"int8_t\000"
ARM GAS  C:\Users\strap\AppData\Local\Temp\ccCgIabb.s 			page 144


 6696      5F7400
 6697              	.LASF122:
 6698 0101 5F6C765F 		.ascii	"_lv_txt_encoded_get_char_id\000"
 6698      7478745F 
 6698      656E636F 
 6698      6465645F 
 6698      6765745F 
 6699              	.LASF96:
 6700 011d 61647661 		.ascii	"advance\000"
 6700      6E636500 
 6701              	.LASF36:
 6702 0125 756E6465 		.ascii	"underline_position\000"
 6702      726C696E 
 6702      655F706F 
 6702      73697469 
 6702      6F6E00
 6703              	.LASF110:
 6704 0138 7478745F 		.ascii	"txt_buf\000"
 6704      62756600 
 6705              	.LASF16:
 6706 0140 696E7431 		.ascii	"int16_t\000"
 6706      365F7400 
 6707              	.LASF65:
 6708 0148 72657375 		.ascii	"result\000"
 6708      6C7400
 6709              	.LASF57:
 6710 014f 6C765F74 		.ascii	"lv_txt_utf8_size\000"
 6710      78745F75 
 6710      7466385F 
 6710      73697A65 
 6710      00
 6711              	.LASF77:
 6712 0160 6C765F74 		.ascii	"lv_txt_get_next_word\000"
 6712      78745F67 
 6712      65745F6E 
 6712      6578745F 
 6712      776F7264 
 6713              	.LASF12:
 6714 0175 6C6F6E67 		.ascii	"long long unsigned int\000"
 6714      206C6F6E 
 6714      6720756E 
 6714      7369676E 
 6714      65642069 
 6715              	.LASF62:
 6716 018c 6C765F74 		.ascii	"lv_txt_utf8_conv_wc\000"
 6716      78745F75 
 6716      7466385F 
 6716      636F6E76 
 6716      5F776300 
 6717              	.LASF52:
 6718 01a0 5F6C765F 		.ascii	"_lv_memcpy_small\000"
 6718      6D656D63 
 6718      70795F73 
 6718      6D616C6C 
 6718      00
 6719              	.LASF83:
 6720 01b1 636D645F 		.ascii	"cmd_state\000"
ARM GAS  C:\Users\strap\AppData\Local\Temp\ccCgIabb.s 			page 145


 6720      73746174 
 6720      6500
 6721              	.LASF6:
 6722 01bb 5F5F7569 		.ascii	"__uint16_t\000"
 6722      6E743136 
 6722      5F7400
 6723              	.LASF45:
 6724 01c6 4C565F54 		.ascii	"LV_TXT_FLAG_RIGHT\000"
 6724      58545F46 
 6724      4C41475F 
 6724      52494748 
 6724      5400
 6725              	.LASF126:
 6726 01d8 474E5520 		.ascii	"GNU C11 5.4.1 20160609 (release) [ARM/embedded-5-br"
 6726      43313120 
 6726      352E342E 
 6726      31203230 
 6726      31363036 
 6727 020b 616E6368 		.ascii	"anch revision 237715] -mcpu=cortex-m3 -mthumb -g -O"
 6727      20726576 
 6727      6973696F 
 6727      6E203233 
 6727      37373135 
 6728 023e 67202D66 		.ascii	"g -ffunction-sections -ffat-lto-objects\000"
 6728      66756E63 
 6728      74696F6E 
 6728      2D736563 
 6728      74696F6E 
 6729              	.LASF21:
 6730 0266 73697A65 		.ascii	"size_t\000"
 6730      5F7400
 6731              	.LASF99:
 6732 026d 77696474 		.ascii	"width\000"
 6732      6800
 6733              	.LASF53:
 6734 0273 69735F62 		.ascii	"is_break_char\000"
 6734      7265616B 
 6734      5F636861 
 6734      7200
 6735              	.LASF54:
 6736 0281 6C657474 		.ascii	"letter\000"
 6736      657200
 6737              	.LASF39:
 6738 0288 5F426F6F 		.ascii	"_Bool\000"
 6738      6C00
 6739              	.LASF61:
 6740 028e 7265735F 		.ascii	"res_p\000"
 6740      7000
 6741              	.LASF70:
 6742 0294 75746638 		.ascii	"utf8_id\000"
 6742      5F696400 
 6743              	.LASF50:
 6744 029c 4C565F54 		.ascii	"LV_TXT_CMD_STATE_IN\000"
 6744      58545F43 
 6744      4D445F53 
 6744      54415445 
 6744      5F494E00 
ARM GAS  C:\Users\strap\AppData\Local\Temp\ccCgIabb.s 			page 146


 6745              	.LASF111:
 6746 02b0 696E735F 		.ascii	"ins_txt\000"
 6746      74787400 
 6747              	.LASF129:
 6748 02b8 5F6C765F 		.ascii	"_lv_font_struct\000"
 6748      666F6E74 
 6748      5F737472 
 6748      75637400 
 6749              	.LASF116:
 6750 02c8 5F6C765F 		.ascii	"_lv_txt_encoded_size\000"
 6750      7478745F 
 6750      656E636F 
 6750      6465645F 
 6750      73697A65 
 6751              	.LASF97:
 6752 02dd 5F6C765F 		.ascii	"_lv_txt_get_width\000"
 6752      7478745F 
 6752      6765745F 
 6752      77696474 
 6752      6800
 6753              	.LASF103:
 6754 02ef 6C696E65 		.ascii	"line_space\000"
 6754      5F737061 
 6754      636500
 6755              	.LASF51:
 6756 02fa 6C765F74 		.ascii	"lv_txt_cmd_state_t\000"
 6756      78745F63 
 6756      6D645F73 
 6756      74617465 
 6756      5F7400
 6757              	.LASF56:
 6758 030d 666F6E74 		.ascii	"font_p\000"
 6758      5F7000
 6759              	.LASF34:
 6760 0314 6C696E65 		.ascii	"line_height\000"
 6760      5F686569 
 6760      67687400 
 6761              	.LASF82:
 6762 0320 776F7264 		.ascii	"word_w_ptr\000"
 6762      5F775F70 
 6762      747200
 6763              	.LASF24:
 6764 032b 63686172 		.ascii	"char\000"
 6764      00
 6765              	.LASF72:
 6766 0330 6C765F74 		.ascii	"lv_txt_utf8_get_char_id\000"
 6766      78745F75 
 6766      7466385F 
 6766      6765745F 
 6766      63686172 
 6767              	.LASF68:
 6768 0348 635F7369 		.ascii	"c_size\000"
 6768      7A6500
 6769              	.LASF102:
 6770 034f 74657874 		.ascii	"text\000"
 6770      00
 6771              	.LASF66:
ARM GAS  C:\Users\strap\AppData\Local\Temp\ccCgIabb.s 			page 147


 6772 0354 695F746D 		.ascii	"i_tmp\000"
 6772      7000
 6773              	.LASF31:
 6774 035a 6C765F66 		.ascii	"lv_font_glyph_dsc_t\000"
 6774      6F6E745F 
 6774      676C7970 
 6774      685F6473 
 6774      635F7400 
 6775              	.LASF15:
 6776 036e 75696E74 		.ascii	"uint8_t\000"
 6776      385F7400 
 6777              	.LASF85:
 6778 0376 695F6E65 		.ascii	"i_next\000"
 6778      787400
 6779              	.LASF123:
 6780 037d 5F6C765F 		.ascii	"_lv_txt_get_encoded_length\000"
 6780      7478745F 
 6780      6765745F 
 6780      656E636F 
 6780      6465645F 
 6781              	.LASF80:
 6782 0398 6D61785F 		.ascii	"max_width\000"
 6782      77696474 
 6782      6800
 6783              	.LASF75:
 6784 03a2 6C765F74 		.ascii	"lv_txt_utf8_get_length\000"
 6784      78745F75 
 6784      7466385F 
 6784      6765745F 
 6784      6C656E67 
 6785              	.LASF38:
 6786 03b9 75736572 		.ascii	"user_data\000"
 6786      5F646174 
 6786      6100
 6787              	.LASF20:
 6788 03c3 6C765F66 		.ascii	"lv_font_user_data_t\000"
 6788      6F6E745F 
 6788      75736572 
 6788      5F646174 
 6788      615F7400 
 6789              	.LASF11:
 6790 03d7 6C6F6E67 		.ascii	"long long int\000"
 6790      206C6F6E 
 6790      6720696E 
 6790      7400
 6791              	.LASF91:
 6792 03e5 62726561 		.ascii	"break_index\000"
 6792      6B5F696E 
 6792      64657800 
 6793              	.LASF89:
 6794 03f1 6375725F 		.ascii	"cur_w\000"
 6794      7700
 6795              	.LASF49:
 6796 03f7 4C565F54 		.ascii	"LV_TXT_CMD_STATE_PAR\000"
 6796      58545F43 
 6796      4D445F53 
 6796      54415445 
ARM GAS  C:\Users\strap\AppData\Local\Temp\ccCgIabb.s 			page 148


 6796      5F504152 
 6797              	.LASF4:
 6798 040c 5F5F696E 		.ascii	"__int16_t\000"
 6798      7431365F 
 6798      7400
 6799              	.LASF118:
 6800 0416 5F6C765F 		.ascii	"_lv_txt_encoded_conv_wc\000"
 6800      7478745F 
 6800      656E636F 
 6800      6465645F 
 6800      636F6E76 
 6801              	.LASF55:
 6802 042e 6C765F66 		.ascii	"lv_font_get_line_height\000"
 6802      6F6E745F 
 6802      6765745F 
 6802      6C696E65 
 6802      5F686569 
 6803              	.LASF59:
 6804 0446 6C657474 		.ascii	"letter_uni\000"
 6804      65725F75 
 6804      6E6900
 6805              	.LASF124:
 6806 0451 6C765F66 		.ascii	"lv_font_get_glyph_width\000"
 6806      6F6E745F 
 6806      6765745F 
 6806      676C7970 
 6806      685F7769 
 6807              	.LASF130:
 6808 0469 73756270 		.ascii	"subpx\000"
 6808      7800
 6809              	.LASF0:
 6810 046f 5F5F696E 		.ascii	"__int8_t\000"
 6810      74385F74 
 6810      00
 6811              	.LASF94:
 6812 0478 5F6C765F 		.ascii	"_lv_txt_get_next_line\000"
 6812      7478745F 
 6812      6765745F 
 6812      6E657874 
 6812      5F6C696E 
 6813              	.LASF22:
 6814 048e 6C6F6E67 		.ascii	"long double\000"
 6814      20646F75 
 6814      626C6500 
 6815              	.LASF17:
 6816 049a 75696E74 		.ascii	"uint16_t\000"
 6816      31365F74 
 6816      00
 6817              	.LASF84:
 6818 04a3 666F7263 		.ascii	"force\000"
 6818      6500
 6819              	.LASF100:
 6820 04a9 63686172 		.ascii	"char_width\000"
 6820      5F776964 
 6820      746800
 6821              	.LASF63:
 6822 04b4 73776170 		.ascii	"swapped\000"
ARM GAS  C:\Users\strap\AppData\Local\Temp\ccCgIabb.s 			page 149


 6822      70656400 
 6823              	.LASF40:
 6824 04bc 6C765F66 		.ascii	"lv_font_t\000"
 6824      6F6E745F 
 6824      7400
 6825              	.LASF79:
 6826 04c6 6C657474 		.ascii	"letter_space\000"
 6826      65725F73 
 6826      70616365 
 6826      00
 6827              	.LASF95:
 6828 04d3 776F7264 		.ascii	"word_w\000"
 6828      5F7700
 6829              	.LASF5:
 6830 04da 73686F72 		.ascii	"short int\000"
 6830      7420696E 
 6830      7400
 6831              	.LASF104:
 6832 04e4 6C696E65 		.ascii	"line_start\000"
 6832      5F737461 
 6832      727400
 6833              	.LASF8:
 6834 04ef 6C6F6E67 		.ascii	"long int\000"
 6834      20696E74 
 6834      00
 6835              	.LASF60:
 6836 04f8 62797465 		.ascii	"bytes\000"
 6836      7300
 6837              	.LASF98:
 6838 04fe 6C656E67 		.ascii	"length\000"
 6838      746800
 6839              	.LASF81:
 6840 0505 666C6167 		.ascii	"flag\000"
 6840      00
 6841              	.LASF19:
 6842 050a 6C765F63 		.ascii	"lv_coord_t\000"
 6842      6F6F7264 
 6842      5F7400
 6843              	.LASF1:
 6844 0515 5F5F7569 		.ascii	"__uint8_t\000"
 6844      6E74385F 
 6844      7400
 6845              	.LASF108:
 6846 051f 5F6C765F 		.ascii	"_lv_txt_get_size\000"
 6846      7478745F 
 6846      6765745F 
 6846      73697A65 
 6846      00
 6847              	.LASF28:
 6848 0530 626F785F 		.ascii	"box_h\000"
 6848      6800
 6849              	.LASF119:
 6850 0536 5F6C765F 		.ascii	"_lv_txt_encoded_next\000"
 6850      7478745F 
 6850      656E636F 
 6850      6465645F 
 6850      6E657874 
ARM GAS  C:\Users\strap\AppData\Local\Temp\ccCgIabb.s 			page 150


 6851              	.LASF107:
 6852 054b 6163745F 		.ascii	"act_line_length\000"
 6852      6C696E65 
 6852      5F6C656E 
 6852      67746800 
 6853              	.LASF78:
 6854 055b 666F6E74 		.ascii	"font\000"
 6854      00
 6855              	.LASF23:
 6856 0560 73697A65 		.ascii	"sizetype\000"
 6856      74797065 
 6856      00
 6857              	.LASF10:
 6858 0569 6C6F6E67 		.ascii	"long unsigned int\000"
 6858      20756E73 
 6858      69676E65 
 6858      6420696E 
 6858      7400
 6859              	.LASF48:
 6860 057b 4C565F54 		.ascii	"LV_TXT_CMD_STATE_WAIT\000"
 6860      58545F43 
 6860      4D445F53 
 6860      54415445 
 6860      5F574149 
 6861              	.LASF27:
 6862 0591 626F785F 		.ascii	"box_w\000"
 6862      7700
 6863              	.LASF93:
 6864 0597 5F6C765F 		.ascii	"_lv_txt_is_cmd\000"
 6864      7478745F 
 6864      69735F63 
 6864      6D6400
 6865              	.LASF35:
 6866 05a6 62617365 		.ascii	"base_line\000"
 6866      5F6C696E 
 6866      6500
 6867              	.LASF92:
 6868 05b0 62726561 		.ascii	"break_letter_count\000"
 6868      6B5F6C65 
 6868      74746572 
 6868      5F636F75 
 6868      6E7400
 6869              	.LASF58:
 6870 05c3 6C765F74 		.ascii	"lv_txt_unicode_to_utf8\000"
 6870      78745F75 
 6870      6E69636F 
 6870      64655F74 
 6870      6F5F7574 
 6871              	.LASF114:
 6872 05da 6E65775F 		.ascii	"new_len\000"
 6872      6C656E00 
 6873              	.LASF74:
 6874 05e2 63686172 		.ascii	"char_cnt\000"
 6874      5F636E74 
 6874      00
 6875              	.LASF64:
 6876 05eb 6C765F74 		.ascii	"lv_txt_utf8_next\000"
ARM GAS  C:\Users\strap\AppData\Local\Temp\ccCgIabb.s 			page 151


 6876      78745F75 
 6876      7466385F 
 6876      6E657874 
 6876      00
 6877              	.LASF3:
 6878 05fc 756E7369 		.ascii	"unsigned char\000"
 6878      676E6564 
 6878      20636861 
 6878      7200
 6879              	.LASF9:
 6880 060a 5F5F7569 		.ascii	"__uint32_t\000"
 6880      6E743332 
 6880      5F7400
 6881              	.LASF120:
 6882 0615 5F6C765F 		.ascii	"_lv_txt_encoded_prev\000"
 6882      7478745F 
 6882      656E636F 
 6882      6465645F 
 6882      70726576 
 6883              	.LASF121:
 6884 062a 5F6C765F 		.ascii	"_lv_txt_encoded_get_byte_id\000"
 6884      7478745F 
 6884      656E636F 
 6884      6465645F 
 6884      6765745F 
 6885              	.LASF33:
 6886 0646 6765745F 		.ascii	"get_glyph_bitmap\000"
 6886      676C7970 
 6886      685F6269 
 6886      746D6170 
 6886      00
 6887              	.LASF127:
 6888 0657 6C76676C 		.ascii	"lvgl\\src\\lv_misc\\lv_txt.c\000"
 6888      5C737263 
 6888      5C6C765F 
 6888      6D697363 
 6888      5C6C765F 
 6889              	.LASF76:
 6890 0671 73746174 		.ascii	"state\000"
 6890      6500
 6891              	.LASF67:
 6892 0677 6C765F74 		.ascii	"lv_txt_utf8_prev\000"
 6892      78745F75 
 6892      7466385F 
 6892      70726576 
 6892      00
 6893              	.LASF73:
 6894 0688 62797465 		.ascii	"byte_id\000"
 6894      5F696400 
 6895              	.LASF2:
 6896 0690 7369676E 		.ascii	"signed char\000"
 6896      65642063 
 6896      68617200 
 6897              	.LASF47:
 6898 069c 6C765F74 		.ascii	"lv_txt_flag_t\000"
 6898      78745F66 
 6898      6C61675F 
ARM GAS  C:\Users\strap\AppData\Local\Temp\ccCgIabb.s 			page 152


 6898      7400
 6899              	.LASF7:
 6900 06aa 73686F72 		.ascii	"short unsigned int\000"
 6900      7420756E 
 6900      7369676E 
 6900      65642069 
 6900      6E7400
 6901              	.LASF117:
 6902 06bd 5F6C765F 		.ascii	"_lv_txt_unicode_to_encoded\000"
 6902      7478745F 
 6902      756E6963 
 6902      6F64655F 
 6902      746F5F65 
 6903              	.LASF113:
 6904 06d8 696E735F 		.ascii	"ins_len\000"
 6904      6C656E00 
 6905              	.LASF41:
 6906 06e0 4C565F54 		.ascii	"LV_TXT_FLAG_NONE\000"
 6906      58545F46 
 6906      4C41475F 
 6906      4E4F4E45 
 6906      00
 6907              	.LASF43:
 6908 06f1 4C565F54 		.ascii	"LV_TXT_FLAG_EXPAND\000"
 6908      58545F46 
 6908      4C41475F 
 6908      45585041 
 6908      4E4400
 6909              	.LASF71:
 6910 0704 62797465 		.ascii	"byte_cnt\000"
 6910      5F636E74 
 6910      00
 6911              	.LASF128:
 6912 070d 433A5C55 		.ascii	"C:\\Users\\strap\\Documents\\Creator\\test_lvgl\\il"
 6912      73657273 
 6912      5C737472 
 6912      61705C44 
 6912      6F63756D 
 6913 073a 69393334 		.ascii	"i9341_master.cydsn\000"
 6913      315F6D61 
 6913      73746572 
 6913      2E637964 
 6913      736E00
 6914              	.LASF109:
 6915 074d 5F6C765F 		.ascii	"_lv_txt_ins\000"
 6915      7478745F 
 6915      696E7300 
 6916              	.LASF26:
 6917 0759 6164765F 		.ascii	"adv_w\000"
 6917      7700
 6918              	.LASF105:
 6919 075f 6E65775F 		.ascii	"new_line_start\000"
 6919      6C696E65 
 6919      5F737461 
 6919      727400
 6920              		.ident	"GCC: (GNU Tools for ARM Embedded Processors) 5.4.1 20160609 (release) [ARM/embedded-5-bran
