ARM GAS  C:\Users\strap\AppData\Local\Temp\ccTzHSZB.s 			page 1


   1              		.syntax unified
   2              		.cpu cortex-m3
   3              		.fpu softvfp
   4              		.eabi_attribute 20, 1
   5              		.eabi_attribute 21, 1
   6              		.eabi_attribute 23, 3
   7              		.eabi_attribute 24, 1
   8              		.eabi_attribute 25, 1
   9              		.eabi_attribute 26, 1
  10              		.eabi_attribute 30, 1
  11              		.eabi_attribute 34, 1
  12              		.eabi_attribute 18, 4
  13              		.thumb
  14              		.syntax unified
  15              		.file	"lv_tabview.c"
  16              		.text
  17              	.Ltext0:
  18              		.cfi_sections	.debug_frame
  19              		.section	.text.lv_tabview_get_style,"ax",%progbits
  20              		.align	2
  21              		.thumb
  22              		.thumb_func
  23              		.type	lv_tabview_get_style, %function
  24              	lv_tabview_get_style:
  25              	.LFB371:
  26              		.file 1 "lvgl\\src\\lv_widgets\\lv_tabview.c"
   1:lvgl\src\lv_widgets/lv_tabview.c **** /**
   2:lvgl\src\lv_widgets/lv_tabview.c ****  * @file lv_tab.c
   3:lvgl\src\lv_widgets/lv_tabview.c ****  *
   4:lvgl\src\lv_widgets/lv_tabview.c ****  */
   5:lvgl\src\lv_widgets/lv_tabview.c **** 
   6:lvgl\src\lv_widgets/lv_tabview.c **** /*********************
   7:lvgl\src\lv_widgets/lv_tabview.c ****  *      INCLUDES
   8:lvgl\src\lv_widgets/lv_tabview.c ****  *********************/
   9:lvgl\src\lv_widgets/lv_tabview.c **** #include "lv_tabview.h"
  10:lvgl\src\lv_widgets/lv_tabview.c **** #if LV_USE_TABVIEW != 0
  11:lvgl\src\lv_widgets/lv_tabview.c **** 
  12:lvgl\src\lv_widgets/lv_tabview.c **** #include "lv_btnmatrix.h"
  13:lvgl\src\lv_widgets/lv_tabview.c **** #include "../lv_misc/lv_debug.h"
  14:lvgl\src\lv_widgets/lv_tabview.c **** #include "../lv_themes/lv_theme.h"
  15:lvgl\src\lv_widgets/lv_tabview.c **** #include "../lv_misc/lv_anim.h"
  16:lvgl\src\lv_widgets/lv_tabview.c **** #include "../lv_core/lv_disp.h"
  17:lvgl\src\lv_widgets/lv_tabview.c **** 
  18:lvgl\src\lv_widgets/lv_tabview.c **** /*********************
  19:lvgl\src\lv_widgets/lv_tabview.c ****  *      DEFINES
  20:lvgl\src\lv_widgets/lv_tabview.c ****  *********************/
  21:lvgl\src\lv_widgets/lv_tabview.c **** #define LV_OBJX_NAME "lv_tabview"
  22:lvgl\src\lv_widgets/lv_tabview.c **** 
  23:lvgl\src\lv_widgets/lv_tabview.c **** #if LV_USE_ANIMATION
  24:lvgl\src\lv_widgets/lv_tabview.c ****     #ifndef LV_TABVIEW_DEF_ANIM_TIME
  25:lvgl\src\lv_widgets/lv_tabview.c ****         #define LV_TABVIEW_DEF_ANIM_TIME 300 /*Animation time of focusing to the a list element [ms
  26:lvgl\src\lv_widgets/lv_tabview.c ****     #endif
  27:lvgl\src\lv_widgets/lv_tabview.c **** #else
  28:lvgl\src\lv_widgets/lv_tabview.c ****     #undef LV_TABVIEW_DEF_ANIM_TIME
  29:lvgl\src\lv_widgets/lv_tabview.c ****     #define LV_TABVIEW_DEF_ANIM_TIME 0 /*No animations*/
  30:lvgl\src\lv_widgets/lv_tabview.c **** #endif
  31:lvgl\src\lv_widgets/lv_tabview.c **** 
ARM GAS  C:\Users\strap\AppData\Local\Temp\ccTzHSZB.s 			page 2


  32:lvgl\src\lv_widgets/lv_tabview.c **** /**********************
  33:lvgl\src\lv_widgets/lv_tabview.c ****  *      TYPEDEFS
  34:lvgl\src\lv_widgets/lv_tabview.c ****  **********************/
  35:lvgl\src\lv_widgets/lv_tabview.c **** 
  36:lvgl\src\lv_widgets/lv_tabview.c **** /**********************
  37:lvgl\src\lv_widgets/lv_tabview.c ****  *  STATIC PROTOTYPES
  38:lvgl\src\lv_widgets/lv_tabview.c ****  **********************/
  39:lvgl\src\lv_widgets/lv_tabview.c **** static lv_res_t lv_tabview_signal(lv_obj_t * tabview, lv_signal_t sign, void * param);
  40:lvgl\src\lv_widgets/lv_tabview.c **** static lv_res_t tabview_scrl_signal(lv_obj_t * tabview_scrl, lv_signal_t sign, void * param);
  41:lvgl\src\lv_widgets/lv_tabview.c **** static lv_style_list_t * lv_tabview_get_style(lv_obj_t * tabview, uint8_t part);
  42:lvgl\src\lv_widgets/lv_tabview.c **** 
  43:lvgl\src\lv_widgets/lv_tabview.c **** static void tab_btnm_event_cb(lv_obj_t * tab_btnm, lv_event_t event);
  44:lvgl\src\lv_widgets/lv_tabview.c **** static void tabview_realign(lv_obj_t * tabview);
  45:lvgl\src\lv_widgets/lv_tabview.c **** static void refr_indic_size(lv_obj_t * tabview);
  46:lvgl\src\lv_widgets/lv_tabview.c **** static void refr_btns_size(lv_obj_t * tabview);
  47:lvgl\src\lv_widgets/lv_tabview.c **** static void refr_content_size(lv_obj_t * tabview);
  48:lvgl\src\lv_widgets/lv_tabview.c **** static void refr_align(lv_obj_t * tabview);
  49:lvgl\src\lv_widgets/lv_tabview.c **** 
  50:lvgl\src\lv_widgets/lv_tabview.c **** /**********************
  51:lvgl\src\lv_widgets/lv_tabview.c ****  *  STATIC VARIABLES
  52:lvgl\src\lv_widgets/lv_tabview.c ****  **********************/
  53:lvgl\src\lv_widgets/lv_tabview.c **** static lv_signal_cb_t ancestor_signal;
  54:lvgl\src\lv_widgets/lv_tabview.c **** static lv_signal_cb_t ancestor_scrl_signal;
  55:lvgl\src\lv_widgets/lv_tabview.c **** static lv_signal_cb_t page_signal;
  56:lvgl\src\lv_widgets/lv_tabview.c **** static const char * tab_def[] = {""};
  57:lvgl\src\lv_widgets/lv_tabview.c **** 
  58:lvgl\src\lv_widgets/lv_tabview.c **** /**********************
  59:lvgl\src\lv_widgets/lv_tabview.c ****  *      MACROS
  60:lvgl\src\lv_widgets/lv_tabview.c ****  **********************/
  61:lvgl\src\lv_widgets/lv_tabview.c **** 
  62:lvgl\src\lv_widgets/lv_tabview.c **** /**********************
  63:lvgl\src\lv_widgets/lv_tabview.c ****  *   GLOBAL FUNCTIONS
  64:lvgl\src\lv_widgets/lv_tabview.c ****  **********************/
  65:lvgl\src\lv_widgets/lv_tabview.c **** 
  66:lvgl\src\lv_widgets/lv_tabview.c **** /**
  67:lvgl\src\lv_widgets/lv_tabview.c ****  * Create a Tab view object
  68:lvgl\src\lv_widgets/lv_tabview.c ****  * @param par pointer to an object, it will be the parent of the new tab
  69:lvgl\src\lv_widgets/lv_tabview.c ****  * @param copy pointer to a tab object, if not NULL then the new object will be copied from it
  70:lvgl\src\lv_widgets/lv_tabview.c ****  * @return pointer to the created tab
  71:lvgl\src\lv_widgets/lv_tabview.c ****  */
  72:lvgl\src\lv_widgets/lv_tabview.c **** lv_obj_t * lv_tabview_create(lv_obj_t * par, const lv_obj_t * copy)
  73:lvgl\src\lv_widgets/lv_tabview.c **** {
  74:lvgl\src\lv_widgets/lv_tabview.c ****     LV_LOG_TRACE("tab view create started");
  75:lvgl\src\lv_widgets/lv_tabview.c **** 
  76:lvgl\src\lv_widgets/lv_tabview.c ****     /*Create the ancestor of tab*/
  77:lvgl\src\lv_widgets/lv_tabview.c ****     lv_obj_t * tabview = lv_obj_create(par, copy);
  78:lvgl\src\lv_widgets/lv_tabview.c ****     LV_ASSERT_MEM(tabview);
  79:lvgl\src\lv_widgets/lv_tabview.c ****     if(tabview == NULL) return NULL;
  80:lvgl\src\lv_widgets/lv_tabview.c ****     if(ancestor_signal == NULL) ancestor_signal = lv_obj_get_signal_cb(tabview);
  81:lvgl\src\lv_widgets/lv_tabview.c **** 
  82:lvgl\src\lv_widgets/lv_tabview.c ****     /*Allocate the tab type specific extended data*/
  83:lvgl\src\lv_widgets/lv_tabview.c ****     lv_tabview_ext_t * ext = lv_obj_allocate_ext_attr(tabview, sizeof(lv_tabview_ext_t));
  84:lvgl\src\lv_widgets/lv_tabview.c ****     LV_ASSERT_MEM(ext);
  85:lvgl\src\lv_widgets/lv_tabview.c ****     if(ext == NULL) {
  86:lvgl\src\lv_widgets/lv_tabview.c ****         lv_obj_del(tabview);
  87:lvgl\src\lv_widgets/lv_tabview.c ****         return NULL;
  88:lvgl\src\lv_widgets/lv_tabview.c ****     }
ARM GAS  C:\Users\strap\AppData\Local\Temp\ccTzHSZB.s 			page 3


  89:lvgl\src\lv_widgets/lv_tabview.c **** 
  90:lvgl\src\lv_widgets/lv_tabview.c ****     /*Initialize the allocated 'ext' */
  91:lvgl\src\lv_widgets/lv_tabview.c ****     ext->tab_cur      = 0;
  92:lvgl\src\lv_widgets/lv_tabview.c ****     ext->tab_cnt      = 0;
  93:lvgl\src\lv_widgets/lv_tabview.c ****     ext->point_last.x = 0;
  94:lvgl\src\lv_widgets/lv_tabview.c ****     ext->point_last.y = 0;
  95:lvgl\src\lv_widgets/lv_tabview.c ****     ext->content      = NULL;
  96:lvgl\src\lv_widgets/lv_tabview.c ****     ext->indic        = NULL;
  97:lvgl\src\lv_widgets/lv_tabview.c ****     ext->btns         = NULL;
  98:lvgl\src\lv_widgets/lv_tabview.c ****     ext->btns_pos     = LV_TABVIEW_TAB_POS_TOP;
  99:lvgl\src\lv_widgets/lv_tabview.c **** #if LV_USE_ANIMATION
 100:lvgl\src\lv_widgets/lv_tabview.c ****     ext->anim_time = LV_TABVIEW_DEF_ANIM_TIME;
 101:lvgl\src\lv_widgets/lv_tabview.c **** #endif
 102:lvgl\src\lv_widgets/lv_tabview.c **** 
 103:lvgl\src\lv_widgets/lv_tabview.c ****     /*The signal and design functions are not copied so set them here*/
 104:lvgl\src\lv_widgets/lv_tabview.c ****     lv_obj_set_signal_cb(tabview, lv_tabview_signal);
 105:lvgl\src\lv_widgets/lv_tabview.c ****     /*Init the new tab tab*/
 106:lvgl\src\lv_widgets/lv_tabview.c ****     if(copy == NULL) {
 107:lvgl\src\lv_widgets/lv_tabview.c ****         ext->tab_name_ptr = lv_mem_alloc(sizeof(char *));
 108:lvgl\src\lv_widgets/lv_tabview.c ****         LV_ASSERT_MEM(ext->tab_name_ptr);
 109:lvgl\src\lv_widgets/lv_tabview.c ****         if(ext->tab_name_ptr == NULL) return NULL;
 110:lvgl\src\lv_widgets/lv_tabview.c ****         ext->tab_name_ptr[0] = "";
 111:lvgl\src\lv_widgets/lv_tabview.c **** 
 112:lvgl\src\lv_widgets/lv_tabview.c ****         /* Set a size which fits into the parent.
 113:lvgl\src\lv_widgets/lv_tabview.c ****          * Don't use `par` directly because if the tabview is created on a page it is moved to the
 114:lvgl\src\lv_widgets/lv_tabview.c ****          * scrollable so the parent has changed */
 115:lvgl\src\lv_widgets/lv_tabview.c ****         lv_coord_t w;
 116:lvgl\src\lv_widgets/lv_tabview.c ****         lv_coord_t h;
 117:lvgl\src\lv_widgets/lv_tabview.c ****         if(par) {
 118:lvgl\src\lv_widgets/lv_tabview.c ****             w = lv_obj_get_width_fit(lv_obj_get_parent(tabview));
 119:lvgl\src\lv_widgets/lv_tabview.c ****             h = lv_obj_get_height_fit(lv_obj_get_parent(tabview));
 120:lvgl\src\lv_widgets/lv_tabview.c ****         }
 121:lvgl\src\lv_widgets/lv_tabview.c ****         else {
 122:lvgl\src\lv_widgets/lv_tabview.c ****             w = lv_disp_get_hor_res(NULL);
 123:lvgl\src\lv_widgets/lv_tabview.c ****             h = lv_disp_get_ver_res(NULL);
 124:lvgl\src\lv_widgets/lv_tabview.c ****         }
 125:lvgl\src\lv_widgets/lv_tabview.c **** 
 126:lvgl\src\lv_widgets/lv_tabview.c ****         lv_obj_set_size(tabview, w, h);
 127:lvgl\src\lv_widgets/lv_tabview.c **** 
 128:lvgl\src\lv_widgets/lv_tabview.c ****         ext->content = lv_page_create(tabview, NULL);
 129:lvgl\src\lv_widgets/lv_tabview.c ****         ext->btns    = lv_btnmatrix_create(tabview, NULL);
 130:lvgl\src\lv_widgets/lv_tabview.c ****         ext->indic   = lv_obj_create(ext->btns, NULL);
 131:lvgl\src\lv_widgets/lv_tabview.c **** 
 132:lvgl\src\lv_widgets/lv_tabview.c ****         if(ancestor_scrl_signal == NULL) ancestor_scrl_signal = lv_obj_get_signal_cb(lv_page_get_sc
 133:lvgl\src\lv_widgets/lv_tabview.c ****         lv_obj_set_signal_cb(lv_page_get_scrollable(ext->content), tabview_scrl_signal);
 134:lvgl\src\lv_widgets/lv_tabview.c **** 
 135:lvgl\src\lv_widgets/lv_tabview.c ****         lv_btnmatrix_set_map(ext->btns, tab_def);
 136:lvgl\src\lv_widgets/lv_tabview.c ****         lv_obj_set_event_cb(ext->btns, tab_btnm_event_cb);
 137:lvgl\src\lv_widgets/lv_tabview.c **** 
 138:lvgl\src\lv_widgets/lv_tabview.c ****         lv_obj_set_click(ext->indic, false);
 139:lvgl\src\lv_widgets/lv_tabview.c ****         lv_obj_set_drag_dir(lv_page_get_scrollable(ext->content), LV_DRAG_DIR_ONE);
 140:lvgl\src\lv_widgets/lv_tabview.c **** 
 141:lvgl\src\lv_widgets/lv_tabview.c ****         lv_page_set_scrollable_fit2(ext->content, LV_FIT_TIGHT, LV_FIT_PARENT);
 142:lvgl\src\lv_widgets/lv_tabview.c ****         lv_page_set_scrl_layout(ext->content, LV_LAYOUT_ROW_TOP);
 143:lvgl\src\lv_widgets/lv_tabview.c ****         lv_page_set_scrollbar_mode(ext->content, LV_SCROLLBAR_MODE_OFF);
 144:lvgl\src\lv_widgets/lv_tabview.c **** 
 145:lvgl\src\lv_widgets/lv_tabview.c ****         lv_obj_clean_style_list(ext->content, LV_PAGE_PART_BG);
ARM GAS  C:\Users\strap\AppData\Local\Temp\ccTzHSZB.s 			page 4


 146:lvgl\src\lv_widgets/lv_tabview.c **** 
 147:lvgl\src\lv_widgets/lv_tabview.c ****         lv_theme_apply(tabview, LV_THEME_TABVIEW);
 148:lvgl\src\lv_widgets/lv_tabview.c **** 
 149:lvgl\src\lv_widgets/lv_tabview.c ****     }
 150:lvgl\src\lv_widgets/lv_tabview.c ****     /*Copy an existing tab view*/
 151:lvgl\src\lv_widgets/lv_tabview.c ****     else {
 152:lvgl\src\lv_widgets/lv_tabview.c ****         lv_tabview_ext_t * copy_ext = lv_obj_get_ext_attr(copy);
 153:lvgl\src\lv_widgets/lv_tabview.c ****         ext->point_last.x           = 0;
 154:lvgl\src\lv_widgets/lv_tabview.c ****         ext->point_last.y           = 0;
 155:lvgl\src\lv_widgets/lv_tabview.c ****         ext->btns                   = lv_btnmatrix_create(tabview, copy_ext->btns);
 156:lvgl\src\lv_widgets/lv_tabview.c ****         ext->indic                  = lv_obj_create(ext->btns, copy_ext->indic);
 157:lvgl\src\lv_widgets/lv_tabview.c ****         ext->content                = lv_page_create(tabview, copy_ext->content);
 158:lvgl\src\lv_widgets/lv_tabview.c **** #if LV_USE_ANIMATION
 159:lvgl\src\lv_widgets/lv_tabview.c ****         ext->anim_time = copy_ext->anim_time;
 160:lvgl\src\lv_widgets/lv_tabview.c **** #endif
 161:lvgl\src\lv_widgets/lv_tabview.c **** 
 162:lvgl\src\lv_widgets/lv_tabview.c ****         ext->tab_name_ptr = lv_mem_alloc(sizeof(char *));
 163:lvgl\src\lv_widgets/lv_tabview.c ****         LV_ASSERT_MEM(ext->tab_name_ptr);
 164:lvgl\src\lv_widgets/lv_tabview.c ****         if(ext->tab_name_ptr == NULL) return NULL;
 165:lvgl\src\lv_widgets/lv_tabview.c ****         ext->tab_name_ptr[0] = "";
 166:lvgl\src\lv_widgets/lv_tabview.c ****         lv_btnmatrix_set_map(ext->btns, ext->tab_name_ptr);
 167:lvgl\src\lv_widgets/lv_tabview.c **** 
 168:lvgl\src\lv_widgets/lv_tabview.c ****         lv_style_list_copy(lv_obj_get_style_list(tabview, LV_TABVIEW_PART_BG_SCRLLABLE), lv_obj_get
 169:lvgl\src\lv_widgets/lv_tabview.c ****                                                                                                    
 170:lvgl\src\lv_widgets/lv_tabview.c ****         lv_style_list_copy(lv_obj_get_style_list(tabview, LV_TABVIEW_PART_TAB_BG), lv_obj_get_style
 171:lvgl\src\lv_widgets/lv_tabview.c ****                                                                                                    
 172:lvgl\src\lv_widgets/lv_tabview.c ****         lv_style_list_copy(lv_obj_get_style_list(tabview, LV_TABVIEW_PART_TAB_BTN), lv_obj_get_styl
 173:lvgl\src\lv_widgets/lv_tabview.c ****                                                                                                    
 174:lvgl\src\lv_widgets/lv_tabview.c **** 
 175:lvgl\src\lv_widgets/lv_tabview.c ****         uint16_t i;
 176:lvgl\src\lv_widgets/lv_tabview.c ****         for(i = 0; i < copy_ext->tab_cnt; i++) {
 177:lvgl\src\lv_widgets/lv_tabview.c ****             lv_obj_t * new_tab = lv_tabview_add_tab(tabview, copy_ext->tab_name_ptr[i]);
 178:lvgl\src\lv_widgets/lv_tabview.c ****             lv_obj_t * copy_tab = lv_tabview_get_tab(copy, i);
 179:lvgl\src\lv_widgets/lv_tabview.c ****             lv_style_list_copy(lv_obj_get_style_list(new_tab, LV_PAGE_PART_SCROLLABLE), lv_obj_get_
 180:lvgl\src\lv_widgets/lv_tabview.c ****                                                                                                    
 181:lvgl\src\lv_widgets/lv_tabview.c ****             lv_style_list_copy(lv_obj_get_style_list(new_tab, LV_PAGE_PART_SCROLLBAR), lv_obj_get_s
 182:lvgl\src\lv_widgets/lv_tabview.c ****                                                                                                    
 183:lvgl\src\lv_widgets/lv_tabview.c ****             lv_obj_refresh_style(new_tab, LV_OBJ_PART_ALL, LV_STYLE_PROP_ALL);
 184:lvgl\src\lv_widgets/lv_tabview.c ****         }
 185:lvgl\src\lv_widgets/lv_tabview.c **** 
 186:lvgl\src\lv_widgets/lv_tabview.c ****         /*Refresh the style with new signal function*/
 187:lvgl\src\lv_widgets/lv_tabview.c ****         lv_obj_refresh_style(tabview, LV_OBJ_PART_ALL, LV_STYLE_PROP_ALL);
 188:lvgl\src\lv_widgets/lv_tabview.c ****     }
 189:lvgl\src\lv_widgets/lv_tabview.c **** 
 190:lvgl\src\lv_widgets/lv_tabview.c ****     tabview_realign(tabview);
 191:lvgl\src\lv_widgets/lv_tabview.c **** 
 192:lvgl\src\lv_widgets/lv_tabview.c ****     LV_LOG_INFO("tab view created");
 193:lvgl\src\lv_widgets/lv_tabview.c **** 
 194:lvgl\src\lv_widgets/lv_tabview.c ****     return tabview;
 195:lvgl\src\lv_widgets/lv_tabview.c **** }
 196:lvgl\src\lv_widgets/lv_tabview.c **** 
 197:lvgl\src\lv_widgets/lv_tabview.c **** /*======================
 198:lvgl\src\lv_widgets/lv_tabview.c ****  * Add/remove functions
 199:lvgl\src\lv_widgets/lv_tabview.c ****  *=====================*/
 200:lvgl\src\lv_widgets/lv_tabview.c **** 
 201:lvgl\src\lv_widgets/lv_tabview.c **** /**
 202:lvgl\src\lv_widgets/lv_tabview.c ****  * Add a new tab with the given name
ARM GAS  C:\Users\strap\AppData\Local\Temp\ccTzHSZB.s 			page 5


 203:lvgl\src\lv_widgets/lv_tabview.c ****  * @param tabview pointer to Tab view object where to ass the new tab
 204:lvgl\src\lv_widgets/lv_tabview.c ****  * @param name the text on the tab button
 205:lvgl\src\lv_widgets/lv_tabview.c ****  * @return pointer to the created page object (lv_page). You can create your content here
 206:lvgl\src\lv_widgets/lv_tabview.c ****  */
 207:lvgl\src\lv_widgets/lv_tabview.c **** lv_obj_t * lv_tabview_add_tab(lv_obj_t * tabview, const char * name)
 208:lvgl\src\lv_widgets/lv_tabview.c **** {
 209:lvgl\src\lv_widgets/lv_tabview.c ****     LV_ASSERT_OBJ(tabview, LV_OBJX_NAME);
 210:lvgl\src\lv_widgets/lv_tabview.c ****     LV_ASSERT_STR(name);
 211:lvgl\src\lv_widgets/lv_tabview.c **** 
 212:lvgl\src\lv_widgets/lv_tabview.c ****     lv_tabview_ext_t * ext = lv_obj_get_ext_attr(tabview);
 213:lvgl\src\lv_widgets/lv_tabview.c **** 
 214:lvgl\src\lv_widgets/lv_tabview.c ****     /*Create the container page*/
 215:lvgl\src\lv_widgets/lv_tabview.c ****     lv_obj_t * h = lv_page_create(ext->content, NULL);
 216:lvgl\src\lv_widgets/lv_tabview.c ****     lv_obj_set_size(h, lv_obj_get_width(tabview), lv_obj_get_height(ext->content));
 217:lvgl\src\lv_widgets/lv_tabview.c ****     lv_page_set_scrollbar_mode(h, LV_SCROLLBAR_MODE_AUTO);
 218:lvgl\src\lv_widgets/lv_tabview.c ****     lv_page_set_scroll_propagation(h, true);
 219:lvgl\src\lv_widgets/lv_tabview.c ****     lv_page_set_scrollable_fit4(h, LV_FIT_NONE, LV_FIT_MAX, LV_FIT_NONE, LV_FIT_MAX);
 220:lvgl\src\lv_widgets/lv_tabview.c ****     lv_theme_apply(h, LV_THEME_TABVIEW_PAGE);
 221:lvgl\src\lv_widgets/lv_tabview.c **** 
 222:lvgl\src\lv_widgets/lv_tabview.c ****     if(page_signal == NULL) page_signal = lv_obj_get_signal_cb(h);
 223:lvgl\src\lv_widgets/lv_tabview.c **** 
 224:lvgl\src\lv_widgets/lv_tabview.c ****     /*Extend the button matrix map with the new name*/
 225:lvgl\src\lv_widgets/lv_tabview.c ****     char * name_dm;
 226:lvgl\src\lv_widgets/lv_tabview.c ****     name_dm = lv_mem_alloc(strlen(name) + 1); /*+1 for the the closing '\0' */
 227:lvgl\src\lv_widgets/lv_tabview.c ****     LV_ASSERT_MEM(name_dm);
 228:lvgl\src\lv_widgets/lv_tabview.c ****     if(name_dm == NULL) return NULL;
 229:lvgl\src\lv_widgets/lv_tabview.c ****     strcpy(name_dm, name);
 230:lvgl\src\lv_widgets/lv_tabview.c **** 
 231:lvgl\src\lv_widgets/lv_tabview.c ****     ext->tab_cnt++;
 232:lvgl\src\lv_widgets/lv_tabview.c **** 
 233:lvgl\src\lv_widgets/lv_tabview.c ****     /* FIXME: It is not possible yet to switch tab button position from/to top/bottom from/to left/
 234:lvgl\src\lv_widgets/lv_tabview.c ****      * Method: clean extra \n when switch from LV_TABVIEW_BTNS_POS_LEFT or LV_TABVIEW_BTNS_POS_RIGH
 235:lvgl\src\lv_widgets/lv_tabview.c ****      * to LV_TABVIEW_BTNS_POS_TOP or LV_TABVIEW_BTNS_POS_BOTTOM.
 236:lvgl\src\lv_widgets/lv_tabview.c ****      */
 237:lvgl\src\lv_widgets/lv_tabview.c ****     switch(ext->btns_pos) {
 238:lvgl\src\lv_widgets/lv_tabview.c ****         default: /*default case is prevented in lv_tabview_set_btns_pos(), but here for safety*/
 239:lvgl\src\lv_widgets/lv_tabview.c ****         case LV_TABVIEW_TAB_POS_NONE:
 240:lvgl\src\lv_widgets/lv_tabview.c ****         case LV_TABVIEW_TAB_POS_TOP:
 241:lvgl\src\lv_widgets/lv_tabview.c ****         case LV_TABVIEW_TAB_POS_BOTTOM:
 242:lvgl\src\lv_widgets/lv_tabview.c ****             ext->tab_name_ptr = lv_mem_realloc(ext->tab_name_ptr, sizeof(char *) * (ext->tab_cnt + 
 243:lvgl\src\lv_widgets/lv_tabview.c **** 
 244:lvgl\src\lv_widgets/lv_tabview.c ****             LV_ASSERT_MEM(ext->tab_name_ptr);
 245:lvgl\src\lv_widgets/lv_tabview.c ****             if(ext->tab_name_ptr == NULL) return NULL;
 246:lvgl\src\lv_widgets/lv_tabview.c **** 
 247:lvgl\src\lv_widgets/lv_tabview.c ****             ext->tab_name_ptr[ext->tab_cnt - 1] = name_dm;
 248:lvgl\src\lv_widgets/lv_tabview.c ****             ext->tab_name_ptr[ext->tab_cnt]     = "";
 249:lvgl\src\lv_widgets/lv_tabview.c **** 
 250:lvgl\src\lv_widgets/lv_tabview.c ****             break;
 251:lvgl\src\lv_widgets/lv_tabview.c ****         case LV_TABVIEW_TAB_POS_LEFT:
 252:lvgl\src\lv_widgets/lv_tabview.c ****         case LV_TABVIEW_TAB_POS_RIGHT:
 253:lvgl\src\lv_widgets/lv_tabview.c ****             ext->tab_name_ptr = lv_mem_realloc(ext->tab_name_ptr, sizeof(char *) * (ext->tab_cnt * 
 254:lvgl\src\lv_widgets/lv_tabview.c **** 
 255:lvgl\src\lv_widgets/lv_tabview.c ****             LV_ASSERT_MEM(ext->tab_name_ptr);
 256:lvgl\src\lv_widgets/lv_tabview.c ****             if(ext->tab_name_ptr == NULL) return NULL;
 257:lvgl\src\lv_widgets/lv_tabview.c **** 
 258:lvgl\src\lv_widgets/lv_tabview.c ****             if(ext->tab_cnt == 1) {
 259:lvgl\src\lv_widgets/lv_tabview.c ****                 ext->tab_name_ptr[0] = name_dm;
ARM GAS  C:\Users\strap\AppData\Local\Temp\ccTzHSZB.s 			page 6


 260:lvgl\src\lv_widgets/lv_tabview.c ****                 ext->tab_name_ptr[1] = "";
 261:lvgl\src\lv_widgets/lv_tabview.c ****             }
 262:lvgl\src\lv_widgets/lv_tabview.c ****             else {
 263:lvgl\src\lv_widgets/lv_tabview.c ****                 ext->tab_name_ptr[ext->tab_cnt * 2 - 3] = "\n";
 264:lvgl\src\lv_widgets/lv_tabview.c ****                 ext->tab_name_ptr[ext->tab_cnt * 2 - 2] = name_dm;
 265:lvgl\src\lv_widgets/lv_tabview.c ****                 ext->tab_name_ptr[ext->tab_cnt * 2 - 1] = "";
 266:lvgl\src\lv_widgets/lv_tabview.c ****             }
 267:lvgl\src\lv_widgets/lv_tabview.c ****             break;
 268:lvgl\src\lv_widgets/lv_tabview.c ****     }
 269:lvgl\src\lv_widgets/lv_tabview.c **** 
 270:lvgl\src\lv_widgets/lv_tabview.c ****     /* The button matrix's map still points to the old `tab_name_ptr` which might be freed by
 271:lvgl\src\lv_widgets/lv_tabview.c ****      * `lv_mem_realloc`. So make its current map invalid*/
 272:lvgl\src\lv_widgets/lv_tabview.c ****     lv_btnmatrix_ext_t * btnm_ext = lv_obj_get_ext_attr(ext->btns);
 273:lvgl\src\lv_widgets/lv_tabview.c ****     btnm_ext->map_p          = NULL;
 274:lvgl\src\lv_widgets/lv_tabview.c **** 
 275:lvgl\src\lv_widgets/lv_tabview.c ****     lv_btnmatrix_set_map(ext->btns, ext->tab_name_ptr);
 276:lvgl\src\lv_widgets/lv_tabview.c ****     lv_btnmatrix_set_btn_ctrl(ext->btns, ext->tab_cur, LV_BTNMATRIX_CTRL_NO_REPEAT);
 277:lvgl\src\lv_widgets/lv_tabview.c **** 
 278:lvgl\src\lv_widgets/lv_tabview.c ****     /*Set the first btn as active*/
 279:lvgl\src\lv_widgets/lv_tabview.c ****     if(ext->tab_cnt == 1)  ext->tab_cur = 0;
 280:lvgl\src\lv_widgets/lv_tabview.c **** 
 281:lvgl\src\lv_widgets/lv_tabview.c ****     tabview_realign(tabview); /*Set the size of the pages, tab buttons and indicator*/
 282:lvgl\src\lv_widgets/lv_tabview.c **** 
 283:lvgl\src\lv_widgets/lv_tabview.c ****     lv_tabview_set_tab_act(tabview, ext->tab_cur, false);
 284:lvgl\src\lv_widgets/lv_tabview.c **** 
 285:lvgl\src\lv_widgets/lv_tabview.c ****     return h;
 286:lvgl\src\lv_widgets/lv_tabview.c **** }
 287:lvgl\src\lv_widgets/lv_tabview.c **** 
 288:lvgl\src\lv_widgets/lv_tabview.c **** /**
 289:lvgl\src\lv_widgets/lv_tabview.c ****  * Delete all children of a tab created by `lv_tabview_add_tab`.
 290:lvgl\src\lv_widgets/lv_tabview.c ****  * @param tab pointer to a tab
 291:lvgl\src\lv_widgets/lv_tabview.c ****  */
 292:lvgl\src\lv_widgets/lv_tabview.c **** void lv_tabview_clean_tab(lv_obj_t * tab)
 293:lvgl\src\lv_widgets/lv_tabview.c **** {
 294:lvgl\src\lv_widgets/lv_tabview.c ****     LV_ASSERT_OBJ(tab, "lv_page");
 295:lvgl\src\lv_widgets/lv_tabview.c **** 
 296:lvgl\src\lv_widgets/lv_tabview.c ****     lv_obj_t * scrl = lv_page_get_scrollable(tab);
 297:lvgl\src\lv_widgets/lv_tabview.c ****     lv_obj_clean(scrl);
 298:lvgl\src\lv_widgets/lv_tabview.c **** }
 299:lvgl\src\lv_widgets/lv_tabview.c **** 
 300:lvgl\src\lv_widgets/lv_tabview.c **** /*=====================
 301:lvgl\src\lv_widgets/lv_tabview.c ****  * Setter functions
 302:lvgl\src\lv_widgets/lv_tabview.c ****  *====================*/
 303:lvgl\src\lv_widgets/lv_tabview.c **** 
 304:lvgl\src\lv_widgets/lv_tabview.c **** /**
 305:lvgl\src\lv_widgets/lv_tabview.c ****  * Set a new tab
 306:lvgl\src\lv_widgets/lv_tabview.c ****  * @param tabview pointer to Tab view object
 307:lvgl\src\lv_widgets/lv_tabview.c ****  * @param id index of a tab to load
 308:lvgl\src\lv_widgets/lv_tabview.c ****  * @param anim LV_ANIM_ON: set the value with an animation; LV_ANIM_OFF: change the value immediate
 309:lvgl\src\lv_widgets/lv_tabview.c ****  */
 310:lvgl\src\lv_widgets/lv_tabview.c **** void lv_tabview_set_tab_act(lv_obj_t * tabview, uint16_t id, lv_anim_enable_t anim)
 311:lvgl\src\lv_widgets/lv_tabview.c **** {
 312:lvgl\src\lv_widgets/lv_tabview.c ****     LV_ASSERT_OBJ(tabview, LV_OBJX_NAME);
 313:lvgl\src\lv_widgets/lv_tabview.c **** 
 314:lvgl\src\lv_widgets/lv_tabview.c **** #if LV_USE_ANIMATION == 0
 315:lvgl\src\lv_widgets/lv_tabview.c ****     anim = LV_ANIM_OFF;
 316:lvgl\src\lv_widgets/lv_tabview.c **** #endif
ARM GAS  C:\Users\strap\AppData\Local\Temp\ccTzHSZB.s 			page 7


 317:lvgl\src\lv_widgets/lv_tabview.c ****     lv_tabview_ext_t * ext = lv_obj_get_ext_attr(tabview);
 318:lvgl\src\lv_widgets/lv_tabview.c **** 
 319:lvgl\src\lv_widgets/lv_tabview.c ****     if(id >= ext->tab_cnt) id = ext->tab_cnt - 1;
 320:lvgl\src\lv_widgets/lv_tabview.c **** 
 321:lvgl\src\lv_widgets/lv_tabview.c ****     lv_btnmatrix_clear_btn_ctrl(ext->btns, ext->tab_cur, LV_BTNMATRIX_CTRL_CHECK_STATE);
 322:lvgl\src\lv_widgets/lv_tabview.c **** 
 323:lvgl\src\lv_widgets/lv_tabview.c ****     ext->tab_cur = id;
 324:lvgl\src\lv_widgets/lv_tabview.c **** 
 325:lvgl\src\lv_widgets/lv_tabview.c ****     if(lv_obj_get_base_dir(tabview) == LV_BIDI_DIR_RTL) {
 326:lvgl\src\lv_widgets/lv_tabview.c ****         id = (ext->tab_cnt - (id + 1));
 327:lvgl\src\lv_widgets/lv_tabview.c ****     }
 328:lvgl\src\lv_widgets/lv_tabview.c **** 
 329:lvgl\src\lv_widgets/lv_tabview.c ****     lv_coord_t cont_x;
 330:lvgl\src\lv_widgets/lv_tabview.c ****     lv_style_int_t scrl_inner = lv_obj_get_style_pad_inner(ext->content, LV_PAGE_PART_SCROLLABLE);
 331:lvgl\src\lv_widgets/lv_tabview.c ****     lv_style_int_t scrl_left = lv_obj_get_style_pad_left(ext->content, LV_PAGE_PART_SCROLLABLE);
 332:lvgl\src\lv_widgets/lv_tabview.c **** 
 333:lvgl\src\lv_widgets/lv_tabview.c ****     switch(ext->btns_pos) {
 334:lvgl\src\lv_widgets/lv_tabview.c ****         default: /*default case is prevented in lv_tabview_set_btns_pos(), but here for safety*/
 335:lvgl\src\lv_widgets/lv_tabview.c ****         case LV_TABVIEW_TAB_POS_NONE:
 336:lvgl\src\lv_widgets/lv_tabview.c ****         case LV_TABVIEW_TAB_POS_TOP:
 337:lvgl\src\lv_widgets/lv_tabview.c ****         case LV_TABVIEW_TAB_POS_BOTTOM:
 338:lvgl\src\lv_widgets/lv_tabview.c ****             cont_x = -(lv_obj_get_width(tabview) * id + scrl_inner * id + scrl_left);
 339:lvgl\src\lv_widgets/lv_tabview.c ****             break;
 340:lvgl\src\lv_widgets/lv_tabview.c ****         case LV_TABVIEW_TAB_POS_LEFT:
 341:lvgl\src\lv_widgets/lv_tabview.c ****         case LV_TABVIEW_TAB_POS_RIGHT:
 342:lvgl\src\lv_widgets/lv_tabview.c ****             cont_x = -((lv_obj_get_width(tabview) - lv_obj_get_width(ext->btns)) * id + scrl_inner 
 343:lvgl\src\lv_widgets/lv_tabview.c ****             break;
 344:lvgl\src\lv_widgets/lv_tabview.c ****     }
 345:lvgl\src\lv_widgets/lv_tabview.c **** 
 346:lvgl\src\lv_widgets/lv_tabview.c ****     if(anim == LV_ANIM_OFF || lv_tabview_get_anim_time(tabview) == 0) {
 347:lvgl\src\lv_widgets/lv_tabview.c ****         lv_obj_set_x(lv_page_get_scrollable(ext->content), cont_x);
 348:lvgl\src\lv_widgets/lv_tabview.c ****     }
 349:lvgl\src\lv_widgets/lv_tabview.c **** #if LV_USE_ANIMATION
 350:lvgl\src\lv_widgets/lv_tabview.c ****     else {
 351:lvgl\src\lv_widgets/lv_tabview.c ****         lv_anim_t a;
 352:lvgl\src\lv_widgets/lv_tabview.c ****         lv_anim_init(&a);
 353:lvgl\src\lv_widgets/lv_tabview.c ****         lv_anim_set_var(&a, lv_page_get_scrollable(ext->content));
 354:lvgl\src\lv_widgets/lv_tabview.c ****         lv_anim_set_exec_cb(&a, (lv_anim_exec_xcb_t)lv_obj_set_x);
 355:lvgl\src\lv_widgets/lv_tabview.c ****         lv_anim_set_values(&a, lv_obj_get_x(lv_page_get_scrollable(ext->content)), cont_x);
 356:lvgl\src\lv_widgets/lv_tabview.c ****         lv_anim_set_time(&a, ext->anim_time);
 357:lvgl\src\lv_widgets/lv_tabview.c ****         lv_anim_start(&a);
 358:lvgl\src\lv_widgets/lv_tabview.c ****     }
 359:lvgl\src\lv_widgets/lv_tabview.c **** #endif
 360:lvgl\src\lv_widgets/lv_tabview.c **** 
 361:lvgl\src\lv_widgets/lv_tabview.c ****     /*Move the indicator*/
 362:lvgl\src\lv_widgets/lv_tabview.c ****     lv_coord_t indic_size;
 363:lvgl\src\lv_widgets/lv_tabview.c ****     lv_coord_t indic_pos = 0; /*silence uninitialized variable warning*/;
 364:lvgl\src\lv_widgets/lv_tabview.c **** 
 365:lvgl\src\lv_widgets/lv_tabview.c ****     lv_style_int_t btns_bg_inner = 0;
 366:lvgl\src\lv_widgets/lv_tabview.c ****     lv_style_int_t btns_bg_left = 0;
 367:lvgl\src\lv_widgets/lv_tabview.c ****     lv_style_int_t btns_bg_top = 0;
 368:lvgl\src\lv_widgets/lv_tabview.c **** 
 369:lvgl\src\lv_widgets/lv_tabview.c ****     switch(ext->btns_pos) {
 370:lvgl\src\lv_widgets/lv_tabview.c ****         default: /*default case is prevented in lv_tabview_set_btns_pos(), but here for safety*/
 371:lvgl\src\lv_widgets/lv_tabview.c ****         case LV_TABVIEW_TAB_POS_NONE:
 372:lvgl\src\lv_widgets/lv_tabview.c ****             break;
 373:lvgl\src\lv_widgets/lv_tabview.c ****         case LV_TABVIEW_TAB_POS_TOP:
ARM GAS  C:\Users\strap\AppData\Local\Temp\ccTzHSZB.s 			page 8


 374:lvgl\src\lv_widgets/lv_tabview.c ****         case LV_TABVIEW_TAB_POS_BOTTOM:
 375:lvgl\src\lv_widgets/lv_tabview.c ****             btns_bg_inner = lv_obj_get_style_pad_inner(tabview, LV_TABVIEW_PART_TAB_BG);
 376:lvgl\src\lv_widgets/lv_tabview.c ****             btns_bg_left = lv_obj_get_style_pad_left(tabview, LV_TABVIEW_PART_TAB_BG);
 377:lvgl\src\lv_widgets/lv_tabview.c ****             indic_size = lv_obj_get_width(ext->indic);
 378:lvgl\src\lv_widgets/lv_tabview.c ****             indic_pos  = indic_size * id + btns_bg_inner * id + btns_bg_left;
 379:lvgl\src\lv_widgets/lv_tabview.c ****             break;
 380:lvgl\src\lv_widgets/lv_tabview.c ****         case LV_TABVIEW_TAB_POS_LEFT:
 381:lvgl\src\lv_widgets/lv_tabview.c ****         case LV_TABVIEW_TAB_POS_RIGHT:
 382:lvgl\src\lv_widgets/lv_tabview.c ****             btns_bg_inner = lv_obj_get_style_pad_inner(tabview, LV_TABVIEW_PART_TAB_BG);
 383:lvgl\src\lv_widgets/lv_tabview.c ****             btns_bg_top = lv_obj_get_style_pad_top(tabview, LV_TABVIEW_PART_TAB_BG);
 384:lvgl\src\lv_widgets/lv_tabview.c ****             indic_size = lv_obj_get_height(ext->indic);
 385:lvgl\src\lv_widgets/lv_tabview.c ****             indic_pos  = btns_bg_top + id * (indic_size + btns_bg_inner);
 386:lvgl\src\lv_widgets/lv_tabview.c ****             break;
 387:lvgl\src\lv_widgets/lv_tabview.c ****     }
 388:lvgl\src\lv_widgets/lv_tabview.c **** 
 389:lvgl\src\lv_widgets/lv_tabview.c **** #if LV_USE_ANIMATION
 390:lvgl\src\lv_widgets/lv_tabview.c ****     if(anim == LV_ANIM_OFF || ext->anim_time == 0)
 391:lvgl\src\lv_widgets/lv_tabview.c **** #endif
 392:lvgl\src\lv_widgets/lv_tabview.c ****     {
 393:lvgl\src\lv_widgets/lv_tabview.c ****         switch(ext->btns_pos) {
 394:lvgl\src\lv_widgets/lv_tabview.c ****             default: /*default case is prevented in lv_tabview_set_btns_pos(), but here for safety*
 395:lvgl\src\lv_widgets/lv_tabview.c ****             case LV_TABVIEW_TAB_POS_NONE:
 396:lvgl\src\lv_widgets/lv_tabview.c ****                 break;
 397:lvgl\src\lv_widgets/lv_tabview.c ****             case LV_TABVIEW_TAB_POS_TOP:
 398:lvgl\src\lv_widgets/lv_tabview.c ****             case LV_TABVIEW_TAB_POS_BOTTOM:
 399:lvgl\src\lv_widgets/lv_tabview.c ****                 lv_obj_set_x(ext->indic, indic_pos);
 400:lvgl\src\lv_widgets/lv_tabview.c ****                 break;
 401:lvgl\src\lv_widgets/lv_tabview.c ****             case LV_TABVIEW_TAB_POS_LEFT:
 402:lvgl\src\lv_widgets/lv_tabview.c ****             case LV_TABVIEW_TAB_POS_RIGHT:
 403:lvgl\src\lv_widgets/lv_tabview.c ****                 lv_obj_set_y(ext->indic, indic_pos);
 404:lvgl\src\lv_widgets/lv_tabview.c ****                 break;
 405:lvgl\src\lv_widgets/lv_tabview.c ****         }
 406:lvgl\src\lv_widgets/lv_tabview.c ****     }
 407:lvgl\src\lv_widgets/lv_tabview.c **** #if LV_USE_ANIMATION
 408:lvgl\src\lv_widgets/lv_tabview.c ****     else {
 409:lvgl\src\lv_widgets/lv_tabview.c ****         lv_anim_t a;
 410:lvgl\src\lv_widgets/lv_tabview.c ****         lv_anim_init(&a);
 411:lvgl\src\lv_widgets/lv_tabview.c ****         lv_anim_set_var(&a, ext->indic);
 412:lvgl\src\lv_widgets/lv_tabview.c ****         lv_anim_set_time(&a, ext->anim_time);
 413:lvgl\src\lv_widgets/lv_tabview.c **** 
 414:lvgl\src\lv_widgets/lv_tabview.c ****         switch(ext->btns_pos) {
 415:lvgl\src\lv_widgets/lv_tabview.c ****             default: /*default case is prevented in lv_tabview_set_btns_pos(), but here for safety*
 416:lvgl\src\lv_widgets/lv_tabview.c ****             case LV_TABVIEW_TAB_POS_NONE:
 417:lvgl\src\lv_widgets/lv_tabview.c ****                 break;
 418:lvgl\src\lv_widgets/lv_tabview.c ****             case LV_TABVIEW_TAB_POS_TOP:
 419:lvgl\src\lv_widgets/lv_tabview.c ****             case LV_TABVIEW_TAB_POS_BOTTOM:
 420:lvgl\src\lv_widgets/lv_tabview.c ****                 lv_anim_set_exec_cb(&a, (lv_anim_exec_xcb_t)lv_obj_set_x);
 421:lvgl\src\lv_widgets/lv_tabview.c ****                 lv_anim_set_values(&a, lv_obj_get_x(ext->indic), indic_pos);
 422:lvgl\src\lv_widgets/lv_tabview.c ****                 break;
 423:lvgl\src\lv_widgets/lv_tabview.c ****             case LV_TABVIEW_TAB_POS_LEFT:
 424:lvgl\src\lv_widgets/lv_tabview.c ****             case LV_TABVIEW_TAB_POS_RIGHT:
 425:lvgl\src\lv_widgets/lv_tabview.c ****                 lv_anim_set_exec_cb(&a, (lv_anim_exec_xcb_t)lv_obj_set_y);
 426:lvgl\src\lv_widgets/lv_tabview.c ****                 lv_anim_set_values(&a, lv_obj_get_y(ext->indic), indic_pos);
 427:lvgl\src\lv_widgets/lv_tabview.c ****                 break;
 428:lvgl\src\lv_widgets/lv_tabview.c ****         }
 429:lvgl\src\lv_widgets/lv_tabview.c **** 
 430:lvgl\src\lv_widgets/lv_tabview.c ****         lv_anim_start(&a);
ARM GAS  C:\Users\strap\AppData\Local\Temp\ccTzHSZB.s 			page 9


 431:lvgl\src\lv_widgets/lv_tabview.c ****     }
 432:lvgl\src\lv_widgets/lv_tabview.c **** #endif
 433:lvgl\src\lv_widgets/lv_tabview.c **** 
 434:lvgl\src\lv_widgets/lv_tabview.c ****     lv_btnmatrix_set_btn_ctrl(ext->btns, ext->tab_cur, LV_BTNMATRIX_CTRL_CHECK_STATE);
 435:lvgl\src\lv_widgets/lv_tabview.c **** }
 436:lvgl\src\lv_widgets/lv_tabview.c **** 
 437:lvgl\src\lv_widgets/lv_tabview.c **** /**
 438:lvgl\src\lv_widgets/lv_tabview.c ****  * Set the name of a tab.
 439:lvgl\src\lv_widgets/lv_tabview.c ****  * @param tabview pointer to Tab view object
 440:lvgl\src\lv_widgets/lv_tabview.c ****  * @param id index of the tab the name should be set
 441:lvgl\src\lv_widgets/lv_tabview.c ****  * @param name new tab name
 442:lvgl\src\lv_widgets/lv_tabview.c ****  */
 443:lvgl\src\lv_widgets/lv_tabview.c **** void lv_tabview_set_tab_name(lv_obj_t * tabview, uint16_t id, char * name)
 444:lvgl\src\lv_widgets/lv_tabview.c **** {
 445:lvgl\src\lv_widgets/lv_tabview.c ****     LV_ASSERT_OBJ(tabview, LV_OBJX_NAME);
 446:lvgl\src\lv_widgets/lv_tabview.c **** 
 447:lvgl\src\lv_widgets/lv_tabview.c ****     /* get tabview's ext pointer which contains the tab name pointer list */
 448:lvgl\src\lv_widgets/lv_tabview.c ****     lv_tabview_ext_t * ext = lv_obj_get_ext_attr(tabview);
 449:lvgl\src\lv_widgets/lv_tabview.c **** 
 450:lvgl\src\lv_widgets/lv_tabview.c ****     /* check for valid tab index */
 451:lvgl\src\lv_widgets/lv_tabview.c ****     if(ext->tab_cnt > id) {
 452:lvgl\src\lv_widgets/lv_tabview.c ****         /* reallocate memory for new tab name (use reallocate due to mostly the size didn't change 
 453:lvgl\src\lv_widgets/lv_tabview.c ****         char * str = lv_mem_realloc((void *)ext->tab_name_ptr[id], strlen(name) + 1);
 454:lvgl\src\lv_widgets/lv_tabview.c ****         LV_ASSERT_MEM(str);
 455:lvgl\src\lv_widgets/lv_tabview.c **** 
 456:lvgl\src\lv_widgets/lv_tabview.c ****         /* store new tab name at allocated memory */
 457:lvgl\src\lv_widgets/lv_tabview.c ****         strcpy(str, name);
 458:lvgl\src\lv_widgets/lv_tabview.c ****         /* update pointer  */
 459:lvgl\src\lv_widgets/lv_tabview.c ****         ext->tab_name_ptr[id] = str;
 460:lvgl\src\lv_widgets/lv_tabview.c **** 
 461:lvgl\src\lv_widgets/lv_tabview.c ****         /* force redrawing of the tab headers */
 462:lvgl\src\lv_widgets/lv_tabview.c ****         lv_obj_invalidate(ext->btns);
 463:lvgl\src\lv_widgets/lv_tabview.c ****     }
 464:lvgl\src\lv_widgets/lv_tabview.c **** }
 465:lvgl\src\lv_widgets/lv_tabview.c **** 
 466:lvgl\src\lv_widgets/lv_tabview.c **** /**
 467:lvgl\src\lv_widgets/lv_tabview.c ****  * Set the animation time of tab view when a new tab is loaded
 468:lvgl\src\lv_widgets/lv_tabview.c ****  * @param tabview pointer to Tab view object
 469:lvgl\src\lv_widgets/lv_tabview.c ****  * @param anim_time_ms time of animation in milliseconds
 470:lvgl\src\lv_widgets/lv_tabview.c ****  */
 471:lvgl\src\lv_widgets/lv_tabview.c **** void lv_tabview_set_anim_time(lv_obj_t * tabview, uint16_t anim_time)
 472:lvgl\src\lv_widgets/lv_tabview.c **** {
 473:lvgl\src\lv_widgets/lv_tabview.c ****     LV_ASSERT_OBJ(tabview, LV_OBJX_NAME);
 474:lvgl\src\lv_widgets/lv_tabview.c **** 
 475:lvgl\src\lv_widgets/lv_tabview.c **** #if LV_USE_ANIMATION
 476:lvgl\src\lv_widgets/lv_tabview.c ****     lv_tabview_ext_t * ext = lv_obj_get_ext_attr(tabview);
 477:lvgl\src\lv_widgets/lv_tabview.c ****     ext->anim_time         = anim_time;
 478:lvgl\src\lv_widgets/lv_tabview.c **** #else
 479:lvgl\src\lv_widgets/lv_tabview.c ****     (void)tabview;
 480:lvgl\src\lv_widgets/lv_tabview.c ****     (void)anim_time;
 481:lvgl\src\lv_widgets/lv_tabview.c **** #endif
 482:lvgl\src\lv_widgets/lv_tabview.c **** }
 483:lvgl\src\lv_widgets/lv_tabview.c **** 
 484:lvgl\src\lv_widgets/lv_tabview.c **** /**
 485:lvgl\src\lv_widgets/lv_tabview.c ****  * Set the position of tab select buttons
 486:lvgl\src\lv_widgets/lv_tabview.c ****  * @param tabview pointer to a tan view object
 487:lvgl\src\lv_widgets/lv_tabview.c ****  * @param btns_pos which button position
ARM GAS  C:\Users\strap\AppData\Local\Temp\ccTzHSZB.s 			page 10


 488:lvgl\src\lv_widgets/lv_tabview.c ****  */
 489:lvgl\src\lv_widgets/lv_tabview.c **** void lv_tabview_set_btns_pos(lv_obj_t * tabview, lv_tabview_btns_pos_t btns_pos)
 490:lvgl\src\lv_widgets/lv_tabview.c **** {
 491:lvgl\src\lv_widgets/lv_tabview.c ****     if(btns_pos != LV_TABVIEW_TAB_POS_NONE &&
 492:lvgl\src\lv_widgets/lv_tabview.c ****        btns_pos != LV_TABVIEW_TAB_POS_TOP &&
 493:lvgl\src\lv_widgets/lv_tabview.c ****        btns_pos != LV_TABVIEW_TAB_POS_BOTTOM &&
 494:lvgl\src\lv_widgets/lv_tabview.c ****        btns_pos != LV_TABVIEW_TAB_POS_LEFT &&
 495:lvgl\src\lv_widgets/lv_tabview.c ****        btns_pos != LV_TABVIEW_TAB_POS_RIGHT) {
 496:lvgl\src\lv_widgets/lv_tabview.c ****         LV_LOG_WARN("lv_tabview_set_btns_pos: unexpected button position");
 497:lvgl\src\lv_widgets/lv_tabview.c ****         return;
 498:lvgl\src\lv_widgets/lv_tabview.c ****     }
 499:lvgl\src\lv_widgets/lv_tabview.c ****     LV_ASSERT_OBJ(tabview, LV_OBJX_NAME);
 500:lvgl\src\lv_widgets/lv_tabview.c **** 
 501:lvgl\src\lv_widgets/lv_tabview.c ****     lv_tabview_ext_t * ext = lv_obj_get_ext_attr(tabview);
 502:lvgl\src\lv_widgets/lv_tabview.c **** 
 503:lvgl\src\lv_widgets/lv_tabview.c ****     ext->btns_pos = btns_pos;
 504:lvgl\src\lv_widgets/lv_tabview.c ****     tabview_realign(tabview);
 505:lvgl\src\lv_widgets/lv_tabview.c **** }
 506:lvgl\src\lv_widgets/lv_tabview.c **** 
 507:lvgl\src\lv_widgets/lv_tabview.c **** /*=====================
 508:lvgl\src\lv_widgets/lv_tabview.c ****  * Getter functions
 509:lvgl\src\lv_widgets/lv_tabview.c ****  *====================*/
 510:lvgl\src\lv_widgets/lv_tabview.c **** 
 511:lvgl\src\lv_widgets/lv_tabview.c **** /**
 512:lvgl\src\lv_widgets/lv_tabview.c ****  * Get the index of the currently active tab
 513:lvgl\src\lv_widgets/lv_tabview.c ****  * @param tabview pointer to Tab view object
 514:lvgl\src\lv_widgets/lv_tabview.c ****  * @return the active btn index
 515:lvgl\src\lv_widgets/lv_tabview.c ****  */
 516:lvgl\src\lv_widgets/lv_tabview.c **** uint16_t lv_tabview_get_tab_act(const lv_obj_t * tabview)
 517:lvgl\src\lv_widgets/lv_tabview.c **** {
 518:lvgl\src\lv_widgets/lv_tabview.c ****     LV_ASSERT_OBJ(tabview, LV_OBJX_NAME);
 519:lvgl\src\lv_widgets/lv_tabview.c **** 
 520:lvgl\src\lv_widgets/lv_tabview.c ****     lv_tabview_ext_t * ext = lv_obj_get_ext_attr(tabview);
 521:lvgl\src\lv_widgets/lv_tabview.c ****     return ext->tab_cur;
 522:lvgl\src\lv_widgets/lv_tabview.c **** }
 523:lvgl\src\lv_widgets/lv_tabview.c **** 
 524:lvgl\src\lv_widgets/lv_tabview.c **** /**
 525:lvgl\src\lv_widgets/lv_tabview.c ****  * Get the number of tabs
 526:lvgl\src\lv_widgets/lv_tabview.c ****  * @param tabview pointer to Tab view object
 527:lvgl\src\lv_widgets/lv_tabview.c ****  * @return btn count
 528:lvgl\src\lv_widgets/lv_tabview.c ****  */
 529:lvgl\src\lv_widgets/lv_tabview.c **** uint16_t lv_tabview_get_tab_count(const lv_obj_t * tabview)
 530:lvgl\src\lv_widgets/lv_tabview.c **** {
 531:lvgl\src\lv_widgets/lv_tabview.c ****     LV_ASSERT_OBJ(tabview, LV_OBJX_NAME);
 532:lvgl\src\lv_widgets/lv_tabview.c **** 
 533:lvgl\src\lv_widgets/lv_tabview.c ****     lv_tabview_ext_t * ext = lv_obj_get_ext_attr(tabview);
 534:lvgl\src\lv_widgets/lv_tabview.c ****     return ext->tab_cnt;
 535:lvgl\src\lv_widgets/lv_tabview.c **** }
 536:lvgl\src\lv_widgets/lv_tabview.c **** 
 537:lvgl\src\lv_widgets/lv_tabview.c **** /**
 538:lvgl\src\lv_widgets/lv_tabview.c ****  * Get the page (content area) of a tab
 539:lvgl\src\lv_widgets/lv_tabview.c ****  * @param tabview pointer to Tab view object
 540:lvgl\src\lv_widgets/lv_tabview.c ****  * @param id index of the btn (>= 0)
 541:lvgl\src\lv_widgets/lv_tabview.c ****  * @return pointer to page (lv_page) object
 542:lvgl\src\lv_widgets/lv_tabview.c ****  */
 543:lvgl\src\lv_widgets/lv_tabview.c **** lv_obj_t * lv_tabview_get_tab(const lv_obj_t * tabview, uint16_t id)
 544:lvgl\src\lv_widgets/lv_tabview.c **** {
ARM GAS  C:\Users\strap\AppData\Local\Temp\ccTzHSZB.s 			page 11


 545:lvgl\src\lv_widgets/lv_tabview.c ****     LV_ASSERT_OBJ(tabview, LV_OBJX_NAME);
 546:lvgl\src\lv_widgets/lv_tabview.c **** 
 547:lvgl\src\lv_widgets/lv_tabview.c ****     lv_tabview_ext_t * ext = lv_obj_get_ext_attr(tabview);
 548:lvgl\src\lv_widgets/lv_tabview.c ****     lv_obj_t * content_scrl = lv_page_get_scrollable(ext->content);
 549:lvgl\src\lv_widgets/lv_tabview.c ****     uint16_t i             = 0;
 550:lvgl\src\lv_widgets/lv_tabview.c ****     lv_obj_t * page        = lv_obj_get_child_back(content_scrl, NULL);
 551:lvgl\src\lv_widgets/lv_tabview.c **** 
 552:lvgl\src\lv_widgets/lv_tabview.c ****     while(page != NULL && i != id) {
 553:lvgl\src\lv_widgets/lv_tabview.c ****         if(lv_obj_get_signal_cb(page) == page_signal) i++;
 554:lvgl\src\lv_widgets/lv_tabview.c ****         page = lv_obj_get_child_back(content_scrl, page);
 555:lvgl\src\lv_widgets/lv_tabview.c ****     }
 556:lvgl\src\lv_widgets/lv_tabview.c **** 
 557:lvgl\src\lv_widgets/lv_tabview.c ****     if(i == id) return page;
 558:lvgl\src\lv_widgets/lv_tabview.c **** 
 559:lvgl\src\lv_widgets/lv_tabview.c ****     return NULL;
 560:lvgl\src\lv_widgets/lv_tabview.c **** }
 561:lvgl\src\lv_widgets/lv_tabview.c **** 
 562:lvgl\src\lv_widgets/lv_tabview.c **** /**
 563:lvgl\src\lv_widgets/lv_tabview.c ****  * Get the animation time of tab view when a new tab is loaded
 564:lvgl\src\lv_widgets/lv_tabview.c ****  * @param tabview pointer to Tab view object
 565:lvgl\src\lv_widgets/lv_tabview.c ****  * @return time of animation in milliseconds
 566:lvgl\src\lv_widgets/lv_tabview.c ****  */
 567:lvgl\src\lv_widgets/lv_tabview.c **** uint16_t lv_tabview_get_anim_time(const lv_obj_t * tabview)
 568:lvgl\src\lv_widgets/lv_tabview.c **** {
 569:lvgl\src\lv_widgets/lv_tabview.c ****     LV_ASSERT_OBJ(tabview, LV_OBJX_NAME);
 570:lvgl\src\lv_widgets/lv_tabview.c **** 
 571:lvgl\src\lv_widgets/lv_tabview.c **** #if LV_USE_ANIMATION
 572:lvgl\src\lv_widgets/lv_tabview.c ****     lv_tabview_ext_t * ext = lv_obj_get_ext_attr(tabview);
 573:lvgl\src\lv_widgets/lv_tabview.c ****     return ext->anim_time;
 574:lvgl\src\lv_widgets/lv_tabview.c **** #else
 575:lvgl\src\lv_widgets/lv_tabview.c ****     (void)tabview;
 576:lvgl\src\lv_widgets/lv_tabview.c ****     return 0;
 577:lvgl\src\lv_widgets/lv_tabview.c **** #endif
 578:lvgl\src\lv_widgets/lv_tabview.c **** }
 579:lvgl\src\lv_widgets/lv_tabview.c **** 
 580:lvgl\src\lv_widgets/lv_tabview.c **** /**
 581:lvgl\src\lv_widgets/lv_tabview.c ****  * Get position of tab select buttons
 582:lvgl\src\lv_widgets/lv_tabview.c ****  * @param tabview pointer to a ab view object
 583:lvgl\src\lv_widgets/lv_tabview.c ****  */
 584:lvgl\src\lv_widgets/lv_tabview.c **** lv_tabview_btns_pos_t lv_tabview_get_btns_pos(const lv_obj_t * tabview)
 585:lvgl\src\lv_widgets/lv_tabview.c **** {
 586:lvgl\src\lv_widgets/lv_tabview.c ****     LV_ASSERT_OBJ(tabview, LV_OBJX_NAME);
 587:lvgl\src\lv_widgets/lv_tabview.c **** 
 588:lvgl\src\lv_widgets/lv_tabview.c ****     lv_tabview_ext_t * ext = lv_obj_get_ext_attr(tabview);
 589:lvgl\src\lv_widgets/lv_tabview.c ****     return ext->btns_pos;
 590:lvgl\src\lv_widgets/lv_tabview.c **** }
 591:lvgl\src\lv_widgets/lv_tabview.c **** 
 592:lvgl\src\lv_widgets/lv_tabview.c **** /**********************
 593:lvgl\src\lv_widgets/lv_tabview.c ****  *   STATIC FUNCTIONS
 594:lvgl\src\lv_widgets/lv_tabview.c ****  **********************/
 595:lvgl\src\lv_widgets/lv_tabview.c **** 
 596:lvgl\src\lv_widgets/lv_tabview.c **** /**
 597:lvgl\src\lv_widgets/lv_tabview.c ****  * Signal function of the Tab view
 598:lvgl\src\lv_widgets/lv_tabview.c ****  * @param tabview pointer to a Tab view object
 599:lvgl\src\lv_widgets/lv_tabview.c ****  * @param sign a signal type from lv_signal_t enum
 600:lvgl\src\lv_widgets/lv_tabview.c ****  * @param param pointer to a signal specific variable
 601:lvgl\src\lv_widgets/lv_tabview.c ****  * @return LV_RES_OK: the object is not deleted in the function; LV_RES_INV: the object is deleted
ARM GAS  C:\Users\strap\AppData\Local\Temp\ccTzHSZB.s 			page 12


 602:lvgl\src\lv_widgets/lv_tabview.c ****  */
 603:lvgl\src\lv_widgets/lv_tabview.c **** static lv_res_t lv_tabview_signal(lv_obj_t * tabview, lv_signal_t sign, void * param)
 604:lvgl\src\lv_widgets/lv_tabview.c **** {
 605:lvgl\src\lv_widgets/lv_tabview.c ****     lv_res_t res;
 606:lvgl\src\lv_widgets/lv_tabview.c ****     if(sign == LV_SIGNAL_GET_STYLE) {
 607:lvgl\src\lv_widgets/lv_tabview.c ****         lv_get_style_info_t * info = param;
 608:lvgl\src\lv_widgets/lv_tabview.c ****         info->result = lv_tabview_get_style(tabview, info->part);
 609:lvgl\src\lv_widgets/lv_tabview.c ****         if(info->result != NULL) return LV_RES_OK;
 610:lvgl\src\lv_widgets/lv_tabview.c ****         else return ancestor_signal(tabview, sign, param);
 611:lvgl\src\lv_widgets/lv_tabview.c ****     }
 612:lvgl\src\lv_widgets/lv_tabview.c ****     else if(sign == LV_SIGNAL_GET_STATE_DSC) {
 613:lvgl\src\lv_widgets/lv_tabview.c ****         lv_tabview_ext_t * ext = lv_obj_get_ext_attr(tabview);
 614:lvgl\src\lv_widgets/lv_tabview.c ****         lv_get_state_info_t * info = param;
 615:lvgl\src\lv_widgets/lv_tabview.c ****         if(info->part == LV_TABVIEW_PART_TAB_BG) info->result = lv_obj_get_state(ext->btns, LV_BTNM
 616:lvgl\src\lv_widgets/lv_tabview.c ****         else if(info->part == LV_TABVIEW_PART_TAB_BTN) info->result = lv_obj_get_state(ext->btns, L
 617:lvgl\src\lv_widgets/lv_tabview.c ****         else if(info->part == LV_TABVIEW_PART_INDIC) info->result = lv_obj_get_state(ext->indic, LV
 618:lvgl\src\lv_widgets/lv_tabview.c ****         else if(info->part == LV_TABVIEW_PART_BG_SCRLLABLE) info->result = lv_obj_get_state(ext->co
 619:lvgl\src\lv_widgets/lv_tabview.c ****                                                                                                 LV_
 620:lvgl\src\lv_widgets/lv_tabview.c ****         return LV_RES_OK;
 621:lvgl\src\lv_widgets/lv_tabview.c ****     }
 622:lvgl\src\lv_widgets/lv_tabview.c **** 
 623:lvgl\src\lv_widgets/lv_tabview.c ****     /* Include the ancient signal function */
 624:lvgl\src\lv_widgets/lv_tabview.c ****     res = ancestor_signal(tabview, sign, param);
 625:lvgl\src\lv_widgets/lv_tabview.c ****     if(res != LV_RES_OK) return res;
 626:lvgl\src\lv_widgets/lv_tabview.c ****     if(sign == LV_SIGNAL_GET_TYPE) return lv_obj_handle_get_type_signal(param, LV_OBJX_NAME);
 627:lvgl\src\lv_widgets/lv_tabview.c **** 
 628:lvgl\src\lv_widgets/lv_tabview.c ****     lv_tabview_ext_t * ext = lv_obj_get_ext_attr(tabview);
 629:lvgl\src\lv_widgets/lv_tabview.c ****     if(sign == LV_SIGNAL_CLEANUP) {
 630:lvgl\src\lv_widgets/lv_tabview.c ****         uint8_t i;
 631:lvgl\src\lv_widgets/lv_tabview.c ****         for(i = 0; ext->tab_name_ptr[i][0] != '\0' && ext->tab_name_ptr[i][0] != '\n'; i++) lv_mem_
 632:lvgl\src\lv_widgets/lv_tabview.c **** 
 633:lvgl\src\lv_widgets/lv_tabview.c ****         lv_mem_free(ext->tab_name_ptr);
 634:lvgl\src\lv_widgets/lv_tabview.c ****         ext->tab_name_ptr = NULL;
 635:lvgl\src\lv_widgets/lv_tabview.c ****         ext->btns         = NULL; /*These objects were children so they are already invalid*/
 636:lvgl\src\lv_widgets/lv_tabview.c ****         ext->content      = NULL;
 637:lvgl\src\lv_widgets/lv_tabview.c ****     }
 638:lvgl\src\lv_widgets/lv_tabview.c ****     else if(sign == LV_SIGNAL_STYLE_CHG) {
 639:lvgl\src\lv_widgets/lv_tabview.c ****         /*Be sure the buttons are updated because correct button size is required in `tabview_reali
 640:lvgl\src\lv_widgets/lv_tabview.c ****         lv_signal_send(ext->btns, LV_SIGNAL_STYLE_CHG, NULL);
 641:lvgl\src\lv_widgets/lv_tabview.c **** 
 642:lvgl\src\lv_widgets/lv_tabview.c ****         tabview_realign(tabview);
 643:lvgl\src\lv_widgets/lv_tabview.c ****     }
 644:lvgl\src\lv_widgets/lv_tabview.c ****     else if(sign == LV_SIGNAL_COORD_CHG) {
 645:lvgl\src\lv_widgets/lv_tabview.c ****         if(ext->content != NULL && (lv_obj_get_width(tabview) != lv_area_get_width(param) ||
 646:lvgl\src\lv_widgets/lv_tabview.c ****                                     lv_obj_get_height(tabview) != lv_area_get_height(param))) {
 647:lvgl\src\lv_widgets/lv_tabview.c ****             tabview_realign(tabview);
 648:lvgl\src\lv_widgets/lv_tabview.c ****         }
 649:lvgl\src\lv_widgets/lv_tabview.c ****     }
 650:lvgl\src\lv_widgets/lv_tabview.c ****     else if(sign == LV_SIGNAL_RELEASED) {
 651:lvgl\src\lv_widgets/lv_tabview.c **** #if LV_USE_GROUP
 652:lvgl\src\lv_widgets/lv_tabview.c ****         /*If released by a KEYPAD or ENCODER then really the tab buttons should be released.
 653:lvgl\src\lv_widgets/lv_tabview.c ****          * So simulate a CLICK on the tab buttons*/
 654:lvgl\src\lv_widgets/lv_tabview.c ****         lv_indev_t * indev         = lv_indev_get_act();
 655:lvgl\src\lv_widgets/lv_tabview.c ****         lv_indev_type_t indev_type = lv_indev_get_type(indev);
 656:lvgl\src\lv_widgets/lv_tabview.c ****         if(indev_type == LV_INDEV_TYPE_KEYPAD ||
 657:lvgl\src\lv_widgets/lv_tabview.c ****            (indev_type == LV_INDEV_TYPE_ENCODER && lv_group_get_editing(lv_obj_get_group(tabview)))
 658:lvgl\src\lv_widgets/lv_tabview.c ****             lv_event_send(ext->btns, LV_EVENT_CLICKED, lv_event_get_data());
ARM GAS  C:\Users\strap\AppData\Local\Temp\ccTzHSZB.s 			page 13


 659:lvgl\src\lv_widgets/lv_tabview.c ****         }
 660:lvgl\src\lv_widgets/lv_tabview.c **** #endif
 661:lvgl\src\lv_widgets/lv_tabview.c ****     }
 662:lvgl\src\lv_widgets/lv_tabview.c ****     else if(sign == LV_SIGNAL_GET_EDITABLE) {
 663:lvgl\src\lv_widgets/lv_tabview.c **** #if LV_USE_GROUP
 664:lvgl\src\lv_widgets/lv_tabview.c ****         bool * editable = (bool *)param;
 665:lvgl\src\lv_widgets/lv_tabview.c ****         *editable       = true;
 666:lvgl\src\lv_widgets/lv_tabview.c **** #endif
 667:lvgl\src\lv_widgets/lv_tabview.c ****     }
 668:lvgl\src\lv_widgets/lv_tabview.c **** 
 669:lvgl\src\lv_widgets/lv_tabview.c ****     if(sign == LV_SIGNAL_FOCUS || sign == LV_SIGNAL_DEFOCUS ||
 670:lvgl\src\lv_widgets/lv_tabview.c **** #if LV_USE_GROUP
 671:lvgl\src\lv_widgets/lv_tabview.c ****        sign == LV_SIGNAL_CONTROL ||
 672:lvgl\src\lv_widgets/lv_tabview.c **** #endif
 673:lvgl\src\lv_widgets/lv_tabview.c ****        sign == LV_SIGNAL_PRESSED || sign == LV_SIGNAL_RELEASED) {
 674:lvgl\src\lv_widgets/lv_tabview.c **** 
 675:lvgl\src\lv_widgets/lv_tabview.c ****         /* The button matrix is not in a group (the tab view is in it) but it should handle the
 676:lvgl\src\lv_widgets/lv_tabview.c ****          * group signals. So propagate the related signals to the button matrix manually*/
 677:lvgl\src\lv_widgets/lv_tabview.c ****         ext->btns->signal_cb(ext->btns, sign, param);
 678:lvgl\src\lv_widgets/lv_tabview.c **** 
 679:lvgl\src\lv_widgets/lv_tabview.c ****         /*Make the active tab's button focused*/
 680:lvgl\src\lv_widgets/lv_tabview.c ****         if(sign == LV_SIGNAL_FOCUS) {
 681:lvgl\src\lv_widgets/lv_tabview.c ****             lv_btnmatrix_set_focused_btn(ext->btns, ext->tab_cur);
 682:lvgl\src\lv_widgets/lv_tabview.c ****         }
 683:lvgl\src\lv_widgets/lv_tabview.c **** 
 684:lvgl\src\lv_widgets/lv_tabview.c ****         if(sign == LV_SIGNAL_FOCUS || sign == LV_SIGNAL_DEFOCUS) {
 685:lvgl\src\lv_widgets/lv_tabview.c ****             lv_state_t state = lv_obj_get_state(tabview, LV_TABVIEW_PART_BG);
 686:lvgl\src\lv_widgets/lv_tabview.c ****             if(state & LV_STATE_FOCUSED) {
 687:lvgl\src\lv_widgets/lv_tabview.c ****                 lv_obj_set_state(ext->btns, LV_STATE_FOCUSED);
 688:lvgl\src\lv_widgets/lv_tabview.c ****                 lv_obj_set_state(ext->indic, LV_STATE_FOCUSED);
 689:lvgl\src\lv_widgets/lv_tabview.c ****             }
 690:lvgl\src\lv_widgets/lv_tabview.c ****             else {
 691:lvgl\src\lv_widgets/lv_tabview.c ****                 lv_obj_clear_state(ext->btns, LV_STATE_FOCUSED);
 692:lvgl\src\lv_widgets/lv_tabview.c ****                 lv_obj_clear_state(ext->indic, LV_STATE_FOCUSED);
 693:lvgl\src\lv_widgets/lv_tabview.c **** 
 694:lvgl\src\lv_widgets/lv_tabview.c ****             }
 695:lvgl\src\lv_widgets/lv_tabview.c ****             if(state & LV_STATE_EDITED) {
 696:lvgl\src\lv_widgets/lv_tabview.c ****                 lv_obj_set_state(ext->btns, LV_STATE_EDITED);
 697:lvgl\src\lv_widgets/lv_tabview.c ****                 lv_obj_set_state(ext->indic, LV_STATE_EDITED);
 698:lvgl\src\lv_widgets/lv_tabview.c ****             }
 699:lvgl\src\lv_widgets/lv_tabview.c ****             else {
 700:lvgl\src\lv_widgets/lv_tabview.c ****                 lv_obj_clear_state(ext->btns, LV_STATE_EDITED);
 701:lvgl\src\lv_widgets/lv_tabview.c ****                 lv_obj_clear_state(ext->indic, LV_STATE_EDITED);
 702:lvgl\src\lv_widgets/lv_tabview.c **** 
 703:lvgl\src\lv_widgets/lv_tabview.c ****             }
 704:lvgl\src\lv_widgets/lv_tabview.c ****         }
 705:lvgl\src\lv_widgets/lv_tabview.c ****     }
 706:lvgl\src\lv_widgets/lv_tabview.c **** 
 707:lvgl\src\lv_widgets/lv_tabview.c ****     return res;
 708:lvgl\src\lv_widgets/lv_tabview.c **** }
 709:lvgl\src\lv_widgets/lv_tabview.c **** 
 710:lvgl\src\lv_widgets/lv_tabview.c **** /**
 711:lvgl\src\lv_widgets/lv_tabview.c ****  * Signal function of a tab views main scrollable area
 712:lvgl\src\lv_widgets/lv_tabview.c ****  * @param tab pointer to a tab page object
 713:lvgl\src\lv_widgets/lv_tabview.c ****  * @param sign a signal type from lv_signal_t enum
 714:lvgl\src\lv_widgets/lv_tabview.c ****  * @param param pointer to a signal specific variable
 715:lvgl\src\lv_widgets/lv_tabview.c ****  * @return LV_RES_OK: the object is not deleted in the function; LV_RES_INV: the object is deleted
ARM GAS  C:\Users\strap\AppData\Local\Temp\ccTzHSZB.s 			page 14


 716:lvgl\src\lv_widgets/lv_tabview.c ****  */
 717:lvgl\src\lv_widgets/lv_tabview.c **** static lv_res_t tabview_scrl_signal(lv_obj_t * tabview_scrl, lv_signal_t sign, void * param)
 718:lvgl\src\lv_widgets/lv_tabview.c **** {
 719:lvgl\src\lv_widgets/lv_tabview.c ****     lv_res_t res;
 720:lvgl\src\lv_widgets/lv_tabview.c **** 
 721:lvgl\src\lv_widgets/lv_tabview.c ****     /* Include the ancient signal function */
 722:lvgl\src\lv_widgets/lv_tabview.c ****     res = ancestor_scrl_signal(tabview_scrl, sign, param);
 723:lvgl\src\lv_widgets/lv_tabview.c ****     if(res != LV_RES_OK) return res;
 724:lvgl\src\lv_widgets/lv_tabview.c ****     if(sign == LV_SIGNAL_GET_TYPE) return lv_obj_handle_get_type_signal(param, "");
 725:lvgl\src\lv_widgets/lv_tabview.c **** 
 726:lvgl\src\lv_widgets/lv_tabview.c ****     lv_obj_t * cont    = lv_obj_get_parent(tabview_scrl);
 727:lvgl\src\lv_widgets/lv_tabview.c ****     lv_obj_t * tabview = lv_obj_get_parent(cont);
 728:lvgl\src\lv_widgets/lv_tabview.c **** 
 729:lvgl\src\lv_widgets/lv_tabview.c ****     if(sign == LV_SIGNAL_DRAG_THROW_BEGIN) {
 730:lvgl\src\lv_widgets/lv_tabview.c ****         lv_tabview_ext_t * ext = lv_obj_get_ext_attr(tabview);
 731:lvgl\src\lv_widgets/lv_tabview.c **** 
 732:lvgl\src\lv_widgets/lv_tabview.c ****         lv_indev_t * indev = lv_indev_get_act();
 733:lvgl\src\lv_widgets/lv_tabview.c ****         lv_point_t point_act;
 734:lvgl\src\lv_widgets/lv_tabview.c ****         lv_indev_get_point(indev, &point_act);
 735:lvgl\src\lv_widgets/lv_tabview.c ****         lv_point_t vect;
 736:lvgl\src\lv_widgets/lv_tabview.c ****         lv_indev_get_vect(indev, &vect);
 737:lvgl\src\lv_widgets/lv_tabview.c ****         lv_coord_t x_predict = 0;
 738:lvgl\src\lv_widgets/lv_tabview.c **** 
 739:lvgl\src\lv_widgets/lv_tabview.c ****         while(vect.x != 0) {
 740:lvgl\src\lv_widgets/lv_tabview.c ****             x_predict += vect.x;
 741:lvgl\src\lv_widgets/lv_tabview.c ****             vect.x = vect.x * (100 - LV_INDEV_DEF_DRAG_THROW) / 100;
 742:lvgl\src\lv_widgets/lv_tabview.c ****         }
 743:lvgl\src\lv_widgets/lv_tabview.c **** 
 744:lvgl\src\lv_widgets/lv_tabview.c ****         res = lv_indev_finish_drag(indev);
 745:lvgl\src\lv_widgets/lv_tabview.c ****         if(res != LV_RES_OK) return res;
 746:lvgl\src\lv_widgets/lv_tabview.c ****         lv_obj_t * tab_page = lv_tabview_get_tab(tabview, ext->tab_cur);
 747:lvgl\src\lv_widgets/lv_tabview.c ****         if(tab_page == NULL) return LV_RES_OK;
 748:lvgl\src\lv_widgets/lv_tabview.c ****         lv_coord_t page_x1  = tab_page->coords.x1 - tabview->coords.x1 + x_predict;
 749:lvgl\src\lv_widgets/lv_tabview.c ****         lv_coord_t page_x2  = page_x1 + lv_obj_get_width(tabview);
 750:lvgl\src\lv_widgets/lv_tabview.c ****         lv_coord_t treshold = lv_obj_get_width(tabview) / 2;
 751:lvgl\src\lv_widgets/lv_tabview.c **** 
 752:lvgl\src\lv_widgets/lv_tabview.c ****         lv_bidi_dir_t base_dir = lv_obj_get_base_dir(tabview);
 753:lvgl\src\lv_widgets/lv_tabview.c ****         int16_t tab_cur = ext->tab_cur;
 754:lvgl\src\lv_widgets/lv_tabview.c ****         if(page_x1 > treshold) {
 755:lvgl\src\lv_widgets/lv_tabview.c ****             if(base_dir != LV_BIDI_DIR_RTL) tab_cur--;
 756:lvgl\src\lv_widgets/lv_tabview.c ****             else tab_cur ++;
 757:lvgl\src\lv_widgets/lv_tabview.c ****         }
 758:lvgl\src\lv_widgets/lv_tabview.c ****         else if(page_x2 < treshold) {
 759:lvgl\src\lv_widgets/lv_tabview.c ****             if(base_dir != LV_BIDI_DIR_RTL) tab_cur++;
 760:lvgl\src\lv_widgets/lv_tabview.c ****             else tab_cur --;
 761:lvgl\src\lv_widgets/lv_tabview.c ****         }
 762:lvgl\src\lv_widgets/lv_tabview.c **** 
 763:lvgl\src\lv_widgets/lv_tabview.c ****         if(tab_cur > ext->tab_cnt - 1) tab_cur = ext->tab_cnt - 1;
 764:lvgl\src\lv_widgets/lv_tabview.c ****         if(tab_cur < 0) tab_cur = 0;
 765:lvgl\src\lv_widgets/lv_tabview.c **** 
 766:lvgl\src\lv_widgets/lv_tabview.c ****         uint32_t id_prev = lv_tabview_get_tab_act(tabview);
 767:lvgl\src\lv_widgets/lv_tabview.c ****         lv_tabview_set_tab_act(tabview, tab_cur, LV_ANIM_ON);
 768:lvgl\src\lv_widgets/lv_tabview.c ****         uint32_t id_new = lv_tabview_get_tab_act(tabview);
 769:lvgl\src\lv_widgets/lv_tabview.c **** 
 770:lvgl\src\lv_widgets/lv_tabview.c ****         if(id_prev != id_new) res = lv_event_send(tabview, LV_EVENT_VALUE_CHANGED, &id_prev);
 771:lvgl\src\lv_widgets/lv_tabview.c ****         if(res != LV_RES_OK) return res;
 772:lvgl\src\lv_widgets/lv_tabview.c **** 
ARM GAS  C:\Users\strap\AppData\Local\Temp\ccTzHSZB.s 			page 15


 773:lvgl\src\lv_widgets/lv_tabview.c ****     }
 774:lvgl\src\lv_widgets/lv_tabview.c ****     return res;
 775:lvgl\src\lv_widgets/lv_tabview.c **** }
 776:lvgl\src\lv_widgets/lv_tabview.c **** 
 777:lvgl\src\lv_widgets/lv_tabview.c **** /**
 778:lvgl\src\lv_widgets/lv_tabview.c ****  * Get the style descriptor of a part of the object
 779:lvgl\src\lv_widgets/lv_tabview.c ****  * @param page pointer the object
 780:lvgl\src\lv_widgets/lv_tabview.c ****  * @param part the part from `lv_tabview_part_t`. (LV_TABVIEW_PART_...)
 781:lvgl\src\lv_widgets/lv_tabview.c ****  * @return pointer to the style descriptor of the specified part
 782:lvgl\src\lv_widgets/lv_tabview.c ****  */
 783:lvgl\src\lv_widgets/lv_tabview.c **** static lv_style_list_t * lv_tabview_get_style(lv_obj_t * tabview, uint8_t part)
 784:lvgl\src\lv_widgets/lv_tabview.c **** {
  27              		.loc 1 784 0
  28              		.cfi_startproc
  29              		@ args = 0, pretend = 0, frame = 0
  30              		@ frame_needed = 0, uses_anonymous_args = 0
  31              	.LVL0:
  32 0000 38B5     		push	{r3, r4, r5, lr}
  33              		.cfi_def_cfa_offset 16
  34              		.cfi_offset 3, -16
  35              		.cfi_offset 4, -12
  36              		.cfi_offset 5, -8
  37              		.cfi_offset 14, -4
  38 0002 0446     		mov	r4, r0
  39 0004 0D46     		mov	r5, r1
 785:lvgl\src\lv_widgets/lv_tabview.c ****     LV_ASSERT_OBJ(tabview, LV_OBJX_NAME);
  40              		.loc 1 785 0
  41 0006 FFF7FEFF 		bl	lv_debug_check_null
  42              	.LVL1:
  43 000a 28B9     		cbnz	r0, .L2
  44              		.loc 1 785 0 is_stmt 0 discriminator 1
  45 000c 2246     		mov	r2, r4
  46 000e 0023     		movs	r3, #0
  47 0010 1548     		ldr	r0, .L13
  48 0012 FFF7FEFF 		bl	lv_debug_log_error
  49              	.LVL2:
  50              	.L3:
  51 0016 FEE7     		b	.L3
  52              	.L2:
 786:lvgl\src\lv_widgets/lv_tabview.c **** 
 787:lvgl\src\lv_widgets/lv_tabview.c ****     lv_tabview_ext_t * ext = lv_obj_get_ext_attr(tabview);
  53              		.loc 1 787 0 is_stmt 1
  54 0018 2046     		mov	r0, r4
  55 001a FFF7FEFF 		bl	lv_obj_get_ext_attr
  56              	.LVL3:
 788:lvgl\src\lv_widgets/lv_tabview.c ****     lv_style_list_t * style_dsc_p;
 789:lvgl\src\lv_widgets/lv_tabview.c **** 
 790:lvgl\src\lv_widgets/lv_tabview.c ****     switch(part) {
  57              		.loc 1 790 0
  58 001e 412D     		cmp	r5, #65
  59 0020 11D0     		beq	.L5
  60 0022 03D8     		bhi	.L6
  61 0024 3DB1     		cbz	r5, .L7
  62 0026 402D     		cmp	r5, #64
  63 0028 08D0     		beq	.L8
  64 002a 1BE0     		b	.L11
  65              	.L6:
ARM GAS  C:\Users\strap\AppData\Local\Temp\ccTzHSZB.s 			page 16


  66 002c 422D     		cmp	r5, #66
  67 002e 0FD0     		beq	.L9
  68 0030 432D     		cmp	r5, #67
  69 0032 12D0     		beq	.L10
  70 0034 16E0     		b	.L11
  71              	.L7:
 791:lvgl\src\lv_widgets/lv_tabview.c ****         case LV_TABVIEW_PART_BG:
 792:lvgl\src\lv_widgets/lv_tabview.c ****             style_dsc_p = &tabview->style_list;
  72              		.loc 1 792 0
  73 0036 04F12800 		add	r0, r4, #40
  74              	.LVL4:
 793:lvgl\src\lv_widgets/lv_tabview.c ****             break;
  75              		.loc 1 793 0
  76 003a 38BD     		pop	{r3, r4, r5, pc}
  77              	.LVL5:
  78              	.L8:
 794:lvgl\src\lv_widgets/lv_tabview.c ****         case LV_TABVIEW_PART_BG_SCRLLABLE:
 795:lvgl\src\lv_widgets/lv_tabview.c ****             style_dsc_p = lv_obj_get_style_list(ext->content, LV_PAGE_PART_SCROLLABLE);
  79              		.loc 1 795 0
  80 003c 4021     		movs	r1, #64
  81 003e 8068     		ldr	r0, [r0, #8]
  82              	.LVL6:
  83 0040 FFF7FEFF 		bl	lv_obj_get_style_list
  84              	.LVL7:
 796:lvgl\src\lv_widgets/lv_tabview.c ****             break;
  85              		.loc 1 796 0
  86 0044 38BD     		pop	{r3, r4, r5, pc}
  87              	.LVL8:
  88              	.L5:
 797:lvgl\src\lv_widgets/lv_tabview.c ****         case LV_TABVIEW_PART_TAB_BG:
 798:lvgl\src\lv_widgets/lv_tabview.c ****             style_dsc_p = lv_obj_get_style_list(ext->btns, LV_BTNMATRIX_PART_BG);
  89              		.loc 1 798 0
  90 0046 0021     		movs	r1, #0
  91 0048 0068     		ldr	r0, [r0]
  92              	.LVL9:
  93 004a FFF7FEFF 		bl	lv_obj_get_style_list
  94              	.LVL10:
 799:lvgl\src\lv_widgets/lv_tabview.c ****             break;
  95              		.loc 1 799 0
  96 004e 38BD     		pop	{r3, r4, r5, pc}
  97              	.LVL11:
  98              	.L9:
 800:lvgl\src\lv_widgets/lv_tabview.c ****         case LV_TABVIEW_PART_TAB_BTN:
 801:lvgl\src\lv_widgets/lv_tabview.c ****             style_dsc_p = lv_obj_get_style_list(ext->btns, LV_BTNMATRIX_PART_BTN);
  99              		.loc 1 801 0
 100 0050 0121     		movs	r1, #1
 101 0052 0068     		ldr	r0, [r0]
 102              	.LVL12:
 103 0054 FFF7FEFF 		bl	lv_obj_get_style_list
 104              	.LVL13:
 802:lvgl\src\lv_widgets/lv_tabview.c ****             break;
 105              		.loc 1 802 0
 106 0058 38BD     		pop	{r3, r4, r5, pc}
 107              	.LVL14:
 108              	.L10:
 803:lvgl\src\lv_widgets/lv_tabview.c ****         case LV_TABVIEW_PART_INDIC:
 804:lvgl\src\lv_widgets/lv_tabview.c ****             style_dsc_p = lv_obj_get_style_list(ext->indic, LV_OBJ_PART_MAIN);
ARM GAS  C:\Users\strap\AppData\Local\Temp\ccTzHSZB.s 			page 17


 109              		.loc 1 804 0
 110 005a 0021     		movs	r1, #0
 111 005c 4068     		ldr	r0, [r0, #4]
 112              	.LVL15:
 113 005e FFF7FEFF 		bl	lv_obj_get_style_list
 114              	.LVL16:
 805:lvgl\src\lv_widgets/lv_tabview.c ****             break;
 115              		.loc 1 805 0
 116 0062 38BD     		pop	{r3, r4, r5, pc}
 117              	.LVL17:
 118              	.L11:
 806:lvgl\src\lv_widgets/lv_tabview.c ****         default:
 807:lvgl\src\lv_widgets/lv_tabview.c ****             style_dsc_p = NULL;
 119              		.loc 1 807 0
 120 0064 0020     		movs	r0, #0
 121              	.LVL18:
 808:lvgl\src\lv_widgets/lv_tabview.c ****     }
 809:lvgl\src\lv_widgets/lv_tabview.c **** 
 810:lvgl\src\lv_widgets/lv_tabview.c ****     return style_dsc_p;
 811:lvgl\src\lv_widgets/lv_tabview.c **** }
 122              		.loc 1 811 0
 123 0066 38BD     		pop	{r3, r4, r5, pc}
 124              	.LVL19:
 125              	.L14:
 126              		.align	2
 127              	.L13:
 128 0068 00000000 		.word	.LC0
 129              		.cfi_endproc
 130              	.LFE371:
 131              		.size	lv_tabview_get_style, .-lv_tabview_get_style
 132              		.section	.text.refr_btns_size,"ax",%progbits
 133              		.align	2
 134              		.thumb
 135              		.thumb_func
 136              		.type	refr_btns_size, %function
 137              	refr_btns_size:
 138              	.LFB375:
 812:lvgl\src\lv_widgets/lv_tabview.c **** 
 813:lvgl\src\lv_widgets/lv_tabview.c **** 
 814:lvgl\src\lv_widgets/lv_tabview.c **** /**
 815:lvgl\src\lv_widgets/lv_tabview.c ****  * Called when a tab button is clicked
 816:lvgl\src\lv_widgets/lv_tabview.c ****  * @param tab_btnm pointer to the tab's button matrix object
 817:lvgl\src\lv_widgets/lv_tabview.c ****  * @param event type of the event
 818:lvgl\src\lv_widgets/lv_tabview.c ****  */
 819:lvgl\src\lv_widgets/lv_tabview.c **** static void tab_btnm_event_cb(lv_obj_t * tab_btnm, lv_event_t event)
 820:lvgl\src\lv_widgets/lv_tabview.c **** {
 821:lvgl\src\lv_widgets/lv_tabview.c ****     if(event != LV_EVENT_CLICKED) return;
 822:lvgl\src\lv_widgets/lv_tabview.c **** 
 823:lvgl\src\lv_widgets/lv_tabview.c ****     uint16_t btn_id = lv_btnmatrix_get_active_btn(tab_btnm);
 824:lvgl\src\lv_widgets/lv_tabview.c ****     if(btn_id == LV_BTNMATRIX_BTN_NONE) return;
 825:lvgl\src\lv_widgets/lv_tabview.c **** 
 826:lvgl\src\lv_widgets/lv_tabview.c ****     if(lv_btnmatrix_get_btn_ctrl(tab_btnm, btn_id, LV_BTNMATRIX_CTRL_DISABLED)) return;
 827:lvgl\src\lv_widgets/lv_tabview.c **** 
 828:lvgl\src\lv_widgets/lv_tabview.c ****     lv_btnmatrix_clear_btn_ctrl_all(tab_btnm, LV_BTNMATRIX_CTRL_CHECK_STATE);
 829:lvgl\src\lv_widgets/lv_tabview.c ****     lv_btnmatrix_set_btn_ctrl(tab_btnm, btn_id, LV_BTNMATRIX_CTRL_CHECK_STATE);
 830:lvgl\src\lv_widgets/lv_tabview.c **** 
 831:lvgl\src\lv_widgets/lv_tabview.c ****     lv_obj_t * tabview = lv_obj_get_parent(tab_btnm);
ARM GAS  C:\Users\strap\AppData\Local\Temp\ccTzHSZB.s 			page 18


 832:lvgl\src\lv_widgets/lv_tabview.c **** 
 833:lvgl\src\lv_widgets/lv_tabview.c ****     uint32_t id_prev = lv_tabview_get_tab_act(tabview);
 834:lvgl\src\lv_widgets/lv_tabview.c ****     lv_tabview_set_tab_act(tabview, btn_id, LV_ANIM_ON);
 835:lvgl\src\lv_widgets/lv_tabview.c ****     uint32_t id_new = lv_tabview_get_tab_act(tabview);
 836:lvgl\src\lv_widgets/lv_tabview.c **** 
 837:lvgl\src\lv_widgets/lv_tabview.c ****     lv_res_t res = LV_RES_OK;
 838:lvgl\src\lv_widgets/lv_tabview.c ****     if(id_prev != id_new) res = lv_event_send(tabview, LV_EVENT_VALUE_CHANGED, &id_new);
 839:lvgl\src\lv_widgets/lv_tabview.c **** 
 840:lvgl\src\lv_widgets/lv_tabview.c **** #if LV_USE_GROUP
 841:lvgl\src\lv_widgets/lv_tabview.c ****     if(lv_indev_get_type(lv_indev_get_act()) == LV_INDEV_TYPE_ENCODER) {
 842:lvgl\src\lv_widgets/lv_tabview.c ****         lv_group_set_editing(lv_obj_get_group(tabview), false);
 843:lvgl\src\lv_widgets/lv_tabview.c ****     }
 844:lvgl\src\lv_widgets/lv_tabview.c **** #endif
 845:lvgl\src\lv_widgets/lv_tabview.c **** 
 846:lvgl\src\lv_widgets/lv_tabview.c ****     if(res != LV_RES_OK) return;
 847:lvgl\src\lv_widgets/lv_tabview.c **** }
 848:lvgl\src\lv_widgets/lv_tabview.c **** 
 849:lvgl\src\lv_widgets/lv_tabview.c **** /**
 850:lvgl\src\lv_widgets/lv_tabview.c ****  * Realign and resize the elements of Tab view
 851:lvgl\src\lv_widgets/lv_tabview.c ****  * @param tabview pointer to a Tab view object
 852:lvgl\src\lv_widgets/lv_tabview.c ****  */
 853:lvgl\src\lv_widgets/lv_tabview.c **** static void tabview_realign(lv_obj_t * tabview)
 854:lvgl\src\lv_widgets/lv_tabview.c **** {
 855:lvgl\src\lv_widgets/lv_tabview.c ****     lv_tabview_ext_t * ext = lv_obj_get_ext_attr(tabview);
 856:lvgl\src\lv_widgets/lv_tabview.c **** 
 857:lvgl\src\lv_widgets/lv_tabview.c ****     refr_btns_size(tabview);
 858:lvgl\src\lv_widgets/lv_tabview.c ****     refr_content_size(tabview);
 859:lvgl\src\lv_widgets/lv_tabview.c ****     refr_indic_size(tabview);
 860:lvgl\src\lv_widgets/lv_tabview.c **** 
 861:lvgl\src\lv_widgets/lv_tabview.c ****     refr_align(tabview);
 862:lvgl\src\lv_widgets/lv_tabview.c **** 
 863:lvgl\src\lv_widgets/lv_tabview.c ****     lv_tabview_set_tab_act(tabview, ext->tab_cur, LV_ANIM_OFF);
 864:lvgl\src\lv_widgets/lv_tabview.c **** }
 865:lvgl\src\lv_widgets/lv_tabview.c **** 
 866:lvgl\src\lv_widgets/lv_tabview.c **** static void refr_indic_size(lv_obj_t * tabview)
 867:lvgl\src\lv_widgets/lv_tabview.c **** {
 868:lvgl\src\lv_widgets/lv_tabview.c ****     lv_tabview_ext_t * ext = lv_obj_get_ext_attr(tabview);
 869:lvgl\src\lv_widgets/lv_tabview.c ****     lv_btnmatrix_ext_t * btnm_ext = lv_obj_get_ext_attr(ext->btns);
 870:lvgl\src\lv_widgets/lv_tabview.c **** 
 871:lvgl\src\lv_widgets/lv_tabview.c ****     lv_coord_t indic_size = lv_obj_get_style_size(tabview, LV_TABVIEW_PART_INDIC);
 872:lvgl\src\lv_widgets/lv_tabview.c **** 
 873:lvgl\src\lv_widgets/lv_tabview.c ****     /*Set the indicator width/height*/
 874:lvgl\src\lv_widgets/lv_tabview.c ****     lv_coord_t indic_w;
 875:lvgl\src\lv_widgets/lv_tabview.c ****     lv_coord_t indic_h;
 876:lvgl\src\lv_widgets/lv_tabview.c **** 
 877:lvgl\src\lv_widgets/lv_tabview.c ****     switch(ext->btns_pos) {
 878:lvgl\src\lv_widgets/lv_tabview.c ****         default: /*default case is prevented in lv_tabview_set_btns_pos(), but here for safety*/
 879:lvgl\src\lv_widgets/lv_tabview.c ****         case LV_TABVIEW_TAB_POS_NONE:
 880:lvgl\src\lv_widgets/lv_tabview.c ****             lv_obj_set_hidden(ext->indic, true);
 881:lvgl\src\lv_widgets/lv_tabview.c ****             indic_w = 0;
 882:lvgl\src\lv_widgets/lv_tabview.c ****             indic_h = 0;
 883:lvgl\src\lv_widgets/lv_tabview.c ****             break;
 884:lvgl\src\lv_widgets/lv_tabview.c ****         case LV_TABVIEW_TAB_POS_TOP:
 885:lvgl\src\lv_widgets/lv_tabview.c ****         case LV_TABVIEW_TAB_POS_BOTTOM:
 886:lvgl\src\lv_widgets/lv_tabview.c ****             lv_obj_set_hidden(ext->indic, false);
 887:lvgl\src\lv_widgets/lv_tabview.c ****             if(ext->tab_cnt) {
 888:lvgl\src\lv_widgets/lv_tabview.c ****                 indic_h = indic_size;
ARM GAS  C:\Users\strap\AppData\Local\Temp\ccTzHSZB.s 			page 19


 889:lvgl\src\lv_widgets/lv_tabview.c ****                 indic_w = lv_area_get_width(&btnm_ext->button_areas[0]);
 890:lvgl\src\lv_widgets/lv_tabview.c ****             }
 891:lvgl\src\lv_widgets/lv_tabview.c ****             else {
 892:lvgl\src\lv_widgets/lv_tabview.c ****                 indic_w = 0;
 893:lvgl\src\lv_widgets/lv_tabview.c ****                 indic_h = 0;
 894:lvgl\src\lv_widgets/lv_tabview.c ****             }
 895:lvgl\src\lv_widgets/lv_tabview.c ****             break;
 896:lvgl\src\lv_widgets/lv_tabview.c ****         case LV_TABVIEW_TAB_POS_LEFT:
 897:lvgl\src\lv_widgets/lv_tabview.c ****         case LV_TABVIEW_TAB_POS_RIGHT:
 898:lvgl\src\lv_widgets/lv_tabview.c ****             lv_obj_set_hidden(ext->indic, false);
 899:lvgl\src\lv_widgets/lv_tabview.c ****             if(ext->tab_cnt) {
 900:lvgl\src\lv_widgets/lv_tabview.c ****                 indic_w = indic_size;
 901:lvgl\src\lv_widgets/lv_tabview.c ****                 indic_h = lv_area_get_height(&btnm_ext->button_areas[0]);
 902:lvgl\src\lv_widgets/lv_tabview.c ****             }
 903:lvgl\src\lv_widgets/lv_tabview.c ****             else {
 904:lvgl\src\lv_widgets/lv_tabview.c ****                 indic_w = 0;
 905:lvgl\src\lv_widgets/lv_tabview.c ****                 indic_h = 0;
 906:lvgl\src\lv_widgets/lv_tabview.c ****             }
 907:lvgl\src\lv_widgets/lv_tabview.c ****             break;
 908:lvgl\src\lv_widgets/lv_tabview.c ****     }
 909:lvgl\src\lv_widgets/lv_tabview.c **** 
 910:lvgl\src\lv_widgets/lv_tabview.c ****     lv_obj_set_width(ext->indic, indic_w);
 911:lvgl\src\lv_widgets/lv_tabview.c ****     lv_obj_set_height(ext->indic, indic_h);
 912:lvgl\src\lv_widgets/lv_tabview.c **** }
 913:lvgl\src\lv_widgets/lv_tabview.c **** 
 914:lvgl\src\lv_widgets/lv_tabview.c **** 
 915:lvgl\src\lv_widgets/lv_tabview.c **** static void refr_btns_size(lv_obj_t * tabview)
 916:lvgl\src\lv_widgets/lv_tabview.c **** {
 139              		.loc 1 916 0
 140              		.cfi_startproc
 141              		@ args = 0, pretend = 0, frame = 16
 142              		@ frame_needed = 0, uses_anonymous_args = 0
 143              	.LVL20:
 144 0000 2DE9F04F 		push	{r4, r5, r6, r7, r8, r9, r10, fp, lr}
 145              		.cfi_def_cfa_offset 36
 146              		.cfi_offset 4, -36
 147              		.cfi_offset 5, -32
 148              		.cfi_offset 6, -28
 149              		.cfi_offset 7, -24
 150              		.cfi_offset 8, -20
 151              		.cfi_offset 9, -16
 152              		.cfi_offset 10, -12
 153              		.cfi_offset 11, -8
 154              		.cfi_offset 14, -4
 155 0004 85B0     		sub	sp, sp, #20
 156              		.cfi_def_cfa_offset 56
 157 0006 0446     		mov	r4, r0
 917:lvgl\src\lv_widgets/lv_tabview.c ****     lv_tabview_ext_t * ext = lv_obj_get_ext_attr(tabview);
 158              		.loc 1 917 0
 159 0008 FFF7FEFF 		bl	lv_obj_get_ext_attr
 160              	.LVL21:
 161 000c 0646     		mov	r6, r0
 162              	.LVL22:
 163              	.LBB85:
 164              	.LBB86:
 165              		.file 2 "lvgl\\src\\lv_widgets\\../lv_core/lv_obj_style_dec.h"
   1:lvgl\src\lv_widgets\../lv_core/lv_obj_style_dec.h **** 
ARM GAS  C:\Users\strap\AppData\Local\Temp\ccTzHSZB.s 			page 20


   2:lvgl\src\lv_widgets\../lv_core/lv_obj_style_dec.h **** /**
   3:lvgl\src\lv_widgets\../lv_core/lv_obj_style_dec.h ****  * @file lv_obj_style_dec.h
   4:lvgl\src\lv_widgets\../lv_core/lv_obj_style_dec.h ****  *
   5:lvgl\src\lv_widgets\../lv_core/lv_obj_style_dec.h ****  */
   6:lvgl\src\lv_widgets\../lv_core/lv_obj_style_dec.h **** 
   7:lvgl\src\lv_widgets\../lv_core/lv_obj_style_dec.h **** #ifndef LV_OBJ_STYLE_DEC_H
   8:lvgl\src\lv_widgets\../lv_core/lv_obj_style_dec.h **** #define LV_OBJ_STYLE_DEC_H
   9:lvgl\src\lv_widgets\../lv_core/lv_obj_style_dec.h **** 
  10:lvgl\src\lv_widgets\../lv_core/lv_obj_style_dec.h **** #ifdef __cplusplus
  11:lvgl\src\lv_widgets\../lv_core/lv_obj_style_dec.h **** extern "C" {
  12:lvgl\src\lv_widgets\../lv_core/lv_obj_style_dec.h **** #endif
  13:lvgl\src\lv_widgets\../lv_core/lv_obj_style_dec.h **** 
  14:lvgl\src\lv_widgets\../lv_core/lv_obj_style_dec.h **** /*********************
  15:lvgl\src\lv_widgets\../lv_core/lv_obj_style_dec.h ****  *      DEFINES
  16:lvgl\src\lv_widgets\../lv_core/lv_obj_style_dec.h ****  *********************/
  17:lvgl\src\lv_widgets\../lv_core/lv_obj_style_dec.h **** 
  18:lvgl\src\lv_widgets\../lv_core/lv_obj_style_dec.h **** /**
  19:lvgl\src\lv_widgets\../lv_core/lv_obj_style_dec.h ****  * Macro to declare the most important style set/get API functions.
  20:lvgl\src\lv_widgets\../lv_core/lv_obj_style_dec.h ****  *
  21:lvgl\src\lv_widgets\../lv_core/lv_obj_style_dec.h ****  * Get the value of a style property from an object in the object's current state
  22:lvgl\src\lv_widgets\../lv_core/lv_obj_style_dec.h ****  * -----------------------------------------------------------------------------
  23:lvgl\src\lv_widgets\../lv_core/lv_obj_style_dec.h ****  *  - Get the value of a style property from an object in the object's current state.
  24:lvgl\src\lv_widgets\../lv_core/lv_obj_style_dec.h ****  *  - Transition animation is taken into account.
  25:lvgl\src\lv_widgets\../lv_core/lv_obj_style_dec.h ****  *  - If the property is not set in the object's styles check the parent(s) if the property can be 
  26:lvgl\src\lv_widgets\../lv_core/lv_obj_style_dec.h ****  *  - If still not found return a default value.
  27:lvgl\src\lv_widgets\../lv_core/lv_obj_style_dec.h ****  *  - For example:
  28:lvgl\src\lv_widgets\../lv_core/lv_obj_style_dec.h ****  *      `lv_style_int_t w = lv_obj_get_style_border_width(btn1, LV_BTN_PART_MAIN);`
  29:lvgl\src\lv_widgets\../lv_core/lv_obj_style_dec.h ****  *
  30:lvgl\src\lv_widgets\../lv_core/lv_obj_style_dec.h ****  * Set a local style property for an object in a given state
  31:lvgl\src\lv_widgets\../lv_core/lv_obj_style_dec.h ****  * ---------------------------------------------------------
  32:lvgl\src\lv_widgets\../lv_core/lv_obj_style_dec.h ****  *  - For example:
  33:lvgl\src\lv_widgets\../lv_core/lv_obj_style_dec.h ****  *      `lv_obj_set_style_local_border_width(btn1, LV_BTN_PART_MAIN, LV_STATE_PRESSED, 2);`
  34:lvgl\src\lv_widgets\../lv_core/lv_obj_style_dec.h ****  *
  35:lvgl\src\lv_widgets\../lv_core/lv_obj_style_dec.h ****  * Get a local style property's value of an object in a given state
  36:lvgl\src\lv_widgets\../lv_core/lv_obj_style_dec.h ****  * ----------------------------------------------------------------
  37:lvgl\src\lv_widgets\../lv_core/lv_obj_style_dec.h ****  *  - Return the best matching property in the given state.
  38:lvgl\src\lv_widgets\../lv_core/lv_obj_style_dec.h ****  *  - E.g. if `state` parameter is LV_STATE_PRESSED | LV_STATE_CHECKED` but the property defined on
  39:lvgl\src\lv_widgets\../lv_core/lv_obj_style_dec.h ****  *    `LV_STATE_PRESSED` and `LV_STATE_DEFAULT` the best matching state is `LV_STATE_PRESSED`
  40:lvgl\src\lv_widgets\../lv_core/lv_obj_style_dec.h ****  *    (because it has higher precedence) and it will be returned.
  41:lvgl\src\lv_widgets\../lv_core/lv_obj_style_dec.h ****  *  - If the property is not found even in `LV_STATE_DEFAULT` `-1` is returned.
  42:lvgl\src\lv_widgets\../lv_core/lv_obj_style_dec.h ****  *  - For example:
  43:lvgl\src\lv_widgets\../lv_core/lv_obj_style_dec.h ****  *      `//Type of result should be lv_style_int_t/lv_opa_t/lv_color_t/const void * according to th
  44:lvgl\src\lv_widgets\../lv_core/lv_obj_style_dec.h ****  *      `lv_style_int_t result;`
  45:lvgl\src\lv_widgets\../lv_core/lv_obj_style_dec.h ****  *      `lv_obj_get_style_local_border_width(btn1, LV_BTN_PART_MAIN, LV_STATE_PRESSED, &result);`
  46:lvgl\src\lv_widgets\../lv_core/lv_obj_style_dec.h ****  *      `if(weight > 0) ...the property is found and loaded into result...`
  47:lvgl\src\lv_widgets\../lv_core/lv_obj_style_dec.h ****  *
  48:lvgl\src\lv_widgets\../lv_core/lv_obj_style_dec.h ****  * Get the value from a style in a given state
  49:lvgl\src\lv_widgets\../lv_core/lv_obj_style_dec.h ****  * -------------------------------------------
  50:lvgl\src\lv_widgets\../lv_core/lv_obj_style_dec.h ****  * - The same rules applies to the return value then for "lv_obj_get_style_local_...()" above
  51:lvgl\src\lv_widgets\../lv_core/lv_obj_style_dec.h ****  * - For example
  52:lvgl\src\lv_widgets\../lv_core/lv_obj_style_dec.h ****  *      `int16_t weight = lv_style_get_border_width(&style1, LV_STATE_PRESSED, &result);`
  53:lvgl\src\lv_widgets\../lv_core/lv_obj_style_dec.h ****  *      `if(weight > 0) ...the property is found and loaded into result...`
  54:lvgl\src\lv_widgets\../lv_core/lv_obj_style_dec.h **** 
  55:lvgl\src\lv_widgets\../lv_core/lv_obj_style_dec.h ****  * Set a value in a style in a given state
  56:lvgl\src\lv_widgets\../lv_core/lv_obj_style_dec.h ****  * ---------------------------------------
  57:lvgl\src\lv_widgets\../lv_core/lv_obj_style_dec.h ****  * - For example
  58:lvgl\src\lv_widgets\../lv_core/lv_obj_style_dec.h ****  *      `lv_style_set_border_width(&style1, LV_STATE_PRESSED, 2);`
ARM GAS  C:\Users\strap\AppData\Local\Temp\ccTzHSZB.s 			page 21


  59:lvgl\src\lv_widgets\../lv_core/lv_obj_style_dec.h ****  */
  60:lvgl\src\lv_widgets\../lv_core/lv_obj_style_dec.h **** 
  61:lvgl\src\lv_widgets\../lv_core/lv_obj_style_dec.h **** #define _OBJ_GET_STYLE_scalar(prop_name, func_name, value_type, style_type)                        
  62:lvgl\src\lv_widgets\../lv_core/lv_obj_style_dec.h ****     static inline value_type lv_obj_get_style_##func_name (const lv_obj_t * obj, uint8_t part)     
  63:lvgl\src\lv_widgets\../lv_core/lv_obj_style_dec.h ****     {                                                                                              
  64:lvgl\src\lv_widgets\../lv_core/lv_obj_style_dec.h ****         return (value_type) _lv_obj_get_style##style_type (obj, part, LV_STYLE_##prop_name);       
  65:lvgl\src\lv_widgets\../lv_core/lv_obj_style_dec.h ****     }
  66:lvgl\src\lv_widgets\../lv_core/lv_obj_style_dec.h **** 
  67:lvgl\src\lv_widgets\../lv_core/lv_obj_style_dec.h **** #define _OBJ_GET_STYLE_nonscalar(prop_name, func_name, value_type, style_type)                     
  68:lvgl\src\lv_widgets\../lv_core/lv_obj_style_dec.h ****     static inline value_type lv_obj_get_style_##func_name (const lv_obj_t * obj, uint8_t part)     
  69:lvgl\src\lv_widgets\../lv_core/lv_obj_style_dec.h ****     {                                                                                              
  70:lvgl\src\lv_widgets\../lv_core/lv_obj_style_dec.h ****         return _lv_obj_get_style##style_type (obj, part, LV_STYLE_##prop_name);                    
  71:lvgl\src\lv_widgets\../lv_core/lv_obj_style_dec.h ****     }
  72:lvgl\src\lv_widgets\../lv_core/lv_obj_style_dec.h **** 
  73:lvgl\src\lv_widgets\../lv_core/lv_obj_style_dec.h **** #define _OBJ_SET_STYLE_LOCAL_scalar(prop_name, func_name, value_type, style_type)                  
  74:lvgl\src\lv_widgets\../lv_core/lv_obj_style_dec.h ****     static inline void lv_obj_set_style_local_##func_name (lv_obj_t * obj, uint8_t part, lv_state_t
  75:lvgl\src\lv_widgets\../lv_core/lv_obj_style_dec.h ****     {                                                                                              
  76:lvgl\src\lv_widgets\../lv_core/lv_obj_style_dec.h ****         _lv_obj_set_style_local##style_type (obj, part, LV_STYLE_##prop_name | (state << LV_STYLE_S
  77:lvgl\src\lv_widgets\../lv_core/lv_obj_style_dec.h ****     }
  78:lvgl\src\lv_widgets\../lv_core/lv_obj_style_dec.h **** 
  79:lvgl\src\lv_widgets\../lv_core/lv_obj_style_dec.h **** #define _OBJ_SET_STYLE_LOCAL_nonscalar(prop_name, func_name, value_type, style_type)               
  80:lvgl\src\lv_widgets\../lv_core/lv_obj_style_dec.h ****     static inline void lv_obj_set_style_local_##func_name (lv_obj_t * obj, uint8_t part, lv_state_t
  81:lvgl\src\lv_widgets\../lv_core/lv_obj_style_dec.h ****     {                                                                                              
  82:lvgl\src\lv_widgets\../lv_core/lv_obj_style_dec.h ****         _lv_obj_set_style_local##style_type (obj, part, LV_STYLE_##prop_name | (state << LV_STYLE_S
  83:lvgl\src\lv_widgets\../lv_core/lv_obj_style_dec.h ****     }
  84:lvgl\src\lv_widgets\../lv_core/lv_obj_style_dec.h **** 
  85:lvgl\src\lv_widgets\../lv_core/lv_obj_style_dec.h **** #define _OBJ_SET_STYLE_scalar(prop_name, func_name, value_type, style_type)                        
  86:lvgl\src\lv_widgets\../lv_core/lv_obj_style_dec.h ****     static inline void lv_style_set_##func_name (lv_style_t * style, lv_state_t state, value_type v
  87:lvgl\src\lv_widgets\../lv_core/lv_obj_style_dec.h ****     {                                                                                              
  88:lvgl\src\lv_widgets\../lv_core/lv_obj_style_dec.h ****         _lv_style_set##style_type (style, LV_STYLE_##prop_name | (state << LV_STYLE_STATE_POS), val
  89:lvgl\src\lv_widgets\../lv_core/lv_obj_style_dec.h ****     }
  90:lvgl\src\lv_widgets\../lv_core/lv_obj_style_dec.h **** 
  91:lvgl\src\lv_widgets\../lv_core/lv_obj_style_dec.h **** #define _OBJ_SET_STYLE_nonscalar(prop_name, func_name, value_type, style_type)                     
  92:lvgl\src\lv_widgets\../lv_core/lv_obj_style_dec.h ****     static inline void lv_style_set_##func_name (lv_style_t * style, lv_state_t state, value_type v
  93:lvgl\src\lv_widgets\../lv_core/lv_obj_style_dec.h ****     {                                                                                              
  94:lvgl\src\lv_widgets\../lv_core/lv_obj_style_dec.h ****         _lv_style_set##style_type (style, LV_STYLE_##prop_name | (state << LV_STYLE_STATE_POS), val
  95:lvgl\src\lv_widgets\../lv_core/lv_obj_style_dec.h ****     }
  96:lvgl\src\lv_widgets\../lv_core/lv_obj_style_dec.h **** 
  97:lvgl\src\lv_widgets\../lv_core/lv_obj_style_dec.h **** #define _LV_OBJ_STYLE_SET_GET_DECLARE(prop_name, func_name, value_type, style_type, scalar)        
  98:lvgl\src\lv_widgets\../lv_core/lv_obj_style_dec.h ****     _OBJ_GET_STYLE_##scalar(prop_name, func_name, value_type, style_type)                          
  99:lvgl\src\lv_widgets\../lv_core/lv_obj_style_dec.h ****     _OBJ_SET_STYLE_LOCAL_##scalar(prop_name, func_name, value_type, style_type)                    
 100:lvgl\src\lv_widgets\../lv_core/lv_obj_style_dec.h ****     _OBJ_SET_STYLE_##scalar(prop_name, func_name, value_type, style_type)
 101:lvgl\src\lv_widgets\../lv_core/lv_obj_style_dec.h **** 
 102:lvgl\src\lv_widgets\../lv_core/lv_obj_style_dec.h **** _LV_OBJ_STYLE_SET_GET_DECLARE(RADIUS, radius, lv_style_int_t, _int, scalar)
 103:lvgl\src\lv_widgets\../lv_core/lv_obj_style_dec.h **** _LV_OBJ_STYLE_SET_GET_DECLARE(CLIP_CORNER, clip_corner, bool, _int, scalar)
 104:lvgl\src\lv_widgets\../lv_core/lv_obj_style_dec.h **** _LV_OBJ_STYLE_SET_GET_DECLARE(SIZE, size, lv_style_int_t, _int, scalar)
 105:lvgl\src\lv_widgets\../lv_core/lv_obj_style_dec.h **** _LV_OBJ_STYLE_SET_GET_DECLARE(TRANSFORM_WIDTH, transform_width, lv_style_int_t, _int, scalar)
 106:lvgl\src\lv_widgets\../lv_core/lv_obj_style_dec.h **** _LV_OBJ_STYLE_SET_GET_DECLARE(TRANSFORM_HEIGHT, transform_height, lv_style_int_t, _int, scalar)
 107:lvgl\src\lv_widgets\../lv_core/lv_obj_style_dec.h **** _LV_OBJ_STYLE_SET_GET_DECLARE(TRANSFORM_ANGLE, transform_angle, lv_style_int_t, _int, scalar)
 108:lvgl\src\lv_widgets\../lv_core/lv_obj_style_dec.h **** _LV_OBJ_STYLE_SET_GET_DECLARE(TRANSFORM_ZOOM, transform_zoom, lv_style_int_t, _int, scalar)
 109:lvgl\src\lv_widgets\../lv_core/lv_obj_style_dec.h **** _LV_OBJ_STYLE_SET_GET_DECLARE(OPA_SCALE, opa_scale, lv_opa_t, _opa, scalar)
 110:lvgl\src\lv_widgets\../lv_core/lv_obj_style_dec.h **** _LV_OBJ_STYLE_SET_GET_DECLARE(PAD_TOP, pad_top, lv_style_int_t, _int, scalar)
 111:lvgl\src\lv_widgets\../lv_core/lv_obj_style_dec.h **** _LV_OBJ_STYLE_SET_GET_DECLARE(PAD_BOTTOM, pad_bottom, lv_style_int_t, _int, scalar)
 112:lvgl\src\lv_widgets\../lv_core/lv_obj_style_dec.h **** _LV_OBJ_STYLE_SET_GET_DECLARE(PAD_LEFT, pad_left, lv_style_int_t, _int, scalar)
 166              		.loc 2 112 0
 167 000e 1222     		movs	r2, #18
 168 0010 4121     		movs	r1, #65
ARM GAS  C:\Users\strap\AppData\Local\Temp\ccTzHSZB.s 			page 22


 169 0012 2046     		mov	r0, r4
 170              	.LVL23:
 171 0014 FFF7FEFF 		bl	_lv_obj_get_style_int
 172              	.LVL24:
 173 0018 0190     		str	r0, [sp, #4]
 174              	.LVL25:
 175              	.LBE86:
 176              	.LBE85:
 177              	.LBB87:
 178              	.LBB88:
 113:lvgl\src\lv_widgets\../lv_core/lv_obj_style_dec.h **** _LV_OBJ_STYLE_SET_GET_DECLARE(PAD_RIGHT, pad_right, lv_style_int_t, _int, scalar)
 179              		.loc 2 113 0
 180 001a 1322     		movs	r2, #19
 181 001c 4121     		movs	r1, #65
 182 001e 2046     		mov	r0, r4
 183 0020 FFF7FEFF 		bl	_lv_obj_get_style_int
 184              	.LVL26:
 185 0024 0290     		str	r0, [sp, #8]
 186              	.LVL27:
 187              	.LBE88:
 188              	.LBE87:
 189              	.LBB89:
 190              	.LBB90:
 110:lvgl\src\lv_widgets\../lv_core/lv_obj_style_dec.h **** _LV_OBJ_STYLE_SET_GET_DECLARE(PAD_BOTTOM, pad_bottom, lv_style_int_t, _int, scalar)
 191              		.loc 2 110 0
 192 0026 1022     		movs	r2, #16
 193 0028 4121     		movs	r1, #65
 194 002a 2046     		mov	r0, r4
 195 002c FFF7FEFF 		bl	_lv_obj_get_style_int
 196              	.LVL28:
 197 0030 8046     		mov	r8, r0
 198              	.LVL29:
 199              	.LBE90:
 200              	.LBE89:
 201              	.LBB91:
 202              	.LBB92:
 111:lvgl\src\lv_widgets\../lv_core/lv_obj_style_dec.h **** _LV_OBJ_STYLE_SET_GET_DECLARE(PAD_LEFT, pad_left, lv_style_int_t, _int, scalar)
 203              		.loc 2 111 0
 204 0032 1122     		movs	r2, #17
 205 0034 4121     		movs	r1, #65
 206 0036 2046     		mov	r0, r4
 207 0038 FFF7FEFF 		bl	_lv_obj_get_style_int
 208              	.LVL30:
 209 003c 0546     		mov	r5, r0
 210              	.LVL31:
 211              	.LBE92:
 212              	.LBE91:
 213              	.LBB93:
 214              	.LBB94:
 112:lvgl\src\lv_widgets\../lv_core/lv_obj_style_dec.h **** _LV_OBJ_STYLE_SET_GET_DECLARE(PAD_RIGHT, pad_right, lv_style_int_t, _int, scalar)
 215              		.loc 2 112 0
 216 003e 1222     		movs	r2, #18
 217 0040 4221     		movs	r1, #66
 218 0042 2046     		mov	r0, r4
 219 0044 FFF7FEFF 		bl	_lv_obj_get_style_int
 220              	.LVL32:
 221 0048 0746     		mov	r7, r0
ARM GAS  C:\Users\strap\AppData\Local\Temp\ccTzHSZB.s 			page 23


 222              	.LVL33:
 223              	.LBE94:
 224              	.LBE93:
 225              	.LBB95:
 226              	.LBB96:
 227              		.loc 2 113 0
 228 004a 1322     		movs	r2, #19
 229 004c 4221     		movs	r1, #66
 230 004e 2046     		mov	r0, r4
 231 0050 FFF7FEFF 		bl	_lv_obj_get_style_int
 232              	.LVL34:
 233 0054 0390     		str	r0, [sp, #12]
 234              	.LVL35:
 235              	.LBE96:
 236              	.LBE95:
 237              	.LBB97:
 238              	.LBB98:
 110:lvgl\src\lv_widgets\../lv_core/lv_obj_style_dec.h **** _LV_OBJ_STYLE_SET_GET_DECLARE(PAD_BOTTOM, pad_bottom, lv_style_int_t, _int, scalar)
 239              		.loc 2 110 0
 240 0056 1022     		movs	r2, #16
 241 0058 4221     		movs	r1, #66
 242 005a 2046     		mov	r0, r4
 243 005c FFF7FEFF 		bl	_lv_obj_get_style_int
 244              	.LVL36:
 245 0060 8246     		mov	r10, r0
 246              	.LVL37:
 247              	.LBE98:
 248              	.LBE97:
 249              	.LBB99:
 250              	.LBB100:
 111:lvgl\src\lv_widgets\../lv_core/lv_obj_style_dec.h **** _LV_OBJ_STYLE_SET_GET_DECLARE(PAD_LEFT, pad_left, lv_style_int_t, _int, scalar)
 251              		.loc 2 111 0
 252 0062 1122     		movs	r2, #17
 253 0064 4221     		movs	r1, #66
 254 0066 2046     		mov	r0, r4
 255 0068 FFF7FEFF 		bl	_lv_obj_get_style_int
 256              	.LVL38:
 257 006c 8146     		mov	r9, r0
 258              	.LVL39:
 259              	.LBE100:
 260              	.LBE99:
 261              	.LBB101:
 262              	.LBB102:
 114:lvgl\src\lv_widgets\../lv_core/lv_obj_style_dec.h **** _LV_OBJ_STYLE_SET_GET_DECLARE(PAD_INNER, pad_inner, lv_style_int_t, _int, scalar)
 115:lvgl\src\lv_widgets\../lv_core/lv_obj_style_dec.h **** _LV_OBJ_STYLE_SET_GET_DECLARE(MARGIN_TOP, margin_top, lv_style_int_t, _int, scalar)
 116:lvgl\src\lv_widgets\../lv_core/lv_obj_style_dec.h **** _LV_OBJ_STYLE_SET_GET_DECLARE(MARGIN_BOTTOM, margin_bottom, lv_style_int_t, _int, scalar)
 117:lvgl\src\lv_widgets\../lv_core/lv_obj_style_dec.h **** _LV_OBJ_STYLE_SET_GET_DECLARE(MARGIN_LEFT, margin_left, lv_style_int_t, _int, scalar)
 118:lvgl\src\lv_widgets\../lv_core/lv_obj_style_dec.h **** _LV_OBJ_STYLE_SET_GET_DECLARE(MARGIN_RIGHT, margin_right, lv_style_int_t, _int, scalar)
 119:lvgl\src\lv_widgets\../lv_core/lv_obj_style_dec.h **** _LV_OBJ_STYLE_SET_GET_DECLARE(BG_BLEND_MODE, bg_blend_mode, lv_blend_mode_t, _int, scalar)
 120:lvgl\src\lv_widgets\../lv_core/lv_obj_style_dec.h **** _LV_OBJ_STYLE_SET_GET_DECLARE(BG_MAIN_STOP, bg_main_stop, lv_style_int_t, _int, scalar)
 121:lvgl\src\lv_widgets\../lv_core/lv_obj_style_dec.h **** _LV_OBJ_STYLE_SET_GET_DECLARE(BG_GRAD_STOP, bg_grad_stop, lv_style_int_t, _int, scalar)
 122:lvgl\src\lv_widgets\../lv_core/lv_obj_style_dec.h **** _LV_OBJ_STYLE_SET_GET_DECLARE(BG_GRAD_DIR, bg_grad_dir, lv_grad_dir_t, _int, scalar)
 123:lvgl\src\lv_widgets\../lv_core/lv_obj_style_dec.h **** _LV_OBJ_STYLE_SET_GET_DECLARE(BG_COLOR, bg_color, lv_color_t, _color, nonscalar)
 124:lvgl\src\lv_widgets\../lv_core/lv_obj_style_dec.h **** _LV_OBJ_STYLE_SET_GET_DECLARE(BG_GRAD_COLOR, bg_grad_color, lv_color_t, _color, nonscalar)
 125:lvgl\src\lv_widgets\../lv_core/lv_obj_style_dec.h **** _LV_OBJ_STYLE_SET_GET_DECLARE(BG_OPA, bg_opa, lv_opa_t, _opa, scalar)
 126:lvgl\src\lv_widgets\../lv_core/lv_obj_style_dec.h **** _LV_OBJ_STYLE_SET_GET_DECLARE(BORDER_WIDTH, border_width, lv_style_int_t, _int, scalar)
 127:lvgl\src\lv_widgets\../lv_core/lv_obj_style_dec.h **** _LV_OBJ_STYLE_SET_GET_DECLARE(BORDER_SIDE, border_side, lv_border_side_t, _int, scalar)
ARM GAS  C:\Users\strap\AppData\Local\Temp\ccTzHSZB.s 			page 24


 128:lvgl\src\lv_widgets\../lv_core/lv_obj_style_dec.h **** _LV_OBJ_STYLE_SET_GET_DECLARE(BORDER_BLEND_MODE, border_blend_mode, lv_blend_mode_t, _int, scalar)
 129:lvgl\src\lv_widgets\../lv_core/lv_obj_style_dec.h **** _LV_OBJ_STYLE_SET_GET_DECLARE(BORDER_POST, border_post, bool, _int, scalar)
 130:lvgl\src\lv_widgets\../lv_core/lv_obj_style_dec.h **** _LV_OBJ_STYLE_SET_GET_DECLARE(BORDER_COLOR, border_color, lv_color_t, _color, nonscalar)
 131:lvgl\src\lv_widgets\../lv_core/lv_obj_style_dec.h **** _LV_OBJ_STYLE_SET_GET_DECLARE(BORDER_OPA, border_opa, lv_opa_t, _opa, scalar)
 132:lvgl\src\lv_widgets\../lv_core/lv_obj_style_dec.h **** _LV_OBJ_STYLE_SET_GET_DECLARE(OUTLINE_WIDTH, outline_width, lv_style_int_t, _int, scalar)
 133:lvgl\src\lv_widgets\../lv_core/lv_obj_style_dec.h **** _LV_OBJ_STYLE_SET_GET_DECLARE(OUTLINE_PAD, outline_pad, lv_style_int_t, _int, scalar)
 134:lvgl\src\lv_widgets\../lv_core/lv_obj_style_dec.h **** _LV_OBJ_STYLE_SET_GET_DECLARE(OUTLINE_BLEND_MODE, outline_blend_mode, lv_blend_mode_t, _int, scalar
 135:lvgl\src\lv_widgets\../lv_core/lv_obj_style_dec.h **** _LV_OBJ_STYLE_SET_GET_DECLARE(OUTLINE_COLOR, outline_color, lv_color_t, _color, nonscalar)
 136:lvgl\src\lv_widgets\../lv_core/lv_obj_style_dec.h **** _LV_OBJ_STYLE_SET_GET_DECLARE(OUTLINE_OPA, outline_opa, lv_opa_t, _opa, scalar)
 137:lvgl\src\lv_widgets\../lv_core/lv_obj_style_dec.h **** _LV_OBJ_STYLE_SET_GET_DECLARE(SHADOW_WIDTH, shadow_width, lv_style_int_t, _int, scalar)
 138:lvgl\src\lv_widgets\../lv_core/lv_obj_style_dec.h **** _LV_OBJ_STYLE_SET_GET_DECLARE(SHADOW_OFS_X, shadow_ofs_x, lv_style_int_t, _int, scalar)
 139:lvgl\src\lv_widgets\../lv_core/lv_obj_style_dec.h **** _LV_OBJ_STYLE_SET_GET_DECLARE(SHADOW_OFS_Y, shadow_ofs_y, lv_style_int_t, _int, scalar)
 140:lvgl\src\lv_widgets\../lv_core/lv_obj_style_dec.h **** _LV_OBJ_STYLE_SET_GET_DECLARE(SHADOW_SPREAD, shadow_spread, lv_style_int_t, _int, scalar)
 141:lvgl\src\lv_widgets\../lv_core/lv_obj_style_dec.h **** _LV_OBJ_STYLE_SET_GET_DECLARE(SHADOW_BLEND_MODE, shadow_blend_mode, lv_blend_mode_t, _int, scalar)
 142:lvgl\src\lv_widgets\../lv_core/lv_obj_style_dec.h **** _LV_OBJ_STYLE_SET_GET_DECLARE(SHADOW_COLOR, shadow_color, lv_color_t, _color, nonscalar)
 143:lvgl\src\lv_widgets\../lv_core/lv_obj_style_dec.h **** _LV_OBJ_STYLE_SET_GET_DECLARE(SHADOW_OPA, shadow_opa, lv_opa_t, _opa, scalar)
 144:lvgl\src\lv_widgets\../lv_core/lv_obj_style_dec.h **** _LV_OBJ_STYLE_SET_GET_DECLARE(PATTERN_REPEAT, pattern_repeat, bool, _int, scalar)
 145:lvgl\src\lv_widgets\../lv_core/lv_obj_style_dec.h **** _LV_OBJ_STYLE_SET_GET_DECLARE(PATTERN_BLEND_MODE, pattern_blend_mode, lv_blend_mode_t, _int, scalar
 146:lvgl\src\lv_widgets\../lv_core/lv_obj_style_dec.h **** _LV_OBJ_STYLE_SET_GET_DECLARE(PATTERN_RECOLOR, pattern_recolor, lv_color_t, _color, nonscalar)
 147:lvgl\src\lv_widgets\../lv_core/lv_obj_style_dec.h **** _LV_OBJ_STYLE_SET_GET_DECLARE(PATTERN_OPA, pattern_opa, lv_opa_t, _opa, scalar)
 148:lvgl\src\lv_widgets\../lv_core/lv_obj_style_dec.h **** _LV_OBJ_STYLE_SET_GET_DECLARE(PATTERN_RECOLOR_OPA, pattern_recolor_opa, lv_opa_t, _opa, scalar)
 149:lvgl\src\lv_widgets\../lv_core/lv_obj_style_dec.h **** _LV_OBJ_STYLE_SET_GET_DECLARE(PATTERN_IMAGE, pattern_image, const void *, _ptr, scalar)
 150:lvgl\src\lv_widgets\../lv_core/lv_obj_style_dec.h **** _LV_OBJ_STYLE_SET_GET_DECLARE(VALUE_LETTER_SPACE, value_letter_space, lv_style_int_t, _int, scalar)
 151:lvgl\src\lv_widgets\../lv_core/lv_obj_style_dec.h **** _LV_OBJ_STYLE_SET_GET_DECLARE(VALUE_LINE_SPACE, value_line_space, lv_style_int_t, _int, scalar)
 152:lvgl\src\lv_widgets\../lv_core/lv_obj_style_dec.h **** _LV_OBJ_STYLE_SET_GET_DECLARE(VALUE_BLEND_MODE, value_blend_mode, lv_blend_mode_t, _int, scalar)
 153:lvgl\src\lv_widgets\../lv_core/lv_obj_style_dec.h **** _LV_OBJ_STYLE_SET_GET_DECLARE(VALUE_OFS_X, value_ofs_x, lv_style_int_t, _int, scalar)
 154:lvgl\src\lv_widgets\../lv_core/lv_obj_style_dec.h **** _LV_OBJ_STYLE_SET_GET_DECLARE(VALUE_OFS_Y, value_ofs_y, lv_style_int_t, _int, scalar)
 155:lvgl\src\lv_widgets\../lv_core/lv_obj_style_dec.h **** _LV_OBJ_STYLE_SET_GET_DECLARE(VALUE_ALIGN, value_align, lv_align_t, _int, scalar)
 156:lvgl\src\lv_widgets\../lv_core/lv_obj_style_dec.h **** _LV_OBJ_STYLE_SET_GET_DECLARE(VALUE_COLOR, value_color, lv_color_t, _color, nonscalar)
 157:lvgl\src\lv_widgets\../lv_core/lv_obj_style_dec.h **** _LV_OBJ_STYLE_SET_GET_DECLARE(VALUE_OPA, value_opa, lv_opa_t, _opa, scalar)
 158:lvgl\src\lv_widgets\../lv_core/lv_obj_style_dec.h **** _LV_OBJ_STYLE_SET_GET_DECLARE(VALUE_FONT, value_font, const lv_font_t *, _ptr, scalar)
 159:lvgl\src\lv_widgets\../lv_core/lv_obj_style_dec.h **** _LV_OBJ_STYLE_SET_GET_DECLARE(VALUE_STR, value_str, const char *, _ptr, scalar)
 160:lvgl\src\lv_widgets\../lv_core/lv_obj_style_dec.h **** _LV_OBJ_STYLE_SET_GET_DECLARE(TEXT_LETTER_SPACE, text_letter_space, lv_style_int_t, _int, scalar)
 161:lvgl\src\lv_widgets\../lv_core/lv_obj_style_dec.h **** _LV_OBJ_STYLE_SET_GET_DECLARE(TEXT_LINE_SPACE, text_line_space, lv_style_int_t, _int, scalar)
 162:lvgl\src\lv_widgets\../lv_core/lv_obj_style_dec.h **** _LV_OBJ_STYLE_SET_GET_DECLARE(TEXT_DECOR, text_decor, lv_text_decor_t, _int, scalar)
 163:lvgl\src\lv_widgets\../lv_core/lv_obj_style_dec.h **** _LV_OBJ_STYLE_SET_GET_DECLARE(TEXT_BLEND_MODE, text_blend_mode, lv_blend_mode_t, _int, scalar)
 164:lvgl\src\lv_widgets\../lv_core/lv_obj_style_dec.h **** _LV_OBJ_STYLE_SET_GET_DECLARE(TEXT_COLOR, text_color, lv_color_t, _color, nonscalar)
 165:lvgl\src\lv_widgets\../lv_core/lv_obj_style_dec.h **** _LV_OBJ_STYLE_SET_GET_DECLARE(TEXT_SEL_COLOR, text_sel_color, lv_color_t, _color, nonscalar)
 166:lvgl\src\lv_widgets\../lv_core/lv_obj_style_dec.h **** _LV_OBJ_STYLE_SET_GET_DECLARE(TEXT_SEL_BG_COLOR, text_sel_bg_color, lv_color_t, _color, nonscalar)
 167:lvgl\src\lv_widgets\../lv_core/lv_obj_style_dec.h **** _LV_OBJ_STYLE_SET_GET_DECLARE(TEXT_OPA, text_opa, lv_opa_t, _opa, scalar)
 168:lvgl\src\lv_widgets\../lv_core/lv_obj_style_dec.h **** _LV_OBJ_STYLE_SET_GET_DECLARE(TEXT_FONT, text_font, const lv_font_t *, _ptr, scalar)
 263              		.loc 2 168 0
 264 006e 48F28E02 		movw	r2, #32910
 265 0072 4221     		movs	r1, #66
 266 0074 2046     		mov	r0, r4
 267 0076 FFF7FEFF 		bl	_lv_obj_get_style_ptr
 268              	.LVL40:
 269 007a 8346     		mov	fp, r0
 270              	.LVL41:
 271              	.LBE102:
 272              	.LBE101:
 918:lvgl\src\lv_widgets/lv_tabview.c **** 
 919:lvgl\src\lv_widgets/lv_tabview.c ****     lv_style_int_t tab_bg_left = lv_obj_get_style_pad_left(tabview, LV_TABVIEW_PART_TAB_BG);
 920:lvgl\src\lv_widgets/lv_tabview.c ****     lv_style_int_t tab_bg_right = lv_obj_get_style_pad_right(tabview, LV_TABVIEW_PART_TAB_BG);
 921:lvgl\src\lv_widgets/lv_tabview.c ****     lv_style_int_t tab_bg_top = lv_obj_get_style_pad_top(tabview, LV_TABVIEW_PART_TAB_BG);
 922:lvgl\src\lv_widgets/lv_tabview.c ****     lv_style_int_t tab_bg_bottom = lv_obj_get_style_pad_bottom(tabview, LV_TABVIEW_PART_TAB_BG);
 923:lvgl\src\lv_widgets/lv_tabview.c **** 
ARM GAS  C:\Users\strap\AppData\Local\Temp\ccTzHSZB.s 			page 25


 924:lvgl\src\lv_widgets/lv_tabview.c ****     lv_style_int_t tab_left = lv_obj_get_style_pad_left(tabview, LV_TABVIEW_PART_TAB_BTN);
 925:lvgl\src\lv_widgets/lv_tabview.c ****     lv_style_int_t tab_right = lv_obj_get_style_pad_right(tabview, LV_TABVIEW_PART_TAB_BTN);
 926:lvgl\src\lv_widgets/lv_tabview.c ****     lv_style_int_t tab_top = lv_obj_get_style_pad_top(tabview, LV_TABVIEW_PART_TAB_BTN);
 927:lvgl\src\lv_widgets/lv_tabview.c ****     lv_style_int_t tab_bottom = lv_obj_get_style_pad_bottom(tabview, LV_TABVIEW_PART_TAB_BTN);
 928:lvgl\src\lv_widgets/lv_tabview.c **** 
 929:lvgl\src\lv_widgets/lv_tabview.c ****     const lv_font_t * font = lv_obj_get_style_text_font(tabview, LV_TABVIEW_PART_TAB_BTN);
 930:lvgl\src\lv_widgets/lv_tabview.c **** 
 931:lvgl\src\lv_widgets/lv_tabview.c ****     /*Set the tabs height/width*/
 932:lvgl\src\lv_widgets/lv_tabview.c ****     lv_coord_t btns_w;
 933:lvgl\src\lv_widgets/lv_tabview.c ****     lv_coord_t btns_h;
 934:lvgl\src\lv_widgets/lv_tabview.c **** 
 935:lvgl\src\lv_widgets/lv_tabview.c ****     switch(ext->btns_pos) {
 273              		.loc 1 935 0
 274 007c B37E     		ldrb	r3, [r6, #26]	@ zero_extendqisi2
 275 007e 03F00703 		and	r3, r3, #7
 276 0082 013B     		subs	r3, r3, #1
 277 0084 032B     		cmp	r3, #3
 278 0086 03D8     		bhi	.L16
 279 0088 DFE803F0 		tbb	[pc, r3]
 280              	.L18:
 281 008c 09       		.byte	(.L17-.L18)/2
 282 008d 09       		.byte	(.L17-.L18)/2
 283 008e 19       		.byte	(.L19-.L18)/2
 284 008f 19       		.byte	(.L19-.L18)/2
 285              		.p2align 1
 286              	.L16:
 287              	.LVL42:
 936:lvgl\src\lv_widgets/lv_tabview.c ****         default: /*default case is prevented in lv_tabview_set_btns_pos(), but here for safety*/
 937:lvgl\src\lv_widgets/lv_tabview.c ****         case LV_TABVIEW_TAB_POS_NONE:
 938:lvgl\src\lv_widgets/lv_tabview.c ****             btns_w = 0;
 939:lvgl\src\lv_widgets/lv_tabview.c ****             btns_h = 0;
 940:lvgl\src\lv_widgets/lv_tabview.c ****             lv_obj_set_hidden(ext->btns, true);
 288              		.loc 1 940 0
 289 0090 0121     		movs	r1, #1
 290 0092 3068     		ldr	r0, [r6]
 291 0094 FFF7FEFF 		bl	lv_obj_set_hidden
 292              	.LVL43:
 939:lvgl\src\lv_widgets/lv_tabview.c ****             lv_obj_set_hidden(ext->btns, true);
 293              		.loc 1 939 0
 294 0098 0025     		movs	r5, #0
 938:lvgl\src\lv_widgets/lv_tabview.c ****             btns_h = 0;
 295              		.loc 1 938 0
 296 009a 2F46     		mov	r7, r5
 941:lvgl\src\lv_widgets/lv_tabview.c ****             break;
 297              		.loc 1 941 0
 298 009c 25E0     		b	.L20
 299              	.LVL44:
 300              	.L17:
 942:lvgl\src\lv_widgets/lv_tabview.c ****         case LV_TABVIEW_TAB_POS_TOP:
 943:lvgl\src\lv_widgets/lv_tabview.c ****         case LV_TABVIEW_TAB_POS_BOTTOM:
 944:lvgl\src\lv_widgets/lv_tabview.c ****             lv_obj_set_hidden(ext->btns, false);
 301              		.loc 1 944 0
 302 009e 0021     		movs	r1, #0
 303 00a0 3068     		ldr	r0, [r6]
 304 00a2 FFF7FEFF 		bl	lv_obj_set_hidden
 305              	.LVL45:
 306              	.LBB103:
ARM GAS  C:\Users\strap\AppData\Local\Temp\ccTzHSZB.s 			page 26


 307              	.LBB104:
 308              		.file 3 "lvgl\\src\\lv_widgets\\../lv_core/../lv_font/lv_font.h"
   1:lvgl\src\lv_widgets\../lv_core/../lv_font/lv_font.h **** /**
   2:lvgl\src\lv_widgets\../lv_core/../lv_font/lv_font.h ****  * @file lv_font.h
   3:lvgl\src\lv_widgets\../lv_core/../lv_font/lv_font.h ****  *
   4:lvgl\src\lv_widgets\../lv_core/../lv_font/lv_font.h ****  */
   5:lvgl\src\lv_widgets\../lv_core/../lv_font/lv_font.h **** 
   6:lvgl\src\lv_widgets\../lv_core/../lv_font/lv_font.h **** #ifndef LV_FONT_H
   7:lvgl\src\lv_widgets\../lv_core/../lv_font/lv_font.h **** #define LV_FONT_H
   8:lvgl\src\lv_widgets\../lv_core/../lv_font/lv_font.h **** 
   9:lvgl\src\lv_widgets\../lv_core/../lv_font/lv_font.h **** #ifdef __cplusplus
  10:lvgl\src\lv_widgets\../lv_core/../lv_font/lv_font.h **** extern "C" {
  11:lvgl\src\lv_widgets\../lv_core/../lv_font/lv_font.h **** #endif
  12:lvgl\src\lv_widgets\../lv_core/../lv_font/lv_font.h **** 
  13:lvgl\src\lv_widgets\../lv_core/../lv_font/lv_font.h **** /*********************
  14:lvgl\src\lv_widgets\../lv_core/../lv_font/lv_font.h ****  *      INCLUDES
  15:lvgl\src\lv_widgets\../lv_core/../lv_font/lv_font.h ****  *********************/
  16:lvgl\src\lv_widgets\../lv_core/../lv_font/lv_font.h **** #include "../lv_conf_internal.h"
  17:lvgl\src\lv_widgets\../lv_core/../lv_font/lv_font.h **** #include <stdint.h>
  18:lvgl\src\lv_widgets\../lv_core/../lv_font/lv_font.h **** #include <stddef.h>
  19:lvgl\src\lv_widgets\../lv_core/../lv_font/lv_font.h **** #include <stdbool.h>
  20:lvgl\src\lv_widgets\../lv_core/../lv_font/lv_font.h **** 
  21:lvgl\src\lv_widgets\../lv_core/../lv_font/lv_font.h **** #include "lv_symbol_def.h"
  22:lvgl\src\lv_widgets\../lv_core/../lv_font/lv_font.h **** #include "../lv_misc/lv_area.h"
  23:lvgl\src\lv_widgets\../lv_core/../lv_font/lv_font.h **** 
  24:lvgl\src\lv_widgets\../lv_core/../lv_font/lv_font.h **** /*********************
  25:lvgl\src\lv_widgets\../lv_core/../lv_font/lv_font.h ****  *      DEFINES
  26:lvgl\src\lv_widgets\../lv_core/../lv_font/lv_font.h ****  *********************/
  27:lvgl\src\lv_widgets\../lv_core/../lv_font/lv_font.h **** /*Number of fractional digits in the advanced width (`adv_w`) field of `lv_font_glyph_dsc_t`*/
  28:lvgl\src\lv_widgets\../lv_core/../lv_font/lv_font.h **** #define LV_FONT_WIDTH_FRACT_DIGIT       4
  29:lvgl\src\lv_widgets\../lv_core/../lv_font/lv_font.h **** 
  30:lvgl\src\lv_widgets\../lv_core/../lv_font/lv_font.h **** #define LV_FONT_KERN_POSITIVE        0
  31:lvgl\src\lv_widgets\../lv_core/../lv_font/lv_font.h **** #define LV_FONT_KERN_NEGATIVE        1
  32:lvgl\src\lv_widgets\../lv_core/../lv_font/lv_font.h **** 
  33:lvgl\src\lv_widgets\../lv_core/../lv_font/lv_font.h **** /**********************
  34:lvgl\src\lv_widgets\../lv_core/../lv_font/lv_font.h ****  *      TYPEDEFS
  35:lvgl\src\lv_widgets\../lv_core/../lv_font/lv_font.h ****  **********************/
  36:lvgl\src\lv_widgets\../lv_core/../lv_font/lv_font.h **** 
  37:lvgl\src\lv_widgets\../lv_core/../lv_font/lv_font.h **** /*------------------
  38:lvgl\src\lv_widgets\../lv_core/../lv_font/lv_font.h ****  * General types
  39:lvgl\src\lv_widgets\../lv_core/../lv_font/lv_font.h ****  *-----------------*/
  40:lvgl\src\lv_widgets\../lv_core/../lv_font/lv_font.h **** 
  41:lvgl\src\lv_widgets\../lv_core/../lv_font/lv_font.h **** /** Describes the properties of a glyph. */
  42:lvgl\src\lv_widgets\../lv_core/../lv_font/lv_font.h **** typedef struct {
  43:lvgl\src\lv_widgets\../lv_core/../lv_font/lv_font.h ****     uint16_t adv_w; /**< The glyph needs this space. Draw the next glyph after this width. 8 bit in
  44:lvgl\src\lv_widgets\../lv_core/../lv_font/lv_font.h ****     uint16_t box_w;  /**< Width of the glyph's bounding box*/
  45:lvgl\src\lv_widgets\../lv_core/../lv_font/lv_font.h ****     uint16_t box_h;  /**< Height of the glyph's bounding box*/
  46:lvgl\src\lv_widgets\../lv_core/../lv_font/lv_font.h ****     int16_t ofs_x;   /**< x offset of the bounding box*/
  47:lvgl\src\lv_widgets\../lv_core/../lv_font/lv_font.h ****     int16_t ofs_y;  /**< y offset of the bounding box*/
  48:lvgl\src\lv_widgets\../lv_core/../lv_font/lv_font.h ****     uint8_t bpp;   /**< Bit-per-pixel: 1, 2, 4, 8*/
  49:lvgl\src\lv_widgets\../lv_core/../lv_font/lv_font.h **** } lv_font_glyph_dsc_t;
  50:lvgl\src\lv_widgets\../lv_core/../lv_font/lv_font.h **** 
  51:lvgl\src\lv_widgets\../lv_core/../lv_font/lv_font.h **** 
  52:lvgl\src\lv_widgets\../lv_core/../lv_font/lv_font.h **** /** The bitmaps might be upscaled by 3 to achieve subpixel rendering. */
  53:lvgl\src\lv_widgets\../lv_core/../lv_font/lv_font.h **** enum {
  54:lvgl\src\lv_widgets\../lv_core/../lv_font/lv_font.h ****     LV_FONT_SUBPX_NONE,
  55:lvgl\src\lv_widgets\../lv_core/../lv_font/lv_font.h ****     LV_FONT_SUBPX_HOR,
ARM GAS  C:\Users\strap\AppData\Local\Temp\ccTzHSZB.s 			page 27


  56:lvgl\src\lv_widgets\../lv_core/../lv_font/lv_font.h ****     LV_FONT_SUBPX_VER,
  57:lvgl\src\lv_widgets\../lv_core/../lv_font/lv_font.h ****     LV_FONT_SUBPX_BOTH,
  58:lvgl\src\lv_widgets\../lv_core/../lv_font/lv_font.h **** };
  59:lvgl\src\lv_widgets\../lv_core/../lv_font/lv_font.h **** 
  60:lvgl\src\lv_widgets\../lv_core/../lv_font/lv_font.h **** typedef uint8_t lv_font_subpx_t;
  61:lvgl\src\lv_widgets\../lv_core/../lv_font/lv_font.h **** 
  62:lvgl\src\lv_widgets\../lv_core/../lv_font/lv_font.h **** /** Describe the properties of a font*/
  63:lvgl\src\lv_widgets\../lv_core/../lv_font/lv_font.h **** typedef struct _lv_font_struct {
  64:lvgl\src\lv_widgets\../lv_core/../lv_font/lv_font.h ****     /** Get a glyph's  descriptor from a font*/
  65:lvgl\src\lv_widgets\../lv_core/../lv_font/lv_font.h ****     bool (*get_glyph_dsc)(const struct _lv_font_struct *, lv_font_glyph_dsc_t *, uint32_t letter, u
  66:lvgl\src\lv_widgets\../lv_core/../lv_font/lv_font.h **** 
  67:lvgl\src\lv_widgets\../lv_core/../lv_font/lv_font.h ****     /** Get a glyph's bitmap from a font*/
  68:lvgl\src\lv_widgets\../lv_core/../lv_font/lv_font.h ****     const uint8_t * (*get_glyph_bitmap)(const struct _lv_font_struct *, uint32_t);
  69:lvgl\src\lv_widgets\../lv_core/../lv_font/lv_font.h **** 
  70:lvgl\src\lv_widgets\../lv_core/../lv_font/lv_font.h ****     /*Pointer to the font in a font pack (must have the same line height)*/
  71:lvgl\src\lv_widgets\../lv_core/../lv_font/lv_font.h ****     lv_coord_t line_height;         /**< The real line height where any text fits*/
  72:lvgl\src\lv_widgets\../lv_core/../lv_font/lv_font.h ****     lv_coord_t base_line;           /**< Base line measured from the top of the line_height*/
  73:lvgl\src\lv_widgets\../lv_core/../lv_font/lv_font.h ****     uint8_t subpx  : 2;             /**< An element of `lv_font_subpx_t`*/
  74:lvgl\src\lv_widgets\../lv_core/../lv_font/lv_font.h **** 
  75:lvgl\src\lv_widgets\../lv_core/../lv_font/lv_font.h ****     int8_t underline_position;      /**< Distance between the top of the underline and base line (<
  76:lvgl\src\lv_widgets\../lv_core/../lv_font/lv_font.h ****     int8_t  underline_thickness;     /**< Thickness of the underline*/
  77:lvgl\src\lv_widgets\../lv_core/../lv_font/lv_font.h **** 
  78:lvgl\src\lv_widgets\../lv_core/../lv_font/lv_font.h ****     void * dsc;                     /**< Store implementation specific or run_time data or caching 
  79:lvgl\src\lv_widgets\../lv_core/../lv_font/lv_font.h **** #if LV_USE_USER_DATA
  80:lvgl\src\lv_widgets\../lv_core/../lv_font/lv_font.h ****     lv_font_user_data_t user_data;  /**< Custom user data for font. */
  81:lvgl\src\lv_widgets\../lv_core/../lv_font/lv_font.h **** #endif
  82:lvgl\src\lv_widgets\../lv_core/../lv_font/lv_font.h **** 
  83:lvgl\src\lv_widgets\../lv_core/../lv_font/lv_font.h **** 
  84:lvgl\src\lv_widgets\../lv_core/../lv_font/lv_font.h **** } lv_font_t;
  85:lvgl\src\lv_widgets\../lv_core/../lv_font/lv_font.h **** 
  86:lvgl\src\lv_widgets\../lv_core/../lv_font/lv_font.h **** /**********************
  87:lvgl\src\lv_widgets\../lv_core/../lv_font/lv_font.h ****  * GLOBAL PROTOTYPES
  88:lvgl\src\lv_widgets\../lv_core/../lv_font/lv_font.h ****  **********************/
  89:lvgl\src\lv_widgets\../lv_core/../lv_font/lv_font.h **** 
  90:lvgl\src\lv_widgets\../lv_core/../lv_font/lv_font.h **** /**
  91:lvgl\src\lv_widgets\../lv_core/../lv_font/lv_font.h ****  * Return with the bitmap of a font.
  92:lvgl\src\lv_widgets\../lv_core/../lv_font/lv_font.h ****  * @param font_p pointer to a font
  93:lvgl\src\lv_widgets\../lv_core/../lv_font/lv_font.h ****  * @param letter an UNICODE character code
  94:lvgl\src\lv_widgets\../lv_core/../lv_font/lv_font.h ****  * @return  pointer to the bitmap of the letter
  95:lvgl\src\lv_widgets\../lv_core/../lv_font/lv_font.h ****  */
  96:lvgl\src\lv_widgets\../lv_core/../lv_font/lv_font.h **** const uint8_t * lv_font_get_glyph_bitmap(const lv_font_t * font_p, uint32_t letter);
  97:lvgl\src\lv_widgets\../lv_core/../lv_font/lv_font.h **** 
  98:lvgl\src\lv_widgets\../lv_core/../lv_font/lv_font.h **** /**
  99:lvgl\src\lv_widgets\../lv_core/../lv_font/lv_font.h ****  * Get the descriptor of a glyph
 100:lvgl\src\lv_widgets\../lv_core/../lv_font/lv_font.h ****  * @param font_p pointer to font
 101:lvgl\src\lv_widgets\../lv_core/../lv_font/lv_font.h ****  * @param dsc_out store the result descriptor here
 102:lvgl\src\lv_widgets\../lv_core/../lv_font/lv_font.h ****  * @param letter an UNICODE letter code
 103:lvgl\src\lv_widgets\../lv_core/../lv_font/lv_font.h ****  * @return true: descriptor is successfully loaded into `dsc_out`.
 104:lvgl\src\lv_widgets\../lv_core/../lv_font/lv_font.h ****  *         false: the letter was not found, no data is loaded to `dsc_out`
 105:lvgl\src\lv_widgets\../lv_core/../lv_font/lv_font.h ****  */
 106:lvgl\src\lv_widgets\../lv_core/../lv_font/lv_font.h **** bool lv_font_get_glyph_dsc(const lv_font_t * font_p, lv_font_glyph_dsc_t * dsc_out, uint32_t letter
 107:lvgl\src\lv_widgets\../lv_core/../lv_font/lv_font.h ****                            uint32_t letter_next);
 108:lvgl\src\lv_widgets\../lv_core/../lv_font/lv_font.h **** 
 109:lvgl\src\lv_widgets\../lv_core/../lv_font/lv_font.h **** /**
 110:lvgl\src\lv_widgets\../lv_core/../lv_font/lv_font.h ****  * Get the width of a glyph with kerning
 111:lvgl\src\lv_widgets\../lv_core/../lv_font/lv_font.h ****  * @param font pointer to a font
 112:lvgl\src\lv_widgets\../lv_core/../lv_font/lv_font.h ****  * @param letter an UNICODE letter
ARM GAS  C:\Users\strap\AppData\Local\Temp\ccTzHSZB.s 			page 28


 113:lvgl\src\lv_widgets\../lv_core/../lv_font/lv_font.h ****  * @param letter_next the next letter after `letter`. Used for kerning
 114:lvgl\src\lv_widgets\../lv_core/../lv_font/lv_font.h ****  * @return the width of the glyph
 115:lvgl\src\lv_widgets\../lv_core/../lv_font/lv_font.h ****  */
 116:lvgl\src\lv_widgets\../lv_core/../lv_font/lv_font.h **** uint16_t lv_font_get_glyph_width(const lv_font_t * font, uint32_t letter, uint32_t letter_next);
 117:lvgl\src\lv_widgets\../lv_core/../lv_font/lv_font.h **** 
 118:lvgl\src\lv_widgets\../lv_core/../lv_font/lv_font.h **** /**
 119:lvgl\src\lv_widgets\../lv_core/../lv_font/lv_font.h ****  * Get the line height of a font. All characters fit into this height
 120:lvgl\src\lv_widgets\../lv_core/../lv_font/lv_font.h ****  * @param font_p pointer to a font
 121:lvgl\src\lv_widgets\../lv_core/../lv_font/lv_font.h ****  * @return the height of a font
 122:lvgl\src\lv_widgets\../lv_core/../lv_font/lv_font.h ****  */
 123:lvgl\src\lv_widgets\../lv_core/../lv_font/lv_font.h **** static inline lv_coord_t lv_font_get_line_height(const lv_font_t * font_p)
 124:lvgl\src\lv_widgets\../lv_core/../lv_font/lv_font.h **** {
 125:lvgl\src\lv_widgets\../lv_core/../lv_font/lv_font.h ****     return font_p->line_height;
 309              		.loc 3 125 0
 310 00a6 BBF90830 		ldrsh	r3, [fp, #8]
 311              	.LVL46:
 312              	.LBE104:
 313              	.LBE103:
 945:lvgl\src\lv_widgets/lv_tabview.c ****             btns_h = lv_font_get_line_height(font) + tab_top + tab_bottom + tab_bg_top + tab_bg_bot
 314              		.loc 1 945 0
 315 00aa 9A44     		add	r10, r10, r3
 316 00ac D144     		add	r9, r9, r10
 317 00ae C844     		add	r8, r8, r9
 318 00b0 4544     		add	r5, r5, r8
 319 00b2 2DB2     		sxth	r5, r5
 320              	.LVL47:
 946:lvgl\src\lv_widgets/lv_tabview.c ****             btns_w = lv_obj_get_width(tabview);
 321              		.loc 1 946 0
 322 00b4 2046     		mov	r0, r4
 323 00b6 FFF7FEFF 		bl	lv_obj_get_width
 324              	.LVL48:
 325 00ba 0746     		mov	r7, r0
 326              	.LVL49:
 947:lvgl\src\lv_widgets/lv_tabview.c **** 
 948:lvgl\src\lv_widgets/lv_tabview.c ****             break;
 327              		.loc 1 948 0
 328 00bc 15E0     		b	.L20
 329              	.LVL50:
 330              	.L19:
 949:lvgl\src\lv_widgets/lv_tabview.c ****         case LV_TABVIEW_TAB_POS_LEFT:
 950:lvgl\src\lv_widgets/lv_tabview.c ****         case LV_TABVIEW_TAB_POS_RIGHT:
 951:lvgl\src\lv_widgets/lv_tabview.c ****             lv_obj_set_hidden(ext->btns, false);
 331              		.loc 1 951 0
 332 00be 0021     		movs	r1, #0
 333 00c0 3068     		ldr	r0, [r6]
 334 00c2 FFF7FEFF 		bl	lv_obj_set_hidden
 335              	.LVL51:
 952:lvgl\src\lv_widgets/lv_tabview.c ****             btns_w = lv_font_get_glyph_width(font, 'A', '\0') +
 336              		.loc 1 952 0
 337 00c6 0022     		movs	r2, #0
 338 00c8 4121     		movs	r1, #65
 339 00ca 5846     		mov	r0, fp
 340 00cc FFF7FEFF 		bl	lv_font_get_glyph_width
 341              	.LVL52:
 342 00d0 3844     		add	r0, r0, r7
 343 00d2 039B     		ldr	r3, [sp, #12]
 344 00d4 0344     		add	r3, r3, r0
ARM GAS  C:\Users\strap\AppData\Local\Temp\ccTzHSZB.s 			page 29


 345 00d6 1F46     		mov	r7, r3
 346 00d8 019B     		ldr	r3, [sp, #4]
 347 00da 1F44     		add	r7, r7, r3
 348 00dc 029B     		ldr	r3, [sp, #8]
 349 00de 1F44     		add	r7, r7, r3
 350 00e0 3FB2     		sxth	r7, r7
 351              	.LVL53:
 953:lvgl\src\lv_widgets/lv_tabview.c ****                      tab_left + tab_right + tab_bg_left + tab_bg_right;
 954:lvgl\src\lv_widgets/lv_tabview.c ****             btns_h = lv_obj_get_height(tabview);
 352              		.loc 1 954 0
 353 00e2 2046     		mov	r0, r4
 354 00e4 FFF7FEFF 		bl	lv_obj_get_height
 355              	.LVL54:
 356 00e8 0546     		mov	r5, r0
 357              	.LVL55:
 358              	.L20:
 955:lvgl\src\lv_widgets/lv_tabview.c ****             break;
 956:lvgl\src\lv_widgets/lv_tabview.c ****     }
 957:lvgl\src\lv_widgets/lv_tabview.c **** 
 958:lvgl\src\lv_widgets/lv_tabview.c ****     lv_obj_set_size(ext->btns, btns_w, btns_h);
 359              		.loc 1 958 0
 360 00ea 2A46     		mov	r2, r5
 361 00ec 3946     		mov	r1, r7
 362 00ee 3068     		ldr	r0, [r6]
 363 00f0 FFF7FEFF 		bl	lv_obj_set_size
 364              	.LVL56:
 959:lvgl\src\lv_widgets/lv_tabview.c **** }
 365              		.loc 1 959 0
 366 00f4 05B0     		add	sp, sp, #20
 367              		.cfi_def_cfa_offset 36
 368              		@ sp needed
 369 00f6 BDE8F08F 		pop	{r4, r5, r6, r7, r8, r9, r10, fp, pc}
 370              		.cfi_endproc
 371              	.LFE375:
 372              		.size	refr_btns_size, .-refr_btns_size
 373 00fa 00BF     		.section	.text.refr_content_size,"ax",%progbits
 374              		.align	2
 375              		.thumb
 376              		.thumb_func
 377              		.type	refr_content_size, %function
 378              	refr_content_size:
 379              	.LFB376:
 960:lvgl\src\lv_widgets/lv_tabview.c **** 
 961:lvgl\src\lv_widgets/lv_tabview.c **** static void refr_content_size(lv_obj_t * tabview)
 962:lvgl\src\lv_widgets/lv_tabview.c **** {
 380              		.loc 1 962 0
 381              		.cfi_startproc
 382              		@ args = 0, pretend = 0, frame = 0
 383              		@ frame_needed = 0, uses_anonymous_args = 0
 384              	.LVL57:
 385 0000 2DE9F041 		push	{r4, r5, r6, r7, r8, lr}
 386              		.cfi_def_cfa_offset 24
 387              		.cfi_offset 4, -24
 388              		.cfi_offset 5, -20
 389              		.cfi_offset 6, -16
 390              		.cfi_offset 7, -12
 391              		.cfi_offset 8, -8
ARM GAS  C:\Users\strap\AppData\Local\Temp\ccTzHSZB.s 			page 30


 392              		.cfi_offset 14, -4
 393 0004 0646     		mov	r6, r0
 963:lvgl\src\lv_widgets/lv_tabview.c ****     lv_tabview_ext_t * ext = lv_obj_get_ext_attr(tabview);
 394              		.loc 1 963 0
 395 0006 FFF7FEFF 		bl	lv_obj_get_ext_attr
 396              	.LVL58:
 397 000a 0546     		mov	r5, r0
 398              	.LVL59:
 964:lvgl\src\lv_widgets/lv_tabview.c ****     lv_coord_t cont_w;
 965:lvgl\src\lv_widgets/lv_tabview.c ****     lv_coord_t cont_h;
 966:lvgl\src\lv_widgets/lv_tabview.c **** 
 967:lvgl\src\lv_widgets/lv_tabview.c ****     switch(ext->btns_pos) {
 399              		.loc 1 967 0
 400 000c 837E     		ldrb	r3, [r0, #26]	@ zero_extendqisi2
 401 000e 03F00703 		and	r3, r3, #7
 402 0012 013B     		subs	r3, r3, #1
 403 0014 032B     		cmp	r3, #3
 404 0016 03D8     		bhi	.L23
 405 0018 DFE803F0 		tbb	[pc, r3]
 406              	.L25:
 407 001c 0B       		.byte	(.L24-.L25)/2
 408 001d 0B       		.byte	(.L24-.L25)/2
 409 001e 19       		.byte	(.L26-.L25)/2
 410 001f 19       		.byte	(.L26-.L25)/2
 411              		.p2align 1
 412              	.L23:
 968:lvgl\src\lv_widgets/lv_tabview.c ****         default: /*default case is prevented in lv_tabview_set_btns_pos(), but here for safety*/
 969:lvgl\src\lv_widgets/lv_tabview.c ****         case LV_TABVIEW_TAB_POS_NONE:
 970:lvgl\src\lv_widgets/lv_tabview.c ****             cont_w = lv_obj_get_width(tabview);
 413              		.loc 1 970 0
 414 0020 3046     		mov	r0, r6
 415              	.LVL60:
 416 0022 FFF7FEFF 		bl	lv_obj_get_width
 417              	.LVL61:
 418 0026 0746     		mov	r7, r0
 419              	.LVL62:
 971:lvgl\src\lv_widgets/lv_tabview.c ****             cont_h = lv_obj_get_height(tabview);
 420              		.loc 1 971 0
 421 0028 3046     		mov	r0, r6
 422 002a FFF7FEFF 		bl	lv_obj_get_height
 423              	.LVL63:
 424 002e 0446     		mov	r4, r0
 425              	.LVL64:
 972:lvgl\src\lv_widgets/lv_tabview.c ****             break;
 426              		.loc 1 972 0
 427 0030 1AE0     		b	.L27
 428              	.LVL65:
 429              	.L24:
 973:lvgl\src\lv_widgets/lv_tabview.c ****         case LV_TABVIEW_TAB_POS_TOP:
 974:lvgl\src\lv_widgets/lv_tabview.c ****         case LV_TABVIEW_TAB_POS_BOTTOM:
 975:lvgl\src\lv_widgets/lv_tabview.c ****             cont_w = lv_obj_get_width(tabview);
 430              		.loc 1 975 0
 431 0032 3046     		mov	r0, r6
 432              	.LVL66:
 433 0034 FFF7FEFF 		bl	lv_obj_get_width
 434              	.LVL67:
 435 0038 0746     		mov	r7, r0
ARM GAS  C:\Users\strap\AppData\Local\Temp\ccTzHSZB.s 			page 31


 436              	.LVL68:
 976:lvgl\src\lv_widgets/lv_tabview.c ****             cont_h = lv_obj_get_height(tabview) - lv_obj_get_height(ext->btns);
 437              		.loc 1 976 0
 438 003a 3046     		mov	r0, r6
 439 003c FFF7FEFF 		bl	lv_obj_get_height
 440              	.LVL69:
 441 0040 0446     		mov	r4, r0
 442 0042 2868     		ldr	r0, [r5]
 443 0044 FFF7FEFF 		bl	lv_obj_get_height
 444              	.LVL70:
 445 0048 201A     		subs	r0, r4, r0
 446 004a 04B2     		sxth	r4, r0
 447              	.LVL71:
 977:lvgl\src\lv_widgets/lv_tabview.c ****             break;
 448              		.loc 1 977 0
 449 004c 0CE0     		b	.L27
 450              	.LVL72:
 451              	.L26:
 978:lvgl\src\lv_widgets/lv_tabview.c ****         case LV_TABVIEW_TAB_POS_LEFT:
 979:lvgl\src\lv_widgets/lv_tabview.c ****         case LV_TABVIEW_TAB_POS_RIGHT:
 980:lvgl\src\lv_widgets/lv_tabview.c ****             cont_w = lv_obj_get_width(tabview) - lv_obj_get_width(ext->btns);
 452              		.loc 1 980 0
 453 004e 3046     		mov	r0, r6
 454              	.LVL73:
 455 0050 FFF7FEFF 		bl	lv_obj_get_width
 456              	.LVL74:
 457 0054 0746     		mov	r7, r0
 458 0056 2868     		ldr	r0, [r5]
 459 0058 FFF7FEFF 		bl	lv_obj_get_width
 460              	.LVL75:
 461 005c 381A     		subs	r0, r7, r0
 462 005e 07B2     		sxth	r7, r0
 463              	.LVL76:
 981:lvgl\src\lv_widgets/lv_tabview.c ****             cont_h = lv_obj_get_height(tabview);
 464              		.loc 1 981 0
 465 0060 3046     		mov	r0, r6
 466 0062 FFF7FEFF 		bl	lv_obj_get_height
 467              	.LVL77:
 468 0066 0446     		mov	r4, r0
 469              	.LVL78:
 470              	.L27:
 982:lvgl\src\lv_widgets/lv_tabview.c ****             break;
 983:lvgl\src\lv_widgets/lv_tabview.c ****     }
 984:lvgl\src\lv_widgets/lv_tabview.c **** 
 985:lvgl\src\lv_widgets/lv_tabview.c ****     lv_obj_set_size(ext->content, cont_w, cont_h);
 471              		.loc 1 985 0
 472 0068 2246     		mov	r2, r4
 473 006a 3946     		mov	r1, r7
 474 006c A868     		ldr	r0, [r5, #8]
 475 006e FFF7FEFF 		bl	lv_obj_set_size
 476              	.LVL79:
 477              	.LBB105:
 478              	.LBB106:
 110:lvgl\src\lv_widgets\../lv_core/lv_obj_style_dec.h **** _LV_OBJ_STYLE_SET_GET_DECLARE(PAD_BOTTOM, pad_bottom, lv_style_int_t, _int, scalar)
 479              		.loc 2 110 0
 480 0072 1022     		movs	r2, #16
 481 0074 4021     		movs	r1, #64
ARM GAS  C:\Users\strap\AppData\Local\Temp\ccTzHSZB.s 			page 32


 482 0076 3046     		mov	r0, r6
 483 0078 FFF7FEFF 		bl	_lv_obj_get_style_int
 484              	.LVL80:
 485 007c 8046     		mov	r8, r0
 486              	.LVL81:
 487              	.LBE106:
 488              	.LBE105:
 489              	.LBB107:
 490              	.LBB108:
 111:lvgl\src\lv_widgets\../lv_core/lv_obj_style_dec.h **** _LV_OBJ_STYLE_SET_GET_DECLARE(PAD_LEFT, pad_left, lv_style_int_t, _int, scalar)
 491              		.loc 2 111 0
 492 007e 1122     		movs	r2, #17
 493 0080 4021     		movs	r1, #64
 494 0082 3046     		mov	r0, r6
 495 0084 FFF7FEFF 		bl	_lv_obj_get_style_int
 496              	.LVL82:
 497              	.LBE108:
 498              	.LBE107:
 986:lvgl\src\lv_widgets/lv_tabview.c **** 
 987:lvgl\src\lv_widgets/lv_tabview.c ****     /*Refresh the size of the tab pages too. `ext->content` has a layout to align the pages*/
 988:lvgl\src\lv_widgets/lv_tabview.c ****     lv_style_int_t bg_top = lv_obj_get_style_pad_top(tabview, LV_TABVIEW_PART_BG_SCRLLABLE);
 989:lvgl\src\lv_widgets/lv_tabview.c ****     lv_style_int_t bg_bottom = lv_obj_get_style_pad_bottom(tabview, LV_TABVIEW_PART_BG_SCRLLABLE);
 990:lvgl\src\lv_widgets/lv_tabview.c ****     cont_h -= bg_top + bg_bottom;
 499              		.loc 1 990 0
 500 0088 4044     		add	r0, r0, r8
 501 008a 241A     		subs	r4, r4, r0
 502              	.LVL83:
 503 008c 26B2     		sxth	r6, r4
 504              	.LVL84:
 991:lvgl\src\lv_widgets/lv_tabview.c ****     lv_obj_t * content_scrl = lv_page_get_scrollable(ext->content);
 505              		.loc 1 991 0
 506 008e A868     		ldr	r0, [r5, #8]
 507 0090 FFF7FEFF 		bl	lv_page_get_scrollable
 508              	.LVL85:
 509 0094 0546     		mov	r5, r0
 510              	.LVL86:
 992:lvgl\src\lv_widgets/lv_tabview.c ****     lv_obj_t * pages = lv_obj_get_child(content_scrl, NULL);
 511              		.loc 1 992 0
 512 0096 0021     		movs	r1, #0
 513 0098 FFF7FEFF 		bl	lv_obj_get_child
 514              	.LVL87:
 515 009c 0446     		mov	r4, r0
 516              	.LVL88:
 993:lvgl\src\lv_widgets/lv_tabview.c ****     while(pages != NULL) {
 517              		.loc 1 993 0
 518 009e 10E0     		b	.L28
 519              	.L30:
 994:lvgl\src\lv_widgets/lv_tabview.c ****         /*Be sure adjust only the pages (user can other things)*/
 995:lvgl\src\lv_widgets/lv_tabview.c ****         if(lv_obj_get_signal_cb(pages) == page_signal) {
 520              		.loc 1 995 0
 521 00a0 2046     		mov	r0, r4
 522              	.LVL89:
 523 00a2 FFF7FEFF 		bl	lv_obj_get_signal_cb
 524              	.LVL90:
 525 00a6 094B     		ldr	r3, .L32
 526 00a8 1B68     		ldr	r3, [r3]
 527 00aa 8342     		cmp	r3, r0
ARM GAS  C:\Users\strap\AppData\Local\Temp\ccTzHSZB.s 			page 33


 528 00ac 04D1     		bne	.L29
 996:lvgl\src\lv_widgets/lv_tabview.c ****             lv_obj_set_size(pages, cont_w, cont_h);
 529              		.loc 1 996 0
 530 00ae 3246     		mov	r2, r6
 531 00b0 3946     		mov	r1, r7
 532 00b2 2046     		mov	r0, r4
 533 00b4 FFF7FEFF 		bl	lv_obj_set_size
 534              	.LVL91:
 535              	.L29:
 997:lvgl\src\lv_widgets/lv_tabview.c ****         }
 998:lvgl\src\lv_widgets/lv_tabview.c ****         pages = lv_obj_get_child(content_scrl, pages);
 536              		.loc 1 998 0
 537 00b8 2146     		mov	r1, r4
 538 00ba 2846     		mov	r0, r5
 539 00bc FFF7FEFF 		bl	lv_obj_get_child
 540              	.LVL92:
 541 00c0 0446     		mov	r4, r0
 542              	.LVL93:
 543              	.L28:
 993:lvgl\src\lv_widgets/lv_tabview.c ****         /*Be sure adjust only the pages (user can other things)*/
 544              		.loc 1 993 0
 545 00c2 002C     		cmp	r4, #0
 546 00c4 ECD1     		bne	.L30
 999:lvgl\src\lv_widgets/lv_tabview.c ****     }
1000:lvgl\src\lv_widgets/lv_tabview.c **** }
 547              		.loc 1 1000 0
 548 00c6 BDE8F081 		pop	{r4, r5, r6, r7, r8, pc}
 549              	.LVL94:
 550              	.L33:
 551 00ca 00BF     		.align	2
 552              	.L32:
 553 00cc 00000000 		.word	.LANCHOR0
 554              		.cfi_endproc
 555              	.LFE376:
 556              		.size	refr_content_size, .-refr_content_size
 557              		.section	.text.refr_indic_size,"ax",%progbits
 558              		.align	2
 559              		.thumb
 560              		.thumb_func
 561              		.type	refr_indic_size, %function
 562              	refr_indic_size:
 563              	.LFB374:
 867:lvgl\src\lv_widgets/lv_tabview.c ****     lv_tabview_ext_t * ext = lv_obj_get_ext_attr(tabview);
 564              		.loc 1 867 0
 565              		.cfi_startproc
 566              		@ args = 0, pretend = 0, frame = 0
 567              		@ frame_needed = 0, uses_anonymous_args = 0
 568              	.LVL95:
 569 0000 F8B5     		push	{r3, r4, r5, r6, r7, lr}
 570              		.cfi_def_cfa_offset 24
 571              		.cfi_offset 3, -24
 572              		.cfi_offset 4, -20
 573              		.cfi_offset 5, -16
 574              		.cfi_offset 6, -12
 575              		.cfi_offset 7, -8
 576              		.cfi_offset 14, -4
 577 0002 0546     		mov	r5, r0
ARM GAS  C:\Users\strap\AppData\Local\Temp\ccTzHSZB.s 			page 34


 868:lvgl\src\lv_widgets/lv_tabview.c ****     lv_btnmatrix_ext_t * btnm_ext = lv_obj_get_ext_attr(ext->btns);
 578              		.loc 1 868 0
 579 0004 FFF7FEFF 		bl	lv_obj_get_ext_attr
 580              	.LVL96:
 581 0008 0446     		mov	r4, r0
 582              	.LVL97:
 869:lvgl\src\lv_widgets/lv_tabview.c **** 
 583              		.loc 1 869 0
 584 000a 0068     		ldr	r0, [r0]
 585              	.LVL98:
 586 000c FFF7FEFF 		bl	lv_obj_get_ext_attr
 587              	.LVL99:
 588 0010 0746     		mov	r7, r0
 589              	.LVL100:
 590              	.LBB109:
 591              	.LBB110:
 104:lvgl\src\lv_widgets\../lv_core/lv_obj_style_dec.h **** _LV_OBJ_STYLE_SET_GET_DECLARE(TRANSFORM_WIDTH, transform_width, lv_style_int_t, _int, scalar)
 592              		.loc 2 104 0
 593 0012 0322     		movs	r2, #3
 594 0014 4321     		movs	r1, #67
 595 0016 2846     		mov	r0, r5
 596              	.LVL101:
 597 0018 FFF7FEFF 		bl	_lv_obj_get_style_int
 598              	.LVL102:
 599 001c 0646     		mov	r6, r0
 600              	.LVL103:
 601              	.LBE110:
 602              	.LBE109:
 877:lvgl\src\lv_widgets/lv_tabview.c ****         default: /*default case is prevented in lv_tabview_set_btns_pos(), but here for safety*/
 603              		.loc 1 877 0
 604 001e A37E     		ldrb	r3, [r4, #26]	@ zero_extendqisi2
 605 0020 03F00703 		and	r3, r3, #7
 606 0024 013B     		subs	r3, r3, #1
 607 0026 032B     		cmp	r3, #3
 608 0028 03D8     		bhi	.L35
 609 002a DFE803F0 		tbb	[pc, r3]
 610              	.L37:
 611 002e 09       		.byte	(.L36-.L37)/2
 612 002f 09       		.byte	(.L36-.L37)/2
 613 0030 19       		.byte	(.L38-.L37)/2
 614 0031 19       		.byte	(.L38-.L37)/2
 615              		.p2align 1
 616              	.L35:
 880:lvgl\src\lv_widgets/lv_tabview.c ****             indic_w = 0;
 617              		.loc 1 880 0
 618 0032 0121     		movs	r1, #1
 619 0034 6068     		ldr	r0, [r4, #4]
 620 0036 FFF7FEFF 		bl	lv_obj_set_hidden
 621              	.LVL104:
 882:lvgl\src\lv_widgets/lv_tabview.c ****             break;
 622              		.loc 1 882 0
 623 003a 0025     		movs	r5, #0
 624              	.LVL105:
 881:lvgl\src\lv_widgets/lv_tabview.c ****             indic_h = 0;
 625              		.loc 1 881 0
 626 003c 2E46     		mov	r6, r5
 883:lvgl\src\lv_widgets/lv_tabview.c ****         case LV_TABVIEW_TAB_POS_TOP:
ARM GAS  C:\Users\strap\AppData\Local\Temp\ccTzHSZB.s 			page 35


 627              		.loc 1 883 0
 628 003e 23E0     		b	.L39
 629              	.LVL106:
 630              	.L36:
 886:lvgl\src\lv_widgets/lv_tabview.c ****             if(ext->tab_cnt) {
 631              		.loc 1 886 0
 632 0040 0021     		movs	r1, #0
 633 0042 6068     		ldr	r0, [r4, #4]
 634 0044 FFF7FEFF 		bl	lv_obj_set_hidden
 635              	.LVL107:
 887:lvgl\src\lv_widgets/lv_tabview.c ****                 indic_h = indic_size;
 636              		.loc 1 887 0
 637 0048 E38A     		ldrh	r3, [r4, #22]
 638 004a C3B1     		cbz	r3, .L40
 639              	.LVL108:
 889:lvgl\src\lv_widgets/lv_tabview.c ****             }
 640              		.loc 1 889 0
 641 004c 7A68     		ldr	r2, [r7, #4]
 642              	.LVL109:
 643              	.LBB111:
 644              	.LBB112:
 645              		.file 4 "lvgl\\src\\lv_widgets\\../lv_core/../lv_font/../lv_misc/lv_area.h"
   1:lvgl\src\lv_widgets\../lv_core/../lv_font/../lv_misc/lv_area.h **** /**
   2:lvgl\src\lv_widgets\../lv_core/../lv_font/../lv_misc/lv_area.h ****  * @file lv_area.h
   3:lvgl\src\lv_widgets\../lv_core/../lv_font/../lv_misc/lv_area.h ****  *
   4:lvgl\src\lv_widgets\../lv_core/../lv_font/../lv_misc/lv_area.h ****  */
   5:lvgl\src\lv_widgets\../lv_core/../lv_font/../lv_misc/lv_area.h **** 
   6:lvgl\src\lv_widgets\../lv_core/../lv_font/../lv_misc/lv_area.h **** #ifndef LV_AREA_H
   7:lvgl\src\lv_widgets\../lv_core/../lv_font/../lv_misc/lv_area.h **** #define LV_AREA_H
   8:lvgl\src\lv_widgets\../lv_core/../lv_font/../lv_misc/lv_area.h **** 
   9:lvgl\src\lv_widgets\../lv_core/../lv_font/../lv_misc/lv_area.h **** #ifdef __cplusplus
  10:lvgl\src\lv_widgets\../lv_core/../lv_font/../lv_misc/lv_area.h **** extern "C" {
  11:lvgl\src\lv_widgets\../lv_core/../lv_font/../lv_misc/lv_area.h **** #endif
  12:lvgl\src\lv_widgets\../lv_core/../lv_font/../lv_misc/lv_area.h **** 
  13:lvgl\src\lv_widgets\../lv_core/../lv_font/../lv_misc/lv_area.h **** /*********************
  14:lvgl\src\lv_widgets\../lv_core/../lv_font/../lv_misc/lv_area.h ****  *      INCLUDES
  15:lvgl\src\lv_widgets\../lv_core/../lv_font/../lv_misc/lv_area.h ****  *********************/
  16:lvgl\src\lv_widgets\../lv_core/../lv_font/../lv_misc/lv_area.h **** #include "../lv_conf_internal.h"
  17:lvgl\src\lv_widgets\../lv_core/../lv_font/../lv_misc/lv_area.h **** #include <string.h>
  18:lvgl\src\lv_widgets\../lv_core/../lv_font/../lv_misc/lv_area.h **** #include <stdbool.h>
  19:lvgl\src\lv_widgets\../lv_core/../lv_font/../lv_misc/lv_area.h **** #include <stdint.h>
  20:lvgl\src\lv_widgets\../lv_core/../lv_font/../lv_misc/lv_area.h **** #include "lv_mem.h"
  21:lvgl\src\lv_widgets\../lv_core/../lv_font/../lv_misc/lv_area.h **** 
  22:lvgl\src\lv_widgets\../lv_core/../lv_font/../lv_misc/lv_area.h **** /*********************
  23:lvgl\src\lv_widgets\../lv_core/../lv_font/../lv_misc/lv_area.h ****  *      DEFINES
  24:lvgl\src\lv_widgets\../lv_core/../lv_font/../lv_misc/lv_area.h ****  *********************/
  25:lvgl\src\lv_widgets\../lv_core/../lv_font/../lv_misc/lv_area.h **** /*To avoid overflow don't let the max ranges (reduce with 1000) */
  26:lvgl\src\lv_widgets\../lv_core/../lv_font/../lv_misc/lv_area.h **** #define LV_COORD_MAX ((lv_coord_t)((uint32_t)((uint32_t)1 << (8 * sizeof(lv_coord_t) - 1)) - 1000))
  27:lvgl\src\lv_widgets\../lv_core/../lv_font/../lv_misc/lv_area.h **** #define LV_COORD_MIN (-LV_COORD_MAX)
  28:lvgl\src\lv_widgets\../lv_core/../lv_font/../lv_misc/lv_area.h **** 
  29:lvgl\src\lv_widgets\../lv_core/../lv_font/../lv_misc/lv_area.h **** LV_EXPORT_CONST_INT(LV_COORD_MAX);
  30:lvgl\src\lv_widgets\../lv_core/../lv_font/../lv_misc/lv_area.h **** LV_EXPORT_CONST_INT(LV_COORD_MIN);
  31:lvgl\src\lv_widgets\../lv_core/../lv_font/../lv_misc/lv_area.h **** 
  32:lvgl\src\lv_widgets\../lv_core/../lv_font/../lv_misc/lv_area.h **** /**********************
  33:lvgl\src\lv_widgets\../lv_core/../lv_font/../lv_misc/lv_area.h ****  *      TYPEDEFS
  34:lvgl\src\lv_widgets\../lv_core/../lv_font/../lv_misc/lv_area.h ****  **********************/
  35:lvgl\src\lv_widgets\../lv_core/../lv_font/../lv_misc/lv_area.h **** 
ARM GAS  C:\Users\strap\AppData\Local\Temp\ccTzHSZB.s 			page 36


  36:lvgl\src\lv_widgets\../lv_core/../lv_font/../lv_misc/lv_area.h **** /**
  37:lvgl\src\lv_widgets\../lv_core/../lv_font/../lv_misc/lv_area.h ****  * Represents a point on the screen.
  38:lvgl\src\lv_widgets\../lv_core/../lv_font/../lv_misc/lv_area.h ****  */
  39:lvgl\src\lv_widgets\../lv_core/../lv_font/../lv_misc/lv_area.h **** typedef struct {
  40:lvgl\src\lv_widgets\../lv_core/../lv_font/../lv_misc/lv_area.h ****     lv_coord_t x;
  41:lvgl\src\lv_widgets\../lv_core/../lv_font/../lv_misc/lv_area.h ****     lv_coord_t y;
  42:lvgl\src\lv_widgets\../lv_core/../lv_font/../lv_misc/lv_area.h **** } lv_point_t;
  43:lvgl\src\lv_widgets\../lv_core/../lv_font/../lv_misc/lv_area.h **** 
  44:lvgl\src\lv_widgets\../lv_core/../lv_font/../lv_misc/lv_area.h **** /** Represents an area of the screen. */
  45:lvgl\src\lv_widgets\../lv_core/../lv_font/../lv_misc/lv_area.h **** typedef struct {
  46:lvgl\src\lv_widgets\../lv_core/../lv_font/../lv_misc/lv_area.h ****     lv_coord_t x1;
  47:lvgl\src\lv_widgets\../lv_core/../lv_font/../lv_misc/lv_area.h ****     lv_coord_t y1;
  48:lvgl\src\lv_widgets\../lv_core/../lv_font/../lv_misc/lv_area.h ****     lv_coord_t x2;
  49:lvgl\src\lv_widgets\../lv_core/../lv_font/../lv_misc/lv_area.h ****     lv_coord_t y2;
  50:lvgl\src\lv_widgets\../lv_core/../lv_font/../lv_misc/lv_area.h **** } lv_area_t;
  51:lvgl\src\lv_widgets\../lv_core/../lv_font/../lv_misc/lv_area.h **** 
  52:lvgl\src\lv_widgets\../lv_core/../lv_font/../lv_misc/lv_area.h **** 
  53:lvgl\src\lv_widgets\../lv_core/../lv_font/../lv_misc/lv_area.h **** 
  54:lvgl\src\lv_widgets\../lv_core/../lv_font/../lv_misc/lv_area.h **** /** Alignments */
  55:lvgl\src\lv_widgets\../lv_core/../lv_font/../lv_misc/lv_area.h **** enum {
  56:lvgl\src\lv_widgets\../lv_core/../lv_font/../lv_misc/lv_area.h ****     LV_ALIGN_CENTER = 0,
  57:lvgl\src\lv_widgets\../lv_core/../lv_font/../lv_misc/lv_area.h ****     LV_ALIGN_IN_TOP_LEFT,
  58:lvgl\src\lv_widgets\../lv_core/../lv_font/../lv_misc/lv_area.h ****     LV_ALIGN_IN_TOP_MID,
  59:lvgl\src\lv_widgets\../lv_core/../lv_font/../lv_misc/lv_area.h ****     LV_ALIGN_IN_TOP_RIGHT,
  60:lvgl\src\lv_widgets\../lv_core/../lv_font/../lv_misc/lv_area.h ****     LV_ALIGN_IN_BOTTOM_LEFT,
  61:lvgl\src\lv_widgets\../lv_core/../lv_font/../lv_misc/lv_area.h ****     LV_ALIGN_IN_BOTTOM_MID,
  62:lvgl\src\lv_widgets\../lv_core/../lv_font/../lv_misc/lv_area.h ****     LV_ALIGN_IN_BOTTOM_RIGHT,
  63:lvgl\src\lv_widgets\../lv_core/../lv_font/../lv_misc/lv_area.h ****     LV_ALIGN_IN_LEFT_MID,
  64:lvgl\src\lv_widgets\../lv_core/../lv_font/../lv_misc/lv_area.h ****     LV_ALIGN_IN_RIGHT_MID,
  65:lvgl\src\lv_widgets\../lv_core/../lv_font/../lv_misc/lv_area.h ****     LV_ALIGN_OUT_TOP_LEFT,
  66:lvgl\src\lv_widgets\../lv_core/../lv_font/../lv_misc/lv_area.h ****     LV_ALIGN_OUT_TOP_MID,
  67:lvgl\src\lv_widgets\../lv_core/../lv_font/../lv_misc/lv_area.h ****     LV_ALIGN_OUT_TOP_RIGHT,
  68:lvgl\src\lv_widgets\../lv_core/../lv_font/../lv_misc/lv_area.h ****     LV_ALIGN_OUT_BOTTOM_LEFT,
  69:lvgl\src\lv_widgets\../lv_core/../lv_font/../lv_misc/lv_area.h ****     LV_ALIGN_OUT_BOTTOM_MID,
  70:lvgl\src\lv_widgets\../lv_core/../lv_font/../lv_misc/lv_area.h ****     LV_ALIGN_OUT_BOTTOM_RIGHT,
  71:lvgl\src\lv_widgets\../lv_core/../lv_font/../lv_misc/lv_area.h ****     LV_ALIGN_OUT_LEFT_TOP,
  72:lvgl\src\lv_widgets\../lv_core/../lv_font/../lv_misc/lv_area.h ****     LV_ALIGN_OUT_LEFT_MID,
  73:lvgl\src\lv_widgets\../lv_core/../lv_font/../lv_misc/lv_area.h ****     LV_ALIGN_OUT_LEFT_BOTTOM,
  74:lvgl\src\lv_widgets\../lv_core/../lv_font/../lv_misc/lv_area.h ****     LV_ALIGN_OUT_RIGHT_TOP,
  75:lvgl\src\lv_widgets\../lv_core/../lv_font/../lv_misc/lv_area.h ****     LV_ALIGN_OUT_RIGHT_MID,
  76:lvgl\src\lv_widgets\../lv_core/../lv_font/../lv_misc/lv_area.h ****     LV_ALIGN_OUT_RIGHT_BOTTOM,
  77:lvgl\src\lv_widgets\../lv_core/../lv_font/../lv_misc/lv_area.h **** };
  78:lvgl\src\lv_widgets\../lv_core/../lv_font/../lv_misc/lv_area.h **** typedef uint8_t lv_align_t;
  79:lvgl\src\lv_widgets\../lv_core/../lv_font/../lv_misc/lv_area.h **** 
  80:lvgl\src\lv_widgets\../lv_core/../lv_font/../lv_misc/lv_area.h **** 
  81:lvgl\src\lv_widgets\../lv_core/../lv_font/../lv_misc/lv_area.h **** /**********************
  82:lvgl\src\lv_widgets\../lv_core/../lv_font/../lv_misc/lv_area.h ****  * GLOBAL PROTOTYPES
  83:lvgl\src\lv_widgets\../lv_core/../lv_font/../lv_misc/lv_area.h ****  **********************/
  84:lvgl\src\lv_widgets\../lv_core/../lv_font/../lv_misc/lv_area.h **** 
  85:lvgl\src\lv_widgets\../lv_core/../lv_font/../lv_misc/lv_area.h **** /**
  86:lvgl\src\lv_widgets\../lv_core/../lv_font/../lv_misc/lv_area.h ****  * Initialize an area
  87:lvgl\src\lv_widgets\../lv_core/../lv_font/../lv_misc/lv_area.h ****  * @param area_p pointer to an area
  88:lvgl\src\lv_widgets\../lv_core/../lv_font/../lv_misc/lv_area.h ****  * @param x1 left coordinate of the area
  89:lvgl\src\lv_widgets\../lv_core/../lv_font/../lv_misc/lv_area.h ****  * @param y1 top coordinate of the area
  90:lvgl\src\lv_widgets\../lv_core/../lv_font/../lv_misc/lv_area.h ****  * @param x2 right coordinate of the area
  91:lvgl\src\lv_widgets\../lv_core/../lv_font/../lv_misc/lv_area.h ****  * @param y2 bottom coordinate of the area
  92:lvgl\src\lv_widgets\../lv_core/../lv_font/../lv_misc/lv_area.h ****  */
ARM GAS  C:\Users\strap\AppData\Local\Temp\ccTzHSZB.s 			page 37


  93:lvgl\src\lv_widgets\../lv_core/../lv_font/../lv_misc/lv_area.h **** void lv_area_set(lv_area_t * area_p, lv_coord_t x1, lv_coord_t y1, lv_coord_t x2, lv_coord_t y2);
  94:lvgl\src\lv_widgets\../lv_core/../lv_font/../lv_misc/lv_area.h **** 
  95:lvgl\src\lv_widgets\../lv_core/../lv_font/../lv_misc/lv_area.h **** /**
  96:lvgl\src\lv_widgets\../lv_core/../lv_font/../lv_misc/lv_area.h ****  * Copy an area
  97:lvgl\src\lv_widgets\../lv_core/../lv_font/../lv_misc/lv_area.h ****  * @param dest pointer to the destination area
  98:lvgl\src\lv_widgets\../lv_core/../lv_font/../lv_misc/lv_area.h ****  * @param src pointer to the source area
  99:lvgl\src\lv_widgets\../lv_core/../lv_font/../lv_misc/lv_area.h ****  */
 100:lvgl\src\lv_widgets\../lv_core/../lv_font/../lv_misc/lv_area.h **** inline static void lv_area_copy(lv_area_t * dest, const lv_area_t * src)
 101:lvgl\src\lv_widgets\../lv_core/../lv_font/../lv_misc/lv_area.h **** {
 102:lvgl\src\lv_widgets\../lv_core/../lv_font/../lv_misc/lv_area.h ****     _lv_memcpy_small(dest, src, sizeof(lv_area_t));
 103:lvgl\src\lv_widgets\../lv_core/../lv_font/../lv_misc/lv_area.h **** }
 104:lvgl\src\lv_widgets\../lv_core/../lv_font/../lv_misc/lv_area.h **** 
 105:lvgl\src\lv_widgets\../lv_core/../lv_font/../lv_misc/lv_area.h **** /**
 106:lvgl\src\lv_widgets\../lv_core/../lv_font/../lv_misc/lv_area.h ****  * Get the width of an area
 107:lvgl\src\lv_widgets\../lv_core/../lv_font/../lv_misc/lv_area.h ****  * @param area_p pointer to an area
 108:lvgl\src\lv_widgets\../lv_core/../lv_font/../lv_misc/lv_area.h ****  * @return the width of the area (if x1 == x2 -> width = 1)
 109:lvgl\src\lv_widgets\../lv_core/../lv_font/../lv_misc/lv_area.h ****  */
 110:lvgl\src\lv_widgets\../lv_core/../lv_font/../lv_misc/lv_area.h **** static inline lv_coord_t lv_area_get_width(const lv_area_t * area_p)
 111:lvgl\src\lv_widgets\../lv_core/../lv_font/../lv_misc/lv_area.h **** {
 112:lvgl\src\lv_widgets\../lv_core/../lv_font/../lv_misc/lv_area.h ****     return (lv_coord_t)(area_p->x2 - area_p->x1 + 1);
 646              		.loc 4 112 0
 647 004e B2F90430 		ldrsh	r3, [r2, #4]
 648 0052 B2F90020 		ldrsh	r2, [r2]
 649              	.LVL110:
 650 0056 9B1A     		subs	r3, r3, r2
 651 0058 0133     		adds	r3, r3, #1
 652              	.LVL111:
 653              	.LBE112:
 654              	.LBE111:
 888:lvgl\src\lv_widgets/lv_tabview.c ****                 indic_w = lv_area_get_width(&btnm_ext->button_areas[0]);
 655              		.loc 1 888 0
 656 005a 3546     		mov	r5, r6
 657              	.LVL112:
 889:lvgl\src\lv_widgets/lv_tabview.c ****             }
 658              		.loc 1 889 0
 659 005c 1EB2     		sxth	r6, r3
 660              	.LVL113:
 661 005e 13E0     		b	.L39
 662              	.LVL114:
 663              	.L38:
 898:lvgl\src\lv_widgets/lv_tabview.c ****             if(ext->tab_cnt) {
 664              		.loc 1 898 0
 665 0060 0021     		movs	r1, #0
 666 0062 6068     		ldr	r0, [r4, #4]
 667 0064 FFF7FEFF 		bl	lv_obj_set_hidden
 668              	.LVL115:
 899:lvgl\src\lv_widgets/lv_tabview.c ****                 indic_w = indic_size;
 669              		.loc 1 899 0
 670 0068 E38A     		ldrh	r3, [r4, #22]
 671 006a 5BB1     		cbz	r3, .L41
 672              	.LVL116:
 901:lvgl\src\lv_widgets/lv_tabview.c ****             }
 673              		.loc 1 901 0
 674 006c 7A68     		ldr	r2, [r7, #4]
 675              	.LVL117:
 676              	.LBB113:
 677              	.LBB114:
ARM GAS  C:\Users\strap\AppData\Local\Temp\ccTzHSZB.s 			page 38


 113:lvgl\src\lv_widgets\../lv_core/../lv_font/../lv_misc/lv_area.h **** }
 114:lvgl\src\lv_widgets\../lv_core/../lv_font/../lv_misc/lv_area.h **** 
 115:lvgl\src\lv_widgets\../lv_core/../lv_font/../lv_misc/lv_area.h **** /**
 116:lvgl\src\lv_widgets\../lv_core/../lv_font/../lv_misc/lv_area.h ****  * Get the height of an area
 117:lvgl\src\lv_widgets\../lv_core/../lv_font/../lv_misc/lv_area.h ****  * @param area_p pointer to an area
 118:lvgl\src\lv_widgets\../lv_core/../lv_font/../lv_misc/lv_area.h ****  * @return the height of the area (if y1 == y2 -> height = 1)
 119:lvgl\src\lv_widgets\../lv_core/../lv_font/../lv_misc/lv_area.h ****  */
 120:lvgl\src\lv_widgets\../lv_core/../lv_font/../lv_misc/lv_area.h **** static inline lv_coord_t lv_area_get_height(const lv_area_t * area_p)
 121:lvgl\src\lv_widgets\../lv_core/../lv_font/../lv_misc/lv_area.h **** {
 122:lvgl\src\lv_widgets\../lv_core/../lv_font/../lv_misc/lv_area.h ****     return (lv_coord_t)(area_p->y2 - area_p->y1 + 1);
 678              		.loc 4 122 0
 679 006e B2F90630 		ldrsh	r3, [r2, #6]
 680 0072 B2F90250 		ldrsh	r5, [r2, #2]
 681              	.LVL118:
 682 0076 5D1B     		subs	r5, r3, r5
 683 0078 0135     		adds	r5, r5, #1
 684 007a 2DB2     		sxth	r5, r5
 685              	.LVL119:
 686              	.LBE114:
 687              	.LBE113:
 688 007c 04E0     		b	.L39
 689              	.LVL120:
 690              	.L40:
 893:lvgl\src\lv_widgets/lv_tabview.c ****             }
 691              		.loc 1 893 0
 692 007e 0025     		movs	r5, #0
 693              	.LVL121:
 892:lvgl\src\lv_widgets/lv_tabview.c ****                 indic_h = 0;
 694              		.loc 1 892 0
 695 0080 2E46     		mov	r6, r5
 696 0082 01E0     		b	.L39
 697              	.LVL122:
 698              	.L41:
 905:lvgl\src\lv_widgets/lv_tabview.c ****             }
 699              		.loc 1 905 0
 700 0084 0025     		movs	r5, #0
 701              	.LVL123:
 904:lvgl\src\lv_widgets/lv_tabview.c ****                 indic_h = 0;
 702              		.loc 1 904 0
 703 0086 2E46     		mov	r6, r5
 704              	.L39:
 705              	.LVL124:
 910:lvgl\src\lv_widgets/lv_tabview.c ****     lv_obj_set_height(ext->indic, indic_h);
 706              		.loc 1 910 0
 707 0088 3146     		mov	r1, r6
 708 008a 6068     		ldr	r0, [r4, #4]
 709 008c FFF7FEFF 		bl	lv_obj_set_width
 710              	.LVL125:
 911:lvgl\src\lv_widgets/lv_tabview.c **** }
 711              		.loc 1 911 0
 712 0090 2946     		mov	r1, r5
 713 0092 6068     		ldr	r0, [r4, #4]
 714 0094 FFF7FEFF 		bl	lv_obj_set_height
 715              	.LVL126:
 716 0098 F8BD     		pop	{r3, r4, r5, r6, r7, pc}
 717              		.cfi_endproc
 718              	.LFE374:
ARM GAS  C:\Users\strap\AppData\Local\Temp\ccTzHSZB.s 			page 39


 719              		.size	refr_indic_size, .-refr_indic_size
 720 009a 00BF     		.section	.text.refr_align,"ax",%progbits
 721              		.align	2
 722              		.thumb
 723              		.thumb_func
 724              		.type	refr_align, %function
 725              	refr_align:
 726              	.LFB377:
1001:lvgl\src\lv_widgets/lv_tabview.c **** 
1002:lvgl\src\lv_widgets/lv_tabview.c **** static void refr_align(lv_obj_t * tabview)
1003:lvgl\src\lv_widgets/lv_tabview.c **** {
 727              		.loc 1 1003 0
 728              		.cfi_startproc
 729              		@ args = 0, pretend = 0, frame = 0
 730              		@ frame_needed = 0, uses_anonymous_args = 0
 731              	.LVL127:
 732 0000 F0B5     		push	{r4, r5, r6, r7, lr}
 733              		.cfi_def_cfa_offset 20
 734              		.cfi_offset 4, -20
 735              		.cfi_offset 5, -16
 736              		.cfi_offset 6, -12
 737              		.cfi_offset 7, -8
 738              		.cfi_offset 14, -4
 739 0002 83B0     		sub	sp, sp, #12
 740              		.cfi_def_cfa_offset 32
 741 0004 0646     		mov	r6, r0
1004:lvgl\src\lv_widgets/lv_tabview.c ****     lv_tabview_ext_t * ext = lv_obj_get_ext_attr(tabview);
 742              		.loc 1 1004 0
 743 0006 FFF7FEFF 		bl	lv_obj_get_ext_attr
 744              	.LVL128:
 745 000a 0446     		mov	r4, r0
 746              	.LVL129:
1005:lvgl\src\lv_widgets/lv_tabview.c **** 
1006:lvgl\src\lv_widgets/lv_tabview.c ****     switch(ext->btns_pos) {
 747              		.loc 1 1006 0
 748 000c 837E     		ldrb	r3, [r0, #26]	@ zero_extendqisi2
 749 000e 03F00703 		and	r3, r3, #7
 750 0012 013B     		subs	r3, r3, #1
 751 0014 032B     		cmp	r3, #3
 752 0016 03D8     		bhi	.L44
 753 0018 DFE803F0 		tbb	[pc, r3]
 754              	.L46:
 755 001c 0A       		.byte	(.L45-.L46)/2
 756 001d 21       		.byte	(.L47-.L46)/2
 757 001e 38       		.byte	(.L48-.L46)/2
 758 001f 53       		.byte	(.L49-.L46)/2
 759              		.p2align 1
 760              	.L44:
1007:lvgl\src\lv_widgets/lv_tabview.c ****         default: /*default case is prevented in lv_tabview_set_btns_pos(), but here for safety*/
1008:lvgl\src\lv_widgets/lv_tabview.c ****         case LV_TABVIEW_TAB_POS_NONE:
1009:lvgl\src\lv_widgets/lv_tabview.c ****             lv_obj_align(ext->content, NULL, LV_ALIGN_IN_TOP_LEFT, 0, 0);
 761              		.loc 1 1009 0
 762 0020 8068     		ldr	r0, [r0, #8]
 763              	.LVL130:
 764 0022 0021     		movs	r1, #0
 765 0024 0091     		str	r1, [sp]
 766 0026 0B46     		mov	r3, r1
ARM GAS  C:\Users\strap\AppData\Local\Temp\ccTzHSZB.s 			page 40


 767 0028 0122     		movs	r2, #1
 768 002a FFF7FEFF 		bl	lv_obj_align
 769              	.LVL131:
1010:lvgl\src\lv_widgets/lv_tabview.c ****             break;
 770              		.loc 1 1010 0
 771 002e 5EE0     		b	.L43
 772              	.LVL132:
 773              	.L45:
1011:lvgl\src\lv_widgets/lv_tabview.c ****         case LV_TABVIEW_TAB_POS_TOP:
1012:lvgl\src\lv_widgets/lv_tabview.c ****             lv_obj_align(ext->btns, NULL, LV_ALIGN_IN_TOP_LEFT, 0, 0);
 774              		.loc 1 1012 0
 775 0030 0068     		ldr	r0, [r0]
 776              	.LVL133:
 777 0032 0025     		movs	r5, #0
 778 0034 0095     		str	r5, [sp]
 779 0036 2B46     		mov	r3, r5
 780 0038 0122     		movs	r2, #1
 781 003a 2946     		mov	r1, r5
 782 003c FFF7FEFF 		bl	lv_obj_align
 783              	.LVL134:
1013:lvgl\src\lv_widgets/lv_tabview.c ****             lv_obj_align(ext->content, ext->btns, LV_ALIGN_OUT_BOTTOM_LEFT, 0, 0);
 784              		.loc 1 1013 0
 785 0040 2168     		ldr	r1, [r4]
 786 0042 A068     		ldr	r0, [r4, #8]
 787 0044 0095     		str	r5, [sp]
 788 0046 2B46     		mov	r3, r5
 789 0048 0C22     		movs	r2, #12
 790 004a FFF7FEFF 		bl	lv_obj_align
 791              	.LVL135:
1014:lvgl\src\lv_widgets/lv_tabview.c ****             lv_obj_align(ext->indic, ext->btns, LV_ALIGN_IN_BOTTOM_LEFT, 0, 0);
 792              		.loc 1 1014 0
 793 004e 2168     		ldr	r1, [r4]
 794 0050 6068     		ldr	r0, [r4, #4]
 795 0052 0095     		str	r5, [sp]
 796 0054 2B46     		mov	r3, r5
 797 0056 0422     		movs	r2, #4
 798 0058 FFF7FEFF 		bl	lv_obj_align
 799              	.LVL136:
1015:lvgl\src\lv_widgets/lv_tabview.c ****             break;
 800              		.loc 1 1015 0
 801 005c 47E0     		b	.L43
 802              	.LVL137:
 803              	.L47:
1016:lvgl\src\lv_widgets/lv_tabview.c ****         case LV_TABVIEW_TAB_POS_BOTTOM:
1017:lvgl\src\lv_widgets/lv_tabview.c ****             lv_obj_align(ext->content, NULL, LV_ALIGN_IN_TOP_LEFT, 0, 0);
 804              		.loc 1 1017 0
 805 005e 8068     		ldr	r0, [r0, #8]
 806              	.LVL138:
 807 0060 0025     		movs	r5, #0
 808 0062 0095     		str	r5, [sp]
 809 0064 2B46     		mov	r3, r5
 810 0066 0122     		movs	r2, #1
 811 0068 2946     		mov	r1, r5
 812 006a FFF7FEFF 		bl	lv_obj_align
 813              	.LVL139:
1018:lvgl\src\lv_widgets/lv_tabview.c ****             lv_obj_align(ext->btns, ext->content, LV_ALIGN_OUT_BOTTOM_LEFT, 0, 0);
 814              		.loc 1 1018 0
ARM GAS  C:\Users\strap\AppData\Local\Temp\ccTzHSZB.s 			page 41


 815 006e A168     		ldr	r1, [r4, #8]
 816 0070 2068     		ldr	r0, [r4]
 817 0072 0095     		str	r5, [sp]
 818 0074 2B46     		mov	r3, r5
 819 0076 0C22     		movs	r2, #12
 820 0078 FFF7FEFF 		bl	lv_obj_align
 821              	.LVL140:
1019:lvgl\src\lv_widgets/lv_tabview.c ****             lv_obj_align(ext->indic, ext->btns, LV_ALIGN_IN_TOP_LEFT, 0, 0);
 822              		.loc 1 1019 0
 823 007c 2168     		ldr	r1, [r4]
 824 007e 6068     		ldr	r0, [r4, #4]
 825 0080 0095     		str	r5, [sp]
 826 0082 2B46     		mov	r3, r5
 827 0084 0122     		movs	r2, #1
 828 0086 FFF7FEFF 		bl	lv_obj_align
 829              	.LVL141:
1020:lvgl\src\lv_widgets/lv_tabview.c ****             break;
 830              		.loc 1 1020 0
 831 008a 30E0     		b	.L43
 832              	.LVL142:
 833              	.L48:
1021:lvgl\src\lv_widgets/lv_tabview.c ****         case LV_TABVIEW_TAB_POS_LEFT:
1022:lvgl\src\lv_widgets/lv_tabview.c ****             lv_obj_align(ext->btns, NULL, LV_ALIGN_IN_TOP_LEFT, 0, 0);
 834              		.loc 1 1022 0
 835 008c 0068     		ldr	r0, [r0]
 836              	.LVL143:
 837 008e 0025     		movs	r5, #0
 838 0090 0095     		str	r5, [sp]
 839 0092 2B46     		mov	r3, r5
 840 0094 0122     		movs	r2, #1
 841 0096 2946     		mov	r1, r5
 842 0098 FFF7FEFF 		bl	lv_obj_align
 843              	.LVL144:
1023:lvgl\src\lv_widgets/lv_tabview.c ****             lv_obj_align(ext->content, tabview, LV_ALIGN_IN_TOP_LEFT, lv_obj_get_width(ext->btns), 
 844              		.loc 1 1023 0
 845 009c A768     		ldr	r7, [r4, #8]
 846 009e 2068     		ldr	r0, [r4]
 847 00a0 FFF7FEFF 		bl	lv_obj_get_width
 848              	.LVL145:
 849 00a4 0095     		str	r5, [sp]
 850 00a6 0346     		mov	r3, r0
 851 00a8 0122     		movs	r2, #1
 852 00aa 3146     		mov	r1, r6
 853 00ac 3846     		mov	r0, r7
 854 00ae FFF7FEFF 		bl	lv_obj_align
 855              	.LVL146:
1024:lvgl\src\lv_widgets/lv_tabview.c ****             lv_obj_align(ext->indic, ext->btns, LV_ALIGN_IN_TOP_RIGHT, 0, 0);
 856              		.loc 1 1024 0
 857 00b2 2168     		ldr	r1, [r4]
 858 00b4 6068     		ldr	r0, [r4, #4]
 859 00b6 0095     		str	r5, [sp]
 860 00b8 2B46     		mov	r3, r5
 861 00ba 0322     		movs	r2, #3
 862 00bc FFF7FEFF 		bl	lv_obj_align
 863              	.LVL147:
1025:lvgl\src\lv_widgets/lv_tabview.c ****             break;
 864              		.loc 1 1025 0
ARM GAS  C:\Users\strap\AppData\Local\Temp\ccTzHSZB.s 			page 42


 865 00c0 15E0     		b	.L43
 866              	.LVL148:
 867              	.L49:
1026:lvgl\src\lv_widgets/lv_tabview.c ****         case LV_TABVIEW_TAB_POS_RIGHT:
1027:lvgl\src\lv_widgets/lv_tabview.c ****             lv_obj_align(ext->btns, NULL, LV_ALIGN_IN_TOP_RIGHT, 0, 0);
 868              		.loc 1 1027 0
 869 00c2 0068     		ldr	r0, [r0]
 870              	.LVL149:
 871 00c4 0025     		movs	r5, #0
 872 00c6 0095     		str	r5, [sp]
 873 00c8 2B46     		mov	r3, r5
 874 00ca 0322     		movs	r2, #3
 875 00cc 2946     		mov	r1, r5
 876 00ce FFF7FEFF 		bl	lv_obj_align
 877              	.LVL150:
1028:lvgl\src\lv_widgets/lv_tabview.c ****             lv_obj_align(ext->content, tabview, LV_ALIGN_IN_TOP_LEFT, 0, 0);
 878              		.loc 1 1028 0
 879 00d2 A068     		ldr	r0, [r4, #8]
 880 00d4 0095     		str	r5, [sp]
 881 00d6 2B46     		mov	r3, r5
 882 00d8 0122     		movs	r2, #1
 883 00da 3146     		mov	r1, r6
 884 00dc FFF7FEFF 		bl	lv_obj_align
 885              	.LVL151:
1029:lvgl\src\lv_widgets/lv_tabview.c ****             lv_obj_align(ext->indic, ext->btns, LV_ALIGN_IN_TOP_LEFT, 0, 0);
 886              		.loc 1 1029 0
 887 00e0 2168     		ldr	r1, [r4]
 888 00e2 6068     		ldr	r0, [r4, #4]
 889 00e4 0095     		str	r5, [sp]
 890 00e6 2B46     		mov	r3, r5
 891 00e8 0122     		movs	r2, #1
 892 00ea FFF7FEFF 		bl	lv_obj_align
 893              	.LVL152:
 894              	.L43:
1030:lvgl\src\lv_widgets/lv_tabview.c ****             break;
1031:lvgl\src\lv_widgets/lv_tabview.c ****     }
1032:lvgl\src\lv_widgets/lv_tabview.c **** }
 895              		.loc 1 1032 0
 896 00ee 03B0     		add	sp, sp, #12
 897              		.cfi_def_cfa_offset 20
 898              		@ sp needed
 899 00f0 F0BD     		pop	{r4, r5, r6, r7, pc}
 900              		.cfi_endproc
 901              	.LFE377:
 902              		.size	refr_align, .-refr_align
 903 00f2 00BF     		.section	.text.lv_tabview_clean_tab,"ax",%progbits
 904              		.align	2
 905              		.global	lv_tabview_clean_tab
 906              		.thumb
 907              		.thumb_func
 908              		.type	lv_tabview_clean_tab, %function
 909              	lv_tabview_clean_tab:
 910              	.LFB359:
 293:lvgl\src\lv_widgets/lv_tabview.c ****     LV_ASSERT_OBJ(tab, "lv_page");
 911              		.loc 1 293 0
 912              		.cfi_startproc
 913              		@ args = 0, pretend = 0, frame = 0
ARM GAS  C:\Users\strap\AppData\Local\Temp\ccTzHSZB.s 			page 43


 914              		@ frame_needed = 0, uses_anonymous_args = 0
 915              	.LVL153:
 916 0000 10B5     		push	{r4, lr}
 917              		.cfi_def_cfa_offset 8
 918              		.cfi_offset 4, -8
 919              		.cfi_offset 14, -4
 920 0002 0446     		mov	r4, r0
 294:lvgl\src\lv_widgets/lv_tabview.c **** 
 921              		.loc 1 294 0
 922 0004 FFF7FEFF 		bl	lv_debug_check_null
 923              	.LVL154:
 924 0008 28B9     		cbnz	r0, .L53
 294:lvgl\src\lv_widgets/lv_tabview.c **** 
 925              		.loc 1 294 0 is_stmt 0 discriminator 1
 926 000a 2246     		mov	r2, r4
 927 000c 0023     		movs	r3, #0
 928 000e 0548     		ldr	r0, .L56
 929 0010 FFF7FEFF 		bl	lv_debug_log_error
 930              	.LVL155:
 931              	.L54:
 932 0014 FEE7     		b	.L54
 933              	.L53:
 296:lvgl\src\lv_widgets/lv_tabview.c ****     lv_obj_clean(scrl);
 934              		.loc 1 296 0 is_stmt 1
 935 0016 2046     		mov	r0, r4
 936 0018 FFF7FEFF 		bl	lv_page_get_scrollable
 937              	.LVL156:
 297:lvgl\src\lv_widgets/lv_tabview.c **** }
 938              		.loc 1 297 0
 939 001c FFF7FEFF 		bl	lv_obj_clean
 940              	.LVL157:
 941 0020 10BD     		pop	{r4, pc}
 942              	.LVL158:
 943              	.L57:
 944 0022 00BF     		.align	2
 945              	.L56:
 946 0024 00000000 		.word	.LC0
 947              		.cfi_endproc
 948              	.LFE359:
 949              		.size	lv_tabview_clean_tab, .-lv_tabview_clean_tab
 950              		.section	.text.lv_tabview_set_tab_name,"ax",%progbits
 951              		.align	2
 952              		.global	lv_tabview_set_tab_name
 953              		.thumb
 954              		.thumb_func
 955              		.type	lv_tabview_set_tab_name, %function
 956              	lv_tabview_set_tab_name:
 957              	.LFB361:
 444:lvgl\src\lv_widgets/lv_tabview.c ****     LV_ASSERT_OBJ(tabview, LV_OBJX_NAME);
 958              		.loc 1 444 0
 959              		.cfi_startproc
 960              		@ args = 0, pretend = 0, frame = 0
 961              		@ frame_needed = 0, uses_anonymous_args = 0
 962              	.LVL159:
 963 0000 F8B5     		push	{r3, r4, r5, r6, r7, lr}
 964              		.cfi_def_cfa_offset 24
 965              		.cfi_offset 3, -24
ARM GAS  C:\Users\strap\AppData\Local\Temp\ccTzHSZB.s 			page 44


 966              		.cfi_offset 4, -20
 967              		.cfi_offset 5, -16
 968              		.cfi_offset 6, -12
 969              		.cfi_offset 7, -8
 970              		.cfi_offset 14, -4
 971 0002 0446     		mov	r4, r0
 972 0004 0D46     		mov	r5, r1
 973 0006 1746     		mov	r7, r2
 445:lvgl\src\lv_widgets/lv_tabview.c **** 
 974              		.loc 1 445 0
 975 0008 FFF7FEFF 		bl	lv_debug_check_null
 976              	.LVL160:
 977 000c 28B9     		cbnz	r0, .L59
 445:lvgl\src\lv_widgets/lv_tabview.c **** 
 978              		.loc 1 445 0 is_stmt 0 discriminator 1
 979 000e 2246     		mov	r2, r4
 980 0010 0023     		movs	r3, #0
 981 0012 1548     		ldr	r0, .L65
 982 0014 FFF7FEFF 		bl	lv_debug_log_error
 983              	.LVL161:
 984              	.L60:
 985 0018 FEE7     		b	.L60
 986              	.L59:
 448:lvgl\src\lv_widgets/lv_tabview.c **** 
 987              		.loc 1 448 0 is_stmt 1
 988 001a 2046     		mov	r0, r4
 989 001c FFF7FEFF 		bl	lv_obj_get_ext_attr
 990              	.LVL162:
 991 0020 0446     		mov	r4, r0
 992              	.LVL163:
 451:lvgl\src\lv_widgets/lv_tabview.c ****         /* reallocate memory for new tab name (use reallocate due to mostly the size didn't change 
 993              		.loc 1 451 0
 994 0022 C38A     		ldrh	r3, [r0, #22]
 995 0024 AB42     		cmp	r3, r5
 996 0026 1DD9     		bls	.L58
 997              	.LBB115:
 453:lvgl\src\lv_widgets/lv_tabview.c ****         LV_ASSERT_MEM(str);
 998              		.loc 1 453 0
 999 0028 C368     		ldr	r3, [r0, #12]
 1000 002a 53F82560 		ldr	r6, [r3, r5, lsl #2]
 1001 002e 3846     		mov	r0, r7
 1002              	.LVL164:
 1003 0030 FFF7FEFF 		bl	strlen
 1004              	.LVL165:
 1005 0034 411C     		adds	r1, r0, #1
 1006 0036 3046     		mov	r0, r6
 1007 0038 FFF7FEFF 		bl	lv_mem_realloc
 1008              	.LVL166:
 1009 003c 0646     		mov	r6, r0
 1010              	.LVL167:
 454:lvgl\src\lv_widgets/lv_tabview.c **** 
 1011              		.loc 1 454 0
 1012 003e FFF7FEFF 		bl	lv_debug_check_null
 1013              	.LVL168:
 1014 0042 28B9     		cbnz	r0, .L62
 454:lvgl\src\lv_widgets/lv_tabview.c **** 
 1015              		.loc 1 454 0 is_stmt 0 discriminator 1
ARM GAS  C:\Users\strap\AppData\Local\Temp\ccTzHSZB.s 			page 45


 1016 0044 3246     		mov	r2, r6
 1017 0046 0023     		movs	r3, #0
 1018 0048 0848     		ldr	r0, .L65+4
 1019 004a FFF7FEFF 		bl	lv_debug_log_error
 1020              	.LVL169:
 1021              	.L63:
 1022 004e FEE7     		b	.L63
 1023              	.L62:
 457:lvgl\src\lv_widgets/lv_tabview.c ****         /* update pointer  */
 1024              		.loc 1 457 0 is_stmt 1
 1025 0050 3946     		mov	r1, r7
 1026 0052 3046     		mov	r0, r6
 1027 0054 FFF7FEFF 		bl	strcpy
 1028              	.LVL170:
 459:lvgl\src\lv_widgets/lv_tabview.c **** 
 1029              		.loc 1 459 0
 1030 0058 E368     		ldr	r3, [r4, #12]
 1031 005a 43F82560 		str	r6, [r3, r5, lsl #2]
 462:lvgl\src\lv_widgets/lv_tabview.c ****     }
 1032              		.loc 1 462 0
 1033 005e 2068     		ldr	r0, [r4]
 1034 0060 FFF7FEFF 		bl	lv_obj_invalidate
 1035              	.LVL171:
 1036              	.L58:
 1037 0064 F8BD     		pop	{r3, r4, r5, r6, r7, pc}
 1038              	.LVL172:
 1039              	.L66:
 1040 0066 00BF     		.align	2
 1041              	.L65:
 1042 0068 00000000 		.word	.LC0
 1043 006c 10000000 		.word	.LC1
 1044              	.LBE115:
 1045              		.cfi_endproc
 1046              	.LFE361:
 1047              		.size	lv_tabview_set_tab_name, .-lv_tabview_set_tab_name
 1048              		.section	.text.lv_tabview_set_anim_time,"ax",%progbits
 1049              		.align	2
 1050              		.global	lv_tabview_set_anim_time
 1051              		.thumb
 1052              		.thumb_func
 1053              		.type	lv_tabview_set_anim_time, %function
 1054              	lv_tabview_set_anim_time:
 1055              	.LFB362:
 472:lvgl\src\lv_widgets/lv_tabview.c ****     LV_ASSERT_OBJ(tabview, LV_OBJX_NAME);
 1056              		.loc 1 472 0
 1057              		.cfi_startproc
 1058              		@ args = 0, pretend = 0, frame = 0
 1059              		@ frame_needed = 0, uses_anonymous_args = 0
 1060              	.LVL173:
 1061 0000 38B5     		push	{r3, r4, r5, lr}
 1062              		.cfi_def_cfa_offset 16
 1063              		.cfi_offset 3, -16
 1064              		.cfi_offset 4, -12
 1065              		.cfi_offset 5, -8
 1066              		.cfi_offset 14, -4
 1067 0002 0446     		mov	r4, r0
 1068 0004 0D46     		mov	r5, r1
ARM GAS  C:\Users\strap\AppData\Local\Temp\ccTzHSZB.s 			page 46


 473:lvgl\src\lv_widgets/lv_tabview.c **** 
 1069              		.loc 1 473 0
 1070 0006 FFF7FEFF 		bl	lv_debug_check_null
 1071              	.LVL174:
 1072 000a 28B9     		cbnz	r0, .L68
 473:lvgl\src\lv_widgets/lv_tabview.c **** 
 1073              		.loc 1 473 0 is_stmt 0 discriminator 1
 1074 000c 2246     		mov	r2, r4
 1075 000e 0023     		movs	r3, #0
 1076 0010 0448     		ldr	r0, .L71
 1077 0012 FFF7FEFF 		bl	lv_debug_log_error
 1078              	.LVL175:
 1079              	.L69:
 1080 0016 FEE7     		b	.L69
 1081              	.L68:
 476:lvgl\src\lv_widgets/lv_tabview.c ****     ext->anim_time         = anim_time;
 1082              		.loc 1 476 0 is_stmt 1
 1083 0018 2046     		mov	r0, r4
 1084 001a FFF7FEFF 		bl	lv_obj_get_ext_attr
 1085              	.LVL176:
 477:lvgl\src\lv_widgets/lv_tabview.c **** #else
 1086              		.loc 1 477 0
 1087 001e 0583     		strh	r5, [r0, #24]	@ movhi
 1088 0020 38BD     		pop	{r3, r4, r5, pc}
 1089              	.LVL177:
 1090              	.L72:
 1091 0022 00BF     		.align	2
 1092              	.L71:
 1093 0024 00000000 		.word	.LC0
 1094              		.cfi_endproc
 1095              	.LFE362:
 1096              		.size	lv_tabview_set_anim_time, .-lv_tabview_set_anim_time
 1097              		.section	.text.lv_tabview_get_tab_act,"ax",%progbits
 1098              		.align	2
 1099              		.global	lv_tabview_get_tab_act
 1100              		.thumb
 1101              		.thumb_func
 1102              		.type	lv_tabview_get_tab_act, %function
 1103              	lv_tabview_get_tab_act:
 1104              	.LFB364:
 517:lvgl\src\lv_widgets/lv_tabview.c ****     LV_ASSERT_OBJ(tabview, LV_OBJX_NAME);
 1105              		.loc 1 517 0
 1106              		.cfi_startproc
 1107              		@ args = 0, pretend = 0, frame = 0
 1108              		@ frame_needed = 0, uses_anonymous_args = 0
 1109              	.LVL178:
 1110 0000 10B5     		push	{r4, lr}
 1111              		.cfi_def_cfa_offset 8
 1112              		.cfi_offset 4, -8
 1113              		.cfi_offset 14, -4
 1114 0002 0446     		mov	r4, r0
 518:lvgl\src\lv_widgets/lv_tabview.c **** 
 1115              		.loc 1 518 0
 1116 0004 FFF7FEFF 		bl	lv_debug_check_null
 1117              	.LVL179:
 1118 0008 28B9     		cbnz	r0, .L74
 518:lvgl\src\lv_widgets/lv_tabview.c **** 
ARM GAS  C:\Users\strap\AppData\Local\Temp\ccTzHSZB.s 			page 47


 1119              		.loc 1 518 0 is_stmt 0 discriminator 1
 1120 000a 2246     		mov	r2, r4
 1121 000c 0023     		movs	r3, #0
 1122 000e 0448     		ldr	r0, .L77
 1123 0010 FFF7FEFF 		bl	lv_debug_log_error
 1124              	.LVL180:
 1125              	.L75:
 1126 0014 FEE7     		b	.L75
 1127              	.L74:
 520:lvgl\src\lv_widgets/lv_tabview.c ****     return ext->tab_cur;
 1128              		.loc 1 520 0 is_stmt 1
 1129 0016 2046     		mov	r0, r4
 1130 0018 FFF7FEFF 		bl	lv_obj_get_ext_attr
 1131              	.LVL181:
 522:lvgl\src\lv_widgets/lv_tabview.c **** 
 1132              		.loc 1 522 0
 1133 001c 808A     		ldrh	r0, [r0, #20]
 1134              	.LVL182:
 1135 001e 10BD     		pop	{r4, pc}
 1136              	.LVL183:
 1137              	.L78:
 1138              		.align	2
 1139              	.L77:
 1140 0020 00000000 		.word	.LC0
 1141              		.cfi_endproc
 1142              	.LFE364:
 1143              		.size	lv_tabview_get_tab_act, .-lv_tabview_get_tab_act
 1144              		.section	.text.lv_tabview_get_tab_count,"ax",%progbits
 1145              		.align	2
 1146              		.global	lv_tabview_get_tab_count
 1147              		.thumb
 1148              		.thumb_func
 1149              		.type	lv_tabview_get_tab_count, %function
 1150              	lv_tabview_get_tab_count:
 1151              	.LFB365:
 530:lvgl\src\lv_widgets/lv_tabview.c ****     LV_ASSERT_OBJ(tabview, LV_OBJX_NAME);
 1152              		.loc 1 530 0
 1153              		.cfi_startproc
 1154              		@ args = 0, pretend = 0, frame = 0
 1155              		@ frame_needed = 0, uses_anonymous_args = 0
 1156              	.LVL184:
 1157 0000 10B5     		push	{r4, lr}
 1158              		.cfi_def_cfa_offset 8
 1159              		.cfi_offset 4, -8
 1160              		.cfi_offset 14, -4
 1161 0002 0446     		mov	r4, r0
 531:lvgl\src\lv_widgets/lv_tabview.c **** 
 1162              		.loc 1 531 0
 1163 0004 FFF7FEFF 		bl	lv_debug_check_null
 1164              	.LVL185:
 1165 0008 28B9     		cbnz	r0, .L80
 531:lvgl\src\lv_widgets/lv_tabview.c **** 
 1166              		.loc 1 531 0 is_stmt 0 discriminator 1
 1167 000a 2246     		mov	r2, r4
 1168 000c 0023     		movs	r3, #0
 1169 000e 0448     		ldr	r0, .L83
 1170 0010 FFF7FEFF 		bl	lv_debug_log_error
ARM GAS  C:\Users\strap\AppData\Local\Temp\ccTzHSZB.s 			page 48


 1171              	.LVL186:
 1172              	.L81:
 1173 0014 FEE7     		b	.L81
 1174              	.L80:
 533:lvgl\src\lv_widgets/lv_tabview.c ****     return ext->tab_cnt;
 1175              		.loc 1 533 0 is_stmt 1
 1176 0016 2046     		mov	r0, r4
 1177 0018 FFF7FEFF 		bl	lv_obj_get_ext_attr
 1178              	.LVL187:
 535:lvgl\src\lv_widgets/lv_tabview.c **** 
 1179              		.loc 1 535 0
 1180 001c C08A     		ldrh	r0, [r0, #22]
 1181              	.LVL188:
 1182 001e 10BD     		pop	{r4, pc}
 1183              	.LVL189:
 1184              	.L84:
 1185              		.align	2
 1186              	.L83:
 1187 0020 00000000 		.word	.LC0
 1188              		.cfi_endproc
 1189              	.LFE365:
 1190              		.size	lv_tabview_get_tab_count, .-lv_tabview_get_tab_count
 1191              		.section	.text.lv_tabview_get_tab,"ax",%progbits
 1192              		.align	2
 1193              		.global	lv_tabview_get_tab
 1194              		.thumb
 1195              		.thumb_func
 1196              		.type	lv_tabview_get_tab, %function
 1197              	lv_tabview_get_tab:
 1198              	.LFB366:
 544:lvgl\src\lv_widgets/lv_tabview.c ****     LV_ASSERT_OBJ(tabview, LV_OBJX_NAME);
 1199              		.loc 1 544 0
 1200              		.cfi_startproc
 1201              		@ args = 0, pretend = 0, frame = 0
 1202              		@ frame_needed = 0, uses_anonymous_args = 0
 1203              	.LVL190:
 1204 0000 F8B5     		push	{r3, r4, r5, r6, r7, lr}
 1205              		.cfi_def_cfa_offset 24
 1206              		.cfi_offset 3, -24
 1207              		.cfi_offset 4, -20
 1208              		.cfi_offset 5, -16
 1209              		.cfi_offset 6, -12
 1210              		.cfi_offset 7, -8
 1211              		.cfi_offset 14, -4
 1212 0002 0446     		mov	r4, r0
 1213 0004 0E46     		mov	r6, r1
 545:lvgl\src\lv_widgets/lv_tabview.c **** 
 1214              		.loc 1 545 0
 1215 0006 FFF7FEFF 		bl	lv_debug_check_null
 1216              	.LVL191:
 1217 000a 28B9     		cbnz	r0, .L86
 545:lvgl\src\lv_widgets/lv_tabview.c **** 
 1218              		.loc 1 545 0 is_stmt 0 discriminator 1
 1219 000c 2246     		mov	r2, r4
 1220 000e 0023     		movs	r3, #0
 1221 0010 1348     		ldr	r0, .L95
 1222 0012 FFF7FEFF 		bl	lv_debug_log_error
ARM GAS  C:\Users\strap\AppData\Local\Temp\ccTzHSZB.s 			page 49


 1223              	.LVL192:
 1224              	.L87:
 1225 0016 FEE7     		b	.L87
 1226              	.L86:
 547:lvgl\src\lv_widgets/lv_tabview.c ****     lv_obj_t * content_scrl = lv_page_get_scrollable(ext->content);
 1227              		.loc 1 547 0 is_stmt 1
 1228 0018 2046     		mov	r0, r4
 1229 001a FFF7FEFF 		bl	lv_obj_get_ext_attr
 1230              	.LVL193:
 548:lvgl\src\lv_widgets/lv_tabview.c ****     uint16_t i             = 0;
 1231              		.loc 1 548 0
 1232 001e 8068     		ldr	r0, [r0, #8]
 1233              	.LVL194:
 1234 0020 FFF7FEFF 		bl	lv_page_get_scrollable
 1235              	.LVL195:
 1236 0024 0746     		mov	r7, r0
 1237              	.LVL196:
 550:lvgl\src\lv_widgets/lv_tabview.c **** 
 1238              		.loc 1 550 0
 1239 0026 0021     		movs	r1, #0
 1240 0028 FFF7FEFF 		bl	lv_obj_get_child_back
 1241              	.LVL197:
 1242 002c 0446     		mov	r4, r0
 1243              	.LVL198:
 549:lvgl\src\lv_widgets/lv_tabview.c ****     lv_obj_t * page        = lv_obj_get_child_back(content_scrl, NULL);
 1244              		.loc 1 549 0
 1245 002e 0025     		movs	r5, #0
 552:lvgl\src\lv_widgets/lv_tabview.c ****         if(lv_obj_get_signal_cb(page) == page_signal) i++;
 1246              		.loc 1 552 0
 1247 0030 0DE0     		b	.L88
 1248              	.LVL199:
 1249              	.L91:
 553:lvgl\src\lv_widgets/lv_tabview.c ****         page = lv_obj_get_child_back(content_scrl, page);
 1250              		.loc 1 553 0
 1251 0032 2046     		mov	r0, r4
 1252              	.LVL200:
 1253 0034 FFF7FEFF 		bl	lv_obj_get_signal_cb
 1254              	.LVL201:
 1255 0038 0A4B     		ldr	r3, .L95+4
 1256 003a 1B68     		ldr	r3, [r3]
 1257 003c 8342     		cmp	r3, r0
 1258 003e 01D1     		bne	.L89
 553:lvgl\src\lv_widgets/lv_tabview.c ****         page = lv_obj_get_child_back(content_scrl, page);
 1259              		.loc 1 553 0 is_stmt 0 discriminator 1
 1260 0040 0135     		adds	r5, r5, #1
 1261              	.LVL202:
 1262 0042 ADB2     		uxth	r5, r5
 1263              	.LVL203:
 1264              	.L89:
 554:lvgl\src\lv_widgets/lv_tabview.c ****     }
 1265              		.loc 1 554 0 is_stmt 1
 1266 0044 2146     		mov	r1, r4
 1267 0046 3846     		mov	r0, r7
 1268 0048 FFF7FEFF 		bl	lv_obj_get_child_back
 1269              	.LVL204:
 1270 004c 0446     		mov	r4, r0
 1271              	.LVL205:
ARM GAS  C:\Users\strap\AppData\Local\Temp\ccTzHSZB.s 			page 50


 1272              	.L88:
 552:lvgl\src\lv_widgets/lv_tabview.c ****         if(lv_obj_get_signal_cb(page) == page_signal) i++;
 1273              		.loc 1 552 0
 1274 004e 0CB1     		cbz	r4, .L90
 552:lvgl\src\lv_widgets/lv_tabview.c ****         if(lv_obj_get_signal_cb(page) == page_signal) i++;
 1275              		.loc 1 552 0 is_stmt 0 discriminator 1
 1276 0050 B542     		cmp	r5, r6
 1277 0052 EED1     		bne	.L91
 1278              	.L90:
 557:lvgl\src\lv_widgets/lv_tabview.c **** 
 1279              		.loc 1 557 0 is_stmt 1
 1280 0054 B542     		cmp	r5, r6
 1281 0056 01D0     		beq	.L93
 559:lvgl\src\lv_widgets/lv_tabview.c **** }
 1282              		.loc 1 559 0
 1283 0058 0020     		movs	r0, #0
 1284              	.LVL206:
 1285 005a F8BD     		pop	{r3, r4, r5, r6, r7, pc}
 1286              	.LVL207:
 1287              	.L93:
 557:lvgl\src\lv_widgets/lv_tabview.c **** 
 1288              		.loc 1 557 0
 1289 005c 2046     		mov	r0, r4
 1290              	.LVL208:
 560:lvgl\src\lv_widgets/lv_tabview.c **** 
 1291              		.loc 1 560 0
 1292 005e F8BD     		pop	{r3, r4, r5, r6, r7, pc}
 1293              	.LVL209:
 1294              	.L96:
 1295              		.align	2
 1296              	.L95:
 1297 0060 00000000 		.word	.LC0
 1298 0064 00000000 		.word	.LANCHOR0
 1299              		.cfi_endproc
 1300              	.LFE366:
 1301              		.size	lv_tabview_get_tab, .-lv_tabview_get_tab
 1302              		.section	.text.lv_tabview_get_anim_time,"ax",%progbits
 1303              		.align	2
 1304              		.global	lv_tabview_get_anim_time
 1305              		.thumb
 1306              		.thumb_func
 1307              		.type	lv_tabview_get_anim_time, %function
 1308              	lv_tabview_get_anim_time:
 1309              	.LFB367:
 568:lvgl\src\lv_widgets/lv_tabview.c ****     LV_ASSERT_OBJ(tabview, LV_OBJX_NAME);
 1310              		.loc 1 568 0
 1311              		.cfi_startproc
 1312              		@ args = 0, pretend = 0, frame = 0
 1313              		@ frame_needed = 0, uses_anonymous_args = 0
 1314              	.LVL210:
 1315 0000 10B5     		push	{r4, lr}
 1316              		.cfi_def_cfa_offset 8
 1317              		.cfi_offset 4, -8
 1318              		.cfi_offset 14, -4
 1319 0002 0446     		mov	r4, r0
 569:lvgl\src\lv_widgets/lv_tabview.c **** 
 1320              		.loc 1 569 0
ARM GAS  C:\Users\strap\AppData\Local\Temp\ccTzHSZB.s 			page 51


 1321 0004 FFF7FEFF 		bl	lv_debug_check_null
 1322              	.LVL211:
 1323 0008 28B9     		cbnz	r0, .L98
 569:lvgl\src\lv_widgets/lv_tabview.c **** 
 1324              		.loc 1 569 0 is_stmt 0 discriminator 1
 1325 000a 2246     		mov	r2, r4
 1326 000c 0023     		movs	r3, #0
 1327 000e 0448     		ldr	r0, .L101
 1328 0010 FFF7FEFF 		bl	lv_debug_log_error
 1329              	.LVL212:
 1330              	.L99:
 1331 0014 FEE7     		b	.L99
 1332              	.L98:
 572:lvgl\src\lv_widgets/lv_tabview.c ****     return ext->anim_time;
 1333              		.loc 1 572 0 is_stmt 1
 1334 0016 2046     		mov	r0, r4
 1335 0018 FFF7FEFF 		bl	lv_obj_get_ext_attr
 1336              	.LVL213:
 578:lvgl\src\lv_widgets/lv_tabview.c **** 
 1337              		.loc 1 578 0
 1338 001c 008B     		ldrh	r0, [r0, #24]
 1339              	.LVL214:
 1340 001e 10BD     		pop	{r4, pc}
 1341              	.LVL215:
 1342              	.L102:
 1343              		.align	2
 1344              	.L101:
 1345 0020 00000000 		.word	.LC0
 1346              		.cfi_endproc
 1347              	.LFE367:
 1348              		.size	lv_tabview_get_anim_time, .-lv_tabview_get_anim_time
 1349              		.section	.text.lv_tabview_set_tab_act,"ax",%progbits
 1350              		.align	2
 1351              		.global	lv_tabview_set_tab_act
 1352              		.thumb
 1353              		.thumb_func
 1354              		.type	lv_tabview_set_tab_act, %function
 1355              	lv_tabview_set_tab_act:
 1356              	.LFB360:
 311:lvgl\src\lv_widgets/lv_tabview.c ****     LV_ASSERT_OBJ(tabview, LV_OBJX_NAME);
 1357              		.loc 1 311 0
 1358              		.cfi_startproc
 1359              		@ args = 0, pretend = 0, frame = 72
 1360              		@ frame_needed = 0, uses_anonymous_args = 0
 1361              	.LVL216:
 1362 0000 2DE9F047 		push	{r4, r5, r6, r7, r8, r9, r10, lr}
 1363              		.cfi_def_cfa_offset 32
 1364              		.cfi_offset 4, -32
 1365              		.cfi_offset 5, -28
 1366              		.cfi_offset 6, -24
 1367              		.cfi_offset 7, -20
 1368              		.cfi_offset 8, -16
 1369              		.cfi_offset 9, -12
 1370              		.cfi_offset 10, -8
 1371              		.cfi_offset 14, -4
 1372 0004 92B0     		sub	sp, sp, #72
 1373              		.cfi_def_cfa_offset 104
ARM GAS  C:\Users\strap\AppData\Local\Temp\ccTzHSZB.s 			page 52


 1374 0006 0746     		mov	r7, r0
 1375 0008 0E46     		mov	r6, r1
 1376 000a 9046     		mov	r8, r2
 312:lvgl\src\lv_widgets/lv_tabview.c **** 
 1377              		.loc 1 312 0
 1378 000c FFF7FEFF 		bl	lv_debug_check_null
 1379              	.LVL217:
 1380 0010 28B9     		cbnz	r0, .L104
 312:lvgl\src\lv_widgets/lv_tabview.c **** 
 1381              		.loc 1 312 0 is_stmt 0 discriminator 1
 1382 0012 3A46     		mov	r2, r7
 1383 0014 0023     		movs	r3, #0
 1384 0016 7148     		ldr	r0, .L131
 1385 0018 FFF7FEFF 		bl	lv_debug_log_error
 1386              	.LVL218:
 1387              	.L105:
 1388 001c FEE7     		b	.L105
 1389              	.L104:
 317:lvgl\src\lv_widgets/lv_tabview.c **** 
 1390              		.loc 1 317 0 is_stmt 1
 1391 001e 3846     		mov	r0, r7
 1392 0020 FFF7FEFF 		bl	lv_obj_get_ext_attr
 1393              	.LVL219:
 1394 0024 0446     		mov	r4, r0
 1395              	.LVL220:
 319:lvgl\src\lv_widgets/lv_tabview.c **** 
 1396              		.loc 1 319 0
 1397 0026 C38A     		ldrh	r3, [r0, #22]
 1398 0028 B342     		cmp	r3, r6
 1399 002a 01D8     		bhi	.L106
 319:lvgl\src\lv_widgets/lv_tabview.c **** 
 1400              		.loc 1 319 0 is_stmt 0 discriminator 1
 1401 002c 013B     		subs	r3, r3, #1
 1402 002e 9EB2     		uxth	r6, r3
 1403              	.LVL221:
 1404              	.L106:
 321:lvgl\src\lv_widgets/lv_tabview.c **** 
 1405              		.loc 1 321 0 is_stmt 1
 1406 0030 8022     		movs	r2, #128
 1407 0032 A18A     		ldrh	r1, [r4, #20]
 1408 0034 2068     		ldr	r0, [r4]
 1409              	.LVL222:
 1410 0036 FFF7FEFF 		bl	lv_btnmatrix_clear_btn_ctrl
 1411              	.LVL223:
 323:lvgl\src\lv_widgets/lv_tabview.c **** 
 1412              		.loc 1 323 0
 1413 003a A682     		strh	r6, [r4, #20]	@ movhi
 325:lvgl\src\lv_widgets/lv_tabview.c ****         id = (ext->tab_cnt - (id + 1));
 1414              		.loc 1 325 0
 1415 003c 3846     		mov	r0, r7
 1416 003e FFF7FEFF 		bl	lv_obj_get_base_dir
 1417              	.LVL224:
 1418 0042 0128     		cmp	r0, #1
 1419 0044 04D1     		bne	.L107
 326:lvgl\src\lv_widgets/lv_tabview.c ****     }
 1420              		.loc 1 326 0
 1421 0046 E38A     		ldrh	r3, [r4, #22]
ARM GAS  C:\Users\strap\AppData\Local\Temp\ccTzHSZB.s 			page 53


 1422 0048 9E1B     		subs	r6, r3, r6
 1423              	.LVL225:
 1424 004a B6B2     		uxth	r6, r6
 1425 004c 013E     		subs	r6, r6, #1
 1426 004e B6B2     		uxth	r6, r6
 1427              	.LVL226:
 1428              	.L107:
 1429              	.LBB116:
 1430              	.LBB117:
 114:lvgl\src\lv_widgets\../lv_core/lv_obj_style_dec.h **** _LV_OBJ_STYLE_SET_GET_DECLARE(MARGIN_TOP, margin_top, lv_style_int_t, _int, scalar)
 1431              		.loc 2 114 0
 1432 0050 1422     		movs	r2, #20
 1433 0052 4021     		movs	r1, #64
 1434 0054 A068     		ldr	r0, [r4, #8]
 1435 0056 FFF7FEFF 		bl	_lv_obj_get_style_int
 1436              	.LVL227:
 1437 005a 8246     		mov	r10, r0
 1438              	.LVL228:
 1439              	.LBE117:
 1440              	.LBE116:
 1441              	.LBB118:
 1442              	.LBB119:
 112:lvgl\src\lv_widgets\../lv_core/lv_obj_style_dec.h **** _LV_OBJ_STYLE_SET_GET_DECLARE(PAD_RIGHT, pad_right, lv_style_int_t, _int, scalar)
 1443              		.loc 2 112 0
 1444 005c 1222     		movs	r2, #18
 1445 005e 4021     		movs	r1, #64
 1446 0060 A068     		ldr	r0, [r4, #8]
 1447 0062 FFF7FEFF 		bl	_lv_obj_get_style_int
 1448              	.LVL229:
 1449 0066 8146     		mov	r9, r0
 1450              	.LVL230:
 1451              	.LBE119:
 1452              	.LBE118:
 333:lvgl\src\lv_widgets/lv_tabview.c ****         default: /*default case is prevented in lv_tabview_set_btns_pos(), but here for safety*/
 1453              		.loc 1 333 0
 1454 0068 A37E     		ldrb	r3, [r4, #26]	@ zero_extendqisi2
 1455 006a 03F00703 		and	r3, r3, #7
 1456 006e 033B     		subs	r3, r3, #3
 1457 0070 012B     		cmp	r3, #1
 1458 0072 08D9     		bls	.L129
 338:lvgl\src\lv_widgets/lv_tabview.c ****             break;
 1459              		.loc 1 338 0
 1460 0074 3846     		mov	r0, r7
 1461 0076 FFF7FEFF 		bl	lv_obj_get_width
 1462              	.LVL231:
 1463 007a 5044     		add	r0, r0, r10
 1464 007c 00FB0695 		mla	r5, r0, r6, r9
 1465 0080 6D42     		negs	r5, r5
 1466 0082 2DB2     		sxth	r5, r5
 1467              	.LVL232:
 339:lvgl\src\lv_widgets/lv_tabview.c ****         case LV_TABVIEW_TAB_POS_LEFT:
 1468              		.loc 1 339 0
 1469 0084 0DE0     		b	.L110
 1470              	.LVL233:
 1471              	.L129:
 342:lvgl\src\lv_widgets/lv_tabview.c ****             break;
 1472              		.loc 1 342 0
ARM GAS  C:\Users\strap\AppData\Local\Temp\ccTzHSZB.s 			page 54


 1473 0086 3846     		mov	r0, r7
 1474 0088 FFF7FEFF 		bl	lv_obj_get_width
 1475              	.LVL234:
 1476 008c 0546     		mov	r5, r0
 1477 008e 2068     		ldr	r0, [r4]
 1478 0090 FFF7FEFF 		bl	lv_obj_get_width
 1479              	.LVL235:
 1480 0094 281A     		subs	r0, r5, r0
 1481 0096 0AEB0003 		add	r3, r10, r0
 1482 009a 03FB0695 		mla	r5, r3, r6, r9
 1483 009e 6D42     		negs	r5, r5
 1484 00a0 2DB2     		sxth	r5, r5
 1485              	.LVL236:
 1486              	.L110:
 346:lvgl\src\lv_widgets/lv_tabview.c ****         lv_obj_set_x(lv_page_get_scrollable(ext->content), cont_x);
 1487              		.loc 1 346 0
 1488 00a2 B8F1000F 		cmp	r8, #0
 1489 00a6 03D0     		beq	.L111
 346:lvgl\src\lv_widgets/lv_tabview.c ****         lv_obj_set_x(lv_page_get_scrollable(ext->content), cont_x);
 1490              		.loc 1 346 0 is_stmt 0 discriminator 1
 1491 00a8 3846     		mov	r0, r7
 1492 00aa FFF7FEFF 		bl	lv_tabview_get_anim_time
 1493              	.LVL237:
 1494 00ae 30B9     		cbnz	r0, .L112
 1495              	.L111:
 347:lvgl\src\lv_widgets/lv_tabview.c ****     }
 1496              		.loc 1 347 0 is_stmt 1
 1497 00b0 A068     		ldr	r0, [r4, #8]
 1498 00b2 FFF7FEFF 		bl	lv_page_get_scrollable
 1499              	.LVL238:
 1500 00b6 2946     		mov	r1, r5
 1501 00b8 FFF7FEFF 		bl	lv_obj_set_x
 1502              	.LVL239:
 1503 00bc 15E0     		b	.L113
 1504              	.L112:
 1505              	.LBB120:
 352:lvgl\src\lv_widgets/lv_tabview.c ****         lv_anim_set_var(&a, lv_page_get_scrollable(ext->content));
 1506              		.loc 1 352 0
 1507 00be 6846     		mov	r0, sp
 1508 00c0 FFF7FEFF 		bl	lv_anim_init
 1509              	.LVL240:
 353:lvgl\src\lv_widgets/lv_tabview.c ****         lv_anim_set_exec_cb(&a, (lv_anim_exec_xcb_t)lv_obj_set_x);
 1510              		.loc 1 353 0
 1511 00c4 A068     		ldr	r0, [r4, #8]
 1512 00c6 FFF7FEFF 		bl	lv_page_get_scrollable
 1513              	.LVL241:
 1514              	.LBB121:
 1515              	.LBB122:
 1516              		.file 5 "lvgl\\src\\lv_widgets\\../lv_core/../lv_misc/lv_anim.h"
   1:lvgl\src\lv_widgets\../lv_core/../lv_misc/lv_anim.h **** /**
   2:lvgl\src\lv_widgets\../lv_core/../lv_misc/lv_anim.h ****  * @file anim.h
   3:lvgl\src\lv_widgets\../lv_core/../lv_misc/lv_anim.h ****  *
   4:lvgl\src\lv_widgets\../lv_core/../lv_misc/lv_anim.h ****  */
   5:lvgl\src\lv_widgets\../lv_core/../lv_misc/lv_anim.h **** 
   6:lvgl\src\lv_widgets\../lv_core/../lv_misc/lv_anim.h **** #ifndef ANIM_H
   7:lvgl\src\lv_widgets\../lv_core/../lv_misc/lv_anim.h **** #define ANIM_H
   8:lvgl\src\lv_widgets\../lv_core/../lv_misc/lv_anim.h **** 
ARM GAS  C:\Users\strap\AppData\Local\Temp\ccTzHSZB.s 			page 55


   9:lvgl\src\lv_widgets\../lv_core/../lv_misc/lv_anim.h **** #ifdef __cplusplus
  10:lvgl\src\lv_widgets\../lv_core/../lv_misc/lv_anim.h **** extern "C" {
  11:lvgl\src\lv_widgets\../lv_core/../lv_misc/lv_anim.h **** #endif
  12:lvgl\src\lv_widgets\../lv_core/../lv_misc/lv_anim.h **** 
  13:lvgl\src\lv_widgets\../lv_core/../lv_misc/lv_anim.h **** /*********************
  14:lvgl\src\lv_widgets\../lv_core/../lv_misc/lv_anim.h ****  *      INCLUDES
  15:lvgl\src\lv_widgets\../lv_core/../lv_misc/lv_anim.h ****  *********************/
  16:lvgl\src\lv_widgets\../lv_core/../lv_misc/lv_anim.h **** #include "../lv_conf_internal.h"
  17:lvgl\src\lv_widgets\../lv_core/../lv_misc/lv_anim.h **** 
  18:lvgl\src\lv_widgets\../lv_core/../lv_misc/lv_anim.h **** #include <stdint.h>
  19:lvgl\src\lv_widgets\../lv_core/../lv_misc/lv_anim.h **** #include <stdbool.h>
  20:lvgl\src\lv_widgets\../lv_core/../lv_misc/lv_anim.h **** #include <string.h>
  21:lvgl\src\lv_widgets\../lv_core/../lv_misc/lv_anim.h **** #include "lv_mem.h"
  22:lvgl\src\lv_widgets\../lv_core/../lv_misc/lv_anim.h **** 
  23:lvgl\src\lv_widgets\../lv_core/../lv_misc/lv_anim.h **** /*********************
  24:lvgl\src\lv_widgets\../lv_core/../lv_misc/lv_anim.h ****  *      DEFINES
  25:lvgl\src\lv_widgets\../lv_core/../lv_misc/lv_anim.h ****  *********************/
  26:lvgl\src\lv_widgets\../lv_core/../lv_misc/lv_anim.h **** 
  27:lvgl\src\lv_widgets\../lv_core/../lv_misc/lv_anim.h **** /**********************
  28:lvgl\src\lv_widgets\../lv_core/../lv_misc/lv_anim.h ****  *      TYPEDEFS
  29:lvgl\src\lv_widgets\../lv_core/../lv_misc/lv_anim.h ****  **********************/
  30:lvgl\src\lv_widgets\../lv_core/../lv_misc/lv_anim.h **** 
  31:lvgl\src\lv_widgets\../lv_core/../lv_misc/lv_anim.h **** /** Can be used to indicate if animations are enabled or disabled in a case*/
  32:lvgl\src\lv_widgets\../lv_core/../lv_misc/lv_anim.h **** enum {
  33:lvgl\src\lv_widgets\../lv_core/../lv_misc/lv_anim.h ****     LV_ANIM_OFF,
  34:lvgl\src\lv_widgets\../lv_core/../lv_misc/lv_anim.h ****     LV_ANIM_ON,
  35:lvgl\src\lv_widgets\../lv_core/../lv_misc/lv_anim.h **** };
  36:lvgl\src\lv_widgets\../lv_core/../lv_misc/lv_anim.h **** 
  37:lvgl\src\lv_widgets\../lv_core/../lv_misc/lv_anim.h **** typedef uint8_t lv_anim_enable_t;
  38:lvgl\src\lv_widgets\../lv_core/../lv_misc/lv_anim.h **** 
  39:lvgl\src\lv_widgets\../lv_core/../lv_misc/lv_anim.h **** /** Type of the animated value*/
  40:lvgl\src\lv_widgets\../lv_core/../lv_misc/lv_anim.h **** typedef lv_coord_t lv_anim_value_t;
  41:lvgl\src\lv_widgets\../lv_core/../lv_misc/lv_anim.h **** 
  42:lvgl\src\lv_widgets\../lv_core/../lv_misc/lv_anim.h **** #if LV_USE_ANIMATION
  43:lvgl\src\lv_widgets\../lv_core/../lv_misc/lv_anim.h **** 
  44:lvgl\src\lv_widgets\../lv_core/../lv_misc/lv_anim.h **** #define LV_ANIM_REPEAT_INFINITE      0xFFFF
  45:lvgl\src\lv_widgets\../lv_core/../lv_misc/lv_anim.h **** 
  46:lvgl\src\lv_widgets\../lv_core/../lv_misc/lv_anim.h **** 
  47:lvgl\src\lv_widgets\../lv_core/../lv_misc/lv_anim.h **** struct _lv_anim_t;
  48:lvgl\src\lv_widgets\../lv_core/../lv_misc/lv_anim.h **** struct _lv_anim_path_t;
  49:lvgl\src\lv_widgets\../lv_core/../lv_misc/lv_anim.h **** /** Get the current value during an animation*/
  50:lvgl\src\lv_widgets\../lv_core/../lv_misc/lv_anim.h **** typedef lv_anim_value_t (*lv_anim_path_cb_t)(const struct _lv_anim_path_t *, const struct _lv_anim_
  51:lvgl\src\lv_widgets\../lv_core/../lv_misc/lv_anim.h **** 
  52:lvgl\src\lv_widgets\../lv_core/../lv_misc/lv_anim.h **** typedef struct _lv_anim_path_t {
  53:lvgl\src\lv_widgets\../lv_core/../lv_misc/lv_anim.h ****     lv_anim_path_cb_t cb;
  54:lvgl\src\lv_widgets\../lv_core/../lv_misc/lv_anim.h ****     void * user_data;
  55:lvgl\src\lv_widgets\../lv_core/../lv_misc/lv_anim.h **** } lv_anim_path_t;
  56:lvgl\src\lv_widgets\../lv_core/../lv_misc/lv_anim.h **** 
  57:lvgl\src\lv_widgets\../lv_core/../lv_misc/lv_anim.h **** 
  58:lvgl\src\lv_widgets\../lv_core/../lv_misc/lv_anim.h **** 
  59:lvgl\src\lv_widgets\../lv_core/../lv_misc/lv_anim.h **** /** Generic prototype of "animator" functions.
  60:lvgl\src\lv_widgets\../lv_core/../lv_misc/lv_anim.h ****  * First parameter is the variable to animate.
  61:lvgl\src\lv_widgets\../lv_core/../lv_misc/lv_anim.h ****  * Second parameter is the value to set.
  62:lvgl\src\lv_widgets\../lv_core/../lv_misc/lv_anim.h ****  * Compatible with `lv_xxx_set_yyy(obj, value)` functions
  63:lvgl\src\lv_widgets\../lv_core/../lv_misc/lv_anim.h ****  * The `x` in `_xcb_t` means its not a fully generic prototype because
  64:lvgl\src\lv_widgets\../lv_core/../lv_misc/lv_anim.h ****  * it doesn't receive `lv_anim_t *` as its first argument*/
  65:lvgl\src\lv_widgets\../lv_core/../lv_misc/lv_anim.h **** typedef void (*lv_anim_exec_xcb_t)(void *, lv_anim_value_t);
ARM GAS  C:\Users\strap\AppData\Local\Temp\ccTzHSZB.s 			page 56


  66:lvgl\src\lv_widgets\../lv_core/../lv_misc/lv_anim.h **** 
  67:lvgl\src\lv_widgets\../lv_core/../lv_misc/lv_anim.h **** /** Same as `lv_anim_exec_xcb_t` but receives `lv_anim_t *` as the first parameter.
  68:lvgl\src\lv_widgets\../lv_core/../lv_misc/lv_anim.h ****  * It's more consistent but less convenient. Might be used by binding generator functions.*/
  69:lvgl\src\lv_widgets\../lv_core/../lv_misc/lv_anim.h **** typedef void (*lv_anim_custom_exec_cb_t)(struct _lv_anim_t *, lv_anim_value_t);
  70:lvgl\src\lv_widgets\../lv_core/../lv_misc/lv_anim.h **** 
  71:lvgl\src\lv_widgets\../lv_core/../lv_misc/lv_anim.h **** /** Callback to call when the animation is ready*/
  72:lvgl\src\lv_widgets\../lv_core/../lv_misc/lv_anim.h **** typedef void (*lv_anim_ready_cb_t)(struct _lv_anim_t *);
  73:lvgl\src\lv_widgets\../lv_core/../lv_misc/lv_anim.h **** 
  74:lvgl\src\lv_widgets\../lv_core/../lv_misc/lv_anim.h **** /** Callback to call when the animation really stars (considering `delay`)*/
  75:lvgl\src\lv_widgets\../lv_core/../lv_misc/lv_anim.h **** typedef void (*lv_anim_start_cb_t)(struct _lv_anim_t *);
  76:lvgl\src\lv_widgets\../lv_core/../lv_misc/lv_anim.h **** 
  77:lvgl\src\lv_widgets\../lv_core/../lv_misc/lv_anim.h **** /** Describes an animation*/
  78:lvgl\src\lv_widgets\../lv_core/../lv_misc/lv_anim.h **** typedef struct _lv_anim_t {
  79:lvgl\src\lv_widgets\../lv_core/../lv_misc/lv_anim.h ****     void * var;                  /**<Variable to animate*/
  80:lvgl\src\lv_widgets\../lv_core/../lv_misc/lv_anim.h ****     lv_anim_exec_xcb_t exec_cb;   /**< Function to execute to animate*/
  81:lvgl\src\lv_widgets\../lv_core/../lv_misc/lv_anim.h ****     lv_anim_start_cb_t start_cb; /**< Call it when the animation is starts (considering `delay`)*/
  82:lvgl\src\lv_widgets\../lv_core/../lv_misc/lv_anim.h ****     lv_anim_ready_cb_t ready_cb; /**< Call it when the animation is ready*/
  83:lvgl\src\lv_widgets\../lv_core/../lv_misc/lv_anim.h ****     lv_anim_path_t path;         /**< Describe the path (curve) of animations*/
  84:lvgl\src\lv_widgets\../lv_core/../lv_misc/lv_anim.h ****     int32_t start;               /**< Start value*/
  85:lvgl\src\lv_widgets\../lv_core/../lv_misc/lv_anim.h ****     int32_t current;             /**< Current value */
  86:lvgl\src\lv_widgets\../lv_core/../lv_misc/lv_anim.h ****     int32_t end;                 /**< End value*/
  87:lvgl\src\lv_widgets\../lv_core/../lv_misc/lv_anim.h ****     int32_t time;               /**< Animation time in ms*/
  88:lvgl\src\lv_widgets\../lv_core/../lv_misc/lv_anim.h ****     int32_t act_time;            /**< Current time in animation. Set to negative to make delay.*/
  89:lvgl\src\lv_widgets\../lv_core/../lv_misc/lv_anim.h ****     uint32_t playback_delay;     /**< Wait before play back*/
  90:lvgl\src\lv_widgets\../lv_core/../lv_misc/lv_anim.h ****     uint32_t playback_time;      /**< Duration of playback animation*/
  91:lvgl\src\lv_widgets\../lv_core/../lv_misc/lv_anim.h ****     uint32_t repeat_delay;       /**< Wait before repeat*/
  92:lvgl\src\lv_widgets\../lv_core/../lv_misc/lv_anim.h ****     uint16_t repeat_cnt;         /**< Repeat count for the animation*/
  93:lvgl\src\lv_widgets\../lv_core/../lv_misc/lv_anim.h ****     uint8_t early_apply  : 1;    /**< 1: Apply start value immediately even is there is `delay` */
  94:lvgl\src\lv_widgets\../lv_core/../lv_misc/lv_anim.h **** #if LV_USE_USER_DATA
  95:lvgl\src\lv_widgets\../lv_core/../lv_misc/lv_anim.h ****     lv_anim_user_data_t user_data; /**< Custom user data*/
  96:lvgl\src\lv_widgets\../lv_core/../lv_misc/lv_anim.h **** #endif
  97:lvgl\src\lv_widgets\../lv_core/../lv_misc/lv_anim.h **** 
  98:lvgl\src\lv_widgets\../lv_core/../lv_misc/lv_anim.h ****     /*Animation system use these - user shouldn't set*/
  99:lvgl\src\lv_widgets\../lv_core/../lv_misc/lv_anim.h ****     uint32_t time_orig;
 100:lvgl\src\lv_widgets\../lv_core/../lv_misc/lv_anim.h ****     uint8_t playback_now : 1; /**< Play back is in progress*/
 101:lvgl\src\lv_widgets\../lv_core/../lv_misc/lv_anim.h ****     uint32_t has_run : 1;     /**< Indicates the animation has run in this round*/
 102:lvgl\src\lv_widgets\../lv_core/../lv_misc/lv_anim.h **** } lv_anim_t;
 103:lvgl\src\lv_widgets\../lv_core/../lv_misc/lv_anim.h **** 
 104:lvgl\src\lv_widgets\../lv_core/../lv_misc/lv_anim.h **** 
 105:lvgl\src\lv_widgets\../lv_core/../lv_misc/lv_anim.h **** /**********************
 106:lvgl\src\lv_widgets\../lv_core/../lv_misc/lv_anim.h ****  * GLOBAL PROTOTYPES
 107:lvgl\src\lv_widgets\../lv_core/../lv_misc/lv_anim.h ****  **********************/
 108:lvgl\src\lv_widgets\../lv_core/../lv_misc/lv_anim.h **** 
 109:lvgl\src\lv_widgets\../lv_core/../lv_misc/lv_anim.h **** /**
 110:lvgl\src\lv_widgets\../lv_core/../lv_misc/lv_anim.h ****  * Init. the animation module
 111:lvgl\src\lv_widgets\../lv_core/../lv_misc/lv_anim.h ****  */
 112:lvgl\src\lv_widgets\../lv_core/../lv_misc/lv_anim.h **** void _lv_anim_core_init(void);
 113:lvgl\src\lv_widgets\../lv_core/../lv_misc/lv_anim.h **** 
 114:lvgl\src\lv_widgets\../lv_core/../lv_misc/lv_anim.h **** /**
 115:lvgl\src\lv_widgets\../lv_core/../lv_misc/lv_anim.h ****  * Initialize an animation variable.
 116:lvgl\src\lv_widgets\../lv_core/../lv_misc/lv_anim.h ****  * E.g.:
 117:lvgl\src\lv_widgets\../lv_core/../lv_misc/lv_anim.h ****  * lv_anim_t a;
 118:lvgl\src\lv_widgets\../lv_core/../lv_misc/lv_anim.h ****  * lv_anim_init(&a);
 119:lvgl\src\lv_widgets\../lv_core/../lv_misc/lv_anim.h ****  * lv_anim_set_...(&a);
 120:lvgl\src\lv_widgets\../lv_core/../lv_misc/lv_anim.h ****  * @param a pointer to an `lv_anim_t` variable to initialize
 121:lvgl\src\lv_widgets\../lv_core/../lv_misc/lv_anim.h ****  */
 122:lvgl\src\lv_widgets\../lv_core/../lv_misc/lv_anim.h **** void lv_anim_init(lv_anim_t * a);
ARM GAS  C:\Users\strap\AppData\Local\Temp\ccTzHSZB.s 			page 57


 123:lvgl\src\lv_widgets\../lv_core/../lv_misc/lv_anim.h **** 
 124:lvgl\src\lv_widgets\../lv_core/../lv_misc/lv_anim.h **** /**
 125:lvgl\src\lv_widgets\../lv_core/../lv_misc/lv_anim.h ****  * Set a variable to animate
 126:lvgl\src\lv_widgets\../lv_core/../lv_misc/lv_anim.h ****  * @param a pointer to an initialized `lv_anim_t` variable
 127:lvgl\src\lv_widgets\../lv_core/../lv_misc/lv_anim.h ****  * @param var pointer to a variable to animate
 128:lvgl\src\lv_widgets\../lv_core/../lv_misc/lv_anim.h ****  */
 129:lvgl\src\lv_widgets\../lv_core/../lv_misc/lv_anim.h **** static inline void lv_anim_set_var(lv_anim_t * a, void * var)
 130:lvgl\src\lv_widgets\../lv_core/../lv_misc/lv_anim.h **** {
 131:lvgl\src\lv_widgets\../lv_core/../lv_misc/lv_anim.h ****     a->var     = var;
 1517              		.loc 5 131 0
 1518 00ca 0090     		str	r0, [sp]
 1519              	.LVL242:
 1520              	.LBE122:
 1521              	.LBE121:
 1522              	.LBB123:
 1523              	.LBB124:
 132:lvgl\src\lv_widgets\../lv_core/../lv_misc/lv_anim.h **** }
 133:lvgl\src\lv_widgets\../lv_core/../lv_misc/lv_anim.h **** 
 134:lvgl\src\lv_widgets\../lv_core/../lv_misc/lv_anim.h **** /**
 135:lvgl\src\lv_widgets\../lv_core/../lv_misc/lv_anim.h ****  * Set a function to animate `var`
 136:lvgl\src\lv_widgets\../lv_core/../lv_misc/lv_anim.h ****  * @param a pointer to an initialized `lv_anim_t` variable
 137:lvgl\src\lv_widgets\../lv_core/../lv_misc/lv_anim.h ****  * @param exec_cb a function to execute during animation
 138:lvgl\src\lv_widgets\../lv_core/../lv_misc/lv_anim.h ****  *                LittelvGL's built-in functions can be used.
 139:lvgl\src\lv_widgets\../lv_core/../lv_misc/lv_anim.h ****  *                E.g. lv_obj_set_x
 140:lvgl\src\lv_widgets\../lv_core/../lv_misc/lv_anim.h ****  */
 141:lvgl\src\lv_widgets\../lv_core/../lv_misc/lv_anim.h **** static inline void lv_anim_set_exec_cb(lv_anim_t * a, lv_anim_exec_xcb_t exec_cb)
 142:lvgl\src\lv_widgets\../lv_core/../lv_misc/lv_anim.h **** {
 143:lvgl\src\lv_widgets\../lv_core/../lv_misc/lv_anim.h ****     a->exec_cb = exec_cb;
 1524              		.loc 5 143 0
 1525 00cc 444B     		ldr	r3, .L131+4
 1526 00ce 0193     		str	r3, [sp, #4]
 1527              	.LVL243:
 1528              	.LBE124:
 1529              	.LBE123:
 355:lvgl\src\lv_widgets/lv_tabview.c ****         lv_anim_set_time(&a, ext->anim_time);
 1530              		.loc 1 355 0
 1531 00d0 A068     		ldr	r0, [r4, #8]
 1532 00d2 FFF7FEFF 		bl	lv_page_get_scrollable
 1533              	.LVL244:
 1534 00d6 FFF7FEFF 		bl	lv_obj_get_x
 1535              	.LVL245:
 1536              	.LBB125:
 1537              	.LBB126:
 144:lvgl\src\lv_widgets\../lv_core/../lv_misc/lv_anim.h **** }
 145:lvgl\src\lv_widgets\../lv_core/../lv_misc/lv_anim.h **** 
 146:lvgl\src\lv_widgets\../lv_core/../lv_misc/lv_anim.h **** /**
 147:lvgl\src\lv_widgets\../lv_core/../lv_misc/lv_anim.h ****  * Set the duration of an animation
 148:lvgl\src\lv_widgets\../lv_core/../lv_misc/lv_anim.h ****  * @param a pointer to an initialized `lv_anim_t` variable
 149:lvgl\src\lv_widgets\../lv_core/../lv_misc/lv_anim.h ****  * @param duration duration of the animation in milliseconds
 150:lvgl\src\lv_widgets\../lv_core/../lv_misc/lv_anim.h ****  */
 151:lvgl\src\lv_widgets\../lv_core/../lv_misc/lv_anim.h **** static inline void lv_anim_set_time(lv_anim_t * a, uint32_t duration)
 152:lvgl\src\lv_widgets\../lv_core/../lv_misc/lv_anim.h **** {
 153:lvgl\src\lv_widgets\../lv_core/../lv_misc/lv_anim.h ****     a->time     = duration;
 154:lvgl\src\lv_widgets\../lv_core/../lv_misc/lv_anim.h **** }
 155:lvgl\src\lv_widgets\../lv_core/../lv_misc/lv_anim.h **** 
 156:lvgl\src\lv_widgets\../lv_core/../lv_misc/lv_anim.h **** /**
 157:lvgl\src\lv_widgets\../lv_core/../lv_misc/lv_anim.h ****  * Set a delay before starting the animation
ARM GAS  C:\Users\strap\AppData\Local\Temp\ccTzHSZB.s 			page 58


 158:lvgl\src\lv_widgets\../lv_core/../lv_misc/lv_anim.h ****  * @param a pointer to an initialized `lv_anim_t` variable
 159:lvgl\src\lv_widgets\../lv_core/../lv_misc/lv_anim.h ****  * @param delay delay before the animation in milliseconds
 160:lvgl\src\lv_widgets\../lv_core/../lv_misc/lv_anim.h ****  */
 161:lvgl\src\lv_widgets\../lv_core/../lv_misc/lv_anim.h **** static inline void lv_anim_set_delay(lv_anim_t * a, uint32_t delay)
 162:lvgl\src\lv_widgets\../lv_core/../lv_misc/lv_anim.h **** {
 163:lvgl\src\lv_widgets\../lv_core/../lv_misc/lv_anim.h ****     a->act_time = -(int32_t)(delay);
 164:lvgl\src\lv_widgets\../lv_core/../lv_misc/lv_anim.h **** }
 165:lvgl\src\lv_widgets\../lv_core/../lv_misc/lv_anim.h **** 
 166:lvgl\src\lv_widgets\../lv_core/../lv_misc/lv_anim.h **** /**
 167:lvgl\src\lv_widgets\../lv_core/../lv_misc/lv_anim.h ****  * Set the start and end values of an animation
 168:lvgl\src\lv_widgets\../lv_core/../lv_misc/lv_anim.h ****  * @param a pointer to an initialized `lv_anim_t` variable
 169:lvgl\src\lv_widgets\../lv_core/../lv_misc/lv_anim.h ****  * @param start the start value
 170:lvgl\src\lv_widgets\../lv_core/../lv_misc/lv_anim.h ****  * @param end the end value
 171:lvgl\src\lv_widgets\../lv_core/../lv_misc/lv_anim.h ****  */
 172:lvgl\src\lv_widgets\../lv_core/../lv_misc/lv_anim.h **** static inline void lv_anim_set_values(lv_anim_t * a, lv_anim_value_t start, lv_anim_value_t end)
 173:lvgl\src\lv_widgets\../lv_core/../lv_misc/lv_anim.h **** {
 174:lvgl\src\lv_widgets\../lv_core/../lv_misc/lv_anim.h ****     a->start = start;
 1538              		.loc 5 174 0
 1539 00da 0690     		str	r0, [sp, #24]
 175:lvgl\src\lv_widgets\../lv_core/../lv_misc/lv_anim.h ****     a->current = start;
 1540              		.loc 5 175 0
 1541 00dc 0790     		str	r0, [sp, #28]
 176:lvgl\src\lv_widgets\../lv_core/../lv_misc/lv_anim.h ****     a->end   = end;
 1542              		.loc 5 176 0
 1543 00de 0895     		str	r5, [sp, #32]
 1544              	.LVL246:
 1545              	.LBE126:
 1546              	.LBE125:
 356:lvgl\src\lv_widgets/lv_tabview.c ****         lv_anim_start(&a);
 1547              		.loc 1 356 0
 1548 00e0 238B     		ldrh	r3, [r4, #24]
 1549              	.LVL247:
 1550              	.LBB127:
 1551              	.LBB128:
 153:lvgl\src\lv_widgets\../lv_core/../lv_misc/lv_anim.h **** }
 1552              		.loc 5 153 0
 1553 00e2 0993     		str	r3, [sp, #36]
 1554              	.LVL248:
 1555              	.LBE128:
 1556              	.LBE127:
 357:lvgl\src\lv_widgets/lv_tabview.c ****     }
 1557              		.loc 1 357 0
 1558 00e4 6846     		mov	r0, sp
 1559 00e6 FFF7FEFF 		bl	lv_anim_start
 1560              	.LVL249:
 1561              	.L113:
 1562              	.LBE120:
 369:lvgl\src\lv_widgets/lv_tabview.c ****         default: /*default case is prevented in lv_tabview_set_btns_pos(), but here for safety*/
 1563              		.loc 1 369 0
 1564 00ea A37E     		ldrb	r3, [r4, #26]	@ zero_extendqisi2
 1565 00ec 03F00703 		and	r3, r3, #7
 1566 00f0 013B     		subs	r3, r3, #1
 1567 00f2 032B     		cmp	r3, #3
 1568 00f4 2BD8     		bhi	.L128
 1569 00f6 DFE803F0 		tbb	[pc, r3]
 1570              	.L116:
 1571 00fa 02       		.byte	(.L115-.L116)/2
ARM GAS  C:\Users\strap\AppData\Local\Temp\ccTzHSZB.s 			page 59


 1572 00fb 02       		.byte	(.L115-.L116)/2
 1573 00fc 16       		.byte	(.L117-.L116)/2
 1574 00fd 16       		.byte	(.L117-.L116)/2
 1575              		.p2align 1
 1576              	.L115:
 1577              	.LVL250:
 1578              	.LBB129:
 1579              	.LBB130:
 114:lvgl\src\lv_widgets\../lv_core/lv_obj_style_dec.h **** _LV_OBJ_STYLE_SET_GET_DECLARE(MARGIN_TOP, margin_top, lv_style_int_t, _int, scalar)
 1580              		.loc 2 114 0
 1581 00fe 1422     		movs	r2, #20
 1582 0100 4121     		movs	r1, #65
 1583 0102 3846     		mov	r0, r7
 1584 0104 FFF7FEFF 		bl	_lv_obj_get_style_int
 1585              	.LVL251:
 1586 0108 0546     		mov	r5, r0
 1587              	.LVL252:
 1588              	.LBE130:
 1589              	.LBE129:
 1590              	.LBB131:
 1591              	.LBB132:
 112:lvgl\src\lv_widgets\../lv_core/lv_obj_style_dec.h **** _LV_OBJ_STYLE_SET_GET_DECLARE(PAD_RIGHT, pad_right, lv_style_int_t, _int, scalar)
 1592              		.loc 2 112 0
 1593 010a 1222     		movs	r2, #18
 1594 010c 4121     		movs	r1, #65
 1595 010e 3846     		mov	r0, r7
 1596 0110 FFF7FEFF 		bl	_lv_obj_get_style_int
 1597              	.LVL253:
 1598 0114 0746     		mov	r7, r0
 1599              	.LVL254:
 1600              	.LBE132:
 1601              	.LBE131:
 377:lvgl\src\lv_widgets/lv_tabview.c ****             indic_pos  = indic_size * id + btns_bg_inner * id + btns_bg_left;
 1602              		.loc 1 377 0
 1603 0116 6068     		ldr	r0, [r4, #4]
 1604 0118 FFF7FEFF 		bl	lv_obj_get_width
 1605              	.LVL255:
 378:lvgl\src\lv_widgets/lv_tabview.c ****             break;
 1606              		.loc 1 378 0
 1607 011c 2844     		add	r0, r0, r5
 1608              	.LVL256:
 1609 011e 00FB0675 		mla	r5, r0, r6, r7
 1610 0122 2DB2     		sxth	r5, r5
 1611              	.LVL257:
 379:lvgl\src\lv_widgets/lv_tabview.c ****         case LV_TABVIEW_TAB_POS_LEFT:
 1612              		.loc 1 379 0
 1613 0124 14E0     		b	.L114
 1614              	.LVL258:
 1615              	.L117:
 1616              	.LBB133:
 1617              	.LBB134:
 114:lvgl\src\lv_widgets\../lv_core/lv_obj_style_dec.h **** _LV_OBJ_STYLE_SET_GET_DECLARE(MARGIN_TOP, margin_top, lv_style_int_t, _int, scalar)
 1618              		.loc 2 114 0
 1619 0126 1422     		movs	r2, #20
 1620 0128 4121     		movs	r1, #65
 1621 012a 3846     		mov	r0, r7
 1622 012c FFF7FEFF 		bl	_lv_obj_get_style_int
ARM GAS  C:\Users\strap\AppData\Local\Temp\ccTzHSZB.s 			page 60


 1623              	.LVL259:
 1624 0130 8146     		mov	r9, r0
 1625              	.LVL260:
 1626              	.LBE134:
 1627              	.LBE133:
 1628              	.LBB135:
 1629              	.LBB136:
 110:lvgl\src\lv_widgets\../lv_core/lv_obj_style_dec.h **** _LV_OBJ_STYLE_SET_GET_DECLARE(PAD_BOTTOM, pad_bottom, lv_style_int_t, _int, scalar)
 1630              		.loc 2 110 0
 1631 0132 1022     		movs	r2, #16
 1632 0134 4121     		movs	r1, #65
 1633 0136 3846     		mov	r0, r7
 1634 0138 FFF7FEFF 		bl	_lv_obj_get_style_int
 1635              	.LVL261:
 1636 013c 0546     		mov	r5, r0
 1637              	.LVL262:
 1638              	.LBE136:
 1639              	.LBE135:
 384:lvgl\src\lv_widgets/lv_tabview.c ****             indic_pos  = btns_bg_top + id * (indic_size + btns_bg_inner);
 1640              		.loc 1 384 0
 1641 013e 6068     		ldr	r0, [r4, #4]
 1642 0140 FFF7FEFF 		bl	lv_obj_get_height
 1643              	.LVL263:
 385:lvgl\src\lv_widgets/lv_tabview.c ****             break;
 1644              		.loc 1 385 0
 1645 0144 4844     		add	r0, r0, r9
 1646              	.LVL264:
 1647 0146 00FB0655 		mla	r5, r0, r6, r5
 1648 014a 2DB2     		sxth	r5, r5
 1649              	.LVL265:
 386:lvgl\src\lv_widgets/lv_tabview.c ****     }
 1650              		.loc 1 386 0
 1651 014c 00E0     		b	.L114
 1652              	.LVL266:
 1653              	.L128:
 363:lvgl\src\lv_widgets/lv_tabview.c **** 
 1654              		.loc 1 363 0
 1655 014e 0025     		movs	r5, #0
 1656              	.LVL267:
 1657              	.L114:
 390:lvgl\src\lv_widgets/lv_tabview.c **** #endif
 1658              		.loc 1 390 0
 1659 0150 B8F1000F 		cmp	r8, #0
 1660 0154 01D0     		beq	.L118
 390:lvgl\src\lv_widgets/lv_tabview.c **** #endif
 1661              		.loc 1 390 0 is_stmt 0 discriminator 1
 1662 0156 238B     		ldrh	r3, [r4, #24]
 1663 0158 9BB9     		cbnz	r3, .L119
 1664              	.L118:
 393:lvgl\src\lv_widgets/lv_tabview.c ****             default: /*default case is prevented in lv_tabview_set_btns_pos(), but here for safety*
 1665              		.loc 1 393 0 is_stmt 1
 1666 015a A37E     		ldrb	r3, [r4, #26]	@ zero_extendqisi2
 1667 015c 03F00703 		and	r3, r3, #7
 1668 0160 013B     		subs	r3, r3, #1
 1669 0162 032B     		cmp	r3, #3
 1670 0164 32D8     		bhi	.L120
 1671 0166 DFE803F0 		tbb	[pc, r3]
ARM GAS  C:\Users\strap\AppData\Local\Temp\ccTzHSZB.s 			page 61


 1672              	.L122:
 1673 016a 02       		.byte	(.L121-.L122)/2
 1674 016b 02       		.byte	(.L121-.L122)/2
 1675 016c 07       		.byte	(.L123-.L122)/2
 1676 016d 07       		.byte	(.L123-.L122)/2
 1677              		.p2align 1
 1678              	.L121:
 399:lvgl\src\lv_widgets/lv_tabview.c ****                 break;
 1679              		.loc 1 399 0
 1680 016e 2946     		mov	r1, r5
 1681 0170 6068     		ldr	r0, [r4, #4]
 1682 0172 FFF7FEFF 		bl	lv_obj_set_x
 1683              	.LVL268:
 400:lvgl\src\lv_widgets/lv_tabview.c ****             case LV_TABVIEW_TAB_POS_LEFT:
 1684              		.loc 1 400 0
 1685 0176 29E0     		b	.L120
 1686              	.L123:
 403:lvgl\src\lv_widgets/lv_tabview.c ****                 break;
 1687              		.loc 1 403 0
 1688 0178 2946     		mov	r1, r5
 1689 017a 6068     		ldr	r0, [r4, #4]
 1690 017c FFF7FEFF 		bl	lv_obj_set_y
 1691              	.LVL269:
 404:lvgl\src\lv_widgets/lv_tabview.c ****         }
 1692              		.loc 1 404 0
 1693 0180 24E0     		b	.L120
 1694              	.L119:
 1695              	.LBB137:
 410:lvgl\src\lv_widgets/lv_tabview.c ****         lv_anim_set_var(&a, ext->indic);
 1696              		.loc 1 410 0
 1697 0182 6846     		mov	r0, sp
 1698 0184 FFF7FEFF 		bl	lv_anim_init
 1699              	.LVL270:
 411:lvgl\src\lv_widgets/lv_tabview.c ****         lv_anim_set_time(&a, ext->anim_time);
 1700              		.loc 1 411 0
 1701 0188 6368     		ldr	r3, [r4, #4]
 1702              	.LVL271:
 1703              	.LBB138:
 1704              	.LBB139:
 131:lvgl\src\lv_widgets\../lv_core/../lv_misc/lv_anim.h **** }
 1705              		.loc 5 131 0
 1706 018a 0093     		str	r3, [sp]
 1707              	.LVL272:
 1708              	.LBE139:
 1709              	.LBE138:
 412:lvgl\src\lv_widgets/lv_tabview.c **** 
 1710              		.loc 1 412 0
 1711 018c 238B     		ldrh	r3, [r4, #24]
 1712              	.LVL273:
 1713              	.LBB140:
 1714              	.LBB141:
 153:lvgl\src\lv_widgets\../lv_core/../lv_misc/lv_anim.h **** }
 1715              		.loc 5 153 0
 1716 018e 0993     		str	r3, [sp, #36]
 1717              	.LVL274:
 1718              	.LBE141:
 1719              	.LBE140:
ARM GAS  C:\Users\strap\AppData\Local\Temp\ccTzHSZB.s 			page 62


 414:lvgl\src\lv_widgets/lv_tabview.c ****             default: /*default case is prevented in lv_tabview_set_btns_pos(), but here for safety*
 1720              		.loc 1 414 0
 1721 0190 A37E     		ldrb	r3, [r4, #26]	@ zero_extendqisi2
 1722 0192 03F00703 		and	r3, r3, #7
 1723 0196 013B     		subs	r3, r3, #1
 1724 0198 032B     		cmp	r3, #3
 1725 019a 14D8     		bhi	.L124
 1726 019c DFE803F0 		tbb	[pc, r3]
 1727              	.L126:
 1728 01a0 02       		.byte	(.L125-.L126)/2
 1729 01a1 02       		.byte	(.L125-.L126)/2
 1730 01a2 0B       		.byte	(.L127-.L126)/2
 1731 01a3 0B       		.byte	(.L127-.L126)/2
 1732              		.p2align 1
 1733              	.L125:
 1734              	.LVL275:
 1735              	.LBB142:
 1736              	.LBB143:
 143:lvgl\src\lv_widgets\../lv_core/../lv_misc/lv_anim.h **** }
 1737              		.loc 5 143 0
 1738 01a4 0E4B     		ldr	r3, .L131+4
 1739 01a6 0193     		str	r3, [sp, #4]
 1740              	.LVL276:
 1741              	.LBE143:
 1742              	.LBE142:
 421:lvgl\src\lv_widgets/lv_tabview.c ****                 break;
 1743              		.loc 1 421 0
 1744 01a8 6068     		ldr	r0, [r4, #4]
 1745 01aa FFF7FEFF 		bl	lv_obj_get_x
 1746              	.LVL277:
 1747              	.LBB144:
 1748              	.LBB145:
 174:lvgl\src\lv_widgets\../lv_core/../lv_misc/lv_anim.h ****     a->current = start;
 1749              		.loc 5 174 0
 1750 01ae 0690     		str	r0, [sp, #24]
 175:lvgl\src\lv_widgets\../lv_core/../lv_misc/lv_anim.h ****     a->end   = end;
 1751              		.loc 5 175 0
 1752 01b0 0790     		str	r0, [sp, #28]
 1753              		.loc 5 176 0
 1754 01b2 0895     		str	r5, [sp, #32]
 1755 01b4 07E0     		b	.L124
 1756              	.LVL278:
 1757              	.L127:
 1758              	.LBE145:
 1759              	.LBE144:
 1760              	.LBB146:
 1761              	.LBB147:
 143:lvgl\src\lv_widgets\../lv_core/../lv_misc/lv_anim.h **** }
 1762              		.loc 5 143 0
 1763 01b6 0B4B     		ldr	r3, .L131+8
 1764 01b8 0193     		str	r3, [sp, #4]
 1765              	.LVL279:
 1766              	.LBE147:
 1767              	.LBE146:
 426:lvgl\src\lv_widgets/lv_tabview.c ****                 break;
 1768              		.loc 1 426 0
 1769 01ba 6068     		ldr	r0, [r4, #4]
ARM GAS  C:\Users\strap\AppData\Local\Temp\ccTzHSZB.s 			page 63


 1770 01bc FFF7FEFF 		bl	lv_obj_get_y
 1771              	.LVL280:
 1772              	.LBB148:
 1773              	.LBB149:
 174:lvgl\src\lv_widgets\../lv_core/../lv_misc/lv_anim.h ****     a->current = start;
 1774              		.loc 5 174 0
 1775 01c0 0690     		str	r0, [sp, #24]
 175:lvgl\src\lv_widgets\../lv_core/../lv_misc/lv_anim.h ****     a->end   = end;
 1776              		.loc 5 175 0
 1777 01c2 0790     		str	r0, [sp, #28]
 1778              		.loc 5 176 0
 1779 01c4 0895     		str	r5, [sp, #32]
 1780              	.LVL281:
 1781              	.L124:
 1782              	.LBE149:
 1783              	.LBE148:
 430:lvgl\src\lv_widgets/lv_tabview.c ****     }
 1784              		.loc 1 430 0 discriminator 3
 1785 01c6 6846     		mov	r0, sp
 1786 01c8 FFF7FEFF 		bl	lv_anim_start
 1787              	.LVL282:
 1788              	.L120:
 1789              	.LBE137:
 434:lvgl\src\lv_widgets/lv_tabview.c **** }
 1790              		.loc 1 434 0
 1791 01cc 8022     		movs	r2, #128
 1792 01ce A18A     		ldrh	r1, [r4, #20]
 1793 01d0 2068     		ldr	r0, [r4]
 1794 01d2 FFF7FEFF 		bl	lv_btnmatrix_set_btn_ctrl
 1795              	.LVL283:
 435:lvgl\src\lv_widgets/lv_tabview.c **** 
 1796              		.loc 1 435 0
 1797 01d6 12B0     		add	sp, sp, #72
 1798              		.cfi_def_cfa_offset 32
 1799              		@ sp needed
 1800 01d8 BDE8F087 		pop	{r4, r5, r6, r7, r8, r9, r10, pc}
 1801              	.LVL284:
 1802              	.L132:
 1803              		.align	2
 1804              	.L131:
 1805 01dc 00000000 		.word	.LC0
 1806 01e0 00000000 		.word	lv_obj_set_x
 1807 01e4 00000000 		.word	lv_obj_set_y
 1808              		.cfi_endproc
 1809              	.LFE360:
 1810              		.size	lv_tabview_set_tab_act, .-lv_tabview_set_tab_act
 1811              		.section	.text.tab_btnm_event_cb,"ax",%progbits
 1812              		.align	2
 1813              		.thumb
 1814              		.thumb_func
 1815              		.type	tab_btnm_event_cb, %function
 1816              	tab_btnm_event_cb:
 1817              	.LFB372:
 820:lvgl\src\lv_widgets/lv_tabview.c ****     if(event != LV_EVENT_CLICKED) return;
 1818              		.loc 1 820 0
 1819              		.cfi_startproc
 1820              		@ args = 0, pretend = 0, frame = 8
ARM GAS  C:\Users\strap\AppData\Local\Temp\ccTzHSZB.s 			page 64


 1821              		@ frame_needed = 0, uses_anonymous_args = 0
 1822              	.LVL285:
 821:lvgl\src\lv_widgets/lv_tabview.c **** 
 1823              		.loc 1 821 0
 1824 0000 0629     		cmp	r1, #6
 1825 0002 3DD1     		bne	.L140
 820:lvgl\src\lv_widgets/lv_tabview.c ****     if(event != LV_EVENT_CLICKED) return;
 1826              		.loc 1 820 0
 1827 0004 70B5     		push	{r4, r5, r6, lr}
 1828              		.cfi_def_cfa_offset 16
 1829              		.cfi_offset 4, -16
 1830              		.cfi_offset 5, -12
 1831              		.cfi_offset 6, -8
 1832              		.cfi_offset 14, -4
 1833 0006 82B0     		sub	sp, sp, #8
 1834              		.cfi_def_cfa_offset 24
 1835 0008 0446     		mov	r4, r0
 823:lvgl\src\lv_widgets/lv_tabview.c ****     if(btn_id == LV_BTNMATRIX_BTN_NONE) return;
 1836              		.loc 1 823 0
 1837 000a FFF7FEFF 		bl	lv_btnmatrix_get_active_btn
 1838              	.LVL286:
 1839 000e 0546     		mov	r5, r0
 1840              	.LVL287:
 824:lvgl\src\lv_widgets/lv_tabview.c **** 
 1841              		.loc 1 824 0
 1842 0010 4FF6FF73 		movw	r3, #65535
 1843 0014 9842     		cmp	r0, r3
 1844 0016 31D0     		beq	.L133
 826:lvgl\src\lv_widgets/lv_tabview.c **** 
 1845              		.loc 1 826 0
 1846 0018 2022     		movs	r2, #32
 1847 001a 0146     		mov	r1, r0
 1848 001c 2046     		mov	r0, r4
 1849              	.LVL288:
 1850 001e FFF7FEFF 		bl	lv_btnmatrix_get_btn_ctrl
 1851              	.LVL289:
 1852 0022 58BB     		cbnz	r0, .L133
 828:lvgl\src\lv_widgets/lv_tabview.c ****     lv_btnmatrix_set_btn_ctrl(tab_btnm, btn_id, LV_BTNMATRIX_CTRL_CHECK_STATE);
 1853              		.loc 1 828 0
 1854 0024 8021     		movs	r1, #128
 1855 0026 2046     		mov	r0, r4
 1856 0028 FFF7FEFF 		bl	lv_btnmatrix_clear_btn_ctrl_all
 1857              	.LVL290:
 829:lvgl\src\lv_widgets/lv_tabview.c **** 
 1858              		.loc 1 829 0
 1859 002c 8022     		movs	r2, #128
 1860 002e 2946     		mov	r1, r5
 1861 0030 2046     		mov	r0, r4
 1862 0032 FFF7FEFF 		bl	lv_btnmatrix_set_btn_ctrl
 1863              	.LVL291:
 831:lvgl\src\lv_widgets/lv_tabview.c **** 
 1864              		.loc 1 831 0
 1865 0036 2046     		mov	r0, r4
 1866 0038 FFF7FEFF 		bl	lv_obj_get_parent
 1867              	.LVL292:
 1868 003c 0446     		mov	r4, r0
 1869              	.LVL293:
ARM GAS  C:\Users\strap\AppData\Local\Temp\ccTzHSZB.s 			page 65


 833:lvgl\src\lv_widgets/lv_tabview.c ****     lv_tabview_set_tab_act(tabview, btn_id, LV_ANIM_ON);
 1870              		.loc 1 833 0
 1871 003e FFF7FEFF 		bl	lv_tabview_get_tab_act
 1872              	.LVL294:
 1873 0042 0646     		mov	r6, r0
 1874              	.LVL295:
 834:lvgl\src\lv_widgets/lv_tabview.c ****     uint32_t id_new = lv_tabview_get_tab_act(tabview);
 1875              		.loc 1 834 0
 1876 0044 0122     		movs	r2, #1
 1877 0046 2946     		mov	r1, r5
 1878 0048 2046     		mov	r0, r4
 1879              	.LVL296:
 1880 004a FFF7FEFF 		bl	lv_tabview_set_tab_act
 1881              	.LVL297:
 835:lvgl\src\lv_widgets/lv_tabview.c **** 
 1882              		.loc 1 835 0
 1883 004e 2046     		mov	r0, r4
 1884 0050 FFF7FEFF 		bl	lv_tabview_get_tab_act
 1885              	.LVL298:
 1886 0054 0190     		str	r0, [sp, #4]
 1887              	.LVL299:
 838:lvgl\src\lv_widgets/lv_tabview.c **** 
 1888              		.loc 1 838 0
 1889 0056 8642     		cmp	r6, r0
 1890 0058 04D0     		beq	.L135
 838:lvgl\src\lv_widgets/lv_tabview.c **** 
 1891              		.loc 1 838 0 is_stmt 0 discriminator 1
 1892 005a 01AA     		add	r2, sp, #4
 1893 005c 1021     		movs	r1, #16
 1894 005e 2046     		mov	r0, r4
 1895 0060 FFF7FEFF 		bl	lv_event_send
 1896              	.LVL300:
 1897              	.L135:
 841:lvgl\src\lv_widgets/lv_tabview.c ****         lv_group_set_editing(lv_obj_get_group(tabview), false);
 1898              		.loc 1 841 0 is_stmt 1
 1899 0064 FFF7FEFF 		bl	lv_indev_get_act
 1900              	.LVL301:
 1901 0068 FFF7FEFF 		bl	lv_indev_get_type
 1902              	.LVL302:
 1903 006c 0428     		cmp	r0, #4
 1904 006e 05D1     		bne	.L133
 842:lvgl\src\lv_widgets/lv_tabview.c ****     }
 1905              		.loc 1 842 0
 1906 0070 2046     		mov	r0, r4
 1907 0072 FFF7FEFF 		bl	lv_obj_get_group
 1908              	.LVL303:
 1909 0076 0021     		movs	r1, #0
 1910 0078 FFF7FEFF 		bl	lv_group_set_editing
 1911              	.LVL304:
 1912              	.L133:
 847:lvgl\src\lv_widgets/lv_tabview.c **** 
 1913              		.loc 1 847 0
 1914 007c 02B0     		add	sp, sp, #8
 1915              		.cfi_def_cfa_offset 16
 1916              		@ sp needed
 1917 007e 70BD     		pop	{r4, r5, r6, pc}
 1918              	.LVL305:
ARM GAS  C:\Users\strap\AppData\Local\Temp\ccTzHSZB.s 			page 66


 1919              	.L140:
 1920              		.cfi_def_cfa_offset 0
 1921              		.cfi_restore 4
 1922              		.cfi_restore 5
 1923              		.cfi_restore 6
 1924              		.cfi_restore 14
 1925 0080 7047     		bx	lr
 1926              		.cfi_endproc
 1927              	.LFE372:
 1928              		.size	tab_btnm_event_cb, .-tab_btnm_event_cb
 1929 0082 00BF     		.section	.text.tabview_scrl_signal,"ax",%progbits
 1930              		.align	2
 1931              		.thumb
 1932              		.thumb_func
 1933              		.type	tabview_scrl_signal, %function
 1934              	tabview_scrl_signal:
 1935              	.LFB370:
 718:lvgl\src\lv_widgets/lv_tabview.c ****     lv_res_t res;
 1936              		.loc 1 718 0
 1937              		.cfi_startproc
 1938              		@ args = 0, pretend = 0, frame = 16
 1939              		@ frame_needed = 0, uses_anonymous_args = 0
 1940              	.LVL306:
 1941 0000 2DE9F047 		push	{r4, r5, r6, r7, r8, r9, r10, lr}
 1942              		.cfi_def_cfa_offset 32
 1943              		.cfi_offset 4, -32
 1944              		.cfi_offset 5, -28
 1945              		.cfi_offset 6, -24
 1946              		.cfi_offset 7, -20
 1947              		.cfi_offset 8, -16
 1948              		.cfi_offset 9, -12
 1949              		.cfi_offset 10, -8
 1950              		.cfi_offset 14, -4
 1951 0004 84B0     		sub	sp, sp, #16
 1952              		.cfi_def_cfa_offset 48
 1953 0006 0646     		mov	r6, r0
 1954 0008 0D46     		mov	r5, r1
 1955 000a 1746     		mov	r7, r2
 722:lvgl\src\lv_widgets/lv_tabview.c ****     if(res != LV_RES_OK) return res;
 1956              		.loc 1 722 0
 1957 000c 514B     		ldr	r3, .L161
 1958 000e 5B68     		ldr	r3, [r3, #4]
 1959 0010 9847     		blx	r3
 1960              	.LVL307:
 1961 0012 0446     		mov	r4, r0
 1962              	.LVL308:
 723:lvgl\src\lv_widgets/lv_tabview.c ****     if(sign == LV_SIGNAL_GET_TYPE) return lv_obj_handle_get_type_signal(param, "");
 1963              		.loc 1 723 0
 1964 0014 0128     		cmp	r0, #1
 1965 0016 40F09880 		bne	.L154
 724:lvgl\src\lv_widgets/lv_tabview.c **** 
 1966              		.loc 1 724 0
 1967 001a 072D     		cmp	r5, #7
 1968 001c 04D1     		bne	.L143
 724:lvgl\src\lv_widgets/lv_tabview.c **** 
 1969              		.loc 1 724 0 is_stmt 0 discriminator 1
 1970 001e 4E49     		ldr	r1, .L161+4
ARM GAS  C:\Users\strap\AppData\Local\Temp\ccTzHSZB.s 			page 67


 1971 0020 3846     		mov	r0, r7
 1972              	.LVL309:
 1973 0022 FFF7FEFF 		bl	lv_obj_handle_get_type_signal
 1974              	.LVL310:
 1975 0026 92E0     		b	.L142
 1976              	.LVL311:
 1977              	.L143:
 726:lvgl\src\lv_widgets/lv_tabview.c ****     lv_obj_t * tabview = lv_obj_get_parent(cont);
 1978              		.loc 1 726 0 is_stmt 1
 1979 0028 3046     		mov	r0, r6
 1980              	.LVL312:
 1981 002a FFF7FEFF 		bl	lv_obj_get_parent
 1982              	.LVL313:
 727:lvgl\src\lv_widgets/lv_tabview.c **** 
 1983              		.loc 1 727 0
 1984 002e FFF7FEFF 		bl	lv_obj_get_parent
 1985              	.LVL314:
 1986 0032 0646     		mov	r6, r0
 1987              	.LVL315:
 729:lvgl\src\lv_widgets/lv_tabview.c ****         lv_tabview_ext_t * ext = lv_obj_get_ext_attr(tabview);
 1988              		.loc 1 729 0
 1989 0034 122D     		cmp	r5, #18
 1990 0036 40F08980 		bne	.L155
 1991              	.LBB150:
 730:lvgl\src\lv_widgets/lv_tabview.c **** 
 1992              		.loc 1 730 0
 1993 003a FFF7FEFF 		bl	lv_obj_get_ext_attr
 1994              	.LVL316:
 1995 003e 0746     		mov	r7, r0
 1996              	.LVL317:
 732:lvgl\src\lv_widgets/lv_tabview.c ****         lv_point_t point_act;
 1997              		.loc 1 732 0
 1998 0040 FFF7FEFF 		bl	lv_indev_get_act
 1999              	.LVL318:
 2000 0044 0446     		mov	r4, r0
 2001              	.LVL319:
 734:lvgl\src\lv_widgets/lv_tabview.c ****         lv_point_t vect;
 2002              		.loc 1 734 0
 2003 0046 01A9     		add	r1, sp, #4
 2004 0048 FFF7FEFF 		bl	lv_indev_get_point
 2005              	.LVL320:
 736:lvgl\src\lv_widgets/lv_tabview.c ****         lv_coord_t x_predict = 0;
 2006              		.loc 1 736 0
 2007 004c 02A9     		add	r1, sp, #8
 2008 004e 2046     		mov	r0, r4
 2009 0050 FFF7FEFF 		bl	lv_indev_get_vect
 2010              	.LVL321:
 737:lvgl\src\lv_widgets/lv_tabview.c **** 
 2011              		.loc 1 737 0
 2012 0054 0025     		movs	r5, #0
 739:lvgl\src\lv_widgets/lv_tabview.c ****             x_predict += vect.x;
 2013              		.loc 1 739 0
 2014 0056 0CE0     		b	.L144
 2015              	.LVL322:
 2016              	.L145:
 740:lvgl\src\lv_widgets/lv_tabview.c ****             vect.x = vect.x * (100 - LV_INDEV_DEF_DRAG_THROW) / 100;
 2017              		.loc 1 740 0
ARM GAS  C:\Users\strap\AppData\Local\Temp\ccTzHSZB.s 			page 68


 2018 0058 1544     		add	r5, r5, r2
 2019              	.LVL323:
 2020 005a 2DB2     		sxth	r5, r5
 2021              	.LVL324:
 741:lvgl\src\lv_widgets/lv_tabview.c ****         }
 2022              		.loc 1 741 0
 2023 005c 5A23     		movs	r3, #90
 2024 005e 03FB02F3 		mul	r3, r3, r2
 2025 0062 3E4A     		ldr	r2, .L161+8
 2026 0064 82FB0312 		smull	r1, r2, r2, r3
 2027 0068 DB17     		asrs	r3, r3, #31
 2028 006a C3EB6213 		rsb	r3, r3, r2, asr #5
 2029 006e ADF80830 		strh	r3, [sp, #8]	@ movhi
 2030              	.LVL325:
 2031              	.L144:
 739:lvgl\src\lv_widgets/lv_tabview.c ****             x_predict += vect.x;
 2032              		.loc 1 739 0
 2033 0072 BDF90820 		ldrsh	r2, [sp, #8]
 2034 0076 002A     		cmp	r2, #0
 2035 0078 EED1     		bne	.L145
 744:lvgl\src\lv_widgets/lv_tabview.c ****         if(res != LV_RES_OK) return res;
 2036              		.loc 1 744 0
 2037 007a 2046     		mov	r0, r4
 2038 007c FFF7FEFF 		bl	lv_indev_finish_drag
 2039              	.LVL326:
 2040 0080 0446     		mov	r4, r0
 2041              	.LVL327:
 745:lvgl\src\lv_widgets/lv_tabview.c ****         lv_obj_t * tab_page = lv_tabview_get_tab(tabview, ext->tab_cur);
 2042              		.loc 1 745 0
 2043 0082 0128     		cmp	r0, #1
 2044 0084 5CD1     		bne	.L156
 746:lvgl\src\lv_widgets/lv_tabview.c ****         if(tab_page == NULL) return LV_RES_OK;
 2045              		.loc 1 746 0
 2046 0086 B98A     		ldrh	r1, [r7, #20]
 2047 0088 3046     		mov	r0, r6
 2048              	.LVL328:
 2049 008a FFF7FEFF 		bl	lv_tabview_get_tab
 2050              	.LVL329:
 747:lvgl\src\lv_widgets/lv_tabview.c ****         lv_coord_t page_x1  = tab_page->coords.x1 - tabview->coords.x1 + x_predict;
 2051              		.loc 1 747 0
 2052 008e 0028     		cmp	r0, #0
 2053 0090 57D0     		beq	.L157
 748:lvgl\src\lv_widgets/lv_tabview.c ****         lv_coord_t page_x2  = page_x1 + lv_obj_get_width(tabview);
 2054              		.loc 1 748 0
 2055 0092 B0F91030 		ldrsh	r3, [r0, #16]
 2056 0096 B6F91020 		ldrsh	r2, [r6, #16]
 2057 009a 9B1A     		subs	r3, r3, r2
 2058 009c 1D44     		add	r5, r5, r3
 2059              	.LVL330:
 2060 009e ADB2     		uxth	r5, r5
 2061 00a0 0FFA85F9 		sxth	r9, r5
 2062              	.LVL331:
 749:lvgl\src\lv_widgets/lv_tabview.c ****         lv_coord_t treshold = lv_obj_get_width(tabview) / 2;
 2063              		.loc 1 749 0
 2064 00a4 3046     		mov	r0, r6
 2065              	.LVL332:
 2066 00a6 FFF7FEFF 		bl	lv_obj_get_width
ARM GAS  C:\Users\strap\AppData\Local\Temp\ccTzHSZB.s 			page 69


 2067              	.LVL333:
 2068 00aa 2844     		add	r0, r0, r5
 2069 00ac 05B2     		sxth	r5, r0
 2070              	.LVL334:
 750:lvgl\src\lv_widgets/lv_tabview.c **** 
 2071              		.loc 1 750 0
 2072 00ae 3046     		mov	r0, r6
 2073 00b0 FFF7FEFF 		bl	lv_obj_get_width
 2074              	.LVL335:
 2075 00b4 00EBD070 		add	r0, r0, r0, lsr #31
 2076 00b8 40F34F0A 		sbfx	r10, r0, #1, #16
 2077              	.LVL336:
 752:lvgl\src\lv_widgets/lv_tabview.c ****         int16_t tab_cur = ext->tab_cur;
 2078              		.loc 1 752 0
 2079 00bc 3046     		mov	r0, r6
 2080 00be FFF7FEFF 		bl	lv_obj_get_base_dir
 2081              	.LVL337:
 753:lvgl\src\lv_widgets/lv_tabview.c ****         if(page_x1 > treshold) {
 2082              		.loc 1 753 0
 2083 00c2 BB8A     		ldrh	r3, [r7, #20]
 2084 00c4 0FFA83F8 		sxth	r8, r3
 2085              	.LVL338:
 754:lvgl\src\lv_widgets/lv_tabview.c ****             if(base_dir != LV_BIDI_DIR_RTL) tab_cur--;
 2086              		.loc 1 754 0
 2087 00c8 D145     		cmp	r9, r10
 2088 00ca 09DD     		ble	.L147
 755:lvgl\src\lv_widgets/lv_tabview.c ****             else tab_cur ++;
 2089              		.loc 1 755 0
 2090 00cc 0128     		cmp	r0, #1
 2091 00ce 03D0     		beq	.L148
 755:lvgl\src\lv_widgets/lv_tabview.c ****             else tab_cur ++;
 2092              		.loc 1 755 0 is_stmt 0 discriminator 1
 2093 00d0 013B     		subs	r3, r3, #1
 2094 00d2 0FFA83F8 		sxth	r8, r3
 2095              	.LVL339:
 2096 00d6 0EE0     		b	.L149
 2097              	.L148:
 756:lvgl\src\lv_widgets/lv_tabview.c ****         }
 2098              		.loc 1 756 0 is_stmt 1
 2099 00d8 0133     		adds	r3, r3, #1
 2100 00da 0FFA83F8 		sxth	r8, r3
 2101              	.LVL340:
 2102 00de 0AE0     		b	.L149
 2103              	.L147:
 758:lvgl\src\lv_widgets/lv_tabview.c ****             if(base_dir != LV_BIDI_DIR_RTL) tab_cur++;
 2104              		.loc 1 758 0
 2105 00e0 5545     		cmp	r5, r10
 2106 00e2 08DA     		bge	.L149
 759:lvgl\src\lv_widgets/lv_tabview.c ****             else tab_cur --;
 2107              		.loc 1 759 0
 2108 00e4 0128     		cmp	r0, #1
 2109 00e6 03D0     		beq	.L150
 759:lvgl\src\lv_widgets/lv_tabview.c ****             else tab_cur --;
 2110              		.loc 1 759 0 is_stmt 0 discriminator 1
 2111 00e8 0133     		adds	r3, r3, #1
 2112 00ea 0FFA83F8 		sxth	r8, r3
 2113              	.LVL341:
ARM GAS  C:\Users\strap\AppData\Local\Temp\ccTzHSZB.s 			page 70


 2114 00ee 02E0     		b	.L149
 2115              	.L150:
 760:lvgl\src\lv_widgets/lv_tabview.c ****         }
 2116              		.loc 1 760 0 is_stmt 1
 2117 00f0 013B     		subs	r3, r3, #1
 2118 00f2 0FFA83F8 		sxth	r8, r3
 2119              	.LVL342:
 2120              	.L149:
 763:lvgl\src\lv_widgets/lv_tabview.c ****         if(tab_cur < 0) tab_cur = 0;
 2121              		.loc 1 763 0
 2122 00f6 FB8A     		ldrh	r3, [r7, #22]
 2123 00f8 5A1E     		subs	r2, r3, #1
 2124 00fa 9045     		cmp	r8, r2
 2125 00fc 01DD     		ble	.L151
 763:lvgl\src\lv_widgets/lv_tabview.c ****         if(tab_cur < 0) tab_cur = 0;
 2126              		.loc 1 763 0 is_stmt 0 discriminator 1
 2127 00fe 0FFA82F8 		sxth	r8, r2
 2128              	.LVL343:
 2129              	.L151:
 764:lvgl\src\lv_widgets/lv_tabview.c **** 
 2130              		.loc 1 764 0 is_stmt 1
 2131 0102 B8F1000F 		cmp	r8, #0
 2132 0106 01DA     		bge	.L152
 2133 0108 4FF00008 		mov	r8, #0
 2134              	.LVL344:
 2135              	.L152:
 766:lvgl\src\lv_widgets/lv_tabview.c ****         lv_tabview_set_tab_act(tabview, tab_cur, LV_ANIM_ON);
 2136              		.loc 1 766 0
 2137 010c 3046     		mov	r0, r6
 2138              	.LVL345:
 2139 010e FFF7FEFF 		bl	lv_tabview_get_tab_act
 2140              	.LVL346:
 2141 0112 0390     		str	r0, [sp, #12]
 767:lvgl\src\lv_widgets/lv_tabview.c ****         uint32_t id_new = lv_tabview_get_tab_act(tabview);
 2142              		.loc 1 767 0
 2143 0114 0122     		movs	r2, #1
 2144 0116 1FFA88F1 		uxth	r1, r8
 2145 011a 3046     		mov	r0, r6
 2146 011c FFF7FEFF 		bl	lv_tabview_set_tab_act
 2147              	.LVL347:
 768:lvgl\src\lv_widgets/lv_tabview.c **** 
 2148              		.loc 1 768 0
 2149 0120 3046     		mov	r0, r6
 2150 0122 FFF7FEFF 		bl	lv_tabview_get_tab_act
 2151              	.LVL348:
 770:lvgl\src\lv_widgets/lv_tabview.c ****         if(res != LV_RES_OK) return res;
 2152              		.loc 1 770 0
 2153 0126 039B     		ldr	r3, [sp, #12]
 2154 0128 9842     		cmp	r0, r3
 2155 012a 05D0     		beq	.L153
 770:lvgl\src\lv_widgets/lv_tabview.c ****         if(res != LV_RES_OK) return res;
 2156              		.loc 1 770 0 is_stmt 0 discriminator 1
 2157 012c 03AA     		add	r2, sp, #12
 2158 012e 1021     		movs	r1, #16
 2159 0130 3046     		mov	r0, r6
 2160              	.LVL349:
 2161 0132 FFF7FEFF 		bl	lv_event_send
ARM GAS  C:\Users\strap\AppData\Local\Temp\ccTzHSZB.s 			page 71


 2162              	.LVL350:
 2163 0136 0446     		mov	r4, r0
 2164              	.LVL351:
 2165              	.L153:
 771:lvgl\src\lv_widgets/lv_tabview.c **** 
 2166              		.loc 1 771 0 is_stmt 1
 2167 0138 012C     		cmp	r4, #1
 2168 013a 04D1     		bne	.L159
 2169 013c 2046     		mov	r0, r4
 2170 013e 06E0     		b	.L142
 2171              	.LVL352:
 2172              	.L156:
 2173 0140 05E0     		b	.L142
 2174              	.LVL353:
 2175              	.L157:
 747:lvgl\src\lv_widgets/lv_tabview.c ****         lv_coord_t page_x1  = tab_page->coords.x1 - tabview->coords.x1 + x_predict;
 2176              		.loc 1 747 0
 2177 0142 0120     		movs	r0, #1
 2178              	.LVL354:
 2179 0144 03E0     		b	.L142
 2180              	.LVL355:
 2181              	.L159:
 771:lvgl\src\lv_widgets/lv_tabview.c **** 
 2182              		.loc 1 771 0
 2183 0146 2046     		mov	r0, r4
 2184 0148 01E0     		b	.L142
 2185              	.LVL356:
 2186              	.L154:
 2187 014a 00E0     		b	.L142
 2188              	.LVL357:
 2189              	.L155:
 2190              	.LBE150:
 722:lvgl\src\lv_widgets/lv_tabview.c ****     if(res != LV_RES_OK) return res;
 2191              		.loc 1 722 0
 2192 014c 2046     		mov	r0, r4
 2193              	.LVL358:
 2194              	.L142:
 775:lvgl\src\lv_widgets/lv_tabview.c **** 
 2195              		.loc 1 775 0
 2196 014e 04B0     		add	sp, sp, #16
 2197              		.cfi_def_cfa_offset 32
 2198              		@ sp needed
 2199 0150 BDE8F087 		pop	{r4, r5, r6, r7, r8, r9, r10, pc}
 2200              	.L162:
 2201              		.align	2
 2202              	.L161:
 2203 0154 00000000 		.word	.LANCHOR0
 2204 0158 20000000 		.word	.LC2
 2205 015c 1F85EB51 		.word	1374389535
 2206              		.cfi_endproc
 2207              	.LFE370:
 2208              		.size	tabview_scrl_signal, .-tabview_scrl_signal
 2209              		.section	.text.tabview_realign,"ax",%progbits
 2210              		.align	2
 2211              		.thumb
 2212              		.thumb_func
 2213              		.type	tabview_realign, %function
ARM GAS  C:\Users\strap\AppData\Local\Temp\ccTzHSZB.s 			page 72


 2214              	tabview_realign:
 2215              	.LFB373:
 854:lvgl\src\lv_widgets/lv_tabview.c ****     lv_tabview_ext_t * ext = lv_obj_get_ext_attr(tabview);
 2216              		.loc 1 854 0
 2217              		.cfi_startproc
 2218              		@ args = 0, pretend = 0, frame = 0
 2219              		@ frame_needed = 0, uses_anonymous_args = 0
 2220              	.LVL359:
 2221 0000 38B5     		push	{r3, r4, r5, lr}
 2222              		.cfi_def_cfa_offset 16
 2223              		.cfi_offset 3, -16
 2224              		.cfi_offset 4, -12
 2225              		.cfi_offset 5, -8
 2226              		.cfi_offset 14, -4
 2227 0002 0446     		mov	r4, r0
 855:lvgl\src\lv_widgets/lv_tabview.c **** 
 2228              		.loc 1 855 0
 2229 0004 FFF7FEFF 		bl	lv_obj_get_ext_attr
 2230              	.LVL360:
 2231 0008 0546     		mov	r5, r0
 2232              	.LVL361:
 857:lvgl\src\lv_widgets/lv_tabview.c ****     refr_content_size(tabview);
 2233              		.loc 1 857 0
 2234 000a 2046     		mov	r0, r4
 2235              	.LVL362:
 2236 000c FFF7FEFF 		bl	refr_btns_size
 2237              	.LVL363:
 858:lvgl\src\lv_widgets/lv_tabview.c ****     refr_indic_size(tabview);
 2238              		.loc 1 858 0
 2239 0010 2046     		mov	r0, r4
 2240 0012 FFF7FEFF 		bl	refr_content_size
 2241              	.LVL364:
 859:lvgl\src\lv_widgets/lv_tabview.c **** 
 2242              		.loc 1 859 0
 2243 0016 2046     		mov	r0, r4
 2244 0018 FFF7FEFF 		bl	refr_indic_size
 2245              	.LVL365:
 861:lvgl\src\lv_widgets/lv_tabview.c **** 
 2246              		.loc 1 861 0
 2247 001c 2046     		mov	r0, r4
 2248 001e FFF7FEFF 		bl	refr_align
 2249              	.LVL366:
 863:lvgl\src\lv_widgets/lv_tabview.c **** }
 2250              		.loc 1 863 0
 2251 0022 0022     		movs	r2, #0
 2252 0024 A98A     		ldrh	r1, [r5, #20]
 2253 0026 2046     		mov	r0, r4
 2254 0028 FFF7FEFF 		bl	lv_tabview_set_tab_act
 2255              	.LVL367:
 2256 002c 38BD     		pop	{r3, r4, r5, pc}
 2257              		.cfi_endproc
 2258              	.LFE373:
 2259              		.size	tabview_realign, .-tabview_realign
 2260 002e 00BF     		.section	.text.lv_tabview_signal,"ax",%progbits
 2261              		.align	2
 2262              		.thumb
 2263              		.thumb_func
ARM GAS  C:\Users\strap\AppData\Local\Temp\ccTzHSZB.s 			page 73


 2264              		.type	lv_tabview_signal, %function
 2265              	lv_tabview_signal:
 2266              	.LFB369:
 604:lvgl\src\lv_widgets/lv_tabview.c ****     lv_res_t res;
 2267              		.loc 1 604 0
 2268              		.cfi_startproc
 2269              		@ args = 0, pretend = 0, frame = 0
 2270              		@ frame_needed = 0, uses_anonymous_args = 0
 2271              	.LVL368:
 2272 0000 2DE9F843 		push	{r3, r4, r5, r6, r7, r8, r9, lr}
 2273              		.cfi_def_cfa_offset 32
 2274              		.cfi_offset 3, -32
 2275              		.cfi_offset 4, -28
 2276              		.cfi_offset 5, -24
 2277              		.cfi_offset 6, -20
 2278              		.cfi_offset 7, -16
 2279              		.cfi_offset 8, -12
 2280              		.cfi_offset 9, -8
 2281              		.cfi_offset 14, -4
 2282 0004 8046     		mov	r8, r0
 2283 0006 0D46     		mov	r5, r1
 2284 0008 1746     		mov	r7, r2
 606:lvgl\src\lv_widgets/lv_tabview.c ****         lv_get_style_info_t * info = param;
 2285              		.loc 1 606 0
 2286 000a 0829     		cmp	r1, #8
 2287 000c 0ED1     		bne	.L166
 2288              	.LVL369:
 2289              	.LBB151:
 608:lvgl\src\lv_widgets/lv_tabview.c ****         if(info->result != NULL) return LV_RES_OK;
 2290              		.loc 1 608 0
 2291 000e 1178     		ldrb	r1, [r2]	@ zero_extendqisi2
 2292              	.LVL370:
 2293 0010 FFF7FEFF 		bl	lv_tabview_get_style
 2294              	.LVL371:
 2295 0014 7860     		str	r0, [r7, #4]
 609:lvgl\src\lv_widgets/lv_tabview.c ****         else return ancestor_signal(tabview, sign, param);
 2296              		.loc 1 609 0
 2297 0016 0028     		cmp	r0, #0
 2298 0018 40F00081 		bne	.L188
 610:lvgl\src\lv_widgets/lv_tabview.c ****     }
 2299              		.loc 1 610 0
 2300 001c 864B     		ldr	r3, .L196
 2301 001e 9B68     		ldr	r3, [r3, #8]
 2302 0020 3A46     		mov	r2, r7
 2303 0022 2946     		mov	r1, r5
 2304 0024 4046     		mov	r0, r8
 2305 0026 9847     		blx	r3
 2306              	.LVL372:
 2307 0028 BDE8F883 		pop	{r3, r4, r5, r6, r7, r8, r9, pc}
 2308              	.LVL373:
 2309              	.L166:
 2310              	.LBE151:
 612:lvgl\src\lv_widgets/lv_tabview.c ****         lv_tabview_ext_t * ext = lv_obj_get_ext_attr(tabview);
 2311              		.loc 1 612 0
 2312 002c 0929     		cmp	r1, #9
 2313 002e 2BD1     		bne	.L168
 2314              	.LBB152:
ARM GAS  C:\Users\strap\AppData\Local\Temp\ccTzHSZB.s 			page 74


 613:lvgl\src\lv_widgets/lv_tabview.c ****         lv_get_state_info_t * info = param;
 2315              		.loc 1 613 0
 2316 0030 FFF7FEFF 		bl	lv_obj_get_ext_attr
 2317              	.LVL374:
 615:lvgl\src\lv_widgets/lv_tabview.c ****         else if(info->part == LV_TABVIEW_PART_TAB_BTN) info->result = lv_obj_get_state(ext->btns, L
 2318              		.loc 1 615 0
 2319 0034 3B78     		ldrb	r3, [r7]	@ zero_extendqisi2
 2320 0036 412B     		cmp	r3, #65
 2321 0038 07D1     		bne	.L169
 615:lvgl\src\lv_widgets/lv_tabview.c ****         else if(info->part == LV_TABVIEW_PART_TAB_BTN) info->result = lv_obj_get_state(ext->btns, L
 2322              		.loc 1 615 0 is_stmt 0 discriminator 1
 2323 003a 0021     		movs	r1, #0
 2324 003c 0068     		ldr	r0, [r0]
 2325              	.LVL375:
 2326 003e FFF7FEFF 		bl	lv_obj_get_state
 2327              	.LVL376:
 2328 0042 7870     		strb	r0, [r7, #1]
 620:lvgl\src\lv_widgets/lv_tabview.c ****     }
 2329              		.loc 1 620 0 is_stmt 1 discriminator 1
 2330 0044 0120     		movs	r0, #1
 2331 0046 BDE8F883 		pop	{r3, r4, r5, r6, r7, r8, r9, pc}
 2332              	.LVL377:
 2333              	.L169:
 616:lvgl\src\lv_widgets/lv_tabview.c ****         else if(info->part == LV_TABVIEW_PART_INDIC) info->result = lv_obj_get_state(ext->indic, LV
 2334              		.loc 1 616 0
 2335 004a 422B     		cmp	r3, #66
 2336 004c 07D1     		bne	.L170
 616:lvgl\src\lv_widgets/lv_tabview.c ****         else if(info->part == LV_TABVIEW_PART_INDIC) info->result = lv_obj_get_state(ext->indic, LV
 2337              		.loc 1 616 0 is_stmt 0 discriminator 1
 2338 004e 0121     		movs	r1, #1
 2339 0050 0068     		ldr	r0, [r0]
 2340              	.LVL378:
 2341 0052 FFF7FEFF 		bl	lv_obj_get_state
 2342              	.LVL379:
 2343 0056 7870     		strb	r0, [r7, #1]
 620:lvgl\src\lv_widgets/lv_tabview.c ****     }
 2344              		.loc 1 620 0 is_stmt 1 discriminator 1
 2345 0058 0120     		movs	r0, #1
 2346 005a BDE8F883 		pop	{r3, r4, r5, r6, r7, r8, r9, pc}
 2347              	.LVL380:
 2348              	.L170:
 617:lvgl\src\lv_widgets/lv_tabview.c ****         else if(info->part == LV_TABVIEW_PART_BG_SCRLLABLE) info->result = lv_obj_get_state(ext->co
 2349              		.loc 1 617 0
 2350 005e 432B     		cmp	r3, #67
 2351 0060 07D1     		bne	.L171
 617:lvgl\src\lv_widgets/lv_tabview.c ****         else if(info->part == LV_TABVIEW_PART_BG_SCRLLABLE) info->result = lv_obj_get_state(ext->co
 2352              		.loc 1 617 0 is_stmt 0 discriminator 1
 2353 0062 0021     		movs	r1, #0
 2354 0064 4068     		ldr	r0, [r0, #4]
 2355              	.LVL381:
 2356 0066 FFF7FEFF 		bl	lv_obj_get_state
 2357              	.LVL382:
 2358 006a 7870     		strb	r0, [r7, #1]
 620:lvgl\src\lv_widgets/lv_tabview.c ****     }
 2359              		.loc 1 620 0 is_stmt 1 discriminator 1
 2360 006c 0120     		movs	r0, #1
 2361 006e BDE8F883 		pop	{r3, r4, r5, r6, r7, r8, r9, pc}
ARM GAS  C:\Users\strap\AppData\Local\Temp\ccTzHSZB.s 			page 75


 2362              	.LVL383:
 2363              	.L171:
 618:lvgl\src\lv_widgets/lv_tabview.c ****                                                                                                 LV_
 2364              		.loc 1 618 0
 2365 0072 402B     		cmp	r3, #64
 2366 0074 40F0D580 		bne	.L189
 618:lvgl\src\lv_widgets/lv_tabview.c ****                                                                                                 LV_
 2367              		.loc 1 618 0 is_stmt 0 discriminator 1
 2368 0078 4021     		movs	r1, #64
 2369 007a 8068     		ldr	r0, [r0, #8]
 2370              	.LVL384:
 2371 007c FFF7FEFF 		bl	lv_obj_get_state
 2372              	.LVL385:
 2373 0080 7870     		strb	r0, [r7, #1]
 620:lvgl\src\lv_widgets/lv_tabview.c ****     }
 2374              		.loc 1 620 0 is_stmt 1 discriminator 1
 2375 0082 0120     		movs	r0, #1
 2376 0084 BDE8F883 		pop	{r3, r4, r5, r6, r7, r8, r9, pc}
 2377              	.LVL386:
 2378              	.L168:
 2379              	.LBE152:
 624:lvgl\src\lv_widgets/lv_tabview.c ****     if(res != LV_RES_OK) return res;
 2380              		.loc 1 624 0
 2381 0088 6B4B     		ldr	r3, .L196
 2382 008a 9B68     		ldr	r3, [r3, #8]
 2383 008c 9847     		blx	r3
 2384              	.LVL387:
 2385 008e 0646     		mov	r6, r0
 2386              	.LVL388:
 625:lvgl\src\lv_widgets/lv_tabview.c ****     if(sign == LV_SIGNAL_GET_TYPE) return lv_obj_handle_get_type_signal(param, LV_OBJX_NAME);
 2387              		.loc 1 625 0
 2388 0090 0128     		cmp	r0, #1
 2389 0092 40F0C980 		bne	.L190
 626:lvgl\src\lv_widgets/lv_tabview.c **** 
 2390              		.loc 1 626 0
 2391 0096 072D     		cmp	r5, #7
 2392 0098 05D1     		bne	.L172
