ARM GAS  C:\Users\strap\AppData\Local\Temp\ccCgIabb.s 			page 1


   1              		.syntax unified
   2              		.cpu cortex-m3
   3              		.fpu softvfp
   4              		.eabi_attribute 20, 1
   5              		.eabi_attribute 21, 1
   6              		.eabi_attribute 23, 3
   7              		.eabi_attribute 24, 1
   8              		.eabi_attribute 25, 1
   9              		.eabi_attribute 26, 1
  10              		.eabi_attribute 30, 1
  11              		.eabi_attribute 34, 1
  12              		.eabi_attribute 18, 4
  13              		.thumb
  14              		.syntax unified
  15              		.file	"lv_txt.c"
  16              		.text
  17              	.Ltext0:
  18              		.cfi_sections	.debug_frame
  19              		.section	.text.lv_txt_utf8_size,"ax",%progbits
  20              		.align	2
  21              		.thumb
  22              		.thumb_func
  23              		.type	lv_txt_utf8_size, %function
  24              	lv_txt_utf8_size:
  25              	.LFB12:
  26              		.file 1 "lvgl\\src\\lv_misc\\lv_txt.c"
   1:lvgl\src\lv_misc/lv_txt.c **** /**
   2:lvgl\src\lv_misc/lv_txt.c ****  * @file lv_text.c
   3:lvgl\src\lv_misc/lv_txt.c ****  *
   4:lvgl\src\lv_misc/lv_txt.c ****  */
   5:lvgl\src\lv_misc/lv_txt.c **** 
   6:lvgl\src\lv_misc/lv_txt.c **** /*********************
   7:lvgl\src\lv_misc/lv_txt.c ****  *      INCLUDES
   8:lvgl\src\lv_misc/lv_txt.c ****  *********************/
   9:lvgl\src\lv_misc/lv_txt.c **** #include "lv_txt.h"
  10:lvgl\src\lv_misc/lv_txt.c **** #include "lv_math.h"
  11:lvgl\src\lv_misc/lv_txt.c **** #include "lv_log.h"
  12:lvgl\src\lv_misc/lv_txt.c **** 
  13:lvgl\src\lv_misc/lv_txt.c **** /*********************
  14:lvgl\src\lv_misc/lv_txt.c ****  *      DEFINES
  15:lvgl\src\lv_misc/lv_txt.c ****  *********************/
  16:lvgl\src\lv_misc/lv_txt.c **** #define NO_BREAK_FOUND UINT32_MAX
  17:lvgl\src\lv_misc/lv_txt.c **** 
  18:lvgl\src\lv_misc/lv_txt.c **** /**********************
  19:lvgl\src\lv_misc/lv_txt.c ****  *      TYPEDEFS
  20:lvgl\src\lv_misc/lv_txt.c ****  **********************/
  21:lvgl\src\lv_misc/lv_txt.c **** 
  22:lvgl\src\lv_misc/lv_txt.c **** /**********************
  23:lvgl\src\lv_misc/lv_txt.c ****  *  STATIC PROTOTYPES
  24:lvgl\src\lv_misc/lv_txt.c ****  **********************/
  25:lvgl\src\lv_misc/lv_txt.c **** static inline bool is_break_char(uint32_t letter);
  26:lvgl\src\lv_misc/lv_txt.c **** 
  27:lvgl\src\lv_misc/lv_txt.c **** #if LV_TXT_ENC == LV_TXT_ENC_UTF8
  28:lvgl\src\lv_misc/lv_txt.c ****     static uint8_t lv_txt_utf8_size(const char * str);
  29:lvgl\src\lv_misc/lv_txt.c ****     static uint32_t lv_txt_unicode_to_utf8(uint32_t letter_uni);
  30:lvgl\src\lv_misc/lv_txt.c ****     static uint32_t lv_txt_utf8_conv_wc(uint32_t c);
  31:lvgl\src\lv_misc/lv_txt.c ****     static uint32_t lv_txt_utf8_next(const char * txt, uint32_t * i);
ARM GAS  C:\Users\strap\AppData\Local\Temp\ccCgIabb.s 			page 2


  32:lvgl\src\lv_misc/lv_txt.c ****     static uint32_t lv_txt_utf8_prev(const char * txt, uint32_t * i_start);
  33:lvgl\src\lv_misc/lv_txt.c ****     static uint32_t lv_txt_utf8_get_byte_id(const char * txt, uint32_t utf8_id);
  34:lvgl\src\lv_misc/lv_txt.c ****     static uint32_t lv_txt_utf8_get_char_id(const char * txt, uint32_t byte_id);
  35:lvgl\src\lv_misc/lv_txt.c ****     static uint32_t lv_txt_utf8_get_length(const char * txt);
  36:lvgl\src\lv_misc/lv_txt.c **** #elif LV_TXT_ENC == LV_TXT_ENC_ASCII
  37:lvgl\src\lv_misc/lv_txt.c ****     static uint8_t lv_txt_iso8859_1_size(const char * str);
  38:lvgl\src\lv_misc/lv_txt.c ****     static uint32_t lv_txt_unicode_to_iso8859_1(uint32_t letter_uni);
  39:lvgl\src\lv_misc/lv_txt.c ****     static uint32_t lv_txt_iso8859_1_conv_wc(uint32_t c);
  40:lvgl\src\lv_misc/lv_txt.c ****     static uint32_t lv_txt_iso8859_1_next(const char * txt, uint32_t * i);
  41:lvgl\src\lv_misc/lv_txt.c ****     static uint32_t lv_txt_iso8859_1_prev(const char * txt, uint32_t * i_start);
  42:lvgl\src\lv_misc/lv_txt.c ****     static uint32_t lv_txt_iso8859_1_get_byte_id(const char * txt, uint32_t utf8_id);
  43:lvgl\src\lv_misc/lv_txt.c ****     static uint32_t lv_txt_iso8859_1_get_char_id(const char * txt, uint32_t byte_id);
  44:lvgl\src\lv_misc/lv_txt.c ****     static uint32_t lv_txt_iso8859_1_get_length(const char * txt);
  45:lvgl\src\lv_misc/lv_txt.c **** #endif
  46:lvgl\src\lv_misc/lv_txt.c **** /**********************
  47:lvgl\src\lv_misc/lv_txt.c ****  *  STATIC VARIABLES
  48:lvgl\src\lv_misc/lv_txt.c ****  **********************/
  49:lvgl\src\lv_misc/lv_txt.c **** 
  50:lvgl\src\lv_misc/lv_txt.c **** /**********************
  51:lvgl\src\lv_misc/lv_txt.c ****  *  GLOBAL VARIABLES
  52:lvgl\src\lv_misc/lv_txt.c ****  **********************/
  53:lvgl\src\lv_misc/lv_txt.c **** #if LV_TXT_ENC == LV_TXT_ENC_UTF8
  54:lvgl\src\lv_misc/lv_txt.c ****     uint8_t (*_lv_txt_encoded_size)(const char *)                   = lv_txt_utf8_size;
  55:lvgl\src\lv_misc/lv_txt.c ****     uint32_t (*_lv_txt_unicode_to_encoded)(uint32_t)                = lv_txt_unicode_to_utf8;
  56:lvgl\src\lv_misc/lv_txt.c ****     uint32_t (*_lv_txt_encoded_conv_wc)(uint32_t)                   = lv_txt_utf8_conv_wc;
  57:lvgl\src\lv_misc/lv_txt.c ****     uint32_t (*_lv_txt_encoded_next)(const char *, uint32_t *)      = lv_txt_utf8_next;
  58:lvgl\src\lv_misc/lv_txt.c ****     uint32_t (*_lv_txt_encoded_prev)(const char *, uint32_t *)      = lv_txt_utf8_prev;
  59:lvgl\src\lv_misc/lv_txt.c ****     uint32_t (*_lv_txt_encoded_get_byte_id)(const char *, uint32_t) = lv_txt_utf8_get_byte_id;
  60:lvgl\src\lv_misc/lv_txt.c ****     uint32_t (*_lv_txt_encoded_get_char_id)(const char *, uint32_t) = lv_txt_utf8_get_char_id;
  61:lvgl\src\lv_misc/lv_txt.c ****     uint32_t (*_lv_txt_get_encoded_length)(const char *)            = lv_txt_utf8_get_length;
  62:lvgl\src\lv_misc/lv_txt.c **** #elif LV_TXT_ENC == LV_TXT_ENC_ASCII
  63:lvgl\src\lv_misc/lv_txt.c ****     uint8_t (*_lv_txt_encoded_size)(const char *)                   = lv_txt_iso8859_1_size;
  64:lvgl\src\lv_misc/lv_txt.c ****     uint32_t (*_lv_txt_unicode_to_encoded)(uint32_t)                = lv_txt_unicode_to_iso8859_1;
  65:lvgl\src\lv_misc/lv_txt.c ****     uint32_t (*_lv_txt_encoded_conv_wc)(uint32_t)                   = lv_txt_iso8859_1_conv_wc;
  66:lvgl\src\lv_misc/lv_txt.c ****     uint32_t (*_lv_txt_encoded_next)(const char *, uint32_t *)      = lv_txt_iso8859_1_next;
  67:lvgl\src\lv_misc/lv_txt.c ****     uint32_t (*_lv_txt_encoded_prev)(const char *, uint32_t *)      = lv_txt_iso8859_1_prev;
  68:lvgl\src\lv_misc/lv_txt.c ****     uint32_t (*_lv_txt_encoded_get_byte_id)(const char *, uint32_t) = lv_txt_iso8859_1_get_byte_id;
  69:lvgl\src\lv_misc/lv_txt.c ****     uint32_t (*_lv_txt_encoded_get_char_id)(const char *, uint32_t)     = lv_txt_iso8859_1_get_char
  70:lvgl\src\lv_misc/lv_txt.c ****     uint32_t (*_lv_txt_get_encoded_length)(const char *)            = lv_txt_iso8859_1_get_length;
  71:lvgl\src\lv_misc/lv_txt.c **** 
  72:lvgl\src\lv_misc/lv_txt.c **** #endif
  73:lvgl\src\lv_misc/lv_txt.c **** 
  74:lvgl\src\lv_misc/lv_txt.c **** /**********************
  75:lvgl\src\lv_misc/lv_txt.c ****  *      MACROS
  76:lvgl\src\lv_misc/lv_txt.c ****  **********************/
  77:lvgl\src\lv_misc/lv_txt.c **** 
  78:lvgl\src\lv_misc/lv_txt.c **** /**********************
  79:lvgl\src\lv_misc/lv_txt.c ****  *   GLOBAL FUNCTIONS
  80:lvgl\src\lv_misc/lv_txt.c ****  **********************/
  81:lvgl\src\lv_misc/lv_txt.c **** 
  82:lvgl\src\lv_misc/lv_txt.c **** /**
  83:lvgl\src\lv_misc/lv_txt.c ****  * Get size of a text
  84:lvgl\src\lv_misc/lv_txt.c ****  * @param size_res pointer to a 'point_t' variable to store the result
  85:lvgl\src\lv_misc/lv_txt.c ****  * @param text pointer to a text
  86:lvgl\src\lv_misc/lv_txt.c ****  * @param font pointer to font of the text
  87:lvgl\src\lv_misc/lv_txt.c ****  * @param letter_space letter space of the text
  88:lvgl\src\lv_misc/lv_txt.c ****  * @param txt.line_space line space of the text
ARM GAS  C:\Users\strap\AppData\Local\Temp\ccCgIabb.s 			page 3


  89:lvgl\src\lv_misc/lv_txt.c ****  * @param flags settings for the text from 'txt_flag_t' enum
  90:lvgl\src\lv_misc/lv_txt.c ****  * @param max_width max with of the text (break the lines to fit this size) Set CORD_MAX to avoid
  91:lvgl\src\lv_misc/lv_txt.c ****  * line breaks
  92:lvgl\src\lv_misc/lv_txt.c ****  */
  93:lvgl\src\lv_misc/lv_txt.c **** void _lv_txt_get_size(lv_point_t * size_res, const char * text, const lv_font_t * font, lv_coord_t 
  94:lvgl\src\lv_misc/lv_txt.c ****                       lv_coord_t line_space, lv_coord_t max_width, lv_txt_flag_t flag)
  95:lvgl\src\lv_misc/lv_txt.c **** {
  96:lvgl\src\lv_misc/lv_txt.c ****     size_res->x = 0;
  97:lvgl\src\lv_misc/lv_txt.c ****     size_res->y = 0;
  98:lvgl\src\lv_misc/lv_txt.c **** 
  99:lvgl\src\lv_misc/lv_txt.c ****     if(text == NULL) return;
 100:lvgl\src\lv_misc/lv_txt.c ****     if(font == NULL) return;
 101:lvgl\src\lv_misc/lv_txt.c **** 
 102:lvgl\src\lv_misc/lv_txt.c ****     if(flag & LV_TXT_FLAG_EXPAND) max_width = LV_COORD_MAX;
 103:lvgl\src\lv_misc/lv_txt.c **** 
 104:lvgl\src\lv_misc/lv_txt.c ****     uint32_t line_start     = 0;
 105:lvgl\src\lv_misc/lv_txt.c ****     uint32_t new_line_start = 0;
 106:lvgl\src\lv_misc/lv_txt.c ****     uint16_t letter_height = lv_font_get_line_height(font);
 107:lvgl\src\lv_misc/lv_txt.c **** 
 108:lvgl\src\lv_misc/lv_txt.c ****     /*Calc. the height and longest line*/
 109:lvgl\src\lv_misc/lv_txt.c ****     while(text[line_start] != '\0') {
 110:lvgl\src\lv_misc/lv_txt.c ****         new_line_start += _lv_txt_get_next_line(&text[line_start], font, letter_space, max_width, f
 111:lvgl\src\lv_misc/lv_txt.c **** 
 112:lvgl\src\lv_misc/lv_txt.c ****         if((unsigned long)size_res->y + (unsigned long)letter_height + (unsigned long)line_space > 
 113:lvgl\src\lv_misc/lv_txt.c ****             LV_LOG_WARN("lv_txt_get_size: integer overflow while calculating text height");
 114:lvgl\src\lv_misc/lv_txt.c ****             return;
 115:lvgl\src\lv_misc/lv_txt.c ****         }
 116:lvgl\src\lv_misc/lv_txt.c ****         else {
 117:lvgl\src\lv_misc/lv_txt.c ****             size_res->y += letter_height;
 118:lvgl\src\lv_misc/lv_txt.c ****             size_res->y += line_space;
 119:lvgl\src\lv_misc/lv_txt.c ****         }
 120:lvgl\src\lv_misc/lv_txt.c **** 
 121:lvgl\src\lv_misc/lv_txt.c ****         /*Calculate the the longest line*/
 122:lvgl\src\lv_misc/lv_txt.c ****         lv_coord_t act_line_length = _lv_txt_get_width(&text[line_start], new_line_start - line_sta
 123:lvgl\src\lv_misc/lv_txt.c ****                                                        flag);
 124:lvgl\src\lv_misc/lv_txt.c **** 
 125:lvgl\src\lv_misc/lv_txt.c ****         size_res->x = LV_MATH_MAX(act_line_length, size_res->x);
 126:lvgl\src\lv_misc/lv_txt.c ****         line_start  = new_line_start;
 127:lvgl\src\lv_misc/lv_txt.c ****     }
 128:lvgl\src\lv_misc/lv_txt.c **** 
 129:lvgl\src\lv_misc/lv_txt.c ****     /*Make the text one line taller if the last character is '\n' or '\r'*/
 130:lvgl\src\lv_misc/lv_txt.c ****     if((line_start != 0) && (text[line_start - 1] == '\n' || text[line_start - 1] == '\r')) {
 131:lvgl\src\lv_misc/lv_txt.c ****         size_res->y += letter_height + line_space;
 132:lvgl\src\lv_misc/lv_txt.c ****     }
 133:lvgl\src\lv_misc/lv_txt.c **** 
 134:lvgl\src\lv_misc/lv_txt.c ****     /*Correction with the last line space or set the height manually if the text is empty*/
 135:lvgl\src\lv_misc/lv_txt.c ****     if(size_res->y == 0)
 136:lvgl\src\lv_misc/lv_txt.c ****         size_res->y = letter_height;
 137:lvgl\src\lv_misc/lv_txt.c ****     else
 138:lvgl\src\lv_misc/lv_txt.c ****         size_res->y -= line_space;
 139:lvgl\src\lv_misc/lv_txt.c **** }
 140:lvgl\src\lv_misc/lv_txt.c **** 
 141:lvgl\src\lv_misc/lv_txt.c **** /**
 142:lvgl\src\lv_misc/lv_txt.c ****  * Get the next word of text. A word is delimited by break characters.
 143:lvgl\src\lv_misc/lv_txt.c ****  *
 144:lvgl\src\lv_misc/lv_txt.c ****  * If the word cannot fit in the max_width space, obey LV_TXT_LINE_BREAK_LONG_* rules.
 145:lvgl\src\lv_misc/lv_txt.c ****  *
ARM GAS  C:\Users\strap\AppData\Local\Temp\ccCgIabb.s 			page 4


 146:lvgl\src\lv_misc/lv_txt.c ****  * If the next word cannot fit anything, return 0.
 147:lvgl\src\lv_misc/lv_txt.c ****  *
 148:lvgl\src\lv_misc/lv_txt.c ****  * If the first character is a break character, returns the next index.
 149:lvgl\src\lv_misc/lv_txt.c ****  *
 150:lvgl\src\lv_misc/lv_txt.c ****  * Example calls from lv_txt_get_next_line() assuming sufficient max_width and
 151:lvgl\src\lv_misc/lv_txt.c ****  * txt = "Test text\n"
 152:lvgl\src\lv_misc/lv_txt.c ****  *        0123456789
 153:lvgl\src\lv_misc/lv_txt.c ****  *
 154:lvgl\src\lv_misc/lv_txt.c ****  * Calls would be as follows:
 155:lvgl\src\lv_misc/lv_txt.c ****  *     1. Return i=4, pointing at breakchar ' ', for the string "Test"
 156:lvgl\src\lv_misc/lv_txt.c ****  *     2. Return i=5, since i=4 was a breakchar.
 157:lvgl\src\lv_misc/lv_txt.c ****  *     3. Return i=9, pointing at breakchar '\n'
 158:lvgl\src\lv_misc/lv_txt.c ****  *     4. Parenting lv_txt_get_next_line() would detect subsequent '\0'
 159:lvgl\src\lv_misc/lv_txt.c ****  *
 160:lvgl\src\lv_misc/lv_txt.c ****  * TODO: Returned word_w_ptr may overestimate the returned word's width when
 161:lvgl\src\lv_misc/lv_txt.c ****  * max_width is reached. In current usage, this has no impact.
 162:lvgl\src\lv_misc/lv_txt.c ****  *
 163:lvgl\src\lv_misc/lv_txt.c ****  * @param txt a '\0' terminated string
 164:lvgl\src\lv_misc/lv_txt.c ****  * @param font pointer to a font
 165:lvgl\src\lv_misc/lv_txt.c ****  * @param letter_space letter space
 166:lvgl\src\lv_misc/lv_txt.c ****  * @param max_width max with of the text (break the lines to fit this size) Set CORD_MAX to avoid l
 167:lvgl\src\lv_misc/lv_txt.c ****  * @param flags settings for the text from 'txt_flag_type' enum
 168:lvgl\src\lv_misc/lv_txt.c ****  * @param[out] word_w_ptr width (in pixels) of the parsed word. May be NULL.
 169:lvgl\src\lv_misc/lv_txt.c ****  * @param force Force return the fraction of the word that can fit in the provided space.
 170:lvgl\src\lv_misc/lv_txt.c ****  * @return the index of the first char of the next word (in byte index not letter index. With UTF-8
 171:lvgl\src\lv_misc/lv_txt.c ****  */
 172:lvgl\src\lv_misc/lv_txt.c **** static uint32_t lv_txt_get_next_word(const char * txt, const lv_font_t * font,
 173:lvgl\src\lv_misc/lv_txt.c ****                                      lv_coord_t letter_space, lv_coord_t max_width,
 174:lvgl\src\lv_misc/lv_txt.c ****                                      lv_txt_flag_t flag, uint32_t * word_w_ptr, lv_txt_cmd_state_t 
 175:lvgl\src\lv_misc/lv_txt.c **** {
 176:lvgl\src\lv_misc/lv_txt.c ****     if(txt == NULL || txt[0] == '\0') return 0;
 177:lvgl\src\lv_misc/lv_txt.c ****     if(font == NULL) return 0;
 178:lvgl\src\lv_misc/lv_txt.c **** 
 179:lvgl\src\lv_misc/lv_txt.c ****     if(flag & LV_TXT_FLAG_EXPAND) max_width = LV_COORD_MAX;
 180:lvgl\src\lv_misc/lv_txt.c **** 
 181:lvgl\src\lv_misc/lv_txt.c ****     uint32_t i = 0, i_next = 0, i_next_next = 0;  /* Iterating index into txt */
 182:lvgl\src\lv_misc/lv_txt.c ****     uint32_t letter = 0;      /* Letter at i */
 183:lvgl\src\lv_misc/lv_txt.c ****     uint32_t letter_next = 0; /* Letter at i_next */
 184:lvgl\src\lv_misc/lv_txt.c ****     lv_coord_t letter_w;
 185:lvgl\src\lv_misc/lv_txt.c ****     lv_coord_t cur_w = 0;  /* Pixel Width of transversed string */
 186:lvgl\src\lv_misc/lv_txt.c ****     uint32_t word_len = 0;   /* Number of characters in the transversed word */
 187:lvgl\src\lv_misc/lv_txt.c ****     uint32_t break_index = NO_BREAK_FOUND; /* only used for "long" words */
 188:lvgl\src\lv_misc/lv_txt.c ****     uint32_t break_letter_count = 0; /* Number of characters up to the long word break point */
 189:lvgl\src\lv_misc/lv_txt.c **** 
 190:lvgl\src\lv_misc/lv_txt.c ****     letter = _lv_txt_encoded_next(txt, &i_next);
 191:lvgl\src\lv_misc/lv_txt.c ****     i_next_next = i_next;
 192:lvgl\src\lv_misc/lv_txt.c **** 
 193:lvgl\src\lv_misc/lv_txt.c ****     /* Obtain the full word, regardless if it fits or not in max_width */
 194:lvgl\src\lv_misc/lv_txt.c ****     while(txt[i] != '\0') {
 195:lvgl\src\lv_misc/lv_txt.c ****         letter_next = _lv_txt_encoded_next(txt, &i_next_next);
 196:lvgl\src\lv_misc/lv_txt.c ****         word_len++;
 197:lvgl\src\lv_misc/lv_txt.c **** 
 198:lvgl\src\lv_misc/lv_txt.c ****         /*Handle the recolor command*/
 199:lvgl\src\lv_misc/lv_txt.c ****         if((flag & LV_TXT_FLAG_RECOLOR) != 0) {
 200:lvgl\src\lv_misc/lv_txt.c ****             if(_lv_txt_is_cmd(cmd_state, letter) != false) {
 201:lvgl\src\lv_misc/lv_txt.c ****                 i = i_next;
 202:lvgl\src\lv_misc/lv_txt.c ****                 i_next = i_next_next;
ARM GAS  C:\Users\strap\AppData\Local\Temp\ccCgIabb.s 			page 5


 203:lvgl\src\lv_misc/lv_txt.c ****                 letter = letter_next;
 204:lvgl\src\lv_misc/lv_txt.c ****                 continue;   /*Skip the letter is it is part of a command*/
 205:lvgl\src\lv_misc/lv_txt.c ****             }
 206:lvgl\src\lv_misc/lv_txt.c ****         }
 207:lvgl\src\lv_misc/lv_txt.c **** 
 208:lvgl\src\lv_misc/lv_txt.c ****         letter_w = lv_font_get_glyph_width(font, letter, letter_next);
 209:lvgl\src\lv_misc/lv_txt.c ****         cur_w += letter_w;
 210:lvgl\src\lv_misc/lv_txt.c **** 
 211:lvgl\src\lv_misc/lv_txt.c ****         if(letter_w > 0) {
 212:lvgl\src\lv_misc/lv_txt.c ****             cur_w += letter_space;
 213:lvgl\src\lv_misc/lv_txt.c ****         }
 214:lvgl\src\lv_misc/lv_txt.c **** 
 215:lvgl\src\lv_misc/lv_txt.c ****         /* Test if this character fits within max_width */
 216:lvgl\src\lv_misc/lv_txt.c ****         if(break_index == NO_BREAK_FOUND && (cur_w - letter_space) > max_width) {
 217:lvgl\src\lv_misc/lv_txt.c ****             break_index = i;
 218:lvgl\src\lv_misc/lv_txt.c ****             break_letter_count = word_len - 1;
 219:lvgl\src\lv_misc/lv_txt.c ****             /* break_index is now pointing at the character that doesn't fit */
 220:lvgl\src\lv_misc/lv_txt.c ****         }
 221:lvgl\src\lv_misc/lv_txt.c **** 
 222:lvgl\src\lv_misc/lv_txt.c ****         /*Check for new line chars and breakchars*/
 223:lvgl\src\lv_misc/lv_txt.c ****         if(letter == '\n' || letter == '\r' || is_break_char(letter)) {
 224:lvgl\src\lv_misc/lv_txt.c ****             /* Update the output width on the first character if it fits.
 225:lvgl\src\lv_misc/lv_txt.c ****              * Must do this here incase first letter is a break character. */
 226:lvgl\src\lv_misc/lv_txt.c ****             if(i == 0 && break_index == NO_BREAK_FOUND && word_w_ptr != NULL) *word_w_ptr = cur_w;
 227:lvgl\src\lv_misc/lv_txt.c ****             word_len--;
 228:lvgl\src\lv_misc/lv_txt.c ****             break;
 229:lvgl\src\lv_misc/lv_txt.c ****         }
 230:lvgl\src\lv_misc/lv_txt.c **** 
 231:lvgl\src\lv_misc/lv_txt.c ****         /* Update the output width */
 232:lvgl\src\lv_misc/lv_txt.c ****         if(word_w_ptr != NULL && break_index == NO_BREAK_FOUND) *word_w_ptr = cur_w;
 233:lvgl\src\lv_misc/lv_txt.c **** 
 234:lvgl\src\lv_misc/lv_txt.c **** 
 235:lvgl\src\lv_misc/lv_txt.c ****         i = i_next;
 236:lvgl\src\lv_misc/lv_txt.c ****         i_next = i_next_next;
 237:lvgl\src\lv_misc/lv_txt.c ****         letter = letter_next;
 238:lvgl\src\lv_misc/lv_txt.c ****     }
 239:lvgl\src\lv_misc/lv_txt.c **** 
 240:lvgl\src\lv_misc/lv_txt.c ****     /* Entire Word fits in the provided space */
 241:lvgl\src\lv_misc/lv_txt.c ****     if(break_index == NO_BREAK_FOUND) {
 242:lvgl\src\lv_misc/lv_txt.c ****         if(word_len == 0 || (letter == '\r' && letter_next == '\n')) i = i_next;
 243:lvgl\src\lv_misc/lv_txt.c ****         return i;
 244:lvgl\src\lv_misc/lv_txt.c ****     }
 245:lvgl\src\lv_misc/lv_txt.c **** 
 246:lvgl\src\lv_misc/lv_txt.c **** #if LV_TXT_LINE_BREAK_LONG_LEN > 0
 247:lvgl\src\lv_misc/lv_txt.c ****     /* Word doesn't fit in provided space, but isn't "long" */
 248:lvgl\src\lv_misc/lv_txt.c ****     if(word_len < LV_TXT_LINE_BREAK_LONG_LEN) {
 249:lvgl\src\lv_misc/lv_txt.c ****         if(force) return break_index;
 250:lvgl\src\lv_misc/lv_txt.c ****         if(word_w_ptr != NULL) *word_w_ptr = 0; /* Return no word */
 251:lvgl\src\lv_misc/lv_txt.c ****         return 0;
 252:lvgl\src\lv_misc/lv_txt.c ****     }
 253:lvgl\src\lv_misc/lv_txt.c **** 
 254:lvgl\src\lv_misc/lv_txt.c ****     /* Word is "long," but insufficient amounts can fit in provided space */
 255:lvgl\src\lv_misc/lv_txt.c ****     if(break_letter_count < LV_TXT_LINE_BREAK_LONG_PRE_MIN_LEN) {
 256:lvgl\src\lv_misc/lv_txt.c ****         if(force) return break_index;
 257:lvgl\src\lv_misc/lv_txt.c ****         if(word_w_ptr != NULL) *word_w_ptr = 0;
 258:lvgl\src\lv_misc/lv_txt.c ****         return 0;
 259:lvgl\src\lv_misc/lv_txt.c ****     }
ARM GAS  C:\Users\strap\AppData\Local\Temp\ccCgIabb.s 			page 6


 260:lvgl\src\lv_misc/lv_txt.c **** 
 261:lvgl\src\lv_misc/lv_txt.c ****     /* Word is a "long", but letters may need to be better distributed */
 262:lvgl\src\lv_misc/lv_txt.c ****     {
 263:lvgl\src\lv_misc/lv_txt.c ****         i = break_index;
 264:lvgl\src\lv_misc/lv_txt.c ****         int32_t n_move = LV_TXT_LINE_BREAK_LONG_POST_MIN_LEN - (word_len - break_letter_count);
 265:lvgl\src\lv_misc/lv_txt.c ****         /* Move pointer "i" backwards */
 266:lvgl\src\lv_misc/lv_txt.c ****         for(; n_move > 0; n_move--) {
 267:lvgl\src\lv_misc/lv_txt.c ****             _lv_txt_encoded_prev(txt, &i);
 268:lvgl\src\lv_misc/lv_txt.c ****             // TODO: it would be appropriate to update the returned word width here
 269:lvgl\src\lv_misc/lv_txt.c ****             // However, in current usage, this doesn't impact anything.
 270:lvgl\src\lv_misc/lv_txt.c ****         }
 271:lvgl\src\lv_misc/lv_txt.c ****     }
 272:lvgl\src\lv_misc/lv_txt.c ****     return i;
 273:lvgl\src\lv_misc/lv_txt.c **** #else
 274:lvgl\src\lv_misc/lv_txt.c ****     if(force) return break_index;
 275:lvgl\src\lv_misc/lv_txt.c ****     if(word_w_ptr != NULL) *word_w_ptr = 0; /* Return no word */
 276:lvgl\src\lv_misc/lv_txt.c ****     (void) break_letter_count;
 277:lvgl\src\lv_misc/lv_txt.c ****     return 0;
 278:lvgl\src\lv_misc/lv_txt.c **** #endif
 279:lvgl\src\lv_misc/lv_txt.c **** }
 280:lvgl\src\lv_misc/lv_txt.c **** 
 281:lvgl\src\lv_misc/lv_txt.c **** /**
 282:lvgl\src\lv_misc/lv_txt.c ****  * Get the next line of text. Check line length and break chars too.
 283:lvgl\src\lv_misc/lv_txt.c ****  *
 284:lvgl\src\lv_misc/lv_txt.c ****  * A line of txt includes the \n character.
 285:lvgl\src\lv_misc/lv_txt.c ****  *
 286:lvgl\src\lv_misc/lv_txt.c ****  * @param txt a '\0' terminated string
 287:lvgl\src\lv_misc/lv_txt.c ****  * @param font pointer to a font
 288:lvgl\src\lv_misc/lv_txt.c ****  * @param letter_space letter space
 289:lvgl\src\lv_misc/lv_txt.c ****  * @param max_width max with of the text (break the lines to fit this size) Set CORD_MAX to avoid l
 290:lvgl\src\lv_misc/lv_txt.c ****  * @param flags settings for the text from 'txt_flag_type' enum
 291:lvgl\src\lv_misc/lv_txt.c ****  * @return the index of the first char of the new line (in byte index not letter index. With UTF-8 
 292:lvgl\src\lv_misc/lv_txt.c ****  */
 293:lvgl\src\lv_misc/lv_txt.c **** uint32_t _lv_txt_get_next_line(const char * txt, const lv_font_t * font,
 294:lvgl\src\lv_misc/lv_txt.c ****                                lv_coord_t letter_space, lv_coord_t max_width, lv_txt_flag_t flag)
 295:lvgl\src\lv_misc/lv_txt.c **** {
 296:lvgl\src\lv_misc/lv_txt.c ****     if(txt == NULL) return 0;
 297:lvgl\src\lv_misc/lv_txt.c ****     if(font == NULL) return 0;
 298:lvgl\src\lv_misc/lv_txt.c **** 
 299:lvgl\src\lv_misc/lv_txt.c ****     /* If max_width doesn't mater simply find the new line character
 300:lvgl\src\lv_misc/lv_txt.c ****      * without thinking about word wrapping*/
 301:lvgl\src\lv_misc/lv_txt.c ****     if((flag & LV_TXT_FLAG_EXPAND) || (flag & LV_TXT_FLAG_FIT)) {
 302:lvgl\src\lv_misc/lv_txt.c ****         uint32_t i;
 303:lvgl\src\lv_misc/lv_txt.c ****         for(i = 0; txt[i] != '\n' && txt[i] != '\r' && txt[i] != '\0'; i++) {
 304:lvgl\src\lv_misc/lv_txt.c ****             /*Just find the new line chars or string ends by incrementing `i`*/
 305:lvgl\src\lv_misc/lv_txt.c ****         }
 306:lvgl\src\lv_misc/lv_txt.c ****         if(txt[i] != '\0') i++;    /*To go beyond `\n`*/
 307:lvgl\src\lv_misc/lv_txt.c ****         return i;
 308:lvgl\src\lv_misc/lv_txt.c ****     }
 309:lvgl\src\lv_misc/lv_txt.c **** 
 310:lvgl\src\lv_misc/lv_txt.c ****     if(flag & LV_TXT_FLAG_EXPAND) max_width = LV_COORD_MAX;
 311:lvgl\src\lv_misc/lv_txt.c ****     lv_txt_cmd_state_t cmd_state = LV_TXT_CMD_STATE_WAIT;
 312:lvgl\src\lv_misc/lv_txt.c ****     uint32_t i = 0;                                        /* Iterating index into txt */
 313:lvgl\src\lv_misc/lv_txt.c **** 
 314:lvgl\src\lv_misc/lv_txt.c ****     while(txt[i] != '\0' && max_width > 0) {
 315:lvgl\src\lv_misc/lv_txt.c ****         uint32_t word_w = 0;
 316:lvgl\src\lv_misc/lv_txt.c ****         uint32_t advance = lv_txt_get_next_word(&txt[i], font, letter_space, max_width, flag, &word
ARM GAS  C:\Users\strap\AppData\Local\Temp\ccCgIabb.s 			page 7


 317:lvgl\src\lv_misc/lv_txt.c ****         max_width -= word_w;
 318:lvgl\src\lv_misc/lv_txt.c **** 
 319:lvgl\src\lv_misc/lv_txt.c ****         if(advance == 0) {
 320:lvgl\src\lv_misc/lv_txt.c ****             if(i == 0) _lv_txt_encoded_next(txt, &i); // prevent inf loops
 321:lvgl\src\lv_misc/lv_txt.c ****             break;
 322:lvgl\src\lv_misc/lv_txt.c ****         }
 323:lvgl\src\lv_misc/lv_txt.c **** 
 324:lvgl\src\lv_misc/lv_txt.c ****         i += advance;
 325:lvgl\src\lv_misc/lv_txt.c **** 
 326:lvgl\src\lv_misc/lv_txt.c ****         if(txt[0] == '\n' || txt[0] == '\r') break;
 327:lvgl\src\lv_misc/lv_txt.c **** 
 328:lvgl\src\lv_misc/lv_txt.c ****         if(txt[i] == '\n' || txt[i] == '\r') {
 329:lvgl\src\lv_misc/lv_txt.c ****             i++;  /* Include the following newline in the current line */
 330:lvgl\src\lv_misc/lv_txt.c ****             break;
 331:lvgl\src\lv_misc/lv_txt.c ****         }
 332:lvgl\src\lv_misc/lv_txt.c **** 
 333:lvgl\src\lv_misc/lv_txt.c ****     }
 334:lvgl\src\lv_misc/lv_txt.c **** 
 335:lvgl\src\lv_misc/lv_txt.c ****     /* Always step at least one to avoid infinite loops */
 336:lvgl\src\lv_misc/lv_txt.c ****     if(i == 0) {
 337:lvgl\src\lv_misc/lv_txt.c ****         _lv_txt_encoded_next(txt, &i);
 338:lvgl\src\lv_misc/lv_txt.c ****     }
 339:lvgl\src\lv_misc/lv_txt.c **** 
 340:lvgl\src\lv_misc/lv_txt.c ****     return i;
 341:lvgl\src\lv_misc/lv_txt.c **** }
 342:lvgl\src\lv_misc/lv_txt.c **** 
 343:lvgl\src\lv_misc/lv_txt.c **** /**
 344:lvgl\src\lv_misc/lv_txt.c ****  * Give the length of a text with a given font
 345:lvgl\src\lv_misc/lv_txt.c ****  * @param txt a '\0' terminate string
 346:lvgl\src\lv_misc/lv_txt.c ****  * @param length length of 'txt' in byte count and not characters (Á is 1 character but 2 bytes in
 347:lvgl\src\lv_misc/lv_txt.c ****  * UTF-8)
 348:lvgl\src\lv_misc/lv_txt.c ****  * @param font pointer to a font
 349:lvgl\src\lv_misc/lv_txt.c ****  * @param letter_space letter space
 350:lvgl\src\lv_misc/lv_txt.c ****  * @param flags settings for the text from 'txt_flag_t' enum
 351:lvgl\src\lv_misc/lv_txt.c ****  * @return length of a char_num long text
 352:lvgl\src\lv_misc/lv_txt.c ****  */
 353:lvgl\src\lv_misc/lv_txt.c **** lv_coord_t _lv_txt_get_width(const char * txt, uint32_t length, const lv_font_t * font, lv_coord_t 
 354:lvgl\src\lv_misc/lv_txt.c ****                              lv_txt_flag_t flag)
 355:lvgl\src\lv_misc/lv_txt.c **** {
 356:lvgl\src\lv_misc/lv_txt.c ****     if(txt == NULL) return 0;
 357:lvgl\src\lv_misc/lv_txt.c ****     if(font == NULL) return 0;
 358:lvgl\src\lv_misc/lv_txt.c **** 
 359:lvgl\src\lv_misc/lv_txt.c ****     uint32_t i                   = 0;
 360:lvgl\src\lv_misc/lv_txt.c ****     lv_coord_t width             = 0;
 361:lvgl\src\lv_misc/lv_txt.c ****     lv_txt_cmd_state_t cmd_state = LV_TXT_CMD_STATE_WAIT;
 362:lvgl\src\lv_misc/lv_txt.c **** 
 363:lvgl\src\lv_misc/lv_txt.c ****     if(length != 0) {
 364:lvgl\src\lv_misc/lv_txt.c ****         while(i < length) {
 365:lvgl\src\lv_misc/lv_txt.c ****             uint32_t letter      = _lv_txt_encoded_next(txt, &i);
 366:lvgl\src\lv_misc/lv_txt.c ****             uint32_t letter_next = _lv_txt_encoded_next(&txt[i], NULL);
 367:lvgl\src\lv_misc/lv_txt.c ****             if((flag & LV_TXT_FLAG_RECOLOR) != 0) {
 368:lvgl\src\lv_misc/lv_txt.c ****                 if(_lv_txt_is_cmd(&cmd_state, letter) != false) {
 369:lvgl\src\lv_misc/lv_txt.c ****                     continue;
 370:lvgl\src\lv_misc/lv_txt.c ****                 }
 371:lvgl\src\lv_misc/lv_txt.c ****             }
 372:lvgl\src\lv_misc/lv_txt.c **** 
 373:lvgl\src\lv_misc/lv_txt.c ****             lv_coord_t char_width = lv_font_get_glyph_width(font, letter, letter_next);
ARM GAS  C:\Users\strap\AppData\Local\Temp\ccCgIabb.s 			page 8


 374:lvgl\src\lv_misc/lv_txt.c ****             if(char_width > 0) {
 375:lvgl\src\lv_misc/lv_txt.c ****                 width += char_width;
 376:lvgl\src\lv_misc/lv_txt.c ****                 width += letter_space;
 377:lvgl\src\lv_misc/lv_txt.c ****             }
 378:lvgl\src\lv_misc/lv_txt.c ****         }
 379:lvgl\src\lv_misc/lv_txt.c **** 
 380:lvgl\src\lv_misc/lv_txt.c ****         if(width > 0) {
 381:lvgl\src\lv_misc/lv_txt.c ****             width -= letter_space; /*Trim the last letter space. Important if the text is center
 382:lvgl\src\lv_misc/lv_txt.c ****                                       aligned */
 383:lvgl\src\lv_misc/lv_txt.c ****         }
 384:lvgl\src\lv_misc/lv_txt.c ****     }
 385:lvgl\src\lv_misc/lv_txt.c **** 
 386:lvgl\src\lv_misc/lv_txt.c ****     return width;
 387:lvgl\src\lv_misc/lv_txt.c **** }
 388:lvgl\src\lv_misc/lv_txt.c **** 
 389:lvgl\src\lv_misc/lv_txt.c **** /**
 390:lvgl\src\lv_misc/lv_txt.c ****  * Check next character in a string and decide if the character is part of the command or not
 391:lvgl\src\lv_misc/lv_txt.c ****  * @param state pointer to a txt_cmd_state_t variable which stores the current state of command
 392:lvgl\src\lv_misc/lv_txt.c ****  * processing (Initied. to TXT_CMD_STATE_WAIT )
 393:lvgl\src\lv_misc/lv_txt.c ****  * @param c the current character
 394:lvgl\src\lv_misc/lv_txt.c ****  * @return true: the character is part of a command and should not be written,
 395:lvgl\src\lv_misc/lv_txt.c ****  *         false: the character should be written
 396:lvgl\src\lv_misc/lv_txt.c ****  */
 397:lvgl\src\lv_misc/lv_txt.c **** bool _lv_txt_is_cmd(lv_txt_cmd_state_t * state, uint32_t c)
 398:lvgl\src\lv_misc/lv_txt.c **** {
 399:lvgl\src\lv_misc/lv_txt.c ****     bool ret = false;
 400:lvgl\src\lv_misc/lv_txt.c **** 
 401:lvgl\src\lv_misc/lv_txt.c ****     if(c == (uint32_t)LV_TXT_COLOR_CMD[0]) {
 402:lvgl\src\lv_misc/lv_txt.c ****         if(*state == LV_TXT_CMD_STATE_WAIT) { /*Start char*/
 403:lvgl\src\lv_misc/lv_txt.c ****             *state = LV_TXT_CMD_STATE_PAR;
 404:lvgl\src\lv_misc/lv_txt.c ****             ret    = true;
 405:lvgl\src\lv_misc/lv_txt.c ****         }
 406:lvgl\src\lv_misc/lv_txt.c ****         /*Other start char in parameter is escaped cmd. char */
 407:lvgl\src\lv_misc/lv_txt.c ****         else if(*state == LV_TXT_CMD_STATE_PAR) {
 408:lvgl\src\lv_misc/lv_txt.c ****             *state = LV_TXT_CMD_STATE_WAIT;
 409:lvgl\src\lv_misc/lv_txt.c ****         }
 410:lvgl\src\lv_misc/lv_txt.c ****         /*Command end */
 411:lvgl\src\lv_misc/lv_txt.c ****         else if(*state == LV_TXT_CMD_STATE_IN) {
 412:lvgl\src\lv_misc/lv_txt.c ****             *state = LV_TXT_CMD_STATE_WAIT;
 413:lvgl\src\lv_misc/lv_txt.c ****             ret    = true;
 414:lvgl\src\lv_misc/lv_txt.c ****         }
 415:lvgl\src\lv_misc/lv_txt.c ****     }
 416:lvgl\src\lv_misc/lv_txt.c **** 
 417:lvgl\src\lv_misc/lv_txt.c ****     /*Skip the color parameter and wait the space after it*/
 418:lvgl\src\lv_misc/lv_txt.c ****     if(*state == LV_TXT_CMD_STATE_PAR) {
 419:lvgl\src\lv_misc/lv_txt.c ****         if(c == ' ') {
 420:lvgl\src\lv_misc/lv_txt.c ****             *state = LV_TXT_CMD_STATE_IN; /*After the parameter the text is in the command*/
 421:lvgl\src\lv_misc/lv_txt.c ****         }
 422:lvgl\src\lv_misc/lv_txt.c ****         ret = true;
 423:lvgl\src\lv_misc/lv_txt.c ****     }
 424:lvgl\src\lv_misc/lv_txt.c **** 
 425:lvgl\src\lv_misc/lv_txt.c ****     return ret;
 426:lvgl\src\lv_misc/lv_txt.c **** }
 427:lvgl\src\lv_misc/lv_txt.c **** 
 428:lvgl\src\lv_misc/lv_txt.c **** /**
 429:lvgl\src\lv_misc/lv_txt.c ****  * Insert a string into an other
 430:lvgl\src\lv_misc/lv_txt.c ****  * @param txt_buf the original text (must be big enough for the result text)
ARM GAS  C:\Users\strap\AppData\Local\Temp\ccCgIabb.s 			page 9


 431:lvgl\src\lv_misc/lv_txt.c ****  * @param pos position to insert. Expressed in character index and not byte index (Different in
 432:lvgl\src\lv_misc/lv_txt.c ****  * UTF-8) 0: before the original text, 1: after the first char etc.
 433:lvgl\src\lv_misc/lv_txt.c ****  * @param ins_txt text to insert
 434:lvgl\src\lv_misc/lv_txt.c ****  */
 435:lvgl\src\lv_misc/lv_txt.c **** void _lv_txt_ins(char * txt_buf, uint32_t pos, const char * ins_txt)
 436:lvgl\src\lv_misc/lv_txt.c **** {
 437:lvgl\src\lv_misc/lv_txt.c ****     size_t old_len = strlen(txt_buf);
 438:lvgl\src\lv_misc/lv_txt.c ****     size_t ins_len = strlen(ins_txt);
 439:lvgl\src\lv_misc/lv_txt.c ****     if(ins_len == 0) return;
 440:lvgl\src\lv_misc/lv_txt.c **** 
 441:lvgl\src\lv_misc/lv_txt.c ****     size_t new_len = ins_len + old_len;
 442:lvgl\src\lv_misc/lv_txt.c ****     pos              = _lv_txt_encoded_get_byte_id(txt_buf, pos); /*Convert to byte index instead o
 443:lvgl\src\lv_misc/lv_txt.c **** 
 444:lvgl\src\lv_misc/lv_txt.c ****     /*Copy the second part into the end to make place to text to insert*/
 445:lvgl\src\lv_misc/lv_txt.c ****     size_t i;
 446:lvgl\src\lv_misc/lv_txt.c ****     for(i = new_len; i >= pos + ins_len; i--) {
 447:lvgl\src\lv_misc/lv_txt.c ****         txt_buf[i] = txt_buf[i - ins_len];
 448:lvgl\src\lv_misc/lv_txt.c ****     }
 449:lvgl\src\lv_misc/lv_txt.c **** 
 450:lvgl\src\lv_misc/lv_txt.c ****     /* Copy the text into the new space*/
 451:lvgl\src\lv_misc/lv_txt.c ****     _lv_memcpy_small(txt_buf + pos, ins_txt, ins_len);
 452:lvgl\src\lv_misc/lv_txt.c **** }
 453:lvgl\src\lv_misc/lv_txt.c **** 
 454:lvgl\src\lv_misc/lv_txt.c **** /**
 455:lvgl\src\lv_misc/lv_txt.c ****  * Delete a part of a string
 456:lvgl\src\lv_misc/lv_txt.c ****  * @param txt string to modify
 457:lvgl\src\lv_misc/lv_txt.c ****  * @param pos position where to start the deleting (0: before the first char, 1: after the first
 458:lvgl\src\lv_misc/lv_txt.c ****  * char etc.)
 459:lvgl\src\lv_misc/lv_txt.c ****  * @param len number of characters to delete
 460:lvgl\src\lv_misc/lv_txt.c ****  */
 461:lvgl\src\lv_misc/lv_txt.c **** void _lv_txt_cut(char * txt, uint32_t pos, uint32_t len)
 462:lvgl\src\lv_misc/lv_txt.c **** {
 463:lvgl\src\lv_misc/lv_txt.c **** 
 464:lvgl\src\lv_misc/lv_txt.c ****     size_t old_len = strlen(txt);
 465:lvgl\src\lv_misc/lv_txt.c **** 
 466:lvgl\src\lv_misc/lv_txt.c ****     pos = _lv_txt_encoded_get_byte_id(txt, pos); /*Convert to byte index instead of letter index*/
 467:lvgl\src\lv_misc/lv_txt.c ****     len = _lv_txt_encoded_get_byte_id(&txt[pos], len);
 468:lvgl\src\lv_misc/lv_txt.c **** 
 469:lvgl\src\lv_misc/lv_txt.c ****     /*Copy the second part into the end to make place to text to insert*/
 470:lvgl\src\lv_misc/lv_txt.c ****     uint32_t i;
 471:lvgl\src\lv_misc/lv_txt.c ****     for(i = pos; i <= old_len - len; i++) {
 472:lvgl\src\lv_misc/lv_txt.c ****         txt[i] = txt[i + len];
 473:lvgl\src\lv_misc/lv_txt.c ****     }
 474:lvgl\src\lv_misc/lv_txt.c **** }
 475:lvgl\src\lv_misc/lv_txt.c **** 
 476:lvgl\src\lv_misc/lv_txt.c **** #if LV_TXT_ENC == LV_TXT_ENC_UTF8
 477:lvgl\src\lv_misc/lv_txt.c **** /*******************************
 478:lvgl\src\lv_misc/lv_txt.c ****  *   UTF-8 ENCODER/DECOER
 479:lvgl\src\lv_misc/lv_txt.c ****  ******************************/
 480:lvgl\src\lv_misc/lv_txt.c **** 
 481:lvgl\src\lv_misc/lv_txt.c **** /**
 482:lvgl\src\lv_misc/lv_txt.c ****  * Give the size of an UTF-8 coded character
 483:lvgl\src\lv_misc/lv_txt.c ****  * @param str pointer to a character in a string
 484:lvgl\src\lv_misc/lv_txt.c ****  * @return length of the UTF-8 character (1,2,3 or 4). O on invalid code
 485:lvgl\src\lv_misc/lv_txt.c ****  */
 486:lvgl\src\lv_misc/lv_txt.c **** static uint8_t lv_txt_utf8_size(const char * str)
 487:lvgl\src\lv_misc/lv_txt.c **** {
ARM GAS  C:\Users\strap\AppData\Local\Temp\ccCgIabb.s 			page 10


  27              		.loc 1 487 0
  28              		.cfi_startproc
  29              		@ args = 0, pretend = 0, frame = 0
  30              		@ frame_needed = 0, uses_anonymous_args = 0
  31              		@ link register save eliminated.
  32              	.LVL0:
 488:lvgl\src\lv_misc/lv_txt.c ****     if((str[0] & 0x80) == 0)
  33              		.loc 1 488 0
  34 0000 0378     		ldrb	r3, [r0]	@ zero_extendqisi2
  35 0002 13F0800F 		tst	r3, #128
  36 0006 0DD0     		beq	.L3
 489:lvgl\src\lv_misc/lv_txt.c ****         return 1;
 490:lvgl\src\lv_misc/lv_txt.c ****     else if((str[0] & 0xE0) == 0xC0)
  37              		.loc 1 490 0
  38 0008 03F0E002 		and	r2, r3, #224
  39 000c C02A     		cmp	r2, #192
  40 000e 0BD0     		beq	.L4
 491:lvgl\src\lv_misc/lv_txt.c ****         return 2;
 492:lvgl\src\lv_misc/lv_txt.c ****     else if((str[0] & 0xF0) == 0xE0)
  41              		.loc 1 492 0
  42 0010 03F0F002 		and	r2, r3, #240
  43 0014 E02A     		cmp	r2, #224
  44 0016 09D0     		beq	.L5
 493:lvgl\src\lv_misc/lv_txt.c ****         return 3;
 494:lvgl\src\lv_misc/lv_txt.c ****     else if((str[0] & 0xF8) == 0xF0)
  45              		.loc 1 494 0
  46 0018 03F0F803 		and	r3, r3, #248
  47 001c F02B     		cmp	r3, #240
  48 001e 07D1     		bne	.L6
 495:lvgl\src\lv_misc/lv_txt.c ****         return 4;
  49              		.loc 1 495 0
  50 0020 0420     		movs	r0, #4
  51              	.LVL1:
  52 0022 7047     		bx	lr
  53              	.LVL2:
  54              	.L3:
 489:lvgl\src\lv_misc/lv_txt.c ****     else if((str[0] & 0xE0) == 0xC0)
  55              		.loc 1 489 0
  56 0024 0120     		movs	r0, #1
  57              	.LVL3:
  58 0026 7047     		bx	lr
  59              	.LVL4:
  60              	.L4:
 491:lvgl\src\lv_misc/lv_txt.c ****     else if((str[0] & 0xF0) == 0xE0)
  61              		.loc 1 491 0
  62 0028 0220     		movs	r0, #2
  63              	.LVL5:
  64 002a 7047     		bx	lr
  65              	.LVL6:
  66              	.L5:
 493:lvgl\src\lv_misc/lv_txt.c ****     else if((str[0] & 0xF8) == 0xF0)
  67              		.loc 1 493 0
  68 002c 0320     		movs	r0, #3
  69              	.LVL7:
  70 002e 7047     		bx	lr
  71              	.LVL8:
  72              	.L6:
ARM GAS  C:\Users\strap\AppData\Local\Temp\ccCgIabb.s 			page 11


 496:lvgl\src\lv_misc/lv_txt.c ****     return 0; /*If the char was invalid tell it's 1 byte long*/
  73              		.loc 1 496 0
  74 0030 0020     		movs	r0, #0
  75              	.LVL9:
 497:lvgl\src\lv_misc/lv_txt.c **** }
  76              		.loc 1 497 0
  77 0032 7047     		bx	lr
  78              		.cfi_endproc
  79              	.LFE12:
  80              		.size	lv_txt_utf8_size, .-lv_txt_utf8_size
  81              		.section	.text.lv_txt_unicode_to_utf8,"ax",%progbits
  82              		.align	2
  83              		.thumb
  84              		.thumb_func
  85              		.type	lv_txt_unicode_to_utf8, %function
  86              	lv_txt_unicode_to_utf8:
  87              	.LFB13:
 498:lvgl\src\lv_misc/lv_txt.c **** 
 499:lvgl\src\lv_misc/lv_txt.c **** /**
 500:lvgl\src\lv_misc/lv_txt.c ****  * Convert an Unicode letter to UTF-8.
 501:lvgl\src\lv_misc/lv_txt.c ****  * @param letter_uni an Unicode letter
 502:lvgl\src\lv_misc/lv_txt.c ****  * @return UTF-8 coded character in Little Endian to be compatible with C chars (e.g. 'Á', 'Ű')
 503:lvgl\src\lv_misc/lv_txt.c ****  */
 504:lvgl\src\lv_misc/lv_txt.c **** static uint32_t lv_txt_unicode_to_utf8(uint32_t letter_uni)
 505:lvgl\src\lv_misc/lv_txt.c **** {
  88              		.loc 1 505 0
  89              		.cfi_startproc
  90              		@ args = 0, pretend = 0, frame = 8
  91              		@ frame_needed = 0, uses_anonymous_args = 0
  92              		@ link register save eliminated.
  93              	.LVL10:
 506:lvgl\src\lv_misc/lv_txt.c ****     if(letter_uni < 128) return letter_uni;
  94              		.loc 1 506 0
  95 0000 7F28     		cmp	r0, #127
  96 0002 4BD9     		bls	.L15
 505:lvgl\src\lv_misc/lv_txt.c ****     if(letter_uni < 128) return letter_uni;
  97              		.loc 1 505 0
  98 0004 82B0     		sub	sp, sp, #8
  99              		.cfi_def_cfa_offset 8
 507:lvgl\src\lv_misc/lv_txt.c ****     uint8_t bytes[4];
 508:lvgl\src\lv_misc/lv_txt.c **** 
 509:lvgl\src\lv_misc/lv_txt.c ****     if(letter_uni < 0x0800) {
 100              		.loc 1 509 0
 101 0006 B0F5006F 		cmp	r0, #2048
 102 000a 11D2     		bcs	.L9
 510:lvgl\src\lv_misc/lv_txt.c ****         bytes[0] = ((letter_uni >> 6) & 0x1F) | 0xC0;
 103              		.loc 1 510 0
 104 000c C0F38413 		ubfx	r3, r0, #6, #5
 105 0010 63F03F03 		orn	r3, r3, #63
 106 0014 8DF80430 		strb	r3, [sp, #4]
 511:lvgl\src\lv_misc/lv_txt.c ****         bytes[1] = ((letter_uni >> 0) & 0x3F) | 0x80;
 107              		.loc 1 511 0
 108 0018 00F03F00 		and	r0, r0, #63
 109              	.LVL11:
 110 001c 60F07F00 		orn	r0, r0, #127
 111 0020 8DF80500 		strb	r0, [sp, #5]
 512:lvgl\src\lv_misc/lv_txt.c ****         bytes[2] = 0;
ARM GAS  C:\Users\strap\AppData\Local\Temp\ccCgIabb.s 			page 12


 112              		.loc 1 512 0
 113 0024 0023     		movs	r3, #0
 114 0026 8DF80630 		strb	r3, [sp, #6]
 513:lvgl\src\lv_misc/lv_txt.c ****         bytes[3] = 0;
 115              		.loc 1 513 0
 116 002a 8DF80730 		strb	r3, [sp, #7]
 117 002e 33E0     		b	.L10
 118              	.LVL12:
 119              	.L9:
 514:lvgl\src\lv_misc/lv_txt.c ****     }
 515:lvgl\src\lv_misc/lv_txt.c ****     else if(letter_uni < 0x010000) {
 120              		.loc 1 515 0
 121 0030 B0F5803F 		cmp	r0, #65536
 122 0034 15D2     		bcs	.L11
 516:lvgl\src\lv_misc/lv_txt.c ****         bytes[0] = ((letter_uni >> 12) & 0x0F) | 0xE0;
 123              		.loc 1 516 0
 124 0036 C0F30333 		ubfx	r3, r0, #12, #4
 125 003a 63F01F03 		orn	r3, r3, #31
 126 003e 8DF80430 		strb	r3, [sp, #4]
 517:lvgl\src\lv_misc/lv_txt.c ****         bytes[1] = ((letter_uni >> 6) & 0x3F) | 0x80;
 127              		.loc 1 517 0
 128 0042 C0F38513 		ubfx	r3, r0, #6, #6
 129 0046 63F07F03 		orn	r3, r3, #127
 130 004a 8DF80530 		strb	r3, [sp, #5]
 518:lvgl\src\lv_misc/lv_txt.c ****         bytes[2] = ((letter_uni >> 0) & 0x3F) | 0x80;
 131              		.loc 1 518 0
 132 004e 00F03F00 		and	r0, r0, #63
 133              	.LVL13:
 134 0052 60F07F00 		orn	r0, r0, #127
 135 0056 8DF80600 		strb	r0, [sp, #6]
 519:lvgl\src\lv_misc/lv_txt.c ****         bytes[3] = 0;
 136              		.loc 1 519 0
 137 005a 0023     		movs	r3, #0
 138 005c 8DF80730 		strb	r3, [sp, #7]
 139 0060 1AE0     		b	.L10
 140              	.LVL14:
 141              	.L11:
 520:lvgl\src\lv_misc/lv_txt.c ****     }
 521:lvgl\src\lv_misc/lv_txt.c ****     else if(letter_uni < 0x110000) {
 142              		.loc 1 521 0
 143 0062 B0F5881F 		cmp	r0, #1114112
 144 0066 17D2     		bcs	.L10
 522:lvgl\src\lv_misc/lv_txt.c ****         bytes[0] = ((letter_uni >> 18) & 0x07) | 0xF0;
 145              		.loc 1 522 0
 146 0068 C0F38243 		ubfx	r3, r0, #18, #3
 147 006c 63F00F03 		orn	r3, r3, #15
 148 0070 8DF80430 		strb	r3, [sp, #4]
 523:lvgl\src\lv_misc/lv_txt.c ****         bytes[1] = ((letter_uni >> 12) & 0x3F) | 0x80;
 149              		.loc 1 523 0
 150 0074 C0F30533 		ubfx	r3, r0, #12, #6
 151 0078 63F07F03 		orn	r3, r3, #127
 152 007c 8DF80530 		strb	r3, [sp, #5]
 524:lvgl\src\lv_misc/lv_txt.c ****         bytes[2] = ((letter_uni >> 6) & 0x3F) | 0x80;
 153              		.loc 1 524 0
 154 0080 C0F38513 		ubfx	r3, r0, #6, #6
 155 0084 63F07F03 		orn	r3, r3, #127
 156 0088 8DF80630 		strb	r3, [sp, #6]
ARM GAS  C:\Users\strap\AppData\Local\Temp\ccCgIabb.s 			page 13


 525:lvgl\src\lv_misc/lv_txt.c ****         bytes[3] = ((letter_uni >> 0) & 0x3F) | 0x80;
 157              		.loc 1 525 0
 158 008c 00F03F00 		and	r0, r0, #63
 159              	.LVL15:
 160 0090 60F07F00 		orn	r0, r0, #127
 161 0094 8DF80700 		strb	r0, [sp, #7]
 162              	.L10:
 163              	.LVL16:
 526:lvgl\src\lv_misc/lv_txt.c ****     }
 527:lvgl\src\lv_misc/lv_txt.c **** 
 528:lvgl\src\lv_misc/lv_txt.c ****     uint32_t * res_p = (uint32_t *)bytes;
 529:lvgl\src\lv_misc/lv_txt.c ****     return *res_p;
 164              		.loc 1 529 0
 165 0098 0198     		ldr	r0, [sp, #4]
 530:lvgl\src\lv_misc/lv_txt.c **** }
 166              		.loc 1 530 0
 167 009a 02B0     		add	sp, sp, #8
 168              		.cfi_def_cfa_offset 0
 169              	.LVL17:
 170              		@ sp needed
 171              	.LVL18:
 172              	.L15:
 173 009c 7047     		bx	lr
 174              		.cfi_endproc
 175              	.LFE13:
 176              		.size	lv_txt_unicode_to_utf8, .-lv_txt_unicode_to_utf8
 177 009e 00BF     		.section	.text.lv_txt_utf8_conv_wc,"ax",%progbits
 178              		.align	2
 179              		.thumb
 180              		.thumb_func
 181              		.type	lv_txt_utf8_conv_wc, %function
 182              	lv_txt_utf8_conv_wc:
 183              	.LFB14:
 531:lvgl\src\lv_misc/lv_txt.c **** 
 532:lvgl\src\lv_misc/lv_txt.c **** /**
 533:lvgl\src\lv_misc/lv_txt.c ****  * Convert a wide character, e.g. 'Á' little endian to be UTF-8 compatible
 534:lvgl\src\lv_misc/lv_txt.c ****  * @param c a wide character or a  Little endian number
 535:lvgl\src\lv_misc/lv_txt.c ****  * @return `c` in big endian
 536:lvgl\src\lv_misc/lv_txt.c ****  */
 537:lvgl\src\lv_misc/lv_txt.c **** static uint32_t lv_txt_utf8_conv_wc(uint32_t c)
 538:lvgl\src\lv_misc/lv_txt.c **** {
 184              		.loc 1 538 0
 185              		.cfi_startproc
 186              		@ args = 0, pretend = 0, frame = 16
 187              		@ frame_needed = 0, uses_anonymous_args = 0
 188              		@ link register save eliminated.
 189              	.LVL19:
 190 0000 84B0     		sub	sp, sp, #16
 191              		.cfi_def_cfa_offset 16
 192 0002 0190     		str	r0, [sp, #4]
 539:lvgl\src\lv_misc/lv_txt.c **** #if LV_BIG_ENDIAN_SYSTEM == 0
 540:lvgl\src\lv_misc/lv_txt.c ****     /*Swap the bytes (UTF-8 is big endian, but the MCUs are little endian)*/
 541:lvgl\src\lv_misc/lv_txt.c ****     if((c & 0x80) != 0) {
 193              		.loc 1 541 0
 194 0004 10F0800F 		tst	r0, #128
 195 0008 06D1     		bne	.L23
 196 000a 23E0     		b	.L18
ARM GAS  C:\Users\strap\AppData\Local\Temp\ccCgIabb.s 			page 14


 197              	.LVL20:
 198              	.L19:
 199              	.LBB12:
 200              	.LBB13:
 201              	.LBB14:
 202              		.file 2 "lvgl\\src\\lv_misc\\lv_mem.h"
   1:lvgl\src\lv_misc/lv_mem.h **** /**
   2:lvgl\src\lv_misc/lv_mem.h ****  * @file lv_mem.h
   3:lvgl\src\lv_misc/lv_mem.h ****  *
   4:lvgl\src\lv_misc/lv_mem.h ****  */
   5:lvgl\src\lv_misc/lv_mem.h **** 
   6:lvgl\src\lv_misc/lv_mem.h **** #ifndef LV_MEM_H
   7:lvgl\src\lv_misc/lv_mem.h **** #define LV_MEM_H
   8:lvgl\src\lv_misc/lv_mem.h **** 
   9:lvgl\src\lv_misc/lv_mem.h **** #ifdef __cplusplus
  10:lvgl\src\lv_misc/lv_mem.h **** extern "C" {
  11:lvgl\src\lv_misc/lv_mem.h **** #endif
  12:lvgl\src\lv_misc/lv_mem.h **** 
  13:lvgl\src\lv_misc/lv_mem.h **** /*********************
  14:lvgl\src\lv_misc/lv_mem.h ****  *      INCLUDES
  15:lvgl\src\lv_misc/lv_mem.h ****  *********************/
  16:lvgl\src\lv_misc/lv_mem.h **** #include "../lv_conf_internal.h"
  17:lvgl\src\lv_misc/lv_mem.h **** 
  18:lvgl\src\lv_misc/lv_mem.h **** #include <stdint.h>
  19:lvgl\src\lv_misc/lv_mem.h **** #include <stddef.h>
  20:lvgl\src\lv_misc/lv_mem.h **** #include "lv_log.h"
  21:lvgl\src\lv_misc/lv_mem.h **** #include "lv_types.h"
  22:lvgl\src\lv_misc/lv_mem.h **** 
  23:lvgl\src\lv_misc/lv_mem.h **** #if LV_MEMCPY_MEMSET_STD
  24:lvgl\src\lv_misc/lv_mem.h **** #include <string.h>
  25:lvgl\src\lv_misc/lv_mem.h **** #endif
  26:lvgl\src\lv_misc/lv_mem.h **** 
  27:lvgl\src\lv_misc/lv_mem.h **** /*********************
  28:lvgl\src\lv_misc/lv_mem.h ****  *      DEFINES
  29:lvgl\src\lv_misc/lv_mem.h ****  *********************/
  30:lvgl\src\lv_misc/lv_mem.h **** 
  31:lvgl\src\lv_misc/lv_mem.h **** #ifndef LV_MEM_BUF_MAX_NUM
  32:lvgl\src\lv_misc/lv_mem.h **** #define LV_MEM_BUF_MAX_NUM    16
  33:lvgl\src\lv_misc/lv_mem.h **** #endif
  34:lvgl\src\lv_misc/lv_mem.h **** 
  35:lvgl\src\lv_misc/lv_mem.h **** /**********************
  36:lvgl\src\lv_misc/lv_mem.h ****  *      TYPEDEFS
  37:lvgl\src\lv_misc/lv_mem.h ****  **********************/
  38:lvgl\src\lv_misc/lv_mem.h **** 
  39:lvgl\src\lv_misc/lv_mem.h **** /**
  40:lvgl\src\lv_misc/lv_mem.h ****  * Heap information structure.
  41:lvgl\src\lv_misc/lv_mem.h ****  */
  42:lvgl\src\lv_misc/lv_mem.h **** typedef struct {
  43:lvgl\src\lv_misc/lv_mem.h ****     uint32_t total_size; /**< Total heap size */
  44:lvgl\src\lv_misc/lv_mem.h ****     uint32_t free_cnt;
  45:lvgl\src\lv_misc/lv_mem.h ****     uint32_t free_size; /**< Size of available memory */
  46:lvgl\src\lv_misc/lv_mem.h ****     uint32_t free_biggest_size;
  47:lvgl\src\lv_misc/lv_mem.h ****     uint32_t used_cnt;
  48:lvgl\src\lv_misc/lv_mem.h ****     uint32_t max_used; /**< Max size of Heap memory used */
  49:lvgl\src\lv_misc/lv_mem.h ****     uint8_t used_pct; /**< Percentage used */
  50:lvgl\src\lv_misc/lv_mem.h ****     uint8_t frag_pct; /**< Amount of fragmentation */
  51:lvgl\src\lv_misc/lv_mem.h **** } lv_mem_monitor_t;
ARM GAS  C:\Users\strap\AppData\Local\Temp\ccCgIabb.s 			page 15


  52:lvgl\src\lv_misc/lv_mem.h **** 
  53:lvgl\src\lv_misc/lv_mem.h **** typedef struct {
  54:lvgl\src\lv_misc/lv_mem.h ****     void * p;
  55:lvgl\src\lv_misc/lv_mem.h ****     uint16_t size;
  56:lvgl\src\lv_misc/lv_mem.h ****     uint8_t used    : 1;
  57:lvgl\src\lv_misc/lv_mem.h **** } lv_mem_buf_t;
  58:lvgl\src\lv_misc/lv_mem.h **** 
  59:lvgl\src\lv_misc/lv_mem.h **** typedef lv_mem_buf_t lv_mem_buf_arr_t[LV_MEM_BUF_MAX_NUM];
  60:lvgl\src\lv_misc/lv_mem.h **** extern lv_mem_buf_arr_t _lv_mem_buf;
  61:lvgl\src\lv_misc/lv_mem.h **** 
  62:lvgl\src\lv_misc/lv_mem.h **** /**********************
  63:lvgl\src\lv_misc/lv_mem.h ****  * GLOBAL PROTOTYPES
  64:lvgl\src\lv_misc/lv_mem.h ****  **********************/
  65:lvgl\src\lv_misc/lv_mem.h **** 
  66:lvgl\src\lv_misc/lv_mem.h **** /**
  67:lvgl\src\lv_misc/lv_mem.h ****  * Initialize the dyn_mem module (work memory and other variables)
  68:lvgl\src\lv_misc/lv_mem.h ****  */
  69:lvgl\src\lv_misc/lv_mem.h **** void _lv_mem_init(void);
  70:lvgl\src\lv_misc/lv_mem.h **** 
  71:lvgl\src\lv_misc/lv_mem.h **** /**
  72:lvgl\src\lv_misc/lv_mem.h ****  * Clean up the memory buffer which frees all the allocated memories.
  73:lvgl\src\lv_misc/lv_mem.h ****  * @note It work only if `LV_MEM_CUSTOM == 0`
  74:lvgl\src\lv_misc/lv_mem.h ****  */
  75:lvgl\src\lv_misc/lv_mem.h **** void _lv_mem_deinit(void);
  76:lvgl\src\lv_misc/lv_mem.h **** 
  77:lvgl\src\lv_misc/lv_mem.h **** /**
  78:lvgl\src\lv_misc/lv_mem.h ****  * Allocate a memory dynamically
  79:lvgl\src\lv_misc/lv_mem.h ****  * @param size size of the memory to allocate in bytes
  80:lvgl\src\lv_misc/lv_mem.h ****  * @return pointer to the allocated memory
  81:lvgl\src\lv_misc/lv_mem.h ****  */
  82:lvgl\src\lv_misc/lv_mem.h **** void * lv_mem_alloc(size_t size);
  83:lvgl\src\lv_misc/lv_mem.h **** 
  84:lvgl\src\lv_misc/lv_mem.h **** /**
  85:lvgl\src\lv_misc/lv_mem.h ****  * Free an allocated data
  86:lvgl\src\lv_misc/lv_mem.h ****  * @param data pointer to an allocated memory
  87:lvgl\src\lv_misc/lv_mem.h ****  */
  88:lvgl\src\lv_misc/lv_mem.h **** void lv_mem_free(const void * data);
  89:lvgl\src\lv_misc/lv_mem.h **** 
  90:lvgl\src\lv_misc/lv_mem.h **** /**
  91:lvgl\src\lv_misc/lv_mem.h ****  * Reallocate a memory with a new size. The old content will be kept.
  92:lvgl\src\lv_misc/lv_mem.h ****  * @param data pointer to an allocated memory.
  93:lvgl\src\lv_misc/lv_mem.h ****  * Its content will be copied to the new memory block and freed
  94:lvgl\src\lv_misc/lv_mem.h ****  * @param new_size the desired new size in byte
  95:lvgl\src\lv_misc/lv_mem.h ****  * @return pointer to the new memory
  96:lvgl\src\lv_misc/lv_mem.h ****  */
  97:lvgl\src\lv_misc/lv_mem.h **** void * lv_mem_realloc(void * data_p, size_t new_size);
  98:lvgl\src\lv_misc/lv_mem.h **** 
  99:lvgl\src\lv_misc/lv_mem.h **** /**
 100:lvgl\src\lv_misc/lv_mem.h ****  * Join the adjacent free memory blocks
 101:lvgl\src\lv_misc/lv_mem.h ****  */
 102:lvgl\src\lv_misc/lv_mem.h **** void lv_mem_defrag(void);
 103:lvgl\src\lv_misc/lv_mem.h **** 
 104:lvgl\src\lv_misc/lv_mem.h **** /**
 105:lvgl\src\lv_misc/lv_mem.h ****  *
 106:lvgl\src\lv_misc/lv_mem.h ****  * @return
 107:lvgl\src\lv_misc/lv_mem.h ****  */
 108:lvgl\src\lv_misc/lv_mem.h **** lv_res_t lv_mem_test(void);
ARM GAS  C:\Users\strap\AppData\Local\Temp\ccCgIabb.s 			page 16


 109:lvgl\src\lv_misc/lv_mem.h **** 
 110:lvgl\src\lv_misc/lv_mem.h **** /**
 111:lvgl\src\lv_misc/lv_mem.h ****  * Give information about the work memory of dynamic allocation
 112:lvgl\src\lv_misc/lv_mem.h ****  * @param mon_p pointer to a dm_mon_p variable,
 113:lvgl\src\lv_misc/lv_mem.h ****  *              the result of the analysis will be stored here
 114:lvgl\src\lv_misc/lv_mem.h ****  */
 115:lvgl\src\lv_misc/lv_mem.h **** void lv_mem_monitor(lv_mem_monitor_t * mon_p);
 116:lvgl\src\lv_misc/lv_mem.h **** 
 117:lvgl\src\lv_misc/lv_mem.h **** /**
 118:lvgl\src\lv_misc/lv_mem.h ****  * Give the size of an allocated memory
 119:lvgl\src\lv_misc/lv_mem.h ****  * @param data pointer to an allocated memory
 120:lvgl\src\lv_misc/lv_mem.h ****  * @return the size of data memory in bytes
 121:lvgl\src\lv_misc/lv_mem.h ****  */
 122:lvgl\src\lv_misc/lv_mem.h **** uint32_t _lv_mem_get_size(const void * data);
 123:lvgl\src\lv_misc/lv_mem.h **** 
 124:lvgl\src\lv_misc/lv_mem.h **** /**
 125:lvgl\src\lv_misc/lv_mem.h ****  * Get a temporal buffer with the given size.
 126:lvgl\src\lv_misc/lv_mem.h ****  * @param size the required size
 127:lvgl\src\lv_misc/lv_mem.h ****  */
 128:lvgl\src\lv_misc/lv_mem.h **** void * _lv_mem_buf_get(uint32_t size);
 129:lvgl\src\lv_misc/lv_mem.h **** 
 130:lvgl\src\lv_misc/lv_mem.h **** /**
 131:lvgl\src\lv_misc/lv_mem.h ****  * Release a memory buffer
 132:lvgl\src\lv_misc/lv_mem.h ****  * @param p buffer to release
 133:lvgl\src\lv_misc/lv_mem.h ****  */
 134:lvgl\src\lv_misc/lv_mem.h **** void _lv_mem_buf_release(void * p);
 135:lvgl\src\lv_misc/lv_mem.h **** 
 136:lvgl\src\lv_misc/lv_mem.h **** /**
 137:lvgl\src\lv_misc/lv_mem.h ****  * Free all memory buffers
 138:lvgl\src\lv_misc/lv_mem.h ****  */
 139:lvgl\src\lv_misc/lv_mem.h **** void _lv_mem_buf_free_all(void);
 140:lvgl\src\lv_misc/lv_mem.h **** 
 141:lvgl\src\lv_misc/lv_mem.h **** 
 142:lvgl\src\lv_misc/lv_mem.h **** //! @cond Doxygen_Suppress
 143:lvgl\src\lv_misc/lv_mem.h **** 
 144:lvgl\src\lv_misc/lv_mem.h **** #if LV_MEMCPY_MEMSET_STD
 145:lvgl\src\lv_misc/lv_mem.h **** 
 146:lvgl\src\lv_misc/lv_mem.h **** /**
 147:lvgl\src\lv_misc/lv_mem.h ****  * Wrapper for the standard memcpy
 148:lvgl\src\lv_misc/lv_mem.h ****  * @param dst pointer to the destination buffer
 149:lvgl\src\lv_misc/lv_mem.h ****  * @param src pointer to the source buffer
 150:lvgl\src\lv_misc/lv_mem.h ****  * @param len number of byte to copy
 151:lvgl\src\lv_misc/lv_mem.h ****  */
 152:lvgl\src\lv_misc/lv_mem.h **** static inline void * _lv_memcpy(void * dst, const void * src, size_t len)
 153:lvgl\src\lv_misc/lv_mem.h **** {
 154:lvgl\src\lv_misc/lv_mem.h ****     return memcpy(dst, src, len);
 155:lvgl\src\lv_misc/lv_mem.h **** }
 156:lvgl\src\lv_misc/lv_mem.h **** 
 157:lvgl\src\lv_misc/lv_mem.h **** /**
 158:lvgl\src\lv_misc/lv_mem.h ****  * Wrapper for the standard memcpy
 159:lvgl\src\lv_misc/lv_mem.h ****  * @param dst pointer to the destination buffer
 160:lvgl\src\lv_misc/lv_mem.h ****  * @param src pointer to the source buffer
 161:lvgl\src\lv_misc/lv_mem.h ****  * @param len number of byte to copy
 162:lvgl\src\lv_misc/lv_mem.h ****  */
 163:lvgl\src\lv_misc/lv_mem.h **** static inline void * _lv_memcpy_small(void * dst, const void * src, size_t len)
 164:lvgl\src\lv_misc/lv_mem.h **** {
 165:lvgl\src\lv_misc/lv_mem.h ****     return memcpy(dst, src, len);
ARM GAS  C:\Users\strap\AppData\Local\Temp\ccCgIabb.s 			page 17


 166:lvgl\src\lv_misc/lv_mem.h **** }
 167:lvgl\src\lv_misc/lv_mem.h **** 
 168:lvgl\src\lv_misc/lv_mem.h **** /**
 169:lvgl\src\lv_misc/lv_mem.h ****  * Wrapper for the standard memset
 170:lvgl\src\lv_misc/lv_mem.h ****  * @param dst pointer to the destination buffer
 171:lvgl\src\lv_misc/lv_mem.h ****  * @param v value to set [0..255]
 172:lvgl\src\lv_misc/lv_mem.h ****  * @param len number of byte to set
 173:lvgl\src\lv_misc/lv_mem.h ****  */
 174:lvgl\src\lv_misc/lv_mem.h **** static inline void _lv_memset(void * dst, uint8_t v, size_t len)
 175:lvgl\src\lv_misc/lv_mem.h **** {
 176:lvgl\src\lv_misc/lv_mem.h ****     memset(dst, v, len);
 177:lvgl\src\lv_misc/lv_mem.h **** }
 178:lvgl\src\lv_misc/lv_mem.h **** 
 179:lvgl\src\lv_misc/lv_mem.h **** /**
 180:lvgl\src\lv_misc/lv_mem.h ****  * Wrapper for the standard memset with fixed 0x00 value
 181:lvgl\src\lv_misc/lv_mem.h ****  * @param dst pointer to the destination buffer
 182:lvgl\src\lv_misc/lv_mem.h ****  * @param len number of byte to set
 183:lvgl\src\lv_misc/lv_mem.h ****  */
 184:lvgl\src\lv_misc/lv_mem.h **** static inline void _lv_memset_00(void * dst, size_t len)
 185:lvgl\src\lv_misc/lv_mem.h **** {
 186:lvgl\src\lv_misc/lv_mem.h ****     memset(dst, 0x00, len);
 187:lvgl\src\lv_misc/lv_mem.h **** }
 188:lvgl\src\lv_misc/lv_mem.h **** 
 189:lvgl\src\lv_misc/lv_mem.h **** /**
 190:lvgl\src\lv_misc/lv_mem.h ****  * Wrapper for the standard memset with fixed 0xFF value
 191:lvgl\src\lv_misc/lv_mem.h ****  * @param dst pointer to the destination buffer
 192:lvgl\src\lv_misc/lv_mem.h ****  * @param len number of byte to set
 193:lvgl\src\lv_misc/lv_mem.h ****  */
 194:lvgl\src\lv_misc/lv_mem.h **** static inline void _lv_memset_ff(void * dst, size_t len)
 195:lvgl\src\lv_misc/lv_mem.h **** {
 196:lvgl\src\lv_misc/lv_mem.h ****     memset(dst, 0xFF, len);
 197:lvgl\src\lv_misc/lv_mem.h **** }
 198:lvgl\src\lv_misc/lv_mem.h **** 
 199:lvgl\src\lv_misc/lv_mem.h **** #else
 200:lvgl\src\lv_misc/lv_mem.h **** /**
 201:lvgl\src\lv_misc/lv_mem.h ****  * Same as `memcpy` but optimized for 4 byte operation.
 202:lvgl\src\lv_misc/lv_mem.h ****  * @param dst pointer to the destination buffer
 203:lvgl\src\lv_misc/lv_mem.h ****  * @param src pointer to the source buffer
 204:lvgl\src\lv_misc/lv_mem.h ****  * @param len number of byte to copy
 205:lvgl\src\lv_misc/lv_mem.h ****  */
 206:lvgl\src\lv_misc/lv_mem.h **** LV_ATTRIBUTE_FAST_MEM void * _lv_memcpy(void * dst, const void * src, size_t len);
 207:lvgl\src\lv_misc/lv_mem.h **** 
 208:lvgl\src\lv_misc/lv_mem.h **** /**
 209:lvgl\src\lv_misc/lv_mem.h ****  * Same as `memcpy` but optimized to copy only a few bytes.
 210:lvgl\src\lv_misc/lv_mem.h ****  * @param dst pointer to the destination buffer
 211:lvgl\src\lv_misc/lv_mem.h ****  * @param src pointer to the source buffer
 212:lvgl\src\lv_misc/lv_mem.h ****  * @param len number of byte to copy
 213:lvgl\src\lv_misc/lv_mem.h ****  */
 214:lvgl\src\lv_misc/lv_mem.h **** LV_ATTRIBUTE_FAST_MEM static inline void * _lv_memcpy_small(void * dst, const void * src, size_t le
 215:lvgl\src\lv_misc/lv_mem.h **** {
 216:lvgl\src\lv_misc/lv_mem.h ****     uint8_t * d8 = (uint8_t *)dst;
 217:lvgl\src\lv_misc/lv_mem.h ****     const uint8_t * s8 = (const uint8_t *)src;
 218:lvgl\src\lv_misc/lv_mem.h **** 
 219:lvgl\src\lv_misc/lv_mem.h ****     while(len) {
 220:lvgl\src\lv_misc/lv_mem.h ****         *d8 = *s8;
 203              		.loc 2 220 0
 204 000c 11F8010B 		ldrb	r0, [r1], #1	@ zero_extendqisi2
ARM GAS  C:\Users\strap\AppData\Local\Temp\ccCgIabb.s 			page 18


 205              	.LVL21:
 206 0010 02F8010B 		strb	r0, [r2], #1
 207              	.LVL22:
 221:lvgl\src\lv_misc/lv_mem.h ****         d8++;
 222:lvgl\src\lv_misc/lv_mem.h ****         s8++;
 223:lvgl\src\lv_misc/lv_mem.h ****         len--;
 208              		.loc 2 223 0
 209 0014 013B     		subs	r3, r3, #1
 210              	.LVL23:
 211 0016 02E0     		b	.L17
 212              	.LVL24:
 213              	.L23:
 214              	.LBE14:
 215              	.LBE13:
 216              	.LBE12:
 217 0018 01A9     		add	r1, sp, #4
 218 001a 03AA     		add	r2, sp, #12
 219 001c 0423     		movs	r3, #4
 220              	.LVL25:
 221              	.L17:
 222              	.LBB17:
 223              	.LBB16:
 224              	.LBB15:
 219:lvgl\src\lv_misc/lv_mem.h ****         *d8 = *s8;
 225              		.loc 2 219 0
 226 001e 002B     		cmp	r3, #0
 227 0020 F4D1     		bne	.L19
 228              	.LVL26:
 229              	.LBE15:
 230              	.LBE16:
 542:lvgl\src\lv_misc/lv_txt.c ****         uint32_t swapped;
 543:lvgl\src\lv_misc/lv_txt.c ****         uint8_t c8[4];
 544:lvgl\src\lv_misc/lv_txt.c ****         _lv_memcpy_small(c8, &c, 4);
 545:lvgl\src\lv_misc/lv_txt.c ****         swapped = (c8[0] << 24) + (c8[1] << 16) + (c8[2] << 8) + (c8[3]);
 231              		.loc 1 545 0
 232 0022 9DF80C20 		ldrb	r2, [sp, #12]	@ zero_extendqisi2
 233              	.LVL27:
 234 0026 9DF80D30 		ldrb	r3, [sp, #13]	@ zero_extendqisi2
 235 002a 1B04     		lsls	r3, r3, #16
 236 002c 03EB0263 		add	r3, r3, r2, lsl #24
 237 0030 9DF80E20 		ldrb	r2, [sp, #14]	@ zero_extendqisi2
 238 0034 03EB0223 		add	r3, r3, r2, lsl #8
 239 0038 9DF80F20 		ldrb	r2, [sp, #15]	@ zero_extendqisi2
 240 003c 1A44     		add	r2, r2, r3
 241              	.LVL28:
 546:lvgl\src\lv_misc/lv_txt.c ****         uint8_t i;
 547:lvgl\src\lv_misc/lv_txt.c ****         for(i = 0; i < 4; i++) {
 242              		.loc 1 547 0
 243 003e 0023     		movs	r3, #0
 244 0040 05E0     		b	.L20
 245              	.LVL29:
 246              	.L22:
 548:lvgl\src\lv_misc/lv_txt.c ****             if((swapped & 0xFF) == 0)
 247              		.loc 1 548 0
 248 0042 12F0FF0F 		tst	r2, #255
 249 0046 00D1     		bne	.L21
 549:lvgl\src\lv_misc/lv_txt.c ****                 swapped = (swapped >> 8); /*Ignore leading zeros (they were in the end originally)*
ARM GAS  C:\Users\strap\AppData\Local\Temp\ccCgIabb.s 			page 19


 250              		.loc 1 549 0
 251 0048 120A     		lsrs	r2, r2, #8
 252              	.LVL30:
 253              	.L21:
 547:lvgl\src\lv_misc/lv_txt.c ****             if((swapped & 0xFF) == 0)
 254              		.loc 1 547 0 discriminator 2
 255 004a 0133     		adds	r3, r3, #1
 256              	.LVL31:
 257 004c DBB2     		uxtb	r3, r3
 258              	.LVL32:
 259              	.L20:
 547:lvgl\src\lv_misc/lv_txt.c ****             if((swapped & 0xFF) == 0)
 260              		.loc 1 547 0 is_stmt 0 discriminator 1
 261 004e 032B     		cmp	r3, #3
 262 0050 F7D9     		bls	.L22
 550:lvgl\src\lv_misc/lv_txt.c ****         }
 551:lvgl\src\lv_misc/lv_txt.c ****         c = swapped;
 263              		.loc 1 551 0 is_stmt 1
 264 0052 0192     		str	r2, [sp, #4]
 265              	.LVL33:
 266              	.L18:
 267              	.LBE17:
 552:lvgl\src\lv_misc/lv_txt.c ****     }
 553:lvgl\src\lv_misc/lv_txt.c **** #endif
 554:lvgl\src\lv_misc/lv_txt.c ****     return c;
 555:lvgl\src\lv_misc/lv_txt.c **** }
 268              		.loc 1 555 0
 269 0054 0198     		ldr	r0, [sp, #4]
 270 0056 04B0     		add	sp, sp, #16
 271              		.cfi_def_cfa_offset 0
 272              		@ sp needed
 273 0058 7047     		bx	lr
 274              		.cfi_endproc
 275              	.LFE14:
 276              		.size	lv_txt_utf8_conv_wc, .-lv_txt_utf8_conv_wc
 277 005a 00BF     		.section	.text.lv_txt_utf8_next,"ax",%progbits
 278              		.align	2
 279              		.thumb
 280              		.thumb_func
 281              		.type	lv_txt_utf8_next, %function
 282              	lv_txt_utf8_next:
 283              	.LFB15:
 556:lvgl\src\lv_misc/lv_txt.c **** 
 557:lvgl\src\lv_misc/lv_txt.c **** /**
 558:lvgl\src\lv_misc/lv_txt.c ****  * Decode an UTF-8 character from a string.
 559:lvgl\src\lv_misc/lv_txt.c ****  * @param txt pointer to '\0' terminated string
 560:lvgl\src\lv_misc/lv_txt.c ****  * @param i start byte index in 'txt' where to start.
 561:lvgl\src\lv_misc/lv_txt.c ****  *          After call it will point to the next UTF-8 char in 'txt'.
 562:lvgl\src\lv_misc/lv_txt.c ****  *          NULL to use txt[0] as index
 563:lvgl\src\lv_misc/lv_txt.c ****  * @return the decoded Unicode character or 0 on invalid UTF-8 code
 564:lvgl\src\lv_misc/lv_txt.c ****  */
 565:lvgl\src\lv_misc/lv_txt.c **** static uint32_t lv_txt_utf8_next(const char * txt, uint32_t * i)
 566:lvgl\src\lv_misc/lv_txt.c **** {
 284              		.loc 1 566 0
 285              		.cfi_startproc
 286              		@ args = 0, pretend = 0, frame = 8
 287              		@ frame_needed = 0, uses_anonymous_args = 0
ARM GAS  C:\Users\strap\AppData\Local\Temp\ccCgIabb.s 			page 20


 288              		@ link register save eliminated.
 289              	.LVL34:
 290 0000 30B4     		push	{r4, r5}
 291              		.cfi_def_cfa_offset 8
 292              		.cfi_offset 4, -8
 293              		.cfi_offset 5, -4
 294 0002 82B0     		sub	sp, sp, #8
 295              		.cfi_def_cfa_offset 16
 296              	.LVL35:
 567:lvgl\src\lv_misc/lv_txt.c ****     /* Unicode to UTF-8
 568:lvgl\src\lv_misc/lv_txt.c ****      * 00000000 00000000 00000000 0xxxxxxx -> 0xxxxxxx
 569:lvgl\src\lv_misc/lv_txt.c ****      * 00000000 00000000 00000yyy yyxxxxxx -> 110yyyyy 10xxxxxx
 570:lvgl\src\lv_misc/lv_txt.c ****      * 00000000 00000000 zzzzyyyy yyxxxxxx -> 1110zzzz 10yyyyyy 10xxxxxx
 571:lvgl\src\lv_misc/lv_txt.c ****      * 00000000 000wwwzz zzzzyyyy yyxxxxxx -> 11110www 10zzzzzz 10yyyyyy 10xxxxxx
 572:lvgl\src\lv_misc/lv_txt.c ****      * */
 573:lvgl\src\lv_misc/lv_txt.c **** 
 574:lvgl\src\lv_misc/lv_txt.c ****     uint32_t result = 0;
 575:lvgl\src\lv_misc/lv_txt.c **** 
 576:lvgl\src\lv_misc/lv_txt.c ****     /*Dummy 'i' pointer is required*/
 577:lvgl\src\lv_misc/lv_txt.c ****     uint32_t i_tmp = 0;
 297              		.loc 1 577 0
 298 0004 0023     		movs	r3, #0
 299 0006 0193     		str	r3, [sp, #4]
 578:lvgl\src\lv_misc/lv_txt.c ****     if(i == NULL) i = &i_tmp;
 300              		.loc 1 578 0
 301 0008 0C46     		mov	r4, r1
 302 000a 01B9     		cbnz	r1, .L26
 303 000c 01AC     		add	r4, sp, #4
 304              	.L26:
 305              	.LVL36:
 579:lvgl\src\lv_misc/lv_txt.c **** 
 580:lvgl\src\lv_misc/lv_txt.c ****     /*Normal ASCII*/
 581:lvgl\src\lv_misc/lv_txt.c ****     if((txt[*i] & 0x80) == 0) {
 306              		.loc 1 581 0
 307 000e 2268     		ldr	r2, [r4]
 308 0010 835C     		ldrb	r3, [r0, r2]	@ zero_extendqisi2
 309 0012 13F0800F 		tst	r3, #128
 310 0016 03D1     		bne	.L27
 311              	.LVL37:
 582:lvgl\src\lv_misc/lv_txt.c ****         result = txt[*i];
 583:lvgl\src\lv_misc/lv_txt.c ****         (*i)++;
 312              		.loc 1 583 0
 313 0018 0132     		adds	r2, r2, #1
 314 001a 2260     		str	r2, [r4]
 582:lvgl\src\lv_misc/lv_txt.c ****         result = txt[*i];
 315              		.loc 1 582 0
 316 001c 1846     		mov	r0, r3
 317              	.LVL38:
 318 001e 6AE0     		b	.L28
 319              	.LVL39:
 320              	.L27:
 584:lvgl\src\lv_misc/lv_txt.c ****     }
 585:lvgl\src\lv_misc/lv_txt.c ****     /*Real UTF-8 decode*/
 586:lvgl\src\lv_misc/lv_txt.c ****     else {
 587:lvgl\src\lv_misc/lv_txt.c ****         /*2 bytes UTF-8 code*/
 588:lvgl\src\lv_misc/lv_txt.c ****         if((txt[*i] & 0xE0) == 0xC0) {
 321              		.loc 1 588 0
ARM GAS  C:\Users\strap\AppData\Local\Temp\ccCgIabb.s 			page 21


 322 0020 03F0E001 		and	r1, r3, #224
 323 0024 C029     		cmp	r1, #192
 324 0026 0FD1     		bne	.L29
 589:lvgl\src\lv_misc/lv_txt.c ****             result = (uint32_t)(txt[*i] & 0x1F) << 6;
 325              		.loc 1 589 0
 326 0028 9B01     		lsls	r3, r3, #6
 327 002a 03F4F863 		and	r3, r3, #1984
 328              	.LVL40:
 590:lvgl\src\lv_misc/lv_txt.c ****             (*i)++;
 329              		.loc 1 590 0
 330 002e 0132     		adds	r2, r2, #1
 331 0030 2260     		str	r2, [r4]
 591:lvgl\src\lv_misc/lv_txt.c ****             if((txt[*i] & 0xC0) != 0x80) return 0; /*Invalid UTF-8 code*/
 332              		.loc 1 591 0
 333 0032 805C     		ldrb	r0, [r0, r2]	@ zero_extendqisi2
 334              	.LVL41:
 335 0034 00F0C001 		and	r1, r0, #192
 336 0038 8029     		cmp	r1, #128
 337 003a 51D1     		bne	.L33
 592:lvgl\src\lv_misc/lv_txt.c ****             result += (txt[*i] & 0x3F);
 338              		.loc 1 592 0
 339 003c 00F03F00 		and	r0, r0, #63
 340              	.LVL42:
 593:lvgl\src\lv_misc/lv_txt.c ****             (*i)++;
 341              		.loc 1 593 0
 342 0040 0132     		adds	r2, r2, #1
 343 0042 2260     		str	r2, [r4]
 592:lvgl\src\lv_misc/lv_txt.c ****             result += (txt[*i] & 0x3F);
 344              		.loc 1 592 0
 345 0044 1844     		add	r0, r0, r3
 346              	.LVL43:
 347 0046 56E0     		b	.L28
 348              	.LVL44:
 349              	.L29:
 594:lvgl\src\lv_misc/lv_txt.c ****         }
 595:lvgl\src\lv_misc/lv_txt.c ****         /*3 bytes UTF-8 code*/
 596:lvgl\src\lv_misc/lv_txt.c ****         else if((txt[*i] & 0xF0) == 0xE0) {
 350              		.loc 1 596 0
 351 0048 03F0F001 		and	r1, r3, #240
 352 004c E029     		cmp	r1, #224
 353 004e 19D1     		bne	.L30
 597:lvgl\src\lv_misc/lv_txt.c ****             result = (uint32_t)(txt[*i] & 0x0F) << 12;
 354              		.loc 1 597 0
 355 0050 1B03     		lsls	r3, r3, #12
 356 0052 9BB2     		uxth	r3, r3
 357              	.LVL45:
 598:lvgl\src\lv_misc/lv_txt.c ****             (*i)++;
 358              		.loc 1 598 0
 359 0054 0132     		adds	r2, r2, #1
 360 0056 2260     		str	r2, [r4]
 599:lvgl\src\lv_misc/lv_txt.c **** 
 600:lvgl\src\lv_misc/lv_txt.c ****             if((txt[*i] & 0xC0) != 0x80) return 0; /*Invalid UTF-8 code*/
 361              		.loc 1 600 0
 362 0058 815C     		ldrb	r1, [r0, r2]	@ zero_extendqisi2
 363 005a 01F0C005 		and	r5, r1, #192
 364 005e 802D     		cmp	r5, #128
 365 0060 40D1     		bne	.L34
ARM GAS  C:\Users\strap\AppData\Local\Temp\ccCgIabb.s 			page 22


 601:lvgl\src\lv_misc/lv_txt.c ****             result += (uint32_t)(txt[*i] & 0x3F) << 6;
 366              		.loc 1 601 0
 367 0062 8901     		lsls	r1, r1, #6
 368 0064 01F47C61 		and	r1, r1, #4032
 369 0068 0B44     		add	r3, r3, r1
 370              	.LVL46:
 602:lvgl\src\lv_misc/lv_txt.c ****             (*i)++;
 371              		.loc 1 602 0
 372 006a 511C     		adds	r1, r2, #1
 373 006c 2160     		str	r1, [r4]
 603:lvgl\src\lv_misc/lv_txt.c **** 
 604:lvgl\src\lv_misc/lv_txt.c ****             if((txt[*i] & 0xC0) != 0x80) return 0; /*Invalid UTF-8 code*/
 374              		.loc 1 604 0
 375 006e 425C     		ldrb	r2, [r0, r1]	@ zero_extendqisi2
 376 0070 02F0C000 		and	r0, r2, #192
 377              	.LVL47:
 378 0074 8028     		cmp	r0, #128
 379 0076 37D1     		bne	.L35
 605:lvgl\src\lv_misc/lv_txt.c ****             result += (txt[*i] & 0x3F);
 380              		.loc 1 605 0
 381 0078 02F03F02 		and	r2, r2, #63
 382              	.LVL48:
 606:lvgl\src\lv_misc/lv_txt.c ****             (*i)++;
 383              		.loc 1 606 0
 384 007c 0131     		adds	r1, r1, #1
 385 007e 2160     		str	r1, [r4]
 605:lvgl\src\lv_misc/lv_txt.c ****             result += (txt[*i] & 0x3F);
 386              		.loc 1 605 0
 387 0080 D018     		adds	r0, r2, r3
 388              	.LVL49:
 389 0082 38E0     		b	.L28
 390              	.LVL50:
 391              	.L30:
 607:lvgl\src\lv_misc/lv_txt.c ****         }
 608:lvgl\src\lv_misc/lv_txt.c ****         /*4 bytes UTF-8 code*/
 609:lvgl\src\lv_misc/lv_txt.c ****         else if((txt[*i] & 0xF8) == 0xF0) {
 392              		.loc 1 609 0
 393 0084 03F0F801 		and	r1, r3, #248
 394 0088 F029     		cmp	r1, #240
 395 008a 25D1     		bne	.L31
 610:lvgl\src\lv_misc/lv_txt.c ****             result = (uint32_t)(txt[*i] & 0x07) << 18;
 396              		.loc 1 610 0
 397 008c 9B04     		lsls	r3, r3, #18
 398 008e 03F4E013 		and	r3, r3, #1835008
 399              	.LVL51:
 611:lvgl\src\lv_misc/lv_txt.c ****             (*i)++;
 400              		.loc 1 611 0
 401 0092 0132     		adds	r2, r2, #1
 402 0094 2260     		str	r2, [r4]
 612:lvgl\src\lv_misc/lv_txt.c **** 
 613:lvgl\src\lv_misc/lv_txt.c ****             if((txt[*i] & 0xC0) != 0x80) return 0; /*Invalid UTF-8 code*/
 403              		.loc 1 613 0
 404 0096 815C     		ldrb	r1, [r0, r2]	@ zero_extendqisi2
 405 0098 01F0C005 		and	r5, r1, #192
 406 009c 802D     		cmp	r5, #128
 407 009e 25D1     		bne	.L36
 614:lvgl\src\lv_misc/lv_txt.c ****             result += (uint32_t)(txt[*i] & 0x3F) << 12;
ARM GAS  C:\Users\strap\AppData\Local\Temp\ccCgIabb.s 			page 23


 408              		.loc 1 614 0
 409 00a0 0903     		lsls	r1, r1, #12
 410 00a2 01F47C31 		and	r1, r1, #258048
 411 00a6 0B44     		add	r3, r3, r1
 412              	.LVL52:
 615:lvgl\src\lv_misc/lv_txt.c ****             (*i)++;
 413              		.loc 1 615 0
 414 00a8 511C     		adds	r1, r2, #1
 415 00aa 2160     		str	r1, [r4]
 616:lvgl\src\lv_misc/lv_txt.c **** 
 617:lvgl\src\lv_misc/lv_txt.c ****             if((txt[*i] & 0xC0) != 0x80) return 0; /*Invalid UTF-8 code*/
 416              		.loc 1 617 0
 417 00ac 425C     		ldrb	r2, [r0, r1]	@ zero_extendqisi2
 418 00ae 02F0C005 		and	r5, r2, #192
 419 00b2 802D     		cmp	r5, #128
 420 00b4 1CD1     		bne	.L37
 618:lvgl\src\lv_misc/lv_txt.c ****             result += (uint32_t)(txt[*i] & 0x3F) << 6;
 421              		.loc 1 618 0
 422 00b6 9201     		lsls	r2, r2, #6
 423 00b8 02F47C62 		and	r2, r2, #4032
 424 00bc 1A44     		add	r2, r2, r3
 425              	.LVL53:
 619:lvgl\src\lv_misc/lv_txt.c ****             (*i)++;
 426              		.loc 1 619 0
 427 00be 0131     		adds	r1, r1, #1
 428 00c0 2160     		str	r1, [r4]
 620:lvgl\src\lv_misc/lv_txt.c **** 
 621:lvgl\src\lv_misc/lv_txt.c ****             if((txt[*i] & 0xC0) != 0x80) return 0; /*Invalid UTF-8 code*/
 429              		.loc 1 621 0
 430 00c2 435C     		ldrb	r3, [r0, r1]	@ zero_extendqisi2
 431 00c4 03F0C000 		and	r0, r3, #192
 432              	.LVL54:
 433 00c8 8028     		cmp	r0, #128
 434 00ca 13D1     		bne	.L38
 622:lvgl\src\lv_misc/lv_txt.c ****             result += txt[*i] & 0x3F;
 435              		.loc 1 622 0
 436 00cc 03F03F03 		and	r3, r3, #63
 437              	.LVL55:
 623:lvgl\src\lv_misc/lv_txt.c ****             (*i)++;
 438              		.loc 1 623 0
 439 00d0 0131     		adds	r1, r1, #1
 440 00d2 2160     		str	r1, [r4]
 622:lvgl\src\lv_misc/lv_txt.c ****             result += txt[*i] & 0x3F;
 441              		.loc 1 622 0
 442 00d4 9818     		adds	r0, r3, r2
 443              	.LVL56:
 444 00d6 0EE0     		b	.L28
 445              	.LVL57:
 446              	.L31:
 624:lvgl\src\lv_misc/lv_txt.c ****         }
 625:lvgl\src\lv_misc/lv_txt.c ****         else {
 626:lvgl\src\lv_misc/lv_txt.c ****             (*i)++; /*Not UTF-8 char. Go the next.*/
 447              		.loc 1 626 0
 448 00d8 0132     		adds	r2, r2, #1
 449 00da 2260     		str	r2, [r4]
 574:lvgl\src\lv_misc/lv_txt.c **** 
 450              		.loc 1 574 0
ARM GAS  C:\Users\strap\AppData\Local\Temp\ccCgIabb.s 			page 24


 451 00dc 0020     		movs	r0, #0
 452              	.LVL58:
 453 00de 0AE0     		b	.L28
 454              	.LVL59:
 455              	.L33:
 591:lvgl\src\lv_misc/lv_txt.c ****             result += (txt[*i] & 0x3F);
 456              		.loc 1 591 0
 457 00e0 0020     		movs	r0, #0
 458 00e2 08E0     		b	.L28
 459              	.LVL60:
 460              	.L34:
 600:lvgl\src\lv_misc/lv_txt.c ****             result += (uint32_t)(txt[*i] & 0x3F) << 6;
 461              		.loc 1 600 0
 462 00e4 0020     		movs	r0, #0
 463              	.LVL61:
 464 00e6 06E0     		b	.L28
 465              	.L35:
 604:lvgl\src\lv_misc/lv_txt.c ****             result += (txt[*i] & 0x3F);
 466              		.loc 1 604 0
 467 00e8 0020     		movs	r0, #0
 468 00ea 04E0     		b	.L28
 469              	.LVL62:
 470              	.L36:
 613:lvgl\src\lv_misc/lv_txt.c ****             result += (uint32_t)(txt[*i] & 0x3F) << 12;
 471              		.loc 1 613 0
 472 00ec 0020     		movs	r0, #0
 473              	.LVL63:
 474 00ee 02E0     		b	.L28
 475              	.LVL64:
 476              	.L37:
 617:lvgl\src\lv_misc/lv_txt.c ****             result += (uint32_t)(txt[*i] & 0x3F) << 6;
 477              		.loc 1 617 0
 478 00f0 0020     		movs	r0, #0
 479              	.LVL65:
 480 00f2 00E0     		b	.L28
 481              	.LVL66:
 482              	.L38:
 621:lvgl\src\lv_misc/lv_txt.c ****             result += txt[*i] & 0x3F;
 483              		.loc 1 621 0
 484 00f4 0020     		movs	r0, #0
 485              	.LVL67:
 486              	.L28:
 627:lvgl\src\lv_misc/lv_txt.c ****         }
 628:lvgl\src\lv_misc/lv_txt.c ****     }
 629:lvgl\src\lv_misc/lv_txt.c ****     return result;
 630:lvgl\src\lv_misc/lv_txt.c **** }
 487              		.loc 1 630 0
 488 00f6 02B0     		add	sp, sp, #8
 489              		.cfi_def_cfa_offset 8
 490              		@ sp needed
 491 00f8 30BC     		pop	{r4, r5}
 492              		.cfi_restore 5
 493              		.cfi_restore 4
 494              		.cfi_def_cfa_offset 0
 495              	.LVL68:
 496 00fa 7047     		bx	lr
 497              		.cfi_endproc
ARM GAS  C:\Users\strap\AppData\Local\Temp\ccCgIabb.s 			page 25


 498              	.LFE15:
 499              		.size	lv_txt_utf8_next, .-lv_txt_utf8_next
 500              		.section	.text.lv_txt_utf8_prev,"ax",%progbits
 501              		.align	2
 502              		.thumb
 503              		.thumb_func
 504              		.type	lv_txt_utf8_prev, %function
 505              	lv_txt_utf8_prev:
 506              	.LFB16:
 631:lvgl\src\lv_misc/lv_txt.c **** 
 632:lvgl\src\lv_misc/lv_txt.c **** /**
 633:lvgl\src\lv_misc/lv_txt.c ****  * Get previous UTF-8 character form a string.
 634:lvgl\src\lv_misc/lv_txt.c ****  * @param txt pointer to '\0' terminated string
 635:lvgl\src\lv_misc/lv_txt.c ****  * @param i start byte index in 'txt' where to start. After the call it will point to the previous
 636:lvgl\src\lv_misc/lv_txt.c ****  * UTF-8 char in 'txt'.
 637:lvgl\src\lv_misc/lv_txt.c ****  * @return the decoded Unicode character or 0 on invalid UTF-8 code
 638:lvgl\src\lv_misc/lv_txt.c ****  */
 639:lvgl\src\lv_misc/lv_txt.c **** static uint32_t lv_txt_utf8_prev(const char * txt, uint32_t * i)
 640:lvgl\src\lv_misc/lv_txt.c **** {
 507              		.loc 1 640 0
 508              		.cfi_startproc
 509              		@ args = 0, pretend = 0, frame = 8
 510              		@ frame_needed = 0, uses_anonymous_args = 0
 511              	.LVL69:
 512 0000 70B5     		push	{r4, r5, r6, lr}
 513              		.cfi_def_cfa_offset 16
 514              		.cfi_offset 4, -16
 515              		.cfi_offset 5, -12
 516              		.cfi_offset 6, -8
 517              		.cfi_offset 14, -4
 518 0002 82B0     		sub	sp, sp, #8
 519              		.cfi_def_cfa_offset 24
 520 0004 0646     		mov	r6, r0
 521 0006 0D46     		mov	r5, r1
 522              	.LVL70:
 641:lvgl\src\lv_misc/lv_txt.c ****     uint8_t c_size;
 642:lvgl\src\lv_misc/lv_txt.c ****     uint8_t cnt = 0;
 643:lvgl\src\lv_misc/lv_txt.c **** 
 644:lvgl\src\lv_misc/lv_txt.c ****     /*Try to find a !0 long UTF-8 char by stepping one character back*/
 645:lvgl\src\lv_misc/lv_txt.c ****     (*i)--;
 523              		.loc 1 645 0
 524 0008 0B68     		ldr	r3, [r1]
 525 000a 013B     		subs	r3, r3, #1
 526 000c 0B60     		str	r3, [r1]
 642:lvgl\src\lv_misc/lv_txt.c **** 
 527              		.loc 1 642 0
 528 000e 0024     		movs	r4, #0
 529              	.LVL71:
 530              	.L43:
 646:lvgl\src\lv_misc/lv_txt.c ****     do {
 647:lvgl\src\lv_misc/lv_txt.c ****         if(cnt >= 4) return 0; /*No UTF-8 char found before the initial*/
 531              		.loc 1 647 0
 532 0010 032C     		cmp	r4, #3
 533 0012 17D8     		bhi	.L44
 648:lvgl\src\lv_misc/lv_txt.c **** 
 649:lvgl\src\lv_misc/lv_txt.c ****         c_size = _lv_txt_encoded_size(&txt[*i]);
 534              		.loc 1 649 0
ARM GAS  C:\Users\strap\AppData\Local\Temp\ccCgIabb.s 			page 26


 535 0014 0D4B     		ldr	r3, .L46
 536 0016 1B68     		ldr	r3, [r3]
 537 0018 2868     		ldr	r0, [r5]
 538 001a 3044     		add	r0, r0, r6
 539 001c 9847     		blx	r3
 540              	.LVL72:
 650:lvgl\src\lv_misc/lv_txt.c ****         if(c_size == 0) {
 541              		.loc 1 650 0
 542 001e 0346     		mov	r3, r0
 543 0020 18B9     		cbnz	r0, .L42
 651:lvgl\src\lv_misc/lv_txt.c ****             if(*i != 0)
 544              		.loc 1 651 0
 545 0022 2868     		ldr	r0, [r5]
 546              	.LVL73:
 547 0024 78B1     		cbz	r0, .L41
 652:lvgl\src\lv_misc/lv_txt.c ****                 (*i)--;
 548              		.loc 1 652 0
 549 0026 0138     		subs	r0, r0, #1
 550 0028 2860     		str	r0, [r5]
 551              	.L42:
 653:lvgl\src\lv_misc/lv_txt.c ****             else
 654:lvgl\src\lv_misc/lv_txt.c ****                 return 0;
 655:lvgl\src\lv_misc/lv_txt.c ****         }
 656:lvgl\src\lv_misc/lv_txt.c ****         cnt++;
 552              		.loc 1 656 0
 553 002a 0134     		adds	r4, r4, #1
 554              	.LVL74:
 555 002c E4B2     		uxtb	r4, r4
 556              	.LVL75:
 657:lvgl\src\lv_misc/lv_txt.c ****     } while(c_size == 0);
 557              		.loc 1 657 0
 558 002e 002B     		cmp	r3, #0
 559 0030 EED0     		beq	.L43
 658:lvgl\src\lv_misc/lv_txt.c **** 
 659:lvgl\src\lv_misc/lv_txt.c ****     uint32_t i_tmp  = *i;
 560              		.loc 1 659 0
 561 0032 2B68     		ldr	r3, [r5]
 562 0034 02A9     		add	r1, sp, #8
 563 0036 41F8043D 		str	r3, [r1, #-4]!
 660:lvgl\src\lv_misc/lv_txt.c ****     uint32_t letter = _lv_txt_encoded_next(txt, &i_tmp); /*Character found, get it*/
 564              		.loc 1 660 0
 565 003a 044B     		ldr	r3, .L46
 566 003c 5B68     		ldr	r3, [r3, #4]
 567 003e 3046     		mov	r0, r6
 568 0040 9847     		blx	r3
 569              	.LVL76:
 661:lvgl\src\lv_misc/lv_txt.c **** 
 662:lvgl\src\lv_misc/lv_txt.c ****     return letter;
 570              		.loc 1 662 0
 571 0042 00E0     		b	.L41
 572              	.L44:
 647:lvgl\src\lv_misc/lv_txt.c **** 
 573              		.loc 1 647 0
 574 0044 0020     		movs	r0, #0
 575              	.L41:
 663:lvgl\src\lv_misc/lv_txt.c **** }
 576              		.loc 1 663 0
ARM GAS  C:\Users\strap\AppData\Local\Temp\ccCgIabb.s 			page 27


 577 0046 02B0     		add	sp, sp, #8
 578              		.cfi_def_cfa_offset 16
 579              		@ sp needed
 580 0048 70BD     		pop	{r4, r5, r6, pc}
 581              	.LVL77:
 582              	.L47:
 583 004a 00BF     		.align	2
 584              	.L46:
 585 004c 00000000 		.word	.LANCHOR0
 586              		.cfi_endproc
 587              	.LFE16:
 588              		.size	lv_txt_utf8_prev, .-lv_txt_utf8_prev
 589              		.section	.text.lv_txt_utf8_get_byte_id,"ax",%progbits
 590              		.align	2
 591              		.thumb
 592              		.thumb_func
 593              		.type	lv_txt_utf8_get_byte_id, %function
 594              	lv_txt_utf8_get_byte_id:
 595              	.LFB17:
 664:lvgl\src\lv_misc/lv_txt.c **** 
 665:lvgl\src\lv_misc/lv_txt.c **** /**
 666:lvgl\src\lv_misc/lv_txt.c ****  * Convert a character index (in an UTF-8 text) to byte index.
 667:lvgl\src\lv_misc/lv_txt.c ****  * E.g. in "AÁRT" index of 'R' is 2th char but start at byte 3 because 'Á' is 2 bytes long
 668:lvgl\src\lv_misc/lv_txt.c ****  * @param txt a '\0' terminated UTF-8 string
 669:lvgl\src\lv_misc/lv_txt.c ****  * @param utf8_id character index
 670:lvgl\src\lv_misc/lv_txt.c ****  * @return byte index of the 'utf8_id'th letter
 671:lvgl\src\lv_misc/lv_txt.c ****  */
 672:lvgl\src\lv_misc/lv_txt.c **** static uint32_t lv_txt_utf8_get_byte_id(const char * txt, uint32_t utf8_id)
 673:lvgl\src\lv_misc/lv_txt.c **** {
 596              		.loc 1 673 0
 597              		.cfi_startproc
 598              		@ args = 0, pretend = 0, frame = 0
 599              		@ frame_needed = 0, uses_anonymous_args = 0
 600              	.LVL78:
 601 0000 F8B5     		push	{r3, r4, r5, r6, r7, lr}
 602              		.cfi_def_cfa_offset 24
 603              		.cfi_offset 3, -24
 604              		.cfi_offset 4, -20
 605              		.cfi_offset 5, -16
 606              		.cfi_offset 6, -12
 607              		.cfi_offset 7, -8
 608              		.cfi_offset 14, -4
 609 0002 0746     		mov	r7, r0
 610 0004 0E46     		mov	r6, r1
 611              	.LVL79:
 674:lvgl\src\lv_misc/lv_txt.c ****     uint32_t i;
 675:lvgl\src\lv_misc/lv_txt.c ****     uint32_t byte_cnt = 0;
 612              		.loc 1 675 0
 613 0006 0024     		movs	r4, #0
 676:lvgl\src\lv_misc/lv_txt.c ****     for(i = 0; i < utf8_id; i++) {
 614              		.loc 1 676 0
 615 0008 2546     		mov	r5, r4
 616 000a 08E0     		b	.L49
 617              	.LVL80:
 618              	.L51:
 619              	.LBB18:
 677:lvgl\src\lv_misc/lv_txt.c ****         uint8_t c_size = _lv_txt_encoded_size(&txt[byte_cnt]);
ARM GAS  C:\Users\strap\AppData\Local\Temp\ccCgIabb.s 			page 28


 620              		.loc 1 677 0
 621 000c 064B     		ldr	r3, .L54
 622 000e 1B68     		ldr	r3, [r3]
 623 0010 3819     		adds	r0, r7, r4
 624 0012 9847     		blx	r3
 625              	.LVL81:
 678:lvgl\src\lv_misc/lv_txt.c ****         byte_cnt += c_size > 0 ? c_size : 1;
 626              		.loc 1 678 0
 627 0014 00B1     		cbz	r0, .L52
 628 0016 00E0     		b	.L50
 629              	.L52:
 630 0018 0120     		movs	r0, #1
 631              	.LVL82:
 632              	.L50:
 633              		.loc 1 678 0 is_stmt 0 discriminator 4
 634 001a 0444     		add	r4, r4, r0
 635              	.LVL83:
 636              	.LBE18:
 676:lvgl\src\lv_misc/lv_txt.c ****     for(i = 0; i < utf8_id; i++) {
 637              		.loc 1 676 0 is_stmt 1 discriminator 4
 638 001c 0135     		adds	r5, r5, #1
 639              	.LVL84:
 640              	.L49:
 676:lvgl\src\lv_misc/lv_txt.c ****     for(i = 0; i < utf8_id; i++) {
 641              		.loc 1 676 0 is_stmt 0 discriminator 2
 642 001e B542     		cmp	r5, r6
 643 0020 F4D3     		bcc	.L51
 679:lvgl\src\lv_misc/lv_txt.c ****     }
 680:lvgl\src\lv_misc/lv_txt.c **** 
 681:lvgl\src\lv_misc/lv_txt.c ****     return byte_cnt;
 682:lvgl\src\lv_misc/lv_txt.c **** }
 644              		.loc 1 682 0 is_stmt 1
 645 0022 2046     		mov	r0, r4
 646 0024 F8BD     		pop	{r3, r4, r5, r6, r7, pc}
 647              	.LVL85:
 648              	.L55:
 649 0026 00BF     		.align	2
 650              	.L54:
 651 0028 00000000 		.word	.LANCHOR0
 652              		.cfi_endproc
 653              	.LFE17:
 654              		.size	lv_txt_utf8_get_byte_id, .-lv_txt_utf8_get_byte_id
 655              		.section	.text.lv_txt_utf8_get_char_id,"ax",%progbits
 656              		.align	2
 657              		.thumb
 658              		.thumb_func
 659              		.type	lv_txt_utf8_get_char_id, %function
 660              	lv_txt_utf8_get_char_id:
 661              	.LFB18:
 683:lvgl\src\lv_misc/lv_txt.c **** 
 684:lvgl\src\lv_misc/lv_txt.c **** /**
 685:lvgl\src\lv_misc/lv_txt.c ****  * Convert a byte index (in an UTF-8 text) to character index.
 686:lvgl\src\lv_misc/lv_txt.c ****  * E.g. in "AÁRT" index of 'R' is 2th char but start at byte 3 because 'Á' is 2 bytes long
 687:lvgl\src\lv_misc/lv_txt.c ****  * @param txt a '\0' terminated UTF-8 string
 688:lvgl\src\lv_misc/lv_txt.c ****  * @param byte_id byte index
 689:lvgl\src\lv_misc/lv_txt.c ****  * @return character index of the letter at 'byte_id'th position
 690:lvgl\src\lv_misc/lv_txt.c ****  */
ARM GAS  C:\Users\strap\AppData\Local\Temp\ccCgIabb.s 			page 29


 691:lvgl\src\lv_misc/lv_txt.c **** static uint32_t lv_txt_utf8_get_char_id(const char * txt, uint32_t byte_id)
 692:lvgl\src\lv_misc/lv_txt.c **** {
 662              		.loc 1 692 0
 663              		.cfi_startproc
 664              		@ args = 0, pretend = 0, frame = 8
 665              		@ frame_needed = 0, uses_anonymous_args = 0
 666              	.LVL86:
 667 0000 70B5     		push	{r4, r5, r6, lr}
 668              		.cfi_def_cfa_offset 16
 669              		.cfi_offset 4, -16
 670              		.cfi_offset 5, -12
 671              		.cfi_offset 6, -8
 672              		.cfi_offset 14, -4
 673 0002 82B0     		sub	sp, sp, #8
 674              		.cfi_def_cfa_offset 24
 675 0004 0646     		mov	r6, r0
 676 0006 0D46     		mov	r5, r1
 693:lvgl\src\lv_misc/lv_txt.c ****     uint32_t i        = 0;
 677              		.loc 1 693 0
 678 0008 0024     		movs	r4, #0
 679 000a 0194     		str	r4, [sp, #4]
 680              	.LVL87:
 694:lvgl\src\lv_misc/lv_txt.c ****     uint32_t char_cnt = 0;
 695:lvgl\src\lv_misc/lv_txt.c **** 
 696:lvgl\src\lv_misc/lv_txt.c ****     while(i < byte_id) {
 681              		.loc 1 696 0
 682 000c 05E0     		b	.L57
 683              	.LVL88:
 684              	.L58:
 697:lvgl\src\lv_misc/lv_txt.c ****         _lv_txt_encoded_next(txt, &i); /*'i' points to the next letter so use the prev. value*/
 685              		.loc 1 697 0
 686 000e 064B     		ldr	r3, .L60
 687 0010 5B68     		ldr	r3, [r3, #4]
 688 0012 01A9     		add	r1, sp, #4
 689 0014 3046     		mov	r0, r6
 690 0016 9847     		blx	r3
 691              	.LVL89:
 698:lvgl\src\lv_misc/lv_txt.c ****         char_cnt++;
 692              		.loc 1 698 0
 693 0018 0134     		adds	r4, r4, #1
 694              	.LVL90:
 695              	.L57:
 696:lvgl\src\lv_misc/lv_txt.c ****         _lv_txt_encoded_next(txt, &i); /*'i' points to the next letter so use the prev. value*/
 696              		.loc 1 696 0
 697 001a 019B     		ldr	r3, [sp, #4]
 698 001c AB42     		cmp	r3, r5
 699 001e F6D3     		bcc	.L58
 699:lvgl\src\lv_misc/lv_txt.c ****     }
 700:lvgl\src\lv_misc/lv_txt.c **** 
 701:lvgl\src\lv_misc/lv_txt.c ****     return char_cnt;
 702:lvgl\src\lv_misc/lv_txt.c **** }
 700              		.loc 1 702 0
 701 0020 2046     		mov	r0, r4
 702 0022 02B0     		add	sp, sp, #8
 703              		.cfi_def_cfa_offset 16
 704              		@ sp needed
 705 0024 70BD     		pop	{r4, r5, r6, pc}
ARM GAS  C:\Users\strap\AppData\Local\Temp\ccCgIabb.s 			page 30


 706              	.LVL91:
 707              	.L61:
 708 0026 00BF     		.align	2
 709              	.L60:
 710 0028 00000000 		.word	.LANCHOR0
 711              		.cfi_endproc
 712              	.LFE18:
 713              		.size	lv_txt_utf8_get_char_id, .-lv_txt_utf8_get_char_id
 714              		.section	.text.lv_txt_utf8_get_length,"ax",%progbits
 715              		.align	2
 716              		.thumb
 717              		.thumb_func
 718              		.type	lv_txt_utf8_get_length, %function
 719              	lv_txt_utf8_get_length:
 720              	.LFB19:
 703:lvgl\src\lv_misc/lv_txt.c **** 
 704:lvgl\src\lv_misc/lv_txt.c **** /**
 705:lvgl\src\lv_misc/lv_txt.c ****  * Get the number of characters (and NOT bytes) in a string. Decode it with UTF-8 if enabled.
 706:lvgl\src\lv_misc/lv_txt.c ****  * E.g.: "ÁBC" is 3 characters (but 4 bytes)
 707:lvgl\src\lv_misc/lv_txt.c ****  * @param txt a '\0' terminated char string
 708:lvgl\src\lv_misc/lv_txt.c ****  * @return number of characters
 709:lvgl\src\lv_misc/lv_txt.c ****  */
 710:lvgl\src\lv_misc/lv_txt.c **** static uint32_t lv_txt_utf8_get_length(const char * txt)
 711:lvgl\src\lv_misc/lv_txt.c **** {
 721              		.loc 1 711 0
 722              		.cfi_startproc
 723              		@ args = 0, pretend = 0, frame = 8
 724              		@ frame_needed = 0, uses_anonymous_args = 0
 725              	.LVL92:
 726 0000 30B5     		push	{r4, r5, lr}
 727              		.cfi_def_cfa_offset 12
 728              		.cfi_offset 4, -12
 729              		.cfi_offset 5, -8
 730              		.cfi_offset 14, -4
 731 0002 83B0     		sub	sp, sp, #12
 732              		.cfi_def_cfa_offset 24
 733 0004 0546     		mov	r5, r0
 734              	.LVL93:
 712:lvgl\src\lv_misc/lv_txt.c ****     uint32_t len = 0;
 713:lvgl\src\lv_misc/lv_txt.c ****     uint32_t i   = 0;
 735              		.loc 1 713 0
 736 0006 0024     		movs	r4, #0
 737 0008 0194     		str	r4, [sp, #4]
 714:lvgl\src\lv_misc/lv_txt.c **** 
 715:lvgl\src\lv_misc/lv_txt.c ****     while(txt[i] != '\0') {
 738              		.loc 1 715 0
 739 000a 05E0     		b	.L63
 740              	.LVL94:
 741              	.L64:
 716:lvgl\src\lv_misc/lv_txt.c ****         _lv_txt_encoded_next(txt, &i);
 742              		.loc 1 716 0
 743 000c 064B     		ldr	r3, .L66
 744 000e 5B68     		ldr	r3, [r3, #4]
 745 0010 01A9     		add	r1, sp, #4
 746 0012 2846     		mov	r0, r5
 747 0014 9847     		blx	r3
 748              	.LVL95:
ARM GAS  C:\Users\strap\AppData\Local\Temp\ccCgIabb.s 			page 31


 717:lvgl\src\lv_misc/lv_txt.c ****         len++;
 749              		.loc 1 717 0
 750 0016 0134     		adds	r4, r4, #1
 751              	.LVL96:
 752              	.L63:
 715:lvgl\src\lv_misc/lv_txt.c ****         _lv_txt_encoded_next(txt, &i);
 753              		.loc 1 715 0
 754 0018 019B     		ldr	r3, [sp, #4]
 755 001a EB5C     		ldrb	r3, [r5, r3]	@ zero_extendqisi2
 756 001c 002B     		cmp	r3, #0
 757 001e F5D1     		bne	.L64
 718:lvgl\src\lv_misc/lv_txt.c ****     }
 719:lvgl\src\lv_misc/lv_txt.c **** 
 720:lvgl\src\lv_misc/lv_txt.c ****     return len;
 721:lvgl\src\lv_misc/lv_txt.c **** }
 758              		.loc 1 721 0
 759 0020 2046     		mov	r0, r4
 760 0022 03B0     		add	sp, sp, #12
 761              		.cfi_def_cfa_offset 12
 762              		@ sp needed
 763 0024 30BD     		pop	{r4, r5, pc}
 764              	.LVL97:
 765              	.L67:
 766 0026 00BF     		.align	2
 767              	.L66:
 768 0028 00000000 		.word	.LANCHOR0
 769              		.cfi_endproc
 770              	.LFE19:
 771              		.size	lv_txt_utf8_get_length, .-lv_txt_utf8_get_length
 772              		.section	.text._lv_txt_is_cmd,"ax",%progbits
 773              		.align	2
 774              		.global	_lv_txt_is_cmd
 775              		.thumb
 776              		.thumb_func
 777              		.type	_lv_txt_is_cmd, %function
 778              	_lv_txt_is_cmd:
 779              	.LFB9:
 398:lvgl\src\lv_misc/lv_txt.c ****     bool ret = false;
 780              		.loc 1 398 0
 781              		.cfi_startproc
 782              		@ args = 0, pretend = 0, frame = 0
 783              		@ frame_needed = 0, uses_anonymous_args = 0
 784              		@ link register save eliminated.
 785              	.LVL98:
 786 0000 0246     		mov	r2, r0
 787              	.LVL99:
 401:lvgl\src\lv_misc/lv_txt.c ****         if(*state == LV_TXT_CMD_STATE_WAIT) { /*Start char*/
 788              		.loc 1 401 0
 789 0002 2329     		cmp	r1, #35
 790 0004 11D1     		bne	.L73
 402:lvgl\src\lv_misc/lv_txt.c ****             *state = LV_TXT_CMD_STATE_PAR;
 791              		.loc 1 402 0
 792 0006 0378     		ldrb	r3, [r0]	@ zero_extendqisi2
 793 0008 1BB9     		cbnz	r3, .L70
 403:lvgl\src\lv_misc/lv_txt.c ****             ret    = true;
 794              		.loc 1 403 0
 795 000a 0123     		movs	r3, #1
ARM GAS  C:\Users\strap\AppData\Local\Temp\ccCgIabb.s 			page 32


 796 000c 0370     		strb	r3, [r0]
 797              	.LVL100:
 404:lvgl\src\lv_misc/lv_txt.c ****         }
 798              		.loc 1 404 0
 799 000e 1846     		mov	r0, r3
 800              	.LVL101:
 801 0010 0EE0     		b	.L69
 802              	.LVL102:
 803              	.L70:
 407:lvgl\src\lv_misc/lv_txt.c ****             *state = LV_TXT_CMD_STATE_WAIT;
 804              		.loc 1 407 0
 805 0012 012B     		cmp	r3, #1
 806 0014 03D1     		bne	.L71
 408:lvgl\src\lv_misc/lv_txt.c ****         }
 807              		.loc 1 408 0
 808 0016 0023     		movs	r3, #0
 809 0018 0370     		strb	r3, [r0]
 399:lvgl\src\lv_misc/lv_txt.c **** 
 810              		.loc 1 399 0
 811 001a 1846     		mov	r0, r3
 812              	.LVL103:
 813 001c 08E0     		b	.L69
 814              	.LVL104:
 815              	.L71:
 411:lvgl\src\lv_misc/lv_txt.c ****             *state = LV_TXT_CMD_STATE_WAIT;
 816              		.loc 1 411 0
 817 001e 022B     		cmp	r3, #2
 818 0020 05D1     		bne	.L74
 412:lvgl\src\lv_misc/lv_txt.c ****             ret    = true;
 819              		.loc 1 412 0
 820 0022 0023     		movs	r3, #0
 821 0024 0370     		strb	r3, [r0]
 822              	.LVL105:
 413:lvgl\src\lv_misc/lv_txt.c ****         }
 823              		.loc 1 413 0
 824 0026 0120     		movs	r0, #1
 825              	.LVL106:
 826 0028 02E0     		b	.L69
 827              	.LVL107:
 828              	.L73:
 399:lvgl\src\lv_misc/lv_txt.c **** 
 829              		.loc 1 399 0
 830 002a 0020     		movs	r0, #0
 831              	.LVL108:
 832 002c 00E0     		b	.L69
 833              	.LVL109:
 834              	.L74:
 835 002e 0020     		movs	r0, #0
 836              	.LVL110:
 837              	.L69:
 418:lvgl\src\lv_misc/lv_txt.c ****         if(c == ' ') {
 838              		.loc 1 418 0
 839 0030 1378     		ldrb	r3, [r2]	@ zero_extendqisi2
 840 0032 012B     		cmp	r3, #1
 841 0034 06D1     		bne	.L72
 419:lvgl\src\lv_misc/lv_txt.c ****             *state = LV_TXT_CMD_STATE_IN; /*After the parameter the text is in the command*/
 842              		.loc 1 419 0
ARM GAS  C:\Users\strap\AppData\Local\Temp\ccCgIabb.s 			page 33


 843 0036 2029     		cmp	r1, #32
 844 0038 03D1     		bne	.L75
 420:lvgl\src\lv_misc/lv_txt.c ****         }
 845              		.loc 1 420 0
 846 003a 0223     		movs	r3, #2
 847 003c 1370     		strb	r3, [r2]
 422:lvgl\src\lv_misc/lv_txt.c ****     }
 848              		.loc 1 422 0
 849 003e 0120     		movs	r0, #1
 850              	.LVL111:
 851 0040 7047     		bx	lr
 852              	.LVL112:
 853              	.L75:
 854 0042 0120     		movs	r0, #1
 855              	.LVL113:
 856              	.L72:
 426:lvgl\src\lv_misc/lv_txt.c **** 
 857              		.loc 1 426 0
 858 0044 7047     		bx	lr
 859              		.cfi_endproc
 860              	.LFE9:
 861              		.size	_lv_txt_is_cmd, .-_lv_txt_is_cmd
 862 0046 00BF     		.section	.text.lv_txt_get_next_word,"ax",%progbits
 863              		.align	2
 864              		.thumb
 865              		.thumb_func
 866              		.type	lv_txt_get_next_word, %function
 867              	lv_txt_get_next_word:
 868              	.LFB6:
 175:lvgl\src\lv_misc/lv_txt.c ****     if(txt == NULL || txt[0] == '\0') return 0;
 869              		.loc 1 175 0
 870              		.cfi_startproc
 871              		@ args = 16, pretend = 0, frame = 32
 872              		@ frame_needed = 0, uses_anonymous_args = 0
 873              	.LVL114:
 874 0000 2DE9F04F 		push	{r4, r5, r6, r7, r8, r9, r10, fp, lr}
 875              		.cfi_def_cfa_offset 36
 876              		.cfi_offset 4, -36
 877              		.cfi_offset 5, -32
 878              		.cfi_offset 6, -28
 879              		.cfi_offset 7, -24
 880              		.cfi_offset 8, -20
 881              		.cfi_offset 9, -16
 882              		.cfi_offset 10, -12
 883              		.cfi_offset 11, -8
 884              		.cfi_offset 14, -4
 885 0004 89B0     		sub	sp, sp, #36
 886              		.cfi_def_cfa_offset 72
 887 0006 0291     		str	r1, [sp, #8]
 888 0008 0392     		str	r2, [sp, #12]
 889 000a 0493     		str	r3, [sp, #16]
 890 000c 9DF848B0 		ldrb	fp, [sp, #72]	@ zero_extendqisi2
 891 0010 9DF85430 		ldrb	r3, [sp, #84]	@ zero_extendqisi2
 892              	.LVL115:
 893 0014 0593     		str	r3, [sp, #20]
 176:lvgl\src\lv_misc/lv_txt.c ****     if(font == NULL) return 0;
 894              		.loc 1 176 0
ARM GAS  C:\Users\strap\AppData\Local\Temp\ccCgIabb.s 			page 34


 895 0016 0028     		cmp	r0, #0
 896 0018 00F08780 		beq	.L94
 897 001c 0746     		mov	r7, r0
 176:lvgl\src\lv_misc/lv_txt.c ****     if(font == NULL) return 0;
 898              		.loc 1 176 0 is_stmt 0 discriminator 2
 899 001e 0378     		ldrb	r3, [r0]	@ zero_extendqisi2
 900 0020 002B     		cmp	r3, #0
 901 0022 00F08480 		beq	.L95
 177:lvgl\src\lv_misc/lv_txt.c **** 
 902              		.loc 1 177 0 is_stmt 1
 903 0026 0029     		cmp	r1, #0
 904 0028 00F08380 		beq	.L96
 179:lvgl\src\lv_misc/lv_txt.c **** 
 905              		.loc 1 179 0
 906 002c 1BF0020F 		tst	fp, #2
 907 0030 02D0     		beq	.L78
 908 0032 47F61843 		movw	r3, #31768
 909 0036 0493     		str	r3, [sp, #16]
 910              	.L78:
 911              	.LVL116:
 181:lvgl\src\lv_misc/lv_txt.c ****     uint32_t letter = 0;      /* Letter at i */
 912              		.loc 1 181 0
 913 0038 0026     		movs	r6, #0
 914 003a 0796     		str	r6, [sp, #28]
 915 003c 0696     		str	r6, [sp, #24]
 916              	.LVL117:
 190:lvgl\src\lv_misc/lv_txt.c ****     i_next_next = i_next;
 917              		.loc 1 190 0
 918 003e 434B     		ldr	r3, .L105
 919 0040 5B68     		ldr	r3, [r3, #4]
 920 0042 07A9     		add	r1, sp, #28
 921              	.LVL118:
 922 0044 3846     		mov	r0, r7
 923              	.LVL119:
 924 0046 9847     		blx	r3
 925              	.LVL120:
 926 0048 0446     		mov	r4, r0
 927              	.LVL121:
 191:lvgl\src\lv_misc/lv_txt.c **** 
 928              		.loc 1 191 0
 929 004a 079B     		ldr	r3, [sp, #28]
 930 004c 0693     		str	r3, [sp, #24]
 187:lvgl\src\lv_misc/lv_txt.c ****     uint32_t break_letter_count = 0; /* Number of characters up to the long word break point */
 931              		.loc 1 187 0
 932 004e 4FF0FF39 		mov	r9, #-1
 186:lvgl\src\lv_misc/lv_txt.c ****     uint32_t break_index = NO_BREAK_FOUND; /* only used for "long" words */
 933              		.loc 1 186 0
 934 0052 B046     		mov	r8, r6
 185:lvgl\src\lv_misc/lv_txt.c ****     uint32_t word_len = 0;   /* Number of characters in the transversed word */
 935              		.loc 1 185 0
 936 0054 3546     		mov	r5, r6
 183:lvgl\src\lv_misc/lv_txt.c ****     lv_coord_t letter_w;
 937              		.loc 1 183 0
 938 0056 0196     		str	r6, [sp, #4]
 194:lvgl\src\lv_misc/lv_txt.c ****         letter_next = _lv_txt_encoded_next(txt, &i_next_next);
 939              		.loc 1 194 0
 940 0058 4FE0     		b	.L79
ARM GAS  C:\Users\strap\AppData\Local\Temp\ccCgIabb.s 			page 35


 941              	.LVL122:
 942              	.L91:
 195:lvgl\src\lv_misc/lv_txt.c ****         word_len++;
 943              		.loc 1 195 0
 944 005a 3C4B     		ldr	r3, .L105
 945 005c 5B68     		ldr	r3, [r3, #4]
 946 005e 06A9     		add	r1, sp, #24
 947 0060 3846     		mov	r0, r7
 948 0062 9847     		blx	r3
 949              	.LVL123:
 950 0064 0190     		str	r0, [sp, #4]
 951              	.LVL124:
 196:lvgl\src\lv_misc/lv_txt.c **** 
 952              		.loc 1 196 0
 953 0066 08F1010A 		add	r10, r8, #1
 954              	.LVL125:
 199:lvgl\src\lv_misc/lv_txt.c ****             if(_lv_txt_is_cmd(cmd_state, letter) != false) {
 955              		.loc 1 199 0
 956 006a 1BF0010F 		tst	fp, #1
 957 006e 08D0     		beq	.L80
 200:lvgl\src\lv_misc/lv_txt.c ****                 i = i_next;
 958              		.loc 1 200 0
 959 0070 2146     		mov	r1, r4
 960 0072 1498     		ldr	r0, [sp, #80]
 961              	.LVL126:
 962 0074 FFF7FEFF 		bl	_lv_txt_is_cmd
 963              	.LVL127:
 964 0078 18B1     		cbz	r0, .L80
 201:lvgl\src\lv_misc/lv_txt.c ****                 i_next = i_next_next;
 965              		.loc 1 201 0
 966 007a 079E     		ldr	r6, [sp, #28]
 967              	.LVL128:
 202:lvgl\src\lv_misc/lv_txt.c ****                 letter = letter_next;
 968              		.loc 1 202 0
 969 007c 069B     		ldr	r3, [sp, #24]
 970 007e 0793     		str	r3, [sp, #28]
 971              	.LVL129:
 204:lvgl\src\lv_misc/lv_txt.c ****             }
 972              		.loc 1 204 0
 973 0080 39E0     		b	.L81
 974              	.LVL130:
 975              	.L80:
 208:lvgl\src\lv_misc/lv_txt.c ****         cur_w += letter_w;
 976              		.loc 1 208 0
 977 0082 019A     		ldr	r2, [sp, #4]
 978 0084 2146     		mov	r1, r4
 979 0086 0298     		ldr	r0, [sp, #8]
 980 0088 FFF7FEFF 		bl	lv_font_get_glyph_width
 981              	.LVL131:
 982 008c 03B2     		sxth	r3, r0
 983              	.LVL132:
 209:lvgl\src\lv_misc/lv_txt.c **** 
 984              		.loc 1 209 0
 985 008e 2844     		add	r0, r0, r5
 986 0090 80B2     		uxth	r0, r0
 987 0092 05B2     		sxth	r5, r0
 988              	.LVL133:
ARM GAS  C:\Users\strap\AppData\Local\Temp\ccCgIabb.s 			page 36


 211:lvgl\src\lv_misc/lv_txt.c ****             cur_w += letter_space;
 989              		.loc 1 211 0
 990 0094 002B     		cmp	r3, #0
 991 0096 02DD     		ble	.L82
 212:lvgl\src\lv_misc/lv_txt.c ****         }
 992              		.loc 1 212 0
 993 0098 039B     		ldr	r3, [sp, #12]
 994              	.LVL134:
 995 009a C518     		adds	r5, r0, r3
 996              	.LVL135:
 997 009c 2DB2     		sxth	r5, r5
 998              	.LVL136:
 999              	.L82:
 216:lvgl\src\lv_misc/lv_txt.c ****             break_index = i;
 1000              		.loc 1 216 0
 1001 009e B9F1FF3F 		cmp	r9, #-1
 1002 00a2 05D1     		bne	.L83
 216:lvgl\src\lv_misc/lv_txt.c ****             break_index = i;
 1003              		.loc 1 216 0 is_stmt 0 discriminator 1
 1004 00a4 039B     		ldr	r3, [sp, #12]
 1005 00a6 EB1A     		subs	r3, r5, r3
 1006 00a8 049A     		ldr	r2, [sp, #16]
 1007 00aa 9342     		cmp	r3, r2
 1008 00ac 00DD     		ble	.L83
 217:lvgl\src\lv_misc/lv_txt.c ****             break_letter_count = word_len - 1;
 1009              		.loc 1 217 0 is_stmt 1
 1010 00ae B146     		mov	r9, r6
 1011              	.LVL137:
 1012              	.L83:
 223:lvgl\src\lv_misc/lv_txt.c ****             /* Update the output width on the first character if it fits.
 1013              		.loc 1 223 0
 1014 00b0 0A2C     		cmp	r4, #10
 1015 00b2 0FD0     		beq	.L84
 223:lvgl\src\lv_misc/lv_txt.c ****             /* Update the output width on the first character if it fits.
 1016              		.loc 1 223 0 is_stmt 0 discriminator 1
 1017 00b4 0D2C     		cmp	r4, #13
 1018 00b6 0DD0     		beq	.L84
 1019 00b8 0023     		movs	r3, #0
 1020 00ba 03E0     		b	.L85
 1021              	.LVL138:
 1022              	.L87:
 1023              	.LBB19:
 1024              	.LBB20:
 722:lvgl\src\lv_misc/lv_txt.c **** 
 723:lvgl\src\lv_misc/lv_txt.c **** #elif LV_TXT_ENC == LV_TXT_ENC_ASCII
 724:lvgl\src\lv_misc/lv_txt.c **** /*******************************
 725:lvgl\src\lv_misc/lv_txt.c ****  *  ASCII ENCODER/DECOER
 726:lvgl\src\lv_misc/lv_txt.c ****  ******************************/
 727:lvgl\src\lv_misc/lv_txt.c **** 
 728:lvgl\src\lv_misc/lv_txt.c **** /**
 729:lvgl\src\lv_misc/lv_txt.c ****  * Give the size of an ISO8859-1 coded character
 730:lvgl\src\lv_misc/lv_txt.c ****  * @param str pointer to a character in a string
 731:lvgl\src\lv_misc/lv_txt.c ****  * @return length of the UTF-8 character (1,2,3 or 4). O on invalid code
 732:lvgl\src\lv_misc/lv_txt.c ****  */
 733:lvgl\src\lv_misc/lv_txt.c **** static uint8_t lv_txt_iso8859_1_size(const char * str)
 734:lvgl\src\lv_misc/lv_txt.c **** {
 735:lvgl\src\lv_misc/lv_txt.c ****     (void)str; /*Unused*/
ARM GAS  C:\Users\strap\AppData\Local\Temp\ccCgIabb.s 			page 37


 736:lvgl\src\lv_misc/lv_txt.c ****     return 1;
 737:lvgl\src\lv_misc/lv_txt.c **** }
 738:lvgl\src\lv_misc/lv_txt.c **** 
 739:lvgl\src\lv_misc/lv_txt.c **** /**
 740:lvgl\src\lv_misc/lv_txt.c ****  * Convert an Unicode letter to ISO8859-1.
 741:lvgl\src\lv_misc/lv_txt.c ****  * @param letter_uni an Unicode letter
 742:lvgl\src\lv_misc/lv_txt.c ****  * @return ISO8859-1 coded character in Little Endian to be compatible with C chars (e.g. 'Á', 'Ű
 743:lvgl\src\lv_misc/lv_txt.c ****  */
 744:lvgl\src\lv_misc/lv_txt.c **** static uint32_t lv_txt_unicode_to_iso8859_1(uint32_t letter_uni)
 745:lvgl\src\lv_misc/lv_txt.c **** {
 746:lvgl\src\lv_misc/lv_txt.c ****     if(letter_uni < 128)
 747:lvgl\src\lv_misc/lv_txt.c ****         return letter_uni;
 748:lvgl\src\lv_misc/lv_txt.c ****     else
 749:lvgl\src\lv_misc/lv_txt.c ****         return ' ';
 750:lvgl\src\lv_misc/lv_txt.c **** }
 751:lvgl\src\lv_misc/lv_txt.c **** 
 752:lvgl\src\lv_misc/lv_txt.c **** /**
 753:lvgl\src\lv_misc/lv_txt.c ****  * Convert wide characters to ASCII, however wide characters in ASCII range (e.g. 'A') are ASCII co
 754:lvgl\src\lv_misc/lv_txt.c ****  * So this function does nothing just returns with `c`.
 755:lvgl\src\lv_misc/lv_txt.c ****  * @param c a character, e.g. 'A'
 756:lvgl\src\lv_misc/lv_txt.c ****  * @return same as `c`
 757:lvgl\src\lv_misc/lv_txt.c ****  */
 758:lvgl\src\lv_misc/lv_txt.c **** static uint32_t lv_txt_iso8859_1_conv_wc(uint32_t c)
 759:lvgl\src\lv_misc/lv_txt.c **** {
 760:lvgl\src\lv_misc/lv_txt.c ****     return c;
 761:lvgl\src\lv_misc/lv_txt.c **** }
 762:lvgl\src\lv_misc/lv_txt.c **** 
 763:lvgl\src\lv_misc/lv_txt.c **** /**
 764:lvgl\src\lv_misc/lv_txt.c ****  * Decode an ISO8859-1 character from a string.
 765:lvgl\src\lv_misc/lv_txt.c ****  * @param txt pointer to '\0' terminated string
 766:lvgl\src\lv_misc/lv_txt.c ****  * @param i start byte index in 'txt' where to start.
 767:lvgl\src\lv_misc/lv_txt.c ****  *          After call it will point to the next UTF-8 char in 'txt'.
 768:lvgl\src\lv_misc/lv_txt.c ****  *          NULL to use txt[0] as index
 769:lvgl\src\lv_misc/lv_txt.c ****  * @return the decoded Unicode character or 0 on invalid UTF-8 code
 770:lvgl\src\lv_misc/lv_txt.c ****  */
 771:lvgl\src\lv_misc/lv_txt.c **** static uint32_t lv_txt_iso8859_1_next(const char * txt, uint32_t * i)
 772:lvgl\src\lv_misc/lv_txt.c **** {
 773:lvgl\src\lv_misc/lv_txt.c ****     if(i == NULL) return txt[1]; /*Get the next char */
 774:lvgl\src\lv_misc/lv_txt.c **** 
 775:lvgl\src\lv_misc/lv_txt.c ****     uint8_t letter = txt[*i];
 776:lvgl\src\lv_misc/lv_txt.c ****     (*i)++;
 777:lvgl\src\lv_misc/lv_txt.c ****     return letter;
 778:lvgl\src\lv_misc/lv_txt.c **** }
 779:lvgl\src\lv_misc/lv_txt.c **** 
 780:lvgl\src\lv_misc/lv_txt.c **** /**
 781:lvgl\src\lv_misc/lv_txt.c ****  * Get previous ISO8859-1 character form a string.
 782:lvgl\src\lv_misc/lv_txt.c ****  * @param txt pointer to '\0' terminated string
 783:lvgl\src\lv_misc/lv_txt.c ****  * @param i start byte index in 'txt' where to start. After the call it will point to the previous 
 784:lvgl\src\lv_misc/lv_txt.c ****  * @return the decoded Unicode character or 0 on invalid UTF-8 code
 785:lvgl\src\lv_misc/lv_txt.c ****  */
 786:lvgl\src\lv_misc/lv_txt.c **** static uint32_t lv_txt_iso8859_1_prev(const char * txt, uint32_t * i)
 787:lvgl\src\lv_misc/lv_txt.c **** {
 788:lvgl\src\lv_misc/lv_txt.c ****     if(i == NULL) return *(txt - 1); /*Get the prev. char */
 789:lvgl\src\lv_misc/lv_txt.c **** 
 790:lvgl\src\lv_misc/lv_txt.c ****     (*i)--;
 791:lvgl\src\lv_misc/lv_txt.c ****     uint8_t letter = txt[*i];
 792:lvgl\src\lv_misc/lv_txt.c **** 
ARM GAS  C:\Users\strap\AppData\Local\Temp\ccCgIabb.s 			page 38


 793:lvgl\src\lv_misc/lv_txt.c ****     return letter;
 794:lvgl\src\lv_misc/lv_txt.c **** }
 795:lvgl\src\lv_misc/lv_txt.c **** 
 796:lvgl\src\lv_misc/lv_txt.c **** /**
 797:lvgl\src\lv_misc/lv_txt.c ****  * Convert a character index (in an ISO8859-1 text) to byte index.
 798:lvgl\src\lv_misc/lv_txt.c ****  * E.g. in "AÁRT" index of 'R' is 2th char but start at byte 3 because 'Á' is 2 bytes long
 799:lvgl\src\lv_misc/lv_txt.c ****  * @param txt a '\0' terminated UTF-8 string
 800:lvgl\src\lv_misc/lv_txt.c ****  * @param utf8_id character index
 801:lvgl\src\lv_misc/lv_txt.c ****  * @return byte index of the 'utf8_id'th letter
 802:lvgl\src\lv_misc/lv_txt.c ****  */
 803:lvgl\src\lv_misc/lv_txt.c **** static uint32_t lv_txt_iso8859_1_get_byte_id(const char * txt, uint32_t utf8_id)
 804:lvgl\src\lv_misc/lv_txt.c **** {
 805:lvgl\src\lv_misc/lv_txt.c ****     (void)txt;      /*Unused*/
 806:lvgl\src\lv_misc/lv_txt.c ****     return utf8_id; /*In Non encoded no difference*/
 807:lvgl\src\lv_misc/lv_txt.c **** }
 808:lvgl\src\lv_misc/lv_txt.c **** 
 809:lvgl\src\lv_misc/lv_txt.c **** /**
 810:lvgl\src\lv_misc/lv_txt.c ****  * Convert a byte index (in an ISO8859-1 text) to character index.
 811:lvgl\src\lv_misc/lv_txt.c ****  * E.g. in "AÁRT" index of 'R' is 2th char but start at byte 3 because 'Á' is 2 bytes long
 812:lvgl\src\lv_misc/lv_txt.c ****  * @param txt a '\0' terminated UTF-8 string
 813:lvgl\src\lv_misc/lv_txt.c ****  * @param byte_id byte index
 814:lvgl\src\lv_misc/lv_txt.c ****  * @return character index of the letter at 'byte_id'th position
 815:lvgl\src\lv_misc/lv_txt.c ****  */
 816:lvgl\src\lv_misc/lv_txt.c **** static uint32_t lv_txt_iso8859_1_get_char_id(const char * txt, uint32_t byte_id)
 817:lvgl\src\lv_misc/lv_txt.c **** {
 818:lvgl\src\lv_misc/lv_txt.c ****     (void)txt;      /*Unused*/
 819:lvgl\src\lv_misc/lv_txt.c ****     return byte_id; /*In Non encoded no difference*/
 820:lvgl\src\lv_misc/lv_txt.c **** }
 821:lvgl\src\lv_misc/lv_txt.c **** 
 822:lvgl\src\lv_misc/lv_txt.c **** /**
 823:lvgl\src\lv_misc/lv_txt.c ****  * Get the number of characters (and NOT bytes) in a string. Decode it with UTF-8 if enabled.
 824:lvgl\src\lv_misc/lv_txt.c ****  * E.g.: "ÁBC" is 3 characters (but 4 bytes)
 825:lvgl\src\lv_misc/lv_txt.c ****  * @param txt a '\0' terminated char string
 826:lvgl\src\lv_misc/lv_txt.c ****  * @return number of characters
 827:lvgl\src\lv_misc/lv_txt.c ****  */
 828:lvgl\src\lv_misc/lv_txt.c **** static uint32_t lv_txt_iso8859_1_get_length(const char * txt)
 829:lvgl\src\lv_misc/lv_txt.c **** {
 830:lvgl\src\lv_misc/lv_txt.c ****     return strlen(txt);
 831:lvgl\src\lv_misc/lv_txt.c **** }
 832:lvgl\src\lv_misc/lv_txt.c **** #else
 833:lvgl\src\lv_misc/lv_txt.c **** 
 834:lvgl\src\lv_misc/lv_txt.c **** #error "Invalid character encoding. See `LV_TXT_ENC` in `lv_conf.h`"
 835:lvgl\src\lv_misc/lv_txt.c **** 
 836:lvgl\src\lv_misc/lv_txt.c **** #endif
 837:lvgl\src\lv_misc/lv_txt.c **** 
 838:lvgl\src\lv_misc/lv_txt.c **** /**********************
 839:lvgl\src\lv_misc/lv_txt.c ****  *   STATIC FUNCTIONS
 840:lvgl\src\lv_misc/lv_txt.c ****  **********************/
 841:lvgl\src\lv_misc/lv_txt.c **** 
 842:lvgl\src\lv_misc/lv_txt.c **** /**
 843:lvgl\src\lv_misc/lv_txt.c ****  * Test if char is break char or not (a text can broken here or not)
 844:lvgl\src\lv_misc/lv_txt.c ****  * @param letter a letter
 845:lvgl\src\lv_misc/lv_txt.c ****  * @return false: 'letter' is not break char
 846:lvgl\src\lv_misc/lv_txt.c ****  */
 847:lvgl\src\lv_misc/lv_txt.c **** static inline bool is_break_char(uint32_t letter)
 848:lvgl\src\lv_misc/lv_txt.c **** {
 849:lvgl\src\lv_misc/lv_txt.c ****     uint8_t i;
ARM GAS  C:\Users\strap\AppData\Local\Temp\ccCgIabb.s 			page 39


 850:lvgl\src\lv_misc/lv_txt.c ****     bool ret = false;
 851:lvgl\src\lv_misc/lv_txt.c **** 
 852:lvgl\src\lv_misc/lv_txt.c ****     /*Compare the letter to TXT_BREAK_CHARS*/
 853:lvgl\src\lv_misc/lv_txt.c ****     for(i = 0; LV_TXT_BREAK_CHARS[i] != '\0'; i++) {
 854:lvgl\src\lv_misc/lv_txt.c ****         if(letter == (uint32_t)LV_TXT_BREAK_CHARS[i]) {
 1025              		.loc 1 854 0 is_stmt 1
 1026 00bc 9442     		cmp	r4, r2
 1027 00be 07D0     		beq	.L99
 853:lvgl\src\lv_misc/lv_txt.c ****         if(letter == (uint32_t)LV_TXT_BREAK_CHARS[i]) {
 1028              		.loc 1 853 0
 1029 00c0 0133     		adds	r3, r3, #1
 1030              	.LVL139:
 1031 00c2 DBB2     		uxtb	r3, r3
 1032              	.LVL140:
 1033              	.L85:
 1034 00c4 224A     		ldr	r2, .L105+4
 1035 00c6 D25C     		ldrb	r2, [r2, r3]	@ zero_extendqisi2
 1036 00c8 002A     		cmp	r2, #0
 1037 00ca F7D1     		bne	.L87
 850:lvgl\src\lv_misc/lv_txt.c **** 
 1038              		.loc 1 850 0
 1039 00cc 0023     		movs	r3, #0
 1040              	.LVL141:
 1041 00ce 00E0     		b	.L86
 1042              	.LVL142:
 1043              	.L99:
 855:lvgl\src\lv_misc/lv_txt.c ****             ret = true; /*If match then it is break char*/
 1044              		.loc 1 855 0
 1045 00d0 0123     		movs	r3, #1
 1046              	.LVL143:
 1047              	.L86:
 1048              	.LBE20:
 1049              	.LBE19:
 223:lvgl\src\lv_misc/lv_txt.c ****             /* Update the output width on the first character if it fits.
 1050              		.loc 1 223 0
 1051 00d2 3BB1     		cbz	r3, .L88
 1052              	.L84:
 226:lvgl\src\lv_misc/lv_txt.c ****             word_len--;
 1053              		.loc 1 226 0
 1054 00d4 A6B9     		cbnz	r6, .L89
 226:lvgl\src\lv_misc/lv_txt.c ****             word_len--;
 1055              		.loc 1 226 0 is_stmt 0 discriminator 1
 1056 00d6 B9F1FF3F 		cmp	r9, #-1
 1057 00da 11D1     		bne	.L89
 226:lvgl\src\lv_misc/lv_txt.c ****             word_len--;
 1058              		.loc 1 226 0 discriminator 2
 1059 00dc 139B     		ldr	r3, [sp, #76]
 1060 00de 7BB1     		cbz	r3, .L89
 226:lvgl\src\lv_misc/lv_txt.c ****             word_len--;
 1061              		.loc 1 226 0 discriminator 3
 1062 00e0 1D60     		str	r5, [r3]
 1063 00e2 0DE0     		b	.L89
 1064              	.L88:
 232:lvgl\src\lv_misc/lv_txt.c **** 
 1065              		.loc 1 232 0 is_stmt 1
 1066 00e4 139B     		ldr	r3, [sp, #76]
 1067 00e6 1BB1     		cbz	r3, .L90
ARM GAS  C:\Users\strap\AppData\Local\Temp\ccCgIabb.s 			page 40


 232:lvgl\src\lv_misc/lv_txt.c **** 
 1068              		.loc 1 232 0 is_stmt 0 discriminator 1
 1069 00e8 B9F1FF3F 		cmp	r9, #-1
 1070 00ec 00D1     		bne	.L90
 232:lvgl\src\lv_misc/lv_txt.c **** 
 1071              		.loc 1 232 0 discriminator 2
 1072 00ee 1D60     		str	r5, [r3]
 1073              	.L90:
 235:lvgl\src\lv_misc/lv_txt.c ****         i_next = i_next_next;
 1074              		.loc 1 235 0 is_stmt 1
 1075 00f0 079E     		ldr	r6, [sp, #28]
 1076              	.LVL144:
 236:lvgl\src\lv_misc/lv_txt.c ****         letter = letter_next;
 1077              		.loc 1 236 0
 1078 00f2 069B     		ldr	r3, [sp, #24]
 1079 00f4 0793     		str	r3, [sp, #28]
 1080              	.LVL145:
 1081              	.L81:
 1082              	.LBB22:
 1083              	.LBB21:
 850:lvgl\src\lv_misc/lv_txt.c **** 
 1084              		.loc 1 850 0
 1085 00f6 D046     		mov	r8, r10
 1086 00f8 019C     		ldr	r4, [sp, #4]
 1087              	.LVL146:
 1088              	.L79:
 1089              	.LBE21:
 1090              	.LBE22:
 194:lvgl\src\lv_misc/lv_txt.c ****         letter_next = _lv_txt_encoded_next(txt, &i_next_next);
 1091              		.loc 1 194 0
 1092 00fa BB5D     		ldrb	r3, [r7, r6]	@ zero_extendqisi2
 1093 00fc 002B     		cmp	r3, #0
 1094 00fe ACD1     		bne	.L91
 1095              	.LVL147:
 1096              	.L89:
 241:lvgl\src\lv_misc/lv_txt.c ****         if(word_len == 0 || (letter == '\r' && letter_next == '\n')) i = i_next;
 1097              		.loc 1 241 0
 1098 0100 B9F1FF3F 		cmp	r9, #-1
 1099 0104 09D1     		bne	.L92
 242:lvgl\src\lv_misc/lv_txt.c ****         return i;
 1100              		.loc 1 242 0
 1101 0106 B8F1000F 		cmp	r8, #0
 1102 010a 04D0     		beq	.L93
 242:lvgl\src\lv_misc/lv_txt.c ****         return i;
 1103              		.loc 1 242 0 is_stmt 0 discriminator 2
 1104 010c 0D2C     		cmp	r4, #13
 1105 010e 12D1     		bne	.L100
 242:lvgl\src\lv_misc/lv_txt.c ****         return i;
 1106              		.loc 1 242 0 discriminator 3
 1107 0110 019B     		ldr	r3, [sp, #4]
 1108 0112 0A2B     		cmp	r3, #10
 1109 0114 11D1     		bne	.L101
 1110              	.L93:
 242:lvgl\src\lv_misc/lv_txt.c ****         return i;
 1111              		.loc 1 242 0 discriminator 4
 1112 0116 0798     		ldr	r0, [sp, #28]
 1113              	.LVL148:
ARM GAS  C:\Users\strap\AppData\Local\Temp\ccCgIabb.s 			page 41


 1114 0118 14E0     		b	.L77
 1115              	.LVL149:
 1116              	.L92:
 274:lvgl\src\lv_misc/lv_txt.c ****     if(word_w_ptr != NULL) *word_w_ptr = 0; /* Return no word */
 1117              		.loc 1 274 0 is_stmt 1
 1118 011a 059B     		ldr	r3, [sp, #20]
 1119 011c 7BB9     		cbnz	r3, .L102
 275:lvgl\src\lv_misc/lv_txt.c ****     (void) break_letter_count;
 1120              		.loc 1 275 0
 1121 011e 139B     		ldr	r3, [sp, #76]
 1122 0120 7BB1     		cbz	r3, .L103
 275:lvgl\src\lv_misc/lv_txt.c ****     (void) break_letter_count;
 1123              		.loc 1 275 0 is_stmt 0 discriminator 1
 1124 0122 0026     		movs	r6, #0
 1125              	.LVL150:
 1126 0124 1E60     		str	r6, [r3]
 277:lvgl\src\lv_misc/lv_txt.c **** #endif
 1127              		.loc 1 277 0 is_stmt 1 discriminator 1
 1128 0126 3046     		mov	r0, r6
 1129 0128 0CE0     		b	.L77
 1130              	.LVL151:
 1131              	.L94:
 176:lvgl\src\lv_misc/lv_txt.c ****     if(font == NULL) return 0;
 1132              		.loc 1 176 0
 1133 012a 0020     		movs	r0, #0
 1134              	.LVL152:
 1135 012c 0AE0     		b	.L77
 1136              	.LVL153:
 1137              	.L95:
 1138 012e 0020     		movs	r0, #0
 1139              	.LVL154:
 1140 0130 08E0     		b	.L77
 1141              	.LVL155:
 1142              	.L96:
 177:lvgl\src\lv_misc/lv_txt.c **** 
 1143              		.loc 1 177 0
 1144 0132 0020     		movs	r0, #0
 1145              	.LVL156:
 1146 0134 06E0     		b	.L77
 1147              	.LVL157:
 1148              	.L100:
 1149 0136 3046     		mov	r0, r6
 1150 0138 04E0     		b	.L77
 1151              	.LVL158:
 1152              	.L101:
 1153 013a 3046     		mov	r0, r6
 1154 013c 02E0     		b	.L77
 1155              	.LVL159:
 1156              	.L102:
 274:lvgl\src\lv_misc/lv_txt.c ****     if(word_w_ptr != NULL) *word_w_ptr = 0; /* Return no word */
 1157              		.loc 1 274 0
 1158 013e 4846     		mov	r0, r9
 1159 0140 00E0     		b	.L77
 1160              	.L103:
 277:lvgl\src\lv_misc/lv_txt.c **** #endif
 1161              		.loc 1 277 0
 1162 0142 0020     		movs	r0, #0
ARM GAS  C:\Users\strap\AppData\Local\Temp\ccCgIabb.s 			page 42


 1163              	.LVL160:
 1164              	.L77:
 279:lvgl\src\lv_misc/lv_txt.c **** 
 1165              		.loc 1 279 0
 1166 0144 09B0     		add	sp, sp, #36
 1167              		.cfi_def_cfa_offset 36
 1168              		@ sp needed
 1169 0146 BDE8F08F 		pop	{r4, r5, r6, r7, r8, r9, r10, fp, pc}
 1170              	.LVL161:
 1171              	.L106:
 1172 014a 00BF     		.align	2
 1173              	.L105:
 1174 014c 00000000 		.word	.LANCHOR0
 1175 0150 00000000 		.word	.LC0
 1176              		.cfi_endproc
 1177              	.LFE6:
 1178              		.size	lv_txt_get_next_word, .-lv_txt_get_next_word
 1179              		.section	.text._lv_txt_get_next_line,"ax",%progbits
 1180              		.align	2
 1181              		.global	_lv_txt_get_next_line
 1182              		.thumb
 1183              		.thumb_func
 1184              		.type	_lv_txt_get_next_line, %function
 1185              	_lv_txt_get_next_line:
 1186              	.LFB7:
 295:lvgl\src\lv_misc/lv_txt.c ****     if(txt == NULL) return 0;
 1187              		.loc 1 295 0
 1188              		.cfi_startproc
 1189              		@ args = 4, pretend = 0, frame = 16
 1190              		@ frame_needed = 0, uses_anonymous_args = 0
 1191              	.LVL162:
 1192 0000 2DE9F041 		push	{r4, r5, r6, r7, r8, lr}
 1193              		.cfi_def_cfa_offset 24
 1194              		.cfi_offset 4, -24
 1195              		.cfi_offset 5, -20
 1196              		.cfi_offset 6, -16
 1197              		.cfi_offset 7, -12
 1198              		.cfi_offset 8, -8
 1199              		.cfi_offset 14, -4
 1200 0004 88B0     		sub	sp, sp, #32
 1201              		.cfi_def_cfa_offset 56
 1202 0006 9DF83860 		ldrb	r6, [sp, #56]	@ zero_extendqisi2
 296:lvgl\src\lv_misc/lv_txt.c ****     if(font == NULL) return 0;
 1203              		.loc 1 296 0
 1204 000a 0028     		cmp	r0, #0
 1205 000c 5ED0     		beq	.L122
 1206 000e 0F46     		mov	r7, r1
 1207 0010 9046     		mov	r8, r2
 1208 0012 1D46     		mov	r5, r3
 1209 0014 0446     		mov	r4, r0
 297:lvgl\src\lv_misc/lv_txt.c **** 
 1210              		.loc 1 297 0
 1211 0016 0029     		cmp	r1, #0
 1212 0018 5AD0     		beq	.L123
 301:lvgl\src\lv_misc/lv_txt.c ****         uint32_t i;
 1213              		.loc 1 301 0
 1214 001a 16F0120F 		tst	r6, #18
ARM GAS  C:\Users\strap\AppData\Local\Temp\ccCgIabb.s 			page 43


 1215 001e 02D1     		bne	.L124
 1216 0020 0DE0     		b	.L127
 1217              	.LVL163:
 1218              	.L112:
 1219              	.LBB23:
 303:lvgl\src\lv_misc/lv_txt.c ****             /*Just find the new line chars or string ends by incrementing `i`*/
 1220              		.loc 1 303 0 discriminator 5
 1221 0022 0130     		adds	r0, r0, #1
 1222              	.LVL164:
 1223 0024 00E0     		b	.L109
 1224              	.LVL165:
 1225              	.L124:
 1226              	.LBE23:
 1227 0026 0020     		movs	r0, #0
 1228              	.LVL166:
 1229              	.L109:
 1230              	.LBB24:
 303:lvgl\src\lv_misc/lv_txt.c ****             /*Just find the new line chars or string ends by incrementing `i`*/
 1231              		.loc 1 303 0 is_stmt 0 discriminator 1
 1232 0028 235C     		ldrb	r3, [r4, r0]	@ zero_extendqisi2
 1233 002a 0A2B     		cmp	r3, #10
 1234 002c 03D0     		beq	.L111
 303:lvgl\src\lv_misc/lv_txt.c ****             /*Just find the new line chars or string ends by incrementing `i`*/
 1235              		.loc 1 303 0 discriminator 3
 1236 002e 0D2B     		cmp	r3, #13
 1237 0030 01D0     		beq	.L111
 303:lvgl\src\lv_misc/lv_txt.c ****             /*Just find the new line chars or string ends by incrementing `i`*/
 1238              		.loc 1 303 0 discriminator 4
 1239 0032 002B     		cmp	r3, #0
 1240 0034 F5D1     		bne	.L112
 1241              	.L111:
 306:lvgl\src\lv_misc/lv_txt.c ****         return i;
 1242              		.loc 1 306 0 is_stmt 1
 1243 0036 002B     		cmp	r3, #0
 1244 0038 4BD0     		beq	.L108
 306:lvgl\src\lv_misc/lv_txt.c ****         return i;
 1245              		.loc 1 306 0 is_stmt 0 discriminator 1
 1246 003a 0130     		adds	r0, r0, #1
 1247              	.LVL167:
 1248 003c 49E0     		b	.L108
 1249              	.LVL168:
 1250              	.L127:
 1251              	.LBE24:
 310:lvgl\src\lv_misc/lv_txt.c ****     lv_txt_cmd_state_t cmd_state = LV_TXT_CMD_STATE_WAIT;
 1252              		.loc 1 310 0 is_stmt 1
 1253 003e 16F0020F 		tst	r6, #2
 1254 0042 01D0     		beq	.L113
 1255 0044 47F61845 		movw	r5, #31768
 1256              	.L113:
 1257              	.LVL169:
 311:lvgl\src\lv_misc/lv_txt.c ****     uint32_t i = 0;                                        /* Iterating index into txt */
 1258              		.loc 1 311 0
 1259 0048 0023     		movs	r3, #0
 1260 004a 8DF81F30 		strb	r3, [sp, #31]
 312:lvgl\src\lv_misc/lv_txt.c **** 
 1261              		.loc 1 312 0
 1262 004e 0693     		str	r3, [sp, #24]
ARM GAS  C:\Users\strap\AppData\Local\Temp\ccCgIabb.s 			page 44


 314:lvgl\src\lv_misc/lv_txt.c ****         uint32_t word_w = 0;
 1263              		.loc 1 314 0
 1264 0050 2DE0     		b	.L114
 1265              	.LVL170:
 1266              	.L120:
 1267              	.LBB25:
 315:lvgl\src\lv_misc/lv_txt.c ****         uint32_t advance = lv_txt_get_next_word(&txt[i], font, letter_space, max_width, flag, &word
 1268              		.loc 1 315 0
 1269 0052 0022     		movs	r2, #0
 1270 0054 0592     		str	r2, [sp, #20]
 316:lvgl\src\lv_misc/lv_txt.c ****         max_width -= word_w;
 1271              		.loc 1 316 0
 1272 0056 B3FA83F3 		clz	r3, r3
 1273 005a 5B09     		lsrs	r3, r3, #5
 1274 005c 0393     		str	r3, [sp, #12]
 1275 005e 0DF11F03 		add	r3, sp, #31
 1276 0062 0293     		str	r3, [sp, #8]
 1277 0064 05AB     		add	r3, sp, #20
 1278 0066 0193     		str	r3, [sp, #4]
 1279 0068 0096     		str	r6, [sp]
 1280 006a 2B46     		mov	r3, r5
 1281 006c 4246     		mov	r2, r8
 1282 006e 3946     		mov	r1, r7
 1283 0070 FFF7FEFF 		bl	lv_txt_get_next_word
 1284              	.LVL171:
 317:lvgl\src\lv_misc/lv_txt.c **** 
 1285              		.loc 1 317 0
 1286 0074 059B     		ldr	r3, [sp, #20]
 1287 0076 ED1A     		subs	r5, r5, r3
 1288              	.LVL172:
 1289 0078 2DB2     		sxth	r5, r5
 1290              	.LVL173:
 319:lvgl\src\lv_misc/lv_txt.c ****             if(i == 0) _lv_txt_encoded_next(txt, &i); // prevent inf loops
 1291              		.loc 1 319 0
 1292 007a 0346     		mov	r3, r0
 1293 007c 38B9     		cbnz	r0, .L115
 320:lvgl\src\lv_misc/lv_txt.c ****             break;
 1294              		.loc 1 320 0
 1295 007e 069B     		ldr	r3, [sp, #24]
 1296 0080 DBB9     		cbnz	r3, .L119
 320:lvgl\src\lv_misc/lv_txt.c ****             break;
 1297              		.loc 1 320 0 is_stmt 0 discriminator 1
 1298 0082 154B     		ldr	r3, .L129
 1299 0084 5B68     		ldr	r3, [r3, #4]
 1300 0086 06A9     		add	r1, sp, #24
 1301 0088 2046     		mov	r0, r4
 1302              	.LVL174:
 1303 008a 9847     		blx	r3
 1304              	.LVL175:
 1305 008c 15E0     		b	.L119
 1306              	.LVL176:
 1307              	.L115:
 324:lvgl\src\lv_misc/lv_txt.c **** 
 1308              		.loc 1 324 0 is_stmt 1
 1309 008e 0698     		ldr	r0, [sp, #24]
 1310              	.LVL177:
 1311 0090 1844     		add	r0, r0, r3
ARM GAS  C:\Users\strap\AppData\Local\Temp\ccCgIabb.s 			page 45


 1312 0092 0690     		str	r0, [sp, #24]
 326:lvgl\src\lv_misc/lv_txt.c **** 
 1313              		.loc 1 326 0
 1314 0094 2378     		ldrb	r3, [r4]	@ zero_extendqisi2
 1315              	.LVL178:
 1316 0096 0A2B     		cmp	r3, #10
 1317 0098 0FD0     		beq	.L119
 326:lvgl\src\lv_misc/lv_txt.c **** 
 1318              		.loc 1 326 0 is_stmt 0 discriminator 1
 1319 009a 0D2B     		cmp	r3, #13
 1320 009c 0DD0     		beq	.L119
 328:lvgl\src\lv_misc/lv_txt.c ****             i++;  /* Include the following newline in the current line */
 1321              		.loc 1 328 0 is_stmt 1
 1322 009e 235C     		ldrb	r3, [r4, r0]	@ zero_extendqisi2
 1323 00a0 0A2B     		cmp	r3, #10
 1324 00a2 01D0     		beq	.L117
 328:lvgl\src\lv_misc/lv_txt.c ****             i++;  /* Include the following newline in the current line */
 1325              		.loc 1 328 0 is_stmt 0 discriminator 1
 1326 00a4 0D2B     		cmp	r3, #13
 1327 00a6 02D1     		bne	.L114
 1328              	.L117:
 329:lvgl\src\lv_misc/lv_txt.c ****             break;
 1329              		.loc 1 329 0 is_stmt 1
 1330 00a8 0130     		adds	r0, r0, #1
 1331 00aa 0690     		str	r0, [sp, #24]
 330:lvgl\src\lv_misc/lv_txt.c ****         }
 1332              		.loc 1 330 0
 1333 00ac 05E0     		b	.L119
 1334              	.L114:
 1335              	.LBE25:
 314:lvgl\src\lv_misc/lv_txt.c ****         uint32_t word_w = 0;
 1336              		.loc 1 314 0
 1337 00ae 069B     		ldr	r3, [sp, #24]
 1338 00b0 E018     		adds	r0, r4, r3
 1339 00b2 E25C     		ldrb	r2, [r4, r3]	@ zero_extendqisi2
 1340 00b4 0AB1     		cbz	r2, .L119
 314:lvgl\src\lv_misc/lv_txt.c ****         uint32_t word_w = 0;
 1341              		.loc 1 314 0 is_stmt 0 discriminator 1
 1342 00b6 002D     		cmp	r5, #0
 1343 00b8 CBDC     		bgt	.L120
 1344              	.L119:
 336:lvgl\src\lv_misc/lv_txt.c ****         _lv_txt_encoded_next(txt, &i);
 1345              		.loc 1 336 0 is_stmt 1
 1346 00ba 069B     		ldr	r3, [sp, #24]
 1347 00bc 23B9     		cbnz	r3, .L121
 337:lvgl\src\lv_misc/lv_txt.c ****     }
 1348              		.loc 1 337 0
 1349 00be 064B     		ldr	r3, .L129
 1350 00c0 5B68     		ldr	r3, [r3, #4]
 1351 00c2 06A9     		add	r1, sp, #24
 1352 00c4 2046     		mov	r0, r4
 1353 00c6 9847     		blx	r3
 1354              	.LVL179:
 1355              	.L121:
 340:lvgl\src\lv_misc/lv_txt.c **** }
 1356              		.loc 1 340 0
 1357 00c8 0698     		ldr	r0, [sp, #24]
ARM GAS  C:\Users\strap\AppData\Local\Temp\ccCgIabb.s 			page 46


 1358 00ca 02E0     		b	.L108
 1359              	.LVL180:
 1360              	.L122:
 296:lvgl\src\lv_misc/lv_txt.c ****     if(font == NULL) return 0;
 1361              		.loc 1 296 0
 1362 00cc 0020     		movs	r0, #0
 1363              	.LVL181:
 1364 00ce 00E0     		b	.L108
 1365              	.LVL182:
 1366              	.L123:
 297:lvgl\src\lv_misc/lv_txt.c **** 
 1367              		.loc 1 297 0
 1368 00d0 0020     		movs	r0, #0
 1369              	.LVL183:
 1370              	.L108:
 341:lvgl\src\lv_misc/lv_txt.c **** 
 1371              		.loc 1 341 0
 1372 00d2 08B0     		add	sp, sp, #32
 1373              		.cfi_def_cfa_offset 24
 1374              		@ sp needed
 1375 00d4 BDE8F081 		pop	{r4, r5, r6, r7, r8, pc}
 1376              	.LVL184:
 1377              	.L130:
 1378              		.align	2
 1379              	.L129:
 1380 00d8 00000000 		.word	.LANCHOR0
 1381              		.cfi_endproc
 1382              	.LFE7:
 1383              		.size	_lv_txt_get_next_line, .-_lv_txt_get_next_line
 1384              		.section	.text._lv_txt_get_width,"ax",%progbits
 1385              		.align	2
 1386              		.global	_lv_txt_get_width
 1387              		.thumb
 1388              		.thumb_func
 1389              		.type	_lv_txt_get_width, %function
 1390              	_lv_txt_get_width:
 1391              	.LFB8:
 355:lvgl\src\lv_misc/lv_txt.c ****     if(txt == NULL) return 0;
 1392              		.loc 1 355 0
 1393              		.cfi_startproc
 1394              		@ args = 4, pretend = 0, frame = 8
 1395              		@ frame_needed = 0, uses_anonymous_args = 0
 1396              	.LVL185:
 1397 0000 2DE9F04F 		push	{r4, r5, r6, r7, r8, r9, r10, fp, lr}
 1398              		.cfi_def_cfa_offset 36
 1399              		.cfi_offset 4, -36
 1400              		.cfi_offset 5, -32
 1401              		.cfi_offset 6, -28
 1402              		.cfi_offset 7, -24
 1403              		.cfi_offset 8, -20
 1404              		.cfi_offset 9, -16
 1405              		.cfi_offset 10, -12
 1406              		.cfi_offset 11, -8
 1407              		.cfi_offset 14, -4
 1408 0004 83B0     		sub	sp, sp, #12
 1409              		.cfi_def_cfa_offset 48
 1410 0006 9DF83080 		ldrb	r8, [sp, #48]	@ zero_extendqisi2
ARM GAS  C:\Users\strap\AppData\Local\Temp\ccCgIabb.s 			page 47


 356:lvgl\src\lv_misc/lv_txt.c ****     if(font == NULL) return 0;
 1411              		.loc 1 356 0
 1412 000a 0028     		cmp	r0, #0
 1413 000c 3BD0     		beq	.L137
 1414 000e 0546     		mov	r5, r0
 357:lvgl\src\lv_misc/lv_txt.c **** 
 1415              		.loc 1 357 0
 1416 0010 002A     		cmp	r2, #0
 1417 0012 3AD0     		beq	.L138
 359:lvgl\src\lv_misc/lv_txt.c ****     lv_coord_t width             = 0;
 1418              		.loc 1 359 0
 1419 0014 0020     		movs	r0, #0
 1420              	.LVL186:
 1421 0016 0190     		str	r0, [sp, #4]
 1422              	.LVL187:
 361:lvgl\src\lv_misc/lv_txt.c **** 
 1423              		.loc 1 361 0
 1424 0018 8DF80300 		strb	r0, [sp, #3]
 363:lvgl\src\lv_misc/lv_txt.c ****         while(i < length) {
 1425              		.loc 1 363 0
 1426 001c 21BB     		cbnz	r1, .L139
 1427 001e 37E0     		b	.L132
 1428              	.LVL188:
 1429              	.L136:
 1430              	.LBB26:
 365:lvgl\src\lv_misc/lv_txt.c ****             uint32_t letter_next = _lv_txt_encoded_next(&txt[i], NULL);
 1431              		.loc 1 365 0
 1432 0020 1D4C     		ldr	r4, .L142
 1433 0022 6368     		ldr	r3, [r4, #4]
 1434 0024 01A9     		add	r1, sp, #4
 1435 0026 2846     		mov	r0, r5
 1436 0028 9847     		blx	r3
 1437              	.LVL189:
 1438 002a 8346     		mov	fp, r0
 1439              	.LVL190:
 366:lvgl\src\lv_misc/lv_txt.c ****             if((flag & LV_TXT_FLAG_RECOLOR) != 0) {
 1440              		.loc 1 366 0
 1441 002c 6368     		ldr	r3, [r4, #4]
 1442 002e 0021     		movs	r1, #0
 1443 0030 0198     		ldr	r0, [sp, #4]
 1444              	.LVL191:
 1445 0032 2844     		add	r0, r0, r5
 1446 0034 9847     		blx	r3
 1447              	.LVL192:
 1448 0036 0446     		mov	r4, r0
 1449              	.LVL193:
 367:lvgl\src\lv_misc/lv_txt.c ****                 if(_lv_txt_is_cmd(&cmd_state, letter) != false) {
 1450              		.loc 1 367 0
 1451 0038 18F0010F 		tst	r8, #1
 1452 003c 05D0     		beq	.L134
 368:lvgl\src\lv_misc/lv_txt.c ****                     continue;
 1453              		.loc 1 368 0
 1454 003e 5946     		mov	r1, fp
 1455 0040 0DF10300 		add	r0, sp, #3
 1456              	.LVL194:
 1457 0044 FFF7FEFF 		bl	_lv_txt_is_cmd
 1458              	.LVL195:
ARM GAS  C:\Users\strap\AppData\Local\Temp\ccCgIabb.s 			page 48


 1459 0048 98B9     		cbnz	r0, .L133
 1460              	.L134:
 373:lvgl\src\lv_misc/lv_txt.c ****             if(char_width > 0) {
 1461              		.loc 1 373 0
 1462 004a 2246     		mov	r2, r4
 1463 004c 5946     		mov	r1, fp
 1464 004e 3846     		mov	r0, r7
 1465 0050 FFF7FEFF 		bl	lv_font_get_glyph_width
 1466              	.LVL196:
 1467 0054 03B2     		sxth	r3, r0
 1468              	.LVL197:
 374:lvgl\src\lv_misc/lv_txt.c ****                 width += char_width;
 1469              		.loc 1 374 0
 1470 0056 002B     		cmp	r3, #0
 1471 0058 0BDD     		ble	.L133
 375:lvgl\src\lv_misc/lv_txt.c ****                 width += letter_space;
 1472              		.loc 1 375 0
 1473 005a 00EB0A04 		add	r4, r0, r10
 1474              	.LVL198:
 1475 005e A4B2     		uxth	r4, r4
 1476              	.LVL199:
 376:lvgl\src\lv_misc/lv_txt.c ****             }
 1477              		.loc 1 376 0
 1478 0060 4C44     		add	r4, r4, r9
 1479              	.LVL200:
 1480 0062 0FFA84FA 		sxth	r10, r4
 1481              	.LVL201:
 1482 0066 04E0     		b	.L133
 1483              	.LVL202:
 1484              	.L139:
 1485 0068 9946     		mov	r9, r3
 1486 006a 1746     		mov	r7, r2
 1487 006c 0E46     		mov	r6, r1
 1488              	.LBE26:
 1489 006e 4FF0000A 		mov	r10, #0
 1490              	.LVL203:
 1491              	.L133:
 364:lvgl\src\lv_misc/lv_txt.c ****             uint32_t letter      = _lv_txt_encoded_next(txt, &i);
 1492              		.loc 1 364 0
 1493 0072 019B     		ldr	r3, [sp, #4]
 1494 0074 9E42     		cmp	r6, r3
 1495 0076 D3D8     		bhi	.L136
 380:lvgl\src\lv_misc/lv_txt.c ****             width -= letter_space; /*Trim the last letter space. Important if the text is center
 1496              		.loc 1 380 0
 1497 0078 BAF1000F 		cmp	r10, #0
 1498 007c 07DD     		ble	.L140
 381:lvgl\src\lv_misc/lv_txt.c ****                                       aligned */
 1499              		.loc 1 381 0
 1500 007e C9EB0A04 		rsb	r4, r9, r10
 1501 0082 20B2     		sxth	r0, r4
 1502              	.LVL204:
 1503 0084 04E0     		b	.L132
 1504              	.LVL205:
 1505              	.L137:
 356:lvgl\src\lv_misc/lv_txt.c ****     if(font == NULL) return 0;
 1506              		.loc 1 356 0
 1507 0086 0020     		movs	r0, #0
ARM GAS  C:\Users\strap\AppData\Local\Temp\ccCgIabb.s 			page 49


 1508              	.LVL206:
 1509 0088 02E0     		b	.L132
 1510              	.LVL207:
 1511              	.L138:
 357:lvgl\src\lv_misc/lv_txt.c **** 
 1512              		.loc 1 357 0
 1513 008a 0020     		movs	r0, #0
 1514              	.LVL208:
 1515 008c 00E0     		b	.L132
 1516              	.LVL209:
 1517              	.L140:
 1518 008e 5046     		mov	r0, r10
 1519              	.LVL210:
 1520              	.L132:
 387:lvgl\src\lv_misc/lv_txt.c **** 
 1521              		.loc 1 387 0
 1522 0090 03B0     		add	sp, sp, #12
 1523              		.cfi_def_cfa_offset 36
 1524              		@ sp needed
 1525 0092 BDE8F08F 		pop	{r4, r5, r6, r7, r8, r9, r10, fp, pc}
 1526              	.LVL211:
 1527              	.L143:
 1528 0096 00BF     		.align	2
 1529              	.L142:
 1530 0098 00000000 		.word	.LANCHOR0
 1531              		.cfi_endproc
 1532              	.LFE8:
 1533              		.size	_lv_txt_get_width, .-_lv_txt_get_width
 1534              		.section	.text._lv_txt_get_size,"ax",%progbits
 1535              		.align	2
 1536              		.global	_lv_txt_get_size
 1537              		.thumb
 1538              		.thumb_func
 1539              		.type	_lv_txt_get_size, %function
 1540              	_lv_txt_get_size:
 1541              	.LFB5:
  95:lvgl\src\lv_misc/lv_txt.c ****     size_res->x = 0;
 1542              		.loc 1 95 0
 1543              		.cfi_startproc
 1544              		@ args = 12, pretend = 0, frame = 16
 1545              		@ frame_needed = 0, uses_anonymous_args = 0
 1546              	.LVL212:
 1547 0000 2DE9F04F 		push	{r4, r5, r6, r7, r8, r9, r10, fp, lr}
 1548              		.cfi_def_cfa_offset 36
 1549              		.cfi_offset 4, -36
 1550              		.cfi_offset 5, -32
 1551              		.cfi_offset 6, -28
 1552              		.cfi_offset 7, -24
 1553              		.cfi_offset 8, -20
 1554              		.cfi_offset 9, -16
 1555              		.cfi_offset 10, -12
 1556              		.cfi_offset 11, -8
 1557              		.cfi_offset 14, -4
 1558 0004 87B0     		sub	sp, sp, #28
 1559              		.cfi_def_cfa_offset 64
 1560 0006 BDF940A0 		ldrsh	r10, [sp, #64]
 1561 000a BDF94440 		ldrsh	r4, [sp, #68]
ARM GAS  C:\Users\strap\AppData\Local\Temp\ccCgIabb.s 			page 50


 1562 000e 0494     		str	r4, [sp, #16]
 1563 0010 9DF84870 		ldrb	r7, [sp, #72]	@ zero_extendqisi2
  96:lvgl\src\lv_misc/lv_txt.c ****     size_res->y = 0;
 1564              		.loc 1 96 0
 1565 0014 0024     		movs	r4, #0
 1566 0016 0480     		strh	r4, [r0]	@ movhi
  97:lvgl\src\lv_misc/lv_txt.c **** 
 1567              		.loc 1 97 0
 1568 0018 4480     		strh	r4, [r0, #2]	@ movhi
  99:lvgl\src\lv_misc/lv_txt.c ****     if(font == NULL) return;
 1569              		.loc 1 99 0
 1570 001a 0029     		cmp	r1, #0
 1571 001c 51D0     		beq	.L144
 1572 001e 8846     		mov	r8, r1
 100:lvgl\src\lv_misc/lv_txt.c **** 
 1573              		.loc 1 100 0
 1574 0020 002A     		cmp	r2, #0
 1575 0022 4ED0     		beq	.L144
 102:lvgl\src\lv_misc/lv_txt.c **** 
 1576              		.loc 1 102 0
 1577 0024 17F0020F 		tst	r7, #2
 1578 0028 02D0     		beq	.L146
 1579 002a 47F61841 		movw	r1, #31768
 1580              	.LVL213:
 1581 002e 0491     		str	r1, [sp, #16]
 1582              	.L146:
 1583 0030 0393     		str	r3, [sp, #12]
 1584 0032 9146     		mov	r9, r2
 1585 0034 0446     		mov	r4, r0
 1586              	.LVL214:
 1587              	.LBB27:
 1588              	.LBB28:
 1589              		.file 3 "lvgl\\src\\lv_misc\\../lv_font/lv_font.h"
   1:lvgl\src\lv_misc\../lv_font/lv_font.h **** /**
   2:lvgl\src\lv_misc\../lv_font/lv_font.h ****  * @file lv_font.h
   3:lvgl\src\lv_misc\../lv_font/lv_font.h ****  *
   4:lvgl\src\lv_misc\../lv_font/lv_font.h ****  */
   5:lvgl\src\lv_misc\../lv_font/lv_font.h **** 
   6:lvgl\src\lv_misc\../lv_font/lv_font.h **** #ifndef LV_FONT_H
   7:lvgl\src\lv_misc\../lv_font/lv_font.h **** #define LV_FONT_H
   8:lvgl\src\lv_misc\../lv_font/lv_font.h **** 
   9:lvgl\src\lv_misc\../lv_font/lv_font.h **** #ifdef __cplusplus
  10:lvgl\src\lv_misc\../lv_font/lv_font.h **** extern "C" {
  11:lvgl\src\lv_misc\../lv_font/lv_font.h **** #endif
  12:lvgl\src\lv_misc\../lv_font/lv_font.h **** 
  13:lvgl\src\lv_misc\../lv_font/lv_font.h **** /*********************
  14:lvgl\src\lv_misc\../lv_font/lv_font.h ****  *      INCLUDES
  15:lvgl\src\lv_misc\../lv_font/lv_font.h ****  *********************/
  16:lvgl\src\lv_misc\../lv_font/lv_font.h **** #include "../lv_conf_internal.h"
  17:lvgl\src\lv_misc\../lv_font/lv_font.h **** #include <stdint.h>
  18:lvgl\src\lv_misc\../lv_font/lv_font.h **** #include <stddef.h>
  19:lvgl\src\lv_misc\../lv_font/lv_font.h **** #include <stdbool.h>
  20:lvgl\src\lv_misc\../lv_font/lv_font.h **** 
  21:lvgl\src\lv_misc\../lv_font/lv_font.h **** #include "lv_symbol_def.h"
  22:lvgl\src\lv_misc\../lv_font/lv_font.h **** #include "../lv_misc/lv_area.h"
  23:lvgl\src\lv_misc\../lv_font/lv_font.h **** 
  24:lvgl\src\lv_misc\../lv_font/lv_font.h **** /*********************
ARM GAS  C:\Users\strap\AppData\Local\Temp\ccCgIabb.s 			page 51


  25:lvgl\src\lv_misc\../lv_font/lv_font.h ****  *      DEFINES
  26:lvgl\src\lv_misc\../lv_font/lv_font.h ****  *********************/
  27:lvgl\src\lv_misc\../lv_font/lv_font.h **** /*Number of fractional digits in the advanced width (`adv_w`) field of `lv_font_glyph_dsc_t`*/
  28:lvgl\src\lv_misc\../lv_font/lv_font.h **** #define LV_FONT_WIDTH_FRACT_DIGIT       4
  29:lvgl\src\lv_misc\../lv_font/lv_font.h **** 
  30:lvgl\src\lv_misc\../lv_font/lv_font.h **** #define LV_FONT_KERN_POSITIVE        0
  31:lvgl\src\lv_misc\../lv_font/lv_font.h **** #define LV_FONT_KERN_NEGATIVE        1
  32:lvgl\src\lv_misc\../lv_font/lv_font.h **** 
  33:lvgl\src\lv_misc\../lv_font/lv_font.h **** /**********************
  34:lvgl\src\lv_misc\../lv_font/lv_font.h ****  *      TYPEDEFS
  35:lvgl\src\lv_misc\../lv_font/lv_font.h ****  **********************/
  36:lvgl\src\lv_misc\../lv_font/lv_font.h **** 
  37:lvgl\src\lv_misc\../lv_font/lv_font.h **** /*------------------
  38:lvgl\src\lv_misc\../lv_font/lv_font.h ****  * General types
  39:lvgl\src\lv_misc\../lv_font/lv_font.h ****  *-----------------*/
  40:lvgl\src\lv_misc\../lv_font/lv_font.h **** 
  41:lvgl\src\lv_misc\../lv_font/lv_font.h **** /** Describes the properties of a glyph. */
  42:lvgl\src\lv_misc\../lv_font/lv_font.h **** typedef struct {
  43:lvgl\src\lv_misc\../lv_font/lv_font.h ****     uint16_t adv_w; /**< The glyph needs this space. Draw the next glyph after this width. 8 bit in
  44:lvgl\src\lv_misc\../lv_font/lv_font.h ****     uint16_t box_w;  /**< Width of the glyph's bounding box*/
  45:lvgl\src\lv_misc\../lv_font/lv_font.h ****     uint16_t box_h;  /**< Height of the glyph's bounding box*/
  46:lvgl\src\lv_misc\../lv_font/lv_font.h ****     int16_t ofs_x;   /**< x offset of the bounding box*/
  47:lvgl\src\lv_misc\../lv_font/lv_font.h ****     int16_t ofs_y;  /**< y offset of the bounding box*/
  48:lvgl\src\lv_misc\../lv_font/lv_font.h ****     uint8_t bpp;   /**< Bit-per-pixel: 1, 2, 4, 8*/
  49:lvgl\src\lv_misc\../lv_font/lv_font.h **** } lv_font_glyph_dsc_t;
  50:lvgl\src\lv_misc\../lv_font/lv_font.h **** 
  51:lvgl\src\lv_misc\../lv_font/lv_font.h **** 
  52:lvgl\src\lv_misc\../lv_font/lv_font.h **** /** The bitmaps might be upscaled by 3 to achieve subpixel rendering. */
  53:lvgl\src\lv_misc\../lv_font/lv_font.h **** enum {
  54:lvgl\src\lv_misc\../lv_font/lv_font.h ****     LV_FONT_SUBPX_NONE,
  55:lvgl\src\lv_misc\../lv_font/lv_font.h ****     LV_FONT_SUBPX_HOR,
  56:lvgl\src\lv_misc\../lv_font/lv_font.h ****     LV_FONT_SUBPX_VER,
  57:lvgl\src\lv_misc\../lv_font/lv_font.h ****     LV_FONT_SUBPX_BOTH,
  58:lvgl\src\lv_misc\../lv_font/lv_font.h **** };
  59:lvgl\src\lv_misc\../lv_font/lv_font.h **** 
  60:lvgl\src\lv_misc\../lv_font/lv_font.h **** typedef uint8_t lv_font_subpx_t;
  61:lvgl\src\lv_misc\../lv_font/lv_font.h **** 
  62:lvgl\src\lv_misc\../lv_font/lv_font.h **** /** Describe the properties of a font*/
  63:lvgl\src\lv_misc\../lv_font/lv_font.h **** typedef struct _lv_font_struct {
  64:lvgl\src\lv_misc\../lv_font/lv_font.h ****     /** Get a glyph's  descriptor from a font*/
  65:lvgl\src\lv_misc\../lv_font/lv_font.h ****     bool (*get_glyph_dsc)(const struct _lv_font_struct *, lv_font_glyph_dsc_t *, uint32_t letter, u
  66:lvgl\src\lv_misc\../lv_font/lv_font.h **** 
  67:lvgl\src\lv_misc\../lv_font/lv_font.h ****     /** Get a glyph's bitmap from a font*/
  68:lvgl\src\lv_misc\../lv_font/lv_font.h ****     const uint8_t * (*get_glyph_bitmap)(const struct _lv_font_struct *, uint32_t);
  69:lvgl\src\lv_misc\../lv_font/lv_font.h **** 
  70:lvgl\src\lv_misc\../lv_font/lv_font.h ****     /*Pointer to the font in a font pack (must have the same line height)*/
  71:lvgl\src\lv_misc\../lv_font/lv_font.h ****     lv_coord_t line_height;         /**< The real line height where any text fits*/
  72:lvgl\src\lv_misc\../lv_font/lv_font.h ****     lv_coord_t base_line;           /**< Base line measured from the top of the line_height*/
  73:lvgl\src\lv_misc\../lv_font/lv_font.h ****     uint8_t subpx  : 2;             /**< An element of `lv_font_subpx_t`*/
  74:lvgl\src\lv_misc\../lv_font/lv_font.h **** 
  75:lvgl\src\lv_misc\../lv_font/lv_font.h ****     int8_t underline_position;      /**< Distance between the top of the underline and base line (<
  76:lvgl\src\lv_misc\../lv_font/lv_font.h ****     int8_t  underline_thickness;     /**< Thickness of the underline*/
  77:lvgl\src\lv_misc\../lv_font/lv_font.h **** 
  78:lvgl\src\lv_misc\../lv_font/lv_font.h ****     void * dsc;                     /**< Store implementation specific or run_time data or caching 
  79:lvgl\src\lv_misc\../lv_font/lv_font.h **** #if LV_USE_USER_DATA
  80:lvgl\src\lv_misc\../lv_font/lv_font.h ****     lv_font_user_data_t user_data;  /**< Custom user data for font. */
  81:lvgl\src\lv_misc\../lv_font/lv_font.h **** #endif
ARM GAS  C:\Users\strap\AppData\Local\Temp\ccCgIabb.s 			page 52


  82:lvgl\src\lv_misc\../lv_font/lv_font.h **** 
  83:lvgl\src\lv_misc\../lv_font/lv_font.h **** 
  84:lvgl\src\lv_misc\../lv_font/lv_font.h **** } lv_font_t;
  85:lvgl\src\lv_misc\../lv_font/lv_font.h **** 
  86:lvgl\src\lv_misc\../lv_font/lv_font.h **** /**********************
  87:lvgl\src\lv_misc\../lv_font/lv_font.h ****  * GLOBAL PROTOTYPES
  88:lvgl\src\lv_misc\../lv_font/lv_font.h ****  **********************/
  89:lvgl\src\lv_misc\../lv_font/lv_font.h **** 
  90:lvgl\src\lv_misc\../lv_font/lv_font.h **** /**
  91:lvgl\src\lv_misc\../lv_font/lv_font.h ****  * Return with the bitmap of a font.
  92:lvgl\src\lv_misc\../lv_font/lv_font.h ****  * @param font_p pointer to a font
  93:lvgl\src\lv_misc\../lv_font/lv_font.h ****  * @param letter an UNICODE character code
  94:lvgl\src\lv_misc\../lv_font/lv_font.h ****  * @return  pointer to the bitmap of the letter
  95:lvgl\src\lv_misc\../lv_font/lv_font.h ****  */
  96:lvgl\src\lv_misc\../lv_font/lv_font.h **** const uint8_t * lv_font_get_glyph_bitmap(const lv_font_t * font_p, uint32_t letter);
  97:lvgl\src\lv_misc\../lv_font/lv_font.h **** 
  98:lvgl\src\lv_misc\../lv_font/lv_font.h **** /**
  99:lvgl\src\lv_misc\../lv_font/lv_font.h ****  * Get the descriptor of a glyph
 100:lvgl\src\lv_misc\../lv_font/lv_font.h ****  * @param font_p pointer to font
 101:lvgl\src\lv_misc\../lv_font/lv_font.h ****  * @param dsc_out store the result descriptor here
 102:lvgl\src\lv_misc\../lv_font/lv_font.h ****  * @param letter an UNICODE letter code
 103:lvgl\src\lv_misc\../lv_font/lv_font.h ****  * @return true: descriptor is successfully loaded into `dsc_out`.
 104:lvgl\src\lv_misc\../lv_font/lv_font.h ****  *         false: the letter was not found, no data is loaded to `dsc_out`
 105:lvgl\src\lv_misc\../lv_font/lv_font.h ****  */
 106:lvgl\src\lv_misc\../lv_font/lv_font.h **** bool lv_font_get_glyph_dsc(const lv_font_t * font_p, lv_font_glyph_dsc_t * dsc_out, uint32_t letter
 107:lvgl\src\lv_misc\../lv_font/lv_font.h ****                            uint32_t letter_next);
 108:lvgl\src\lv_misc\../lv_font/lv_font.h **** 
 109:lvgl\src\lv_misc\../lv_font/lv_font.h **** /**
 110:lvgl\src\lv_misc\../lv_font/lv_font.h ****  * Get the width of a glyph with kerning
 111:lvgl\src\lv_misc\../lv_font/lv_font.h ****  * @param font pointer to a font
 112:lvgl\src\lv_misc\../lv_font/lv_font.h ****  * @param letter an UNICODE letter
 113:lvgl\src\lv_misc\../lv_font/lv_font.h ****  * @param letter_next the next letter after `letter`. Used for kerning
 114:lvgl\src\lv_misc\../lv_font/lv_font.h ****  * @return the width of the glyph
 115:lvgl\src\lv_misc\../lv_font/lv_font.h ****  */
 116:lvgl\src\lv_misc\../lv_font/lv_font.h **** uint16_t lv_font_get_glyph_width(const lv_font_t * font, uint32_t letter, uint32_t letter_next);
 117:lvgl\src\lv_misc\../lv_font/lv_font.h **** 
 118:lvgl\src\lv_misc\../lv_font/lv_font.h **** /**
 119:lvgl\src\lv_misc\../lv_font/lv_font.h ****  * Get the line height of a font. All characters fit into this height
 120:lvgl\src\lv_misc\../lv_font/lv_font.h ****  * @param font_p pointer to a font
 121:lvgl\src\lv_misc\../lv_font/lv_font.h ****  * @return the height of a font
 122:lvgl\src\lv_misc\../lv_font/lv_font.h ****  */
 123:lvgl\src\lv_misc\../lv_font/lv_font.h **** static inline lv_coord_t lv_font_get_line_height(const lv_font_t * font_p)
 124:lvgl\src\lv_misc\../lv_font/lv_font.h **** {
 125:lvgl\src\lv_misc\../lv_font/lv_font.h ****     return font_p->line_height;
 1590              		.loc 3 125 0
 1591 0036 B2F90830 		ldrsh	r3, [r2, #8]
 1592              	.LVL215:
 1593 003a 0593     		str	r3, [sp, #20]
 1594              	.LVL216:
 1595              	.LBE28:
 1596              	.LBE27:
 106:lvgl\src\lv_misc/lv_txt.c **** 
 1597              		.loc 1 106 0
 1598 003c 1FFA83FB 		uxth	fp, r3
 1599              	.LVL217:
 104:lvgl\src\lv_misc/lv_txt.c ****     uint32_t new_line_start = 0;
 1600              		.loc 1 104 0
ARM GAS  C:\Users\strap\AppData\Local\Temp\ccCgIabb.s 			page 53


 1601 0040 0025     		movs	r5, #0
 109:lvgl\src\lv_misc/lv_txt.c ****         new_line_start += _lv_txt_get_next_line(&text[line_start], font, letter_space, max_width, f
 1602              		.loc 1 109 0
 1603 0042 20E0     		b	.L147
 1604              	.LVL218:
 1605              	.L148:
 1606              	.LBB29:
 110:lvgl\src\lv_misc/lv_txt.c **** 
 1607              		.loc 1 110 0
 1608 0044 0097     		str	r7, [sp]
 1609 0046 049B     		ldr	r3, [sp, #16]
 1610 0048 039A     		ldr	r2, [sp, #12]
 1611 004a 4946     		mov	r1, r9
 1612 004c 3046     		mov	r0, r6
 1613 004e FFF7FEFF 		bl	_lv_txt_get_next_line
 1614              	.LVL219:
 1615 0052 0544     		add	r5, r5, r0
 1616              	.LVL220:
 112:lvgl\src\lv_misc/lv_txt.c ****             LV_LOG_WARN("lv_txt_get_size: integer overflow while calculating text height");
 1617              		.loc 1 112 0
 1618 0054 B4F90230 		ldrsh	r3, [r4, #2]
 1619 0058 03EB0B02 		add	r2, r3, fp
 1620 005c 5244     		add	r2, r2, r10
 1621 005e B2F5004F 		cmp	r2, #32768
 1622 0062 2ED2     		bcs	.L144
 117:lvgl\src\lv_misc/lv_txt.c ****             size_res->y += line_space;
 1623              		.loc 1 117 0
 1624 0064 5B44     		add	r3, r3, fp
 1625 0066 9BB2     		uxth	r3, r3
 118:lvgl\src\lv_misc/lv_txt.c ****         }
 1626              		.loc 1 118 0
 1627 0068 5344     		add	r3, r3, r10
 1628 006a 6380     		strh	r3, [r4, #2]	@ movhi
 122:lvgl\src\lv_misc/lv_txt.c ****                                                        flag);
 1629              		.loc 1 122 0
 1630 006c 0097     		str	r7, [sp]
 1631 006e 039B     		ldr	r3, [sp, #12]
 1632 0070 4A46     		mov	r2, r9
 1633 0072 0146     		mov	r1, r0
 1634 0074 3046     		mov	r0, r6
 1635 0076 FFF7FEFF 		bl	_lv_txt_get_width
 1636              	.LVL221:
 125:lvgl\src\lv_misc/lv_txt.c ****         line_start  = new_line_start;
 1637              		.loc 1 125 0
 1638 007a B4F90030 		ldrsh	r3, [r4]
 1639 007e 9842     		cmp	r0, r3
 1640 0080 B8BF     		it	lt
 1641 0082 1846     		movlt	r0, r3
 1642              	.LVL222:
 1643 0084 2080     		strh	r0, [r4]	@ movhi
 1644              	.LVL223:
 1645              	.L147:
 1646              	.LBE29:
 109:lvgl\src\lv_misc/lv_txt.c ****         new_line_start += _lv_txt_get_next_line(&text[line_start], font, letter_space, max_width, f
 1647              		.loc 1 109 0
 1648 0086 08EB0506 		add	r6, r8, r5
 1649 008a 18F80530 		ldrb	r3, [r8, r5]	@ zero_extendqisi2
ARM GAS  C:\Users\strap\AppData\Local\Temp\ccCgIabb.s 			page 54


 1650 008e 002B     		cmp	r3, #0
 1651 0090 D8D1     		bne	.L148
 130:lvgl\src\lv_misc/lv_txt.c ****         size_res->y += letter_height + line_space;
 1652              		.loc 1 130 0
 1653 0092 5DB1     		cbz	r5, .L149
 130:lvgl\src\lv_misc/lv_txt.c ****         size_res->y += letter_height + line_space;
 1654              		.loc 1 130 0 is_stmt 0 discriminator 1
 1655 0094 013D     		subs	r5, r5, #1
 1656              	.LVL224:
 1657 0096 18F80530 		ldrb	r3, [r8, r5]	@ zero_extendqisi2
 1658 009a 0A2B     		cmp	r3, #10
 1659 009c 01D0     		beq	.L150
 130:lvgl\src\lv_misc/lv_txt.c ****         size_res->y += letter_height + line_space;
 1660              		.loc 1 130 0 discriminator 2
 1661 009e 0D2B     		cmp	r3, #13
 1662 00a0 04D1     		bne	.L149
 1663              	.L150:
 131:lvgl\src\lv_misc/lv_txt.c ****     }
 1664              		.loc 1 131 0 is_stmt 1
 1665 00a2 D344     		add	fp, fp, r10
 1666              	.LVL225:
 1667 00a4 6388     		ldrh	r3, [r4, #2]
 1668 00a6 9B44     		add	fp, fp, r3
 1669 00a8 A4F802B0 		strh	fp, [r4, #2]	@ movhi
 1670              	.LVL226:
 1671              	.L149:
 135:lvgl\src\lv_misc/lv_txt.c ****         size_res->y = letter_height;
 1672              		.loc 1 135 0
 1673 00ac B4F90230 		ldrsh	r3, [r4, #2]
 1674 00b0 1BB9     		cbnz	r3, .L151
 136:lvgl\src\lv_misc/lv_txt.c ****     else
 1675              		.loc 1 136 0
 1676 00b2 BDF81430 		ldrh	r3, [sp, #20]
 1677 00b6 6380     		strh	r3, [r4, #2]	@ movhi
 1678 00b8 03E0     		b	.L144
 1679              	.L151:
 138:lvgl\src\lv_misc/lv_txt.c **** }
 1680              		.loc 1 138 0
 1681 00ba CAEB030A 		rsb	r10, r10, r3
 1682 00be A4F802A0 		strh	r10, [r4, #2]	@ movhi
 1683              	.LVL227:
 1684              	.L144:
 139:lvgl\src\lv_misc/lv_txt.c **** 
 1685              		.loc 1 139 0
 1686 00c2 07B0     		add	sp, sp, #28
 1687              		.cfi_def_cfa_offset 36
 1688              		@ sp needed
 1689 00c4 BDE8F08F 		pop	{r4, r5, r6, r7, r8, r9, r10, fp, pc}
 1690              		.cfi_endproc
 1691              	.LFE5:
 1692              		.size	_lv_txt_get_size, .-_lv_txt_get_size
 1693              		.section	.text._lv_txt_ins,"ax",%progbits
 1694              		.align	2
 1695              		.global	_lv_txt_ins
 1696              		.thumb
 1697              		.thumb_func
 1698              		.type	_lv_txt_ins, %function
ARM GAS  C:\Users\strap\AppData\Local\Temp\ccCgIabb.s 			page 55


 1699              	_lv_txt_ins:
 1700              	.LFB10:
 436:lvgl\src\lv_misc/lv_txt.c ****     size_t old_len = strlen(txt_buf);
 1701              		.loc 1 436 0
 1702              		.cfi_startproc
 1703              		@ args = 0, pretend = 0, frame = 0
 1704              		@ frame_needed = 0, uses_anonymous_args = 0
 1705              	.LVL228:
 1706 0000 2DE9F041 		push	{r4, r5, r6, r7, r8, lr}
 1707              		.cfi_def_cfa_offset 24
 1708              		.cfi_offset 4, -24
 1709              		.cfi_offset 5, -20
 1710              		.cfi_offset 6, -16
 1711              		.cfi_offset 7, -12
 1712              		.cfi_offset 8, -8
 1713              		.cfi_offset 14, -4
 1714 0004 0746     		mov	r7, r0
 1715 0006 8846     		mov	r8, r1
 1716 0008 1646     		mov	r6, r2
 437:lvgl\src\lv_misc/lv_txt.c ****     size_t ins_len = strlen(ins_txt);
 1717              		.loc 1 437 0
 1718 000a FFF7FEFF 		bl	strlen
 1719              	.LVL229:
 1720 000e 0546     		mov	r5, r0
 1721              	.LVL230:
 438:lvgl\src\lv_misc/lv_txt.c ****     if(ins_len == 0) return;
 1722              		.loc 1 438 0
 1723 0010 3046     		mov	r0, r6
 1724              	.LVL231:
 1725 0012 FFF7FEFF 		bl	strlen
 1726              	.LVL232:
 439:lvgl\src\lv_misc/lv_txt.c **** 
 1727              		.loc 1 439 0
 1728 0016 B8B1     		cbz	r0, .L154
 1729 0018 0446     		mov	r4, r0
 441:lvgl\src\lv_misc/lv_txt.c ****     pos              = _lv_txt_encoded_get_byte_id(txt_buf, pos); /*Convert to byte index instead o
 1730              		.loc 1 441 0
 1731 001a 0544     		add	r5, r5, r0
 1732              	.LVL233:
 442:lvgl\src\lv_misc/lv_txt.c **** 
 1733              		.loc 1 442 0
 1734 001c 0B4B     		ldr	r3, .L161
 1735 001e 9B68     		ldr	r3, [r3, #8]
 1736 0020 4146     		mov	r1, r8
 1737 0022 3846     		mov	r0, r7
 1738              	.LVL234:
 1739 0024 9847     		blx	r3
 1740              	.LVL235:
 446:lvgl\src\lv_misc/lv_txt.c ****         txt_buf[i] = txt_buf[i - ins_len];
 1741              		.loc 1 446 0
 1742 0026 03E0     		b	.L156
 1743              	.LVL236:
 1744              	.L157:
 447:lvgl\src\lv_misc/lv_txt.c ****     }
 1745              		.loc 1 447 0 discriminator 3
 1746 0028 2B1B     		subs	r3, r5, r4
 1747 002a FB5C     		ldrb	r3, [r7, r3]	@ zero_extendqisi2
ARM GAS  C:\Users\strap\AppData\Local\Temp\ccCgIabb.s 			page 56


 1748 002c 7B55     		strb	r3, [r7, r5]
 446:lvgl\src\lv_misc/lv_txt.c ****         txt_buf[i] = txt_buf[i - ins_len];
 1749              		.loc 1 446 0 discriminator 3
 1750 002e 013D     		subs	r5, r5, #1
 1751              	.LVL237:
 1752              	.L156:
 446:lvgl\src\lv_misc/lv_txt.c ****         txt_buf[i] = txt_buf[i - ins_len];
 1753              		.loc 1 446 0 is_stmt 0 discriminator 1
 1754 0030 2318     		adds	r3, r4, r0
 1755 0032 9D42     		cmp	r5, r3
 1756 0034 F8D2     		bcs	.L157
 451:lvgl\src\lv_misc/lv_txt.c **** }
 1757              		.loc 1 451 0 is_stmt 1
 1758 0036 3844     		add	r0, r0, r7
 1759              	.LVL238:
 1760 0038 04E0     		b	.L158
 1761              	.LVL239:
 1762              	.L159:
 1763              	.LBB30:
 1764              	.LBB31:
 220:lvgl\src\lv_misc/lv_mem.h ****         d8++;
 1765              		.loc 2 220 0
 1766 003a 16F8013B 		ldrb	r3, [r6], #1	@ zero_extendqisi2
 1767              	.LVL240:
 1768 003e 00F8013B 		strb	r3, [r0], #1
 1769              	.LVL241:
 1770              		.loc 2 223 0
 1771 0042 013C     		subs	r4, r4, #1
 1772              	.LVL242:
 1773              	.L158:
 219:lvgl\src\lv_misc/lv_mem.h ****         *d8 = *s8;
 1774              		.loc 2 219 0
 1775 0044 002C     		cmp	r4, #0
 1776 0046 F8D1     		bne	.L159
 1777              	.LVL243:
 1778              	.L154:
 1779 0048 BDE8F081 		pop	{r4, r5, r6, r7, r8, pc}
 1780              	.LVL244:
 1781              	.L162:
 1782              		.align	2
 1783              	.L161:
 1784 004c 00000000 		.word	.LANCHOR0
 1785              	.LBE31:
 1786              	.LBE30:
 1787              		.cfi_endproc
 1788              	.LFE10:
 1789              		.size	_lv_txt_ins, .-_lv_txt_ins
 1790              		.section	.text._lv_txt_cut,"ax",%progbits
 1791              		.align	2
 1792              		.global	_lv_txt_cut
 1793              		.thumb
 1794              		.thumb_func
 1795              		.type	_lv_txt_cut, %function
 1796              	_lv_txt_cut:
 1797              	.LFB11:
 462:lvgl\src\lv_misc/lv_txt.c **** 
 1798              		.loc 1 462 0
ARM GAS  C:\Users\strap\AppData\Local\Temp\ccCgIabb.s 			page 57


 1799              		.cfi_startproc
 1800              		@ args = 0, pretend = 0, frame = 0
 1801              		@ frame_needed = 0, uses_anonymous_args = 0
 1802              	.LVL245:
 1803 0000 2DE9F041 		push	{r4, r5, r6, r7, r8, lr}
 1804              		.cfi_def_cfa_offset 24
 1805              		.cfi_offset 4, -24
 1806              		.cfi_offset 5, -20
 1807              		.cfi_offset 6, -16
 1808              		.cfi_offset 7, -12
 1809              		.cfi_offset 8, -8
 1810              		.cfi_offset 14, -4
 1811 0004 0546     		mov	r5, r0
 1812 0006 0C46     		mov	r4, r1
 1813 0008 9046     		mov	r8, r2
 464:lvgl\src\lv_misc/lv_txt.c **** 
 1814              		.loc 1 464 0
 1815 000a FFF7FEFF 		bl	strlen
 1816              	.LVL246:
 1817 000e 0646     		mov	r6, r0
 1818              	.LVL247:
 466:lvgl\src\lv_misc/lv_txt.c ****     len = _lv_txt_encoded_get_byte_id(&txt[pos], len);
 1819              		.loc 1 466 0
 1820 0010 094F     		ldr	r7, .L167
 1821 0012 BB68     		ldr	r3, [r7, #8]
 1822 0014 2146     		mov	r1, r4
 1823 0016 2846     		mov	r0, r5
 1824              	.LVL248:
 1825 0018 9847     		blx	r3
 1826              	.LVL249:
 1827 001a 0446     		mov	r4, r0
 1828              	.LVL250:
 467:lvgl\src\lv_misc/lv_txt.c **** 
 1829              		.loc 1 467 0
 1830 001c BB68     		ldr	r3, [r7, #8]
 1831 001e 4146     		mov	r1, r8
 1832 0020 2818     		adds	r0, r5, r0
 1833              	.LVL251:
 1834 0022 9847     		blx	r3
 1835              	.LVL252:
 471:lvgl\src\lv_misc/lv_txt.c ****         txt[i] = txt[i + len];
 1836              		.loc 1 471 0
 1837 0024 03E0     		b	.L164
 1838              	.LVL253:
 1839              	.L165:
 472:lvgl\src\lv_misc/lv_txt.c ****     }
 1840              		.loc 1 472 0 discriminator 3
 1841 0026 2B19     		adds	r3, r5, r4
 1842 0028 1B5C     		ldrb	r3, [r3, r0]	@ zero_extendqisi2
 1843 002a 2B55     		strb	r3, [r5, r4]
 471:lvgl\src\lv_misc/lv_txt.c ****         txt[i] = txt[i + len];
 1844              		.loc 1 471 0 discriminator 3
 1845 002c 0134     		adds	r4, r4, #1
 1846              	.LVL254:
 1847              	.L164:
 471:lvgl\src\lv_misc/lv_txt.c ****         txt[i] = txt[i + len];
 1848              		.loc 1 471 0 is_stmt 0 discriminator 1
ARM GAS  C:\Users\strap\AppData\Local\Temp\ccCgIabb.s 			page 58


 1849 002e 331A     		subs	r3, r6, r0
 1850 0030 9C42     		cmp	r4, r3
 1851 0032 F8D9     		bls	.L165
 474:lvgl\src\lv_misc/lv_txt.c **** 
 1852              		.loc 1 474 0 is_stmt 1
 1853 0034 BDE8F081 		pop	{r4, r5, r6, r7, r8, pc}
 1854              	.LVL255:
 1855              	.L168:
 1856              		.align	2
 1857              	.L167:
 1858 0038 00000000 		.word	.LANCHOR0
 1859              		.cfi_endproc
 1860              	.LFE11:
 1861              		.size	_lv_txt_cut, .-_lv_txt_cut
 1862              		.global	_lv_txt_get_encoded_length
 1863              		.global	_lv_txt_encoded_get_char_id
 1864              		.global	_lv_txt_encoded_get_byte_id
 1865              		.global	_lv_txt_encoded_prev
 1866              		.global	_lv_txt_encoded_next
 1867              		.global	_lv_txt_encoded_conv_wc
 1868              		.global	_lv_txt_unicode_to_encoded
 1869              		.global	_lv_txt_encoded_size
 1870              		.data
 1871              		.align	2
 1872              		.set	.LANCHOR0,. + 0
 1873              		.type	_lv_txt_encoded_size, %object
 1874              		.size	_lv_txt_encoded_size, 4
 1875              	_lv_txt_encoded_size:
 1876 0000 00000000 		.word	lv_txt_utf8_size
 1877              		.type	_lv_txt_encoded_next, %object
 1878              		.size	_lv_txt_encoded_next, 4
 1879              	_lv_txt_encoded_next:
 1880 0004 00000000 		.word	lv_txt_utf8_next
 1881              		.type	_lv_txt_encoded_get_byte_id, %object
 1882              		.size	_lv_txt_encoded_get_byte_id, 4
 1883              	_lv_txt_encoded_get_byte_id:
 1884 0008 00000000 		.word	lv_txt_utf8_get_byte_id
 1885              		.type	_lv_txt_get_encoded_length, %object
 1886              		.size	_lv_txt_get_encoded_length, 4
 1887              	_lv_txt_get_encoded_length:
 1888 000c 00000000 		.word	lv_txt_utf8_get_length
 1889              		.type	_lv_txt_encoded_get_char_id, %object
 1890              		.size	_lv_txt_encoded_get_char_id, 4
 1891              	_lv_txt_encoded_get_char_id:
 1892 0010 00000000 		.word	lv_txt_utf8_get_char_id
 1893              		.type	_lv_txt_encoded_prev, %object
 1894              		.size	_lv_txt_encoded_prev, 4
 1895              	_lv_txt_encoded_prev:
 1896 0014 00000000 		.word	lv_txt_utf8_prev
 1897              		.type	_lv_txt_encoded_conv_wc, %object
 1898              		.size	_lv_txt_encoded_conv_wc, 4
 1899              	_lv_txt_encoded_conv_wc:
 1900 0018 00000000 		.word	lv_txt_utf8_conv_wc
 1901              		.type	_lv_txt_unicode_to_encoded, %object
 1902              		.size	_lv_txt_unicode_to_encoded, 4
 1903              	_lv_txt_unicode_to_encoded:
 1904 001c 00000000 		.word	lv_txt_unicode_to_utf8
ARM GAS  C:\Users\strap\AppData\Local\Temp\ccCgIabb.s 			page 59


 1905              		.section	.rodata.str1.4,"aMS",%progbits,1
 1906              		.align	2
 1907              	.LC0:
 1908 0000 202C2E3B 		.ascii	" ,.;:-_\000"
 1908      3A2D5F00 
 1909              		.text
 1910              	.Letext0:
 1911              		.file 4 "c:\\program files (x86)\\cypress\\psoc creator\\4.4\\psoc creator\\import\\gnu\\arm\\5.4.
 1912              		.file 5 "c:\\program files (x86)\\cypress\\psoc creator\\4.4\\psoc creator\\import\\gnu\\arm\\5.4.
 1913              		.file 6 "lvgl\\src\\lv_misc\\../../../lv_conf.h"
 1914              		.file 7 "c:\\program files (x86)\\cypress\\psoc creator\\4.4\\psoc creator\\import\\gnu\\arm\\5.4.
 1915              		.file 8 "lvgl\\src\\lv_misc\\lv_area.h"
 1916              		.file 9 "lvgl\\src\\lv_misc\\lv_txt.h"
 1917              		.file 10 "c:\\program files (x86)\\cypress\\psoc creator\\4.4\\psoc creator\\import\\gnu\\arm\\5.4