ARM GAS  C:\Users\strap\AppData\Local\Temp\ccCyLI52.s 			page 1


   1              		.syntax unified
   2              		.cpu cortex-m3
   3              		.fpu softvfp
   4              		.eabi_attribute 20, 1
   5              		.eabi_attribute 21, 1
   6              		.eabi_attribute 23, 3
   7              		.eabi_attribute 24, 1
   8              		.eabi_attribute 25, 1
   9              		.eabi_attribute 26, 1
  10              		.eabi_attribute 30, 1
  11              		.eabi_attribute 34, 1
  12              		.eabi_attribute 18, 4
  13              		.thumb
  14              		.syntax unified
  15              		.file	"lv_theme_material.c"
  16              		.text
  17              	.Ltext0:
  18              		.cfi_sections	.debug_frame
  19              		.section	.text.theme_apply,"ax",%progbits
  20              		.align	2
  21              		.thumb
  22              		.thumb_func
  23              		.type	theme_apply, %function
  24              	theme_apply:
  25              	.LFB408:
  26              		.file 1 "lvgl\\src\\lv_themes\\lv_theme_material.c"
   1:lvgl\src\lv_themes/lv_theme_material.c **** /**
   2:lvgl\src\lv_themes/lv_theme_material.c ****  * @file lv_theme_material.c
   3:lvgl\src\lv_themes/lv_theme_material.c ****  *
   4:lvgl\src\lv_themes/lv_theme_material.c ****  */
   5:lvgl\src\lv_themes/lv_theme_material.c **** 
   6:lvgl\src\lv_themes/lv_theme_material.c **** /*********************
   7:lvgl\src\lv_themes/lv_theme_material.c ****  *      INCLUDES
   8:lvgl\src\lv_themes/lv_theme_material.c ****  *********************/
   9:lvgl\src\lv_themes/lv_theme_material.c **** #include "../../lvgl.h" /*To see all the widgets*/
  10:lvgl\src\lv_themes/lv_theme_material.c **** 
  11:lvgl\src\lv_themes/lv_theme_material.c **** #if LV_USE_THEME_MATERIAL
  12:lvgl\src\lv_themes/lv_theme_material.c **** 
  13:lvgl\src\lv_themes/lv_theme_material.c **** #include "../lv_misc/lv_gc.h"
  14:lvgl\src\lv_themes/lv_theme_material.c **** 
  15:lvgl\src\lv_themes/lv_theme_material.c **** #if defined(LV_GC_INCLUDE)
  16:lvgl\src\lv_themes/lv_theme_material.c ****     #include LV_GC_INCLUDE
  17:lvgl\src\lv_themes/lv_theme_material.c **** #endif /* LV_ENABLE_GC */
  18:lvgl\src\lv_themes/lv_theme_material.c **** 
  19:lvgl\src\lv_themes/lv_theme_material.c **** /*********************
  20:lvgl\src\lv_themes/lv_theme_material.c ****  *      DEFINES
  21:lvgl\src\lv_themes/lv_theme_material.c ****  *********************/
  22:lvgl\src\lv_themes/lv_theme_material.c **** 
  23:lvgl\src\lv_themes/lv_theme_material.c **** /*SCREEN*/
  24:lvgl\src\lv_themes/lv_theme_material.c **** 
  25:lvgl\src\lv_themes/lv_theme_material.c **** #define COLOR_SCR        (IS_LIGHT ? lv_color_hex(0xeaeff3) : lv_color_hex(0x444b5a))
  26:lvgl\src\lv_themes/lv_theme_material.c **** #define COLOR_SCR_TEXT   (IS_LIGHT ? lv_color_hex(0x3b3e42) : lv_color_hex(0xe7e9ec))
  27:lvgl\src\lv_themes/lv_theme_material.c **** 
  28:lvgl\src\lv_themes/lv_theme_material.c **** /*BUTTON*/
  29:lvgl\src\lv_themes/lv_theme_material.c **** #define COLOR_BTN           (IS_LIGHT ? lv_color_hex(0xffffff) : lv_color_hex(0x586273))
  30:lvgl\src\lv_themes/lv_theme_material.c **** #define COLOR_BTN_PR        (IS_LIGHT ? lv_color_mix(theme.color_primary, COLOR_BTN, LV_OPA_10) : l
  31:lvgl\src\lv_themes/lv_theme_material.c **** 
ARM GAS  C:\Users\strap\AppData\Local\Temp\ccCyLI52.s 			page 2


  32:lvgl\src\lv_themes/lv_theme_material.c **** #define COLOR_BTN_CHK       (theme.color_primary)
  33:lvgl\src\lv_themes/lv_theme_material.c **** #define COLOR_BTN_CHK_PR    (lv_color_darken(theme.color_primary, LV_OPA_30))
  34:lvgl\src\lv_themes/lv_theme_material.c **** #define COLOR_BTN_DIS       (IS_LIGHT ? lv_color_hex3(0xccc) : lv_color_hex3(0x888))
  35:lvgl\src\lv_themes/lv_theme_material.c **** 
  36:lvgl\src\lv_themes/lv_theme_material.c **** #define COLOR_BTN_BORDER        theme.color_primary
  37:lvgl\src\lv_themes/lv_theme_material.c **** #define COLOR_BTN_BORDER_PR     theme.color_primary
  38:lvgl\src\lv_themes/lv_theme_material.c **** #define COLOR_BTN_BORDER_CHK    theme.color_primary
  39:lvgl\src\lv_themes/lv_theme_material.c **** #define COLOR_BTN_BORDER_CHK_PR theme.color_primary
  40:lvgl\src\lv_themes/lv_theme_material.c **** #define COLOR_BTN_BORDER_INA    (IS_LIGHT ? lv_color_hex3(0x888) : lv_color_hex(0x404040))
  41:lvgl\src\lv_themes/lv_theme_material.c **** 
  42:lvgl\src\lv_themes/lv_theme_material.c **** /*BACKGROUND*/
  43:lvgl\src\lv_themes/lv_theme_material.c **** #define COLOR_BG            (IS_LIGHT ? lv_color_hex(0xffffff) : lv_color_hex(0x586273))
  44:lvgl\src\lv_themes/lv_theme_material.c **** #define COLOR_BG_PR         (IS_LIGHT ? lv_color_hex(0xeeeeee) : lv_color_hex(0x494f57))
  45:lvgl\src\lv_themes/lv_theme_material.c **** #define COLOR_BG_CHK        theme.color_primary
  46:lvgl\src\lv_themes/lv_theme_material.c **** #define COLOR_BG_PR_CHK     lv_color_darken(theme.color_primary, LV_OPA_20)
  47:lvgl\src\lv_themes/lv_theme_material.c **** #define COLOR_BG_DIS        COLOR_BG
  48:lvgl\src\lv_themes/lv_theme_material.c **** 
  49:lvgl\src\lv_themes/lv_theme_material.c **** #define COLOR_BG_BORDER         (IS_LIGHT ? lv_color_hex(0xd6dde3) : lv_color_hex(0x808a97))   /*df
  50:lvgl\src\lv_themes/lv_theme_material.c **** #define COLOR_BG_BORDER_PR      (IS_LIGHT ? lv_color_hex3(0xccc) : lv_color_hex(0x5f656e))
  51:lvgl\src\lv_themes/lv_theme_material.c **** #define COLOR_BG_BORDER_CHK     (IS_LIGHT ? lv_color_hex(0x3b3e42) : lv_color_hex(0x5f656e))
  52:lvgl\src\lv_themes/lv_theme_material.c **** #define COLOR_BG_BORDER_CHK_PR  (IS_LIGHT ? lv_color_hex(0x3b3e42) : lv_color_hex(0x5f656e))
  53:lvgl\src\lv_themes/lv_theme_material.c **** #define COLOR_BG_BORDER_DIS     (IS_LIGHT ? lv_color_hex(0xd6dde3) : lv_color_hex(0x5f656e))
  54:lvgl\src\lv_themes/lv_theme_material.c **** 
  55:lvgl\src\lv_themes/lv_theme_material.c **** #define COLOR_BG_TEXT           (IS_LIGHT ? lv_color_hex(0x3b3e42) : lv_color_hex(0xffffff))
  56:lvgl\src\lv_themes/lv_theme_material.c **** #define COLOR_BG_TEXT_PR        (IS_LIGHT ? lv_color_hex(0x3b3e42) : lv_color_hex(0xffffff))
  57:lvgl\src\lv_themes/lv_theme_material.c **** #define COLOR_BG_TEXT_CHK       (IS_LIGHT ? lv_color_hex(0xffffff) : lv_color_hex(0xffffff))
  58:lvgl\src\lv_themes/lv_theme_material.c **** #define COLOR_BG_TEXT_CHK_PR    (IS_LIGHT ? lv_color_hex(0xffffff) : lv_color_hex(0xffffff))
  59:lvgl\src\lv_themes/lv_theme_material.c **** #define COLOR_BG_TEXT_DIS       (IS_LIGHT ? lv_color_hex3(0xaaa) : lv_color_hex3(0x999))
  60:lvgl\src\lv_themes/lv_theme_material.c **** 
  61:lvgl\src\lv_themes/lv_theme_material.c **** /*SECONDARY BACKGROUND*/
  62:lvgl\src\lv_themes/lv_theme_material.c **** #define COLOR_BG_SEC            (IS_LIGHT ? lv_color_hex(0xd4d7d9) : lv_color_hex(0x45494d))
  63:lvgl\src\lv_themes/lv_theme_material.c **** #define COLOR_BG_SEC_BORDER     (IS_LIGHT ? lv_color_hex(0xdfe7ed) : lv_color_hex(0x404040))
  64:lvgl\src\lv_themes/lv_theme_material.c **** #define COLOR_BG_SEC_TEXT       (IS_LIGHT ? lv_color_hex(0x31404f) : lv_color_hex(0xa5a8ad))
  65:lvgl\src\lv_themes/lv_theme_material.c **** #define COLOR_BG_SEC_TEXT_DIS   (IS_LIGHT ? lv_color_hex(0xaaaaaa) : lv_color_hex(0xa5a8ad))
  66:lvgl\src\lv_themes/lv_theme_material.c **** 
  67:lvgl\src\lv_themes/lv_theme_material.c **** #define TRANSITION_TIME         0/*((theme.flags & LV_THEME_MATERIAL_FLAG_NO_TRANSITION) ? 0 : 150)
  68:lvgl\src\lv_themes/lv_theme_material.c **** #define BORDER_WIDTH            LV_DPX(2)
  69:lvgl\src\lv_themes/lv_theme_material.c **** #define OUTLINE_WIDTH           ((theme.flags & LV_THEME_MATERIAL_FLAG_NO_FOCUS) ? 0 : LV_DPX(2))
  70:lvgl\src\lv_themes/lv_theme_material.c **** #define IS_LIGHT (theme.flags & LV_THEME_MATERIAL_FLAG_LIGHT)
  71:lvgl\src\lv_themes/lv_theme_material.c **** 
  72:lvgl\src\lv_themes/lv_theme_material.c **** #define PAD_DEF (lv_disp_get_size_category(NULL) <= LV_DISP_SIZE_MEDIUM ? LV_DPX(15) : (LV_DPX(30))
  73:lvgl\src\lv_themes/lv_theme_material.c **** 
  74:lvgl\src\lv_themes/lv_theme_material.c **** /**********************
  75:lvgl\src\lv_themes/lv_theme_material.c ****  *      TYPEDEFS
  76:lvgl\src\lv_themes/lv_theme_material.c ****  **********************/
  77:lvgl\src\lv_themes/lv_theme_material.c **** typedef struct {
  78:lvgl\src\lv_themes/lv_theme_material.c ****     lv_style_t scr;
  79:lvgl\src\lv_themes/lv_theme_material.c ****     lv_style_t bg;
  80:lvgl\src\lv_themes/lv_theme_material.c ****     lv_style_t bg_click;
  81:lvgl\src\lv_themes/lv_theme_material.c ****     lv_style_t bg_sec;
  82:lvgl\src\lv_themes/lv_theme_material.c ****     lv_style_t btn;
  83:lvgl\src\lv_themes/lv_theme_material.c ****     lv_style_t pad_inner;
  84:lvgl\src\lv_themes/lv_theme_material.c ****     lv_style_t pad_small;
  85:lvgl\src\lv_themes/lv_theme_material.c **** 
  86:lvgl\src\lv_themes/lv_theme_material.c **** #if LV_USE_ARC
  87:lvgl\src\lv_themes/lv_theme_material.c ****     lv_style_t arc_indic;
  88:lvgl\src\lv_themes/lv_theme_material.c ****     lv_style_t arc_bg;
ARM GAS  C:\Users\strap\AppData\Local\Temp\ccCyLI52.s 			page 3


  89:lvgl\src\lv_themes/lv_theme_material.c ****     lv_style_t arc_knob;
  90:lvgl\src\lv_themes/lv_theme_material.c **** #endif
  91:lvgl\src\lv_themes/lv_theme_material.c **** 
  92:lvgl\src\lv_themes/lv_theme_material.c **** #if LV_USE_BAR
  93:lvgl\src\lv_themes/lv_theme_material.c ****     lv_style_t bar_bg;
  94:lvgl\src\lv_themes/lv_theme_material.c ****     lv_style_t bar_indic;
  95:lvgl\src\lv_themes/lv_theme_material.c **** #endif
  96:lvgl\src\lv_themes/lv_theme_material.c **** 
  97:lvgl\src\lv_themes/lv_theme_material.c **** #if LV_USE_CALENDAR
  98:lvgl\src\lv_themes/lv_theme_material.c ****     lv_style_t calendar_date_nums, calendar_header, calendar_daynames;
  99:lvgl\src\lv_themes/lv_theme_material.c **** #endif
 100:lvgl\src\lv_themes/lv_theme_material.c **** 
 101:lvgl\src\lv_themes/lv_theme_material.c **** #if LV_USE_CPICKER
 102:lvgl\src\lv_themes/lv_theme_material.c ****     lv_style_t cpicker_bg, cpicker_indic;
 103:lvgl\src\lv_themes/lv_theme_material.c **** #endif
 104:lvgl\src\lv_themes/lv_theme_material.c **** 
 105:lvgl\src\lv_themes/lv_theme_material.c **** #if LV_USE_CHART
 106:lvgl\src\lv_themes/lv_theme_material.c ****     lv_style_t chart_bg, chart_series_bg, chart_series;
 107:lvgl\src\lv_themes/lv_theme_material.c **** #endif
 108:lvgl\src\lv_themes/lv_theme_material.c **** 
 109:lvgl\src\lv_themes/lv_theme_material.c **** #if LV_USE_CHECKBOX
 110:lvgl\src\lv_themes/lv_theme_material.c ****     lv_style_t cb_bg, cb_bullet;
 111:lvgl\src\lv_themes/lv_theme_material.c **** #endif
 112:lvgl\src\lv_themes/lv_theme_material.c **** 
 113:lvgl\src\lv_themes/lv_theme_material.c **** #if LV_USE_DROPDOWN
 114:lvgl\src\lv_themes/lv_theme_material.c ****     lv_style_t ddlist_page, ddlist_sel;
 115:lvgl\src\lv_themes/lv_theme_material.c **** #endif
 116:lvgl\src\lv_themes/lv_theme_material.c **** 
 117:lvgl\src\lv_themes/lv_theme_material.c **** #if LV_USE_GAUGE
 118:lvgl\src\lv_themes/lv_theme_material.c ****     lv_style_t gauge_main, gauge_strong, gauge_needle;
 119:lvgl\src\lv_themes/lv_theme_material.c **** #endif
 120:lvgl\src\lv_themes/lv_theme_material.c **** 
 121:lvgl\src\lv_themes/lv_theme_material.c **** #if LV_USE_KEYBOARD
 122:lvgl\src\lv_themes/lv_theme_material.c ****     lv_style_t kb_bg;
 123:lvgl\src\lv_themes/lv_theme_material.c **** #endif
 124:lvgl\src\lv_themes/lv_theme_material.c **** 
 125:lvgl\src\lv_themes/lv_theme_material.c **** #if LV_USE_LED
 126:lvgl\src\lv_themes/lv_theme_material.c ****     lv_style_t led;
 127:lvgl\src\lv_themes/lv_theme_material.c **** #endif
 128:lvgl\src\lv_themes/lv_theme_material.c **** 
 129:lvgl\src\lv_themes/lv_theme_material.c **** #if LV_USE_LINEMETER
 130:lvgl\src\lv_themes/lv_theme_material.c ****     lv_style_t lmeter;
 131:lvgl\src\lv_themes/lv_theme_material.c **** #endif
 132:lvgl\src\lv_themes/lv_theme_material.c **** 
 133:lvgl\src\lv_themes/lv_theme_material.c **** #if LV_USE_LIST
 134:lvgl\src\lv_themes/lv_theme_material.c ****     lv_style_t list_bg, list_btn;
 135:lvgl\src\lv_themes/lv_theme_material.c **** #endif
 136:lvgl\src\lv_themes/lv_theme_material.c **** 
 137:lvgl\src\lv_themes/lv_theme_material.c **** #if LV_USE_MSGBOX
 138:lvgl\src\lv_themes/lv_theme_material.c ****     lv_style_t mbox_bg;
 139:lvgl\src\lv_themes/lv_theme_material.c **** #endif
 140:lvgl\src\lv_themes/lv_theme_material.c **** 
 141:lvgl\src\lv_themes/lv_theme_material.c **** #if LV_USE_PAGE
 142:lvgl\src\lv_themes/lv_theme_material.c ****     lv_style_t sb;
 143:lvgl\src\lv_themes/lv_theme_material.c **** #if LV_USE_ANIMATION
 144:lvgl\src\lv_themes/lv_theme_material.c ****     lv_style_t edge_flash;
 145:lvgl\src\lv_themes/lv_theme_material.c **** #endif
ARM GAS  C:\Users\strap\AppData\Local\Temp\ccCyLI52.s 			page 4


 146:lvgl\src\lv_themes/lv_theme_material.c **** #endif
 147:lvgl\src\lv_themes/lv_theme_material.c **** 
 148:lvgl\src\lv_themes/lv_theme_material.c **** #if LV_USE_ROLLER
 149:lvgl\src\lv_themes/lv_theme_material.c ****     lv_style_t roller_bg, roller_sel;
 150:lvgl\src\lv_themes/lv_theme_material.c **** #endif
 151:lvgl\src\lv_themes/lv_theme_material.c **** 
 152:lvgl\src\lv_themes/lv_theme_material.c **** #if LV_USE_SLIDER
 153:lvgl\src\lv_themes/lv_theme_material.c ****     lv_style_t slider_knob, slider_bg;
 154:lvgl\src\lv_themes/lv_theme_material.c **** #endif
 155:lvgl\src\lv_themes/lv_theme_material.c **** 
 156:lvgl\src\lv_themes/lv_theme_material.c **** #if LV_USE_SPINBOX
 157:lvgl\src\lv_themes/lv_theme_material.c ****     lv_style_t spinbox_cursor;
 158:lvgl\src\lv_themes/lv_theme_material.c **** #endif
 159:lvgl\src\lv_themes/lv_theme_material.c **** 
 160:lvgl\src\lv_themes/lv_theme_material.c **** #if LV_USE_SWITCH
 161:lvgl\src\lv_themes/lv_theme_material.c ****     lv_style_t sw_knob;
 162:lvgl\src\lv_themes/lv_theme_material.c **** #endif
 163:lvgl\src\lv_themes/lv_theme_material.c **** 
 164:lvgl\src\lv_themes/lv_theme_material.c **** #if LV_USE_TABLE
 165:lvgl\src\lv_themes/lv_theme_material.c ****     lv_style_t table_cell;
 166:lvgl\src\lv_themes/lv_theme_material.c **** #endif
 167:lvgl\src\lv_themes/lv_theme_material.c **** 
 168:lvgl\src\lv_themes/lv_theme_material.c **** #if LV_USE_TABVIEW || LV_USE_WIN
 169:lvgl\src\lv_themes/lv_theme_material.c ****     lv_style_t tabview_btns, tabview_btns_bg, tabview_indic, tabview_page_scrl;
 170:lvgl\src\lv_themes/lv_theme_material.c **** #endif
 171:lvgl\src\lv_themes/lv_theme_material.c **** 
 172:lvgl\src\lv_themes/lv_theme_material.c **** #if LV_USE_TEXTAREA
 173:lvgl\src\lv_themes/lv_theme_material.c ****     lv_style_t ta_cursor, ta_placeholder;
 174:lvgl\src\lv_themes/lv_theme_material.c **** #endif
 175:lvgl\src\lv_themes/lv_theme_material.c **** 
 176:lvgl\src\lv_themes/lv_theme_material.c **** } theme_styles_t;
 177:lvgl\src\lv_themes/lv_theme_material.c **** 
 178:lvgl\src\lv_themes/lv_theme_material.c **** /**********************
 179:lvgl\src\lv_themes/lv_theme_material.c ****  *  STATIC PROTOTYPES
 180:lvgl\src\lv_themes/lv_theme_material.c ****  **********************/
 181:lvgl\src\lv_themes/lv_theme_material.c **** static void theme_apply(lv_theme_t * th, lv_obj_t * obj, lv_theme_style_t name);
 182:lvgl\src\lv_themes/lv_theme_material.c **** static void style_init_reset(lv_style_t * style);
 183:lvgl\src\lv_themes/lv_theme_material.c **** 
 184:lvgl\src\lv_themes/lv_theme_material.c **** /**********************
 185:lvgl\src\lv_themes/lv_theme_material.c ****  *  STATIC VARIABLES
 186:lvgl\src\lv_themes/lv_theme_material.c ****  **********************/
 187:lvgl\src\lv_themes/lv_theme_material.c **** static lv_theme_t theme;
 188:lvgl\src\lv_themes/lv_theme_material.c **** static theme_styles_t * styles;
 189:lvgl\src\lv_themes/lv_theme_material.c **** 
 190:lvgl\src\lv_themes/lv_theme_material.c **** static bool inited;
 191:lvgl\src\lv_themes/lv_theme_material.c **** 
 192:lvgl\src\lv_themes/lv_theme_material.c **** /**********************
 193:lvgl\src\lv_themes/lv_theme_material.c ****  *      MACROS
 194:lvgl\src\lv_themes/lv_theme_material.c ****  **********************/
 195:lvgl\src\lv_themes/lv_theme_material.c **** 
 196:lvgl\src\lv_themes/lv_theme_material.c **** /**********************
 197:lvgl\src\lv_themes/lv_theme_material.c ****  *   STATIC FUNCTIONS
 198:lvgl\src\lv_themes/lv_theme_material.c ****  **********************/
 199:lvgl\src\lv_themes/lv_theme_material.c **** 
 200:lvgl\src\lv_themes/lv_theme_material.c **** static void basic_init(void)
 201:lvgl\src\lv_themes/lv_theme_material.c **** {
 202:lvgl\src\lv_themes/lv_theme_material.c ****     style_init_reset(&styles->scr);
ARM GAS  C:\Users\strap\AppData\Local\Temp\ccCyLI52.s 			page 5


 203:lvgl\src\lv_themes/lv_theme_material.c ****     lv_style_set_bg_opa(&styles->scr, LV_STATE_DEFAULT, LV_OPA_COVER);
 204:lvgl\src\lv_themes/lv_theme_material.c ****     lv_style_set_bg_color(&styles->scr, LV_STATE_DEFAULT, COLOR_SCR);
 205:lvgl\src\lv_themes/lv_theme_material.c ****     lv_style_set_text_color(&styles->scr, LV_STATE_DEFAULT, COLOR_SCR_TEXT);
 206:lvgl\src\lv_themes/lv_theme_material.c ****     lv_style_set_value_color(&styles->scr, LV_STATE_DEFAULT, COLOR_SCR_TEXT);
 207:lvgl\src\lv_themes/lv_theme_material.c ****     lv_style_set_text_sel_color(&styles->scr, LV_STATE_DEFAULT, COLOR_SCR_TEXT);
 208:lvgl\src\lv_themes/lv_theme_material.c ****     lv_style_set_text_sel_bg_color(&styles->scr, LV_STATE_DEFAULT, theme.color_primary);
 209:lvgl\src\lv_themes/lv_theme_material.c ****     lv_style_set_value_font(&styles->scr, LV_STATE_DEFAULT, theme.font_normal);
 210:lvgl\src\lv_themes/lv_theme_material.c **** 
 211:lvgl\src\lv_themes/lv_theme_material.c ****     style_init_reset(&styles->bg);
 212:lvgl\src\lv_themes/lv_theme_material.c ****     lv_style_set_radius(&styles->bg, LV_STATE_DEFAULT, LV_DPX(8));
 213:lvgl\src\lv_themes/lv_theme_material.c ****     lv_style_set_bg_opa(&styles->bg, LV_STATE_DEFAULT, LV_OPA_COVER);
 214:lvgl\src\lv_themes/lv_theme_material.c ****     lv_style_set_bg_color(&styles->bg, LV_STATE_DEFAULT, COLOR_BG);
 215:lvgl\src\lv_themes/lv_theme_material.c ****     lv_style_set_border_color(&styles->bg, LV_STATE_DEFAULT, COLOR_BG_BORDER);
 216:lvgl\src\lv_themes/lv_theme_material.c ****     if((theme.flags & LV_THEME_MATERIAL_FLAG_NO_FOCUS) == 0)lv_style_set_border_color(&styles->bg, 
 217:lvgl\src\lv_themes/lv_theme_material.c ****                                                                                           theme.col
 218:lvgl\src\lv_themes/lv_theme_material.c ****     lv_style_set_border_color(&styles->bg, LV_STATE_EDITED, theme.color_secondary);
 219:lvgl\src\lv_themes/lv_theme_material.c ****     lv_style_set_border_width(&styles->bg, LV_STATE_DEFAULT, BORDER_WIDTH);
 220:lvgl\src\lv_themes/lv_theme_material.c ****     lv_style_set_border_post(&styles->bg, LV_STATE_DEFAULT, true);
 221:lvgl\src\lv_themes/lv_theme_material.c ****     lv_style_set_text_color(&styles->bg, LV_STATE_DEFAULT, COLOR_BG_TEXT);
 222:lvgl\src\lv_themes/lv_theme_material.c ****     lv_style_set_value_font(&styles->bg, LV_STATE_DEFAULT, theme.font_normal);
 223:lvgl\src\lv_themes/lv_theme_material.c ****     lv_style_set_value_color(&styles->bg, LV_STATE_DEFAULT, COLOR_BG_TEXT);
 224:lvgl\src\lv_themes/lv_theme_material.c ****     lv_style_set_image_recolor(&styles->bg, LV_STATE_DEFAULT, COLOR_BG_TEXT);
 225:lvgl\src\lv_themes/lv_theme_material.c ****     lv_style_set_line_color(&styles->bg, LV_STATE_DEFAULT, COLOR_BG_TEXT);
 226:lvgl\src\lv_themes/lv_theme_material.c ****     lv_style_set_line_width(&styles->bg, LV_STATE_DEFAULT, 1);
 227:lvgl\src\lv_themes/lv_theme_material.c ****     lv_style_set_pad_left(&styles->bg, LV_STATE_DEFAULT, PAD_DEF + BORDER_WIDTH);
 228:lvgl\src\lv_themes/lv_theme_material.c ****     lv_style_set_pad_right(&styles->bg, LV_STATE_DEFAULT, PAD_DEF + BORDER_WIDTH);
 229:lvgl\src\lv_themes/lv_theme_material.c ****     lv_style_set_pad_top(&styles->bg, LV_STATE_DEFAULT, PAD_DEF + BORDER_WIDTH);
 230:lvgl\src\lv_themes/lv_theme_material.c ****     lv_style_set_pad_bottom(&styles->bg, LV_STATE_DEFAULT, PAD_DEF + BORDER_WIDTH);
 231:lvgl\src\lv_themes/lv_theme_material.c ****     lv_style_set_pad_inner(&styles->bg, LV_STATE_DEFAULT, PAD_DEF);
 232:lvgl\src\lv_themes/lv_theme_material.c ****     lv_style_set_transition_time(&styles->bg, LV_STATE_DEFAULT, TRANSITION_TIME);
 233:lvgl\src\lv_themes/lv_theme_material.c ****     lv_style_set_transition_prop_6(&styles->bg, LV_STATE_DEFAULT, LV_STYLE_BORDER_COLOR);
 234:lvgl\src\lv_themes/lv_theme_material.c **** 
 235:lvgl\src\lv_themes/lv_theme_material.c ****     style_init_reset(&styles->bg_sec);
 236:lvgl\src\lv_themes/lv_theme_material.c ****     lv_style_copy(&styles->bg_sec, &styles->bg);
 237:lvgl\src\lv_themes/lv_theme_material.c ****     lv_style_set_bg_color(&styles->bg_sec, LV_STATE_DEFAULT, COLOR_BG_SEC);
 238:lvgl\src\lv_themes/lv_theme_material.c ****     lv_style_set_border_color(&styles->bg_sec, LV_STATE_DEFAULT, COLOR_BG_SEC_BORDER);
 239:lvgl\src\lv_themes/lv_theme_material.c ****     lv_style_set_text_color(&styles->bg_sec, LV_STATE_DEFAULT, COLOR_BG_SEC_TEXT);
 240:lvgl\src\lv_themes/lv_theme_material.c ****     lv_style_set_value_color(&styles->bg_sec, LV_STATE_DEFAULT, COLOR_BG_SEC_TEXT);
 241:lvgl\src\lv_themes/lv_theme_material.c ****     lv_style_set_image_recolor(&styles->bg_sec, LV_STATE_DEFAULT, COLOR_BG_SEC_TEXT);
 242:lvgl\src\lv_themes/lv_theme_material.c ****     lv_style_set_line_color(&styles->bg_sec, LV_STATE_DEFAULT, COLOR_BG_SEC_TEXT);
 243:lvgl\src\lv_themes/lv_theme_material.c **** 
 244:lvgl\src\lv_themes/lv_theme_material.c ****     style_init_reset(&styles->bg_click);
 245:lvgl\src\lv_themes/lv_theme_material.c ****     lv_style_set_bg_color(&styles->bg_click, LV_STATE_PRESSED, COLOR_BG_PR);
 246:lvgl\src\lv_themes/lv_theme_material.c ****     lv_style_set_bg_color(&styles->bg_click, LV_STATE_CHECKED, COLOR_BG_CHK);
 247:lvgl\src\lv_themes/lv_theme_material.c ****     lv_style_set_bg_color(&styles->bg_click, LV_STATE_PRESSED | LV_STATE_CHECKED, COLOR_BG_PR_CHK);
 248:lvgl\src\lv_themes/lv_theme_material.c ****     lv_style_set_bg_color(&styles->bg_click, LV_STATE_DISABLED, COLOR_BG_DIS);
 249:lvgl\src\lv_themes/lv_theme_material.c ****     lv_style_set_border_width(&styles->bg_click, LV_STATE_CHECKED, 0);
 250:lvgl\src\lv_themes/lv_theme_material.c ****     lv_style_set_border_color(&styles->bg_click, LV_STATE_FOCUSED | LV_STATE_PRESSED, lv_color_dark
 251:lvgl\src\lv_themes/lv_theme_material.c ****                                                                                                    
 252:lvgl\src\lv_themes/lv_theme_material.c ****     lv_style_set_border_color(&styles->bg_click, LV_STATE_PRESSED, COLOR_BG_BORDER_PR);
 253:lvgl\src\lv_themes/lv_theme_material.c ****     lv_style_set_border_color(&styles->bg_click, LV_STATE_CHECKED, COLOR_BG_BORDER_CHK);
 254:lvgl\src\lv_themes/lv_theme_material.c ****     lv_style_set_border_color(&styles->bg_click, LV_STATE_PRESSED | LV_STATE_CHECKED, COLOR_BG_BORD
 255:lvgl\src\lv_themes/lv_theme_material.c ****     lv_style_set_border_color(&styles->bg_click, LV_STATE_DISABLED, COLOR_BG_BORDER_DIS);
 256:lvgl\src\lv_themes/lv_theme_material.c ****     lv_style_set_text_color(&styles->bg_click, LV_STATE_PRESSED, COLOR_BG_TEXT_PR);
 257:lvgl\src\lv_themes/lv_theme_material.c ****     lv_style_set_text_color(&styles->bg_click, LV_STATE_CHECKED, COLOR_BG_TEXT_CHK);
 258:lvgl\src\lv_themes/lv_theme_material.c ****     lv_style_set_text_color(&styles->bg_click, LV_STATE_PRESSED | LV_STATE_CHECKED, COLOR_BG_TEXT_C
 259:lvgl\src\lv_themes/lv_theme_material.c ****     lv_style_set_text_color(&styles->bg_click, LV_STATE_DISABLED, COLOR_BG_TEXT_DIS);
ARM GAS  C:\Users\strap\AppData\Local\Temp\ccCyLI52.s 			page 6


 260:lvgl\src\lv_themes/lv_theme_material.c ****     lv_style_set_image_recolor(&styles->bg_click, LV_STATE_PRESSED, COLOR_BG_TEXT_PR);
 261:lvgl\src\lv_themes/lv_theme_material.c ****     lv_style_set_image_recolor(&styles->bg_click, LV_STATE_CHECKED, COLOR_BG_TEXT_CHK);
 262:lvgl\src\lv_themes/lv_theme_material.c ****     lv_style_set_image_recolor(&styles->bg_click, LV_STATE_PRESSED | LV_STATE_CHECKED, COLOR_BG_TEX
 263:lvgl\src\lv_themes/lv_theme_material.c ****     lv_style_set_image_recolor(&styles->bg_click, LV_STATE_DISABLED, COLOR_BG_TEXT_DIS);
 264:lvgl\src\lv_themes/lv_theme_material.c ****     lv_style_set_transition_prop_5(&styles->bg_click, LV_STATE_DEFAULT, LV_STYLE_BG_COLOR);
 265:lvgl\src\lv_themes/lv_theme_material.c **** 
 266:lvgl\src\lv_themes/lv_theme_material.c ****     style_init_reset(&styles->btn);
 267:lvgl\src\lv_themes/lv_theme_material.c ****     lv_style_set_radius(&styles->btn, LV_STATE_DEFAULT, LV_RADIUS_CIRCLE);
 268:lvgl\src\lv_themes/lv_theme_material.c ****     lv_style_set_bg_opa(&styles->btn, LV_STATE_DEFAULT, LV_OPA_COVER);
 269:lvgl\src\lv_themes/lv_theme_material.c ****     lv_style_set_bg_color(&styles->btn, LV_STATE_DEFAULT, COLOR_BTN);
 270:lvgl\src\lv_themes/lv_theme_material.c ****     lv_style_set_bg_color(&styles->btn, LV_STATE_PRESSED, COLOR_BTN_PR);
 271:lvgl\src\lv_themes/lv_theme_material.c ****     lv_style_set_bg_color(&styles->btn, LV_STATE_CHECKED, COLOR_BTN_CHK);
 272:lvgl\src\lv_themes/lv_theme_material.c ****     lv_style_set_bg_color(&styles->btn, LV_STATE_CHECKED | LV_STATE_PRESSED, COLOR_BTN_CHK_PR);
 273:lvgl\src\lv_themes/lv_theme_material.c ****     lv_style_set_bg_color(&styles->btn, LV_STATE_DISABLED, COLOR_BTN);
 274:lvgl\src\lv_themes/lv_theme_material.c ****     lv_style_set_bg_color(&styles->btn, LV_STATE_DISABLED | LV_STATE_CHECKED, COLOR_BTN_DIS);
 275:lvgl\src\lv_themes/lv_theme_material.c ****     lv_style_set_border_color(&styles->btn, LV_STATE_DEFAULT, COLOR_BTN_BORDER);
 276:lvgl\src\lv_themes/lv_theme_material.c ****     lv_style_set_border_color(&styles->btn, LV_STATE_PRESSED, COLOR_BTN_BORDER_PR);
 277:lvgl\src\lv_themes/lv_theme_material.c ****     lv_style_set_border_color(&styles->btn, LV_STATE_DISABLED, COLOR_BTN_BORDER_INA);
 278:lvgl\src\lv_themes/lv_theme_material.c ****     lv_style_set_border_width(&styles->btn, LV_STATE_DEFAULT, BORDER_WIDTH);
 279:lvgl\src\lv_themes/lv_theme_material.c ****     lv_style_set_border_opa(&styles->btn, LV_STATE_CHECKED, LV_OPA_TRANSP);
 280:lvgl\src\lv_themes/lv_theme_material.c **** 
 281:lvgl\src\lv_themes/lv_theme_material.c ****     lv_style_set_text_color(&styles->btn, LV_STATE_DEFAULT, IS_LIGHT ? lv_color_hex(0x31404f) : lv_
 282:lvgl\src\lv_themes/lv_theme_material.c ****     lv_style_set_text_color(&styles->btn, LV_STATE_PRESSED, IS_LIGHT ? lv_color_hex(0x31404f) : lv_
 283:lvgl\src\lv_themes/lv_theme_material.c ****     lv_style_set_text_color(&styles->btn, LV_STATE_CHECKED,  lv_color_hex(0xffffff));
 284:lvgl\src\lv_themes/lv_theme_material.c ****     lv_style_set_text_color(&styles->btn, LV_STATE_CHECKED | LV_STATE_PRESSED, lv_color_hex(0xfffff
 285:lvgl\src\lv_themes/lv_theme_material.c ****     lv_style_set_text_color(&styles->btn, LV_STATE_DISABLED, IS_LIGHT ? lv_color_hex(0x888888) : lv
 286:lvgl\src\lv_themes/lv_theme_material.c **** 
 287:lvgl\src\lv_themes/lv_theme_material.c ****     lv_style_set_image_recolor(&styles->btn, LV_STATE_DEFAULT, IS_LIGHT ? lv_color_hex(0x31404f) : 
 288:lvgl\src\lv_themes/lv_theme_material.c ****     lv_style_set_image_recolor(&styles->btn, LV_STATE_PRESSED, IS_LIGHT ? lv_color_hex(0x31404f) : 
 289:lvgl\src\lv_themes/lv_theme_material.c ****     lv_style_set_image_recolor(&styles->btn, LV_STATE_PRESSED, lv_color_hex(0xffffff));
 290:lvgl\src\lv_themes/lv_theme_material.c ****     lv_style_set_image_recolor(&styles->btn, LV_STATE_CHECKED | LV_STATE_PRESSED, lv_color_hex(0xff
 291:lvgl\src\lv_themes/lv_theme_material.c ****     lv_style_set_image_recolor(&styles->btn, LV_STATE_DISABLED, IS_LIGHT ? lv_color_hex(0x888888) :
 292:lvgl\src\lv_themes/lv_theme_material.c **** 
 293:lvgl\src\lv_themes/lv_theme_material.c ****     lv_style_set_value_color(&styles->btn, LV_STATE_DEFAULT, IS_LIGHT ? lv_color_hex(0x31404f) : lv
 294:lvgl\src\lv_themes/lv_theme_material.c ****     lv_style_set_value_color(&styles->btn, LV_STATE_PRESSED, IS_LIGHT ? lv_color_hex(0x31404f) : lv
 295:lvgl\src\lv_themes/lv_theme_material.c ****     lv_style_set_value_color(&styles->btn, LV_STATE_CHECKED,  lv_color_hex(0xffffff));
 296:lvgl\src\lv_themes/lv_theme_material.c ****     lv_style_set_value_color(&styles->btn, LV_STATE_CHECKED | LV_STATE_PRESSED, lv_color_hex(0xffff
 297:lvgl\src\lv_themes/lv_theme_material.c ****     lv_style_set_value_color(&styles->btn, LV_STATE_DISABLED, IS_LIGHT ? lv_color_hex(0x888888) : l
 298:lvgl\src\lv_themes/lv_theme_material.c **** 
 299:lvgl\src\lv_themes/lv_theme_material.c ****     lv_style_set_pad_left(&styles->btn, LV_STATE_DEFAULT, LV_DPX(40));
 300:lvgl\src\lv_themes/lv_theme_material.c ****     lv_style_set_pad_right(&styles->btn, LV_STATE_DEFAULT, LV_DPX(40));
 301:lvgl\src\lv_themes/lv_theme_material.c ****     lv_style_set_pad_top(&styles->btn, LV_STATE_DEFAULT, LV_DPX(15));
 302:lvgl\src\lv_themes/lv_theme_material.c ****     lv_style_set_pad_bottom(&styles->btn, LV_STATE_DEFAULT, LV_DPX(15));
 303:lvgl\src\lv_themes/lv_theme_material.c ****     lv_style_set_pad_inner(&styles->btn, LV_STATE_DEFAULT, LV_DPX(20));
 304:lvgl\src\lv_themes/lv_theme_material.c ****     lv_style_set_outline_width(&styles->btn, LV_STATE_DEFAULT, OUTLINE_WIDTH);
 305:lvgl\src\lv_themes/lv_theme_material.c ****     lv_style_set_outline_opa(&styles->btn, LV_STATE_DEFAULT, LV_OPA_0);
 306:lvgl\src\lv_themes/lv_theme_material.c ****     lv_style_set_outline_opa(&styles->btn, LV_STATE_FOCUSED, LV_OPA_50);
 307:lvgl\src\lv_themes/lv_theme_material.c ****     lv_style_set_outline_color(&styles->btn, LV_STATE_DEFAULT, theme.color_primary);
 308:lvgl\src\lv_themes/lv_theme_material.c ****     lv_style_set_outline_color(&styles->btn, LV_STATE_EDITED, theme.color_secondary);
 309:lvgl\src\lv_themes/lv_theme_material.c ****     lv_style_set_transition_time(&styles->btn, LV_STATE_DEFAULT, TRANSITION_TIME);
 310:lvgl\src\lv_themes/lv_theme_material.c ****     lv_style_set_transition_prop_4(&styles->btn, LV_STATE_DEFAULT, LV_STYLE_BORDER_OPA);
 311:lvgl\src\lv_themes/lv_theme_material.c ****     lv_style_set_transition_prop_5(&styles->btn, LV_STATE_DEFAULT, LV_STYLE_BG_COLOR);
 312:lvgl\src\lv_themes/lv_theme_material.c ****     lv_style_set_transition_prop_6(&styles->btn, LV_STATE_DEFAULT, LV_STYLE_OUTLINE_OPA);
 313:lvgl\src\lv_themes/lv_theme_material.c ****     lv_style_set_transition_delay(&styles->btn, LV_STATE_DEFAULT, TRANSITION_TIME);
 314:lvgl\src\lv_themes/lv_theme_material.c ****     lv_style_set_transition_delay(&styles->btn, LV_STATE_PRESSED, 0);
 315:lvgl\src\lv_themes/lv_theme_material.c **** 
 316:lvgl\src\lv_themes/lv_theme_material.c ****     style_init_reset(&styles->pad_inner);
ARM GAS  C:\Users\strap\AppData\Local\Temp\ccCyLI52.s 			page 7


 317:lvgl\src\lv_themes/lv_theme_material.c **** 
 318:lvgl\src\lv_themes/lv_theme_material.c ****     lv_style_set_pad_inner(&styles->pad_inner, LV_STATE_DEFAULT,
 319:lvgl\src\lv_themes/lv_theme_material.c ****                            lv_disp_get_size_category(NULL) <= LV_DISP_MEDIUM_LIMIT ? LV_DPX(20) : L
 320:lvgl\src\lv_themes/lv_theme_material.c **** 
 321:lvgl\src\lv_themes/lv_theme_material.c ****     style_init_reset(&styles->pad_small);
 322:lvgl\src\lv_themes/lv_theme_material.c ****     lv_style_int_t pad_small_value = lv_disp_get_size_category(NULL) <= LV_DISP_MEDIUM_LIMIT ? LV_D
 323:lvgl\src\lv_themes/lv_theme_material.c ****     lv_style_set_pad_left(&styles->pad_small, LV_STATE_DEFAULT,  pad_small_value);
 324:lvgl\src\lv_themes/lv_theme_material.c ****     lv_style_set_pad_right(&styles->pad_small, LV_STATE_DEFAULT, pad_small_value);
 325:lvgl\src\lv_themes/lv_theme_material.c ****     lv_style_set_pad_top(&styles->pad_small, LV_STATE_DEFAULT,  pad_small_value);
 326:lvgl\src\lv_themes/lv_theme_material.c ****     lv_style_set_pad_bottom(&styles->pad_small, LV_STATE_DEFAULT, pad_small_value);
 327:lvgl\src\lv_themes/lv_theme_material.c ****     lv_style_set_pad_inner(&styles->pad_small, LV_STATE_DEFAULT, pad_small_value);
 328:lvgl\src\lv_themes/lv_theme_material.c **** }
 329:lvgl\src\lv_themes/lv_theme_material.c **** 
 330:lvgl\src\lv_themes/lv_theme_material.c **** static void cont_init(void)
 331:lvgl\src\lv_themes/lv_theme_material.c **** {
 332:lvgl\src\lv_themes/lv_theme_material.c **** #if LV_USE_CONT != 0
 333:lvgl\src\lv_themes/lv_theme_material.c **** 
 334:lvgl\src\lv_themes/lv_theme_material.c **** #endif
 335:lvgl\src\lv_themes/lv_theme_material.c **** }
 336:lvgl\src\lv_themes/lv_theme_material.c **** 
 337:lvgl\src\lv_themes/lv_theme_material.c **** static void btn_init(void)
 338:lvgl\src\lv_themes/lv_theme_material.c **** {
 339:lvgl\src\lv_themes/lv_theme_material.c **** #if LV_USE_BTN != 0
 340:lvgl\src\lv_themes/lv_theme_material.c **** 
 341:lvgl\src\lv_themes/lv_theme_material.c **** #endif
 342:lvgl\src\lv_themes/lv_theme_material.c **** }
 343:lvgl\src\lv_themes/lv_theme_material.c **** 
 344:lvgl\src\lv_themes/lv_theme_material.c **** static void label_init(void)
 345:lvgl\src\lv_themes/lv_theme_material.c **** {
 346:lvgl\src\lv_themes/lv_theme_material.c **** #if LV_USE_LABEL != 0
 347:lvgl\src\lv_themes/lv_theme_material.c **** 
 348:lvgl\src\lv_themes/lv_theme_material.c **** #endif
 349:lvgl\src\lv_themes/lv_theme_material.c **** }
 350:lvgl\src\lv_themes/lv_theme_material.c **** 
 351:lvgl\src\lv_themes/lv_theme_material.c **** static void bar_init(void)
 352:lvgl\src\lv_themes/lv_theme_material.c **** {
 353:lvgl\src\lv_themes/lv_theme_material.c **** #if LV_USE_BAR
 354:lvgl\src\lv_themes/lv_theme_material.c ****     style_init_reset(&styles->bar_bg);
 355:lvgl\src\lv_themes/lv_theme_material.c ****     lv_style_set_radius(&styles->bar_bg, LV_STATE_DEFAULT, LV_RADIUS_CIRCLE);
 356:lvgl\src\lv_themes/lv_theme_material.c ****     lv_style_set_bg_opa(&styles->bar_bg, LV_STATE_DEFAULT, LV_OPA_COVER);
 357:lvgl\src\lv_themes/lv_theme_material.c ****     lv_style_set_bg_color(&styles->bar_bg, LV_STATE_DEFAULT, COLOR_BG_SEC);
 358:lvgl\src\lv_themes/lv_theme_material.c ****     lv_style_set_value_color(&styles->bar_bg, LV_STATE_DEFAULT, IS_LIGHT ? lv_color_hex(0x31404f) :
 359:lvgl\src\lv_themes/lv_theme_material.c ****     lv_style_set_outline_color(&styles->bar_bg, LV_STATE_DEFAULT, theme.color_primary);
 360:lvgl\src\lv_themes/lv_theme_material.c ****     lv_style_set_outline_color(&styles->bar_bg, LV_STATE_EDITED, theme.color_secondary);
 361:lvgl\src\lv_themes/lv_theme_material.c ****     lv_style_set_outline_opa(&styles->bar_bg, LV_STATE_DEFAULT, LV_OPA_TRANSP);
 362:lvgl\src\lv_themes/lv_theme_material.c ****     lv_style_set_outline_opa(&styles->bar_bg, LV_STATE_FOCUSED, LV_OPA_50);
 363:lvgl\src\lv_themes/lv_theme_material.c ****     lv_style_set_outline_width(&styles->bar_bg, LV_STATE_DEFAULT, OUTLINE_WIDTH);
 364:lvgl\src\lv_themes/lv_theme_material.c ****     lv_style_set_transition_time(&styles->bar_bg, LV_STATE_DEFAULT, TRANSITION_TIME);
 365:lvgl\src\lv_themes/lv_theme_material.c ****     lv_style_set_transition_prop_6(&styles->bar_bg, LV_STATE_DEFAULT, LV_STYLE_OUTLINE_OPA);
 366:lvgl\src\lv_themes/lv_theme_material.c **** 
 367:lvgl\src\lv_themes/lv_theme_material.c ****     style_init_reset(&styles->bar_indic);
 368:lvgl\src\lv_themes/lv_theme_material.c ****     lv_style_set_bg_opa(&styles->bar_indic, LV_STATE_DEFAULT, LV_OPA_COVER);
 369:lvgl\src\lv_themes/lv_theme_material.c ****     lv_style_set_radius(&styles->bar_indic, LV_STATE_DEFAULT, LV_RADIUS_CIRCLE);
 370:lvgl\src\lv_themes/lv_theme_material.c ****     lv_style_set_bg_color(&styles->bar_indic, LV_STATE_DEFAULT, theme.color_primary);
 371:lvgl\src\lv_themes/lv_theme_material.c ****     lv_style_set_bg_color(&styles->bar_indic, LV_STATE_DISABLED, lv_color_hex3(0x888));
 372:lvgl\src\lv_themes/lv_theme_material.c ****     lv_style_set_value_color(&styles->bar_indic, LV_STATE_DEFAULT, IS_LIGHT ? lv_color_hex(0x41404f
 373:lvgl\src\lv_themes/lv_theme_material.c **** #endif
ARM GAS  C:\Users\strap\AppData\Local\Temp\ccCyLI52.s 			page 8


 374:lvgl\src\lv_themes/lv_theme_material.c **** }
 375:lvgl\src\lv_themes/lv_theme_material.c **** 
 376:lvgl\src\lv_themes/lv_theme_material.c **** static void img_init(void)
 377:lvgl\src\lv_themes/lv_theme_material.c **** {
 378:lvgl\src\lv_themes/lv_theme_material.c **** #if LV_USE_IMG != 0
 379:lvgl\src\lv_themes/lv_theme_material.c **** 
 380:lvgl\src\lv_themes/lv_theme_material.c **** #endif
 381:lvgl\src\lv_themes/lv_theme_material.c **** }
 382:lvgl\src\lv_themes/lv_theme_material.c **** 
 383:lvgl\src\lv_themes/lv_theme_material.c **** static void line_init(void)
 384:lvgl\src\lv_themes/lv_theme_material.c **** {
 385:lvgl\src\lv_themes/lv_theme_material.c **** #if LV_USE_LINE != 0
 386:lvgl\src\lv_themes/lv_theme_material.c **** 
 387:lvgl\src\lv_themes/lv_theme_material.c **** #endif
 388:lvgl\src\lv_themes/lv_theme_material.c **** }
 389:lvgl\src\lv_themes/lv_theme_material.c **** 
 390:lvgl\src\lv_themes/lv_theme_material.c **** static void led_init(void)
 391:lvgl\src\lv_themes/lv_theme_material.c **** {
 392:lvgl\src\lv_themes/lv_theme_material.c **** #if LV_USE_LED != 0
 393:lvgl\src\lv_themes/lv_theme_material.c ****     style_init_reset(&styles->led);
 394:lvgl\src\lv_themes/lv_theme_material.c ****     lv_style_set_bg_opa(&styles->led, LV_STATE_DEFAULT, LV_OPA_COVER);
 395:lvgl\src\lv_themes/lv_theme_material.c ****     lv_style_set_bg_color(&styles->led, LV_STATE_DEFAULT, theme.color_primary);
 396:lvgl\src\lv_themes/lv_theme_material.c ****     lv_style_set_border_width(&styles->led, LV_STATE_DEFAULT, 2);
 397:lvgl\src\lv_themes/lv_theme_material.c ****     lv_style_set_border_opa(&styles->led, LV_STATE_DEFAULT, LV_OPA_50);
 398:lvgl\src\lv_themes/lv_theme_material.c ****     lv_style_set_border_color(&styles->led, LV_STATE_DEFAULT, lv_color_lighten(theme.color_primary,
 399:lvgl\src\lv_themes/lv_theme_material.c ****     lv_style_set_radius(&styles->led, LV_STATE_DEFAULT, LV_RADIUS_CIRCLE);
 400:lvgl\src\lv_themes/lv_theme_material.c ****     lv_style_set_shadow_width(&styles->led, LV_STATE_DEFAULT, LV_DPX(15));
 401:lvgl\src\lv_themes/lv_theme_material.c ****     lv_style_set_shadow_color(&styles->led, LV_STATE_DEFAULT, theme.color_primary);
 402:lvgl\src\lv_themes/lv_theme_material.c ****     lv_style_set_shadow_spread(&styles->led, LV_STATE_DEFAULT, LV_DPX(5));
 403:lvgl\src\lv_themes/lv_theme_material.c **** #endif
 404:lvgl\src\lv_themes/lv_theme_material.c **** }
 405:lvgl\src\lv_themes/lv_theme_material.c **** 
 406:lvgl\src\lv_themes/lv_theme_material.c **** static void slider_init(void)
 407:lvgl\src\lv_themes/lv_theme_material.c **** {
 408:lvgl\src\lv_themes/lv_theme_material.c **** #if LV_USE_SLIDER != 0
 409:lvgl\src\lv_themes/lv_theme_material.c ****     style_init_reset(&styles->slider_knob);
 410:lvgl\src\lv_themes/lv_theme_material.c ****     lv_style_set_bg_opa(&styles->slider_knob, LV_STATE_DEFAULT, LV_OPA_COVER);
 411:lvgl\src\lv_themes/lv_theme_material.c ****     lv_style_set_bg_color(&styles->slider_knob, LV_STATE_DEFAULT, IS_LIGHT ? theme.color_primary : 
 412:lvgl\src\lv_themes/lv_theme_material.c ****     lv_style_set_value_color(&styles->slider_knob, LV_STATE_DEFAULT, IS_LIGHT ? lv_color_hex(0x3140
 413:lvgl\src\lv_themes/lv_theme_material.c ****     lv_style_set_radius(&styles->slider_knob, LV_STATE_DEFAULT, LV_RADIUS_CIRCLE);
 414:lvgl\src\lv_themes/lv_theme_material.c ****     lv_style_set_pad_left(&styles->slider_knob, LV_STATE_DEFAULT, LV_DPX(7));
 415:lvgl\src\lv_themes/lv_theme_material.c ****     lv_style_set_pad_right(&styles->slider_knob, LV_STATE_DEFAULT, LV_DPX(7));
 416:lvgl\src\lv_themes/lv_theme_material.c ****     lv_style_set_pad_top(&styles->slider_knob, LV_STATE_DEFAULT, LV_DPX(7));
 417:lvgl\src\lv_themes/lv_theme_material.c ****     lv_style_set_pad_bottom(&styles->slider_knob, LV_STATE_DEFAULT, LV_DPX(7));
 418:lvgl\src\lv_themes/lv_theme_material.c **** 
 419:lvgl\src\lv_themes/lv_theme_material.c ****     style_init_reset(&styles->slider_bg);
 420:lvgl\src\lv_themes/lv_theme_material.c ****     lv_style_set_margin_left(&styles->slider_bg, LV_STATE_DEFAULT, LV_DPX(10));
 421:lvgl\src\lv_themes/lv_theme_material.c ****     lv_style_set_margin_right(&styles->slider_bg, LV_STATE_DEFAULT, LV_DPX(10));
 422:lvgl\src\lv_themes/lv_theme_material.c ****     lv_style_set_margin_top(&styles->slider_bg, LV_STATE_DEFAULT, LV_DPX(10));
 423:lvgl\src\lv_themes/lv_theme_material.c ****     lv_style_set_margin_bottom(&styles->slider_bg, LV_STATE_DEFAULT, LV_DPX(10));
 424:lvgl\src\lv_themes/lv_theme_material.c **** 
 425:lvgl\src\lv_themes/lv_theme_material.c **** #endif
 426:lvgl\src\lv_themes/lv_theme_material.c **** }
 427:lvgl\src\lv_themes/lv_theme_material.c **** 
 428:lvgl\src\lv_themes/lv_theme_material.c **** static void switch_init(void)
 429:lvgl\src\lv_themes/lv_theme_material.c **** {
 430:lvgl\src\lv_themes/lv_theme_material.c **** #if LV_USE_SWITCH != 0
ARM GAS  C:\Users\strap\AppData\Local\Temp\ccCyLI52.s 			page 9


 431:lvgl\src\lv_themes/lv_theme_material.c ****     style_init_reset(&styles->sw_knob);
 432:lvgl\src\lv_themes/lv_theme_material.c ****     lv_style_set_bg_opa(&styles->sw_knob, LV_STATE_DEFAULT, LV_OPA_COVER);
 433:lvgl\src\lv_themes/lv_theme_material.c ****     lv_style_set_bg_color(&styles->sw_knob, LV_STATE_DEFAULT, LV_COLOR_WHITE);
 434:lvgl\src\lv_themes/lv_theme_material.c ****     lv_style_set_radius(&styles->sw_knob, LV_STATE_DEFAULT, LV_RADIUS_CIRCLE);
 435:lvgl\src\lv_themes/lv_theme_material.c ****     lv_style_set_pad_top(&styles->sw_knob, LV_STATE_DEFAULT,    - LV_DPX(4));
 436:lvgl\src\lv_themes/lv_theme_material.c ****     lv_style_set_pad_bottom(&styles->sw_knob, LV_STATE_DEFAULT, - LV_DPX(4));
 437:lvgl\src\lv_themes/lv_theme_material.c ****     lv_style_set_pad_left(&styles->sw_knob, LV_STATE_DEFAULT,   - LV_DPX(4));
 438:lvgl\src\lv_themes/lv_theme_material.c ****     lv_style_set_pad_right(&styles->sw_knob, LV_STATE_DEFAULT,  - LV_DPX(4));
 439:lvgl\src\lv_themes/lv_theme_material.c **** #endif
 440:lvgl\src\lv_themes/lv_theme_material.c **** }
 441:lvgl\src\lv_themes/lv_theme_material.c **** 
 442:lvgl\src\lv_themes/lv_theme_material.c **** static void linemeter_init(void)
 443:lvgl\src\lv_themes/lv_theme_material.c **** {
 444:lvgl\src\lv_themes/lv_theme_material.c **** #if LV_USE_LINEMETER != 0
 445:lvgl\src\lv_themes/lv_theme_material.c ****     style_init_reset(&styles->lmeter);
 446:lvgl\src\lv_themes/lv_theme_material.c ****     lv_style_set_radius(&styles->lmeter, LV_STATE_DEFAULT, LV_RADIUS_CIRCLE);
 447:lvgl\src\lv_themes/lv_theme_material.c ****     lv_style_set_pad_left(&styles->lmeter, LV_STATE_DEFAULT, LV_DPX(20));
 448:lvgl\src\lv_themes/lv_theme_material.c ****     lv_style_set_pad_right(&styles->lmeter, LV_STATE_DEFAULT, LV_DPX(20));
 449:lvgl\src\lv_themes/lv_theme_material.c ****     lv_style_set_pad_top(&styles->lmeter, LV_STATE_DEFAULT, LV_DPX(20));
 450:lvgl\src\lv_themes/lv_theme_material.c ****     lv_style_set_pad_inner(&styles->lmeter, LV_STATE_DEFAULT, LV_DPX(30));
 451:lvgl\src\lv_themes/lv_theme_material.c ****     lv_style_set_scale_width(&styles->lmeter, LV_STATE_DEFAULT, LV_DPX(25));
 452:lvgl\src\lv_themes/lv_theme_material.c **** 
 453:lvgl\src\lv_themes/lv_theme_material.c ****     lv_style_set_line_color(&styles->lmeter, LV_STATE_DEFAULT, theme.color_primary);
 454:lvgl\src\lv_themes/lv_theme_material.c ****     lv_style_set_scale_grad_color(&styles->lmeter, LV_STATE_DEFAULT, theme.color_primary);
 455:lvgl\src\lv_themes/lv_theme_material.c ****     lv_style_set_scale_end_color(&styles->lmeter, LV_STATE_DEFAULT, lv_color_hex3(0x888));
 456:lvgl\src\lv_themes/lv_theme_material.c ****     lv_style_set_line_width(&styles->lmeter, LV_STATE_DEFAULT, LV_DPX(10));
 457:lvgl\src\lv_themes/lv_theme_material.c ****     lv_style_set_scale_end_line_width(&styles->lmeter, LV_STATE_DEFAULT, LV_DPX(7));
 458:lvgl\src\lv_themes/lv_theme_material.c **** #endif
 459:lvgl\src\lv_themes/lv_theme_material.c **** }
 460:lvgl\src\lv_themes/lv_theme_material.c **** 
 461:lvgl\src\lv_themes/lv_theme_material.c **** static void gauge_init(void)
 462:lvgl\src\lv_themes/lv_theme_material.c **** {
 463:lvgl\src\lv_themes/lv_theme_material.c **** #if LV_USE_GAUGE != 0
 464:lvgl\src\lv_themes/lv_theme_material.c ****     style_init_reset(&styles->gauge_main);
 465:lvgl\src\lv_themes/lv_theme_material.c ****     lv_style_set_line_color(&styles->gauge_main, LV_STATE_DEFAULT, lv_color_hex3(0x888));
 466:lvgl\src\lv_themes/lv_theme_material.c ****     lv_style_set_scale_grad_color(&styles->gauge_main, LV_STATE_DEFAULT, lv_color_hex3(0x888));
 467:lvgl\src\lv_themes/lv_theme_material.c ****     lv_style_set_scale_end_color(&styles->gauge_main, LV_STATE_DEFAULT, theme.color_primary);
 468:lvgl\src\lv_themes/lv_theme_material.c ****     lv_style_set_line_width(&styles->gauge_main, LV_STATE_DEFAULT, LV_DPX(5));
 469:lvgl\src\lv_themes/lv_theme_material.c ****     lv_style_set_scale_end_line_width(&styles->gauge_main, LV_STATE_DEFAULT, LV_DPX(4));
 470:lvgl\src\lv_themes/lv_theme_material.c ****     lv_style_set_scale_end_border_width(&styles->gauge_main, LV_STATE_DEFAULT, LV_DPX(8));
 471:lvgl\src\lv_themes/lv_theme_material.c ****     lv_style_set_pad_left(&styles->gauge_main, LV_STATE_DEFAULT, LV_DPX(20));
 472:lvgl\src\lv_themes/lv_theme_material.c ****     lv_style_set_pad_right(&styles->gauge_main, LV_STATE_DEFAULT, LV_DPX(20));
 473:lvgl\src\lv_themes/lv_theme_material.c ****     lv_style_set_pad_top(&styles->gauge_main, LV_STATE_DEFAULT, LV_DPX(20));
 474:lvgl\src\lv_themes/lv_theme_material.c ****     lv_style_set_pad_inner(&styles->gauge_main, LV_STATE_DEFAULT, LV_DPX(20));
 475:lvgl\src\lv_themes/lv_theme_material.c ****     lv_style_set_scale_width(&styles->gauge_main, LV_STATE_DEFAULT, LV_DPX(15));
 476:lvgl\src\lv_themes/lv_theme_material.c ****     lv_style_set_radius(&styles->gauge_main, LV_STATE_DEFAULT, LV_RADIUS_CIRCLE);
 477:lvgl\src\lv_themes/lv_theme_material.c **** 
 478:lvgl\src\lv_themes/lv_theme_material.c ****     style_init_reset(&styles->gauge_strong);
 479:lvgl\src\lv_themes/lv_theme_material.c ****     lv_style_set_line_color(&styles->gauge_strong, LV_STATE_DEFAULT, lv_color_hex3(0x888));
 480:lvgl\src\lv_themes/lv_theme_material.c ****     lv_style_set_scale_grad_color(&styles->gauge_strong, LV_STATE_DEFAULT, lv_color_hex3(0x888));
 481:lvgl\src\lv_themes/lv_theme_material.c ****     lv_style_set_scale_end_color(&styles->gauge_strong, LV_STATE_DEFAULT, theme.color_primary);
 482:lvgl\src\lv_themes/lv_theme_material.c ****     lv_style_set_line_width(&styles->gauge_strong, LV_STATE_DEFAULT, LV_DPX(8));
 483:lvgl\src\lv_themes/lv_theme_material.c ****     lv_style_set_scale_end_line_width(&styles->gauge_strong, LV_STATE_DEFAULT, LV_DPX(8));
 484:lvgl\src\lv_themes/lv_theme_material.c ****     lv_style_set_scale_width(&styles->gauge_strong, LV_STATE_DEFAULT, LV_DPX(25));
 485:lvgl\src\lv_themes/lv_theme_material.c **** 
 486:lvgl\src\lv_themes/lv_theme_material.c ****     style_init_reset(&styles->gauge_needle);
 487:lvgl\src\lv_themes/lv_theme_material.c ****     lv_style_set_line_color(&styles->gauge_needle, LV_STATE_DEFAULT, IS_LIGHT ? lv_color_hex(0x464b
ARM GAS  C:\Users\strap\AppData\Local\Temp\ccCyLI52.s 			page 10


 488:lvgl\src\lv_themes/lv_theme_material.c ****     lv_style_set_line_width(&styles->gauge_needle, LV_STATE_DEFAULT, LV_DPX(8));
 489:lvgl\src\lv_themes/lv_theme_material.c ****     lv_style_set_bg_opa(&styles->gauge_needle, LV_STATE_DEFAULT, LV_OPA_COVER);
 490:lvgl\src\lv_themes/lv_theme_material.c ****     lv_style_set_bg_color(&styles->gauge_needle, LV_STATE_DEFAULT, IS_LIGHT ? lv_color_hex(0x464b5b
 491:lvgl\src\lv_themes/lv_theme_material.c ****     lv_style_set_radius(&styles->gauge_needle, LV_STATE_DEFAULT, LV_RADIUS_CIRCLE);
 492:lvgl\src\lv_themes/lv_theme_material.c ****     lv_style_set_size(&styles->gauge_needle, LV_STATE_DEFAULT, LV_DPX(30));
 493:lvgl\src\lv_themes/lv_theme_material.c ****     lv_style_set_pad_inner(&styles->gauge_needle, LV_STATE_DEFAULT, LV_DPX(10));
 494:lvgl\src\lv_themes/lv_theme_material.c **** #endif
 495:lvgl\src\lv_themes/lv_theme_material.c **** }
 496:lvgl\src\lv_themes/lv_theme_material.c **** 
 497:lvgl\src\lv_themes/lv_theme_material.c **** static void arc_init(void)
 498:lvgl\src\lv_themes/lv_theme_material.c **** {
 499:lvgl\src\lv_themes/lv_theme_material.c **** #if LV_USE_ARC != 0
 500:lvgl\src\lv_themes/lv_theme_material.c ****     style_init_reset(&styles->arc_indic);
 501:lvgl\src\lv_themes/lv_theme_material.c ****     lv_style_set_line_color(&styles->arc_indic, LV_STATE_DEFAULT, theme.color_primary);
 502:lvgl\src\lv_themes/lv_theme_material.c ****     lv_style_set_line_width(&styles->arc_indic, LV_STATE_DEFAULT, LV_DPX(25));
 503:lvgl\src\lv_themes/lv_theme_material.c ****     lv_style_set_line_rounded(&styles->arc_indic, LV_STATE_DEFAULT, true);
 504:lvgl\src\lv_themes/lv_theme_material.c **** 
 505:lvgl\src\lv_themes/lv_theme_material.c ****     style_init_reset(&styles->arc_bg);
 506:lvgl\src\lv_themes/lv_theme_material.c ****     lv_style_set_line_color(&styles->arc_bg, LV_STATE_DEFAULT, COLOR_BG_SEC);
 507:lvgl\src\lv_themes/lv_theme_material.c ****     lv_style_set_line_width(&styles->arc_bg, LV_STATE_DEFAULT, LV_DPX(25));
 508:lvgl\src\lv_themes/lv_theme_material.c ****     lv_style_set_line_rounded(&styles->arc_bg, LV_STATE_DEFAULT, true);
 509:lvgl\src\lv_themes/lv_theme_material.c **** 
 510:lvgl\src\lv_themes/lv_theme_material.c ****     style_init_reset(&styles->arc_knob);
 511:lvgl\src\lv_themes/lv_theme_material.c ****     lv_style_set_radius(&styles->arc_knob, LV_STATE_DEFAULT,   LV_RADIUS_CIRCLE);
 512:lvgl\src\lv_themes/lv_theme_material.c ****     lv_style_set_pad_top(&styles->arc_knob, LV_STATE_DEFAULT,  LV_DPX(0));
 513:lvgl\src\lv_themes/lv_theme_material.c ****     lv_style_set_pad_bottom(&styles->arc_knob, LV_STATE_DEFAULT,  LV_DPX(0));
 514:lvgl\src\lv_themes/lv_theme_material.c ****     lv_style_set_pad_left(&styles->arc_knob, LV_STATE_DEFAULT,    LV_DPX(0));
 515:lvgl\src\lv_themes/lv_theme_material.c ****     lv_style_set_pad_right(&styles->arc_knob, LV_STATE_DEFAULT,   LV_DPX(0));
 516:lvgl\src\lv_themes/lv_theme_material.c **** 
 517:lvgl\src\lv_themes/lv_theme_material.c **** #endif
 518:lvgl\src\lv_themes/lv_theme_material.c **** }
 519:lvgl\src\lv_themes/lv_theme_material.c **** 
 520:lvgl\src\lv_themes/lv_theme_material.c **** static void spinner_init(void)
 521:lvgl\src\lv_themes/lv_theme_material.c **** {
 522:lvgl\src\lv_themes/lv_theme_material.c **** #if LV_USE_SPINNER != 0
 523:lvgl\src\lv_themes/lv_theme_material.c **** #endif
 524:lvgl\src\lv_themes/lv_theme_material.c **** }
 525:lvgl\src\lv_themes/lv_theme_material.c **** 
 526:lvgl\src\lv_themes/lv_theme_material.c **** static void chart_init(void)
 527:lvgl\src\lv_themes/lv_theme_material.c **** {
 528:lvgl\src\lv_themes/lv_theme_material.c **** #if LV_USE_CHART
 529:lvgl\src\lv_themes/lv_theme_material.c ****     style_init_reset(&styles->chart_bg);
 530:lvgl\src\lv_themes/lv_theme_material.c ****     lv_style_set_text_color(&styles->chart_bg, LV_STATE_DEFAULT, IS_LIGHT ? COLOR_BG_TEXT_DIS : lv_
 531:lvgl\src\lv_themes/lv_theme_material.c **** 
 532:lvgl\src\lv_themes/lv_theme_material.c ****     style_init_reset(&styles->chart_series_bg);
 533:lvgl\src\lv_themes/lv_theme_material.c ****     lv_style_set_line_width(&styles->chart_series_bg, LV_STATE_DEFAULT, LV_DPX(1));
 534:lvgl\src\lv_themes/lv_theme_material.c ****     lv_style_set_line_dash_width(&styles->chart_series_bg, LV_STATE_DEFAULT, LV_DPX(10));
 535:lvgl\src\lv_themes/lv_theme_material.c ****     lv_style_set_line_dash_gap(&styles->chart_series_bg, LV_STATE_DEFAULT, LV_DPX(10));
 536:lvgl\src\lv_themes/lv_theme_material.c ****     lv_style_set_line_color(&styles->chart_series_bg, LV_STATE_DEFAULT, COLOR_BG_BORDER);
 537:lvgl\src\lv_themes/lv_theme_material.c **** 
 538:lvgl\src\lv_themes/lv_theme_material.c ****     style_init_reset(&styles->chart_series);
 539:lvgl\src\lv_themes/lv_theme_material.c ****     lv_style_set_line_width(&styles->chart_series, LV_STATE_DEFAULT, LV_DPX(3));
 540:lvgl\src\lv_themes/lv_theme_material.c ****     lv_style_set_size(&styles->chart_series, LV_STATE_DEFAULT, LV_DPX(4));
 541:lvgl\src\lv_themes/lv_theme_material.c ****     lv_style_set_pad_inner(&styles->chart_series, LV_STATE_DEFAULT, LV_DPX(2));     /*Space between
 542:lvgl\src\lv_themes/lv_theme_material.c ****     lv_style_set_radius(&styles->chart_series, LV_STATE_DEFAULT, LV_DPX(1));
 543:lvgl\src\lv_themes/lv_theme_material.c **** 
 544:lvgl\src\lv_themes/lv_theme_material.c **** #endif
ARM GAS  C:\Users\strap\AppData\Local\Temp\ccCyLI52.s 			page 11


 545:lvgl\src\lv_themes/lv_theme_material.c **** }
 546:lvgl\src\lv_themes/lv_theme_material.c **** 
 547:lvgl\src\lv_themes/lv_theme_material.c **** static void calendar_init(void)
 548:lvgl\src\lv_themes/lv_theme_material.c **** {
 549:lvgl\src\lv_themes/lv_theme_material.c **** #if LV_USE_CALENDAR
 550:lvgl\src\lv_themes/lv_theme_material.c **** 
 551:lvgl\src\lv_themes/lv_theme_material.c ****     style_init_reset(&styles->calendar_header);
 552:lvgl\src\lv_themes/lv_theme_material.c ****     lv_style_set_pad_top(&styles->calendar_header, LV_STATE_DEFAULT, 0);
 553:lvgl\src\lv_themes/lv_theme_material.c ****     lv_style_set_pad_left(&styles->calendar_header, LV_STATE_DEFAULT, PAD_DEF);
 554:lvgl\src\lv_themes/lv_theme_material.c ****     lv_style_set_pad_right(&styles->calendar_header, LV_STATE_DEFAULT, PAD_DEF);
 555:lvgl\src\lv_themes/lv_theme_material.c ****     lv_style_set_pad_bottom(&styles->calendar_header, LV_STATE_DEFAULT, 0);
 556:lvgl\src\lv_themes/lv_theme_material.c ****     lv_style_set_margin_top(&styles->calendar_header, LV_STATE_DEFAULT, PAD_DEF);
 557:lvgl\src\lv_themes/lv_theme_material.c ****     lv_style_set_margin_bottom(&styles->calendar_header, LV_STATE_DEFAULT, PAD_DEF);
 558:lvgl\src\lv_themes/lv_theme_material.c ****     lv_style_set_text_color(&styles->calendar_header, LV_STATE_PRESSED, IS_LIGHT ? lv_color_hex(0x8
 559:lvgl\src\lv_themes/lv_theme_material.c **** 
 560:lvgl\src\lv_themes/lv_theme_material.c ****     style_init_reset(&styles->calendar_daynames);
 561:lvgl\src\lv_themes/lv_theme_material.c ****     lv_style_set_text_color(&styles->calendar_daynames, LV_STATE_DEFAULT,
 562:lvgl\src\lv_themes/lv_theme_material.c ****                             IS_LIGHT ? lv_color_hex(0x31404f) : lv_color_hex3(0xeee));
 563:lvgl\src\lv_themes/lv_theme_material.c ****     lv_style_set_pad_left(&styles->calendar_daynames, LV_STATE_DEFAULT, PAD_DEF);
 564:lvgl\src\lv_themes/lv_theme_material.c ****     lv_style_set_pad_right(&styles->calendar_daynames, LV_STATE_DEFAULT, PAD_DEF);
 565:lvgl\src\lv_themes/lv_theme_material.c ****     lv_style_set_pad_bottom(&styles->calendar_daynames, LV_STATE_DEFAULT, PAD_DEF);
 566:lvgl\src\lv_themes/lv_theme_material.c **** 
 567:lvgl\src\lv_themes/lv_theme_material.c ****     style_init_reset(&styles->calendar_date_nums);
 568:lvgl\src\lv_themes/lv_theme_material.c ****     lv_style_set_radius(&styles->calendar_date_nums, LV_STATE_DEFAULT, LV_DPX(4));
 569:lvgl\src\lv_themes/lv_theme_material.c ****     lv_style_set_text_color(&styles->calendar_date_nums, LV_STATE_CHECKED,
 570:lvgl\src\lv_themes/lv_theme_material.c ****                             IS_LIGHT ? lv_color_hex(0x31404f) : LV_COLOR_WHITE);
 571:lvgl\src\lv_themes/lv_theme_material.c ****     lv_style_set_text_color(&styles->calendar_date_nums, LV_STATE_DISABLED, LV_COLOR_GRAY);
 572:lvgl\src\lv_themes/lv_theme_material.c ****     lv_style_set_bg_opa(&styles->calendar_date_nums, LV_STATE_CHECKED, IS_LIGHT ? LV_OPA_20 : LV_OP
 573:lvgl\src\lv_themes/lv_theme_material.c ****     lv_style_set_bg_opa(&styles->calendar_date_nums, LV_STATE_PRESSED, LV_OPA_20);
 574:lvgl\src\lv_themes/lv_theme_material.c ****     lv_style_set_bg_opa(&styles->calendar_date_nums, LV_STATE_FOCUSED, LV_OPA_COVER);
 575:lvgl\src\lv_themes/lv_theme_material.c ****     lv_style_set_text_color(&styles->calendar_date_nums, LV_STATE_FOCUSED, LV_COLOR_WHITE);
 576:lvgl\src\lv_themes/lv_theme_material.c ****     lv_style_set_bg_color(&styles->calendar_date_nums, LV_STATE_FOCUSED, theme.color_primary);
 577:lvgl\src\lv_themes/lv_theme_material.c ****     lv_style_set_bg_color(&styles->calendar_date_nums, LV_STATE_DEFAULT,
 578:lvgl\src\lv_themes/lv_theme_material.c ****                           IS_LIGHT ? lv_color_hex(0x666666) : LV_COLOR_WHITE);
 579:lvgl\src\lv_themes/lv_theme_material.c ****     lv_style_set_bg_color(&styles->calendar_date_nums, LV_STATE_CHECKED, theme.color_primary);
 580:lvgl\src\lv_themes/lv_theme_material.c ****     lv_style_set_border_width(&styles->calendar_date_nums, LV_STATE_CHECKED, 2);
 581:lvgl\src\lv_themes/lv_theme_material.c ****     lv_style_set_border_side(&styles->calendar_date_nums, LV_STATE_CHECKED, LV_BORDER_SIDE_LEFT);
 582:lvgl\src\lv_themes/lv_theme_material.c ****     lv_style_set_border_color(&styles->calendar_date_nums, LV_STATE_CHECKED, theme.color_primary);
 583:lvgl\src\lv_themes/lv_theme_material.c ****     lv_style_set_pad_inner(&styles->calendar_date_nums, LV_STATE_DEFAULT, LV_DPX(3));
 584:lvgl\src\lv_themes/lv_theme_material.c ****     lv_style_set_pad_left(&styles->calendar_date_nums, LV_STATE_DEFAULT, PAD_DEF);
 585:lvgl\src\lv_themes/lv_theme_material.c ****     lv_style_set_pad_right(&styles->calendar_date_nums, LV_STATE_DEFAULT, PAD_DEF);
 586:lvgl\src\lv_themes/lv_theme_material.c ****     lv_style_set_pad_bottom(&styles->calendar_date_nums, LV_STATE_DEFAULT, PAD_DEF);
 587:lvgl\src\lv_themes/lv_theme_material.c **** #endif
 588:lvgl\src\lv_themes/lv_theme_material.c **** }
 589:lvgl\src\lv_themes/lv_theme_material.c **** 
 590:lvgl\src\lv_themes/lv_theme_material.c **** static void cpicker_init(void)
 591:lvgl\src\lv_themes/lv_theme_material.c **** {
 592:lvgl\src\lv_themes/lv_theme_material.c **** #if LV_USE_CPICKER
 593:lvgl\src\lv_themes/lv_theme_material.c ****     style_init_reset(&styles->cpicker_bg);
 594:lvgl\src\lv_themes/lv_theme_material.c ****     lv_style_set_scale_width(&styles->cpicker_bg, LV_STATE_DEFAULT, LV_DPX(30));
 595:lvgl\src\lv_themes/lv_theme_material.c ****     lv_style_set_bg_opa(&styles->cpicker_bg, LV_STATE_DEFAULT, LV_OPA_COVER);
 596:lvgl\src\lv_themes/lv_theme_material.c ****     lv_style_set_bg_color(&styles->cpicker_bg, LV_STATE_DEFAULT, COLOR_SCR);
 597:lvgl\src\lv_themes/lv_theme_material.c ****     lv_style_set_pad_inner(&styles->cpicker_bg, LV_STATE_DEFAULT, LV_DPX(20));
 598:lvgl\src\lv_themes/lv_theme_material.c ****     lv_style_set_radius(&styles->cpicker_bg, LV_STATE_DEFAULT, LV_RADIUS_CIRCLE);
 599:lvgl\src\lv_themes/lv_theme_material.c **** 
 600:lvgl\src\lv_themes/lv_theme_material.c ****     style_init_reset(&styles->cpicker_indic);
 601:lvgl\src\lv_themes/lv_theme_material.c ****     lv_style_set_radius(&styles->cpicker_indic, LV_STATE_DEFAULT, LV_RADIUS_CIRCLE);
ARM GAS  C:\Users\strap\AppData\Local\Temp\ccCyLI52.s 			page 12


 602:lvgl\src\lv_themes/lv_theme_material.c ****     lv_style_set_bg_color(&styles->cpicker_indic, LV_STATE_DEFAULT, LV_COLOR_WHITE);
 603:lvgl\src\lv_themes/lv_theme_material.c ****     lv_style_set_bg_opa(&styles->cpicker_indic, LV_STATE_DEFAULT, LV_OPA_COVER);
 604:lvgl\src\lv_themes/lv_theme_material.c ****     lv_style_set_border_width(&styles->cpicker_indic, LV_STATE_DEFAULT, 2);
 605:lvgl\src\lv_themes/lv_theme_material.c ****     lv_style_set_border_color(&styles->cpicker_indic, LV_STATE_DEFAULT, LV_COLOR_GRAY);
 606:lvgl\src\lv_themes/lv_theme_material.c ****     lv_style_set_border_color(&styles->cpicker_indic, LV_STATE_FOCUSED, theme.color_primary);
 607:lvgl\src\lv_themes/lv_theme_material.c ****     lv_style_set_border_color(&styles->cpicker_indic, LV_STATE_EDITED, theme.color_secondary);
 608:lvgl\src\lv_themes/lv_theme_material.c ****     lv_style_set_pad_left(&styles->cpicker_indic, LV_STATE_DEFAULT, LV_DPX(13));
 609:lvgl\src\lv_themes/lv_theme_material.c ****     lv_style_set_pad_right(&styles->cpicker_indic, LV_STATE_DEFAULT, LV_DPX(13));
 610:lvgl\src\lv_themes/lv_theme_material.c ****     lv_style_set_pad_top(&styles->cpicker_indic, LV_STATE_DEFAULT, LV_DPX(13));
 611:lvgl\src\lv_themes/lv_theme_material.c ****     lv_style_set_pad_bottom(&styles->cpicker_indic, LV_STATE_DEFAULT, LV_DPX(13));
 612:lvgl\src\lv_themes/lv_theme_material.c **** #endif
 613:lvgl\src\lv_themes/lv_theme_material.c **** }
 614:lvgl\src\lv_themes/lv_theme_material.c **** 
 615:lvgl\src\lv_themes/lv_theme_material.c **** static void checkbox_init(void)
 616:lvgl\src\lv_themes/lv_theme_material.c **** {
 617:lvgl\src\lv_themes/lv_theme_material.c **** #if LV_USE_CHECKBOX != 0
 618:lvgl\src\lv_themes/lv_theme_material.c ****     style_init_reset(&styles->cb_bg);
 619:lvgl\src\lv_themes/lv_theme_material.c ****     lv_style_set_radius(&styles->cb_bg, LV_STATE_DEFAULT, LV_DPX(4));
 620:lvgl\src\lv_themes/lv_theme_material.c ****     lv_style_set_pad_inner(&styles->cb_bg, LV_STATE_DEFAULT, LV_DPX(10));
 621:lvgl\src\lv_themes/lv_theme_material.c ****     lv_style_set_outline_color(&styles->cb_bg, LV_STATE_DEFAULT, theme.color_primary);
 622:lvgl\src\lv_themes/lv_theme_material.c ****     lv_style_set_outline_opa(&styles->cb_bg, LV_STATE_DEFAULT, LV_OPA_TRANSP);
 623:lvgl\src\lv_themes/lv_theme_material.c ****     lv_style_set_outline_opa(&styles->cb_bg, LV_STATE_FOCUSED, LV_OPA_50);
 624:lvgl\src\lv_themes/lv_theme_material.c ****     lv_style_set_outline_width(&styles->cb_bg, LV_STATE_DEFAULT, OUTLINE_WIDTH);
 625:lvgl\src\lv_themes/lv_theme_material.c ****     lv_style_set_outline_pad(&styles->cb_bg, LV_STATE_DEFAULT, LV_DPX(10));
 626:lvgl\src\lv_themes/lv_theme_material.c ****     lv_style_set_transition_time(&styles->cb_bg, LV_STATE_DEFAULT, TRANSITION_TIME);
 627:lvgl\src\lv_themes/lv_theme_material.c ****     lv_style_set_transition_prop_6(&styles->cb_bg, LV_STATE_DEFAULT, LV_STYLE_OUTLINE_OPA);
 628:lvgl\src\lv_themes/lv_theme_material.c **** 
 629:lvgl\src\lv_themes/lv_theme_material.c ****     style_init_reset(&styles->cb_bullet);
 630:lvgl\src\lv_themes/lv_theme_material.c ****     lv_style_set_outline_opa(&styles->cb_bullet, LV_STATE_FOCUSED, LV_OPA_TRANSP);
 631:lvgl\src\lv_themes/lv_theme_material.c ****     lv_style_set_radius(&styles->cb_bullet, LV_STATE_DEFAULT, LV_DPX(4));
 632:lvgl\src\lv_themes/lv_theme_material.c ****     lv_style_set_pattern_image(&styles->cb_bullet, LV_STATE_CHECKED, LV_SYMBOL_OK);
 633:lvgl\src\lv_themes/lv_theme_material.c ****     lv_style_set_pattern_recolor(&styles->cb_bullet, LV_STATE_CHECKED, LV_COLOR_WHITE);
 634:lvgl\src\lv_themes/lv_theme_material.c ****     lv_style_set_pattern_opa(&styles->cb_bullet, LV_STATE_DEFAULT, LV_OPA_TRANSP);
 635:lvgl\src\lv_themes/lv_theme_material.c ****     lv_style_set_pattern_opa(&styles->cb_bullet, LV_STATE_CHECKED, LV_OPA_COVER);
 636:lvgl\src\lv_themes/lv_theme_material.c ****     lv_style_set_transition_prop_3(&styles->cb_bullet, LV_STATE_DEFAULT, LV_STYLE_PATTERN_OPA);
 637:lvgl\src\lv_themes/lv_theme_material.c ****     lv_style_set_text_font(&styles->cb_bullet, LV_STATE_CHECKED, theme.font_small);
 638:lvgl\src\lv_themes/lv_theme_material.c ****     lv_style_set_pad_left(&styles->cb_bullet, LV_STATE_DEFAULT, LV_DPX(3));
 639:lvgl\src\lv_themes/lv_theme_material.c ****     lv_style_set_pad_right(&styles->cb_bullet, LV_STATE_DEFAULT, LV_DPX(3));
 640:lvgl\src\lv_themes/lv_theme_material.c ****     lv_style_set_pad_top(&styles->cb_bullet, LV_STATE_DEFAULT, LV_DPX(3));
 641:lvgl\src\lv_themes/lv_theme_material.c ****     lv_style_set_pad_bottom(&styles->cb_bullet, LV_STATE_DEFAULT, LV_DPX(3));
 642:lvgl\src\lv_themes/lv_theme_material.c **** #endif
 643:lvgl\src\lv_themes/lv_theme_material.c **** }
 644:lvgl\src\lv_themes/lv_theme_material.c **** 
 645:lvgl\src\lv_themes/lv_theme_material.c **** static void btnmatrix_init(void)
 646:lvgl\src\lv_themes/lv_theme_material.c **** {
 647:lvgl\src\lv_themes/lv_theme_material.c **** }
 648:lvgl\src\lv_themes/lv_theme_material.c **** 
 649:lvgl\src\lv_themes/lv_theme_material.c **** static void keyboard_init(void)
 650:lvgl\src\lv_themes/lv_theme_material.c **** {
 651:lvgl\src\lv_themes/lv_theme_material.c **** #if LV_USE_KEYBOARD
 652:lvgl\src\lv_themes/lv_theme_material.c ****     style_init_reset(&styles->kb_bg);
 653:lvgl\src\lv_themes/lv_theme_material.c ****     lv_style_set_radius(&styles->kb_bg, LV_STATE_DEFAULT, 0);
 654:lvgl\src\lv_themes/lv_theme_material.c ****     lv_style_set_border_width(&styles->kb_bg, LV_STATE_DEFAULT, LV_DPX(4));
 655:lvgl\src\lv_themes/lv_theme_material.c ****     lv_style_set_border_side(&styles->kb_bg, LV_STATE_DEFAULT, LV_BORDER_SIDE_TOP);
 656:lvgl\src\lv_themes/lv_theme_material.c ****     lv_style_set_border_color(&styles->kb_bg, LV_STATE_DEFAULT, IS_LIGHT ? COLOR_BG_TEXT : LV_COLOR
 657:lvgl\src\lv_themes/lv_theme_material.c ****     lv_style_set_border_color(&styles->kb_bg, LV_STATE_EDITED, theme.color_secondary);
 658:lvgl\src\lv_themes/lv_theme_material.c ****     lv_style_set_pad_left(&styles->kb_bg, LV_STATE_DEFAULT,  LV_DPX(5));
ARM GAS  C:\Users\strap\AppData\Local\Temp\ccCyLI52.s 			page 13


 659:lvgl\src\lv_themes/lv_theme_material.c ****     lv_style_set_pad_right(&styles->kb_bg, LV_STATE_DEFAULT, LV_DPX(5));
 660:lvgl\src\lv_themes/lv_theme_material.c ****     lv_style_set_pad_top(&styles->kb_bg, LV_STATE_DEFAULT,  LV_DPX(5));
 661:lvgl\src\lv_themes/lv_theme_material.c ****     lv_style_set_pad_bottom(&styles->kb_bg, LV_STATE_DEFAULT, LV_DPX(5));
 662:lvgl\src\lv_themes/lv_theme_material.c ****     lv_style_set_pad_inner(&styles->kb_bg, LV_STATE_DEFAULT, LV_DPX(3));
 663:lvgl\src\lv_themes/lv_theme_material.c **** #endif
 664:lvgl\src\lv_themes/lv_theme_material.c **** }
 665:lvgl\src\lv_themes/lv_theme_material.c **** 
 666:lvgl\src\lv_themes/lv_theme_material.c **** static void msgbox_init(void)
 667:lvgl\src\lv_themes/lv_theme_material.c **** {
 668:lvgl\src\lv_themes/lv_theme_material.c **** #if LV_USE_MSGBOX
 669:lvgl\src\lv_themes/lv_theme_material.c ****     style_init_reset(&styles->mbox_bg);
 670:lvgl\src\lv_themes/lv_theme_material.c ****     lv_style_set_shadow_width(&styles->mbox_bg, LV_STATE_DEFAULT, LV_DPX(50));
 671:lvgl\src\lv_themes/lv_theme_material.c ****     lv_style_set_shadow_color(&styles->mbox_bg, LV_STATE_DEFAULT, IS_LIGHT ? LV_COLOR_SILVER : lv_c
 672:lvgl\src\lv_themes/lv_theme_material.c **** 
 673:lvgl\src\lv_themes/lv_theme_material.c **** #endif
 674:lvgl\src\lv_themes/lv_theme_material.c **** }
 675:lvgl\src\lv_themes/lv_theme_material.c **** 
 676:lvgl\src\lv_themes/lv_theme_material.c **** static void page_init(void)
 677:lvgl\src\lv_themes/lv_theme_material.c **** {
 678:lvgl\src\lv_themes/lv_theme_material.c **** #if LV_USE_PAGE
 679:lvgl\src\lv_themes/lv_theme_material.c ****     style_init_reset(&styles->sb);
 680:lvgl\src\lv_themes/lv_theme_material.c ****     lv_style_set_bg_opa(&styles->sb, LV_STATE_DEFAULT, LV_OPA_COVER);
 681:lvgl\src\lv_themes/lv_theme_material.c ****     lv_style_set_bg_color(&styles->sb, LV_STATE_DEFAULT, (IS_LIGHT ? lv_color_hex(0xcccfd1) : lv_co
 682:lvgl\src\lv_themes/lv_theme_material.c ****     lv_style_set_radius(&styles->sb, LV_STATE_DEFAULT, LV_RADIUS_CIRCLE);
 683:lvgl\src\lv_themes/lv_theme_material.c ****     lv_style_set_size(&styles->sb, LV_STATE_DEFAULT, LV_DPX(7));
 684:lvgl\src\lv_themes/lv_theme_material.c ****     lv_style_set_pad_right(&styles->sb, LV_STATE_DEFAULT,  LV_DPX(7));
 685:lvgl\src\lv_themes/lv_theme_material.c ****     lv_style_set_pad_bottom(&styles->sb, LV_STATE_DEFAULT,  LV_DPX(7));
 686:lvgl\src\lv_themes/lv_theme_material.c **** 
 687:lvgl\src\lv_themes/lv_theme_material.c **** #if  LV_USE_ANIMATION
 688:lvgl\src\lv_themes/lv_theme_material.c ****     style_init_reset(&styles->edge_flash);
 689:lvgl\src\lv_themes/lv_theme_material.c ****     lv_style_set_bg_opa(&styles->edge_flash, LV_STATE_DEFAULT, LV_OPA_COVER);
 690:lvgl\src\lv_themes/lv_theme_material.c ****     lv_style_set_bg_color(&styles->edge_flash, LV_STATE_DEFAULT,  lv_color_hex3(0x888));
 691:lvgl\src\lv_themes/lv_theme_material.c **** #endif
 692:lvgl\src\lv_themes/lv_theme_material.c **** #endif
 693:lvgl\src\lv_themes/lv_theme_material.c **** }
 694:lvgl\src\lv_themes/lv_theme_material.c **** 
 695:lvgl\src\lv_themes/lv_theme_material.c **** static void textarea_init(void)
 696:lvgl\src\lv_themes/lv_theme_material.c **** {
 697:lvgl\src\lv_themes/lv_theme_material.c **** #if LV_USE_TEXTAREA
 698:lvgl\src\lv_themes/lv_theme_material.c ****     style_init_reset(&styles->ta_cursor);
 699:lvgl\src\lv_themes/lv_theme_material.c ****     lv_style_set_border_color(&styles->ta_cursor, LV_STATE_DEFAULT, COLOR_BG_SEC_TEXT);
 700:lvgl\src\lv_themes/lv_theme_material.c ****     lv_style_set_border_width(&styles->ta_cursor, LV_STATE_DEFAULT, LV_DPX(2));
 701:lvgl\src\lv_themes/lv_theme_material.c ****     lv_style_set_pad_left(&styles->ta_cursor, LV_STATE_DEFAULT, LV_DPX(1));
 702:lvgl\src\lv_themes/lv_theme_material.c ****     lv_style_set_border_side(&styles->ta_cursor, LV_STATE_DEFAULT, LV_BORDER_SIDE_LEFT);
 703:lvgl\src\lv_themes/lv_theme_material.c **** 
 704:lvgl\src\lv_themes/lv_theme_material.c ****     style_init_reset(&styles->ta_placeholder);
 705:lvgl\src\lv_themes/lv_theme_material.c ****     lv_style_set_text_color(&styles->ta_placeholder, LV_STATE_DEFAULT,
 706:lvgl\src\lv_themes/lv_theme_material.c ****                             IS_LIGHT ? COLOR_BG_TEXT_DIS : lv_color_hex(0xa1adbd));
 707:lvgl\src\lv_themes/lv_theme_material.c **** #endif
 708:lvgl\src\lv_themes/lv_theme_material.c **** }
 709:lvgl\src\lv_themes/lv_theme_material.c **** 
 710:lvgl\src\lv_themes/lv_theme_material.c **** static void spinbox_init(void)
 711:lvgl\src\lv_themes/lv_theme_material.c **** {
 712:lvgl\src\lv_themes/lv_theme_material.c **** #if LV_USE_SPINBOX
 713:lvgl\src\lv_themes/lv_theme_material.c **** 
 714:lvgl\src\lv_themes/lv_theme_material.c ****     style_init_reset(&styles->spinbox_cursor);
 715:lvgl\src\lv_themes/lv_theme_material.c ****     lv_style_set_bg_opa(&styles->spinbox_cursor, LV_STATE_DEFAULT, LV_OPA_COVER);
ARM GAS  C:\Users\strap\AppData\Local\Temp\ccCyLI52.s 			page 14


 716:lvgl\src\lv_themes/lv_theme_material.c ****     lv_style_set_bg_color(&styles->spinbox_cursor, LV_STATE_DEFAULT, theme.color_primary);
 717:lvgl\src\lv_themes/lv_theme_material.c ****     lv_style_set_text_color(&styles->spinbox_cursor, LV_STATE_DEFAULT, LV_COLOR_WHITE);
 718:lvgl\src\lv_themes/lv_theme_material.c ****     lv_style_set_pad_top(&styles->spinbox_cursor, LV_STATE_DEFAULT, LV_DPX(100));
 719:lvgl\src\lv_themes/lv_theme_material.c ****     lv_style_set_pad_bottom(&styles->spinbox_cursor, LV_STATE_DEFAULT, LV_DPX(100));
 720:lvgl\src\lv_themes/lv_theme_material.c **** 
 721:lvgl\src\lv_themes/lv_theme_material.c **** #endif
 722:lvgl\src\lv_themes/lv_theme_material.c **** }
 723:lvgl\src\lv_themes/lv_theme_material.c **** 
 724:lvgl\src\lv_themes/lv_theme_material.c **** static void list_init(void)
 725:lvgl\src\lv_themes/lv_theme_material.c **** {
 726:lvgl\src\lv_themes/lv_theme_material.c **** #if LV_USE_LIST != 0
 727:lvgl\src\lv_themes/lv_theme_material.c ****     style_init_reset(&styles->list_bg);
 728:lvgl\src\lv_themes/lv_theme_material.c ****     lv_style_set_clip_corner(&styles->list_bg, LV_STATE_DEFAULT, true);
 729:lvgl\src\lv_themes/lv_theme_material.c ****     lv_style_set_pad_left(&styles->list_bg, LV_STATE_DEFAULT, 0);
 730:lvgl\src\lv_themes/lv_theme_material.c ****     lv_style_set_pad_right(&styles->list_bg, LV_STATE_DEFAULT, 0);
 731:lvgl\src\lv_themes/lv_theme_material.c ****     lv_style_set_pad_top(&styles->list_bg, LV_STATE_DEFAULT, 0);
 732:lvgl\src\lv_themes/lv_theme_material.c ****     lv_style_set_pad_bottom(&styles->list_bg, LV_STATE_DEFAULT, 0);
 733:lvgl\src\lv_themes/lv_theme_material.c ****     lv_style_set_pad_inner(&styles->list_bg, LV_STATE_DEFAULT, 0);
 734:lvgl\src\lv_themes/lv_theme_material.c **** 
 735:lvgl\src\lv_themes/lv_theme_material.c ****     style_init_reset(&styles->list_btn);
 736:lvgl\src\lv_themes/lv_theme_material.c ****     lv_style_set_bg_opa(&styles->list_btn, LV_STATE_DEFAULT, LV_OPA_COVER);
 737:lvgl\src\lv_themes/lv_theme_material.c ****     lv_style_set_bg_color(&styles->list_btn, LV_STATE_DEFAULT, COLOR_BG);
 738:lvgl\src\lv_themes/lv_theme_material.c ****     lv_style_set_bg_color(&styles->list_btn, LV_STATE_PRESSED, COLOR_BG_PR);
 739:lvgl\src\lv_themes/lv_theme_material.c ****     lv_style_set_bg_color(&styles->list_btn, LV_STATE_DISABLED, COLOR_BG_DIS);
 740:lvgl\src\lv_themes/lv_theme_material.c ****     lv_style_set_bg_color(&styles->list_btn, LV_STATE_CHECKED, COLOR_BG_CHK);
 741:lvgl\src\lv_themes/lv_theme_material.c ****     lv_style_set_bg_color(&styles->list_btn, LV_STATE_CHECKED | LV_STATE_PRESSED, COLOR_BG_PR_CHK);
 742:lvgl\src\lv_themes/lv_theme_material.c **** 
 743:lvgl\src\lv_themes/lv_theme_material.c ****     lv_style_set_text_color(&styles->list_btn, LV_STATE_DEFAULT, COLOR_BG_TEXT);
 744:lvgl\src\lv_themes/lv_theme_material.c ****     lv_style_set_text_color(&styles->list_btn, LV_STATE_CHECKED, COLOR_BG_TEXT_CHK);
 745:lvgl\src\lv_themes/lv_theme_material.c ****     lv_style_set_text_color(&styles->list_btn, LV_STATE_DISABLED, COLOR_BG_TEXT_DIS);
 746:lvgl\src\lv_themes/lv_theme_material.c **** 
 747:lvgl\src\lv_themes/lv_theme_material.c ****     lv_style_set_image_recolor(&styles->list_btn, LV_STATE_DEFAULT, COLOR_BG_TEXT);
 748:lvgl\src\lv_themes/lv_theme_material.c ****     lv_style_set_image_recolor(&styles->list_btn, LV_STATE_CHECKED, COLOR_BG_TEXT_CHK);
 749:lvgl\src\lv_themes/lv_theme_material.c ****     lv_style_set_image_recolor(&styles->list_btn, LV_STATE_DISABLED, COLOR_BG_TEXT_DIS);
 750:lvgl\src\lv_themes/lv_theme_material.c **** 
 751:lvgl\src\lv_themes/lv_theme_material.c ****     lv_style_set_border_side(&styles->list_btn, LV_STATE_DEFAULT, LV_BORDER_SIDE_BOTTOM);
 752:lvgl\src\lv_themes/lv_theme_material.c ****     lv_style_set_border_color(&styles->list_btn, LV_STATE_DEFAULT, COLOR_BG_BORDER);
 753:lvgl\src\lv_themes/lv_theme_material.c ****     lv_style_set_border_color(&styles->list_btn, LV_STATE_FOCUSED, theme.color_primary);
 754:lvgl\src\lv_themes/lv_theme_material.c ****     lv_style_set_border_width(&styles->list_btn, LV_STATE_DEFAULT, 1);
 755:lvgl\src\lv_themes/lv_theme_material.c **** 
 756:lvgl\src\lv_themes/lv_theme_material.c ****     lv_style_set_outline_color(&styles->list_btn, LV_STATE_FOCUSED, theme.color_secondary);
 757:lvgl\src\lv_themes/lv_theme_material.c ****     lv_style_set_outline_width(&styles->list_btn, LV_STATE_FOCUSED, OUTLINE_WIDTH);
 758:lvgl\src\lv_themes/lv_theme_material.c ****     lv_style_set_outline_pad(&styles->list_btn, LV_STATE_FOCUSED, -BORDER_WIDTH);
 759:lvgl\src\lv_themes/lv_theme_material.c **** 
 760:lvgl\src\lv_themes/lv_theme_material.c ****     lv_style_set_pad_left(&styles->list_btn, LV_STATE_DEFAULT, PAD_DEF);
 761:lvgl\src\lv_themes/lv_theme_material.c ****     lv_style_set_pad_right(&styles->list_btn, LV_STATE_DEFAULT, PAD_DEF);
 762:lvgl\src\lv_themes/lv_theme_material.c ****     lv_style_set_pad_top(&styles->list_btn, LV_STATE_DEFAULT, PAD_DEF);
 763:lvgl\src\lv_themes/lv_theme_material.c ****     lv_style_set_pad_bottom(&styles->list_btn, LV_STATE_DEFAULT, PAD_DEF);
 764:lvgl\src\lv_themes/lv_theme_material.c ****     lv_style_set_pad_inner(&styles->list_btn, LV_STATE_DEFAULT, PAD_DEF);
 765:lvgl\src\lv_themes/lv_theme_material.c **** 
 766:lvgl\src\lv_themes/lv_theme_material.c ****     lv_style_set_transform_width(&styles->list_btn, LV_STATE_DEFAULT, - PAD_DEF);
 767:lvgl\src\lv_themes/lv_theme_material.c ****     lv_style_set_transform_width(&styles->list_btn, LV_STATE_PRESSED, -BORDER_WIDTH);
 768:lvgl\src\lv_themes/lv_theme_material.c ****     lv_style_set_transform_width(&styles->list_btn, LV_STATE_CHECKED, -BORDER_WIDTH);
 769:lvgl\src\lv_themes/lv_theme_material.c ****     lv_style_set_transform_width(&styles->list_btn, LV_STATE_DISABLED, -BORDER_WIDTH);
 770:lvgl\src\lv_themes/lv_theme_material.c ****     lv_style_set_transform_width(&styles->list_btn, LV_STATE_FOCUSED, - BORDER_WIDTH);
 771:lvgl\src\lv_themes/lv_theme_material.c **** 
 772:lvgl\src\lv_themes/lv_theme_material.c ****     lv_style_set_transition_time(&styles->list_btn, LV_STATE_DEFAULT, TRANSITION_TIME);
ARM GAS  C:\Users\strap\AppData\Local\Temp\ccCyLI52.s 			page 15


 773:lvgl\src\lv_themes/lv_theme_material.c ****     lv_style_set_transition_prop_6(&styles->list_btn, LV_STATE_DEFAULT, LV_STYLE_BG_COLOR);
 774:lvgl\src\lv_themes/lv_theme_material.c ****     lv_style_set_transition_prop_5(&styles->list_btn, LV_STATE_DEFAULT, LV_STYLE_TRANSFORM_WIDTH);
 775:lvgl\src\lv_themes/lv_theme_material.c **** #endif
 776:lvgl\src\lv_themes/lv_theme_material.c **** }
 777:lvgl\src\lv_themes/lv_theme_material.c **** 
 778:lvgl\src\lv_themes/lv_theme_material.c **** static void ddlist_init(void)
 779:lvgl\src\lv_themes/lv_theme_material.c **** {
 780:lvgl\src\lv_themes/lv_theme_material.c **** #if LV_USE_DROPDOWN != 0
 781:lvgl\src\lv_themes/lv_theme_material.c **** 
 782:lvgl\src\lv_themes/lv_theme_material.c ****     style_init_reset(&styles->ddlist_page);
 783:lvgl\src\lv_themes/lv_theme_material.c ****     lv_style_set_text_line_space(&styles->ddlist_page, LV_STATE_DEFAULT, LV_DPX(20));
 784:lvgl\src\lv_themes/lv_theme_material.c ****     lv_style_set_clip_corner(&styles->ddlist_page, LV_STATE_DEFAULT, true);
 785:lvgl\src\lv_themes/lv_theme_material.c **** 
 786:lvgl\src\lv_themes/lv_theme_material.c ****     style_init_reset(&styles->ddlist_sel);
 787:lvgl\src\lv_themes/lv_theme_material.c ****     lv_style_set_bg_opa(&styles->ddlist_sel, LV_STATE_DEFAULT, LV_OPA_COVER);
 788:lvgl\src\lv_themes/lv_theme_material.c ****     lv_style_set_bg_color(&styles->ddlist_sel, LV_STATE_DEFAULT, theme.color_primary);
 789:lvgl\src\lv_themes/lv_theme_material.c ****     lv_style_set_text_color(&styles->ddlist_sel, LV_STATE_DEFAULT, IS_LIGHT ? lv_color_hex3(0xfff) 
 790:lvgl\src\lv_themes/lv_theme_material.c ****     lv_style_set_bg_color(&styles->ddlist_sel, LV_STATE_PRESSED, COLOR_BG_PR);
 791:lvgl\src\lv_themes/lv_theme_material.c ****     lv_style_set_text_color(&styles->ddlist_sel, LV_STATE_PRESSED, COLOR_BG_TEXT_PR);
 792:lvgl\src\lv_themes/lv_theme_material.c **** #endif
 793:lvgl\src\lv_themes/lv_theme_material.c **** }
 794:lvgl\src\lv_themes/lv_theme_material.c **** 
 795:lvgl\src\lv_themes/lv_theme_material.c **** static void roller_init(void)
 796:lvgl\src\lv_themes/lv_theme_material.c **** {
 797:lvgl\src\lv_themes/lv_theme_material.c **** #if LV_USE_ROLLER != 0
 798:lvgl\src\lv_themes/lv_theme_material.c ****     style_init_reset(&styles->roller_bg);
 799:lvgl\src\lv_themes/lv_theme_material.c ****     lv_style_set_text_line_space(&styles->roller_bg, LV_STATE_DEFAULT, LV_DPX(25));
 800:lvgl\src\lv_themes/lv_theme_material.c **** 
 801:lvgl\src\lv_themes/lv_theme_material.c ****     style_init_reset(&styles->roller_sel);
 802:lvgl\src\lv_themes/lv_theme_material.c ****     lv_style_set_bg_opa(&styles->roller_sel, LV_STATE_DEFAULT, LV_OPA_COVER);
 803:lvgl\src\lv_themes/lv_theme_material.c ****     lv_style_set_bg_color(&styles->roller_sel, LV_STATE_DEFAULT, theme.color_primary);
 804:lvgl\src\lv_themes/lv_theme_material.c ****     lv_style_set_text_color(&styles->roller_sel, LV_STATE_DEFAULT, LV_COLOR_WHITE);
 805:lvgl\src\lv_themes/lv_theme_material.c **** #endif
 806:lvgl\src\lv_themes/lv_theme_material.c **** }
 807:lvgl\src\lv_themes/lv_theme_material.c **** 
 808:lvgl\src\lv_themes/lv_theme_material.c **** static void tabview_init(void)
 809:lvgl\src\lv_themes/lv_theme_material.c **** {
 810:lvgl\src\lv_themes/lv_theme_material.c **** #if LV_USE_TABVIEW != 0
 811:lvgl\src\lv_themes/lv_theme_material.c **** #endif
 812:lvgl\src\lv_themes/lv_theme_material.c **** }
 813:lvgl\src\lv_themes/lv_theme_material.c **** 
 814:lvgl\src\lv_themes/lv_theme_material.c **** static void tileview_init(void)
 815:lvgl\src\lv_themes/lv_theme_material.c **** {
 816:lvgl\src\lv_themes/lv_theme_material.c **** #if LV_USE_TILEVIEW != 0
 817:lvgl\src\lv_themes/lv_theme_material.c **** #endif
 818:lvgl\src\lv_themes/lv_theme_material.c **** }
 819:lvgl\src\lv_themes/lv_theme_material.c **** 
 820:lvgl\src\lv_themes/lv_theme_material.c **** static void table_init(void)
 821:lvgl\src\lv_themes/lv_theme_material.c **** {
 822:lvgl\src\lv_themes/lv_theme_material.c **** #if LV_USE_TABLE != 0
 823:lvgl\src\lv_themes/lv_theme_material.c ****     style_init_reset(&styles->table_cell);
 824:lvgl\src\lv_themes/lv_theme_material.c ****     lv_style_set_border_color(&styles->table_cell, LV_STATE_DEFAULT, COLOR_BG_BORDER);
 825:lvgl\src\lv_themes/lv_theme_material.c ****     lv_style_set_border_width(&styles->table_cell, LV_STATE_DEFAULT, 1);
 826:lvgl\src\lv_themes/lv_theme_material.c ****     lv_style_set_border_side(&styles->table_cell, LV_STATE_DEFAULT, LV_BORDER_SIDE_TOP | LV_BORDER_
 827:lvgl\src\lv_themes/lv_theme_material.c ****     lv_style_set_pad_left(&styles->table_cell, LV_STATE_DEFAULT, PAD_DEF);
 828:lvgl\src\lv_themes/lv_theme_material.c ****     lv_style_set_pad_right(&styles->table_cell, LV_STATE_DEFAULT, PAD_DEF);
 829:lvgl\src\lv_themes/lv_theme_material.c ****     lv_style_set_pad_top(&styles->table_cell, LV_STATE_DEFAULT, PAD_DEF);
ARM GAS  C:\Users\strap\AppData\Local\Temp\ccCyLI52.s 			page 16


 830:lvgl\src\lv_themes/lv_theme_material.c ****     lv_style_set_pad_bottom(&styles->table_cell, LV_STATE_DEFAULT, PAD_DEF);
 831:lvgl\src\lv_themes/lv_theme_material.c **** 
 832:lvgl\src\lv_themes/lv_theme_material.c **** #endif
 833:lvgl\src\lv_themes/lv_theme_material.c **** }
 834:lvgl\src\lv_themes/lv_theme_material.c **** 
 835:lvgl\src\lv_themes/lv_theme_material.c **** static void win_init(void)
 836:lvgl\src\lv_themes/lv_theme_material.c **** {
 837:lvgl\src\lv_themes/lv_theme_material.c **** #if LV_USE_WIN != 0
 838:lvgl\src\lv_themes/lv_theme_material.c **** #endif
 839:lvgl\src\lv_themes/lv_theme_material.c **** }
 840:lvgl\src\lv_themes/lv_theme_material.c **** 
 841:lvgl\src\lv_themes/lv_theme_material.c **** static void tabview_win_shared_init(void)
 842:lvgl\src\lv_themes/lv_theme_material.c **** {
 843:lvgl\src\lv_themes/lv_theme_material.c **** #if LV_USE_TABVIEW || LV_USE_WIN
 844:lvgl\src\lv_themes/lv_theme_material.c ****     style_init_reset(&styles->tabview_btns_bg);
 845:lvgl\src\lv_themes/lv_theme_material.c ****     lv_style_set_bg_opa(&styles->tabview_btns_bg, LV_STATE_DEFAULT, LV_OPA_COVER);
 846:lvgl\src\lv_themes/lv_theme_material.c ****     lv_style_set_bg_color(&styles->tabview_btns_bg, LV_STATE_DEFAULT, COLOR_BG);
 847:lvgl\src\lv_themes/lv_theme_material.c ****     lv_style_set_border_color(&styles->tabview_btns_bg, LV_STATE_DEFAULT,
 848:lvgl\src\lv_themes/lv_theme_material.c ****                               IS_LIGHT ? lv_color_hex(0xe4eaf0) : lv_color_hex(0x3b3e42));
 849:lvgl\src\lv_themes/lv_theme_material.c ****     lv_style_set_border_width(&styles->tabview_btns_bg, LV_STATE_DEFAULT, LV_DPX(5));
 850:lvgl\src\lv_themes/lv_theme_material.c ****     lv_style_set_border_side(&styles->tabview_btns_bg, LV_STATE_DEFAULT, LV_BORDER_SIDE_BOTTOM);
 851:lvgl\src\lv_themes/lv_theme_material.c ****     lv_style_set_text_color(&styles->tabview_btns_bg, LV_STATE_DEFAULT, COLOR_SCR_TEXT);
 852:lvgl\src\lv_themes/lv_theme_material.c ****     lv_style_set_image_recolor(&styles->tabview_btns_bg, LV_STATE_DEFAULT, lv_color_hex(0x979a9f));
 853:lvgl\src\lv_themes/lv_theme_material.c ****     lv_style_set_pad_top(&styles->tabview_btns_bg, LV_STATE_DEFAULT, LV_DPX(7));
 854:lvgl\src\lv_themes/lv_theme_material.c ****     lv_style_set_pad_left(&styles->tabview_btns_bg, LV_STATE_DEFAULT, LV_DPX(7));
 855:lvgl\src\lv_themes/lv_theme_material.c ****     lv_style_set_pad_right(&styles->tabview_btns_bg, LV_STATE_DEFAULT, LV_DPX(7));
 856:lvgl\src\lv_themes/lv_theme_material.c **** 
 857:lvgl\src\lv_themes/lv_theme_material.c ****     style_init_reset(&styles->tabview_btns);
 858:lvgl\src\lv_themes/lv_theme_material.c ****     lv_style_set_bg_opa(&styles->tabview_btns, LV_STATE_PRESSED, LV_OPA_50);
 859:lvgl\src\lv_themes/lv_theme_material.c ****     lv_style_set_bg_color(&styles->tabview_btns, LV_STATE_PRESSED, lv_color_hex3(0x888));
 860:lvgl\src\lv_themes/lv_theme_material.c ****     lv_style_set_text_color(&styles->tabview_btns, LV_STATE_CHECKED, COLOR_SCR_TEXT);
 861:lvgl\src\lv_themes/lv_theme_material.c ****     lv_style_set_pad_top(&styles->tabview_btns, LV_STATE_DEFAULT, LV_DPX(20));
 862:lvgl\src\lv_themes/lv_theme_material.c ****     lv_style_set_pad_bottom(&styles->tabview_btns, LV_STATE_DEFAULT, LV_DPX(20));
 863:lvgl\src\lv_themes/lv_theme_material.c ****     lv_style_set_text_color(&styles->tabview_btns, LV_STATE_FOCUSED, theme.color_primary);
 864:lvgl\src\lv_themes/lv_theme_material.c ****     lv_style_set_text_color(&styles->tabview_btns, LV_STATE_EDITED, theme.color_secondary);
 865:lvgl\src\lv_themes/lv_theme_material.c **** 
 866:lvgl\src\lv_themes/lv_theme_material.c ****     style_init_reset(&styles->tabview_indic);
 867:lvgl\src\lv_themes/lv_theme_material.c ****     lv_style_set_bg_opa(&styles->tabview_indic, LV_STATE_DEFAULT, LV_OPA_COVER);
 868:lvgl\src\lv_themes/lv_theme_material.c ****     lv_style_set_bg_color(&styles->tabview_indic, LV_STATE_DEFAULT, theme.color_primary);
 869:lvgl\src\lv_themes/lv_theme_material.c ****     lv_style_set_bg_color(&styles->tabview_indic, LV_STATE_EDITED, theme.color_secondary);
 870:lvgl\src\lv_themes/lv_theme_material.c ****     lv_style_set_size(&styles->tabview_indic, LV_STATE_DEFAULT, LV_DPX(5));
 871:lvgl\src\lv_themes/lv_theme_material.c ****     lv_style_set_radius(&styles->tabview_indic, LV_STATE_DEFAULT, LV_RADIUS_CIRCLE);
 872:lvgl\src\lv_themes/lv_theme_material.c **** 
 873:lvgl\src\lv_themes/lv_theme_material.c ****     style_init_reset(&styles->tabview_page_scrl);
 874:lvgl\src\lv_themes/lv_theme_material.c ****     lv_style_set_pad_top(&styles->tabview_page_scrl, LV_STATE_DEFAULT, PAD_DEF);
 875:lvgl\src\lv_themes/lv_theme_material.c ****     lv_style_set_pad_bottom(&styles->tabview_page_scrl, LV_STATE_DEFAULT, PAD_DEF);
 876:lvgl\src\lv_themes/lv_theme_material.c ****     lv_style_set_pad_left(&styles->tabview_page_scrl, LV_STATE_DEFAULT, PAD_DEF);
 877:lvgl\src\lv_themes/lv_theme_material.c ****     lv_style_set_pad_right(&styles->tabview_page_scrl, LV_STATE_DEFAULT, PAD_DEF);
 878:lvgl\src\lv_themes/lv_theme_material.c ****     lv_style_set_pad_inner(&styles->tabview_page_scrl, LV_STATE_DEFAULT, PAD_DEF);
 879:lvgl\src\lv_themes/lv_theme_material.c **** #endif
 880:lvgl\src\lv_themes/lv_theme_material.c **** }
 881:lvgl\src\lv_themes/lv_theme_material.c **** 
 882:lvgl\src\lv_themes/lv_theme_material.c **** 
 883:lvgl\src\lv_themes/lv_theme_material.c **** /**********************
 884:lvgl\src\lv_themes/lv_theme_material.c ****  *   GLOBAL FUNCTIONS
 885:lvgl\src\lv_themes/lv_theme_material.c ****  **********************/
 886:lvgl\src\lv_themes/lv_theme_material.c **** 
ARM GAS  C:\Users\strap\AppData\Local\Temp\ccCyLI52.s 			page 17


 887:lvgl\src\lv_themes/lv_theme_material.c **** /**
 888:lvgl\src\lv_themes/lv_theme_material.c ****  * Initialize the default
 889:lvgl\src\lv_themes/lv_theme_material.c ****  * @param color_primary the primary color of the theme
 890:lvgl\src\lv_themes/lv_theme_material.c ****  * @param color_secondary the secondary color for the theme
 891:lvgl\src\lv_themes/lv_theme_material.c ****  * @param flags ORed flags starting with `LV_THEME_DEF_FLAG_...`
 892:lvgl\src\lv_themes/lv_theme_material.c ****  * @param font_small pointer to a small font
 893:lvgl\src\lv_themes/lv_theme_material.c ****  * @param font_normal pointer to a normal font
 894:lvgl\src\lv_themes/lv_theme_material.c ****  * @param font_subtitle pointer to a large font
 895:lvgl\src\lv_themes/lv_theme_material.c ****  * @param font_title pointer to a extra large font
 896:lvgl\src\lv_themes/lv_theme_material.c ****  * @return a pointer to reference this theme later
 897:lvgl\src\lv_themes/lv_theme_material.c ****  */
 898:lvgl\src\lv_themes/lv_theme_material.c **** lv_theme_t * lv_theme_material_init(lv_color_t color_primary, lv_color_t color_secondary, uint32_t 
 899:lvgl\src\lv_themes/lv_theme_material.c ****                                     const lv_font_t * font_small, const lv_font_t * font_normal, co
 900:lvgl\src\lv_themes/lv_theme_material.c ****                                     const lv_font_t * font_title)
 901:lvgl\src\lv_themes/lv_theme_material.c **** {
 902:lvgl\src\lv_themes/lv_theme_material.c **** 
 903:lvgl\src\lv_themes/lv_theme_material.c ****     /* This trick is required only to avoid the garbage collection of
 904:lvgl\src\lv_themes/lv_theme_material.c ****      * styles' data if LVGL is used in a binding (e.g. Micropython)
 905:lvgl\src\lv_themes/lv_theme_material.c ****      * In a general case styles could be simple `static lv_style_t my style` variables*/
 906:lvgl\src\lv_themes/lv_theme_material.c ****     if(!inited) {
 907:lvgl\src\lv_themes/lv_theme_material.c ****         LV_GC_ROOT(_lv_theme_material_styles) = lv_mem_alloc(sizeof(theme_styles_t));
 908:lvgl\src\lv_themes/lv_theme_material.c ****         styles = (theme_styles_t *)LV_GC_ROOT(_lv_theme_material_styles);
 909:lvgl\src\lv_themes/lv_theme_material.c ****     }
 910:lvgl\src\lv_themes/lv_theme_material.c **** 
 911:lvgl\src\lv_themes/lv_theme_material.c ****     theme.color_primary = color_primary;
 912:lvgl\src\lv_themes/lv_theme_material.c ****     theme.color_secondary = color_secondary;
 913:lvgl\src\lv_themes/lv_theme_material.c ****     theme.font_small = font_small;
 914:lvgl\src\lv_themes/lv_theme_material.c ****     theme.font_normal = font_normal;
 915:lvgl\src\lv_themes/lv_theme_material.c ****     theme.font_subtitle = font_subtitle;
 916:lvgl\src\lv_themes/lv_theme_material.c ****     theme.font_title = font_title;
 917:lvgl\src\lv_themes/lv_theme_material.c ****     theme.flags = flags;
 918:lvgl\src\lv_themes/lv_theme_material.c **** 
 919:lvgl\src\lv_themes/lv_theme_material.c ****     basic_init();
 920:lvgl\src\lv_themes/lv_theme_material.c ****     cont_init();
 921:lvgl\src\lv_themes/lv_theme_material.c ****     btn_init();
 922:lvgl\src\lv_themes/lv_theme_material.c ****     label_init();
 923:lvgl\src\lv_themes/lv_theme_material.c ****     bar_init();
 924:lvgl\src\lv_themes/lv_theme_material.c ****     img_init();
 925:lvgl\src\lv_themes/lv_theme_material.c ****     line_init();
 926:lvgl\src\lv_themes/lv_theme_material.c ****     led_init();
 927:lvgl\src\lv_themes/lv_theme_material.c ****     slider_init();
 928:lvgl\src\lv_themes/lv_theme_material.c ****     switch_init();
 929:lvgl\src\lv_themes/lv_theme_material.c ****     linemeter_init();
 930:lvgl\src\lv_themes/lv_theme_material.c ****     gauge_init();
 931:lvgl\src\lv_themes/lv_theme_material.c ****     arc_init();
 932:lvgl\src\lv_themes/lv_theme_material.c ****     spinner_init();
 933:lvgl\src\lv_themes/lv_theme_material.c ****     chart_init();
 934:lvgl\src\lv_themes/lv_theme_material.c ****     calendar_init();
 935:lvgl\src\lv_themes/lv_theme_material.c ****     cpicker_init();
 936:lvgl\src\lv_themes/lv_theme_material.c ****     checkbox_init();
 937:lvgl\src\lv_themes/lv_theme_material.c ****     btnmatrix_init();
 938:lvgl\src\lv_themes/lv_theme_material.c ****     keyboard_init();
 939:lvgl\src\lv_themes/lv_theme_material.c ****     msgbox_init();
 940:lvgl\src\lv_themes/lv_theme_material.c ****     page_init();
 941:lvgl\src\lv_themes/lv_theme_material.c ****     textarea_init();
 942:lvgl\src\lv_themes/lv_theme_material.c ****     spinbox_init();
 943:lvgl\src\lv_themes/lv_theme_material.c ****     list_init();
ARM GAS  C:\Users\strap\AppData\Local\Temp\ccCyLI52.s 			page 18


 944:lvgl\src\lv_themes/lv_theme_material.c ****     ddlist_init();
 945:lvgl\src\lv_themes/lv_theme_material.c ****     roller_init();
 946:lvgl\src\lv_themes/lv_theme_material.c ****     tabview_init();
 947:lvgl\src\lv_themes/lv_theme_material.c ****     tileview_init();
 948:lvgl\src\lv_themes/lv_theme_material.c ****     table_init();
 949:lvgl\src\lv_themes/lv_theme_material.c ****     win_init();
 950:lvgl\src\lv_themes/lv_theme_material.c ****     tabview_win_shared_init();
 951:lvgl\src\lv_themes/lv_theme_material.c **** 
 952:lvgl\src\lv_themes/lv_theme_material.c ****     theme.apply_xcb = NULL;
 953:lvgl\src\lv_themes/lv_theme_material.c ****     theme.apply_cb = theme_apply;
 954:lvgl\src\lv_themes/lv_theme_material.c **** 
 955:lvgl\src\lv_themes/lv_theme_material.c ****     inited = true;
 956:lvgl\src\lv_themes/lv_theme_material.c **** 
 957:lvgl\src\lv_themes/lv_theme_material.c ****     lv_obj_report_style_mod(NULL);
 958:lvgl\src\lv_themes/lv_theme_material.c **** 
 959:lvgl\src\lv_themes/lv_theme_material.c ****     return &theme;
 960:lvgl\src\lv_themes/lv_theme_material.c **** }
 961:lvgl\src\lv_themes/lv_theme_material.c **** 
 962:lvgl\src\lv_themes/lv_theme_material.c **** 
 963:lvgl\src\lv_themes/lv_theme_material.c **** static void theme_apply(lv_theme_t * th, lv_obj_t * obj, lv_theme_style_t name)
 964:lvgl\src\lv_themes/lv_theme_material.c **** {
  27              		.loc 1 964 0
  28              		.cfi_startproc
  29              		@ args = 0, pretend = 0, frame = 0
  30              		@ frame_needed = 0, uses_anonymous_args = 0
  31              	.LVL0:
  32 0000 70B5     		push	{r4, r5, r6, lr}
  33              		.cfi_def_cfa_offset 16
  34              		.cfi_offset 4, -16
  35              		.cfi_offset 5, -12
  36              		.cfi_offset 6, -8
  37              		.cfi_offset 14, -4
  38 0002 0C46     		mov	r4, r1
 965:lvgl\src\lv_themes/lv_theme_material.c ****     LV_UNUSED(th);
 966:lvgl\src\lv_themes/lv_theme_material.c **** 
 967:lvgl\src\lv_themes/lv_theme_material.c ****     lv_style_list_t * list;
 968:lvgl\src\lv_themes/lv_theme_material.c **** 
 969:lvgl\src\lv_themes/lv_theme_material.c ****     switch(name) {
  39              		.loc 1 969 0
  40 0004 013A     		subs	r2, r2, #1
  41              	.LVL1:
  42 0006 102A     		cmp	r2, #16
  43 0008 00F24E81 		bhi	.L2
  44 000c DFE812F0 		tbh	[pc, r2, lsl #1]
  45              	.L4:
  46 0010 1100     		.2byte	(.L3-.L4)/2
  47 0012 1A00     		.2byte	(.L5-.L4)/2
  48 0014 2E00     		.2byte	(.L6-.L4)/2
  49 0016 3800     		.2byte	(.L7-.L4)/2
  50 0018 5600     		.2byte	(.L8-.L4)/2
  51 001a 2400     		.2byte	(.L9-.L4)/2
  52 001c CA00     		.2byte	(.L10-.L4)/2
  53 001e 4C01     		.2byte	(.L2-.L4)/2
  54 0020 6E00     		.2byte	(.L11-.L4)/2
  55 0022 4C01     		.2byte	(.L2-.L4)/2
  56 0024 C500     		.2byte	(.L12-.L4)/2
  57 0026 7800     		.2byte	(.L13-.L4)/2
ARM GAS  C:\Users\strap\AppData\Local\Temp\ccCyLI52.s 			page 19


  58 0028 2501     		.2byte	(.L14-.L4)/2
  59 002a 3D01     		.2byte	(.L15-.L4)/2
  60 002c 9A00     		.2byte	(.L16-.L4)/2
  61 002e BB00     		.2byte	(.L17-.L4)/2
  62 0030 FD00     		.2byte	(.L18-.L4)/2
  63              		.p2align 1
  64              	.L3:
 970:lvgl\src\lv_themes/lv_theme_material.c ****         case LV_THEME_NONE:
 971:lvgl\src\lv_themes/lv_theme_material.c ****             break;
 972:lvgl\src\lv_themes/lv_theme_material.c **** 
 973:lvgl\src\lv_themes/lv_theme_material.c ****         case LV_THEME_SCR:
 974:lvgl\src\lv_themes/lv_theme_material.c ****             list = lv_obj_get_style_list(obj, LV_OBJ_PART_MAIN);
  65              		.loc 1 974 0
  66 0032 0021     		movs	r1, #0
  67              	.LVL2:
  68 0034 2046     		mov	r0, r4
  69              	.LVL3:
  70 0036 FFF7FEFF 		bl	lv_obj_get_style_list
  71              	.LVL4:
 975:lvgl\src\lv_themes/lv_theme_material.c ****             _lv_style_list_add_style(list, &styles->scr);
  72              		.loc 1 975 0
  73 003a 9E4B     		ldr	r3, .L20
  74 003c 1968     		ldr	r1, [r3]
  75 003e FFF7FEFF 		bl	_lv_style_list_add_style
  76              	.LVL5:
 976:lvgl\src\lv_themes/lv_theme_material.c ****             break;
  77              		.loc 1 976 0
  78 0042 31E1     		b	.L2
  79              	.LVL6:
  80              	.L5:
 977:lvgl\src\lv_themes/lv_theme_material.c ****         case LV_THEME_OBJ:
 978:lvgl\src\lv_themes/lv_theme_material.c ****             list = lv_obj_get_style_list(obj, LV_OBJ_PART_MAIN);
  81              		.loc 1 978 0
  82 0044 0021     		movs	r1, #0
  83              	.LVL7:
  84 0046 2046     		mov	r0, r4
  85              	.LVL8:
  86 0048 FFF7FEFF 		bl	lv_obj_get_style_list
  87              	.LVL9:
 979:lvgl\src\lv_themes/lv_theme_material.c ****             _lv_style_list_add_style(list, &styles->bg);
  88              		.loc 1 979 0
  89 004c 994B     		ldr	r3, .L20
  90 004e 1968     		ldr	r1, [r3]
  91 0050 0431     		adds	r1, r1, #4
  92 0052 FFF7FEFF 		bl	_lv_style_list_add_style
  93              	.LVL10:
 980:lvgl\src\lv_themes/lv_theme_material.c ****             break;
  94              		.loc 1 980 0
  95 0056 27E1     		b	.L2
  96              	.LVL11:
  97              	.L9:
 981:lvgl\src\lv_themes/lv_theme_material.c **** #if LV_USE_CONT
 982:lvgl\src\lv_themes/lv_theme_material.c ****         case LV_THEME_CONT:
 983:lvgl\src\lv_themes/lv_theme_material.c ****             list = lv_obj_get_style_list(obj, LV_CONT_PART_MAIN);
  98              		.loc 1 983 0
  99 0058 0021     		movs	r1, #0
 100              	.LVL12:
ARM GAS  C:\Users\strap\AppData\Local\Temp\ccCyLI52.s 			page 20


 101 005a 2046     		mov	r0, r4
 102              	.LVL13:
 103 005c FFF7FEFF 		bl	lv_obj_get_style_list
 104              	.LVL14:
 984:lvgl\src\lv_themes/lv_theme_material.c ****             _lv_style_list_add_style(list, &styles->bg);
 105              		.loc 1 984 0
 106 0060 944B     		ldr	r3, .L20
 107 0062 1968     		ldr	r1, [r3]
 108 0064 0431     		adds	r1, r1, #4
 109 0066 FFF7FEFF 		bl	_lv_style_list_add_style
 110              	.LVL15:
 985:lvgl\src\lv_themes/lv_theme_material.c ****             break;
 111              		.loc 1 985 0
 112 006a 1DE1     		b	.L2
 113              	.LVL16:
 114              	.L6:
 986:lvgl\src\lv_themes/lv_theme_material.c **** #endif
 987:lvgl\src\lv_themes/lv_theme_material.c **** 
 988:lvgl\src\lv_themes/lv_theme_material.c **** #if LV_USE_BTN
 989:lvgl\src\lv_themes/lv_theme_material.c ****         case LV_THEME_BTN:
 990:lvgl\src\lv_themes/lv_theme_material.c ****             list = lv_obj_get_style_list(obj, LV_BTN_PART_MAIN);
 115              		.loc 1 990 0
 116 006c 0021     		movs	r1, #0
 117              	.LVL17:
 118 006e 2046     		mov	r0, r4
 119              	.LVL18:
 120 0070 FFF7FEFF 		bl	lv_obj_get_style_list
 121              	.LVL19:
 991:lvgl\src\lv_themes/lv_theme_material.c ****             _lv_style_list_add_style(list, &styles->btn);
 122              		.loc 1 991 0
 123 0074 8F4B     		ldr	r3, .L20
 124 0076 1968     		ldr	r1, [r3]
 125 0078 1031     		adds	r1, r1, #16
 126 007a FFF7FEFF 		bl	_lv_style_list_add_style
 127              	.LVL20:
 992:lvgl\src\lv_themes/lv_theme_material.c ****             break;
 128              		.loc 1 992 0
 129 007e 13E1     		b	.L2
 130              	.LVL21:
 131              	.L7:
 993:lvgl\src\lv_themes/lv_theme_material.c **** #endif
 994:lvgl\src\lv_themes/lv_theme_material.c **** 
 995:lvgl\src\lv_themes/lv_theme_material.c **** #if LV_USE_BTNMATRIX
 996:lvgl\src\lv_themes/lv_theme_material.c ****         case LV_THEME_BTNMATRIX:
 997:lvgl\src\lv_themes/lv_theme_material.c ****             list = lv_obj_get_style_list(obj, LV_BTNMATRIX_PART_BG);
 132              		.loc 1 997 0
 133 0080 0021     		movs	r1, #0
 134              	.LVL22:
 135 0082 2046     		mov	r0, r4
 136              	.LVL23:
 137 0084 FFF7FEFF 		bl	lv_obj_get_style_list
 138              	.LVL24:
 139 0088 0646     		mov	r6, r0
 140              	.LVL25:
 998:lvgl\src\lv_themes/lv_theme_material.c ****             _lv_style_list_add_style(list, &styles->bg);
 141              		.loc 1 998 0
 142 008a 8A4D     		ldr	r5, .L20
ARM GAS  C:\Users\strap\AppData\Local\Temp\ccCyLI52.s 			page 21


 143 008c 2968     		ldr	r1, [r5]
 144 008e 0431     		adds	r1, r1, #4
 145 0090 FFF7FEFF 		bl	_lv_style_list_add_style
 146              	.LVL26:
 999:lvgl\src\lv_themes/lv_theme_material.c ****             _lv_style_list_add_style(list, &styles->pad_small);
 147              		.loc 1 999 0
 148 0094 2968     		ldr	r1, [r5]
 149 0096 1831     		adds	r1, r1, #24
 150 0098 3046     		mov	r0, r6
 151 009a FFF7FEFF 		bl	_lv_style_list_add_style
 152              	.LVL27:
1000:lvgl\src\lv_themes/lv_theme_material.c **** 
1001:lvgl\src\lv_themes/lv_theme_material.c ****             list = lv_obj_get_style_list(obj, LV_BTNMATRIX_PART_BTN);
 153              		.loc 1 1001 0
 154 009e 0121     		movs	r1, #1
 155 00a0 2046     		mov	r0, r4
 156 00a2 FFF7FEFF 		bl	lv_obj_get_style_list
 157              	.LVL28:
 158 00a6 0646     		mov	r6, r0
 159              	.LVL29:
1002:lvgl\src\lv_themes/lv_theme_material.c ****             _lv_style_list_add_style(list, &styles->bg);
 160              		.loc 1 1002 0
 161 00a8 2968     		ldr	r1, [r5]
 162 00aa 0431     		adds	r1, r1, #4
 163 00ac FFF7FEFF 		bl	_lv_style_list_add_style
 164              	.LVL30:
1003:lvgl\src\lv_themes/lv_theme_material.c ****             _lv_style_list_add_style(list, &styles->bg_click);
 165              		.loc 1 1003 0
 166 00b0 2968     		ldr	r1, [r5]
 167 00b2 0831     		adds	r1, r1, #8
 168 00b4 3046     		mov	r0, r6
 169 00b6 FFF7FEFF 		bl	_lv_style_list_add_style
 170              	.LVL31:
1004:lvgl\src\lv_themes/lv_theme_material.c ****             break;
 171              		.loc 1 1004 0
 172 00ba F5E0     		b	.L2
 173              	.LVL32:
 174              	.L8:
1005:lvgl\src\lv_themes/lv_theme_material.c **** #endif
1006:lvgl\src\lv_themes/lv_theme_material.c **** 
1007:lvgl\src\lv_themes/lv_theme_material.c **** #if LV_USE_KEYBOARD
1008:lvgl\src\lv_themes/lv_theme_material.c ****         case LV_THEME_KEYBOARD:
1009:lvgl\src\lv_themes/lv_theme_material.c ****             list = lv_obj_get_style_list(obj, LV_KEYBOARD_PART_BG);
1010:lvgl\src\lv_themes/lv_theme_material.c ****             _lv_style_list_add_style(list, &styles->scr);
1011:lvgl\src\lv_themes/lv_theme_material.c ****             _lv_style_list_add_style(list, &styles->kb_bg);
1012:lvgl\src\lv_themes/lv_theme_material.c **** 
1013:lvgl\src\lv_themes/lv_theme_material.c ****             list = lv_obj_get_style_list(obj, LV_KEYBOARD_PART_BTN);
1014:lvgl\src\lv_themes/lv_theme_material.c ****             _lv_style_list_add_style(list, &styles->bg);
1015:lvgl\src\lv_themes/lv_theme_material.c ****             _lv_style_list_add_style(list, &styles->bg_click);
1016:lvgl\src\lv_themes/lv_theme_material.c ****             break;
1017:lvgl\src\lv_themes/lv_theme_material.c **** #endif
1018:lvgl\src\lv_themes/lv_theme_material.c **** 
1019:lvgl\src\lv_themes/lv_theme_material.c **** #if LV_USE_BAR
1020:lvgl\src\lv_themes/lv_theme_material.c ****         case LV_THEME_BAR:
1021:lvgl\src\lv_themes/lv_theme_material.c ****             list = lv_obj_get_style_list(obj, LV_BAR_PART_BG);
1022:lvgl\src\lv_themes/lv_theme_material.c ****             _lv_style_list_add_style(list, &styles->bar_bg);
1023:lvgl\src\lv_themes/lv_theme_material.c **** 
ARM GAS  C:\Users\strap\AppData\Local\Temp\ccCyLI52.s 			page 22


1024:lvgl\src\lv_themes/lv_theme_material.c ****             list = lv_obj_get_style_list(obj, LV_BAR_PART_INDIC);
1025:lvgl\src\lv_themes/lv_theme_material.c ****             _lv_style_list_add_style(list, &styles->bar_indic);
1026:lvgl\src\lv_themes/lv_theme_material.c ****             break;
1027:lvgl\src\lv_themes/lv_theme_material.c **** #endif
1028:lvgl\src\lv_themes/lv_theme_material.c **** 
1029:lvgl\src\lv_themes/lv_theme_material.c **** #if LV_USE_SWITCH
1030:lvgl\src\lv_themes/lv_theme_material.c ****         case LV_THEME_SWITCH:
1031:lvgl\src\lv_themes/lv_theme_material.c ****             list = lv_obj_get_style_list(obj, LV_SWITCH_PART_BG);
1032:lvgl\src\lv_themes/lv_theme_material.c ****             _lv_style_list_add_style(list, &styles->bar_bg);
1033:lvgl\src\lv_themes/lv_theme_material.c **** 
1034:lvgl\src\lv_themes/lv_theme_material.c ****             list = lv_obj_get_style_list(obj, LV_SWITCH_PART_INDIC);
1035:lvgl\src\lv_themes/lv_theme_material.c ****             _lv_style_list_add_style(list, &styles->bar_indic);
1036:lvgl\src\lv_themes/lv_theme_material.c **** 
1037:lvgl\src\lv_themes/lv_theme_material.c ****             list = lv_obj_get_style_list(obj, LV_SWITCH_PART_KNOB);
1038:lvgl\src\lv_themes/lv_theme_material.c ****             _lv_style_list_add_style(list, &styles->sw_knob);
1039:lvgl\src\lv_themes/lv_theme_material.c ****             break;
1040:lvgl\src\lv_themes/lv_theme_material.c **** #endif
1041:lvgl\src\lv_themes/lv_theme_material.c **** 
1042:lvgl\src\lv_themes/lv_theme_material.c **** #if LV_USE_CANVAS
1043:lvgl\src\lv_themes/lv_theme_material.c ****         case LV_THEME_CANVAS:
1044:lvgl\src\lv_themes/lv_theme_material.c ****             break;
1045:lvgl\src\lv_themes/lv_theme_material.c **** #endif
1046:lvgl\src\lv_themes/lv_theme_material.c **** 
1047:lvgl\src\lv_themes/lv_theme_material.c **** #if LV_USE_IMG
1048:lvgl\src\lv_themes/lv_theme_material.c ****         case LV_THEME_IMAGE:
1049:lvgl\src\lv_themes/lv_theme_material.c ****             break;
1050:lvgl\src\lv_themes/lv_theme_material.c **** #endif
1051:lvgl\src\lv_themes/lv_theme_material.c **** 
1052:lvgl\src\lv_themes/lv_theme_material.c **** #if LV_USE_IMGBTN
1053:lvgl\src\lv_themes/lv_theme_material.c ****         case LV_THEME_IMGBTN:
1054:lvgl\src\lv_themes/lv_theme_material.c ****             break;
1055:lvgl\src\lv_themes/lv_theme_material.c **** #endif
1056:lvgl\src\lv_themes/lv_theme_material.c **** 
1057:lvgl\src\lv_themes/lv_theme_material.c **** #if LV_USE_LABEL
1058:lvgl\src\lv_themes/lv_theme_material.c ****         case LV_THEME_LABEL:
1059:lvgl\src\lv_themes/lv_theme_material.c ****             break;
1060:lvgl\src\lv_themes/lv_theme_material.c **** #endif
1061:lvgl\src\lv_themes/lv_theme_material.c **** 
1062:lvgl\src\lv_themes/lv_theme_material.c **** #if LV_USE_LINE
1063:lvgl\src\lv_themes/lv_theme_material.c ****         case LV_THEME_LINE:
1064:lvgl\src\lv_themes/lv_theme_material.c ****             break;
1065:lvgl\src\lv_themes/lv_theme_material.c **** #endif
1066:lvgl\src\lv_themes/lv_theme_material.c **** 
1067:lvgl\src\lv_themes/lv_theme_material.c **** #if LV_USE_ARC
1068:lvgl\src\lv_themes/lv_theme_material.c ****         case LV_THEME_ARC:
1069:lvgl\src\lv_themes/lv_theme_material.c ****             list = lv_obj_get_style_list(obj, LV_ARC_PART_BG);
1070:lvgl\src\lv_themes/lv_theme_material.c ****             _lv_style_list_add_style(list, &styles->bg);
1071:lvgl\src\lv_themes/lv_theme_material.c ****             _lv_style_list_add_style(list, &styles->arc_bg);
1072:lvgl\src\lv_themes/lv_theme_material.c **** 
1073:lvgl\src\lv_themes/lv_theme_material.c ****             list = lv_obj_get_style_list(obj, LV_ARC_PART_INDIC);
1074:lvgl\src\lv_themes/lv_theme_material.c ****             _lv_style_list_add_style(list, &styles->arc_indic);
1075:lvgl\src\lv_themes/lv_theme_material.c **** 
1076:lvgl\src\lv_themes/lv_theme_material.c ****             list = lv_obj_get_style_list(obj, LV_ARC_PART_KNOB);
1077:lvgl\src\lv_themes/lv_theme_material.c ****             _lv_style_list_add_style(list, &styles->bg);
1078:lvgl\src\lv_themes/lv_theme_material.c ****             _lv_style_list_add_style(list, &styles->bg_click);
1079:lvgl\src\lv_themes/lv_theme_material.c ****             _lv_style_list_add_style(list, &styles->arc_knob);
1080:lvgl\src\lv_themes/lv_theme_material.c ****             break;
ARM GAS  C:\Users\strap\AppData\Local\Temp\ccCyLI52.s 			page 23


1081:lvgl\src\lv_themes/lv_theme_material.c **** #endif
1082:lvgl\src\lv_themes/lv_theme_material.c **** 
1083:lvgl\src\lv_themes/lv_theme_material.c **** #if LV_USE_SPINNER
1084:lvgl\src\lv_themes/lv_theme_material.c ****         case LV_THEME_SPINNER:
1085:lvgl\src\lv_themes/lv_theme_material.c ****             list = lv_obj_get_style_list(obj, LV_SPINNER_PART_BG);
1086:lvgl\src\lv_themes/lv_theme_material.c ****             _lv_style_list_add_style(list, &styles->arc_bg);
1087:lvgl\src\lv_themes/lv_theme_material.c **** 
1088:lvgl\src\lv_themes/lv_theme_material.c ****             list = lv_obj_get_style_list(obj, LV_SPINNER_PART_INDIC);
1089:lvgl\src\lv_themes/lv_theme_material.c ****             _lv_style_list_add_style(list, &styles->arc_indic);
1090:lvgl\src\lv_themes/lv_theme_material.c ****             break;
1091:lvgl\src\lv_themes/lv_theme_material.c **** #endif
1092:lvgl\src\lv_themes/lv_theme_material.c **** 
1093:lvgl\src\lv_themes/lv_theme_material.c **** #if LV_USE_SLIDER
1094:lvgl\src\lv_themes/lv_theme_material.c ****         case LV_THEME_SLIDER:
1095:lvgl\src\lv_themes/lv_theme_material.c ****             list = lv_obj_get_style_list(obj, LV_SLIDER_PART_BG);
1096:lvgl\src\lv_themes/lv_theme_material.c ****             _lv_style_list_add_style(list, &styles->bar_bg);
1097:lvgl\src\lv_themes/lv_theme_material.c ****             _lv_style_list_add_style(list, &styles->slider_bg);
1098:lvgl\src\lv_themes/lv_theme_material.c **** 
1099:lvgl\src\lv_themes/lv_theme_material.c ****             list = lv_obj_get_style_list(obj, LV_SLIDER_PART_INDIC);
1100:lvgl\src\lv_themes/lv_theme_material.c ****             _lv_style_list_add_style(list, &styles->bar_indic);
1101:lvgl\src\lv_themes/lv_theme_material.c **** 
1102:lvgl\src\lv_themes/lv_theme_material.c ****             list = lv_obj_get_style_list(obj, LV_SLIDER_PART_KNOB);
1103:lvgl\src\lv_themes/lv_theme_material.c ****             _lv_style_list_add_style(list, &styles->slider_knob);
1104:lvgl\src\lv_themes/lv_theme_material.c ****             break;
1105:lvgl\src\lv_themes/lv_theme_material.c **** #endif
1106:lvgl\src\lv_themes/lv_theme_material.c **** 
1107:lvgl\src\lv_themes/lv_theme_material.c **** #if LV_USE_CHECKBOX
1108:lvgl\src\lv_themes/lv_theme_material.c ****         case LV_THEME_CHECKBOX:
1109:lvgl\src\lv_themes/lv_theme_material.c ****             list = lv_obj_get_style_list(obj, LV_CHECKBOX_PART_BG);
 175              		.loc 1 1109 0
 176 00bc 0021     		movs	r1, #0
 177              	.LVL33:
 178 00be 2046     		mov	r0, r4
 179              	.LVL34:
 180 00c0 FFF7FEFF 		bl	lv_obj_get_style_list
 181              	.LVL35:
1110:lvgl\src\lv_themes/lv_theme_material.c ****             _lv_style_list_add_style(list, &styles->cb_bg);
 182              		.loc 1 1110 0
 183 00c4 7B4D     		ldr	r5, .L20
 184 00c6 2968     		ldr	r1, [r5]
 185 00c8 1C31     		adds	r1, r1, #28
 186 00ca FFF7FEFF 		bl	_lv_style_list_add_style
 187              	.LVL36:
1111:lvgl\src\lv_themes/lv_theme_material.c **** 
1112:lvgl\src\lv_themes/lv_theme_material.c ****             list = lv_obj_get_style_list(obj, LV_CHECKBOX_PART_BULLET);
 188              		.loc 1 1112 0
 189 00ce 4021     		movs	r1, #64
 190 00d0 2046     		mov	r0, r4
 191 00d2 FFF7FEFF 		bl	lv_obj_get_style_list
 192              	.LVL37:
 193 00d6 0646     		mov	r6, r0
 194              	.LVL38:
1113:lvgl\src\lv_themes/lv_theme_material.c ****             _lv_style_list_add_style(list, &styles->btn);
 195              		.loc 1 1113 0
 196 00d8 2968     		ldr	r1, [r5]
 197 00da 1031     		adds	r1, r1, #16
 198 00dc FFF7FEFF 		bl	_lv_style_list_add_style
ARM GAS  C:\Users\strap\AppData\Local\Temp\ccCyLI52.s 			page 24


 199              	.LVL39:
1114:lvgl\src\lv_themes/lv_theme_material.c ****             _lv_style_list_add_style(list, &styles->cb_bullet);
 200              		.loc 1 1114 0
 201 00e0 2968     		ldr	r1, [r5]
 202 00e2 2031     		adds	r1, r1, #32
 203 00e4 3046     		mov	r0, r6
 204 00e6 FFF7FEFF 		bl	_lv_style_list_add_style
 205              	.LVL40:
1115:lvgl\src\lv_themes/lv_theme_material.c ****             break;
 206              		.loc 1 1115 0
 207 00ea DDE0     		b	.L2
 208              	.LVL41:
 209              	.L11:
1116:lvgl\src\lv_themes/lv_theme_material.c **** #endif
1117:lvgl\src\lv_themes/lv_theme_material.c **** 
1118:lvgl\src\lv_themes/lv_theme_material.c **** #if LV_USE_MSGBOX
1119:lvgl\src\lv_themes/lv_theme_material.c ****         case LV_THEME_MSGBOX:
1120:lvgl\src\lv_themes/lv_theme_material.c ****             list = lv_obj_get_style_list(obj, LV_MSGBOX_PART_BG);
1121:lvgl\src\lv_themes/lv_theme_material.c ****             _lv_style_list_add_style(list, &styles->bg);
1122:lvgl\src\lv_themes/lv_theme_material.c ****             _lv_style_list_add_style(list, &styles->mbox_bg);
1123:lvgl\src\lv_themes/lv_theme_material.c ****             break;
1124:lvgl\src\lv_themes/lv_theme_material.c **** 
1125:lvgl\src\lv_themes/lv_theme_material.c ****         case LV_THEME_MSGBOX_BTNS:
1126:lvgl\src\lv_themes/lv_theme_material.c ****             list = lv_obj_get_style_list(obj, LV_MSGBOX_PART_BTN_BG);
1127:lvgl\src\lv_themes/lv_theme_material.c ****             _lv_style_list_add_style(list, &styles->pad_small);
1128:lvgl\src\lv_themes/lv_theme_material.c **** 
1129:lvgl\src\lv_themes/lv_theme_material.c ****             list = lv_obj_get_style_list(obj, LV_MSGBOX_PART_BTN);
1130:lvgl\src\lv_themes/lv_theme_material.c ****             _lv_style_list_add_style(list, &styles->btn);
1131:lvgl\src\lv_themes/lv_theme_material.c ****             break;
1132:lvgl\src\lv_themes/lv_theme_material.c **** 
1133:lvgl\src\lv_themes/lv_theme_material.c **** #endif
1134:lvgl\src\lv_themes/lv_theme_material.c **** #if LV_USE_LED
1135:lvgl\src\lv_themes/lv_theme_material.c ****         case LV_THEME_LED:
1136:lvgl\src\lv_themes/lv_theme_material.c ****             list = lv_obj_get_style_list(obj, LV_LED_PART_MAIN);
 210              		.loc 1 1136 0
 211 00ec 0021     		movs	r1, #0
 212              	.LVL42:
 213 00ee 2046     		mov	r0, r4
 214              	.LVL43:
 215 00f0 FFF7FEFF 		bl	lv_obj_get_style_list
 216              	.LVL44:
1137:lvgl\src\lv_themes/lv_theme_material.c ****             _lv_style_list_add_style(list, &styles->led);
 217              		.loc 1 1137 0
 218 00f4 6F4B     		ldr	r3, .L20
 219 00f6 1968     		ldr	r1, [r3]
 220 00f8 2C31     		adds	r1, r1, #44
 221 00fa FFF7FEFF 		bl	_lv_style_list_add_style
 222              	.LVL45:
1138:lvgl\src\lv_themes/lv_theme_material.c ****             break;
 223              		.loc 1 1138 0
 224 00fe D3E0     		b	.L2
 225              	.LVL46:
 226              	.L13:
1139:lvgl\src\lv_themes/lv_theme_material.c **** #endif
1140:lvgl\src\lv_themes/lv_theme_material.c **** #if LV_USE_PAGE
1141:lvgl\src\lv_themes/lv_theme_material.c ****         case LV_THEME_PAGE:
1142:lvgl\src\lv_themes/lv_theme_material.c ****             list = lv_obj_get_style_list(obj, LV_PAGE_PART_BG);
ARM GAS  C:\Users\strap\AppData\Local\Temp\ccCyLI52.s 			page 25


 227              		.loc 1 1142 0
 228 0100 0021     		movs	r1, #0
 229              	.LVL47:
 230 0102 2046     		mov	r0, r4
 231              	.LVL48:
 232 0104 FFF7FEFF 		bl	lv_obj_get_style_list
 233              	.LVL49:
1143:lvgl\src\lv_themes/lv_theme_material.c ****             _lv_style_list_add_style(list, &styles->bg);
 234              		.loc 1 1143 0
 235 0108 6A4D     		ldr	r5, .L20
 236 010a 2968     		ldr	r1, [r5]
 237 010c 0431     		adds	r1, r1, #4
 238 010e FFF7FEFF 		bl	_lv_style_list_add_style
 239              	.LVL50:
1144:lvgl\src\lv_themes/lv_theme_material.c **** 
1145:lvgl\src\lv_themes/lv_theme_material.c ****             list = lv_obj_get_style_list(obj, LV_PAGE_PART_SCROLLABLE);
 240              		.loc 1 1145 0
 241 0112 4021     		movs	r1, #64
 242 0114 2046     		mov	r0, r4
 243 0116 FFF7FEFF 		bl	lv_obj_get_style_list
 244              	.LVL51:
1146:lvgl\src\lv_themes/lv_theme_material.c ****             _lv_style_list_add_style(list, &styles->pad_inner);
 245              		.loc 1 1146 0
 246 011a 2968     		ldr	r1, [r5]
 247 011c 1431     		adds	r1, r1, #20
 248 011e FFF7FEFF 		bl	_lv_style_list_add_style
 249              	.LVL52:
1147:lvgl\src\lv_themes/lv_theme_material.c **** 
1148:lvgl\src\lv_themes/lv_theme_material.c ****             list = lv_obj_get_style_list(obj, LV_PAGE_PART_SCROLLBAR);
 250              		.loc 1 1148 0
 251 0122 0121     		movs	r1, #1
 252 0124 2046     		mov	r0, r4
 253 0126 FFF7FEFF 		bl	lv_obj_get_style_list
 254              	.LVL53:
1149:lvgl\src\lv_themes/lv_theme_material.c ****             _lv_style_list_add_style(list, &styles->sb);
 255              		.loc 1 1149 0
 256 012a 2968     		ldr	r1, [r5]
 257 012c 3031     		adds	r1, r1, #48
 258 012e FFF7FEFF 		bl	_lv_style_list_add_style
 259              	.LVL54:
1150:lvgl\src\lv_themes/lv_theme_material.c **** 
1151:lvgl\src\lv_themes/lv_theme_material.c **** #if LV_USE_ANIMATION
1152:lvgl\src\lv_themes/lv_theme_material.c ****             list = lv_obj_get_style_list(obj, LV_PAGE_PART_EDGE_FLASH);
 260              		.loc 1 1152 0
 261 0132 0221     		movs	r1, #2
 262 0134 2046     		mov	r0, r4
 263 0136 FFF7FEFF 		bl	lv_obj_get_style_list
 264              	.LVL55:
1153:lvgl\src\lv_themes/lv_theme_material.c ****             _lv_style_list_add_style(list, &styles->edge_flash);
 265              		.loc 1 1153 0
 266 013a 2968     		ldr	r1, [r5]
 267 013c 3431     		adds	r1, r1, #52
 268 013e FFF7FEFF 		bl	_lv_style_list_add_style
 269              	.LVL56:
1154:lvgl\src\lv_themes/lv_theme_material.c **** #endif
1155:lvgl\src\lv_themes/lv_theme_material.c ****             break;
 270              		.loc 1 1155 0
ARM GAS  C:\Users\strap\AppData\Local\Temp\ccCyLI52.s 			page 26


 271 0142 B1E0     		b	.L2
 272              	.LVL57:
 273              	.L16:
1156:lvgl\src\lv_themes/lv_theme_material.c **** #endif
1157:lvgl\src\lv_themes/lv_theme_material.c **** #if LV_USE_TABVIEW
1158:lvgl\src\lv_themes/lv_theme_material.c ****         case LV_THEME_TABVIEW:
1159:lvgl\src\lv_themes/lv_theme_material.c ****             list = lv_obj_get_style_list(obj, LV_TABVIEW_PART_BG);
 274              		.loc 1 1159 0
 275 0144 0021     		movs	r1, #0
 276              	.LVL58:
 277 0146 2046     		mov	r0, r4
 278              	.LVL59:
 279 0148 FFF7FEFF 		bl	lv_obj_get_style_list
 280              	.LVL60:
1160:lvgl\src\lv_themes/lv_theme_material.c ****             _lv_style_list_add_style(list, &styles->scr);
 281              		.loc 1 1160 0
 282 014c 594D     		ldr	r5, .L20
 283 014e 2968     		ldr	r1, [r5]
 284 0150 FFF7FEFF 		bl	_lv_style_list_add_style
 285              	.LVL61:
1161:lvgl\src\lv_themes/lv_theme_material.c **** 
1162:lvgl\src\lv_themes/lv_theme_material.c ****             list = lv_obj_get_style_list(obj, LV_TABVIEW_PART_TAB_BG);
 286              		.loc 1 1162 0
 287 0154 4121     		movs	r1, #65
 288 0156 2046     		mov	r0, r4
 289 0158 FFF7FEFF 		bl	lv_obj_get_style_list
 290              	.LVL62:
1163:lvgl\src\lv_themes/lv_theme_material.c ****             _lv_style_list_add_style(list, &styles->tabview_btns_bg);
 291              		.loc 1 1163 0
 292 015c 2968     		ldr	r1, [r5]
 293 015e 4031     		adds	r1, r1, #64
 294 0160 FFF7FEFF 		bl	_lv_style_list_add_style
 295              	.LVL63:
1164:lvgl\src\lv_themes/lv_theme_material.c **** 
1165:lvgl\src\lv_themes/lv_theme_material.c ****             list = lv_obj_get_style_list(obj, LV_TABVIEW_PART_INDIC);
 296              		.loc 1 1165 0
 297 0164 4321     		movs	r1, #67
 298 0166 2046     		mov	r0, r4
 299 0168 FFF7FEFF 		bl	lv_obj_get_style_list
 300              	.LVL64:
1166:lvgl\src\lv_themes/lv_theme_material.c ****             _lv_style_list_add_style(list, &styles->tabview_indic);
 301              		.loc 1 1166 0
 302 016c 2968     		ldr	r1, [r5]
 303 016e 4431     		adds	r1, r1, #68
 304 0170 FFF7FEFF 		bl	_lv_style_list_add_style
 305              	.LVL65:
1167:lvgl\src\lv_themes/lv_theme_material.c **** 
1168:lvgl\src\lv_themes/lv_theme_material.c ****             list = lv_obj_get_style_list(obj, LV_TABVIEW_PART_TAB_BTN);
 306              		.loc 1 1168 0
 307 0174 4221     		movs	r1, #66
 308 0176 2046     		mov	r0, r4
 309 0178 FFF7FEFF 		bl	lv_obj_get_style_list
 310              	.LVL66:
1169:lvgl\src\lv_themes/lv_theme_material.c ****             _lv_style_list_add_style(list, &styles->tabview_btns);
 311              		.loc 1 1169 0
 312 017c 2968     		ldr	r1, [r5]
 313 017e 3C31     		adds	r1, r1, #60
ARM GAS  C:\Users\strap\AppData\Local\Temp\ccCyLI52.s 			page 27


 314 0180 FFF7FEFF 		bl	_lv_style_list_add_style
 315              	.LVL67:
1170:lvgl\src\lv_themes/lv_theme_material.c ****             break;
 316              		.loc 1 1170 0
 317 0184 90E0     		b	.L2
 318              	.LVL68:
 319              	.L17:
1171:lvgl\src\lv_themes/lv_theme_material.c **** 
1172:lvgl\src\lv_themes/lv_theme_material.c ****         case LV_THEME_TABVIEW_PAGE:
1173:lvgl\src\lv_themes/lv_theme_material.c ****             list = lv_obj_get_style_list(obj, LV_PAGE_PART_SCROLLABLE);
 320              		.loc 1 1173 0
 321 0186 4021     		movs	r1, #64
 322              	.LVL69:
 323 0188 2046     		mov	r0, r4
 324              	.LVL70:
 325 018a FFF7FEFF 		bl	lv_obj_get_style_list
 326              	.LVL71:
1174:lvgl\src\lv_themes/lv_theme_material.c ****             _lv_style_list_add_style(list, &styles->tabview_page_scrl);
 327              		.loc 1 1174 0
 328 018e 494B     		ldr	r3, .L20
 329 0190 1968     		ldr	r1, [r3]
 330 0192 4831     		adds	r1, r1, #72
 331 0194 FFF7FEFF 		bl	_lv_style_list_add_style
 332              	.LVL72:
1175:lvgl\src\lv_themes/lv_theme_material.c **** 
1176:lvgl\src\lv_themes/lv_theme_material.c ****             break;
 333              		.loc 1 1176 0
 334 0198 86E0     		b	.L2
 335              	.LVL73:
 336              	.L12:
1177:lvgl\src\lv_themes/lv_theme_material.c **** #endif
1178:lvgl\src\lv_themes/lv_theme_material.c **** 
1179:lvgl\src\lv_themes/lv_theme_material.c **** #if LV_USE_TILEVIEW
1180:lvgl\src\lv_themes/lv_theme_material.c ****         case LV_THEME_TILEVIEW:
1181:lvgl\src\lv_themes/lv_theme_material.c ****             list = lv_obj_get_style_list(obj, LV_TILEVIEW_PART_BG);
1182:lvgl\src\lv_themes/lv_theme_material.c ****             _lv_style_list_add_style(list, &styles->scr);
1183:lvgl\src\lv_themes/lv_theme_material.c **** 
1184:lvgl\src\lv_themes/lv_theme_material.c ****             list = lv_obj_get_style_list(obj, LV_TILEVIEW_PART_SCROLLBAR);
1185:lvgl\src\lv_themes/lv_theme_material.c ****             _lv_style_list_add_style(list, &styles->sb);
1186:lvgl\src\lv_themes/lv_theme_material.c **** 
1187:lvgl\src\lv_themes/lv_theme_material.c **** #if LV_USE_ANIMATION
1188:lvgl\src\lv_themes/lv_theme_material.c ****             list = lv_obj_get_style_list(obj, LV_TILEVIEW_PART_EDGE_FLASH);
1189:lvgl\src\lv_themes/lv_theme_material.c ****             _lv_style_list_add_style(list, &styles->edge_flash);
1190:lvgl\src\lv_themes/lv_theme_material.c **** #endif
1191:lvgl\src\lv_themes/lv_theme_material.c ****             break;
1192:lvgl\src\lv_themes/lv_theme_material.c **** #endif
1193:lvgl\src\lv_themes/lv_theme_material.c **** 
1194:lvgl\src\lv_themes/lv_theme_material.c **** 
1195:lvgl\src\lv_themes/lv_theme_material.c **** #if LV_USE_ROLLER
1196:lvgl\src\lv_themes/lv_theme_material.c ****         case LV_THEME_ROLLER:
1197:lvgl\src\lv_themes/lv_theme_material.c ****             list = lv_obj_get_style_list(obj, LV_ROLLER_PART_BG);
1198:lvgl\src\lv_themes/lv_theme_material.c ****             _lv_style_list_add_style(list, &styles->bg);
1199:lvgl\src\lv_themes/lv_theme_material.c ****             _lv_style_list_add_style(list, &styles->roller_bg);
1200:lvgl\src\lv_themes/lv_theme_material.c **** 
1201:lvgl\src\lv_themes/lv_theme_material.c ****             list = lv_obj_get_style_list(obj, LV_ROLLER_PART_SELECTED);
1202:lvgl\src\lv_themes/lv_theme_material.c ****             _lv_style_list_add_style(list, &styles->roller_sel);
1203:lvgl\src\lv_themes/lv_theme_material.c ****             break;
ARM GAS  C:\Users\strap\AppData\Local\Temp\ccCyLI52.s 			page 28


1204:lvgl\src\lv_themes/lv_theme_material.c **** #endif
1205:lvgl\src\lv_themes/lv_theme_material.c **** 
1206:lvgl\src\lv_themes/lv_theme_material.c **** #if LV_USE_OBJMASK
1207:lvgl\src\lv_themes/lv_theme_material.c ****         case LV_THEME_OBJMASK:
1208:lvgl\src\lv_themes/lv_theme_material.c ****             list = lv_obj_get_style_list(obj, LV_OBJMASK_PART_MAIN);
 337              		.loc 1 1208 0
 338 019a 0021     		movs	r1, #0
 339              	.LVL74:
 340 019c 2046     		mov	r0, r4
 341              	.LVL75:
 342 019e FFF7FEFF 		bl	lv_obj_get_style_list
 343              	.LVL76:
1209:lvgl\src\lv_themes/lv_theme_material.c ****             break;
 344              		.loc 1 1209 0
 345 01a2 81E0     		b	.L2
 346              	.LVL77:
 347              	.L10:
1210:lvgl\src\lv_themes/lv_theme_material.c **** #endif
1211:lvgl\src\lv_themes/lv_theme_material.c **** 
1212:lvgl\src\lv_themes/lv_theme_material.c **** #if LV_USE_LIST
1213:lvgl\src\lv_themes/lv_theme_material.c ****         case LV_THEME_LIST:
1214:lvgl\src\lv_themes/lv_theme_material.c ****             list = lv_obj_get_style_list(obj, LV_LIST_PART_BG);
1215:lvgl\src\lv_themes/lv_theme_material.c ****             _lv_style_list_add_style(list, &styles->bg);
1216:lvgl\src\lv_themes/lv_theme_material.c ****             _lv_style_list_add_style(list, &styles->list_bg);
1217:lvgl\src\lv_themes/lv_theme_material.c **** 
1218:lvgl\src\lv_themes/lv_theme_material.c **** 
1219:lvgl\src\lv_themes/lv_theme_material.c ****             list = lv_obj_get_style_list(obj, LV_LIST_PART_SCROLLBAR);
1220:lvgl\src\lv_themes/lv_theme_material.c ****             _lv_style_list_add_style(list, &styles->sb);
1221:lvgl\src\lv_themes/lv_theme_material.c ****             break;
1222:lvgl\src\lv_themes/lv_theme_material.c **** 
1223:lvgl\src\lv_themes/lv_theme_material.c ****         case LV_THEME_LIST_BTN:
1224:lvgl\src\lv_themes/lv_theme_material.c ****             list = lv_obj_get_style_list(obj, LV_BTN_PART_MAIN);
1225:lvgl\src\lv_themes/lv_theme_material.c ****             _lv_style_list_add_style(list, &styles->list_btn);
1226:lvgl\src\lv_themes/lv_theme_material.c ****             break;
1227:lvgl\src\lv_themes/lv_theme_material.c **** #endif
1228:lvgl\src\lv_themes/lv_theme_material.c **** 
1229:lvgl\src\lv_themes/lv_theme_material.c **** #if LV_USE_DROPDOWN
1230:lvgl\src\lv_themes/lv_theme_material.c ****         case LV_THEME_DROPDOWN:
1231:lvgl\src\lv_themes/lv_theme_material.c ****             list = lv_obj_get_style_list(obj, LV_DROPDOWN_PART_MAIN);
 348              		.loc 1 1231 0
 349 01a4 0021     		movs	r1, #0
 350              	.LVL78:
 351 01a6 2046     		mov	r0, r4
 352              	.LVL79:
 353 01a8 FFF7FEFF 		bl	lv_obj_get_style_list
 354              	.LVL80:
 355 01ac 0646     		mov	r6, r0
 356              	.LVL81:
1232:lvgl\src\lv_themes/lv_theme_material.c ****             _lv_style_list_add_style(list, &styles->bg);
 357              		.loc 1 1232 0
 358 01ae 414D     		ldr	r5, .L20
 359 01b0 2968     		ldr	r1, [r5]
 360 01b2 0431     		adds	r1, r1, #4
 361 01b4 FFF7FEFF 		bl	_lv_style_list_add_style
 362              	.LVL82:
1233:lvgl\src\lv_themes/lv_theme_material.c ****             _lv_style_list_add_style(list, &styles->bg_click);
 363              		.loc 1 1233 0
ARM GAS  C:\Users\strap\AppData\Local\Temp\ccCyLI52.s 			page 29


 364 01b8 2968     		ldr	r1, [r5]
 365 01ba 0831     		adds	r1, r1, #8
 366 01bc 3046     		mov	r0, r6
 367 01be FFF7FEFF 		bl	_lv_style_list_add_style
 368              	.LVL83:
1234:lvgl\src\lv_themes/lv_theme_material.c ****             _lv_style_list_add_style(list, &styles->pad_small);
 369              		.loc 1 1234 0
 370 01c2 2968     		ldr	r1, [r5]
 371 01c4 1831     		adds	r1, r1, #24
 372 01c6 3046     		mov	r0, r6
 373 01c8 FFF7FEFF 		bl	_lv_style_list_add_style
 374              	.LVL84:
1235:lvgl\src\lv_themes/lv_theme_material.c **** 
1236:lvgl\src\lv_themes/lv_theme_material.c ****             list = lv_obj_get_style_list(obj, LV_DROPDOWN_PART_LIST);
 375              		.loc 1 1236 0
 376 01cc 4021     		movs	r1, #64
 377 01ce 2046     		mov	r0, r4
 378 01d0 FFF7FEFF 		bl	lv_obj_get_style_list
 379              	.LVL85:
 380 01d4 0646     		mov	r6, r0
 381              	.LVL86:
1237:lvgl\src\lv_themes/lv_theme_material.c ****             _lv_style_list_add_style(list, &styles->bg);
 382              		.loc 1 1237 0
 383 01d6 2968     		ldr	r1, [r5]
 384 01d8 0431     		adds	r1, r1, #4
 385 01da FFF7FEFF 		bl	_lv_style_list_add_style
 386              	.LVL87:
1238:lvgl\src\lv_themes/lv_theme_material.c ****             _lv_style_list_add_style(list, &styles->ddlist_page);
 387              		.loc 1 1238 0
 388 01de 2968     		ldr	r1, [r5]
 389 01e0 2431     		adds	r1, r1, #36
 390 01e2 3046     		mov	r0, r6
 391 01e4 FFF7FEFF 		bl	_lv_style_list_add_style
 392              	.LVL88:
1239:lvgl\src\lv_themes/lv_theme_material.c **** 
1240:lvgl\src\lv_themes/lv_theme_material.c ****             list = lv_obj_get_style_list(obj, LV_DROPDOWN_PART_SCROLLBAR);
 393              		.loc 1 1240 0
 394 01e8 4121     		movs	r1, #65
 395 01ea 2046     		mov	r0, r4
 396 01ec FFF7FEFF 		bl	lv_obj_get_style_list
 397              	.LVL89:
1241:lvgl\src\lv_themes/lv_theme_material.c ****             _lv_style_list_add_style(list, &styles->sb);
 398              		.loc 1 1241 0
 399 01f0 2968     		ldr	r1, [r5]
 400 01f2 3031     		adds	r1, r1, #48
 401 01f4 FFF7FEFF 		bl	_lv_style_list_add_style
 402              	.LVL90:
1242:lvgl\src\lv_themes/lv_theme_material.c **** 
1243:lvgl\src\lv_themes/lv_theme_material.c ****             list = lv_obj_get_style_list(obj, LV_DROPDOWN_PART_SELECTED);
 403              		.loc 1 1243 0
 404 01f8 4221     		movs	r1, #66
 405 01fa 2046     		mov	r0, r4
 406 01fc FFF7FEFF 		bl	lv_obj_get_style_list
 407              	.LVL91:
1244:lvgl\src\lv_themes/lv_theme_material.c ****             _lv_style_list_add_style(list, &styles->ddlist_sel);
 408              		.loc 1 1244 0
 409 0200 2968     		ldr	r1, [r5]
ARM GAS  C:\Users\strap\AppData\Local\Temp\ccCyLI52.s 			page 30


 410 0202 2831     		adds	r1, r1, #40
 411 0204 FFF7FEFF 		bl	_lv_style_list_add_style
 412              	.LVL92:
1245:lvgl\src\lv_themes/lv_theme_material.c ****             break;
 413              		.loc 1 1245 0
 414 0208 4EE0     		b	.L2
 415              	.LVL93:
 416              	.L18:
1246:lvgl\src\lv_themes/lv_theme_material.c **** #endif
1247:lvgl\src\lv_themes/lv_theme_material.c **** 
1248:lvgl\src\lv_themes/lv_theme_material.c **** #if LV_USE_CHART
1249:lvgl\src\lv_themes/lv_theme_material.c ****         case LV_THEME_CHART:
1250:lvgl\src\lv_themes/lv_theme_material.c ****             list = lv_obj_get_style_list(obj, LV_CHART_PART_BG);
1251:lvgl\src\lv_themes/lv_theme_material.c ****             _lv_style_list_add_style(list, &styles->bg);
1252:lvgl\src\lv_themes/lv_theme_material.c ****             _lv_style_list_add_style(list, &styles->chart_bg);
1253:lvgl\src\lv_themes/lv_theme_material.c ****             _lv_style_list_add_style(list, &styles->pad_small);
1254:lvgl\src\lv_themes/lv_theme_material.c **** 
1255:lvgl\src\lv_themes/lv_theme_material.c ****             list = lv_obj_get_style_list(obj, LV_CHART_PART_SERIES_BG);
1256:lvgl\src\lv_themes/lv_theme_material.c ****             _lv_style_list_add_style(list, &styles->pad_small);
1257:lvgl\src\lv_themes/lv_theme_material.c ****             _lv_style_list_add_style(list, &styles->chart_series_bg);
1258:lvgl\src\lv_themes/lv_theme_material.c **** 
1259:lvgl\src\lv_themes/lv_theme_material.c ****             list = lv_obj_get_style_list(obj, LV_CHART_PART_CURSOR);
1260:lvgl\src\lv_themes/lv_theme_material.c ****             _lv_style_list_add_style(list, &styles->chart_series_bg);
1261:lvgl\src\lv_themes/lv_theme_material.c **** 
1262:lvgl\src\lv_themes/lv_theme_material.c ****             list = lv_obj_get_style_list(obj, LV_CHART_PART_SERIES);
1263:lvgl\src\lv_themes/lv_theme_material.c ****             _lv_style_list_add_style(list, &styles->chart_series);
1264:lvgl\src\lv_themes/lv_theme_material.c ****             break;
1265:lvgl\src\lv_themes/lv_theme_material.c **** #endif
1266:lvgl\src\lv_themes/lv_theme_material.c **** #if LV_USE_TABLE
1267:lvgl\src\lv_themes/lv_theme_material.c ****         case LV_THEME_TABLE:
1268:lvgl\src\lv_themes/lv_theme_material.c ****         {
1269:lvgl\src\lv_themes/lv_theme_material.c ****             list = lv_obj_get_style_list(obj, LV_TABLE_PART_BG);
1270:lvgl\src\lv_themes/lv_theme_material.c ****             _lv_style_list_add_style(list, &styles->bg);
1271:lvgl\src\lv_themes/lv_theme_material.c **** 
1272:lvgl\src\lv_themes/lv_theme_material.c ****             int idx = 1; /* start value should be 1, not zero, since cell styles 
1273:lvgl\src\lv_themes/lv_theme_material.c ****                             start at 1 due to presence of LV_TABLE_PART_BG=0
1274:lvgl\src\lv_themes/lv_theme_material.c ****                             in the enum (lv_table.h) */ 
1275:lvgl\src\lv_themes/lv_theme_material.c ****                          /* declaring idx outside loop to work with older compilers */
1276:lvgl\src\lv_themes/lv_theme_material.c **** 	    for (;idx <= LV_TABLE_CELL_STYLE_CNT; idx ++ ) {
1277:lvgl\src\lv_themes/lv_theme_material.c ****               list = lv_obj_get_style_list(obj, idx);
1278:lvgl\src\lv_themes/lv_theme_material.c ****              _lv_style_list_add_style(list, &styles->table_cell);
1279:lvgl\src\lv_themes/lv_theme_material.c ****             }
1280:lvgl\src\lv_themes/lv_theme_material.c ****             break;
1281:lvgl\src\lv_themes/lv_theme_material.c ****         }
1282:lvgl\src\lv_themes/lv_theme_material.c **** #endif
1283:lvgl\src\lv_themes/lv_theme_material.c **** 
1284:lvgl\src\lv_themes/lv_theme_material.c **** #if LV_USE_WIN
1285:lvgl\src\lv_themes/lv_theme_material.c ****         case LV_THEME_WIN:
1286:lvgl\src\lv_themes/lv_theme_material.c ****             list = lv_obj_get_style_list(obj, LV_WIN_PART_BG);
1287:lvgl\src\lv_themes/lv_theme_material.c ****             _lv_style_list_add_style(list, &styles->scr);
1288:lvgl\src\lv_themes/lv_theme_material.c **** 
1289:lvgl\src\lv_themes/lv_theme_material.c ****             list = lv_obj_get_style_list(obj, LV_WIN_PART_SCROLLBAR);
1290:lvgl\src\lv_themes/lv_theme_material.c ****             _lv_style_list_add_style(list, &styles->sb);
1291:lvgl\src\lv_themes/lv_theme_material.c **** 
1292:lvgl\src\lv_themes/lv_theme_material.c ****             list = lv_obj_get_style_list(obj, LV_WIN_PART_CONTENT_SCROLLABLE);
1293:lvgl\src\lv_themes/lv_theme_material.c ****             _lv_style_list_add_style(list, &styles->tabview_page_scrl);
1294:lvgl\src\lv_themes/lv_theme_material.c **** 
ARM GAS  C:\Users\strap\AppData\Local\Temp\ccCyLI52.s 			page 31


1295:lvgl\src\lv_themes/lv_theme_material.c ****             list = lv_obj_get_style_list(obj, LV_WIN_PART_HEADER);
1296:lvgl\src\lv_themes/lv_theme_material.c ****             _lv_style_list_add_style(list, &styles->tabview_btns_bg);
1297:lvgl\src\lv_themes/lv_theme_material.c ****             break;
1298:lvgl\src\lv_themes/lv_theme_material.c **** 
1299:lvgl\src\lv_themes/lv_theme_material.c ****         case LV_THEME_WIN_BTN:
1300:lvgl\src\lv_themes/lv_theme_material.c ****             list = lv_obj_get_style_list(obj, LV_BTN_PART_MAIN);
1301:lvgl\src\lv_themes/lv_theme_material.c ****             _lv_style_list_add_style(list, &styles->tabview_btns);
1302:lvgl\src\lv_themes/lv_theme_material.c ****             break;
1303:lvgl\src\lv_themes/lv_theme_material.c **** #endif
1304:lvgl\src\lv_themes/lv_theme_material.c **** 
1305:lvgl\src\lv_themes/lv_theme_material.c **** #if LV_USE_TEXTAREA
1306:lvgl\src\lv_themes/lv_theme_material.c ****         case LV_THEME_TEXTAREA:
1307:lvgl\src\lv_themes/lv_theme_material.c ****             list = lv_obj_get_style_list(obj, LV_TEXTAREA_PART_BG);
 417              		.loc 1 1307 0
 418 020a 0021     		movs	r1, #0
 419              	.LVL94:
 420 020c 2046     		mov	r0, r4
 421              	.LVL95:
 422 020e FFF7FEFF 		bl	lv_obj_get_style_list
 423              	.LVL96:
 424 0212 0646     		mov	r6, r0
 425              	.LVL97:
1308:lvgl\src\lv_themes/lv_theme_material.c ****             _lv_style_list_add_style(list, &styles->bg);
 426              		.loc 1 1308 0
 427 0214 274D     		ldr	r5, .L20
 428 0216 2968     		ldr	r1, [r5]
 429 0218 0431     		adds	r1, r1, #4
 430 021a FFF7FEFF 		bl	_lv_style_list_add_style
 431              	.LVL98:
1309:lvgl\src\lv_themes/lv_theme_material.c ****             _lv_style_list_add_style(list, &styles->pad_small);
 432              		.loc 1 1309 0
 433 021e 2968     		ldr	r1, [r5]
 434 0220 1831     		adds	r1, r1, #24
 435 0222 3046     		mov	r0, r6
 436 0224 FFF7FEFF 		bl	_lv_style_list_add_style
 437              	.LVL99:
1310:lvgl\src\lv_themes/lv_theme_material.c **** 
1311:lvgl\src\lv_themes/lv_theme_material.c ****             list = lv_obj_get_style_list(obj, LV_TEXTAREA_PART_PLACEHOLDER);
 438              		.loc 1 1311 0
 439 0228 0421     		movs	r1, #4
 440 022a 2046     		mov	r0, r4
 441 022c FFF7FEFF 		bl	lv_obj_get_style_list
 442              	.LVL100:
1312:lvgl\src\lv_themes/lv_theme_material.c ****             _lv_style_list_add_style(list, &styles->ta_placeholder);
 443              		.loc 1 1312 0
 444 0230 2968     		ldr	r1, [r5]
 445 0232 5031     		adds	r1, r1, #80
 446 0234 FFF7FEFF 		bl	_lv_style_list_add_style
 447              	.LVL101:
1313:lvgl\src\lv_themes/lv_theme_material.c **** 
1314:lvgl\src\lv_themes/lv_theme_material.c ****             list = lv_obj_get_style_list(obj, LV_TEXTAREA_PART_CURSOR);
 448              		.loc 1 1314 0
 449 0238 0321     		movs	r1, #3
 450 023a 2046     		mov	r0, r4
 451 023c FFF7FEFF 		bl	lv_obj_get_style_list
 452              	.LVL102:
1315:lvgl\src\lv_themes/lv_theme_material.c ****             _lv_style_list_add_style(list, &styles->ta_cursor);
ARM GAS  C:\Users\strap\AppData\Local\Temp\ccCyLI52.s 			page 32


 453              		.loc 1 1315 0
 454 0240 2968     		ldr	r1, [r5]
 455 0242 4C31     		adds	r1, r1, #76
 456 0244 FFF7FEFF 		bl	_lv_style_list_add_style
 457              	.LVL103:
1316:lvgl\src\lv_themes/lv_theme_material.c **** 
1317:lvgl\src\lv_themes/lv_theme_material.c ****             list = lv_obj_get_style_list(obj, LV_TEXTAREA_PART_SCROLLBAR);
 458              		.loc 1 1317 0
 459 0248 0121     		movs	r1, #1
 460 024a 2046     		mov	r0, r4
 461 024c FFF7FEFF 		bl	lv_obj_get_style_list
 462              	.LVL104:
1318:lvgl\src\lv_themes/lv_theme_material.c ****             _lv_style_list_add_style(list, &styles->sb);
 463              		.loc 1 1318 0
 464 0250 2968     		ldr	r1, [r5]
 465 0252 3031     		adds	r1, r1, #48
 466 0254 FFF7FEFF 		bl	_lv_style_list_add_style
 467              	.LVL105:
1319:lvgl\src\lv_themes/lv_theme_material.c ****             break;
 468              		.loc 1 1319 0
 469 0258 26E0     		b	.L2
 470              	.LVL106:
 471              	.L14:
1320:lvgl\src\lv_themes/lv_theme_material.c **** 
1321:lvgl\src\lv_themes/lv_theme_material.c **** #endif
1322:lvgl\src\lv_themes/lv_theme_material.c **** 
1323:lvgl\src\lv_themes/lv_theme_material.c **** 
1324:lvgl\src\lv_themes/lv_theme_material.c **** #if LV_USE_SPINBOX
1325:lvgl\src\lv_themes/lv_theme_material.c ****         case LV_THEME_SPINBOX:
1326:lvgl\src\lv_themes/lv_theme_material.c ****             list = lv_obj_get_style_list(obj, LV_SPINBOX_PART_BG);
 472              		.loc 1 1326 0
 473 025a 0021     		movs	r1, #0
 474              	.LVL107:
 475 025c 2046     		mov	r0, r4
 476              	.LVL108:
 477 025e FFF7FEFF 		bl	lv_obj_get_style_list
 478              	.LVL109:
 479 0262 0646     		mov	r6, r0
 480              	.LVL110:
1327:lvgl\src\lv_themes/lv_theme_material.c ****             _lv_style_list_add_style(list, &styles->bg);
 481              		.loc 1 1327 0
 482 0264 134D     		ldr	r5, .L20
 483 0266 2968     		ldr	r1, [r5]
 484 0268 0431     		adds	r1, r1, #4
 485 026a FFF7FEFF 		bl	_lv_style_list_add_style
 486              	.LVL111:
1328:lvgl\src\lv_themes/lv_theme_material.c ****             _lv_style_list_add_style(list, &styles->pad_small);
 487              		.loc 1 1328 0
 488 026e 2968     		ldr	r1, [r5]
 489 0270 1831     		adds	r1, r1, #24
 490 0272 3046     		mov	r0, r6
 491 0274 FFF7FEFF 		bl	_lv_style_list_add_style
 492              	.LVL112:
1329:lvgl\src\lv_themes/lv_theme_material.c **** 
1330:lvgl\src\lv_themes/lv_theme_material.c ****             list = lv_obj_get_style_list(obj, LV_SPINBOX_PART_CURSOR);
 493              		.loc 1 1330 0
 494 0278 0321     		movs	r1, #3
ARM GAS  C:\Users\strap\AppData\Local\Temp\ccCyLI52.s 			page 33


 495 027a 2046     		mov	r0, r4
 496 027c FFF7FEFF 		bl	lv_obj_get_style_list
 497              	.LVL113:
1331:lvgl\src\lv_themes/lv_theme_material.c ****             _lv_style_list_add_style(list, &styles->spinbox_cursor);
 498              		.loc 1 1331 0
 499 0280 2968     		ldr	r1, [r5]
 500 0282 3831     		adds	r1, r1, #56
 501 0284 FFF7FEFF 		bl	_lv_style_list_add_style
 502              	.LVL114:
1332:lvgl\src\lv_themes/lv_theme_material.c ****             break;
 503              		.loc 1 1332 0
 504 0288 0EE0     		b	.L2
 505              	.LVL115:
 506              	.L15:
1333:lvgl\src\lv_themes/lv_theme_material.c **** 
1334:lvgl\src\lv_themes/lv_theme_material.c ****         case LV_THEME_SPINBOX_BTN:
1335:lvgl\src\lv_themes/lv_theme_material.c ****             list = lv_obj_get_style_list(obj, LV_BTN_PART_MAIN);
 507              		.loc 1 1335 0
 508 028a 0021     		movs	r1, #0
 509              	.LVL116:
 510 028c 2046     		mov	r0, r4
 511              	.LVL117:
 512 028e FFF7FEFF 		bl	lv_obj_get_style_list
 513              	.LVL118:
 514 0292 0646     		mov	r6, r0
 515              	.LVL119:
1336:lvgl\src\lv_themes/lv_theme_material.c ****             _lv_style_list_add_style(list, &styles->bg);
 516              		.loc 1 1336 0
 517 0294 074D     		ldr	r5, .L20
 518 0296 2968     		ldr	r1, [r5]
 519 0298 0431     		adds	r1, r1, #4
 520 029a FFF7FEFF 		bl	_lv_style_list_add_style
 521              	.LVL120:
1337:lvgl\src\lv_themes/lv_theme_material.c ****             _lv_style_list_add_style(list, &styles->bg_click);
 522              		.loc 1 1337 0
 523 029e 2968     		ldr	r1, [r5]
 524 02a0 0831     		adds	r1, r1, #8
 525 02a2 3046     		mov	r0, r6
 526 02a4 FFF7FEFF 		bl	_lv_style_list_add_style
 527              	.LVL121:
 528              	.L2:
1338:lvgl\src\lv_themes/lv_theme_material.c ****             break;
1339:lvgl\src\lv_themes/lv_theme_material.c **** #endif
1340:lvgl\src\lv_themes/lv_theme_material.c **** 
1341:lvgl\src\lv_themes/lv_theme_material.c **** #if LV_USE_CALENDAR
1342:lvgl\src\lv_themes/lv_theme_material.c ****         case LV_THEME_CALENDAR:
1343:lvgl\src\lv_themes/lv_theme_material.c ****             list = lv_obj_get_style_list(obj, LV_CALENDAR_PART_BG);
1344:lvgl\src\lv_themes/lv_theme_material.c ****             _lv_style_list_add_style(list, &styles->bg);
1345:lvgl\src\lv_themes/lv_theme_material.c **** 
1346:lvgl\src\lv_themes/lv_theme_material.c ****             list = lv_obj_get_style_list(obj, LV_CALENDAR_PART_DATE);
1347:lvgl\src\lv_themes/lv_theme_material.c ****             _lv_style_list_add_style(list, &styles->calendar_date_nums);
1348:lvgl\src\lv_themes/lv_theme_material.c **** 
1349:lvgl\src\lv_themes/lv_theme_material.c ****             list = lv_obj_get_style_list(obj, LV_CALENDAR_PART_HEADER);
1350:lvgl\src\lv_themes/lv_theme_material.c ****             _lv_style_list_add_style(list, &styles->calendar_header);
1351:lvgl\src\lv_themes/lv_theme_material.c **** 
1352:lvgl\src\lv_themes/lv_theme_material.c ****             list = lv_obj_get_style_list(obj, LV_CALENDAR_PART_DAY_NAMES);
1353:lvgl\src\lv_themes/lv_theme_material.c ****             _lv_style_list_add_style(list, &styles->calendar_daynames);
ARM GAS  C:\Users\strap\AppData\Local\Temp\ccCyLI52.s 			page 34


1354:lvgl\src\lv_themes/lv_theme_material.c ****             break;
1355:lvgl\src\lv_themes/lv_theme_material.c **** #endif
1356:lvgl\src\lv_themes/lv_theme_material.c **** #if LV_USE_CPICKER
1357:lvgl\src\lv_themes/lv_theme_material.c ****         case LV_THEME_CPICKER:
1358:lvgl\src\lv_themes/lv_theme_material.c ****             list = lv_obj_get_style_list(obj, LV_CPICKER_PART_MAIN);
1359:lvgl\src\lv_themes/lv_theme_material.c ****             _lv_style_list_add_style(list, &styles->cpicker_bg);
1360:lvgl\src\lv_themes/lv_theme_material.c **** 
1361:lvgl\src\lv_themes/lv_theme_material.c ****             list = lv_obj_get_style_list(obj, LV_CPICKER_PART_KNOB);
1362:lvgl\src\lv_themes/lv_theme_material.c ****             _lv_style_list_add_style(list, &styles->cpicker_indic);
1363:lvgl\src\lv_themes/lv_theme_material.c ****             break;
1364:lvgl\src\lv_themes/lv_theme_material.c **** #endif
1365:lvgl\src\lv_themes/lv_theme_material.c **** 
1366:lvgl\src\lv_themes/lv_theme_material.c **** #if LV_USE_LINEMETER
1367:lvgl\src\lv_themes/lv_theme_material.c ****         case LV_THEME_LINEMETER:
1368:lvgl\src\lv_themes/lv_theme_material.c ****             list = lv_obj_get_style_list(obj, LV_LINEMETER_PART_MAIN);
1369:lvgl\src\lv_themes/lv_theme_material.c ****             _lv_style_list_add_style(list, &styles->bg);
1370:lvgl\src\lv_themes/lv_theme_material.c ****             _lv_style_list_add_style(list, &styles->lmeter);
1371:lvgl\src\lv_themes/lv_theme_material.c ****             break;
1372:lvgl\src\lv_themes/lv_theme_material.c **** #endif
1373:lvgl\src\lv_themes/lv_theme_material.c **** #if LV_USE_GAUGE
1374:lvgl\src\lv_themes/lv_theme_material.c ****         case LV_THEME_GAUGE:
1375:lvgl\src\lv_themes/lv_theme_material.c ****             list = lv_obj_get_style_list(obj, LV_GAUGE_PART_MAIN);
1376:lvgl\src\lv_themes/lv_theme_material.c ****             _lv_style_list_add_style(list, &styles->bg);
1377:lvgl\src\lv_themes/lv_theme_material.c ****             _lv_style_list_add_style(list, &styles->gauge_main);
1378:lvgl\src\lv_themes/lv_theme_material.c **** 
1379:lvgl\src\lv_themes/lv_theme_material.c ****             list = lv_obj_get_style_list(obj, LV_GAUGE_PART_MAJOR);
1380:lvgl\src\lv_themes/lv_theme_material.c ****             _lv_style_list_add_style(list, &styles->gauge_strong);
1381:lvgl\src\lv_themes/lv_theme_material.c **** 
1382:lvgl\src\lv_themes/lv_theme_material.c ****             list = lv_obj_get_style_list(obj, LV_GAUGE_PART_NEEDLE);
1383:lvgl\src\lv_themes/lv_theme_material.c ****             _lv_style_list_add_style(list, &styles->gauge_needle);
1384:lvgl\src\lv_themes/lv_theme_material.c ****             break;
1385:lvgl\src\lv_themes/lv_theme_material.c **** #endif
1386:lvgl\src\lv_themes/lv_theme_material.c ****         default:
1387:lvgl\src\lv_themes/lv_theme_material.c ****             break;
1388:lvgl\src\lv_themes/lv_theme_material.c ****     }
1389:lvgl\src\lv_themes/lv_theme_material.c **** 
1390:lvgl\src\lv_themes/lv_theme_material.c ****     lv_obj_refresh_style(obj, LV_OBJ_PART_ALL, LV_STYLE_PROP_ALL);
 529              		.loc 1 1390 0
 530 02a8 FF22     		movs	r2, #255
 531 02aa 1146     		mov	r1, r2
 532 02ac 2046     		mov	r0, r4
 533 02ae FFF7FEFF 		bl	lv_obj_refresh_style
 534              	.LVL122:
 535 02b2 70BD     		pop	{r4, r5, r6, pc}
 536              	.LVL123:
 537              	.L21:
 538              		.align	2
 539              	.L20:
 540 02b4 00000000 		.word	.LANCHOR0
 541              		.cfi_endproc
 542              	.LFE408:
 543              		.size	theme_apply, .-theme_apply
 544              		.section	.text.style_init_reset,"ax",%progbits
 545              		.align	2
 546              		.thumb
 547              		.thumb_func
 548              		.type	style_init_reset, %function
ARM GAS  C:\Users\strap\AppData\Local\Temp\ccCyLI52.s 			page 35


 549              	style_init_reset:
 550              	.LFB409:
1391:lvgl\src\lv_themes/lv_theme_material.c **** }
1392:lvgl\src\lv_themes/lv_theme_material.c **** 
1393:lvgl\src\lv_themes/lv_theme_material.c **** /**********************
1394:lvgl\src\lv_themes/lv_theme_material.c ****  *   STATIC FUNCTIONS
1395:lvgl\src\lv_themes/lv_theme_material.c ****  **********************/
1396:lvgl\src\lv_themes/lv_theme_material.c **** 
1397:lvgl\src\lv_themes/lv_theme_material.c **** static void style_init_reset(lv_style_t * style)
1398:lvgl\src\lv_themes/lv_theme_material.c **** {
 551              		.loc 1 1398 0
 552              		.cfi_startproc
 553              		@ args = 0, pretend = 0, frame = 0
 554              		@ frame_needed = 0, uses_anonymous_args = 0
 555              	.LVL124:
 556 0000 08B5     		push	{r3, lr}
 557              		.cfi_def_cfa_offset 8
 558              		.cfi_offset 3, -8
 559              		.cfi_offset 14, -4
1399:lvgl\src\lv_themes/lv_theme_material.c ****     if(inited) lv_style_reset(style);
 560              		.loc 1 1399 0
 561 0002 044B     		ldr	r3, .L26
 562 0004 1B79     		ldrb	r3, [r3, #4]	@ zero_extendqisi2
 563 0006 13B1     		cbz	r3, .L23
 564              		.loc 1 1399 0 is_stmt 0 discriminator 1
 565 0008 FFF7FEFF 		bl	lv_style_reset
 566              	.LVL125:
 567 000c 08BD     		pop	{r3, pc}
 568              	.LVL126:
 569              	.L23:
1400:lvgl\src\lv_themes/lv_theme_material.c ****     else lv_style_init(style);
 570              		.loc 1 1400 0 is_stmt 1
 571 000e FFF7FEFF 		bl	lv_style_init
 572              	.LVL127:
 573 0012 08BD     		pop	{r3, pc}
 574              	.L27:
 575              		.align	2
 576              	.L26:
 577 0014 00000000 		.word	.LANCHOR0
 578              		.cfi_endproc
 579              	.LFE409:
 580              		.size	style_init_reset, .-style_init_reset
 581              		.section	.text.checkbox_init,"ax",%progbits
 582              		.align	2
 583              		.thumb
 584              		.thumb_func
 585              		.type	checkbox_init, %function
 586              	checkbox_init:
 587              	.LFB392:
 616:lvgl\src\lv_themes/lv_theme_material.c **** #if LV_USE_CHECKBOX != 0
 588              		.loc 1 616 0
 589              		.cfi_startproc
 590              		@ args = 0, pretend = 0, frame = 0
 591              		@ frame_needed = 0, uses_anonymous_args = 0
 592 0000 38B5     		push	{r3, r4, r5, lr}
 593              		.cfi_def_cfa_offset 16
 594              		.cfi_offset 3, -16
ARM GAS  C:\Users\strap\AppData\Local\Temp\ccCyLI52.s 			page 36


 595              		.cfi_offset 4, -12
 596              		.cfi_offset 5, -8
 597              		.cfi_offset 14, -4
 618:lvgl\src\lv_themes/lv_theme_material.c ****     lv_style_set_radius(&styles->cb_bg, LV_STATE_DEFAULT, LV_DPX(4));
 598              		.loc 1 618 0
 599 0002 B94C     		ldr	r4, .L49
 600 0004 2068     		ldr	r0, [r4]
 601 0006 1C30     		adds	r0, r0, #28
 602 0008 FFF7FEFF 		bl	style_init_reset
 603              	.LVL128:
 619:lvgl\src\lv_themes/lv_theme_material.c ****     lv_style_set_pad_inner(&styles->cb_bg, LV_STATE_DEFAULT, LV_DPX(10));
 604              		.loc 1 619 0
 605 000c 2468     		ldr	r4, [r4]
 606 000e 1C34     		adds	r4, r4, #28
 607 0010 0020     		movs	r0, #0
 608 0012 FFF7FEFF 		bl	lv_disp_get_dpi
 609              	.LVL129:
 610 0016 1430     		adds	r0, r0, #20
 611 0018 8000     		lsls	r0, r0, #2
 612 001a B0F5A07F 		cmp	r0, #320
 613 001e 0CDB     		blt	.L38
 619:lvgl\src\lv_themes/lv_theme_material.c ****     lv_style_set_pad_inner(&styles->cb_bg, LV_STATE_DEFAULT, LV_DPX(10));
 614              		.loc 1 619 0 is_stmt 0 discriminator 1
 615 0020 0020     		movs	r0, #0
 616 0022 FFF7FEFF 		bl	lv_disp_get_dpi
 617              	.LVL130:
 618 0026 1430     		adds	r0, r0, #20
 619 0028 8000     		lsls	r0, r0, #2
 620 002a B04A     		ldr	r2, .L49+4
 621 002c 82FB0032 		smull	r3, r2, r2, r0
 622 0030 C017     		asrs	r0, r0, #31
 623 0032 C0EBA212 		rsb	r2, r0, r2, asr #6
 624 0036 12B2     		sxth	r2, r2
 625 0038 00E0     		b	.L29
 626              	.L38:
 619:lvgl\src\lv_themes/lv_theme_material.c ****     lv_style_set_pad_inner(&styles->cb_bg, LV_STATE_DEFAULT, LV_DPX(10));
 627              		.loc 1 619 0
 628 003a 0122     		movs	r2, #1
 629              	.L29:
 630              	.LVL131:
 631              	.LBB856:
 632              	.LBB857:
 633              		.file 2 "lvgl\\src\\lv_themes\\../../src/lv_core/lv_obj_style_dec.h"
   1:lvgl\src\lv_themes\../../src/lv_core/lv_obj_style_dec.h **** 
   2:lvgl\src\lv_themes\../../src/lv_core/lv_obj_style_dec.h **** /**
   3:lvgl\src\lv_themes\../../src/lv_core/lv_obj_style_dec.h ****  * @file lv_obj_style_dec.h
   4:lvgl\src\lv_themes\../../src/lv_core/lv_obj_style_dec.h ****  *
   5:lvgl\src\lv_themes\../../src/lv_core/lv_obj_style_dec.h ****  */
   6:lvgl\src\lv_themes\../../src/lv_core/lv_obj_style_dec.h **** 
   7:lvgl\src\lv_themes\../../src/lv_core/lv_obj_style_dec.h **** #ifndef LV_OBJ_STYLE_DEC_H
   8:lvgl\src\lv_themes\../../src/lv_core/lv_obj_style_dec.h **** #define LV_OBJ_STYLE_DEC_H
   9:lvgl\src\lv_themes\../../src/lv_core/lv_obj_style_dec.h **** 
  10:lvgl\src\lv_themes\../../src/lv_core/lv_obj_style_dec.h **** #ifdef __cplusplus
  11:lvgl\src\lv_themes\../../src/lv_core/lv_obj_style_dec.h **** extern "C" {
  12:lvgl\src\lv_themes\../../src/lv_core/lv_obj_style_dec.h **** #endif
  13:lvgl\src\lv_themes\../../src/lv_core/lv_obj_style_dec.h **** 
  14:lvgl\src\lv_themes\../../src/lv_core/lv_obj_style_dec.h **** /*********************
ARM GAS  C:\Users\strap\AppData\Local\Temp\ccCyLI52.s 			page 37


  15:lvgl\src\lv_themes\../../src/lv_core/lv_obj_style_dec.h ****  *      DEFINES
  16:lvgl\src\lv_themes\../../src/lv_core/lv_obj_style_dec.h ****  *********************/
  17:lvgl\src\lv_themes\../../src/lv_core/lv_obj_style_dec.h **** 
  18:lvgl\src\lv_themes\../../src/lv_core/lv_obj_style_dec.h **** /**
  19:lvgl\src\lv_themes\../../src/lv_core/lv_obj_style_dec.h ****  * Macro to declare the most important style set/get API functions.
  20:lvgl\src\lv_themes\../../src/lv_core/lv_obj_style_dec.h ****  *
  21:lvgl\src\lv_themes\../../src/lv_core/lv_obj_style_dec.h ****  * Get the value of a style property from an object in the object's current state
  22:lvgl\src\lv_themes\../../src/lv_core/lv_obj_style_dec.h ****  * -----------------------------------------------------------------------------
  23:lvgl\src\lv_themes\../../src/lv_core/lv_obj_style_dec.h ****  *  - Get the value of a style property from an object in the object's current state.
  24:lvgl\src\lv_themes\../../src/lv_core/lv_obj_style_dec.h ****  *  - Transition animation is taken into account.
  25:lvgl\src\lv_themes\../../src/lv_core/lv_obj_style_dec.h ****  *  - If the property is not set in the object's styles check the parent(s) if the property can be 
  26:lvgl\src\lv_themes\../../src/lv_core/lv_obj_style_dec.h ****  *  - If still not found return a default value.
  27:lvgl\src\lv_themes\../../src/lv_core/lv_obj_style_dec.h ****  *  - For example:
  28:lvgl\src\lv_themes\../../src/lv_core/lv_obj_style_dec.h ****  *      `lv_style_int_t w = lv_obj_get_style_border_width(btn1, LV_BTN_PART_MAIN);`
  29:lvgl\src\lv_themes\../../src/lv_core/lv_obj_style_dec.h ****  *
  30:lvgl\src\lv_themes\../../src/lv_core/lv_obj_style_dec.h ****  * Set a local style property for an object in a given state
  31:lvgl\src\lv_themes\../../src/lv_core/lv_obj_style_dec.h ****  * ---------------------------------------------------------
  32:lvgl\src\lv_themes\../../src/lv_core/lv_obj_style_dec.h ****  *  - For example:
  33:lvgl\src\lv_themes\../../src/lv_core/lv_obj_style_dec.h ****  *      `lv_obj_set_style_local_border_width(btn1, LV_BTN_PART_MAIN, LV_STATE_PRESSED, 2);`
  34:lvgl\src\lv_themes\../../src/lv_core/lv_obj_style_dec.h ****  *
  35:lvgl\src\lv_themes\../../src/lv_core/lv_obj_style_dec.h ****  * Get a local style property's value of an object in a given state
  36:lvgl\src\lv_themes\../../src/lv_core/lv_obj_style_dec.h ****  * ----------------------------------------------------------------
  37:lvgl\src\lv_themes\../../src/lv_core/lv_obj_style_dec.h ****  *  - Return the best matching property in the given state.
  38:lvgl\src\lv_themes\../../src/lv_core/lv_obj_style_dec.h ****  *  - E.g. if `state` parameter is LV_STATE_PRESSED | LV_STATE_CHECKED` but the property defined on
  39:lvgl\src\lv_themes\../../src/lv_core/lv_obj_style_dec.h ****  *    `LV_STATE_PRESSED` and `LV_STATE_DEFAULT` the best matching state is `LV_STATE_PRESSED`
  40:lvgl\src\lv_themes\../../src/lv_core/lv_obj_style_dec.h ****  *    (because it has higher precedence) and it will be returned.
  41:lvgl\src\lv_themes\../../src/lv_core/lv_obj_style_dec.h ****  *  - If the property is not found even in `LV_STATE_DEFAULT` `-1` is returned.
  42:lvgl\src\lv_themes\../../src/lv_core/lv_obj_style_dec.h ****  *  - For example:
  43:lvgl\src\lv_themes\../../src/lv_core/lv_obj_style_dec.h ****  *      `//Type of result should be lv_style_int_t/lv_opa_t/lv_color_t/const void * according to th
  44:lvgl\src\lv_themes\../../src/lv_core/lv_obj_style_dec.h ****  *      `lv_style_int_t result;`
  45:lvgl\src\lv_themes\../../src/lv_core/lv_obj_style_dec.h ****  *      `lv_obj_get_style_local_border_width(btn1, LV_BTN_PART_MAIN, LV_STATE_PRESSED, &result);`
  46:lvgl\src\lv_themes\../../src/lv_core/lv_obj_style_dec.h ****  *      `if(weight > 0) ...the property is found and loaded into result...`
  47:lvgl\src\lv_themes\../../src/lv_core/lv_obj_style_dec.h ****  *
  48:lvgl\src\lv_themes\../../src/lv_core/lv_obj_style_dec.h ****  * Get the value from a style in a given state
  49:lvgl\src\lv_themes\../../src/lv_core/lv_obj_style_dec.h ****  * -------------------------------------------
  50:lvgl\src\lv_themes\../../src/lv_core/lv_obj_style_dec.h ****  * - The same rules applies to the return value then for "lv_obj_get_style_local_...()" above
  51:lvgl\src\lv_themes\../../src/lv_core/lv_obj_style_dec.h ****  * - For example
  52:lvgl\src\lv_themes\../../src/lv_core/lv_obj_style_dec.h ****  *      `int16_t weight = lv_style_get_border_width(&style1, LV_STATE_PRESSED, &result);`
  53:lvgl\src\lv_themes\../../src/lv_core/lv_obj_style_dec.h ****  *      `if(weight > 0) ...the property is found and loaded into result...`
  54:lvgl\src\lv_themes\../../src/lv_core/lv_obj_style_dec.h **** 
  55:lvgl\src\lv_themes\../../src/lv_core/lv_obj_style_dec.h ****  * Set a value in a style in a given state
  56:lvgl\src\lv_themes\../../src/lv_core/lv_obj_style_dec.h ****  * ---------------------------------------
  57:lvgl\src\lv_themes\../../src/lv_core/lv_obj_style_dec.h ****  * - For example
  58:lvgl\src\lv_themes\../../src/lv_core/lv_obj_style_dec.h ****  *      `lv_style_set_border_width(&style1, LV_STATE_PRESSED, 2);`
  59:lvgl\src\lv_themes\../../src/lv_core/lv_obj_style_dec.h ****  */
  60:lvgl\src\lv_themes\../../src/lv_core/lv_obj_style_dec.h **** 
  61:lvgl\src\lv_themes\../../src/lv_core/lv_obj_style_dec.h **** #define _OBJ_GET_STYLE_scalar(prop_name, func_name, value_type, style_type)                        
  62:lvgl\src\lv_themes\../../src/lv_core/lv_obj_style_dec.h ****     static inline value_type lv_obj_get_style_##func_name (const lv_obj_t * obj, uint8_t part)     
  63:lvgl\src\lv_themes\../../src/lv_core/lv_obj_style_dec.h ****     {                                                                                              
  64:lvgl\src\lv_themes\../../src/lv_core/lv_obj_style_dec.h ****         return (value_type) _lv_obj_get_style##style_type (obj, part, LV_STYLE_##prop_name);       
  65:lvgl\src\lv_themes\../../src/lv_core/lv_obj_style_dec.h ****     }
  66:lvgl\src\lv_themes\../../src/lv_core/lv_obj_style_dec.h **** 
  67:lvgl\src\lv_themes\../../src/lv_core/lv_obj_style_dec.h **** #define _OBJ_GET_STYLE_nonscalar(prop_name, func_name, value_type, style_type)                     
  68:lvgl\src\lv_themes\../../src/lv_core/lv_obj_style_dec.h ****     static inline value_type lv_obj_get_style_##func_name (const lv_obj_t * obj, uint8_t part)     
  69:lvgl\src\lv_themes\../../src/lv_core/lv_obj_style_dec.h ****     {                                                                                              
  70:lvgl\src\lv_themes\../../src/lv_core/lv_obj_style_dec.h ****         return _lv_obj_get_style##style_type (obj, part, LV_STYLE_##prop_name);                    
  71:lvgl\src\lv_themes\../../src/lv_core/lv_obj_style_dec.h ****     }
ARM GAS  C:\Users\strap\AppData\Local\Temp\ccCyLI52.s 			page 38


  72:lvgl\src\lv_themes\../../src/lv_core/lv_obj_style_dec.h **** 
  73:lvgl\src\lv_themes\../../src/lv_core/lv_obj_style_dec.h **** #define _OBJ_SET_STYLE_LOCAL_scalar(prop_name, func_name, value_type, style_type)                  
  74:lvgl\src\lv_themes\../../src/lv_core/lv_obj_style_dec.h ****     static inline void lv_obj_set_style_local_##func_name (lv_obj_t * obj, uint8_t part, lv_state_t
  75:lvgl\src\lv_themes\../../src/lv_core/lv_obj_style_dec.h ****     {                                                                                              
  76:lvgl\src\lv_themes\../../src/lv_core/lv_obj_style_dec.h ****         _lv_obj_set_style_local##style_type (obj, part, LV_STYLE_##prop_name | (state << LV_STYLE_S
  77:lvgl\src\lv_themes\../../src/lv_core/lv_obj_style_dec.h ****     }
  78:lvgl\src\lv_themes\../../src/lv_core/lv_obj_style_dec.h **** 
  79:lvgl\src\lv_themes\../../src/lv_core/lv_obj_style_dec.h **** #define _OBJ_SET_STYLE_LOCAL_nonscalar(prop_name, func_name, value_type, style_type)               
  80:lvgl\src\lv_themes\../../src/lv_core/lv_obj_style_dec.h ****     static inline void lv_obj_set_style_local_##func_name (lv_obj_t * obj, uint8_t part, lv_state_t
  81:lvgl\src\lv_themes\../../src/lv_core/lv_obj_style_dec.h ****     {                                                                                              
  82:lvgl\src\lv_themes\../../src/lv_core/lv_obj_style_dec.h ****         _lv_obj_set_style_local##style_type (obj, part, LV_STYLE_##prop_name | (state << LV_STYLE_S
  83:lvgl\src\lv_themes\../../src/lv_core/lv_obj_style_dec.h ****     }
  84:lvgl\src\lv_themes\../../src/lv_core/lv_obj_style_dec.h **** 
  85:lvgl\src\lv_themes\../../src/lv_core/lv_obj_style_dec.h **** #define _OBJ_SET_STYLE_scalar(prop_name, func_name, value_type, style_type)                        
  86:lvgl\src\lv_themes\../../src/lv_core/lv_obj_style_dec.h ****     static inline void lv_style_set_##func_name (lv_style_t * style, lv_state_t state, value_type v
  87:lvgl\src\lv_themes\../../src/lv_core/lv_obj_style_dec.h ****     {                                                                                              
  88:lvgl\src\lv_themes\../../src/lv_core/lv_obj_style_dec.h ****         _lv_style_set##style_type (style, LV_STYLE_##prop_name | (state << LV_STYLE_STATE_POS), val
  89:lvgl\src\lv_themes\../../src/lv_core/lv_obj_style_dec.h ****     }
  90:lvgl\src\lv_themes\../../src/lv_core/lv_obj_style_dec.h **** 
  91:lvgl\src\lv_themes\../../src/lv_core/lv_obj_style_dec.h **** #define _OBJ_SET_STYLE_nonscalar(prop_name, func_name, value_type, style_type)                     
  92:lvgl\src\lv_themes\../../src/lv_core/lv_obj_style_dec.h ****     static inline void lv_style_set_##func_name (lv_style_t * style, lv_state_t state, value_type v
  93:lvgl\src\lv_themes\../../src/lv_core/lv_obj_style_dec.h ****     {                                                                                              
  94:lvgl\src\lv_themes\../../src/lv_core/lv_obj_style_dec.h ****         _lv_style_set##style_type (style, LV_STYLE_##prop_name | (state << LV_STYLE_STATE_POS), val
  95:lvgl\src\lv_themes\../../src/lv_core/lv_obj_style_dec.h ****     }
  96:lvgl\src\lv_themes\../../src/lv_core/lv_obj_style_dec.h **** 
  97:lvgl\src\lv_themes\../../src/lv_core/lv_obj_style_dec.h **** #define _LV_OBJ_STYLE_SET_GET_DECLARE(prop_name, func_name, value_type, style_type, scalar)        
  98:lvgl\src\lv_themes\../../src/lv_core/lv_obj_style_dec.h ****     _OBJ_GET_STYLE_##scalar(prop_name, func_name, value_type, style_type)                          
  99:lvgl\src\lv_themes\../../src/lv_core/lv_obj_style_dec.h ****     _OBJ_SET_STYLE_LOCAL_##scalar(prop_name, func_name, value_type, style_type)                    
 100:lvgl\src\lv_themes\../../src/lv_core/lv_obj_style_dec.h ****     _OBJ_SET_STYLE_##scalar(prop_name, func_name, value_type, style_type)
 101:lvgl\src\lv_themes\../../src/lv_core/lv_obj_style_dec.h **** 
 102:lvgl\src\lv_themes\../../src/lv_core/lv_obj_style_dec.h **** _LV_OBJ_STYLE_SET_GET_DECLARE(RADIUS, radius, lv_style_int_t, _int, scalar)
 634              		.loc 2 102 0 is_stmt 1 discriminator 4
 635 003c 0121     		movs	r1, #1
 636 003e 2046     		mov	r0, r4
 637 0040 FFF7FEFF 		bl	_lv_style_set_int
 638              	.LVL132:
 639              	.LBE857:
 640              	.LBE856:
 620:lvgl\src\lv_themes/lv_theme_material.c ****     lv_style_set_outline_color(&styles->cb_bg, LV_STATE_DEFAULT, theme.color_primary);
 641              		.loc 1 620 0 discriminator 4
 642 0044 A84B     		ldr	r3, .L49
 643 0046 1C68     		ldr	r4, [r3]
 644 0048 1C34     		adds	r4, r4, #28
 645 004a 0020     		movs	r0, #0
 646 004c FFF7FEFF 		bl	lv_disp_get_dpi
 647              	.LVL133:
 648 0050 00EB8000 		add	r0, r0, r0, lsl #2
 649 0054 4300     		lsls	r3, r0, #1
 650 0056 5033     		adds	r3, r3, #80
 651 0058 B3F5A07F 		cmp	r3, #320
 652 005c 0EDB     		blt	.L39
 620:lvgl\src\lv_themes/lv_theme_material.c ****     lv_style_set_outline_color(&styles->cb_bg, LV_STATE_DEFAULT, theme.color_primary);
 653              		.loc 1 620 0 is_stmt 0 discriminator 1
 654 005e 0020     		movs	r0, #0
 655 0060 FFF7FEFF 		bl	lv_disp_get_dpi
 656              	.LVL134:
 657 0064 00EB8000 		add	r0, r0, r0, lsl #2
ARM GAS  C:\Users\strap\AppData\Local\Temp\ccCyLI52.s 			page 39


 658 0068 4300     		lsls	r3, r0, #1
 659 006a 5033     		adds	r3, r3, #80
 660 006c 9F4A     		ldr	r2, .L49+4
 661 006e 82FB0312 		smull	r1, r2, r2, r3
 662 0072 DB17     		asrs	r3, r3, #31
 663 0074 C3EBA212 		rsb	r2, r3, r2, asr #6
 664 0078 12B2     		sxth	r2, r2
 665 007a 00E0     		b	.L30
 666              	.L39:
 620:lvgl\src\lv_themes/lv_theme_material.c ****     lv_style_set_outline_color(&styles->cb_bg, LV_STATE_DEFAULT, theme.color_primary);
 667              		.loc 1 620 0
 668 007c 0122     		movs	r2, #1
 669              	.L30:
 670              	.LVL135:
 671              	.LBB858:
 672              	.LBB859:
 103:lvgl\src\lv_themes\../../src/lv_core/lv_obj_style_dec.h **** _LV_OBJ_STYLE_SET_GET_DECLARE(CLIP_CORNER, clip_corner, bool, _int, scalar)
 104:lvgl\src\lv_themes\../../src/lv_core/lv_obj_style_dec.h **** _LV_OBJ_STYLE_SET_GET_DECLARE(SIZE, size, lv_style_int_t, _int, scalar)
 105:lvgl\src\lv_themes\../../src/lv_core/lv_obj_style_dec.h **** _LV_OBJ_STYLE_SET_GET_DECLARE(TRANSFORM_WIDTH, transform_width, lv_style_int_t, _int, scalar)
 106:lvgl\src\lv_themes\../../src/lv_core/lv_obj_style_dec.h **** _LV_OBJ_STYLE_SET_GET_DECLARE(TRANSFORM_HEIGHT, transform_height, lv_style_int_t, _int, scalar)
 107:lvgl\src\lv_themes\../../src/lv_core/lv_obj_style_dec.h **** _LV_OBJ_STYLE_SET_GET_DECLARE(TRANSFORM_ANGLE, transform_angle, lv_style_int_t, _int, scalar)
 108:lvgl\src\lv_themes\../../src/lv_core/lv_obj_style_dec.h **** _LV_OBJ_STYLE_SET_GET_DECLARE(TRANSFORM_ZOOM, transform_zoom, lv_style_int_t, _int, scalar)
 109:lvgl\src\lv_themes\../../src/lv_core/lv_obj_style_dec.h **** _LV_OBJ_STYLE_SET_GET_DECLARE(OPA_SCALE, opa_scale, lv_opa_t, _opa, scalar)
 110:lvgl\src\lv_themes\../../src/lv_core/lv_obj_style_dec.h **** _LV_OBJ_STYLE_SET_GET_DECLARE(PAD_TOP, pad_top, lv_style_int_t, _int, scalar)
 111:lvgl\src\lv_themes\../../src/lv_core/lv_obj_style_dec.h **** _LV_OBJ_STYLE_SET_GET_DECLARE(PAD_BOTTOM, pad_bottom, lv_style_int_t, _int, scalar)
 112:lvgl\src\lv_themes\../../src/lv_core/lv_obj_style_dec.h **** _LV_OBJ_STYLE_SET_GET_DECLARE(PAD_LEFT, pad_left, lv_style_int_t, _int, scalar)
 113:lvgl\src\lv_themes\../../src/lv_core/lv_obj_style_dec.h **** _LV_OBJ_STYLE_SET_GET_DECLARE(PAD_RIGHT, pad_right, lv_style_int_t, _int, scalar)
 114:lvgl\src\lv_themes\../../src/lv_core/lv_obj_style_dec.h **** _LV_OBJ_STYLE_SET_GET_DECLARE(PAD_INNER, pad_inner, lv_style_int_t, _int, scalar)
 673              		.loc 2 114 0 is_stmt 1 discriminator 4
 674 007e 1421     		movs	r1, #20
 675 0080 2046     		mov	r0, r4
 676 0082 FFF7FEFF 		bl	_lv_style_set_int
 677              	.LVL136:
 678              	.LBE859:
 679              	.LBE858:
 621:lvgl\src\lv_themes/lv_theme_material.c ****     lv_style_set_outline_opa(&styles->cb_bg, LV_STATE_DEFAULT, LV_OPA_TRANSP);
 680              		.loc 1 621 0 discriminator 4
 681 0086 984C     		ldr	r4, .L49
 682 0088 2068     		ldr	r0, [r4]
 683              	.LVL137:
 684              	.LBB860:
 685              	.LBB861:
 115:lvgl\src\lv_themes\../../src/lv_core/lv_obj_style_dec.h **** _LV_OBJ_STYLE_SET_GET_DECLARE(MARGIN_TOP, margin_top, lv_style_int_t, _int, scalar)
 116:lvgl\src\lv_themes\../../src/lv_core/lv_obj_style_dec.h **** _LV_OBJ_STYLE_SET_GET_DECLARE(MARGIN_BOTTOM, margin_bottom, lv_style_int_t, _int, scalar)
 117:lvgl\src\lv_themes\../../src/lv_core/lv_obj_style_dec.h **** _LV_OBJ_STYLE_SET_GET_DECLARE(MARGIN_LEFT, margin_left, lv_style_int_t, _int, scalar)
 118:lvgl\src\lv_themes\../../src/lv_core/lv_obj_style_dec.h **** _LV_OBJ_STYLE_SET_GET_DECLARE(MARGIN_RIGHT, margin_right, lv_style_int_t, _int, scalar)
 119:lvgl\src\lv_themes\../../src/lv_core/lv_obj_style_dec.h **** _LV_OBJ_STYLE_SET_GET_DECLARE(BG_BLEND_MODE, bg_blend_mode, lv_blend_mode_t, _int, scalar)
 120:lvgl\src\lv_themes\../../src/lv_core/lv_obj_style_dec.h **** _LV_OBJ_STYLE_SET_GET_DECLARE(BG_MAIN_STOP, bg_main_stop, lv_style_int_t, _int, scalar)
 121:lvgl\src\lv_themes\../../src/lv_core/lv_obj_style_dec.h **** _LV_OBJ_STYLE_SET_GET_DECLARE(BG_GRAD_STOP, bg_grad_stop, lv_style_int_t, _int, scalar)
 122:lvgl\src\lv_themes\../../src/lv_core/lv_obj_style_dec.h **** _LV_OBJ_STYLE_SET_GET_DECLARE(BG_GRAD_DIR, bg_grad_dir, lv_grad_dir_t, _int, scalar)
 123:lvgl\src\lv_themes\../../src/lv_core/lv_obj_style_dec.h **** _LV_OBJ_STYLE_SET_GET_DECLARE(BG_COLOR, bg_color, lv_color_t, _color, nonscalar)
 124:lvgl\src\lv_themes\../../src/lv_core/lv_obj_style_dec.h **** _LV_OBJ_STYLE_SET_GET_DECLARE(BG_GRAD_COLOR, bg_grad_color, lv_color_t, _color, nonscalar)
 125:lvgl\src\lv_themes\../../src/lv_core/lv_obj_style_dec.h **** _LV_OBJ_STYLE_SET_GET_DECLARE(BG_OPA, bg_opa, lv_opa_t, _opa, scalar)
 126:lvgl\src\lv_themes\../../src/lv_core/lv_obj_style_dec.h **** _LV_OBJ_STYLE_SET_GET_DECLARE(BORDER_WIDTH, border_width, lv_style_int_t, _int, scalar)
 127:lvgl\src\lv_themes\../../src/lv_core/lv_obj_style_dec.h **** _LV_OBJ_STYLE_SET_GET_DECLARE(BORDER_SIDE, border_side, lv_border_side_t, _int, scalar)
 128:lvgl\src\lv_themes\../../src/lv_core/lv_obj_style_dec.h **** _LV_OBJ_STYLE_SET_GET_DECLARE(BORDER_BLEND_MODE, border_blend_mode, lv_blend_mode_t, _int, scalar)
 129:lvgl\src\lv_themes\../../src/lv_core/lv_obj_style_dec.h **** _LV_OBJ_STYLE_SET_GET_DECLARE(BORDER_POST, border_post, bool, _int, scalar)
ARM GAS  C:\Users\strap\AppData\Local\Temp\ccCyLI52.s 			page 40


 130:lvgl\src\lv_themes\../../src/lv_core/lv_obj_style_dec.h **** _LV_OBJ_STYLE_SET_GET_DECLARE(BORDER_COLOR, border_color, lv_color_t, _color, nonscalar)
 131:lvgl\src\lv_themes\../../src/lv_core/lv_obj_style_dec.h **** _LV_OBJ_STYLE_SET_GET_DECLARE(BORDER_OPA, border_opa, lv_opa_t, _opa, scalar)
 132:lvgl\src\lv_themes\../../src/lv_core/lv_obj_style_dec.h **** _LV_OBJ_STYLE_SET_GET_DECLARE(OUTLINE_WIDTH, outline_width, lv_style_int_t, _int, scalar)
 133:lvgl\src\lv_themes\../../src/lv_core/lv_obj_style_dec.h **** _LV_OBJ_STYLE_SET_GET_DECLARE(OUTLINE_PAD, outline_pad, lv_style_int_t, _int, scalar)
 134:lvgl\src\lv_themes\../../src/lv_core/lv_obj_style_dec.h **** _LV_OBJ_STYLE_SET_GET_DECLARE(OUTLINE_BLEND_MODE, outline_blend_mode, lv_blend_mode_t, _int, scalar
 135:lvgl\src\lv_themes\../../src/lv_core/lv_obj_style_dec.h **** _LV_OBJ_STYLE_SET_GET_DECLARE(OUTLINE_COLOR, outline_color, lv_color_t, _color, nonscalar)
 686              		.loc 2 135 0 discriminator 4
 687 008a A28A     		ldrh	r2, [r4, #20]
 688 008c 4921     		movs	r1, #73
 689 008e 1C30     		adds	r0, r0, #28
 690              	.LVL138:
 691 0090 FFF7FEFF 		bl	_lv_style_set_color
 692              	.LVL139:
 693              	.LBE861:
 694              	.LBE860:
 622:lvgl\src\lv_themes/lv_theme_material.c ****     lv_style_set_outline_opa(&styles->cb_bg, LV_STATE_FOCUSED, LV_OPA_50);
 695              		.loc 1 622 0 discriminator 4
 696 0094 2068     		ldr	r0, [r4]
 697              	.LVL140:
 698              	.LBB862:
 699              	.LBB863:
 136:lvgl\src\lv_themes\../../src/lv_core/lv_obj_style_dec.h **** _LV_OBJ_STYLE_SET_GET_DECLARE(OUTLINE_OPA, outline_opa, lv_opa_t, _opa, scalar)
 700              		.loc 2 136 0 discriminator 4
 701 0096 0022     		movs	r2, #0
 702 0098 4C21     		movs	r1, #76
 703 009a 1C30     		adds	r0, r0, #28
 704              	.LVL141:
 705 009c FFF7FEFF 		bl	_lv_style_set_opa
 706              	.LVL142:
 707              	.LBE863:
 708              	.LBE862:
 623:lvgl\src\lv_themes/lv_theme_material.c ****     lv_style_set_outline_width(&styles->cb_bg, LV_STATE_DEFAULT, OUTLINE_WIDTH);
 709              		.loc 1 623 0 discriminator 4
 710 00a0 2068     		ldr	r0, [r4]
 711              	.LVL143:
 712              	.LBB864:
 713              	.LBB865:
 714              		.loc 2 136 0 discriminator 4
 715 00a2 7F22     		movs	r2, #127
 716 00a4 4FF41371 		mov	r1, #588
 717 00a8 1C30     		adds	r0, r0, #28
 718              	.LVL144:
 719 00aa FFF7FEFF 		bl	_lv_style_set_opa
 720              	.LVL145:
 721              	.LBE865:
 722              	.LBE864:
 624:lvgl\src\lv_themes/lv_theme_material.c ****     lv_style_set_outline_pad(&styles->cb_bg, LV_STATE_DEFAULT, LV_DPX(10));
 723              		.loc 1 624 0 discriminator 4
 724 00ae 2568     		ldr	r5, [r4]
 725 00b0 1C35     		adds	r5, r5, #28
 726 00b2 A36A     		ldr	r3, [r4, #40]
 727 00b4 13F0200F 		tst	r3, #32
 728 00b8 14D1     		bne	.L40
 624:lvgl\src\lv_themes/lv_theme_material.c ****     lv_style_set_outline_pad(&styles->cb_bg, LV_STATE_DEFAULT, LV_DPX(10));
 729              		.loc 1 624 0 is_stmt 0 discriminator 1
 730 00ba 0020     		movs	r0, #0
 731 00bc FFF7FEFF 		bl	lv_disp_get_dpi
ARM GAS  C:\Users\strap\AppData\Local\Temp\ccCyLI52.s 			page 41


 732              	.LVL146:
 733 00c0 2830     		adds	r0, r0, #40
 734 00c2 4000     		lsls	r0, r0, #1
 735 00c4 B0F5A07F 		cmp	r0, #320
 736 00c8 0EDB     		blt	.L41
 624:lvgl\src\lv_themes/lv_theme_material.c ****     lv_style_set_outline_pad(&styles->cb_bg, LV_STATE_DEFAULT, LV_DPX(10));
 737              		.loc 1 624 0 discriminator 3
 738 00ca 0020     		movs	r0, #0
 739 00cc FFF7FEFF 		bl	lv_disp_get_dpi
 740              	.LVL147:
 741 00d0 2830     		adds	r0, r0, #40
 742 00d2 4000     		lsls	r0, r0, #1
 743 00d4 854A     		ldr	r2, .L49+4
 744 00d6 82FB0032 		smull	r3, r2, r2, r0
 745 00da C017     		asrs	r0, r0, #31
 746 00dc C0EBA212 		rsb	r2, r0, r2, asr #6
 747 00e0 12B2     		sxth	r2, r2
 748 00e2 02E0     		b	.L31
 749              	.L40:
 624:lvgl\src\lv_themes/lv_theme_material.c ****     lv_style_set_outline_pad(&styles->cb_bg, LV_STATE_DEFAULT, LV_DPX(10));
 750              		.loc 1 624 0
 751 00e4 0022     		movs	r2, #0
 752 00e6 00E0     		b	.L31
 753              	.L41:
 754 00e8 0122     		movs	r2, #1
 755              	.L31:
 756              	.LVL148:
 757              	.LBB866:
 758              	.LBB867:
 132:lvgl\src\lv_themes\../../src/lv_core/lv_obj_style_dec.h **** _LV_OBJ_STYLE_SET_GET_DECLARE(OUTLINE_PAD, outline_pad, lv_style_int_t, _int, scalar)
 759              		.loc 2 132 0 is_stmt 1 discriminator 8
 760 00ea 4021     		movs	r1, #64
 761 00ec 2846     		mov	r0, r5
 762 00ee FFF7FEFF 		bl	_lv_style_set_int
 763              	.LVL149:
 764              	.LBE867:
 765              	.LBE866:
 625:lvgl\src\lv_themes/lv_theme_material.c ****     lv_style_set_transition_time(&styles->cb_bg, LV_STATE_DEFAULT, TRANSITION_TIME);
 766              		.loc 1 625 0 discriminator 8
 767 00f2 7D4B     		ldr	r3, .L49
 768 00f4 1C68     		ldr	r4, [r3]
 769 00f6 1C34     		adds	r4, r4, #28
 770 00f8 0020     		movs	r0, #0
 771 00fa FFF7FEFF 		bl	lv_disp_get_dpi
 772              	.LVL150:
 773 00fe 00EB8000 		add	r0, r0, r0, lsl #2
 774 0102 4300     		lsls	r3, r0, #1
 775 0104 5033     		adds	r3, r3, #80
 776 0106 B3F5A07F 		cmp	r3, #320
 777 010a 0EDB     		blt	.L42
 625:lvgl\src\lv_themes/lv_theme_material.c ****     lv_style_set_transition_time(&styles->cb_bg, LV_STATE_DEFAULT, TRANSITION_TIME);
 778              		.loc 1 625 0 is_stmt 0 discriminator 1
 779 010c 0020     		movs	r0, #0
 780 010e FFF7FEFF 		bl	lv_disp_get_dpi
 781              	.LVL151:
 782 0112 00EB8000 		add	r0, r0, r0, lsl #2
 783 0116 4300     		lsls	r3, r0, #1
ARM GAS  C:\Users\strap\AppData\Local\Temp\ccCyLI52.s 			page 42


 784 0118 5033     		adds	r3, r3, #80
 785 011a 744A     		ldr	r2, .L49+4
 786 011c 82FB0312 		smull	r1, r2, r2, r3
 787 0120 DB17     		asrs	r3, r3, #31
 788 0122 C3EBA212 		rsb	r2, r3, r2, asr #6
 789 0126 12B2     		sxth	r2, r2
 790 0128 00E0     		b	.L32
 791              	.L42:
 625:lvgl\src\lv_themes/lv_theme_material.c ****     lv_style_set_transition_time(&styles->cb_bg, LV_STATE_DEFAULT, TRANSITION_TIME);
 792              		.loc 1 625 0
 793 012a 0122     		movs	r2, #1
 794              	.L32:
 795              	.LVL152:
 796              	.LBB868:
 797              	.LBB869:
 133:lvgl\src\lv_themes\../../src/lv_core/lv_obj_style_dec.h **** _LV_OBJ_STYLE_SET_GET_DECLARE(OUTLINE_BLEND_MODE, outline_blend_mode, lv_blend_mode_t, _int, scalar
 798              		.loc 2 133 0 is_stmt 1 discriminator 4
 799 012c 4121     		movs	r1, #65
 800 012e 2046     		mov	r0, r4
 801 0130 FFF7FEFF 		bl	_lv_style_set_int
 802              	.LVL153:
 803              	.LBE869:
 804              	.LBE868:
 626:lvgl\src\lv_themes/lv_theme_material.c ****     lv_style_set_transition_prop_6(&styles->cb_bg, LV_STATE_DEFAULT, LV_STYLE_OUTLINE_OPA);
 805              		.loc 1 626 0 discriminator 4
 806 0134 6C4C     		ldr	r4, .L49
 807 0136 2068     		ldr	r0, [r4]
 808              	.LVL154:
 809              	.LBB870:
 810              	.LBB871:
 137:lvgl\src\lv_themes\../../src/lv_core/lv_obj_style_dec.h **** _LV_OBJ_STYLE_SET_GET_DECLARE(SHADOW_WIDTH, shadow_width, lv_style_int_t, _int, scalar)
 138:lvgl\src\lv_themes\../../src/lv_core/lv_obj_style_dec.h **** _LV_OBJ_STYLE_SET_GET_DECLARE(SHADOW_OFS_X, shadow_ofs_x, lv_style_int_t, _int, scalar)
 139:lvgl\src\lv_themes\../../src/lv_core/lv_obj_style_dec.h **** _LV_OBJ_STYLE_SET_GET_DECLARE(SHADOW_OFS_Y, shadow_ofs_y, lv_style_int_t, _int, scalar)
 140:lvgl\src\lv_themes\../../src/lv_core/lv_obj_style_dec.h **** _LV_OBJ_STYLE_SET_GET_DECLARE(SHADOW_SPREAD, shadow_spread, lv_style_int_t, _int, scalar)
 141:lvgl\src\lv_themes\../../src/lv_core/lv_obj_style_dec.h **** _LV_OBJ_STYLE_SET_GET_DECLARE(SHADOW_BLEND_MODE, shadow_blend_mode, lv_blend_mode_t, _int, scalar)
 142:lvgl\src\lv_themes\../../src/lv_core/lv_obj_style_dec.h **** _LV_OBJ_STYLE_SET_GET_DECLARE(SHADOW_COLOR, shadow_color, lv_color_t, _color, nonscalar)
 143:lvgl\src\lv_themes\../../src/lv_core/lv_obj_style_dec.h **** _LV_OBJ_STYLE_SET_GET_DECLARE(SHADOW_OPA, shadow_opa, lv_opa_t, _opa, scalar)
 144:lvgl\src\lv_themes\../../src/lv_core/lv_obj_style_dec.h **** _LV_OBJ_STYLE_SET_GET_DECLARE(PATTERN_REPEAT, pattern_repeat, bool, _int, scalar)
 145:lvgl\src\lv_themes\../../src/lv_core/lv_obj_style_dec.h **** _LV_OBJ_STYLE_SET_GET_DECLARE(PATTERN_BLEND_MODE, pattern_blend_mode, lv_blend_mode_t, _int, scalar
 146:lvgl\src\lv_themes\../../src/lv_core/lv_obj_style_dec.h **** _LV_OBJ_STYLE_SET_GET_DECLARE(PATTERN_RECOLOR, pattern_recolor, lv_color_t, _color, nonscalar)
 147:lvgl\src\lv_themes\../../src/lv_core/lv_obj_style_dec.h **** _LV_OBJ_STYLE_SET_GET_DECLARE(PATTERN_OPA, pattern_opa, lv_opa_t, _opa, scalar)
 148:lvgl\src\lv_themes\../../src/lv_core/lv_obj_style_dec.h **** _LV_OBJ_STYLE_SET_GET_DECLARE(PATTERN_RECOLOR_OPA, pattern_recolor_opa, lv_opa_t, _opa, scalar)
 149:lvgl\src\lv_themes\../../src/lv_core/lv_obj_style_dec.h **** _LV_OBJ_STYLE_SET_GET_DECLARE(PATTERN_IMAGE, pattern_image, const void *, _ptr, scalar)
 150:lvgl\src\lv_themes\../../src/lv_core/lv_obj_style_dec.h **** _LV_OBJ_STYLE_SET_GET_DECLARE(VALUE_LETTER_SPACE, value_letter_space, lv_style_int_t, _int, scalar)
 151:lvgl\src\lv_themes\../../src/lv_core/lv_obj_style_dec.h **** _LV_OBJ_STYLE_SET_GET_DECLARE(VALUE_LINE_SPACE, value_line_space, lv_style_int_t, _int, scalar)
 152:lvgl\src\lv_themes\../../src/lv_core/lv_obj_style_dec.h **** _LV_OBJ_STYLE_SET_GET_DECLARE(VALUE_BLEND_MODE, value_blend_mode, lv_blend_mode_t, _int, scalar)
 153:lvgl\src\lv_themes\../../src/lv_core/lv_obj_style_dec.h **** _LV_OBJ_STYLE_SET_GET_DECLARE(VALUE_OFS_X, value_ofs_x, lv_style_int_t, _int, scalar)
 154:lvgl\src\lv_themes\../../src/lv_core/lv_obj_style_dec.h **** _LV_OBJ_STYLE_SET_GET_DECLARE(VALUE_OFS_Y, value_ofs_y, lv_style_int_t, _int, scalar)
 155:lvgl\src\lv_themes\../../src/lv_core/lv_obj_style_dec.h **** _LV_OBJ_STYLE_SET_GET_DECLARE(VALUE_ALIGN, value_align, lv_align_t, _int, scalar)
 156:lvgl\src\lv_themes\../../src/lv_core/lv_obj_style_dec.h **** _LV_OBJ_STYLE_SET_GET_DECLARE(VALUE_COLOR, value_color, lv_color_t, _color, nonscalar)
 157:lvgl\src\lv_themes\../../src/lv_core/lv_obj_style_dec.h **** _LV_OBJ_STYLE_SET_GET_DECLARE(VALUE_OPA, value_opa, lv_opa_t, _opa, scalar)
 158:lvgl\src\lv_themes\../../src/lv_core/lv_obj_style_dec.h **** _LV_OBJ_STYLE_SET_GET_DECLARE(VALUE_FONT, value_font, const lv_font_t *, _ptr, scalar)
 159:lvgl\src\lv_themes\../../src/lv_core/lv_obj_style_dec.h **** _LV_OBJ_STYLE_SET_GET_DECLARE(VALUE_STR, value_str, const char *, _ptr, scalar)
 160:lvgl\src\lv_themes\../../src/lv_core/lv_obj_style_dec.h **** _LV_OBJ_STYLE_SET_GET_DECLARE(TEXT_LETTER_SPACE, text_letter_space, lv_style_int_t, _int, scalar)
 161:lvgl\src\lv_themes\../../src/lv_core/lv_obj_style_dec.h **** _LV_OBJ_STYLE_SET_GET_DECLARE(TEXT_LINE_SPACE, text_line_space, lv_style_int_t, _int, scalar)
 162:lvgl\src\lv_themes\../../src/lv_core/lv_obj_style_dec.h **** _LV_OBJ_STYLE_SET_GET_DECLARE(TEXT_DECOR, text_decor, lv_text_decor_t, _int, scalar)
 163:lvgl\src\lv_themes\../../src/lv_core/lv_obj_style_dec.h **** _LV_OBJ_STYLE_SET_GET_DECLARE(TEXT_BLEND_MODE, text_blend_mode, lv_blend_mode_t, _int, scalar)
ARM GAS  C:\Users\strap\AppData\Local\Temp\ccCyLI52.s 			page 43


 164:lvgl\src\lv_themes\../../src/lv_core/lv_obj_style_dec.h **** _LV_OBJ_STYLE_SET_GET_DECLARE(TEXT_COLOR, text_color, lv_color_t, _color, nonscalar)
 165:lvgl\src\lv_themes\../../src/lv_core/lv_obj_style_dec.h **** _LV_OBJ_STYLE_SET_GET_DECLARE(TEXT_SEL_COLOR, text_sel_color, lv_color_t, _color, nonscalar)
 166:lvgl\src\lv_themes\../../src/lv_core/lv_obj_style_dec.h **** _LV_OBJ_STYLE_SET_GET_DECLARE(TEXT_SEL_BG_COLOR, text_sel_bg_color, lv_color_t, _color, nonscalar)
 167:lvgl\src\lv_themes\../../src/lv_core/lv_obj_style_dec.h **** _LV_OBJ_STYLE_SET_GET_DECLARE(TEXT_OPA, text_opa, lv_opa_t, _opa, scalar)
 168:lvgl\src\lv_themes\../../src/lv_core/lv_obj_style_dec.h **** _LV_OBJ_STYLE_SET_GET_DECLARE(TEXT_FONT, text_font, const lv_font_t *, _ptr, scalar)
 169:lvgl\src\lv_themes\../../src/lv_core/lv_obj_style_dec.h **** _LV_OBJ_STYLE_SET_GET_DECLARE(LINE_WIDTH, line_width, lv_style_int_t, _int, scalar)
 170:lvgl\src\lv_themes\../../src/lv_core/lv_obj_style_dec.h **** _LV_OBJ_STYLE_SET_GET_DECLARE(LINE_BLEND_MODE, line_blend_mode, lv_blend_mode_t, _int, scalar)
 171:lvgl\src\lv_themes\../../src/lv_core/lv_obj_style_dec.h **** _LV_OBJ_STYLE_SET_GET_DECLARE(LINE_DASH_WIDTH, line_dash_width, lv_style_int_t, _int, scalar)
 172:lvgl\src\lv_themes\../../src/lv_core/lv_obj_style_dec.h **** _LV_OBJ_STYLE_SET_GET_DECLARE(LINE_DASH_GAP, line_dash_gap, lv_style_int_t, _int, scalar)
 173:lvgl\src\lv_themes\../../src/lv_core/lv_obj_style_dec.h **** _LV_OBJ_STYLE_SET_GET_DECLARE(LINE_ROUNDED, line_rounded, bool, _int, scalar)
 174:lvgl\src\lv_themes\../../src/lv_core/lv_obj_style_dec.h **** _LV_OBJ_STYLE_SET_GET_DECLARE(LINE_COLOR, line_color, lv_color_t, _color, nonscalar)
 175:lvgl\src\lv_themes\../../src/lv_core/lv_obj_style_dec.h **** _LV_OBJ_STYLE_SET_GET_DECLARE(LINE_OPA, line_opa, lv_opa_t, _opa, scalar)
 176:lvgl\src\lv_themes\../../src/lv_core/lv_obj_style_dec.h **** _LV_OBJ_STYLE_SET_GET_DECLARE(IMAGE_BLEND_MODE, image_blend_mode, lv_blend_mode_t, _int, scalar)
 177:lvgl\src\lv_themes\../../src/lv_core/lv_obj_style_dec.h **** _LV_OBJ_STYLE_SET_GET_DECLARE(IMAGE_RECOLOR, image_recolor, lv_color_t, _color, nonscalar)
 178:lvgl\src\lv_themes\../../src/lv_core/lv_obj_style_dec.h **** _LV_OBJ_STYLE_SET_GET_DECLARE(IMAGE_OPA, image_opa, lv_opa_t, _opa, scalar)
 179:lvgl\src\lv_themes\../../src/lv_core/lv_obj_style_dec.h **** _LV_OBJ_STYLE_SET_GET_DECLARE(IMAGE_RECOLOR_OPA, image_recolor_opa, lv_opa_t, _opa, scalar)
 180:lvgl\src\lv_themes\../../src/lv_core/lv_obj_style_dec.h **** _LV_OBJ_STYLE_SET_GET_DECLARE(TRANSITION_TIME, transition_time, lv_style_int_t, _int, scalar)
 811              		.loc 2 180 0 discriminator 4
 812 0138 0022     		movs	r2, #0
 813 013a B021     		movs	r1, #176
 814 013c 1C30     		adds	r0, r0, #28
 815              	.LVL155:
 816 013e FFF7FEFF 		bl	_lv_style_set_int
 817              	.LVL156:
 818              	.LBE871:
 819              	.LBE870:
 627:lvgl\src\lv_themes/lv_theme_material.c **** 
 820              		.loc 1 627 0 discriminator 4
 821 0142 2068     		ldr	r0, [r4]
 822              	.LVL157:
 823              	.LBB872:
 824              	.LBB873:
 181:lvgl\src\lv_themes\../../src/lv_core/lv_obj_style_dec.h **** _LV_OBJ_STYLE_SET_GET_DECLARE(TRANSITION_DELAY, transition_delay, lv_style_int_t, _int, scalar)
 182:lvgl\src\lv_themes\../../src/lv_core/lv_obj_style_dec.h **** _LV_OBJ_STYLE_SET_GET_DECLARE(TRANSITION_PROP_1, transition_prop_1, lv_style_int_t, _int, scalar)
 183:lvgl\src\lv_themes\../../src/lv_core/lv_obj_style_dec.h **** _LV_OBJ_STYLE_SET_GET_DECLARE(TRANSITION_PROP_2, transition_prop_2, lv_style_int_t, _int, scalar)
 184:lvgl\src\lv_themes\../../src/lv_core/lv_obj_style_dec.h **** _LV_OBJ_STYLE_SET_GET_DECLARE(TRANSITION_PROP_3, transition_prop_3, lv_style_int_t, _int, scalar)
 185:lvgl\src\lv_themes\../../src/lv_core/lv_obj_style_dec.h **** _LV_OBJ_STYLE_SET_GET_DECLARE(TRANSITION_PROP_4, transition_prop_4, lv_style_int_t, _int, scalar)
 186:lvgl\src\lv_themes\../../src/lv_core/lv_obj_style_dec.h **** _LV_OBJ_STYLE_SET_GET_DECLARE(TRANSITION_PROP_5, transition_prop_5, lv_style_int_t, _int, scalar)
 187:lvgl\src\lv_themes\../../src/lv_core/lv_obj_style_dec.h **** _LV_OBJ_STYLE_SET_GET_DECLARE(TRANSITION_PROP_6, transition_prop_6, lv_style_int_t, _int, scalar)
 825              		.loc 2 187 0 discriminator 4
 826 0144 4C22     		movs	r2, #76
 827 0146 B721     		movs	r1, #183
 828 0148 1C30     		adds	r0, r0, #28
 829              	.LVL158:
 830 014a FFF7FEFF 		bl	_lv_style_set_int
 831              	.LVL159:
 832              	.LBE873:
 833              	.LBE872:
 629:lvgl\src\lv_themes/lv_theme_material.c ****     lv_style_set_outline_opa(&styles->cb_bullet, LV_STATE_FOCUSED, LV_OPA_TRANSP);
 834              		.loc 1 629 0 discriminator 4
 835 014e 2068     		ldr	r0, [r4]
 836 0150 2030     		adds	r0, r0, #32
 837 0152 FFF7FEFF 		bl	style_init_reset
 838              	.LVL160:
 630:lvgl\src\lv_themes/lv_theme_material.c ****     lv_style_set_radius(&styles->cb_bullet, LV_STATE_DEFAULT, LV_DPX(4));
 839              		.loc 1 630 0 discriminator 4
 840 0156 2068     		ldr	r0, [r4]
ARM GAS  C:\Users\strap\AppData\Local\Temp\ccCyLI52.s 			page 44


 841              	.LVL161:
 842              	.LBB874:
 843              	.LBB875:
 136:lvgl\src\lv_themes\../../src/lv_core/lv_obj_style_dec.h **** _LV_OBJ_STYLE_SET_GET_DECLARE(SHADOW_WIDTH, shadow_width, lv_style_int_t, _int, scalar)
 844              		.loc 2 136 0 discriminator 4
 845 0158 0022     		movs	r2, #0
 846 015a 4FF41371 		mov	r1, #588
 847 015e 2030     		adds	r0, r0, #32
 848              	.LVL162:
 849 0160 FFF7FEFF 		bl	_lv_style_set_opa
 850              	.LVL163:
 851              	.LBE875:
 852              	.LBE874:
 631:lvgl\src\lv_themes/lv_theme_material.c ****     lv_style_set_pattern_image(&styles->cb_bullet, LV_STATE_CHECKED, LV_SYMBOL_OK);
 853              		.loc 1 631 0 discriminator 4
 854 0164 2468     		ldr	r4, [r4]
 855 0166 2034     		adds	r4, r4, #32
 856 0168 0020     		movs	r0, #0
 857 016a FFF7FEFF 		bl	lv_disp_get_dpi
 858              	.LVL164:
 859 016e 1430     		adds	r0, r0, #20
 860 0170 8000     		lsls	r0, r0, #2
 861 0172 B0F5A07F 		cmp	r0, #320
 862 0176 0CDB     		blt	.L43
 631:lvgl\src\lv_themes/lv_theme_material.c ****     lv_style_set_pattern_image(&styles->cb_bullet, LV_STATE_CHECKED, LV_SYMBOL_OK);
 863              		.loc 1 631 0 is_stmt 0 discriminator 1
 864 0178 0020     		movs	r0, #0
 865 017a FFF7FEFF 		bl	lv_disp_get_dpi
 866              	.LVL165:
 867 017e 1430     		adds	r0, r0, #20
 868 0180 8000     		lsls	r0, r0, #2
 869 0182 5A4A     		ldr	r2, .L49+4
 870 0184 82FB0032 		smull	r3, r2, r2, r0
 871 0188 C017     		asrs	r0, r0, #31
 872 018a C0EBA212 		rsb	r2, r0, r2, asr #6
 873 018e 12B2     		sxth	r2, r2
 874 0190 00E0     		b	.L33
 875              	.L43:
 631:lvgl\src\lv_themes/lv_theme_material.c ****     lv_style_set_pattern_image(&styles->cb_bullet, LV_STATE_CHECKED, LV_SYMBOL_OK);
 876              		.loc 1 631 0
 877 0192 0122     		movs	r2, #1
 878              	.L33:
 879              	.LVL166:
 880              	.LBB876:
 881              	.LBB877:
 102:lvgl\src\lv_themes\../../src/lv_core/lv_obj_style_dec.h **** _LV_OBJ_STYLE_SET_GET_DECLARE(CLIP_CORNER, clip_corner, bool, _int, scalar)
 882              		.loc 2 102 0 is_stmt 1 discriminator 4
 883 0194 0121     		movs	r1, #1
 884 0196 2046     		mov	r0, r4
 885 0198 FFF7FEFF 		bl	_lv_style_set_int
 886              	.LVL167:
 887              	.LBE877:
 888              	.LBE876:
 632:lvgl\src\lv_themes/lv_theme_material.c ****     lv_style_set_pattern_recolor(&styles->cb_bullet, LV_STATE_CHECKED, LV_COLOR_WHITE);
 889              		.loc 1 632 0 discriminator 4
 890 019c 524C     		ldr	r4, .L49
 891 019e 2068     		ldr	r0, [r4]
ARM GAS  C:\Users\strap\AppData\Local\Temp\ccCyLI52.s 			page 45


 892              	.LVL168:
 893              	.LBB878:
 894              	.LBB879:
 149:lvgl\src\lv_themes\../../src/lv_core/lv_obj_style_dec.h **** _LV_OBJ_STYLE_SET_GET_DECLARE(VALUE_LETTER_SPACE, value_letter_space, lv_style_int_t, _int, scalar)
 895              		.loc 2 149 0 discriminator 4
 896 01a0 534A     		ldr	r2, .L49+8
 897 01a2 4FF4B771 		mov	r1, #366
 898 01a6 2030     		adds	r0, r0, #32
 899              	.LVL169:
 900 01a8 FFF7FEFF 		bl	_lv_style_set_ptr
 901              	.LVL170:
 902              	.LBE879:
 903              	.LBE878:
 633:lvgl\src\lv_themes/lv_theme_material.c ****     lv_style_set_pattern_opa(&styles->cb_bullet, LV_STATE_DEFAULT, LV_OPA_TRANSP);
 904              		.loc 1 633 0 discriminator 4
 905 01ac 2068     		ldr	r0, [r4]
 906              	.LVL171:
 907              	.LBB880:
 908              	.LBB881:
 146:lvgl\src\lv_themes\../../src/lv_core/lv_obj_style_dec.h **** _LV_OBJ_STYLE_SET_GET_DECLARE(PATTERN_OPA, pattern_opa, lv_opa_t, _opa, scalar)
 909              		.loc 2 146 0 discriminator 4
 910 01ae 514B     		ldr	r3, .L49+12
 911 01b0 1A88     		ldrh	r2, [r3]
 912 01b2 40F26911 		movw	r1, #361
 913 01b6 2030     		adds	r0, r0, #32
 914              	.LVL172:
 915 01b8 FFF7FEFF 		bl	_lv_style_set_color
 916              	.LVL173:
 917              	.LBE881:
 918              	.LBE880:
 634:lvgl\src\lv_themes/lv_theme_material.c ****     lv_style_set_pattern_opa(&styles->cb_bullet, LV_STATE_CHECKED, LV_OPA_COVER);
 919              		.loc 1 634 0 discriminator 4
 920 01bc 2068     		ldr	r0, [r4]
 921              	.LVL174:
 922              	.LBB882:
 923              	.LBB883:
 147:lvgl\src\lv_themes\../../src/lv_core/lv_obj_style_dec.h **** _LV_OBJ_STYLE_SET_GET_DECLARE(PATTERN_RECOLOR_OPA, pattern_recolor_opa, lv_opa_t, _opa, scalar)
 924              		.loc 2 147 0 discriminator 4
 925 01be 0022     		movs	r2, #0
 926 01c0 6C21     		movs	r1, #108
 927 01c2 2030     		adds	r0, r0, #32
 928              	.LVL175:
 929 01c4 FFF7FEFF 		bl	_lv_style_set_opa
 930              	.LVL176:
 931              	.LBE883:
 932              	.LBE882:
 635:lvgl\src\lv_themes/lv_theme_material.c ****     lv_style_set_transition_prop_3(&styles->cb_bullet, LV_STATE_DEFAULT, LV_STYLE_PATTERN_OPA);
 933              		.loc 1 635 0 discriminator 4
 934 01c8 2068     		ldr	r0, [r4]
 935              	.LVL177:
 936              	.LBB884:
 937              	.LBB885:
 147:lvgl\src\lv_themes\../../src/lv_core/lv_obj_style_dec.h **** _LV_OBJ_STYLE_SET_GET_DECLARE(PATTERN_RECOLOR_OPA, pattern_recolor_opa, lv_opa_t, _opa, scalar)
 938              		.loc 2 147 0 discriminator 4
 939 01ca FF22     		movs	r2, #255
 940 01cc 4FF4B671 		mov	r1, #364
 941 01d0 2030     		adds	r0, r0, #32
ARM GAS  C:\Users\strap\AppData\Local\Temp\ccCyLI52.s 			page 46


 942              	.LVL178:
 943 01d2 FFF7FEFF 		bl	_lv_style_set_opa
 944              	.LVL179:
 945              	.LBE885:
 946              	.LBE884:
 636:lvgl\src\lv_themes/lv_theme_material.c ****     lv_style_set_text_font(&styles->cb_bullet, LV_STATE_CHECKED, theme.font_small);
 947              		.loc 1 636 0 discriminator 4
 948 01d6 2068     		ldr	r0, [r4]
 949              	.LVL180:
 950              	.LBB886:
 951              	.LBB887:
 184:lvgl\src\lv_themes\../../src/lv_core/lv_obj_style_dec.h **** _LV_OBJ_STYLE_SET_GET_DECLARE(TRANSITION_PROP_4, transition_prop_4, lv_style_int_t, _int, scalar)
 952              		.loc 2 184 0 discriminator 4
 953 01d8 6C22     		movs	r2, #108
 954 01da B421     		movs	r1, #180
 955 01dc 2030     		adds	r0, r0, #32
 956              	.LVL181:
 957 01de FFF7FEFF 		bl	_lv_style_set_int
 958              	.LVL182:
 959              	.LBE887:
 960              	.LBE886:
 637:lvgl\src\lv_themes/lv_theme_material.c ****     lv_style_set_pad_left(&styles->cb_bullet, LV_STATE_DEFAULT, LV_DPX(3));
 961              		.loc 1 637 0 discriminator 4
 962 01e2 2068     		ldr	r0, [r4]
 963              	.LVL183:
 964              	.LBB888:
 965              	.LBB889:
 168:lvgl\src\lv_themes\../../src/lv_core/lv_obj_style_dec.h **** _LV_OBJ_STYLE_SET_GET_DECLARE(LINE_WIDTH, line_width, lv_style_int_t, _int, scalar)
 966              		.loc 2 168 0 discriminator 4
 967 01e4 A269     		ldr	r2, [r4, #24]
 968 01e6 48F28E11 		movw	r1, #33166
 969 01ea 2030     		adds	r0, r0, #32
 970              	.LVL184:
 971 01ec FFF7FEFF 		bl	_lv_style_set_ptr
 972              	.LVL185:
 973              	.LBE889:
 974              	.LBE888:
 638:lvgl\src\lv_themes/lv_theme_material.c ****     lv_style_set_pad_right(&styles->cb_bullet, LV_STATE_DEFAULT, LV_DPX(3));
 975              		.loc 1 638 0 discriminator 4
 976 01f0 2468     		ldr	r4, [r4]
 977 01f2 2034     		adds	r4, r4, #32
 978 01f4 0020     		movs	r0, #0
 979 01f6 FFF7FEFF 		bl	lv_disp_get_dpi
 980              	.LVL186:
 981 01fa 00EB4000 		add	r0, r0, r0, lsl #1
 982 01fe 5030     		adds	r0, r0, #80
 983 0200 B0F5A07F 		cmp	r0, #320
 984 0204 0DDB     		blt	.L44
 638:lvgl\src\lv_themes/lv_theme_material.c ****     lv_style_set_pad_right(&styles->cb_bullet, LV_STATE_DEFAULT, LV_DPX(3));
 985              		.loc 1 638 0 is_stmt 0 discriminator 1
 986 0206 0020     		movs	r0, #0
 987 0208 FFF7FEFF 		bl	lv_disp_get_dpi
 988              	.LVL187:
 989 020c 00EB4000 		add	r0, r0, r0, lsl #1
 990 0210 5030     		adds	r0, r0, #80
 991 0212 364A     		ldr	r2, .L49+4
 992 0214 82FB0032 		smull	r3, r2, r2, r0
ARM GAS  C:\Users\strap\AppData\Local\Temp\ccCyLI52.s 			page 47


 993 0218 C017     		asrs	r0, r0, #31
 994 021a C0EBA212 		rsb	r2, r0, r2, asr #6
 995 021e 12B2     		sxth	r2, r2
 996 0220 00E0     		b	.L34
 997              	.L44:
 638:lvgl\src\lv_themes/lv_theme_material.c ****     lv_style_set_pad_right(&styles->cb_bullet, LV_STATE_DEFAULT, LV_DPX(3));
 998              		.loc 1 638 0
 999 0222 0122     		movs	r2, #1
 1000              	.L34:
 1001              	.LVL188:
 1002              	.LBB890:
 1003              	.LBB891:
 112:lvgl\src\lv_themes\../../src/lv_core/lv_obj_style_dec.h **** _LV_OBJ_STYLE_SET_GET_DECLARE(PAD_RIGHT, pad_right, lv_style_int_t, _int, scalar)
 1004              		.loc 2 112 0 is_stmt 1 discriminator 4
 1005 0224 1221     		movs	r1, #18
 1006 0226 2046     		mov	r0, r4
 1007 0228 FFF7FEFF 		bl	_lv_style_set_int
 1008              	.LVL189:
 1009              	.LBE891:
 1010              	.LBE890:
 639:lvgl\src\lv_themes/lv_theme_material.c ****     lv_style_set_pad_top(&styles->cb_bullet, LV_STATE_DEFAULT, LV_DPX(3));
 1011              		.loc 1 639 0 discriminator 4
 1012 022c 2E4B     		ldr	r3, .L49
 1013 022e 1C68     		ldr	r4, [r3]
 1014 0230 2034     		adds	r4, r4, #32
 1015 0232 0020     		movs	r0, #0
 1016 0234 FFF7FEFF 		bl	lv_disp_get_dpi
 1017              	.LVL190:
 1018 0238 00EB4000 		add	r0, r0, r0, lsl #1
 1019 023c 5030     		adds	r0, r0, #80
 1020 023e B0F5A07F 		cmp	r0, #320
 1021 0242 0DDB     		blt	.L45
 639:lvgl\src\lv_themes/lv_theme_material.c ****     lv_style_set_pad_top(&styles->cb_bullet, LV_STATE_DEFAULT, LV_DPX(3));
 1022              		.loc 1 639 0 is_stmt 0 discriminator 1
 1023 0244 0020     		movs	r0, #0
 1024 0246 FFF7FEFF 		bl	lv_disp_get_dpi
 1025              	.LVL191:
 1026 024a 00EB4000 		add	r0, r0, r0, lsl #1
 1027 024e 5030     		adds	r0, r0, #80
 1028 0250 264A     		ldr	r2, .L49+4
 1029 0252 82FB0032 		smull	r3, r2, r2, r0
 1030 0256 C017     		asrs	r0, r0, #31
 1031 0258 C0EBA212 		rsb	r2, r0, r2, asr #6
 1032 025c 12B2     		sxth	r2, r2
 1033 025e 00E0     		b	.L35
 1034              	.L45:
 639:lvgl\src\lv_themes/lv_theme_material.c ****     lv_style_set_pad_top(&styles->cb_bullet, LV_STATE_DEFAULT, LV_DPX(3));
 1035              		.loc 1 639 0
 1036 0260 0122     		movs	r2, #1
 1037              	.L35:
 1038              	.LVL192:
 1039              	.LBB892:
 1040              	.LBB893:
 113:lvgl\src\lv_themes\../../src/lv_core/lv_obj_style_dec.h **** _LV_OBJ_STYLE_SET_GET_DECLARE(PAD_INNER, pad_inner, lv_style_int_t, _int, scalar)
 1041              		.loc 2 113 0 is_stmt 1 discriminator 4
 1042 0262 1321     		movs	r1, #19
 1043 0264 2046     		mov	r0, r4
ARM GAS  C:\Users\strap\AppData\Local\Temp\ccCyLI52.s 			page 48


 1044 0266 FFF7FEFF 		bl	_lv_style_set_int
 1045              	.LVL193:
 1046              	.LBE893:
 1047              	.LBE892:
 640:lvgl\src\lv_themes/lv_theme_material.c ****     lv_style_set_pad_bottom(&styles->cb_bullet, LV_STATE_DEFAULT, LV_DPX(3));
 1048              		.loc 1 640 0 discriminator 4
 1049 026a 1F4B     		ldr	r3, .L49
 1050 026c 1C68     		ldr	r4, [r3]
 1051 026e 2034     		adds	r4, r4, #32
 1052 0270 0020     		movs	r0, #0
 1053 0272 FFF7FEFF 		bl	lv_disp_get_dpi
 1054              	.LVL194:
 1055 0276 00EB4000 		add	r0, r0, r0, lsl #1
 1056 027a 5030     		adds	r0, r0, #80
 1057 027c B0F5A07F 		cmp	r0, #320
 1058 0280 0DDB     		blt	.L46
 640:lvgl\src\lv_themes/lv_theme_material.c ****     lv_style_set_pad_bottom(&styles->cb_bullet, LV_STATE_DEFAULT, LV_DPX(3));
 1059              		.loc 1 640 0 is_stmt 0 discriminator 1
 1060 0282 0020     		movs	r0, #0
 1061 0284 FFF7FEFF 		bl	lv_disp_get_dpi
 1062              	.LVL195:
 1063 0288 00EB4000 		add	r0, r0, r0, lsl #1
 1064 028c 5030     		adds	r0, r0, #80
 1065 028e 174A     		ldr	r2, .L49+4
 1066 0290 82FB0032 		smull	r3, r2, r2, r0
 1067 0294 C017     		asrs	r0, r0, #31
 1068 0296 C0EBA212 		rsb	r2, r0, r2, asr #6
 1069 029a 12B2     		sxth	r2, r2
 1070 029c 00E0     		b	.L36
 1071              	.L46:
 640:lvgl\src\lv_themes/lv_theme_material.c ****     lv_style_set_pad_bottom(&styles->cb_bullet, LV_STATE_DEFAULT, LV_DPX(3));
 1072              		.loc 1 640 0
 1073 029e 0122     		movs	r2, #1
 1074              	.L36:
 1075              	.LVL196:
 1076              	.LBB894:
 1077              	.LBB895:
 110:lvgl\src\lv_themes\../../src/lv_core/lv_obj_style_dec.h **** _LV_OBJ_STYLE_SET_GET_DECLARE(PAD_BOTTOM, pad_bottom, lv_style_int_t, _int, scalar)
 1078              		.loc 2 110 0 is_stmt 1 discriminator 4
 1079 02a0 1021     		movs	r1, #16
 1080 02a2 2046     		mov	r0, r4
 1081 02a4 FFF7FEFF 		bl	_lv_style_set_int
 1082              	.LVL197:
 1083              	.LBE895:
 1084              	.LBE894:
 641:lvgl\src\lv_themes/lv_theme_material.c **** #endif
 1085              		.loc 1 641 0 discriminator 4
 1086 02a8 0F4B     		ldr	r3, .L49
 1087 02aa 1C68     		ldr	r4, [r3]
 1088 02ac 2034     		adds	r4, r4, #32
 1089 02ae 0020     		movs	r0, #0
 1090 02b0 FFF7FEFF 		bl	lv_disp_get_dpi
 1091              	.LVL198:
 1092 02b4 00EB4000 		add	r0, r0, r0, lsl #1
 1093 02b8 5030     		adds	r0, r0, #80
 1094 02ba B0F5A07F 		cmp	r0, #320
 1095 02be 0DDB     		blt	.L47
ARM GAS  C:\Users\strap\AppData\Local\Temp\ccCyLI52.s 			page 49


 641:lvgl\src\lv_themes/lv_theme_material.c **** #endif
 1096              		.loc 1 641 0 is_stmt 0 discriminator 1
 1097 02c0 0020     		movs	r0, #0
 1098 02c2 FFF7FEFF 		bl	lv_disp_get_dpi
 1099              	.LVL199:
 1100 02c6 00EB4000 		add	r0, r0, r0, lsl #1
 1101 02ca 5030     		adds	r0, r0, #80
 1102 02cc 074A     		ldr	r2, .L49+4
 1103 02ce 82FB0032 		smull	r3, r2, r2, r0
 1104 02d2 C017     		asrs	r0, r0, #31
 1105 02d4 C0EBA212 		rsb	r2, r0, r2, asr #6
 1106 02d8 12B2     		sxth	r2, r2
 1107 02da 00E0     		b	.L37
 1108              	.L47:
 641:lvgl\src\lv_themes/lv_theme_material.c **** #endif
 1109              		.loc 1 641 0
 1110 02dc 0122     		movs	r2, #1
 1111              	.L37:
 1112              	.LVL200:
 1113              	.LBB896:
 1114              	.LBB897:
 111:lvgl\src\lv_themes\../../src/lv_core/lv_obj_style_dec.h **** _LV_OBJ_STYLE_SET_GET_DECLARE(PAD_LEFT, pad_left, lv_style_int_t, _int, scalar)
 1115              		.loc 2 111 0 is_stmt 1 discriminator 4
 1116 02de 1121     		movs	r1, #17
 1117 02e0 2046     		mov	r0, r4
 1118 02e2 FFF7FEFF 		bl	_lv_style_set_int
 1119              	.LVL201:
 1120 02e6 38BD     		pop	{r3, r4, r5, pc}
 1121              	.L50:
 1122              		.align	2
 1123              	.L49:
 1124 02e8 00000000 		.word	.LANCHOR0
 1125 02ec 67666666 		.word	1717986919
 1126 02f0 00000000 		.word	.LC1
 1127 02f4 00000000 		.word	.LANCHOR1
 1128              	.LBE897:
 1129              	.LBE896:
 1130              		.cfi_endproc
 1131              	.LFE392:
 1132              		.size	checkbox_init, .-checkbox_init
 1133              		.section	.text.page_init,"ax",%progbits
 1134              		.align	2
 1135              		.thumb
 1136              		.thumb_func
 1137              		.type	page_init, %function
 1138              	page_init:
 1139              	.LFB396:
 677:lvgl\src\lv_themes/lv_theme_material.c **** #if LV_USE_PAGE
 1140              		.loc 1 677 0
 1141              		.cfi_startproc
 1142              		@ args = 0, pretend = 0, frame = 0
 1143              		@ frame_needed = 0, uses_anonymous_args = 0
 1144 0000 10B5     		push	{r4, lr}
 1145              		.cfi_def_cfa_offset 8
 1146              		.cfi_offset 4, -8
 1147              		.cfi_offset 14, -4
 679:lvgl\src\lv_themes/lv_theme_material.c ****     lv_style_set_bg_opa(&styles->sb, LV_STATE_DEFAULT, LV_OPA_COVER);
ARM GAS  C:\Users\strap\AppData\Local\Temp\ccCyLI52.s 			page 50


 1148              		.loc 1 679 0
 1149 0002 5A4C     		ldr	r4, .L61
 1150 0004 2068     		ldr	r0, [r4]
 1151 0006 3030     		adds	r0, r0, #48
 1152 0008 FFF7FEFF 		bl	style_init_reset
 1153              	.LVL202:
 680:lvgl\src\lv_themes/lv_theme_material.c ****     lv_style_set_bg_color(&styles->sb, LV_STATE_DEFAULT, (IS_LIGHT ? lv_color_hex(0xcccfd1) : lv_co
 1154              		.loc 1 680 0
 1155 000c 2068     		ldr	r0, [r4]
 1156              	.LVL203:
 1157              	.LBB898:
 1158              	.LBB899:
 125:lvgl\src\lv_themes\../../src/lv_core/lv_obj_style_dec.h **** _LV_OBJ_STYLE_SET_GET_DECLARE(BORDER_WIDTH, border_width, lv_style_int_t, _int, scalar)
 1159              		.loc 2 125 0
 1160 000e FF22     		movs	r2, #255
 1161 0010 2C21     		movs	r1, #44
 1162 0012 3030     		adds	r0, r0, #48
 1163              	.LVL204:
 1164 0014 FFF7FEFF 		bl	_lv_style_set_opa
 1165              	.LVL205:
 1166              	.LBE899:
 1167              	.LBE898:
 681:lvgl\src\lv_themes/lv_theme_material.c ****     lv_style_set_radius(&styles->sb, LV_STATE_DEFAULT, LV_RADIUS_CIRCLE);
 1168              		.loc 1 681 0
 1169 0018 2068     		ldr	r0, [r4]
 1170 001a 3030     		adds	r0, r0, #48
 1171 001c A36A     		ldr	r3, [r4, #40]
 1172 001e 13F0020F 		tst	r3, #2
 1173 0022 0ED0     		beq	.L52
 1174              	.LVL206:
 1175              	.LBB900:
 1176              	.LBB901:
 1177              	.LBB902:
 1178              		.file 3 "lvgl\\src\\lv_themes\\../../src/lv_hal/../lv_misc/lv_color.h"
   1:lvgl\src\lv_themes\../../src/lv_hal/../lv_misc/lv_color.h **** /**
   2:lvgl\src\lv_themes\../../src/lv_hal/../lv_misc/lv_color.h ****  * @file lv_color.h
   3:lvgl\src\lv_themes\../../src/lv_hal/../lv_misc/lv_color.h ****  *
   4:lvgl\src\lv_themes\../../src/lv_hal/../lv_misc/lv_color.h ****  */
   5:lvgl\src\lv_themes\../../src/lv_hal/../lv_misc/lv_color.h **** 
   6:lvgl\src\lv_themes\../../src/lv_hal/../lv_misc/lv_color.h **** #ifndef LV_COLOR_H
   7:lvgl\src\lv_themes\../../src/lv_hal/../lv_misc/lv_color.h **** #define LV_COLOR_H
   8:lvgl\src\lv_themes\../../src/lv_hal/../lv_misc/lv_color.h **** 
   9:lvgl\src\lv_themes\../../src/lv_hal/../lv_misc/lv_color.h **** #ifdef __cplusplus
  10:lvgl\src\lv_themes\../../src/lv_hal/../lv_misc/lv_color.h **** extern "C" {
  11:lvgl\src\lv_themes\../../src/lv_hal/../lv_misc/lv_color.h **** #endif
  12:lvgl\src\lv_themes\../../src/lv_hal/../lv_misc/lv_color.h **** 
  13:lvgl\src\lv_themes\../../src/lv_hal/../lv_misc/lv_color.h **** /*********************
  14:lvgl\src\lv_themes\../../src/lv_hal/../lv_misc/lv_color.h ****  *      INCLUDES
  15:lvgl\src\lv_themes\../../src/lv_hal/../lv_misc/lv_color.h ****  *********************/
  16:lvgl\src\lv_themes\../../src/lv_hal/../lv_misc/lv_color.h **** #include "../lv_conf_internal.h"
  17:lvgl\src\lv_themes\../../src/lv_hal/../lv_misc/lv_color.h **** #include "lv_math.h"
  18:lvgl\src\lv_themes\../../src/lv_hal/../lv_misc/lv_color.h **** 
  19:lvgl\src\lv_themes\../../src/lv_hal/../lv_misc/lv_color.h **** /*Error checking*/
  20:lvgl\src\lv_themes\../../src/lv_hal/../lv_misc/lv_color.h **** #if LV_COLOR_DEPTH == 24
  21:lvgl\src\lv_themes\../../src/lv_hal/../lv_misc/lv_color.h **** #error "LV_COLOR_DEPTH  24 is deprecated. Use LV_COLOR_DEPTH  32 instead (lv_conf.h)"
  22:lvgl\src\lv_themes\../../src/lv_hal/../lv_misc/lv_color.h **** #endif
  23:lvgl\src\lv_themes\../../src/lv_hal/../lv_misc/lv_color.h **** 
ARM GAS  C:\Users\strap\AppData\Local\Temp\ccCyLI52.s 			page 51


  24:lvgl\src\lv_themes\../../src/lv_hal/../lv_misc/lv_color.h **** #if LV_COLOR_DEPTH != 32 && LV_COLOR_SCREEN_TRANSP != 0
  25:lvgl\src\lv_themes\../../src/lv_hal/../lv_misc/lv_color.h **** #error "LV_COLOR_SCREEN_TRANSP requires LV_COLOR_DEPTH == 32. Set it in lv_conf.h"
  26:lvgl\src\lv_themes\../../src/lv_hal/../lv_misc/lv_color.h **** #endif
  27:lvgl\src\lv_themes\../../src/lv_hal/../lv_misc/lv_color.h **** 
  28:lvgl\src\lv_themes\../../src/lv_hal/../lv_misc/lv_color.h **** #if LV_COLOR_DEPTH != 16 && LV_COLOR_16_SWAP != 0
  29:lvgl\src\lv_themes\../../src/lv_hal/../lv_misc/lv_color.h **** #error "LV_COLOR_16_SWAP requires LV_COLOR_DEPTH == 16. Set it in lv_conf.h"
  30:lvgl\src\lv_themes\../../src/lv_hal/../lv_misc/lv_color.h **** #endif
  31:lvgl\src\lv_themes\../../src/lv_hal/../lv_misc/lv_color.h **** 
  32:lvgl\src\lv_themes\../../src/lv_hal/../lv_misc/lv_color.h **** #include <stdint.h>
  33:lvgl\src\lv_themes\../../src/lv_hal/../lv_misc/lv_color.h **** 
  34:lvgl\src\lv_themes\../../src/lv_hal/../lv_misc/lv_color.h **** /*********************
  35:lvgl\src\lv_themes\../../src/lv_hal/../lv_misc/lv_color.h ****  *      DEFINES
  36:lvgl\src\lv_themes\../../src/lv_hal/../lv_misc/lv_color.h ****  *********************/
  37:lvgl\src\lv_themes\../../src/lv_hal/../lv_misc/lv_color.h **** #define LV_COLOR_WHITE LV_COLOR_MAKE(0xFF, 0xFF, 0xFF)
  38:lvgl\src\lv_themes\../../src/lv_hal/../lv_misc/lv_color.h **** #define LV_COLOR_SILVER LV_COLOR_MAKE(0xC0, 0xC0, 0xC0)
  39:lvgl\src\lv_themes\../../src/lv_hal/../lv_misc/lv_color.h **** #define LV_COLOR_GRAY LV_COLOR_MAKE(0x80, 0x80, 0x80)
  40:lvgl\src\lv_themes\../../src/lv_hal/../lv_misc/lv_color.h **** #define LV_COLOR_BLACK LV_COLOR_MAKE(0x00, 0x00, 0x00)
  41:lvgl\src\lv_themes\../../src/lv_hal/../lv_misc/lv_color.h **** #define LV_COLOR_RED LV_COLOR_MAKE(0xFF, 0x00, 0x00)
  42:lvgl\src\lv_themes\../../src/lv_hal/../lv_misc/lv_color.h **** #define LV_COLOR_MAROON LV_COLOR_MAKE(0x80, 0x00, 0x00)
  43:lvgl\src\lv_themes\../../src/lv_hal/../lv_misc/lv_color.h **** #define LV_COLOR_YELLOW LV_COLOR_MAKE(0xFF, 0xFF, 0x00)
  44:lvgl\src\lv_themes\../../src/lv_hal/../lv_misc/lv_color.h **** #define LV_COLOR_OLIVE LV_COLOR_MAKE(0x80, 0x80, 0x00)
  45:lvgl\src\lv_themes\../../src/lv_hal/../lv_misc/lv_color.h **** #define LV_COLOR_LIME LV_COLOR_MAKE(0x00, 0xFF, 0x00)
  46:lvgl\src\lv_themes\../../src/lv_hal/../lv_misc/lv_color.h **** #define LV_COLOR_GREEN LV_COLOR_MAKE(0x00, 0x80, 0x00)
  47:lvgl\src\lv_themes\../../src/lv_hal/../lv_misc/lv_color.h **** #define LV_COLOR_CYAN LV_COLOR_MAKE(0x00, 0xFF, 0xFF)
  48:lvgl\src\lv_themes\../../src/lv_hal/../lv_misc/lv_color.h **** #define LV_COLOR_AQUA LV_COLOR_CYAN
  49:lvgl\src\lv_themes\../../src/lv_hal/../lv_misc/lv_color.h **** #define LV_COLOR_TEAL LV_COLOR_MAKE(0x00, 0x80, 0x80)
  50:lvgl\src\lv_themes\../../src/lv_hal/../lv_misc/lv_color.h **** #define LV_COLOR_BLUE LV_COLOR_MAKE(0x00, 0x00, 0xFF)
  51:lvgl\src\lv_themes\../../src/lv_hal/../lv_misc/lv_color.h **** #define LV_COLOR_NAVY LV_COLOR_MAKE(0x00, 0x00, 0x80)
  52:lvgl\src\lv_themes\../../src/lv_hal/../lv_misc/lv_color.h **** #define LV_COLOR_MAGENTA LV_COLOR_MAKE(0xFF, 0x00, 0xFF)
  53:lvgl\src\lv_themes\../../src/lv_hal/../lv_misc/lv_color.h **** #define LV_COLOR_PURPLE LV_COLOR_MAKE(0x80, 0x00, 0x80)
  54:lvgl\src\lv_themes\../../src/lv_hal/../lv_misc/lv_color.h **** #define LV_COLOR_ORANGE LV_COLOR_MAKE(0xFF, 0xA5, 0x00)
  55:lvgl\src\lv_themes\../../src/lv_hal/../lv_misc/lv_color.h **** 
  56:lvgl\src\lv_themes\../../src/lv_hal/../lv_misc/lv_color.h **** /**
  57:lvgl\src\lv_themes\../../src/lv_hal/../lv_misc/lv_color.h ****  * Opacity percentages.
  58:lvgl\src\lv_themes\../../src/lv_hal/../lv_misc/lv_color.h ****  */
  59:lvgl\src\lv_themes\../../src/lv_hal/../lv_misc/lv_color.h **** enum {
  60:lvgl\src\lv_themes\../../src/lv_hal/../lv_misc/lv_color.h ****     LV_OPA_TRANSP = 0,
  61:lvgl\src\lv_themes\../../src/lv_hal/../lv_misc/lv_color.h ****     LV_OPA_0      = 0,
  62:lvgl\src\lv_themes\../../src/lv_hal/../lv_misc/lv_color.h ****     LV_OPA_10     = 25,
  63:lvgl\src\lv_themes\../../src/lv_hal/../lv_misc/lv_color.h ****     LV_OPA_20     = 51,
  64:lvgl\src\lv_themes\../../src/lv_hal/../lv_misc/lv_color.h ****     LV_OPA_30     = 76,
  65:lvgl\src\lv_themes\../../src/lv_hal/../lv_misc/lv_color.h ****     LV_OPA_40     = 102,
  66:lvgl\src\lv_themes\../../src/lv_hal/../lv_misc/lv_color.h ****     LV_OPA_50     = 127,
  67:lvgl\src\lv_themes\../../src/lv_hal/../lv_misc/lv_color.h ****     LV_OPA_60     = 153,
  68:lvgl\src\lv_themes\../../src/lv_hal/../lv_misc/lv_color.h ****     LV_OPA_70     = 178,
  69:lvgl\src\lv_themes\../../src/lv_hal/../lv_misc/lv_color.h ****     LV_OPA_80     = 204,
  70:lvgl\src\lv_themes\../../src/lv_hal/../lv_misc/lv_color.h ****     LV_OPA_90     = 229,
  71:lvgl\src\lv_themes\../../src/lv_hal/../lv_misc/lv_color.h ****     LV_OPA_100    = 255,
  72:lvgl\src\lv_themes\../../src/lv_hal/../lv_misc/lv_color.h ****     LV_OPA_COVER  = 255,
  73:lvgl\src\lv_themes\../../src/lv_hal/../lv_misc/lv_color.h **** };
  74:lvgl\src\lv_themes\../../src/lv_hal/../lv_misc/lv_color.h **** 
  75:lvgl\src\lv_themes\../../src/lv_hal/../lv_misc/lv_color.h **** #define LV_OPA_MIN 2    /*Opacities below this will be transparent*/
  76:lvgl\src\lv_themes\../../src/lv_hal/../lv_misc/lv_color.h **** #define LV_OPA_MAX 253  /*Opacities above this will fully cover*/
  77:lvgl\src\lv_themes\../../src/lv_hal/../lv_misc/lv_color.h **** 
  78:lvgl\src\lv_themes\../../src/lv_hal/../lv_misc/lv_color.h **** #if LV_COLOR_DEPTH == 1
  79:lvgl\src\lv_themes\../../src/lv_hal/../lv_misc/lv_color.h **** #define LV_COLOR_SIZE 8
  80:lvgl\src\lv_themes\../../src/lv_hal/../lv_misc/lv_color.h **** #elif LV_COLOR_DEPTH == 8
ARM GAS  C:\Users\strap\AppData\Local\Temp\ccCyLI52.s 			page 52


  81:lvgl\src\lv_themes\../../src/lv_hal/../lv_misc/lv_color.h **** #define LV_COLOR_SIZE 8
  82:lvgl\src\lv_themes\../../src/lv_hal/../lv_misc/lv_color.h **** #elif LV_COLOR_DEPTH == 16
  83:lvgl\src\lv_themes\../../src/lv_hal/../lv_misc/lv_color.h **** #define LV_COLOR_SIZE 16
  84:lvgl\src\lv_themes\../../src/lv_hal/../lv_misc/lv_color.h **** #elif LV_COLOR_DEPTH == 32
  85:lvgl\src\lv_themes\../../src/lv_hal/../lv_misc/lv_color.h **** #define LV_COLOR_SIZE 32
  86:lvgl\src\lv_themes\../../src/lv_hal/../lv_misc/lv_color.h **** #else
  87:lvgl\src\lv_themes\../../src/lv_hal/../lv_misc/lv_color.h **** #error "Invalid LV_COLOR_DEPTH in lv_conf.h! Set it to 1, 8, 16 or 32!"
  88:lvgl\src\lv_themes\../../src/lv_hal/../lv_misc/lv_color.h **** #endif
  89:lvgl\src\lv_themes\../../src/lv_hal/../lv_misc/lv_color.h **** 
  90:lvgl\src\lv_themes\../../src/lv_hal/../lv_misc/lv_color.h **** 
  91:lvgl\src\lv_themes\../../src/lv_hal/../lv_misc/lv_color.h **** /* Adjust color mix functions rounding.
  92:lvgl\src\lv_themes\../../src/lv_hal/../lv_misc/lv_color.h ****  * GPUs might calculate color mix (blending) differently.
  93:lvgl\src\lv_themes\../../src/lv_hal/../lv_misc/lv_color.h ****  * Should be in range of 0..254
  94:lvgl\src\lv_themes\../../src/lv_hal/../lv_misc/lv_color.h ****  * 0: no adjustment, get the integer part of the result (round down)
  95:lvgl\src\lv_themes\../../src/lv_hal/../lv_misc/lv_color.h ****  * 64: round up from x.75
  96:lvgl\src\lv_themes\../../src/lv_hal/../lv_misc/lv_color.h ****  * 128: round up from half
  97:lvgl\src\lv_themes\../../src/lv_hal/../lv_misc/lv_color.h ****  * 192: round up from x.25
  98:lvgl\src\lv_themes\../../src/lv_hal/../lv_misc/lv_color.h ****  * 254: round up */
  99:lvgl\src\lv_themes\../../src/lv_hal/../lv_misc/lv_color.h **** #ifndef LV_COLOR_MIX_ROUND_OFS
 100:lvgl\src\lv_themes\../../src/lv_hal/../lv_misc/lv_color.h **** #if LV_COLOR_DEPTH == 32
 101:lvgl\src\lv_themes\../../src/lv_hal/../lv_misc/lv_color.h **** #define LV_COLOR_MIX_ROUND_OFS 0
 102:lvgl\src\lv_themes\../../src/lv_hal/../lv_misc/lv_color.h **** #else
 103:lvgl\src\lv_themes\../../src/lv_hal/../lv_misc/lv_color.h **** #define LV_COLOR_MIX_ROUND_OFS 128
 104:lvgl\src\lv_themes\../../src/lv_hal/../lv_misc/lv_color.h **** #endif
 105:lvgl\src\lv_themes\../../src/lv_hal/../lv_misc/lv_color.h **** #endif
 106:lvgl\src\lv_themes\../../src/lv_hal/../lv_misc/lv_color.h **** 
 107:lvgl\src\lv_themes\../../src/lv_hal/../lv_misc/lv_color.h **** /*---------------------------------------
 108:lvgl\src\lv_themes\../../src/lv_hal/../lv_misc/lv_color.h ****  * Macros for all existing  color depths
 109:lvgl\src\lv_themes\../../src/lv_hal/../lv_misc/lv_color.h ****  * to set/get values of the color channels
 110:lvgl\src\lv_themes\../../src/lv_hal/../lv_misc/lv_color.h ****  *------------------------------------------*/
 111:lvgl\src\lv_themes\../../src/lv_hal/../lv_misc/lv_color.h **** # define LV_COLOR_SET_R1(c, v) (c).ch.red = (uint8_t)((v) & 0x1);
 112:lvgl\src\lv_themes\../../src/lv_hal/../lv_misc/lv_color.h **** # define LV_COLOR_SET_G1(c, v) (c).ch.green = (uint8_t)((v) & 0x1);
 113:lvgl\src\lv_themes\../../src/lv_hal/../lv_misc/lv_color.h **** # define LV_COLOR_SET_B1(c, v) (c).ch.blue = (uint8_t)((v) & 0x1);
 114:lvgl\src\lv_themes\../../src/lv_hal/../lv_misc/lv_color.h **** # define LV_COLOR_SET_A1(c, v)
 115:lvgl\src\lv_themes\../../src/lv_hal/../lv_misc/lv_color.h **** 
 116:lvgl\src\lv_themes\../../src/lv_hal/../lv_misc/lv_color.h **** # define LV_COLOR_GET_R1(c) (c).ch.red
 117:lvgl\src\lv_themes\../../src/lv_hal/../lv_misc/lv_color.h **** # define LV_COLOR_GET_G1(c) (c).ch.green
 118:lvgl\src\lv_themes\../../src/lv_hal/../lv_misc/lv_color.h **** # define LV_COLOR_GET_B1(c) (c).ch.blue
 119:lvgl\src\lv_themes\../../src/lv_hal/../lv_misc/lv_color.h **** # define LV_COLOR_GET_A1(c) 1
 120:lvgl\src\lv_themes\../../src/lv_hal/../lv_misc/lv_color.h **** 
 121:lvgl\src\lv_themes\../../src/lv_hal/../lv_misc/lv_color.h **** # define LV_COLOR_SET_R8(c, v) (c).ch.red = (uint8_t)(v) & 0x7U;
 122:lvgl\src\lv_themes\../../src/lv_hal/../lv_misc/lv_color.h **** # define LV_COLOR_SET_G8(c, v) (c).ch.green = (uint8_t)(v) & 0x7U;
 123:lvgl\src\lv_themes\../../src/lv_hal/../lv_misc/lv_color.h **** # define LV_COLOR_SET_B8(c, v) (c).ch.blue = (uint8_t)(v) & 0x3U;
 124:lvgl\src\lv_themes\../../src/lv_hal/../lv_misc/lv_color.h **** # define LV_COLOR_SET_A8(c, v) do {} while(0)
 125:lvgl\src\lv_themes\../../src/lv_hal/../lv_misc/lv_color.h **** 
 126:lvgl\src\lv_themes\../../src/lv_hal/../lv_misc/lv_color.h **** # define LV_COLOR_GET_R8(c) (c).ch.red
 127:lvgl\src\lv_themes\../../src/lv_hal/../lv_misc/lv_color.h **** # define LV_COLOR_GET_G8(c) (c).ch.green
 128:lvgl\src\lv_themes\../../src/lv_hal/../lv_misc/lv_color.h **** # define LV_COLOR_GET_B8(c) (c).ch.blue
 129:lvgl\src\lv_themes\../../src/lv_hal/../lv_misc/lv_color.h **** # define LV_COLOR_GET_A8(c) 0xFF
 130:lvgl\src\lv_themes\../../src/lv_hal/../lv_misc/lv_color.h **** 
 131:lvgl\src\lv_themes\../../src/lv_hal/../lv_misc/lv_color.h **** # define LV_COLOR_SET_R16(c, v) (c).ch.red = (uint8_t)(v) & 0x1FU;
 132:lvgl\src\lv_themes\../../src/lv_hal/../lv_misc/lv_color.h **** # define LV_COLOR_SET_G16(c, v) (c).ch.green = (uint8_t)(v) & 0x3FU;
 133:lvgl\src\lv_themes\../../src/lv_hal/../lv_misc/lv_color.h **** # define LV_COLOR_SET_G16_SWAP(c, v) {(c).ch.green_h = (uint8_t)(((v) >> 3) & 0x7); (c).ch.green_l 
 134:lvgl\src\lv_themes\../../src/lv_hal/../lv_misc/lv_color.h **** # define LV_COLOR_SET_B16(c, v) (c).ch.blue = (uint8_t)(v) & 0x1FU;
 135:lvgl\src\lv_themes\../../src/lv_hal/../lv_misc/lv_color.h **** # define LV_COLOR_SET_A16(c, v) do {} while(0)
 136:lvgl\src\lv_themes\../../src/lv_hal/../lv_misc/lv_color.h **** 
 137:lvgl\src\lv_themes\../../src/lv_hal/../lv_misc/lv_color.h **** # define LV_COLOR_GET_R16(c) (c).ch.red
ARM GAS  C:\Users\strap\AppData\Local\Temp\ccCyLI52.s 			page 53


 138:lvgl\src\lv_themes\../../src/lv_hal/../lv_misc/lv_color.h **** # define LV_COLOR_GET_G16(c) (c).ch.green
 139:lvgl\src\lv_themes\../../src/lv_hal/../lv_misc/lv_color.h **** # define LV_COLOR_GET_G16_SWAP(c) (((c).ch.green_h << 3) + (c).ch.green_l)
 140:lvgl\src\lv_themes\../../src/lv_hal/../lv_misc/lv_color.h **** # define LV_COLOR_GET_B16(c) (c).ch.blue
 141:lvgl\src\lv_themes\../../src/lv_hal/../lv_misc/lv_color.h **** # define LV_COLOR_GET_A16(c) 0xFF
 142:lvgl\src\lv_themes\../../src/lv_hal/../lv_misc/lv_color.h **** 
 143:lvgl\src\lv_themes\../../src/lv_hal/../lv_misc/lv_color.h **** # define LV_COLOR_SET_R32(c, v) (c).ch.red = (uint32_t)((v) & 0xFF);
 144:lvgl\src\lv_themes\../../src/lv_hal/../lv_misc/lv_color.h **** # define LV_COLOR_SET_G32(c, v) (c).ch.green = (uint32_t)((v) & 0xFF);
 145:lvgl\src\lv_themes\../../src/lv_hal/../lv_misc/lv_color.h **** # define LV_COLOR_SET_B32(c, v) (c).ch.blue = (uint32_t)((v) & 0xFF);
 146:lvgl\src\lv_themes\../../src/lv_hal/../lv_misc/lv_color.h **** # define LV_COLOR_SET_A32(c, v) (c).ch.alpha = (uint32_t)((v) & 0xFF);
 147:lvgl\src\lv_themes\../../src/lv_hal/../lv_misc/lv_color.h **** 
 148:lvgl\src\lv_themes\../../src/lv_hal/../lv_misc/lv_color.h **** # define LV_COLOR_GET_R32(c) (c).ch.red
 149:lvgl\src\lv_themes\../../src/lv_hal/../lv_misc/lv_color.h **** # define LV_COLOR_GET_G32(c) (c).ch.green
 150:lvgl\src\lv_themes\../../src/lv_hal/../lv_misc/lv_color.h **** # define LV_COLOR_GET_B32(c) (c).ch.blue
 151:lvgl\src\lv_themes\../../src/lv_hal/../lv_misc/lv_color.h **** # define LV_COLOR_GET_A32(c) (c).ch.alpha
 152:lvgl\src\lv_themes\../../src/lv_hal/../lv_misc/lv_color.h **** 
 153:lvgl\src\lv_themes\../../src/lv_hal/../lv_misc/lv_color.h **** 
 154:lvgl\src\lv_themes\../../src/lv_hal/../lv_misc/lv_color.h **** /*---------------------------------------
 155:lvgl\src\lv_themes\../../src/lv_hal/../lv_misc/lv_color.h ****  * Macros for the current color depth
 156:lvgl\src\lv_themes\../../src/lv_hal/../lv_misc/lv_color.h ****  * to set/get values of the color channels
 157:lvgl\src\lv_themes\../../src/lv_hal/../lv_misc/lv_color.h ****  *------------------------------------------*/
 158:lvgl\src\lv_themes\../../src/lv_hal/../lv_misc/lv_color.h **** #if LV_COLOR_DEPTH == 1
 159:lvgl\src\lv_themes\../../src/lv_hal/../lv_misc/lv_color.h **** # define LV_COLOR_SET_R(c, v) LV_COLOR_SET_R1(c,v)
 160:lvgl\src\lv_themes\../../src/lv_hal/../lv_misc/lv_color.h **** # define LV_COLOR_SET_G(c, v) LV_COLOR_SET_G1(c,v)
 161:lvgl\src\lv_themes\../../src/lv_hal/../lv_misc/lv_color.h **** # define LV_COLOR_SET_B(c, v) LV_COLOR_SET_B1(c,v)
 162:lvgl\src\lv_themes\../../src/lv_hal/../lv_misc/lv_color.h **** # define LV_COLOR_SET_A(c, v) LV_COLOR_SET_A1(c,v)
 163:lvgl\src\lv_themes\../../src/lv_hal/../lv_misc/lv_color.h **** 
 164:lvgl\src\lv_themes\../../src/lv_hal/../lv_misc/lv_color.h **** # define LV_COLOR_GET_R(c) LV_COLOR_GET_R1(c)
 165:lvgl\src\lv_themes\../../src/lv_hal/../lv_misc/lv_color.h **** # define LV_COLOR_GET_G(c) LV_COLOR_GET_G1(c)
 166:lvgl\src\lv_themes\../../src/lv_hal/../lv_misc/lv_color.h **** # define LV_COLOR_GET_B(c) LV_COLOR_GET_B1(c)
 167:lvgl\src\lv_themes\../../src/lv_hal/../lv_misc/lv_color.h **** # define LV_COLOR_GET_A(c) LV_COLOR_GET_A1(c)
 168:lvgl\src\lv_themes\../../src/lv_hal/../lv_misc/lv_color.h **** 
 169:lvgl\src\lv_themes\../../src/lv_hal/../lv_misc/lv_color.h **** #elif LV_COLOR_DEPTH == 8
 170:lvgl\src\lv_themes\../../src/lv_hal/../lv_misc/lv_color.h **** # define LV_COLOR_SET_R(c, v) LV_COLOR_SET_R8(c,v)
 171:lvgl\src\lv_themes\../../src/lv_hal/../lv_misc/lv_color.h **** # define LV_COLOR_SET_G(c, v) LV_COLOR_SET_G8(c,v)
 172:lvgl\src\lv_themes\../../src/lv_hal/../lv_misc/lv_color.h **** # define LV_COLOR_SET_B(c, v) LV_COLOR_SET_B8(c,v)
 173:lvgl\src\lv_themes\../../src/lv_hal/../lv_misc/lv_color.h **** # define LV_COLOR_SET_A(c, v) LV_COLOR_SET_A8(c,v)
 174:lvgl\src\lv_themes\../../src/lv_hal/../lv_misc/lv_color.h **** 
 175:lvgl\src\lv_themes\../../src/lv_hal/../lv_misc/lv_color.h **** # define LV_COLOR_GET_R(c) LV_COLOR_GET_R8(c)
 176:lvgl\src\lv_themes\../../src/lv_hal/../lv_misc/lv_color.h **** # define LV_COLOR_GET_G(c) LV_COLOR_GET_G8(c)
 177:lvgl\src\lv_themes\../../src/lv_hal/../lv_misc/lv_color.h **** # define LV_COLOR_GET_B(c) LV_COLOR_GET_B8(c)
 178:lvgl\src\lv_themes\../../src/lv_hal/../lv_misc/lv_color.h **** # define LV_COLOR_GET_A(c) LV_COLOR_GET_A8(c)
 179:lvgl\src\lv_themes\../../src/lv_hal/../lv_misc/lv_color.h **** 
 180:lvgl\src\lv_themes\../../src/lv_hal/../lv_misc/lv_color.h **** #elif LV_COLOR_DEPTH == 16
 181:lvgl\src\lv_themes\../../src/lv_hal/../lv_misc/lv_color.h **** # define LV_COLOR_SET_R(c, v) LV_COLOR_SET_R16(c,v)
 182:lvgl\src\lv_themes\../../src/lv_hal/../lv_misc/lv_color.h **** # if LV_COLOR_16_SWAP == 0
 183:lvgl\src\lv_themes\../../src/lv_hal/../lv_misc/lv_color.h **** #   define LV_COLOR_SET_G(c, v) LV_COLOR_SET_G16(c,v)
 184:lvgl\src\lv_themes\../../src/lv_hal/../lv_misc/lv_color.h **** # else
 185:lvgl\src\lv_themes\../../src/lv_hal/../lv_misc/lv_color.h **** #   define LV_COLOR_SET_G(c, v) LV_COLOR_SET_G16_SWAP(c,v)
 186:lvgl\src\lv_themes\../../src/lv_hal/../lv_misc/lv_color.h **** # endif
 187:lvgl\src\lv_themes\../../src/lv_hal/../lv_misc/lv_color.h **** # define LV_COLOR_SET_B(c, v) LV_COLOR_SET_B16(c,v)
 188:lvgl\src\lv_themes\../../src/lv_hal/../lv_misc/lv_color.h **** # define LV_COLOR_SET_A(c, v) LV_COLOR_SET_A16(c,v)
 189:lvgl\src\lv_themes\../../src/lv_hal/../lv_misc/lv_color.h **** 
 190:lvgl\src\lv_themes\../../src/lv_hal/../lv_misc/lv_color.h **** # define LV_COLOR_GET_R(c) LV_COLOR_GET_R16(c)
 191:lvgl\src\lv_themes\../../src/lv_hal/../lv_misc/lv_color.h **** # if LV_COLOR_16_SWAP == 0
 192:lvgl\src\lv_themes\../../src/lv_hal/../lv_misc/lv_color.h **** #   define LV_COLOR_GET_G(c) LV_COLOR_GET_G16(c)
 193:lvgl\src\lv_themes\../../src/lv_hal/../lv_misc/lv_color.h **** # else
 194:lvgl\src\lv_themes\../../src/lv_hal/../lv_misc/lv_color.h **** #   define LV_COLOR_GET_G(c) LV_COLOR_GET_G16_SWAP(c)
ARM GAS  C:\Users\strap\AppData\Local\Temp\ccCyLI52.s 			page 54


 195:lvgl\src\lv_themes\../../src/lv_hal/../lv_misc/lv_color.h **** # endif
 196:lvgl\src\lv_themes\../../src/lv_hal/../lv_misc/lv_color.h **** # define LV_COLOR_GET_B(c)   LV_COLOR_GET_B16(c)
 197:lvgl\src\lv_themes\../../src/lv_hal/../lv_misc/lv_color.h **** # define LV_COLOR_GET_A(c)   LV_COLOR_GET_A16(c)
 198:lvgl\src\lv_themes\../../src/lv_hal/../lv_misc/lv_color.h **** 
 199:lvgl\src\lv_themes\../../src/lv_hal/../lv_misc/lv_color.h **** #elif LV_COLOR_DEPTH == 32
 200:lvgl\src\lv_themes\../../src/lv_hal/../lv_misc/lv_color.h **** # define LV_COLOR_SET_R(c, v) LV_COLOR_SET_R32(c,v)
 201:lvgl\src\lv_themes\../../src/lv_hal/../lv_misc/lv_color.h **** # define LV_COLOR_SET_G(c, v) LV_COLOR_SET_G32(c,v)
 202:lvgl\src\lv_themes\../../src/lv_hal/../lv_misc/lv_color.h **** # define LV_COLOR_SET_B(c, v) LV_COLOR_SET_B32(c,v)
 203:lvgl\src\lv_themes\../../src/lv_hal/../lv_misc/lv_color.h **** # define LV_COLOR_SET_A(c, v) LV_COLOR_SET_A32(c,v)
 204:lvgl\src\lv_themes\../../src/lv_hal/../lv_misc/lv_color.h **** 
 205:lvgl\src\lv_themes\../../src/lv_hal/../lv_misc/lv_color.h **** # define LV_COLOR_GET_R(c) LV_COLOR_GET_R32(c)
 206:lvgl\src\lv_themes\../../src/lv_hal/../lv_misc/lv_color.h **** # define LV_COLOR_GET_G(c) LV_COLOR_GET_G32(c)
 207:lvgl\src\lv_themes\../../src/lv_hal/../lv_misc/lv_color.h **** # define LV_COLOR_GET_B(c) LV_COLOR_GET_B32(c)
 208:lvgl\src\lv_themes\../../src/lv_hal/../lv_misc/lv_color.h **** # define LV_COLOR_GET_A(c) LV_COLOR_GET_A32(c)
 209:lvgl\src\lv_themes\../../src/lv_hal/../lv_misc/lv_color.h **** #endif
 210:lvgl\src\lv_themes\../../src/lv_hal/../lv_misc/lv_color.h **** 
 211:lvgl\src\lv_themes\../../src/lv_hal/../lv_misc/lv_color.h **** /**********************
 212:lvgl\src\lv_themes\../../src/lv_hal/../lv_misc/lv_color.h ****  *      TYPEDEFS
 213:lvgl\src\lv_themes\../../src/lv_hal/../lv_misc/lv_color.h ****  **********************/
 214:lvgl\src\lv_themes\../../src/lv_hal/../lv_misc/lv_color.h **** 
 215:lvgl\src\lv_themes\../../src/lv_hal/../lv_misc/lv_color.h **** typedef union {
 216:lvgl\src\lv_themes\../../src/lv_hal/../lv_misc/lv_color.h ****     uint8_t full; /*must be declared first to set all bits of byte via initializer list */
 217:lvgl\src\lv_themes\../../src/lv_hal/../lv_misc/lv_color.h ****     union {
 218:lvgl\src\lv_themes\../../src/lv_hal/../lv_misc/lv_color.h ****         uint8_t blue : 1;
 219:lvgl\src\lv_themes\../../src/lv_hal/../lv_misc/lv_color.h ****         uint8_t green : 1;
 220:lvgl\src\lv_themes\../../src/lv_hal/../lv_misc/lv_color.h ****         uint8_t red : 1;
 221:lvgl\src\lv_themes\../../src/lv_hal/../lv_misc/lv_color.h ****     } ch;
 222:lvgl\src\lv_themes\../../src/lv_hal/../lv_misc/lv_color.h **** } lv_color1_t;
 223:lvgl\src\lv_themes\../../src/lv_hal/../lv_misc/lv_color.h **** 
 224:lvgl\src\lv_themes\../../src/lv_hal/../lv_misc/lv_color.h **** typedef union {
 225:lvgl\src\lv_themes\../../src/lv_hal/../lv_misc/lv_color.h ****     struct {
 226:lvgl\src\lv_themes\../../src/lv_hal/../lv_misc/lv_color.h ****         uint8_t blue : 2;
 227:lvgl\src\lv_themes\../../src/lv_hal/../lv_misc/lv_color.h ****         uint8_t green : 3;
 228:lvgl\src\lv_themes\../../src/lv_hal/../lv_misc/lv_color.h ****         uint8_t red : 3;
 229:lvgl\src\lv_themes\../../src/lv_hal/../lv_misc/lv_color.h ****     } ch;
 230:lvgl\src\lv_themes\../../src/lv_hal/../lv_misc/lv_color.h ****     uint8_t full;
 231:lvgl\src\lv_themes\../../src/lv_hal/../lv_misc/lv_color.h **** } lv_color8_t;
 232:lvgl\src\lv_themes\../../src/lv_hal/../lv_misc/lv_color.h **** 
 233:lvgl\src\lv_themes\../../src/lv_hal/../lv_misc/lv_color.h **** typedef union {
 234:lvgl\src\lv_themes\../../src/lv_hal/../lv_misc/lv_color.h ****     struct {
 235:lvgl\src\lv_themes\../../src/lv_hal/../lv_misc/lv_color.h **** #if LV_COLOR_16_SWAP == 0
 236:lvgl\src\lv_themes\../../src/lv_hal/../lv_misc/lv_color.h ****         uint16_t blue : 5;
 237:lvgl\src\lv_themes\../../src/lv_hal/../lv_misc/lv_color.h ****         uint16_t green : 6;
 238:lvgl\src\lv_themes\../../src/lv_hal/../lv_misc/lv_color.h ****         uint16_t red : 5;
 239:lvgl\src\lv_themes\../../src/lv_hal/../lv_misc/lv_color.h **** #else
 240:lvgl\src\lv_themes\../../src/lv_hal/../lv_misc/lv_color.h ****         uint16_t green_h : 3;
 241:lvgl\src\lv_themes\../../src/lv_hal/../lv_misc/lv_color.h ****         uint16_t red : 5;
 242:lvgl\src\lv_themes\../../src/lv_hal/../lv_misc/lv_color.h ****         uint16_t blue : 5;
 243:lvgl\src\lv_themes\../../src/lv_hal/../lv_misc/lv_color.h ****         uint16_t green_l : 3;
 244:lvgl\src\lv_themes\../../src/lv_hal/../lv_misc/lv_color.h **** #endif
 245:lvgl\src\lv_themes\../../src/lv_hal/../lv_misc/lv_color.h ****     } ch;
 246:lvgl\src\lv_themes\../../src/lv_hal/../lv_misc/lv_color.h ****     uint16_t full;
 247:lvgl\src\lv_themes\../../src/lv_hal/../lv_misc/lv_color.h **** } lv_color16_t;
 248:lvgl\src\lv_themes\../../src/lv_hal/../lv_misc/lv_color.h **** 
 249:lvgl\src\lv_themes\../../src/lv_hal/../lv_misc/lv_color.h **** typedef union {
 250:lvgl\src\lv_themes\../../src/lv_hal/../lv_misc/lv_color.h ****     struct {
 251:lvgl\src\lv_themes\../../src/lv_hal/../lv_misc/lv_color.h ****         uint8_t blue;
ARM GAS  C:\Users\strap\AppData\Local\Temp\ccCyLI52.s 			page 55


 252:lvgl\src\lv_themes\../../src/lv_hal/../lv_misc/lv_color.h ****         uint8_t green;
 253:lvgl\src\lv_themes\../../src/lv_hal/../lv_misc/lv_color.h ****         uint8_t red;
 254:lvgl\src\lv_themes\../../src/lv_hal/../lv_misc/lv_color.h ****         uint8_t alpha;
 255:lvgl\src\lv_themes\../../src/lv_hal/../lv_misc/lv_color.h ****     } ch;
 256:lvgl\src\lv_themes\../../src/lv_hal/../lv_misc/lv_color.h ****     uint32_t full;
 257:lvgl\src\lv_themes\../../src/lv_hal/../lv_misc/lv_color.h **** } lv_color32_t;
 258:lvgl\src\lv_themes\../../src/lv_hal/../lv_misc/lv_color.h **** 
 259:lvgl\src\lv_themes\../../src/lv_hal/../lv_misc/lv_color.h **** #if LV_COLOR_DEPTH == 1
 260:lvgl\src\lv_themes\../../src/lv_hal/../lv_misc/lv_color.h **** typedef uint8_t lv_color_int_t;
 261:lvgl\src\lv_themes\../../src/lv_hal/../lv_misc/lv_color.h **** typedef lv_color1_t lv_color_t;
 262:lvgl\src\lv_themes\../../src/lv_hal/../lv_misc/lv_color.h **** #define _LV_COLOR_ZERO_INITIALIZER {0x00}
 263:lvgl\src\lv_themes\../../src/lv_hal/../lv_misc/lv_color.h **** #elif LV_COLOR_DEPTH == 8
 264:lvgl\src\lv_themes\../../src/lv_hal/../lv_misc/lv_color.h **** typedef uint8_t lv_color_int_t;
 265:lvgl\src\lv_themes\../../src/lv_hal/../lv_misc/lv_color.h **** typedef lv_color8_t lv_color_t;
 266:lvgl\src\lv_themes\../../src/lv_hal/../lv_misc/lv_color.h **** #define _LV_COLOR_ZERO_INITIALIZER {{0x00, 0x00, 0x00}}
 267:lvgl\src\lv_themes\../../src/lv_hal/../lv_misc/lv_color.h **** #elif LV_COLOR_DEPTH == 16
 268:lvgl\src\lv_themes\../../src/lv_hal/../lv_misc/lv_color.h **** typedef uint16_t lv_color_int_t;
 269:lvgl\src\lv_themes\../../src/lv_hal/../lv_misc/lv_color.h **** typedef lv_color16_t lv_color_t;
 270:lvgl\src\lv_themes\../../src/lv_hal/../lv_misc/lv_color.h **** #define _LV_COLOR_ZERO_INITIALIZER {{0x00, 0x00, 0x00}}
 271:lvgl\src\lv_themes\../../src/lv_hal/../lv_misc/lv_color.h **** #elif LV_COLOR_DEPTH == 32
 272:lvgl\src\lv_themes\../../src/lv_hal/../lv_misc/lv_color.h **** typedef uint32_t lv_color_int_t;
 273:lvgl\src\lv_themes\../../src/lv_hal/../lv_misc/lv_color.h **** typedef lv_color32_t lv_color_t;
 274:lvgl\src\lv_themes\../../src/lv_hal/../lv_misc/lv_color.h **** #define _LV_COLOR_ZERO_INITIALIZER {{0x00, 0x00, 0x00, 0x00}}
 275:lvgl\src\lv_themes\../../src/lv_hal/../lv_misc/lv_color.h **** #else
 276:lvgl\src\lv_themes\../../src/lv_hal/../lv_misc/lv_color.h **** #error "Invalid LV_COLOR_DEPTH in lv_conf.h! Set it to 1, 8, 16 or 32!"
 277:lvgl\src\lv_themes\../../src/lv_hal/../lv_misc/lv_color.h **** #endif
 278:lvgl\src\lv_themes\../../src/lv_hal/../lv_misc/lv_color.h **** 
 279:lvgl\src\lv_themes\../../src/lv_hal/../lv_misc/lv_color.h **** 
 280:lvgl\src\lv_themes\../../src/lv_hal/../lv_misc/lv_color.h **** typedef struct {
 281:lvgl\src\lv_themes\../../src/lv_hal/../lv_misc/lv_color.h ****     uint16_t h;
 282:lvgl\src\lv_themes\../../src/lv_hal/../lv_misc/lv_color.h ****     uint8_t s;
 283:lvgl\src\lv_themes\../../src/lv_hal/../lv_misc/lv_color.h ****     uint8_t v;
 284:lvgl\src\lv_themes\../../src/lv_hal/../lv_misc/lv_color.h **** } lv_color_hsv_t;
 285:lvgl\src\lv_themes\../../src/lv_hal/../lv_misc/lv_color.h **** 
 286:lvgl\src\lv_themes\../../src/lv_hal/../lv_misc/lv_color.h **** //! @cond Doxygen_Suppress
 287:lvgl\src\lv_themes\../../src/lv_hal/../lv_misc/lv_color.h **** /*No idea where the guard is required but else throws warnings in the docs*/
 288:lvgl\src\lv_themes\../../src/lv_hal/../lv_misc/lv_color.h **** typedef uint8_t lv_opa_t;
 289:lvgl\src\lv_themes\../../src/lv_hal/../lv_misc/lv_color.h **** //! @endcond
 290:lvgl\src\lv_themes\../../src/lv_hal/../lv_misc/lv_color.h **** 
 291:lvgl\src\lv_themes\../../src/lv_hal/../lv_misc/lv_color.h **** /**********************
 292:lvgl\src\lv_themes\../../src/lv_hal/../lv_misc/lv_color.h ****  * GLOBAL PROTOTYPES
 293:lvgl\src\lv_themes\../../src/lv_hal/../lv_misc/lv_color.h ****  **********************/
 294:lvgl\src\lv_themes\../../src/lv_hal/../lv_misc/lv_color.h **** 
 295:lvgl\src\lv_themes\../../src/lv_hal/../lv_misc/lv_color.h **** /*In color conversations:
 296:lvgl\src\lv_themes\../../src/lv_hal/../lv_misc/lv_color.h ****  * - When converting to bigger color type the LSB weight of 1 LSB is calculated
 297:lvgl\src\lv_themes\../../src/lv_hal/../lv_misc/lv_color.h ****  *   E.g. 16 bit Red has 5 bits
 298:lvgl\src\lv_themes\../../src/lv_hal/../lv_misc/lv_color.h ****  *         8 bit Red has 2 bits
 299:lvgl\src\lv_themes\../../src/lv_hal/../lv_misc/lv_color.h ****  *        ----------------------
 300:lvgl\src\lv_themes\../../src/lv_hal/../lv_misc/lv_color.h ****  *        8 bit red LSB = (2^5 - 1) / (2^2 - 1) = 31 / 3 = 10
 301:lvgl\src\lv_themes\../../src/lv_hal/../lv_misc/lv_color.h ****  *
 302:lvgl\src\lv_themes\../../src/lv_hal/../lv_misc/lv_color.h ****  * - When calculating to smaller color type simply shift out the LSBs
 303:lvgl\src\lv_themes\../../src/lv_hal/../lv_misc/lv_color.h ****  *   E.g.  8 bit Red has 2 bits
 304:lvgl\src\lv_themes\../../src/lv_hal/../lv_misc/lv_color.h ****  *        16 bit Red has 5 bits
 305:lvgl\src\lv_themes\../../src/lv_hal/../lv_misc/lv_color.h ****  *        ----------------------
 306:lvgl\src\lv_themes\../../src/lv_hal/../lv_misc/lv_color.h ****  *         Shift right with 5 - 3 = 2
 307:lvgl\src\lv_themes\../../src/lv_hal/../lv_misc/lv_color.h ****  */
 308:lvgl\src\lv_themes\../../src/lv_hal/../lv_misc/lv_color.h **** static inline uint8_t lv_color_to1(lv_color_t color)
ARM GAS  C:\Users\strap\AppData\Local\Temp\ccCyLI52.s 			page 56


 309:lvgl\src\lv_themes\../../src/lv_hal/../lv_misc/lv_color.h **** {
 310:lvgl\src\lv_themes\../../src/lv_hal/../lv_misc/lv_color.h **** #if LV_COLOR_DEPTH == 1
 311:lvgl\src\lv_themes\../../src/lv_hal/../lv_misc/lv_color.h ****     return color.full;
 312:lvgl\src\lv_themes\../../src/lv_hal/../lv_misc/lv_color.h **** #elif LV_COLOR_DEPTH == 8
 313:lvgl\src\lv_themes\../../src/lv_hal/../lv_misc/lv_color.h ****     if((LV_COLOR_GET_R(color) & 0x4) || (LV_COLOR_GET_G(color) & 0x4) || (LV_COLOR_GET_B(color) & 0
 314:lvgl\src\lv_themes\../../src/lv_hal/../lv_misc/lv_color.h ****         return 1;
 315:lvgl\src\lv_themes\../../src/lv_hal/../lv_misc/lv_color.h ****     }
 316:lvgl\src\lv_themes\../../src/lv_hal/../lv_misc/lv_color.h ****     else {
 317:lvgl\src\lv_themes\../../src/lv_hal/../lv_misc/lv_color.h ****         return 0;
 318:lvgl\src\lv_themes\../../src/lv_hal/../lv_misc/lv_color.h ****     }
 319:lvgl\src\lv_themes\../../src/lv_hal/../lv_misc/lv_color.h **** #elif LV_COLOR_DEPTH == 16
 320:lvgl\src\lv_themes\../../src/lv_hal/../lv_misc/lv_color.h ****     if((LV_COLOR_GET_R(color) & 0x10) || (LV_COLOR_GET_G(color) & 0x20) || (LV_COLOR_GET_B(color) &
 321:lvgl\src\lv_themes\../../src/lv_hal/../lv_misc/lv_color.h ****         return 1;
 322:lvgl\src\lv_themes\../../src/lv_hal/../lv_misc/lv_color.h ****     }
 323:lvgl\src\lv_themes\../../src/lv_hal/../lv_misc/lv_color.h ****     else {
 324:lvgl\src\lv_themes\../../src/lv_hal/../lv_misc/lv_color.h ****         return 0;
 325:lvgl\src\lv_themes\../../src/lv_hal/../lv_misc/lv_color.h ****     }
 326:lvgl\src\lv_themes\../../src/lv_hal/../lv_misc/lv_color.h **** #elif LV_COLOR_DEPTH == 32
 327:lvgl\src\lv_themes\../../src/lv_hal/../lv_misc/lv_color.h ****     if((LV_COLOR_GET_R(color) & 0x80) || (LV_COLOR_GET_G(color) & 0x80) || (LV_COLOR_GET_B(color) &
 328:lvgl\src\lv_themes\../../src/lv_hal/../lv_misc/lv_color.h ****         return 1;
 329:lvgl\src\lv_themes\../../src/lv_hal/../lv_misc/lv_color.h ****     }
 330:lvgl\src\lv_themes\../../src/lv_hal/../lv_misc/lv_color.h ****     else {
 331:lvgl\src\lv_themes\../../src/lv_hal/../lv_misc/lv_color.h ****         return 0;
 332:lvgl\src\lv_themes\../../src/lv_hal/../lv_misc/lv_color.h ****     }
 333:lvgl\src\lv_themes\../../src/lv_hal/../lv_misc/lv_color.h **** #endif
 334:lvgl\src\lv_themes\../../src/lv_hal/../lv_misc/lv_color.h **** }
 335:lvgl\src\lv_themes\../../src/lv_hal/../lv_misc/lv_color.h **** 
 336:lvgl\src\lv_themes\../../src/lv_hal/../lv_misc/lv_color.h **** static inline uint8_t lv_color_to8(lv_color_t color)
 337:lvgl\src\lv_themes\../../src/lv_hal/../lv_misc/lv_color.h **** {
 338:lvgl\src\lv_themes\../../src/lv_hal/../lv_misc/lv_color.h **** #if LV_COLOR_DEPTH == 1
 339:lvgl\src\lv_themes\../../src/lv_hal/../lv_misc/lv_color.h ****     if(color.full == 0)
 340:lvgl\src\lv_themes\../../src/lv_hal/../lv_misc/lv_color.h ****         return 0;
 341:lvgl\src\lv_themes\../../src/lv_hal/../lv_misc/lv_color.h ****     else
 342:lvgl\src\lv_themes\../../src/lv_hal/../lv_misc/lv_color.h ****         return 0xFF;
 343:lvgl\src\lv_themes\../../src/lv_hal/../lv_misc/lv_color.h **** #elif LV_COLOR_DEPTH == 8
 344:lvgl\src\lv_themes\../../src/lv_hal/../lv_misc/lv_color.h ****     return color.full;
 345:lvgl\src\lv_themes\../../src/lv_hal/../lv_misc/lv_color.h **** #elif LV_COLOR_DEPTH == 16
 346:lvgl\src\lv_themes\../../src/lv_hal/../lv_misc/lv_color.h ****     lv_color8_t ret;
 347:lvgl\src\lv_themes\../../src/lv_hal/../lv_misc/lv_color.h ****     LV_COLOR_SET_R8(ret, LV_COLOR_GET_R(color) >> 2);   /* 5 - 3  = 2*/
 348:lvgl\src\lv_themes\../../src/lv_hal/../lv_misc/lv_color.h ****     LV_COLOR_SET_G8(ret, LV_COLOR_GET_G(color) >> 3); /* 6 - 3  = 3*/
 349:lvgl\src\lv_themes\../../src/lv_hal/../lv_misc/lv_color.h ****     LV_COLOR_SET_B8(ret, LV_COLOR_GET_B(color) >> 3);  /* 5 - 2  = 3*/
 350:lvgl\src\lv_themes\../../src/lv_hal/../lv_misc/lv_color.h ****     return ret.full;
 351:lvgl\src\lv_themes\../../src/lv_hal/../lv_misc/lv_color.h **** #elif LV_COLOR_DEPTH == 32
 352:lvgl\src\lv_themes\../../src/lv_hal/../lv_misc/lv_color.h ****     lv_color8_t ret;
 353:lvgl\src\lv_themes\../../src/lv_hal/../lv_misc/lv_color.h ****     LV_COLOR_SET_R8(ret, LV_COLOR_GET_R(color) >> 5);   /* 8 - 3  = 5*/
 354:lvgl\src\lv_themes\../../src/lv_hal/../lv_misc/lv_color.h ****     LV_COLOR_SET_G8(ret, LV_COLOR_GET_G(color) >> 5); /* 8 - 3  = 5*/
 355:lvgl\src\lv_themes\../../src/lv_hal/../lv_misc/lv_color.h ****     LV_COLOR_SET_B8(ret, LV_COLOR_GET_B(color) >> 6);  /* 8 - 2  = 6*/
 356:lvgl\src\lv_themes\../../src/lv_hal/../lv_misc/lv_color.h ****     return ret.full;
 357:lvgl\src\lv_themes\../../src/lv_hal/../lv_misc/lv_color.h **** #endif
 358:lvgl\src\lv_themes\../../src/lv_hal/../lv_misc/lv_color.h **** }
 359:lvgl\src\lv_themes\../../src/lv_hal/../lv_misc/lv_color.h **** 
 360:lvgl\src\lv_themes\../../src/lv_hal/../lv_misc/lv_color.h **** static inline uint16_t lv_color_to16(lv_color_t color)
 361:lvgl\src\lv_themes\../../src/lv_hal/../lv_misc/lv_color.h **** {
 362:lvgl\src\lv_themes\../../src/lv_hal/../lv_misc/lv_color.h **** #if LV_COLOR_DEPTH == 1
 363:lvgl\src\lv_themes\../../src/lv_hal/../lv_misc/lv_color.h ****     if(color.full == 0)
 364:lvgl\src\lv_themes\../../src/lv_hal/../lv_misc/lv_color.h ****         return 0;
 365:lvgl\src\lv_themes\../../src/lv_hal/../lv_misc/lv_color.h ****     else
ARM GAS  C:\Users\strap\AppData\Local\Temp\ccCyLI52.s 			page 57


 366:lvgl\src\lv_themes\../../src/lv_hal/../lv_misc/lv_color.h ****         return 0xFFFF;
 367:lvgl\src\lv_themes\../../src/lv_hal/../lv_misc/lv_color.h **** #elif LV_COLOR_DEPTH == 8
 368:lvgl\src\lv_themes\../../src/lv_hal/../lv_misc/lv_color.h ****     lv_color16_t ret;
 369:lvgl\src\lv_themes\../../src/lv_hal/../lv_misc/lv_color.h ****     LV_COLOR_SET_R16(ret, LV_COLOR_GET_R(color) * 4);     /*(2^5 - 1)/(2^3 - 1) = 31/7 = 4*/
 370:lvgl\src\lv_themes\../../src/lv_hal/../lv_misc/lv_color.h **** #if LV_COLOR_16_SWAP == 0
 371:lvgl\src\lv_themes\../../src/lv_hal/../lv_misc/lv_color.h ****     LV_COLOR_SET_G16(ret,  LV_COLOR_GET_G(color) * 9); /*(2^6 - 1)/(2^3 - 1) = 63/7 = 9*/
 372:lvgl\src\lv_themes\../../src/lv_hal/../lv_misc/lv_color.h **** #else
 373:lvgl\src\lv_themes\../../src/lv_hal/../lv_misc/lv_color.h ****     LV_COLOR_SET_G16_SWAP(ret, (LV_COLOR_GET_G(color) * 9)); /*(2^6 - 1)/(2^3 - 1) = 63/7 = 9*/
 374:lvgl\src\lv_themes\../../src/lv_hal/../lv_misc/lv_color.h **** #endif
 375:lvgl\src\lv_themes\../../src/lv_hal/../lv_misc/lv_color.h ****     LV_COLOR_SET_B16(ret, LV_COLOR_GET_B(color) * 10);  /*(2^5 - 1)/(2^2 - 1) = 31/3 = 10*/
 376:lvgl\src\lv_themes\../../src/lv_hal/../lv_misc/lv_color.h ****     return ret.full;
 377:lvgl\src\lv_themes\../../src/lv_hal/../lv_misc/lv_color.h **** #elif LV_COLOR_DEPTH == 16
 378:lvgl\src\lv_themes\../../src/lv_hal/../lv_misc/lv_color.h ****     return color.full;
 379:lvgl\src\lv_themes\../../src/lv_hal/../lv_misc/lv_color.h **** #elif LV_COLOR_DEPTH == 32
 380:lvgl\src\lv_themes\../../src/lv_hal/../lv_misc/lv_color.h ****     lv_color16_t ret;
 381:lvgl\src\lv_themes\../../src/lv_hal/../lv_misc/lv_color.h ****     LV_COLOR_SET_R16(ret, LV_COLOR_GET_R(color) >> 3);   /* 8 - 5  = 3*/
 382:lvgl\src\lv_themes\../../src/lv_hal/../lv_misc/lv_color.h **** 
 383:lvgl\src\lv_themes\../../src/lv_hal/../lv_misc/lv_color.h **** #if LV_COLOR_16_SWAP == 0
 384:lvgl\src\lv_themes\../../src/lv_hal/../lv_misc/lv_color.h ****     LV_COLOR_SET_G16(ret, LV_COLOR_GET_G(color) >> 2); /* 8 - 6  = 2*/
 385:lvgl\src\lv_themes\../../src/lv_hal/../lv_misc/lv_color.h **** #else
 386:lvgl\src\lv_themes\../../src/lv_hal/../lv_misc/lv_color.h ****     LV_COLOR_SET_G16_SWAP(ret, ret.ch.green_h = (LV_COLOR_GET_G(color) >> 2); /*(2^6 - 1)/(2^3 - 1)
 387:lvgl\src\lv_themes\../../src/lv_hal/../lv_misc/lv_color.h **** #endif
 388:lvgl\src\lv_themes\../../src/lv_hal/../lv_misc/lv_color.h ****     LV_COLOR_SET_B16(ret, LV_COLOR_GET_B(color) >> 3);  /* 8 - 5  = 3*/
 389:lvgl\src\lv_themes\../../src/lv_hal/../lv_misc/lv_color.h ****     return ret.full;
 390:lvgl\src\lv_themes\../../src/lv_hal/../lv_misc/lv_color.h **** #endif
 391:lvgl\src\lv_themes\../../src/lv_hal/../lv_misc/lv_color.h **** }
 392:lvgl\src\lv_themes\../../src/lv_hal/../lv_misc/lv_color.h **** 
 393:lvgl\src\lv_themes\../../src/lv_hal/../lv_misc/lv_color.h **** static inline uint32_t lv_color_to32(lv_color_t color)
 394:lvgl\src\lv_themes\../../src/lv_hal/../lv_misc/lv_color.h **** {
 395:lvgl\src\lv_themes\../../src/lv_hal/../lv_misc/lv_color.h **** #if LV_COLOR_DEPTH == 1
 396:lvgl\src\lv_themes\../../src/lv_hal/../lv_misc/lv_color.h ****     if(color.full == 0)
 397:lvgl\src\lv_themes\../../src/lv_hal/../lv_misc/lv_color.h ****         return 0xFF000000;
 398:lvgl\src\lv_themes\../../src/lv_hal/../lv_misc/lv_color.h ****     else
 399:lvgl\src\lv_themes\../../src/lv_hal/../lv_misc/lv_color.h ****         return 0xFFFFFFFF;
 400:lvgl\src\lv_themes\../../src/lv_hal/../lv_misc/lv_color.h **** #elif LV_COLOR_DEPTH == 8
 401:lvgl\src\lv_themes\../../src/lv_hal/../lv_misc/lv_color.h ****     lv_color32_t ret;
 402:lvgl\src\lv_themes\../../src/lv_hal/../lv_misc/lv_color.h ****     LV_COLOR_SET_R32(ret, LV_COLOR_GET_R(color) * 36);     /*(2^8 - 1)/(2^3 - 1) = 255/7 = 36*/
 403:lvgl\src\lv_themes\../../src/lv_hal/../lv_misc/lv_color.h ****     LV_COLOR_SET_G32(ret, LV_COLOR_GET_G(color) * 36); /*(2^8 - 1)/(2^3 - 1) = 255/7 = 36*/
 404:lvgl\src\lv_themes\../../src/lv_hal/../lv_misc/lv_color.h ****     LV_COLOR_SET_B32(ret, LV_COLOR_GET_B(color) * 85);   /*(2^8 - 1)/(2^2 - 1) = 255/3 = 85*/
 405:lvgl\src\lv_themes\../../src/lv_hal/../lv_misc/lv_color.h ****     LV_COLOR_SET_A32(ret, 0xFF);
 406:lvgl\src\lv_themes\../../src/lv_hal/../lv_misc/lv_color.h ****     return ret.full;
 407:lvgl\src\lv_themes\../../src/lv_hal/../lv_misc/lv_color.h **** #elif LV_COLOR_DEPTH == 16
 408:lvgl\src\lv_themes\../../src/lv_hal/../lv_misc/lv_color.h ****     /**
 409:lvgl\src\lv_themes\../../src/lv_hal/../lv_misc/lv_color.h ****      * The floating point math for conversion is:
 410:lvgl\src\lv_themes\../../src/lv_hal/../lv_misc/lv_color.h ****      *  valueto = valuefrom * ( (2^bitsto - 1) / (float)(2^bitsfrom - 1) )
 411:lvgl\src\lv_themes\../../src/lv_hal/../lv_misc/lv_color.h ****      * The faster integer math for conversion is:
 412:lvgl\src\lv_themes\../../src/lv_hal/../lv_misc/lv_color.h ****      *  valueto = ( valuefrom * multiplier + adder ) >> divisor
 413:lvgl\src\lv_themes\../../src/lv_hal/../lv_misc/lv_color.h ****      *   multiplier = FLOOR( ( (2^bitsto - 1) << divisor ) / (float)(2^bitsfrom - 1) )
 414:lvgl\src\lv_themes\../../src/lv_hal/../lv_misc/lv_color.h ****      *
 415:lvgl\src\lv_themes\../../src/lv_hal/../lv_misc/lv_color.h ****      * Find the first divisor where ( adder >> divisor ) <= 0
 416:lvgl\src\lv_themes\../../src/lv_hal/../lv_misc/lv_color.h ****      *
 417:lvgl\src\lv_themes\../../src/lv_hal/../lv_misc/lv_color.h ****      * 5-bit to 8-bit: ( 31 * multiplier + adder ) >> divisor = 255
 418:lvgl\src\lv_themes\../../src/lv_hal/../lv_misc/lv_color.h ****      * divisor  multiplier  adder  min (0)  max (31)
 419:lvgl\src\lv_themes\../../src/lv_hal/../lv_misc/lv_color.h ****      *       0           8      7        7       255
 420:lvgl\src\lv_themes\../../src/lv_hal/../lv_misc/lv_color.h ****      *       1          16     14        7       255
 421:lvgl\src\lv_themes\../../src/lv_hal/../lv_misc/lv_color.h ****      *       2          32     28        7       255
 422:lvgl\src\lv_themes\../../src/lv_hal/../lv_misc/lv_color.h ****      *       3          65     25        3       255
ARM GAS  C:\Users\strap\AppData\Local\Temp\ccCyLI52.s 			page 58


 423:lvgl\src\lv_themes\../../src/lv_hal/../lv_misc/lv_color.h ****      *       4         131     19        1       255
 424:lvgl\src\lv_themes\../../src/lv_hal/../lv_misc/lv_color.h ****      *       5         263      7        0       255
 425:lvgl\src\lv_themes\../../src/lv_hal/../lv_misc/lv_color.h ****      *
 426:lvgl\src\lv_themes\../../src/lv_hal/../lv_misc/lv_color.h ****      * 6-bit to 8-bit: 255 = ( 63 * multiplier + adder ) >> divisor
 427:lvgl\src\lv_themes\../../src/lv_hal/../lv_misc/lv_color.h ****      * divisor  multiplier  adder  min (0)  max (63)
 428:lvgl\src\lv_themes\../../src/lv_hal/../lv_misc/lv_color.h ****      *       0           4      3        3       255
 429:lvgl\src\lv_themes\../../src/lv_hal/../lv_misc/lv_color.h ****      *       1           8      6        3       255
 430:lvgl\src\lv_themes\../../src/lv_hal/../lv_misc/lv_color.h ****      *       2          16     12        3       255
 431:lvgl\src\lv_themes\../../src/lv_hal/../lv_misc/lv_color.h ****      *       3          32     24        3       255
 432:lvgl\src\lv_themes\../../src/lv_hal/../lv_misc/lv_color.h ****      *       4          64     48        3       255
 433:lvgl\src\lv_themes\../../src/lv_hal/../lv_misc/lv_color.h ****      *       5         129     33        1       255
 434:lvgl\src\lv_themes\../../src/lv_hal/../lv_misc/lv_color.h ****      *       6         259      3        0       255
 435:lvgl\src\lv_themes\../../src/lv_hal/../lv_misc/lv_color.h ****      */
