ARM GAS  C:\Users\strap\AppData\Local\Temp\ccojJEGJ.s 			page 1


   1              		.syntax unified
   2              		.cpu cortex-m3
   3              		.fpu softvfp
   4              		.eabi_attribute 20, 1
   5              		.eabi_attribute 21, 1
   6              		.eabi_attribute 23, 3
   7              		.eabi_attribute 24, 1
   8              		.eabi_attribute 25, 1
   9              		.eabi_attribute 26, 1
  10              		.eabi_attribute 30, 1
  11              		.eabi_attribute 34, 1
  12              		.eabi_attribute 18, 4
  13              		.thumb
  14              		.syntax unified
  15              		.file	"lv_theme.c"
  16              		.text
  17              	.Ltext0:
  18              		.cfi_sections	.debug_frame
  19              		.section	.text.apply_theme,"ax",%progbits
  20              		.align	2
  21              		.thumb
  22              		.thumb_func
  23              		.type	apply_theme, %function
  24              	apply_theme:
  25              	.LFB388:
  26              		.file 1 "lvgl\\src\\lv_themes\\lv_theme.c"
   1:lvgl\src\lv_themes/lv_theme.c **** /**
   2:lvgl\src\lv_themes/lv_theme.c ****  * @file lv_theme.c
   3:lvgl\src\lv_themes/lv_theme.c ****  *
   4:lvgl\src\lv_themes/lv_theme.c ****  */
   5:lvgl\src\lv_themes/lv_theme.c **** 
   6:lvgl\src\lv_themes/lv_theme.c **** /*********************
   7:lvgl\src\lv_themes/lv_theme.c ****  *      INCLUDES
   8:lvgl\src\lv_themes/lv_theme.c ****  *********************/
   9:lvgl\src\lv_themes/lv_theme.c **** #include "../../lvgl.h"
  10:lvgl\src\lv_themes/lv_theme.c **** 
  11:lvgl\src\lv_themes/lv_theme.c **** /*********************
  12:lvgl\src\lv_themes/lv_theme.c ****  *      DEFINES
  13:lvgl\src\lv_themes/lv_theme.c ****  *********************/
  14:lvgl\src\lv_themes/lv_theme.c **** 
  15:lvgl\src\lv_themes/lv_theme.c **** /**********************
  16:lvgl\src\lv_themes/lv_theme.c ****  *      TYPEDEFS
  17:lvgl\src\lv_themes/lv_theme.c ****  **********************/
  18:lvgl\src\lv_themes/lv_theme.c **** 
  19:lvgl\src\lv_themes/lv_theme.c **** /**********************
  20:lvgl\src\lv_themes/lv_theme.c ****  *  STATIC PROTOTYPES
  21:lvgl\src\lv_themes/lv_theme.c ****  **********************/
  22:lvgl\src\lv_themes/lv_theme.c **** static void apply_theme(lv_theme_t * th, lv_obj_t * obj, lv_theme_style_t name);
  23:lvgl\src\lv_themes/lv_theme.c **** static void clear_styles(lv_obj_t * obj, lv_theme_style_t name);
  24:lvgl\src\lv_themes/lv_theme.c **** 
  25:lvgl\src\lv_themes/lv_theme.c **** /**********************
  26:lvgl\src\lv_themes/lv_theme.c ****  *  STATIC VARIABLES
  27:lvgl\src\lv_themes/lv_theme.c ****  **********************/
  28:lvgl\src\lv_themes/lv_theme.c **** static lv_theme_t * act_theme;
  29:lvgl\src\lv_themes/lv_theme.c **** 
  30:lvgl\src\lv_themes/lv_theme.c **** /**********************
  31:lvgl\src\lv_themes/lv_theme.c ****  *      MACROS
ARM GAS  C:\Users\strap\AppData\Local\Temp\ccojJEGJ.s 			page 2


  32:lvgl\src\lv_themes/lv_theme.c ****  **********************/
  33:lvgl\src\lv_themes/lv_theme.c **** 
  34:lvgl\src\lv_themes/lv_theme.c **** /**********************
  35:lvgl\src\lv_themes/lv_theme.c ****  *   GLOBAL FUNCTIONS
  36:lvgl\src\lv_themes/lv_theme.c ****  **********************/
  37:lvgl\src\lv_themes/lv_theme.c **** 
  38:lvgl\src\lv_themes/lv_theme.c **** /**
  39:lvgl\src\lv_themes/lv_theme.c ****  * Set a theme for the system.
  40:lvgl\src\lv_themes/lv_theme.c ****  * From now, all the created objects will use styles from this theme by default
  41:lvgl\src\lv_themes/lv_theme.c ****  * @param th pointer to theme (return value of: 'lv_theme_init_xxx()')
  42:lvgl\src\lv_themes/lv_theme.c ****  */
  43:lvgl\src\lv_themes/lv_theme.c **** void lv_theme_set_act(lv_theme_t * th)
  44:lvgl\src\lv_themes/lv_theme.c **** {
  45:lvgl\src\lv_themes/lv_theme.c ****     act_theme = th;
  46:lvgl\src\lv_themes/lv_theme.c **** }
  47:lvgl\src\lv_themes/lv_theme.c **** 
  48:lvgl\src\lv_themes/lv_theme.c **** /**
  49:lvgl\src\lv_themes/lv_theme.c ****  * Get the current system theme.
  50:lvgl\src\lv_themes/lv_theme.c ****  * @return pointer to the current system theme. NULL if not set.
  51:lvgl\src\lv_themes/lv_theme.c ****  */
  52:lvgl\src\lv_themes/lv_theme.c **** lv_theme_t * lv_theme_get_act(void)
  53:lvgl\src\lv_themes/lv_theme.c **** {
  54:lvgl\src\lv_themes/lv_theme.c ****     return act_theme;
  55:lvgl\src\lv_themes/lv_theme.c **** }
  56:lvgl\src\lv_themes/lv_theme.c **** 
  57:lvgl\src\lv_themes/lv_theme.c **** /**
  58:lvgl\src\lv_themes/lv_theme.c ****  * Apply the active theme on an object
  59:lvgl\src\lv_themes/lv_theme.c ****  * @param obj pointer to an object
  60:lvgl\src\lv_themes/lv_theme.c ****  * @param name the name of the theme element to apply. E.g. `LV_THEME_BTN`
  61:lvgl\src\lv_themes/lv_theme.c ****  */
  62:lvgl\src\lv_themes/lv_theme.c **** void lv_theme_apply(lv_obj_t * obj, lv_theme_style_t name)
  63:lvgl\src\lv_themes/lv_theme.c **** {
  64:lvgl\src\lv_themes/lv_theme.c ****     /* Remove the existing styles from all part of the object. */
  65:lvgl\src\lv_themes/lv_theme.c ****     clear_styles(obj, name);
  66:lvgl\src\lv_themes/lv_theme.c **** 
  67:lvgl\src\lv_themes/lv_theme.c ****     /*Apply the theme including the base theme(s)*/
  68:lvgl\src\lv_themes/lv_theme.c **** 
  69:lvgl\src\lv_themes/lv_theme.c ****     apply_theme(act_theme, obj, name);
  70:lvgl\src\lv_themes/lv_theme.c **** }
  71:lvgl\src\lv_themes/lv_theme.c **** 
  72:lvgl\src\lv_themes/lv_theme.c **** /**
  73:lvgl\src\lv_themes/lv_theme.c ****  * Copy a theme to an other or initialize a theme
  74:lvgl\src\lv_themes/lv_theme.c ****  * @param theme pointer to a theme to initialize
  75:lvgl\src\lv_themes/lv_theme.c ****  * @param copy pointer to a theme to copy
  76:lvgl\src\lv_themes/lv_theme.c ****  *             or `NULL` to initialize `theme` to empty
  77:lvgl\src\lv_themes/lv_theme.c ****  */
  78:lvgl\src\lv_themes/lv_theme.c **** void lv_theme_copy(lv_theme_t * theme, const lv_theme_t * copy)
  79:lvgl\src\lv_themes/lv_theme.c **** {
  80:lvgl\src\lv_themes/lv_theme.c ****     _lv_memset_00(theme, sizeof(lv_theme_t));
  81:lvgl\src\lv_themes/lv_theme.c **** 
  82:lvgl\src\lv_themes/lv_theme.c ****     if(copy) {
  83:lvgl\src\lv_themes/lv_theme.c ****         theme->font_small = copy->font_small;
  84:lvgl\src\lv_themes/lv_theme.c ****         theme->font_normal = copy->font_normal;
  85:lvgl\src\lv_themes/lv_theme.c ****         theme->font_subtitle = copy->font_subtitle;
  86:lvgl\src\lv_themes/lv_theme.c ****         theme->font_title = copy->font_title;
  87:lvgl\src\lv_themes/lv_theme.c ****         theme->color_primary = copy->color_primary;
  88:lvgl\src\lv_themes/lv_theme.c ****         theme->color_secondary = copy->color_secondary;
ARM GAS  C:\Users\strap\AppData\Local\Temp\ccojJEGJ.s 			page 3


  89:lvgl\src\lv_themes/lv_theme.c ****         theme->flags = copy->flags;
  90:lvgl\src\lv_themes/lv_theme.c ****         theme->base = copy->base;
  91:lvgl\src\lv_themes/lv_theme.c ****         theme->apply_cb = copy->apply_cb;
  92:lvgl\src\lv_themes/lv_theme.c ****         theme->apply_xcb = copy->apply_xcb;
  93:lvgl\src\lv_themes/lv_theme.c ****     }
  94:lvgl\src\lv_themes/lv_theme.c **** 
  95:lvgl\src\lv_themes/lv_theme.c **** }
  96:lvgl\src\lv_themes/lv_theme.c **** 
  97:lvgl\src\lv_themes/lv_theme.c **** /**
  98:lvgl\src\lv_themes/lv_theme.c ****  * Set a base theme for a theme.
  99:lvgl\src\lv_themes/lv_theme.c ****  * The styles from the base them will be added before the styles of the current theme.
 100:lvgl\src\lv_themes/lv_theme.c ****  * Arbitrary long chain of themes can be created by setting base themes.
 101:lvgl\src\lv_themes/lv_theme.c ****  * @param new_theme pointer to theme which base should be set
 102:lvgl\src\lv_themes/lv_theme.c ****  * @param base pointer to the base theme
 103:lvgl\src\lv_themes/lv_theme.c ****  */
 104:lvgl\src\lv_themes/lv_theme.c **** void lv_theme_set_base(lv_theme_t * new_theme, lv_theme_t * base)
 105:lvgl\src\lv_themes/lv_theme.c **** {
 106:lvgl\src\lv_themes/lv_theme.c ****     new_theme->base = base;
 107:lvgl\src\lv_themes/lv_theme.c **** }
 108:lvgl\src\lv_themes/lv_theme.c **** 
 109:lvgl\src\lv_themes/lv_theme.c **** /**
 110:lvgl\src\lv_themes/lv_theme.c ****  * Set a callback for a theme.
 111:lvgl\src\lv_themes/lv_theme.c ****  * The callback is used to add styles to different objects
 112:lvgl\src\lv_themes/lv_theme.c ****  * @param theme pointer to theme which callback should be set
 113:lvgl\src\lv_themes/lv_theme.c ****  * @param cb pointer to the callback
 114:lvgl\src\lv_themes/lv_theme.c ****  */
 115:lvgl\src\lv_themes/lv_theme.c **** void lv_theme_set_apply_cb(lv_theme_t * theme, lv_theme_apply_cb_t apply_cb)
 116:lvgl\src\lv_themes/lv_theme.c **** {
 117:lvgl\src\lv_themes/lv_theme.c ****     theme->apply_cb = apply_cb;
 118:lvgl\src\lv_themes/lv_theme.c **** }
 119:lvgl\src\lv_themes/lv_theme.c **** 
 120:lvgl\src\lv_themes/lv_theme.c **** /**
 121:lvgl\src\lv_themes/lv_theme.c ****  * Get the small font of the theme
 122:lvgl\src\lv_themes/lv_theme.c ****  * @return pointer to the font
 123:lvgl\src\lv_themes/lv_theme.c ****  */
 124:lvgl\src\lv_themes/lv_theme.c **** const lv_font_t * lv_theme_get_font_small(void)
 125:lvgl\src\lv_themes/lv_theme.c **** {
 126:lvgl\src\lv_themes/lv_theme.c ****     return act_theme->font_small;
 127:lvgl\src\lv_themes/lv_theme.c **** }
 128:lvgl\src\lv_themes/lv_theme.c **** 
 129:lvgl\src\lv_themes/lv_theme.c **** /**
 130:lvgl\src\lv_themes/lv_theme.c ****  * Get the normal font of the theme
 131:lvgl\src\lv_themes/lv_theme.c ****  * @return pointer to the font
 132:lvgl\src\lv_themes/lv_theme.c ****  */
 133:lvgl\src\lv_themes/lv_theme.c **** const lv_font_t * lv_theme_get_font_normal(void)
 134:lvgl\src\lv_themes/lv_theme.c **** {
 135:lvgl\src\lv_themes/lv_theme.c ****     return act_theme->font_normal;
 136:lvgl\src\lv_themes/lv_theme.c **** }
 137:lvgl\src\lv_themes/lv_theme.c **** 
 138:lvgl\src\lv_themes/lv_theme.c **** /**
 139:lvgl\src\lv_themes/lv_theme.c ****  * Get the subtitle font of the theme
 140:lvgl\src\lv_themes/lv_theme.c ****  * @return pointer to the font
 141:lvgl\src\lv_themes/lv_theme.c ****  */
 142:lvgl\src\lv_themes/lv_theme.c **** const lv_font_t * lv_theme_get_font_subtitle(void)
 143:lvgl\src\lv_themes/lv_theme.c **** {
 144:lvgl\src\lv_themes/lv_theme.c ****     return act_theme->font_subtitle;
 145:lvgl\src\lv_themes/lv_theme.c **** }
ARM GAS  C:\Users\strap\AppData\Local\Temp\ccojJEGJ.s 			page 4


 146:lvgl\src\lv_themes/lv_theme.c **** 
 147:lvgl\src\lv_themes/lv_theme.c **** /**
 148:lvgl\src\lv_themes/lv_theme.c ****  * Get the title font of the theme
 149:lvgl\src\lv_themes/lv_theme.c ****  * @return pointer to the font
 150:lvgl\src\lv_themes/lv_theme.c ****  */
 151:lvgl\src\lv_themes/lv_theme.c **** const lv_font_t * lv_theme_get_font_title(void)
 152:lvgl\src\lv_themes/lv_theme.c **** {
 153:lvgl\src\lv_themes/lv_theme.c ****     return act_theme->font_title;
 154:lvgl\src\lv_themes/lv_theme.c **** }
 155:lvgl\src\lv_themes/lv_theme.c **** 
 156:lvgl\src\lv_themes/lv_theme.c **** /**
 157:lvgl\src\lv_themes/lv_theme.c ****  * Get the primary color of the theme
 158:lvgl\src\lv_themes/lv_theme.c ****  * @return the color
 159:lvgl\src\lv_themes/lv_theme.c ****  */
 160:lvgl\src\lv_themes/lv_theme.c **** lv_color_t lv_theme_get_color_primary(void)
 161:lvgl\src\lv_themes/lv_theme.c **** {
 162:lvgl\src\lv_themes/lv_theme.c ****     return act_theme->color_primary;
 163:lvgl\src\lv_themes/lv_theme.c **** }
 164:lvgl\src\lv_themes/lv_theme.c **** 
 165:lvgl\src\lv_themes/lv_theme.c **** /**
 166:lvgl\src\lv_themes/lv_theme.c ****  * Get the secondary color of the theme
 167:lvgl\src\lv_themes/lv_theme.c ****  * @return the color
 168:lvgl\src\lv_themes/lv_theme.c ****  */
 169:lvgl\src\lv_themes/lv_theme.c **** lv_color_t lv_theme_get_color_secondary(void)
 170:lvgl\src\lv_themes/lv_theme.c **** {
 171:lvgl\src\lv_themes/lv_theme.c ****     return act_theme->color_secondary;
 172:lvgl\src\lv_themes/lv_theme.c **** }
 173:lvgl\src\lv_themes/lv_theme.c **** 
 174:lvgl\src\lv_themes/lv_theme.c **** /**
 175:lvgl\src\lv_themes/lv_theme.c ****  * Get the flags of the theme
 176:lvgl\src\lv_themes/lv_theme.c ****  * @return the flags
 177:lvgl\src\lv_themes/lv_theme.c ****  */
 178:lvgl\src\lv_themes/lv_theme.c **** uint32_t lv_theme_get_flags(void)
 179:lvgl\src\lv_themes/lv_theme.c **** {
 180:lvgl\src\lv_themes/lv_theme.c ****     return act_theme->flags;
 181:lvgl\src\lv_themes/lv_theme.c **** }
 182:lvgl\src\lv_themes/lv_theme.c **** 
 183:lvgl\src\lv_themes/lv_theme.c **** /**********************
 184:lvgl\src\lv_themes/lv_theme.c ****  *   STATIC FUNCTIONS
 185:lvgl\src\lv_themes/lv_theme.c ****  **********************/
 186:lvgl\src\lv_themes/lv_theme.c **** 
 187:lvgl\src\lv_themes/lv_theme.c **** static void apply_theme(lv_theme_t * th, lv_obj_t * obj, lv_theme_style_t name)
 188:lvgl\src\lv_themes/lv_theme.c **** {
  27              		.loc 1 188 0
  28              		.cfi_startproc
  29              		@ args = 0, pretend = 0, frame = 0
  30              		@ frame_needed = 0, uses_anonymous_args = 0
  31              	.LVL0:
  32 0000 70B5     		push	{r4, r5, r6, lr}
  33              		.cfi_def_cfa_offset 16
  34              		.cfi_offset 4, -16
  35              		.cfi_offset 5, -12
  36              		.cfi_offset 6, -8
  37              		.cfi_offset 14, -4
  38 0002 0446     		mov	r4, r0
  39 0004 0D46     		mov	r5, r1
  40 0006 1646     		mov	r6, r2
ARM GAS  C:\Users\strap\AppData\Local\Temp\ccojJEGJ.s 			page 5


 189:lvgl\src\lv_themes/lv_theme.c ****     if(th->base) {
  41              		.loc 1 189 0
  42 0008 8068     		ldr	r0, [r0, #8]
  43              	.LVL1:
  44 000a 08B1     		cbz	r0, .L2
 190:lvgl\src\lv_themes/lv_theme.c ****         apply_theme(th->base, obj, name);
  45              		.loc 1 190 0
  46 000c FFF7F8FF 		bl	apply_theme
  47              	.LVL2:
  48              	.L2:
 191:lvgl\src\lv_themes/lv_theme.c ****     }
 192:lvgl\src\lv_themes/lv_theme.c **** 
 193:lvgl\src\lv_themes/lv_theme.c ****     /*apply_xcb is deprecated, use apply_cb instead*/
 194:lvgl\src\lv_themes/lv_theme.c ****     if(th->apply_xcb) {
  49              		.loc 1 194 0
  50 0010 6368     		ldr	r3, [r4, #4]
  51 0012 1BB1     		cbz	r3, .L3
 195:lvgl\src\lv_themes/lv_theme.c ****         th->apply_xcb(obj, name);
  52              		.loc 1 195 0
  53 0014 3146     		mov	r1, r6
  54 0016 2846     		mov	r0, r5
  55 0018 9847     		blx	r3
  56              	.LVL3:
  57 001a 70BD     		pop	{r4, r5, r6, pc}
  58              	.LVL4:
  59              	.L3:
 196:lvgl\src\lv_themes/lv_theme.c ****     }
 197:lvgl\src\lv_themes/lv_theme.c ****     else if(th->apply_cb) {
  60              		.loc 1 197 0
  61 001c 2368     		ldr	r3, [r4]
  62 001e 23B1     		cbz	r3, .L1
 198:lvgl\src\lv_themes/lv_theme.c ****         th->apply_cb(act_theme, obj, name);
  63              		.loc 1 198 0
  64 0020 3246     		mov	r2, r6
  65 0022 2946     		mov	r1, r5
  66 0024 0148     		ldr	r0, .L6
  67 0026 0068     		ldr	r0, [r0]
  68 0028 9847     		blx	r3
  69              	.LVL5:
  70              	.L1:
  71 002a 70BD     		pop	{r4, r5, r6, pc}
  72              	.LVL6:
  73              	.L7:
  74              		.align	2
  75              	.L6:
  76 002c 00000000 		.word	.LANCHOR0
  77              		.cfi_endproc
  78              	.LFE388:
  79              		.size	apply_theme, .-apply_theme
  80              		.section	.text.clear_styles,"ax",%progbits
  81              		.align	2
  82              		.thumb
  83              		.thumb_func
  84              		.type	clear_styles, %function
  85              	clear_styles:
  86              	.LFB389:
 199:lvgl\src\lv_themes/lv_theme.c ****     }
ARM GAS  C:\Users\strap\AppData\Local\Temp\ccojJEGJ.s 			page 6


 200:lvgl\src\lv_themes/lv_theme.c **** }
 201:lvgl\src\lv_themes/lv_theme.c **** 
 202:lvgl\src\lv_themes/lv_theme.c **** static void clear_styles(lv_obj_t * obj, lv_theme_style_t name)
 203:lvgl\src\lv_themes/lv_theme.c **** {
  87              		.loc 1 203 0
  88              		.cfi_startproc
  89              		@ args = 0, pretend = 0, frame = 0
  90              		@ frame_needed = 0, uses_anonymous_args = 0
  91              	.LVL7:
  92 0000 10B5     		push	{r4, lr}
  93              		.cfi_def_cfa_offset 8
  94              		.cfi_offset 4, -8
  95              		.cfi_offset 14, -4
  96 0002 0446     		mov	r4, r0
 204:lvgl\src\lv_themes/lv_theme.c ****     switch(name) {
  97              		.loc 1 204 0
  98 0004 0139     		subs	r1, r1, #1
  99              	.LVL8:
 100 0006 1029     		cmp	r1, #16
 101 0008 00F28E80 		bhi	.L8
 102 000c DFE801F0 		tbb	[pc, r1]
 103              	.L11:
 104 0010 09       		.byte	(.L10-.L11)/2
 105 0011 0D       		.byte	(.L12-.L11)/2
 106 0012 15       		.byte	(.L13-.L11)/2
 107 0013 19       		.byte	(.L14-.L11)/2
 108 0014 29       		.byte	(.L15-.L11)/2
 109 0015 11       		.byte	(.L16-.L11)/2
 110 0016 61       		.byte	(.L17-.L11)/2
 111 0017 21       		.byte	(.L18-.L11)/2
 112 0018 31       		.byte	(.L19-.L11)/2
 113 0019 25       		.byte	(.L20-.L11)/2
 114 001a 5D       		.byte	(.L21-.L11)/2
 115 001b 35       		.byte	(.L22-.L11)/2
 116 001c 81       		.byte	(.L23-.L11)/2
 117 001d 89       		.byte	(.L24-.L11)/2
 118 001e 41       		.byte	(.L25-.L11)/2
 119 001f 55       		.byte	(.L26-.L11)/2
 120 0020 71       		.byte	(.L27-.L11)/2
 121 0021 00       		.p2align 1
 122              	.L10:
 205:lvgl\src\lv_themes/lv_theme.c ****         case LV_THEME_NONE:
 206:lvgl\src\lv_themes/lv_theme.c ****             break;
 207:lvgl\src\lv_themes/lv_theme.c **** 
 208:lvgl\src\lv_themes/lv_theme.c ****         case LV_THEME_SCR:
 209:lvgl\src\lv_themes/lv_theme.c ****             lv_obj_clean_style_list(obj, LV_OBJ_PART_MAIN);
 123              		.loc 1 209 0
 124 0022 0021     		movs	r1, #0
 125 0024 FFF7FEFF 		bl	lv_obj_clean_style_list
 126              	.LVL9:
 210:lvgl\src\lv_themes/lv_theme.c ****             break;
 127              		.loc 1 210 0
 128 0028 10BD     		pop	{r4, pc}
 129              	.LVL10:
 130              	.L12:
 211:lvgl\src\lv_themes/lv_theme.c ****         case LV_THEME_OBJ:
 212:lvgl\src\lv_themes/lv_theme.c ****             lv_obj_clean_style_list(obj, LV_OBJ_PART_MAIN);
ARM GAS  C:\Users\strap\AppData\Local\Temp\ccojJEGJ.s 			page 7


 131              		.loc 1 212 0
 132 002a 0021     		movs	r1, #0
 133 002c FFF7FEFF 		bl	lv_obj_clean_style_list
 134              	.LVL11:
 213:lvgl\src\lv_themes/lv_theme.c ****             break;
 135              		.loc 1 213 0
 136 0030 10BD     		pop	{r4, pc}
 137              	.LVL12:
 138              	.L16:
 214:lvgl\src\lv_themes/lv_theme.c **** #if LV_USE_CONT
 215:lvgl\src\lv_themes/lv_theme.c ****         case LV_THEME_CONT:
 216:lvgl\src\lv_themes/lv_theme.c ****             lv_obj_clean_style_list(obj, LV_OBJ_PART_MAIN);
 139              		.loc 1 216 0
 140 0032 0021     		movs	r1, #0
 141 0034 FFF7FEFF 		bl	lv_obj_clean_style_list
 142              	.LVL13:
 217:lvgl\src\lv_themes/lv_theme.c ****             break;
 143              		.loc 1 217 0
 144 0038 10BD     		pop	{r4, pc}
 145              	.LVL14:
 146              	.L13:
 218:lvgl\src\lv_themes/lv_theme.c **** #endif
 219:lvgl\src\lv_themes/lv_theme.c **** 
 220:lvgl\src\lv_themes/lv_theme.c **** #if LV_USE_BTN
 221:lvgl\src\lv_themes/lv_theme.c ****         case LV_THEME_BTN:
 222:lvgl\src\lv_themes/lv_theme.c ****             lv_obj_clean_style_list(obj, LV_BTN_PART_MAIN);
 147              		.loc 1 222 0
 148 003a 0021     		movs	r1, #0
 149 003c FFF7FEFF 		bl	lv_obj_clean_style_list
 150              	.LVL15:
 223:lvgl\src\lv_themes/lv_theme.c ****             break;
 151              		.loc 1 223 0
 152 0040 10BD     		pop	{r4, pc}
 153              	.LVL16:
 154              	.L14:
 224:lvgl\src\lv_themes/lv_theme.c **** #endif
 225:lvgl\src\lv_themes/lv_theme.c **** 
 226:lvgl\src\lv_themes/lv_theme.c **** #if LV_USE_BTNMATRIX
 227:lvgl\src\lv_themes/lv_theme.c ****         case LV_THEME_BTNMATRIX:
 228:lvgl\src\lv_themes/lv_theme.c ****             lv_obj_clean_style_list(obj, LV_BTNMATRIX_PART_BG);
 155              		.loc 1 228 0
 156 0042 0021     		movs	r1, #0
 157 0044 FFF7FEFF 		bl	lv_obj_clean_style_list
 158              	.LVL17:
 229:lvgl\src\lv_themes/lv_theme.c ****             lv_obj_clean_style_list(obj, LV_BTNMATRIX_PART_BTN);
 159              		.loc 1 229 0
 160 0048 0121     		movs	r1, #1
 161 004a 2046     		mov	r0, r4
 162 004c FFF7FEFF 		bl	lv_obj_clean_style_list
 163              	.LVL18:
 230:lvgl\src\lv_themes/lv_theme.c ****             break;
 164              		.loc 1 230 0
 165 0050 10BD     		pop	{r4, pc}
 166              	.LVL19:
 167              	.L18:
 231:lvgl\src\lv_themes/lv_theme.c **** #endif
 232:lvgl\src\lv_themes/lv_theme.c **** 
ARM GAS  C:\Users\strap\AppData\Local\Temp\ccojJEGJ.s 			page 8


 233:lvgl\src\lv_themes/lv_theme.c **** #if LV_USE_KEYBOARD
 234:lvgl\src\lv_themes/lv_theme.c ****         case LV_THEME_KEYBOARD:
 235:lvgl\src\lv_themes/lv_theme.c ****             lv_obj_clean_style_list(obj, LV_KEYBOARD_PART_BG);
 236:lvgl\src\lv_themes/lv_theme.c ****             lv_obj_clean_style_list(obj, LV_KEYBOARD_PART_BTN);
 237:lvgl\src\lv_themes/lv_theme.c ****             break;
 238:lvgl\src\lv_themes/lv_theme.c **** #endif
 239:lvgl\src\lv_themes/lv_theme.c **** 
 240:lvgl\src\lv_themes/lv_theme.c **** #if LV_USE_BAR
 241:lvgl\src\lv_themes/lv_theme.c ****         case LV_THEME_BAR:
 242:lvgl\src\lv_themes/lv_theme.c ****             lv_obj_clean_style_list(obj, LV_BAR_PART_BG);
 243:lvgl\src\lv_themes/lv_theme.c ****             lv_obj_clean_style_list(obj, LV_BAR_PART_INDIC);
 244:lvgl\src\lv_themes/lv_theme.c ****             break;
 245:lvgl\src\lv_themes/lv_theme.c **** #endif
 246:lvgl\src\lv_themes/lv_theme.c **** 
 247:lvgl\src\lv_themes/lv_theme.c **** #if LV_USE_SWITCH
 248:lvgl\src\lv_themes/lv_theme.c ****         case LV_THEME_SWITCH:
 249:lvgl\src\lv_themes/lv_theme.c ****             lv_obj_clean_style_list(obj, LV_SWITCH_PART_BG);
 250:lvgl\src\lv_themes/lv_theme.c ****             lv_obj_clean_style_list(obj, LV_SWITCH_PART_INDIC);
 251:lvgl\src\lv_themes/lv_theme.c ****             lv_obj_clean_style_list(obj, LV_SWITCH_PART_KNOB);
 252:lvgl\src\lv_themes/lv_theme.c ****             break;
 253:lvgl\src\lv_themes/lv_theme.c **** #endif
 254:lvgl\src\lv_themes/lv_theme.c **** 
 255:lvgl\src\lv_themes/lv_theme.c **** #if LV_USE_CANVAS
 256:lvgl\src\lv_themes/lv_theme.c ****         case LV_THEME_CANVAS:
 257:lvgl\src\lv_themes/lv_theme.c ****             lv_obj_clean_style_list(obj, LV_CANVAS_PART_MAIN);
 258:lvgl\src\lv_themes/lv_theme.c ****             break;
 259:lvgl\src\lv_themes/lv_theme.c **** #endif
 260:lvgl\src\lv_themes/lv_theme.c **** 
 261:lvgl\src\lv_themes/lv_theme.c **** #if LV_USE_IMG
 262:lvgl\src\lv_themes/lv_theme.c ****         case LV_THEME_IMAGE:
 263:lvgl\src\lv_themes/lv_theme.c ****             lv_obj_clean_style_list(obj, LV_IMG_PART_MAIN);
 264:lvgl\src\lv_themes/lv_theme.c ****             break;
 265:lvgl\src\lv_themes/lv_theme.c **** #endif
 266:lvgl\src\lv_themes/lv_theme.c **** 
 267:lvgl\src\lv_themes/lv_theme.c **** #if LV_USE_IMGBTN
 268:lvgl\src\lv_themes/lv_theme.c ****         case LV_THEME_IMGBTN:
 269:lvgl\src\lv_themes/lv_theme.c ****             lv_obj_clean_style_list(obj, LV_IMG_PART_MAIN);
 270:lvgl\src\lv_themes/lv_theme.c ****             break;
 271:lvgl\src\lv_themes/lv_theme.c **** #endif
 272:lvgl\src\lv_themes/lv_theme.c **** 
 273:lvgl\src\lv_themes/lv_theme.c **** #if LV_USE_LABEL
 274:lvgl\src\lv_themes/lv_theme.c ****         case LV_THEME_LABEL:
 275:lvgl\src\lv_themes/lv_theme.c ****             lv_obj_clean_style_list(obj, LV_LABEL_PART_MAIN);
 168              		.loc 1 275 0
 169 0052 0021     		movs	r1, #0
 170 0054 FFF7FEFF 		bl	lv_obj_clean_style_list
 171              	.LVL20:
 276:lvgl\src\lv_themes/lv_theme.c ****             break;
 172              		.loc 1 276 0
 173 0058 10BD     		pop	{r4, pc}
 174              	.LVL21:
 175              	.L20:
 277:lvgl\src\lv_themes/lv_theme.c **** #endif
 278:lvgl\src\lv_themes/lv_theme.c **** 
 279:lvgl\src\lv_themes/lv_theme.c **** #if LV_USE_LINE
 280:lvgl\src\lv_themes/lv_theme.c ****         case LV_THEME_LINE:
 281:lvgl\src\lv_themes/lv_theme.c ****             lv_obj_clean_style_list(obj, LV_LABEL_PART_MAIN);
ARM GAS  C:\Users\strap\AppData\Local\Temp\ccojJEGJ.s 			page 9


 176              		.loc 1 281 0
 177 005a 0021     		movs	r1, #0
 178 005c FFF7FEFF 		bl	lv_obj_clean_style_list
 179              	.LVL22:
 282:lvgl\src\lv_themes/lv_theme.c ****             break;
 180              		.loc 1 282 0
 181 0060 10BD     		pop	{r4, pc}
 182              	.LVL23:
 183              	.L15:
 283:lvgl\src\lv_themes/lv_theme.c **** #endif
 284:lvgl\src\lv_themes/lv_theme.c **** 
 285:lvgl\src\lv_themes/lv_theme.c **** #if LV_USE_ARC
 286:lvgl\src\lv_themes/lv_theme.c ****         case LV_THEME_ARC:
 287:lvgl\src\lv_themes/lv_theme.c ****             lv_obj_clean_style_list(obj, LV_ARC_PART_BG);
 288:lvgl\src\lv_themes/lv_theme.c ****             lv_obj_clean_style_list(obj, LV_ARC_PART_INDIC);
 289:lvgl\src\lv_themes/lv_theme.c ****             break;
 290:lvgl\src\lv_themes/lv_theme.c **** #endif
 291:lvgl\src\lv_themes/lv_theme.c **** 
 292:lvgl\src\lv_themes/lv_theme.c **** #if LV_USE_SPINNER
 293:lvgl\src\lv_themes/lv_theme.c ****         case LV_THEME_SPINNER:
 294:lvgl\src\lv_themes/lv_theme.c ****             lv_obj_clean_style_list(obj, LV_SPINNER_PART_BG);
 295:lvgl\src\lv_themes/lv_theme.c ****             lv_obj_clean_style_list(obj, LV_SPINNER_PART_INDIC);
 296:lvgl\src\lv_themes/lv_theme.c ****             break;
 297:lvgl\src\lv_themes/lv_theme.c **** #endif
 298:lvgl\src\lv_themes/lv_theme.c **** 
 299:lvgl\src\lv_themes/lv_theme.c **** #if LV_USE_SLIDER
 300:lvgl\src\lv_themes/lv_theme.c ****         case LV_THEME_SLIDER:
 301:lvgl\src\lv_themes/lv_theme.c ****             lv_obj_clean_style_list(obj, LV_SLIDER_PART_BG);
 302:lvgl\src\lv_themes/lv_theme.c ****             lv_obj_clean_style_list(obj, LV_SLIDER_PART_INDIC);
 303:lvgl\src\lv_themes/lv_theme.c ****             lv_obj_clean_style_list(obj, LV_SLIDER_PART_KNOB);
 304:lvgl\src\lv_themes/lv_theme.c ****             break;
 305:lvgl\src\lv_themes/lv_theme.c **** #endif
 306:lvgl\src\lv_themes/lv_theme.c **** 
 307:lvgl\src\lv_themes/lv_theme.c **** #if LV_USE_CHECKBOX
 308:lvgl\src\lv_themes/lv_theme.c ****         case LV_THEME_CHECKBOX:
 309:lvgl\src\lv_themes/lv_theme.c ****             lv_obj_clean_style_list(obj, LV_CHECKBOX_PART_BG);
 184              		.loc 1 309 0
 185 0062 0021     		movs	r1, #0
 186 0064 FFF7FEFF 		bl	lv_obj_clean_style_list
 187              	.LVL24:
 310:lvgl\src\lv_themes/lv_theme.c ****             lv_obj_clean_style_list(obj, LV_CHECKBOX_PART_BULLET);
 188              		.loc 1 310 0
 189 0068 4021     		movs	r1, #64
 190 006a 2046     		mov	r0, r4
 191 006c FFF7FEFF 		bl	lv_obj_clean_style_list
 192              	.LVL25:
 311:lvgl\src\lv_themes/lv_theme.c ****             break;
 193              		.loc 1 311 0
 194 0070 10BD     		pop	{r4, pc}
 195              	.LVL26:
 196              	.L19:
 312:lvgl\src\lv_themes/lv_theme.c **** #endif
 313:lvgl\src\lv_themes/lv_theme.c **** 
 314:lvgl\src\lv_themes/lv_theme.c **** #if LV_USE_MSGBOX
 315:lvgl\src\lv_themes/lv_theme.c ****         case LV_THEME_MSGBOX:
 316:lvgl\src\lv_themes/lv_theme.c ****             lv_obj_clean_style_list(obj, LV_MSGBOX_PART_BG);
 317:lvgl\src\lv_themes/lv_theme.c ****             break;
ARM GAS  C:\Users\strap\AppData\Local\Temp\ccojJEGJ.s 			page 10


 318:lvgl\src\lv_themes/lv_theme.c **** 
 319:lvgl\src\lv_themes/lv_theme.c ****         case LV_THEME_MSGBOX_BTNS:
 320:lvgl\src\lv_themes/lv_theme.c ****             lv_obj_clean_style_list(obj, LV_MSGBOX_PART_BTN_BG);
 321:lvgl\src\lv_themes/lv_theme.c ****             lv_obj_clean_style_list(obj, LV_MSGBOX_PART_BTN);
 322:lvgl\src\lv_themes/lv_theme.c ****             break;
 323:lvgl\src\lv_themes/lv_theme.c **** 
 324:lvgl\src\lv_themes/lv_theme.c **** #endif
 325:lvgl\src\lv_themes/lv_theme.c **** #if LV_USE_LED
 326:lvgl\src\lv_themes/lv_theme.c ****         case LV_THEME_LED:
 327:lvgl\src\lv_themes/lv_theme.c ****             lv_obj_clean_style_list(obj, LV_LED_PART_MAIN);
 197              		.loc 1 327 0
 198 0072 0021     		movs	r1, #0
 199 0074 FFF7FEFF 		bl	lv_obj_clean_style_list
 200              	.LVL27:
 328:lvgl\src\lv_themes/lv_theme.c ****             break;
 201              		.loc 1 328 0
 202 0078 10BD     		pop	{r4, pc}
 203              	.LVL28:
 204              	.L22:
 329:lvgl\src\lv_themes/lv_theme.c **** #endif
 330:lvgl\src\lv_themes/lv_theme.c **** #if LV_USE_PAGE
 331:lvgl\src\lv_themes/lv_theme.c ****         case LV_THEME_PAGE:
 332:lvgl\src\lv_themes/lv_theme.c ****             lv_obj_clean_style_list(obj, LV_PAGE_PART_BG);
 205              		.loc 1 332 0
 206 007a 0021     		movs	r1, #0
 207 007c FFF7FEFF 		bl	lv_obj_clean_style_list
 208              	.LVL29:
 333:lvgl\src\lv_themes/lv_theme.c ****             lv_obj_clean_style_list(obj, LV_PAGE_PART_SCROLLABLE);
 209              		.loc 1 333 0
 210 0080 4021     		movs	r1, #64
 211 0082 2046     		mov	r0, r4
 212 0084 FFF7FEFF 		bl	lv_obj_clean_style_list
 213              	.LVL30:
 334:lvgl\src\lv_themes/lv_theme.c ****             lv_obj_clean_style_list(obj, LV_PAGE_PART_SCROLLBAR);
 214              		.loc 1 334 0
 215 0088 0121     		movs	r1, #1
 216 008a 2046     		mov	r0, r4
 217 008c FFF7FEFF 		bl	lv_obj_clean_style_list
 218              	.LVL31:
 335:lvgl\src\lv_themes/lv_theme.c ****             break;
 219              		.loc 1 335 0
 220 0090 10BD     		pop	{r4, pc}
 221              	.LVL32:
 222              	.L25:
 336:lvgl\src\lv_themes/lv_theme.c **** #endif
 337:lvgl\src\lv_themes/lv_theme.c **** #if LV_USE_TABVIEW
 338:lvgl\src\lv_themes/lv_theme.c ****         case LV_THEME_TABVIEW:
 339:lvgl\src\lv_themes/lv_theme.c ****             lv_obj_clean_style_list(obj, LV_TABVIEW_PART_BG);
 223              		.loc 1 339 0
 224 0092 0021     		movs	r1, #0
 225 0094 FFF7FEFF 		bl	lv_obj_clean_style_list
 226              	.LVL33:
 340:lvgl\src\lv_themes/lv_theme.c ****             lv_obj_clean_style_list(obj, LV_TABVIEW_PART_BG_SCRLLABLE);
 227              		.loc 1 340 0
 228 0098 4021     		movs	r1, #64
 229 009a 2046     		mov	r0, r4
 230 009c FFF7FEFF 		bl	lv_obj_clean_style_list
ARM GAS  C:\Users\strap\AppData\Local\Temp\ccojJEGJ.s 			page 11


 231              	.LVL34:
 341:lvgl\src\lv_themes/lv_theme.c ****             lv_obj_clean_style_list(obj, LV_TABVIEW_PART_TAB_BG);
 232              		.loc 1 341 0
 233 00a0 4121     		movs	r1, #65
 234 00a2 2046     		mov	r0, r4
 235 00a4 FFF7FEFF 		bl	lv_obj_clean_style_list
 236              	.LVL35:
 342:lvgl\src\lv_themes/lv_theme.c ****             lv_obj_clean_style_list(obj, LV_TABVIEW_PART_INDIC);
 237              		.loc 1 342 0
 238 00a8 4321     		movs	r1, #67
 239 00aa 2046     		mov	r0, r4
 240 00ac FFF7FEFF 		bl	lv_obj_clean_style_list
 241              	.LVL36:
 343:lvgl\src\lv_themes/lv_theme.c ****             lv_obj_clean_style_list(obj, LV_TABVIEW_PART_TAB_BTN);
 242              		.loc 1 343 0
 243 00b0 4221     		movs	r1, #66
 244 00b2 2046     		mov	r0, r4
 245 00b4 FFF7FEFF 		bl	lv_obj_clean_style_list
 246              	.LVL37:
 344:lvgl\src\lv_themes/lv_theme.c ****             break;
 247              		.loc 1 344 0
 248 00b8 10BD     		pop	{r4, pc}
 249              	.LVL38:
 250              	.L26:
 345:lvgl\src\lv_themes/lv_theme.c **** 
 346:lvgl\src\lv_themes/lv_theme.c ****         case LV_THEME_TABVIEW_PAGE:
 347:lvgl\src\lv_themes/lv_theme.c ****             lv_obj_clean_style_list(obj, LV_PAGE_PART_BG);
 251              		.loc 1 347 0
 252 00ba 0021     		movs	r1, #0
 253 00bc FFF7FEFF 		bl	lv_obj_clean_style_list
 254              	.LVL39:
 348:lvgl\src\lv_themes/lv_theme.c ****             lv_obj_clean_style_list(obj, LV_PAGE_PART_SCROLLABLE);
 255              		.loc 1 348 0
 256 00c0 4021     		movs	r1, #64
 257 00c2 2046     		mov	r0, r4
 258 00c4 FFF7FEFF 		bl	lv_obj_clean_style_list
 259              	.LVL40:
 349:lvgl\src\lv_themes/lv_theme.c ****             break;
 260              		.loc 1 349 0
 261 00c8 10BD     		pop	{r4, pc}
 262              	.LVL41:
 263              	.L21:
 350:lvgl\src\lv_themes/lv_theme.c **** #endif
 351:lvgl\src\lv_themes/lv_theme.c **** 
 352:lvgl\src\lv_themes/lv_theme.c **** #if LV_USE_TILEVIEW
 353:lvgl\src\lv_themes/lv_theme.c ****         case LV_THEME_TILEVIEW:
 354:lvgl\src\lv_themes/lv_theme.c ****             lv_obj_clean_style_list(obj, LV_TILEVIEW_PART_BG);
 355:lvgl\src\lv_themes/lv_theme.c ****             lv_obj_clean_style_list(obj, LV_TILEVIEW_PART_SCROLLBAR);
 356:lvgl\src\lv_themes/lv_theme.c ****             lv_obj_clean_style_list(obj, LV_TILEVIEW_PART_EDGE_FLASH);
 357:lvgl\src\lv_themes/lv_theme.c ****             break;
 358:lvgl\src\lv_themes/lv_theme.c **** #endif
 359:lvgl\src\lv_themes/lv_theme.c **** 
 360:lvgl\src\lv_themes/lv_theme.c **** 
 361:lvgl\src\lv_themes/lv_theme.c **** #if LV_USE_ROLLER
 362:lvgl\src\lv_themes/lv_theme.c ****         case LV_THEME_ROLLER:
 363:lvgl\src\lv_themes/lv_theme.c ****             lv_obj_clean_style_list(obj, LV_ROLLER_PART_BG);
 364:lvgl\src\lv_themes/lv_theme.c ****             lv_obj_clean_style_list(obj, LV_ROLLER_PART_SELECTED);
ARM GAS  C:\Users\strap\AppData\Local\Temp\ccojJEGJ.s 			page 12


 365:lvgl\src\lv_themes/lv_theme.c ****             break;
 366:lvgl\src\lv_themes/lv_theme.c **** #endif
 367:lvgl\src\lv_themes/lv_theme.c **** 
 368:lvgl\src\lv_themes/lv_theme.c **** 
 369:lvgl\src\lv_themes/lv_theme.c **** #if LV_USE_OBJMASK
 370:lvgl\src\lv_themes/lv_theme.c ****         case LV_THEME_OBJMASK:
 371:lvgl\src\lv_themes/lv_theme.c ****             lv_obj_clean_style_list(obj, LV_OBJMASK_PART_MAIN);
 264              		.loc 1 371 0
 265 00ca 0021     		movs	r1, #0
 266 00cc FFF7FEFF 		bl	lv_obj_clean_style_list
 267              	.LVL42:
 372:lvgl\src\lv_themes/lv_theme.c ****             break;
 268              		.loc 1 372 0
 269 00d0 10BD     		pop	{r4, pc}
 270              	.LVL43:
 271              	.L17:
 373:lvgl\src\lv_themes/lv_theme.c **** #endif
 374:lvgl\src\lv_themes/lv_theme.c **** 
 375:lvgl\src\lv_themes/lv_theme.c **** #if LV_USE_LIST
 376:lvgl\src\lv_themes/lv_theme.c ****         case LV_THEME_LIST:
 377:lvgl\src\lv_themes/lv_theme.c ****             lv_obj_clean_style_list(obj, LV_LIST_PART_BG);
 378:lvgl\src\lv_themes/lv_theme.c ****             lv_obj_clean_style_list(obj, LV_LIST_PART_SCROLLABLE);
 379:lvgl\src\lv_themes/lv_theme.c ****             lv_obj_clean_style_list(obj, LV_LIST_PART_SCROLLBAR);
 380:lvgl\src\lv_themes/lv_theme.c ****             break;
 381:lvgl\src\lv_themes/lv_theme.c **** 
 382:lvgl\src\lv_themes/lv_theme.c ****         case LV_THEME_LIST_BTN:
 383:lvgl\src\lv_themes/lv_theme.c ****             lv_obj_clean_style_list(obj, LV_BTN_PART_MAIN);
 384:lvgl\src\lv_themes/lv_theme.c ****             break;
 385:lvgl\src\lv_themes/lv_theme.c **** #endif
 386:lvgl\src\lv_themes/lv_theme.c **** 
 387:lvgl\src\lv_themes/lv_theme.c **** #if LV_USE_DROPDOWN
 388:lvgl\src\lv_themes/lv_theme.c ****         case LV_THEME_DROPDOWN:
 389:lvgl\src\lv_themes/lv_theme.c ****             lv_obj_clean_style_list(obj, LV_DROPDOWN_PART_MAIN);
 272              		.loc 1 389 0
 273 00d2 0021     		movs	r1, #0
 274 00d4 FFF7FEFF 		bl	lv_obj_clean_style_list
 275              	.LVL44:
 390:lvgl\src\lv_themes/lv_theme.c ****             lv_obj_clean_style_list(obj, LV_DROPDOWN_PART_LIST);
 276              		.loc 1 390 0
 277 00d8 4021     		movs	r1, #64
 278 00da 2046     		mov	r0, r4
 279 00dc FFF7FEFF 		bl	lv_obj_clean_style_list
 280              	.LVL45:
 391:lvgl\src\lv_themes/lv_theme.c ****             lv_obj_clean_style_list(obj, LV_DROPDOWN_PART_SCROLLBAR);
 281              		.loc 1 391 0
 282 00e0 4121     		movs	r1, #65
 283 00e2 2046     		mov	r0, r4
 284 00e4 FFF7FEFF 		bl	lv_obj_clean_style_list
 285              	.LVL46:
 392:lvgl\src\lv_themes/lv_theme.c ****             lv_obj_clean_style_list(obj, LV_DROPDOWN_PART_SELECTED);
 286              		.loc 1 392 0
 287 00e8 4221     		movs	r1, #66
 288 00ea 2046     		mov	r0, r4
 289 00ec FFF7FEFF 		bl	lv_obj_clean_style_list
 290              	.LVL47:
 393:lvgl\src\lv_themes/lv_theme.c ****             break;
 291              		.loc 1 393 0
ARM GAS  C:\Users\strap\AppData\Local\Temp\ccojJEGJ.s 			page 13


 292 00f0 10BD     		pop	{r4, pc}
 293              	.LVL48:
 294              	.L27:
 394:lvgl\src\lv_themes/lv_theme.c **** #endif
 395:lvgl\src\lv_themes/lv_theme.c **** 
 396:lvgl\src\lv_themes/lv_theme.c **** #if LV_USE_CHART
 397:lvgl\src\lv_themes/lv_theme.c ****         case LV_THEME_CHART:
 398:lvgl\src\lv_themes/lv_theme.c ****             lv_obj_clean_style_list(obj, LV_CHART_PART_BG);
 399:lvgl\src\lv_themes/lv_theme.c ****             lv_obj_clean_style_list(obj, LV_CHART_PART_SERIES_BG);
 400:lvgl\src\lv_themes/lv_theme.c ****             lv_obj_clean_style_list(obj, LV_CHART_PART_SERIES);
 401:lvgl\src\lv_themes/lv_theme.c ****             break;
 402:lvgl\src\lv_themes/lv_theme.c **** #endif
 403:lvgl\src\lv_themes/lv_theme.c **** #if LV_USE_TABLE
 404:lvgl\src\lv_themes/lv_theme.c ****         case LV_THEME_TABLE:
 405:lvgl\src\lv_themes/lv_theme.c ****             lv_obj_clean_style_list(obj, LV_TABLE_PART_BG);
 406:lvgl\src\lv_themes/lv_theme.c ****             lv_obj_clean_style_list(obj, LV_TABLE_PART_CELL1);
 407:lvgl\src\lv_themes/lv_theme.c ****             lv_obj_clean_style_list(obj, LV_TABLE_PART_CELL2);
 408:lvgl\src\lv_themes/lv_theme.c ****             lv_obj_clean_style_list(obj, LV_TABLE_PART_CELL3);
 409:lvgl\src\lv_themes/lv_theme.c ****             lv_obj_clean_style_list(obj, LV_TABLE_PART_CELL4);
 410:lvgl\src\lv_themes/lv_theme.c ****             break;
 411:lvgl\src\lv_themes/lv_theme.c **** #endif
 412:lvgl\src\lv_themes/lv_theme.c **** 
 413:lvgl\src\lv_themes/lv_theme.c **** #if LV_USE_WIN
 414:lvgl\src\lv_themes/lv_theme.c ****         case LV_THEME_WIN:
 415:lvgl\src\lv_themes/lv_theme.c ****             lv_obj_clean_style_list(obj, LV_WIN_PART_BG);
 416:lvgl\src\lv_themes/lv_theme.c ****             lv_obj_clean_style_list(obj, LV_WIN_PART_SCROLLBAR);
 417:lvgl\src\lv_themes/lv_theme.c ****             lv_obj_clean_style_list(obj, LV_WIN_PART_CONTENT_SCROLLABLE);
 418:lvgl\src\lv_themes/lv_theme.c ****             lv_obj_clean_style_list(obj, LV_WIN_PART_HEADER);
 419:lvgl\src\lv_themes/lv_theme.c ****             break;
 420:lvgl\src\lv_themes/lv_theme.c **** 
 421:lvgl\src\lv_themes/lv_theme.c ****         case LV_THEME_WIN_BTN:
 422:lvgl\src\lv_themes/lv_theme.c ****             lv_obj_clean_style_list(obj, LV_BTN_PART_MAIN);
 423:lvgl\src\lv_themes/lv_theme.c ****             break;
 424:lvgl\src\lv_themes/lv_theme.c **** #endif
 425:lvgl\src\lv_themes/lv_theme.c **** 
 426:lvgl\src\lv_themes/lv_theme.c **** #if LV_USE_TEXTAREA
 427:lvgl\src\lv_themes/lv_theme.c ****         case LV_THEME_TEXTAREA:
 428:lvgl\src\lv_themes/lv_theme.c ****             lv_obj_clean_style_list(obj, LV_TEXTAREA_PART_BG);
 295              		.loc 1 428 0
 296 00f2 0021     		movs	r1, #0
 297 00f4 FFF7FEFF 		bl	lv_obj_clean_style_list
 298              	.LVL49:
 429:lvgl\src\lv_themes/lv_theme.c ****             lv_obj_clean_style_list(obj, LV_TEXTAREA_PART_PLACEHOLDER);
 299              		.loc 1 429 0
 300 00f8 0421     		movs	r1, #4
 301 00fa 2046     		mov	r0, r4
 302 00fc FFF7FEFF 		bl	lv_obj_clean_style_list
 303              	.LVL50:
 430:lvgl\src\lv_themes/lv_theme.c ****             lv_obj_clean_style_list(obj, LV_TEXTAREA_PART_CURSOR);
 304              		.loc 1 430 0
 305 0100 0321     		movs	r1, #3
 306 0102 2046     		mov	r0, r4
 307 0104 FFF7FEFF 		bl	lv_obj_clean_style_list
 308              	.LVL51:
 431:lvgl\src\lv_themes/lv_theme.c ****             lv_obj_clean_style_list(obj, LV_TEXTAREA_PART_SCROLLBAR);
 309              		.loc 1 431 0
 310 0108 0121     		movs	r1, #1
ARM GAS  C:\Users\strap\AppData\Local\Temp\ccojJEGJ.s 			page 14


 311 010a 2046     		mov	r0, r4
 312 010c FFF7FEFF 		bl	lv_obj_clean_style_list
 313              	.LVL52:
 432:lvgl\src\lv_themes/lv_theme.c ****             break;
 314              		.loc 1 432 0
 315 0110 10BD     		pop	{r4, pc}
 316              	.LVL53:
 317              	.L23:
 433:lvgl\src\lv_themes/lv_theme.c **** #endif
 434:lvgl\src\lv_themes/lv_theme.c **** 
 435:lvgl\src\lv_themes/lv_theme.c **** 
 436:lvgl\src\lv_themes/lv_theme.c **** #if LV_USE_SPINBOX
 437:lvgl\src\lv_themes/lv_theme.c ****         case LV_THEME_SPINBOX:
 438:lvgl\src\lv_themes/lv_theme.c ****             lv_obj_clean_style_list(obj, LV_SPINBOX_PART_BG);
 318              		.loc 1 438 0
 319 0112 0021     		movs	r1, #0
 320 0114 FFF7FEFF 		bl	lv_obj_clean_style_list
 321              	.LVL54:
 439:lvgl\src\lv_themes/lv_theme.c ****             lv_obj_clean_style_list(obj, LV_SPINBOX_PART_CURSOR);
 322              		.loc 1 439 0
 323 0118 0321     		movs	r1, #3
 324 011a 2046     		mov	r0, r4
 325 011c FFF7FEFF 		bl	lv_obj_clean_style_list
 326              	.LVL55:
 440:lvgl\src\lv_themes/lv_theme.c ****             break;
 327              		.loc 1 440 0
 328 0120 10BD     		pop	{r4, pc}
 329              	.LVL56:
 330              	.L24:
 441:lvgl\src\lv_themes/lv_theme.c **** 
 442:lvgl\src\lv_themes/lv_theme.c ****         case LV_THEME_SPINBOX_BTN:
 443:lvgl\src\lv_themes/lv_theme.c ****             lv_obj_clean_style_list(obj, LV_BTN_PART_MAIN);
 331              		.loc 1 443 0
 332 0122 0021     		movs	r1, #0
 333 0124 FFF7FEFF 		bl	lv_obj_clean_style_list
 334              	.LVL57:
 335              	.L8:
 336 0128 10BD     		pop	{r4, pc}
 337              		.cfi_endproc
 338              	.LFE389:
 339              		.size	clear_styles, .-clear_styles
 340 012a 00BF     		.section	.text.lv_theme_set_act,"ax",%progbits
 341              		.align	2
 342              		.global	lv_theme_set_act
 343              		.thumb
 344              		.thumb_func
 345              		.type	lv_theme_set_act, %function
 346              	lv_theme_set_act:
 347              	.LFB375:
  44:lvgl\src\lv_themes/lv_theme.c ****     act_theme = th;
 348              		.loc 1 44 0
 349              		.cfi_startproc
 350              		@ args = 0, pretend = 0, frame = 0
 351              		@ frame_needed = 0, uses_anonymous_args = 0
 352              		@ link register save eliminated.
 353              	.LVL58:
  45:lvgl\src\lv_themes/lv_theme.c **** }
ARM GAS  C:\Users\strap\AppData\Local\Temp\ccojJEGJ.s 			page 15


 354              		.loc 1 45 0
 355 0000 014B     		ldr	r3, .L30
 356 0002 1860     		str	r0, [r3]
 357 0004 7047     		bx	lr
 358              	.L31:
 359 0006 00BF     		.align	2
 360              	.L30:
 361 0008 00000000 		.word	.LANCHOR0
 362              		.cfi_endproc
 363              	.LFE375:
 364              		.size	lv_theme_set_act, .-lv_theme_set_act
 365              		.section	.text.lv_theme_get_act,"ax",%progbits
 366              		.align	2
 367              		.global	lv_theme_get_act
 368              		.thumb
 369              		.thumb_func
 370              		.type	lv_theme_get_act, %function
 371              	lv_theme_get_act:
 372              	.LFB376:
  53:lvgl\src\lv_themes/lv_theme.c ****     return act_theme;
 373              		.loc 1 53 0
 374              		.cfi_startproc
 375              		@ args = 0, pretend = 0, frame = 0
 376              		@ frame_needed = 0, uses_anonymous_args = 0
 377              		@ link register save eliminated.
  55:lvgl\src\lv_themes/lv_theme.c **** 
 378              		.loc 1 55 0
 379 0000 014B     		ldr	r3, .L33
 380 0002 1868     		ldr	r0, [r3]
 381 0004 7047     		bx	lr
 382              	.L34:
 383 0006 00BF     		.align	2
 384              	.L33:
 385 0008 00000000 		.word	.LANCHOR0
 386              		.cfi_endproc
 387              	.LFE376:
 388              		.size	lv_theme_get_act, .-lv_theme_get_act
 389              		.section	.text.lv_theme_apply,"ax",%progbits
 390              		.align	2
 391              		.global	lv_theme_apply
 392              		.thumb
 393              		.thumb_func
 394              		.type	lv_theme_apply, %function
 395              	lv_theme_apply:
 396              	.LFB377:
  63:lvgl\src\lv_themes/lv_theme.c ****     /* Remove the existing styles from all part of the object. */
 397              		.loc 1 63 0
 398              		.cfi_startproc
 399              		@ args = 0, pretend = 0, frame = 0
 400              		@ frame_needed = 0, uses_anonymous_args = 0
 401              	.LVL59:
 402 0000 38B5     		push	{r3, r4, r5, lr}
 403              		.cfi_def_cfa_offset 16
 404              		.cfi_offset 3, -16
 405              		.cfi_offset 4, -12
 406              		.cfi_offset 5, -8
 407              		.cfi_offset 14, -4
ARM GAS  C:\Users\strap\AppData\Local\Temp\ccojJEGJ.s 			page 16


 408 0002 0446     		mov	r4, r0
 409 0004 0D46     		mov	r5, r1
  65:lvgl\src\lv_themes/lv_theme.c **** 
 410              		.loc 1 65 0
 411 0006 FFF7FEFF 		bl	clear_styles
 412              	.LVL60:
  69:lvgl\src\lv_themes/lv_theme.c **** }
 413              		.loc 1 69 0
 414 000a 2A46     		mov	r2, r5
 415 000c 2146     		mov	r1, r4
 416 000e 024B     		ldr	r3, .L37
 417 0010 1868     		ldr	r0, [r3]
 418 0012 FFF7FEFF 		bl	apply_theme
 419              	.LVL61:
 420 0016 38BD     		pop	{r3, r4, r5, pc}
 421              	.LVL62:
 422              	.L38:
 423              		.align	2
 424              	.L37:
 425 0018 00000000 		.word	.LANCHOR0
 426              		.cfi_endproc
 427              	.LFE377:
 428              		.size	lv_theme_apply, .-lv_theme_apply
 429              		.section	.text.lv_theme_copy,"ax",%progbits
 430              		.align	2
 431              		.global	lv_theme_copy
 432              		.thumb
 433              		.thumb_func
 434              		.type	lv_theme_copy, %function
 435              	lv_theme_copy:
 436              	.LFB378:
  79:lvgl\src\lv_themes/lv_theme.c ****     _lv_memset_00(theme, sizeof(lv_theme_t));
 437              		.loc 1 79 0
 438              		.cfi_startproc
 439              		@ args = 0, pretend = 0, frame = 0
 440              		@ frame_needed = 0, uses_anonymous_args = 0
 441              	.LVL63:
 442 0000 38B5     		push	{r3, r4, r5, lr}
 443              		.cfi_def_cfa_offset 16
 444              		.cfi_offset 3, -16
 445              		.cfi_offset 4, -12
 446              		.cfi_offset 5, -8
 447              		.cfi_offset 14, -4
 448 0002 0546     		mov	r5, r0
 449 0004 0C46     		mov	r4, r1
  80:lvgl\src\lv_themes/lv_theme.c **** 
 450              		.loc 1 80 0
 451 0006 2821     		movs	r1, #40
 452              	.LVL64:
 453 0008 FFF7FEFF 		bl	_lv_memset_00
 454              	.LVL65:
  82:lvgl\src\lv_themes/lv_theme.c ****         theme->font_small = copy->font_small;
 455              		.loc 1 82 0
 456 000c 9CB1     		cbz	r4, .L39
  83:lvgl\src\lv_themes/lv_theme.c ****         theme->font_normal = copy->font_normal;
 457              		.loc 1 83 0
 458 000e 2369     		ldr	r3, [r4, #16]
ARM GAS  C:\Users\strap\AppData\Local\Temp\ccojJEGJ.s 			page 17


 459 0010 2B61     		str	r3, [r5, #16]
  84:lvgl\src\lv_themes/lv_theme.c ****         theme->font_subtitle = copy->font_subtitle;
 460              		.loc 1 84 0
 461 0012 6369     		ldr	r3, [r4, #20]
 462 0014 6B61     		str	r3, [r5, #20]
  85:lvgl\src\lv_themes/lv_theme.c ****         theme->font_title = copy->font_title;
 463              		.loc 1 85 0
 464 0016 A369     		ldr	r3, [r4, #24]
 465 0018 AB61     		str	r3, [r5, #24]
  86:lvgl\src\lv_themes/lv_theme.c ****         theme->color_primary = copy->color_primary;
 466              		.loc 1 86 0
 467 001a E369     		ldr	r3, [r4, #28]
 468 001c EB61     		str	r3, [r5, #28]
  87:lvgl\src\lv_themes/lv_theme.c ****         theme->color_secondary = copy->color_secondary;
 469              		.loc 1 87 0
 470 001e A389     		ldrh	r3, [r4, #12]
 471 0020 AB81     		strh	r3, [r5, #12]	@ movhi
  88:lvgl\src\lv_themes/lv_theme.c ****         theme->flags = copy->flags;
 472              		.loc 1 88 0
 473 0022 E389     		ldrh	r3, [r4, #14]
 474 0024 EB81     		strh	r3, [r5, #14]	@ movhi
  89:lvgl\src\lv_themes/lv_theme.c ****         theme->base = copy->base;
 475              		.loc 1 89 0
 476 0026 236A     		ldr	r3, [r4, #32]
 477 0028 2B62     		str	r3, [r5, #32]
  90:lvgl\src\lv_themes/lv_theme.c ****         theme->apply_cb = copy->apply_cb;
 478              		.loc 1 90 0
 479 002a A368     		ldr	r3, [r4, #8]
 480 002c AB60     		str	r3, [r5, #8]
  91:lvgl\src\lv_themes/lv_theme.c ****         theme->apply_xcb = copy->apply_xcb;
 481              		.loc 1 91 0
 482 002e 2368     		ldr	r3, [r4]
 483 0030 2B60     		str	r3, [r5]
  92:lvgl\src\lv_themes/lv_theme.c ****     }
 484              		.loc 1 92 0
 485 0032 6368     		ldr	r3, [r4, #4]
 486 0034 6B60     		str	r3, [r5, #4]
 487              	.L39:
 488 0036 38BD     		pop	{r3, r4, r5, pc}
 489              		.cfi_endproc
 490              	.LFE378:
 491              		.size	lv_theme_copy, .-lv_theme_copy
 492              		.section	.text.lv_theme_set_base,"ax",%progbits
 493              		.align	2
 494              		.global	lv_theme_set_base
 495              		.thumb
 496              		.thumb_func
 497              		.type	lv_theme_set_base, %function
 498              	lv_theme_set_base:
 499              	.LFB379:
 105:lvgl\src\lv_themes/lv_theme.c ****     new_theme->base = base;
 500              		.loc 1 105 0
 501              		.cfi_startproc
 502              		@ args = 0, pretend = 0, frame = 0
 503              		@ frame_needed = 0, uses_anonymous_args = 0
 504              		@ link register save eliminated.
 505              	.LVL66:
ARM GAS  C:\Users\strap\AppData\Local\Temp\ccojJEGJ.s 			page 18


 106:lvgl\src\lv_themes/lv_theme.c **** }
 506              		.loc 1 106 0
 507 0000 8160     		str	r1, [r0, #8]
 508 0002 7047     		bx	lr
 509              		.cfi_endproc
 510              	.LFE379:
 511              		.size	lv_theme_set_base, .-lv_theme_set_base
 512              		.section	.text.lv_theme_set_apply_cb,"ax",%progbits
 513              		.align	2
 514              		.global	lv_theme_set_apply_cb
 515              		.thumb
 516              		.thumb_func
 517              		.type	lv_theme_set_apply_cb, %function
 518              	lv_theme_set_apply_cb:
 519              	.LFB380:
 116:lvgl\src\lv_themes/lv_theme.c ****     theme->apply_cb = apply_cb;
 520              		.loc 1 116 0
 521              		.cfi_startproc
 522              		@ args = 0, pretend = 0, frame = 0
 523              		@ frame_needed = 0, uses_anonymous_args = 0
 524              		@ link register save eliminated.
 525              	.LVL67:
 117:lvgl\src\lv_themes/lv_theme.c **** }
 526              		.loc 1 117 0
 527 0000 0160     		str	r1, [r0]
 528 0002 7047     		bx	lr
 529              		.cfi_endproc
 530              	.LFE380:
 531              		.size	lv_theme_set_apply_cb, .-lv_theme_set_apply_cb
 532              		.section	.text.lv_theme_get_font_small,"ax",%progbits
 533              		.align	2
 534              		.global	lv_theme_get_font_small
 535              		.thumb
 536              		.thumb_func
 537              		.type	lv_theme_get_font_small, %function
 538              	lv_theme_get_font_small:
 539              	.LFB381:
 125:lvgl\src\lv_themes/lv_theme.c ****     return act_theme->font_small;
 540              		.loc 1 125 0
 541              		.cfi_startproc
 542              		@ args = 0, pretend = 0, frame = 0
 543              		@ frame_needed = 0, uses_anonymous_args = 0
 544              		@ link register save eliminated.
 126:lvgl\src\lv_themes/lv_theme.c **** }
 545              		.loc 1 126 0
 546 0000 014B     		ldr	r3, .L45
 547 0002 1B68     		ldr	r3, [r3]
 127:lvgl\src\lv_themes/lv_theme.c **** 
 548              		.loc 1 127 0
 549 0004 1869     		ldr	r0, [r3, #16]
 550 0006 7047     		bx	lr
 551              	.L46:
 552              		.align	2
 553              	.L45:
 554 0008 00000000 		.word	.LANCHOR0
 555              		.cfi_endproc
 556              	.LFE381:
ARM GAS  C:\Users\strap\AppData\Local\Temp\ccojJEGJ.s 			page 19


 557              		.size	lv_theme_get_font_small, .-lv_theme_get_font_small
 558              		.section	.text.lv_theme_get_font_normal,"ax",%progbits
 559              		.align	2
 560              		.global	lv_theme_get_font_normal
 561              		.thumb
 562              		.thumb_func
 563              		.type	lv_theme_get_font_normal, %function
 564              	lv_theme_get_font_normal:
 565              	.LFB382:
 134:lvgl\src\lv_themes/lv_theme.c ****     return act_theme->font_normal;
 566              		.loc 1 134 0
 567              		.cfi_startproc
 568              		@ args = 0, pretend = 0, frame = 0
 569              		@ frame_needed = 0, uses_anonymous_args = 0
 570              		@ link register save eliminated.
 135:lvgl\src\lv_themes/lv_theme.c **** }
 571              		.loc 1 135 0
 572 0000 014B     		ldr	r3, .L48
 573 0002 1B68     		ldr	r3, [r3]
 136:lvgl\src\lv_themes/lv_theme.c **** 
 574              		.loc 1 136 0
 575 0004 5869     		ldr	r0, [r3, #20]
 576 0006 7047     		bx	lr
 577              	.L49:
 578              		.align	2
 579              	.L48:
 580 0008 00000000 		.word	.LANCHOR0
 581              		.cfi_endproc
 582              	.LFE382:
 583              		.size	lv_theme_get_font_normal, .-lv_theme_get_font_normal
 584              		.section	.text.lv_theme_get_font_subtitle,"ax",%progbits
 585              		.align	2
 586              		.global	lv_theme_get_font_subtitle
 587              		.thumb
 588              		.thumb_func
 589              		.type	lv_theme_get_font_subtitle, %function
 590              	lv_theme_get_font_subtitle:
 591              	.LFB383:
 143:lvgl\src\lv_themes/lv_theme.c ****     return act_theme->font_subtitle;
 592              		.loc 1 143 0
 593              		.cfi_startproc
 594              		@ args = 0, pretend = 0, frame = 0
 595              		@ frame_needed = 0, uses_anonymous_args = 0
 596              		@ link register save eliminated.
 144:lvgl\src\lv_themes/lv_theme.c **** }
 597              		.loc 1 144 0
 598 0000 014B     		ldr	r3, .L51
 599 0002 1B68     		ldr	r3, [r3]
 145:lvgl\src\lv_themes/lv_theme.c **** 
 600              		.loc 1 145 0
 601 0004 9869     		ldr	r0, [r3, #24]
 602 0006 7047     		bx	lr
 603              	.L52:
 604              		.align	2
 605              	.L51:
 606 0008 00000000 		.word	.LANCHOR0
 607              		.cfi_endproc
ARM GAS  C:\Users\strap\AppData\Local\Temp\ccojJEGJ.s 			page 20


 608              	.LFE383:
 609              		.size	lv_theme_get_font_subtitle, .-lv_theme_get_font_subtitle
 610              		.section	.text.lv_theme_get_font_title,"ax",%progbits
 611              		.align	2
 612              		.global	lv_theme_get_font_title
 613              		.thumb
 614              		.thumb_func
 615              		.type	lv_theme_get_font_title, %function
 616              	lv_theme_get_font_title:
 617              	.LFB384:
 152:lvgl\src\lv_themes/lv_theme.c ****     return act_theme->font_title;
 618              		.loc 1 152 0
 619              		.cfi_startproc
 620              		@ args = 0, pretend = 0, frame = 0
 621              		@ frame_needed = 0, uses_anonymous_args = 0
 622              		@ link register save eliminated.
 153:lvgl\src\lv_themes/lv_theme.c **** }
 623              		.loc 1 153 0
 624 0000 014B     		ldr	r3, .L54
 625 0002 1B68     		ldr	r3, [r3]
 154:lvgl\src\lv_themes/lv_theme.c **** 
 626              		.loc 1 154 0
 627 0004 D869     		ldr	r0, [r3, #28]
 628 0006 7047     		bx	lr
 629              	.L55:
 630              		.align	2
 631              	.L54:
 632 0008 00000000 		.word	.LANCHOR0
 633              		.cfi_endproc
 634              	.LFE384:
 635              		.size	lv_theme_get_font_title, .-lv_theme_get_font_title
 636              		.section	.text.lv_theme_get_color_primary,"ax",%progbits
 637              		.align	2
 638              		.global	lv_theme_get_color_primary
 639              		.thumb
 640              		.thumb_func
 641              		.type	lv_theme_get_color_primary, %function
 642              	lv_theme_get_color_primary:
 643              	.LFB385:
 161:lvgl\src\lv_themes/lv_theme.c ****     return act_theme->color_primary;
 644              		.loc 1 161 0
 645              		.cfi_startproc
 646              		@ args = 0, pretend = 0, frame = 0
 647              		@ frame_needed = 0, uses_anonymous_args = 0
 648              		@ link register save eliminated.
 162:lvgl\src\lv_themes/lv_theme.c **** }
 649              		.loc 1 162 0
 650 0000 014B     		ldr	r3, .L57
 651 0002 1B68     		ldr	r3, [r3]
 163:lvgl\src\lv_themes/lv_theme.c **** 
 652              		.loc 1 163 0
 653 0004 9889     		ldrh	r0, [r3, #12]
 654 0006 7047     		bx	lr
 655              	.L58:
 656              		.align	2
 657              	.L57:
 658 0008 00000000 		.word	.LANCHOR0
ARM GAS  C:\Users\strap\AppData\Local\Temp\ccojJEGJ.s 			page 21


 659              		.cfi_endproc
 660              	.LFE385:
 661              		.size	lv_theme_get_color_primary, .-lv_theme_get_color_primary
 662              		.section	.text.lv_theme_get_color_secondary,"ax",%progbits
 663              		.align	2
 664              		.global	lv_theme_get_color_secondary
 665              		.thumb
 666              		.thumb_func
 667              		.type	lv_theme_get_color_secondary, %function
 668              	lv_theme_get_color_secondary:
 669              	.LFB386:
 170:lvgl\src\lv_themes/lv_theme.c ****     return act_theme->color_secondary;
 670              		.loc 1 170 0
 671              		.cfi_startproc
 672              		@ args = 0, pretend = 0, frame = 0
 673              		@ frame_needed = 0, uses_anonymous_args = 0
 674              		@ link register save eliminated.
 171:lvgl\src\lv_themes/lv_theme.c **** }
 675              		.loc 1 171 0
 676 0000 014B     		ldr	r3, .L60
 677 0002 1B68     		ldr	r3, [r3]
 172:lvgl\src\lv_themes/lv_theme.c **** 
 678              		.loc 1 172 0
 679 0004 D889     		ldrh	r0, [r3, #14]
 680 0006 7047     		bx	lr
 681              	.L61:
 682              		.align	2
 683              	.L60:
 684 0008 00000000 		.word	.LANCHOR0
 685              		.cfi_endproc
 686              	.LFE386:
 687              		.size	lv_theme_get_color_secondary, .-lv_theme_get_color_secondary
 688              		.section	.text.lv_theme_get_flags,"ax",%progbits
 689              		.align	2
 690              		.global	lv_theme_get_flags
 691              		.thumb
 692              		.thumb_func
 693              		.type	lv_theme_get_flags, %function
 694              	lv_theme_get_flags:
 695              	.LFB387:
 179:lvgl\src\lv_themes/lv_theme.c ****     return act_theme->flags;
 696              		.loc 1 179 0
 697              		.cfi_startproc
 698              		@ args = 0, pretend = 0, frame = 0
 699              		@ frame_needed = 0, uses_anonymous_args = 0
 700              		@ link register save eliminated.
 180:lvgl\src\lv_themes/lv_theme.c **** }
 701              		.loc 1 180 0
 702 0000 014B     		ldr	r3, .L63
 703 0002 1B68     		ldr	r3, [r3]
 181:lvgl\src\lv_themes/lv_theme.c **** 
 704              		.loc 1 181 0
 705 0004 186A     		ldr	r0, [r3, #32]
 706 0006 7047     		bx	lr
 707              	.L64:
 708              		.align	2
 709              	.L63:
ARM GAS  C:\Users\strap\AppData\Local\Temp\ccojJEGJ.s 			page 22


 710 0008 00000000 		.word	.LANCHOR0
 711              		.cfi_endproc
 712              	.LFE387:
 713              		.size	lv_theme_get_flags, .-lv_theme_get_flags
 714              		.bss
 715              		.align	2
 716              		.set	.LANCHOR0,. + 0
 717              		.type	act_theme, %object
 718              		.size	act_theme, 4
 719              	act_theme:
 720 0000 00000000 		.space	4
 721              		.text
 722              	.Letext0:
 723              		.file 2 "c:\\program files (x86)\\cypress\\psoc creator\\4.4\\psoc creator\\import\\gnu\\arm\\5.4.
 724              		.file 3 "c:\\program files (x86)\\cypress\\psoc creator\\4.4\\psoc creator\\import\\gnu\\arm\\5.4.
 725              		.file 4 "lvgl\\src\\lv_themes\\../../src/lv_misc/../../../lv_conf.h"
 726              		.file 5 "lvgl\\src\\lv_themes\\../../src/lv_misc/lv_types.h"
 727              		.file 6 "lvgl\\src\\lv_themes\\../../src/lv_misc/lv_ll.h"
 728              		.file 7 "lvgl\\src\\lv_themes\\../../src/lv_hal/../lv_misc/lv_color.h"
 729              		.file 8 "lvgl\\src\\lv_themes\\../../src/lv_hal/../lv_misc/lv_area.h"
 730              		.file 9 "lvgl\\src\\lv_themes\\../../src/lv_core/lv_obj.h"
 731              		.file 10 "lvgl\\src\\lv_themes\\../../src/lv_hal/lv_hal_indev.h"
 732              		.file 11 "lvgl\\src\\lv_themes\\../../src/lv_core/../lv_font/lv_font.h"
 733              		.file 12 "lvgl\\src\\lv_themes\\../../src/lv_core/lv_style.h"
 734              		.file 13 "lvgl\\src\\lv_themes\\../../src/lv_core/../lv_draw/../lv_misc/lv_bidi.h"
 735              		.file 14 "lvgl\\src\\lv_themes\\../../src/lv_themes/lv_theme.h"
 736              		.file 15 "lvgl\\src\\lv_themes\\../../src/lv_widgets/lv_cont.h"
 737              		.file 16 "lvgl\\src\\lv_themes\\../../src/lv_widgets/lv_btn.h"
 738              		.file 17 "lvgl\\src\\lv_themes\\../../src/lv_widgets/lv_label.h"
 739              		.file 18 "lvgl\\src\\lv_themes\\../../src/lv_widgets/lv_page.h"
 740              		.file 19 "lvgl\\src\\lv_themes\\../../src/lv_widgets/lv_checkbox.h"
 741              		.file 20 "lvgl\\src\\lv_themes\\../../src/lv_widgets/lv_led.h"
 742              		.file 21 "lvgl\\src\\lv_themes\\../../src/lv_widgets/lv_btnmatrix.h"
 743              		.file 22 "lvgl\\src\\lv_themes\\../../src/lv_widgets/lv_dropdown.h"
 744              		.file 23 "lvgl\\src\\lv_themes\\../../src/lv_widgets/lv_textarea.h"
 745              		.file 24 "lvgl\\src\\lv_themes\\../../src/lv_widgets/lv_tabview.h"
 746              		.file 25 "lvgl\\src\\lv_themes\\../../src/lv_widgets/lv_objmask.h"
 747              		.file 26 "lvgl\\src\\lv_themes\\../../src/lv_widgets/lv_spinbox.h"
 748              		.file 27 "lvgl\\src\\lv_themes\\../../src/lv_misc/lv_mem.h"